target datalayout = "e-m:e-p270:32:32-p271:32:32-p272:64:64-i64:64-i128:128-f80:128-n8:16:32:64-S128"
target triple = "x86_64-unknown-linux-gnu"

%"class.pbrt::SquareMatrix" = type { [3 x [3 x float]] }
%"class.std::__cxx11::basic_string" = type { %"struct.std::__cxx11::basic_string<char>::_Alloc_hider", i64, %union.anon }
%"struct.std::__cxx11::basic_string<char>::_Alloc_hider" = type { ptr }
%union.anon = type { i64, [8 x i8] }
%union.pthread_mutex_t = type { %struct.__pthread_mutex_s }
%struct.__pthread_mutex_s = type { i32, i32, i32, i32, i32, i16, i16, %struct.__pthread_internal_list }
%struct.__pthread_internal_list = type { ptr, ptr }
%"class.std::allocator" = type { i8 }
%"struct.pbrt::FileLoc" = type { %"class.std::basic_string_view", i32, i32 }
%"class.std::basic_string_view" = type { i64, ptr }
%"class.std::lock_guard" = type { ptr }
%struct._Guard = type { ptr }
%"class.std::__mutex_base" = type { %union.pthread_mutex_t }
%"class.std::__cxx11::basic_stringstream" = type { %"class.std::basic_iostream.base", %"class.std::__cxx11::basic_stringbuf", %"class.std::basic_ios" }
%"class.std::basic_iostream.base" = type { %"class.std::basic_istream.base", %"class.std::basic_ostream.base" }
%"class.std::basic_istream.base" = type { ptr, i64 }
%"class.std::basic_ostream.base" = type { ptr }
%"class.std::__cxx11::basic_stringbuf" = type { %"class.std::basic_streambuf", i32, %"class.std::__cxx11::basic_string" }
%"class.std::basic_streambuf" = type { ptr, ptr, ptr, ptr, ptr, ptr, ptr, %"class.std::locale" }
%"class.std::locale" = type { ptr }
%"class.std::basic_ios" = type { %"class.std::ios_base", ptr, i8, i8, ptr, ptr, ptr, ptr }
%"class.std::ios_base" = type { ptr, i64, i64, i32, i32, i32, ptr, %"struct.std::ios_base::_Words", [8 x %"struct.std::ios_base::_Words"], i32, ptr, %"class.std::locale" }
%"struct.std::ios_base::_Words" = type { ptr, i64 }
%"class.std::type_info" = type { ptr, ptr }

$_ZN4pbrt12SquareMatrixILi3EEC2IJddddddddEEEfDpT_ = comdat any

$_ZN4pbrt12StringPrintfIJNSt7__cxx1112basic_stringIcSt11char_traitsIcESaIcEEERKiS8_EEES6_PKcDpOT_ = comdat any

$_ZNKSt17basic_string_viewIcSt11char_traitsIcEE4dataEv = comdat any

$_ZNKSt17basic_string_viewIcSt11char_traitsIcEE4sizeEv = comdat any

$_ZN4pbrt12StringPrintfIJPcRiEEENSt7__cxx1112basic_stringIcSt11char_traitsIcESaIcEEEPKcDpOT_ = comdat any

$_ZN4pbrt3RedERKNSt7__cxx1112basic_stringIcSt11char_traitsIcESaIcEEE = comdat any

$_ZNSt7__cxx1112basic_stringIcSt11char_traitsIcESaIcEEC2IS3_EEPKcRKS3_ = comdat any

$_ZStplIcSt11char_traitsIcESaIcEENSt7__cxx1112basic_stringIT_T0_T1_EEPKS5_OS8_ = comdat any

$_ZNSt10lock_guardISt5mutexEC2ERS0_ = comdat any

$_ZStneIcSt11char_traitsIcESaIcEEbRKNSt7__cxx1112basic_stringIT_T0_T1_EESA_ = comdat any

$_ZN4pbrt3LogIJRNSt7__cxx1112basic_stringIcSt11char_traitsIcESaIcEEEEEEvNS_8LogLevelEPKciSA_DpOT_ = comdat any

$_ZNSt10lock_guardISt5mutexED2Ev = comdat any

$_ZStplIcSt11char_traitsIcESaIcEENSt7__cxx1112basic_stringIT_T0_T1_EEOS8_S9_ = comdat any

$_ZStplIcSt11char_traitsIcESaIcEENSt7__cxx1112basic_stringIT_T0_T1_EEOS8_RKS8_ = comdat any

$_ZNSt11char_traitsIcE6lengthEPKc = comdat any

$_ZNSt7__cxx1112basic_stringIcSt11char_traitsIcESaIcEE12_M_constructIPKcEEvT_S8_St20forward_iterator_tag = comdat any

$_ZNSt7__cxx1112basic_stringIcSt11char_traitsIcESaIcEE12_Alloc_hiderD2Ev = comdat any

$_ZSt8distanceIPKcENSt15iterator_traitsIT_E15difference_typeES3_S3_ = comdat any

$_ZZNSt7__cxx1112basic_stringIcSt11char_traitsIcESaIcEE12_M_constructIPKcEEvT_S8_St20forward_iterator_tagEN6_GuardC2EPS4_ = comdat any

$_ZZNSt7__cxx1112basic_stringIcSt11char_traitsIcESaIcEE12_M_constructIPKcEEvT_S8_St20forward_iterator_tagEN6_GuardD2Ev = comdat any

$_ZSt10__distanceIPKcENSt15iterator_traitsIT_E15difference_typeES3_S3_St26random_access_iterator_tag = comdat any

$_ZSt19__iterator_categoryIPKcENSt15iterator_traitsIT_E17iterator_categoryERKS3_ = comdat any

$__clang_call_terminate = comdat any

$_ZNSt5mutex4lockEv = comdat any

$_ZSteqIcEN9__gnu_cxx11__enable_ifIXsr9__is_charIT_EE7__valueEbE6__typeERKNSt7__cxx1112basic_stringIS2_St11char_traitsIS2_ESaIS2_EEESC_ = comdat any

$_ZNSt11char_traitsIcE7compareEPKcS2_m = comdat any

$_ZN4pbrt12StringPrintfIJRNSt7__cxx1112basic_stringIcSt11char_traitsIcESaIcEEEEEES6_PKcDpOT_ = comdat any

$_ZN4pbrt6detail21stringPrintfRecursiveIRNSt7__cxx1112basic_stringIcSt11char_traitsIcESaIcEEEJEEEvPS7_PKcOT_DpOT0_ = comdat any

$_ZN4pbrt6detaillsERSoRKNSt7__cxx1112basic_stringIcSt11char_traitsIcESaIcEEE = comdat any

$_ZN4pbrt6detail9formatOneIPKcEENSt9enable_ifIXntsr3stdE10is_class_vINSt5decayIT_E4typeEEENSt7__cxx1112basic_stringIcSt11char_traitsIcESaIcEEEE4typeES3_OS6_ = comdat any

$_ZN4pbrt6detail9formatOneIRNSt7__cxx1112basic_stringIcSt11char_traitsIcESaIcEEEEENSt9enable_ifIXsr3stdE10is_class_vINSt5decayIT_E4typeEEES7_E4typeEPKcOSB_ = comdat any

$_ZN4pbrt8LogFatalIJPKcRS2_EEEvNS_8LogLevelES2_iS2_DpOT_ = comdat any

$_ZNKSt9type_info4nameEv = comdat any

$_ZN4pbrt12StringPrintfIJPKcRS2_EEENSt7__cxx1112basic_stringIcSt11char_traitsIcESaIcEEES2_DpOT_ = comdat any

$_ZN4pbrt6detail21stringPrintfRecursiveIPKcJRS3_EEEvPNSt7__cxx1112basic_stringIcSt11char_traitsIcESaIcEEES3_OT_DpOT0_ = comdat any

$_ZN4pbrt6detail21stringPrintfRecursiveIRPKcJEEEvPNSt7__cxx1112basic_stringIcSt11char_traitsIcESaIcEEES3_OT_DpOT0_ = comdat any

$_ZN4pbrt6detail9formatOneIRPKcEENSt9enable_ifIXntsr3stdE10is_class_vINSt5decayIT_E4typeEEENSt7__cxx1112basic_stringIcSt11char_traitsIcESaIcEEEE4typeES3_OS7_ = comdat any

$_ZNSt5mutex6unlockEv = comdat any

$_ZN4pbrt6detail21stringPrintfRecursiveINSt7__cxx1112basic_stringIcSt11char_traitsIcESaIcEEEJRKiS9_EEEvPS7_PKcOT_DpOT0_ = comdat any

$_ZN4pbrt6detail9formatOneINSt7__cxx1112basic_stringIcSt11char_traitsIcESaIcEEEEENSt9enable_ifIXsr3stdE10is_class_vINSt5decayIT_E4typeEEES7_E4typeEPKcOSA_ = comdat any

$_ZN4pbrt6detail21stringPrintfRecursiveIRKiJS3_EEEvPNSt7__cxx1112basic_stringIcSt11char_traitsIcESaIcEEEPKcOT_DpOT0_ = comdat any

$_ZN4pbrt6detail34stringPrintfRecursiveWithPrecisionIRKiJEEENSt9enable_ifIXntsr3stdE10is_class_vINSt5decayIT_E4typeEEEvE4typeEPNSt7__cxx1112basic_stringIcSt11char_traitsIcESaIcEEEPKcRKSG_iOS6_DpOT0_ = comdat any

$_ZN4pbrt6detail18IntegerFormatTraitIiE3fmtEv = comdat any

$_ZN4pbrt6detail9formatOneIRKiEENSt9enable_ifIXntsr3stdE10is_class_vINSt5decayIT_E4typeEEENSt7__cxx1112basic_stringIcSt11char_traitsIcESaIcEEEE4typeEPKcOS6_ = comdat any

$_ZN4pbrt6detail21stringPrintfRecursiveIRKiJEEEvPNSt7__cxx1112basic_stringIcSt11char_traitsIcESaIcEEEPKcOT_DpOT0_ = comdat any

$_ZN4pbrt6detail34stringPrintfRecursiveWithPrecisionIRKiJEEEvPNSt7__cxx1112basic_stringIcSt11char_traitsIcESaIcEEEPKcRKS9_OT_DpOT0_ = comdat any

$_ZN4pbrt6detail21stringPrintfRecursiveIPcJRiEEEvPNSt7__cxx1112basic_stringIcSt11char_traitsIcESaIcEEEPKcOT_DpOT0_ = comdat any

$_ZN4pbrt6detail9formatOneIPcEENSt9enable_ifIXntsr3stdE10is_class_vINSt5decayIT_E4typeEEENSt7__cxx1112basic_stringIcSt11char_traitsIcESaIcEEEE4typeEPKcOS5_ = comdat any

$_ZN4pbrt6detail21stringPrintfRecursiveIRiJEEEvPNSt7__cxx1112basic_stringIcSt11char_traitsIcESaIcEEEPKcOT_DpOT0_ = comdat any

$_ZN4pbrt6detail34stringPrintfRecursiveWithPrecisionIRiJEEEvPNSt7__cxx1112basic_stringIcSt11char_traitsIcESaIcEEEPKcRKS8_OT_DpOT0_ = comdat any

$_ZN4pbrt6detail9formatOneIRiEENSt9enable_ifIXntsr3stdE10is_class_vINSt5decayIT_E4typeEEENSt7__cxx1112basic_stringIcSt11char_traitsIcESaIcEEEE4typeEPKcOS5_ = comdat any

$_ZTSNSt7__cxx1112basic_stringIcSt11char_traitsIcESaIcEEE = comdat any

$_ZTINSt7__cxx1112basic_stringIcSt11char_traitsIcESaIcEEE = comdat any

@_ZN4pbrtL10LMSFromXYZE = internal global %"class.pbrt::SquareMatrix" zeroinitializer, align 4
@_ZN4pbrtL10XYZFromLMSE = internal global %"class.pbrt::SquareMatrix" zeroinitializer, align 4
@_ZN4pbrtL5quietE = internal global i8 0, align 1
@.str = private unnamed_addr constant [9 x i8] c"%s:%d:%d\00", align 1
@.str.2 = private unnamed_addr constant [8 x i8] c"Warning\00", align 1
@.str.3 = private unnamed_addr constant [6 x i8] c"Error\00", align 1
@.str.4 = private unnamed_addr constant [8 x i8] c"%s (%d)\00", align 1
@.str.5 = private unnamed_addr constant [3 x i8] c": \00", align 1
@_ZZN4pbrtL12processErrorEPKcPKNS_7FileLocES1_E9lastErrorB5cxx11 = internal global %"class.std::__cxx11::basic_string" zeroinitializer, align 8
@_ZGVZN4pbrtL12processErrorEPKcPKNS_7FileLocES1_E9lastErrorB5cxx11 = internal global i64 0, align 8
@__dso_handle = external hidden global i8
@_ZZN4pbrtL12processErrorEPKcPKNS_7FileLocES1_E5mutex = internal global { %union.pthread_mutex_t } zeroinitializer, align 8
@stderr = external global ptr, align 8
@.str.6 = private unnamed_addr constant [4 x i8] c"%s\0A\00", align 1
@_ZN4pbrt7logging8logLevelE = external global i32, align 4
@.str.7 = private unnamed_addr constant [117 x i8] c"generated/home/dtcxzyw/WorkSpace/Projects/compilers/llvm-opt-benchmark/bench/pbrt-v4/pbrt-v4/src/pbrt/util/error.cpp\00", align 1
@.str.8 = private unnamed_addr constant [3 x i8] c"%s\00", align 1
@.str.9 = private unnamed_addr constant [10 x i8] c"\1B[1m\1B[31m\00", align 1
@.str.10 = private unnamed_addr constant [5 x i8] c"\1B[0m\00", align 1
@.str.11 = private unnamed_addr constant [50 x i8] c"basic_string: construction from null is not valid\00", align 1
@.str.12 = private unnamed_addr constant [115 x i8] c"generated/home/dtcxzyw/WorkSpace/Projects/compilers/llvm-opt-benchmark/bench/pbrt-v4/pbrt-v4/src/pbrt/util/print.h\00", align 1
@.str.13 = private unnamed_addr constant [42 x i8] c"Non-integral type provided for %* format.\00", align 1
@.str.14 = private unnamed_addr constant [39 x i8] c"Non-integral type passed to %d format.\00", align 1
@.str.15 = private unnamed_addr constant [32 x i8] c"Excess values passed to Printf.\00", align 1
@.str.16 = private unnamed_addr constant [54 x i8] c"Printf: Non-basic type %s passed for format string %s\00", align 1
@_ZTVN10__cxxabiv117__class_type_infoE = external global [0 x ptr]
@_ZTSNSt7__cxx1112basic_stringIcSt11char_traitsIcESaIcEEE = linkonce_odr dso_local constant [53 x i8] c"NSt7__cxx1112basic_stringIcSt11char_traitsIcESaIcEEE\00", comdat, align 1
@_ZTINSt7__cxx1112basic_stringIcSt11char_traitsIcESaIcEEE = linkonce_odr dso_local constant { ptr, ptr } { ptr getelementptr inbounds (ptr, ptr @_ZTVN10__cxxabiv117__class_type_infoE, i64 2), ptr @_ZTSNSt7__cxx1112basic_stringIcSt11char_traitsIcESaIcEEE }, comdat, align 8
@.str.17 = private unnamed_addr constant [2 x i8] c"d\00", align 1
@.str.18 = private unnamed_addr constant [4 x i8] c"MEH\00", align 1
@llvm.global_ctors = appending global [1 x { i32, ptr, ptr }] [{ i32, ptr, ptr } { i32 65535, ptr @_GLOBAL__sub_I_error.cpp, ptr null }]

; Function Attrs: uwtable
define internal void @__cxx_global_var_init() #0 section ".text.startup" {
entry:
  call void @_ZN4pbrt12SquareMatrixILi3EEC2IJddddddddEEEfDpT_(ptr noundef nonnull align 4 dereferenceable(36) @_ZN4pbrtL10LMSFromXYZE, float noundef 0x3FECA4A8C0000000, double noundef 2.664000e-01, double noundef -1.614000e-01, double noundef 0xBFE801A36E2EB1C4, double noundef 1.713500e+00, double noundef 3.670000e-02, double noundef 3.890000e-02, double noundef -6.850000e-02, double noundef 1.029600e+00)
  ret void
}

; Function Attrs: mustprogress uwtable
define linkonce_odr dso_local void @_ZN4pbrt12SquareMatrixILi3EEC2IJddddddddEEEfDpT_(ptr noundef nonnull align 4 dereferenceable(36) %this, float noundef %v, double noundef %args, double noundef %args1, double noundef %args3, double noundef %args5, double noundef %args7, double noundef %args9, double noundef %args11, double noundef %args13) unnamed_addr #1 comdat align 2 {
entry:
  %this.addr = alloca ptr, align 8
  %v.addr = alloca float, align 4
  %args.addr = alloca double, align 8
  %args.addr2 = alloca double, align 8
  %args.addr4 = alloca double, align 8
  %args.addr6 = alloca double, align 8
  %args.addr8 = alloca double, align 8
  %args.addr10 = alloca double, align 8
  %args.addr12 = alloca double, align 8
  %args.addr14 = alloca double, align 8
  store ptr %this, ptr %this.addr, align 8
  store float %v, ptr %v.addr, align 4
  store double %args, ptr %args.addr, align 8
  store double %args1, ptr %args.addr2, align 8
  store double %args3, ptr %args.addr4, align 8
  store double %args5, ptr %args.addr6, align 8
  store double %args7, ptr %args.addr8, align 8
  store double %args9, ptr %args.addr10, align 8
  store double %args11, ptr %args.addr12, align 8
  store double %args13, ptr %args.addr14, align 8
  %this15 = load ptr, ptr %this.addr, align 8
  %m = getelementptr inbounds %"class.pbrt::SquareMatrix", ptr %this15, i32 0, i32 0
  %arraydecay = getelementptr inbounds [3 x [3 x float]], ptr %m, i64 0, i64 0
  %0 = load float, ptr %v.addr, align 4
  %1 = load double, ptr %args.addr, align 8
  %2 = load double, ptr %args.addr2, align 8
  %3 = load double, ptr %args.addr4, align 8
  %4 = load double, ptr %args.addr6, align 8
  %5 = load double, ptr %args.addr8, align 8
  %6 = load double, ptr %args.addr10, align 8
  %7 = load double, ptr %args.addr12, align 8
  %8 = load double, ptr %args.addr14, align 8
  call void @_ZN4pbrt12_GLOBAL__N_14initILi3EJddddddddEEEvPAT__fiifDpT0_(ptr noundef %arraydecay, i32 noundef 0, i32 noundef 0, float noundef %0, double noundef %1, double noundef %2, double noundef %3, double noundef %4, double noundef %5, double noundef %6, double noundef %7, double noundef %8)
  ret void
}

; Function Attrs: uwtable
define internal void @__cxx_global_var_init.1() #0 section ".text.startup" {
entry:
  call void @_ZN4pbrt12SquareMatrixILi3EEC2IJddddddddEEEfDpT_(ptr noundef nonnull align 4 dereferenceable(36) @_ZN4pbrtL10XYZFromLMSE, float noundef 0x3FEF957260000000, double noundef -1.470540e-01, double noundef 1.599630e-01, double noundef 4.323050e-01, double noundef 5.183600e-01, double noundef 4.929120e-02, double noundef -8.528660e-03, double noundef 4.004280e-02, double noundef 0x3FEEFDD872F33CA3)
  ret void
}

; Function Attrs: mustprogress nounwind uwtable
define dso_local void @_ZN4pbrt21SuppressErrorMessagesEv() #2 {
entry:
  store i8 1, ptr @_ZN4pbrtL5quietE, align 1
  ret void
}

; Function Attrs: mustprogress uwtable
define dso_local void @_ZNK4pbrt7FileLoc8ToStringB5cxx11Ev(ptr noalias sret(%"class.std::__cxx11::basic_string") align 8 %agg.result, ptr noundef nonnull align 8 dereferenceable(24) %this) #1 align 2 personality ptr @__gxx_personality_v0 {
entry:
  %result.ptr = alloca ptr, align 8
  %this.addr = alloca ptr, align 8
  %ref.tmp = alloca %"class.std::__cxx11::basic_string", align 8
  %ref.tmp4 = alloca %"class.std::allocator", align 1
  %exn.slot = alloca ptr, align 8
  %ehselector.slot = alloca i32, align 4
  store ptr %agg.result, ptr %result.ptr, align 8
  store ptr %this, ptr %this.addr, align 8
  %this1 = load ptr, ptr %this.addr, align 8
  %filename = getelementptr inbounds %"struct.pbrt::FileLoc", ptr %this1, i32 0, i32 0
  %call = call noundef ptr @_ZNKSt17basic_string_viewIcSt11char_traitsIcEE4dataEv(ptr noundef nonnull align 8 dereferenceable(16) %filename) #8
  %filename2 = getelementptr inbounds %"struct.pbrt::FileLoc", ptr %this1, i32 0, i32 0
  %call3 = call noundef i64 @_ZNKSt17basic_string_viewIcSt11char_traitsIcEE4sizeEv(ptr noundef nonnull align 8 dereferenceable(16) %filename2) #8
  call void @_ZNSaIcEC1Ev(ptr noundef nonnull align 1 dereferenceable(1) %ref.tmp4) #8
  invoke void @_ZNSt7__cxx1112basic_stringIcSt11char_traitsIcESaIcEEC1EPKcmRKS3_(ptr noundef nonnull align 8 dereferenceable(32) %ref.tmp, ptr noundef %call, i64 noundef %call3, ptr noundef nonnull align 1 dereferenceable(1) %ref.tmp4)
          to label %invoke.cont unwind label %lpad

invoke.cont:                                      ; preds = %entry
  %line = getelementptr inbounds %"struct.pbrt::FileLoc", ptr %this1, i32 0, i32 1
  %column = getelementptr inbounds %"struct.pbrt::FileLoc", ptr %this1, i32 0, i32 2
  invoke void @_ZN4pbrt12StringPrintfIJNSt7__cxx1112basic_stringIcSt11char_traitsIcESaIcEEERKiS8_EEES6_PKcDpOT_(ptr sret(%"class.std::__cxx11::basic_string") align 8 %agg.result, ptr noundef @.str, ptr noundef nonnull align 8 dereferenceable(32) %ref.tmp, ptr noundef nonnull align 4 dereferenceable(4) %line, ptr noundef nonnull align 4 dereferenceable(4) %column)
          to label %invoke.cont6 unwind label %lpad5

invoke.cont6:                                     ; preds = %invoke.cont
  call void @_ZNSt7__cxx1112basic_stringIcSt11char_traitsIcESaIcEED1Ev(ptr noundef nonnull align 8 dereferenceable(32) %ref.tmp) #8
  call void @_ZNSaIcED1Ev(ptr noundef nonnull align 1 dereferenceable(1) %ref.tmp4) #8
  ret void

lpad:                                             ; preds = %entry
  %0 = landingpad { ptr, i32 }
          cleanup
  %1 = extractvalue { ptr, i32 } %0, 0
  store ptr %1, ptr %exn.slot, align 8
  %2 = extractvalue { ptr, i32 } %0, 1
  store i32 %2, ptr %ehselector.slot, align 4
  br label %ehcleanup

lpad5:                                            ; preds = %invoke.cont
  %3 = landingpad { ptr, i32 }
          cleanup
  %4 = extractvalue { ptr, i32 } %3, 0
  store ptr %4, ptr %exn.slot, align 8
  %5 = extractvalue { ptr, i32 } %3, 1
  store i32 %5, ptr %ehselector.slot, align 4
  call void @_ZNSt7__cxx1112basic_stringIcSt11char_traitsIcESaIcEED1Ev(ptr noundef nonnull align 8 dereferenceable(32) %ref.tmp) #8
  br label %ehcleanup

ehcleanup:                                        ; preds = %lpad5, %lpad
  call void @_ZNSaIcED1Ev(ptr noundef nonnull align 1 dereferenceable(1) %ref.tmp4) #8
  br label %eh.resume

eh.resume:                                        ; preds = %ehcleanup
  %exn = load ptr, ptr %exn.slot, align 8
  %sel = load i32, ptr %ehselector.slot, align 4
  %lpad.val = insertvalue { ptr, i32 } poison, ptr %exn, 0
  %lpad.val7 = insertvalue { ptr, i32 } %lpad.val, i32 %sel, 1
  resume { ptr, i32 } %lpad.val7
}

; Function Attrs: mustprogress uwtable
define linkonce_odr dso_local void @_ZN4pbrt12StringPrintfIJNSt7__cxx1112basic_stringIcSt11char_traitsIcESaIcEEERKiS8_EEES6_PKcDpOT_(ptr noalias sret(%"class.std::__cxx11::basic_string") align 8 %agg.result, ptr noundef %fmt, ptr noundef nonnull align 8 dereferenceable(32) %args, ptr noundef nonnull align 4 dereferenceable(4) %args1, ptr noundef nonnull align 4 dereferenceable(4) %args3) #1 comdat personality ptr @__gxx_personality_v0 {
entry:
  %result.ptr = alloca ptr, align 8
  %fmt.addr = alloca ptr, align 8
  %args.addr = alloca ptr, align 8
  %args.addr2 = alloca ptr, align 8
  %args.addr4 = alloca ptr, align 8
  %nrvo = alloca i1, align 1
  %exn.slot = alloca ptr, align 8
  %ehselector.slot = alloca i32, align 4
  store ptr %agg.result, ptr %result.ptr, align 8
  store ptr %fmt, ptr %fmt.addr, align 8
  store ptr %args, ptr %args.addr, align 8
  store ptr %args1, ptr %args.addr2, align 8
  store ptr %args3, ptr %args.addr4, align 8
  store i1 false, ptr %nrvo, align 1
  call void @_ZNSt7__cxx1112basic_stringIcSt11char_traitsIcESaIcEEC1Ev(ptr noundef nonnull align 8 dereferenceable(32) %agg.result) #8
  %0 = load ptr, ptr %fmt.addr, align 8
  %1 = load ptr, ptr %args.addr, align 8
  %2 = load ptr, ptr %args.addr2, align 8
  %3 = load ptr, ptr %args.addr4, align 8
  invoke void @_ZN4pbrt6detail21stringPrintfRecursiveINSt7__cxx1112basic_stringIcSt11char_traitsIcESaIcEEEJRKiS9_EEEvPS7_PKcOT_DpOT0_(ptr noundef %agg.result, ptr noundef %0, ptr noundef nonnull align 8 dereferenceable(32) %1, ptr noundef nonnull align 4 dereferenceable(4) %2, ptr noundef nonnull align 4 dereferenceable(4) %3)
          to label %invoke.cont unwind label %lpad

invoke.cont:                                      ; preds = %entry
  store i1 true, ptr %nrvo, align 1
  %nrvo.val = load i1, ptr %nrvo, align 1
  br i1 %nrvo.val, label %nrvo.skipdtor, label %nrvo.unused

lpad:                                             ; preds = %entry
  %4 = landingpad { ptr, i32 }
          cleanup
  %5 = extractvalue { ptr, i32 } %4, 0
  store ptr %5, ptr %exn.slot, align 8
  %6 = extractvalue { ptr, i32 } %4, 1
  store i32 %6, ptr %ehselector.slot, align 4
  call void @_ZNSt7__cxx1112basic_stringIcSt11char_traitsIcESaIcEED1Ev(ptr noundef nonnull align 8 dereferenceable(32) %agg.result) #8
  br label %eh.resume

nrvo.unused:                                      ; preds = %invoke.cont
  call void @_ZNSt7__cxx1112basic_stringIcSt11char_traitsIcESaIcEED1Ev(ptr noundef nonnull align 8 dereferenceable(32) %agg.result) #8
  br label %nrvo.skipdtor

nrvo.skipdtor:                                    ; preds = %nrvo.unused, %invoke.cont
  ret void

eh.resume:                                        ; preds = %lpad
  %exn = load ptr, ptr %exn.slot, align 8
  %sel = load i32, ptr %ehselector.slot, align 4
  %lpad.val = insertvalue { ptr, i32 } poison, ptr %exn, 0
  %lpad.val5 = insertvalue { ptr, i32 } %lpad.val, i32 %sel, 1
  resume { ptr, i32 } %lpad.val5
}

; Function Attrs: mustprogress nounwind uwtable
define linkonce_odr dso_local noundef ptr @_ZNKSt17basic_string_viewIcSt11char_traitsIcEE4dataEv(ptr noundef nonnull align 8 dereferenceable(16) %this) #2 comdat align 2 {
entry:
  %this.addr = alloca ptr, align 8
  store ptr %this, ptr %this.addr, align 8
  %this1 = load ptr, ptr %this.addr, align 8
  %_M_str = getelementptr inbounds %"class.std::basic_string_view", ptr %this1, i32 0, i32 1
  %0 = load ptr, ptr %_M_str, align 8
  ret ptr %0
}

; Function Attrs: mustprogress nounwind uwtable
define linkonce_odr dso_local noundef i64 @_ZNKSt17basic_string_viewIcSt11char_traitsIcEE4sizeEv(ptr noundef nonnull align 8 dereferenceable(16) %this) #2 comdat align 2 {
entry:
  %this.addr = alloca ptr, align 8
  store ptr %this, ptr %this.addr, align 8
  %this1 = load ptr, ptr %this.addr, align 8
  %_M_len = getelementptr inbounds %"class.std::basic_string_view", ptr %this1, i32 0, i32 0
  %0 = load i64, ptr %_M_len, align 8
  ret i64 %0
}

; Function Attrs: nounwind
declare void @_ZNSaIcEC1Ev(ptr noundef nonnull align 1 dereferenceable(1)) unnamed_addr #3

declare void @_ZNSt7__cxx1112basic_stringIcSt11char_traitsIcESaIcEEC1EPKcmRKS3_(ptr noundef nonnull align 8 dereferenceable(32), ptr noundef, i64 noundef, ptr noundef nonnull align 1 dereferenceable(1)) unnamed_addr #4

declare i32 @__gxx_personality_v0(...)

; Function Attrs: nounwind
declare void @_ZNSt7__cxx1112basic_stringIcSt11char_traitsIcESaIcEED1Ev(ptr noundef nonnull align 8 dereferenceable(32)) unnamed_addr #3

; Function Attrs: nounwind
declare void @_ZNSaIcED1Ev(ptr noundef nonnull align 1 dereferenceable(1)) unnamed_addr #3

; Function Attrs: mustprogress uwtable
define dso_local void @_ZN4pbrt7WarningEPKNS_7FileLocEPKc(ptr noundef %loc, ptr noundef %message) #1 {
entry:
  %loc.addr = alloca ptr, align 8
  %message.addr = alloca ptr, align 8
  store ptr %loc, ptr %loc.addr, align 8
  store ptr %message, ptr %message.addr, align 8
  %0 = load i8, ptr @_ZN4pbrtL5quietE, align 1
  %tobool = trunc i8 %0 to i1
  br i1 %tobool, label %if.then, label %if.end

if.then:                                          ; preds = %entry
  br label %return

if.end:                                           ; preds = %entry
  %1 = load ptr, ptr %loc.addr, align 8
  %2 = load ptr, ptr %message.addr, align 8
  call void @_ZN4pbrtL12processErrorEPKcPKNS_7FileLocES1_(ptr noundef @.str.2, ptr noundef %1, ptr noundef %2)
  br label %return

return:                                           ; preds = %if.end, %if.then
  ret void
}

; Function Attrs: mustprogress uwtable
define internal void @_ZN4pbrtL12processErrorEPKcPKNS_7FileLocES1_(ptr noundef %errorType, ptr noundef %loc, ptr noundef %message) #1 personality ptr @__gxx_personality_v0 {
entry:
  %errorType.addr = alloca ptr, align 8
  %loc.addr = alloca ptr, align 8
  %message.addr = alloca ptr, align 8
  %errorString = alloca %"class.std::__cxx11::basic_string", align 8
  %ref.tmp = alloca %"class.std::__cxx11::basic_string", align 8
  %ref.tmp1 = alloca %"class.std::allocator", align 1
  %exn.slot = alloca ptr, align 8
  %ehselector.slot = alloca i32, align 4
  %ref.tmp4 = alloca %"class.std::__cxx11::basic_string", align 8
  %ref.tmp5 = alloca %"class.std::__cxx11::basic_string", align 8
  %lock = alloca %"class.std::lock_guard", align 8
  store ptr %errorType, ptr %errorType.addr, align 8
  store ptr %loc, ptr %loc.addr, align 8
  store ptr %message, ptr %message.addr, align 8
  %0 = load ptr, ptr %errorType.addr, align 8
  call void @_ZNSaIcEC1Ev(ptr noundef nonnull align 1 dereferenceable(1) %ref.tmp1) #8
  invoke void @_ZNSt7__cxx1112basic_stringIcSt11char_traitsIcESaIcEEC2IS3_EEPKcRKS3_(ptr noundef nonnull align 8 dereferenceable(32) %ref.tmp, ptr noundef %0, ptr noundef nonnull align 1 dereferenceable(1) %ref.tmp1)
          to label %invoke.cont unwind label %lpad

invoke.cont:                                      ; preds = %entry
  invoke void @_ZN4pbrt3RedERKNSt7__cxx1112basic_stringIcSt11char_traitsIcESaIcEEE(ptr sret(%"class.std::__cxx11::basic_string") align 8 %errorString, ptr noundef nonnull align 8 dereferenceable(32) %ref.tmp)
          to label %invoke.cont3 unwind label %lpad2

invoke.cont3:                                     ; preds = %invoke.cont
  call void @_ZNSt7__cxx1112basic_stringIcSt11char_traitsIcESaIcEED1Ev(ptr noundef nonnull align 8 dereferenceable(32) %ref.tmp) #8
  call void @_ZNSaIcED1Ev(ptr noundef nonnull align 1 dereferenceable(1) %ref.tmp1) #8
  %1 = load ptr, ptr %loc.addr, align 8
  %tobool = icmp ne ptr %1, null
  br i1 %tobool, label %if.then, label %if.end

if.then:                                          ; preds = %invoke.cont3
  %2 = load ptr, ptr %loc.addr, align 8
  invoke void @_ZNK4pbrt7FileLoc8ToStringB5cxx11Ev(ptr sret(%"class.std::__cxx11::basic_string") align 8 %ref.tmp5, ptr noundef nonnull align 8 dereferenceable(24) %2)
          to label %invoke.cont7 unwind label %lpad6

invoke.cont7:                                     ; preds = %if.then
  invoke void @_ZStplIcSt11char_traitsIcESaIcEENSt7__cxx1112basic_stringIT_T0_T1_EEPKS5_OS8_(ptr sret(%"class.std::__cxx11::basic_string") align 8 %ref.tmp4, ptr noundef @.str.5, ptr noundef nonnull align 8 dereferenceable(32) %ref.tmp5)
          to label %invoke.cont9 unwind label %lpad8

invoke.cont9:                                     ; preds = %invoke.cont7
  %call = invoke noundef nonnull align 8 dereferenceable(32) ptr @_ZNSt7__cxx1112basic_stringIcSt11char_traitsIcESaIcEEpLERKS4_(ptr noundef nonnull align 8 dereferenceable(32) %errorString, ptr noundef nonnull align 8 dereferenceable(32) %ref.tmp4)
          to label %invoke.cont11 unwind label %lpad10

invoke.cont11:                                    ; preds = %invoke.cont9
  call void @_ZNSt7__cxx1112basic_stringIcSt11char_traitsIcESaIcEED1Ev(ptr noundef nonnull align 8 dereferenceable(32) %ref.tmp4) #8
  call void @_ZNSt7__cxx1112basic_stringIcSt11char_traitsIcESaIcEED1Ev(ptr noundef nonnull align 8 dereferenceable(32) %ref.tmp5) #8
  br label %if.end

lpad:                                             ; preds = %entry
  %3 = landingpad { ptr, i32 }
          cleanup
  %4 = extractvalue { ptr, i32 } %3, 0
  store ptr %4, ptr %exn.slot, align 8
  %5 = extractvalue { ptr, i32 } %3, 1
  store i32 %5, ptr %ehselector.slot, align 4
  br label %ehcleanup

lpad2:                                            ; preds = %invoke.cont
  %6 = landingpad { ptr, i32 }
          cleanup
  %7 = extractvalue { ptr, i32 } %6, 0
  store ptr %7, ptr %exn.slot, align 8
  %8 = extractvalue { ptr, i32 } %6, 1
  store i32 %8, ptr %ehselector.slot, align 4
  call void @_ZNSt7__cxx1112basic_stringIcSt11char_traitsIcESaIcEED1Ev(ptr noundef nonnull align 8 dereferenceable(32) %ref.tmp) #8
  br label %ehcleanup

ehcleanup:                                        ; preds = %lpad2, %lpad
  call void @_ZNSaIcED1Ev(ptr noundef nonnull align 1 dereferenceable(1) %ref.tmp1) #8
  br label %eh.resume

lpad6:                                            ; preds = %init.end, %invoke.cont14, %if.end, %if.then
  %9 = landingpad { ptr, i32 }
          cleanup
  %10 = extractvalue { ptr, i32 } %9, 0
  store ptr %10, ptr %exn.slot, align 8
  %11 = extractvalue { ptr, i32 } %9, 1
  store i32 %11, ptr %ehselector.slot, align 4
  br label %ehcleanup31

lpad8:                                            ; preds = %invoke.cont7
  %12 = landingpad { ptr, i32 }
          cleanup
  %13 = extractvalue { ptr, i32 } %12, 0
  store ptr %13, ptr %exn.slot, align 8
  %14 = extractvalue { ptr, i32 } %12, 1
  store i32 %14, ptr %ehselector.slot, align 4
  br label %ehcleanup13

lpad10:                                           ; preds = %invoke.cont9
  %15 = landingpad { ptr, i32 }
          cleanup
  %16 = extractvalue { ptr, i32 } %15, 0
  store ptr %16, ptr %exn.slot, align 8
  %17 = extractvalue { ptr, i32 } %15, 1
  store i32 %17, ptr %ehselector.slot, align 4
  call void @_ZNSt7__cxx1112basic_stringIcSt11char_traitsIcESaIcEED1Ev(ptr noundef nonnull align 8 dereferenceable(32) %ref.tmp4) #8
  br label %ehcleanup13

ehcleanup13:                                      ; preds = %lpad10, %lpad8
  call void @_ZNSt7__cxx1112basic_stringIcSt11char_traitsIcESaIcEED1Ev(ptr noundef nonnull align 8 dereferenceable(32) %ref.tmp5) #8
  br label %ehcleanup31

if.end:                                           ; preds = %invoke.cont11, %invoke.cont3
  %call15 = invoke noundef nonnull align 8 dereferenceable(32) ptr @_ZNSt7__cxx1112basic_stringIcSt11char_traitsIcESaIcEEpLEPKc(ptr noundef nonnull align 8 dereferenceable(32) %errorString, ptr noundef @.str.5)
          to label %invoke.cont14 unwind label %lpad6

invoke.cont14:                                    ; preds = %if.end
  %18 = load ptr, ptr %message.addr, align 8
  %call17 = invoke noundef nonnull align 8 dereferenceable(32) ptr @_ZNSt7__cxx1112basic_stringIcSt11char_traitsIcESaIcEEpLEPKc(ptr noundef nonnull align 8 dereferenceable(32) %errorString, ptr noundef %18)
          to label %invoke.cont16 unwind label %lpad6

invoke.cont16:                                    ; preds = %invoke.cont14
  %19 = load atomic i8, ptr @_ZGVZN4pbrtL12processErrorEPKcPKNS_7FileLocES1_E9lastErrorB5cxx11 acquire, align 8
  %guard.uninitialized = icmp eq i8 %19, 0
  br i1 %guard.uninitialized, label %init.check, label %init.end, !prof !5

init.check:                                       ; preds = %invoke.cont16
  %20 = call i32 @__cxa_guard_acquire(ptr @_ZGVZN4pbrtL12processErrorEPKcPKNS_7FileLocES1_E9lastErrorB5cxx11) #8
  %tobool18 = icmp ne i32 %20, 0
  br i1 %tobool18, label %init, label %init.end

init:                                             ; preds = %init.check
  call void @_ZNSt7__cxx1112basic_stringIcSt11char_traitsIcESaIcEEC1Ev(ptr noundef nonnull align 8 dereferenceable(32) @_ZZN4pbrtL12processErrorEPKcPKNS_7FileLocES1_E9lastErrorB5cxx11) #8
  %21 = call i32 @__cxa_atexit(ptr @_ZNSt7__cxx1112basic_stringIcSt11char_traitsIcESaIcEED1Ev, ptr @_ZZN4pbrtL12processErrorEPKcPKNS_7FileLocES1_E9lastErrorB5cxx11, ptr @__dso_handle) #8
  call void @__cxa_guard_release(ptr @_ZGVZN4pbrtL12processErrorEPKcPKNS_7FileLocES1_E9lastErrorB5cxx11) #8
  br label %init.end

init.end:                                         ; preds = %init, %init.check, %invoke.cont16
  invoke void @_ZNSt10lock_guardISt5mutexEC2ERS0_(ptr noundef nonnull align 8 dereferenceable(8) %lock, ptr noundef nonnull align 8 dereferenceable(40) @_ZZN4pbrtL12processErrorEPKcPKNS_7FileLocES1_E5mutex)
          to label %invoke.cont19 unwind label %lpad6

invoke.cont19:                                    ; preds = %init.end
  %call20 = call noundef zeroext i1 @_ZStneIcSt11char_traitsIcESaIcEEbRKNSt7__cxx1112basic_stringIT_T0_T1_EESA_(ptr noundef nonnull align 8 dereferenceable(32) %errorString, ptr noundef nonnull align 8 dereferenceable(32) @_ZZN4pbrtL12processErrorEPKcPKNS_7FileLocES1_E9lastErrorB5cxx11) #8
  br i1 %call20, label %if.then21, label %if.end29

if.then21:                                        ; preds = %invoke.cont19
  %22 = load ptr, ptr @stderr, align 8
  %call22 = call noundef ptr @_ZNKSt7__cxx1112basic_stringIcSt11char_traitsIcESaIcEE5c_strEv(ptr noundef nonnull align 8 dereferenceable(32) %errorString) #8
  %call25 = invoke i32 (ptr, ptr, ...) @fprintf(ptr noundef %22, ptr noundef @.str.6, ptr noundef %call22)
          to label %invoke.cont24 unwind label %lpad23

invoke.cont24:                                    ; preds = %if.then21
  %23 = load i32, ptr @_ZN4pbrt7logging8logLevelE, align 4
  %cmp = icmp sge i32 0, %23
  br i1 %cmp, label %land.rhs, label %land.end

land.rhs:                                         ; preds = %invoke.cont24
  invoke void @_ZN4pbrt3LogIJRNSt7__cxx1112basic_stringIcSt11char_traitsIcESaIcEEEEEEvNS_8LogLevelEPKciSA_DpOT_(i32 noundef 0, ptr noundef @.str.7, i32 noundef 52, ptr noundef @.str.8, ptr noundef nonnull align 8 dereferenceable(32) %errorString)
          to label %invoke.cont26 unwind label %lpad23

invoke.cont26:                                    ; preds = %land.rhs
  br label %land.end

land.end:                                         ; preds = %invoke.cont26, %invoke.cont24
  %call28 = invoke noundef nonnull align 8 dereferenceable(32) ptr @_ZNSt7__cxx1112basic_stringIcSt11char_traitsIcESaIcEEaSERKS4_(ptr noundef nonnull align 8 dereferenceable(32) @_ZZN4pbrtL12processErrorEPKcPKNS_7FileLocES1_E9lastErrorB5cxx11, ptr noundef nonnull align 8 dereferenceable(32) %errorString)
          to label %invoke.cont27 unwind label %lpad23

invoke.cont27:                                    ; preds = %land.end
  br label %if.end29

lpad23:                                           ; preds = %land.end, %land.rhs, %if.then21
  %24 = landingpad { ptr, i32 }
          cleanup
  %25 = extractvalue { ptr, i32 } %24, 0
  store ptr %25, ptr %exn.slot, align 8
  %26 = extractvalue { ptr, i32 } %24, 1
  store i32 %26, ptr %ehselector.slot, align 4
  call void @_ZNSt10lock_guardISt5mutexED2Ev(ptr noundef nonnull align 8 dereferenceable(8) %lock) #8
  br label %ehcleanup31

if.end29:                                         ; preds = %invoke.cont27, %invoke.cont19
  call void @_ZNSt10lock_guardISt5mutexED2Ev(ptr noundef nonnull align 8 dereferenceable(8) %lock) #8
  call void @_ZNSt7__cxx1112basic_stringIcSt11char_traitsIcESaIcEED1Ev(ptr noundef nonnull align 8 dereferenceable(32) %errorString) #8
  ret void

ehcleanup31:                                      ; preds = %lpad23, %ehcleanup13, %lpad6
  call void @_ZNSt7__cxx1112basic_stringIcSt11char_traitsIcESaIcEED1Ev(ptr noundef nonnull align 8 dereferenceable(32) %errorString) #8
  br label %eh.resume

eh.resume:                                        ; preds = %ehcleanup31, %ehcleanup
  %exn = load ptr, ptr %exn.slot, align 8
  %sel = load i32, ptr %ehselector.slot, align 4
  %lpad.val = insertvalue { ptr, i32 } poison, ptr %exn, 0
  %lpad.val32 = insertvalue { ptr, i32 } %lpad.val, i32 %sel, 1
  resume { ptr, i32 } %lpad.val32
}

; Function Attrs: mustprogress uwtable
define dso_local void @_ZN4pbrt5ErrorEPKNS_7FileLocEPKc(ptr noundef %loc, ptr noundef %message) #1 {
entry:
  %loc.addr = alloca ptr, align 8
  %message.addr = alloca ptr, align 8
  store ptr %loc, ptr %loc.addr, align 8
  store ptr %message, ptr %message.addr, align 8
  %0 = load i8, ptr @_ZN4pbrtL5quietE, align 1
  %tobool = trunc i8 %0 to i1
  br i1 %tobool, label %if.then, label %if.end

if.then:                                          ; preds = %entry
  br label %return

if.end:                                           ; preds = %entry
  %1 = load ptr, ptr %loc.addr, align 8
  %2 = load ptr, ptr %message.addr, align 8
  call void @_ZN4pbrtL12processErrorEPKcPKNS_7FileLocES1_(ptr noundef @.str.3, ptr noundef %1, ptr noundef %2)
  br label %return

return:                                           ; preds = %if.end, %if.then
  ret void
}

; Function Attrs: mustprogress noreturn uwtable
define dso_local void @_ZN4pbrt9ErrorExitEPKNS_7FileLocEPKc(ptr noundef %loc, ptr noundef %message) #5 {
entry:
  %loc.addr = alloca ptr, align 8
  %message.addr = alloca ptr, align 8
  store ptr %loc, ptr %loc.addr, align 8
  store ptr %message, ptr %message.addr, align 8
  %0 = load ptr, ptr %loc.addr, align 8
  %1 = load ptr, ptr %message.addr, align 8
  call void @_ZN4pbrtL12processErrorEPKcPKNS_7FileLocES1_(ptr noundef @.str.3, ptr noundef %0, ptr noundef %1)
  call void @_ZN4pbrt27DisconnectFromDisplayServerEv()
  call void @quick_exit(i32 noundef 1) #11
  unreachable
}

declare void @_ZN4pbrt27DisconnectFromDisplayServerEv() #4

; Function Attrs: noreturn nounwind
declare void @quick_exit(i32 noundef) #6

; Function Attrs: mustprogress nounwind uwtable
define dso_local noundef i32 @_ZN4pbrt9LastErrorEv() #2 {
entry:
  %call = call ptr @__errno_location() #12
  %0 = load i32, ptr %call, align 4
  ret i32 %0
}

; Function Attrs: nounwind willreturn memory(none)
declare ptr @__errno_location() #7

; Function Attrs: mustprogress uwtable
define dso_local void @_ZN4pbrt11ErrorStringB5cxx11Ei(ptr noalias sret(%"class.std::__cxx11::basic_string") align 8 %agg.result, i32 noundef %errorId) #1 {
entry:
  %result.ptr = alloca ptr, align 8
  %errorId.addr = alloca i32, align 4
  %ref.tmp = alloca ptr, align 8
  store ptr %agg.result, ptr %result.ptr, align 8
  store i32 %errorId, ptr %errorId.addr, align 4
  %0 = load i32, ptr %errorId.addr, align 4
  %call = call ptr @strerror(i32 noundef %0) #8
  store ptr %call, ptr %ref.tmp, align 8
  call void @_ZN4pbrt12StringPrintfIJPcRiEEENSt7__cxx1112basic_stringIcSt11char_traitsIcESaIcEEEPKcDpOT_(ptr sret(%"class.std::__cxx11::basic_string") align 8 %agg.result, ptr noundef @.str.4, ptr noundef nonnull align 8 dereferenceable(8) %ref.tmp, ptr noundef nonnull align 4 dereferenceable(4) %errorId.addr)
  ret void
}

; Function Attrs: mustprogress uwtable
define linkonce_odr dso_local void @_ZN4pbrt12StringPrintfIJPcRiEEENSt7__cxx1112basic_stringIcSt11char_traitsIcESaIcEEEPKcDpOT_(ptr noalias sret(%"class.std::__cxx11::basic_string") align 8 %agg.result, ptr noundef %fmt, ptr noundef nonnull align 8 dereferenceable(8) %args, ptr noundef nonnull align 4 dereferenceable(4) %args1) #1 comdat personality ptr @__gxx_personality_v0 {
entry:
  %result.ptr = alloca ptr, align 8
  %fmt.addr = alloca ptr, align 8
  %args.addr = alloca ptr, align 8
  %args.addr2 = alloca ptr, align 8
  %nrvo = alloca i1, align 1
  %exn.slot = alloca ptr, align 8
  %ehselector.slot = alloca i32, align 4
  store ptr %agg.result, ptr %result.ptr, align 8
  store ptr %fmt, ptr %fmt.addr, align 8
  store ptr %args, ptr %args.addr, align 8
  store ptr %args1, ptr %args.addr2, align 8
  store i1 false, ptr %nrvo, align 1
  call void @_ZNSt7__cxx1112basic_stringIcSt11char_traitsIcESaIcEEC1Ev(ptr noundef nonnull align 8 dereferenceable(32) %agg.result) #8
  %0 = load ptr, ptr %fmt.addr, align 8
  %1 = load ptr, ptr %args.addr, align 8
  %2 = load ptr, ptr %args.addr2, align 8
  invoke void @_ZN4pbrt6detail21stringPrintfRecursiveIPcJRiEEEvPNSt7__cxx1112basic_stringIcSt11char_traitsIcESaIcEEEPKcOT_DpOT0_(ptr noundef %agg.result, ptr noundef %0, ptr noundef nonnull align 8 dereferenceable(8) %1, ptr noundef nonnull align 4 dereferenceable(4) %2)
          to label %invoke.cont unwind label %lpad

invoke.cont:                                      ; preds = %entry
  store i1 true, ptr %nrvo, align 1
  %nrvo.val = load i1, ptr %nrvo, align 1
  br i1 %nrvo.val, label %nrvo.skipdtor, label %nrvo.unused

lpad:                                             ; preds = %entry
  %3 = landingpad { ptr, i32 }
          cleanup
  %4 = extractvalue { ptr, i32 } %3, 0
  store ptr %4, ptr %exn.slot, align 8
  %5 = extractvalue { ptr, i32 } %3, 1
  store i32 %5, ptr %ehselector.slot, align 4
  call void @_ZNSt7__cxx1112basic_stringIcSt11char_traitsIcESaIcEED1Ev(ptr noundef nonnull align 8 dereferenceable(32) %agg.result) #8
  br label %eh.resume

nrvo.unused:                                      ; preds = %invoke.cont
  call void @_ZNSt7__cxx1112basic_stringIcSt11char_traitsIcESaIcEED1Ev(ptr noundef nonnull align 8 dereferenceable(32) %agg.result) #8
  br label %nrvo.skipdtor

nrvo.skipdtor:                                    ; preds = %nrvo.unused, %invoke.cont
  ret void

eh.resume:                                        ; preds = %lpad
  %exn = load ptr, ptr %exn.slot, align 8
  %sel = load i32, ptr %ehselector.slot, align 4
  %lpad.val = insertvalue { ptr, i32 } poison, ptr %exn, 0
  %lpad.val3 = insertvalue { ptr, i32 } %lpad.val, i32 %sel, 1
  resume { ptr, i32 } %lpad.val3
}

; Function Attrs: nounwind
declare ptr @strerror(i32 noundef) #3

; Function Attrs: mustprogress uwtable
define linkonce_odr dso_local void @_ZN4pbrt3RedERKNSt7__cxx1112basic_stringIcSt11char_traitsIcESaIcEEE(ptr noalias sret(%"class.std::__cxx11::basic_string") align 8 %agg.result, ptr noundef nonnull align 8 dereferenceable(32) %s) #1 comdat personality ptr @__gxx_personality_v0 {
entry:
  %result.ptr = alloca ptr, align 8
  %s.addr = alloca ptr, align 8
  %red = alloca ptr, align 8
  %reset = alloca ptr, align 8
  %ref.tmp = alloca %"class.std::__cxx11::basic_string", align 8
  %ref.tmp1 = alloca %"class.std::__cxx11::basic_string", align 8
  %ref.tmp2 = alloca %"class.std::allocator", align 1
  %exn.slot = alloca ptr, align 8
  %ehselector.slot = alloca i32, align 4
  %ref.tmp5 = alloca %"class.std::__cxx11::basic_string", align 8
  %ref.tmp6 = alloca %"class.std::allocator", align 1
  store ptr %agg.result, ptr %result.ptr, align 8
  store ptr %s, ptr %s.addr, align 8
  store ptr @.str.9, ptr %red, align 8
  store ptr @.str.10, ptr %reset, align 8
  %0 = load ptr, ptr %red, align 8
  call void @_ZNSaIcEC1Ev(ptr noundef nonnull align 1 dereferenceable(1) %ref.tmp2) #8
  invoke void @_ZNSt7__cxx1112basic_stringIcSt11char_traitsIcESaIcEEC2IS3_EEPKcRKS3_(ptr noundef nonnull align 8 dereferenceable(32) %ref.tmp1, ptr noundef %0, ptr noundef nonnull align 1 dereferenceable(1) %ref.tmp2)
          to label %invoke.cont unwind label %lpad

invoke.cont:                                      ; preds = %entry
  %1 = load ptr, ptr %s.addr, align 8
  invoke void @_ZStplIcSt11char_traitsIcESaIcEENSt7__cxx1112basic_stringIT_T0_T1_EEOS8_RKS8_(ptr sret(%"class.std::__cxx11::basic_string") align 8 %ref.tmp, ptr noundef nonnull align 8 dereferenceable(32) %ref.tmp1, ptr noundef nonnull align 8 dereferenceable(32) %1)
          to label %invoke.cont4 unwind label %lpad3

invoke.cont4:                                     ; preds = %invoke.cont
  %2 = load ptr, ptr %reset, align 8
  call void @_ZNSaIcEC1Ev(ptr noundef nonnull align 1 dereferenceable(1) %ref.tmp6) #8
  invoke void @_ZNSt7__cxx1112basic_stringIcSt11char_traitsIcESaIcEEC2IS3_EEPKcRKS3_(ptr noundef nonnull align 8 dereferenceable(32) %ref.tmp5, ptr noundef %2, ptr noundef nonnull align 1 dereferenceable(1) %ref.tmp6)
          to label %invoke.cont8 unwind label %lpad7

invoke.cont8:                                     ; preds = %invoke.cont4
  invoke void @_ZStplIcSt11char_traitsIcESaIcEENSt7__cxx1112basic_stringIT_T0_T1_EEOS8_S9_(ptr sret(%"class.std::__cxx11::basic_string") align 8 %agg.result, ptr noundef nonnull align 8 dereferenceable(32) %ref.tmp, ptr noundef nonnull align 8 dereferenceable(32) %ref.tmp5)
          to label %invoke.cont10 unwind label %lpad9

invoke.cont10:                                    ; preds = %invoke.cont8
  call void @_ZNSt7__cxx1112basic_stringIcSt11char_traitsIcESaIcEED1Ev(ptr noundef nonnull align 8 dereferenceable(32) %ref.tmp5) #8
  call void @_ZNSaIcED1Ev(ptr noundef nonnull align 1 dereferenceable(1) %ref.tmp6) #8
  call void @_ZNSt7__cxx1112basic_stringIcSt11char_traitsIcESaIcEED1Ev(ptr noundef nonnull align 8 dereferenceable(32) %ref.tmp) #8
  call void @_ZNSt7__cxx1112basic_stringIcSt11char_traitsIcESaIcEED1Ev(ptr noundef nonnull align 8 dereferenceable(32) %ref.tmp1) #8
  call void @_ZNSaIcED1Ev(ptr noundef nonnull align 1 dereferenceable(1) %ref.tmp2) #8
  ret void

lpad:                                             ; preds = %entry
  %3 = landingpad { ptr, i32 }
          cleanup
  %4 = extractvalue { ptr, i32 } %3, 0
  store ptr %4, ptr %exn.slot, align 8
  %5 = extractvalue { ptr, i32 } %3, 1
  store i32 %5, ptr %ehselector.slot, align 4
  br label %ehcleanup13

lpad3:                                            ; preds = %invoke.cont
  %6 = landingpad { ptr, i32 }
          cleanup
  %7 = extractvalue { ptr, i32 } %6, 0
  store ptr %7, ptr %exn.slot, align 8
  %8 = extractvalue { ptr, i32 } %6, 1
  store i32 %8, ptr %ehselector.slot, align 4
  br label %ehcleanup12

lpad7:                                            ; preds = %invoke.cont4
  %9 = landingpad { ptr, i32 }
          cleanup
  %10 = extractvalue { ptr, i32 } %9, 0
  store ptr %10, ptr %exn.slot, align 8
  %11 = extractvalue { ptr, i32 } %9, 1
  store i32 %11, ptr %ehselector.slot, align 4
  br label %ehcleanup

lpad9:                                            ; preds = %invoke.cont8
  %12 = landingpad { ptr, i32 }
          cleanup
  %13 = extractvalue { ptr, i32 } %12, 0
  store ptr %13, ptr %exn.slot, align 8
  %14 = extractvalue { ptr, i32 } %12, 1
  store i32 %14, ptr %ehselector.slot, align 4
  call void @_ZNSt7__cxx1112basic_stringIcSt11char_traitsIcESaIcEED1Ev(ptr noundef nonnull align 8 dereferenceable(32) %ref.tmp5) #8
  br label %ehcleanup

ehcleanup:                                        ; preds = %lpad9, %lpad7
  call void @_ZNSaIcED1Ev(ptr noundef nonnull align 1 dereferenceable(1) %ref.tmp6) #8
  call void @_ZNSt7__cxx1112basic_stringIcSt11char_traitsIcESaIcEED1Ev(ptr noundef nonnull align 8 dereferenceable(32) %ref.tmp) #8
  br label %ehcleanup12

ehcleanup12:                                      ; preds = %ehcleanup, %lpad3
  call void @_ZNSt7__cxx1112basic_stringIcSt11char_traitsIcESaIcEED1Ev(ptr noundef nonnull align 8 dereferenceable(32) %ref.tmp1) #8
  br label %ehcleanup13

ehcleanup13:                                      ; preds = %ehcleanup12, %lpad
  call void @_ZNSaIcED1Ev(ptr noundef nonnull align 1 dereferenceable(1) %ref.tmp2) #8
  br label %eh.resume

eh.resume:                                        ; preds = %ehcleanup13
  %exn = load ptr, ptr %exn.slot, align 8
  %sel = load i32, ptr %ehselector.slot, align 4
  %lpad.val = insertvalue { ptr, i32 } poison, ptr %exn, 0
  %lpad.val14 = insertvalue { ptr, i32 } %lpad.val, i32 %sel, 1
  resume { ptr, i32 } %lpad.val14
}

; Function Attrs: mustprogress uwtable
define linkonce_odr dso_local void @_ZNSt7__cxx1112basic_stringIcSt11char_traitsIcESaIcEEC2IS3_EEPKcRKS3_(ptr noundef nonnull align 8 dereferenceable(32) %this, ptr noundef %__s, ptr noundef nonnull align 1 dereferenceable(1) %__a) unnamed_addr #1 comdat align 2 personality ptr @__gxx_personality_v0 {
entry:
  %this.addr = alloca ptr, align 8
  %__s.addr = alloca ptr, align 8
  %__a.addr = alloca ptr, align 8
  %exn.slot = alloca ptr, align 8
  %ehselector.slot = alloca i32, align 4
  %__end = alloca ptr, align 8
  store ptr %this, ptr %this.addr, align 8
  store ptr %__s, ptr %__s.addr, align 8
  store ptr %__a, ptr %__a.addr, align 8
  %this1 = load ptr, ptr %this.addr, align 8
  %_M_dataplus = getelementptr inbounds %"class.std::__cxx11::basic_string", ptr %this1, i32 0, i32 0
  %call = call noundef ptr @_ZNSt7__cxx1112basic_stringIcSt11char_traitsIcESaIcEE13_M_local_dataEv(ptr noundef nonnull align 8 dereferenceable(32) %this1)
  %0 = load ptr, ptr %__a.addr, align 8
  call void @_ZNSt7__cxx1112basic_stringIcSt11char_traitsIcESaIcEE12_Alloc_hiderC1EPcRKS3_(ptr noundef nonnull align 8 dereferenceable(8) %_M_dataplus, ptr noundef %call, ptr noundef nonnull align 1 dereferenceable(1) %0)
  %1 = load ptr, ptr %__s.addr, align 8
  %cmp = icmp eq ptr %1, null
  br i1 %cmp, label %if.then, label %if.end

if.then:                                          ; preds = %entry
  invoke void @_ZSt19__throw_logic_errorPKc(ptr noundef @.str.11) #13
          to label %invoke.cont unwind label %lpad

invoke.cont:                                      ; preds = %if.then
  unreachable

lpad:                                             ; preds = %invoke.cont2, %if.end, %if.then
  %2 = landingpad { ptr, i32 }
          cleanup
  %3 = extractvalue { ptr, i32 } %2, 0
  store ptr %3, ptr %exn.slot, align 8
  %4 = extractvalue { ptr, i32 } %2, 1
  store i32 %4, ptr %ehselector.slot, align 4
  call void @_ZNSt7__cxx1112basic_stringIcSt11char_traitsIcESaIcEE12_Alloc_hiderD2Ev(ptr noundef nonnull align 8 dereferenceable(8) %_M_dataplus) #8
  br label %eh.resume

if.end:                                           ; preds = %entry
  %5 = load ptr, ptr %__s.addr, align 8
  %6 = load ptr, ptr %__s.addr, align 8
  %call3 = invoke noundef i64 @_ZNSt11char_traitsIcE6lengthEPKc(ptr noundef %6)
          to label %invoke.cont2 unwind label %lpad

invoke.cont2:                                     ; preds = %if.end
  %add.ptr = getelementptr inbounds i8, ptr %5, i64 %call3
  store ptr %add.ptr, ptr %__end, align 8
  %7 = load ptr, ptr %__s.addr, align 8
  %8 = load ptr, ptr %__end, align 8
  invoke void @_ZNSt7__cxx1112basic_stringIcSt11char_traitsIcESaIcEE12_M_constructIPKcEEvT_S8_St20forward_iterator_tag(ptr noundef nonnull align 8 dereferenceable(32) %this1, ptr noundef %7, ptr noundef %8)
          to label %invoke.cont4 unwind label %lpad

invoke.cont4:                                     ; preds = %invoke.cont2
  ret void

eh.resume:                                        ; preds = %lpad
  %exn = load ptr, ptr %exn.slot, align 8
  %sel = load i32, ptr %ehselector.slot, align 4
  %lpad.val = insertvalue { ptr, i32 } poison, ptr %exn, 0
  %lpad.val5 = insertvalue { ptr, i32 } %lpad.val, i32 %sel, 1
  resume { ptr, i32 } %lpad.val5
}

; Function Attrs: mustprogress uwtable
define linkonce_odr dso_local void @_ZStplIcSt11char_traitsIcESaIcEENSt7__cxx1112basic_stringIT_T0_T1_EEPKS5_OS8_(ptr noalias sret(%"class.std::__cxx11::basic_string") align 8 %agg.result, ptr noundef %__lhs, ptr noundef nonnull align 8 dereferenceable(32) %__rhs) #1 comdat {
entry:
  %result.ptr = alloca ptr, align 8
  %__lhs.addr = alloca ptr, align 8
  %__rhs.addr = alloca ptr, align 8
  store ptr %agg.result, ptr %result.ptr, align 8
  store ptr %__lhs, ptr %__lhs.addr, align 8
  store ptr %__rhs, ptr %__rhs.addr, align 8
  %0 = load ptr, ptr %__rhs.addr, align 8
  %1 = load ptr, ptr %__lhs.addr, align 8
  %call = call noundef nonnull align 8 dereferenceable(32) ptr @_ZNSt7__cxx1112basic_stringIcSt11char_traitsIcESaIcEE6insertEmPKc(ptr noundef nonnull align 8 dereferenceable(32) %0, i64 noundef 0, ptr noundef %1)
  call void @_ZNSt7__cxx1112basic_stringIcSt11char_traitsIcESaIcEEC1EOS4_(ptr noundef nonnull align 8 dereferenceable(32) %agg.result, ptr noundef nonnull align 8 dereferenceable(32) %call) #8
  ret void
}

declare noundef nonnull align 8 dereferenceable(32) ptr @_ZNSt7__cxx1112basic_stringIcSt11char_traitsIcESaIcEEpLERKS4_(ptr noundef nonnull align 8 dereferenceable(32), ptr noundef nonnull align 8 dereferenceable(32)) #4

declare noundef nonnull align 8 dereferenceable(32) ptr @_ZNSt7__cxx1112basic_stringIcSt11char_traitsIcESaIcEEpLEPKc(ptr noundef nonnull align 8 dereferenceable(32), ptr noundef) #4

; Function Attrs: nounwind
declare i32 @__cxa_guard_acquire(ptr) #8

; Function Attrs: nounwind
declare void @_ZNSt7__cxx1112basic_stringIcSt11char_traitsIcESaIcEEC1Ev(ptr noundef nonnull align 8 dereferenceable(32)) unnamed_addr #3

; Function Attrs: nounwind
declare i32 @__cxa_atexit(ptr, ptr, ptr) #8

; Function Attrs: nounwind
declare void @__cxa_guard_release(ptr) #8

; Function Attrs: mustprogress uwtable
define linkonce_odr dso_local void @_ZNSt10lock_guardISt5mutexEC2ERS0_(ptr noundef nonnull align 8 dereferenceable(8) %this, ptr noundef nonnull align 8 dereferenceable(40) %__m) unnamed_addr #1 comdat align 2 {
entry:
  %this.addr = alloca ptr, align 8
  %__m.addr = alloca ptr, align 8
  store ptr %this, ptr %this.addr, align 8
  store ptr %__m, ptr %__m.addr, align 8
  %this1 = load ptr, ptr %this.addr, align 8
  %_M_device = getelementptr inbounds %"class.std::lock_guard", ptr %this1, i32 0, i32 0
  %0 = load ptr, ptr %__m.addr, align 8
  store ptr %0, ptr %_M_device, align 8
  %_M_device2 = getelementptr inbounds %"class.std::lock_guard", ptr %this1, i32 0, i32 0
  %1 = load ptr, ptr %_M_device2, align 8
  call void @_ZNSt5mutex4lockEv(ptr noundef nonnull align 8 dereferenceable(40) %1)
  ret void
}

; Function Attrs: mustprogress nounwind uwtable
define linkonce_odr dso_local noundef zeroext i1 @_ZStneIcSt11char_traitsIcESaIcEEbRKNSt7__cxx1112basic_stringIT_T0_T1_EESA_(ptr noundef nonnull align 8 dereferenceable(32) %__lhs, ptr noundef nonnull align 8 dereferenceable(32) %__rhs) #2 comdat {
entry:
  %__lhs.addr = alloca ptr, align 8
  %__rhs.addr = alloca ptr, align 8
  store ptr %__lhs, ptr %__lhs.addr, align 8
  store ptr %__rhs, ptr %__rhs.addr, align 8
  %0 = load ptr, ptr %__lhs.addr, align 8
  %1 = load ptr, ptr %__rhs.addr, align 8
  %call = call noundef zeroext i1 @_ZSteqIcEN9__gnu_cxx11__enable_ifIXsr9__is_charIT_EE7__valueEbE6__typeERKNSt7__cxx1112basic_stringIS2_St11char_traitsIS2_ESaIS2_EEESC_(ptr noundef nonnull align 8 dereferenceable(32) %0, ptr noundef nonnull align 8 dereferenceable(32) %1) #8
  %lnot = xor i1 %call, true
  ret i1 %lnot
}

declare i32 @fprintf(ptr noundef, ptr noundef, ...) #4

; Function Attrs: nounwind
declare noundef ptr @_ZNKSt7__cxx1112basic_stringIcSt11char_traitsIcESaIcEE5c_strEv(ptr noundef nonnull align 8 dereferenceable(32)) #3

; Function Attrs: mustprogress uwtable
define linkonce_odr dso_local void @_ZN4pbrt3LogIJRNSt7__cxx1112basic_stringIcSt11char_traitsIcESaIcEEEEEEvNS_8LogLevelEPKciSA_DpOT_(i32 noundef %level, ptr noundef %file, i32 noundef %line, ptr noundef %fmt, ptr noundef nonnull align 8 dereferenceable(32) %args) #1 comdat personality ptr @__gxx_personality_v0 {
entry:
  %level.addr = alloca i32, align 4
  %file.addr = alloca ptr, align 8
  %line.addr = alloca i32, align 4
  %fmt.addr = alloca ptr, align 8
  %args.addr = alloca ptr, align 8
  %s = alloca %"class.std::__cxx11::basic_string", align 8
  %exn.slot = alloca ptr, align 8
  %ehselector.slot = alloca i32, align 4
  store i32 %level, ptr %level.addr, align 4
  store ptr %file, ptr %file.addr, align 8
  store i32 %line, ptr %line.addr, align 4
  store ptr %fmt, ptr %fmt.addr, align 8
  store ptr %args, ptr %args.addr, align 8
  %0 = load ptr, ptr %fmt.addr, align 8
  %1 = load ptr, ptr %args.addr, align 8
  call void @_ZN4pbrt12StringPrintfIJRNSt7__cxx1112basic_stringIcSt11char_traitsIcESaIcEEEEEES6_PKcDpOT_(ptr sret(%"class.std::__cxx11::basic_string") align 8 %s, ptr noundef %0, ptr noundef nonnull align 8 dereferenceable(32) %1)
  %2 = load i32, ptr %level.addr, align 4
  %3 = load ptr, ptr %file.addr, align 8
  %4 = load i32, ptr %line.addr, align 4
  %call = call noundef ptr @_ZNKSt7__cxx1112basic_stringIcSt11char_traitsIcESaIcEE5c_strEv(ptr noundef nonnull align 8 dereferenceable(32) %s) #8
  invoke void @_ZN4pbrt3LogENS_8LogLevelEPKciS2_(i32 noundef %2, ptr noundef %3, i32 noundef %4, ptr noundef %call)
          to label %invoke.cont unwind label %lpad

invoke.cont:                                      ; preds = %entry
  call void @_ZNSt7__cxx1112basic_stringIcSt11char_traitsIcESaIcEED1Ev(ptr noundef nonnull align 8 dereferenceable(32) %s) #8
  ret void

lpad:                                             ; preds = %entry
  %5 = landingpad { ptr, i32 }
          cleanup
  %6 = extractvalue { ptr, i32 } %5, 0
  store ptr %6, ptr %exn.slot, align 8
  %7 = extractvalue { ptr, i32 } %5, 1
  store i32 %7, ptr %ehselector.slot, align 4
  call void @_ZNSt7__cxx1112basic_stringIcSt11char_traitsIcESaIcEED1Ev(ptr noundef nonnull align 8 dereferenceable(32) %s) #8
  br label %eh.resume

eh.resume:                                        ; preds = %lpad
  %exn = load ptr, ptr %exn.slot, align 8
  %sel = load i32, ptr %ehselector.slot, align 4
  %lpad.val = insertvalue { ptr, i32 } poison, ptr %exn, 0
  %lpad.val1 = insertvalue { ptr, i32 } %lpad.val, i32 %sel, 1
  resume { ptr, i32 } %lpad.val1
}

declare noundef nonnull align 8 dereferenceable(32) ptr @_ZNSt7__cxx1112basic_stringIcSt11char_traitsIcESaIcEEaSERKS4_(ptr noundef nonnull align 8 dereferenceable(32), ptr noundef nonnull align 8 dereferenceable(32)) #4

; Function Attrs: mustprogress nounwind uwtable
define linkonce_odr dso_local void @_ZNSt10lock_guardISt5mutexED2Ev(ptr noundef nonnull align 8 dereferenceable(8) %this) unnamed_addr #2 comdat align 2 personality ptr @__gxx_personality_v0 {
entry:
  %this.addr = alloca ptr, align 8
  store ptr %this, ptr %this.addr, align 8
  %this1 = load ptr, ptr %this.addr, align 8
  %_M_device = getelementptr inbounds %"class.std::lock_guard", ptr %this1, i32 0, i32 0
  %0 = load ptr, ptr %_M_device, align 8
  invoke void @_ZNSt5mutex6unlockEv(ptr noundef nonnull align 8 dereferenceable(40) %0)
          to label %invoke.cont unwind label %terminate.lpad

invoke.cont:                                      ; preds = %entry
  ret void

terminate.lpad:                                   ; preds = %entry
  %1 = landingpad { ptr, i32 }
          catch ptr null
  %2 = extractvalue { ptr, i32 } %1, 0
  call void @__clang_call_terminate(ptr %2) #11
  unreachable
}

; Function Attrs: mustprogress uwtable
define linkonce_odr dso_local void @_ZStplIcSt11char_traitsIcESaIcEENSt7__cxx1112basic_stringIT_T0_T1_EEOS8_S9_(ptr noalias sret(%"class.std::__cxx11::basic_string") align 8 %agg.result, ptr noundef nonnull align 8 dereferenceable(32) %__lhs, ptr noundef nonnull align 8 dereferenceable(32) %__rhs) #1 comdat {
entry:
  %result.ptr = alloca ptr, align 8
  %__lhs.addr = alloca ptr, align 8
  %__rhs.addr = alloca ptr, align 8
  %__use_rhs = alloca i8, align 1
  %__size = alloca i64, align 8
  store ptr %agg.result, ptr %result.ptr, align 8
  store ptr %__lhs, ptr %__lhs.addr, align 8
  store ptr %__rhs, ptr %__rhs.addr, align 8
  store i8 0, ptr %__use_rhs, align 1
  store i8 1, ptr %__use_rhs, align 1
  %0 = load i8, ptr %__use_rhs, align 1
  %tobool = trunc i8 %0 to i1
  br i1 %tobool, label %if.then, label %if.end7

if.then:                                          ; preds = %entry
  %1 = load ptr, ptr %__lhs.addr, align 8
  %call = call noundef i64 @_ZNKSt7__cxx1112basic_stringIcSt11char_traitsIcESaIcEE4sizeEv(ptr noundef nonnull align 8 dereferenceable(32) %1) #8
  %2 = load ptr, ptr %__rhs.addr, align 8
  %call1 = call noundef i64 @_ZNKSt7__cxx1112basic_stringIcSt11char_traitsIcESaIcEE4sizeEv(ptr noundef nonnull align 8 dereferenceable(32) %2) #8
  %add = add i64 %call, %call1
  store i64 %add, ptr %__size, align 8
  %3 = load i64, ptr %__size, align 8
  %4 = load ptr, ptr %__lhs.addr, align 8
  %call2 = call noundef i64 @_ZNKSt7__cxx1112basic_stringIcSt11char_traitsIcESaIcEE8capacityEv(ptr noundef nonnull align 8 dereferenceable(32) %4) #8
  %cmp = icmp ugt i64 %3, %call2
  br i1 %cmp, label %land.lhs.true, label %if.end

land.lhs.true:                                    ; preds = %if.then
  %5 = load i64, ptr %__size, align 8
  %6 = load ptr, ptr %__rhs.addr, align 8
  %call3 = call noundef i64 @_ZNKSt7__cxx1112basic_stringIcSt11char_traitsIcESaIcEE8capacityEv(ptr noundef nonnull align 8 dereferenceable(32) %6) #8
  %cmp4 = icmp ule i64 %5, %call3
  br i1 %cmp4, label %if.then5, label %if.end

if.then5:                                         ; preds = %land.lhs.true
  %7 = load ptr, ptr %__rhs.addr, align 8
  %8 = load ptr, ptr %__lhs.addr, align 8
  %call6 = call noundef nonnull align 8 dereferenceable(32) ptr @_ZNSt7__cxx1112basic_stringIcSt11char_traitsIcESaIcEE6insertEmRKS4_(ptr noundef nonnull align 8 dereferenceable(32) %7, i64 noundef 0, ptr noundef nonnull align 8 dereferenceable(32) %8)
  call void @_ZNSt7__cxx1112basic_stringIcSt11char_traitsIcESaIcEEC1EOS4_(ptr noundef nonnull align 8 dereferenceable(32) %agg.result, ptr noundef nonnull align 8 dereferenceable(32) %call6) #8
  br label %return

if.end:                                           ; preds = %land.lhs.true, %if.then
  br label %if.end7

if.end7:                                          ; preds = %if.end, %entry
  %9 = load ptr, ptr %__lhs.addr, align 8
  %10 = load ptr, ptr %__rhs.addr, align 8
  %call8 = call noundef nonnull align 8 dereferenceable(32) ptr @_ZNSt7__cxx1112basic_stringIcSt11char_traitsIcESaIcEE6appendERKS4_(ptr noundef nonnull align 8 dereferenceable(32) %9, ptr noundef nonnull align 8 dereferenceable(32) %10)
  call void @_ZNSt7__cxx1112basic_stringIcSt11char_traitsIcESaIcEEC1EOS4_(ptr noundef nonnull align 8 dereferenceable(32) %agg.result, ptr noundef nonnull align 8 dereferenceable(32) %call8) #8
  br label %return

return:                                           ; preds = %if.end7, %if.then5
  ret void
}

; Function Attrs: mustprogress uwtable
define linkonce_odr dso_local void @_ZStplIcSt11char_traitsIcESaIcEENSt7__cxx1112basic_stringIT_T0_T1_EEOS8_RKS8_(ptr noalias sret(%"class.std::__cxx11::basic_string") align 8 %agg.result, ptr noundef nonnull align 8 dereferenceable(32) %__lhs, ptr noundef nonnull align 8 dereferenceable(32) %__rhs) #1 comdat {
entry:
  %result.ptr = alloca ptr, align 8
  %__lhs.addr = alloca ptr, align 8
  %__rhs.addr = alloca ptr, align 8
  store ptr %agg.result, ptr %result.ptr, align 8
  store ptr %__lhs, ptr %__lhs.addr, align 8
  store ptr %__rhs, ptr %__rhs.addr, align 8
  %0 = load ptr, ptr %__lhs.addr, align 8
  %1 = load ptr, ptr %__rhs.addr, align 8
  %call = call noundef nonnull align 8 dereferenceable(32) ptr @_ZNSt7__cxx1112basic_stringIcSt11char_traitsIcESaIcEE6appendERKS4_(ptr noundef nonnull align 8 dereferenceable(32) %0, ptr noundef nonnull align 8 dereferenceable(32) %1)
  call void @_ZNSt7__cxx1112basic_stringIcSt11char_traitsIcESaIcEEC1EOS4_(ptr noundef nonnull align 8 dereferenceable(32) %agg.result, ptr noundef nonnull align 8 dereferenceable(32) %call) #8
  ret void
}

; Function Attrs: nounwind
declare noundef i64 @_ZNKSt7__cxx1112basic_stringIcSt11char_traitsIcESaIcEE4sizeEv(ptr noundef nonnull align 8 dereferenceable(32)) #3

; Function Attrs: nounwind
declare noundef i64 @_ZNKSt7__cxx1112basic_stringIcSt11char_traitsIcESaIcEE8capacityEv(ptr noundef nonnull align 8 dereferenceable(32)) #3

declare noundef nonnull align 8 dereferenceable(32) ptr @_ZNSt7__cxx1112basic_stringIcSt11char_traitsIcESaIcEE6insertEmRKS4_(ptr noundef nonnull align 8 dereferenceable(32), i64 noundef, ptr noundef nonnull align 8 dereferenceable(32)) #4

; Function Attrs: nounwind
declare void @_ZNSt7__cxx1112basic_stringIcSt11char_traitsIcESaIcEEC1EOS4_(ptr noundef nonnull align 8 dereferenceable(32), ptr noundef nonnull align 8 dereferenceable(32)) unnamed_addr #3

declare noundef nonnull align 8 dereferenceable(32) ptr @_ZNSt7__cxx1112basic_stringIcSt11char_traitsIcESaIcEE6appendERKS4_(ptr noundef nonnull align 8 dereferenceable(32), ptr noundef nonnull align 8 dereferenceable(32)) #4

declare noundef ptr @_ZNSt7__cxx1112basic_stringIcSt11char_traitsIcESaIcEE13_M_local_dataEv(ptr noundef nonnull align 8 dereferenceable(32)) #4

declare void @_ZNSt7__cxx1112basic_stringIcSt11char_traitsIcESaIcEE12_Alloc_hiderC1EPcRKS3_(ptr noundef nonnull align 8 dereferenceable(8), ptr noundef, ptr noundef nonnull align 1 dereferenceable(1)) unnamed_addr #4

; Function Attrs: noreturn
declare void @_ZSt19__throw_logic_errorPKc(ptr noundef) #9

; Function Attrs: mustprogress nounwind uwtable
define linkonce_odr dso_local noundef i64 @_ZNSt11char_traitsIcE6lengthEPKc(ptr noundef %__s) #2 comdat align 2 {
entry:
  %__s.addr = alloca ptr, align 8
  store ptr %__s, ptr %__s.addr, align 8
  %0 = load ptr, ptr %__s.addr, align 8
  %call = call i64 @strlen(ptr noundef %0) #8
  ret i64 %call
}

; Function Attrs: mustprogress uwtable
define linkonce_odr dso_local void @_ZNSt7__cxx1112basic_stringIcSt11char_traitsIcESaIcEE12_M_constructIPKcEEvT_S8_St20forward_iterator_tag(ptr noundef nonnull align 8 dereferenceable(32) %this, ptr noundef %__beg, ptr noundef %__end) #1 comdat align 2 personality ptr @__gxx_personality_v0 {
entry:
  %this.addr.i = alloca ptr, align 8
  %this.addr = alloca ptr, align 8
  %__beg.addr = alloca ptr, align 8
  %__end.addr = alloca ptr, align 8
  %__dnew = alloca i64, align 8
  %__guard = alloca %struct._Guard, align 8
  %exn.slot = alloca ptr, align 8
  %ehselector.slot = alloca i32, align 4
  store ptr %this, ptr %this.addr, align 8
  store ptr %__beg, ptr %__beg.addr, align 8
  store ptr %__end, ptr %__end.addr, align 8
  %this1 = load ptr, ptr %this.addr, align 8
  %0 = load ptr, ptr %__beg.addr, align 8
  %1 = load ptr, ptr %__end.addr, align 8
  %call = call noundef i64 @_ZSt8distanceIPKcENSt15iterator_traitsIT_E15difference_typeES3_S3_(ptr noundef %0, ptr noundef %1)
  store i64 %call, ptr %__dnew, align 8
  %2 = load i64, ptr %__dnew, align 8
  %cmp = icmp ugt i64 %2, 15
  br i1 %cmp, label %if.then, label %if.else

if.then:                                          ; preds = %entry
  %call2 = call noundef ptr @_ZNSt7__cxx1112basic_stringIcSt11char_traitsIcESaIcEE9_M_createERmm(ptr noundef nonnull align 8 dereferenceable(32) %this1, ptr noundef nonnull align 8 dereferenceable(8) %__dnew, i64 noundef 0)
  call void @_ZNSt7__cxx1112basic_stringIcSt11char_traitsIcESaIcEE7_M_dataEPc(ptr noundef nonnull align 8 dereferenceable(32) %this1, ptr noundef %call2)
  %3 = load i64, ptr %__dnew, align 8
  call void @_ZNSt7__cxx1112basic_stringIcSt11char_traitsIcESaIcEE11_M_capacityEm(ptr noundef nonnull align 8 dereferenceable(32) %this1, i64 noundef %3)
  br label %if.end

if.else:                                          ; preds = %entry
  store ptr %this1, ptr %this.addr.i, align 8
  %this1.i = load ptr, ptr %this.addr.i, align 8
  %call.i = invoke noundef ptr @_ZNSt7__cxx1112basic_stringIcSt11char_traitsIcESaIcEE13_M_local_dataEv(ptr noundef nonnull align 8 dereferenceable(32) %this1.i)
          to label %_ZNSt7__cxx1112basic_stringIcSt11char_traitsIcESaIcEE17_M_use_local_dataEv.exit unwind label %terminate.lpad.i

terminate.lpad.i:                                 ; preds = %if.else
  %4 = landingpad { ptr, i32 }
          catch ptr null
  %5 = extractvalue { ptr, i32 } %4, 0
  call void @__clang_call_terminate(ptr %5) #11
  unreachable

_ZNSt7__cxx1112basic_stringIcSt11char_traitsIcESaIcEE17_M_use_local_dataEv.exit: ; preds = %if.else
  br label %if.end

if.end:                                           ; preds = %_ZNSt7__cxx1112basic_stringIcSt11char_traitsIcESaIcEE17_M_use_local_dataEv.exit, %if.then
  call void @_ZZNSt7__cxx1112basic_stringIcSt11char_traitsIcESaIcEE12_M_constructIPKcEEvT_S8_St20forward_iterator_tagEN6_GuardC2EPS4_(ptr noundef nonnull align 8 dereferenceable(8) %__guard, ptr noundef %this1)
  %call4 = invoke noundef ptr @_ZNKSt7__cxx1112basic_stringIcSt11char_traitsIcESaIcEE7_M_dataEv(ptr noundef nonnull align 8 dereferenceable(32) %this1)
          to label %invoke.cont unwind label %lpad

invoke.cont:                                      ; preds = %if.end
  %6 = load ptr, ptr %__beg.addr, align 8
  %7 = load ptr, ptr %__end.addr, align 8
  call void @_ZNSt7__cxx1112basic_stringIcSt11char_traitsIcESaIcEE13_S_copy_charsEPcPKcS7_(ptr noundef %call4, ptr noundef %6, ptr noundef %7) #8
  %_M_guarded = getelementptr inbounds %struct._Guard, ptr %__guard, i32 0, i32 0
  store ptr null, ptr %_M_guarded, align 8
  %8 = load i64, ptr %__dnew, align 8
  invoke void @_ZNSt7__cxx1112basic_stringIcSt11char_traitsIcESaIcEE13_M_set_lengthEm(ptr noundef nonnull align 8 dereferenceable(32) %this1, i64 noundef %8)
          to label %invoke.cont5 unwind label %lpad

invoke.cont5:                                     ; preds = %invoke.cont
  call void @_ZZNSt7__cxx1112basic_stringIcSt11char_traitsIcESaIcEE12_M_constructIPKcEEvT_S8_St20forward_iterator_tagEN6_GuardD2Ev(ptr noundef nonnull align 8 dereferenceable(8) %__guard) #8
  ret void

lpad:                                             ; preds = %invoke.cont, %if.end
  %9 = landingpad { ptr, i32 }
          cleanup
  %10 = extractvalue { ptr, i32 } %9, 0
  store ptr %10, ptr %exn.slot, align 8
  %11 = extractvalue { ptr, i32 } %9, 1
  store i32 %11, ptr %ehselector.slot, align 4
  call void @_ZZNSt7__cxx1112basic_stringIcSt11char_traitsIcESaIcEE12_M_constructIPKcEEvT_S8_St20forward_iterator_tagEN6_GuardD2Ev(ptr noundef nonnull align 8 dereferenceable(8) %__guard) #8
  br label %eh.resume

eh.resume:                                        ; preds = %lpad
  %exn = load ptr, ptr %exn.slot, align 8
  %sel = load i32, ptr %ehselector.slot, align 4
  %lpad.val = insertvalue { ptr, i32 } poison, ptr %exn, 0
  %lpad.val6 = insertvalue { ptr, i32 } %lpad.val, i32 %sel, 1
  resume { ptr, i32 } %lpad.val6
}

; Function Attrs: mustprogress nounwind uwtable
define linkonce_odr dso_local void @_ZNSt7__cxx1112basic_stringIcSt11char_traitsIcESaIcEE12_Alloc_hiderD2Ev(ptr noundef nonnull align 8 dereferenceable(8) %this) unnamed_addr #2 comdat align 2 {
entry:
  %this.addr = alloca ptr, align 8
  store ptr %this, ptr %this.addr, align 8
  %this1 = load ptr, ptr %this.addr, align 8
  call void @_ZNSaIcED2Ev(ptr noundef nonnull align 1 dereferenceable(1) %this1) #8
  ret void
}

; Function Attrs: nounwind
declare i64 @strlen(ptr noundef) #3

; Function Attrs: mustprogress uwtable
define linkonce_odr dso_local noundef i64 @_ZSt8distanceIPKcENSt15iterator_traitsIT_E15difference_typeES3_S3_(ptr noundef %__first, ptr noundef %__last) #1 comdat {
entry:
  %__first.addr = alloca ptr, align 8
  %__last.addr = alloca ptr, align 8
  store ptr %__first, ptr %__first.addr, align 8
  store ptr %__last, ptr %__last.addr, align 8
  %0 = load ptr, ptr %__first.addr, align 8
  %1 = load ptr, ptr %__last.addr, align 8
  call void @_ZSt19__iterator_categoryIPKcENSt15iterator_traitsIT_E17iterator_categoryERKS3_(ptr noundef nonnull align 8 dereferenceable(8) %__first.addr)
  %call = call noundef i64 @_ZSt10__distanceIPKcENSt15iterator_traitsIT_E15difference_typeES3_S3_St26random_access_iterator_tag(ptr noundef %0, ptr noundef %1)
  ret i64 %call
}

declare void @_ZNSt7__cxx1112basic_stringIcSt11char_traitsIcESaIcEE7_M_dataEPc(ptr noundef nonnull align 8 dereferenceable(32), ptr noundef) #4

declare noundef ptr @_ZNSt7__cxx1112basic_stringIcSt11char_traitsIcESaIcEE9_M_createERmm(ptr noundef nonnull align 8 dereferenceable(32), ptr noundef nonnull align 8 dereferenceable(8), i64 noundef) #4

declare void @_ZNSt7__cxx1112basic_stringIcSt11char_traitsIcESaIcEE11_M_capacityEm(ptr noundef nonnull align 8 dereferenceable(32), i64 noundef) #4

; Function Attrs: mustprogress nounwind uwtable
define linkonce_odr dso_local void @_ZZNSt7__cxx1112basic_stringIcSt11char_traitsIcESaIcEE12_M_constructIPKcEEvT_S8_St20forward_iterator_tagEN6_GuardC2EPS4_(ptr noundef nonnull align 8 dereferenceable(8) %this, ptr noundef %__s) unnamed_addr #2 comdat align 2 {
entry:
  %this.addr = alloca ptr, align 8
  %__s.addr = alloca ptr, align 8
  store ptr %this, ptr %this.addr, align 8
  store ptr %__s, ptr %__s.addr, align 8
  %this1 = load ptr, ptr %this.addr, align 8
  %_M_guarded = getelementptr inbounds %struct._Guard, ptr %this1, i32 0, i32 0
  %0 = load ptr, ptr %__s.addr, align 8
  store ptr %0, ptr %_M_guarded, align 8
  ret void
}

; Function Attrs: nounwind
declare void @_ZNSt7__cxx1112basic_stringIcSt11char_traitsIcESaIcEE13_S_copy_charsEPcPKcS7_(ptr noundef, ptr noundef, ptr noundef) #3

declare noundef ptr @_ZNKSt7__cxx1112basic_stringIcSt11char_traitsIcESaIcEE7_M_dataEv(ptr noundef nonnull align 8 dereferenceable(32)) #4

declare void @_ZNSt7__cxx1112basic_stringIcSt11char_traitsIcESaIcEE13_M_set_lengthEm(ptr noundef nonnull align 8 dereferenceable(32), i64 noundef) #4

; Function Attrs: mustprogress nounwind uwtable
define linkonce_odr dso_local void @_ZZNSt7__cxx1112basic_stringIcSt11char_traitsIcESaIcEE12_M_constructIPKcEEvT_S8_St20forward_iterator_tagEN6_GuardD2Ev(ptr noundef nonnull align 8 dereferenceable(8) %this) unnamed_addr #2 comdat align 2 personality ptr @__gxx_personality_v0 {
entry:
  %this.addr = alloca ptr, align 8
  store ptr %this, ptr %this.addr, align 8
  %this1 = load ptr, ptr %this.addr, align 8
  %_M_guarded = getelementptr inbounds %struct._Guard, ptr %this1, i32 0, i32 0
  %0 = load ptr, ptr %_M_guarded, align 8
  %tobool = icmp ne ptr %0, null
  br i1 %tobool, label %if.then, label %if.end

if.then:                                          ; preds = %entry
  %_M_guarded2 = getelementptr inbounds %struct._Guard, ptr %this1, i32 0, i32 0
  %1 = load ptr, ptr %_M_guarded2, align 8
  invoke void @_ZNSt7__cxx1112basic_stringIcSt11char_traitsIcESaIcEE10_M_disposeEv(ptr noundef nonnull align 8 dereferenceable(32) %1)
          to label %invoke.cont unwind label %terminate.lpad

invoke.cont:                                      ; preds = %if.then
  br label %if.end

if.end:                                           ; preds = %invoke.cont, %entry
  ret void

terminate.lpad:                                   ; preds = %if.then
  %2 = landingpad { ptr, i32 }
          catch ptr null
  %3 = extractvalue { ptr, i32 } %2, 0
  call void @__clang_call_terminate(ptr %3) #11
  unreachable
}

; Function Attrs: mustprogress nounwind uwtable
define linkonce_odr dso_local noundef i64 @_ZSt10__distanceIPKcENSt15iterator_traitsIT_E15difference_typeES3_S3_St26random_access_iterator_tag(ptr noundef %__first, ptr noundef %__last) #2 comdat {
entry:
  %__first.addr = alloca ptr, align 8
  %__last.addr = alloca ptr, align 8
  store ptr %__first, ptr %__first.addr, align 8
  store ptr %__last, ptr %__last.addr, align 8
  %0 = load ptr, ptr %__last.addr, align 8
  %1 = load ptr, ptr %__first.addr, align 8
  %sub.ptr.lhs.cast = ptrtoint ptr %0 to i64
  %sub.ptr.rhs.cast = ptrtoint ptr %1 to i64
  %sub.ptr.sub = sub i64 %sub.ptr.lhs.cast, %sub.ptr.rhs.cast
  ret i64 %sub.ptr.sub
}

; Function Attrs: mustprogress nounwind uwtable
define linkonce_odr dso_local void @_ZSt19__iterator_categoryIPKcENSt15iterator_traitsIT_E17iterator_categoryERKS3_(ptr noundef nonnull align 8 dereferenceable(8) %0) #2 comdat {
entry:
  %.addr = alloca ptr, align 8
  store ptr %0, ptr %.addr, align 8
  ret void
}

; Function Attrs: noreturn nounwind uwtable
define linkonce_odr hidden void @__clang_call_terminate(ptr noundef %0) #10 comdat {
  %2 = call ptr @__cxa_begin_catch(ptr %0) #8
  call void @_ZSt9terminatev() #11
  unreachable
}

declare ptr @__cxa_begin_catch(ptr)

declare void @_ZSt9terminatev()

declare void @_ZNSt7__cxx1112basic_stringIcSt11char_traitsIcESaIcEE10_M_disposeEv(ptr noundef nonnull align 8 dereferenceable(32)) #4

; Function Attrs: nounwind
declare void @_ZNSaIcED2Ev(ptr noundef nonnull align 1 dereferenceable(1)) unnamed_addr #3

declare noundef nonnull align 8 dereferenceable(32) ptr @_ZNSt7__cxx1112basic_stringIcSt11char_traitsIcESaIcEE6insertEmPKc(ptr noundef nonnull align 8 dereferenceable(32), i64 noundef, ptr noundef) #4

; Function Attrs: mustprogress uwtable
define linkonce_odr dso_local void @_ZNSt5mutex4lockEv(ptr noundef nonnull align 8 dereferenceable(40) %this) #1 comdat align 2 {
entry:
  %this.addr = alloca ptr, align 8
  %__e = alloca i32, align 4
  store ptr %this, ptr %this.addr, align 8
  %this1 = load ptr, ptr %this.addr, align 8
  %_M_mutex = getelementptr inbounds %"class.std::__mutex_base", ptr %this1, i32 0, i32 0
  %call = call noundef i32 @_ZL20__gthread_mutex_lockP15pthread_mutex_t(ptr noundef %_M_mutex)
  store i32 %call, ptr %__e, align 4
  %0 = load i32, ptr %__e, align 4
  %tobool = icmp ne i32 %0, 0
  br i1 %tobool, label %if.then, label %if.end

if.then:                                          ; preds = %entry
  %1 = load i32, ptr %__e, align 4
  call void @_ZSt20__throw_system_errori(i32 noundef %1) #13
  unreachable

if.end:                                           ; preds = %entry
  ret void
}

; Function Attrs: mustprogress uwtable
define internal noundef i32 @_ZL20__gthread_mutex_lockP15pthread_mutex_t(ptr noundef %__mutex) #1 {
entry:
  %retval = alloca i32, align 4
  %__mutex.addr = alloca ptr, align 8
  store ptr %__mutex, ptr %__mutex.addr, align 8
  %call = call noundef i32 @_ZL18__gthread_active_pv()
  %tobool = icmp ne i32 %call, 0
  br i1 %tobool, label %if.then, label %if.else

if.then:                                          ; preds = %entry
  %0 = load ptr, ptr %__mutex.addr, align 8
  %call1 = call i32 @pthread_mutex_lock(ptr noundef %0) #8
  store i32 %call1, ptr %retval, align 4
  br label %return

if.else:                                          ; preds = %entry
  store i32 0, ptr %retval, align 4
  br label %return

return:                                           ; preds = %if.else, %if.then
  %1 = load i32, ptr %retval, align 4
  ret i32 %1
}

; Function Attrs: noreturn
declare void @_ZSt20__throw_system_errori(i32 noundef) #9

; Function Attrs: mustprogress nounwind uwtable
define internal noundef i32 @_ZL18__gthread_active_pv() #2 {
entry:
  ret i32 1
}

; Function Attrs: nounwind
declare i32 @pthread_mutex_lock(ptr noundef) #3

; Function Attrs: mustprogress nounwind uwtable
define linkonce_odr dso_local noundef zeroext i1 @_ZSteqIcEN9__gnu_cxx11__enable_ifIXsr9__is_charIT_EE7__valueEbE6__typeERKNSt7__cxx1112basic_stringIS2_St11char_traitsIS2_ESaIS2_EEESC_(ptr noundef nonnull align 8 dereferenceable(32) %__lhs, ptr noundef nonnull align 8 dereferenceable(32) %__rhs) #2 comdat personality ptr @__gxx_personality_v0 {
entry:
  %__lhs.addr = alloca ptr, align 8
  %__rhs.addr = alloca ptr, align 8
  store ptr %__lhs, ptr %__lhs.addr, align 8
  store ptr %__rhs, ptr %__rhs.addr, align 8
  %0 = load ptr, ptr %__lhs.addr, align 8
  %call = call noundef i64 @_ZNKSt7__cxx1112basic_stringIcSt11char_traitsIcESaIcEE4sizeEv(ptr noundef nonnull align 8 dereferenceable(32) %0) #8
  %1 = load ptr, ptr %__rhs.addr, align 8
  %call1 = call noundef i64 @_ZNKSt7__cxx1112basic_stringIcSt11char_traitsIcESaIcEE4sizeEv(ptr noundef nonnull align 8 dereferenceable(32) %1) #8
  %cmp = icmp eq i64 %call, %call1
  br i1 %cmp, label %land.rhs, label %land.end

land.rhs:                                         ; preds = %entry
  %2 = load ptr, ptr %__lhs.addr, align 8
  %call2 = call noundef ptr @_ZNKSt7__cxx1112basic_stringIcSt11char_traitsIcESaIcEE4dataEv(ptr noundef nonnull align 8 dereferenceable(32) %2) #8
  %3 = load ptr, ptr %__rhs.addr, align 8
  %call3 = call noundef ptr @_ZNKSt7__cxx1112basic_stringIcSt11char_traitsIcESaIcEE4dataEv(ptr noundef nonnull align 8 dereferenceable(32) %3) #8
  %4 = load ptr, ptr %__lhs.addr, align 8
  %call4 = call noundef i64 @_ZNKSt7__cxx1112basic_stringIcSt11char_traitsIcESaIcEE4sizeEv(ptr noundef nonnull align 8 dereferenceable(32) %4) #8
  %call5 = invoke noundef i32 @_ZNSt11char_traitsIcE7compareEPKcS2_m(ptr noundef %call2, ptr noundef %call3, i64 noundef %call4)
          to label %invoke.cont unwind label %terminate.lpad

invoke.cont:                                      ; preds = %land.rhs
  %tobool = icmp ne i32 %call5, 0
  %lnot = xor i1 %tobool, true
  br label %land.end

land.end:                                         ; preds = %invoke.cont, %entry
  %5 = phi i1 [ false, %entry ], [ %lnot, %invoke.cont ]
  ret i1 %5

terminate.lpad:                                   ; preds = %land.rhs
  %6 = landingpad { ptr, i32 }
          catch ptr null
  %7 = extractvalue { ptr, i32 } %6, 0
  call void @__clang_call_terminate(ptr %7) #11
  unreachable
}

; Function Attrs: mustprogress nounwind uwtable
define linkonce_odr dso_local noundef i32 @_ZNSt11char_traitsIcE7compareEPKcS2_m(ptr noundef %__s1, ptr noundef %__s2, i64 noundef %__n) #2 comdat align 2 {
entry:
  %retval = alloca i32, align 4
  %__s1.addr = alloca ptr, align 8
  %__s2.addr = alloca ptr, align 8
  %__n.addr = alloca i64, align 8
  store ptr %__s1, ptr %__s1.addr, align 8
  store ptr %__s2, ptr %__s2.addr, align 8
  store i64 %__n, ptr %__n.addr, align 8
  %0 = load i64, ptr %__n.addr, align 8
  %cmp = icmp eq i64 %0, 0
  br i1 %cmp, label %if.then, label %if.end

if.then:                                          ; preds = %entry
  store i32 0, ptr %retval, align 4
  br label %return

if.end:                                           ; preds = %entry
  %1 = load ptr, ptr %__s1.addr, align 8
  %2 = load ptr, ptr %__s2.addr, align 8
  %3 = load i64, ptr %__n.addr, align 8
  %call = call i32 @memcmp(ptr noundef %1, ptr noundef %2, i64 noundef %3) #8
  store i32 %call, ptr %retval, align 4
  br label %return

return:                                           ; preds = %if.end, %if.then
  %4 = load i32, ptr %retval, align 4
  ret i32 %4
}

; Function Attrs: nounwind
declare noundef ptr @_ZNKSt7__cxx1112basic_stringIcSt11char_traitsIcESaIcEE4dataEv(ptr noundef nonnull align 8 dereferenceable(32)) #3

; Function Attrs: nounwind
declare i32 @memcmp(ptr noundef, ptr noundef, i64 noundef) #3

; Function Attrs: mustprogress uwtable
define linkonce_odr dso_local void @_ZN4pbrt12StringPrintfIJRNSt7__cxx1112basic_stringIcSt11char_traitsIcESaIcEEEEEES6_PKcDpOT_(ptr noalias sret(%"class.std::__cxx11::basic_string") align 8 %agg.result, ptr noundef %fmt, ptr noundef nonnull align 8 dereferenceable(32) %args) #1 comdat personality ptr @__gxx_personality_v0 {
entry:
  %result.ptr = alloca ptr, align 8
  %fmt.addr = alloca ptr, align 8
  %args.addr = alloca ptr, align 8
  %nrvo = alloca i1, align 1
  %exn.slot = alloca ptr, align 8
  %ehselector.slot = alloca i32, align 4
  store ptr %agg.result, ptr %result.ptr, align 8
  store ptr %fmt, ptr %fmt.addr, align 8
  store ptr %args, ptr %args.addr, align 8
  store i1 false, ptr %nrvo, align 1
  call void @_ZNSt7__cxx1112basic_stringIcSt11char_traitsIcESaIcEEC1Ev(ptr noundef nonnull align 8 dereferenceable(32) %agg.result) #8
  %0 = load ptr, ptr %fmt.addr, align 8
  %1 = load ptr, ptr %args.addr, align 8
  invoke void @_ZN4pbrt6detail21stringPrintfRecursiveIRNSt7__cxx1112basic_stringIcSt11char_traitsIcESaIcEEEJEEEvPS7_PKcOT_DpOT0_(ptr noundef %agg.result, ptr noundef %0, ptr noundef nonnull align 8 dereferenceable(32) %1)
          to label %invoke.cont unwind label %lpad

invoke.cont:                                      ; preds = %entry
  store i1 true, ptr %nrvo, align 1
  %nrvo.val = load i1, ptr %nrvo, align 1
  br i1 %nrvo.val, label %nrvo.skipdtor, label %nrvo.unused

lpad:                                             ; preds = %entry
  %2 = landingpad { ptr, i32 }
          cleanup
  %3 = extractvalue { ptr, i32 } %2, 0
  store ptr %3, ptr %exn.slot, align 8
  %4 = extractvalue { ptr, i32 } %2, 1
  store i32 %4, ptr %ehselector.slot, align 4
  call void @_ZNSt7__cxx1112basic_stringIcSt11char_traitsIcESaIcEED1Ev(ptr noundef nonnull align 8 dereferenceable(32) %agg.result) #8
  br label %eh.resume

nrvo.unused:                                      ; preds = %invoke.cont
  call void @_ZNSt7__cxx1112basic_stringIcSt11char_traitsIcESaIcEED1Ev(ptr noundef nonnull align 8 dereferenceable(32) %agg.result) #8
  br label %nrvo.skipdtor

nrvo.skipdtor:                                    ; preds = %nrvo.unused, %invoke.cont
  ret void

eh.resume:                                        ; preds = %lpad
  %exn = load ptr, ptr %exn.slot, align 8
  %sel = load i32, ptr %ehselector.slot, align 4
  %lpad.val = insertvalue { ptr, i32 } poison, ptr %exn, 0
  %lpad.val1 = insertvalue { ptr, i32 } %lpad.val, i32 %sel, 1
  resume { ptr, i32 } %lpad.val1
}

declare void @_ZN4pbrt3LogENS_8LogLevelEPKciS2_(i32 noundef, ptr noundef, i32 noundef, ptr noundef) #4

; Function Attrs: mustprogress uwtable
define linkonce_odr dso_local void @_ZN4pbrt6detail21stringPrintfRecursiveIRNSt7__cxx1112basic_stringIcSt11char_traitsIcESaIcEEEJEEEvPS7_PKcOT_DpOT0_(ptr noundef %s, ptr noundef %fmt, ptr noundef nonnull align 8 dereferenceable(32) %v) #1 comdat personality ptr @__gxx_personality_v0 {
entry:
  %s.addr = alloca ptr, align 8
  %fmt.addr = alloca ptr, align 8
  %v.addr = alloca ptr, align 8
  %nextFmt = alloca %"class.std::__cxx11::basic_string", align 8
  %precisionViaArg = alloca i8, align 1
  %isSFmt = alloca i8, align 1
  %isDFmt = alloca i8, align 1
  %exn.slot = alloca ptr, align 8
  %ehselector.slot = alloca i32, align 4
  %ss = alloca %"class.std::__cxx11::basic_stringstream", align 8
  %ref.tmp = alloca %"class.std::__cxx11::basic_string", align 8
  %ref.tmp18 = alloca ptr, align 8
  %ref.tmp19 = alloca %"class.std::__cxx11::basic_string", align 8
  %ref.tmp30 = alloca %"class.std::__cxx11::basic_string", align 8
  store ptr %s, ptr %s.addr, align 8
  store ptr %fmt, ptr %fmt.addr, align 8
  store ptr %v, ptr %v.addr, align 8
  %0 = load ptr, ptr %s.addr, align 8
  call void @_ZN4pbrt6detail18copyToFormatStringEPPKcPNSt7__cxx1112basic_stringIcSt11char_traitsIcESaIcEEE(ptr sret(%"class.std::__cxx11::basic_string") align 8 %nextFmt, ptr noundef %fmt.addr, ptr noundef %0)
  %call = call noundef i64 @_ZNKSt7__cxx1112basic_stringIcSt11char_traitsIcESaIcEE4findEcm(ptr noundef nonnull align 8 dereferenceable(32) %nextFmt, i8 noundef signext 42, i64 noundef 0) #8
  %cmp = icmp ne i64 %call, -1
  %frombool = zext i1 %cmp to i8
  store i8 %frombool, ptr %precisionViaArg, align 1
  %call1 = call noundef i64 @_ZNKSt7__cxx1112basic_stringIcSt11char_traitsIcESaIcEE4findEcm(ptr noundef nonnull align 8 dereferenceable(32) %nextFmt, i8 noundef signext 115, i64 noundef 0) #8
  %cmp2 = icmp ne i64 %call1, -1
  %frombool3 = zext i1 %cmp2 to i8
  store i8 %frombool3, ptr %isSFmt, align 1
  %call4 = call noundef i64 @_ZNKSt7__cxx1112basic_stringIcSt11char_traitsIcESaIcEE4findEcm(ptr noundef nonnull align 8 dereferenceable(32) %nextFmt, i8 noundef signext 100, i64 noundef 0) #8
  %cmp5 = icmp ne i64 %call4, -1
  %frombool6 = zext i1 %cmp5 to i8
  store i8 %frombool6, ptr %isDFmt, align 1
  %1 = load i8, ptr %precisionViaArg, align 1
  %tobool = trunc i8 %1 to i1
  br i1 %tobool, label %if.then, label %if.end

if.then:                                          ; preds = %entry
  invoke void @_ZN4pbrt8LogFatalENS_8LogLevelEPKciS2_(i32 noundef 2, ptr noundef @.str.12, i32 noundef 229, ptr noundef @.str.13) #13
          to label %invoke.cont unwind label %lpad

invoke.cont:                                      ; preds = %if.then
  unreachable

lpad:                                             ; preds = %done, %if.else37, %if.then29, %if.then12, %if.then8, %if.then
  %2 = landingpad { ptr, i32 }
          cleanup
  %3 = extractvalue { ptr, i32 } %2, 0
  store ptr %3, ptr %exn.slot, align 8
  %4 = extractvalue { ptr, i32 } %2, 1
  store i32 %4, ptr %ehselector.slot, align 4
  br label %ehcleanup42

if.end:                                           ; preds = %entry
  %5 = load i8, ptr %isDFmt, align 1
  %tobool7 = trunc i8 %5 to i1
  br i1 %tobool7, label %if.then8, label %if.end10

if.then8:                                         ; preds = %if.end
  invoke void @_ZN4pbrt8LogFatalENS_8LogLevelEPKciS2_(i32 noundef 2, ptr noundef @.str.12, i32 noundef 257, ptr noundef @.str.14) #13
          to label %invoke.cont9 unwind label %lpad

invoke.cont9:                                     ; preds = %if.then8
  unreachable

if.end10:                                         ; preds = %if.end
  %6 = load i8, ptr %isSFmt, align 1
  %tobool11 = trunc i8 %6 to i1
  br i1 %tobool11, label %if.then12, label %if.else

if.then12:                                        ; preds = %if.end10
  invoke void @_ZNSt7__cxx1118basic_stringstreamIcSt11char_traitsIcESaIcEEC1Ev(ptr noundef nonnull align 8 dereferenceable(128) %ss)
          to label %invoke.cont13 unwind label %lpad

invoke.cont13:                                    ; preds = %if.then12
  %add.ptr = getelementptr inbounds i8, ptr %ss, i64 16
  %7 = load ptr, ptr %v.addr, align 8
  %call16 = invoke noundef nonnull align 8 dereferenceable(8) ptr @_ZN4pbrt6detaillsERSoRKNSt7__cxx1112basic_stringIcSt11char_traitsIcESaIcEEE(ptr noundef nonnull align 8 dereferenceable(8) %add.ptr, ptr noundef nonnull align 8 dereferenceable(32) %7)
          to label %invoke.cont15 unwind label %lpad14

invoke.cont15:                                    ; preds = %invoke.cont13
  %call17 = call noundef ptr @_ZNKSt7__cxx1112basic_stringIcSt11char_traitsIcESaIcEE5c_strEv(ptr noundef nonnull align 8 dereferenceable(32) %nextFmt) #8
  invoke void @_ZNKSt7__cxx1118basic_stringstreamIcSt11char_traitsIcESaIcEE3strEv(ptr sret(%"class.std::__cxx11::basic_string") align 8 %ref.tmp19, ptr noundef nonnull align 8 dereferenceable(128) %ss)
          to label %invoke.cont20 unwind label %lpad14

invoke.cont20:                                    ; preds = %invoke.cont15
  %call21 = call noundef ptr @_ZNKSt7__cxx1112basic_stringIcSt11char_traitsIcESaIcEE5c_strEv(ptr noundef nonnull align 8 dereferenceable(32) %ref.tmp19) #8
  store ptr %call21, ptr %ref.tmp18, align 8
  invoke void @_ZN4pbrt6detail9formatOneIPKcEENSt9enable_ifIXntsr3stdE10is_class_vINSt5decayIT_E4typeEEENSt7__cxx1112basic_stringIcSt11char_traitsIcESaIcEEEE4typeES3_OS6_(ptr sret(%"class.std::__cxx11::basic_string") align 8 %ref.tmp, ptr noundef %call17, ptr noundef nonnull align 8 dereferenceable(8) %ref.tmp18)
          to label %invoke.cont23 unwind label %lpad22

invoke.cont23:                                    ; preds = %invoke.cont20
  %8 = load ptr, ptr %s.addr, align 8
  %call26 = invoke noundef nonnull align 8 dereferenceable(32) ptr @_ZNSt7__cxx1112basic_stringIcSt11char_traitsIcESaIcEEpLERKS4_(ptr noundef nonnull align 8 dereferenceable(32) %8, ptr noundef nonnull align 8 dereferenceable(32) %ref.tmp)
          to label %invoke.cont25 unwind label %lpad24

invoke.cont25:                                    ; preds = %invoke.cont23
  call void @_ZNSt7__cxx1112basic_stringIcSt11char_traitsIcESaIcEED1Ev(ptr noundef nonnull align 8 dereferenceable(32) %ref.tmp) #8
  call void @_ZNSt7__cxx1112basic_stringIcSt11char_traitsIcESaIcEED1Ev(ptr noundef nonnull align 8 dereferenceable(32) %ref.tmp19) #8
  call void @_ZNSt7__cxx1118basic_stringstreamIcSt11char_traitsIcESaIcEED1Ev(ptr noundef nonnull align 8 dereferenceable(128) %ss) #8
  br label %if.end40

lpad14:                                           ; preds = %invoke.cont15, %invoke.cont13
  %9 = landingpad { ptr, i32 }
          cleanup
  %10 = extractvalue { ptr, i32 } %9, 0
  store ptr %10, ptr %exn.slot, align 8
  %11 = extractvalue { ptr, i32 } %9, 1
  store i32 %11, ptr %ehselector.slot, align 4
  br label %ehcleanup27

lpad22:                                           ; preds = %invoke.cont20
  %12 = landingpad { ptr, i32 }
          cleanup
  %13 = extractvalue { ptr, i32 } %12, 0
  store ptr %13, ptr %exn.slot, align 8
  %14 = extractvalue { ptr, i32 } %12, 1
  store i32 %14, ptr %ehselector.slot, align 4
  br label %ehcleanup

lpad24:                                           ; preds = %invoke.cont23
  %15 = landingpad { ptr, i32 }
          cleanup
  %16 = extractvalue { ptr, i32 } %15, 0
  store ptr %16, ptr %exn.slot, align 8
  %17 = extractvalue { ptr, i32 } %15, 1
  store i32 %17, ptr %ehselector.slot, align 4
  call void @_ZNSt7__cxx1112basic_stringIcSt11char_traitsIcESaIcEED1Ev(ptr noundef nonnull align 8 dereferenceable(32) %ref.tmp) #8
  br label %ehcleanup

ehcleanup:                                        ; preds = %lpad24, %lpad22
  call void @_ZNSt7__cxx1112basic_stringIcSt11char_traitsIcESaIcEED1Ev(ptr noundef nonnull align 8 dereferenceable(32) %ref.tmp19) #8
  br label %ehcleanup27

ehcleanup27:                                      ; preds = %ehcleanup, %lpad14
  call void @_ZNSt7__cxx1118basic_stringstreamIcSt11char_traitsIcESaIcEED1Ev(ptr noundef nonnull align 8 dereferenceable(128) %ss) #8
  br label %ehcleanup42

if.else:                                          ; preds = %if.end10
  %call28 = call noundef zeroext i1 @_ZNKSt7__cxx1112basic_stringIcSt11char_traitsIcESaIcEE5emptyEv(ptr noundef nonnull align 8 dereferenceable(32) %nextFmt) #8
  br i1 %call28, label %if.else37, label %if.then29

if.then29:                                        ; preds = %if.else
  %call31 = call noundef ptr @_ZNKSt7__cxx1112basic_stringIcSt11char_traitsIcESaIcEE5c_strEv(ptr noundef nonnull align 8 dereferenceable(32) %nextFmt) #8
  %18 = load ptr, ptr %v.addr, align 8
  invoke void @_ZN4pbrt6detail9formatOneIRNSt7__cxx1112basic_stringIcSt11char_traitsIcESaIcEEEEENSt9enable_ifIXsr3stdE10is_class_vINSt5decayIT_E4typeEEES7_E4typeEPKcOSB_(ptr sret(%"class.std::__cxx11::basic_string") align 8 %ref.tmp30, ptr noundef %call31, ptr noundef nonnull align 8 dereferenceable(32) %18)
          to label %invoke.cont32 unwind label %lpad

invoke.cont32:                                    ; preds = %if.then29
  %19 = load ptr, ptr %s.addr, align 8
  %call35 = invoke noundef nonnull align 8 dereferenceable(32) ptr @_ZNSt7__cxx1112basic_stringIcSt11char_traitsIcESaIcEEpLERKS4_(ptr noundef nonnull align 8 dereferenceable(32) %19, ptr noundef nonnull align 8 dereferenceable(32) %ref.tmp30)
          to label %invoke.cont34 unwind label %lpad33

invoke.cont34:                                    ; preds = %invoke.cont32
  call void @_ZNSt7__cxx1112basic_stringIcSt11char_traitsIcESaIcEED1Ev(ptr noundef nonnull align 8 dereferenceable(32) %ref.tmp30) #8
  br label %if.end39

lpad33:                                           ; preds = %invoke.cont32
  %20 = landingpad { ptr, i32 }
          cleanup
  %21 = extractvalue { ptr, i32 } %20, 0
  store ptr %21, ptr %exn.slot, align 8
  %22 = extractvalue { ptr, i32 } %20, 1
  store i32 %22, ptr %ehselector.slot, align 4
  call void @_ZNSt7__cxx1112basic_stringIcSt11char_traitsIcESaIcEED1Ev(ptr noundef nonnull align 8 dereferenceable(32) %ref.tmp30) #8
  br label %ehcleanup42

if.else37:                                        ; preds = %if.else
  invoke void @_ZN4pbrt8LogFatalENS_8LogLevelEPKciS2_(i32 noundef 2, ptr noundef @.str.12, i32 noundef 266, ptr noundef @.str.15) #13
          to label %invoke.cont38 unwind label %lpad

invoke.cont38:                                    ; preds = %if.else37
  unreachable

if.end39:                                         ; preds = %invoke.cont34
  br label %if.end40

if.end40:                                         ; preds = %if.end39, %invoke.cont25
  br label %done

done:                                             ; preds = %if.end40
  %23 = load ptr, ptr %s.addr, align 8
  %24 = load ptr, ptr %fmt.addr, align 8
  invoke void @_ZN4pbrt6detail21stringPrintfRecursiveEPNSt7__cxx1112basic_stringIcSt11char_traitsIcESaIcEEEPKc(ptr noundef %23, ptr noundef %24)
          to label %invoke.cont41 unwind label %lpad

invoke.cont41:                                    ; preds = %done
  call void @_ZNSt7__cxx1112basic_stringIcSt11char_traitsIcESaIcEED1Ev(ptr noundef nonnull align 8 dereferenceable(32) %nextFmt) #8
  ret void

ehcleanup42:                                      ; preds = %lpad33, %ehcleanup27, %lpad
  call void @_ZNSt7__cxx1112basic_stringIcSt11char_traitsIcESaIcEED1Ev(ptr noundef nonnull align 8 dereferenceable(32) %nextFmt) #8
  br label %eh.resume

eh.resume:                                        ; preds = %ehcleanup42
  %exn = load ptr, ptr %exn.slot, align 8
  %sel = load i32, ptr %ehselector.slot, align 4
  %lpad.val = insertvalue { ptr, i32 } poison, ptr %exn, 0
  %lpad.val43 = insertvalue { ptr, i32 } %lpad.val, i32 %sel, 1
  resume { ptr, i32 } %lpad.val43
}

declare void @_ZN4pbrt6detail18copyToFormatStringEPPKcPNSt7__cxx1112basic_stringIcSt11char_traitsIcESaIcEEE(ptr sret(%"class.std::__cxx11::basic_string") align 8, ptr noundef, ptr noundef) #4

; Function Attrs: nounwind
declare noundef i64 @_ZNKSt7__cxx1112basic_stringIcSt11char_traitsIcESaIcEE4findEcm(ptr noundef nonnull align 8 dereferenceable(32), i8 noundef signext, i64 noundef) #3

; Function Attrs: noreturn
declare void @_ZN4pbrt8LogFatalENS_8LogLevelEPKciS2_(i32 noundef, ptr noundef, i32 noundef, ptr noundef) #9

declare void @_ZNSt7__cxx1118basic_stringstreamIcSt11char_traitsIcESaIcEEC1Ev(ptr noundef nonnull align 8 dereferenceable(128)) unnamed_addr #4

; Function Attrs: mustprogress uwtable
define linkonce_odr dso_local noundef nonnull align 8 dereferenceable(8) ptr @_ZN4pbrt6detaillsERSoRKNSt7__cxx1112basic_stringIcSt11char_traitsIcESaIcEEE(ptr noundef nonnull align 8 dereferenceable(8) %os, ptr noundef nonnull align 8 dereferenceable(32) %str) #1 comdat {
entry:
  %os.addr = alloca ptr, align 8
  %str.addr = alloca ptr, align 8
  store ptr %os, ptr %os.addr, align 8
  store ptr %str, ptr %str.addr, align 8
  %0 = load ptr, ptr %os.addr, align 8
  %1 = load ptr, ptr %str.addr, align 8
  %call = call noundef nonnull align 8 dereferenceable(8) ptr @_ZStlsIcSt11char_traitsIcESaIcEERSt13basic_ostreamIT_T0_ES7_RKNSt7__cxx1112basic_stringIS4_S5_T1_EE(ptr noundef nonnull align 8 dereferenceable(8) %0, ptr noundef nonnull align 8 dereferenceable(32) %1)
  ret ptr %call
}

; Function Attrs: mustprogress uwtable
define linkonce_odr dso_local void @_ZN4pbrt6detail9formatOneIPKcEENSt9enable_ifIXntsr3stdE10is_class_vINSt5decayIT_E4typeEEENSt7__cxx1112basic_stringIcSt11char_traitsIcESaIcEEEE4typeES3_OS6_(ptr noalias sret(%"class.std::__cxx11::basic_string") align 8 %agg.result, ptr noundef %fmt, ptr noundef nonnull align 8 dereferenceable(8) %v) #1 comdat personality ptr @__gxx_personality_v0 {
entry:
  %result.ptr = alloca ptr, align 8
  %fmt.addr = alloca ptr, align 8
  %v.addr = alloca ptr, align 8
  %size = alloca i64, align 8
  %nrvo = alloca i1, align 1
  %exn.slot = alloca ptr, align 8
  %ehselector.slot = alloca i32, align 4
  store ptr %agg.result, ptr %result.ptr, align 8
  store ptr %fmt, ptr %fmt.addr, align 8
  store ptr %v, ptr %v.addr, align 8
  %0 = load ptr, ptr %fmt.addr, align 8
  %1 = load ptr, ptr %v.addr, align 8
  %2 = load ptr, ptr %1, align 8
  %call = call i32 (ptr, i64, ptr, ...) @snprintf(ptr noundef null, i64 noundef 0, ptr noundef %0, ptr noundef %2) #8
  %add = add nsw i32 %call, 1
  %conv = sext i32 %add to i64
  store i64 %conv, ptr %size, align 8
  store i1 false, ptr %nrvo, align 1
  call void @_ZNSt7__cxx1112basic_stringIcSt11char_traitsIcESaIcEEC1Ev(ptr noundef nonnull align 8 dereferenceable(32) %agg.result) #8
  %3 = load i64, ptr %size, align 8
  invoke void @_ZNSt7__cxx1112basic_stringIcSt11char_traitsIcESaIcEE6resizeEm(ptr noundef nonnull align 8 dereferenceable(32) %agg.result, i64 noundef %3)
          to label %invoke.cont unwind label %lpad

invoke.cont:                                      ; preds = %entry
  %call2 = invoke noundef nonnull align 1 dereferenceable(1) ptr @_ZNSt7__cxx1112basic_stringIcSt11char_traitsIcESaIcEEixEm(ptr noundef nonnull align 8 dereferenceable(32) %agg.result, i64 noundef 0)
          to label %invoke.cont1 unwind label %lpad

invoke.cont1:                                     ; preds = %invoke.cont
  %4 = load i64, ptr %size, align 8
  %5 = load ptr, ptr %fmt.addr, align 8
  %6 = load ptr, ptr %v.addr, align 8
  %7 = load ptr, ptr %6, align 8
  %call3 = call i32 (ptr, i64, ptr, ...) @snprintf(ptr noundef %call2, i64 noundef %4, ptr noundef %5, ptr noundef %7) #8
  call void @_ZNSt7__cxx1112basic_stringIcSt11char_traitsIcESaIcEE8pop_backEv(ptr noundef nonnull align 8 dereferenceable(32) %agg.result) #8
  store i1 true, ptr %nrvo, align 1
  %nrvo.val = load i1, ptr %nrvo, align 1
  br i1 %nrvo.val, label %nrvo.skipdtor, label %nrvo.unused

lpad:                                             ; preds = %invoke.cont, %entry
  %8 = landingpad { ptr, i32 }
          cleanup
  %9 = extractvalue { ptr, i32 } %8, 0
  store ptr %9, ptr %exn.slot, align 8
  %10 = extractvalue { ptr, i32 } %8, 1
  store i32 %10, ptr %ehselector.slot, align 4
  call void @_ZNSt7__cxx1112basic_stringIcSt11char_traitsIcESaIcEED1Ev(ptr noundef nonnull align 8 dereferenceable(32) %agg.result) #8
  br label %eh.resume

nrvo.unused:                                      ; preds = %invoke.cont1
  call void @_ZNSt7__cxx1112basic_stringIcSt11char_traitsIcESaIcEED1Ev(ptr noundef nonnull align 8 dereferenceable(32) %agg.result) #8
  br label %nrvo.skipdtor

nrvo.skipdtor:                                    ; preds = %nrvo.unused, %invoke.cont1
  ret void

eh.resume:                                        ; preds = %lpad
  %exn = load ptr, ptr %exn.slot, align 8
  %sel = load i32, ptr %ehselector.slot, align 4
  %lpad.val = insertvalue { ptr, i32 } poison, ptr %exn, 0
  %lpad.val4 = insertvalue { ptr, i32 } %lpad.val, i32 %sel, 1
  resume { ptr, i32 } %lpad.val4
}

declare void @_ZNKSt7__cxx1118basic_stringstreamIcSt11char_traitsIcESaIcEE3strEv(ptr sret(%"class.std::__cxx11::basic_string") align 8, ptr noundef nonnull align 8 dereferenceable(128)) #4

; Function Attrs: nounwind
declare void @_ZNSt7__cxx1118basic_stringstreamIcSt11char_traitsIcESaIcEED1Ev(ptr noundef nonnull align 8 dereferenceable(128)) unnamed_addr #3

; Function Attrs: nounwind
declare noundef zeroext i1 @_ZNKSt7__cxx1112basic_stringIcSt11char_traitsIcESaIcEE5emptyEv(ptr noundef nonnull align 8 dereferenceable(32)) #3

; Function Attrs: mustprogress uwtable
define linkonce_odr dso_local void @_ZN4pbrt6detail9formatOneIRNSt7__cxx1112basic_stringIcSt11char_traitsIcESaIcEEEEENSt9enable_ifIXsr3stdE10is_class_vINSt5decayIT_E4typeEEES7_E4typeEPKcOSB_(ptr noalias sret(%"class.std::__cxx11::basic_string") align 8 %agg.result, ptr noundef %fmt, ptr noundef nonnull align 8 dereferenceable(32) %v) #1 comdat {
entry:
  %result.ptr = alloca ptr, align 8
  %fmt.addr = alloca ptr, align 8
  %v.addr = alloca ptr, align 8
  %ref.tmp = alloca ptr, align 8
  store ptr %agg.result, ptr %result.ptr, align 8
  store ptr %fmt, ptr %fmt.addr, align 8
  store ptr %v, ptr %v.addr, align 8
  %call = call noundef ptr @_ZNKSt9type_info4nameEv(ptr noundef nonnull align 8 dereferenceable(16) @_ZTINSt7__cxx1112basic_stringIcSt11char_traitsIcESaIcEEE) #8
  store ptr %call, ptr %ref.tmp, align 8
  call void @_ZN4pbrt8LogFatalIJPKcRS2_EEEvNS_8LogLevelES2_iS2_DpOT_(i32 noundef 2, ptr noundef @.str.12, i32 noundef 176, ptr noundef @.str.16, ptr noundef nonnull align 8 dereferenceable(8) %ref.tmp, ptr noundef nonnull align 8 dereferenceable(8) %fmt.addr) #13
  unreachable
}

declare void @_ZN4pbrt6detail21stringPrintfRecursiveEPNSt7__cxx1112basic_stringIcSt11char_traitsIcESaIcEEEPKc(ptr noundef, ptr noundef) #4

declare noundef nonnull align 8 dereferenceable(8) ptr @_ZStlsIcSt11char_traitsIcESaIcEERSt13basic_ostreamIT_T0_ES7_RKNSt7__cxx1112basic_stringIS4_S5_T1_EE(ptr noundef nonnull align 8 dereferenceable(8), ptr noundef nonnull align 8 dereferenceable(32)) #4

; Function Attrs: nounwind
declare i32 @snprintf(ptr noundef, i64 noundef, ptr noundef, ...) #3

declare void @_ZNSt7__cxx1112basic_stringIcSt11char_traitsIcESaIcEE6resizeEm(ptr noundef nonnull align 8 dereferenceable(32), i64 noundef) #4

declare noundef nonnull align 1 dereferenceable(1) ptr @_ZNSt7__cxx1112basic_stringIcSt11char_traitsIcESaIcEEixEm(ptr noundef nonnull align 8 dereferenceable(32), i64 noundef) #4

; Function Attrs: nounwind
declare void @_ZNSt7__cxx1112basic_stringIcSt11char_traitsIcESaIcEE8pop_backEv(ptr noundef nonnull align 8 dereferenceable(32)) #3

; Function Attrs: mustprogress noreturn uwtable
define linkonce_odr dso_local void @_ZN4pbrt8LogFatalIJPKcRS2_EEEvNS_8LogLevelES2_iS2_DpOT_(i32 noundef %level, ptr noundef %file, i32 noundef %line, ptr noundef %fmt, ptr noundef nonnull align 8 dereferenceable(8) %args, ptr noundef nonnull align 8 dereferenceable(8) %args1) #5 comdat personality ptr @__gxx_personality_v0 {
entry:
  %level.addr = alloca i32, align 4
  %file.addr = alloca ptr, align 8
  %line.addr = alloca i32, align 4
  %fmt.addr = alloca ptr, align 8
  %args.addr = alloca ptr, align 8
  %args.addr2 = alloca ptr, align 8
  %s = alloca %"class.std::__cxx11::basic_string", align 8
  %exn.slot = alloca ptr, align 8
  %ehselector.slot = alloca i32, align 4
  store i32 %level, ptr %level.addr, align 4
  store ptr %file, ptr %file.addr, align 8
  store i32 %line, ptr %line.addr, align 4
  store ptr %fmt, ptr %fmt.addr, align 8
  store ptr %args, ptr %args.addr, align 8
  store ptr %args1, ptr %args.addr2, align 8
  %0 = load ptr, ptr %fmt.addr, align 8
  %1 = load ptr, ptr %args.addr, align 8
  %2 = load ptr, ptr %args.addr2, align 8
  call void @_ZN4pbrt12StringPrintfIJPKcRS2_EEENSt7__cxx1112basic_stringIcSt11char_traitsIcESaIcEEES2_DpOT_(ptr sret(%"class.std::__cxx11::basic_string") align 8 %s, ptr noundef %0, ptr noundef nonnull align 8 dereferenceable(8) %1, ptr noundef nonnull align 8 dereferenceable(8) %2)
  %3 = load i32, ptr %level.addr, align 4
  %4 = load ptr, ptr %file.addr, align 8
  %5 = load i32, ptr %line.addr, align 4
  %call = call noundef ptr @_ZNKSt7__cxx1112basic_stringIcSt11char_traitsIcESaIcEE5c_strEv(ptr noundef nonnull align 8 dereferenceable(32) %s) #8
  invoke void @_ZN4pbrt8LogFatalENS_8LogLevelEPKciS2_(i32 noundef %3, ptr noundef %4, i32 noundef %5, ptr noundef %call) #13
          to label %invoke.cont unwind label %lpad

invoke.cont:                                      ; preds = %entry
  unreachable

lpad:                                             ; preds = %entry
  %6 = landingpad { ptr, i32 }
          cleanup
  %7 = extractvalue { ptr, i32 } %6, 0
  store ptr %7, ptr %exn.slot, align 8
  %8 = extractvalue { ptr, i32 } %6, 1
  store i32 %8, ptr %ehselector.slot, align 4
  call void @_ZNSt7__cxx1112basic_stringIcSt11char_traitsIcESaIcEED1Ev(ptr noundef nonnull align 8 dereferenceable(32) %s) #8
  br label %eh.resume

eh.resume:                                        ; preds = %lpad
  %exn = load ptr, ptr %exn.slot, align 8
  %sel = load i32, ptr %ehselector.slot, align 4
  %lpad.val = insertvalue { ptr, i32 } poison, ptr %exn, 0
  %lpad.val3 = insertvalue { ptr, i32 } %lpad.val, i32 %sel, 1
  resume { ptr, i32 } %lpad.val3
}

; Function Attrs: mustprogress nounwind uwtable
define linkonce_odr dso_local noundef ptr @_ZNKSt9type_info4nameEv(ptr noundef nonnull align 8 dereferenceable(16) %this) #2 comdat align 2 {
entry:
  %this.addr = alloca ptr, align 8
  store ptr %this, ptr %this.addr, align 8
  %this1 = load ptr, ptr %this.addr, align 8
  %__name = getelementptr inbounds %"class.std::type_info", ptr %this1, i32 0, i32 1
  %0 = load ptr, ptr %__name, align 8
  %arrayidx = getelementptr inbounds i8, ptr %0, i64 0
  %1 = load i8, ptr %arrayidx, align 1
  %conv = sext i8 %1 to i32
  %cmp = icmp eq i32 %conv, 42
  br i1 %cmp, label %cond.true, label %cond.false

cond.true:                                        ; preds = %entry
  %__name2 = getelementptr inbounds %"class.std::type_info", ptr %this1, i32 0, i32 1
  %2 = load ptr, ptr %__name2, align 8
  %add.ptr = getelementptr inbounds i8, ptr %2, i64 1
  br label %cond.end

cond.false:                                       ; preds = %entry
  %__name3 = getelementptr inbounds %"class.std::type_info", ptr %this1, i32 0, i32 1
  %3 = load ptr, ptr %__name3, align 8
  br label %cond.end

cond.end:                                         ; preds = %cond.false, %cond.true
  %cond = phi ptr [ %add.ptr, %cond.true ], [ %3, %cond.false ]
  ret ptr %cond
}

; Function Attrs: mustprogress uwtable
define linkonce_odr dso_local void @_ZN4pbrt12StringPrintfIJPKcRS2_EEENSt7__cxx1112basic_stringIcSt11char_traitsIcESaIcEEES2_DpOT_(ptr noalias sret(%"class.std::__cxx11::basic_string") align 8 %agg.result, ptr noundef %fmt, ptr noundef nonnull align 8 dereferenceable(8) %args, ptr noundef nonnull align 8 dereferenceable(8) %args1) #1 comdat personality ptr @__gxx_personality_v0 {
entry:
  %result.ptr = alloca ptr, align 8
  %fmt.addr = alloca ptr, align 8
  %args.addr = alloca ptr, align 8
  %args.addr2 = alloca ptr, align 8
  %nrvo = alloca i1, align 1
  %exn.slot = alloca ptr, align 8
  %ehselector.slot = alloca i32, align 4
  store ptr %agg.result, ptr %result.ptr, align 8
  store ptr %fmt, ptr %fmt.addr, align 8
  store ptr %args, ptr %args.addr, align 8
  store ptr %args1, ptr %args.addr2, align 8
  store i1 false, ptr %nrvo, align 1
  call void @_ZNSt7__cxx1112basic_stringIcSt11char_traitsIcESaIcEEC1Ev(ptr noundef nonnull align 8 dereferenceable(32) %agg.result) #8
  %0 = load ptr, ptr %fmt.addr, align 8
  %1 = load ptr, ptr %args.addr, align 8
  %2 = load ptr, ptr %args.addr2, align 8
  invoke void @_ZN4pbrt6detail21stringPrintfRecursiveIPKcJRS3_EEEvPNSt7__cxx1112basic_stringIcSt11char_traitsIcESaIcEEES3_OT_DpOT0_(ptr noundef %agg.result, ptr noundef %0, ptr noundef nonnull align 8 dereferenceable(8) %1, ptr noundef nonnull align 8 dereferenceable(8) %2)
          to label %invoke.cont unwind label %lpad

invoke.cont:                                      ; preds = %entry
  store i1 true, ptr %nrvo, align 1
  %nrvo.val = load i1, ptr %nrvo, align 1
  br i1 %nrvo.val, label %nrvo.skipdtor, label %nrvo.unused

lpad:                                             ; preds = %entry
  %3 = landingpad { ptr, i32 }
          cleanup
  %4 = extractvalue { ptr, i32 } %3, 0
  store ptr %4, ptr %exn.slot, align 8
  %5 = extractvalue { ptr, i32 } %3, 1
  store i32 %5, ptr %ehselector.slot, align 4
  call void @_ZNSt7__cxx1112basic_stringIcSt11char_traitsIcESaIcEED1Ev(ptr noundef nonnull align 8 dereferenceable(32) %agg.result) #8
  br label %eh.resume

nrvo.unused:                                      ; preds = %invoke.cont
  call void @_ZNSt7__cxx1112basic_stringIcSt11char_traitsIcESaIcEED1Ev(ptr noundef nonnull align 8 dereferenceable(32) %agg.result) #8
  br label %nrvo.skipdtor

nrvo.skipdtor:                                    ; preds = %nrvo.unused, %invoke.cont
  ret void

eh.resume:                                        ; preds = %lpad
  %exn = load ptr, ptr %exn.slot, align 8
  %sel = load i32, ptr %ehselector.slot, align 4
  %lpad.val = insertvalue { ptr, i32 } poison, ptr %exn, 0
  %lpad.val3 = insertvalue { ptr, i32 } %lpad.val, i32 %sel, 1
  resume { ptr, i32 } %lpad.val3
}

; Function Attrs: mustprogress uwtable
define linkonce_odr dso_local void @_ZN4pbrt6detail21stringPrintfRecursiveIPKcJRS3_EEEvPNSt7__cxx1112basic_stringIcSt11char_traitsIcESaIcEEES3_OT_DpOT0_(ptr noundef %s, ptr noundef %fmt, ptr noundef nonnull align 8 dereferenceable(8) %v, ptr noundef nonnull align 8 dereferenceable(8) %args) #1 comdat personality ptr @__gxx_personality_v0 {
entry:
  %s.addr = alloca ptr, align 8
  %fmt.addr = alloca ptr, align 8
  %v.addr = alloca ptr, align 8
  %args.addr = alloca ptr, align 8
  %nextFmt = alloca %"class.std::__cxx11::basic_string", align 8
  %precisionViaArg = alloca i8, align 1
  %isSFmt = alloca i8, align 1
  %isDFmt = alloca i8, align 1
  %exn.slot = alloca ptr, align 8
  %ehselector.slot = alloca i32, align 4
  %ss = alloca %"class.std::__cxx11::basic_stringstream", align 8
  %ref.tmp = alloca %"class.std::__cxx11::basic_string", align 8
  %ref.tmp18 = alloca ptr, align 8
  %ref.tmp19 = alloca %"class.std::__cxx11::basic_string", align 8
  %ref.tmp30 = alloca %"class.std::__cxx11::basic_string", align 8
  store ptr %s, ptr %s.addr, align 8
  store ptr %fmt, ptr %fmt.addr, align 8
  store ptr %v, ptr %v.addr, align 8
  store ptr %args, ptr %args.addr, align 8
  %0 = load ptr, ptr %s.addr, align 8
  call void @_ZN4pbrt6detail18copyToFormatStringEPPKcPNSt7__cxx1112basic_stringIcSt11char_traitsIcESaIcEEE(ptr sret(%"class.std::__cxx11::basic_string") align 8 %nextFmt, ptr noundef %fmt.addr, ptr noundef %0)
  %call = call noundef i64 @_ZNKSt7__cxx1112basic_stringIcSt11char_traitsIcESaIcEE4findEcm(ptr noundef nonnull align 8 dereferenceable(32) %nextFmt, i8 noundef signext 42, i64 noundef 0) #8
  %cmp = icmp ne i64 %call, -1
  %frombool = zext i1 %cmp to i8
  store i8 %frombool, ptr %precisionViaArg, align 1
  %call1 = call noundef i64 @_ZNKSt7__cxx1112basic_stringIcSt11char_traitsIcESaIcEE4findEcm(ptr noundef nonnull align 8 dereferenceable(32) %nextFmt, i8 noundef signext 115, i64 noundef 0) #8
  %cmp2 = icmp ne i64 %call1, -1
  %frombool3 = zext i1 %cmp2 to i8
  store i8 %frombool3, ptr %isSFmt, align 1
  %call4 = call noundef i64 @_ZNKSt7__cxx1112basic_stringIcSt11char_traitsIcESaIcEE4findEcm(ptr noundef nonnull align 8 dereferenceable(32) %nextFmt, i8 noundef signext 100, i64 noundef 0) #8
  %cmp5 = icmp ne i64 %call4, -1
  %frombool6 = zext i1 %cmp5 to i8
  store i8 %frombool6, ptr %isDFmt, align 1
  %1 = load i8, ptr %precisionViaArg, align 1
  %tobool = trunc i8 %1 to i1
  br i1 %tobool, label %if.then, label %if.end

if.then:                                          ; preds = %entry
  invoke void @_ZN4pbrt8LogFatalENS_8LogLevelEPKciS2_(i32 noundef 2, ptr noundef @.str.12, i32 noundef 229, ptr noundef @.str.13) #13
          to label %invoke.cont unwind label %lpad

invoke.cont:                                      ; preds = %if.then
  unreachable

lpad:                                             ; preds = %done, %if.else37, %if.then29, %if.then12, %if.then8, %if.then
  %2 = landingpad { ptr, i32 }
          cleanup
  %3 = extractvalue { ptr, i32 } %2, 0
  store ptr %3, ptr %exn.slot, align 8
  %4 = extractvalue { ptr, i32 } %2, 1
  store i32 %4, ptr %ehselector.slot, align 4
  br label %ehcleanup42

if.end:                                           ; preds = %entry
  %5 = load i8, ptr %isDFmt, align 1
  %tobool7 = trunc i8 %5 to i1
  br i1 %tobool7, label %if.then8, label %if.end10

if.then8:                                         ; preds = %if.end
  invoke void @_ZN4pbrt8LogFatalENS_8LogLevelEPKciS2_(i32 noundef 2, ptr noundef @.str.12, i32 noundef 257, ptr noundef @.str.14) #13
          to label %invoke.cont9 unwind label %lpad

invoke.cont9:                                     ; preds = %if.then8
  unreachable

if.end10:                                         ; preds = %if.end
  %6 = load i8, ptr %isSFmt, align 1
  %tobool11 = trunc i8 %6 to i1
  br i1 %tobool11, label %if.then12, label %if.else

if.then12:                                        ; preds = %if.end10
  invoke void @_ZNSt7__cxx1118basic_stringstreamIcSt11char_traitsIcESaIcEEC1Ev(ptr noundef nonnull align 8 dereferenceable(128) %ss)
          to label %invoke.cont13 unwind label %lpad

invoke.cont13:                                    ; preds = %if.then12
  %add.ptr = getelementptr inbounds i8, ptr %ss, i64 16
  %7 = load ptr, ptr %v.addr, align 8
  %8 = load ptr, ptr %7, align 8
  %call16 = invoke noundef nonnull align 8 dereferenceable(8) ptr @_ZStlsISt11char_traitsIcEERSt13basic_ostreamIcT_ES5_PKc(ptr noundef nonnull align 8 dereferenceable(8) %add.ptr, ptr noundef %8)
          to label %invoke.cont15 unwind label %lpad14

invoke.cont15:                                    ; preds = %invoke.cont13
  %call17 = call noundef ptr @_ZNKSt7__cxx1112basic_stringIcSt11char_traitsIcESaIcEE5c_strEv(ptr noundef nonnull align 8 dereferenceable(32) %nextFmt) #8
  invoke void @_ZNKSt7__cxx1118basic_stringstreamIcSt11char_traitsIcESaIcEE3strEv(ptr sret(%"class.std::__cxx11::basic_string") align 8 %ref.tmp19, ptr noundef nonnull align 8 dereferenceable(128) %ss)
          to label %invoke.cont20 unwind label %lpad14

invoke.cont20:                                    ; preds = %invoke.cont15
  %call21 = call noundef ptr @_ZNKSt7__cxx1112basic_stringIcSt11char_traitsIcESaIcEE5c_strEv(ptr noundef nonnull align 8 dereferenceable(32) %ref.tmp19) #8
  store ptr %call21, ptr %ref.tmp18, align 8
  invoke void @_ZN4pbrt6detail9formatOneIPKcEENSt9enable_ifIXntsr3stdE10is_class_vINSt5decayIT_E4typeEEENSt7__cxx1112basic_stringIcSt11char_traitsIcESaIcEEEE4typeES3_OS6_(ptr sret(%"class.std::__cxx11::basic_string") align 8 %ref.tmp, ptr noundef %call17, ptr noundef nonnull align 8 dereferenceable(8) %ref.tmp18)
          to label %invoke.cont23 unwind label %lpad22

invoke.cont23:                                    ; preds = %invoke.cont20
  %9 = load ptr, ptr %s.addr, align 8
  %call26 = invoke noundef nonnull align 8 dereferenceable(32) ptr @_ZNSt7__cxx1112basic_stringIcSt11char_traitsIcESaIcEEpLERKS4_(ptr noundef nonnull align 8 dereferenceable(32) %9, ptr noundef nonnull align 8 dereferenceable(32) %ref.tmp)
          to label %invoke.cont25 unwind label %lpad24

invoke.cont25:                                    ; preds = %invoke.cont23
  call void @_ZNSt7__cxx1112basic_stringIcSt11char_traitsIcESaIcEED1Ev(ptr noundef nonnull align 8 dereferenceable(32) %ref.tmp) #8
  call void @_ZNSt7__cxx1112basic_stringIcSt11char_traitsIcESaIcEED1Ev(ptr noundef nonnull align 8 dereferenceable(32) %ref.tmp19) #8
  call void @_ZNSt7__cxx1118basic_stringstreamIcSt11char_traitsIcESaIcEED1Ev(ptr noundef nonnull align 8 dereferenceable(128) %ss) #8
  br label %if.end40

lpad14:                                           ; preds = %invoke.cont15, %invoke.cont13
  %10 = landingpad { ptr, i32 }
          cleanup
  %11 = extractvalue { ptr, i32 } %10, 0
  store ptr %11, ptr %exn.slot, align 8
  %12 = extractvalue { ptr, i32 } %10, 1
  store i32 %12, ptr %ehselector.slot, align 4
  br label %ehcleanup27

lpad22:                                           ; preds = %invoke.cont20
  %13 = landingpad { ptr, i32 }
          cleanup
  %14 = extractvalue { ptr, i32 } %13, 0
  store ptr %14, ptr %exn.slot, align 8
  %15 = extractvalue { ptr, i32 } %13, 1
  store i32 %15, ptr %ehselector.slot, align 4
  br label %ehcleanup

lpad24:                                           ; preds = %invoke.cont23
  %16 = landingpad { ptr, i32 }
          cleanup
  %17 = extractvalue { ptr, i32 } %16, 0
  store ptr %17, ptr %exn.slot, align 8
  %18 = extractvalue { ptr, i32 } %16, 1
  store i32 %18, ptr %ehselector.slot, align 4
  call void @_ZNSt7__cxx1112basic_stringIcSt11char_traitsIcESaIcEED1Ev(ptr noundef nonnull align 8 dereferenceable(32) %ref.tmp) #8
  br label %ehcleanup

ehcleanup:                                        ; preds = %lpad24, %lpad22
  call void @_ZNSt7__cxx1112basic_stringIcSt11char_traitsIcESaIcEED1Ev(ptr noundef nonnull align 8 dereferenceable(32) %ref.tmp19) #8
  br label %ehcleanup27

ehcleanup27:                                      ; preds = %ehcleanup, %lpad14
  call void @_ZNSt7__cxx1118basic_stringstreamIcSt11char_traitsIcESaIcEED1Ev(ptr noundef nonnull align 8 dereferenceable(128) %ss) #8
  br label %ehcleanup42

if.else:                                          ; preds = %if.end10
  %call28 = call noundef zeroext i1 @_ZNKSt7__cxx1112basic_stringIcSt11char_traitsIcESaIcEE5emptyEv(ptr noundef nonnull align 8 dereferenceable(32) %nextFmt) #8
  br i1 %call28, label %if.else37, label %if.then29

if.then29:                                        ; preds = %if.else
  %call31 = call noundef ptr @_ZNKSt7__cxx1112basic_stringIcSt11char_traitsIcESaIcEE5c_strEv(ptr noundef nonnull align 8 dereferenceable(32) %nextFmt) #8
  %19 = load ptr, ptr %v.addr, align 8
  invoke void @_ZN4pbrt6detail9formatOneIPKcEENSt9enable_ifIXntsr3stdE10is_class_vINSt5decayIT_E4typeEEENSt7__cxx1112basic_stringIcSt11char_traitsIcESaIcEEEE4typeES3_OS6_(ptr sret(%"class.std::__cxx11::basic_string") align 8 %ref.tmp30, ptr noundef %call31, ptr noundef nonnull align 8 dereferenceable(8) %19)
          to label %invoke.cont32 unwind label %lpad

invoke.cont32:                                    ; preds = %if.then29
  %20 = load ptr, ptr %s.addr, align 8
  %call35 = invoke noundef nonnull align 8 dereferenceable(32) ptr @_ZNSt7__cxx1112basic_stringIcSt11char_traitsIcESaIcEEpLERKS4_(ptr noundef nonnull align 8 dereferenceable(32) %20, ptr noundef nonnull align 8 dereferenceable(32) %ref.tmp30)
          to label %invoke.cont34 unwind label %lpad33

invoke.cont34:                                    ; preds = %invoke.cont32
  call void @_ZNSt7__cxx1112basic_stringIcSt11char_traitsIcESaIcEED1Ev(ptr noundef nonnull align 8 dereferenceable(32) %ref.tmp30) #8
  br label %if.end39

lpad33:                                           ; preds = %invoke.cont32
  %21 = landingpad { ptr, i32 }
          cleanup
  %22 = extractvalue { ptr, i32 } %21, 0
  store ptr %22, ptr %exn.slot, align 8
  %23 = extractvalue { ptr, i32 } %21, 1
  store i32 %23, ptr %ehselector.slot, align 4
  call void @_ZNSt7__cxx1112basic_stringIcSt11char_traitsIcESaIcEED1Ev(ptr noundef nonnull align 8 dereferenceable(32) %ref.tmp30) #8
  br label %ehcleanup42

if.else37:                                        ; preds = %if.else
  invoke void @_ZN4pbrt8LogFatalENS_8LogLevelEPKciS2_(i32 noundef 2, ptr noundef @.str.12, i32 noundef 266, ptr noundef @.str.15) #13
          to label %invoke.cont38 unwind label %lpad

invoke.cont38:                                    ; preds = %if.else37
  unreachable

if.end39:                                         ; preds = %invoke.cont34
  br label %if.end40

if.end40:                                         ; preds = %if.end39, %invoke.cont25
  br label %done

done:                                             ; preds = %if.end40
  %24 = load ptr, ptr %s.addr, align 8
  %25 = load ptr, ptr %fmt.addr, align 8
  %26 = load ptr, ptr %args.addr, align 8
  invoke void @_ZN4pbrt6detail21stringPrintfRecursiveIRPKcJEEEvPNSt7__cxx1112basic_stringIcSt11char_traitsIcESaIcEEES3_OT_DpOT0_(ptr noundef %24, ptr noundef %25, ptr noundef nonnull align 8 dereferenceable(8) %26)
          to label %invoke.cont41 unwind label %lpad

invoke.cont41:                                    ; preds = %done
  call void @_ZNSt7__cxx1112basic_stringIcSt11char_traitsIcESaIcEED1Ev(ptr noundef nonnull align 8 dereferenceable(32) %nextFmt) #8
  ret void

ehcleanup42:                                      ; preds = %lpad33, %ehcleanup27, %lpad
  call void @_ZNSt7__cxx1112basic_stringIcSt11char_traitsIcESaIcEED1Ev(ptr noundef nonnull align 8 dereferenceable(32) %nextFmt) #8
  br label %eh.resume

eh.resume:                                        ; preds = %ehcleanup42
  %exn = load ptr, ptr %exn.slot, align 8
  %sel = load i32, ptr %ehselector.slot, align 4
  %lpad.val = insertvalue { ptr, i32 } poison, ptr %exn, 0
  %lpad.val43 = insertvalue { ptr, i32 } %lpad.val, i32 %sel, 1
  resume { ptr, i32 } %lpad.val43
}

declare noundef nonnull align 8 dereferenceable(8) ptr @_ZStlsISt11char_traitsIcEERSt13basic_ostreamIcT_ES5_PKc(ptr noundef nonnull align 8 dereferenceable(8), ptr noundef) #4

; Function Attrs: mustprogress uwtable
define linkonce_odr dso_local void @_ZN4pbrt6detail21stringPrintfRecursiveIRPKcJEEEvPNSt7__cxx1112basic_stringIcSt11char_traitsIcESaIcEEES3_OT_DpOT0_(ptr noundef %s, ptr noundef %fmt, ptr noundef nonnull align 8 dereferenceable(8) %v) #1 comdat personality ptr @__gxx_personality_v0 {
entry:
  %s.addr = alloca ptr, align 8
  %fmt.addr = alloca ptr, align 8
  %v.addr = alloca ptr, align 8
  %nextFmt = alloca %"class.std::__cxx11::basic_string", align 8
  %precisionViaArg = alloca i8, align 1
  %isSFmt = alloca i8, align 1
  %isDFmt = alloca i8, align 1
  %exn.slot = alloca ptr, align 8
  %ehselector.slot = alloca i32, align 4
  %ss = alloca %"class.std::__cxx11::basic_stringstream", align 8
  %ref.tmp = alloca %"class.std::__cxx11::basic_string", align 8
  %ref.tmp18 = alloca ptr, align 8
  %ref.tmp19 = alloca %"class.std::__cxx11::basic_string", align 8
  %ref.tmp30 = alloca %"class.std::__cxx11::basic_string", align 8
  store ptr %s, ptr %s.addr, align 8
  store ptr %fmt, ptr %fmt.addr, align 8
  store ptr %v, ptr %v.addr, align 8
  %0 = load ptr, ptr %s.addr, align 8
  call void @_ZN4pbrt6detail18copyToFormatStringEPPKcPNSt7__cxx1112basic_stringIcSt11char_traitsIcESaIcEEE(ptr sret(%"class.std::__cxx11::basic_string") align 8 %nextFmt, ptr noundef %fmt.addr, ptr noundef %0)
  %call = call noundef i64 @_ZNKSt7__cxx1112basic_stringIcSt11char_traitsIcESaIcEE4findEcm(ptr noundef nonnull align 8 dereferenceable(32) %nextFmt, i8 noundef signext 42, i64 noundef 0) #8
  %cmp = icmp ne i64 %call, -1
  %frombool = zext i1 %cmp to i8
  store i8 %frombool, ptr %precisionViaArg, align 1
  %call1 = call noundef i64 @_ZNKSt7__cxx1112basic_stringIcSt11char_traitsIcESaIcEE4findEcm(ptr noundef nonnull align 8 dereferenceable(32) %nextFmt, i8 noundef signext 115, i64 noundef 0) #8
  %cmp2 = icmp ne i64 %call1, -1
  %frombool3 = zext i1 %cmp2 to i8
  store i8 %frombool3, ptr %isSFmt, align 1
  %call4 = call noundef i64 @_ZNKSt7__cxx1112basic_stringIcSt11char_traitsIcESaIcEE4findEcm(ptr noundef nonnull align 8 dereferenceable(32) %nextFmt, i8 noundef signext 100, i64 noundef 0) #8
  %cmp5 = icmp ne i64 %call4, -1
  %frombool6 = zext i1 %cmp5 to i8
  store i8 %frombool6, ptr %isDFmt, align 1
  %1 = load i8, ptr %precisionViaArg, align 1
  %tobool = trunc i8 %1 to i1
  br i1 %tobool, label %if.then, label %if.end

if.then:                                          ; preds = %entry
  invoke void @_ZN4pbrt8LogFatalENS_8LogLevelEPKciS2_(i32 noundef 2, ptr noundef @.str.12, i32 noundef 229, ptr noundef @.str.13) #13
          to label %invoke.cont unwind label %lpad

invoke.cont:                                      ; preds = %if.then
  unreachable

lpad:                                             ; preds = %done, %if.else37, %if.then29, %if.then12, %if.then8, %if.then
  %2 = landingpad { ptr, i32 }
          cleanup
  %3 = extractvalue { ptr, i32 } %2, 0
  store ptr %3, ptr %exn.slot, align 8
  %4 = extractvalue { ptr, i32 } %2, 1
  store i32 %4, ptr %ehselector.slot, align 4
  br label %ehcleanup42

if.end:                                           ; preds = %entry
  %5 = load i8, ptr %isDFmt, align 1
  %tobool7 = trunc i8 %5 to i1
  br i1 %tobool7, label %if.then8, label %if.end10

if.then8:                                         ; preds = %if.end
  invoke void @_ZN4pbrt8LogFatalENS_8LogLevelEPKciS2_(i32 noundef 2, ptr noundef @.str.12, i32 noundef 257, ptr noundef @.str.14) #13
          to label %invoke.cont9 unwind label %lpad

invoke.cont9:                                     ; preds = %if.then8
  unreachable

if.end10:                                         ; preds = %if.end
  %6 = load i8, ptr %isSFmt, align 1
  %tobool11 = trunc i8 %6 to i1
  br i1 %tobool11, label %if.then12, label %if.else

if.then12:                                        ; preds = %if.end10
  invoke void @_ZNSt7__cxx1118basic_stringstreamIcSt11char_traitsIcESaIcEEC1Ev(ptr noundef nonnull align 8 dereferenceable(128) %ss)
          to label %invoke.cont13 unwind label %lpad

invoke.cont13:                                    ; preds = %if.then12
  %add.ptr = getelementptr inbounds i8, ptr %ss, i64 16
  %7 = load ptr, ptr %v.addr, align 8
  %8 = load ptr, ptr %7, align 8
  %call16 = invoke noundef nonnull align 8 dereferenceable(8) ptr @_ZStlsISt11char_traitsIcEERSt13basic_ostreamIcT_ES5_PKc(ptr noundef nonnull align 8 dereferenceable(8) %add.ptr, ptr noundef %8)
          to label %invoke.cont15 unwind label %lpad14

invoke.cont15:                                    ; preds = %invoke.cont13
  %call17 = call noundef ptr @_ZNKSt7__cxx1112basic_stringIcSt11char_traitsIcESaIcEE5c_strEv(ptr noundef nonnull align 8 dereferenceable(32) %nextFmt) #8
  invoke void @_ZNKSt7__cxx1118basic_stringstreamIcSt11char_traitsIcESaIcEE3strEv(ptr sret(%"class.std::__cxx11::basic_string") align 8 %ref.tmp19, ptr noundef nonnull align 8 dereferenceable(128) %ss)
          to label %invoke.cont20 unwind label %lpad14

invoke.cont20:                                    ; preds = %invoke.cont15
  %call21 = call noundef ptr @_ZNKSt7__cxx1112basic_stringIcSt11char_traitsIcESaIcEE5c_strEv(ptr noundef nonnull align 8 dereferenceable(32) %ref.tmp19) #8
  store ptr %call21, ptr %ref.tmp18, align 8
  invoke void @_ZN4pbrt6detail9formatOneIPKcEENSt9enable_ifIXntsr3stdE10is_class_vINSt5decayIT_E4typeEEENSt7__cxx1112basic_stringIcSt11char_traitsIcESaIcEEEE4typeES3_OS6_(ptr sret(%"class.std::__cxx11::basic_string") align 8 %ref.tmp, ptr noundef %call17, ptr noundef nonnull align 8 dereferenceable(8) %ref.tmp18)
          to label %invoke.cont23 unwind label %lpad22

invoke.cont23:                                    ; preds = %invoke.cont20
  %9 = load ptr, ptr %s.addr, align 8
  %call26 = invoke noundef nonnull align 8 dereferenceable(32) ptr @_ZNSt7__cxx1112basic_stringIcSt11char_traitsIcESaIcEEpLERKS4_(ptr noundef nonnull align 8 dereferenceable(32) %9, ptr noundef nonnull align 8 dereferenceable(32) %ref.tmp)
          to label %invoke.cont25 unwind label %lpad24

invoke.cont25:                                    ; preds = %invoke.cont23
  call void @_ZNSt7__cxx1112basic_stringIcSt11char_traitsIcESaIcEED1Ev(ptr noundef nonnull align 8 dereferenceable(32) %ref.tmp) #8
  call void @_ZNSt7__cxx1112basic_stringIcSt11char_traitsIcESaIcEED1Ev(ptr noundef nonnull align 8 dereferenceable(32) %ref.tmp19) #8
  call void @_ZNSt7__cxx1118basic_stringstreamIcSt11char_traitsIcESaIcEED1Ev(ptr noundef nonnull align 8 dereferenceable(128) %ss) #8
  br label %if.end40

lpad14:                                           ; preds = %invoke.cont15, %invoke.cont13
  %10 = landingpad { ptr, i32 }
          cleanup
  %11 = extractvalue { ptr, i32 } %10, 0
  store ptr %11, ptr %exn.slot, align 8
  %12 = extractvalue { ptr, i32 } %10, 1
  store i32 %12, ptr %ehselector.slot, align 4
  br label %ehcleanup27

lpad22:                                           ; preds = %invoke.cont20
  %13 = landingpad { ptr, i32 }
          cleanup
  %14 = extractvalue { ptr, i32 } %13, 0
  store ptr %14, ptr %exn.slot, align 8
  %15 = extractvalue { ptr, i32 } %13, 1
  store i32 %15, ptr %ehselector.slot, align 4
  br label %ehcleanup

lpad24:                                           ; preds = %invoke.cont23
  %16 = landingpad { ptr, i32 }
          cleanup
  %17 = extractvalue { ptr, i32 } %16, 0
  store ptr %17, ptr %exn.slot, align 8
  %18 = extractvalue { ptr, i32 } %16, 1
  store i32 %18, ptr %ehselector.slot, align 4
  call void @_ZNSt7__cxx1112basic_stringIcSt11char_traitsIcESaIcEED1Ev(ptr noundef nonnull align 8 dereferenceable(32) %ref.tmp) #8
  br label %ehcleanup

ehcleanup:                                        ; preds = %lpad24, %lpad22
  call void @_ZNSt7__cxx1112basic_stringIcSt11char_traitsIcESaIcEED1Ev(ptr noundef nonnull align 8 dereferenceable(32) %ref.tmp19) #8
  br label %ehcleanup27

ehcleanup27:                                      ; preds = %ehcleanup, %lpad14
  call void @_ZNSt7__cxx1118basic_stringstreamIcSt11char_traitsIcESaIcEED1Ev(ptr noundef nonnull align 8 dereferenceable(128) %ss) #8
  br label %ehcleanup42

if.else:                                          ; preds = %if.end10
  %call28 = call noundef zeroext i1 @_ZNKSt7__cxx1112basic_stringIcSt11char_traitsIcESaIcEE5emptyEv(ptr noundef nonnull align 8 dereferenceable(32) %nextFmt) #8
  br i1 %call28, label %if.else37, label %if.then29

if.then29:                                        ; preds = %if.else
  %call31 = call noundef ptr @_ZNKSt7__cxx1112basic_stringIcSt11char_traitsIcESaIcEE5c_strEv(ptr noundef nonnull align 8 dereferenceable(32) %nextFmt) #8
  %19 = load ptr, ptr %v.addr, align 8
  invoke void @_ZN4pbrt6detail9formatOneIRPKcEENSt9enable_ifIXntsr3stdE10is_class_vINSt5decayIT_E4typeEEENSt7__cxx1112basic_stringIcSt11char_traitsIcESaIcEEEE4typeES3_OS7_(ptr sret(%"class.std::__cxx11::basic_string") align 8 %ref.tmp30, ptr noundef %call31, ptr noundef nonnull align 8 dereferenceable(8) %19)
          to label %invoke.cont32 unwind label %lpad

invoke.cont32:                                    ; preds = %if.then29
  %20 = load ptr, ptr %s.addr, align 8
  %call35 = invoke noundef nonnull align 8 dereferenceable(32) ptr @_ZNSt7__cxx1112basic_stringIcSt11char_traitsIcESaIcEEpLERKS4_(ptr noundef nonnull align 8 dereferenceable(32) %20, ptr noundef nonnull align 8 dereferenceable(32) %ref.tmp30)
          to label %invoke.cont34 unwind label %lpad33

invoke.cont34:                                    ; preds = %invoke.cont32
  call void @_ZNSt7__cxx1112basic_stringIcSt11char_traitsIcESaIcEED1Ev(ptr noundef nonnull align 8 dereferenceable(32) %ref.tmp30) #8
  br label %if.end39

lpad33:                                           ; preds = %invoke.cont32
  %21 = landingpad { ptr, i32 }
          cleanup
  %22 = extractvalue { ptr, i32 } %21, 0
  store ptr %22, ptr %exn.slot, align 8
  %23 = extractvalue { ptr, i32 } %21, 1
  store i32 %23, ptr %ehselector.slot, align 4
  call void @_ZNSt7__cxx1112basic_stringIcSt11char_traitsIcESaIcEED1Ev(ptr noundef nonnull align 8 dereferenceable(32) %ref.tmp30) #8
  br label %ehcleanup42

if.else37:                                        ; preds = %if.else
  invoke void @_ZN4pbrt8LogFatalENS_8LogLevelEPKciS2_(i32 noundef 2, ptr noundef @.str.12, i32 noundef 266, ptr noundef @.str.15) #13
          to label %invoke.cont38 unwind label %lpad

invoke.cont38:                                    ; preds = %if.else37
  unreachable

if.end39:                                         ; preds = %invoke.cont34
  br label %if.end40

if.end40:                                         ; preds = %if.end39, %invoke.cont25
  br label %done

done:                                             ; preds = %if.end40
  %24 = load ptr, ptr %s.addr, align 8
  %25 = load ptr, ptr %fmt.addr, align 8
  invoke void @_ZN4pbrt6detail21stringPrintfRecursiveEPNSt7__cxx1112basic_stringIcSt11char_traitsIcESaIcEEEPKc(ptr noundef %24, ptr noundef %25)
          to label %invoke.cont41 unwind label %lpad

invoke.cont41:                                    ; preds = %done
  call void @_ZNSt7__cxx1112basic_stringIcSt11char_traitsIcESaIcEED1Ev(ptr noundef nonnull align 8 dereferenceable(32) %nextFmt) #8
  ret void

ehcleanup42:                                      ; preds = %lpad33, %ehcleanup27, %lpad
  call void @_ZNSt7__cxx1112basic_stringIcSt11char_traitsIcESaIcEED1Ev(ptr noundef nonnull align 8 dereferenceable(32) %nextFmt) #8
  br label %eh.resume

eh.resume:                                        ; preds = %ehcleanup42
  %exn = load ptr, ptr %exn.slot, align 8
  %sel = load i32, ptr %ehselector.slot, align 4
  %lpad.val = insertvalue { ptr, i32 } poison, ptr %exn, 0
  %lpad.val43 = insertvalue { ptr, i32 } %lpad.val, i32 %sel, 1
  resume { ptr, i32 } %lpad.val43
}

; Function Attrs: mustprogress uwtable
define linkonce_odr dso_local void @_ZN4pbrt6detail9formatOneIRPKcEENSt9enable_ifIXntsr3stdE10is_class_vINSt5decayIT_E4typeEEENSt7__cxx1112basic_stringIcSt11char_traitsIcESaIcEEEE4typeES3_OS7_(ptr noalias sret(%"class.std::__cxx11::basic_string") align 8 %agg.result, ptr noundef %fmt, ptr noundef nonnull align 8 dereferenceable(8) %v) #1 comdat personality ptr @__gxx_personality_v0 {
entry:
  %result.ptr = alloca ptr, align 8
  %fmt.addr = alloca ptr, align 8
  %v.addr = alloca ptr, align 8
  %size = alloca i64, align 8
  %nrvo = alloca i1, align 1
  %exn.slot = alloca ptr, align 8
  %ehselector.slot = alloca i32, align 4
  store ptr %agg.result, ptr %result.ptr, align 8
  store ptr %fmt, ptr %fmt.addr, align 8
  store ptr %v, ptr %v.addr, align 8
  %0 = load ptr, ptr %fmt.addr, align 8
  %1 = load ptr, ptr %v.addr, align 8
  %2 = load ptr, ptr %1, align 8
  %call = call i32 (ptr, i64, ptr, ...) @snprintf(ptr noundef null, i64 noundef 0, ptr noundef %0, ptr noundef %2) #8
  %add = add nsw i32 %call, 1
  %conv = sext i32 %add to i64
  store i64 %conv, ptr %size, align 8
  store i1 false, ptr %nrvo, align 1
  call void @_ZNSt7__cxx1112basic_stringIcSt11char_traitsIcESaIcEEC1Ev(ptr noundef nonnull align 8 dereferenceable(32) %agg.result) #8
  %3 = load i64, ptr %size, align 8
  invoke void @_ZNSt7__cxx1112basic_stringIcSt11char_traitsIcESaIcEE6resizeEm(ptr noundef nonnull align 8 dereferenceable(32) %agg.result, i64 noundef %3)
          to label %invoke.cont unwind label %lpad

invoke.cont:                                      ; preds = %entry
  %call2 = invoke noundef nonnull align 1 dereferenceable(1) ptr @_ZNSt7__cxx1112basic_stringIcSt11char_traitsIcESaIcEEixEm(ptr noundef nonnull align 8 dereferenceable(32) %agg.result, i64 noundef 0)
          to label %invoke.cont1 unwind label %lpad

invoke.cont1:                                     ; preds = %invoke.cont
  %4 = load i64, ptr %size, align 8
  %5 = load ptr, ptr %fmt.addr, align 8
  %6 = load ptr, ptr %v.addr, align 8
  %7 = load ptr, ptr %6, align 8
  %call3 = call i32 (ptr, i64, ptr, ...) @snprintf(ptr noundef %call2, i64 noundef %4, ptr noundef %5, ptr noundef %7) #8
  call void @_ZNSt7__cxx1112basic_stringIcSt11char_traitsIcESaIcEE8pop_backEv(ptr noundef nonnull align 8 dereferenceable(32) %agg.result) #8
  store i1 true, ptr %nrvo, align 1
  %nrvo.val = load i1, ptr %nrvo, align 1
  br i1 %nrvo.val, label %nrvo.skipdtor, label %nrvo.unused

lpad:                                             ; preds = %invoke.cont, %entry
  %8 = landingpad { ptr, i32 }
          cleanup
  %9 = extractvalue { ptr, i32 } %8, 0
  store ptr %9, ptr %exn.slot, align 8
  %10 = extractvalue { ptr, i32 } %8, 1
  store i32 %10, ptr %ehselector.slot, align 4
  call void @_ZNSt7__cxx1112basic_stringIcSt11char_traitsIcESaIcEED1Ev(ptr noundef nonnull align 8 dereferenceable(32) %agg.result) #8
  br label %eh.resume

nrvo.unused:                                      ; preds = %invoke.cont1
  call void @_ZNSt7__cxx1112basic_stringIcSt11char_traitsIcESaIcEED1Ev(ptr noundef nonnull align 8 dereferenceable(32) %agg.result) #8
  br label %nrvo.skipdtor

nrvo.skipdtor:                                    ; preds = %nrvo.unused, %invoke.cont1
  ret void

eh.resume:                                        ; preds = %lpad
  %exn = load ptr, ptr %exn.slot, align 8
  %sel = load i32, ptr %ehselector.slot, align 4
  %lpad.val = insertvalue { ptr, i32 } poison, ptr %exn, 0
  %lpad.val4 = insertvalue { ptr, i32 } %lpad.val, i32 %sel, 1
  resume { ptr, i32 } %lpad.val4
}

; Function Attrs: mustprogress uwtable
define linkonce_odr dso_local void @_ZNSt5mutex6unlockEv(ptr noundef nonnull align 8 dereferenceable(40) %this) #1 comdat align 2 {
entry:
  %this.addr = alloca ptr, align 8
  store ptr %this, ptr %this.addr, align 8
  %this1 = load ptr, ptr %this.addr, align 8
  %_M_mutex = getelementptr inbounds %"class.std::__mutex_base", ptr %this1, i32 0, i32 0
  %call = call noundef i32 @_ZL22__gthread_mutex_unlockP15pthread_mutex_t(ptr noundef %_M_mutex)
  ret void
}

; Function Attrs: mustprogress nounwind uwtable
define internal noundef i32 @_ZL22__gthread_mutex_unlockP15pthread_mutex_t(ptr noundef %__mutex) #2 {
entry:
  %retval = alloca i32, align 4
  %__mutex.addr = alloca ptr, align 8
  store ptr %__mutex, ptr %__mutex.addr, align 8
  %call = call noundef i32 @_ZL18__gthread_active_pv()
  %tobool = icmp ne i32 %call, 0
  br i1 %tobool, label %if.then, label %if.else

if.then:                                          ; preds = %entry
  %0 = load ptr, ptr %__mutex.addr, align 8
  %call1 = call i32 @pthread_mutex_unlock(ptr noundef %0) #8
  store i32 %call1, ptr %retval, align 4
  br label %return

if.else:                                          ; preds = %entry
  store i32 0, ptr %retval, align 4
  br label %return

return:                                           ; preds = %if.else, %if.then
  %1 = load i32, ptr %retval, align 4
  ret i32 %1
}

; Function Attrs: nounwind
declare i32 @pthread_mutex_unlock(ptr noundef) #3

; Function Attrs: mustprogress uwtable
define internal void @_ZN4pbrt12_GLOBAL__N_14initILi3EJddddddddEEEvPAT__fiifDpT0_(ptr noundef %m, i32 noundef %i, i32 noundef %j, float noundef %v, double noundef %args, double noundef %args1, double noundef %args3, double noundef %args5, double noundef %args7, double noundef %args9, double noundef %args11, double noundef %args13) #1 {
entry:
  %m.addr = alloca ptr, align 8
  %i.addr = alloca i32, align 4
  %j.addr = alloca i32, align 4
  %v.addr = alloca float, align 4
  %args.addr = alloca double, align 8
  %args.addr2 = alloca double, align 8
  %args.addr4 = alloca double, align 8
  %args.addr6 = alloca double, align 8
  %args.addr8 = alloca double, align 8
  %args.addr10 = alloca double, align 8
  %args.addr12 = alloca double, align 8
  %args.addr14 = alloca double, align 8
  store ptr %m, ptr %m.addr, align 8
  store i32 %i, ptr %i.addr, align 4
  store i32 %j, ptr %j.addr, align 4
  store float %v, ptr %v.addr, align 4
  store double %args, ptr %args.addr, align 8
  store double %args1, ptr %args.addr2, align 8
  store double %args3, ptr %args.addr4, align 8
  store double %args5, ptr %args.addr6, align 8
  store double %args7, ptr %args.addr8, align 8
  store double %args9, ptr %args.addr10, align 8
  store double %args11, ptr %args.addr12, align 8
  store double %args13, ptr %args.addr14, align 8
  %0 = load float, ptr %v.addr, align 4
  %1 = load ptr, ptr %m.addr, align 8
  %2 = load i32, ptr %i.addr, align 4
  %idxprom = sext i32 %2 to i64
  %arrayidx = getelementptr inbounds [3 x float], ptr %1, i64 %idxprom
  %3 = load i32, ptr %j.addr, align 4
  %idxprom15 = sext i32 %3 to i64
  %arrayidx16 = getelementptr inbounds [3 x float], ptr %arrayidx, i64 0, i64 %idxprom15
  store float %0, ptr %arrayidx16, align 4
  %4 = load i32, ptr %j.addr, align 4
  %inc = add nsw i32 %4, 1
  store i32 %inc, ptr %j.addr, align 4
  %cmp = icmp eq i32 %inc, 3
  br i1 %cmp, label %if.then, label %if.end

if.then:                                          ; preds = %entry
  %5 = load i32, ptr %i.addr, align 4
  %inc17 = add nsw i32 %5, 1
  store i32 %inc17, ptr %i.addr, align 4
  store i32 0, ptr %j.addr, align 4
  br label %if.end

if.end:                                           ; preds = %if.then, %entry
  %6 = load ptr, ptr %m.addr, align 8
  %7 = load i32, ptr %i.addr, align 4
  %8 = load i32, ptr %j.addr, align 4
  %9 = load double, ptr %args.addr, align 8
  %conv = fptrunc double %9 to float
  %10 = load double, ptr %args.addr2, align 8
  %11 = load double, ptr %args.addr4, align 8
  %12 = load double, ptr %args.addr6, align 8
  %13 = load double, ptr %args.addr8, align 8
  %14 = load double, ptr %args.addr10, align 8
  %15 = load double, ptr %args.addr12, align 8
  %16 = load double, ptr %args.addr14, align 8
  call void @_ZN4pbrt12_GLOBAL__N_14initILi3EJdddddddEEEvPAT__fiifDpT0_(ptr noundef %6, i32 noundef %7, i32 noundef %8, float noundef %conv, double noundef %10, double noundef %11, double noundef %12, double noundef %13, double noundef %14, double noundef %15, double noundef %16)
  ret void
}

; Function Attrs: mustprogress uwtable
define internal void @_ZN4pbrt12_GLOBAL__N_14initILi3EJdddddddEEEvPAT__fiifDpT0_(ptr noundef %m, i32 noundef %i, i32 noundef %j, float noundef %v, double noundef %args, double noundef %args1, double noundef %args3, double noundef %args5, double noundef %args7, double noundef %args9, double noundef %args11) #1 {
entry:
  %m.addr = alloca ptr, align 8
  %i.addr = alloca i32, align 4
  %j.addr = alloca i32, align 4
  %v.addr = alloca float, align 4
  %args.addr = alloca double, align 8
  %args.addr2 = alloca double, align 8
  %args.addr4 = alloca double, align 8
  %args.addr6 = alloca double, align 8
  %args.addr8 = alloca double, align 8
  %args.addr10 = alloca double, align 8
  %args.addr12 = alloca double, align 8
  store ptr %m, ptr %m.addr, align 8
  store i32 %i, ptr %i.addr, align 4
  store i32 %j, ptr %j.addr, align 4
  store float %v, ptr %v.addr, align 4
  store double %args, ptr %args.addr, align 8
  store double %args1, ptr %args.addr2, align 8
  store double %args3, ptr %args.addr4, align 8
  store double %args5, ptr %args.addr6, align 8
  store double %args7, ptr %args.addr8, align 8
  store double %args9, ptr %args.addr10, align 8
  store double %args11, ptr %args.addr12, align 8
  %0 = load float, ptr %v.addr, align 4
  %1 = load ptr, ptr %m.addr, align 8
  %2 = load i32, ptr %i.addr, align 4
  %idxprom = sext i32 %2 to i64
  %arrayidx = getelementptr inbounds [3 x float], ptr %1, i64 %idxprom
  %3 = load i32, ptr %j.addr, align 4
  %idxprom13 = sext i32 %3 to i64
  %arrayidx14 = getelementptr inbounds [3 x float], ptr %arrayidx, i64 0, i64 %idxprom13
  store float %0, ptr %arrayidx14, align 4
  %4 = load i32, ptr %j.addr, align 4
  %inc = add nsw i32 %4, 1
  store i32 %inc, ptr %j.addr, align 4
  %cmp = icmp eq i32 %inc, 3
  br i1 %cmp, label %if.then, label %if.end

if.then:                                          ; preds = %entry
  %5 = load i32, ptr %i.addr, align 4
  %inc15 = add nsw i32 %5, 1
  store i32 %inc15, ptr %i.addr, align 4
  store i32 0, ptr %j.addr, align 4
  br label %if.end

if.end:                                           ; preds = %if.then, %entry
  %6 = load ptr, ptr %m.addr, align 8
  %7 = load i32, ptr %i.addr, align 4
  %8 = load i32, ptr %j.addr, align 4
  %9 = load double, ptr %args.addr, align 8
  %conv = fptrunc double %9 to float
  %10 = load double, ptr %args.addr2, align 8
  %11 = load double, ptr %args.addr4, align 8
  %12 = load double, ptr %args.addr6, align 8
  %13 = load double, ptr %args.addr8, align 8
  %14 = load double, ptr %args.addr10, align 8
  %15 = load double, ptr %args.addr12, align 8
  call void @_ZN4pbrt12_GLOBAL__N_14initILi3EJddddddEEEvPAT__fiifDpT0_(ptr noundef %6, i32 noundef %7, i32 noundef %8, float noundef %conv, double noundef %10, double noundef %11, double noundef %12, double noundef %13, double noundef %14, double noundef %15)
  ret void
}

; Function Attrs: mustprogress uwtable
define internal void @_ZN4pbrt12_GLOBAL__N_14initILi3EJddddddEEEvPAT__fiifDpT0_(ptr noundef %m, i32 noundef %i, i32 noundef %j, float noundef %v, double noundef %args, double noundef %args1, double noundef %args3, double noundef %args5, double noundef %args7, double noundef %args9) #1 {
entry:
  %m.addr = alloca ptr, align 8
  %i.addr = alloca i32, align 4
  %j.addr = alloca i32, align 4
  %v.addr = alloca float, align 4
  %args.addr = alloca double, align 8
  %args.addr2 = alloca double, align 8
  %args.addr4 = alloca double, align 8
  %args.addr6 = alloca double, align 8
  %args.addr8 = alloca double, align 8
  %args.addr10 = alloca double, align 8
  store ptr %m, ptr %m.addr, align 8
  store i32 %i, ptr %i.addr, align 4
  store i32 %j, ptr %j.addr, align 4
  store float %v, ptr %v.addr, align 4
  store double %args, ptr %args.addr, align 8
  store double %args1, ptr %args.addr2, align 8
  store double %args3, ptr %args.addr4, align 8
  store double %args5, ptr %args.addr6, align 8
  store double %args7, ptr %args.addr8, align 8
  store double %args9, ptr %args.addr10, align 8
  %0 = load float, ptr %v.addr, align 4
  %1 = load ptr, ptr %m.addr, align 8
  %2 = load i32, ptr %i.addr, align 4
  %idxprom = sext i32 %2 to i64
  %arrayidx = getelementptr inbounds [3 x float], ptr %1, i64 %idxprom
  %3 = load i32, ptr %j.addr, align 4
  %idxprom11 = sext i32 %3 to i64
  %arrayidx12 = getelementptr inbounds [3 x float], ptr %arrayidx, i64 0, i64 %idxprom11
  store float %0, ptr %arrayidx12, align 4
  %4 = load i32, ptr %j.addr, align 4
  %inc = add nsw i32 %4, 1
  store i32 %inc, ptr %j.addr, align 4
  %cmp = icmp eq i32 %inc, 3
  br i1 %cmp, label %if.then, label %if.end

if.then:                                          ; preds = %entry
  %5 = load i32, ptr %i.addr, align 4
  %inc13 = add nsw i32 %5, 1
  store i32 %inc13, ptr %i.addr, align 4
  store i32 0, ptr %j.addr, align 4
  br label %if.end

if.end:                                           ; preds = %if.then, %entry
  %6 = load ptr, ptr %m.addr, align 8
  %7 = load i32, ptr %i.addr, align 4
  %8 = load i32, ptr %j.addr, align 4
  %9 = load double, ptr %args.addr, align 8
  %conv = fptrunc double %9 to float
  %10 = load double, ptr %args.addr2, align 8
  %11 = load double, ptr %args.addr4, align 8
  %12 = load double, ptr %args.addr6, align 8
  %13 = load double, ptr %args.addr8, align 8
  %14 = load double, ptr %args.addr10, align 8
  call void @_ZN4pbrt12_GLOBAL__N_14initILi3EJdddddEEEvPAT__fiifDpT0_(ptr noundef %6, i32 noundef %7, i32 noundef %8, float noundef %conv, double noundef %10, double noundef %11, double noundef %12, double noundef %13, double noundef %14)
  ret void
}

; Function Attrs: mustprogress uwtable
define internal void @_ZN4pbrt12_GLOBAL__N_14initILi3EJdddddEEEvPAT__fiifDpT0_(ptr noundef %m, i32 noundef %i, i32 noundef %j, float noundef %v, double noundef %args, double noundef %args1, double noundef %args3, double noundef %args5, double noundef %args7) #1 {
entry:
  %m.addr = alloca ptr, align 8
  %i.addr = alloca i32, align 4
  %j.addr = alloca i32, align 4
  %v.addr = alloca float, align 4
  %args.addr = alloca double, align 8
  %args.addr2 = alloca double, align 8
  %args.addr4 = alloca double, align 8
  %args.addr6 = alloca double, align 8
  %args.addr8 = alloca double, align 8
  store ptr %m, ptr %m.addr, align 8
  store i32 %i, ptr %i.addr, align 4
  store i32 %j, ptr %j.addr, align 4
  store float %v, ptr %v.addr, align 4
  store double %args, ptr %args.addr, align 8
  store double %args1, ptr %args.addr2, align 8
  store double %args3, ptr %args.addr4, align 8
  store double %args5, ptr %args.addr6, align 8
  store double %args7, ptr %args.addr8, align 8
  %0 = load float, ptr %v.addr, align 4
  %1 = load ptr, ptr %m.addr, align 8
  %2 = load i32, ptr %i.addr, align 4
  %idxprom = sext i32 %2 to i64
  %arrayidx = getelementptr inbounds [3 x float], ptr %1, i64 %idxprom
  %3 = load i32, ptr %j.addr, align 4
  %idxprom9 = sext i32 %3 to i64
  %arrayidx10 = getelementptr inbounds [3 x float], ptr %arrayidx, i64 0, i64 %idxprom9
  store float %0, ptr %arrayidx10, align 4
  %4 = load i32, ptr %j.addr, align 4
  %inc = add nsw i32 %4, 1
  store i32 %inc, ptr %j.addr, align 4
  %cmp = icmp eq i32 %inc, 3
  br i1 %cmp, label %if.then, label %if.end

if.then:                                          ; preds = %entry
  %5 = load i32, ptr %i.addr, align 4
  %inc11 = add nsw i32 %5, 1
  store i32 %inc11, ptr %i.addr, align 4
  store i32 0, ptr %j.addr, align 4
  br label %if.end

if.end:                                           ; preds = %if.then, %entry
  %6 = load ptr, ptr %m.addr, align 8
  %7 = load i32, ptr %i.addr, align 4
  %8 = load i32, ptr %j.addr, align 4
  %9 = load double, ptr %args.addr, align 8
  %conv = fptrunc double %9 to float
  %10 = load double, ptr %args.addr2, align 8
  %11 = load double, ptr %args.addr4, align 8
  %12 = load double, ptr %args.addr6, align 8
  %13 = load double, ptr %args.addr8, align 8
  call void @_ZN4pbrt12_GLOBAL__N_14initILi3EJddddEEEvPAT__fiifDpT0_(ptr noundef %6, i32 noundef %7, i32 noundef %8, float noundef %conv, double noundef %10, double noundef %11, double noundef %12, double noundef %13)
  ret void
}

; Function Attrs: mustprogress uwtable
define internal void @_ZN4pbrt12_GLOBAL__N_14initILi3EJddddEEEvPAT__fiifDpT0_(ptr noundef %m, i32 noundef %i, i32 noundef %j, float noundef %v, double noundef %args, double noundef %args1, double noundef %args3, double noundef %args5) #1 {
entry:
  %m.addr = alloca ptr, align 8
  %i.addr = alloca i32, align 4
  %j.addr = alloca i32, align 4
  %v.addr = alloca float, align 4
  %args.addr = alloca double, align 8
  %args.addr2 = alloca double, align 8
  %args.addr4 = alloca double, align 8
  %args.addr6 = alloca double, align 8
  store ptr %m, ptr %m.addr, align 8
  store i32 %i, ptr %i.addr, align 4
  store i32 %j, ptr %j.addr, align 4
  store float %v, ptr %v.addr, align 4
  store double %args, ptr %args.addr, align 8
  store double %args1, ptr %args.addr2, align 8
  store double %args3, ptr %args.addr4, align 8
  store double %args5, ptr %args.addr6, align 8
  %0 = load float, ptr %v.addr, align 4
  %1 = load ptr, ptr %m.addr, align 8
  %2 = load i32, ptr %i.addr, align 4
  %idxprom = sext i32 %2 to i64
  %arrayidx = getelementptr inbounds [3 x float], ptr %1, i64 %idxprom
  %3 = load i32, ptr %j.addr, align 4
  %idxprom7 = sext i32 %3 to i64
  %arrayidx8 = getelementptr inbounds [3 x float], ptr %arrayidx, i64 0, i64 %idxprom7
  store float %0, ptr %arrayidx8, align 4
  %4 = load i32, ptr %j.addr, align 4
  %inc = add nsw i32 %4, 1
  store i32 %inc, ptr %j.addr, align 4
  %cmp = icmp eq i32 %inc, 3
  br i1 %cmp, label %if.then, label %if.end

if.then:                                          ; preds = %entry
  %5 = load i32, ptr %i.addr, align 4
  %inc9 = add nsw i32 %5, 1
  store i32 %inc9, ptr %i.addr, align 4
  store i32 0, ptr %j.addr, align 4
  br label %if.end

if.end:                                           ; preds = %if.then, %entry
  %6 = load ptr, ptr %m.addr, align 8
  %7 = load i32, ptr %i.addr, align 4
  %8 = load i32, ptr %j.addr, align 4
  %9 = load double, ptr %args.addr, align 8
  %conv = fptrunc double %9 to float
  %10 = load double, ptr %args.addr2, align 8
  %11 = load double, ptr %args.addr4, align 8
  %12 = load double, ptr %args.addr6, align 8
  call void @_ZN4pbrt12_GLOBAL__N_14initILi3EJdddEEEvPAT__fiifDpT0_(ptr noundef %6, i32 noundef %7, i32 noundef %8, float noundef %conv, double noundef %10, double noundef %11, double noundef %12)
  ret void
}

; Function Attrs: mustprogress uwtable
define internal void @_ZN4pbrt12_GLOBAL__N_14initILi3EJdddEEEvPAT__fiifDpT0_(ptr noundef %m, i32 noundef %i, i32 noundef %j, float noundef %v, double noundef %args, double noundef %args1, double noundef %args3) #1 {
entry:
  %m.addr = alloca ptr, align 8
  %i.addr = alloca i32, align 4
  %j.addr = alloca i32, align 4
  %v.addr = alloca float, align 4
  %args.addr = alloca double, align 8
  %args.addr2 = alloca double, align 8
  %args.addr4 = alloca double, align 8
  store ptr %m, ptr %m.addr, align 8
  store i32 %i, ptr %i.addr, align 4
  store i32 %j, ptr %j.addr, align 4
  store float %v, ptr %v.addr, align 4
  store double %args, ptr %args.addr, align 8
  store double %args1, ptr %args.addr2, align 8
  store double %args3, ptr %args.addr4, align 8
  %0 = load float, ptr %v.addr, align 4
  %1 = load ptr, ptr %m.addr, align 8
  %2 = load i32, ptr %i.addr, align 4
  %idxprom = sext i32 %2 to i64
  %arrayidx = getelementptr inbounds [3 x float], ptr %1, i64 %idxprom
  %3 = load i32, ptr %j.addr, align 4
  %idxprom5 = sext i32 %3 to i64
  %arrayidx6 = getelementptr inbounds [3 x float], ptr %arrayidx, i64 0, i64 %idxprom5
  store float %0, ptr %arrayidx6, align 4
  %4 = load i32, ptr %j.addr, align 4
  %inc = add nsw i32 %4, 1
  store i32 %inc, ptr %j.addr, align 4
  %cmp = icmp eq i32 %inc, 3
  br i1 %cmp, label %if.then, label %if.end

if.then:                                          ; preds = %entry
  %5 = load i32, ptr %i.addr, align 4
  %inc7 = add nsw i32 %5, 1
  store i32 %inc7, ptr %i.addr, align 4
  store i32 0, ptr %j.addr, align 4
  br label %if.end

if.end:                                           ; preds = %if.then, %entry
  %6 = load ptr, ptr %m.addr, align 8
  %7 = load i32, ptr %i.addr, align 4
  %8 = load i32, ptr %j.addr, align 4
  %9 = load double, ptr %args.addr, align 8
  %conv = fptrunc double %9 to float
  %10 = load double, ptr %args.addr2, align 8
  %11 = load double, ptr %args.addr4, align 8
  call void @_ZN4pbrt12_GLOBAL__N_14initILi3EJddEEEvPAT__fiifDpT0_(ptr noundef %6, i32 noundef %7, i32 noundef %8, float noundef %conv, double noundef %10, double noundef %11)
  ret void
}

; Function Attrs: mustprogress uwtable
define internal void @_ZN4pbrt12_GLOBAL__N_14initILi3EJddEEEvPAT__fiifDpT0_(ptr noundef %m, i32 noundef %i, i32 noundef %j, float noundef %v, double noundef %args, double noundef %args1) #1 {
entry:
  %m.addr = alloca ptr, align 8
  %i.addr = alloca i32, align 4
  %j.addr = alloca i32, align 4
  %v.addr = alloca float, align 4
  %args.addr = alloca double, align 8
  %args.addr2 = alloca double, align 8
  store ptr %m, ptr %m.addr, align 8
  store i32 %i, ptr %i.addr, align 4
  store i32 %j, ptr %j.addr, align 4
  store float %v, ptr %v.addr, align 4
  store double %args, ptr %args.addr, align 8
  store double %args1, ptr %args.addr2, align 8
  %0 = load float, ptr %v.addr, align 4
  %1 = load ptr, ptr %m.addr, align 8
  %2 = load i32, ptr %i.addr, align 4
  %idxprom = sext i32 %2 to i64
  %arrayidx = getelementptr inbounds [3 x float], ptr %1, i64 %idxprom
  %3 = load i32, ptr %j.addr, align 4
  %idxprom3 = sext i32 %3 to i64
  %arrayidx4 = getelementptr inbounds [3 x float], ptr %arrayidx, i64 0, i64 %idxprom3
  store float %0, ptr %arrayidx4, align 4
  %4 = load i32, ptr %j.addr, align 4
  %inc = add nsw i32 %4, 1
  store i32 %inc, ptr %j.addr, align 4
  %cmp = icmp eq i32 %inc, 3
  br i1 %cmp, label %if.then, label %if.end

if.then:                                          ; preds = %entry
  %5 = load i32, ptr %i.addr, align 4
  %inc5 = add nsw i32 %5, 1
  store i32 %inc5, ptr %i.addr, align 4
  store i32 0, ptr %j.addr, align 4
  br label %if.end

if.end:                                           ; preds = %if.then, %entry
  %6 = load ptr, ptr %m.addr, align 8
  %7 = load i32, ptr %i.addr, align 4
  %8 = load i32, ptr %j.addr, align 4
  %9 = load double, ptr %args.addr, align 8
  %conv = fptrunc double %9 to float
  %10 = load double, ptr %args.addr2, align 8
  call void @_ZN4pbrt12_GLOBAL__N_14initILi3EJdEEEvPAT__fiifDpT0_(ptr noundef %6, i32 noundef %7, i32 noundef %8, float noundef %conv, double noundef %10)
  ret void
}

; Function Attrs: mustprogress uwtable
define internal void @_ZN4pbrt12_GLOBAL__N_14initILi3EJdEEEvPAT__fiifDpT0_(ptr noundef %m, i32 noundef %i, i32 noundef %j, float noundef %v, double noundef %args) #1 {
entry:
  %m.addr = alloca ptr, align 8
  %i.addr = alloca i32, align 4
  %j.addr = alloca i32, align 4
  %v.addr = alloca float, align 4
  %args.addr = alloca double, align 8
  store ptr %m, ptr %m.addr, align 8
  store i32 %i, ptr %i.addr, align 4
  store i32 %j, ptr %j.addr, align 4
  store float %v, ptr %v.addr, align 4
  store double %args, ptr %args.addr, align 8
  %0 = load float, ptr %v.addr, align 4
  %1 = load ptr, ptr %m.addr, align 8
  %2 = load i32, ptr %i.addr, align 4
  %idxprom = sext i32 %2 to i64
  %arrayidx = getelementptr inbounds [3 x float], ptr %1, i64 %idxprom
  %3 = load i32, ptr %j.addr, align 4
  %idxprom1 = sext i32 %3 to i64
  %arrayidx2 = getelementptr inbounds [3 x float], ptr %arrayidx, i64 0, i64 %idxprom1
  store float %0, ptr %arrayidx2, align 4
  %4 = load i32, ptr %j.addr, align 4
  %inc = add nsw i32 %4, 1
  store i32 %inc, ptr %j.addr, align 4
  %cmp = icmp eq i32 %inc, 3
  br i1 %cmp, label %if.then, label %if.end

if.then:                                          ; preds = %entry
  %5 = load i32, ptr %i.addr, align 4
  %inc3 = add nsw i32 %5, 1
  store i32 %inc3, ptr %i.addr, align 4
  store i32 0, ptr %j.addr, align 4
  br label %if.end

if.end:                                           ; preds = %if.then, %entry
  %6 = load ptr, ptr %m.addr, align 8
  %7 = load i32, ptr %i.addr, align 4
  %8 = load i32, ptr %j.addr, align 4
  %9 = load double, ptr %args.addr, align 8
  %conv = fptrunc double %9 to float
  call void @_ZN4pbrt12_GLOBAL__N_14initILi3EJEEEvPAT__fiifDpT0_(ptr noundef %6, i32 noundef %7, i32 noundef %8, float noundef %conv)
  ret void
}

; Function Attrs: mustprogress uwtable
define internal void @_ZN4pbrt12_GLOBAL__N_14initILi3EJEEEvPAT__fiifDpT0_(ptr noundef %m, i32 noundef %i, i32 noundef %j, float noundef %v) #1 {
entry:
  %m.addr = alloca ptr, align 8
  %i.addr = alloca i32, align 4
  %j.addr = alloca i32, align 4
  %v.addr = alloca float, align 4
  store ptr %m, ptr %m.addr, align 8
  store i32 %i, ptr %i.addr, align 4
  store i32 %j, ptr %j.addr, align 4
  store float %v, ptr %v.addr, align 4
  %0 = load float, ptr %v.addr, align 4
  %1 = load ptr, ptr %m.addr, align 8
  %2 = load i32, ptr %i.addr, align 4
  %idxprom = sext i32 %2 to i64
  %arrayidx = getelementptr inbounds [3 x float], ptr %1, i64 %idxprom
  %3 = load i32, ptr %j.addr, align 4
  %idxprom1 = sext i32 %3 to i64
  %arrayidx2 = getelementptr inbounds [3 x float], ptr %arrayidx, i64 0, i64 %idxprom1
  store float %0, ptr %arrayidx2, align 4
  %4 = load i32, ptr %j.addr, align 4
  %inc = add nsw i32 %4, 1
  store i32 %inc, ptr %j.addr, align 4
  %cmp = icmp eq i32 %inc, 3
  br i1 %cmp, label %if.then, label %if.end

if.then:                                          ; preds = %entry
  %5 = load i32, ptr %i.addr, align 4
  %inc3 = add nsw i32 %5, 1
  store i32 %inc3, ptr %i.addr, align 4
  store i32 0, ptr %j.addr, align 4
  br label %if.end

if.end:                                           ; preds = %if.then, %entry
  %6 = load ptr, ptr %m.addr, align 8
  %7 = load i32, ptr %i.addr, align 4
  %8 = load i32, ptr %j.addr, align 4
  call void @_ZN4pbrt12_GLOBAL__N_14initILi3EEEvPAT__fii(ptr noundef %6, i32 noundef %7, i32 noundef %8)
  ret void
}

; Function Attrs: mustprogress nounwind uwtable
define internal void @_ZN4pbrt12_GLOBAL__N_14initILi3EEEvPAT__fii(ptr noundef %m, i32 noundef %i, i32 noundef %j) #2 {
entry:
  %m.addr = alloca ptr, align 8
  %i.addr = alloca i32, align 4
  %j.addr = alloca i32, align 4
  store ptr %m, ptr %m.addr, align 8
  store i32 %i, ptr %i.addr, align 4
  store i32 %j, ptr %j.addr, align 4
  ret void
}

; Function Attrs: mustprogress uwtable
define linkonce_odr dso_local void @_ZN4pbrt6detail21stringPrintfRecursiveINSt7__cxx1112basic_stringIcSt11char_traitsIcESaIcEEEJRKiS9_EEEvPS7_PKcOT_DpOT0_(ptr noundef %s, ptr noundef %fmt, ptr noundef nonnull align 8 dereferenceable(32) %v, ptr noundef nonnull align 4 dereferenceable(4) %args, ptr noundef nonnull align 4 dereferenceable(4) %args1) #1 comdat personality ptr @__gxx_personality_v0 {
entry:
  %s.addr = alloca ptr, align 8
  %fmt.addr = alloca ptr, align 8
  %v.addr = alloca ptr, align 8
  %args.addr = alloca ptr, align 8
  %args.addr2 = alloca ptr, align 8
  %nextFmt = alloca %"class.std::__cxx11::basic_string", align 8
  %precisionViaArg = alloca i8, align 1
  %isSFmt = alloca i8, align 1
  %isDFmt = alloca i8, align 1
  %exn.slot = alloca ptr, align 8
  %ehselector.slot = alloca i32, align 4
  %ss = alloca %"class.std::__cxx11::basic_stringstream", align 8
  %ref.tmp = alloca %"class.std::__cxx11::basic_string", align 8
  %ref.tmp20 = alloca ptr, align 8
  %ref.tmp21 = alloca %"class.std::__cxx11::basic_string", align 8
  %ref.tmp32 = alloca %"class.std::__cxx11::basic_string", align 8
  store ptr %s, ptr %s.addr, align 8
  store ptr %fmt, ptr %fmt.addr, align 8
  store ptr %v, ptr %v.addr, align 8
  store ptr %args, ptr %args.addr, align 8
  store ptr %args1, ptr %args.addr2, align 8
  %0 = load ptr, ptr %s.addr, align 8
  call void @_ZN4pbrt6detail18copyToFormatStringEPPKcPNSt7__cxx1112basic_stringIcSt11char_traitsIcESaIcEEE(ptr sret(%"class.std::__cxx11::basic_string") align 8 %nextFmt, ptr noundef %fmt.addr, ptr noundef %0)
  %call = call noundef i64 @_ZNKSt7__cxx1112basic_stringIcSt11char_traitsIcESaIcEE4findEcm(ptr noundef nonnull align 8 dereferenceable(32) %nextFmt, i8 noundef signext 42, i64 noundef 0) #8
  %cmp = icmp ne i64 %call, -1
  %frombool = zext i1 %cmp to i8
  store i8 %frombool, ptr %precisionViaArg, align 1
  %call3 = call noundef i64 @_ZNKSt7__cxx1112basic_stringIcSt11char_traitsIcESaIcEE4findEcm(ptr noundef nonnull align 8 dereferenceable(32) %nextFmt, i8 noundef signext 115, i64 noundef 0) #8
  %cmp4 = icmp ne i64 %call3, -1
  %frombool5 = zext i1 %cmp4 to i8
  store i8 %frombool5, ptr %isSFmt, align 1
  %call6 = call noundef i64 @_ZNKSt7__cxx1112basic_stringIcSt11char_traitsIcESaIcEE4findEcm(ptr noundef nonnull align 8 dereferenceable(32) %nextFmt, i8 noundef signext 100, i64 noundef 0) #8
  %cmp7 = icmp ne i64 %call6, -1
  %frombool8 = zext i1 %cmp7 to i8
  store i8 %frombool8, ptr %isDFmt, align 1
  %1 = load i8, ptr %precisionViaArg, align 1
  %tobool = trunc i8 %1 to i1
  br i1 %tobool, label %if.then, label %if.end

if.then:                                          ; preds = %entry
  invoke void @_ZN4pbrt8LogFatalENS_8LogLevelEPKciS2_(i32 noundef 2, ptr noundef @.str.12, i32 noundef 229, ptr noundef @.str.13) #13
          to label %invoke.cont unwind label %lpad

invoke.cont:                                      ; preds = %if.then
  unreachable

lpad:                                             ; preds = %done, %if.else39, %if.then31, %if.then14, %if.then10, %if.then
  %2 = landingpad { ptr, i32 }
          cleanup
  %3 = extractvalue { ptr, i32 } %2, 0
  store ptr %3, ptr %exn.slot, align 8
  %4 = extractvalue { ptr, i32 } %2, 1
  store i32 %4, ptr %ehselector.slot, align 4
  br label %ehcleanup44

if.end:                                           ; preds = %entry
  %5 = load i8, ptr %isDFmt, align 1
  %tobool9 = trunc i8 %5 to i1
  br i1 %tobool9, label %if.then10, label %if.end12

if.then10:                                        ; preds = %if.end
  invoke void @_ZN4pbrt8LogFatalENS_8LogLevelEPKciS2_(i32 noundef 2, ptr noundef @.str.12, i32 noundef 257, ptr noundef @.str.14) #13
          to label %invoke.cont11 unwind label %lpad

invoke.cont11:                                    ; preds = %if.then10
  unreachable

if.end12:                                         ; preds = %if.end
  %6 = load i8, ptr %isSFmt, align 1
  %tobool13 = trunc i8 %6 to i1
  br i1 %tobool13, label %if.then14, label %if.else

if.then14:                                        ; preds = %if.end12
  invoke void @_ZNSt7__cxx1118basic_stringstreamIcSt11char_traitsIcESaIcEEC1Ev(ptr noundef nonnull align 8 dereferenceable(128) %ss)
          to label %invoke.cont15 unwind label %lpad

invoke.cont15:                                    ; preds = %if.then14
  %add.ptr = getelementptr inbounds i8, ptr %ss, i64 16
  %7 = load ptr, ptr %v.addr, align 8
  %call18 = invoke noundef nonnull align 8 dereferenceable(8) ptr @_ZN4pbrt6detaillsERSoRKNSt7__cxx1112basic_stringIcSt11char_traitsIcESaIcEEE(ptr noundef nonnull align 8 dereferenceable(8) %add.ptr, ptr noundef nonnull align 8 dereferenceable(32) %7)
          to label %invoke.cont17 unwind label %lpad16

invoke.cont17:                                    ; preds = %invoke.cont15
  %call19 = call noundef ptr @_ZNKSt7__cxx1112basic_stringIcSt11char_traitsIcESaIcEE5c_strEv(ptr noundef nonnull align 8 dereferenceable(32) %nextFmt) #8
  invoke void @_ZNKSt7__cxx1118basic_stringstreamIcSt11char_traitsIcESaIcEE3strEv(ptr sret(%"class.std::__cxx11::basic_string") align 8 %ref.tmp21, ptr noundef nonnull align 8 dereferenceable(128) %ss)
          to label %invoke.cont22 unwind label %lpad16

invoke.cont22:                                    ; preds = %invoke.cont17
  %call23 = call noundef ptr @_ZNKSt7__cxx1112basic_stringIcSt11char_traitsIcESaIcEE5c_strEv(ptr noundef nonnull align 8 dereferenceable(32) %ref.tmp21) #8
  store ptr %call23, ptr %ref.tmp20, align 8
  invoke void @_ZN4pbrt6detail9formatOneIPKcEENSt9enable_ifIXntsr3stdE10is_class_vINSt5decayIT_E4typeEEENSt7__cxx1112basic_stringIcSt11char_traitsIcESaIcEEEE4typeES3_OS6_(ptr sret(%"class.std::__cxx11::basic_string") align 8 %ref.tmp, ptr noundef %call19, ptr noundef nonnull align 8 dereferenceable(8) %ref.tmp20)
          to label %invoke.cont25 unwind label %lpad24

invoke.cont25:                                    ; preds = %invoke.cont22
  %8 = load ptr, ptr %s.addr, align 8
  %call28 = invoke noundef nonnull align 8 dereferenceable(32) ptr @_ZNSt7__cxx1112basic_stringIcSt11char_traitsIcESaIcEEpLERKS4_(ptr noundef nonnull align 8 dereferenceable(32) %8, ptr noundef nonnull align 8 dereferenceable(32) %ref.tmp)
          to label %invoke.cont27 unwind label %lpad26

invoke.cont27:                                    ; preds = %invoke.cont25
  call void @_ZNSt7__cxx1112basic_stringIcSt11char_traitsIcESaIcEED1Ev(ptr noundef nonnull align 8 dereferenceable(32) %ref.tmp) #8
  call void @_ZNSt7__cxx1112basic_stringIcSt11char_traitsIcESaIcEED1Ev(ptr noundef nonnull align 8 dereferenceable(32) %ref.tmp21) #8
  call void @_ZNSt7__cxx1118basic_stringstreamIcSt11char_traitsIcESaIcEED1Ev(ptr noundef nonnull align 8 dereferenceable(128) %ss) #8
  br label %if.end42

lpad16:                                           ; preds = %invoke.cont17, %invoke.cont15
  %9 = landingpad { ptr, i32 }
          cleanup
  %10 = extractvalue { ptr, i32 } %9, 0
  store ptr %10, ptr %exn.slot, align 8
  %11 = extractvalue { ptr, i32 } %9, 1
  store i32 %11, ptr %ehselector.slot, align 4
  br label %ehcleanup29

lpad24:                                           ; preds = %invoke.cont22
  %12 = landingpad { ptr, i32 }
          cleanup
  %13 = extractvalue { ptr, i32 } %12, 0
  store ptr %13, ptr %exn.slot, align 8
  %14 = extractvalue { ptr, i32 } %12, 1
  store i32 %14, ptr %ehselector.slot, align 4
  br label %ehcleanup

lpad26:                                           ; preds = %invoke.cont25
  %15 = landingpad { ptr, i32 }
          cleanup
  %16 = extractvalue { ptr, i32 } %15, 0
  store ptr %16, ptr %exn.slot, align 8
  %17 = extractvalue { ptr, i32 } %15, 1
  store i32 %17, ptr %ehselector.slot, align 4
  call void @_ZNSt7__cxx1112basic_stringIcSt11char_traitsIcESaIcEED1Ev(ptr noundef nonnull align 8 dereferenceable(32) %ref.tmp) #8
  br label %ehcleanup

ehcleanup:                                        ; preds = %lpad26, %lpad24
  call void @_ZNSt7__cxx1112basic_stringIcSt11char_traitsIcESaIcEED1Ev(ptr noundef nonnull align 8 dereferenceable(32) %ref.tmp21) #8
  br label %ehcleanup29

ehcleanup29:                                      ; preds = %ehcleanup, %lpad16
  call void @_ZNSt7__cxx1118basic_stringstreamIcSt11char_traitsIcESaIcEED1Ev(ptr noundef nonnull align 8 dereferenceable(128) %ss) #8
  br label %ehcleanup44

if.else:                                          ; preds = %if.end12
  %call30 = call noundef zeroext i1 @_ZNKSt7__cxx1112basic_stringIcSt11char_traitsIcESaIcEE5emptyEv(ptr noundef nonnull align 8 dereferenceable(32) %nextFmt) #8
  br i1 %call30, label %if.else39, label %if.then31

if.then31:                                        ; preds = %if.else
  %call33 = call noundef ptr @_ZNKSt7__cxx1112basic_stringIcSt11char_traitsIcESaIcEE5c_strEv(ptr noundef nonnull align 8 dereferenceable(32) %nextFmt) #8
  %18 = load ptr, ptr %v.addr, align 8
  invoke void @_ZN4pbrt6detail9formatOneINSt7__cxx1112basic_stringIcSt11char_traitsIcESaIcEEEEENSt9enable_ifIXsr3stdE10is_class_vINSt5decayIT_E4typeEEES7_E4typeEPKcOSA_(ptr sret(%"class.std::__cxx11::basic_string") align 8 %ref.tmp32, ptr noundef %call33, ptr noundef nonnull align 8 dereferenceable(32) %18)
          to label %invoke.cont34 unwind label %lpad

invoke.cont34:                                    ; preds = %if.then31
  %19 = load ptr, ptr %s.addr, align 8
  %call37 = invoke noundef nonnull align 8 dereferenceable(32) ptr @_ZNSt7__cxx1112basic_stringIcSt11char_traitsIcESaIcEEpLERKS4_(ptr noundef nonnull align 8 dereferenceable(32) %19, ptr noundef nonnull align 8 dereferenceable(32) %ref.tmp32)
          to label %invoke.cont36 unwind label %lpad35

invoke.cont36:                                    ; preds = %invoke.cont34
  call void @_ZNSt7__cxx1112basic_stringIcSt11char_traitsIcESaIcEED1Ev(ptr noundef nonnull align 8 dereferenceable(32) %ref.tmp32) #8
  br label %if.end41

lpad35:                                           ; preds = %invoke.cont34
  %20 = landingpad { ptr, i32 }
          cleanup
  %21 = extractvalue { ptr, i32 } %20, 0
  store ptr %21, ptr %exn.slot, align 8
  %22 = extractvalue { ptr, i32 } %20, 1
  store i32 %22, ptr %ehselector.slot, align 4
  call void @_ZNSt7__cxx1112basic_stringIcSt11char_traitsIcESaIcEED1Ev(ptr noundef nonnull align 8 dereferenceable(32) %ref.tmp32) #8
  br label %ehcleanup44

if.else39:                                        ; preds = %if.else
  invoke void @_ZN4pbrt8LogFatalENS_8LogLevelEPKciS2_(i32 noundef 2, ptr noundef @.str.12, i32 noundef 266, ptr noundef @.str.15) #13
          to label %invoke.cont40 unwind label %lpad

invoke.cont40:                                    ; preds = %if.else39
  unreachable

if.end41:                                         ; preds = %invoke.cont36
  br label %if.end42

if.end42:                                         ; preds = %if.end41, %invoke.cont27
  br label %done

done:                                             ; preds = %if.end42
  %23 = load ptr, ptr %s.addr, align 8
  %24 = load ptr, ptr %fmt.addr, align 8
  %25 = load ptr, ptr %args.addr, align 8
  %26 = load ptr, ptr %args.addr2, align 8
  invoke void @_ZN4pbrt6detail21stringPrintfRecursiveIRKiJS3_EEEvPNSt7__cxx1112basic_stringIcSt11char_traitsIcESaIcEEEPKcOT_DpOT0_(ptr noundef %23, ptr noundef %24, ptr noundef nonnull align 4 dereferenceable(4) %25, ptr noundef nonnull align 4 dereferenceable(4) %26)
          to label %invoke.cont43 unwind label %lpad

invoke.cont43:                                    ; preds = %done
  call void @_ZNSt7__cxx1112basic_stringIcSt11char_traitsIcESaIcEED1Ev(ptr noundef nonnull align 8 dereferenceable(32) %nextFmt) #8
  ret void

ehcleanup44:                                      ; preds = %lpad35, %ehcleanup29, %lpad
  call void @_ZNSt7__cxx1112basic_stringIcSt11char_traitsIcESaIcEED1Ev(ptr noundef nonnull align 8 dereferenceable(32) %nextFmt) #8
  br label %eh.resume

eh.resume:                                        ; preds = %ehcleanup44
  %exn = load ptr, ptr %exn.slot, align 8
  %sel = load i32, ptr %ehselector.slot, align 4
  %lpad.val = insertvalue { ptr, i32 } poison, ptr %exn, 0
  %lpad.val45 = insertvalue { ptr, i32 } %lpad.val, i32 %sel, 1
  resume { ptr, i32 } %lpad.val45
}

; Function Attrs: mustprogress uwtable
define linkonce_odr dso_local void @_ZN4pbrt6detail9formatOneINSt7__cxx1112basic_stringIcSt11char_traitsIcESaIcEEEEENSt9enable_ifIXsr3stdE10is_class_vINSt5decayIT_E4typeEEES7_E4typeEPKcOSA_(ptr noalias sret(%"class.std::__cxx11::basic_string") align 8 %agg.result, ptr noundef %fmt, ptr noundef nonnull align 8 dereferenceable(32) %v) #1 comdat {
entry:
  %result.ptr = alloca ptr, align 8
  %fmt.addr = alloca ptr, align 8
  %v.addr = alloca ptr, align 8
  %ref.tmp = alloca ptr, align 8
  store ptr %agg.result, ptr %result.ptr, align 8
  store ptr %fmt, ptr %fmt.addr, align 8
  store ptr %v, ptr %v.addr, align 8
  %call = call noundef ptr @_ZNKSt9type_info4nameEv(ptr noundef nonnull align 8 dereferenceable(16) @_ZTINSt7__cxx1112basic_stringIcSt11char_traitsIcESaIcEEE) #8
  store ptr %call, ptr %ref.tmp, align 8
  call void @_ZN4pbrt8LogFatalIJPKcRS2_EEEvNS_8LogLevelES2_iS2_DpOT_(i32 noundef 2, ptr noundef @.str.12, i32 noundef 176, ptr noundef @.str.16, ptr noundef nonnull align 8 dereferenceable(8) %ref.tmp, ptr noundef nonnull align 8 dereferenceable(8) %fmt.addr) #13
  unreachable
}

; Function Attrs: mustprogress uwtable
define linkonce_odr dso_local void @_ZN4pbrt6detail21stringPrintfRecursiveIRKiJS3_EEEvPNSt7__cxx1112basic_stringIcSt11char_traitsIcESaIcEEEPKcOT_DpOT0_(ptr noundef %s, ptr noundef %fmt, ptr noundef nonnull align 4 dereferenceable(4) %v, ptr noundef nonnull align 4 dereferenceable(4) %args) #1 comdat personality ptr @__gxx_personality_v0 {
entry:
  %s.addr = alloca ptr, align 8
  %fmt.addr = alloca ptr, align 8
  %v.addr = alloca ptr, align 8
  %args.addr = alloca ptr, align 8
  %nextFmt = alloca %"class.std::__cxx11::basic_string", align 8
  %precisionViaArg = alloca i8, align 1
  %isSFmt = alloca i8, align 1
  %isDFmt = alloca i8, align 1
  %exn.slot = alloca ptr, align 8
  %ehselector.slot = alloca i32, align 4
  %cleanup.dest.slot = alloca i32, align 4
  %ref.tmp = alloca %"class.std::__cxx11::basic_string", align 8
  %ss = alloca %"class.std::__cxx11::basic_stringstream", align 8
  %ref.tmp26 = alloca %"class.std::__cxx11::basic_string", align 8
  %ref.tmp28 = alloca ptr, align 8
  %ref.tmp29 = alloca %"class.std::__cxx11::basic_string", align 8
  %ref.tmp40 = alloca %"class.std::__cxx11::basic_string", align 8
  store ptr %s, ptr %s.addr, align 8
  store ptr %fmt, ptr %fmt.addr, align 8
  store ptr %v, ptr %v.addr, align 8
  store ptr %args, ptr %args.addr, align 8
  %0 = load ptr, ptr %s.addr, align 8
  call void @_ZN4pbrt6detail18copyToFormatStringEPPKcPNSt7__cxx1112basic_stringIcSt11char_traitsIcESaIcEEE(ptr sret(%"class.std::__cxx11::basic_string") align 8 %nextFmt, ptr noundef %fmt.addr, ptr noundef %0)
  %call = call noundef i64 @_ZNKSt7__cxx1112basic_stringIcSt11char_traitsIcESaIcEE4findEcm(ptr noundef nonnull align 8 dereferenceable(32) %nextFmt, i8 noundef signext 42, i64 noundef 0) #8
  %cmp = icmp ne i64 %call, -1
  %frombool = zext i1 %cmp to i8
  store i8 %frombool, ptr %precisionViaArg, align 1
  %call1 = call noundef i64 @_ZNKSt7__cxx1112basic_stringIcSt11char_traitsIcESaIcEE4findEcm(ptr noundef nonnull align 8 dereferenceable(32) %nextFmt, i8 noundef signext 115, i64 noundef 0) #8
  %cmp2 = icmp ne i64 %call1, -1
  %frombool3 = zext i1 %cmp2 to i8
  store i8 %frombool3, ptr %isSFmt, align 1
  %call4 = call noundef i64 @_ZNKSt7__cxx1112basic_stringIcSt11char_traitsIcESaIcEE4findEcm(ptr noundef nonnull align 8 dereferenceable(32) %nextFmt, i8 noundef signext 100, i64 noundef 0) #8
  %cmp5 = icmp ne i64 %call4, -1
  %frombool6 = zext i1 %cmp5 to i8
  store i8 %frombool6, ptr %isDFmt, align 1
  %1 = load i8, ptr %precisionViaArg, align 1
  %tobool = trunc i8 %1 to i1
  br i1 %tobool, label %if.then, label %if.end

if.then:                                          ; preds = %entry
  %2 = load ptr, ptr %s.addr, align 8
  %3 = load ptr, ptr %fmt.addr, align 8
  %4 = load ptr, ptr %v.addr, align 8
  %5 = load i32, ptr %4, align 4
  %6 = load ptr, ptr %args.addr, align 8
  invoke void @_ZN4pbrt6detail34stringPrintfRecursiveWithPrecisionIRKiJEEENSt9enable_ifIXntsr3stdE10is_class_vINSt5decayIT_E4typeEEEvE4typeEPNSt7__cxx1112basic_stringIcSt11char_traitsIcESaIcEEEPKcRKSG_iOS6_DpOT0_(ptr noundef %2, ptr noundef %3, ptr noundef nonnull align 8 dereferenceable(32) %nextFmt, i32 noundef %5, ptr noundef nonnull align 4 dereferenceable(4) %6)
          to label %invoke.cont unwind label %lpad

invoke.cont:                                      ; preds = %if.then
  store i32 1, ptr %cleanup.dest.slot, align 4
  br label %cleanup

lpad:                                             ; preds = %done, %if.else47, %if.then39, %if.then21, %invoke.cont12, %invoke.cont10, %if.then8, %if.then
  %7 = landingpad { ptr, i32 }
          cleanup
  %8 = extractvalue { ptr, i32 } %7, 0
  store ptr %8, ptr %exn.slot, align 8
  %9 = extractvalue { ptr, i32 } %7, 1
  store i32 %9, ptr %ehselector.slot, align 4
  br label %ehcleanup52

if.end:                                           ; preds = %entry
  %10 = load i8, ptr %isDFmt, align 1
  %tobool7 = trunc i8 %10 to i1
  br i1 %tobool7, label %if.then8, label %if.end19

if.then8:                                         ; preds = %if.end
  %call9 = call noundef i64 @_ZNKSt7__cxx1112basic_stringIcSt11char_traitsIcESaIcEE4findEcm(ptr noundef nonnull align 8 dereferenceable(32) %nextFmt, i8 noundef signext 100, i64 noundef 0) #8
  %call11 = invoke noundef ptr @_ZN4pbrt6detail18IntegerFormatTraitIiE3fmtEv()
          to label %invoke.cont10 unwind label %lpad

invoke.cont10:                                    ; preds = %if.then8
  %call13 = invoke noundef nonnull align 8 dereferenceable(32) ptr @_ZNSt7__cxx1112basic_stringIcSt11char_traitsIcESaIcEE7replaceEmmPKc(ptr noundef nonnull align 8 dereferenceable(32) %nextFmt, i64 noundef %call9, i64 noundef 1, ptr noundef %call11)
          to label %invoke.cont12 unwind label %lpad

invoke.cont12:                                    ; preds = %invoke.cont10
  %call14 = call noundef ptr @_ZNKSt7__cxx1112basic_stringIcSt11char_traitsIcESaIcEE5c_strEv(ptr noundef nonnull align 8 dereferenceable(32) %nextFmt) #8
  %11 = load ptr, ptr %v.addr, align 8
  invoke void @_ZN4pbrt6detail9formatOneIRKiEENSt9enable_ifIXntsr3stdE10is_class_vINSt5decayIT_E4typeEEENSt7__cxx1112basic_stringIcSt11char_traitsIcESaIcEEEE4typeEPKcOS6_(ptr sret(%"class.std::__cxx11::basic_string") align 8 %ref.tmp, ptr noundef %call14, ptr noundef nonnull align 4 dereferenceable(4) %11)
          to label %invoke.cont15 unwind label %lpad

invoke.cont15:                                    ; preds = %invoke.cont12
  %12 = load ptr, ptr %s.addr, align 8
  %call18 = invoke noundef nonnull align 8 dereferenceable(32) ptr @_ZNSt7__cxx1112basic_stringIcSt11char_traitsIcESaIcEEpLERKS4_(ptr noundef nonnull align 8 dereferenceable(32) %12, ptr noundef nonnull align 8 dereferenceable(32) %ref.tmp)
          to label %invoke.cont17 unwind label %lpad16

invoke.cont17:                                    ; preds = %invoke.cont15
  call void @_ZNSt7__cxx1112basic_stringIcSt11char_traitsIcESaIcEED1Ev(ptr noundef nonnull align 8 dereferenceable(32) %ref.tmp) #8
  br label %done

lpad16:                                           ; preds = %invoke.cont15
  %13 = landingpad { ptr, i32 }
          cleanup
  %14 = extractvalue { ptr, i32 } %13, 0
  store ptr %14, ptr %exn.slot, align 8
  %15 = extractvalue { ptr, i32 } %13, 1
  store i32 %15, ptr %ehselector.slot, align 4
  call void @_ZNSt7__cxx1112basic_stringIcSt11char_traitsIcESaIcEED1Ev(ptr noundef nonnull align 8 dereferenceable(32) %ref.tmp) #8
  br label %ehcleanup52

if.end19:                                         ; preds = %if.end
  %16 = load i8, ptr %isSFmt, align 1
  %tobool20 = trunc i8 %16 to i1
  br i1 %tobool20, label %if.then21, label %if.else

if.then21:                                        ; preds = %if.end19
  invoke void @_ZNSt7__cxx1118basic_stringstreamIcSt11char_traitsIcESaIcEEC1Ev(ptr noundef nonnull align 8 dereferenceable(128) %ss)
          to label %invoke.cont22 unwind label %lpad

invoke.cont22:                                    ; preds = %if.then21
  %add.ptr = getelementptr inbounds i8, ptr %ss, i64 16
  %17 = load ptr, ptr %v.addr, align 8
  %18 = load i32, ptr %17, align 4
  %call25 = invoke noundef nonnull align 8 dereferenceable(8) ptr @_ZNSolsEi(ptr noundef nonnull align 8 dereferenceable(8) %add.ptr, i32 noundef %18)
          to label %invoke.cont24 unwind label %lpad23

invoke.cont24:                                    ; preds = %invoke.cont22
  %call27 = call noundef ptr @_ZNKSt7__cxx1112basic_stringIcSt11char_traitsIcESaIcEE5c_strEv(ptr noundef nonnull align 8 dereferenceable(32) %nextFmt) #8
  invoke void @_ZNKSt7__cxx1118basic_stringstreamIcSt11char_traitsIcESaIcEE3strEv(ptr sret(%"class.std::__cxx11::basic_string") align 8 %ref.tmp29, ptr noundef nonnull align 8 dereferenceable(128) %ss)
          to label %invoke.cont30 unwind label %lpad23

invoke.cont30:                                    ; preds = %invoke.cont24
  %call31 = call noundef ptr @_ZNKSt7__cxx1112basic_stringIcSt11char_traitsIcESaIcEE5c_strEv(ptr noundef nonnull align 8 dereferenceable(32) %ref.tmp29) #8
  store ptr %call31, ptr %ref.tmp28, align 8
  invoke void @_ZN4pbrt6detail9formatOneIPKcEENSt9enable_ifIXntsr3stdE10is_class_vINSt5decayIT_E4typeEEENSt7__cxx1112basic_stringIcSt11char_traitsIcESaIcEEEE4typeES3_OS6_(ptr sret(%"class.std::__cxx11::basic_string") align 8 %ref.tmp26, ptr noundef %call27, ptr noundef nonnull align 8 dereferenceable(8) %ref.tmp28)
          to label %invoke.cont33 unwind label %lpad32

invoke.cont33:                                    ; preds = %invoke.cont30
  %19 = load ptr, ptr %s.addr, align 8
  %call36 = invoke noundef nonnull align 8 dereferenceable(32) ptr @_ZNSt7__cxx1112basic_stringIcSt11char_traitsIcESaIcEEpLERKS4_(ptr noundef nonnull align 8 dereferenceable(32) %19, ptr noundef nonnull align 8 dereferenceable(32) %ref.tmp26)
          to label %invoke.cont35 unwind label %lpad34

invoke.cont35:                                    ; preds = %invoke.cont33
  call void @_ZNSt7__cxx1112basic_stringIcSt11char_traitsIcESaIcEED1Ev(ptr noundef nonnull align 8 dereferenceable(32) %ref.tmp26) #8
  call void @_ZNSt7__cxx1112basic_stringIcSt11char_traitsIcESaIcEED1Ev(ptr noundef nonnull align 8 dereferenceable(32) %ref.tmp29) #8
  call void @_ZNSt7__cxx1118basic_stringstreamIcSt11char_traitsIcESaIcEED1Ev(ptr noundef nonnull align 8 dereferenceable(128) %ss) #8
  br label %if.end50

lpad23:                                           ; preds = %invoke.cont24, %invoke.cont22
  %20 = landingpad { ptr, i32 }
          cleanup
  %21 = extractvalue { ptr, i32 } %20, 0
  store ptr %21, ptr %exn.slot, align 8
  %22 = extractvalue { ptr, i32 } %20, 1
  store i32 %22, ptr %ehselector.slot, align 4
  br label %ehcleanup37

lpad32:                                           ; preds = %invoke.cont30
  %23 = landingpad { ptr, i32 }
          cleanup
  %24 = extractvalue { ptr, i32 } %23, 0
  store ptr %24, ptr %exn.slot, align 8
  %25 = extractvalue { ptr, i32 } %23, 1
  store i32 %25, ptr %ehselector.slot, align 4
  br label %ehcleanup

lpad34:                                           ; preds = %invoke.cont33
  %26 = landingpad { ptr, i32 }
          cleanup
  %27 = extractvalue { ptr, i32 } %26, 0
  store ptr %27, ptr %exn.slot, align 8
  %28 = extractvalue { ptr, i32 } %26, 1
  store i32 %28, ptr %ehselector.slot, align 4
  call void @_ZNSt7__cxx1112basic_stringIcSt11char_traitsIcESaIcEED1Ev(ptr noundef nonnull align 8 dereferenceable(32) %ref.tmp26) #8
  br label %ehcleanup

ehcleanup:                                        ; preds = %lpad34, %lpad32
  call void @_ZNSt7__cxx1112basic_stringIcSt11char_traitsIcESaIcEED1Ev(ptr noundef nonnull align 8 dereferenceable(32) %ref.tmp29) #8
  br label %ehcleanup37

ehcleanup37:                                      ; preds = %ehcleanup, %lpad23
  call void @_ZNSt7__cxx1118basic_stringstreamIcSt11char_traitsIcESaIcEED1Ev(ptr noundef nonnull align 8 dereferenceable(128) %ss) #8
  br label %ehcleanup52

if.else:                                          ; preds = %if.end19
  %call38 = call noundef zeroext i1 @_ZNKSt7__cxx1112basic_stringIcSt11char_traitsIcESaIcEE5emptyEv(ptr noundef nonnull align 8 dereferenceable(32) %nextFmt) #8
  br i1 %call38, label %if.else47, label %if.then39

if.then39:                                        ; preds = %if.else
  %call41 = call noundef ptr @_ZNKSt7__cxx1112basic_stringIcSt11char_traitsIcESaIcEE5c_strEv(ptr noundef nonnull align 8 dereferenceable(32) %nextFmt) #8
  %29 = load ptr, ptr %v.addr, align 8
  invoke void @_ZN4pbrt6detail9formatOneIRKiEENSt9enable_ifIXntsr3stdE10is_class_vINSt5decayIT_E4typeEEENSt7__cxx1112basic_stringIcSt11char_traitsIcESaIcEEEE4typeEPKcOS6_(ptr sret(%"class.std::__cxx11::basic_string") align 8 %ref.tmp40, ptr noundef %call41, ptr noundef nonnull align 4 dereferenceable(4) %29)
          to label %invoke.cont42 unwind label %lpad

invoke.cont42:                                    ; preds = %if.then39
  %30 = load ptr, ptr %s.addr, align 8
  %call45 = invoke noundef nonnull align 8 dereferenceable(32) ptr @_ZNSt7__cxx1112basic_stringIcSt11char_traitsIcESaIcEEpLERKS4_(ptr noundef nonnull align 8 dereferenceable(32) %30, ptr noundef nonnull align 8 dereferenceable(32) %ref.tmp40)
          to label %invoke.cont44 unwind label %lpad43

invoke.cont44:                                    ; preds = %invoke.cont42
  call void @_ZNSt7__cxx1112basic_stringIcSt11char_traitsIcESaIcEED1Ev(ptr noundef nonnull align 8 dereferenceable(32) %ref.tmp40) #8
  br label %if.end49

lpad43:                                           ; preds = %invoke.cont42
  %31 = landingpad { ptr, i32 }
          cleanup
  %32 = extractvalue { ptr, i32 } %31, 0
  store ptr %32, ptr %exn.slot, align 8
  %33 = extractvalue { ptr, i32 } %31, 1
  store i32 %33, ptr %ehselector.slot, align 4
  call void @_ZNSt7__cxx1112basic_stringIcSt11char_traitsIcESaIcEED1Ev(ptr noundef nonnull align 8 dereferenceable(32) %ref.tmp40) #8
  br label %ehcleanup52

if.else47:                                        ; preds = %if.else
  invoke void @_ZN4pbrt8LogFatalENS_8LogLevelEPKciS2_(i32 noundef 2, ptr noundef @.str.12, i32 noundef 266, ptr noundef @.str.15) #13
          to label %invoke.cont48 unwind label %lpad

invoke.cont48:                                    ; preds = %if.else47
  unreachable

if.end49:                                         ; preds = %invoke.cont44
  br label %if.end50

if.end50:                                         ; preds = %if.end49, %invoke.cont35
  br label %done

done:                                             ; preds = %if.end50, %invoke.cont17
  %34 = load ptr, ptr %s.addr, align 8
  %35 = load ptr, ptr %fmt.addr, align 8
  %36 = load ptr, ptr %args.addr, align 8
  invoke void @_ZN4pbrt6detail21stringPrintfRecursiveIRKiJEEEvPNSt7__cxx1112basic_stringIcSt11char_traitsIcESaIcEEEPKcOT_DpOT0_(ptr noundef %34, ptr noundef %35, ptr noundef nonnull align 4 dereferenceable(4) %36)
          to label %invoke.cont51 unwind label %lpad

invoke.cont51:                                    ; preds = %done
  store i32 0, ptr %cleanup.dest.slot, align 4
  br label %cleanup

cleanup:                                          ; preds = %invoke.cont51, %invoke.cont
  call void @_ZNSt7__cxx1112basic_stringIcSt11char_traitsIcESaIcEED1Ev(ptr noundef nonnull align 8 dereferenceable(32) %nextFmt) #8
  %cleanup.dest = load i32, ptr %cleanup.dest.slot, align 4
  switch i32 %cleanup.dest, label %unreachable [
    i32 0, label %cleanup.cont
    i32 1, label %cleanup.cont
  ]

cleanup.cont:                                     ; preds = %cleanup, %cleanup
  ret void

ehcleanup52:                                      ; preds = %lpad43, %ehcleanup37, %lpad16, %lpad
  call void @_ZNSt7__cxx1112basic_stringIcSt11char_traitsIcESaIcEED1Ev(ptr noundef nonnull align 8 dereferenceable(32) %nextFmt) #8
  br label %eh.resume

eh.resume:                                        ; preds = %ehcleanup52
  %exn = load ptr, ptr %exn.slot, align 8
  %sel = load i32, ptr %ehselector.slot, align 4
  %lpad.val = insertvalue { ptr, i32 } poison, ptr %exn, 0
  %lpad.val53 = insertvalue { ptr, i32 } %lpad.val, i32 %sel, 1
  resume { ptr, i32 } %lpad.val53

unreachable:                                      ; preds = %cleanup
  unreachable
}

; Function Attrs: mustprogress uwtable
define linkonce_odr dso_local void @_ZN4pbrt6detail34stringPrintfRecursiveWithPrecisionIRKiJEEENSt9enable_ifIXntsr3stdE10is_class_vINSt5decayIT_E4typeEEEvE4typeEPNSt7__cxx1112basic_stringIcSt11char_traitsIcESaIcEEEPKcRKSG_iOS6_DpOT0_(ptr noundef %s, ptr noundef %fmt, ptr noundef nonnull align 8 dereferenceable(32) %nextFmt, i32 noundef %precision, ptr noundef nonnull align 4 dereferenceable(4) %v) #1 comdat personality ptr @__gxx_personality_v0 {
entry:
  %s.addr = alloca ptr, align 8
  %fmt.addr = alloca ptr, align 8
  %nextFmt.addr = alloca ptr, align 8
  %precision.addr = alloca i32, align 4
  %v.addr = alloca ptr, align 8
  %size = alloca i64, align 8
  %str = alloca %"class.std::__cxx11::basic_string", align 8
  %exn.slot = alloca ptr, align 8
  %ehselector.slot = alloca i32, align 4
  store ptr %s, ptr %s.addr, align 8
  store ptr %fmt, ptr %fmt.addr, align 8
  store ptr %nextFmt, ptr %nextFmt.addr, align 8
  store i32 %precision, ptr %precision.addr, align 4
  store ptr %v, ptr %v.addr, align 8
  %0 = load ptr, ptr %nextFmt.addr, align 8
  %call = call noundef ptr @_ZNKSt7__cxx1112basic_stringIcSt11char_traitsIcESaIcEE5c_strEv(ptr noundef nonnull align 8 dereferenceable(32) %0) #8
  %1 = load i32, ptr %precision.addr, align 4
  %2 = load ptr, ptr %v.addr, align 8
  %3 = load i32, ptr %2, align 4
  %call1 = call i32 (ptr, i64, ptr, ...) @snprintf(ptr noundef null, i64 noundef 0, ptr noundef %call, i32 noundef %1, i32 noundef %3) #8
  %add = add nsw i32 %call1, 1
  %conv = sext i32 %add to i64
  store i64 %conv, ptr %size, align 8
  call void @_ZNSt7__cxx1112basic_stringIcSt11char_traitsIcESaIcEEC1Ev(ptr noundef nonnull align 8 dereferenceable(32) %str) #8
  %4 = load i64, ptr %size, align 8
  invoke void @_ZNSt7__cxx1112basic_stringIcSt11char_traitsIcESaIcEE6resizeEm(ptr noundef nonnull align 8 dereferenceable(32) %str, i64 noundef %4)
          to label %invoke.cont unwind label %lpad

invoke.cont:                                      ; preds = %entry
  %call3 = invoke noundef nonnull align 1 dereferenceable(1) ptr @_ZNSt7__cxx1112basic_stringIcSt11char_traitsIcESaIcEEixEm(ptr noundef nonnull align 8 dereferenceable(32) %str, i64 noundef 0)
          to label %invoke.cont2 unwind label %lpad

invoke.cont2:                                     ; preds = %invoke.cont
  %5 = load i64, ptr %size, align 8
  %6 = load ptr, ptr %nextFmt.addr, align 8
  %call4 = call noundef ptr @_ZNKSt7__cxx1112basic_stringIcSt11char_traitsIcESaIcEE5c_strEv(ptr noundef nonnull align 8 dereferenceable(32) %6) #8
  %7 = load i32, ptr %precision.addr, align 4
  %8 = load ptr, ptr %v.addr, align 8
  %9 = load i32, ptr %8, align 4
  %call5 = call i32 (ptr, i64, ptr, ...) @snprintf(ptr noundef %call3, i64 noundef %5, ptr noundef %call4, i32 noundef %7, i32 noundef %9) #8
  call void @_ZNSt7__cxx1112basic_stringIcSt11char_traitsIcESaIcEE8pop_backEv(ptr noundef nonnull align 8 dereferenceable(32) %str) #8
  %10 = load ptr, ptr %s.addr, align 8
  %call7 = invoke noundef nonnull align 8 dereferenceable(32) ptr @_ZNSt7__cxx1112basic_stringIcSt11char_traitsIcESaIcEEpLERKS4_(ptr noundef nonnull align 8 dereferenceable(32) %10, ptr noundef nonnull align 8 dereferenceable(32) %str)
          to label %invoke.cont6 unwind label %lpad

invoke.cont6:                                     ; preds = %invoke.cont2
  %11 = load ptr, ptr %s.addr, align 8
  %12 = load ptr, ptr %fmt.addr, align 8
  invoke void @_ZN4pbrt6detail21stringPrintfRecursiveEPNSt7__cxx1112basic_stringIcSt11char_traitsIcESaIcEEEPKc(ptr noundef %11, ptr noundef %12)
          to label %invoke.cont8 unwind label %lpad

invoke.cont8:                                     ; preds = %invoke.cont6
  call void @_ZNSt7__cxx1112basic_stringIcSt11char_traitsIcESaIcEED1Ev(ptr noundef nonnull align 8 dereferenceable(32) %str) #8
  ret void

lpad:                                             ; preds = %invoke.cont6, %invoke.cont2, %invoke.cont, %entry
  %13 = landingpad { ptr, i32 }
          cleanup
  %14 = extractvalue { ptr, i32 } %13, 0
  store ptr %14, ptr %exn.slot, align 8
  %15 = extractvalue { ptr, i32 } %13, 1
  store i32 %15, ptr %ehselector.slot, align 4
  call void @_ZNSt7__cxx1112basic_stringIcSt11char_traitsIcESaIcEED1Ev(ptr noundef nonnull align 8 dereferenceable(32) %str) #8
  br label %eh.resume

eh.resume:                                        ; preds = %lpad
  %exn = load ptr, ptr %exn.slot, align 8
  %sel = load i32, ptr %ehselector.slot, align 4
  %lpad.val = insertvalue { ptr, i32 } poison, ptr %exn, 0
  %lpad.val9 = insertvalue { ptr, i32 } %lpad.val, i32 %sel, 1
  resume { ptr, i32 } %lpad.val9
}

declare noundef nonnull align 8 dereferenceable(32) ptr @_ZNSt7__cxx1112basic_stringIcSt11char_traitsIcESaIcEE7replaceEmmPKc(ptr noundef nonnull align 8 dereferenceable(32), i64 noundef, i64 noundef, ptr noundef) #4

; Function Attrs: mustprogress nounwind uwtable
define linkonce_odr dso_local noundef ptr @_ZN4pbrt6detail18IntegerFormatTraitIiE3fmtEv() #2 comdat align 2 {
entry:
  ret ptr @.str.17
}

; Function Attrs: mustprogress uwtable
define linkonce_odr dso_local void @_ZN4pbrt6detail9formatOneIRKiEENSt9enable_ifIXntsr3stdE10is_class_vINSt5decayIT_E4typeEEENSt7__cxx1112basic_stringIcSt11char_traitsIcESaIcEEEE4typeEPKcOS6_(ptr noalias sret(%"class.std::__cxx11::basic_string") align 8 %agg.result, ptr noundef %fmt, ptr noundef nonnull align 4 dereferenceable(4) %v) #1 comdat personality ptr @__gxx_personality_v0 {
entry:
  %result.ptr = alloca ptr, align 8
  %fmt.addr = alloca ptr, align 8
  %v.addr = alloca ptr, align 8
  %size = alloca i64, align 8
  %nrvo = alloca i1, align 1
  %exn.slot = alloca ptr, align 8
  %ehselector.slot = alloca i32, align 4
  store ptr %agg.result, ptr %result.ptr, align 8
  store ptr %fmt, ptr %fmt.addr, align 8
  store ptr %v, ptr %v.addr, align 8
  %0 = load ptr, ptr %fmt.addr, align 8
  %1 = load ptr, ptr %v.addr, align 8
  %2 = load i32, ptr %1, align 4
  %call = call i32 (ptr, i64, ptr, ...) @snprintf(ptr noundef null, i64 noundef 0, ptr noundef %0, i32 noundef %2) #8
  %add = add nsw i32 %call, 1
  %conv = sext i32 %add to i64
  store i64 %conv, ptr %size, align 8
  store i1 false, ptr %nrvo, align 1
  call void @_ZNSt7__cxx1112basic_stringIcSt11char_traitsIcESaIcEEC1Ev(ptr noundef nonnull align 8 dereferenceable(32) %agg.result) #8
  %3 = load i64, ptr %size, align 8
  invoke void @_ZNSt7__cxx1112basic_stringIcSt11char_traitsIcESaIcEE6resizeEm(ptr noundef nonnull align 8 dereferenceable(32) %agg.result, i64 noundef %3)
          to label %invoke.cont unwind label %lpad

invoke.cont:                                      ; preds = %entry
  %call2 = invoke noundef nonnull align 1 dereferenceable(1) ptr @_ZNSt7__cxx1112basic_stringIcSt11char_traitsIcESaIcEEixEm(ptr noundef nonnull align 8 dereferenceable(32) %agg.result, i64 noundef 0)
          to label %invoke.cont1 unwind label %lpad

invoke.cont1:                                     ; preds = %invoke.cont
  %4 = load i64, ptr %size, align 8
  %5 = load ptr, ptr %fmt.addr, align 8
  %6 = load ptr, ptr %v.addr, align 8
  %7 = load i32, ptr %6, align 4
  %call3 = call i32 (ptr, i64, ptr, ...) @snprintf(ptr noundef %call2, i64 noundef %4, ptr noundef %5, i32 noundef %7) #8
  call void @_ZNSt7__cxx1112basic_stringIcSt11char_traitsIcESaIcEE8pop_backEv(ptr noundef nonnull align 8 dereferenceable(32) %agg.result) #8
  store i1 true, ptr %nrvo, align 1
  %nrvo.val = load i1, ptr %nrvo, align 1
  br i1 %nrvo.val, label %nrvo.skipdtor, label %nrvo.unused

lpad:                                             ; preds = %invoke.cont, %entry
  %8 = landingpad { ptr, i32 }
          cleanup
  %9 = extractvalue { ptr, i32 } %8, 0
  store ptr %9, ptr %exn.slot, align 8
  %10 = extractvalue { ptr, i32 } %8, 1
  store i32 %10, ptr %ehselector.slot, align 4
  call void @_ZNSt7__cxx1112basic_stringIcSt11char_traitsIcESaIcEED1Ev(ptr noundef nonnull align 8 dereferenceable(32) %agg.result) #8
  br label %eh.resume

nrvo.unused:                                      ; preds = %invoke.cont1
  call void @_ZNSt7__cxx1112basic_stringIcSt11char_traitsIcESaIcEED1Ev(ptr noundef nonnull align 8 dereferenceable(32) %agg.result) #8
  br label %nrvo.skipdtor

nrvo.skipdtor:                                    ; preds = %nrvo.unused, %invoke.cont1
  ret void

eh.resume:                                        ; preds = %lpad
  %exn = load ptr, ptr %exn.slot, align 8
  %sel = load i32, ptr %ehselector.slot, align 4
  %lpad.val = insertvalue { ptr, i32 } poison, ptr %exn, 0
  %lpad.val4 = insertvalue { ptr, i32 } %lpad.val, i32 %sel, 1
  resume { ptr, i32 } %lpad.val4
}

declare noundef nonnull align 8 dereferenceable(8) ptr @_ZNSolsEi(ptr noundef nonnull align 8 dereferenceable(8), i32 noundef) #4

; Function Attrs: mustprogress uwtable
define linkonce_odr dso_local void @_ZN4pbrt6detail21stringPrintfRecursiveIRKiJEEEvPNSt7__cxx1112basic_stringIcSt11char_traitsIcESaIcEEEPKcOT_DpOT0_(ptr noundef %s, ptr noundef %fmt, ptr noundef nonnull align 4 dereferenceable(4) %v) #1 comdat personality ptr @__gxx_personality_v0 {
entry:
  %s.addr = alloca ptr, align 8
  %fmt.addr = alloca ptr, align 8
  %v.addr = alloca ptr, align 8
  %nextFmt = alloca %"class.std::__cxx11::basic_string", align 8
  %precisionViaArg = alloca i8, align 1
  %isSFmt = alloca i8, align 1
  %isDFmt = alloca i8, align 1
  %exn.slot = alloca ptr, align 8
  %ehselector.slot = alloca i32, align 4
  %cleanup.dest.slot = alloca i32, align 4
  %ref.tmp = alloca %"class.std::__cxx11::basic_string", align 8
  %ss = alloca %"class.std::__cxx11::basic_stringstream", align 8
  %ref.tmp25 = alloca %"class.std::__cxx11::basic_string", align 8
  %ref.tmp27 = alloca ptr, align 8
  %ref.tmp28 = alloca %"class.std::__cxx11::basic_string", align 8
  %ref.tmp39 = alloca %"class.std::__cxx11::basic_string", align 8
  store ptr %s, ptr %s.addr, align 8
  store ptr %fmt, ptr %fmt.addr, align 8
  store ptr %v, ptr %v.addr, align 8
  %0 = load ptr, ptr %s.addr, align 8
  call void @_ZN4pbrt6detail18copyToFormatStringEPPKcPNSt7__cxx1112basic_stringIcSt11char_traitsIcESaIcEEE(ptr sret(%"class.std::__cxx11::basic_string") align 8 %nextFmt, ptr noundef %fmt.addr, ptr noundef %0)
  %call = call noundef i64 @_ZNKSt7__cxx1112basic_stringIcSt11char_traitsIcESaIcEE4findEcm(ptr noundef nonnull align 8 dereferenceable(32) %nextFmt, i8 noundef signext 42, i64 noundef 0) #8
  %cmp = icmp ne i64 %call, -1
  %frombool = zext i1 %cmp to i8
  store i8 %frombool, ptr %precisionViaArg, align 1
  %call1 = call noundef i64 @_ZNKSt7__cxx1112basic_stringIcSt11char_traitsIcESaIcEE4findEcm(ptr noundef nonnull align 8 dereferenceable(32) %nextFmt, i8 noundef signext 115, i64 noundef 0) #8
  %cmp2 = icmp ne i64 %call1, -1
  %frombool3 = zext i1 %cmp2 to i8
  store i8 %frombool3, ptr %isSFmt, align 1
  %call4 = call noundef i64 @_ZNKSt7__cxx1112basic_stringIcSt11char_traitsIcESaIcEE4findEcm(ptr noundef nonnull align 8 dereferenceable(32) %nextFmt, i8 noundef signext 100, i64 noundef 0) #8
  %cmp5 = icmp ne i64 %call4, -1
  %frombool6 = zext i1 %cmp5 to i8
  store i8 %frombool6, ptr %isDFmt, align 1
  %1 = load i8, ptr %precisionViaArg, align 1
  %tobool = trunc i8 %1 to i1
  br i1 %tobool, label %if.then, label %if.end

if.then:                                          ; preds = %entry
  %2 = load ptr, ptr %s.addr, align 8
  %3 = load ptr, ptr %fmt.addr, align 8
  %4 = load ptr, ptr %v.addr, align 8
  invoke void @_ZN4pbrt6detail34stringPrintfRecursiveWithPrecisionIRKiJEEEvPNSt7__cxx1112basic_stringIcSt11char_traitsIcESaIcEEEPKcRKS9_OT_DpOT0_(ptr noundef %2, ptr noundef %3, ptr noundef nonnull align 8 dereferenceable(32) %nextFmt, ptr noundef nonnull align 4 dereferenceable(4) %4)
          to label %invoke.cont unwind label %lpad

invoke.cont:                                      ; preds = %if.then
  store i32 1, ptr %cleanup.dest.slot, align 4
  br label %cleanup

lpad:                                             ; preds = %done, %if.else46, %if.then38, %if.then20, %invoke.cont11, %if.then8, %if.then
  %5 = landingpad { ptr, i32 }
          cleanup
  %6 = extractvalue { ptr, i32 } %5, 0
  store ptr %6, ptr %exn.slot, align 8
  %7 = extractvalue { ptr, i32 } %5, 1
  store i32 %7, ptr %ehselector.slot, align 4
  br label %ehcleanup51

if.end:                                           ; preds = %entry
  %8 = load i8, ptr %isDFmt, align 1
  %tobool7 = trunc i8 %8 to i1
  br i1 %tobool7, label %if.then8, label %if.end18

if.then8:                                         ; preds = %if.end
  %call9 = call noundef i64 @_ZNKSt7__cxx1112basic_stringIcSt11char_traitsIcESaIcEE4findEcm(ptr noundef nonnull align 8 dereferenceable(32) %nextFmt, i8 noundef signext 100, i64 noundef 0) #8
  %call10 = call noundef ptr @_ZN4pbrt6detail18IntegerFormatTraitIiE3fmtEv()
  %call12 = invoke noundef nonnull align 8 dereferenceable(32) ptr @_ZNSt7__cxx1112basic_stringIcSt11char_traitsIcESaIcEE7replaceEmmPKc(ptr noundef nonnull align 8 dereferenceable(32) %nextFmt, i64 noundef %call9, i64 noundef 1, ptr noundef %call10)
          to label %invoke.cont11 unwind label %lpad

invoke.cont11:                                    ; preds = %if.then8
  %call13 = call noundef ptr @_ZNKSt7__cxx1112basic_stringIcSt11char_traitsIcESaIcEE5c_strEv(ptr noundef nonnull align 8 dereferenceable(32) %nextFmt) #8
  %9 = load ptr, ptr %v.addr, align 8
  invoke void @_ZN4pbrt6detail9formatOneIRKiEENSt9enable_ifIXntsr3stdE10is_class_vINSt5decayIT_E4typeEEENSt7__cxx1112basic_stringIcSt11char_traitsIcESaIcEEEE4typeEPKcOS6_(ptr sret(%"class.std::__cxx11::basic_string") align 8 %ref.tmp, ptr noundef %call13, ptr noundef nonnull align 4 dereferenceable(4) %9)
          to label %invoke.cont14 unwind label %lpad

invoke.cont14:                                    ; preds = %invoke.cont11
  %10 = load ptr, ptr %s.addr, align 8
  %call17 = invoke noundef nonnull align 8 dereferenceable(32) ptr @_ZNSt7__cxx1112basic_stringIcSt11char_traitsIcESaIcEEpLERKS4_(ptr noundef nonnull align 8 dereferenceable(32) %10, ptr noundef nonnull align 8 dereferenceable(32) %ref.tmp)
          to label %invoke.cont16 unwind label %lpad15

invoke.cont16:                                    ; preds = %invoke.cont14
  call void @_ZNSt7__cxx1112basic_stringIcSt11char_traitsIcESaIcEED1Ev(ptr noundef nonnull align 8 dereferenceable(32) %ref.tmp) #8
  br label %done

lpad15:                                           ; preds = %invoke.cont14
  %11 = landingpad { ptr, i32 }
          cleanup
  %12 = extractvalue { ptr, i32 } %11, 0
  store ptr %12, ptr %exn.slot, align 8
  %13 = extractvalue { ptr, i32 } %11, 1
  store i32 %13, ptr %ehselector.slot, align 4
  call void @_ZNSt7__cxx1112basic_stringIcSt11char_traitsIcESaIcEED1Ev(ptr noundef nonnull align 8 dereferenceable(32) %ref.tmp) #8
  br label %ehcleanup51

if.end18:                                         ; preds = %if.end
  %14 = load i8, ptr %isSFmt, align 1
  %tobool19 = trunc i8 %14 to i1
  br i1 %tobool19, label %if.then20, label %if.else

if.then20:                                        ; preds = %if.end18
  invoke void @_ZNSt7__cxx1118basic_stringstreamIcSt11char_traitsIcESaIcEEC1Ev(ptr noundef nonnull align 8 dereferenceable(128) %ss)
          to label %invoke.cont21 unwind label %lpad

invoke.cont21:                                    ; preds = %if.then20
  %add.ptr = getelementptr inbounds i8, ptr %ss, i64 16
  %15 = load ptr, ptr %v.addr, align 8
  %16 = load i32, ptr %15, align 4
  %call24 = invoke noundef nonnull align 8 dereferenceable(8) ptr @_ZNSolsEi(ptr noundef nonnull align 8 dereferenceable(8) %add.ptr, i32 noundef %16)
          to label %invoke.cont23 unwind label %lpad22

invoke.cont23:                                    ; preds = %invoke.cont21
  %call26 = call noundef ptr @_ZNKSt7__cxx1112basic_stringIcSt11char_traitsIcESaIcEE5c_strEv(ptr noundef nonnull align 8 dereferenceable(32) %nextFmt) #8
  invoke void @_ZNKSt7__cxx1118basic_stringstreamIcSt11char_traitsIcESaIcEE3strEv(ptr sret(%"class.std::__cxx11::basic_string") align 8 %ref.tmp28, ptr noundef nonnull align 8 dereferenceable(128) %ss)
          to label %invoke.cont29 unwind label %lpad22

invoke.cont29:                                    ; preds = %invoke.cont23
  %call30 = call noundef ptr @_ZNKSt7__cxx1112basic_stringIcSt11char_traitsIcESaIcEE5c_strEv(ptr noundef nonnull align 8 dereferenceable(32) %ref.tmp28) #8
  store ptr %call30, ptr %ref.tmp27, align 8
  invoke void @_ZN4pbrt6detail9formatOneIPKcEENSt9enable_ifIXntsr3stdE10is_class_vINSt5decayIT_E4typeEEENSt7__cxx1112basic_stringIcSt11char_traitsIcESaIcEEEE4typeES3_OS6_(ptr sret(%"class.std::__cxx11::basic_string") align 8 %ref.tmp25, ptr noundef %call26, ptr noundef nonnull align 8 dereferenceable(8) %ref.tmp27)
          to label %invoke.cont32 unwind label %lpad31

invoke.cont32:                                    ; preds = %invoke.cont29
  %17 = load ptr, ptr %s.addr, align 8
  %call35 = invoke noundef nonnull align 8 dereferenceable(32) ptr @_ZNSt7__cxx1112basic_stringIcSt11char_traitsIcESaIcEEpLERKS4_(ptr noundef nonnull align 8 dereferenceable(32) %17, ptr noundef nonnull align 8 dereferenceable(32) %ref.tmp25)
          to label %invoke.cont34 unwind label %lpad33

invoke.cont34:                                    ; preds = %invoke.cont32
  call void @_ZNSt7__cxx1112basic_stringIcSt11char_traitsIcESaIcEED1Ev(ptr noundef nonnull align 8 dereferenceable(32) %ref.tmp25) #8
  call void @_ZNSt7__cxx1112basic_stringIcSt11char_traitsIcESaIcEED1Ev(ptr noundef nonnull align 8 dereferenceable(32) %ref.tmp28) #8
  call void @_ZNSt7__cxx1118basic_stringstreamIcSt11char_traitsIcESaIcEED1Ev(ptr noundef nonnull align 8 dereferenceable(128) %ss) #8
  br label %if.end49

lpad22:                                           ; preds = %invoke.cont23, %invoke.cont21
  %18 = landingpad { ptr, i32 }
          cleanup
  %19 = extractvalue { ptr, i32 } %18, 0
  store ptr %19, ptr %exn.slot, align 8
  %20 = extractvalue { ptr, i32 } %18, 1
  store i32 %20, ptr %ehselector.slot, align 4
  br label %ehcleanup36

lpad31:                                           ; preds = %invoke.cont29
  %21 = landingpad { ptr, i32 }
          cleanup
  %22 = extractvalue { ptr, i32 } %21, 0
  store ptr %22, ptr %exn.slot, align 8
  %23 = extractvalue { ptr, i32 } %21, 1
  store i32 %23, ptr %ehselector.slot, align 4
  br label %ehcleanup

lpad33:                                           ; preds = %invoke.cont32
  %24 = landingpad { ptr, i32 }
          cleanup
  %25 = extractvalue { ptr, i32 } %24, 0
  store ptr %25, ptr %exn.slot, align 8
  %26 = extractvalue { ptr, i32 } %24, 1
  store i32 %26, ptr %ehselector.slot, align 4
  call void @_ZNSt7__cxx1112basic_stringIcSt11char_traitsIcESaIcEED1Ev(ptr noundef nonnull align 8 dereferenceable(32) %ref.tmp25) #8
  br label %ehcleanup

ehcleanup:                                        ; preds = %lpad33, %lpad31
  call void @_ZNSt7__cxx1112basic_stringIcSt11char_traitsIcESaIcEED1Ev(ptr noundef nonnull align 8 dereferenceable(32) %ref.tmp28) #8
  br label %ehcleanup36

ehcleanup36:                                      ; preds = %ehcleanup, %lpad22
  call void @_ZNSt7__cxx1118basic_stringstreamIcSt11char_traitsIcESaIcEED1Ev(ptr noundef nonnull align 8 dereferenceable(128) %ss) #8
  br label %ehcleanup51

if.else:                                          ; preds = %if.end18
  %call37 = call noundef zeroext i1 @_ZNKSt7__cxx1112basic_stringIcSt11char_traitsIcESaIcEE5emptyEv(ptr noundef nonnull align 8 dereferenceable(32) %nextFmt) #8
  br i1 %call37, label %if.else46, label %if.then38

if.then38:                                        ; preds = %if.else
  %call40 = call noundef ptr @_ZNKSt7__cxx1112basic_stringIcSt11char_traitsIcESaIcEE5c_strEv(ptr noundef nonnull align 8 dereferenceable(32) %nextFmt) #8
  %27 = load ptr, ptr %v.addr, align 8
  invoke void @_ZN4pbrt6detail9formatOneIRKiEENSt9enable_ifIXntsr3stdE10is_class_vINSt5decayIT_E4typeEEENSt7__cxx1112basic_stringIcSt11char_traitsIcESaIcEEEE4typeEPKcOS6_(ptr sret(%"class.std::__cxx11::basic_string") align 8 %ref.tmp39, ptr noundef %call40, ptr noundef nonnull align 4 dereferenceable(4) %27)
          to label %invoke.cont41 unwind label %lpad

invoke.cont41:                                    ; preds = %if.then38
  %28 = load ptr, ptr %s.addr, align 8
  %call44 = invoke noundef nonnull align 8 dereferenceable(32) ptr @_ZNSt7__cxx1112basic_stringIcSt11char_traitsIcESaIcEEpLERKS4_(ptr noundef nonnull align 8 dereferenceable(32) %28, ptr noundef nonnull align 8 dereferenceable(32) %ref.tmp39)
          to label %invoke.cont43 unwind label %lpad42

invoke.cont43:                                    ; preds = %invoke.cont41
  call void @_ZNSt7__cxx1112basic_stringIcSt11char_traitsIcESaIcEED1Ev(ptr noundef nonnull align 8 dereferenceable(32) %ref.tmp39) #8
  br label %if.end48

lpad42:                                           ; preds = %invoke.cont41
  %29 = landingpad { ptr, i32 }
          cleanup
  %30 = extractvalue { ptr, i32 } %29, 0
  store ptr %30, ptr %exn.slot, align 8
  %31 = extractvalue { ptr, i32 } %29, 1
  store i32 %31, ptr %ehselector.slot, align 4
  call void @_ZNSt7__cxx1112basic_stringIcSt11char_traitsIcESaIcEED1Ev(ptr noundef nonnull align 8 dereferenceable(32) %ref.tmp39) #8
  br label %ehcleanup51

if.else46:                                        ; preds = %if.else
  invoke void @_ZN4pbrt8LogFatalENS_8LogLevelEPKciS2_(i32 noundef 2, ptr noundef @.str.12, i32 noundef 266, ptr noundef @.str.15) #13
          to label %invoke.cont47 unwind label %lpad

invoke.cont47:                                    ; preds = %if.else46
  unreachable

if.end48:                                         ; preds = %invoke.cont43
  br label %if.end49

if.end49:                                         ; preds = %if.end48, %invoke.cont34
  br label %done

done:                                             ; preds = %if.end49, %invoke.cont16
  %32 = load ptr, ptr %s.addr, align 8
  %33 = load ptr, ptr %fmt.addr, align 8
  invoke void @_ZN4pbrt6detail21stringPrintfRecursiveEPNSt7__cxx1112basic_stringIcSt11char_traitsIcESaIcEEEPKc(ptr noundef %32, ptr noundef %33)
          to label %invoke.cont50 unwind label %lpad

invoke.cont50:                                    ; preds = %done
  store i32 0, ptr %cleanup.dest.slot, align 4
  br label %cleanup

cleanup:                                          ; preds = %invoke.cont50, %invoke.cont
  call void @_ZNSt7__cxx1112basic_stringIcSt11char_traitsIcESaIcEED1Ev(ptr noundef nonnull align 8 dereferenceable(32) %nextFmt) #8
  %cleanup.dest = load i32, ptr %cleanup.dest.slot, align 4
  switch i32 %cleanup.dest, label %unreachable [
    i32 0, label %cleanup.cont
    i32 1, label %cleanup.cont
  ]

cleanup.cont:                                     ; preds = %cleanup, %cleanup
  ret void

ehcleanup51:                                      ; preds = %lpad42, %ehcleanup36, %lpad15, %lpad
  call void @_ZNSt7__cxx1112basic_stringIcSt11char_traitsIcESaIcEED1Ev(ptr noundef nonnull align 8 dereferenceable(32) %nextFmt) #8
  br label %eh.resume

eh.resume:                                        ; preds = %ehcleanup51
  %exn = load ptr, ptr %exn.slot, align 8
  %sel = load i32, ptr %ehselector.slot, align 4
  %lpad.val = insertvalue { ptr, i32 } poison, ptr %exn, 0
  %lpad.val52 = insertvalue { ptr, i32 } %lpad.val, i32 %sel, 1
  resume { ptr, i32 } %lpad.val52

unreachable:                                      ; preds = %cleanup
  unreachable
}

; Function Attrs: mustprogress uwtable
define linkonce_odr dso_local void @_ZN4pbrt6detail34stringPrintfRecursiveWithPrecisionIRKiJEEEvPNSt7__cxx1112basic_stringIcSt11char_traitsIcESaIcEEEPKcRKS9_OT_DpOT0_(ptr noundef %s, ptr noundef %fmt, ptr noundef nonnull align 8 dereferenceable(32) %nextFmt, ptr noundef nonnull align 4 dereferenceable(4) %v) #1 comdat {
entry:
  %s.addr = alloca ptr, align 8
  %fmt.addr = alloca ptr, align 8
  %nextFmt.addr = alloca ptr, align 8
  %v.addr = alloca ptr, align 8
  store ptr %s, ptr %s.addr, align 8
  store ptr %fmt, ptr %fmt.addr, align 8
  store ptr %nextFmt, ptr %nextFmt.addr, align 8
  store ptr %v, ptr %v.addr, align 8
  call void @_ZN4pbrt8LogFatalENS_8LogLevelEPKciS2_(i32 noundef 2, ptr noundef @.str.12, i32 noundef 187, ptr noundef @.str.18) #13
  unreachable
}

; Function Attrs: mustprogress uwtable
define linkonce_odr dso_local void @_ZN4pbrt6detail21stringPrintfRecursiveIPcJRiEEEvPNSt7__cxx1112basic_stringIcSt11char_traitsIcESaIcEEEPKcOT_DpOT0_(ptr noundef %s, ptr noundef %fmt, ptr noundef nonnull align 8 dereferenceable(8) %v, ptr noundef nonnull align 4 dereferenceable(4) %args) #1 comdat personality ptr @__gxx_personality_v0 {
entry:
  %s.addr = alloca ptr, align 8
  %fmt.addr = alloca ptr, align 8
  %v.addr = alloca ptr, align 8
  %args.addr = alloca ptr, align 8
  %nextFmt = alloca %"class.std::__cxx11::basic_string", align 8
  %precisionViaArg = alloca i8, align 1
  %isSFmt = alloca i8, align 1
  %isDFmt = alloca i8, align 1
  %exn.slot = alloca ptr, align 8
  %ehselector.slot = alloca i32, align 4
  %ss = alloca %"class.std::__cxx11::basic_stringstream", align 8
  %ref.tmp = alloca %"class.std::__cxx11::basic_string", align 8
  %ref.tmp18 = alloca ptr, align 8
  %ref.tmp19 = alloca %"class.std::__cxx11::basic_string", align 8
  %ref.tmp30 = alloca %"class.std::__cxx11::basic_string", align 8
  store ptr %s, ptr %s.addr, align 8
  store ptr %fmt, ptr %fmt.addr, align 8
  store ptr %v, ptr %v.addr, align 8
  store ptr %args, ptr %args.addr, align 8
  %0 = load ptr, ptr %s.addr, align 8
  call void @_ZN4pbrt6detail18copyToFormatStringEPPKcPNSt7__cxx1112basic_stringIcSt11char_traitsIcESaIcEEE(ptr sret(%"class.std::__cxx11::basic_string") align 8 %nextFmt, ptr noundef %fmt.addr, ptr noundef %0)
  %call = call noundef i64 @_ZNKSt7__cxx1112basic_stringIcSt11char_traitsIcESaIcEE4findEcm(ptr noundef nonnull align 8 dereferenceable(32) %nextFmt, i8 noundef signext 42, i64 noundef 0) #8
  %cmp = icmp ne i64 %call, -1
  %frombool = zext i1 %cmp to i8
  store i8 %frombool, ptr %precisionViaArg, align 1
  %call1 = call noundef i64 @_ZNKSt7__cxx1112basic_stringIcSt11char_traitsIcESaIcEE4findEcm(ptr noundef nonnull align 8 dereferenceable(32) %nextFmt, i8 noundef signext 115, i64 noundef 0) #8
  %cmp2 = icmp ne i64 %call1, -1
  %frombool3 = zext i1 %cmp2 to i8
  store i8 %frombool3, ptr %isSFmt, align 1
  %call4 = call noundef i64 @_ZNKSt7__cxx1112basic_stringIcSt11char_traitsIcESaIcEE4findEcm(ptr noundef nonnull align 8 dereferenceable(32) %nextFmt, i8 noundef signext 100, i64 noundef 0) #8
  %cmp5 = icmp ne i64 %call4, -1
  %frombool6 = zext i1 %cmp5 to i8
  store i8 %frombool6, ptr %isDFmt, align 1
  %1 = load i8, ptr %precisionViaArg, align 1
  %tobool = trunc i8 %1 to i1
  br i1 %tobool, label %if.then, label %if.end

if.then:                                          ; preds = %entry
  invoke void @_ZN4pbrt8LogFatalENS_8LogLevelEPKciS2_(i32 noundef 2, ptr noundef @.str.12, i32 noundef 229, ptr noundef @.str.13) #13
          to label %invoke.cont unwind label %lpad

invoke.cont:                                      ; preds = %if.then
  unreachable

lpad:                                             ; preds = %done, %if.else37, %if.then29, %if.then12, %if.then8, %if.then
  %2 = landingpad { ptr, i32 }
          cleanup
  %3 = extractvalue { ptr, i32 } %2, 0
  store ptr %3, ptr %exn.slot, align 8
  %4 = extractvalue { ptr, i32 } %2, 1
  store i32 %4, ptr %ehselector.slot, align 4
  br label %ehcleanup42

if.end:                                           ; preds = %entry
  %5 = load i8, ptr %isDFmt, align 1
  %tobool7 = trunc i8 %5 to i1
  br i1 %tobool7, label %if.then8, label %if.end10

if.then8:                                         ; preds = %if.end
  invoke void @_ZN4pbrt8LogFatalENS_8LogLevelEPKciS2_(i32 noundef 2, ptr noundef @.str.12, i32 noundef 257, ptr noundef @.str.14) #13
          to label %invoke.cont9 unwind label %lpad

invoke.cont9:                                     ; preds = %if.then8
  unreachable

if.end10:                                         ; preds = %if.end
  %6 = load i8, ptr %isSFmt, align 1
  %tobool11 = trunc i8 %6 to i1
  br i1 %tobool11, label %if.then12, label %if.else

if.then12:                                        ; preds = %if.end10
  invoke void @_ZNSt7__cxx1118basic_stringstreamIcSt11char_traitsIcESaIcEEC1Ev(ptr noundef nonnull align 8 dereferenceable(128) %ss)
          to label %invoke.cont13 unwind label %lpad

invoke.cont13:                                    ; preds = %if.then12
  %add.ptr = getelementptr inbounds i8, ptr %ss, i64 16
  %7 = load ptr, ptr %v.addr, align 8
  %8 = load ptr, ptr %7, align 8
  %call16 = invoke noundef nonnull align 8 dereferenceable(8) ptr @_ZStlsISt11char_traitsIcEERSt13basic_ostreamIcT_ES5_PKc(ptr noundef nonnull align 8 dereferenceable(8) %add.ptr, ptr noundef %8)
          to label %invoke.cont15 unwind label %lpad14

invoke.cont15:                                    ; preds = %invoke.cont13
  %call17 = call noundef ptr @_ZNKSt7__cxx1112basic_stringIcSt11char_traitsIcESaIcEE5c_strEv(ptr noundef nonnull align 8 dereferenceable(32) %nextFmt) #8
  invoke void @_ZNKSt7__cxx1118basic_stringstreamIcSt11char_traitsIcESaIcEE3strEv(ptr sret(%"class.std::__cxx11::basic_string") align 8 %ref.tmp19, ptr noundef nonnull align 8 dereferenceable(128) %ss)
          to label %invoke.cont20 unwind label %lpad14

invoke.cont20:                                    ; preds = %invoke.cont15
  %call21 = call noundef ptr @_ZNKSt7__cxx1112basic_stringIcSt11char_traitsIcESaIcEE5c_strEv(ptr noundef nonnull align 8 dereferenceable(32) %ref.tmp19) #8
  store ptr %call21, ptr %ref.tmp18, align 8
  invoke void @_ZN4pbrt6detail9formatOneIPKcEENSt9enable_ifIXntsr3stdE10is_class_vINSt5decayIT_E4typeEEENSt7__cxx1112basic_stringIcSt11char_traitsIcESaIcEEEE4typeES3_OS6_(ptr sret(%"class.std::__cxx11::basic_string") align 8 %ref.tmp, ptr noundef %call17, ptr noundef nonnull align 8 dereferenceable(8) %ref.tmp18)
          to label %invoke.cont23 unwind label %lpad22

invoke.cont23:                                    ; preds = %invoke.cont20
  %9 = load ptr, ptr %s.addr, align 8
  %call26 = invoke noundef nonnull align 8 dereferenceable(32) ptr @_ZNSt7__cxx1112basic_stringIcSt11char_traitsIcESaIcEEpLERKS4_(ptr noundef nonnull align 8 dereferenceable(32) %9, ptr noundef nonnull align 8 dereferenceable(32) %ref.tmp)
          to label %invoke.cont25 unwind label %lpad24

invoke.cont25:                                    ; preds = %invoke.cont23
  call void @_ZNSt7__cxx1112basic_stringIcSt11char_traitsIcESaIcEED1Ev(ptr noundef nonnull align 8 dereferenceable(32) %ref.tmp) #8
  call void @_ZNSt7__cxx1112basic_stringIcSt11char_traitsIcESaIcEED1Ev(ptr noundef nonnull align 8 dereferenceable(32) %ref.tmp19) #8
  call void @_ZNSt7__cxx1118basic_stringstreamIcSt11char_traitsIcESaIcEED1Ev(ptr noundef nonnull align 8 dereferenceable(128) %ss) #8
  br label %if.end40

lpad14:                                           ; preds = %invoke.cont15, %invoke.cont13
  %10 = landingpad { ptr, i32 }
          cleanup
  %11 = extractvalue { ptr, i32 } %10, 0
  store ptr %11, ptr %exn.slot, align 8
  %12 = extractvalue { ptr, i32 } %10, 1
  store i32 %12, ptr %ehselector.slot, align 4
  br label %ehcleanup27

lpad22:                                           ; preds = %invoke.cont20
  %13 = landingpad { ptr, i32 }
          cleanup
  %14 = extractvalue { ptr, i32 } %13, 0
  store ptr %14, ptr %exn.slot, align 8
  %15 = extractvalue { ptr, i32 } %13, 1
  store i32 %15, ptr %ehselector.slot, align 4
  br label %ehcleanup

lpad24:                                           ; preds = %invoke.cont23
  %16 = landingpad { ptr, i32 }
          cleanup
  %17 = extractvalue { ptr, i32 } %16, 0
  store ptr %17, ptr %exn.slot, align 8
  %18 = extractvalue { ptr, i32 } %16, 1
  store i32 %18, ptr %ehselector.slot, align 4
  call void @_ZNSt7__cxx1112basic_stringIcSt11char_traitsIcESaIcEED1Ev(ptr noundef nonnull align 8 dereferenceable(32) %ref.tmp) #8
  br label %ehcleanup

ehcleanup:                                        ; preds = %lpad24, %lpad22
  call void @_ZNSt7__cxx1112basic_stringIcSt11char_traitsIcESaIcEED1Ev(ptr noundef nonnull align 8 dereferenceable(32) %ref.tmp19) #8
  br label %ehcleanup27

ehcleanup27:                                      ; preds = %ehcleanup, %lpad14
  call void @_ZNSt7__cxx1118basic_stringstreamIcSt11char_traitsIcESaIcEED1Ev(ptr noundef nonnull align 8 dereferenceable(128) %ss) #8
  br label %ehcleanup42

if.else:                                          ; preds = %if.end10
  %call28 = call noundef zeroext i1 @_ZNKSt7__cxx1112basic_stringIcSt11char_traitsIcESaIcEE5emptyEv(ptr noundef nonnull align 8 dereferenceable(32) %nextFmt) #8
  br i1 %call28, label %if.else37, label %if.then29

if.then29:                                        ; preds = %if.else
  %call31 = call noundef ptr @_ZNKSt7__cxx1112basic_stringIcSt11char_traitsIcESaIcEE5c_strEv(ptr noundef nonnull align 8 dereferenceable(32) %nextFmt) #8
  %19 = load ptr, ptr %v.addr, align 8
  invoke void @_ZN4pbrt6detail9formatOneIPcEENSt9enable_ifIXntsr3stdE10is_class_vINSt5decayIT_E4typeEEENSt7__cxx1112basic_stringIcSt11char_traitsIcESaIcEEEE4typeEPKcOS5_(ptr sret(%"class.std::__cxx11::basic_string") align 8 %ref.tmp30, ptr noundef %call31, ptr noundef nonnull align 8 dereferenceable(8) %19)
          to label %invoke.cont32 unwind label %lpad

invoke.cont32:                                    ; preds = %if.then29
  %20 = load ptr, ptr %s.addr, align 8
  %call35 = invoke noundef nonnull align 8 dereferenceable(32) ptr @_ZNSt7__cxx1112basic_stringIcSt11char_traitsIcESaIcEEpLERKS4_(ptr noundef nonnull align 8 dereferenceable(32) %20, ptr noundef nonnull align 8 dereferenceable(32) %ref.tmp30)
          to label %invoke.cont34 unwind label %lpad33

invoke.cont34:                                    ; preds = %invoke.cont32
  call void @_ZNSt7__cxx1112basic_stringIcSt11char_traitsIcESaIcEED1Ev(ptr noundef nonnull align 8 dereferenceable(32) %ref.tmp30) #8
  br label %if.end39

lpad33:                                           ; preds = %invoke.cont32
  %21 = landingpad { ptr, i32 }
          cleanup
  %22 = extractvalue { ptr, i32 } %21, 0
  store ptr %22, ptr %exn.slot, align 8
  %23 = extractvalue { ptr, i32 } %21, 1
  store i32 %23, ptr %ehselector.slot, align 4
  call void @_ZNSt7__cxx1112basic_stringIcSt11char_traitsIcESaIcEED1Ev(ptr noundef nonnull align 8 dereferenceable(32) %ref.tmp30) #8
  br label %ehcleanup42

if.else37:                                        ; preds = %if.else
  invoke void @_ZN4pbrt8LogFatalENS_8LogLevelEPKciS2_(i32 noundef 2, ptr noundef @.str.12, i32 noundef 266, ptr noundef @.str.15) #13
          to label %invoke.cont38 unwind label %lpad

invoke.cont38:                                    ; preds = %if.else37
  unreachable

if.end39:                                         ; preds = %invoke.cont34
  br label %if.end40

if.end40:                                         ; preds = %if.end39, %invoke.cont25
  br label %done

done:                                             ; preds = %if.end40
  %24 = load ptr, ptr %s.addr, align 8
  %25 = load ptr, ptr %fmt.addr, align 8
  %26 = load ptr, ptr %args.addr, align 8
  invoke void @_ZN4pbrt6detail21stringPrintfRecursiveIRiJEEEvPNSt7__cxx1112basic_stringIcSt11char_traitsIcESaIcEEEPKcOT_DpOT0_(ptr noundef %24, ptr noundef %25, ptr noundef nonnull align 4 dereferenceable(4) %26)
          to label %invoke.cont41 unwind label %lpad

invoke.cont41:                                    ; preds = %done
  call void @_ZNSt7__cxx1112basic_stringIcSt11char_traitsIcESaIcEED1Ev(ptr noundef nonnull align 8 dereferenceable(32) %nextFmt) #8
  ret void

ehcleanup42:                                      ; preds = %lpad33, %ehcleanup27, %lpad
  call void @_ZNSt7__cxx1112basic_stringIcSt11char_traitsIcESaIcEED1Ev(ptr noundef nonnull align 8 dereferenceable(32) %nextFmt) #8
  br label %eh.resume

eh.resume:                                        ; preds = %ehcleanup42
  %exn = load ptr, ptr %exn.slot, align 8
  %sel = load i32, ptr %ehselector.slot, align 4
  %lpad.val = insertvalue { ptr, i32 } poison, ptr %exn, 0
  %lpad.val43 = insertvalue { ptr, i32 } %lpad.val, i32 %sel, 1
  resume { ptr, i32 } %lpad.val43
}

; Function Attrs: mustprogress uwtable
define linkonce_odr dso_local void @_ZN4pbrt6detail9formatOneIPcEENSt9enable_ifIXntsr3stdE10is_class_vINSt5decayIT_E4typeEEENSt7__cxx1112basic_stringIcSt11char_traitsIcESaIcEEEE4typeEPKcOS5_(ptr noalias sret(%"class.std::__cxx11::basic_string") align 8 %agg.result, ptr noundef %fmt, ptr noundef nonnull align 8 dereferenceable(8) %v) #1 comdat personality ptr @__gxx_personality_v0 {
entry:
  %result.ptr = alloca ptr, align 8
  %fmt.addr = alloca ptr, align 8
  %v.addr = alloca ptr, align 8
  %size = alloca i64, align 8
  %nrvo = alloca i1, align 1
  %exn.slot = alloca ptr, align 8
  %ehselector.slot = alloca i32, align 4
  store ptr %agg.result, ptr %result.ptr, align 8
  store ptr %fmt, ptr %fmt.addr, align 8
  store ptr %v, ptr %v.addr, align 8
  %0 = load ptr, ptr %fmt.addr, align 8
  %1 = load ptr, ptr %v.addr, align 8
  %2 = load ptr, ptr %1, align 8
  %call = call i32 (ptr, i64, ptr, ...) @snprintf(ptr noundef null, i64 noundef 0, ptr noundef %0, ptr noundef %2) #8
  %add = add nsw i32 %call, 1
  %conv = sext i32 %add to i64
  store i64 %conv, ptr %size, align 8
  store i1 false, ptr %nrvo, align 1
  call void @_ZNSt7__cxx1112basic_stringIcSt11char_traitsIcESaIcEEC1Ev(ptr noundef nonnull align 8 dereferenceable(32) %agg.result) #8
  %3 = load i64, ptr %size, align 8
  invoke void @_ZNSt7__cxx1112basic_stringIcSt11char_traitsIcESaIcEE6resizeEm(ptr noundef nonnull align 8 dereferenceable(32) %agg.result, i64 noundef %3)
          to label %invoke.cont unwind label %lpad

invoke.cont:                                      ; preds = %entry
  %call2 = invoke noundef nonnull align 1 dereferenceable(1) ptr @_ZNSt7__cxx1112basic_stringIcSt11char_traitsIcESaIcEEixEm(ptr noundef nonnull align 8 dereferenceable(32) %agg.result, i64 noundef 0)
          to label %invoke.cont1 unwind label %lpad

invoke.cont1:                                     ; preds = %invoke.cont
  %4 = load i64, ptr %size, align 8
  %5 = load ptr, ptr %fmt.addr, align 8
  %6 = load ptr, ptr %v.addr, align 8
  %7 = load ptr, ptr %6, align 8
  %call3 = call i32 (ptr, i64, ptr, ...) @snprintf(ptr noundef %call2, i64 noundef %4, ptr noundef %5, ptr noundef %7) #8
  call void @_ZNSt7__cxx1112basic_stringIcSt11char_traitsIcESaIcEE8pop_backEv(ptr noundef nonnull align 8 dereferenceable(32) %agg.result) #8
  store i1 true, ptr %nrvo, align 1
  %nrvo.val = load i1, ptr %nrvo, align 1
  br i1 %nrvo.val, label %nrvo.skipdtor, label %nrvo.unused

lpad:                                             ; preds = %invoke.cont, %entry
  %8 = landingpad { ptr, i32 }
          cleanup
  %9 = extractvalue { ptr, i32 } %8, 0
  store ptr %9, ptr %exn.slot, align 8
  %10 = extractvalue { ptr, i32 } %8, 1
  store i32 %10, ptr %ehselector.slot, align 4
  call void @_ZNSt7__cxx1112basic_stringIcSt11char_traitsIcESaIcEED1Ev(ptr noundef nonnull align 8 dereferenceable(32) %agg.result) #8
  br label %eh.resume

nrvo.unused:                                      ; preds = %invoke.cont1
  call void @_ZNSt7__cxx1112basic_stringIcSt11char_traitsIcESaIcEED1Ev(ptr noundef nonnull align 8 dereferenceable(32) %agg.result) #8
  br label %nrvo.skipdtor

nrvo.skipdtor:                                    ; preds = %nrvo.unused, %invoke.cont1
  ret void

eh.resume:                                        ; preds = %lpad
  %exn = load ptr, ptr %exn.slot, align 8
  %sel = load i32, ptr %ehselector.slot, align 4
  %lpad.val = insertvalue { ptr, i32 } poison, ptr %exn, 0
  %lpad.val4 = insertvalue { ptr, i32 } %lpad.val, i32 %sel, 1
  resume { ptr, i32 } %lpad.val4
}

; Function Attrs: mustprogress uwtable
define linkonce_odr dso_local void @_ZN4pbrt6detail21stringPrintfRecursiveIRiJEEEvPNSt7__cxx1112basic_stringIcSt11char_traitsIcESaIcEEEPKcOT_DpOT0_(ptr noundef %s, ptr noundef %fmt, ptr noundef nonnull align 4 dereferenceable(4) %v) #1 comdat personality ptr @__gxx_personality_v0 {
entry:
  %s.addr = alloca ptr, align 8
  %fmt.addr = alloca ptr, align 8
  %v.addr = alloca ptr, align 8
  %nextFmt = alloca %"class.std::__cxx11::basic_string", align 8
  %precisionViaArg = alloca i8, align 1
  %isSFmt = alloca i8, align 1
  %isDFmt = alloca i8, align 1
  %exn.slot = alloca ptr, align 8
  %ehselector.slot = alloca i32, align 4
  %cleanup.dest.slot = alloca i32, align 4
  %ref.tmp = alloca %"class.std::__cxx11::basic_string", align 8
  %ss = alloca %"class.std::__cxx11::basic_stringstream", align 8
  %ref.tmp25 = alloca %"class.std::__cxx11::basic_string", align 8
  %ref.tmp27 = alloca ptr, align 8
  %ref.tmp28 = alloca %"class.std::__cxx11::basic_string", align 8
  %ref.tmp39 = alloca %"class.std::__cxx11::basic_string", align 8
  store ptr %s, ptr %s.addr, align 8
  store ptr %fmt, ptr %fmt.addr, align 8
  store ptr %v, ptr %v.addr, align 8
  %0 = load ptr, ptr %s.addr, align 8
  call void @_ZN4pbrt6detail18copyToFormatStringEPPKcPNSt7__cxx1112basic_stringIcSt11char_traitsIcESaIcEEE(ptr sret(%"class.std::__cxx11::basic_string") align 8 %nextFmt, ptr noundef %fmt.addr, ptr noundef %0)
  %call = call noundef i64 @_ZNKSt7__cxx1112basic_stringIcSt11char_traitsIcESaIcEE4findEcm(ptr noundef nonnull align 8 dereferenceable(32) %nextFmt, i8 noundef signext 42, i64 noundef 0) #8
  %cmp = icmp ne i64 %call, -1
  %frombool = zext i1 %cmp to i8
  store i8 %frombool, ptr %precisionViaArg, align 1
  %call1 = call noundef i64 @_ZNKSt7__cxx1112basic_stringIcSt11char_traitsIcESaIcEE4findEcm(ptr noundef nonnull align 8 dereferenceable(32) %nextFmt, i8 noundef signext 115, i64 noundef 0) #8
  %cmp2 = icmp ne i64 %call1, -1
  %frombool3 = zext i1 %cmp2 to i8
  store i8 %frombool3, ptr %isSFmt, align 1
  %call4 = call noundef i64 @_ZNKSt7__cxx1112basic_stringIcSt11char_traitsIcESaIcEE4findEcm(ptr noundef nonnull align 8 dereferenceable(32) %nextFmt, i8 noundef signext 100, i64 noundef 0) #8
  %cmp5 = icmp ne i64 %call4, -1
  %frombool6 = zext i1 %cmp5 to i8
  store i8 %frombool6, ptr %isDFmt, align 1
  %1 = load i8, ptr %precisionViaArg, align 1
  %tobool = trunc i8 %1 to i1
  br i1 %tobool, label %if.then, label %if.end

if.then:                                          ; preds = %entry
  %2 = load ptr, ptr %s.addr, align 8
  %3 = load ptr, ptr %fmt.addr, align 8
  %4 = load ptr, ptr %v.addr, align 8
  invoke void @_ZN4pbrt6detail34stringPrintfRecursiveWithPrecisionIRiJEEEvPNSt7__cxx1112basic_stringIcSt11char_traitsIcESaIcEEEPKcRKS8_OT_DpOT0_(ptr noundef %2, ptr noundef %3, ptr noundef nonnull align 8 dereferenceable(32) %nextFmt, ptr noundef nonnull align 4 dereferenceable(4) %4)
          to label %invoke.cont unwind label %lpad

invoke.cont:                                      ; preds = %if.then
  store i32 1, ptr %cleanup.dest.slot, align 4
  br label %cleanup

lpad:                                             ; preds = %done, %if.else46, %if.then38, %if.then20, %invoke.cont11, %if.then8, %if.then
  %5 = landingpad { ptr, i32 }
          cleanup
  %6 = extractvalue { ptr, i32 } %5, 0
  store ptr %6, ptr %exn.slot, align 8
  %7 = extractvalue { ptr, i32 } %5, 1
  store i32 %7, ptr %ehselector.slot, align 4
  br label %ehcleanup51

if.end:                                           ; preds = %entry
  %8 = load i8, ptr %isDFmt, align 1
  %tobool7 = trunc i8 %8 to i1
  br i1 %tobool7, label %if.then8, label %if.end18

if.then8:                                         ; preds = %if.end
  %call9 = call noundef i64 @_ZNKSt7__cxx1112basic_stringIcSt11char_traitsIcESaIcEE4findEcm(ptr noundef nonnull align 8 dereferenceable(32) %nextFmt, i8 noundef signext 100, i64 noundef 0) #8
  %call10 = call noundef ptr @_ZN4pbrt6detail18IntegerFormatTraitIiE3fmtEv()
  %call12 = invoke noundef nonnull align 8 dereferenceable(32) ptr @_ZNSt7__cxx1112basic_stringIcSt11char_traitsIcESaIcEE7replaceEmmPKc(ptr noundef nonnull align 8 dereferenceable(32) %nextFmt, i64 noundef %call9, i64 noundef 1, ptr noundef %call10)
          to label %invoke.cont11 unwind label %lpad

invoke.cont11:                                    ; preds = %if.then8
  %call13 = call noundef ptr @_ZNKSt7__cxx1112basic_stringIcSt11char_traitsIcESaIcEE5c_strEv(ptr noundef nonnull align 8 dereferenceable(32) %nextFmt) #8
  %9 = load ptr, ptr %v.addr, align 8
  invoke void @_ZN4pbrt6detail9formatOneIRiEENSt9enable_ifIXntsr3stdE10is_class_vINSt5decayIT_E4typeEEENSt7__cxx1112basic_stringIcSt11char_traitsIcESaIcEEEE4typeEPKcOS5_(ptr sret(%"class.std::__cxx11::basic_string") align 8 %ref.tmp, ptr noundef %call13, ptr noundef nonnull align 4 dereferenceable(4) %9)
          to label %invoke.cont14 unwind label %lpad

invoke.cont14:                                    ; preds = %invoke.cont11
  %10 = load ptr, ptr %s.addr, align 8
  %call17 = invoke noundef nonnull align 8 dereferenceable(32) ptr @_ZNSt7__cxx1112basic_stringIcSt11char_traitsIcESaIcEEpLERKS4_(ptr noundef nonnull align 8 dereferenceable(32) %10, ptr noundef nonnull align 8 dereferenceable(32) %ref.tmp)
          to label %invoke.cont16 unwind label %lpad15

invoke.cont16:                                    ; preds = %invoke.cont14
  call void @_ZNSt7__cxx1112basic_stringIcSt11char_traitsIcESaIcEED1Ev(ptr noundef nonnull align 8 dereferenceable(32) %ref.tmp) #8
  br label %done

lpad15:                                           ; preds = %invoke.cont14
  %11 = landingpad { ptr, i32 }
          cleanup
  %12 = extractvalue { ptr, i32 } %11, 0
  store ptr %12, ptr %exn.slot, align 8
  %13 = extractvalue { ptr, i32 } %11, 1
  store i32 %13, ptr %ehselector.slot, align 4
  call void @_ZNSt7__cxx1112basic_stringIcSt11char_traitsIcESaIcEED1Ev(ptr noundef nonnull align 8 dereferenceable(32) %ref.tmp) #8
  br label %ehcleanup51

if.end18:                                         ; preds = %if.end
  %14 = load i8, ptr %isSFmt, align 1
  %tobool19 = trunc i8 %14 to i1
  br i1 %tobool19, label %if.then20, label %if.else

if.then20:                                        ; preds = %if.end18
  invoke void @_ZNSt7__cxx1118basic_stringstreamIcSt11char_traitsIcESaIcEEC1Ev(ptr noundef nonnull align 8 dereferenceable(128) %ss)
          to label %invoke.cont21 unwind label %lpad

invoke.cont21:                                    ; preds = %if.then20
  %add.ptr = getelementptr inbounds i8, ptr %ss, i64 16
  %15 = load ptr, ptr %v.addr, align 8
  %16 = load i32, ptr %15, align 4
  %call24 = invoke noundef nonnull align 8 dereferenceable(8) ptr @_ZNSolsEi(ptr noundef nonnull align 8 dereferenceable(8) %add.ptr, i32 noundef %16)
          to label %invoke.cont23 unwind label %lpad22

invoke.cont23:                                    ; preds = %invoke.cont21
  %call26 = call noundef ptr @_ZNKSt7__cxx1112basic_stringIcSt11char_traitsIcESaIcEE5c_strEv(ptr noundef nonnull align 8 dereferenceable(32) %nextFmt) #8
  invoke void @_ZNKSt7__cxx1118basic_stringstreamIcSt11char_traitsIcESaIcEE3strEv(ptr sret(%"class.std::__cxx11::basic_string") align 8 %ref.tmp28, ptr noundef nonnull align 8 dereferenceable(128) %ss)
          to label %invoke.cont29 unwind label %lpad22

invoke.cont29:                                    ; preds = %invoke.cont23
  %call30 = call noundef ptr @_ZNKSt7__cxx1112basic_stringIcSt11char_traitsIcESaIcEE5c_strEv(ptr noundef nonnull align 8 dereferenceable(32) %ref.tmp28) #8
  store ptr %call30, ptr %ref.tmp27, align 8
  invoke void @_ZN4pbrt6detail9formatOneIPKcEENSt9enable_ifIXntsr3stdE10is_class_vINSt5decayIT_E4typeEEENSt7__cxx1112basic_stringIcSt11char_traitsIcESaIcEEEE4typeES3_OS6_(ptr sret(%"class.std::__cxx11::basic_string") align 8 %ref.tmp25, ptr noundef %call26, ptr noundef nonnull align 8 dereferenceable(8) %ref.tmp27)
          to label %invoke.cont32 unwind label %lpad31

invoke.cont32:                                    ; preds = %invoke.cont29
  %17 = load ptr, ptr %s.addr, align 8
  %call35 = invoke noundef nonnull align 8 dereferenceable(32) ptr @_ZNSt7__cxx1112basic_stringIcSt11char_traitsIcESaIcEEpLERKS4_(ptr noundef nonnull align 8 dereferenceable(32) %17, ptr noundef nonnull align 8 dereferenceable(32) %ref.tmp25)
          to label %invoke.cont34 unwind label %lpad33

invoke.cont34:                                    ; preds = %invoke.cont32
  call void @_ZNSt7__cxx1112basic_stringIcSt11char_traitsIcESaIcEED1Ev(ptr noundef nonnull align 8 dereferenceable(32) %ref.tmp25) #8
  call void @_ZNSt7__cxx1112basic_stringIcSt11char_traitsIcESaIcEED1Ev(ptr noundef nonnull align 8 dereferenceable(32) %ref.tmp28) #8
  call void @_ZNSt7__cxx1118basic_stringstreamIcSt11char_traitsIcESaIcEED1Ev(ptr noundef nonnull align 8 dereferenceable(128) %ss) #8
  br label %if.end49

lpad22:                                           ; preds = %invoke.cont23, %invoke.cont21
  %18 = landingpad { ptr, i32 }
          cleanup
  %19 = extractvalue { ptr, i32 } %18, 0
  store ptr %19, ptr %exn.slot, align 8
  %20 = extractvalue { ptr, i32 } %18, 1
  store i32 %20, ptr %ehselector.slot, align 4
  br label %ehcleanup36

lpad31:                                           ; preds = %invoke.cont29
  %21 = landingpad { ptr, i32 }
          cleanup
  %22 = extractvalue { ptr, i32 } %21, 0
  store ptr %22, ptr %exn.slot, align 8
  %23 = extractvalue { ptr, i32 } %21, 1
  store i32 %23, ptr %ehselector.slot, align 4
  br label %ehcleanup

lpad33:                                           ; preds = %invoke.cont32
  %24 = landingpad { ptr, i32 }
          cleanup
  %25 = extractvalue { ptr, i32 } %24, 0
  store ptr %25, ptr %exn.slot, align 8
  %26 = extractvalue { ptr, i32 } %24, 1
  store i32 %26, ptr %ehselector.slot, align 4
  call void @_ZNSt7__cxx1112basic_stringIcSt11char_traitsIcESaIcEED1Ev(ptr noundef nonnull align 8 dereferenceable(32) %ref.tmp25) #8
  br label %ehcleanup

ehcleanup:                                        ; preds = %lpad33, %lpad31
  call void @_ZNSt7__cxx1112basic_stringIcSt11char_traitsIcESaIcEED1Ev(ptr noundef nonnull align 8 dereferenceable(32) %ref.tmp28) #8
  br label %ehcleanup36

ehcleanup36:                                      ; preds = %ehcleanup, %lpad22
  call void @_ZNSt7__cxx1118basic_stringstreamIcSt11char_traitsIcESaIcEED1Ev(ptr noundef nonnull align 8 dereferenceable(128) %ss) #8
  br label %ehcleanup51

if.else:                                          ; preds = %if.end18
  %call37 = call noundef zeroext i1 @_ZNKSt7__cxx1112basic_stringIcSt11char_traitsIcESaIcEE5emptyEv(ptr noundef nonnull align 8 dereferenceable(32) %nextFmt) #8
  br i1 %call37, label %if.else46, label %if.then38

if.then38:                                        ; preds = %if.else
  %call40 = call noundef ptr @_ZNKSt7__cxx1112basic_stringIcSt11char_traitsIcESaIcEE5c_strEv(ptr noundef nonnull align 8 dereferenceable(32) %nextFmt) #8
  %27 = load ptr, ptr %v.addr, align 8
  invoke void @_ZN4pbrt6detail9formatOneIRiEENSt9enable_ifIXntsr3stdE10is_class_vINSt5decayIT_E4typeEEENSt7__cxx1112basic_stringIcSt11char_traitsIcESaIcEEEE4typeEPKcOS5_(ptr sret(%"class.std::__cxx11::basic_string") align 8 %ref.tmp39, ptr noundef %call40, ptr noundef nonnull align 4 dereferenceable(4) %27)
          to label %invoke.cont41 unwind label %lpad

invoke.cont41:                                    ; preds = %if.then38
  %28 = load ptr, ptr %s.addr, align 8
  %call44 = invoke noundef nonnull align 8 dereferenceable(32) ptr @_ZNSt7__cxx1112basic_stringIcSt11char_traitsIcESaIcEEpLERKS4_(ptr noundef nonnull align 8 dereferenceable(32) %28, ptr noundef nonnull align 8 dereferenceable(32) %ref.tmp39)
          to label %invoke.cont43 unwind label %lpad42

invoke.cont43:                                    ; preds = %invoke.cont41
  call void @_ZNSt7__cxx1112basic_stringIcSt11char_traitsIcESaIcEED1Ev(ptr noundef nonnull align 8 dereferenceable(32) %ref.tmp39) #8
  br label %if.end48

lpad42:                                           ; preds = %invoke.cont41
  %29 = landingpad { ptr, i32 }
          cleanup
  %30 = extractvalue { ptr, i32 } %29, 0
  store ptr %30, ptr %exn.slot, align 8
  %31 = extractvalue { ptr, i32 } %29, 1
  store i32 %31, ptr %ehselector.slot, align 4
  call void @_ZNSt7__cxx1112basic_stringIcSt11char_traitsIcESaIcEED1Ev(ptr noundef nonnull align 8 dereferenceable(32) %ref.tmp39) #8
  br label %ehcleanup51

if.else46:                                        ; preds = %if.else
  invoke void @_ZN4pbrt8LogFatalENS_8LogLevelEPKciS2_(i32 noundef 2, ptr noundef @.str.12, i32 noundef 266, ptr noundef @.str.15) #13
          to label %invoke.cont47 unwind label %lpad

invoke.cont47:                                    ; preds = %if.else46
  unreachable

if.end48:                                         ; preds = %invoke.cont43
  br label %if.end49

if.end49:                                         ; preds = %if.end48, %invoke.cont34
  br label %done

done:                                             ; preds = %if.end49, %invoke.cont16
  %32 = load ptr, ptr %s.addr, align 8
  %33 = load ptr, ptr %fmt.addr, align 8
  invoke void @_ZN4pbrt6detail21stringPrintfRecursiveEPNSt7__cxx1112basic_stringIcSt11char_traitsIcESaIcEEEPKc(ptr noundef %32, ptr noundef %33)
          to label %invoke.cont50 unwind label %lpad

invoke.cont50:                                    ; preds = %done
  store i32 0, ptr %cleanup.dest.slot, align 4
  br label %cleanup

cleanup:                                          ; preds = %invoke.cont50, %invoke.cont
  call void @_ZNSt7__cxx1112basic_stringIcSt11char_traitsIcESaIcEED1Ev(ptr noundef nonnull align 8 dereferenceable(32) %nextFmt) #8
  %cleanup.dest = load i32, ptr %cleanup.dest.slot, align 4
  switch i32 %cleanup.dest, label %unreachable [
    i32 0, label %cleanup.cont
    i32 1, label %cleanup.cont
  ]

cleanup.cont:                                     ; preds = %cleanup, %cleanup
  ret void

ehcleanup51:                                      ; preds = %lpad42, %ehcleanup36, %lpad15, %lpad
  call void @_ZNSt7__cxx1112basic_stringIcSt11char_traitsIcESaIcEED1Ev(ptr noundef nonnull align 8 dereferenceable(32) %nextFmt) #8
  br label %eh.resume

eh.resume:                                        ; preds = %ehcleanup51
  %exn = load ptr, ptr %exn.slot, align 8
  %sel = load i32, ptr %ehselector.slot, align 4
  %lpad.val = insertvalue { ptr, i32 } poison, ptr %exn, 0
  %lpad.val52 = insertvalue { ptr, i32 } %lpad.val, i32 %sel, 1
  resume { ptr, i32 } %lpad.val52

unreachable:                                      ; preds = %cleanup
  unreachable
}

; Function Attrs: mustprogress uwtable
define linkonce_odr dso_local void @_ZN4pbrt6detail34stringPrintfRecursiveWithPrecisionIRiJEEEvPNSt7__cxx1112basic_stringIcSt11char_traitsIcESaIcEEEPKcRKS8_OT_DpOT0_(ptr noundef %s, ptr noundef %fmt, ptr noundef nonnull align 8 dereferenceable(32) %nextFmt, ptr noundef nonnull align 4 dereferenceable(4) %v) #1 comdat {
entry:
  %s.addr = alloca ptr, align 8
  %fmt.addr = alloca ptr, align 8
  %nextFmt.addr = alloca ptr, align 8
  %v.addr = alloca ptr, align 8
  store ptr %s, ptr %s.addr, align 8
  store ptr %fmt, ptr %fmt.addr, align 8
  store ptr %nextFmt, ptr %nextFmt.addr, align 8
  store ptr %v, ptr %v.addr, align 8
  call void @_ZN4pbrt8LogFatalENS_8LogLevelEPKciS2_(i32 noundef 2, ptr noundef @.str.12, i32 noundef 187, ptr noundef @.str.18) #13
  unreachable
}

; Function Attrs: mustprogress uwtable
define linkonce_odr dso_local void @_ZN4pbrt6detail9formatOneIRiEENSt9enable_ifIXntsr3stdE10is_class_vINSt5decayIT_E4typeEEENSt7__cxx1112basic_stringIcSt11char_traitsIcESaIcEEEE4typeEPKcOS5_(ptr noalias sret(%"class.std::__cxx11::basic_string") align 8 %agg.result, ptr noundef %fmt, ptr noundef nonnull align 4 dereferenceable(4) %v) #1 comdat personality ptr @__gxx_personality_v0 {
entry:
  %result.ptr = alloca ptr, align 8
  %fmt.addr = alloca ptr, align 8
  %v.addr = alloca ptr, align 8
  %size = alloca i64, align 8
  %nrvo = alloca i1, align 1
  %exn.slot = alloca ptr, align 8
  %ehselector.slot = alloca i32, align 4
  store ptr %agg.result, ptr %result.ptr, align 8
  store ptr %fmt, ptr %fmt.addr, align 8
  store ptr %v, ptr %v.addr, align 8
  %0 = load ptr, ptr %fmt.addr, align 8
  %1 = load ptr, ptr %v.addr, align 8
  %2 = load i32, ptr %1, align 4
  %call = call i32 (ptr, i64, ptr, ...) @snprintf(ptr noundef null, i64 noundef 0, ptr noundef %0, i32 noundef %2) #8
  %add = add nsw i32 %call, 1
  %conv = sext i32 %add to i64
  store i64 %conv, ptr %size, align 8
  store i1 false, ptr %nrvo, align 1
  call void @_ZNSt7__cxx1112basic_stringIcSt11char_traitsIcESaIcEEC1Ev(ptr noundef nonnull align 8 dereferenceable(32) %agg.result) #8
  %3 = load i64, ptr %size, align 8
  invoke void @_ZNSt7__cxx1112basic_stringIcSt11char_traitsIcESaIcEE6resizeEm(ptr noundef nonnull align 8 dereferenceable(32) %agg.result, i64 noundef %3)
          to label %invoke.cont unwind label %lpad

invoke.cont:                                      ; preds = %entry
  %call2 = invoke noundef nonnull align 1 dereferenceable(1) ptr @_ZNSt7__cxx1112basic_stringIcSt11char_traitsIcESaIcEEixEm(ptr noundef nonnull align 8 dereferenceable(32) %agg.result, i64 noundef 0)
          to label %invoke.cont1 unwind label %lpad

invoke.cont1:                                     ; preds = %invoke.cont
  %4 = load i64, ptr %size, align 8
  %5 = load ptr, ptr %fmt.addr, align 8
  %6 = load ptr, ptr %v.addr, align 8
  %7 = load i32, ptr %6, align 4
  %call3 = call i32 (ptr, i64, ptr, ...) @snprintf(ptr noundef %call2, i64 noundef %4, ptr noundef %5, i32 noundef %7) #8
  call void @_ZNSt7__cxx1112basic_stringIcSt11char_traitsIcESaIcEE8pop_backEv(ptr noundef nonnull align 8 dereferenceable(32) %agg.result) #8
  store i1 true, ptr %nrvo, align 1
  %nrvo.val = load i1, ptr %nrvo, align 1
  br i1 %nrvo.val, label %nrvo.skipdtor, label %nrvo.unused

lpad:                                             ; preds = %invoke.cont, %entry
  %8 = landingpad { ptr, i32 }
          cleanup
  %9 = extractvalue { ptr, i32 } %8, 0
  store ptr %9, ptr %exn.slot, align 8
  %10 = extractvalue { ptr, i32 } %8, 1
  store i32 %10, ptr %ehselector.slot, align 4
  call void @_ZNSt7__cxx1112basic_stringIcSt11char_traitsIcESaIcEED1Ev(ptr noundef nonnull align 8 dereferenceable(32) %agg.result) #8
  br label %eh.resume

nrvo.unused:                                      ; preds = %invoke.cont1
  call void @_ZNSt7__cxx1112basic_stringIcSt11char_traitsIcESaIcEED1Ev(ptr noundef nonnull align 8 dereferenceable(32) %agg.result) #8
  br label %nrvo.skipdtor

nrvo.skipdtor:                                    ; preds = %nrvo.unused, %invoke.cont1
  ret void

eh.resume:                                        ; preds = %lpad
  %exn = load ptr, ptr %exn.slot, align 8
  %sel = load i32, ptr %ehselector.slot, align 4
  %lpad.val = insertvalue { ptr, i32 } poison, ptr %exn, 0
  %lpad.val4 = insertvalue { ptr, i32 } %lpad.val, i32 %sel, 1
  resume { ptr, i32 } %lpad.val4
}

; Function Attrs: uwtable
define internal void @_GLOBAL__sub_I_error.cpp() #0 section ".text.startup" {
entry:
  call void @__cxx_global_var_init()
  call void @__cxx_global_var_init.1()
  ret void
}

attributes #0 = { uwtable "frame-pointer"="all" "min-legal-vector-width"="0" "no-trapping-math"="true" "stack-protector-buffer-size"="8" "target-cpu"="rocketlake" "target-features"="+64bit,+adx,+aes,+avx,+avx2,+avx512bitalg,+avx512bw,+avx512cd,+avx512dq,+avx512f,+avx512ifma,+avx512vbmi,+avx512vbmi2,+avx512vl,+avx512vnni,+avx512vpopcntdq,+bmi,+bmi2,+clflushopt,+cmov,+crc32,+cx16,+cx8,+evex512,+f16c,+fma,+fsgsbase,+fxsr,+gfni,+invpcid,+lzcnt,+mmx,+movbe,+pclmul,+pku,+popcnt,+prfchw,+rdpid,+rdrnd,+rdseed,+sahf,+sha,+sse,+sse2,+sse3,+sse4.1,+sse4.2,+ssse3,+vaes,+vpclmulqdq,+x87,+xsave,+xsavec,+xsaveopt,+xsaves,-amx-bf16,-amx-complex,-amx-fp16,-amx-int8,-amx-tile,-avx10.1-256,-avx10.1-512,-avx512bf16,-avx512er,-avx512fp16,-avx512pf,-avx512vp2intersect,-avxifma,-avxneconvert,-avxvnni,-avxvnniint16,-avxvnniint8,-cldemote,-clwb,-clzero,-cmpccxadd,-enqcmd,-fma4,-hreset,-kl,-lwp,-movdir64b,-movdiri,-mwaitx,-pconfig,-prefetchi,-prefetchwt1,-ptwrite,-raoint,-rdpru,-rtm,-serialize,-sgx,-sha512,-shstk,-sm3,-sm4,-sse4a,-tbm,-tsxldtrk,-uintr,-usermsr,-waitpkg,-wbnoinvd,-widekl,-xop" }
