target datalayout = "e-m:e-p270:32:32-p271:32:32-p272:64:64-i64:64-i128:128-f80:128-n8:16:32:64-S128"
target triple = "x86_64-unknown-linux-gnu"

%"struct.nlohmann::json_abi_v3_11_3::detail::to_json_fn" = type { i8 }
%"struct.std::array.75" = type { [400 x i8] }
%"struct.std::array.76" = type { [100 x %"struct.std::array.77"] }
%"struct.std::array.77" = type { [2 x i8] }
%"struct.std::array.79" = type { [79 x %"struct.nlohmann::json_abi_v3_11_3::detail::dtoa_impl::cached_power"] }
%"struct.nlohmann::json_abi_v3_11_3::detail::dtoa_impl::cached_power" = type { i64, i32, i32 }
%"struct.doctest::detail::TestSuite" = type { ptr, ptr, i8, i8, i8, i8, i8, i32, double }
%"struct.doctest::detail::TestCase" = type { %"struct.doctest::TestCaseData", ptr, %"class.doctest::String", i32, %"class.doctest::String" }
%"struct.doctest::TestCaseData" = type { %"class.doctest::String", i32, ptr, ptr, ptr, i8, i8, i8, i8, i8, i32, double }
%"class.doctest::String" = type { %union.anon }
%union.anon = type { %"struct.doctest::String::view", [8 x i8] }
%"struct.doctest::String::view" = type { ptr, i32, i32 }
%"struct.doctest::detail::Subcase" = type { %"struct.doctest::SubcaseSignature", i8, [7 x i8] }
%"struct.doctest::SubcaseSignature" = type <{ %"class.doctest::String", ptr, i32, [4 x i8] }>
%"class.nlohmann::json_abi_v3_11_3::basic_json" = type { %"struct.nlohmann::json_abi_v3_11_3::basic_json<>::data" }
%"struct.nlohmann::json_abi_v3_11_3::basic_json<>::data" = type { i8, %"union.nlohmann::json_abi_v3_11_3::basic_json<>::json_value" }
%"union.nlohmann::json_abi_v3_11_3::basic_json<>::json_value" = type { ptr }
%"class.nlohmann::json_abi_v3_11_3::detail::iter_impl" = type { ptr, %"struct.nlohmann::json_abi_v3_11_3::detail::internal_iterator" }
%"struct.nlohmann::json_abi_v3_11_3::detail::internal_iterator" = type { %"struct.std::_Rb_tree_iterator", %"class.__gnu_cxx::__normal_iterator", %"class.nlohmann::json_abi_v3_11_3::detail::primitive_iterator_t" }
%"struct.std::_Rb_tree_iterator" = type { ptr }
%"class.__gnu_cxx::__normal_iterator" = type { ptr }
%"class.nlohmann::json_abi_v3_11_3::detail::primitive_iterator_t" = type { i64 }
%"class.nlohmann::json_abi_v3_11_3::detail::iter_impl.0" = type { ptr, %"struct.nlohmann::json_abi_v3_11_3::detail::internal_iterator" }
%"struct.doctest::detail::Result" = type { i8, %"class.doctest::String" }
%"struct.doctest::detail::Expression_lhs" = type { i8, i32 }
%"struct.doctest::detail::ExpressionDecomposer" = type { i32 }
%"struct.doctest::detail::ResultBuilder" = type { %"struct.doctest::AssertData" }
%"struct.doctest::AssertData" = type { ptr, i32, ptr, i32, ptr, i8, i8, %"class.doctest::String", %"class.doctest::String", i8, ptr, %"class.doctest::AssertData::StringContains" }
%"class.doctest::AssertData::StringContains" = type <{ %"class.doctest::Contains", i8, [7 x i8] }>
%"class.doctest::Contains" = type { %"class.doctest::String" }
%"struct.doctest::detail::Expression_lhs.1" = type <{ ptr, i32, [4 x i8] }>
%"class.std::initializer_list" = type { ptr, i64 }
%"class.nlohmann::json_abi_v3_11_3::detail::json_ref" = type { %"class.nlohmann::json_abi_v3_11_3::basic_json", ptr }
%"class.std::__cxx11::basic_string" = type { %"struct.std::__cxx11::basic_string<char>::_Alloc_hider", i64, %union.anon.2 }
%"struct.std::__cxx11::basic_string<char>::_Alloc_hider" = type { ptr }
%union.anon.2 = type { i64, [8 x i8] }
%"class.std::allocator" = type { i8 }
%"struct.doctest::detail::Expression_lhs.3" = type <{ %"class.std::__cxx11::basic_string", i32, [4 x i8] }>
%"struct.doctest::ContextOptions" = type <{ ptr, %"class.doctest::String", ptr, %"class.doctest::String", %"class.doctest::String", i32, i32, i32, i32, i32, i8, i8, i8, i8, i8, i8, i8, i8, i8, i8, i8, i8, i8, i8, i8, i8, i8, i8, i8, i8, i8, i8, i8, i8, i8, i8, i8, i8 }>
%"class.nlohmann::json_abi_v3_11_3::detail::invalid_iterator" = type { %"class.nlohmann::json_abi_v3_11_3::detail::exception" }
%"class.nlohmann::json_abi_v3_11_3::detail::exception" = type { %"class.std::exception", i32, %"class.std::runtime_error" }
%"class.std::exception" = type { ptr }
%"class.std::runtime_error" = type { %"class.std::exception", %"struct.std::__cow_string" }
%"struct.std::__cow_string" = type { %union.anon.11 }
%union.anon.11 = type { ptr }
%"struct.std::pair" = type { %"class.std::__cxx11::basic_string", %"class.nlohmann::json_abi_v3_11_3::basic_json" }
%"struct.std::pair.81" = type <{ %"struct.std::_Rb_tree_iterator", i8, [7 x i8] }>
%"class.nlohmann::json_abi_v3_11_3::detail::type_error" = type { %"class.nlohmann::json_abi_v3_11_3::detail::exception" }
%"class.std::map" = type { %"class.std::_Rb_tree" }
%"class.std::_Rb_tree" = type { %"struct.std::_Rb_tree<std::__cxx11::basic_string<char>, std::pair<const std::__cxx11::basic_string<char>, nlohmann::json_abi_v3_11_3::basic_json<>>, std::_Select1st<std::pair<const std::__cxx11::basic_string<char>, nlohmann::json_abi_v3_11_3::basic_json<>>>, std::less<std::__cxx11::basic_string<char>>>::_Rb_tree_impl" }
%"struct.std::_Rb_tree<std::__cxx11::basic_string<char>, std::pair<const std::__cxx11::basic_string<char>, nlohmann::json_abi_v3_11_3::basic_json<>>, std::_Select1st<std::pair<const std::__cxx11::basic_string<char>, nlohmann::json_abi_v3_11_3::basic_json<>>>, std::less<std::__cxx11::basic_string<char>>>::_Rb_tree_impl" = type { %"struct.std::_Rb_tree_key_compare", %"struct.std::_Rb_tree_header" }
%"struct.std::_Rb_tree_key_compare" = type { %"struct.std::less" }
%"struct.std::less" = type { i8 }
%"struct.std::_Rb_tree_header" = type { %"struct.std::_Rb_tree_node_base", i64 }
%"struct.std::_Rb_tree_node_base" = type { i32, ptr, ptr, ptr }
%"struct.std::_Vector_base" = type { %"struct.std::_Vector_base<nlohmann::json_abi_v3_11_3::basic_json<>, std::allocator<nlohmann::json_abi_v3_11_3::basic_json<>>>::_Vector_impl" }
%"struct.std::_Vector_base<nlohmann::json_abi_v3_11_3::basic_json<>, std::allocator<nlohmann::json_abi_v3_11_3::basic_json<>>>::_Vector_impl" = type { %"struct.std::_Vector_base<nlohmann::json_abi_v3_11_3::basic_json<>, std::allocator<nlohmann::json_abi_v3_11_3::basic_json<>>>::_Vector_impl_data" }
%"struct.std::_Vector_base<nlohmann::json_abi_v3_11_3::basic_json<>, std::allocator<nlohmann::json_abi_v3_11_3::basic_json<>>>::_Vector_impl_data" = type { ptr, ptr, ptr }
%"class.nlohmann::json_abi_v3_11_3::detail::other_error" = type { %"class.nlohmann::json_abi_v3_11_3::detail::exception" }
%"class.std::allocator.12" = type { i8 }
%class.anon = type { ptr }
%"class.std::unique_ptr" = type { %"struct.std::__uniq_ptr_data" }
%"struct.std::__uniq_ptr_data" = type { %"class.std::__uniq_ptr_impl" }
%"class.std::__uniq_ptr_impl" = type { %"class.std::tuple" }
%"class.std::tuple" = type { %"struct.std::_Tuple_impl" }
%"struct.std::_Tuple_impl" = type { %"struct.std::_Tuple_impl.15", %"struct.std::_Head_base.16" }
%"struct.std::_Tuple_impl.15" = type { %"struct.std::_Head_base" }
%"struct.std::_Head_base" = type { %class.anon }
%"struct.std::_Head_base.16" = type { ptr }
%"class.std::allocator.17" = type { i8 }
%class.anon.20 = type { ptr }
%"class.std::unique_ptr.21" = type { %"struct.std::__uniq_ptr_data.22" }
%"struct.std::__uniq_ptr_data.22" = type { %"class.std::__uniq_ptr_impl.23" }
%"class.std::__uniq_ptr_impl.23" = type { %"class.std::tuple.24" }
%"class.std::tuple.24" = type { %"struct.std::_Tuple_impl.25" }
%"struct.std::_Tuple_impl.25" = type { %"struct.std::_Tuple_impl.26", %"struct.std::_Head_base.28" }
%"struct.std::_Tuple_impl.26" = type { %"struct.std::_Head_base.27" }
%"struct.std::_Head_base.27" = type { %class.anon.20 }
%"struct.std::_Head_base.28" = type { ptr }
%"class.std::allocator.29" = type { i8 }
%class.anon.32 = type { ptr }
%"class.std::unique_ptr.33" = type { %"struct.std::__uniq_ptr_data.34" }
%"struct.std::__uniq_ptr_data.34" = type { %"class.std::__uniq_ptr_impl.35" }
%"class.std::__uniq_ptr_impl.35" = type { %"class.std::tuple.36" }
%"class.std::tuple.36" = type { %"struct.std::_Tuple_impl.37" }
%"struct.std::_Tuple_impl.37" = type { %"struct.std::_Tuple_impl.38", %"struct.std::_Head_base.40" }
%"struct.std::_Tuple_impl.38" = type { %"struct.std::_Head_base.39" }
%"struct.std::_Head_base.39" = type { %class.anon.32 }
%"struct.std::_Head_base.40" = type { ptr }
%"class.std::allocator.41" = type { i8 }
%class.anon.44 = type { ptr }
%"class.std::unique_ptr.45" = type { %"struct.std::__uniq_ptr_data.46" }
%"struct.std::__uniq_ptr_data.46" = type { %"class.std::__uniq_ptr_impl.47" }
%"class.std::__uniq_ptr_impl.47" = type { %"class.std::tuple.48" }
%"class.std::tuple.48" = type { %"struct.std::_Tuple_impl.49" }
%"struct.std::_Tuple_impl.49" = type { %"struct.std::_Tuple_impl.50", %"struct.std::_Head_base.52" }
%"struct.std::_Tuple_impl.50" = type { %"struct.std::_Head_base.51" }
%"struct.std::_Head_base.51" = type { %class.anon.44 }
%"struct.std::_Head_base.52" = type { ptr }
%"class.nlohmann::json_abi_v3_11_3::byte_container_with_subtype" = type <{ %"class.std::vector.53", i64, i8, [7 x i8] }>
%"class.std::vector.53" = type { %"struct.std::_Vector_base.54" }
%"struct.std::_Vector_base.54" = type { %"struct.std::_Vector_base<unsigned char, std::allocator<unsigned char>>::_Vector_impl" }
%"struct.std::_Vector_base<unsigned char, std::allocator<unsigned char>>::_Vector_impl" = type { %"struct.std::_Vector_base<unsigned char, std::allocator<unsigned char>>::_Vector_impl_data" }
%"struct.std::_Vector_base<unsigned char, std::allocator<unsigned char>>::_Vector_impl_data" = type { ptr, ptr, ptr }
%"class.std::vector" = type { %"struct.std::_Vector_base" }
%"class.std::back_insert_iterator" = type { ptr }
%"class.__gnu_cxx::__normal_iterator.58" = type { ptr }
%"struct.std::_Rb_tree_node" = type { %"struct.std::_Rb_tree_node_base", %"struct.__gnu_cxx::__aligned_membuf" }
%"struct.__gnu_cxx::__aligned_membuf" = type { [48 x i8] }
%"class.std::tuple.59" = type { %"struct.std::_Tuple_impl.60" }
%"struct.std::_Tuple_impl.60" = type { %"struct.std::_Tuple_impl.61", %"struct.std::_Head_base.65" }
%"struct.std::_Tuple_impl.61" = type { %"struct.std::_Tuple_impl.62", %"struct.std::_Head_base.64" }
%"struct.std::_Tuple_impl.62" = type { %"struct.std::_Head_base.63" }
%"struct.std::_Head_base.63" = type { ptr }
%"struct.std::_Head_base.64" = type { ptr }
%"struct.std::_Head_base.65" = type { ptr }
%"struct.std::_Rb_tree_const_iterator" = type { ptr }
%"class.__gnu_cxx::__normal_iterator.66" = type { ptr }
%"class.nlohmann::json_abi_v3_11_3::detail::serializer" = type <{ %"class.std::shared_ptr", %"struct.std::array", ptr, i8, i8, %"struct.std::array.67", i8, [5 x i8], %"class.std::__cxx11::basic_string", i32, [4 x i8] }>
%"class.std::shared_ptr" = type { %"class.std::__shared_ptr" }
%"class.std::__shared_ptr" = type { ptr, %"class.std::__shared_count" }
%"class.std::__shared_count" = type { ptr }
%"struct.std::array" = type { [64 x i8] }
%"struct.std::array.67" = type { [512 x i8] }
%"class.nlohmann::json_abi_v3_11_3::detail::output_adapter" = type { %"class.std::shared_ptr" }
%"class.std::ios_base" = type { ptr, i64, i64, i32, i32, i32, ptr, %"struct.std::ios_base::_Words", [8 x %"struct.std::ios_base::_Words"], i32, ptr, %"class.std::locale" }
%"struct.std::ios_base::_Words" = type { ptr, i64 }
%"class.std::locale" = type { ptr }
%"class.std::shared_ptr.68" = type { %"class.std::__shared_ptr.69" }
%"class.std::__shared_ptr.69" = type { ptr, %"class.std::__shared_count" }
%struct.lconv = type { ptr, ptr, ptr, ptr, ptr, ptr, ptr, ptr, ptr, ptr, i8, i8, i8, i8, i8, i8, i8, i8, i8, i8, i8, i8, i8, i8 }
%"class.std::allocator.71" = type { i8 }
%"struct.std::_Sp_alloc_shared_tag" = type { ptr }
%"class.std::allocator.72" = type { i8 }
%"struct.std::__allocated_ptr" = type { ptr, ptr }
%"class.std::_Sp_counted_ptr_inplace" = type { %"class.std::_Sp_counted_base", %"class.std::_Sp_counted_ptr_inplace<nlohmann::json_abi_v3_11_3::detail::output_stream_adapter<char>, std::allocator<void>, __gnu_cxx::_S_atomic>::_Impl" }
%"class.std::_Sp_counted_base" = type { ptr, i32, i32 }
%"class.std::_Sp_counted_ptr_inplace<nlohmann::json_abi_v3_11_3::detail::output_stream_adapter<char>, std::allocator<void>, __gnu_cxx::_S_atomic>::_Impl" = type { %"struct.__gnu_cxx::__aligned_buffer" }
%"struct.__gnu_cxx::__aligned_buffer" = type { %"union.std::aligned_storage<16, 8>::type" }
%"union.std::aligned_storage<16, 8>::type" = type { [16 x i8] }
%"class.nlohmann::json_abi_v3_11_3::detail::output_stream_adapter" = type { %"struct.nlohmann::json_abi_v3_11_3::detail::output_adapter_protocol", ptr }
%"struct.nlohmann::json_abi_v3_11_3::detail::output_adapter_protocol" = type { ptr }
%"class.std::type_info" = type { ptr, ptr }
%"class.__gnu_cxx::__normal_iterator.78" = type { ptr }
%"struct.nlohmann::json_abi_v3_11_3::detail::dtoa_impl::boundaries" = type { %"struct.nlohmann::json_abi_v3_11_3::detail::dtoa_impl::diyfp", %"struct.nlohmann::json_abi_v3_11_3::detail::dtoa_impl::diyfp", %"struct.nlohmann::json_abi_v3_11_3::detail::dtoa_impl::diyfp" }
%"struct.nlohmann::json_abi_v3_11_3::detail::dtoa_impl::diyfp" = type <{ i64, i32, [4 x i8] }>
%class.anon.117 = type { ptr }
%"class.std::unique_ptr.118" = type { %"struct.std::__uniq_ptr_data.119" }
%"struct.std::__uniq_ptr_data.119" = type { %"class.std::__uniq_ptr_impl.120" }
%"class.std::__uniq_ptr_impl.120" = type { %"class.std::tuple.121" }
%"class.std::tuple.121" = type { %"struct.std::_Tuple_impl.122" }
%"struct.std::_Tuple_impl.122" = type { %"struct.std::_Tuple_impl.123", %"struct.std::_Head_base.28" }
%"struct.std::_Tuple_impl.123" = type { %"struct.std::_Head_base.124" }
%"struct.std::_Head_base.124" = type { %class.anon.117 }
%"struct.__gnu_cxx::__ops::_Iter_pred" = type { %class.anon.80 }
%class.anon.80 = type { i8 }
%"struct.__gnu_cxx::__ops::_Iter_negate" = type { %class.anon.80 }
%class.anon.83 = type { ptr }
%"class.std::unique_ptr.84" = type { %"struct.std::__uniq_ptr_data.85" }
%"struct.std::__uniq_ptr_data.85" = type { %"class.std::__uniq_ptr_impl.86" }
%"class.std::__uniq_ptr_impl.86" = type { %"class.std::tuple.87" }
%"class.std::tuple.87" = type { %"struct.std::_Tuple_impl.88" }
%"struct.std::_Tuple_impl.88" = type { %"struct.std::_Tuple_impl.89", %"struct.std::_Head_base.16" }
%"struct.std::_Tuple_impl.89" = type { %"struct.std::_Head_base.90" }
%"struct.std::_Head_base.90" = type { %class.anon.83 }
%"class.std::allocator.5" = type { i8 }
%"struct.std::_Rb_tree<std::__cxx11::basic_string<char>, std::pair<const std::__cxx11::basic_string<char>, nlohmann::json_abi_v3_11_3::basic_json<>>, std::_Select1st<std::pair<const std::__cxx11::basic_string<char>, nlohmann::json_abi_v3_11_3::basic_json<>>>, std::less<std::__cxx11::basic_string<char>>>::_Alloc_node" = type { ptr }
%class.anon.91 = type { ptr }
%"class.std::unique_ptr.92" = type { %"struct.std::__uniq_ptr_data.93" }
%"struct.std::__uniq_ptr_data.93" = type { %"class.std::__uniq_ptr_impl.94" }
%"class.std::__uniq_ptr_impl.94" = type { %"class.std::tuple.95" }
%"class.std::tuple.95" = type { %"struct.std::_Tuple_impl.96" }
%"struct.std::_Tuple_impl.96" = type { %"struct.std::_Tuple_impl.97", %"struct.std::_Head_base.28" }
%"struct.std::_Tuple_impl.97" = type { %"struct.std::_Head_base.98" }
%"struct.std::_Head_base.98" = type { %class.anon.91 }
%"class.std::allocator.8" = type { i8 }
%class.anon.99 = type { ptr }
%"class.std::unique_ptr.100" = type { %"struct.std::__uniq_ptr_data.101" }
%"struct.std::__uniq_ptr_data.101" = type { %"class.std::__uniq_ptr_impl.102" }
%"class.std::__uniq_ptr_impl.102" = type { %"class.std::tuple.103" }
%"class.std::tuple.103" = type { %"struct.std::_Tuple_impl.104" }
%"struct.std::_Tuple_impl.104" = type { %"struct.std::_Tuple_impl.105", %"struct.std::_Head_base.40" }
%"struct.std::_Tuple_impl.105" = type { %"struct.std::_Head_base.106" }
%"struct.std::_Head_base.106" = type { %class.anon.99 }
%class.anon.107 = type { ptr }
%"class.std::unique_ptr.108" = type { %"struct.std::__uniq_ptr_data.109" }
%"struct.std::__uniq_ptr_data.109" = type { %"class.std::__uniq_ptr_impl.110" }
%"class.std::__uniq_ptr_impl.110" = type { %"class.std::tuple.111" }
%"class.std::tuple.111" = type { %"struct.std::_Tuple_impl.112" }
%"struct.std::_Tuple_impl.112" = type { %"struct.std::_Tuple_impl.113", %"struct.std::_Head_base.52" }
%"struct.std::_Tuple_impl.113" = type { %"struct.std::_Head_base.114" }
%"struct.std::_Head_base.114" = type { %class.anon.107 }
%"class.std::allocator.55" = type { i8 }
%"struct.std::_Rb_tree<std::__cxx11::basic_string<char>, std::pair<const std::__cxx11::basic_string<char>, nlohmann::json_abi_v3_11_3::basic_json<>>, std::_Select1st<std::pair<const std::__cxx11::basic_string<char>, nlohmann::json_abi_v3_11_3::basic_json<>>>, std::less<std::__cxx11::basic_string<char>>>::_Auto_node" = type { ptr, ptr }
%"struct.std::pair.115" = type { ptr, ptr }
%"struct.std::_Select1st" = type { i8 }
%class.anon.125 = type { ptr }
%"class.std::unique_ptr.126" = type { %"struct.std::__uniq_ptr_data.127" }
%"struct.std::__uniq_ptr_data.127" = type { %"class.std::__uniq_ptr_impl.128" }
%"class.std::__uniq_ptr_impl.128" = type { %"class.std::tuple.129" }
%"class.std::tuple.129" = type { %"struct.std::_Tuple_impl.130" }
%"struct.std::_Tuple_impl.130" = type { %"struct.std::_Tuple_impl.131", %"struct.std::_Head_base.40" }
%"struct.std::_Tuple_impl.131" = type { %"struct.std::_Head_base.132" }
%"struct.std::_Head_base.132" = type { %class.anon.125 }

$_ZN7doctest6detail9TestSuiteC2Ev = comdat any

$_ZN7doctest6detail8TestCaseD2Ev = comdat any

$_ZN7doctest12TestCaseDataD2Ev = comdat any

$_ZN8nlohmann16json_abi_v3_11_310basic_jsonISt3mapSt6vectorNSt7__cxx1112basic_stringIcSt11char_traitsIcESaIcEEEblmdSaNS0_14adl_serializerES3_IhSaIhEEvEC2ENS0_6detail7value_tE = comdat any

$_ZN8nlohmann16json_abi_v3_11_36detail9iter_implIKNS0_10basic_jsonISt3mapSt6vectorNSt7__cxx1112basic_stringIcSt11char_traitsIcESaIcEEEblmdSaNS0_14adl_serializerES5_IhSaIhEEvEEEC2EPSG_ = comdat any

$_ZN8nlohmann16json_abi_v3_11_310basic_jsonISt3mapSt6vectorNSt7__cxx1112basic_stringIcSt11char_traitsIcESaIcEEEblmdSaNS0_14adl_serializerES3_IhSaIhEEvED2Ev = comdat any

$_ZN8nlohmann16json_abi_v3_11_36detail9iter_implIKNS0_10basic_jsonISt3mapSt6vectorNSt7__cxx1112basic_stringIcSt11char_traitsIcESaIcEEEblmdSaNS0_14adl_serializerES5_IhSaIhEEvEEEaSERKSH_ = comdat any

$_ZN8nlohmann16json_abi_v3_11_36detail9iter_implINS0_10basic_jsonISt3mapSt6vectorNSt7__cxx1112basic_stringIcSt11char_traitsIcESaIcEEEblmdSaNS0_14adl_serializerES5_IhSaIhEEvEEEC2Ev = comdat any

$_ZN8nlohmann16json_abi_v3_11_36detail9iter_implIKNS0_10basic_jsonISt3mapSt6vectorNSt7__cxx1112basic_stringIcSt11char_traitsIcESaIcEEEblmdSaNS0_14adl_serializerES5_IhSaIhEEvEEEC2ERKNS2_ISF_EE = comdat any

$_ZN8nlohmann16json_abi_v3_11_310basic_jsonISt3mapSt6vectorNSt7__cxx1112basic_stringIcSt11char_traitsIcESaIcEEEblmdSaNS0_14adl_serializerES3_IhSaIhEEvEC2EDn = comdat any

$_ZN8nlohmann16json_abi_v3_11_310basic_jsonISt3mapSt6vectorNSt7__cxx1112basic_stringIcSt11char_traitsIcESaIcEEEblmdSaNS0_14adl_serializerES3_IhSaIhEEvE5beginEv = comdat any

$_ZN8nlohmann16json_abi_v3_11_36detail9iter_implIKNS0_10basic_jsonISt3mapSt6vectorNSt7__cxx1112basic_stringIcSt11char_traitsIcESaIcEEEblmdSaNS0_14adl_serializerES5_IhSaIhEEvEEE9set_beginEv = comdat any

$_ZN7doctest6detail20ExpressionDecomposerlsIbEENS0_14Expression_lhsIT_EEOS4_ = comdat any

$_ZNK8nlohmann16json_abi_v3_11_36detail9iter_implIKNS0_10basic_jsonISt3mapSt6vectorNSt7__cxx1112basic_stringIcSt11char_traitsIcESaIcEEEblmdSaNS0_14adl_serializerES5_IhSaIhEEvEEEeqISH_TnNSt9enable_ifIXoosr3std7is_sameIT_SH_EE5valuesr3std7is_sameISK_NS2_ISF_EEEE5valueEDnE4typeELDn0EEEbRKSK_ = comdat any

$_ZNK8nlohmann16json_abi_v3_11_310basic_jsonISt3mapSt6vectorNSt7__cxx1112basic_stringIcSt11char_traitsIcESaIcEEEblmdSaNS0_14adl_serializerES3_IhSaIhEEvE6cbeginEv = comdat any

$_ZN7doctest6detail14Expression_lhsIbEcvNS0_6ResultEEv = comdat any

$_ZN7doctest6detail6ResultD2Ev = comdat any

$_ZN8nlohmann16json_abi_v3_11_36detail9iter_implIKNS0_10basic_jsonISt3mapSt6vectorNSt7__cxx1112basic_stringIcSt11char_traitsIcESaIcEEEblmdSaNS0_14adl_serializerES5_IhSaIhEEvEEE7set_endEv = comdat any

$_ZNK8nlohmann16json_abi_v3_11_310basic_jsonISt3mapSt6vectorNSt7__cxx1112basic_stringIcSt11char_traitsIcESaIcEEEblmdSaNS0_14adl_serializerES3_IhSaIhEEvE4cendEv = comdat any

$_ZNK8nlohmann16json_abi_v3_11_36detail9iter_implIKNS0_10basic_jsonISt3mapSt6vectorNSt7__cxx1112basic_stringIcSt11char_traitsIcESaIcEEEblmdSaNS0_14adl_serializerES5_IhSaIhEEvEEEdeEv = comdat any

$__clang_call_terminate = comdat any

$_ZN7doctest6detail13ResultBuilderD2Ev = comdat any

$_ZN8nlohmann16json_abi_v3_11_310basic_jsonISt3mapSt6vectorNSt7__cxx1112basic_stringIcSt11char_traitsIcESaIcEEEblmdSaNS0_14adl_serializerES3_IhSaIhEEvEC2IiiTnNSt9enable_ifIXaantsr6detail13is_basic_jsonIT0_EE5valuesr6detail18is_compatible_typeISD_SG_EE5valueEiE4typeELi0EEEOT_ = comdat any

$_ZN7doctest6detail20ExpressionDecomposerlsIN8nlohmann16json_abi_v3_11_310basic_jsonISt3mapSt6vectorNSt7__cxx1112basic_stringIcSt11char_traitsIcESaIcEEEblmdSaNS4_14adl_serializerES7_IhSaIhEEvEETnPNS0_5types9enable_ifIXntsr7doctest6detail5types19is_rvalue_referenceIT_EE5valueEvE4typeELPv0EEENS0_14Expression_lhsIRKSK_EESR_ = comdat any

$_ZN7doctest6detail14Expression_lhsIRKN8nlohmann16json_abi_v3_11_310basic_jsonISt3mapSt6vectorNSt7__cxx1112basic_stringIcSt11char_traitsIcESaIcEEEblmdSaNS3_14adl_serializerES6_IhSaIhEEvEEEeqISG_EEDTcmcvveqclL_ZNS0_7declvalISI_EEOT_vEEclsr7doctest6detailE7declvalISM_EEtlNS0_6ResultEEESN_ = comdat any

$_ZN8nlohmann16json_abi_v3_11_36detail8json_refINS0_10basic_jsonISt3mapSt6vectorNSt7__cxx1112basic_stringIcSt11char_traitsIcESaIcEEEblmdSaNS0_14adl_serializerES5_IhSaIhEEvEEEC2IJRA4_KcETnNSt9enable_ifIXsr3std16is_constructibleISF_DpT_EE5valueEiE4typeELi0EEEDpOSM_ = comdat any

$_ZN8nlohmann16json_abi_v3_11_36detail8json_refINS0_10basic_jsonISt3mapSt6vectorNSt7__cxx1112basic_stringIcSt11char_traitsIcESaIcEEEblmdSaNS0_14adl_serializerES5_IhSaIhEEvEEED2Ev = comdat any

$_ZN8nlohmann16json_abi_v3_11_36detail8json_refINS0_10basic_jsonISt3mapSt6vectorNSt7__cxx1112basic_stringIcSt11char_traitsIcESaIcEEEblmdSaNS0_14adl_serializerES5_IhSaIhEEvEEEC2ESt16initializer_listISG_E = comdat any

$_ZN8nlohmann16json_abi_v3_11_310basic_jsonISt3mapSt6vectorNSt7__cxx1112basic_stringIcSt11char_traitsIcESaIcEEEblmdSaNS0_14adl_serializerES3_IhSaIhEEvEC2ESt16initializer_listINS0_6detail8json_refISD_EEEbNSF_7value_tE = comdat any

$_ZN8nlohmann16json_abi_v3_11_310basic_jsonISt3mapSt6vectorNSt7__cxx1112basic_stringIcSt11char_traitsIcESaIcEEEblmdSaNS0_14adl_serializerES3_IhSaIhEEvEC2IRA4_KcA4_cTnNSt9enable_ifIXaantsr6detail13is_basic_jsonIT0_EE5valuesr6detail18is_compatible_typeISD_SK_EE5valueEiE4typeELi0EEEOT_ = comdat any

$_ZN8nlohmann16json_abi_v3_11_36detail8json_refINS0_10basic_jsonISt3mapSt6vectorNSt7__cxx1112basic_stringIcSt11char_traitsIcESaIcEEEblmdSaNS0_14adl_serializerES5_IhSaIhEEvEEEC2IJiETnNSt9enable_ifIXsr3std16is_constructibleISF_DpT_EE5valueEiE4typeELi0EEEDpOSJ_ = comdat any

$_ZNK8nlohmann16json_abi_v3_11_36detail9iter_implIKNS0_10basic_jsonISt3mapSt6vectorNSt7__cxx1112basic_stringIcSt11char_traitsIcESaIcEEEblmdSaNS0_14adl_serializerES5_IhSaIhEEvEEEptEv = comdat any

$_ZNK8nlohmann16json_abi_v3_11_310basic_jsonISt3mapSt6vectorNSt7__cxx1112basic_stringIcSt11char_traitsIcESaIcEEEblmdSaNS0_14adl_serializerES3_IhSaIhEEvE9type_nameEv = comdat any

$_ZN7doctest6detail20ExpressionDecomposerlsINSt7__cxx1112basic_stringIcSt11char_traitsIcESaIcEEEEENS0_14Expression_lhsIT_EEOSA_ = comdat any

$_ZN7doctest6detail14Expression_lhsINSt7__cxx1112basic_stringIcSt11char_traitsIcESaIcEEEEeqIRA7_KcEEDTcmcvveqclL_ZNS0_7declvalIS7_EEOT_vEEclsr7doctest6detailE7declvalISE_EEtlNS0_6ResultEEESF_ = comdat any

$_ZN7doctest6detail14Expression_lhsINSt7__cxx1112basic_stringIcSt11char_traitsIcESaIcEEEED2Ev = comdat any

$_ZNR8nlohmann16json_abi_v3_11_36detail9iter_implIKNS0_10basic_jsonISt3mapSt6vectorNSt7__cxx1112basic_stringIcSt11char_traitsIcESaIcEEEblmdSaNS0_14adl_serializerES5_IhSaIhEEvEEEppEi = comdat any

$_ZSteqRKSt17_Rb_tree_iteratorISt4pairIKNSt7__cxx1112basic_stringIcSt11char_traitsIcESaIcEEEN8nlohmann16json_abi_v3_11_310basic_jsonISt3mapSt6vectorS6_blmdSaNS9_14adl_serializerESC_IhSaIhEEvEEEESK_ = comdat any

$_ZNSt3mapINSt7__cxx1112basic_stringIcSt11char_traitsIcESaIcEEEN8nlohmann16json_abi_v3_11_310basic_jsonIS_St6vectorS5_blmdSaNS7_14adl_serializerES9_IhSaIhEEvEESt4lessIS5_ESaISt4pairIKS5_SD_EEE5beginEv = comdat any

$_ZNSt3mapINSt7__cxx1112basic_stringIcSt11char_traitsIcESaIcEEEN8nlohmann16json_abi_v3_11_310basic_jsonIS_St6vectorS5_blmdSaNS7_14adl_serializerES9_IhSaIhEEvEESt4lessIS5_ESaISt4pairIKS5_SD_EEE3endEv = comdat any

$_ZN9__gnu_cxxeqIPN8nlohmann16json_abi_v3_11_310basic_jsonISt3mapSt6vectorNSt7__cxx1112basic_stringIcSt11char_traitsIcESaIcEEEblmdSaNS2_14adl_serializerES5_IhSaIhEEvEES5_ISF_SaISF_EEEEbRKNS_17__normal_iteratorIT_T0_EESO_ = comdat any

$_ZNSt6vectorIN8nlohmann16json_abi_v3_11_310basic_jsonISt3mapS_NSt7__cxx1112basic_stringIcSt11char_traitsIcESaIcEEEblmdSaNS1_14adl_serializerES_IhSaIhEEvEESaISD_EE5beginEv = comdat any

$_ZN9__gnu_cxxneIPN8nlohmann16json_abi_v3_11_310basic_jsonISt3mapSt6vectorNSt7__cxx1112basic_stringIcSt11char_traitsIcESaIcEEEblmdSaNS2_14adl_serializerES5_IhSaIhEEvEES5_ISF_SaISF_EEEEbRKNS_17__normal_iteratorIT_T0_EESO_ = comdat any

$_ZNSt6vectorIN8nlohmann16json_abi_v3_11_310basic_jsonISt3mapS_NSt7__cxx1112basic_stringIcSt11char_traitsIcESaIcEEEblmdSaNS1_14adl_serializerES_IhSaIhEEvEESaISD_EE3endEv = comdat any

$_ZN8nlohmann16json_abi_v3_11_36detail9iter_implIKNS0_10basic_jsonISt3mapSt6vectorNSt7__cxx1112basic_stringIcSt11char_traitsIcESaIcEEEblmdSaNS0_14adl_serializerES5_IhSaIhEEvEEEppEv = comdat any

$_ZNR8nlohmann16json_abi_v3_11_36detail9iter_implIKNS0_10basic_jsonISt3mapSt6vectorNSt7__cxx1112basic_stringIcSt11char_traitsIcESaIcEEEblmdSaNS0_14adl_serializerES5_IhSaIhEEvEEEmmEi = comdat any

$_ZN8nlohmann16json_abi_v3_11_36detail9iter_implIKNS0_10basic_jsonISt3mapSt6vectorNSt7__cxx1112basic_stringIcSt11char_traitsIcESaIcEEEblmdSaNS0_14adl_serializerES5_IhSaIhEEvEEEmmEv = comdat any

$_ZN8nlohmann16json_abi_v3_11_310basic_jsonISt3mapSt6vectorNSt7__cxx1112basic_stringIcSt11char_traitsIcESaIcEEEblmdSaNS0_14adl_serializerES3_IhSaIhEEvE4dataC2ENS0_6detail7value_tE = comdat any

$_ZNK8nlohmann16json_abi_v3_11_310basic_jsonISt3mapSt6vectorNSt7__cxx1112basic_stringIcSt11char_traitsIcESaIcEEEblmdSaNS0_14adl_serializerES3_IhSaIhEEvE16assert_invariantEb = comdat any

$_ZN8nlohmann16json_abi_v3_11_310basic_jsonISt3mapSt6vectorNSt7__cxx1112basic_stringIcSt11char_traitsIcESaIcEEEblmdSaNS0_14adl_serializerES3_IhSaIhEEvE10json_valueC2ENS0_6detail7value_tE = comdat any

$_ZN8nlohmann16json_abi_v3_11_310basic_jsonISt3mapSt6vectorNSt7__cxx1112basic_stringIcSt11char_traitsIcESaIcEEEblmdSaNS0_14adl_serializerES3_IhSaIhEEvE6createIS2_IS9_SD_St4lessIS9_ESaISt4pairIKS9_SD_EEEJEEEPT_DpOT0_ = comdat any

$_ZN8nlohmann16json_abi_v3_11_310basic_jsonISt3mapSt6vectorNSt7__cxx1112basic_stringIcSt11char_traitsIcESaIcEEEblmdSaNS0_14adl_serializerES3_IhSaIhEEvE6createIS3_ISD_SaISD_EEJEEEPT_DpOT0_ = comdat any

$_ZN8nlohmann16json_abi_v3_11_310basic_jsonISt3mapSt6vectorNSt7__cxx1112basic_stringIcSt11char_traitsIcESaIcEEEblmdSaNS0_14adl_serializerES3_IhSaIhEEvE6createIS9_JRA1_KcEEEPT_DpOT0_ = comdat any

$_ZN8nlohmann16json_abi_v3_11_310basic_jsonISt3mapSt6vectorNSt7__cxx1112basic_stringIcSt11char_traitsIcESaIcEEEblmdSaNS0_14adl_serializerES3_IhSaIhEEvE6createINS0_27byte_container_with_subtypeISC_EEJEEEPT_DpOT0_ = comdat any

$_ZN8nlohmann16json_abi_v3_11_36detail11other_error6createIDnTnNSt9enable_ifIXsr21is_basic_json_contextIT_EE5valueEiE4typeELi0EEES2_iRKNSt7__cxx1112basic_stringIcSt11char_traitsIcESaIcEEES5_ = comdat any

$_ZN8nlohmann16json_abi_v3_11_36detail11other_errorD2Ev = comdat any

$_ZNSaISt3mapINSt7__cxx1112basic_stringIcSt11char_traitsIcESaIcEEEN8nlohmann16json_abi_v3_11_310basic_jsonIS_St6vectorS5_blmdSaNS7_14adl_serializerES9_IhSaIhEEvEESt4lessIS5_ESaISt4pairIKS5_SD_EEEEC2Ev = comdat any

$_ZNSt16allocator_traitsISaISt3mapINSt7__cxx1112basic_stringIcSt11char_traitsIcESaIcEEEN8nlohmann16json_abi_v3_11_310basic_jsonIS0_St6vectorS6_blmdSaNS8_14adl_serializerESA_IhSaIhEEvEESt4lessIS6_ESaISt4pairIKS6_SE_EEEEE8allocateERSM_m = comdat any

$_ZNSt10unique_ptrISt3mapINSt7__cxx1112basic_stringIcSt11char_traitsIcESaIcEEEN8nlohmann16json_abi_v3_11_310basic_jsonIS0_St6vectorS6_blmdSaNS8_14adl_serializerESA_IhSaIhEEvEESt4lessIS6_ESaISt4pairIKS6_SE_EEEZNSE_6createISL_JEEEPT_DpOT0_EUlPSL_E_EC2IST_vEESS_RKST_ = comdat any

$_ZNSt16allocator_traitsISaISt3mapINSt7__cxx1112basic_stringIcSt11char_traitsIcESaIcEEEN8nlohmann16json_abi_v3_11_310basic_jsonIS0_St6vectorS6_blmdSaNS8_14adl_serializerESA_IhSaIhEEvEESt4lessIS6_ESaISt4pairIKS6_SE_EEEEE9constructISL_JEEEvRSM_PT_DpOT0_ = comdat any

$_ZNKSt10unique_ptrISt3mapINSt7__cxx1112basic_stringIcSt11char_traitsIcESaIcEEEN8nlohmann16json_abi_v3_11_310basic_jsonIS0_St6vectorS6_blmdSaNS8_14adl_serializerESA_IhSaIhEEvEESt4lessIS6_ESaISt4pairIKS6_SE_EEEZNSE_6createISL_JEEEPT_DpOT0_EUlPSL_E_E3getEv = comdat any

$_ZNSt10unique_ptrISt3mapINSt7__cxx1112basic_stringIcSt11char_traitsIcESaIcEEEN8nlohmann16json_abi_v3_11_310basic_jsonIS0_St6vectorS6_blmdSaNS8_14adl_serializerESA_IhSaIhEEvEESt4lessIS6_ESaISt4pairIKS6_SE_EEEZNSE_6createISL_JEEEPT_DpOT0_EUlPSL_E_E7releaseEv = comdat any

$_ZNSt10unique_ptrISt3mapINSt7__cxx1112basic_stringIcSt11char_traitsIcESaIcEEEN8nlohmann16json_abi_v3_11_310basic_jsonIS0_St6vectorS6_blmdSaNS8_14adl_serializerESA_IhSaIhEEvEESt4lessIS6_ESaISt4pairIKS6_SE_EEEZNSE_6createISL_JEEEPT_DpOT0_EUlPSL_E_ED2Ev = comdat any

$_ZNSaISt3mapINSt7__cxx1112basic_stringIcSt11char_traitsIcESaIcEEEN8nlohmann16json_abi_v3_11_310basic_jsonIS_St6vectorS5_blmdSaNS7_14adl_serializerES9_IhSaIhEEvEESt4lessIS5_ESaISt4pairIKS5_SD_EEEED2Ev = comdat any

$_ZNSt15__new_allocatorISt3mapINSt7__cxx1112basic_stringIcSt11char_traitsIcESaIcEEEN8nlohmann16json_abi_v3_11_310basic_jsonIS0_St6vectorS6_blmdSaNS8_14adl_serializerESA_IhSaIhEEvEESt4lessIS6_ESaISt4pairIKS6_SE_EEEEC2Ev = comdat any

$_ZNSt15__new_allocatorISt3mapINSt7__cxx1112basic_stringIcSt11char_traitsIcESaIcEEEN8nlohmann16json_abi_v3_11_310basic_jsonIS0_St6vectorS6_blmdSaNS8_14adl_serializerESA_IhSaIhEEvEESt4lessIS6_ESaISt4pairIKS6_SE_EEEE8allocateEmPKv = comdat any

$_ZNKSt15__new_allocatorISt3mapINSt7__cxx1112basic_stringIcSt11char_traitsIcESaIcEEEN8nlohmann16json_abi_v3_11_310basic_jsonIS0_St6vectorS6_blmdSaNS8_14adl_serializerESA_IhSaIhEEvEESt4lessIS6_ESaISt4pairIKS6_SE_EEEE11_M_max_sizeEv = comdat any

$_ZNSt15__uniq_ptr_dataISt3mapINSt7__cxx1112basic_stringIcSt11char_traitsIcESaIcEEEN8nlohmann16json_abi_v3_11_310basic_jsonIS0_St6vectorS6_blmdSaNS8_14adl_serializerESA_IhSaIhEEvEESt4lessIS6_ESaISt4pairIKS6_SE_EEEZNSE_6createISL_JEEEPT_DpOT0_EUlPSL_E_Lb1ELb0EECI2St15__uniq_ptr_implISL_ST_EIRKST_EESS_OSN_ = comdat any

$_ZNSt15__uniq_ptr_implISt3mapINSt7__cxx1112basic_stringIcSt11char_traitsIcESaIcEEEN8nlohmann16json_abi_v3_11_310basic_jsonIS0_St6vectorS6_blmdSaNS8_14adl_serializerESA_IhSaIhEEvEESt4lessIS6_ESaISt4pairIKS6_SE_EEEZNSE_6createISL_JEEEPT_DpOT0_EUlPSL_E_EC2IRKST_EESS_OSN_ = comdat any

$_ZNSt5tupleIJPSt3mapINSt7__cxx1112basic_stringIcSt11char_traitsIcESaIcEEEN8nlohmann16json_abi_v3_11_310basic_jsonIS0_St6vectorS6_blmdSaNS8_14adl_serializerESA_IhSaIhEEvEESt4lessIS6_ESaISt4pairIKS6_SE_EEEZNSE_6createISL_JEEEPT_DpOT0_EUlSM_E_EEC2IRSM_RKST_TnNSt9enable_ifIXclsr4_TCCIXntcl14__is_alloc_argISO_EEEEE29__is_implicitly_constructibleISO_T0_EEEbE4typeELb1EEEOSO_OS10_ = comdat any

$_ZNSt11_Tuple_implILm0EJPSt3mapINSt7__cxx1112basic_stringIcSt11char_traitsIcESaIcEEEN8nlohmann16json_abi_v3_11_310basic_jsonIS0_St6vectorS6_blmdSaNS8_14adl_serializerESA_IhSaIhEEvEESt4lessIS6_ESaISt4pairIKS6_SE_EEEZNSE_6createISL_JEEEPT_DpOT0_EUlSM_E_EEC2IRSM_JRKST_EvEEOSO_SS_ = comdat any

$_ZNSt11_Tuple_implILm1EJZN8nlohmann16json_abi_v3_11_310basic_jsonISt3mapSt6vectorNSt7__cxx1112basic_stringIcSt11char_traitsIcESaIcEEEblmdSaNS1_14adl_serializerES4_IhSaIhEEvE6createIS3_ISA_SE_St4lessISA_ESaISt4pairIKSA_SE_EEEJEEEPT_DpOT0_EUlPSM_E_EEC2ERKST_ = comdat any

$_ZNSt10_Head_baseILm0EPSt3mapINSt7__cxx1112basic_stringIcSt11char_traitsIcESaIcEEEN8nlohmann16json_abi_v3_11_310basic_jsonIS0_St6vectorS6_blmdSaNS8_14adl_serializerESA_IhSaIhEEvEESt4lessIS6_ESaISt4pairIKS6_SE_EEELb0EEC2IRSM_EEOT_ = comdat any

$_ZNSt10_Head_baseILm1EZN8nlohmann16json_abi_v3_11_310basic_jsonISt3mapSt6vectorNSt7__cxx1112basic_stringIcSt11char_traitsIcESaIcEEEblmdSaNS1_14adl_serializerES4_IhSaIhEEvE6createIS3_ISA_SE_St4lessISA_ESaISt4pairIKSA_SE_EEEJEEEPT_DpOT0_EUlPSM_E_Lb0EEC2ERKST_ = comdat any

$_ZNSt15__new_allocatorISt3mapINSt7__cxx1112basic_stringIcSt11char_traitsIcESaIcEEEN8nlohmann16json_abi_v3_11_310basic_jsonIS0_St6vectorS6_blmdSaNS8_14adl_serializerESA_IhSaIhEEvEESt4lessIS6_ESaISt4pairIKS6_SE_EEEE9constructISL_JEEEvPT_DpOT0_ = comdat any

$_ZNSt3mapINSt7__cxx1112basic_stringIcSt11char_traitsIcESaIcEEEN8nlohmann16json_abi_v3_11_310basic_jsonIS_St6vectorS5_blmdSaNS7_14adl_serializerES9_IhSaIhEEvEESt4lessIS5_ESaISt4pairIKS5_SD_EEEC2Ev = comdat any

$_ZNSt8_Rb_treeINSt7__cxx1112basic_stringIcSt11char_traitsIcESaIcEEESt4pairIKS5_N8nlohmann16json_abi_v3_11_310basic_jsonISt3mapSt6vectorS5_blmdSaNS9_14adl_serializerESC_IhSaIhEEvEEESt10_Select1stISH_ESt4lessIS5_ESaISH_EEC2Ev = comdat any

$_ZNSt8_Rb_treeINSt7__cxx1112basic_stringIcSt11char_traitsIcESaIcEEESt4pairIKS5_N8nlohmann16json_abi_v3_11_310basic_jsonISt3mapSt6vectorS5_blmdSaNS9_14adl_serializerESC_IhSaIhEEvEEESt10_Select1stISH_ESt4lessIS5_ESaISH_EE13_Rb_tree_implISL_Lb1EEC2Ev = comdat any

$_ZNSaISt13_Rb_tree_nodeISt4pairIKNSt7__cxx1112basic_stringIcSt11char_traitsIcESaIcEEEN8nlohmann16json_abi_v3_11_310basic_jsonISt3mapSt6vectorS6_blmdSaNS9_14adl_serializerESC_IhSaIhEEvEEEEEC2Ev = comdat any

$_ZNSt20_Rb_tree_key_compareISt4lessINSt7__cxx1112basic_stringIcSt11char_traitsIcESaIcEEEEEC2Ev = comdat any

$_ZNSt15_Rb_tree_headerC2Ev = comdat any

$_ZNSt15__new_allocatorISt13_Rb_tree_nodeISt4pairIKNSt7__cxx1112basic_stringIcSt11char_traitsIcESaIcEEEN8nlohmann16json_abi_v3_11_310basic_jsonISt3mapSt6vectorS7_blmdSaNSA_14adl_serializerESD_IhSaIhEEvEEEEEC2Ev = comdat any

$_ZNSt15_Rb_tree_header8_M_resetEv = comdat any

$_ZNKSt15__uniq_ptr_implISt3mapINSt7__cxx1112basic_stringIcSt11char_traitsIcESaIcEEEN8nlohmann16json_abi_v3_11_310basic_jsonIS0_St6vectorS6_blmdSaNS8_14adl_serializerESA_IhSaIhEEvEESt4lessIS6_ESaISt4pairIKS6_SE_EEEZNSE_6createISL_JEEEPT_DpOT0_EUlPSL_E_E6_M_ptrEv = comdat any

$_ZSt3getILm0EJPSt3mapINSt7__cxx1112basic_stringIcSt11char_traitsIcESaIcEEEN8nlohmann16json_abi_v3_11_310basic_jsonIS0_St6vectorS6_blmdSaNS8_14adl_serializerESA_IhSaIhEEvEESt4lessIS6_ESaISt4pairIKS6_SE_EEEZNSE_6createISL_JEEEPT_DpOT0_EUlSM_E_EERKNSt13tuple_elementIXT_ESt5tupleIJDpSQ_EEE4typeERKSX_ = comdat any

$_ZSt12__get_helperILm0EPSt3mapINSt7__cxx1112basic_stringIcSt11char_traitsIcESaIcEEEN8nlohmann16json_abi_v3_11_310basic_jsonIS0_St6vectorS6_blmdSaNS8_14adl_serializerESA_IhSaIhEEvEESt4lessIS6_ESaISt4pairIKS6_SE_EEEJZNSE_6createISL_JEEEPT_DpOT0_EUlSM_E_EERKT0_RKSt11_Tuple_implIXT_EJSU_DpT1_EE = comdat any

$_ZNSt11_Tuple_implILm0EJPSt3mapINSt7__cxx1112basic_stringIcSt11char_traitsIcESaIcEEEN8nlohmann16json_abi_v3_11_310basic_jsonIS0_St6vectorS6_blmdSaNS8_14adl_serializerESA_IhSaIhEEvEESt4lessIS6_ESaISt4pairIKS6_SE_EEEZNSE_6createISL_JEEEPT_DpOT0_EUlSM_E_EE7_M_headERKSU_ = comdat any

$_ZNSt10_Head_baseILm0EPSt3mapINSt7__cxx1112basic_stringIcSt11char_traitsIcESaIcEEEN8nlohmann16json_abi_v3_11_310basic_jsonIS0_St6vectorS6_blmdSaNS8_14adl_serializerESA_IhSaIhEEvEESt4lessIS6_ESaISt4pairIKS6_SE_EEELb0EE7_M_headERKSN_ = comdat any

$_ZNSt15__uniq_ptr_implISt3mapINSt7__cxx1112basic_stringIcSt11char_traitsIcESaIcEEEN8nlohmann16json_abi_v3_11_310basic_jsonIS0_St6vectorS6_blmdSaNS8_14adl_serializerESA_IhSaIhEEvEESt4lessIS6_ESaISt4pairIKS6_SE_EEEZNSE_6createISL_JEEEPT_DpOT0_EUlPSL_E_E7releaseEv = comdat any

$_ZNSt15__uniq_ptr_implISt3mapINSt7__cxx1112basic_stringIcSt11char_traitsIcESaIcEEEN8nlohmann16json_abi_v3_11_310basic_jsonIS0_St6vectorS6_blmdSaNS8_14adl_serializerESA_IhSaIhEEvEESt4lessIS6_ESaISt4pairIKS6_SE_EEEZNSE_6createISL_JEEEPT_DpOT0_EUlPSL_E_E6_M_ptrEv = comdat any

$_ZSt3getILm0EJPSt3mapINSt7__cxx1112basic_stringIcSt11char_traitsIcESaIcEEEN8nlohmann16json_abi_v3_11_310basic_jsonIS0_St6vectorS6_blmdSaNS8_14adl_serializerESA_IhSaIhEEvEESt4lessIS6_ESaISt4pairIKS6_SE_EEEZNSE_6createISL_JEEEPT_DpOT0_EUlSM_E_EERNSt13tuple_elementIXT_ESt5tupleIJDpSQ_EEE4typeERSX_ = comdat any

$_ZSt12__get_helperILm0EPSt3mapINSt7__cxx1112basic_stringIcSt11char_traitsIcESaIcEEEN8nlohmann16json_abi_v3_11_310basic_jsonIS0_St6vectorS6_blmdSaNS8_14adl_serializerESA_IhSaIhEEvEESt4lessIS6_ESaISt4pairIKS6_SE_EEEJZNSE_6createISL_JEEEPT_DpOT0_EUlSM_E_EERT0_RSt11_Tuple_implIXT_EJSU_DpT1_EE = comdat any

$_ZNSt11_Tuple_implILm0EJPSt3mapINSt7__cxx1112basic_stringIcSt11char_traitsIcESaIcEEEN8nlohmann16json_abi_v3_11_310basic_jsonIS0_St6vectorS6_blmdSaNS8_14adl_serializerESA_IhSaIhEEvEESt4lessIS6_ESaISt4pairIKS6_SE_EEEZNSE_6createISL_JEEEPT_DpOT0_EUlSM_E_EE7_M_headERSU_ = comdat any

$_ZNSt10_Head_baseILm0EPSt3mapINSt7__cxx1112basic_stringIcSt11char_traitsIcESaIcEEEN8nlohmann16json_abi_v3_11_310basic_jsonIS0_St6vectorS6_blmdSaNS8_14adl_serializerESA_IhSaIhEEvEESt4lessIS6_ESaISt4pairIKS6_SE_EEELb0EE7_M_headERSN_ = comdat any

$_ZNSt10unique_ptrISt3mapINSt7__cxx1112basic_stringIcSt11char_traitsIcESaIcEEEN8nlohmann16json_abi_v3_11_310basic_jsonIS0_St6vectorS6_blmdSaNS8_14adl_serializerESA_IhSaIhEEvEESt4lessIS6_ESaISt4pairIKS6_SE_EEEZNSE_6createISL_JEEEPT_DpOT0_EUlPSL_E_E11get_deleterEv = comdat any

$_ZZN8nlohmann16json_abi_v3_11_310basic_jsonISt3mapSt6vectorNSt7__cxx1112basic_stringIcSt11char_traitsIcESaIcEEEblmdSaNS0_14adl_serializerES3_IhSaIhEEvE6createIS2_IS9_SD_St4lessIS9_ESaISt4pairIKS9_SD_EEEJEEEPT_DpOT0_ENKUlPSL_E_clESR_ = comdat any

$_ZNSt15__uniq_ptr_implISt3mapINSt7__cxx1112basic_stringIcSt11char_traitsIcESaIcEEEN8nlohmann16json_abi_v3_11_310basic_jsonIS0_St6vectorS6_blmdSaNS8_14adl_serializerESA_IhSaIhEEvEESt4lessIS6_ESaISt4pairIKS6_SE_EEEZNSE_6createISL_JEEEPT_DpOT0_EUlPSL_E_E10_M_deleterEv = comdat any

$_ZSt3getILm1EJPSt3mapINSt7__cxx1112basic_stringIcSt11char_traitsIcESaIcEEEN8nlohmann16json_abi_v3_11_310basic_jsonIS0_St6vectorS6_blmdSaNS8_14adl_serializerESA_IhSaIhEEvEESt4lessIS6_ESaISt4pairIKS6_SE_EEEZNSE_6createISL_JEEEPT_DpOT0_EUlSM_E_EERNSt13tuple_elementIXT_ESt5tupleIJDpSQ_EEE4typeERSX_ = comdat any

$_ZSt12__get_helperILm1EZN8nlohmann16json_abi_v3_11_310basic_jsonISt3mapSt6vectorNSt7__cxx1112basic_stringIcSt11char_traitsIcESaIcEEEblmdSaNS1_14adl_serializerES4_IhSaIhEEvE6createIS3_ISA_SE_St4lessISA_ESaISt4pairIKSA_SE_EEEJEEEPT_DpOT0_EUlPSM_E_JEERT0_RSt11_Tuple_implIXT_EJSU_DpT1_EE = comdat any

$_ZNSt11_Tuple_implILm1EJZN8nlohmann16json_abi_v3_11_310basic_jsonISt3mapSt6vectorNSt7__cxx1112basic_stringIcSt11char_traitsIcESaIcEEEblmdSaNS1_14adl_serializerES4_IhSaIhEEvE6createIS3_ISA_SE_St4lessISA_ESaISt4pairIKSA_SE_EEEJEEEPT_DpOT0_EUlPSM_E_EE7_M_headERSU_ = comdat any

$_ZNSt10_Head_baseILm1EZN8nlohmann16json_abi_v3_11_310basic_jsonISt3mapSt6vectorNSt7__cxx1112basic_stringIcSt11char_traitsIcESaIcEEEblmdSaNS1_14adl_serializerES4_IhSaIhEEvE6createIS3_ISA_SE_St4lessISA_ESaISt4pairIKSA_SE_EEEJEEEPT_DpOT0_EUlPSM_E_Lb0EE7_M_headERSU_ = comdat any

$_ZNSt16allocator_traitsISaISt3mapINSt7__cxx1112basic_stringIcSt11char_traitsIcESaIcEEEN8nlohmann16json_abi_v3_11_310basic_jsonIS0_St6vectorS6_blmdSaNS8_14adl_serializerESA_IhSaIhEEvEESt4lessIS6_ESaISt4pairIKS6_SE_EEEEE10deallocateERSM_PSL_m = comdat any

$_ZNSt15__new_allocatorISt3mapINSt7__cxx1112basic_stringIcSt11char_traitsIcESaIcEEEN8nlohmann16json_abi_v3_11_310basic_jsonIS0_St6vectorS6_blmdSaNS8_14adl_serializerESA_IhSaIhEEvEESt4lessIS6_ESaISt4pairIKS6_SE_EEEE10deallocateEPSL_m = comdat any

$_ZNSt15__new_allocatorISt3mapINSt7__cxx1112basic_stringIcSt11char_traitsIcESaIcEEEN8nlohmann16json_abi_v3_11_310basic_jsonIS0_St6vectorS6_blmdSaNS8_14adl_serializerESA_IhSaIhEEvEESt4lessIS6_ESaISt4pairIKS6_SE_EEEED2Ev = comdat any

$_ZNSaISt6vectorIN8nlohmann16json_abi_v3_11_310basic_jsonISt3mapS_NSt7__cxx1112basic_stringIcSt11char_traitsIcESaIcEEEblmdSaNS1_14adl_serializerES_IhSaIhEEvEESaISD_EEEC2Ev = comdat any

$_ZNSt16allocator_traitsISaISt6vectorIN8nlohmann16json_abi_v3_11_310basic_jsonISt3mapS0_NSt7__cxx1112basic_stringIcSt11char_traitsIcESaIcEEEblmdSaNS2_14adl_serializerES0_IhSaIhEEvEESaISE_EEEE8allocateERSH_m = comdat any

$_ZNSt10unique_ptrISt6vectorIN8nlohmann16json_abi_v3_11_310basic_jsonISt3mapS0_NSt7__cxx1112basic_stringIcSt11char_traitsIcESaIcEEEblmdSaNS2_14adl_serializerES0_IhSaIhEEvEESaISE_EEZNSE_6createISG_JEEEPT_DpOT0_EUlPSG_E_EC2ISO_vEESN_RKSO_ = comdat any

$_ZNSt16allocator_traitsISaISt6vectorIN8nlohmann16json_abi_v3_11_310basic_jsonISt3mapS0_NSt7__cxx1112basic_stringIcSt11char_traitsIcESaIcEEEblmdSaNS2_14adl_serializerES0_IhSaIhEEvEESaISE_EEEE9constructISG_JEEEvRSH_PT_DpOT0_ = comdat any

$_ZNKSt10unique_ptrISt6vectorIN8nlohmann16json_abi_v3_11_310basic_jsonISt3mapS0_NSt7__cxx1112basic_stringIcSt11char_traitsIcESaIcEEEblmdSaNS2_14adl_serializerES0_IhSaIhEEvEESaISE_EEZNSE_6createISG_JEEEPT_DpOT0_EUlPSG_E_E3getEv = comdat any

$_ZNSt10unique_ptrISt6vectorIN8nlohmann16json_abi_v3_11_310basic_jsonISt3mapS0_NSt7__cxx1112basic_stringIcSt11char_traitsIcESaIcEEEblmdSaNS2_14adl_serializerES0_IhSaIhEEvEESaISE_EEZNSE_6createISG_JEEEPT_DpOT0_EUlPSG_E_E7releaseEv = comdat any

$_ZNSt10unique_ptrISt6vectorIN8nlohmann16json_abi_v3_11_310basic_jsonISt3mapS0_NSt7__cxx1112basic_stringIcSt11char_traitsIcESaIcEEEblmdSaNS2_14adl_serializerES0_IhSaIhEEvEESaISE_EEZNSE_6createISG_JEEEPT_DpOT0_EUlPSG_E_ED2Ev = comdat any

$_ZNSaISt6vectorIN8nlohmann16json_abi_v3_11_310basic_jsonISt3mapS_NSt7__cxx1112basic_stringIcSt11char_traitsIcESaIcEEEblmdSaNS1_14adl_serializerES_IhSaIhEEvEESaISD_EEED2Ev = comdat any

$_ZNSt15__new_allocatorISt6vectorIN8nlohmann16json_abi_v3_11_310basic_jsonISt3mapS0_NSt7__cxx1112basic_stringIcSt11char_traitsIcESaIcEEEblmdSaNS2_14adl_serializerES0_IhSaIhEEvEESaISE_EEEC2Ev = comdat any

$_ZNSt15__new_allocatorISt6vectorIN8nlohmann16json_abi_v3_11_310basic_jsonISt3mapS0_NSt7__cxx1112basic_stringIcSt11char_traitsIcESaIcEEEblmdSaNS2_14adl_serializerES0_IhSaIhEEvEESaISE_EEE8allocateEmPKv = comdat any

$_ZNKSt15__new_allocatorISt6vectorIN8nlohmann16json_abi_v3_11_310basic_jsonISt3mapS0_NSt7__cxx1112basic_stringIcSt11char_traitsIcESaIcEEEblmdSaNS2_14adl_serializerES0_IhSaIhEEvEESaISE_EEE11_M_max_sizeEv = comdat any

$_ZNSt15__uniq_ptr_dataISt6vectorIN8nlohmann16json_abi_v3_11_310basic_jsonISt3mapS0_NSt7__cxx1112basic_stringIcSt11char_traitsIcESaIcEEEblmdSaNS2_14adl_serializerES0_IhSaIhEEvEESaISE_EEZNSE_6createISG_JEEEPT_DpOT0_EUlPSG_E_Lb1ELb0EECI2St15__uniq_ptr_implISG_SO_EIRKSO_EESN_OSI_ = comdat any

$_ZNSt15__uniq_ptr_implISt6vectorIN8nlohmann16json_abi_v3_11_310basic_jsonISt3mapS0_NSt7__cxx1112basic_stringIcSt11char_traitsIcESaIcEEEblmdSaNS2_14adl_serializerES0_IhSaIhEEvEESaISE_EEZNSE_6createISG_JEEEPT_DpOT0_EUlPSG_E_EC2IRKSO_EESN_OSI_ = comdat any

$_ZNSt5tupleIJPSt6vectorIN8nlohmann16json_abi_v3_11_310basic_jsonISt3mapS0_NSt7__cxx1112basic_stringIcSt11char_traitsIcESaIcEEEblmdSaNS2_14adl_serializerES0_IhSaIhEEvEESaISE_EEZNSE_6createISG_JEEEPT_DpOT0_EUlSH_E_EEC2IRSH_RKSO_TnNSt9enable_ifIXclsr4_TCCIXntcl14__is_alloc_argISJ_EEEEE29__is_implicitly_constructibleISJ_T0_EEEbE4typeELb1EEEOSJ_OSV_ = comdat any

$_ZNSt11_Tuple_implILm0EJPSt6vectorIN8nlohmann16json_abi_v3_11_310basic_jsonISt3mapS0_NSt7__cxx1112basic_stringIcSt11char_traitsIcESaIcEEEblmdSaNS2_14adl_serializerES0_IhSaIhEEvEESaISE_EEZNSE_6createISG_JEEEPT_DpOT0_EUlSH_E_EEC2IRSH_JRKSO_EvEEOSJ_SN_ = comdat any

$_ZNSt11_Tuple_implILm1EJZN8nlohmann16json_abi_v3_11_310basic_jsonISt3mapSt6vectorNSt7__cxx1112basic_stringIcSt11char_traitsIcESaIcEEEblmdSaNS1_14adl_serializerES4_IhSaIhEEvE6createIS4_ISE_SaISE_EEJEEEPT_DpOT0_EUlPSH_E_EEC2ERKSO_ = comdat any

$_ZNSt10_Head_baseILm0EPSt6vectorIN8nlohmann16json_abi_v3_11_310basic_jsonISt3mapS0_NSt7__cxx1112basic_stringIcSt11char_traitsIcESaIcEEEblmdSaNS2_14adl_serializerES0_IhSaIhEEvEESaISE_EELb0EEC2IRSH_EEOT_ = comdat any

$_ZNSt10_Head_baseILm1EZN8nlohmann16json_abi_v3_11_310basic_jsonISt3mapSt6vectorNSt7__cxx1112basic_stringIcSt11char_traitsIcESaIcEEEblmdSaNS1_14adl_serializerES4_IhSaIhEEvE6createIS4_ISE_SaISE_EEJEEEPT_DpOT0_EUlPSH_E_Lb0EEC2ERKSO_ = comdat any

$_ZNSt15__new_allocatorISt6vectorIN8nlohmann16json_abi_v3_11_310basic_jsonISt3mapS0_NSt7__cxx1112basic_stringIcSt11char_traitsIcESaIcEEEblmdSaNS2_14adl_serializerES0_IhSaIhEEvEESaISE_EEE9constructISG_JEEEvPT_DpOT0_ = comdat any

$_ZNSt6vectorIN8nlohmann16json_abi_v3_11_310basic_jsonISt3mapS_NSt7__cxx1112basic_stringIcSt11char_traitsIcESaIcEEEblmdSaNS1_14adl_serializerES_IhSaIhEEvEESaISD_EEC2Ev = comdat any

$_ZNSt12_Vector_baseIN8nlohmann16json_abi_v3_11_310basic_jsonISt3mapSt6vectorNSt7__cxx1112basic_stringIcSt11char_traitsIcESaIcEEEblmdSaNS1_14adl_serializerES4_IhSaIhEEvEESaISE_EEC2Ev = comdat any

$_ZNSt12_Vector_baseIN8nlohmann16json_abi_v3_11_310basic_jsonISt3mapSt6vectorNSt7__cxx1112basic_stringIcSt11char_traitsIcESaIcEEEblmdSaNS1_14adl_serializerES4_IhSaIhEEvEESaISE_EE12_Vector_implC2Ev = comdat any

$_ZNSt12_Vector_baseIN8nlohmann16json_abi_v3_11_310basic_jsonISt3mapSt6vectorNSt7__cxx1112basic_stringIcSt11char_traitsIcESaIcEEEblmdSaNS1_14adl_serializerES4_IhSaIhEEvEESaISE_EE17_Vector_impl_dataC2Ev = comdat any

$_ZNSt15__new_allocatorIN8nlohmann16json_abi_v3_11_310basic_jsonISt3mapSt6vectorNSt7__cxx1112basic_stringIcSt11char_traitsIcESaIcEEEblmdSaNS1_14adl_serializerES4_IhSaIhEEvEEEC2Ev = comdat any

$_ZNKSt15__uniq_ptr_implISt6vectorIN8nlohmann16json_abi_v3_11_310basic_jsonISt3mapS0_NSt7__cxx1112basic_stringIcSt11char_traitsIcESaIcEEEblmdSaNS2_14adl_serializerES0_IhSaIhEEvEESaISE_EEZNSE_6createISG_JEEEPT_DpOT0_EUlPSG_E_E6_M_ptrEv = comdat any

$_ZSt3getILm0EJPSt6vectorIN8nlohmann16json_abi_v3_11_310basic_jsonISt3mapS0_NSt7__cxx1112basic_stringIcSt11char_traitsIcESaIcEEEblmdSaNS2_14adl_serializerES0_IhSaIhEEvEESaISE_EEZNSE_6createISG_JEEEPT_DpOT0_EUlSH_E_EERKNSt13tuple_elementIXT_ESt5tupleIJDpSL_EEE4typeERKSS_ = comdat any

$_ZSt12__get_helperILm0EPSt6vectorIN8nlohmann16json_abi_v3_11_310basic_jsonISt3mapS0_NSt7__cxx1112basic_stringIcSt11char_traitsIcESaIcEEEblmdSaNS2_14adl_serializerES0_IhSaIhEEvEESaISE_EEJZNSE_6createISG_JEEEPT_DpOT0_EUlSH_E_EERKT0_RKSt11_Tuple_implIXT_EJSP_DpT1_EE = comdat any

$_ZNSt11_Tuple_implILm0EJPSt6vectorIN8nlohmann16json_abi_v3_11_310basic_jsonISt3mapS0_NSt7__cxx1112basic_stringIcSt11char_traitsIcESaIcEEEblmdSaNS2_14adl_serializerES0_IhSaIhEEvEESaISE_EEZNSE_6createISG_JEEEPT_DpOT0_EUlSH_E_EE7_M_headERKSP_ = comdat any

$_ZNSt10_Head_baseILm0EPSt6vectorIN8nlohmann16json_abi_v3_11_310basic_jsonISt3mapS0_NSt7__cxx1112basic_stringIcSt11char_traitsIcESaIcEEEblmdSaNS2_14adl_serializerES0_IhSaIhEEvEESaISE_EELb0EE7_M_headERKSI_ = comdat any

$_ZNSt15__uniq_ptr_implISt6vectorIN8nlohmann16json_abi_v3_11_310basic_jsonISt3mapS0_NSt7__cxx1112basic_stringIcSt11char_traitsIcESaIcEEEblmdSaNS2_14adl_serializerES0_IhSaIhEEvEESaISE_EEZNSE_6createISG_JEEEPT_DpOT0_EUlPSG_E_E7releaseEv = comdat any

$_ZNSt15__uniq_ptr_implISt6vectorIN8nlohmann16json_abi_v3_11_310basic_jsonISt3mapS0_NSt7__cxx1112basic_stringIcSt11char_traitsIcESaIcEEEblmdSaNS2_14adl_serializerES0_IhSaIhEEvEESaISE_EEZNSE_6createISG_JEEEPT_DpOT0_EUlPSG_E_E6_M_ptrEv = comdat any

$_ZSt3getILm0EJPSt6vectorIN8nlohmann16json_abi_v3_11_310basic_jsonISt3mapS0_NSt7__cxx1112basic_stringIcSt11char_traitsIcESaIcEEEblmdSaNS2_14adl_serializerES0_IhSaIhEEvEESaISE_EEZNSE_6createISG_JEEEPT_DpOT0_EUlSH_E_EERNSt13tuple_elementIXT_ESt5tupleIJDpSL_EEE4typeERSS_ = comdat any

$_ZSt12__get_helperILm0EPSt6vectorIN8nlohmann16json_abi_v3_11_310basic_jsonISt3mapS0_NSt7__cxx1112basic_stringIcSt11char_traitsIcESaIcEEEblmdSaNS2_14adl_serializerES0_IhSaIhEEvEESaISE_EEJZNSE_6createISG_JEEEPT_DpOT0_EUlSH_E_EERT0_RSt11_Tuple_implIXT_EJSP_DpT1_EE = comdat any

$_ZNSt11_Tuple_implILm0EJPSt6vectorIN8nlohmann16json_abi_v3_11_310basic_jsonISt3mapS0_NSt7__cxx1112basic_stringIcSt11char_traitsIcESaIcEEEblmdSaNS2_14adl_serializerES0_IhSaIhEEvEESaISE_EEZNSE_6createISG_JEEEPT_DpOT0_EUlSH_E_EE7_M_headERSP_ = comdat any

$_ZNSt10_Head_baseILm0EPSt6vectorIN8nlohmann16json_abi_v3_11_310basic_jsonISt3mapS0_NSt7__cxx1112basic_stringIcSt11char_traitsIcESaIcEEEblmdSaNS2_14adl_serializerES0_IhSaIhEEvEESaISE_EELb0EE7_M_headERSI_ = comdat any

$_ZNSt10unique_ptrISt6vectorIN8nlohmann16json_abi_v3_11_310basic_jsonISt3mapS0_NSt7__cxx1112basic_stringIcSt11char_traitsIcESaIcEEEblmdSaNS2_14adl_serializerES0_IhSaIhEEvEESaISE_EEZNSE_6createISG_JEEEPT_DpOT0_EUlPSG_E_E11get_deleterEv = comdat any

$_ZZN8nlohmann16json_abi_v3_11_310basic_jsonISt3mapSt6vectorNSt7__cxx1112basic_stringIcSt11char_traitsIcESaIcEEEblmdSaNS0_14adl_serializerES3_IhSaIhEEvE6createIS3_ISD_SaISD_EEJEEEPT_DpOT0_ENKUlPSG_E_clESM_ = comdat any

$_ZNSt15__uniq_ptr_implISt6vectorIN8nlohmann16json_abi_v3_11_310basic_jsonISt3mapS0_NSt7__cxx1112basic_stringIcSt11char_traitsIcESaIcEEEblmdSaNS2_14adl_serializerES0_IhSaIhEEvEESaISE_EEZNSE_6createISG_JEEEPT_DpOT0_EUlPSG_E_E10_M_deleterEv = comdat any

$_ZSt3getILm1EJPSt6vectorIN8nlohmann16json_abi_v3_11_310basic_jsonISt3mapS0_NSt7__cxx1112basic_stringIcSt11char_traitsIcESaIcEEEblmdSaNS2_14adl_serializerES0_IhSaIhEEvEESaISE_EEZNSE_6createISG_JEEEPT_DpOT0_EUlSH_E_EERNSt13tuple_elementIXT_ESt5tupleIJDpSL_EEE4typeERSS_ = comdat any

$_ZSt12__get_helperILm1EZN8nlohmann16json_abi_v3_11_310basic_jsonISt3mapSt6vectorNSt7__cxx1112basic_stringIcSt11char_traitsIcESaIcEEEblmdSaNS1_14adl_serializerES4_IhSaIhEEvE6createIS4_ISE_SaISE_EEJEEEPT_DpOT0_EUlPSH_E_JEERT0_RSt11_Tuple_implIXT_EJSP_DpT1_EE = comdat any

$_ZNSt11_Tuple_implILm1EJZN8nlohmann16json_abi_v3_11_310basic_jsonISt3mapSt6vectorNSt7__cxx1112basic_stringIcSt11char_traitsIcESaIcEEEblmdSaNS1_14adl_serializerES4_IhSaIhEEvE6createIS4_ISE_SaISE_EEJEEEPT_DpOT0_EUlPSH_E_EE7_M_headERSP_ = comdat any

$_ZNSt10_Head_baseILm1EZN8nlohmann16json_abi_v3_11_310basic_jsonISt3mapSt6vectorNSt7__cxx1112basic_stringIcSt11char_traitsIcESaIcEEEblmdSaNS1_14adl_serializerES4_IhSaIhEEvE6createIS4_ISE_SaISE_EEJEEEPT_DpOT0_EUlPSH_E_Lb0EE7_M_headERSP_ = comdat any

$_ZNSt16allocator_traitsISaISt6vectorIN8nlohmann16json_abi_v3_11_310basic_jsonISt3mapS0_NSt7__cxx1112basic_stringIcSt11char_traitsIcESaIcEEEblmdSaNS2_14adl_serializerES0_IhSaIhEEvEESaISE_EEEE10deallocateERSH_PSG_m = comdat any

$_ZNSt15__new_allocatorISt6vectorIN8nlohmann16json_abi_v3_11_310basic_jsonISt3mapS0_NSt7__cxx1112basic_stringIcSt11char_traitsIcESaIcEEEblmdSaNS2_14adl_serializerES0_IhSaIhEEvEESaISE_EEE10deallocateEPSG_m = comdat any

$_ZNSt15__new_allocatorISt6vectorIN8nlohmann16json_abi_v3_11_310basic_jsonISt3mapS0_NSt7__cxx1112basic_stringIcSt11char_traitsIcESaIcEEEblmdSaNS2_14adl_serializerES0_IhSaIhEEvEESaISE_EEED2Ev = comdat any

$_ZNSaINSt7__cxx1112basic_stringIcSt11char_traitsIcESaIcEEEEC2Ev = comdat any

$_ZNSt16allocator_traitsISaINSt7__cxx1112basic_stringIcSt11char_traitsIcESaIcEEEEE8allocateERS6_m = comdat any

$_ZNSt10unique_ptrINSt7__cxx1112basic_stringIcSt11char_traitsIcESaIcEEEZN8nlohmann16json_abi_v3_11_310basic_jsonISt3mapSt6vectorS5_blmdSaNS7_14adl_serializerESA_IhSaIhEEvE6createIS5_JRA1_KcEEEPT_DpOT0_EUlPS5_E_EC2ISP_vEESO_RKSP_ = comdat any

$_ZNSt16allocator_traitsISaINSt7__cxx1112basic_stringIcSt11char_traitsIcESaIcEEEEE9constructIS5_JRA1_KcEEEvRS6_PT_DpOT0_ = comdat any

$_ZNKSt10unique_ptrINSt7__cxx1112basic_stringIcSt11char_traitsIcESaIcEEEZN8nlohmann16json_abi_v3_11_310basic_jsonISt3mapSt6vectorS5_blmdSaNS7_14adl_serializerESA_IhSaIhEEvE6createIS5_JRA1_KcEEEPT_DpOT0_EUlPS5_E_E3getEv = comdat any

$_ZNSt10unique_ptrINSt7__cxx1112basic_stringIcSt11char_traitsIcESaIcEEEZN8nlohmann16json_abi_v3_11_310basic_jsonISt3mapSt6vectorS5_blmdSaNS7_14adl_serializerESA_IhSaIhEEvE6createIS5_JRA1_KcEEEPT_DpOT0_EUlPS5_E_E7releaseEv = comdat any

$_ZNSt10unique_ptrINSt7__cxx1112basic_stringIcSt11char_traitsIcESaIcEEEZN8nlohmann16json_abi_v3_11_310basic_jsonISt3mapSt6vectorS5_blmdSaNS7_14adl_serializerESA_IhSaIhEEvE6createIS5_JRA1_KcEEEPT_DpOT0_EUlPS5_E_ED2Ev = comdat any

$_ZNSaINSt7__cxx1112basic_stringIcSt11char_traitsIcESaIcEEEED2Ev = comdat any

$_ZNSt15__new_allocatorINSt7__cxx1112basic_stringIcSt11char_traitsIcESaIcEEEEC2Ev = comdat any

$_ZNSt15__new_allocatorINSt7__cxx1112basic_stringIcSt11char_traitsIcESaIcEEEE8allocateEmPKv = comdat any

$_ZNKSt15__new_allocatorINSt7__cxx1112basic_stringIcSt11char_traitsIcESaIcEEEE11_M_max_sizeEv = comdat any

$_ZNSt15__uniq_ptr_dataINSt7__cxx1112basic_stringIcSt11char_traitsIcESaIcEEEZN8nlohmann16json_abi_v3_11_310basic_jsonISt3mapSt6vectorS5_blmdSaNS7_14adl_serializerESA_IhSaIhEEvE6createIS5_JRA1_KcEEEPT_DpOT0_EUlPS5_E_Lb1ELb0EECI2St15__uniq_ptr_implIS5_SP_EIRKSP_EESO_OSJ_ = comdat any

$_ZNSt15__uniq_ptr_implINSt7__cxx1112basic_stringIcSt11char_traitsIcESaIcEEEZN8nlohmann16json_abi_v3_11_310basic_jsonISt3mapSt6vectorS5_blmdSaNS7_14adl_serializerESA_IhSaIhEEvE6createIS5_JRA1_KcEEEPT_DpOT0_EUlPS5_E_EC2IRKSP_EESO_OSJ_ = comdat any

$_ZNSt5tupleIJPNSt7__cxx1112basic_stringIcSt11char_traitsIcESaIcEEEZN8nlohmann16json_abi_v3_11_310basic_jsonISt3mapSt6vectorS5_blmdSaNS8_14adl_serializerESB_IhSaIhEEvE6createIS5_JRA1_KcEEEPT_DpOT0_EUlS6_E_EEC2IRS6_RKSP_TnNSt9enable_ifIXclsr4_TCCIXntcl14__is_alloc_argISK_EEEEE29__is_implicitly_constructibleISK_T0_EEEbE4typeELb1EEEOSK_OSW_ = comdat any

$_ZNSt11_Tuple_implILm0EJPNSt7__cxx1112basic_stringIcSt11char_traitsIcESaIcEEEZN8nlohmann16json_abi_v3_11_310basic_jsonISt3mapSt6vectorS5_blmdSaNS8_14adl_serializerESB_IhSaIhEEvE6createIS5_JRA1_KcEEEPT_DpOT0_EUlS6_E_EEC2IRS6_JRKSP_EvEEOSK_SO_ = comdat any

$_ZNSt11_Tuple_implILm1EJZN8nlohmann16json_abi_v3_11_310basic_jsonISt3mapSt6vectorNSt7__cxx1112basic_stringIcSt11char_traitsIcESaIcEEEblmdSaNS1_14adl_serializerES4_IhSaIhEEvE6createISA_JRA1_KcEEEPT_DpOT0_EUlPSA_E_EEC2ERKSP_ = comdat any

$_ZNSt10_Head_baseILm0EPNSt7__cxx1112basic_stringIcSt11char_traitsIcESaIcEEELb0EEC2IRS6_EEOT_ = comdat any

$_ZNSt10_Head_baseILm1EZN8nlohmann16json_abi_v3_11_310basic_jsonISt3mapSt6vectorNSt7__cxx1112basic_stringIcSt11char_traitsIcESaIcEEEblmdSaNS1_14adl_serializerES4_IhSaIhEEvE6createISA_JRA1_KcEEEPT_DpOT0_EUlPSA_E_Lb0EEC2ERKSP_ = comdat any

$_ZNSt15__new_allocatorINSt7__cxx1112basic_stringIcSt11char_traitsIcESaIcEEEE9constructIS5_JRA1_KcEEEvPT_DpOT0_ = comdat any

$_ZNKSt15__uniq_ptr_implINSt7__cxx1112basic_stringIcSt11char_traitsIcESaIcEEEZN8nlohmann16json_abi_v3_11_310basic_jsonISt3mapSt6vectorS5_blmdSaNS7_14adl_serializerESA_IhSaIhEEvE6createIS5_JRA1_KcEEEPT_DpOT0_EUlPS5_E_E6_M_ptrEv = comdat any

$_ZSt3getILm0EJPNSt7__cxx1112basic_stringIcSt11char_traitsIcESaIcEEEZN8nlohmann16json_abi_v3_11_310basic_jsonISt3mapSt6vectorS5_blmdSaNS8_14adl_serializerESB_IhSaIhEEvE6createIS5_JRA1_KcEEEPT_DpOT0_EUlS6_E_EERKNSt13tuple_elementIXT_ESt5tupleIJDpSM_EEE4typeERKST_ = comdat any

$_ZSt12__get_helperILm0EPNSt7__cxx1112basic_stringIcSt11char_traitsIcESaIcEEEJZN8nlohmann16json_abi_v3_11_310basic_jsonISt3mapSt6vectorS5_blmdSaNS8_14adl_serializerESB_IhSaIhEEvE6createIS5_JRA1_KcEEEPT_DpOT0_EUlS6_E_EERKT0_RKSt11_Tuple_implIXT_EJSQ_DpT1_EE = comdat any

$_ZNSt11_Tuple_implILm0EJPNSt7__cxx1112basic_stringIcSt11char_traitsIcESaIcEEEZN8nlohmann16json_abi_v3_11_310basic_jsonISt3mapSt6vectorS5_blmdSaNS8_14adl_serializerESB_IhSaIhEEvE6createIS5_JRA1_KcEEEPT_DpOT0_EUlS6_E_EE7_M_headERKSQ_ = comdat any

$_ZNSt10_Head_baseILm0EPNSt7__cxx1112basic_stringIcSt11char_traitsIcESaIcEEELb0EE7_M_headERKS7_ = comdat any

$_ZNSt15__uniq_ptr_implINSt7__cxx1112basic_stringIcSt11char_traitsIcESaIcEEEZN8nlohmann16json_abi_v3_11_310basic_jsonISt3mapSt6vectorS5_blmdSaNS7_14adl_serializerESA_IhSaIhEEvE6createIS5_JRA1_KcEEEPT_DpOT0_EUlPS5_E_E7releaseEv = comdat any

$_ZNSt15__uniq_ptr_implINSt7__cxx1112basic_stringIcSt11char_traitsIcESaIcEEEZN8nlohmann16json_abi_v3_11_310basic_jsonISt3mapSt6vectorS5_blmdSaNS7_14adl_serializerESA_IhSaIhEEvE6createIS5_JRA1_KcEEEPT_DpOT0_EUlPS5_E_E6_M_ptrEv = comdat any

$_ZSt3getILm0EJPNSt7__cxx1112basic_stringIcSt11char_traitsIcESaIcEEEZN8nlohmann16json_abi_v3_11_310basic_jsonISt3mapSt6vectorS5_blmdSaNS8_14adl_serializerESB_IhSaIhEEvE6createIS5_JRA1_KcEEEPT_DpOT0_EUlS6_E_EERNSt13tuple_elementIXT_ESt5tupleIJDpSM_EEE4typeERST_ = comdat any

$_ZSt12__get_helperILm0EPNSt7__cxx1112basic_stringIcSt11char_traitsIcESaIcEEEJZN8nlohmann16json_abi_v3_11_310basic_jsonISt3mapSt6vectorS5_blmdSaNS8_14adl_serializerESB_IhSaIhEEvE6createIS5_JRA1_KcEEEPT_DpOT0_EUlS6_E_EERT0_RSt11_Tuple_implIXT_EJSQ_DpT1_EE = comdat any

$_ZNSt11_Tuple_implILm0EJPNSt7__cxx1112basic_stringIcSt11char_traitsIcESaIcEEEZN8nlohmann16json_abi_v3_11_310basic_jsonISt3mapSt6vectorS5_blmdSaNS8_14adl_serializerESB_IhSaIhEEvE6createIS5_JRA1_KcEEEPT_DpOT0_EUlS6_E_EE7_M_headERSQ_ = comdat any

$_ZNSt10_Head_baseILm0EPNSt7__cxx1112basic_stringIcSt11char_traitsIcESaIcEEELb0EE7_M_headERS7_ = comdat any

$_ZNSt10unique_ptrINSt7__cxx1112basic_stringIcSt11char_traitsIcESaIcEEEZN8nlohmann16json_abi_v3_11_310basic_jsonISt3mapSt6vectorS5_blmdSaNS7_14adl_serializerESA_IhSaIhEEvE6createIS5_JRA1_KcEEEPT_DpOT0_EUlPS5_E_E11get_deleterEv = comdat any

$_ZZN8nlohmann16json_abi_v3_11_310basic_jsonISt3mapSt6vectorNSt7__cxx1112basic_stringIcSt11char_traitsIcESaIcEEEblmdSaNS0_14adl_serializerES3_IhSaIhEEvE6createIS9_JRA1_KcEEEPT_DpOT0_ENKUlPS9_E_clESN_ = comdat any

$_ZNSt15__uniq_ptr_implINSt7__cxx1112basic_stringIcSt11char_traitsIcESaIcEEEZN8nlohmann16json_abi_v3_11_310basic_jsonISt3mapSt6vectorS5_blmdSaNS7_14adl_serializerESA_IhSaIhEEvE6createIS5_JRA1_KcEEEPT_DpOT0_EUlPS5_E_E10_M_deleterEv = comdat any

$_ZSt3getILm1EJPNSt7__cxx1112basic_stringIcSt11char_traitsIcESaIcEEEZN8nlohmann16json_abi_v3_11_310basic_jsonISt3mapSt6vectorS5_blmdSaNS8_14adl_serializerESB_IhSaIhEEvE6createIS5_JRA1_KcEEEPT_DpOT0_EUlS6_E_EERNSt13tuple_elementIXT_ESt5tupleIJDpSM_EEE4typeERST_ = comdat any

$_ZSt12__get_helperILm1EZN8nlohmann16json_abi_v3_11_310basic_jsonISt3mapSt6vectorNSt7__cxx1112basic_stringIcSt11char_traitsIcESaIcEEEblmdSaNS1_14adl_serializerES4_IhSaIhEEvE6createISA_JRA1_KcEEEPT_DpOT0_EUlPSA_E_JEERT0_RSt11_Tuple_implIXT_EJSQ_DpT1_EE = comdat any

$_ZNSt11_Tuple_implILm1EJZN8nlohmann16json_abi_v3_11_310basic_jsonISt3mapSt6vectorNSt7__cxx1112basic_stringIcSt11char_traitsIcESaIcEEEblmdSaNS1_14adl_serializerES4_IhSaIhEEvE6createISA_JRA1_KcEEEPT_DpOT0_EUlPSA_E_EE7_M_headERSQ_ = comdat any

$_ZNSt10_Head_baseILm1EZN8nlohmann16json_abi_v3_11_310basic_jsonISt3mapSt6vectorNSt7__cxx1112basic_stringIcSt11char_traitsIcESaIcEEEblmdSaNS1_14adl_serializerES4_IhSaIhEEvE6createISA_JRA1_KcEEEPT_DpOT0_EUlPSA_E_Lb0EE7_M_headERSQ_ = comdat any

$_ZNSt16allocator_traitsISaINSt7__cxx1112basic_stringIcSt11char_traitsIcESaIcEEEEE10deallocateERS6_PS5_m = comdat any

$_ZNSt15__new_allocatorINSt7__cxx1112basic_stringIcSt11char_traitsIcESaIcEEEE10deallocateEPS5_m = comdat any

$_ZNSt15__new_allocatorINSt7__cxx1112basic_stringIcSt11char_traitsIcESaIcEEEED2Ev = comdat any

$_ZNSaIN8nlohmann16json_abi_v3_11_327byte_container_with_subtypeISt6vectorIhSaIhEEEEEC2Ev = comdat any

$_ZNSt16allocator_traitsISaIN8nlohmann16json_abi_v3_11_327byte_container_with_subtypeISt6vectorIhSaIhEEEEEE8allocateERS7_m = comdat any

$_ZNSt10unique_ptrIN8nlohmann16json_abi_v3_11_327byte_container_with_subtypeISt6vectorIhSaIhEEEEZNS1_10basic_jsonISt3mapS3_NSt7__cxx1112basic_stringIcSt11char_traitsIcESaIcEEEblmdSaNS1_14adl_serializerES5_vE6createIS6_JEEEPT_DpOT0_EUlPS6_E_EC2ISO_vEESN_RKSO_ = comdat any

$_ZNSt16allocator_traitsISaIN8nlohmann16json_abi_v3_11_327byte_container_with_subtypeISt6vectorIhSaIhEEEEEE9constructIS6_JEEEvRS7_PT_DpOT0_ = comdat any

$_ZNKSt10unique_ptrIN8nlohmann16json_abi_v3_11_327byte_container_with_subtypeISt6vectorIhSaIhEEEEZNS1_10basic_jsonISt3mapS3_NSt7__cxx1112basic_stringIcSt11char_traitsIcESaIcEEEblmdSaNS1_14adl_serializerES5_vE6createIS6_JEEEPT_DpOT0_EUlPS6_E_E3getEv = comdat any

$_ZNSt10unique_ptrIN8nlohmann16json_abi_v3_11_327byte_container_with_subtypeISt6vectorIhSaIhEEEEZNS1_10basic_jsonISt3mapS3_NSt7__cxx1112basic_stringIcSt11char_traitsIcESaIcEEEblmdSaNS1_14adl_serializerES5_vE6createIS6_JEEEPT_DpOT0_EUlPS6_E_E7releaseEv = comdat any

$_ZNSt10unique_ptrIN8nlohmann16json_abi_v3_11_327byte_container_with_subtypeISt6vectorIhSaIhEEEEZNS1_10basic_jsonISt3mapS3_NSt7__cxx1112basic_stringIcSt11char_traitsIcESaIcEEEblmdSaNS1_14adl_serializerES5_vE6createIS6_JEEEPT_DpOT0_EUlPS6_E_ED2Ev = comdat any

$_ZNSaIN8nlohmann16json_abi_v3_11_327byte_container_with_subtypeISt6vectorIhSaIhEEEEED2Ev = comdat any

$_ZNSt15__new_allocatorIN8nlohmann16json_abi_v3_11_327byte_container_with_subtypeISt6vectorIhSaIhEEEEEC2Ev = comdat any

$_ZNSt15__new_allocatorIN8nlohmann16json_abi_v3_11_327byte_container_with_subtypeISt6vectorIhSaIhEEEEE8allocateEmPKv = comdat any

$_ZNKSt15__new_allocatorIN8nlohmann16json_abi_v3_11_327byte_container_with_subtypeISt6vectorIhSaIhEEEEE11_M_max_sizeEv = comdat any

$_ZNSt15__uniq_ptr_dataIN8nlohmann16json_abi_v3_11_327byte_container_with_subtypeISt6vectorIhSaIhEEEEZNS1_10basic_jsonISt3mapS3_NSt7__cxx1112basic_stringIcSt11char_traitsIcESaIcEEEblmdSaNS1_14adl_serializerES5_vE6createIS6_JEEEPT_DpOT0_EUlPS6_E_Lb1ELb0EECI2St15__uniq_ptr_implIS6_SO_EIRKSO_EESN_OSI_ = comdat any

$_ZNSt15__uniq_ptr_implIN8nlohmann16json_abi_v3_11_327byte_container_with_subtypeISt6vectorIhSaIhEEEEZNS1_10basic_jsonISt3mapS3_NSt7__cxx1112basic_stringIcSt11char_traitsIcESaIcEEEblmdSaNS1_14adl_serializerES5_vE6createIS6_JEEEPT_DpOT0_EUlPS6_E_EC2IRKSO_EESN_OSI_ = comdat any

$_ZNSt5tupleIJPN8nlohmann16json_abi_v3_11_327byte_container_with_subtypeISt6vectorIhSaIhEEEEZNS1_10basic_jsonISt3mapS3_NSt7__cxx1112basic_stringIcSt11char_traitsIcESaIcEEEblmdSaNS1_14adl_serializerES5_vE6createIS6_JEEEPT_DpOT0_EUlS7_E_EEC2IRS7_RKSO_TnNSt9enable_ifIXclsr4_TCCIXntcl14__is_alloc_argISJ_EEEEE29__is_implicitly_constructibleISJ_T0_EEEbE4typeELb1EEEOSJ_OSV_ = comdat any

$_ZNSt11_Tuple_implILm0EJPN8nlohmann16json_abi_v3_11_327byte_container_with_subtypeISt6vectorIhSaIhEEEEZNS1_10basic_jsonISt3mapS3_NSt7__cxx1112basic_stringIcSt11char_traitsIcESaIcEEEblmdSaNS1_14adl_serializerES5_vE6createIS6_JEEEPT_DpOT0_EUlS7_E_EEC2IRS7_JRKSO_EvEEOSJ_SN_ = comdat any

$_ZNSt11_Tuple_implILm1EJZN8nlohmann16json_abi_v3_11_310basic_jsonISt3mapSt6vectorNSt7__cxx1112basic_stringIcSt11char_traitsIcESaIcEEEblmdSaNS1_14adl_serializerES4_IhSaIhEEvE6createINS1_27byte_container_with_subtypeISD_EEJEEEPT_DpOT0_EUlPSH_E_EEC2ERKSO_ = comdat any

$_ZNSt10_Head_baseILm0EPN8nlohmann16json_abi_v3_11_327byte_container_with_subtypeISt6vectorIhSaIhEEEELb0EEC2IRS7_EEOT_ = comdat any

$_ZNSt10_Head_baseILm1EZN8nlohmann16json_abi_v3_11_310basic_jsonISt3mapSt6vectorNSt7__cxx1112basic_stringIcSt11char_traitsIcESaIcEEEblmdSaNS1_14adl_serializerES4_IhSaIhEEvE6createINS1_27byte_container_with_subtypeISD_EEJEEEPT_DpOT0_EUlPSH_E_Lb0EEC2ERKSO_ = comdat any

$_ZNSt15__new_allocatorIN8nlohmann16json_abi_v3_11_327byte_container_with_subtypeISt6vectorIhSaIhEEEEE9constructIS6_JEEEvPT_DpOT0_ = comdat any

$_ZN8nlohmann16json_abi_v3_11_327byte_container_with_subtypeISt6vectorIhSaIhEEEC2Ev = comdat any

$_ZNSt6vectorIhSaIhEEC2Ev = comdat any

$_ZNSt12_Vector_baseIhSaIhEEC2Ev = comdat any

$_ZNSt12_Vector_baseIhSaIhEE12_Vector_implC2Ev = comdat any

$_ZNSaIhEC2Ev = comdat any

$_ZNSt12_Vector_baseIhSaIhEE17_Vector_impl_dataC2Ev = comdat any

$_ZNSt15__new_allocatorIhEC2Ev = comdat any

$_ZNKSt15__uniq_ptr_implIN8nlohmann16json_abi_v3_11_327byte_container_with_subtypeISt6vectorIhSaIhEEEEZNS1_10basic_jsonISt3mapS3_NSt7__cxx1112basic_stringIcSt11char_traitsIcESaIcEEEblmdSaNS1_14adl_serializerES5_vE6createIS6_JEEEPT_DpOT0_EUlPS6_E_E6_M_ptrEv = comdat any

$_ZSt3getILm0EJPN8nlohmann16json_abi_v3_11_327byte_container_with_subtypeISt6vectorIhSaIhEEEEZNS1_10basic_jsonISt3mapS3_NSt7__cxx1112basic_stringIcSt11char_traitsIcESaIcEEEblmdSaNS1_14adl_serializerES5_vE6createIS6_JEEEPT_DpOT0_EUlS7_E_EERKNSt13tuple_elementIXT_ESt5tupleIJDpSL_EEE4typeERKSS_ = comdat any

$_ZSt12__get_helperILm0EPN8nlohmann16json_abi_v3_11_327byte_container_with_subtypeISt6vectorIhSaIhEEEEJZNS1_10basic_jsonISt3mapS3_NSt7__cxx1112basic_stringIcSt11char_traitsIcESaIcEEEblmdSaNS1_14adl_serializerES5_vE6createIS6_JEEEPT_DpOT0_EUlS7_E_EERKT0_RKSt11_Tuple_implIXT_EJSP_DpT1_EE = comdat any

$_ZNSt11_Tuple_implILm0EJPN8nlohmann16json_abi_v3_11_327byte_container_with_subtypeISt6vectorIhSaIhEEEEZNS1_10basic_jsonISt3mapS3_NSt7__cxx1112basic_stringIcSt11char_traitsIcESaIcEEEblmdSaNS1_14adl_serializerES5_vE6createIS6_JEEEPT_DpOT0_EUlS7_E_EE7_M_headERKSP_ = comdat any

$_ZNSt10_Head_baseILm0EPN8nlohmann16json_abi_v3_11_327byte_container_with_subtypeISt6vectorIhSaIhEEEELb0EE7_M_headERKS8_ = comdat any

$_ZNSt15__uniq_ptr_implIN8nlohmann16json_abi_v3_11_327byte_container_with_subtypeISt6vectorIhSaIhEEEEZNS1_10basic_jsonISt3mapS3_NSt7__cxx1112basic_stringIcSt11char_traitsIcESaIcEEEblmdSaNS1_14adl_serializerES5_vE6createIS6_JEEEPT_DpOT0_EUlPS6_E_E7releaseEv = comdat any

$_ZNSt15__uniq_ptr_implIN8nlohmann16json_abi_v3_11_327byte_container_with_subtypeISt6vectorIhSaIhEEEEZNS1_10basic_jsonISt3mapS3_NSt7__cxx1112basic_stringIcSt11char_traitsIcESaIcEEEblmdSaNS1_14adl_serializerES5_vE6createIS6_JEEEPT_DpOT0_EUlPS6_E_E6_M_ptrEv = comdat any

$_ZSt3getILm0EJPN8nlohmann16json_abi_v3_11_327byte_container_with_subtypeISt6vectorIhSaIhEEEEZNS1_10basic_jsonISt3mapS3_NSt7__cxx1112basic_stringIcSt11char_traitsIcESaIcEEEblmdSaNS1_14adl_serializerES5_vE6createIS6_JEEEPT_DpOT0_EUlS7_E_EERNSt13tuple_elementIXT_ESt5tupleIJDpSL_EEE4typeERSS_ = comdat any

$_ZSt12__get_helperILm0EPN8nlohmann16json_abi_v3_11_327byte_container_with_subtypeISt6vectorIhSaIhEEEEJZNS1_10basic_jsonISt3mapS3_NSt7__cxx1112basic_stringIcSt11char_traitsIcESaIcEEEblmdSaNS1_14adl_serializerES5_vE6createIS6_JEEEPT_DpOT0_EUlS7_E_EERT0_RSt11_Tuple_implIXT_EJSP_DpT1_EE = comdat any

$_ZNSt11_Tuple_implILm0EJPN8nlohmann16json_abi_v3_11_327byte_container_with_subtypeISt6vectorIhSaIhEEEEZNS1_10basic_jsonISt3mapS3_NSt7__cxx1112basic_stringIcSt11char_traitsIcESaIcEEEblmdSaNS1_14adl_serializerES5_vE6createIS6_JEEEPT_DpOT0_EUlS7_E_EE7_M_headERSP_ = comdat any

$_ZNSt10_Head_baseILm0EPN8nlohmann16json_abi_v3_11_327byte_container_with_subtypeISt6vectorIhSaIhEEEELb0EE7_M_headERS8_ = comdat any

$_ZNSt10unique_ptrIN8nlohmann16json_abi_v3_11_327byte_container_with_subtypeISt6vectorIhSaIhEEEEZNS1_10basic_jsonISt3mapS3_NSt7__cxx1112basic_stringIcSt11char_traitsIcESaIcEEEblmdSaNS1_14adl_serializerES5_vE6createIS6_JEEEPT_DpOT0_EUlPS6_E_E11get_deleterEv = comdat any

$_ZZN8nlohmann16json_abi_v3_11_310basic_jsonISt3mapSt6vectorNSt7__cxx1112basic_stringIcSt11char_traitsIcESaIcEEEblmdSaNS0_14adl_serializerES3_IhSaIhEEvE6createINS0_27byte_container_with_subtypeISC_EEJEEEPT_DpOT0_ENKUlPSG_E_clESM_ = comdat any

$_ZNSt15__uniq_ptr_implIN8nlohmann16json_abi_v3_11_327byte_container_with_subtypeISt6vectorIhSaIhEEEEZNS1_10basic_jsonISt3mapS3_NSt7__cxx1112basic_stringIcSt11char_traitsIcESaIcEEEblmdSaNS1_14adl_serializerES5_vE6createIS6_JEEEPT_DpOT0_EUlPS6_E_E10_M_deleterEv = comdat any

$_ZSt3getILm1EJPN8nlohmann16json_abi_v3_11_327byte_container_with_subtypeISt6vectorIhSaIhEEEEZNS1_10basic_jsonISt3mapS3_NSt7__cxx1112basic_stringIcSt11char_traitsIcESaIcEEEblmdSaNS1_14adl_serializerES5_vE6createIS6_JEEEPT_DpOT0_EUlS7_E_EERNSt13tuple_elementIXT_ESt5tupleIJDpSL_EEE4typeERSS_ = comdat any

$_ZSt12__get_helperILm1EZN8nlohmann16json_abi_v3_11_310basic_jsonISt3mapSt6vectorNSt7__cxx1112basic_stringIcSt11char_traitsIcESaIcEEEblmdSaNS1_14adl_serializerES4_IhSaIhEEvE6createINS1_27byte_container_with_subtypeISD_EEJEEEPT_DpOT0_EUlPSH_E_JEERT0_RSt11_Tuple_implIXT_EJSP_DpT1_EE = comdat any

$_ZNSt11_Tuple_implILm1EJZN8nlohmann16json_abi_v3_11_310basic_jsonISt3mapSt6vectorNSt7__cxx1112basic_stringIcSt11char_traitsIcESaIcEEEblmdSaNS1_14adl_serializerES4_IhSaIhEEvE6createINS1_27byte_container_with_subtypeISD_EEJEEEPT_DpOT0_EUlPSH_E_EE7_M_headERSP_ = comdat any

$_ZNSt10_Head_baseILm1EZN8nlohmann16json_abi_v3_11_310basic_jsonISt3mapSt6vectorNSt7__cxx1112basic_stringIcSt11char_traitsIcESaIcEEEblmdSaNS1_14adl_serializerES4_IhSaIhEEvE6createINS1_27byte_container_with_subtypeISD_EEJEEEPT_DpOT0_EUlPSH_E_Lb0EE7_M_headERSP_ = comdat any

$_ZNSt16allocator_traitsISaIN8nlohmann16json_abi_v3_11_327byte_container_with_subtypeISt6vectorIhSaIhEEEEEE10deallocateERS7_PS6_m = comdat any

$_ZNSt15__new_allocatorIN8nlohmann16json_abi_v3_11_327byte_container_with_subtypeISt6vectorIhSaIhEEEEE10deallocateEPS6_m = comdat any

$_ZNSt15__new_allocatorIN8nlohmann16json_abi_v3_11_327byte_container_with_subtypeISt6vectorIhSaIhEEEEED2Ev = comdat any

$_ZN8nlohmann16json_abi_v3_11_36detail6concatINSt7__cxx1112basic_stringIcSt11char_traitsIcESaIcEEEJS8_S8_RKS8_EEET_DpOT0_ = comdat any

$_ZN8nlohmann16json_abi_v3_11_36detail9exception4nameERKNSt7__cxx1112basic_stringIcSt11char_traitsIcESaIcEEEi = comdat any

$_ZN8nlohmann16json_abi_v3_11_36detail9exception11diagnosticsB5cxx11EDn = comdat any

$_ZN8nlohmann16json_abi_v3_11_36detail11other_errorC2EiPKc = comdat any

$_ZN8nlohmann16json_abi_v3_11_36detail13concat_lengthINSt7__cxx1112basic_stringIcSt11char_traitsIcESaIcEEEJS8_S8_EEEmRKT_DpRKT0_ = comdat any

$_ZN8nlohmann16json_abi_v3_11_36detail11concat_intoINSt7__cxx1112basic_stringIcSt11char_traitsIcESaIcEEES8_JS8_RKS8_ETnNSt9enable_ifIXsr24detect_string_can_appendIT_T0_EE5valueEiE4typeELi0EEEvRSC_OSD_DpOT1_ = comdat any

$_ZN8nlohmann16json_abi_v3_11_36detail13concat_lengthINSt7__cxx1112basic_stringIcSt11char_traitsIcESaIcEEEJS8_EEEmRKT_DpRKT0_ = comdat any

$_ZN8nlohmann16json_abi_v3_11_36detail13concat_lengthINSt7__cxx1112basic_stringIcSt11char_traitsIcESaIcEEEJEEEmRKT_DpRKT0_ = comdat any

$_ZN8nlohmann16json_abi_v3_11_36detail13concat_lengthEv = comdat any

$_ZN8nlohmann16json_abi_v3_11_36detail11concat_intoINSt7__cxx1112basic_stringIcSt11char_traitsIcESaIcEEES8_JRKS8_ETnNSt9enable_ifIXsr24detect_string_can_appendIT_T0_EE5valueEiE4typeELi0EEEvRSC_OSD_DpOT1_ = comdat any

$_ZN8nlohmann16json_abi_v3_11_36detail11concat_intoINSt7__cxx1112basic_stringIcSt11char_traitsIcESaIcEEERKS8_JETnNSt9enable_ifIXsr24detect_string_can_appendIT_T0_EE5valueEiE4typeELi0EEEvRSC_OSD_DpOT1_ = comdat any

$_ZN8nlohmann16json_abi_v3_11_36detail11concat_intoINSt7__cxx1112basic_stringIcSt11char_traitsIcESaIcEEEEEvRT_ = comdat any

$_ZN8nlohmann16json_abi_v3_11_36detail6concatINSt7__cxx1112basic_stringIcSt11char_traitsIcESaIcEEEJRA17_KcRKS8_cS8_RA3_S9_EEET_DpOT0_ = comdat any

$_ZNSt7__cxx119to_stringEi = comdat any

$_ZN8nlohmann16json_abi_v3_11_36detail13concat_lengthIJNSt7__cxx1112basic_stringIcSt11char_traitsIcESaIcEEEcS8_A3_cEEEmPKcDpRKT_ = comdat any

$_ZN8nlohmann16json_abi_v3_11_36detail11concat_intoINSt7__cxx1112basic_stringIcSt11char_traitsIcESaIcEEERA17_KcJRKS8_cS8_RA3_S9_ETnNSt9enable_ifIXsr24detect_string_can_appendIT_T0_EE5valueEiE4typeELi0EEEvRSH_OSI_DpOT1_ = comdat any

$_ZN8nlohmann16json_abi_v3_11_36detail13concat_lengthINSt7__cxx1112basic_stringIcSt11char_traitsIcESaIcEEEJcS8_A3_cEEEmRKT_DpRKT0_ = comdat any

$_ZN8nlohmann16json_abi_v3_11_36detail13concat_lengthIJNSt7__cxx1112basic_stringIcSt11char_traitsIcESaIcEEEA3_cEEEmcDpRKT_ = comdat any

$_ZN8nlohmann16json_abi_v3_11_36detail13concat_lengthINSt7__cxx1112basic_stringIcSt11char_traitsIcESaIcEEEJA3_cEEEmRKT_DpRKT0_ = comdat any

$_ZN8nlohmann16json_abi_v3_11_36detail13concat_lengthIJEEEmPKcDpRKT_ = comdat any

$_ZN8nlohmann16json_abi_v3_11_36detail11concat_intoINSt7__cxx1112basic_stringIcSt11char_traitsIcESaIcEEERKS8_JcS8_RA3_KcETnNSt9enable_ifIXsr24detect_string_can_appendIT_T0_EE5valueEiE4typeELi0EEEvRSF_OSG_DpOT1_ = comdat any

$_ZN8nlohmann16json_abi_v3_11_36detail11concat_intoINSt7__cxx1112basic_stringIcSt11char_traitsIcESaIcEEEcJS8_RA3_KcETnNSt9enable_ifIXaantsr24detect_string_can_appendIT_T0_EE5valuesr27detect_string_can_append_opISD_SE_EE5valueEiE4typeELi0EEEvRSD_OSE_DpOT1_ = comdat any

$_ZN8nlohmann16json_abi_v3_11_36detail11concat_intoINSt7__cxx1112basic_stringIcSt11char_traitsIcESaIcEEES8_JRA3_KcETnNSt9enable_ifIXsr24detect_string_can_appendIT_T0_EE5valueEiE4typeELi0EEEvRSD_OSE_DpOT1_ = comdat any

$_ZN8nlohmann16json_abi_v3_11_36detail11concat_intoINSt7__cxx1112basic_stringIcSt11char_traitsIcESaIcEEERA3_KcJETnNSt9enable_ifIXsr24detect_string_can_appendIT_T0_EE5valueEiE4typeELi0EEEvRSD_OSE_DpOT1_ = comdat any

$_ZNSt8__detail14__to_chars_lenIjEEjT_i = comdat any

$_ZNSt8__detail18__to_chars_10_implIjEEvPcjT_ = comdat any

$_ZN8nlohmann16json_abi_v3_11_36detail9exceptionC2EiPKc = comdat any

$_ZN8nlohmann16json_abi_v3_11_36detail11other_errorD0Ev = comdat any

$_ZNK8nlohmann16json_abi_v3_11_36detail9exception4whatEv = comdat any

$_ZNSt9exceptionC2Ev = comdat any

$_ZN8nlohmann16json_abi_v3_11_36detail9exceptionD2Ev = comdat any

$_ZN8nlohmann16json_abi_v3_11_36detail9exceptionD0Ev = comdat any

$_ZN8nlohmann16json_abi_v3_11_36detail17internal_iteratorINS0_10basic_jsonISt3mapSt6vectorNSt7__cxx1112basic_stringIcSt11char_traitsIcESaIcEEEblmdSaNS0_14adl_serializerES5_IhSaIhEEvEEEC2Ev = comdat any

$_ZNSt17_Rb_tree_iteratorISt4pairIKNSt7__cxx1112basic_stringIcSt11char_traitsIcESaIcEEEN8nlohmann16json_abi_v3_11_310basic_jsonISt3mapSt6vectorS6_blmdSaNS9_14adl_serializerESC_IhSaIhEEvEEEEC2Ev = comdat any

$_ZN9__gnu_cxx17__normal_iteratorIPN8nlohmann16json_abi_v3_11_310basic_jsonISt3mapSt6vectorNSt7__cxx1112basic_stringIcSt11char_traitsIcESaIcEEEblmdSaNS2_14adl_serializerES5_IhSaIhEEvEES5_ISF_SaISF_EEEC2Ev = comdat any

$_ZN8nlohmann16json_abi_v3_11_36detail20primitive_iterator_tC2Ev = comdat any

$_ZNSt14numeric_limitsIlE3minEv = comdat any

$_ZN8nlohmann16json_abi_v3_11_310basic_jsonISt3mapSt6vectorNSt7__cxx1112basic_stringIcSt11char_traitsIcESaIcEEEblmdSaNS0_14adl_serializerES3_IhSaIhEEvE4dataD2Ev = comdat any

$_ZN8nlohmann16json_abi_v3_11_310basic_jsonISt3mapSt6vectorNSt7__cxx1112basic_stringIcSt11char_traitsIcESaIcEEEblmdSaNS0_14adl_serializerES3_IhSaIhEEvE10json_value7destroyENS0_6detail7value_tE = comdat any

$_ZNSt6vectorIN8nlohmann16json_abi_v3_11_310basic_jsonISt3mapS_NSt7__cxx1112basic_stringIcSt11char_traitsIcESaIcEEEblmdSaNS1_14adl_serializerES_IhSaIhEEvEESaISD_EE7reserveEm = comdat any

$_ZNKSt6vectorIN8nlohmann16json_abi_v3_11_310basic_jsonISt3mapS_NSt7__cxx1112basic_stringIcSt11char_traitsIcESaIcEEEblmdSaNS1_14adl_serializerES_IhSaIhEEvEESaISD_EE4sizeEv = comdat any

$_ZSt4moveIN9__gnu_cxx17__normal_iteratorIPN8nlohmann16json_abi_v3_11_310basic_jsonISt3mapSt6vectorNSt7__cxx1112basic_stringIcSt11char_traitsIcESaIcEEEblmdSaNS3_14adl_serializerES6_IhSaIhEEvEES6_ISG_SaISG_EEEESt20back_insert_iteratorISJ_EET0_T_SO_SN_ = comdat any

$_ZSt13back_inserterISt6vectorIN8nlohmann16json_abi_v3_11_310basic_jsonISt3mapS0_NSt7__cxx1112basic_stringIcSt11char_traitsIcESaIcEEEblmdSaNS2_14adl_serializerES0_IhSaIhEEvEESaISE_EEESt20back_insert_iteratorIT_ERSI_ = comdat any

$_ZNKSt3mapINSt7__cxx1112basic_stringIcSt11char_traitsIcESaIcEEEN8nlohmann16json_abi_v3_11_310basic_jsonIS_St6vectorS5_blmdSaNS7_14adl_serializerES9_IhSaIhEEvEESt4lessIS5_ESaISt4pairIKS5_SD_EEE4sizeEv = comdat any

$_ZStneRKSt17_Rb_tree_iteratorISt4pairIKNSt7__cxx1112basic_stringIcSt11char_traitsIcESaIcEEEN8nlohmann16json_abi_v3_11_310basic_jsonISt3mapSt6vectorS6_blmdSaNS9_14adl_serializerESC_IhSaIhEEvEEEESK_ = comdat any

$_ZNKSt17_Rb_tree_iteratorISt4pairIKNSt7__cxx1112basic_stringIcSt11char_traitsIcESaIcEEEN8nlohmann16json_abi_v3_11_310basic_jsonISt3mapSt6vectorS6_blmdSaNS9_14adl_serializerESC_IhSaIhEEvEEEEdeEv = comdat any

$_ZNSt6vectorIN8nlohmann16json_abi_v3_11_310basic_jsonISt3mapS_NSt7__cxx1112basic_stringIcSt11char_traitsIcESaIcEEEblmdSaNS1_14adl_serializerES_IhSaIhEEvEESaISD_EE9push_backEOSD_ = comdat any

$_ZNSt17_Rb_tree_iteratorISt4pairIKNSt7__cxx1112basic_stringIcSt11char_traitsIcESaIcEEEN8nlohmann16json_abi_v3_11_310basic_jsonISt3mapSt6vectorS6_blmdSaNS9_14adl_serializerESC_IhSaIhEEvEEEEppEv = comdat any

$_ZNKSt6vectorIN8nlohmann16json_abi_v3_11_310basic_jsonISt3mapS_NSt7__cxx1112basic_stringIcSt11char_traitsIcESaIcEEEblmdSaNS1_14adl_serializerES_IhSaIhEEvEESaISD_EE5emptyEv = comdat any

$_ZNSt6vectorIN8nlohmann16json_abi_v3_11_310basic_jsonISt3mapS_NSt7__cxx1112basic_stringIcSt11char_traitsIcESaIcEEEblmdSaNS1_14adl_serializerES_IhSaIhEEvEESaISD_EE4backEv = comdat any

$_ZN8nlohmann16json_abi_v3_11_310basic_jsonISt3mapSt6vectorNSt7__cxx1112basic_stringIcSt11char_traitsIcESaIcEEEblmdSaNS0_14adl_serializerES3_IhSaIhEEvEC2EOSD_ = comdat any

$_ZNSt6vectorIN8nlohmann16json_abi_v3_11_310basic_jsonISt3mapS_NSt7__cxx1112basic_stringIcSt11char_traitsIcESaIcEEEblmdSaNS1_14adl_serializerES_IhSaIhEEvEESaISD_EE8pop_backEv = comdat any

$_ZNK8nlohmann16json_abi_v3_11_310basic_jsonISt3mapSt6vectorNSt7__cxx1112basic_stringIcSt11char_traitsIcESaIcEEEblmdSaNS0_14adl_serializerES3_IhSaIhEEvE8is_arrayEv = comdat any

$_ZNSt6vectorIN8nlohmann16json_abi_v3_11_310basic_jsonISt3mapS_NSt7__cxx1112basic_stringIcSt11char_traitsIcESaIcEEEblmdSaNS1_14adl_serializerES_IhSaIhEEvEESaISD_EE5clearEv = comdat any

$_ZNK8nlohmann16json_abi_v3_11_310basic_jsonISt3mapSt6vectorNSt7__cxx1112basic_stringIcSt11char_traitsIcESaIcEEEblmdSaNS0_14adl_serializerES3_IhSaIhEEvE9is_objectEv = comdat any

$_ZNSt3mapINSt7__cxx1112basic_stringIcSt11char_traitsIcESaIcEEEN8nlohmann16json_abi_v3_11_310basic_jsonIS_St6vectorS5_blmdSaNS7_14adl_serializerES9_IhSaIhEEvEESt4lessIS5_ESaISt4pairIKS5_SD_EEE5clearEv = comdat any

$_ZNSt6vectorIN8nlohmann16json_abi_v3_11_310basic_jsonISt3mapS_NSt7__cxx1112basic_stringIcSt11char_traitsIcESaIcEEEblmdSaNS1_14adl_serializerES_IhSaIhEEvEESaISD_EED2Ev = comdat any

$_ZNSt16allocator_traitsISaISt3mapINSt7__cxx1112basic_stringIcSt11char_traitsIcESaIcEEEN8nlohmann16json_abi_v3_11_310basic_jsonIS0_St6vectorS6_blmdSaNS8_14adl_serializerESA_IhSaIhEEvEESt4lessIS6_ESaISt4pairIKS6_SE_EEEEE7destroyISL_EEvRSM_PT_ = comdat any

$_ZNSt16allocator_traitsISaISt6vectorIN8nlohmann16json_abi_v3_11_310basic_jsonISt3mapS0_NSt7__cxx1112basic_stringIcSt11char_traitsIcESaIcEEEblmdSaNS2_14adl_serializerES0_IhSaIhEEvEESaISE_EEEE7destroyISG_EEvRSH_PT_ = comdat any

$_ZNSt16allocator_traitsISaINSt7__cxx1112basic_stringIcSt11char_traitsIcESaIcEEEEE7destroyIS5_EEvRS6_PT_ = comdat any

$_ZNSt16allocator_traitsISaIN8nlohmann16json_abi_v3_11_327byte_container_with_subtypeISt6vectorIhSaIhEEEEEE7destroyIS6_EEvRS7_PT_ = comdat any

$_ZNKSt6vectorIN8nlohmann16json_abi_v3_11_310basic_jsonISt3mapS_NSt7__cxx1112basic_stringIcSt11char_traitsIcESaIcEEEblmdSaNS1_14adl_serializerES_IhSaIhEEvEESaISD_EE8max_sizeEv = comdat any

$_ZNKSt6vectorIN8nlohmann16json_abi_v3_11_310basic_jsonISt3mapS_NSt7__cxx1112basic_stringIcSt11char_traitsIcESaIcEEEblmdSaNS1_14adl_serializerES_IhSaIhEEvEESaISD_EE8capacityEv = comdat any

$_ZNSt12_Vector_baseIN8nlohmann16json_abi_v3_11_310basic_jsonISt3mapSt6vectorNSt7__cxx1112basic_stringIcSt11char_traitsIcESaIcEEEblmdSaNS1_14adl_serializerES4_IhSaIhEEvEESaISE_EE11_M_allocateEm = comdat any

$_ZNSt6vectorIN8nlohmann16json_abi_v3_11_310basic_jsonISt3mapS_NSt7__cxx1112basic_stringIcSt11char_traitsIcESaIcEEEblmdSaNS1_14adl_serializerES_IhSaIhEEvEESaISD_EE11_S_relocateEPSD_SG_SG_RSE_ = comdat any

$_ZNSt12_Vector_baseIN8nlohmann16json_abi_v3_11_310basic_jsonISt3mapSt6vectorNSt7__cxx1112basic_stringIcSt11char_traitsIcESaIcEEEblmdSaNS1_14adl_serializerES4_IhSaIhEEvEESaISE_EE19_M_get_Tp_allocatorEv = comdat any

$_ZNSt12_Vector_baseIN8nlohmann16json_abi_v3_11_310basic_jsonISt3mapSt6vectorNSt7__cxx1112basic_stringIcSt11char_traitsIcESaIcEEEblmdSaNS1_14adl_serializerES4_IhSaIhEEvEESaISE_EE13_M_deallocateEPSE_m = comdat any

$_ZNSt6vectorIN8nlohmann16json_abi_v3_11_310basic_jsonISt3mapS_NSt7__cxx1112basic_stringIcSt11char_traitsIcESaIcEEEblmdSaNS1_14adl_serializerES_IhSaIhEEvEESaISD_EE11_S_max_sizeERKSE_ = comdat any

$_ZNKSt12_Vector_baseIN8nlohmann16json_abi_v3_11_310basic_jsonISt3mapSt6vectorNSt7__cxx1112basic_stringIcSt11char_traitsIcESaIcEEEblmdSaNS1_14adl_serializerES4_IhSaIhEEvEESaISE_EE19_M_get_Tp_allocatorEv = comdat any

$_ZNSt16allocator_traitsISaIN8nlohmann16json_abi_v3_11_310basic_jsonISt3mapSt6vectorNSt7__cxx1112basic_stringIcSt11char_traitsIcESaIcEEEblmdSaNS1_14adl_serializerES4_IhSaIhEEvEEEE8max_sizeERKSF_ = comdat any

$_ZSt3minImERKT_S2_S2_ = comdat any

$_ZNKSt15__new_allocatorIN8nlohmann16json_abi_v3_11_310basic_jsonISt3mapSt6vectorNSt7__cxx1112basic_stringIcSt11char_traitsIcESaIcEEEblmdSaNS1_14adl_serializerES4_IhSaIhEEvEEE8max_sizeEv = comdat any

$_ZNKSt15__new_allocatorIN8nlohmann16json_abi_v3_11_310basic_jsonISt3mapSt6vectorNSt7__cxx1112basic_stringIcSt11char_traitsIcESaIcEEEblmdSaNS1_14adl_serializerES4_IhSaIhEEvEEE11_M_max_sizeEv = comdat any

$_ZNSt16allocator_traitsISaIN8nlohmann16json_abi_v3_11_310basic_jsonISt3mapSt6vectorNSt7__cxx1112basic_stringIcSt11char_traitsIcESaIcEEEblmdSaNS1_14adl_serializerES4_IhSaIhEEvEEEE8allocateERSF_m = comdat any

$_ZNSt15__new_allocatorIN8nlohmann16json_abi_v3_11_310basic_jsonISt3mapSt6vectorNSt7__cxx1112basic_stringIcSt11char_traitsIcESaIcEEEblmdSaNS1_14adl_serializerES4_IhSaIhEEvEEE8allocateEmPKv = comdat any

$_ZNSt6vectorIN8nlohmann16json_abi_v3_11_310basic_jsonISt3mapS_NSt7__cxx1112basic_stringIcSt11char_traitsIcESaIcEEEblmdSaNS1_14adl_serializerES_IhSaIhEEvEESaISD_EE14_S_do_relocateEPSD_SG_SG_RSE_St17integral_constantIbLb1EE = comdat any

$_ZSt12__relocate_aIPN8nlohmann16json_abi_v3_11_310basic_jsonISt3mapSt6vectorNSt7__cxx1112basic_stringIcSt11char_traitsIcESaIcEEEblmdSaNS1_14adl_serializerES4_IhSaIhEEvEESF_SaISE_EET0_T_SI_SH_RT1_ = comdat any

$_ZSt14__relocate_a_1IPN8nlohmann16json_abi_v3_11_310basic_jsonISt3mapSt6vectorNSt7__cxx1112basic_stringIcSt11char_traitsIcESaIcEEEblmdSaNS1_14adl_serializerES4_IhSaIhEEvEESF_SaISE_EET0_T_SI_SH_RT1_ = comdat any

$_ZSt12__niter_baseIPN8nlohmann16json_abi_v3_11_310basic_jsonISt3mapSt6vectorNSt7__cxx1112basic_stringIcSt11char_traitsIcESaIcEEEblmdSaNS1_14adl_serializerES4_IhSaIhEEvEEET_SG_ = comdat any

$_ZSt19__relocate_object_aIN8nlohmann16json_abi_v3_11_310basic_jsonISt3mapSt6vectorNSt7__cxx1112basic_stringIcSt11char_traitsIcESaIcEEEblmdSaNS1_14adl_serializerES4_IhSaIhEEvEESE_SaISE_EEvPT_PT0_RT1_ = comdat any

$_ZNSt16allocator_traitsISaIN8nlohmann16json_abi_v3_11_310basic_jsonISt3mapSt6vectorNSt7__cxx1112basic_stringIcSt11char_traitsIcESaIcEEEblmdSaNS1_14adl_serializerES4_IhSaIhEEvEEEE9constructISE_JSE_EEEvRSF_PT_DpOT0_ = comdat any

$_ZNSt16allocator_traitsISaIN8nlohmann16json_abi_v3_11_310basic_jsonISt3mapSt6vectorNSt7__cxx1112basic_stringIcSt11char_traitsIcESaIcEEEblmdSaNS1_14adl_serializerES4_IhSaIhEEvEEEE7destroyISE_EEvRSF_PT_ = comdat any

$_ZNSt15__new_allocatorIN8nlohmann16json_abi_v3_11_310basic_jsonISt3mapSt6vectorNSt7__cxx1112basic_stringIcSt11char_traitsIcESaIcEEEblmdSaNS1_14adl_serializerES4_IhSaIhEEvEEE9constructISE_JSE_EEEvPT_DpOT0_ = comdat any

$_ZNSt15__new_allocatorIN8nlohmann16json_abi_v3_11_310basic_jsonISt3mapSt6vectorNSt7__cxx1112basic_stringIcSt11char_traitsIcESaIcEEEblmdSaNS1_14adl_serializerES4_IhSaIhEEvEEE7destroyISE_EEvPT_ = comdat any

$_ZNSt16allocator_traitsISaIN8nlohmann16json_abi_v3_11_310basic_jsonISt3mapSt6vectorNSt7__cxx1112basic_stringIcSt11char_traitsIcESaIcEEEblmdSaNS1_14adl_serializerES4_IhSaIhEEvEEEE10deallocateERSF_PSE_m = comdat any

$_ZNSt15__new_allocatorIN8nlohmann16json_abi_v3_11_310basic_jsonISt3mapSt6vectorNSt7__cxx1112basic_stringIcSt11char_traitsIcESaIcEEEblmdSaNS1_14adl_serializerES4_IhSaIhEEvEEE10deallocateEPSE_m = comdat any

$_ZSt13__copy_move_aILb1EN9__gnu_cxx17__normal_iteratorIPN8nlohmann16json_abi_v3_11_310basic_jsonISt3mapSt6vectorNSt7__cxx1112basic_stringIcSt11char_traitsIcESaIcEEEblmdSaNS3_14adl_serializerES6_IhSaIhEEvEES6_ISG_SaISG_EEEESt20back_insert_iteratorISJ_EET1_T0_SO_SN_ = comdat any

$_ZSt12__miter_baseIN9__gnu_cxx17__normal_iteratorIPN8nlohmann16json_abi_v3_11_310basic_jsonISt3mapSt6vectorNSt7__cxx1112basic_stringIcSt11char_traitsIcESaIcEEEblmdSaNS3_14adl_serializerES6_IhSaIhEEvEES6_ISG_SaISG_EEEEET_SL_ = comdat any

$_ZSt12__niter_wrapISt20back_insert_iteratorISt6vectorIN8nlohmann16json_abi_v3_11_310basic_jsonISt3mapS1_NSt7__cxx1112basic_stringIcSt11char_traitsIcESaIcEEEblmdSaNS3_14adl_serializerES1_IhSaIhEEvEESaISF_EEEET_RKSJ_SJ_ = comdat any

$_ZSt14__copy_move_a1ILb1EPN8nlohmann16json_abi_v3_11_310basic_jsonISt3mapSt6vectorNSt7__cxx1112basic_stringIcSt11char_traitsIcESaIcEEEblmdSaNS1_14adl_serializerES4_IhSaIhEEvEESt20back_insert_iteratorIS4_ISE_SaISE_EEEET1_T0_SL_SK_ = comdat any

$_ZSt12__niter_baseIPN8nlohmann16json_abi_v3_11_310basic_jsonISt3mapSt6vectorNSt7__cxx1112basic_stringIcSt11char_traitsIcESaIcEEEblmdSaNS1_14adl_serializerES4_IhSaIhEEvEES4_ISE_SaISE_EEET_N9__gnu_cxx17__normal_iteratorISI_T0_EE = comdat any

$_ZSt12__niter_baseISt20back_insert_iteratorISt6vectorIN8nlohmann16json_abi_v3_11_310basic_jsonISt3mapS1_NSt7__cxx1112basic_stringIcSt11char_traitsIcESaIcEEEblmdSaNS3_14adl_serializerES1_IhSaIhEEvEESaISF_EEEET_SJ_ = comdat any

$_ZSt14__copy_move_a2ILb1EPN8nlohmann16json_abi_v3_11_310basic_jsonISt3mapSt6vectorNSt7__cxx1112basic_stringIcSt11char_traitsIcESaIcEEEblmdSaNS1_14adl_serializerES4_IhSaIhEEvEESt20back_insert_iteratorIS4_ISE_SaISE_EEEET1_T0_SL_SK_ = comdat any

$_ZNSt11__copy_moveILb1ELb0ESt26random_access_iterator_tagE8__copy_mIPN8nlohmann16json_abi_v3_11_310basic_jsonISt3mapSt6vectorNSt7__cxx1112basic_stringIcSt11char_traitsIcESaIcEEEblmdSaNS4_14adl_serializerES7_IhSaIhEEvEESt20back_insert_iteratorIS7_ISH_SaISH_EEEEET0_T_SO_SN_ = comdat any

$_ZNSt20back_insert_iteratorISt6vectorIN8nlohmann16json_abi_v3_11_310basic_jsonISt3mapS0_NSt7__cxx1112basic_stringIcSt11char_traitsIcESaIcEEEblmdSaNS2_14adl_serializerES0_IhSaIhEEvEESaISE_EEEdeEv = comdat any

$_ZNSt20back_insert_iteratorISt6vectorIN8nlohmann16json_abi_v3_11_310basic_jsonISt3mapS0_NSt7__cxx1112basic_stringIcSt11char_traitsIcESaIcEEEblmdSaNS2_14adl_serializerES0_IhSaIhEEvEESaISE_EEEaSEOSE_ = comdat any

$_ZNSt20back_insert_iteratorISt6vectorIN8nlohmann16json_abi_v3_11_310basic_jsonISt3mapS0_NSt7__cxx1112basic_stringIcSt11char_traitsIcESaIcEEEblmdSaNS2_14adl_serializerES0_IhSaIhEEvEESaISE_EEEppEv = comdat any

$_ZNK9__gnu_cxx17__normal_iteratorIPN8nlohmann16json_abi_v3_11_310basic_jsonISt3mapSt6vectorNSt7__cxx1112basic_stringIcSt11char_traitsIcESaIcEEEblmdSaNS2_14adl_serializerES5_IhSaIhEEvEES5_ISF_SaISF_EEE4baseEv = comdat any

$_ZNSt20back_insert_iteratorISt6vectorIN8nlohmann16json_abi_v3_11_310basic_jsonISt3mapS0_NSt7__cxx1112basic_stringIcSt11char_traitsIcESaIcEEEblmdSaNS2_14adl_serializerES0_IhSaIhEEvEESaISE_EEEC2ERSG_ = comdat any

$_ZNKSt8_Rb_treeINSt7__cxx1112basic_stringIcSt11char_traitsIcESaIcEEESt4pairIKS5_N8nlohmann16json_abi_v3_11_310basic_jsonISt3mapSt6vectorS5_blmdSaNS9_14adl_serializerESC_IhSaIhEEvEEESt10_Select1stISH_ESt4lessIS5_ESaISH_EE4sizeEv = comdat any

$_ZNSt13_Rb_tree_nodeISt4pairIKNSt7__cxx1112basic_stringIcSt11char_traitsIcESaIcEEEN8nlohmann16json_abi_v3_11_310basic_jsonISt3mapSt6vectorS6_blmdSaNS9_14adl_serializerESC_IhSaIhEEvEEEE9_M_valptrEv = comdat any

$_ZN9__gnu_cxx16__aligned_membufISt4pairIKNSt7__cxx1112basic_stringIcSt11char_traitsIcESaIcEEEN8nlohmann16json_abi_v3_11_310basic_jsonISt3mapSt6vectorS7_blmdSaNSA_14adl_serializerESD_IhSaIhEEvEEEE6_M_ptrEv = comdat any

$_ZN9__gnu_cxx16__aligned_membufISt4pairIKNSt7__cxx1112basic_stringIcSt11char_traitsIcESaIcEEEN8nlohmann16json_abi_v3_11_310basic_jsonISt3mapSt6vectorS7_blmdSaNSA_14adl_serializerESD_IhSaIhEEvEEEE7_M_addrEv = comdat any

$_ZNSt6vectorIN8nlohmann16json_abi_v3_11_310basic_jsonISt3mapS_NSt7__cxx1112basic_stringIcSt11char_traitsIcESaIcEEEblmdSaNS1_14adl_serializerES_IhSaIhEEvEESaISD_EE12emplace_backIJSD_EEEvDpOT_ = comdat any

$_ZNSt6vectorIN8nlohmann16json_abi_v3_11_310basic_jsonISt3mapS_NSt7__cxx1112basic_stringIcSt11char_traitsIcESaIcEEEblmdSaNS1_14adl_serializerES_IhSaIhEEvEESaISD_EE17_M_realloc_insertIJSD_EEEvN9__gnu_cxx17__normal_iteratorIPSD_SF_EEDpOT_ = comdat any

$_ZNKSt6vectorIN8nlohmann16json_abi_v3_11_310basic_jsonISt3mapS_NSt7__cxx1112basic_stringIcSt11char_traitsIcESaIcEEEblmdSaNS1_14adl_serializerES_IhSaIhEEvEESaISD_EE12_M_check_lenEmPKc = comdat any

$_ZN9__gnu_cxxmiIPN8nlohmann16json_abi_v3_11_310basic_jsonISt3mapSt6vectorNSt7__cxx1112basic_stringIcSt11char_traitsIcESaIcEEEblmdSaNS2_14adl_serializerES5_IhSaIhEEvEES5_ISF_SaISF_EEEENS_17__normal_iteratorIT_T0_E15difference_typeERKSM_SP_ = comdat any

$_ZSt3maxImERKT_S2_S2_ = comdat any

$_ZN9__gnu_cxxeqIPKN8nlohmann16json_abi_v3_11_310basic_jsonISt3mapSt6vectorNSt7__cxx1112basic_stringIcSt11char_traitsIcESaIcEEEblmdSaNS2_14adl_serializerES5_IhSaIhEEvEES5_ISF_SaISF_EEEEbRKNS_17__normal_iteratorIT_T0_EESP_ = comdat any

$_ZNKSt6vectorIN8nlohmann16json_abi_v3_11_310basic_jsonISt3mapS_NSt7__cxx1112basic_stringIcSt11char_traitsIcESaIcEEEblmdSaNS1_14adl_serializerES_IhSaIhEEvEESaISD_EE5beginEv = comdat any

$_ZNKSt6vectorIN8nlohmann16json_abi_v3_11_310basic_jsonISt3mapS_NSt7__cxx1112basic_stringIcSt11char_traitsIcESaIcEEEblmdSaNS1_14adl_serializerES_IhSaIhEEvEESaISD_EE3endEv = comdat any

$_ZNK9__gnu_cxx17__normal_iteratorIPKN8nlohmann16json_abi_v3_11_310basic_jsonISt3mapSt6vectorNSt7__cxx1112basic_stringIcSt11char_traitsIcESaIcEEEblmdSaNS2_14adl_serializerES5_IhSaIhEEvEES5_ISF_SaISF_EEE4baseEv = comdat any

$_ZN9__gnu_cxx17__normal_iteratorIPKN8nlohmann16json_abi_v3_11_310basic_jsonISt3mapSt6vectorNSt7__cxx1112basic_stringIcSt11char_traitsIcESaIcEEEblmdSaNS2_14adl_serializerES5_IhSaIhEEvEES5_ISF_SaISF_EEEC2ERKSH_ = comdat any

$_ZNK9__gnu_cxx17__normal_iteratorIPN8nlohmann16json_abi_v3_11_310basic_jsonISt3mapSt6vectorNSt7__cxx1112basic_stringIcSt11char_traitsIcESaIcEEEblmdSaNS2_14adl_serializerES5_IhSaIhEEvEES5_ISF_SaISF_EEEmiEl = comdat any

$_ZNK9__gnu_cxx17__normal_iteratorIPN8nlohmann16json_abi_v3_11_310basic_jsonISt3mapSt6vectorNSt7__cxx1112basic_stringIcSt11char_traitsIcESaIcEEEblmdSaNS2_14adl_serializerES5_IhSaIhEEvEES5_ISF_SaISF_EEEdeEv = comdat any

$_ZN9__gnu_cxx17__normal_iteratorIPN8nlohmann16json_abi_v3_11_310basic_jsonISt3mapSt6vectorNSt7__cxx1112basic_stringIcSt11char_traitsIcESaIcEEEblmdSaNS2_14adl_serializerES5_IhSaIhEEvEES5_ISF_SaISF_EEEC2ERKSG_ = comdat any

$_ZN8nlohmann16json_abi_v3_11_310basic_jsonISt3mapSt6vectorNSt7__cxx1112basic_stringIcSt11char_traitsIcESaIcEEEblmdSaNS0_14adl_serializerES3_IhSaIhEEvE11set_parentsEv = comdat any

$_ZNSt6vectorIN8nlohmann16json_abi_v3_11_310basic_jsonISt3mapS_NSt7__cxx1112basic_stringIcSt11char_traitsIcESaIcEEEblmdSaNS1_14adl_serializerES_IhSaIhEEvEESaISD_EE15_M_erase_at_endEPSD_ = comdat any

$_ZSt8_DestroyIPN8nlohmann16json_abi_v3_11_310basic_jsonISt3mapSt6vectorNSt7__cxx1112basic_stringIcSt11char_traitsIcESaIcEEEblmdSaNS1_14adl_serializerES4_IhSaIhEEvEESE_EvT_SG_RSaIT0_E = comdat any

$_ZSt8_DestroyIPN8nlohmann16json_abi_v3_11_310basic_jsonISt3mapSt6vectorNSt7__cxx1112basic_stringIcSt11char_traitsIcESaIcEEEblmdSaNS1_14adl_serializerES4_IhSaIhEEvEEEvT_SG_ = comdat any

$_ZNSt12_Destroy_auxILb0EE9__destroyIPN8nlohmann16json_abi_v3_11_310basic_jsonISt3mapSt6vectorNSt7__cxx1112basic_stringIcSt11char_traitsIcESaIcEEEblmdSaNS3_14adl_serializerES6_IhSaIhEEvEEEEvT_SI_ = comdat any

$_ZSt8_DestroyIN8nlohmann16json_abi_v3_11_310basic_jsonISt3mapSt6vectorNSt7__cxx1112basic_stringIcSt11char_traitsIcESaIcEEEblmdSaNS1_14adl_serializerES4_IhSaIhEEvEEEvPT_ = comdat any

$_ZNSt8_Rb_treeINSt7__cxx1112basic_stringIcSt11char_traitsIcESaIcEEESt4pairIKS5_N8nlohmann16json_abi_v3_11_310basic_jsonISt3mapSt6vectorS5_blmdSaNS9_14adl_serializerESC_IhSaIhEEvEEESt10_Select1stISH_ESt4lessIS5_ESaISH_EE5clearEv = comdat any

$_ZNSt8_Rb_treeINSt7__cxx1112basic_stringIcSt11char_traitsIcESaIcEEESt4pairIKS5_N8nlohmann16json_abi_v3_11_310basic_jsonISt3mapSt6vectorS5_blmdSaNS9_14adl_serializerESC_IhSaIhEEvEEESt10_Select1stISH_ESt4lessIS5_ESaISH_EE8_M_eraseEPSt13_Rb_tree_nodeISH_E = comdat any

$_ZNSt8_Rb_treeINSt7__cxx1112basic_stringIcSt11char_traitsIcESaIcEEESt4pairIKS5_N8nlohmann16json_abi_v3_11_310basic_jsonISt3mapSt6vectorS5_blmdSaNS9_14adl_serializerESC_IhSaIhEEvEEESt10_Select1stISH_ESt4lessIS5_ESaISH_EE8_M_beginEv = comdat any

$_ZNSt8_Rb_treeINSt7__cxx1112basic_stringIcSt11char_traitsIcESaIcEEESt4pairIKS5_N8nlohmann16json_abi_v3_11_310basic_jsonISt3mapSt6vectorS5_blmdSaNS9_14adl_serializerESC_IhSaIhEEvEEESt10_Select1stISH_ESt4lessIS5_ESaISH_EE8_S_rightEPSt18_Rb_tree_node_base = comdat any

$_ZNSt8_Rb_treeINSt7__cxx1112basic_stringIcSt11char_traitsIcESaIcEEESt4pairIKS5_N8nlohmann16json_abi_v3_11_310basic_jsonISt3mapSt6vectorS5_blmdSaNS9_14adl_serializerESC_IhSaIhEEvEEESt10_Select1stISH_ESt4lessIS5_ESaISH_EE7_S_leftEPSt18_Rb_tree_node_base = comdat any

$_ZNSt8_Rb_treeINSt7__cxx1112basic_stringIcSt11char_traitsIcESaIcEEESt4pairIKS5_N8nlohmann16json_abi_v3_11_310basic_jsonISt3mapSt6vectorS5_blmdSaNS9_14adl_serializerESC_IhSaIhEEvEEESt10_Select1stISH_ESt4lessIS5_ESaISH_EE12_M_drop_nodeEPSt13_Rb_tree_nodeISH_E = comdat any

$_ZNSt8_Rb_treeINSt7__cxx1112basic_stringIcSt11char_traitsIcESaIcEEESt4pairIKS5_N8nlohmann16json_abi_v3_11_310basic_jsonISt3mapSt6vectorS5_blmdSaNS9_14adl_serializerESC_IhSaIhEEvEEESt10_Select1stISH_ESt4lessIS5_ESaISH_EE15_M_destroy_nodeEPSt13_Rb_tree_nodeISH_E = comdat any

$_ZNSt8_Rb_treeINSt7__cxx1112basic_stringIcSt11char_traitsIcESaIcEEESt4pairIKS5_N8nlohmann16json_abi_v3_11_310basic_jsonISt3mapSt6vectorS5_blmdSaNS9_14adl_serializerESC_IhSaIhEEvEEESt10_Select1stISH_ESt4lessIS5_ESaISH_EE11_M_put_nodeEPSt13_Rb_tree_nodeISH_E = comdat any

$_ZNSt16allocator_traitsISaISt13_Rb_tree_nodeISt4pairIKNSt7__cxx1112basic_stringIcSt11char_traitsIcESaIcEEEN8nlohmann16json_abi_v3_11_310basic_jsonISt3mapSt6vectorS7_blmdSaNSA_14adl_serializerESD_IhSaIhEEvEEEEEE7destroyISI_EEvRSK_PT_ = comdat any

$_ZNSt8_Rb_treeINSt7__cxx1112basic_stringIcSt11char_traitsIcESaIcEEESt4pairIKS5_N8nlohmann16json_abi_v3_11_310basic_jsonISt3mapSt6vectorS5_blmdSaNS9_14adl_serializerESC_IhSaIhEEvEEESt10_Select1stISH_ESt4lessIS5_ESaISH_EE21_M_get_Node_allocatorEv = comdat any

$_ZNSt15__new_allocatorISt13_Rb_tree_nodeISt4pairIKNSt7__cxx1112basic_stringIcSt11char_traitsIcESaIcEEEN8nlohmann16json_abi_v3_11_310basic_jsonISt3mapSt6vectorS7_blmdSaNSA_14adl_serializerESD_IhSaIhEEvEEEEE7destroyISI_EEvPT_ = comdat any

$_ZNSt4pairIKNSt7__cxx1112basic_stringIcSt11char_traitsIcESaIcEEEN8nlohmann16json_abi_v3_11_310basic_jsonISt3mapSt6vectorS5_blmdSaNS8_14adl_serializerESB_IhSaIhEEvEEED2Ev = comdat any

$_ZNSt16allocator_traitsISaISt13_Rb_tree_nodeISt4pairIKNSt7__cxx1112basic_stringIcSt11char_traitsIcESaIcEEEN8nlohmann16json_abi_v3_11_310basic_jsonISt3mapSt6vectorS7_blmdSaNSA_14adl_serializerESD_IhSaIhEEvEEEEEE10deallocateERSK_PSJ_m = comdat any

$_ZNSt15__new_allocatorISt13_Rb_tree_nodeISt4pairIKNSt7__cxx1112basic_stringIcSt11char_traitsIcESaIcEEEN8nlohmann16json_abi_v3_11_310basic_jsonISt3mapSt6vectorS7_blmdSaNSA_14adl_serializerESD_IhSaIhEEvEEEEE10deallocateEPSJ_m = comdat any

$_ZNKSt8_Rb_treeINSt7__cxx1112basic_stringIcSt11char_traitsIcESaIcEEESt4pairIKS5_N8nlohmann16json_abi_v3_11_310basic_jsonISt3mapSt6vectorS5_blmdSaNS9_14adl_serializerESC_IhSaIhEEvEEESt10_Select1stISH_ESt4lessIS5_ESaISH_EE9_M_mbeginEv = comdat any

$_ZNSt12_Vector_baseIN8nlohmann16json_abi_v3_11_310basic_jsonISt3mapSt6vectorNSt7__cxx1112basic_stringIcSt11char_traitsIcESaIcEEEblmdSaNS1_14adl_serializerES4_IhSaIhEEvEESaISE_EED2Ev = comdat any

$_ZNSt12_Vector_baseIN8nlohmann16json_abi_v3_11_310basic_jsonISt3mapSt6vectorNSt7__cxx1112basic_stringIcSt11char_traitsIcESaIcEEEblmdSaNS1_14adl_serializerES4_IhSaIhEEvEESaISE_EE12_Vector_implD2Ev = comdat any

$_ZNSt15__new_allocatorIN8nlohmann16json_abi_v3_11_310basic_jsonISt3mapSt6vectorNSt7__cxx1112basic_stringIcSt11char_traitsIcESaIcEEEblmdSaNS1_14adl_serializerES4_IhSaIhEEvEEED2Ev = comdat any

$_ZNSt15__new_allocatorISt3mapINSt7__cxx1112basic_stringIcSt11char_traitsIcESaIcEEEN8nlohmann16json_abi_v3_11_310basic_jsonIS0_St6vectorS6_blmdSaNS8_14adl_serializerESA_IhSaIhEEvEESt4lessIS6_ESaISt4pairIKS6_SE_EEEE7destroyISL_EEvPT_ = comdat any

$_ZNSt3mapINSt7__cxx1112basic_stringIcSt11char_traitsIcESaIcEEEN8nlohmann16json_abi_v3_11_310basic_jsonIS_St6vectorS5_blmdSaNS7_14adl_serializerES9_IhSaIhEEvEESt4lessIS5_ESaISt4pairIKS5_SD_EEED2Ev = comdat any

$_ZNSt8_Rb_treeINSt7__cxx1112basic_stringIcSt11char_traitsIcESaIcEEESt4pairIKS5_N8nlohmann16json_abi_v3_11_310basic_jsonISt3mapSt6vectorS5_blmdSaNS9_14adl_serializerESC_IhSaIhEEvEEESt10_Select1stISH_ESt4lessIS5_ESaISH_EED2Ev = comdat any

$_ZNSt8_Rb_treeINSt7__cxx1112basic_stringIcSt11char_traitsIcESaIcEEESt4pairIKS5_N8nlohmann16json_abi_v3_11_310basic_jsonISt3mapSt6vectorS5_blmdSaNS9_14adl_serializerESC_IhSaIhEEvEEESt10_Select1stISH_ESt4lessIS5_ESaISH_EE13_Rb_tree_implISL_Lb1EED2Ev = comdat any

$_ZNSt15__new_allocatorISt13_Rb_tree_nodeISt4pairIKNSt7__cxx1112basic_stringIcSt11char_traitsIcESaIcEEEN8nlohmann16json_abi_v3_11_310basic_jsonISt3mapSt6vectorS7_blmdSaNSA_14adl_serializerESD_IhSaIhEEvEEEEED2Ev = comdat any

$_ZNSt15__new_allocatorISt6vectorIN8nlohmann16json_abi_v3_11_310basic_jsonISt3mapS0_NSt7__cxx1112basic_stringIcSt11char_traitsIcESaIcEEEblmdSaNS2_14adl_serializerES0_IhSaIhEEvEESaISE_EEE7destroyISG_EEvPT_ = comdat any

$_ZNSt15__new_allocatorINSt7__cxx1112basic_stringIcSt11char_traitsIcESaIcEEEE7destroyIS5_EEvPT_ = comdat any

$_ZNSt15__new_allocatorIN8nlohmann16json_abi_v3_11_327byte_container_with_subtypeISt6vectorIhSaIhEEEEE7destroyIS6_EEvPT_ = comdat any

$_ZN8nlohmann16json_abi_v3_11_327byte_container_with_subtypeISt6vectorIhSaIhEEED2Ev = comdat any

$_ZNSt6vectorIhSaIhEED2Ev = comdat any

$_ZSt8_DestroyIPhhEvT_S1_RSaIT0_E = comdat any

$_ZNSt12_Vector_baseIhSaIhEE19_M_get_Tp_allocatorEv = comdat any

$_ZNSt12_Vector_baseIhSaIhEED2Ev = comdat any

$_ZSt8_DestroyIPhEvT_S1_ = comdat any

$_ZNSt12_Destroy_auxILb1EE9__destroyIPhEEvT_S3_ = comdat any

$_ZNSt12_Vector_baseIhSaIhEE13_M_deallocateEPhm = comdat any

$_ZNSt12_Vector_baseIhSaIhEE12_Vector_implD2Ev = comdat any

$_ZNSt16allocator_traitsISaIhEE10deallocateERS0_Phm = comdat any

$_ZNSt15__new_allocatorIhE10deallocateEPhm = comdat any

$_ZNSt15__new_allocatorIhED2Ev = comdat any

$_ZN8nlohmann16json_abi_v3_11_36detail9iter_implINS0_10basic_jsonISt3mapSt6vectorNSt7__cxx1112basic_stringIcSt11char_traitsIcESaIcEEEblmdSaNS0_14adl_serializerES5_IhSaIhEEvEEEC2EPSF_ = comdat any

$_ZN8nlohmann16json_abi_v3_11_36detail9iter_implINS0_10basic_jsonISt3mapSt6vectorNSt7__cxx1112basic_stringIcSt11char_traitsIcESaIcEEEblmdSaNS0_14adl_serializerES5_IhSaIhEEvEEE9set_beginEv = comdat any

$_ZN8nlohmann16json_abi_v3_11_36detail20primitive_iterator_t7set_endEv = comdat any

$_ZN8nlohmann16json_abi_v3_11_36detail20primitive_iterator_t9set_beginEv = comdat any

$_ZN7doctest6detail14Expression_lhsIbEC2EObNS_10assertType4EnumE = comdat any

$_ZN8nlohmann16json_abi_v3_11_36detail16invalid_iterator6createIPKNS0_10basic_jsonISt3mapSt6vectorNSt7__cxx1112basic_stringIcSt11char_traitsIcESaIcEEEblmdSaNS0_14adl_serializerES6_IhSaIhEEvEETnNSt9enable_ifIXsr21is_basic_json_contextIT_EE5valueEiE4typeELi0EEES2_iRKSC_SK_ = comdat any

$_ZN8nlohmann16json_abi_v3_11_36detail16invalid_iteratorD2Ev = comdat any

$_ZN8nlohmann16json_abi_v3_11_36detaileqENS1_20primitive_iterator_tES2_ = comdat any

$_ZN8nlohmann16json_abi_v3_11_36detail9exception11diagnosticsINS0_10basic_jsonISt3mapSt6vectorNSt7__cxx1112basic_stringIcSt11char_traitsIcESaIcEEEblmdSaNS0_14adl_serializerES6_IhSaIhEEvEEEESC_PKT_ = comdat any

$_ZN8nlohmann16json_abi_v3_11_36detail16invalid_iteratorC2EiPKc = comdat any

$_ZN8nlohmann16json_abi_v3_11_36detail16invalid_iteratorD0Ev = comdat any

$_ZNKSt17_Rb_tree_iteratorISt4pairIKNSt7__cxx1112basic_stringIcSt11char_traitsIcESaIcEEEN8nlohmann16json_abi_v3_11_310basic_jsonISt3mapSt6vectorS6_blmdSaNS9_14adl_serializerESC_IhSaIhEEvEEEEptEv = comdat any

$_ZNK8nlohmann16json_abi_v3_11_36detail20primitive_iterator_t8is_beginEv = comdat any

$_ZN7doctest10AssertDataD2Ev = comdat any

$_ZN7doctest10AssertData14StringContainsD2Ev = comdat any

$_ZN7doctest8ContainsD2Ev = comdat any

$_ZN8nlohmann16json_abi_v3_11_310basic_jsonISt3mapSt6vectorNSt7__cxx1112basic_stringIcSt11char_traitsIcESaIcEEEblmdSaNS0_14adl_serializerES3_IhSaIhEEvE4dataC2Ev = comdat any

$_ZN8nlohmann16json_abi_v3_11_314adl_serializerIivE7to_jsonINS0_10basic_jsonISt3mapSt6vectorNSt7__cxx1112basic_stringIcSt11char_traitsIcESaIcEEEblmdSaS1_S6_IhSaIhEEvEEiEEDTcmclL_ZNS0_12_GLOBAL__N_17to_jsonEEfp_clsr3stdE7forwardIT0_Efp0_EEcvv_EERT_OSH_ = comdat any

$_ZNK8nlohmann16json_abi_v3_11_36detail10to_json_fnclINS0_10basic_jsonISt3mapSt6vectorNSt7__cxx1112basic_stringIcSt11char_traitsIcESaIcEEEblmdSaNS0_14adl_serializerES6_IhSaIhEEvEEiEEDTcmcl7to_jsonfp_clsr3stdE7forwardIT0_Efp0_EEcvv_EERT_OSH_ = comdat any

$_ZN8nlohmann16json_abi_v3_11_36detail7to_jsonINS0_10basic_jsonISt3mapSt6vectorNSt7__cxx1112basic_stringIcSt11char_traitsIcESaIcEEEblmdSaNS0_14adl_serializerES5_IhSaIhEEvEEiTnNSt9enable_ifIXsr26is_compatible_integer_typeINT_16number_integer_tET0_EE5valueEiE4typeELi0EEEvRSH_SJ_ = comdat any

$_ZN8nlohmann16json_abi_v3_11_36detail20external_constructorILNS1_7value_tE5EE9constructINS0_10basic_jsonISt3mapSt6vectorNSt7__cxx1112basic_stringIcSt11char_traitsIcESaIcEEEblmdSaNS0_14adl_serializerES8_IhSaIhEEvEEEEvRT_NSJ_16number_integer_tE = comdat any

$_ZN8nlohmann16json_abi_v3_11_310basic_jsonISt3mapSt6vectorNSt7__cxx1112basic_stringIcSt11char_traitsIcESaIcEEEblmdSaNS0_14adl_serializerES3_IhSaIhEEvE10json_valueC2El = comdat any

$_ZN7doctest6detail14Expression_lhsIRKN8nlohmann16json_abi_v3_11_310basic_jsonISt3mapSt6vectorNSt7__cxx1112basic_stringIcSt11char_traitsIcESaIcEEEblmdSaNS3_14adl_serializerES6_IhSaIhEEvEEEC2ESI_NS_10assertType4EnumE = comdat any

$_ZN8nlohmann16json_abi_v3_11_3eqERKNS0_10basic_jsonISt3mapSt6vectorNSt7__cxx1112basic_stringIcSt11char_traitsIcESaIcEEEblmdSaNS0_14adl_serializerES3_IhSaIhEEvEESF_ = comdat any

$_ZN7doctest6detail7forwardIRKN8nlohmann16json_abi_v3_11_310basic_jsonISt3mapSt6vectorNSt7__cxx1112basic_stringIcSt11char_traitsIcESaIcEEEblmdSaNS3_14adl_serializerES6_IhSaIhEEvEEEEOT_RNS0_5types16remove_referenceISJ_E4typeE = comdat any

$_ZN7doctest6detail7forwardIN8nlohmann16json_abi_v3_11_310basic_jsonISt3mapSt6vectorNSt7__cxx1112basic_stringIcSt11char_traitsIcESaIcEEEblmdSaNS3_14adl_serializerES6_IhSaIhEEvEEEEOT_RNS0_5types16remove_referenceISH_E4typeE = comdat any

$_ZN7doctest6detail19stringifyBinaryExprIN8nlohmann16json_abi_v3_11_310basic_jsonISt3mapSt6vectorNSt7__cxx1112basic_stringIcSt11char_traitsIcESaIcEEEblmdSaNS3_14adl_serializerES6_IhSaIhEEvEESG_EENS_6StringERKT_PKcRKT0_ = comdat any

$_ZNK8nlohmann16json_abi_v3_11_310basic_jsonISt3mapSt6vectorNSt7__cxx1112basic_stringIcSt11char_traitsIcESaIcEEEblmdSaNS0_14adl_serializerES3_IhSaIhEEvE4typeEv = comdat any

$_ZSteqIN8nlohmann16json_abi_v3_11_310basic_jsonISt3mapSt6vectorNSt7__cxx1112basic_stringIcSt11char_traitsIcESaIcEEEblmdSaNS1_14adl_serializerES4_IhSaIhEEvEESaISE_EEbRKS4_IT_T0_ESK_ = comdat any

$_ZSteqINSt7__cxx1112basic_stringIcSt11char_traitsIcESaIcEEEN8nlohmann16json_abi_v3_11_310basic_jsonISt3mapSt6vectorS5_blmdSaNS7_14adl_serializerESA_IhSaIhEEvEESt4lessIS5_ESaISt4pairIKS5_SE_EEEbRKS9_IT_T0_T1_T2_ESR_ = comdat any

$_ZSteqIcEN9__gnu_cxx11__enable_ifIXsr9__is_charIT_EE7__valueEbE6__typeERKNSt7__cxx1112basic_stringIS2_St11char_traitsIS2_ESaIS2_EEESC_ = comdat any

$_ZNK8nlohmann16json_abi_v3_11_327byte_container_with_subtypeISt6vectorIhSaIhEEEeqERKS5_ = comdat any

$_ZN8nlohmann16json_abi_v3_11_310basic_jsonISt3mapSt6vectorNSt7__cxx1112basic_stringIcSt11char_traitsIcESaIcEEEblmdSaNS0_14adl_serializerES3_IhSaIhEEvE18compares_unorderedERKSD_SF_b = comdat any

$_ZSt5equalIN9__gnu_cxx17__normal_iteratorIPKN8nlohmann16json_abi_v3_11_310basic_jsonISt3mapSt6vectorNSt7__cxx1112basic_stringIcSt11char_traitsIcESaIcEEEblmdSaNS3_14adl_serializerES6_IhSaIhEEvEES6_ISG_SaISG_EEEESL_EbT_SM_T0_ = comdat any

$_ZSt11__equal_auxIN9__gnu_cxx17__normal_iteratorIPKN8nlohmann16json_abi_v3_11_310basic_jsonISt3mapSt6vectorNSt7__cxx1112basic_stringIcSt11char_traitsIcESaIcEEEblmdSaNS3_14adl_serializerES6_IhSaIhEEvEES6_ISG_SaISG_EEEESL_EbT_SM_T0_ = comdat any

$_ZSt12__equal_aux1IPKN8nlohmann16json_abi_v3_11_310basic_jsonISt3mapSt6vectorNSt7__cxx1112basic_stringIcSt11char_traitsIcESaIcEEEblmdSaNS1_14adl_serializerES4_IhSaIhEEvEESG_EbT_SH_T0_ = comdat any

$_ZSt12__niter_baseIPKN8nlohmann16json_abi_v3_11_310basic_jsonISt3mapSt6vectorNSt7__cxx1112basic_stringIcSt11char_traitsIcESaIcEEEblmdSaNS1_14adl_serializerES4_IhSaIhEEvEES4_ISE_SaISE_EEET_N9__gnu_cxx17__normal_iteratorISJ_T0_EE = comdat any

$_ZNSt7__equalILb0EE5equalIPKN8nlohmann16json_abi_v3_11_310basic_jsonISt3mapSt6vectorNSt7__cxx1112basic_stringIcSt11char_traitsIcESaIcEEEblmdSaNS3_14adl_serializerES6_IhSaIhEEvEESI_EEbT_SJ_T0_ = comdat any

$_ZSteqRKSt8_Rb_treeINSt7__cxx1112basic_stringIcSt11char_traitsIcESaIcEEESt4pairIKS5_N8nlohmann16json_abi_v3_11_310basic_jsonISt3mapSt6vectorS5_blmdSaNS9_14adl_serializerESC_IhSaIhEEvEEESt10_Select1stISH_ESt4lessIS5_ESaISH_EESP_ = comdat any

$_ZSt5equalISt23_Rb_tree_const_iteratorISt4pairIKNSt7__cxx1112basic_stringIcSt11char_traitsIcESaIcEEEN8nlohmann16json_abi_v3_11_310basic_jsonISt3mapSt6vectorS7_blmdSaNSA_14adl_serializerESD_IhSaIhEEvEEEESJ_EbT_SK_T0_ = comdat any

$_ZNKSt8_Rb_treeINSt7__cxx1112basic_stringIcSt11char_traitsIcESaIcEEESt4pairIKS5_N8nlohmann16json_abi_v3_11_310basic_jsonISt3mapSt6vectorS5_blmdSaNS9_14adl_serializerESC_IhSaIhEEvEEESt10_Select1stISH_ESt4lessIS5_ESaISH_EE5beginEv = comdat any

$_ZNKSt8_Rb_treeINSt7__cxx1112basic_stringIcSt11char_traitsIcESaIcEEESt4pairIKS5_N8nlohmann16json_abi_v3_11_310basic_jsonISt3mapSt6vectorS5_blmdSaNS9_14adl_serializerESC_IhSaIhEEvEEESt10_Select1stISH_ESt4lessIS5_ESaISH_EE3endEv = comdat any

$_ZSt11__equal_auxISt23_Rb_tree_const_iteratorISt4pairIKNSt7__cxx1112basic_stringIcSt11char_traitsIcESaIcEEEN8nlohmann16json_abi_v3_11_310basic_jsonISt3mapSt6vectorS7_blmdSaNSA_14adl_serializerESD_IhSaIhEEvEEEESJ_EbT_SK_T0_ = comdat any

$_ZSt12__equal_aux1ISt23_Rb_tree_const_iteratorISt4pairIKNSt7__cxx1112basic_stringIcSt11char_traitsIcESaIcEEEN8nlohmann16json_abi_v3_11_310basic_jsonISt3mapSt6vectorS7_blmdSaNSA_14adl_serializerESD_IhSaIhEEvEEEESJ_EbT_SK_T0_ = comdat any

$_ZSt12__niter_baseISt23_Rb_tree_const_iteratorISt4pairIKNSt7__cxx1112basic_stringIcSt11char_traitsIcESaIcEEEN8nlohmann16json_abi_v3_11_310basic_jsonISt3mapSt6vectorS7_blmdSaNSA_14adl_serializerESD_IhSaIhEEvEEEEET_SK_ = comdat any

$_ZNSt7__equalILb0EE5equalISt23_Rb_tree_const_iteratorISt4pairIKNSt7__cxx1112basic_stringIcSt11char_traitsIcESaIcEEEN8nlohmann16json_abi_v3_11_310basic_jsonISt3mapSt6vectorS9_blmdSaNSC_14adl_serializerESF_IhSaIhEEvEEEESL_EEbT_SM_T0_ = comdat any

$_ZStneRKSt23_Rb_tree_const_iteratorISt4pairIKNSt7__cxx1112basic_stringIcSt11char_traitsIcESaIcEEEN8nlohmann16json_abi_v3_11_310basic_jsonISt3mapSt6vectorS6_blmdSaNS9_14adl_serializerESC_IhSaIhEEvEEEESK_ = comdat any

$_ZSteqIKNSt7__cxx1112basic_stringIcSt11char_traitsIcESaIcEEEN8nlohmann16json_abi_v3_11_310basic_jsonISt3mapSt6vectorS5_blmdSaNS8_14adl_serializerESB_IhSaIhEEvEEEbRKSt4pairIT_T0_ESL_ = comdat any

$_ZNKSt23_Rb_tree_const_iteratorISt4pairIKNSt7__cxx1112basic_stringIcSt11char_traitsIcESaIcEEEN8nlohmann16json_abi_v3_11_310basic_jsonISt3mapSt6vectorS6_blmdSaNS9_14adl_serializerESC_IhSaIhEEvEEEEdeEv = comdat any

$_ZNSt23_Rb_tree_const_iteratorISt4pairIKNSt7__cxx1112basic_stringIcSt11char_traitsIcESaIcEEEN8nlohmann16json_abi_v3_11_310basic_jsonISt3mapSt6vectorS6_blmdSaNS9_14adl_serializerESC_IhSaIhEEvEEEEppEv = comdat any

$_ZNKSt13_Rb_tree_nodeISt4pairIKNSt7__cxx1112basic_stringIcSt11char_traitsIcESaIcEEEN8nlohmann16json_abi_v3_11_310basic_jsonISt3mapSt6vectorS6_blmdSaNS9_14adl_serializerESC_IhSaIhEEvEEEE9_M_valptrEv = comdat any

$_ZNK9__gnu_cxx16__aligned_membufISt4pairIKNSt7__cxx1112basic_stringIcSt11char_traitsIcESaIcEEEN8nlohmann16json_abi_v3_11_310basic_jsonISt3mapSt6vectorS7_blmdSaNSA_14adl_serializerESD_IhSaIhEEvEEEE6_M_ptrEv = comdat any

$_ZNK9__gnu_cxx16__aligned_membufISt4pairIKNSt7__cxx1112basic_stringIcSt11char_traitsIcESaIcEEEN8nlohmann16json_abi_v3_11_310basic_jsonISt3mapSt6vectorS7_blmdSaNSA_14adl_serializerESD_IhSaIhEEvEEEE7_M_addrEv = comdat any

$_ZNSt23_Rb_tree_const_iteratorISt4pairIKNSt7__cxx1112basic_stringIcSt11char_traitsIcESaIcEEEN8nlohmann16json_abi_v3_11_310basic_jsonISt3mapSt6vectorS6_blmdSaNS9_14adl_serializerESC_IhSaIhEEvEEEEC2EPKSt18_Rb_tree_node_base = comdat any

$_ZNSt11char_traitsIcE7compareEPKcS2_m = comdat any

$_ZSteqIJRKSt6vectorIhSaIhEERKmRKbEJS4_S6_S8_EEbRKSt5tupleIJDpT_EERKS9_IJDpT0_EE = comdat any

$_ZSt3tieIJKSt6vectorIhSaIhEEKmKbEESt5tupleIJDpRT_EES9_ = comdat any

$_ZNSt15__tuple_compareISt5tupleIJRKSt6vectorIhSaIhEERKmRKbEESA_Lm0ELm3EE4__eqERKSA_SD_ = comdat any

$_ZSteqIhSaIhEEbRKSt6vectorIT_T0_ES6_ = comdat any

$_ZSt3getILm0EJRKSt6vectorIhSaIhEERKmRKbEERKNSt13tuple_elementIXT_ESt5tupleIJDpT0_EEE4typeERKSD_ = comdat any

$_ZNSt15__tuple_compareISt5tupleIJRKSt6vectorIhSaIhEERKmRKbEESA_Lm1ELm3EE4__eqERKSA_SD_ = comdat any

$_ZNKSt6vectorIhSaIhEE4sizeEv = comdat any

$_ZSt5equalIN9__gnu_cxx17__normal_iteratorIPKhSt6vectorIhSaIhEEEES7_EbT_S8_T0_ = comdat any

$_ZNKSt6vectorIhSaIhEE5beginEv = comdat any

$_ZNKSt6vectorIhSaIhEE3endEv = comdat any

$_ZSt11__equal_auxIN9__gnu_cxx17__normal_iteratorIPKhSt6vectorIhSaIhEEEES7_EbT_S8_T0_ = comdat any

$_ZSt12__equal_aux1IPKhS1_EbT_S2_T0_ = comdat any

$_ZSt12__niter_baseIPKhSt6vectorIhSaIhEEET_N9__gnu_cxx17__normal_iteratorIS5_T0_EE = comdat any

$_ZNSt7__equalILb1EE5equalIhEEbPKT_S4_S4_ = comdat any

$_ZSt8__memcmpIhhEiPKT_PKT0_m = comdat any

$_ZNK9__gnu_cxx17__normal_iteratorIPKhSt6vectorIhSaIhEEE4baseEv = comdat any

$_ZN9__gnu_cxx17__normal_iteratorIPKhSt6vectorIhSaIhEEEC2ERKS2_ = comdat any

$_ZSt12__get_helperILm0ERKSt6vectorIhSaIhEEJRKmRKbEERKT0_RKSt11_Tuple_implIXT_EJS9_DpT1_EE = comdat any

$_ZNSt11_Tuple_implILm0EJRKSt6vectorIhSaIhEERKmRKbEE7_M_headERKS9_ = comdat any

$_ZNSt10_Head_baseILm0ERKSt6vectorIhSaIhEELb0EE7_M_headERKS5_ = comdat any

$_ZSt3getILm1EJRKSt6vectorIhSaIhEERKmRKbEERKNSt13tuple_elementIXT_ESt5tupleIJDpT0_EEE4typeERKSD_ = comdat any

$_ZNSt15__tuple_compareISt5tupleIJRKSt6vectorIhSaIhEERKmRKbEESA_Lm2ELm3EE4__eqERKSA_SD_ = comdat any

$_ZSt12__get_helperILm1ERKmJRKbEERKT0_RKSt11_Tuple_implIXT_EJS4_DpT1_EE = comdat any

$_ZNSt11_Tuple_implILm1EJRKmRKbEE7_M_headERKS4_ = comdat any

$_ZNSt10_Head_baseILm1ERKmLb0EE7_M_headERKS2_ = comdat any

$_ZSt3getILm2EJRKSt6vectorIhSaIhEERKmRKbEERKNSt13tuple_elementIXT_ESt5tupleIJDpT0_EEE4typeERKSD_ = comdat any

$_ZNSt15__tuple_compareISt5tupleIJRKSt6vectorIhSaIhEERKmRKbEESA_Lm3ELm3EE4__eqERKSA_SD_ = comdat any

$_ZSt12__get_helperILm2ERKbJEERKT0_RKSt11_Tuple_implIXT_EJS2_DpT1_EE = comdat any

$_ZNSt11_Tuple_implILm2EJRKbEE7_M_headERKS2_ = comdat any

$_ZNSt10_Head_baseILm2ERKbLb0EE7_M_headERKS2_ = comdat any

$_ZNSt5tupleIJRKSt6vectorIhSaIhEERKmRKbEEC2ILb1ETnNSt9enable_ifIXclsr4_TCCIXT_EEE29__is_implicitly_constructibleIS4_S6_S8_EEEbE4typeELb1EEES4_S6_S8_ = comdat any

$_ZNSt11_Tuple_implILm0EJRKSt6vectorIhSaIhEERKmRKbEEC2ES4_S6_S8_ = comdat any

$_ZNSt11_Tuple_implILm1EJRKmRKbEEC2ES1_S3_ = comdat any

$_ZNSt10_Head_baseILm0ERKSt6vectorIhSaIhEELb0EEC2ES4_ = comdat any

$_ZNSt11_Tuple_implILm2EJRKbEEC2ES1_ = comdat any

$_ZNSt10_Head_baseILm1ERKmLb0EEC2ES1_ = comdat any

$_ZNSt10_Head_baseILm2ERKbLb0EEC2ES1_ = comdat any

$_ZNK8nlohmann16json_abi_v3_11_310basic_jsonISt3mapSt6vectorNSt7__cxx1112basic_stringIcSt11char_traitsIcESaIcEEEblmdSaNS0_14adl_serializerES3_IhSaIhEEvE15is_number_floatEv = comdat any

$_ZSt5isnand = comdat any

$_ZNK8nlohmann16json_abi_v3_11_310basic_jsonISt3mapSt6vectorNSt7__cxx1112basic_stringIcSt11char_traitsIcESaIcEEEblmdSaNS0_14adl_serializerES3_IhSaIhEEvE9is_numberEv = comdat any

$_ZNK8nlohmann16json_abi_v3_11_310basic_jsonISt3mapSt6vectorNSt7__cxx1112basic_stringIcSt11char_traitsIcESaIcEEEblmdSaNS0_14adl_serializerES3_IhSaIhEEvE12is_discardedEv = comdat any

$_ZNK8nlohmann16json_abi_v3_11_310basic_jsonISt3mapSt6vectorNSt7__cxx1112basic_stringIcSt11char_traitsIcESaIcEEEblmdSaNS0_14adl_serializerES3_IhSaIhEEvE17is_number_integerEv = comdat any

$_ZN7doctest8toStringIN8nlohmann16json_abi_v3_11_310basic_jsonISt3mapSt6vectorNSt7__cxx1112basic_stringIcSt11char_traitsIcESaIcEEEblmdSaNS2_14adl_serializerES5_IhSaIhEEvEETnNS_6detail5types9enable_ifIXntsr6detail35should_stringify_as_underlying_typeIT_EE5valueEbE4typeELb1EEENS_6StringERKSJ_ = comdat any

$_ZN7doctest6detail15StringMakerBaseILb1EE7convertIN8nlohmann16json_abi_v3_11_310basic_jsonISt3mapSt6vectorNSt7__cxx1112basic_stringIcSt11char_traitsIcESaIcEEEblmdSaNS5_14adl_serializerES8_IhSaIhEEvEEEENS_6StringERKT_ = comdat any

$_ZN7doctest6detail8toStreamIN8nlohmann16json_abi_v3_11_310basic_jsonISt3mapSt6vectorNSt7__cxx1112basic_stringIcSt11char_traitsIcESaIcEEEblmdSaNS3_14adl_serializerES6_IhSaIhEEvEEEENS_6StringERKT_ = comdat any

$_ZN7doctest6detail7fillossIN8nlohmann16json_abi_v3_11_310basic_jsonISt3mapSt6vectorNSt7__cxx1112basic_stringIcSt11char_traitsIcESaIcEEEblmdSaNS3_14adl_serializerES6_IhSaIhEEvEEEEvPSoRKT_ = comdat any

$_ZN7doctest6detail8filldataIN8nlohmann16json_abi_v3_11_310basic_jsonISt3mapSt6vectorNSt7__cxx1112basic_stringIcSt11char_traitsIcESaIcEEEblmdSaNS3_14adl_serializerES6_IhSaIhEEvEEE4fillEPSoRKSG_ = comdat any

$_ZN8nlohmann16json_abi_v3_11_3lsERSoRKNS0_10basic_jsonISt3mapSt6vectorNSt7__cxx1112basic_stringIcSt11char_traitsIcESaIcEEEblmdSaNS0_14adl_serializerES4_IhSaIhEEvEE = comdat any

$_ZNKSt8ios_base5widthEv = comdat any

$_ZNSt8ios_base5widthEl = comdat any

$_ZN8nlohmann16json_abi_v3_11_36detail14output_adapterIcNSt7__cxx1112basic_stringIcSt11char_traitsIcESaIcEEEEC2ERSo = comdat any

$_ZN8nlohmann16json_abi_v3_11_36detail14output_adapterIcNSt7__cxx1112basic_stringIcSt11char_traitsIcESaIcEEEEcvSt10shared_ptrINS1_23output_adapter_protocolIcEEEEv = comdat any

$_ZN8nlohmann16json_abi_v3_11_36detail10serializerINS0_10basic_jsonISt3mapSt6vectorNSt7__cxx1112basic_stringIcSt11char_traitsIcESaIcEEEblmdSaNS0_14adl_serializerES5_IhSaIhEEvEEEC2ESt10shared_ptrINS1_23output_adapter_protocolIcEEEcNS1_15error_handler_tE = comdat any

$_ZNSt10shared_ptrIN8nlohmann16json_abi_v3_11_36detail23output_adapter_protocolIcEEED2Ev = comdat any

$_ZN8nlohmann16json_abi_v3_11_36detail14output_adapterIcNSt7__cxx1112basic_stringIcSt11char_traitsIcESaIcEEEED2Ev = comdat any

$_ZN8nlohmann16json_abi_v3_11_36detail10serializerINS0_10basic_jsonISt3mapSt6vectorNSt7__cxx1112basic_stringIcSt11char_traitsIcESaIcEEEblmdSaNS0_14adl_serializerES5_IhSaIhEEvEEE4dumpERKSF_bbjj = comdat any

$_ZN8nlohmann16json_abi_v3_11_36detail10serializerINS0_10basic_jsonISt3mapSt6vectorNSt7__cxx1112basic_stringIcSt11char_traitsIcESaIcEEEblmdSaNS0_14adl_serializerES5_IhSaIhEEvEEED2Ev = comdat any

$_ZSt11make_sharedIN8nlohmann16json_abi_v3_11_36detail21output_stream_adapterIcEEJRSoEESt10shared_ptrINSt9enable_ifIXntsr8is_arrayIT_EE5valueES8_E4typeEEDpOT0_ = comdat any

$_ZNSt10shared_ptrIN8nlohmann16json_abi_v3_11_36detail23output_adapter_protocolIcEEEC2INS2_21output_stream_adapterIcEEvEEOS_IT_E = comdat any

$_ZNSt10shared_ptrIN8nlohmann16json_abi_v3_11_36detail21output_stream_adapterIcEEED2Ev = comdat any

$_ZNSt10shared_ptrIN8nlohmann16json_abi_v3_11_36detail21output_stream_adapterIcEEEC2ISaIvEJRSoEEESt20_Sp_alloc_shared_tagIT_EDpOT0_ = comdat any

$_ZNSt12__shared_ptrIN8nlohmann16json_abi_v3_11_36detail21output_stream_adapterIcEELN9__gnu_cxx12_Lock_policyE2EEC2ISaIvEJRSoEEESt20_Sp_alloc_shared_tagIT_EDpOT0_ = comdat any

$_ZNSt14__shared_countILN9__gnu_cxx12_Lock_policyE2EEC2IN8nlohmann16json_abi_v3_11_36detail21output_stream_adapterIcEESaIvEJRSoEEERPT_St20_Sp_alloc_shared_tagIT0_EDpOT1_ = comdat any

$_ZNSt12__shared_ptrIN8nlohmann16json_abi_v3_11_36detail21output_stream_adapterIcEELN9__gnu_cxx12_Lock_policyE2EE31_M_enable_shared_from_this_withIS4_S4_EENSt9enable_ifIXntsr15__has_esft_baseIT0_EE5valueEvE4typeEPT_ = comdat any

$_ZNSaISt23_Sp_counted_ptr_inplaceIN8nlohmann16json_abi_v3_11_36detail21output_stream_adapterIcEESaIvELN9__gnu_cxx12_Lock_policyE2EEEC2IvEERKSaIT_E = comdat any

$_ZSt18__allocate_guardedISaISt23_Sp_counted_ptr_inplaceIN8nlohmann16json_abi_v3_11_36detail21output_stream_adapterIcEESaIvELN9__gnu_cxx12_Lock_policyE2EEEESt15__allocated_ptrIT_ERSC_ = comdat any

$_ZNSt15__allocated_ptrISaISt23_Sp_counted_ptr_inplaceIN8nlohmann16json_abi_v3_11_36detail21output_stream_adapterIcEESaIvELN9__gnu_cxx12_Lock_policyE2EEEE3getEv = comdat any

$_ZNSt23_Sp_counted_ptr_inplaceIN8nlohmann16json_abi_v3_11_36detail21output_stream_adapterIcEESaIvELN9__gnu_cxx12_Lock_policyE2EEC2IJRSoEEES5_DpOT_ = comdat any

$_ZNSt15__allocated_ptrISaISt23_Sp_counted_ptr_inplaceIN8nlohmann16json_abi_v3_11_36detail21output_stream_adapterIcEESaIvELN9__gnu_cxx12_Lock_policyE2EEEEaSEDn = comdat any

$_ZNSt23_Sp_counted_ptr_inplaceIN8nlohmann16json_abi_v3_11_36detail21output_stream_adapterIcEESaIvELN9__gnu_cxx12_Lock_policyE2EE6_M_ptrEv = comdat any

$_ZNSt15__allocated_ptrISaISt23_Sp_counted_ptr_inplaceIN8nlohmann16json_abi_v3_11_36detail21output_stream_adapterIcEESaIvELN9__gnu_cxx12_Lock_policyE2EEEED2Ev = comdat any

$_ZNSaISt23_Sp_counted_ptr_inplaceIN8nlohmann16json_abi_v3_11_36detail21output_stream_adapterIcEESaIvELN9__gnu_cxx12_Lock_policyE2EEED2Ev = comdat any

$_ZNSt15__new_allocatorISt23_Sp_counted_ptr_inplaceIN8nlohmann16json_abi_v3_11_36detail21output_stream_adapterIcEESaIvELN9__gnu_cxx12_Lock_policyE2EEEC2Ev = comdat any

$_ZNSt16allocator_traitsISaISt23_Sp_counted_ptr_inplaceIN8nlohmann16json_abi_v3_11_36detail21output_stream_adapterIcEESaIvELN9__gnu_cxx12_Lock_policyE2EEEE8allocateERSA_m = comdat any

$_ZNSt15__allocated_ptrISaISt23_Sp_counted_ptr_inplaceIN8nlohmann16json_abi_v3_11_36detail21output_stream_adapterIcEESaIvELN9__gnu_cxx12_Lock_policyE2EEEEC2ERSA_PS9_ = comdat any

$_ZNSt15__new_allocatorISt23_Sp_counted_ptr_inplaceIN8nlohmann16json_abi_v3_11_36detail21output_stream_adapterIcEESaIvELN9__gnu_cxx12_Lock_policyE2EEE8allocateEmPKv = comdat any

$_ZNKSt15__new_allocatorISt23_Sp_counted_ptr_inplaceIN8nlohmann16json_abi_v3_11_36detail21output_stream_adapterIcEESaIvELN9__gnu_cxx12_Lock_policyE2EEE11_M_max_sizeEv = comdat any

$_ZSt12__to_addressISt23_Sp_counted_ptr_inplaceIN8nlohmann16json_abi_v3_11_36detail21output_stream_adapterIcEESaIvELN9__gnu_cxx12_Lock_policyE2EEEPT_SB_ = comdat any

$_ZNSt16_Sp_counted_baseILN9__gnu_cxx12_Lock_policyE2EEC2Ev = comdat any

$_ZNSt23_Sp_counted_ptr_inplaceIN8nlohmann16json_abi_v3_11_36detail21output_stream_adapterIcEESaIvELN9__gnu_cxx12_Lock_policyE2EE5_ImplC2ES5_ = comdat any

$_ZNSt16allocator_traitsISaIvEE9constructIN8nlohmann16json_abi_v3_11_36detail21output_stream_adapterIcEEJRSoEEEvRS0_PT_DpOT0_ = comdat any

$_ZNSt23_Sp_counted_ptr_inplaceIN8nlohmann16json_abi_v3_11_36detail21output_stream_adapterIcEESaIvELN9__gnu_cxx12_Lock_policyE2EED2Ev = comdat any

$_ZNSt23_Sp_counted_ptr_inplaceIN8nlohmann16json_abi_v3_11_36detail21output_stream_adapterIcEESaIvELN9__gnu_cxx12_Lock_policyE2EED0Ev = comdat any

$_ZNSt23_Sp_counted_ptr_inplaceIN8nlohmann16json_abi_v3_11_36detail21output_stream_adapterIcEESaIvELN9__gnu_cxx12_Lock_policyE2EE10_M_disposeEv = comdat any

$_ZNSt23_Sp_counted_ptr_inplaceIN8nlohmann16json_abi_v3_11_36detail21output_stream_adapterIcEESaIvELN9__gnu_cxx12_Lock_policyE2EE10_M_destroyEv = comdat any

$_ZNSt23_Sp_counted_ptr_inplaceIN8nlohmann16json_abi_v3_11_36detail21output_stream_adapterIcEESaIvELN9__gnu_cxx12_Lock_policyE2EE14_M_get_deleterERKSt9type_info = comdat any

$_ZNSt16_Sp_counted_baseILN9__gnu_cxx12_Lock_policyE2EED2Ev = comdat any

$_ZNSt16_Sp_counted_baseILN9__gnu_cxx12_Lock_policyE2EED0Ev = comdat any

$_ZNSt16_Sp_counted_baseILN9__gnu_cxx12_Lock_policyE2EE10_M_destroyEv = comdat any

$_ZNSt14_Sp_ebo_helperILi0ESaIvELb1EEC2ERKS0_ = comdat any

$_ZSt10_ConstructIN8nlohmann16json_abi_v3_11_36detail21output_stream_adapterIcEEJRSoEEvPT_DpOT0_ = comdat any

$_ZN8nlohmann16json_abi_v3_11_36detail21output_stream_adapterIcEC2ERSo = comdat any

$_ZN8nlohmann16json_abi_v3_11_36detail23output_adapter_protocolIcEC2Ev = comdat any

$_ZN8nlohmann16json_abi_v3_11_36detail21output_stream_adapterIcE15write_characterEc = comdat any

$_ZN8nlohmann16json_abi_v3_11_36detail21output_stream_adapterIcE16write_charactersEPKcm = comdat any

$_ZN8nlohmann16json_abi_v3_11_36detail21output_stream_adapterIcED2Ev = comdat any

$_ZN8nlohmann16json_abi_v3_11_36detail21output_stream_adapterIcED0Ev = comdat any

$_ZN8nlohmann16json_abi_v3_11_36detail23output_adapter_protocolIcED2Ev = comdat any

$_ZN8nlohmann16json_abi_v3_11_36detail23output_adapter_protocolIcED0Ev = comdat any

$_ZNSt16allocator_traitsISaIvEE7destroyIN8nlohmann16json_abi_v3_11_36detail21output_stream_adapterIcEEEEvRS0_PT_ = comdat any

$_ZNSt23_Sp_counted_ptr_inplaceIN8nlohmann16json_abi_v3_11_36detail21output_stream_adapterIcEESaIvELN9__gnu_cxx12_Lock_policyE2EE5_Impl8_M_allocEv = comdat any

$_ZSt8_DestroyIN8nlohmann16json_abi_v3_11_36detail21output_stream_adapterIcEEEvPT_ = comdat any

$_ZNSt14_Sp_ebo_helperILi0ESaIvELb1EE6_S_getERS1_ = comdat any

$_ZNSt19_Sp_make_shared_tag5_S_tiEv = comdat any

$_ZNKSt9type_infoeqERKS_ = comdat any

$_ZNKSt9type_info4nameEv = comdat any

$_ZN9__gnu_cxx16__aligned_bufferIN8nlohmann16json_abi_v3_11_36detail21output_stream_adapterIcEEE6_M_ptrEv = comdat any

$_ZN9__gnu_cxx16__aligned_bufferIN8nlohmann16json_abi_v3_11_36detail21output_stream_adapterIcEEE7_M_addrEv = comdat any

$_ZNSt16allocator_traitsISaISt23_Sp_counted_ptr_inplaceIN8nlohmann16json_abi_v3_11_36detail21output_stream_adapterIcEESaIvELN9__gnu_cxx12_Lock_policyE2EEEE10deallocateERSA_PS9_m = comdat any

$_ZNSt15__new_allocatorISt23_Sp_counted_ptr_inplaceIN8nlohmann16json_abi_v3_11_36detail21output_stream_adapterIcEESaIvELN9__gnu_cxx12_Lock_policyE2EEE10deallocateEPS9_m = comdat any

$_ZNSt15__new_allocatorISt23_Sp_counted_ptr_inplaceIN8nlohmann16json_abi_v3_11_36detail21output_stream_adapterIcEESaIvELN9__gnu_cxx12_Lock_policyE2EEED2Ev = comdat any

$_ZNSt12__shared_ptrIN8nlohmann16json_abi_v3_11_36detail23output_adapter_protocolIcEELN9__gnu_cxx12_Lock_policyE2EEC2INS2_21output_stream_adapterIcEEvEEOS_IT_LS6_2EE = comdat any

$_ZNSt14__shared_countILN9__gnu_cxx12_Lock_policyE2EEC2Ev = comdat any

$_ZNSt14__shared_countILN9__gnu_cxx12_Lock_policyE2EE7_M_swapERS2_ = comdat any

$_ZNSt12__shared_ptrIN8nlohmann16json_abi_v3_11_36detail21output_stream_adapterIcEELN9__gnu_cxx12_Lock_policyE2EED2Ev = comdat any

$_ZNSt14__shared_countILN9__gnu_cxx12_Lock_policyE2EED2Ev = comdat any

$_ZNSt16_Sp_counted_baseILN9__gnu_cxx12_Lock_policyE2EE10_M_releaseEv = comdat any

$_ZNSt16_Sp_counted_baseILN9__gnu_cxx12_Lock_policyE2EE24_M_release_last_use_coldEv = comdat any

$_ZNSt16_Sp_counted_baseILN9__gnu_cxx12_Lock_policyE2EE19_M_release_last_useEv = comdat any

$_ZNSt10shared_ptrIN8nlohmann16json_abi_v3_11_36detail23output_adapter_protocolIcEEEC2ERKS5_ = comdat any

$_ZNSt12__shared_ptrIN8nlohmann16json_abi_v3_11_36detail23output_adapter_protocolIcEELN9__gnu_cxx12_Lock_policyE2EEC2ERKS7_ = comdat any

$_ZNSt14__shared_countILN9__gnu_cxx12_Lock_policyE2EEC2ERKS2_ = comdat any

$_ZNSt16_Sp_counted_baseILN9__gnu_cxx12_Lock_policyE2EE15_M_add_ref_copyEv = comdat any

$_ZNSt10shared_ptrIN8nlohmann16json_abi_v3_11_36detail23output_adapter_protocolIcEEEC2EOS5_ = comdat any

$_ZNSt11char_traitsIcE12to_char_typeERKi = comdat any

$_ZNSt12__shared_ptrIN8nlohmann16json_abi_v3_11_36detail23output_adapter_protocolIcEELN9__gnu_cxx12_Lock_policyE2EEC2EOS7_ = comdat any

$_ZNSt12__shared_ptrIN8nlohmann16json_abi_v3_11_36detail23output_adapter_protocolIcEELN9__gnu_cxx12_Lock_policyE2EED2Ev = comdat any

$_ZNKSt3mapINSt7__cxx1112basic_stringIcSt11char_traitsIcESaIcEEEN8nlohmann16json_abi_v3_11_310basic_jsonIS_St6vectorS5_blmdSaNS7_14adl_serializerES9_IhSaIhEEvEESt4lessIS5_ESaISt4pairIKS5_SD_EEE5emptyEv = comdat any

$_ZNKSt19__shared_ptr_accessIN8nlohmann16json_abi_v3_11_36detail23output_adapter_protocolIcEELN9__gnu_cxx12_Lock_policyE2ELb0ELb0EEptEv = comdat any

$_ZNKSt3mapINSt7__cxx1112basic_stringIcSt11char_traitsIcESaIcEEEN8nlohmann16json_abi_v3_11_310basic_jsonIS_St6vectorS5_blmdSaNS7_14adl_serializerES9_IhSaIhEEvEESt4lessIS5_ESaISt4pairIKS5_SD_EEE6cbeginEv = comdat any

$_ZN8nlohmann16json_abi_v3_11_36detail10serializerINS0_10basic_jsonISt3mapSt6vectorNSt7__cxx1112basic_stringIcSt11char_traitsIcESaIcEEEblmdSaNS0_14adl_serializerES5_IhSaIhEEvEEE12dump_escapedERKSB_b = comdat any

$_ZNKSt23_Rb_tree_const_iteratorISt4pairIKNSt7__cxx1112basic_stringIcSt11char_traitsIcESaIcEEEN8nlohmann16json_abi_v3_11_310basic_jsonISt3mapSt6vectorS6_blmdSaNS9_14adl_serializerESC_IhSaIhEEvEEEEptEv = comdat any

$_ZNKSt6vectorIN8nlohmann16json_abi_v3_11_310basic_jsonISt3mapS_NSt7__cxx1112basic_stringIcSt11char_traitsIcESaIcEEEblmdSaNS1_14adl_serializerES_IhSaIhEEvEESaISD_EE6cbeginEv = comdat any

$_ZN9__gnu_cxxneIPKN8nlohmann16json_abi_v3_11_310basic_jsonISt3mapSt6vectorNSt7__cxx1112basic_stringIcSt11char_traitsIcESaIcEEEblmdSaNS2_14adl_serializerES5_IhSaIhEEvEES5_ISF_SaISF_EEEEbRKNS_17__normal_iteratorIT_T0_EESP_ = comdat any

$_ZNKSt6vectorIN8nlohmann16json_abi_v3_11_310basic_jsonISt3mapS_NSt7__cxx1112basic_stringIcSt11char_traitsIcESaIcEEEblmdSaNS1_14adl_serializerES_IhSaIhEEvEESaISD_EE4cendEv = comdat any

$_ZNK9__gnu_cxx17__normal_iteratorIPKN8nlohmann16json_abi_v3_11_310basic_jsonISt3mapSt6vectorNSt7__cxx1112basic_stringIcSt11char_traitsIcESaIcEEEblmdSaNS2_14adl_serializerES5_IhSaIhEEvEES5_ISF_SaISF_EEEmiEl = comdat any

$_ZNK9__gnu_cxx17__normal_iteratorIPKN8nlohmann16json_abi_v3_11_310basic_jsonISt3mapSt6vectorNSt7__cxx1112basic_stringIcSt11char_traitsIcESaIcEEEblmdSaNS2_14adl_serializerES5_IhSaIhEEvEES5_ISF_SaISF_EEEdeEv = comdat any

$_ZN9__gnu_cxx17__normal_iteratorIPKN8nlohmann16json_abi_v3_11_310basic_jsonISt3mapSt6vectorNSt7__cxx1112basic_stringIcSt11char_traitsIcESaIcEEEblmdSaNS2_14adl_serializerES5_IhSaIhEEvEES5_ISF_SaISF_EEEppEv = comdat any

$_ZNKSt6vectorIhSaIhEE5emptyEv = comdat any

$_ZNKSt6vectorIhSaIhEE6cbeginEv = comdat any

$_ZN9__gnu_cxxneIPKhSt6vectorIhSaIhEEEEbRKNS_17__normal_iteratorIT_T0_EESB_ = comdat any

$_ZNKSt6vectorIhSaIhEE4cendEv = comdat any

$_ZNK9__gnu_cxx17__normal_iteratorIPKhSt6vectorIhSaIhEEEmiEl = comdat any

$_ZN8nlohmann16json_abi_v3_11_36detail10serializerINS0_10basic_jsonISt3mapSt6vectorNSt7__cxx1112basic_stringIcSt11char_traitsIcESaIcEEEblmdSaNS0_14adl_serializerES5_IhSaIhEEvEEE12dump_integerIhTnNSt9enable_ifIXoooooosr3std11is_integralIT_EE5valuesr3std7is_sameISJ_mEE5valuesr3std7is_sameISJ_lEE5valuesr3std7is_sameISJ_hEE5valueEiE4typeELi0EEEvSJ_ = comdat any

$_ZNK9__gnu_cxx17__normal_iteratorIPKhSt6vectorIhSaIhEEEdeEv = comdat any

$_ZN9__gnu_cxx17__normal_iteratorIPKhSt6vectorIhSaIhEEEppEv = comdat any

$_ZNSt6vectorIhSaIhEE4backEv = comdat any

$_ZNK8nlohmann16json_abi_v3_11_327byte_container_with_subtypeISt6vectorIhSaIhEEE11has_subtypeEv = comdat any

$_ZN8nlohmann16json_abi_v3_11_36detail10serializerINS0_10basic_jsonISt3mapSt6vectorNSt7__cxx1112basic_stringIcSt11char_traitsIcESaIcEEEblmdSaNS0_14adl_serializerES5_IhSaIhEEvEEE12dump_integerImTnNSt9enable_ifIXoooooosr3std11is_integralIT_EE5valuesr3std7is_sameISJ_mEE5valuesr3std7is_sameISJ_lEE5valuesr3std7is_sameISJ_hEE5valueEiE4typeELi0EEEvSJ_ = comdat any

$_ZNK8nlohmann16json_abi_v3_11_327byte_container_with_subtypeISt6vectorIhSaIhEEE7subtypeEv = comdat any

$_ZN8nlohmann16json_abi_v3_11_36detail10serializerINS0_10basic_jsonISt3mapSt6vectorNSt7__cxx1112basic_stringIcSt11char_traitsIcESaIcEEEblmdSaNS0_14adl_serializerES5_IhSaIhEEvEEE12dump_integerIlTnNSt9enable_ifIXoooooosr3std11is_integralIT_EE5valuesr3std7is_sameISJ_mEE5valuesr3std7is_sameISJ_lEE5valuesr3std7is_sameISJ_hEE5valueEiE4typeELi0EEEvSJ_ = comdat any

$_ZN8nlohmann16json_abi_v3_11_36detail10serializerINS0_10basic_jsonISt3mapSt6vectorNSt7__cxx1112basic_stringIcSt11char_traitsIcESaIcEEEblmdSaNS0_14adl_serializerES5_IhSaIhEEvEEE10dump_floatEd = comdat any

$_ZNKSt8_Rb_treeINSt7__cxx1112basic_stringIcSt11char_traitsIcESaIcEEESt4pairIKS5_N8nlohmann16json_abi_v3_11_310basic_jsonISt3mapSt6vectorS5_blmdSaNS9_14adl_serializerESC_IhSaIhEEvEEESt10_Select1stISH_ESt4lessIS5_ESaISH_EE5emptyEv = comdat any

$_ZNKSt19__shared_ptr_accessIN8nlohmann16json_abi_v3_11_36detail23output_adapter_protocolIcEELN9__gnu_cxx12_Lock_policyE2ELb0ELb0EE6_M_getEv = comdat any

$_ZNKSt12__shared_ptrIN8nlohmann16json_abi_v3_11_36detail23output_adapter_protocolIcEELN9__gnu_cxx12_Lock_policyE2EE3getEv = comdat any

$_ZN8nlohmann16json_abi_v3_11_36detail10serializerINS0_10basic_jsonISt3mapSt6vectorNSt7__cxx1112basic_stringIcSt11char_traitsIcESaIcEEEblmdSaNS0_14adl_serializerES5_IhSaIhEEvEEE6decodeERhRjh = comdat any

$_ZNSt5arrayIcLm512EEixEm = comdat any

$_ZNSt5arrayIcLm512EE4dataEv = comdat any

$_ZNKSt5arrayIcLm512EE4sizeEv = comdat any

$_ZN8nlohmann16json_abi_v3_11_36detail10type_error6createIDnTnNSt9enable_ifIXsr21is_basic_json_contextIT_EE5valueEiE4typeELi0EEES2_iRKNSt7__cxx1112basic_stringIcSt11char_traitsIcESaIcEEES5_ = comdat any

$_ZN8nlohmann16json_abi_v3_11_36detail6concatINSt7__cxx1112basic_stringIcSt11char_traitsIcESaIcEEEJRA29_KcS8_RA5_S9_S8_EEET_DpOT0_ = comdat any

$_ZNSt7__cxx119to_stringEm = comdat any

$_ZN8nlohmann16json_abi_v3_11_36detail10serializerINS0_10basic_jsonISt3mapSt6vectorNSt7__cxx1112basic_stringIcSt11char_traitsIcESaIcEEEblmdSaNS0_14adl_serializerES5_IhSaIhEEvEEE9hex_bytesEh = comdat any

$_ZN8nlohmann16json_abi_v3_11_36detail10type_errorD2Ev = comdat any

$_ZN8nlohmann16json_abi_v3_11_36detail13binary_writerINS0_10basic_jsonISt3mapSt6vectorNSt7__cxx1112basic_stringIcSt11char_traitsIcESaIcEEEblmdSaNS0_14adl_serializerES5_IhSaIhEEvEEcE12to_char_typeIccTnPNSt9enable_ifIXaaaasr3std9is_signedIT0_EE5valueL_ZNSt17integral_constantIbLb1EE5valueEEsr3std7is_sameIcNSt9remove_cvIT_E4typeEEE5valueEvE4typeELPv0EEEcSN_ = comdat any

$_ZN8nlohmann16json_abi_v3_11_36detail6concatINSt7__cxx1112basic_stringIcSt11char_traitsIcESaIcEEEJRA39_KcS8_EEET_DpOT0_ = comdat any

$_ZNKSt5arrayIhLm400EEixEm = comdat any

$_ZNSt14__array_traitsIhLm400EE6_S_refERA400_Khm = comdat any

$_ZNSt14__array_traitsIcLm512EE6_S_refERA512_Kcm = comdat any

$_ZNSt14__array_traitsIcLm512EE6_S_ptrERA512_Kc = comdat any

$_ZN8nlohmann16json_abi_v3_11_36detail10type_errorC2EiPKc = comdat any

$_ZN8nlohmann16json_abi_v3_11_36detail10type_errorD0Ev = comdat any

$_ZN8nlohmann16json_abi_v3_11_36detail13concat_lengthIJNSt7__cxx1112basic_stringIcSt11char_traitsIcESaIcEEEA5_cS8_EEEmPKcDpRKT_ = comdat any

$_ZN8nlohmann16json_abi_v3_11_36detail11concat_intoINSt7__cxx1112basic_stringIcSt11char_traitsIcESaIcEEERA29_KcJS8_RA5_S9_S8_ETnNSt9enable_ifIXsr24detect_string_can_appendIT_T0_EE5valueEiE4typeELi0EEEvRSF_OSG_DpOT1_ = comdat any

$_ZN8nlohmann16json_abi_v3_11_36detail13concat_lengthINSt7__cxx1112basic_stringIcSt11char_traitsIcESaIcEEEJA5_cS8_EEEmRKT_DpRKT0_ = comdat any

$_ZN8nlohmann16json_abi_v3_11_36detail13concat_lengthIJNSt7__cxx1112basic_stringIcSt11char_traitsIcESaIcEEEEEEmPKcDpRKT_ = comdat any

$_ZN8nlohmann16json_abi_v3_11_36detail11concat_intoINSt7__cxx1112basic_stringIcSt11char_traitsIcESaIcEEES8_JRA5_KcS8_ETnNSt9enable_ifIXsr24detect_string_can_appendIT_T0_EE5valueEiE4typeELi0EEEvRSD_OSE_DpOT1_ = comdat any

$_ZN8nlohmann16json_abi_v3_11_36detail11concat_intoINSt7__cxx1112basic_stringIcSt11char_traitsIcESaIcEEERA5_KcJS8_ETnNSt9enable_ifIXsr24detect_string_can_appendIT_T0_EE5valueEiE4typeELi0EEEvRSD_OSE_DpOT1_ = comdat any

$_ZN8nlohmann16json_abi_v3_11_36detail11concat_intoINSt7__cxx1112basic_stringIcSt11char_traitsIcESaIcEEES8_JETnNSt9enable_ifIXsr24detect_string_can_appendIT_T0_EE5valueEiE4typeELi0EEEvRSA_OSB_DpOT1_ = comdat any

$_ZNSt8__detail14__to_chars_lenImEEjT_i = comdat any

$_ZNSt8__detail18__to_chars_10_implImEEvPcjT_ = comdat any

$_ZN8nlohmann16json_abi_v3_11_36detail11concat_intoINSt7__cxx1112basic_stringIcSt11char_traitsIcESaIcEEERA39_KcJS8_ETnNSt9enable_ifIXsr24detect_string_can_appendIT_T0_EE5valueEiE4typeELi0EEEvRSD_OSE_DpOT1_ = comdat any

$_ZN9__gnu_cxxeqIPKhSt6vectorIhSaIhEEEEbRKNS_17__normal_iteratorIT_T0_EESB_ = comdat any

$_ZNSt5arrayIcLm64EE5beginEv = comdat any

$_ZN8nlohmann16json_abi_v3_11_36detail10serializerINS0_10basic_jsonISt3mapSt6vectorNSt7__cxx1112basic_stringIcSt11char_traitsIcESaIcEEEblmdSaNS0_14adl_serializerES5_IhSaIhEEvEEE18is_negative_numberIhTnNSt9enable_ifIXsr3std11is_unsignedIT_EE5valueEiE4typeELi0EEEbSJ_ = comdat any

$_ZN8nlohmann16json_abi_v3_11_36detail10serializerINS0_10basic_jsonISt3mapSt6vectorNSt7__cxx1112basic_stringIcSt11char_traitsIcESaIcEEEblmdSaNS0_14adl_serializerES5_IhSaIhEEvEEE11remove_signEl = comdat any

$_ZN8nlohmann16json_abi_v3_11_36detail10serializerINS0_10basic_jsonISt3mapSt6vectorNSt7__cxx1112basic_stringIcSt11char_traitsIcESaIcEEEblmdSaNS0_14adl_serializerES5_IhSaIhEEvEEE12count_digitsEm = comdat any

$_ZNKSt5arrayIS_IcLm2EELm100EEixEm = comdat any

$_ZNKSt5arrayIcLm2EEixEm = comdat any

$_ZNSt5arrayIcLm64EE4dataEv = comdat any

$_ZNSt14__array_traitsISt5arrayIcLm2EELm100EE6_S_refERA100_KS1_m = comdat any

$_ZNSt14__array_traitsIcLm2EE6_S_refERA2_Kcm = comdat any

$_ZNSt14__array_traitsIcLm64EE6_S_ptrERA64_Kc = comdat any

$_ZNSt6vectorIhSaIhEE3endEv = comdat any

$_ZNK9__gnu_cxx17__normal_iteratorIPhSt6vectorIhSaIhEEEmiEl = comdat any

$_ZNK9__gnu_cxx17__normal_iteratorIPhSt6vectorIhSaIhEEEdeEv = comdat any

$_ZN9__gnu_cxx17__normal_iteratorIPhSt6vectorIhSaIhEEEC2ERKS1_ = comdat any

$_ZN8nlohmann16json_abi_v3_11_36detail10serializerINS0_10basic_jsonISt3mapSt6vectorNSt7__cxx1112basic_stringIcSt11char_traitsIcESaIcEEEblmdSaNS0_14adl_serializerES5_IhSaIhEEvEEE18is_negative_numberImTnNSt9enable_ifIXsr3std11is_unsignedIT_EE5valueEiE4typeELi0EEEbSJ_ = comdat any

$_ZN8nlohmann16json_abi_v3_11_36detail10serializerINS0_10basic_jsonISt3mapSt6vectorNSt7__cxx1112basic_stringIcSt11char_traitsIcESaIcEEEblmdSaNS0_14adl_serializerES5_IhSaIhEEvEEE18is_negative_numberIlTnNSt9enable_ifIXsr3std9is_signedIT_EE5valueEiE4typeELi0EEEbSJ_ = comdat any

$_ZSt8isfinited = comdat any

$_ZN8nlohmann16json_abi_v3_11_36detail10serializerINS0_10basic_jsonISt3mapSt6vectorNSt7__cxx1112basic_stringIcSt11char_traitsIcESaIcEEEblmdSaNS0_14adl_serializerES5_IhSaIhEEvEEE10dump_floatEdSt17integral_constantIbLb1EE = comdat any

$_ZN8nlohmann16json_abi_v3_11_36detail8to_charsIdEEPcS3_PKcT_ = comdat any

$_ZNKSt5arrayIcLm64EE4sizeEv = comdat any

$_ZSt7signbitd = comdat any

$_ZN8nlohmann16json_abi_v3_11_36detail9dtoa_impl6grisu2IdEEvPcRiS5_T_ = comdat any

$_ZN8nlohmann16json_abi_v3_11_36detail9dtoa_impl13format_bufferEPciiii = comdat any

$_ZN8nlohmann16json_abi_v3_11_36detail9dtoa_impl18compute_boundariesIdEENS2_10boundariesET_ = comdat any

$_ZN8nlohmann16json_abi_v3_11_36detail9dtoa_impl6grisu2EPcRiS4_NS2_5diyfpES5_S5_ = comdat any

$_ZN8nlohmann16json_abi_v3_11_36detail9dtoa_impl16reinterpret_bitsImdEET_T0_ = comdat any

$_ZN8nlohmann16json_abi_v3_11_36detail9dtoa_impl5diyfpC2Emi = comdat any

$_ZN8nlohmann16json_abi_v3_11_36detail9dtoa_impl5diyfp9normalizeES3_ = comdat any

$_ZN8nlohmann16json_abi_v3_11_36detail9dtoa_impl5diyfp12normalize_toERKS3_i = comdat any

$_ZN8nlohmann16json_abi_v3_11_36detail9dtoa_impl36get_cached_power_for_binary_exponentEi = comdat any

$_ZN8nlohmann16json_abi_v3_11_36detail9dtoa_impl5diyfp3mulERKS3_S5_ = comdat any

$_ZN8nlohmann16json_abi_v3_11_36detail9dtoa_impl16grisu2_digit_genEPcRiS4_NS2_5diyfpES5_S5_ = comdat any

$_ZNKSt5arrayIN8nlohmann16json_abi_v3_11_36detail9dtoa_impl12cached_powerELm79EEixEm = comdat any

$_ZNSt14__array_traitsIN8nlohmann16json_abi_v3_11_36detail9dtoa_impl12cached_powerELm79EE6_S_refERA79_KS4_m = comdat any

$_ZN8nlohmann16json_abi_v3_11_36detail9dtoa_impl5diyfp3subERKS3_S5_ = comdat any

$_ZN8nlohmann16json_abi_v3_11_36detail9dtoa_impl18find_largest_pow10EjRj = comdat any

$_ZN8nlohmann16json_abi_v3_11_36detail9dtoa_impl12grisu2_roundEPcimmmm = comdat any

$_ZN8nlohmann16json_abi_v3_11_36detail9dtoa_impl15append_exponentEPci = comdat any

$_ZSt6all_ofIPKN8nlohmann16json_abi_v3_11_36detail8json_refINS1_10basic_jsonISt3mapSt6vectorNSt7__cxx1112basic_stringIcSt11char_traitsIcESaIcEEEblmdSaNS1_14adl_serializerES6_IhSaIhEEvEEEEZNSG_C1ESt16initializer_listISH_EbNS2_7value_tEEUlRSI_E_EbT_SP_T0_ = comdat any

$_ZNKSt16initializer_listIN8nlohmann16json_abi_v3_11_36detail8json_refINS1_10basic_jsonISt3mapSt6vectorNSt7__cxx1112basic_stringIcSt11char_traitsIcESaIcEEEblmdSaNS1_14adl_serializerES6_IhSaIhEEvEEEEE5beginEv = comdat any

$_ZNKSt16initializer_listIN8nlohmann16json_abi_v3_11_36detail8json_refINS1_10basic_jsonISt3mapSt6vectorNSt7__cxx1112basic_stringIcSt11char_traitsIcESaIcEEEblmdSaNS1_14adl_serializerES6_IhSaIhEEvEEEEE3endEv = comdat any

$_ZNK8nlohmann16json_abi_v3_11_36detail8json_refINS0_10basic_jsonISt3mapSt6vectorNSt7__cxx1112basic_stringIcSt11char_traitsIcESaIcEEEblmdSaNS0_14adl_serializerES5_IhSaIhEEvEEE15moved_or_copiedEv = comdat any

$_ZNSt3mapINSt7__cxx1112basic_stringIcSt11char_traitsIcESaIcEEEN8nlohmann16json_abi_v3_11_310basic_jsonIS_St6vectorS5_blmdSaNS7_14adl_serializerES9_IhSaIhEEvEESt4lessIS5_ESaISt4pairIKS5_SD_EEE7emplaceIJS5_SD_EEESG_ISt17_Rb_tree_iteratorISI_EbEDpOT_ = comdat any

$_ZNSt6vectorIN8nlohmann16json_abi_v3_11_310basic_jsonISt3mapS_NSt7__cxx1112basic_stringIcSt11char_traitsIcESaIcEEEblmdSaNS1_14adl_serializerES_IhSaIhEEvEESaISD_EEixEm = comdat any

$_ZN8nlohmann16json_abi_v3_11_310basic_jsonISt3mapSt6vectorNSt7__cxx1112basic_stringIcSt11char_traitsIcESaIcEEEblmdSaNS0_14adl_serializerES3_IhSaIhEEvE6createIS3_ISD_SaISD_EEJPKNS0_6detail8json_refISD_EESL_EEEPT_DpOT0_ = comdat any

$_ZSt11find_if_notIPKN8nlohmann16json_abi_v3_11_36detail8json_refINS1_10basic_jsonISt3mapSt6vectorNSt7__cxx1112basic_stringIcSt11char_traitsIcESaIcEEEblmdSaNS1_14adl_serializerES6_IhSaIhEEvEEEEZNSG_C1ESt16initializer_listISH_EbNS2_7value_tEEUlRSI_E_ET_SP_SP_T0_ = comdat any

$_ZSt13__find_if_notIPKN8nlohmann16json_abi_v3_11_36detail8json_refINS1_10basic_jsonISt3mapSt6vectorNSt7__cxx1112basic_stringIcSt11char_traitsIcESaIcEEEblmdSaNS1_14adl_serializerES6_IhSaIhEEvEEEEN9__gnu_cxx5__ops10_Iter_predIZNSG_C1ESt16initializer_listISH_EbNS2_7value_tEEUlRSI_E_EEET_ST_ST_T0_ = comdat any

$_ZN9__gnu_cxx5__ops11__pred_iterIZN8nlohmann16json_abi_v3_11_310basic_jsonISt3mapSt6vectorNSt7__cxx1112basic_stringIcSt11char_traitsIcESaIcEEEblmdSaNS3_14adl_serializerES6_IhSaIhEEvEC1ESt16initializer_listINS3_6detail8json_refISG_EEEbNSI_7value_tEEUlRKSK_E_EENS0_10_Iter_predIT_EESR_ = comdat any

$_ZSt9__find_ifIPKN8nlohmann16json_abi_v3_11_36detail8json_refINS1_10basic_jsonISt3mapSt6vectorNSt7__cxx1112basic_stringIcSt11char_traitsIcESaIcEEEblmdSaNS1_14adl_serializerES6_IhSaIhEEvEEEEN9__gnu_cxx5__ops12_Iter_negateIZNSG_C1ESt16initializer_listISH_EbNS2_7value_tEEUlRSI_E_EEET_ST_ST_T0_St26random_access_iterator_tag = comdat any

$_ZN9__gnu_cxx5__ops8__negateIZN8nlohmann16json_abi_v3_11_310basic_jsonISt3mapSt6vectorNSt7__cxx1112basic_stringIcSt11char_traitsIcESaIcEEEblmdSaNS3_14adl_serializerES6_IhSaIhEEvEC1ESt16initializer_listINS3_6detail8json_refISG_EEEbNSI_7value_tEEUlRKSK_E_EENS0_12_Iter_negateIT_EENS0_10_Iter_predISR_EE = comdat any

$_ZSt19__iterator_categoryIPKN8nlohmann16json_abi_v3_11_36detail8json_refINS1_10basic_jsonISt3mapSt6vectorNSt7__cxx1112basic_stringIcSt11char_traitsIcESaIcEEEblmdSaNS1_14adl_serializerES6_IhSaIhEEvEEEEENSt15iterator_traitsIT_E17iterator_categoryERKSL_ = comdat any

$_ZN9__gnu_cxx5__ops12_Iter_negateIZN8nlohmann16json_abi_v3_11_310basic_jsonISt3mapSt6vectorNSt7__cxx1112basic_stringIcSt11char_traitsIcESaIcEEEblmdSaNS3_14adl_serializerES6_IhSaIhEEvEC1ESt16initializer_listINS3_6detail8json_refISG_EEEbNSI_7value_tEEUlRKSK_E_EclIPSN_EEbT_ = comdat any

$_ZZN8nlohmann16json_abi_v3_11_310basic_jsonISt3mapSt6vectorNSt7__cxx1112basic_stringIcSt11char_traitsIcESaIcEEEblmdSaNS0_14adl_serializerES3_IhSaIhEEvEC1ESt16initializer_listINS0_6detail8json_refISD_EEEbNSF_7value_tEENKUlRKSH_E_clESL_ = comdat any

$_ZNK8nlohmann16json_abi_v3_11_36detail8json_refINS0_10basic_jsonISt3mapSt6vectorNSt7__cxx1112basic_stringIcSt11char_traitsIcESaIcEEEblmdSaNS0_14adl_serializerES5_IhSaIhEEvEEEptEv = comdat any

$_ZNK8nlohmann16json_abi_v3_11_310basic_jsonISt3mapSt6vectorNSt7__cxx1112basic_stringIcSt11char_traitsIcESaIcEEEblmdSaNS0_14adl_serializerES3_IhSaIhEEvE4sizeEv = comdat any

$_ZNK8nlohmann16json_abi_v3_11_36detail8json_refINS0_10basic_jsonISt3mapSt6vectorNSt7__cxx1112basic_stringIcSt11char_traitsIcESaIcEEEblmdSaNS0_14adl_serializerES5_IhSaIhEEvEEEdeEv = comdat any

$_ZNK8nlohmann16json_abi_v3_11_310basic_jsonISt3mapSt6vectorNSt7__cxx1112basic_stringIcSt11char_traitsIcESaIcEEEblmdSaNS0_14adl_serializerES3_IhSaIhEEvEixEm = comdat any

$_ZNK8nlohmann16json_abi_v3_11_310basic_jsonISt3mapSt6vectorNSt7__cxx1112basic_stringIcSt11char_traitsIcESaIcEEEblmdSaNS0_14adl_serializerES3_IhSaIhEEvE9is_stringEv = comdat any

$_ZN8nlohmann16json_abi_v3_11_36detail10type_error6createIPKNS0_10basic_jsonISt3mapSt6vectorNSt7__cxx1112basic_stringIcSt11char_traitsIcESaIcEEEblmdSaNS0_14adl_serializerES6_IhSaIhEEvEETnNSt9enable_ifIXsr21is_basic_json_contextIT_EE5valueEiE4typeELi0EEES2_iRKSC_SK_ = comdat any

$_ZN8nlohmann16json_abi_v3_11_36detail6concatINSt7__cxx1112basic_stringIcSt11char_traitsIcESaIcEEEJRA52_KcPS9_EEET_DpOT0_ = comdat any

$_ZN8nlohmann16json_abi_v3_11_36detail13concat_lengthIJPKcEEEmS4_DpRKT_ = comdat any

$_ZN8nlohmann16json_abi_v3_11_36detail11concat_intoINSt7__cxx1112basic_stringIcSt11char_traitsIcESaIcEEERA52_KcJPS9_ETnNSt9enable_ifIXsr24detect_string_can_appendIT_T0_EE5valueEiE4typeELi0EEEvRSE_OSF_DpOT1_ = comdat any

$_ZN8nlohmann16json_abi_v3_11_36detail11concat_intoINSt7__cxx1112basic_stringIcSt11char_traitsIcESaIcEEEPKcJETnNSt9enable_ifIXsr24detect_string_can_appendIT_T0_EE5valueEiE4typeELi0EEEvRSC_OSD_DpOT1_ = comdat any

$_ZN9__gnu_cxx5__ops12_Iter_negateIZN8nlohmann16json_abi_v3_11_310basic_jsonISt3mapSt6vectorNSt7__cxx1112basic_stringIcSt11char_traitsIcESaIcEEEblmdSaNS3_14adl_serializerES6_IhSaIhEEvEC1ESt16initializer_listINS3_6detail8json_refISG_EEEbNSI_7value_tEEUlRKSK_E_EC2ESP_ = comdat any

$_ZN9__gnu_cxx5__ops10_Iter_predIZN8nlohmann16json_abi_v3_11_310basic_jsonISt3mapSt6vectorNSt7__cxx1112basic_stringIcSt11char_traitsIcESaIcEEEblmdSaNS3_14adl_serializerES6_IhSaIhEEvEC1ESt16initializer_listINS3_6detail8json_refISG_EEEbNSI_7value_tEEUlRKSK_E_EC2ESP_ = comdat any

$_ZNKSt16initializer_listIN8nlohmann16json_abi_v3_11_36detail8json_refINS1_10basic_jsonISt3mapSt6vectorNSt7__cxx1112basic_stringIcSt11char_traitsIcESaIcEEEblmdSaNS1_14adl_serializerES6_IhSaIhEEvEEEEE4sizeEv = comdat any

$_ZN8nlohmann16json_abi_v3_11_310basic_jsonISt3mapSt6vectorNSt7__cxx1112basic_stringIcSt11char_traitsIcESaIcEEEblmdSaNS0_14adl_serializerES3_IhSaIhEEvEC2ERKSD_ = comdat any

$_ZN8nlohmann16json_abi_v3_11_310basic_jsonISt3mapSt6vectorNSt7__cxx1112basic_stringIcSt11char_traitsIcESaIcEEEblmdSaNS0_14adl_serializerES3_IhSaIhEEvE10json_valueC2ERKS2_IS9_SD_St4lessIS9_ESaISt4pairIKS9_SD_EEE = comdat any

$_ZN8nlohmann16json_abi_v3_11_310basic_jsonISt3mapSt6vectorNSt7__cxx1112basic_stringIcSt11char_traitsIcESaIcEEEblmdSaNS0_14adl_serializerES3_IhSaIhEEvE10json_valueC2ERKS3_ISD_SaISD_EE = comdat any

$_ZN8nlohmann16json_abi_v3_11_310basic_jsonISt3mapSt6vectorNSt7__cxx1112basic_stringIcSt11char_traitsIcESaIcEEEblmdSaNS0_14adl_serializerES3_IhSaIhEEvE10json_valueC2ERKS9_ = comdat any

$_ZN8nlohmann16json_abi_v3_11_310basic_jsonISt3mapSt6vectorNSt7__cxx1112basic_stringIcSt11char_traitsIcESaIcEEEblmdSaNS0_14adl_serializerES3_IhSaIhEEvE10json_valueC2Eb = comdat any

$_ZN8nlohmann16json_abi_v3_11_310basic_jsonISt3mapSt6vectorNSt7__cxx1112basic_stringIcSt11char_traitsIcESaIcEEEblmdSaNS0_14adl_serializerES3_IhSaIhEEvE10json_valueC2Em = comdat any

$_ZN8nlohmann16json_abi_v3_11_310basic_jsonISt3mapSt6vectorNSt7__cxx1112basic_stringIcSt11char_traitsIcESaIcEEEblmdSaNS0_14adl_serializerES3_IhSaIhEEvE10json_valueC2Ed = comdat any

$_ZN8nlohmann16json_abi_v3_11_310basic_jsonISt3mapSt6vectorNSt7__cxx1112basic_stringIcSt11char_traitsIcESaIcEEEblmdSaNS0_14adl_serializerES3_IhSaIhEEvE10json_valueC2ERKNS0_27byte_container_with_subtypeISC_EE = comdat any

$_ZN8nlohmann16json_abi_v3_11_310basic_jsonISt3mapSt6vectorNSt7__cxx1112basic_stringIcSt11char_traitsIcESaIcEEEblmdSaNS0_14adl_serializerES3_IhSaIhEEvE6createIS2_IS9_SD_St4lessIS9_ESaISt4pairIKS9_SD_EEEJRKSL_EEEPT_DpOT0_ = comdat any

$_ZNSt10unique_ptrISt3mapINSt7__cxx1112basic_stringIcSt11char_traitsIcESaIcEEEN8nlohmann16json_abi_v3_11_310basic_jsonIS0_St6vectorS6_blmdSaNS8_14adl_serializerESA_IhSaIhEEvEESt4lessIS6_ESaISt4pairIKS6_SE_EEEZNSE_6createISL_JRKSL_EEEPT_DpOT0_EUlPSL_E_EC2ISV_vEESU_RKSV_ = comdat any

$_ZNSt16allocator_traitsISaISt3mapINSt7__cxx1112basic_stringIcSt11char_traitsIcESaIcEEEN8nlohmann16json_abi_v3_11_310basic_jsonIS0_St6vectorS6_blmdSaNS8_14adl_serializerESA_IhSaIhEEvEESt4lessIS6_ESaISt4pairIKS6_SE_EEEEE9constructISL_JRKSL_EEEvRSM_PT_DpOT0_ = comdat any

$_ZNKSt10unique_ptrISt3mapINSt7__cxx1112basic_stringIcSt11char_traitsIcESaIcEEEN8nlohmann16json_abi_v3_11_310basic_jsonIS0_St6vectorS6_blmdSaNS8_14adl_serializerESA_IhSaIhEEvEESt4lessIS6_ESaISt4pairIKS6_SE_EEEZNSE_6createISL_JRKSL_EEEPT_DpOT0_EUlPSL_E_E3getEv = comdat any

$_ZNSt10unique_ptrISt3mapINSt7__cxx1112basic_stringIcSt11char_traitsIcESaIcEEEN8nlohmann16json_abi_v3_11_310basic_jsonIS0_St6vectorS6_blmdSaNS8_14adl_serializerESA_IhSaIhEEvEESt4lessIS6_ESaISt4pairIKS6_SE_EEEZNSE_6createISL_JRKSL_EEEPT_DpOT0_EUlPSL_E_E7releaseEv = comdat any

$_ZNSt10unique_ptrISt3mapINSt7__cxx1112basic_stringIcSt11char_traitsIcESaIcEEEN8nlohmann16json_abi_v3_11_310basic_jsonIS0_St6vectorS6_blmdSaNS8_14adl_serializerESA_IhSaIhEEvEESt4lessIS6_ESaISt4pairIKS6_SE_EEEZNSE_6createISL_JRKSL_EEEPT_DpOT0_EUlPSL_E_ED2Ev = comdat any

$_ZNSt15__uniq_ptr_dataISt3mapINSt7__cxx1112basic_stringIcSt11char_traitsIcESaIcEEEN8nlohmann16json_abi_v3_11_310basic_jsonIS0_St6vectorS6_blmdSaNS8_14adl_serializerESA_IhSaIhEEvEESt4lessIS6_ESaISt4pairIKS6_SE_EEEZNSE_6createISL_JRKSL_EEEPT_DpOT0_EUlPSL_E_Lb1ELb0EECI2St15__uniq_ptr_implISL_SV_EIRKSV_EESU_OSP_ = comdat any

$_ZNSt15__uniq_ptr_implISt3mapINSt7__cxx1112basic_stringIcSt11char_traitsIcESaIcEEEN8nlohmann16json_abi_v3_11_310basic_jsonIS0_St6vectorS6_blmdSaNS8_14adl_serializerESA_IhSaIhEEvEESt4lessIS6_ESaISt4pairIKS6_SE_EEEZNSE_6createISL_JRKSL_EEEPT_DpOT0_EUlPSL_E_EC2IRKSV_EESU_OSP_ = comdat any

$_ZNSt5tupleIJPSt3mapINSt7__cxx1112basic_stringIcSt11char_traitsIcESaIcEEEN8nlohmann16json_abi_v3_11_310basic_jsonIS0_St6vectorS6_blmdSaNS8_14adl_serializerESA_IhSaIhEEvEESt4lessIS6_ESaISt4pairIKS6_SE_EEEZNSE_6createISL_JRKSL_EEEPT_DpOT0_EUlSM_E_EEC2IRSM_RKSV_TnNSt9enable_ifIXclsr4_TCCIXntcl14__is_alloc_argISQ_EEEEE29__is_implicitly_constructibleISQ_T0_EEEbE4typeELb1EEEOSQ_OS12_ = comdat any

$_ZNSt11_Tuple_implILm0EJPSt3mapINSt7__cxx1112basic_stringIcSt11char_traitsIcESaIcEEEN8nlohmann16json_abi_v3_11_310basic_jsonIS0_St6vectorS6_blmdSaNS8_14adl_serializerESA_IhSaIhEEvEESt4lessIS6_ESaISt4pairIKS6_SE_EEEZNSE_6createISL_JRKSL_EEEPT_DpOT0_EUlSM_E_EEC2IRSM_JRKSV_EvEEOSQ_SU_ = comdat any

$_ZNSt11_Tuple_implILm1EJZN8nlohmann16json_abi_v3_11_310basic_jsonISt3mapSt6vectorNSt7__cxx1112basic_stringIcSt11char_traitsIcESaIcEEEblmdSaNS1_14adl_serializerES4_IhSaIhEEvE6createIS3_ISA_SE_St4lessISA_ESaISt4pairIKSA_SE_EEEJRKSM_EEEPT_DpOT0_EUlPSM_E_EEC2ERKSV_ = comdat any

$_ZNSt10_Head_baseILm1EZN8nlohmann16json_abi_v3_11_310basic_jsonISt3mapSt6vectorNSt7__cxx1112basic_stringIcSt11char_traitsIcESaIcEEEblmdSaNS1_14adl_serializerES4_IhSaIhEEvE6createIS3_ISA_SE_St4lessISA_ESaISt4pairIKSA_SE_EEEJRKSM_EEEPT_DpOT0_EUlPSM_E_Lb0EEC2ERKSV_ = comdat any

$_ZNSt15__new_allocatorISt3mapINSt7__cxx1112basic_stringIcSt11char_traitsIcESaIcEEEN8nlohmann16json_abi_v3_11_310basic_jsonIS0_St6vectorS6_blmdSaNS8_14adl_serializerESA_IhSaIhEEvEESt4lessIS6_ESaISt4pairIKS6_SE_EEEE9constructISL_JRKSL_EEEvPT_DpOT0_ = comdat any

$_ZNSt3mapINSt7__cxx1112basic_stringIcSt11char_traitsIcESaIcEEEN8nlohmann16json_abi_v3_11_310basic_jsonIS_St6vectorS5_blmdSaNS7_14adl_serializerES9_IhSaIhEEvEESt4lessIS5_ESaISt4pairIKS5_SD_EEEC2ERKSK_ = comdat any

$_ZNSt8_Rb_treeINSt7__cxx1112basic_stringIcSt11char_traitsIcESaIcEEESt4pairIKS5_N8nlohmann16json_abi_v3_11_310basic_jsonISt3mapSt6vectorS5_blmdSaNS9_14adl_serializerESC_IhSaIhEEvEEESt10_Select1stISH_ESt4lessIS5_ESaISH_EEC2ERKSN_ = comdat any

$_ZNSt8_Rb_treeINSt7__cxx1112basic_stringIcSt11char_traitsIcESaIcEEESt4pairIKS5_N8nlohmann16json_abi_v3_11_310basic_jsonISt3mapSt6vectorS5_blmdSaNS9_14adl_serializerESC_IhSaIhEEvEEESt10_Select1stISH_ESt4lessIS5_ESaISH_EE13_Rb_tree_implISL_Lb1EEC2ERKSP_ = comdat any

$_ZNKSt8_Rb_treeINSt7__cxx1112basic_stringIcSt11char_traitsIcESaIcEEESt4pairIKS5_N8nlohmann16json_abi_v3_11_310basic_jsonISt3mapSt6vectorS5_blmdSaNS9_14adl_serializerESC_IhSaIhEEvEEESt10_Select1stISH_ESt4lessIS5_ESaISH_EE7_M_rootEv = comdat any

$_ZNSt8_Rb_treeINSt7__cxx1112basic_stringIcSt11char_traitsIcESaIcEEESt4pairIKS5_N8nlohmann16json_abi_v3_11_310basic_jsonISt3mapSt6vectorS5_blmdSaNS9_14adl_serializerESC_IhSaIhEEvEEESt10_Select1stISH_ESt4lessIS5_ESaISH_EE7_M_copyERKSN_ = comdat any

$_ZNSt8_Rb_treeINSt7__cxx1112basic_stringIcSt11char_traitsIcESaIcEEESt4pairIKS5_N8nlohmann16json_abi_v3_11_310basic_jsonISt3mapSt6vectorS5_blmdSaNS9_14adl_serializerESC_IhSaIhEEvEEESt10_Select1stISH_ESt4lessIS5_ESaISH_EE7_M_rootEv = comdat any

$_ZN9__gnu_cxx14__alloc_traitsISaISt13_Rb_tree_nodeISt4pairIKNSt7__cxx1112basic_stringIcSt11char_traitsIcESaIcEEEN8nlohmann16json_abi_v3_11_310basic_jsonISt3mapSt6vectorS8_blmdSaNSB_14adl_serializerESE_IhSaIhEEvEEEEESK_E17_S_select_on_copyERKSL_ = comdat any

$_ZNSaISt13_Rb_tree_nodeISt4pairIKNSt7__cxx1112basic_stringIcSt11char_traitsIcESaIcEEEN8nlohmann16json_abi_v3_11_310basic_jsonISt3mapSt6vectorS6_blmdSaNS9_14adl_serializerESC_IhSaIhEEvEEEEED2Ev = comdat any

$_ZNSt20_Rb_tree_key_compareISt4lessINSt7__cxx1112basic_stringIcSt11char_traitsIcESaIcEEEEEC2ERKS7_ = comdat any

$_ZNSt16allocator_traitsISaISt13_Rb_tree_nodeISt4pairIKNSt7__cxx1112basic_stringIcSt11char_traitsIcESaIcEEEN8nlohmann16json_abi_v3_11_310basic_jsonISt3mapSt6vectorS7_blmdSaNSA_14adl_serializerESD_IhSaIhEEvEEEEEE37select_on_container_copy_constructionERKSK_ = comdat any

$_ZNSaISt13_Rb_tree_nodeISt4pairIKNSt7__cxx1112basic_stringIcSt11char_traitsIcESaIcEEEN8nlohmann16json_abi_v3_11_310basic_jsonISt3mapSt6vectorS6_blmdSaNS9_14adl_serializerESC_IhSaIhEEvEEEEEC2ERKSJ_ = comdat any

$_ZNSt15__new_allocatorISt13_Rb_tree_nodeISt4pairIKNSt7__cxx1112basic_stringIcSt11char_traitsIcESaIcEEEN8nlohmann16json_abi_v3_11_310basic_jsonISt3mapSt6vectorS7_blmdSaNSA_14adl_serializerESD_IhSaIhEEvEEEEEC2ERKSK_ = comdat any

$_ZNSt8_Rb_treeINSt7__cxx1112basic_stringIcSt11char_traitsIcESaIcEEESt4pairIKS5_N8nlohmann16json_abi_v3_11_310basic_jsonISt3mapSt6vectorS5_blmdSaNS9_14adl_serializerESC_IhSaIhEEvEEESt10_Select1stISH_ESt4lessIS5_ESaISH_EE11_Alloc_nodeC2ERSN_ = comdat any

$_ZNSt8_Rb_treeINSt7__cxx1112basic_stringIcSt11char_traitsIcESaIcEEESt4pairIKS5_N8nlohmann16json_abi_v3_11_310basic_jsonISt3mapSt6vectorS5_blmdSaNS9_14adl_serializerESC_IhSaIhEEvEEESt10_Select1stISH_ESt4lessIS5_ESaISH_EE7_M_copyILb0ENSN_11_Alloc_nodeEEEPSt13_Rb_tree_nodeISH_ERKSN_RT0_ = comdat any

$_ZNSt8_Rb_treeINSt7__cxx1112basic_stringIcSt11char_traitsIcESaIcEEESt4pairIKS5_N8nlohmann16json_abi_v3_11_310basic_jsonISt3mapSt6vectorS5_blmdSaNS9_14adl_serializerESC_IhSaIhEEvEEESt10_Select1stISH_ESt4lessIS5_ESaISH_EE7_M_copyILb0ENSN_11_Alloc_nodeEEEPSt13_Rb_tree_nodeISH_ESS_PSt18_Rb_tree_node_baseRT0_ = comdat any

$_ZNSt8_Rb_treeINSt7__cxx1112basic_stringIcSt11char_traitsIcESaIcEEESt4pairIKS5_N8nlohmann16json_abi_v3_11_310basic_jsonISt3mapSt6vectorS5_blmdSaNS9_14adl_serializerESC_IhSaIhEEvEEESt10_Select1stISH_ESt4lessIS5_ESaISH_EE6_M_endEv = comdat any

$_ZNSt8_Rb_treeINSt7__cxx1112basic_stringIcSt11char_traitsIcESaIcEEESt4pairIKS5_N8nlohmann16json_abi_v3_11_310basic_jsonISt3mapSt6vectorS5_blmdSaNS9_14adl_serializerESC_IhSaIhEEvEEESt10_Select1stISH_ESt4lessIS5_ESaISH_EE10_S_minimumEPSt18_Rb_tree_node_base = comdat any

$_ZNSt8_Rb_treeINSt7__cxx1112basic_stringIcSt11char_traitsIcESaIcEEESt4pairIKS5_N8nlohmann16json_abi_v3_11_310basic_jsonISt3mapSt6vectorS5_blmdSaNS9_14adl_serializerESC_IhSaIhEEvEEESt10_Select1stISH_ESt4lessIS5_ESaISH_EE11_M_leftmostEv = comdat any

$_ZNSt8_Rb_treeINSt7__cxx1112basic_stringIcSt11char_traitsIcESaIcEEESt4pairIKS5_N8nlohmann16json_abi_v3_11_310basic_jsonISt3mapSt6vectorS5_blmdSaNS9_14adl_serializerESC_IhSaIhEEvEEESt10_Select1stISH_ESt4lessIS5_ESaISH_EE10_S_maximumEPSt18_Rb_tree_node_base = comdat any

$_ZNSt8_Rb_treeINSt7__cxx1112basic_stringIcSt11char_traitsIcESaIcEEESt4pairIKS5_N8nlohmann16json_abi_v3_11_310basic_jsonISt3mapSt6vectorS5_blmdSaNS9_14adl_serializerESC_IhSaIhEEvEEESt10_Select1stISH_ESt4lessIS5_ESaISH_EE12_M_rightmostEv = comdat any

$_ZNSt8_Rb_treeINSt7__cxx1112basic_stringIcSt11char_traitsIcESaIcEEESt4pairIKS5_N8nlohmann16json_abi_v3_11_310basic_jsonISt3mapSt6vectorS5_blmdSaNS9_14adl_serializerESC_IhSaIhEEvEEESt10_Select1stISH_ESt4lessIS5_ESaISH_EE13_M_clone_nodeILb0ENSN_11_Alloc_nodeEEEPSt13_Rb_tree_nodeISH_ESS_RT0_ = comdat any

$_ZNKSt8_Rb_treeINSt7__cxx1112basic_stringIcSt11char_traitsIcESaIcEEESt4pairIKS5_N8nlohmann16json_abi_v3_11_310basic_jsonISt3mapSt6vectorS5_blmdSaNS9_14adl_serializerESC_IhSaIhEEvEEESt10_Select1stISH_ESt4lessIS5_ESaISH_EE11_Alloc_nodeclIRKSH_EEPSt13_Rb_tree_nodeISH_EOT_ = comdat any

$_ZNSt8_Rb_treeINSt7__cxx1112basic_stringIcSt11char_traitsIcESaIcEEESt4pairIKS5_N8nlohmann16json_abi_v3_11_310basic_jsonISt3mapSt6vectorS5_blmdSaNS9_14adl_serializerESC_IhSaIhEEvEEESt10_Select1stISH_ESt4lessIS5_ESaISH_EE14_M_create_nodeIJRKSH_EEEPSt13_Rb_tree_nodeISH_EDpOT_ = comdat any

$_ZNSt8_Rb_treeINSt7__cxx1112basic_stringIcSt11char_traitsIcESaIcEEESt4pairIKS5_N8nlohmann16json_abi_v3_11_310basic_jsonISt3mapSt6vectorS5_blmdSaNS9_14adl_serializerESC_IhSaIhEEvEEESt10_Select1stISH_ESt4lessIS5_ESaISH_EE11_M_get_nodeEv = comdat any

$_ZNSt8_Rb_treeINSt7__cxx1112basic_stringIcSt11char_traitsIcESaIcEEESt4pairIKS5_N8nlohmann16json_abi_v3_11_310basic_jsonISt3mapSt6vectorS5_blmdSaNS9_14adl_serializerESC_IhSaIhEEvEEESt10_Select1stISH_ESt4lessIS5_ESaISH_EE17_M_construct_nodeIJRKSH_EEEvPSt13_Rb_tree_nodeISH_EDpOT_ = comdat any

$_ZNSt16allocator_traitsISaISt13_Rb_tree_nodeISt4pairIKNSt7__cxx1112basic_stringIcSt11char_traitsIcESaIcEEEN8nlohmann16json_abi_v3_11_310basic_jsonISt3mapSt6vectorS7_blmdSaNSA_14adl_serializerESD_IhSaIhEEvEEEEEE8allocateERSK_m = comdat any

$_ZNSt15__new_allocatorISt13_Rb_tree_nodeISt4pairIKNSt7__cxx1112basic_stringIcSt11char_traitsIcESaIcEEEN8nlohmann16json_abi_v3_11_310basic_jsonISt3mapSt6vectorS7_blmdSaNSA_14adl_serializerESD_IhSaIhEEvEEEEE8allocateEmPKv = comdat any

$_ZNKSt15__new_allocatorISt13_Rb_tree_nodeISt4pairIKNSt7__cxx1112basic_stringIcSt11char_traitsIcESaIcEEEN8nlohmann16json_abi_v3_11_310basic_jsonISt3mapSt6vectorS7_blmdSaNSA_14adl_serializerESD_IhSaIhEEvEEEEE11_M_max_sizeEv = comdat any

$_ZNSt16allocator_traitsISaISt13_Rb_tree_nodeISt4pairIKNSt7__cxx1112basic_stringIcSt11char_traitsIcESaIcEEEN8nlohmann16json_abi_v3_11_310basic_jsonISt3mapSt6vectorS7_blmdSaNSA_14adl_serializerESD_IhSaIhEEvEEEEEE9constructISI_JRKSI_EEEvRSK_PT_DpOT0_ = comdat any

$_ZNSt15__new_allocatorISt13_Rb_tree_nodeISt4pairIKNSt7__cxx1112basic_stringIcSt11char_traitsIcESaIcEEEN8nlohmann16json_abi_v3_11_310basic_jsonISt3mapSt6vectorS7_blmdSaNSA_14adl_serializerESD_IhSaIhEEvEEEEE9constructISI_JRKSI_EEEvPT_DpOT0_ = comdat any

$_ZNSt4pairIKNSt7__cxx1112basic_stringIcSt11char_traitsIcESaIcEEEN8nlohmann16json_abi_v3_11_310basic_jsonISt3mapSt6vectorS5_blmdSaNS8_14adl_serializerESB_IhSaIhEEvEEEC2ERKSG_ = comdat any

$_ZNSt18_Rb_tree_node_base10_S_minimumEPS_ = comdat any

$_ZNSt18_Rb_tree_node_base10_S_maximumEPS_ = comdat any

$_ZNKSt15__uniq_ptr_implISt3mapINSt7__cxx1112basic_stringIcSt11char_traitsIcESaIcEEEN8nlohmann16json_abi_v3_11_310basic_jsonIS0_St6vectorS6_blmdSaNS8_14adl_serializerESA_IhSaIhEEvEESt4lessIS6_ESaISt4pairIKS6_SE_EEEZNSE_6createISL_JRKSL_EEEPT_DpOT0_EUlPSL_E_E6_M_ptrEv = comdat any

$_ZSt3getILm0EJPSt3mapINSt7__cxx1112basic_stringIcSt11char_traitsIcESaIcEEEN8nlohmann16json_abi_v3_11_310basic_jsonIS0_St6vectorS6_blmdSaNS8_14adl_serializerESA_IhSaIhEEvEESt4lessIS6_ESaISt4pairIKS6_SE_EEEZNSE_6createISL_JRKSL_EEEPT_DpOT0_EUlSM_E_EERKNSt13tuple_elementIXT_ESt5tupleIJDpSS_EEE4typeERKSZ_ = comdat any

$_ZSt12__get_helperILm0EPSt3mapINSt7__cxx1112basic_stringIcSt11char_traitsIcESaIcEEEN8nlohmann16json_abi_v3_11_310basic_jsonIS0_St6vectorS6_blmdSaNS8_14adl_serializerESA_IhSaIhEEvEESt4lessIS6_ESaISt4pairIKS6_SE_EEEJZNSE_6createISL_JRKSL_EEEPT_DpOT0_EUlSM_E_EERKT0_RKSt11_Tuple_implIXT_EJSW_DpT1_EE = comdat any

$_ZNSt11_Tuple_implILm0EJPSt3mapINSt7__cxx1112basic_stringIcSt11char_traitsIcESaIcEEEN8nlohmann16json_abi_v3_11_310basic_jsonIS0_St6vectorS6_blmdSaNS8_14adl_serializerESA_IhSaIhEEvEESt4lessIS6_ESaISt4pairIKS6_SE_EEEZNSE_6createISL_JRKSL_EEEPT_DpOT0_EUlSM_E_EE7_M_headERKSW_ = comdat any

$_ZNSt15__uniq_ptr_implISt3mapINSt7__cxx1112basic_stringIcSt11char_traitsIcESaIcEEEN8nlohmann16json_abi_v3_11_310basic_jsonIS0_St6vectorS6_blmdSaNS8_14adl_serializerESA_IhSaIhEEvEESt4lessIS6_ESaISt4pairIKS6_SE_EEEZNSE_6createISL_JRKSL_EEEPT_DpOT0_EUlPSL_E_E7releaseEv = comdat any

$_ZNSt15__uniq_ptr_implISt3mapINSt7__cxx1112basic_stringIcSt11char_traitsIcESaIcEEEN8nlohmann16json_abi_v3_11_310basic_jsonIS0_St6vectorS6_blmdSaNS8_14adl_serializerESA_IhSaIhEEvEESt4lessIS6_ESaISt4pairIKS6_SE_EEEZNSE_6createISL_JRKSL_EEEPT_DpOT0_EUlPSL_E_E6_M_ptrEv = comdat any

$_ZSt3getILm0EJPSt3mapINSt7__cxx1112basic_stringIcSt11char_traitsIcESaIcEEEN8nlohmann16json_abi_v3_11_310basic_jsonIS0_St6vectorS6_blmdSaNS8_14adl_serializerESA_IhSaIhEEvEESt4lessIS6_ESaISt4pairIKS6_SE_EEEZNSE_6createISL_JRKSL_EEEPT_DpOT0_EUlSM_E_EERNSt13tuple_elementIXT_ESt5tupleIJDpSS_EEE4typeERSZ_ = comdat any

$_ZSt12__get_helperILm0EPSt3mapINSt7__cxx1112basic_stringIcSt11char_traitsIcESaIcEEEN8nlohmann16json_abi_v3_11_310basic_jsonIS0_St6vectorS6_blmdSaNS8_14adl_serializerESA_IhSaIhEEvEESt4lessIS6_ESaISt4pairIKS6_SE_EEEJZNSE_6createISL_JRKSL_EEEPT_DpOT0_EUlSM_E_EERT0_RSt11_Tuple_implIXT_EJSW_DpT1_EE = comdat any

$_ZNSt11_Tuple_implILm0EJPSt3mapINSt7__cxx1112basic_stringIcSt11char_traitsIcESaIcEEEN8nlohmann16json_abi_v3_11_310basic_jsonIS0_St6vectorS6_blmdSaNS8_14adl_serializerESA_IhSaIhEEvEESt4lessIS6_ESaISt4pairIKS6_SE_EEEZNSE_6createISL_JRKSL_EEEPT_DpOT0_EUlSM_E_EE7_M_headERSW_ = comdat any

$_ZNSt10unique_ptrISt3mapINSt7__cxx1112basic_stringIcSt11char_traitsIcESaIcEEEN8nlohmann16json_abi_v3_11_310basic_jsonIS0_St6vectorS6_blmdSaNS8_14adl_serializerESA_IhSaIhEEvEESt4lessIS6_ESaISt4pairIKS6_SE_EEEZNSE_6createISL_JRKSL_EEEPT_DpOT0_EUlPSL_E_E11get_deleterEv = comdat any

$_ZZN8nlohmann16json_abi_v3_11_310basic_jsonISt3mapSt6vectorNSt7__cxx1112basic_stringIcSt11char_traitsIcESaIcEEEblmdSaNS0_14adl_serializerES3_IhSaIhEEvE6createIS2_IS9_SD_St4lessIS9_ESaISt4pairIKS9_SD_EEEJRKSL_EEEPT_DpOT0_ENKUlPSL_E_clEST_ = comdat any

$_ZNSt15__uniq_ptr_implISt3mapINSt7__cxx1112basic_stringIcSt11char_traitsIcESaIcEEEN8nlohmann16json_abi_v3_11_310basic_jsonIS0_St6vectorS6_blmdSaNS8_14adl_serializerESA_IhSaIhEEvEESt4lessIS6_ESaISt4pairIKS6_SE_EEEZNSE_6createISL_JRKSL_EEEPT_DpOT0_EUlPSL_E_E10_M_deleterEv = comdat any

$_ZSt3getILm1EJPSt3mapINSt7__cxx1112basic_stringIcSt11char_traitsIcESaIcEEEN8nlohmann16json_abi_v3_11_310basic_jsonIS0_St6vectorS6_blmdSaNS8_14adl_serializerESA_IhSaIhEEvEESt4lessIS6_ESaISt4pairIKS6_SE_EEEZNSE_6createISL_JRKSL_EEEPT_DpOT0_EUlSM_E_EERNSt13tuple_elementIXT_ESt5tupleIJDpSS_EEE4typeERSZ_ = comdat any

$_ZSt12__get_helperILm1EZN8nlohmann16json_abi_v3_11_310basic_jsonISt3mapSt6vectorNSt7__cxx1112basic_stringIcSt11char_traitsIcESaIcEEEblmdSaNS1_14adl_serializerES4_IhSaIhEEvE6createIS3_ISA_SE_St4lessISA_ESaISt4pairIKSA_SE_EEEJRKSM_EEEPT_DpOT0_EUlPSM_E_JEERT0_RSt11_Tuple_implIXT_EJSW_DpT1_EE = comdat any

$_ZNSt11_Tuple_implILm1EJZN8nlohmann16json_abi_v3_11_310basic_jsonISt3mapSt6vectorNSt7__cxx1112basic_stringIcSt11char_traitsIcESaIcEEEblmdSaNS1_14adl_serializerES4_IhSaIhEEvE6createIS3_ISA_SE_St4lessISA_ESaISt4pairIKSA_SE_EEEJRKSM_EEEPT_DpOT0_EUlPSM_E_EE7_M_headERSW_ = comdat any

$_ZNSt10_Head_baseILm1EZN8nlohmann16json_abi_v3_11_310basic_jsonISt3mapSt6vectorNSt7__cxx1112basic_stringIcSt11char_traitsIcESaIcEEEblmdSaNS1_14adl_serializerES4_IhSaIhEEvE6createIS3_ISA_SE_St4lessISA_ESaISt4pairIKSA_SE_EEEJRKSM_EEEPT_DpOT0_EUlPSM_E_Lb0EE7_M_headERSW_ = comdat any

$_ZN8nlohmann16json_abi_v3_11_310basic_jsonISt3mapSt6vectorNSt7__cxx1112basic_stringIcSt11char_traitsIcESaIcEEEblmdSaNS0_14adl_serializerES3_IhSaIhEEvE6createIS3_ISD_SaISD_EEJRKSG_EEEPT_DpOT0_ = comdat any

$_ZNSt10unique_ptrISt6vectorIN8nlohmann16json_abi_v3_11_310basic_jsonISt3mapS0_NSt7__cxx1112basic_stringIcSt11char_traitsIcESaIcEEEblmdSaNS2_14adl_serializerES0_IhSaIhEEvEESaISE_EEZNSE_6createISG_JRKSG_EEEPT_DpOT0_EUlPSG_E_EC2ISQ_vEESP_RKSQ_ = comdat any

$_ZNSt16allocator_traitsISaISt6vectorIN8nlohmann16json_abi_v3_11_310basic_jsonISt3mapS0_NSt7__cxx1112basic_stringIcSt11char_traitsIcESaIcEEEblmdSaNS2_14adl_serializerES0_IhSaIhEEvEESaISE_EEEE9constructISG_JRKSG_EEEvRSH_PT_DpOT0_ = comdat any

$_ZNKSt10unique_ptrISt6vectorIN8nlohmann16json_abi_v3_11_310basic_jsonISt3mapS0_NSt7__cxx1112basic_stringIcSt11char_traitsIcESaIcEEEblmdSaNS2_14adl_serializerES0_IhSaIhEEvEESaISE_EEZNSE_6createISG_JRKSG_EEEPT_DpOT0_EUlPSG_E_E3getEv = comdat any

$_ZNSt10unique_ptrISt6vectorIN8nlohmann16json_abi_v3_11_310basic_jsonISt3mapS0_NSt7__cxx1112basic_stringIcSt11char_traitsIcESaIcEEEblmdSaNS2_14adl_serializerES0_IhSaIhEEvEESaISE_EEZNSE_6createISG_JRKSG_EEEPT_DpOT0_EUlPSG_E_E7releaseEv = comdat any

$_ZNSt10unique_ptrISt6vectorIN8nlohmann16json_abi_v3_11_310basic_jsonISt3mapS0_NSt7__cxx1112basic_stringIcSt11char_traitsIcESaIcEEEblmdSaNS2_14adl_serializerES0_IhSaIhEEvEESaISE_EEZNSE_6createISG_JRKSG_EEEPT_DpOT0_EUlPSG_E_ED2Ev = comdat any

$_ZNSt15__uniq_ptr_dataISt6vectorIN8nlohmann16json_abi_v3_11_310basic_jsonISt3mapS0_NSt7__cxx1112basic_stringIcSt11char_traitsIcESaIcEEEblmdSaNS2_14adl_serializerES0_IhSaIhEEvEESaISE_EEZNSE_6createISG_JRKSG_EEEPT_DpOT0_EUlPSG_E_Lb1ELb0EECI2St15__uniq_ptr_implISG_SQ_EIRKSQ_EESP_OSK_ = comdat any

$_ZNSt15__uniq_ptr_implISt6vectorIN8nlohmann16json_abi_v3_11_310basic_jsonISt3mapS0_NSt7__cxx1112basic_stringIcSt11char_traitsIcESaIcEEEblmdSaNS2_14adl_serializerES0_IhSaIhEEvEESaISE_EEZNSE_6createISG_JRKSG_EEEPT_DpOT0_EUlPSG_E_EC2IRKSQ_EESP_OSK_ = comdat any

$_ZNSt5tupleIJPSt6vectorIN8nlohmann16json_abi_v3_11_310basic_jsonISt3mapS0_NSt7__cxx1112basic_stringIcSt11char_traitsIcESaIcEEEblmdSaNS2_14adl_serializerES0_IhSaIhEEvEESaISE_EEZNSE_6createISG_JRKSG_EEEPT_DpOT0_EUlSH_E_EEC2IRSH_RKSQ_TnNSt9enable_ifIXclsr4_TCCIXntcl14__is_alloc_argISL_EEEEE29__is_implicitly_constructibleISL_T0_EEEbE4typeELb1EEEOSL_OSX_ = comdat any

$_ZNSt11_Tuple_implILm0EJPSt6vectorIN8nlohmann16json_abi_v3_11_310basic_jsonISt3mapS0_NSt7__cxx1112basic_stringIcSt11char_traitsIcESaIcEEEblmdSaNS2_14adl_serializerES0_IhSaIhEEvEESaISE_EEZNSE_6createISG_JRKSG_EEEPT_DpOT0_EUlSH_E_EEC2IRSH_JRKSQ_EvEEOSL_SP_ = comdat any

$_ZNSt11_Tuple_implILm1EJZN8nlohmann16json_abi_v3_11_310basic_jsonISt3mapSt6vectorNSt7__cxx1112basic_stringIcSt11char_traitsIcESaIcEEEblmdSaNS1_14adl_serializerES4_IhSaIhEEvE6createIS4_ISE_SaISE_EEJRKSH_EEEPT_DpOT0_EUlPSH_E_EEC2ERKSQ_ = comdat any

$_ZNSt10_Head_baseILm1EZN8nlohmann16json_abi_v3_11_310basic_jsonISt3mapSt6vectorNSt7__cxx1112basic_stringIcSt11char_traitsIcESaIcEEEblmdSaNS1_14adl_serializerES4_IhSaIhEEvE6createIS4_ISE_SaISE_EEJRKSH_EEEPT_DpOT0_EUlPSH_E_Lb0EEC2ERKSQ_ = comdat any

$_ZNSt15__new_allocatorISt6vectorIN8nlohmann16json_abi_v3_11_310basic_jsonISt3mapS0_NSt7__cxx1112basic_stringIcSt11char_traitsIcESaIcEEEblmdSaNS2_14adl_serializerES0_IhSaIhEEvEESaISE_EEE9constructISG_JRKSG_EEEvPT_DpOT0_ = comdat any

$_ZNSt6vectorIN8nlohmann16json_abi_v3_11_310basic_jsonISt3mapS_NSt7__cxx1112basic_stringIcSt11char_traitsIcESaIcEEEblmdSaNS1_14adl_serializerES_IhSaIhEEvEESaISD_EEC2ERKSF_ = comdat any

$_ZN9__gnu_cxx14__alloc_traitsISaIN8nlohmann16json_abi_v3_11_310basic_jsonISt3mapSt6vectorNSt7__cxx1112basic_stringIcSt11char_traitsIcESaIcEEEblmdSaNS2_14adl_serializerES5_IhSaIhEEvEEESF_E17_S_select_on_copyERKSG_ = comdat any

$_ZNSt12_Vector_baseIN8nlohmann16json_abi_v3_11_310basic_jsonISt3mapSt6vectorNSt7__cxx1112basic_stringIcSt11char_traitsIcESaIcEEEblmdSaNS1_14adl_serializerES4_IhSaIhEEvEESaISE_EEC2EmRKSF_ = comdat any

$_ZNSaIN8nlohmann16json_abi_v3_11_310basic_jsonISt3mapSt6vectorNSt7__cxx1112basic_stringIcSt11char_traitsIcESaIcEEEblmdSaNS0_14adl_serializerES3_IhSaIhEEvEEED2Ev = comdat any

$_ZSt22__uninitialized_copy_aIN9__gnu_cxx17__normal_iteratorIPKN8nlohmann16json_abi_v3_11_310basic_jsonISt3mapSt6vectorNSt7__cxx1112basic_stringIcSt11char_traitsIcESaIcEEEblmdSaNS3_14adl_serializerES6_IhSaIhEEvEES6_ISG_SaISG_EEEEPSG_SG_ET0_T_SO_SN_RSaIT1_E = comdat any

$_ZNSt16allocator_traitsISaIN8nlohmann16json_abi_v3_11_310basic_jsonISt3mapSt6vectorNSt7__cxx1112basic_stringIcSt11char_traitsIcESaIcEEEblmdSaNS1_14adl_serializerES4_IhSaIhEEvEEEE37select_on_container_copy_constructionERKSF_ = comdat any

$_ZNSaIN8nlohmann16json_abi_v3_11_310basic_jsonISt3mapSt6vectorNSt7__cxx1112basic_stringIcSt11char_traitsIcESaIcEEEblmdSaNS0_14adl_serializerES3_IhSaIhEEvEEEC2ERKSE_ = comdat any

$_ZNSt15__new_allocatorIN8nlohmann16json_abi_v3_11_310basic_jsonISt3mapSt6vectorNSt7__cxx1112basic_stringIcSt11char_traitsIcESaIcEEEblmdSaNS1_14adl_serializerES4_IhSaIhEEvEEEC2ERKSF_ = comdat any

$_ZNSt12_Vector_baseIN8nlohmann16json_abi_v3_11_310basic_jsonISt3mapSt6vectorNSt7__cxx1112basic_stringIcSt11char_traitsIcESaIcEEEblmdSaNS1_14adl_serializerES4_IhSaIhEEvEESaISE_EE12_Vector_implC2ERKSF_ = comdat any

$_ZNSt12_Vector_baseIN8nlohmann16json_abi_v3_11_310basic_jsonISt3mapSt6vectorNSt7__cxx1112basic_stringIcSt11char_traitsIcESaIcEEEblmdSaNS1_14adl_serializerES4_IhSaIhEEvEESaISE_EE17_M_create_storageEm = comdat any

$_ZSt18uninitialized_copyIN9__gnu_cxx17__normal_iteratorIPKN8nlohmann16json_abi_v3_11_310basic_jsonISt3mapSt6vectorNSt7__cxx1112basic_stringIcSt11char_traitsIcESaIcEEEblmdSaNS3_14adl_serializerES6_IhSaIhEEvEES6_ISG_SaISG_EEEEPSG_ET0_T_SO_SN_ = comdat any

$_ZNSt20__uninitialized_copyILb0EE13__uninit_copyIN9__gnu_cxx17__normal_iteratorIPKN8nlohmann16json_abi_v3_11_310basic_jsonISt3mapSt6vectorNSt7__cxx1112basic_stringIcSt11char_traitsIcESaIcEEEblmdSaNS5_14adl_serializerES8_IhSaIhEEvEES8_ISI_SaISI_EEEEPSI_EET0_T_SQ_SP_ = comdat any

$_ZSt16__do_uninit_copyIN9__gnu_cxx17__normal_iteratorIPKN8nlohmann16json_abi_v3_11_310basic_jsonISt3mapSt6vectorNSt7__cxx1112basic_stringIcSt11char_traitsIcESaIcEEEblmdSaNS3_14adl_serializerES6_IhSaIhEEvEES6_ISG_SaISG_EEEEPSG_ET0_T_SO_SN_ = comdat any

$_ZSt10_ConstructIN8nlohmann16json_abi_v3_11_310basic_jsonISt3mapSt6vectorNSt7__cxx1112basic_stringIcSt11char_traitsIcESaIcEEEblmdSaNS1_14adl_serializerES4_IhSaIhEEvEEJRKSE_EEvPT_DpOT0_ = comdat any

$_ZNKSt15__uniq_ptr_implISt6vectorIN8nlohmann16json_abi_v3_11_310basic_jsonISt3mapS0_NSt7__cxx1112basic_stringIcSt11char_traitsIcESaIcEEEblmdSaNS2_14adl_serializerES0_IhSaIhEEvEESaISE_EEZNSE_6createISG_JRKSG_EEEPT_DpOT0_EUlPSG_E_E6_M_ptrEv = comdat any

$_ZSt3getILm0EJPSt6vectorIN8nlohmann16json_abi_v3_11_310basic_jsonISt3mapS0_NSt7__cxx1112basic_stringIcSt11char_traitsIcESaIcEEEblmdSaNS2_14adl_serializerES0_IhSaIhEEvEESaISE_EEZNSE_6createISG_JRKSG_EEEPT_DpOT0_EUlSH_E_EERKNSt13tuple_elementIXT_ESt5tupleIJDpSN_EEE4typeERKSU_ = comdat any

$_ZSt12__get_helperILm0EPSt6vectorIN8nlohmann16json_abi_v3_11_310basic_jsonISt3mapS0_NSt7__cxx1112basic_stringIcSt11char_traitsIcESaIcEEEblmdSaNS2_14adl_serializerES0_IhSaIhEEvEESaISE_EEJZNSE_6createISG_JRKSG_EEEPT_DpOT0_EUlSH_E_EERKT0_RKSt11_Tuple_implIXT_EJSR_DpT1_EE = comdat any

$_ZNSt11_Tuple_implILm0EJPSt6vectorIN8nlohmann16json_abi_v3_11_310basic_jsonISt3mapS0_NSt7__cxx1112basic_stringIcSt11char_traitsIcESaIcEEEblmdSaNS2_14adl_serializerES0_IhSaIhEEvEESaISE_EEZNSE_6createISG_JRKSG_EEEPT_DpOT0_EUlSH_E_EE7_M_headERKSR_ = comdat any

$_ZNSt15__uniq_ptr_implISt6vectorIN8nlohmann16json_abi_v3_11_310basic_jsonISt3mapS0_NSt7__cxx1112basic_stringIcSt11char_traitsIcESaIcEEEblmdSaNS2_14adl_serializerES0_IhSaIhEEvEESaISE_EEZNSE_6createISG_JRKSG_EEEPT_DpOT0_EUlPSG_E_E7releaseEv = comdat any

$_ZNSt15__uniq_ptr_implISt6vectorIN8nlohmann16json_abi_v3_11_310basic_jsonISt3mapS0_NSt7__cxx1112basic_stringIcSt11char_traitsIcESaIcEEEblmdSaNS2_14adl_serializerES0_IhSaIhEEvEESaISE_EEZNSE_6createISG_JRKSG_EEEPT_DpOT0_EUlPSG_E_E6_M_ptrEv = comdat any

$_ZSt3getILm0EJPSt6vectorIN8nlohmann16json_abi_v3_11_310basic_jsonISt3mapS0_NSt7__cxx1112basic_stringIcSt11char_traitsIcESaIcEEEblmdSaNS2_14adl_serializerES0_IhSaIhEEvEESaISE_EEZNSE_6createISG_JRKSG_EEEPT_DpOT0_EUlSH_E_EERNSt13tuple_elementIXT_ESt5tupleIJDpSN_EEE4typeERSU_ = comdat any

$_ZSt12__get_helperILm0EPSt6vectorIN8nlohmann16json_abi_v3_11_310basic_jsonISt3mapS0_NSt7__cxx1112basic_stringIcSt11char_traitsIcESaIcEEEblmdSaNS2_14adl_serializerES0_IhSaIhEEvEESaISE_EEJZNSE_6createISG_JRKSG_EEEPT_DpOT0_EUlSH_E_EERT0_RSt11_Tuple_implIXT_EJSR_DpT1_EE = comdat any

$_ZNSt11_Tuple_implILm0EJPSt6vectorIN8nlohmann16json_abi_v3_11_310basic_jsonISt3mapS0_NSt7__cxx1112basic_stringIcSt11char_traitsIcESaIcEEEblmdSaNS2_14adl_serializerES0_IhSaIhEEvEESaISE_EEZNSE_6createISG_JRKSG_EEEPT_DpOT0_EUlSH_E_EE7_M_headERSR_ = comdat any

$_ZNSt10unique_ptrISt6vectorIN8nlohmann16json_abi_v3_11_310basic_jsonISt3mapS0_NSt7__cxx1112basic_stringIcSt11char_traitsIcESaIcEEEblmdSaNS2_14adl_serializerES0_IhSaIhEEvEESaISE_EEZNSE_6createISG_JRKSG_EEEPT_DpOT0_EUlPSG_E_E11get_deleterEv = comdat any

$_ZZN8nlohmann16json_abi_v3_11_310basic_jsonISt3mapSt6vectorNSt7__cxx1112basic_stringIcSt11char_traitsIcESaIcEEEblmdSaNS0_14adl_serializerES3_IhSaIhEEvE6createIS3_ISD_SaISD_EEJRKSG_EEEPT_DpOT0_ENKUlPSG_E_clESO_ = comdat any

$_ZNSt15__uniq_ptr_implISt6vectorIN8nlohmann16json_abi_v3_11_310basic_jsonISt3mapS0_NSt7__cxx1112basic_stringIcSt11char_traitsIcESaIcEEEblmdSaNS2_14adl_serializerES0_IhSaIhEEvEESaISE_EEZNSE_6createISG_JRKSG_EEEPT_DpOT0_EUlPSG_E_E10_M_deleterEv = comdat any

$_ZSt3getILm1EJPSt6vectorIN8nlohmann16json_abi_v3_11_310basic_jsonISt3mapS0_NSt7__cxx1112basic_stringIcSt11char_traitsIcESaIcEEEblmdSaNS2_14adl_serializerES0_IhSaIhEEvEESaISE_EEZNSE_6createISG_JRKSG_EEEPT_DpOT0_EUlSH_E_EERNSt13tuple_elementIXT_ESt5tupleIJDpSN_EEE4typeERSU_ = comdat any

$_ZSt12__get_helperILm1EZN8nlohmann16json_abi_v3_11_310basic_jsonISt3mapSt6vectorNSt7__cxx1112basic_stringIcSt11char_traitsIcESaIcEEEblmdSaNS1_14adl_serializerES4_IhSaIhEEvE6createIS4_ISE_SaISE_EEJRKSH_EEEPT_DpOT0_EUlPSH_E_JEERT0_RSt11_Tuple_implIXT_EJSR_DpT1_EE = comdat any

$_ZNSt11_Tuple_implILm1EJZN8nlohmann16json_abi_v3_11_310basic_jsonISt3mapSt6vectorNSt7__cxx1112basic_stringIcSt11char_traitsIcESaIcEEEblmdSaNS1_14adl_serializerES4_IhSaIhEEvE6createIS4_ISE_SaISE_EEJRKSH_EEEPT_DpOT0_EUlPSH_E_EE7_M_headERSR_ = comdat any

$_ZNSt10_Head_baseILm1EZN8nlohmann16json_abi_v3_11_310basic_jsonISt3mapSt6vectorNSt7__cxx1112basic_stringIcSt11char_traitsIcESaIcEEEblmdSaNS1_14adl_serializerES4_IhSaIhEEvE6createIS4_ISE_SaISE_EEJRKSH_EEEPT_DpOT0_EUlPSH_E_Lb0EE7_M_headERSR_ = comdat any

$_ZN8nlohmann16json_abi_v3_11_310basic_jsonISt3mapSt6vectorNSt7__cxx1112basic_stringIcSt11char_traitsIcESaIcEEEblmdSaNS0_14adl_serializerES3_IhSaIhEEvE6createIS9_JRKS9_EEEPT_DpOT0_ = comdat any

$_ZNSt10unique_ptrINSt7__cxx1112basic_stringIcSt11char_traitsIcESaIcEEEZN8nlohmann16json_abi_v3_11_310basic_jsonISt3mapSt6vectorS5_blmdSaNS7_14adl_serializerESA_IhSaIhEEvE6createIS5_JRKS5_EEEPT_DpOT0_EUlPS5_E_EC2ISO_vEESN_RKSO_ = comdat any

$_ZNSt16allocator_traitsISaINSt7__cxx1112basic_stringIcSt11char_traitsIcESaIcEEEEE9constructIS5_JRKS5_EEEvRS6_PT_DpOT0_ = comdat any

$_ZNKSt10unique_ptrINSt7__cxx1112basic_stringIcSt11char_traitsIcESaIcEEEZN8nlohmann16json_abi_v3_11_310basic_jsonISt3mapSt6vectorS5_blmdSaNS7_14adl_serializerESA_IhSaIhEEvE6createIS5_JRKS5_EEEPT_DpOT0_EUlPS5_E_E3getEv = comdat any

$_ZNSt10unique_ptrINSt7__cxx1112basic_stringIcSt11char_traitsIcESaIcEEEZN8nlohmann16json_abi_v3_11_310basic_jsonISt3mapSt6vectorS5_blmdSaNS7_14adl_serializerESA_IhSaIhEEvE6createIS5_JRKS5_EEEPT_DpOT0_EUlPS5_E_E7releaseEv = comdat any

$_ZNSt10unique_ptrINSt7__cxx1112basic_stringIcSt11char_traitsIcESaIcEEEZN8nlohmann16json_abi_v3_11_310basic_jsonISt3mapSt6vectorS5_blmdSaNS7_14adl_serializerESA_IhSaIhEEvE6createIS5_JRKS5_EEEPT_DpOT0_EUlPS5_E_ED2Ev = comdat any

$_ZNSt15__uniq_ptr_dataINSt7__cxx1112basic_stringIcSt11char_traitsIcESaIcEEEZN8nlohmann16json_abi_v3_11_310basic_jsonISt3mapSt6vectorS5_blmdSaNS7_14adl_serializerESA_IhSaIhEEvE6createIS5_JRKS5_EEEPT_DpOT0_EUlPS5_E_Lb1ELb0EECI2St15__uniq_ptr_implIS5_SO_EIRKSO_EESN_OSI_ = comdat any

$_ZNSt15__uniq_ptr_implINSt7__cxx1112basic_stringIcSt11char_traitsIcESaIcEEEZN8nlohmann16json_abi_v3_11_310basic_jsonISt3mapSt6vectorS5_blmdSaNS7_14adl_serializerESA_IhSaIhEEvE6createIS5_JRKS5_EEEPT_DpOT0_EUlPS5_E_EC2IRKSO_EESN_OSI_ = comdat any

$_ZNSt5tupleIJPNSt7__cxx1112basic_stringIcSt11char_traitsIcESaIcEEEZN8nlohmann16json_abi_v3_11_310basic_jsonISt3mapSt6vectorS5_blmdSaNS8_14adl_serializerESB_IhSaIhEEvE6createIS5_JRKS5_EEEPT_DpOT0_EUlS6_E_EEC2IRS6_RKSO_TnNSt9enable_ifIXclsr4_TCCIXntcl14__is_alloc_argISJ_EEEEE29__is_implicitly_constructibleISJ_T0_EEEbE4typeELb1EEEOSJ_OSV_ = comdat any

$_ZNSt11_Tuple_implILm0EJPNSt7__cxx1112basic_stringIcSt11char_traitsIcESaIcEEEZN8nlohmann16json_abi_v3_11_310basic_jsonISt3mapSt6vectorS5_blmdSaNS8_14adl_serializerESB_IhSaIhEEvE6createIS5_JRKS5_EEEPT_DpOT0_EUlS6_E_EEC2IRS6_JRKSO_EvEEOSJ_SN_ = comdat any

$_ZNSt11_Tuple_implILm1EJZN8nlohmann16json_abi_v3_11_310basic_jsonISt3mapSt6vectorNSt7__cxx1112basic_stringIcSt11char_traitsIcESaIcEEEblmdSaNS1_14adl_serializerES4_IhSaIhEEvE6createISA_JRKSA_EEEPT_DpOT0_EUlPSA_E_EEC2ERKSO_ = comdat any

$_ZNSt10_Head_baseILm1EZN8nlohmann16json_abi_v3_11_310basic_jsonISt3mapSt6vectorNSt7__cxx1112basic_stringIcSt11char_traitsIcESaIcEEEblmdSaNS1_14adl_serializerES4_IhSaIhEEvE6createISA_JRKSA_EEEPT_DpOT0_EUlPSA_E_Lb0EEC2ERKSO_ = comdat any

$_ZNSt15__new_allocatorINSt7__cxx1112basic_stringIcSt11char_traitsIcESaIcEEEE9constructIS5_JRKS5_EEEvPT_DpOT0_ = comdat any

$_ZNKSt15__uniq_ptr_implINSt7__cxx1112basic_stringIcSt11char_traitsIcESaIcEEEZN8nlohmann16json_abi_v3_11_310basic_jsonISt3mapSt6vectorS5_blmdSaNS7_14adl_serializerESA_IhSaIhEEvE6createIS5_JRKS5_EEEPT_DpOT0_EUlPS5_E_E6_M_ptrEv = comdat any

$_ZSt3getILm0EJPNSt7__cxx1112basic_stringIcSt11char_traitsIcESaIcEEEZN8nlohmann16json_abi_v3_11_310basic_jsonISt3mapSt6vectorS5_blmdSaNS8_14adl_serializerESB_IhSaIhEEvE6createIS5_JRKS5_EEEPT_DpOT0_EUlS6_E_EERKNSt13tuple_elementIXT_ESt5tupleIJDpSL_EEE4typeERKSS_ = comdat any

$_ZSt12__get_helperILm0EPNSt7__cxx1112basic_stringIcSt11char_traitsIcESaIcEEEJZN8nlohmann16json_abi_v3_11_310basic_jsonISt3mapSt6vectorS5_blmdSaNS8_14adl_serializerESB_IhSaIhEEvE6createIS5_JRKS5_EEEPT_DpOT0_EUlS6_E_EERKT0_RKSt11_Tuple_implIXT_EJSP_DpT1_EE = comdat any

$_ZNSt11_Tuple_implILm0EJPNSt7__cxx1112basic_stringIcSt11char_traitsIcESaIcEEEZN8nlohmann16json_abi_v3_11_310basic_jsonISt3mapSt6vectorS5_blmdSaNS8_14adl_serializerESB_IhSaIhEEvE6createIS5_JRKS5_EEEPT_DpOT0_EUlS6_E_EE7_M_headERKSP_ = comdat any

$_ZNSt15__uniq_ptr_implINSt7__cxx1112basic_stringIcSt11char_traitsIcESaIcEEEZN8nlohmann16json_abi_v3_11_310basic_jsonISt3mapSt6vectorS5_blmdSaNS7_14adl_serializerESA_IhSaIhEEvE6createIS5_JRKS5_EEEPT_DpOT0_EUlPS5_E_E7releaseEv = comdat any

$_ZNSt15__uniq_ptr_implINSt7__cxx1112basic_stringIcSt11char_traitsIcESaIcEEEZN8nlohmann16json_abi_v3_11_310basic_jsonISt3mapSt6vectorS5_blmdSaNS7_14adl_serializerESA_IhSaIhEEvE6createIS5_JRKS5_EEEPT_DpOT0_EUlPS5_E_E6_M_ptrEv = comdat any

$_ZSt3getILm0EJPNSt7__cxx1112basic_stringIcSt11char_traitsIcESaIcEEEZN8nlohmann16json_abi_v3_11_310basic_jsonISt3mapSt6vectorS5_blmdSaNS8_14adl_serializerESB_IhSaIhEEvE6createIS5_JRKS5_EEEPT_DpOT0_EUlS6_E_EERNSt13tuple_elementIXT_ESt5tupleIJDpSL_EEE4typeERSS_ = comdat any

$_ZSt12__get_helperILm0EPNSt7__cxx1112basic_stringIcSt11char_traitsIcESaIcEEEJZN8nlohmann16json_abi_v3_11_310basic_jsonISt3mapSt6vectorS5_blmdSaNS8_14adl_serializerESB_IhSaIhEEvE6createIS5_JRKS5_EEEPT_DpOT0_EUlS6_E_EERT0_RSt11_Tuple_implIXT_EJSP_DpT1_EE = comdat any

$_ZNSt11_Tuple_implILm0EJPNSt7__cxx1112basic_stringIcSt11char_traitsIcESaIcEEEZN8nlohmann16json_abi_v3_11_310basic_jsonISt3mapSt6vectorS5_blmdSaNS8_14adl_serializerESB_IhSaIhEEvE6createIS5_JRKS5_EEEPT_DpOT0_EUlS6_E_EE7_M_headERSP_ = comdat any

$_ZNSt10unique_ptrINSt7__cxx1112basic_stringIcSt11char_traitsIcESaIcEEEZN8nlohmann16json_abi_v3_11_310basic_jsonISt3mapSt6vectorS5_blmdSaNS7_14adl_serializerESA_IhSaIhEEvE6createIS5_JRKS5_EEEPT_DpOT0_EUlPS5_E_E11get_deleterEv = comdat any

$_ZZN8nlohmann16json_abi_v3_11_310basic_jsonISt3mapSt6vectorNSt7__cxx1112basic_stringIcSt11char_traitsIcESaIcEEEblmdSaNS0_14adl_serializerES3_IhSaIhEEvE6createIS9_JRKS9_EEEPT_DpOT0_ENKUlPS9_E_clESM_ = comdat any

$_ZNSt15__uniq_ptr_implINSt7__cxx1112basic_stringIcSt11char_traitsIcESaIcEEEZN8nlohmann16json_abi_v3_11_310basic_jsonISt3mapSt6vectorS5_blmdSaNS7_14adl_serializerESA_IhSaIhEEvE6createIS5_JRKS5_EEEPT_DpOT0_EUlPS5_E_E10_M_deleterEv = comdat any

$_ZSt3getILm1EJPNSt7__cxx1112basic_stringIcSt11char_traitsIcESaIcEEEZN8nlohmann16json_abi_v3_11_310basic_jsonISt3mapSt6vectorS5_blmdSaNS8_14adl_serializerESB_IhSaIhEEvE6createIS5_JRKS5_EEEPT_DpOT0_EUlS6_E_EERNSt13tuple_elementIXT_ESt5tupleIJDpSL_EEE4typeERSS_ = comdat any

$_ZSt12__get_helperILm1EZN8nlohmann16json_abi_v3_11_310basic_jsonISt3mapSt6vectorNSt7__cxx1112basic_stringIcSt11char_traitsIcESaIcEEEblmdSaNS1_14adl_serializerES4_IhSaIhEEvE6createISA_JRKSA_EEEPT_DpOT0_EUlPSA_E_JEERT0_RSt11_Tuple_implIXT_EJSP_DpT1_EE = comdat any

$_ZNSt11_Tuple_implILm1EJZN8nlohmann16json_abi_v3_11_310basic_jsonISt3mapSt6vectorNSt7__cxx1112basic_stringIcSt11char_traitsIcESaIcEEEblmdSaNS1_14adl_serializerES4_IhSaIhEEvE6createISA_JRKSA_EEEPT_DpOT0_EUlPSA_E_EE7_M_headERSP_ = comdat any

$_ZNSt10_Head_baseILm1EZN8nlohmann16json_abi_v3_11_310basic_jsonISt3mapSt6vectorNSt7__cxx1112basic_stringIcSt11char_traitsIcESaIcEEEblmdSaNS1_14adl_serializerES4_IhSaIhEEvE6createISA_JRKSA_EEEPT_DpOT0_EUlPSA_E_Lb0EE7_M_headERSP_ = comdat any

$_ZN8nlohmann16json_abi_v3_11_310basic_jsonISt3mapSt6vectorNSt7__cxx1112basic_stringIcSt11char_traitsIcESaIcEEEblmdSaNS0_14adl_serializerES3_IhSaIhEEvE6createINS0_27byte_container_with_subtypeISC_EEJRKSG_EEEPT_DpOT0_ = comdat any

$_ZNSt10unique_ptrIN8nlohmann16json_abi_v3_11_327byte_container_with_subtypeISt6vectorIhSaIhEEEEZNS1_10basic_jsonISt3mapS3_NSt7__cxx1112basic_stringIcSt11char_traitsIcESaIcEEEblmdSaNS1_14adl_serializerES5_vE6createIS6_JRKS6_EEEPT_DpOT0_EUlPS6_E_EC2ISQ_vEESP_RKSQ_ = comdat any

$_ZNSt16allocator_traitsISaIN8nlohmann16json_abi_v3_11_327byte_container_with_subtypeISt6vectorIhSaIhEEEEEE9constructIS6_JRKS6_EEEvRS7_PT_DpOT0_ = comdat any

$_ZNKSt10unique_ptrIN8nlohmann16json_abi_v3_11_327byte_container_with_subtypeISt6vectorIhSaIhEEEEZNS1_10basic_jsonISt3mapS3_NSt7__cxx1112basic_stringIcSt11char_traitsIcESaIcEEEblmdSaNS1_14adl_serializerES5_vE6createIS6_JRKS6_EEEPT_DpOT0_EUlPS6_E_E3getEv = comdat any

$_ZNSt10unique_ptrIN8nlohmann16json_abi_v3_11_327byte_container_with_subtypeISt6vectorIhSaIhEEEEZNS1_10basic_jsonISt3mapS3_NSt7__cxx1112basic_stringIcSt11char_traitsIcESaIcEEEblmdSaNS1_14adl_serializerES5_vE6createIS6_JRKS6_EEEPT_DpOT0_EUlPS6_E_E7releaseEv = comdat any

$_ZNSt10unique_ptrIN8nlohmann16json_abi_v3_11_327byte_container_with_subtypeISt6vectorIhSaIhEEEEZNS1_10basic_jsonISt3mapS3_NSt7__cxx1112basic_stringIcSt11char_traitsIcESaIcEEEblmdSaNS1_14adl_serializerES5_vE6createIS6_JRKS6_EEEPT_DpOT0_EUlPS6_E_ED2Ev = comdat any

$_ZNSt15__uniq_ptr_dataIN8nlohmann16json_abi_v3_11_327byte_container_with_subtypeISt6vectorIhSaIhEEEEZNS1_10basic_jsonISt3mapS3_NSt7__cxx1112basic_stringIcSt11char_traitsIcESaIcEEEblmdSaNS1_14adl_serializerES5_vE6createIS6_JRKS6_EEEPT_DpOT0_EUlPS6_E_Lb1ELb0EECI2St15__uniq_ptr_implIS6_SQ_EIRKSQ_EESP_OSK_ = comdat any

$_ZNSt15__uniq_ptr_implIN8nlohmann16json_abi_v3_11_327byte_container_with_subtypeISt6vectorIhSaIhEEEEZNS1_10basic_jsonISt3mapS3_NSt7__cxx1112basic_stringIcSt11char_traitsIcESaIcEEEblmdSaNS1_14adl_serializerES5_vE6createIS6_JRKS6_EEEPT_DpOT0_EUlPS6_E_EC2IRKSQ_EESP_OSK_ = comdat any

$_ZNSt5tupleIJPN8nlohmann16json_abi_v3_11_327byte_container_with_subtypeISt6vectorIhSaIhEEEEZNS1_10basic_jsonISt3mapS3_NSt7__cxx1112basic_stringIcSt11char_traitsIcESaIcEEEblmdSaNS1_14adl_serializerES5_vE6createIS6_JRKS6_EEEPT_DpOT0_EUlS7_E_EEC2IRS7_RKSQ_TnNSt9enable_ifIXclsr4_TCCIXntcl14__is_alloc_argISL_EEEEE29__is_implicitly_constructibleISL_T0_EEEbE4typeELb1EEEOSL_OSX_ = comdat any

$_ZNSt11_Tuple_implILm0EJPN8nlohmann16json_abi_v3_11_327byte_container_with_subtypeISt6vectorIhSaIhEEEEZNS1_10basic_jsonISt3mapS3_NSt7__cxx1112basic_stringIcSt11char_traitsIcESaIcEEEblmdSaNS1_14adl_serializerES5_vE6createIS6_JRKS6_EEEPT_DpOT0_EUlS7_E_EEC2IRS7_JRKSQ_EvEEOSL_SP_ = comdat any

$_ZNSt11_Tuple_implILm1EJZN8nlohmann16json_abi_v3_11_310basic_jsonISt3mapSt6vectorNSt7__cxx1112basic_stringIcSt11char_traitsIcESaIcEEEblmdSaNS1_14adl_serializerES4_IhSaIhEEvE6createINS1_27byte_container_with_subtypeISD_EEJRKSH_EEEPT_DpOT0_EUlPSH_E_EEC2ERKSQ_ = comdat any

$_ZNSt10_Head_baseILm1EZN8nlohmann16json_abi_v3_11_310basic_jsonISt3mapSt6vectorNSt7__cxx1112basic_stringIcSt11char_traitsIcESaIcEEEblmdSaNS1_14adl_serializerES4_IhSaIhEEvE6createINS1_27byte_container_with_subtypeISD_EEJRKSH_EEEPT_DpOT0_EUlPSH_E_Lb0EEC2ERKSQ_ = comdat any

$_ZNSt15__new_allocatorIN8nlohmann16json_abi_v3_11_327byte_container_with_subtypeISt6vectorIhSaIhEEEEE9constructIS6_JRKS6_EEEvPT_DpOT0_ = comdat any

$_ZN8nlohmann16json_abi_v3_11_327byte_container_with_subtypeISt6vectorIhSaIhEEEC2ERKS5_ = comdat any

$_ZNSt6vectorIhSaIhEEC2ERKS1_ = comdat any

$_ZN9__gnu_cxx14__alloc_traitsISaIhEhE17_S_select_on_copyERKS1_ = comdat any

$_ZNKSt12_Vector_baseIhSaIhEE19_M_get_Tp_allocatorEv = comdat any

$_ZNSt12_Vector_baseIhSaIhEEC2EmRKS0_ = comdat any

$_ZNSaIhED2Ev = comdat any

$_ZSt22__uninitialized_copy_aIN9__gnu_cxx17__normal_iteratorIPKhSt6vectorIhSaIhEEEEPhhET0_T_SA_S9_RSaIT1_E = comdat any

$_ZNSt16allocator_traitsISaIhEE37select_on_container_copy_constructionERKS0_ = comdat any

$_ZNSaIhEC2ERKS_ = comdat any

$_ZNSt15__new_allocatorIhEC2ERKS0_ = comdat any

$_ZNSt12_Vector_baseIhSaIhEE12_Vector_implC2ERKS0_ = comdat any

$_ZNSt12_Vector_baseIhSaIhEE17_M_create_storageEm = comdat any

$_ZNSt12_Vector_baseIhSaIhEE11_M_allocateEm = comdat any

$_ZNSt16allocator_traitsISaIhEE8allocateERS0_m = comdat any

$_ZNSt15__new_allocatorIhE8allocateEmPKv = comdat any

$_ZNKSt15__new_allocatorIhE11_M_max_sizeEv = comdat any

$_ZSt18uninitialized_copyIN9__gnu_cxx17__normal_iteratorIPKhSt6vectorIhSaIhEEEEPhET0_T_SA_S9_ = comdat any

$_ZNSt20__uninitialized_copyILb1EE13__uninit_copyIN9__gnu_cxx17__normal_iteratorIPKhSt6vectorIhSaIhEEEEPhEET0_T_SC_SB_ = comdat any

$_ZSt4copyIN9__gnu_cxx17__normal_iteratorIPKhSt6vectorIhSaIhEEEEPhET0_T_SA_S9_ = comdat any

$_ZSt13__copy_move_aILb0EN9__gnu_cxx17__normal_iteratorIPKhSt6vectorIhSaIhEEEEPhET1_T0_SA_S9_ = comdat any

$_ZSt12__miter_baseIN9__gnu_cxx17__normal_iteratorIPKhSt6vectorIhSaIhEEEEET_S8_ = comdat any

$_ZSt12__niter_wrapIPhET_RKS1_S1_ = comdat any

$_ZSt14__copy_move_a1ILb0EPKhPhET1_T0_S4_S3_ = comdat any

$_ZSt12__niter_baseIPhET_S1_ = comdat any

$_ZSt14__copy_move_a2ILb0EPKhPhET1_T0_S4_S3_ = comdat any

$_ZNSt11__copy_moveILb0ELb1ESt26random_access_iterator_tagE8__copy_mIhEEPT_PKS3_S6_S4_ = comdat any

$_ZNKSt15__uniq_ptr_implIN8nlohmann16json_abi_v3_11_327byte_container_with_subtypeISt6vectorIhSaIhEEEEZNS1_10basic_jsonISt3mapS3_NSt7__cxx1112basic_stringIcSt11char_traitsIcESaIcEEEblmdSaNS1_14adl_serializerES5_vE6createIS6_JRKS6_EEEPT_DpOT0_EUlPS6_E_E6_M_ptrEv = comdat any

$_ZSt3getILm0EJPN8nlohmann16json_abi_v3_11_327byte_container_with_subtypeISt6vectorIhSaIhEEEEZNS1_10basic_jsonISt3mapS3_NSt7__cxx1112basic_stringIcSt11char_traitsIcESaIcEEEblmdSaNS1_14adl_serializerES5_vE6createIS6_JRKS6_EEEPT_DpOT0_EUlS7_E_EERKNSt13tuple_elementIXT_ESt5tupleIJDpSN_EEE4typeERKSU_ = comdat any

$_ZSt12__get_helperILm0EPN8nlohmann16json_abi_v3_11_327byte_container_with_subtypeISt6vectorIhSaIhEEEEJZNS1_10basic_jsonISt3mapS3_NSt7__cxx1112basic_stringIcSt11char_traitsIcESaIcEEEblmdSaNS1_14adl_serializerES5_vE6createIS6_JRKS6_EEEPT_DpOT0_EUlS7_E_EERKT0_RKSt11_Tuple_implIXT_EJSR_DpT1_EE = comdat any

$_ZNSt11_Tuple_implILm0EJPN8nlohmann16json_abi_v3_11_327byte_container_with_subtypeISt6vectorIhSaIhEEEEZNS1_10basic_jsonISt3mapS3_NSt7__cxx1112basic_stringIcSt11char_traitsIcESaIcEEEblmdSaNS1_14adl_serializerES5_vE6createIS6_JRKS6_EEEPT_DpOT0_EUlS7_E_EE7_M_headERKSR_ = comdat any

$_ZNSt15__uniq_ptr_implIN8nlohmann16json_abi_v3_11_327byte_container_with_subtypeISt6vectorIhSaIhEEEEZNS1_10basic_jsonISt3mapS3_NSt7__cxx1112basic_stringIcSt11char_traitsIcESaIcEEEblmdSaNS1_14adl_serializerES5_vE6createIS6_JRKS6_EEEPT_DpOT0_EUlPS6_E_E7releaseEv = comdat any

$_ZNSt15__uniq_ptr_implIN8nlohmann16json_abi_v3_11_327byte_container_with_subtypeISt6vectorIhSaIhEEEEZNS1_10basic_jsonISt3mapS3_NSt7__cxx1112basic_stringIcSt11char_traitsIcESaIcEEEblmdSaNS1_14adl_serializerES5_vE6createIS6_JRKS6_EEEPT_DpOT0_EUlPS6_E_E6_M_ptrEv = comdat any

$_ZSt3getILm0EJPN8nlohmann16json_abi_v3_11_327byte_container_with_subtypeISt6vectorIhSaIhEEEEZNS1_10basic_jsonISt3mapS3_NSt7__cxx1112basic_stringIcSt11char_traitsIcESaIcEEEblmdSaNS1_14adl_serializerES5_vE6createIS6_JRKS6_EEEPT_DpOT0_EUlS7_E_EERNSt13tuple_elementIXT_ESt5tupleIJDpSN_EEE4typeERSU_ = comdat any

$_ZSt12__get_helperILm0EPN8nlohmann16json_abi_v3_11_327byte_container_with_subtypeISt6vectorIhSaIhEEEEJZNS1_10basic_jsonISt3mapS3_NSt7__cxx1112basic_stringIcSt11char_traitsIcESaIcEEEblmdSaNS1_14adl_serializerES5_vE6createIS6_JRKS6_EEEPT_DpOT0_EUlS7_E_EERT0_RSt11_Tuple_implIXT_EJSR_DpT1_EE = comdat any

$_ZNSt11_Tuple_implILm0EJPN8nlohmann16json_abi_v3_11_327byte_container_with_subtypeISt6vectorIhSaIhEEEEZNS1_10basic_jsonISt3mapS3_NSt7__cxx1112basic_stringIcSt11char_traitsIcESaIcEEEblmdSaNS1_14adl_serializerES5_vE6createIS6_JRKS6_EEEPT_DpOT0_EUlS7_E_EE7_M_headERSR_ = comdat any

$_ZNSt10unique_ptrIN8nlohmann16json_abi_v3_11_327byte_container_with_subtypeISt6vectorIhSaIhEEEEZNS1_10basic_jsonISt3mapS3_NSt7__cxx1112basic_stringIcSt11char_traitsIcESaIcEEEblmdSaNS1_14adl_serializerES5_vE6createIS6_JRKS6_EEEPT_DpOT0_EUlPS6_E_E11get_deleterEv = comdat any

$_ZZN8nlohmann16json_abi_v3_11_310basic_jsonISt3mapSt6vectorNSt7__cxx1112basic_stringIcSt11char_traitsIcESaIcEEEblmdSaNS0_14adl_serializerES3_IhSaIhEEvE6createINS0_27byte_container_with_subtypeISC_EEJRKSG_EEEPT_DpOT0_ENKUlPSG_E_clESO_ = comdat any

$_ZNSt15__uniq_ptr_implIN8nlohmann16json_abi_v3_11_327byte_container_with_subtypeISt6vectorIhSaIhEEEEZNS1_10basic_jsonISt3mapS3_NSt7__cxx1112basic_stringIcSt11char_traitsIcESaIcEEEblmdSaNS1_14adl_serializerES5_vE6createIS6_JRKS6_EEEPT_DpOT0_EUlPS6_E_E10_M_deleterEv = comdat any

$_ZSt3getILm1EJPN8nlohmann16json_abi_v3_11_327byte_container_with_subtypeISt6vectorIhSaIhEEEEZNS1_10basic_jsonISt3mapS3_NSt7__cxx1112basic_stringIcSt11char_traitsIcESaIcEEEblmdSaNS1_14adl_serializerES5_vE6createIS6_JRKS6_EEEPT_DpOT0_EUlS7_E_EERNSt13tuple_elementIXT_ESt5tupleIJDpSN_EEE4typeERSU_ = comdat any

$_ZSt12__get_helperILm1EZN8nlohmann16json_abi_v3_11_310basic_jsonISt3mapSt6vectorNSt7__cxx1112basic_stringIcSt11char_traitsIcESaIcEEEblmdSaNS1_14adl_serializerES4_IhSaIhEEvE6createINS1_27byte_container_with_subtypeISD_EEJRKSH_EEEPT_DpOT0_EUlPSH_E_JEERT0_RSt11_Tuple_implIXT_EJSR_DpT1_EE = comdat any

$_ZNSt11_Tuple_implILm1EJZN8nlohmann16json_abi_v3_11_310basic_jsonISt3mapSt6vectorNSt7__cxx1112basic_stringIcSt11char_traitsIcESaIcEEEblmdSaNS1_14adl_serializerES4_IhSaIhEEvE6createINS1_27byte_container_with_subtypeISD_EEJRKSH_EEEPT_DpOT0_EUlPSH_E_EE7_M_headERSR_ = comdat any

$_ZNSt10_Head_baseILm1EZN8nlohmann16json_abi_v3_11_310basic_jsonISt3mapSt6vectorNSt7__cxx1112basic_stringIcSt11char_traitsIcESaIcEEEblmdSaNS1_14adl_serializerES4_IhSaIhEEvE6createINS1_27byte_container_with_subtypeISD_EEJRKSH_EEEPT_DpOT0_EUlPSH_E_Lb0EE7_M_headERSR_ = comdat any

$_ZNSt8_Rb_treeINSt7__cxx1112basic_stringIcSt11char_traitsIcESaIcEEESt4pairIKS5_N8nlohmann16json_abi_v3_11_310basic_jsonISt3mapSt6vectorS5_blmdSaNS9_14adl_serializerESC_IhSaIhEEvEEESt10_Select1stISH_ESt4lessIS5_ESaISH_EE17_M_emplace_uniqueIJS5_SG_EEES6_ISt17_Rb_tree_iteratorISH_EbEDpOT_ = comdat any

$_ZNSt8_Rb_treeINSt7__cxx1112basic_stringIcSt11char_traitsIcESaIcEEESt4pairIKS5_N8nlohmann16json_abi_v3_11_310basic_jsonISt3mapSt6vectorS5_blmdSaNS9_14adl_serializerESC_IhSaIhEEvEEESt10_Select1stISH_ESt4lessIS5_ESaISH_EE10_Auto_nodeC2IJS5_SG_EEERSN_DpOT_ = comdat any

$_ZNSt8_Rb_treeINSt7__cxx1112basic_stringIcSt11char_traitsIcESaIcEEESt4pairIKS5_N8nlohmann16json_abi_v3_11_310basic_jsonISt3mapSt6vectorS5_blmdSaNS9_14adl_serializerESC_IhSaIhEEvEEESt10_Select1stISH_ESt4lessIS5_ESaISH_EE24_M_get_insert_unique_posERS7_ = comdat any

$_ZNKSt8_Rb_treeINSt7__cxx1112basic_stringIcSt11char_traitsIcESaIcEEESt4pairIKS5_N8nlohmann16json_abi_v3_11_310basic_jsonISt3mapSt6vectorS5_blmdSaNS9_14adl_serializerESC_IhSaIhEEvEEESt10_Select1stISH_ESt4lessIS5_ESaISH_EE10_Auto_node6_M_keyEv = comdat any

$_ZNSt8_Rb_treeINSt7__cxx1112basic_stringIcSt11char_traitsIcESaIcEEESt4pairIKS5_N8nlohmann16json_abi_v3_11_310basic_jsonISt3mapSt6vectorS5_blmdSaNS9_14adl_serializerESC_IhSaIhEEvEEESt10_Select1stISH_ESt4lessIS5_ESaISH_EE10_Auto_node9_M_insertES6_IPSt18_Rb_tree_node_baseSQ_E = comdat any

$_ZNSt4pairISt17_Rb_tree_iteratorIS_IKNSt7__cxx1112basic_stringIcSt11char_traitsIcESaIcEEEN8nlohmann16json_abi_v3_11_310basic_jsonISt3mapSt6vectorS6_blmdSaNS9_14adl_serializerESC_IhSaIhEEvEEEEbEC2ISI_bTnNSt9enable_ifIXaaclsr5_PCCPE22_MoveConstructiblePairIT_T0_EEclsr5_PCCPE30_ImplicitlyMoveConvertiblePairISM_SN_EEEbE4typeELb1EEEOSM_OSN_ = comdat any

$_ZNSt17_Rb_tree_iteratorISt4pairIKNSt7__cxx1112basic_stringIcSt11char_traitsIcESaIcEEEN8nlohmann16json_abi_v3_11_310basic_jsonISt3mapSt6vectorS6_blmdSaNS9_14adl_serializerESC_IhSaIhEEvEEEEC2EPSt18_Rb_tree_node_base = comdat any

$_ZNSt8_Rb_treeINSt7__cxx1112basic_stringIcSt11char_traitsIcESaIcEEESt4pairIKS5_N8nlohmann16json_abi_v3_11_310basic_jsonISt3mapSt6vectorS5_blmdSaNS9_14adl_serializerESC_IhSaIhEEvEEESt10_Select1stISH_ESt4lessIS5_ESaISH_EE10_Auto_nodeD2Ev = comdat any

$_ZNSt8_Rb_treeINSt7__cxx1112basic_stringIcSt11char_traitsIcESaIcEEESt4pairIKS5_N8nlohmann16json_abi_v3_11_310basic_jsonISt3mapSt6vectorS5_blmdSaNS9_14adl_serializerESC_IhSaIhEEvEEESt10_Select1stISH_ESt4lessIS5_ESaISH_EE14_M_create_nodeIJS5_SG_EEEPSt13_Rb_tree_nodeISH_EDpOT_ = comdat any

$_ZNSt8_Rb_treeINSt7__cxx1112basic_stringIcSt11char_traitsIcESaIcEEESt4pairIKS5_N8nlohmann16json_abi_v3_11_310basic_jsonISt3mapSt6vectorS5_blmdSaNS9_14adl_serializerESC_IhSaIhEEvEEESt10_Select1stISH_ESt4lessIS5_ESaISH_EE17_M_construct_nodeIJS5_SG_EEEvPSt13_Rb_tree_nodeISH_EDpOT_ = comdat any

$_ZNSt16allocator_traitsISaISt13_Rb_tree_nodeISt4pairIKNSt7__cxx1112basic_stringIcSt11char_traitsIcESaIcEEEN8nlohmann16json_abi_v3_11_310basic_jsonISt3mapSt6vectorS7_blmdSaNSA_14adl_serializerESD_IhSaIhEEvEEEEEE9constructISI_JS7_SH_EEEvRSK_PT_DpOT0_ = comdat any

$_ZNSt15__new_allocatorISt13_Rb_tree_nodeISt4pairIKNSt7__cxx1112basic_stringIcSt11char_traitsIcESaIcEEEN8nlohmann16json_abi_v3_11_310basic_jsonISt3mapSt6vectorS7_blmdSaNSA_14adl_serializerESD_IhSaIhEEvEEEEE9constructISI_JS7_SH_EEEvPT_DpOT0_ = comdat any

$_ZNSt4pairIKNSt7__cxx1112basic_stringIcSt11char_traitsIcESaIcEEEN8nlohmann16json_abi_v3_11_310basic_jsonISt3mapSt6vectorS5_blmdSaNS8_14adl_serializerESB_IhSaIhEEvEEEC2IS5_SF_TnNSt9enable_ifIXaaclsr5_PCCPE22_MoveConstructiblePairIT_T0_EEclsr5_PCCPE30_ImplicitlyMoveConvertiblePairISJ_SK_EEEbE4typeELb1EEEOSJ_OSK_ = comdat any

$_ZNKSt4lessINSt7__cxx1112basic_stringIcSt11char_traitsIcESaIcEEEEclERKS5_S8_ = comdat any

$_ZNSt8_Rb_treeINSt7__cxx1112basic_stringIcSt11char_traitsIcESaIcEEESt4pairIKS5_N8nlohmann16json_abi_v3_11_310basic_jsonISt3mapSt6vectorS5_blmdSaNS9_14adl_serializerESC_IhSaIhEEvEEESt10_Select1stISH_ESt4lessIS5_ESaISH_EE6_S_keyEPKSt13_Rb_tree_nodeISH_E = comdat any

$_ZNSt8_Rb_treeINSt7__cxx1112basic_stringIcSt11char_traitsIcESaIcEEESt4pairIKS5_N8nlohmann16json_abi_v3_11_310basic_jsonISt3mapSt6vectorS5_blmdSaNS9_14adl_serializerESC_IhSaIhEEvEEESt10_Select1stISH_ESt4lessIS5_ESaISH_EE5beginEv = comdat any

$_ZNSt4pairIPSt18_Rb_tree_node_baseS1_EC2IRPSt13_Rb_tree_nodeIS_IKNSt7__cxx1112basic_stringIcSt11char_traitsIcESaIcEEEN8nlohmann16json_abi_v3_11_310basic_jsonISt3mapSt6vectorSA_blmdSaNSD_14adl_serializerESG_IhSaIhEEvEEEERS1_TnNSt9enable_ifIXaaclsr5_PCCPE22_MoveConstructiblePairIT_T0_EEclsr5_PCCPE30_ImplicitlyMoveConvertiblePairISR_SS_EEEbE4typeELb1EEEOSR_OSS_ = comdat any

$_ZNSt17_Rb_tree_iteratorISt4pairIKNSt7__cxx1112basic_stringIcSt11char_traitsIcESaIcEEEN8nlohmann16json_abi_v3_11_310basic_jsonISt3mapSt6vectorS6_blmdSaNS9_14adl_serializerESC_IhSaIhEEvEEEEmmEv = comdat any

$_ZNSt8_Rb_treeINSt7__cxx1112basic_stringIcSt11char_traitsIcESaIcEEESt4pairIKS5_N8nlohmann16json_abi_v3_11_310basic_jsonISt3mapSt6vectorS5_blmdSaNS9_14adl_serializerESC_IhSaIhEEvEEESt10_Select1stISH_ESt4lessIS5_ESaISH_EE6_S_keyEPKSt18_Rb_tree_node_base = comdat any

$_ZNSt4pairIPSt18_Rb_tree_node_baseS1_EC2IS1_S1_TnNSt9enable_ifIXaaclsr5_PCCPE18_ConstructiblePairIT_T0_EEclsr5_PCCPE26_ImplicitlyConvertiblePairIS5_S6_EEEbE4typeELb1EEERKS1_SA_ = comdat any

$_ZStltIcSt11char_traitsIcESaIcEEbRKNSt7__cxx1112basic_stringIT_T0_T1_EESA_ = comdat any

$_ZNKSt10_Select1stISt4pairIKNSt7__cxx1112basic_stringIcSt11char_traitsIcESaIcEEEN8nlohmann16json_abi_v3_11_310basic_jsonISt3mapSt6vectorS6_blmdSaNS9_14adl_serializerESC_IhSaIhEEvEEEEclERKSH_ = comdat any

$_ZNSt8_Rb_treeINSt7__cxx1112basic_stringIcSt11char_traitsIcESaIcEEESt4pairIKS5_N8nlohmann16json_abi_v3_11_310basic_jsonISt3mapSt6vectorS5_blmdSaNS9_14adl_serializerESC_IhSaIhEEvEEESt10_Select1stISH_ESt4lessIS5_ESaISH_EE14_M_insert_nodeEPSt18_Rb_tree_node_baseSP_PSt13_Rb_tree_nodeISH_E = comdat any

$_ZNSt10unique_ptrISt6vectorIN8nlohmann16json_abi_v3_11_310basic_jsonISt3mapS0_NSt7__cxx1112basic_stringIcSt11char_traitsIcESaIcEEEblmdSaNS2_14adl_serializerES0_IhSaIhEEvEESaISE_EEZNSE_6createISG_JPKNS2_6detail8json_refISE_EESM_EEEPT_DpOT0_EUlPSG_E_EC2IST_vEESS_RKST_ = comdat any

$_ZNSt16allocator_traitsISaISt6vectorIN8nlohmann16json_abi_v3_11_310basic_jsonISt3mapS0_NSt7__cxx1112basic_stringIcSt11char_traitsIcESaIcEEEblmdSaNS2_14adl_serializerES0_IhSaIhEEvEESaISE_EEEE9constructISG_JPKNS2_6detail8json_refISE_EESO_EEEvRSH_PT_DpOT0_ = comdat any

$_ZNKSt10unique_ptrISt6vectorIN8nlohmann16json_abi_v3_11_310basic_jsonISt3mapS0_NSt7__cxx1112basic_stringIcSt11char_traitsIcESaIcEEEblmdSaNS2_14adl_serializerES0_IhSaIhEEvEESaISE_EEZNSE_6createISG_JPKNS2_6detail8json_refISE_EESM_EEEPT_DpOT0_EUlPSG_E_E3getEv = comdat any

$_ZNSt10unique_ptrISt6vectorIN8nlohmann16json_abi_v3_11_310basic_jsonISt3mapS0_NSt7__cxx1112basic_stringIcSt11char_traitsIcESaIcEEEblmdSaNS2_14adl_serializerES0_IhSaIhEEvEESaISE_EEZNSE_6createISG_JPKNS2_6detail8json_refISE_EESM_EEEPT_DpOT0_EUlPSG_E_E7releaseEv = comdat any

$_ZNSt10unique_ptrISt6vectorIN8nlohmann16json_abi_v3_11_310basic_jsonISt3mapS0_NSt7__cxx1112basic_stringIcSt11char_traitsIcESaIcEEEblmdSaNS2_14adl_serializerES0_IhSaIhEEvEESaISE_EEZNSE_6createISG_JPKNS2_6detail8json_refISE_EESM_EEEPT_DpOT0_EUlPSG_E_ED2Ev = comdat any

$_ZNSt15__uniq_ptr_dataISt6vectorIN8nlohmann16json_abi_v3_11_310basic_jsonISt3mapS0_NSt7__cxx1112basic_stringIcSt11char_traitsIcESaIcEEEblmdSaNS2_14adl_serializerES0_IhSaIhEEvEESaISE_EEZNSE_6createISG_JPKNS2_6detail8json_refISE_EESM_EEEPT_DpOT0_EUlPSG_E_Lb1ELb0EECI2St15__uniq_ptr_implISG_ST_EIRKST_EESS_OSN_ = comdat any

$_ZNSt15__uniq_ptr_implISt6vectorIN8nlohmann16json_abi_v3_11_310basic_jsonISt3mapS0_NSt7__cxx1112basic_stringIcSt11char_traitsIcESaIcEEEblmdSaNS2_14adl_serializerES0_IhSaIhEEvEESaISE_EEZNSE_6createISG_JPKNS2_6detail8json_refISE_EESM_EEEPT_DpOT0_EUlPSG_E_EC2IRKST_EESS_OSN_ = comdat any

$_ZNSt5tupleIJPSt6vectorIN8nlohmann16json_abi_v3_11_310basic_jsonISt3mapS0_NSt7__cxx1112basic_stringIcSt11char_traitsIcESaIcEEEblmdSaNS2_14adl_serializerES0_IhSaIhEEvEESaISE_EEZNSE_6createISG_JPKNS2_6detail8json_refISE_EESN_EEEPT_DpOT0_EUlSH_E_EEC2IRSH_RKST_TnNSt9enable_ifIXclsr4_TCCIXntcl14__is_alloc_argISO_EEEEE29__is_implicitly_constructibleISO_T0_EEEbE4typeELb1EEEOSO_OS10_ = comdat any

$_ZNSt11_Tuple_implILm0EJPSt6vectorIN8nlohmann16json_abi_v3_11_310basic_jsonISt3mapS0_NSt7__cxx1112basic_stringIcSt11char_traitsIcESaIcEEEblmdSaNS2_14adl_serializerES0_IhSaIhEEvEESaISE_EEZNSE_6createISG_JPKNS2_6detail8json_refISE_EESN_EEEPT_DpOT0_EUlSH_E_EEC2IRSH_JRKST_EvEEOSO_SS_ = comdat any

$_ZNSt11_Tuple_implILm1EJZN8nlohmann16json_abi_v3_11_310basic_jsonISt3mapSt6vectorNSt7__cxx1112basic_stringIcSt11char_traitsIcESaIcEEEblmdSaNS1_14adl_serializerES4_IhSaIhEEvE6createIS4_ISE_SaISE_EEJPKNS1_6detail8json_refISE_EESM_EEEPT_DpOT0_EUlPSH_E_EEC2ERKST_ = comdat any

$_ZNSt10_Head_baseILm1EZN8nlohmann16json_abi_v3_11_310basic_jsonISt3mapSt6vectorNSt7__cxx1112basic_stringIcSt11char_traitsIcESaIcEEEblmdSaNS1_14adl_serializerES4_IhSaIhEEvE6createIS4_ISE_SaISE_EEJPKNS1_6detail8json_refISE_EESM_EEEPT_DpOT0_EUlPSH_E_Lb0EEC2ERKST_ = comdat any

$_ZNSt15__new_allocatorISt6vectorIN8nlohmann16json_abi_v3_11_310basic_jsonISt3mapS0_NSt7__cxx1112basic_stringIcSt11char_traitsIcESaIcEEEblmdSaNS2_14adl_serializerES0_IhSaIhEEvEESaISE_EEE9constructISG_JPKNS2_6detail8json_refISE_EESN_EEEvPT_DpOT0_ = comdat any

$_ZNSaIN8nlohmann16json_abi_v3_11_310basic_jsonISt3mapSt6vectorNSt7__cxx1112basic_stringIcSt11char_traitsIcESaIcEEEblmdSaNS0_14adl_serializerES3_IhSaIhEEvEEEC2Ev = comdat any

$_ZNSt6vectorIN8nlohmann16json_abi_v3_11_310basic_jsonISt3mapS_NSt7__cxx1112basic_stringIcSt11char_traitsIcESaIcEEEblmdSaNS1_14adl_serializerES_IhSaIhEEvEESaISD_EEC2IPKNS1_6detail8json_refISD_EEvEET_SM_RKSE_ = comdat any

$_ZNSt12_Vector_baseIN8nlohmann16json_abi_v3_11_310basic_jsonISt3mapSt6vectorNSt7__cxx1112basic_stringIcSt11char_traitsIcESaIcEEEblmdSaNS1_14adl_serializerES4_IhSaIhEEvEESaISE_EEC2ERKSF_ = comdat any

$_ZNSt6vectorIN8nlohmann16json_abi_v3_11_310basic_jsonISt3mapS_NSt7__cxx1112basic_stringIcSt11char_traitsIcESaIcEEEblmdSaNS1_14adl_serializerES_IhSaIhEEvEESaISD_EE19_M_range_initializeIPKNS1_6detail8json_refISD_EEEEvT_SM_St20forward_iterator_tag = comdat any

$_ZSt8distanceIPKN8nlohmann16json_abi_v3_11_36detail8json_refINS1_10basic_jsonISt3mapSt6vectorNSt7__cxx1112basic_stringIcSt11char_traitsIcESaIcEEEblmdSaNS1_14adl_serializerES6_IhSaIhEEvEEEEENSt15iterator_traitsIT_E15difference_typeESL_SL_ = comdat any

$_ZNSt6vectorIN8nlohmann16json_abi_v3_11_310basic_jsonISt3mapS_NSt7__cxx1112basic_stringIcSt11char_traitsIcESaIcEEEblmdSaNS1_14adl_serializerES_IhSaIhEEvEESaISD_EE17_S_check_init_lenEmRKSE_ = comdat any

$_ZSt22__uninitialized_copy_aIPKN8nlohmann16json_abi_v3_11_36detail8json_refINS1_10basic_jsonISt3mapSt6vectorNSt7__cxx1112basic_stringIcSt11char_traitsIcESaIcEEEblmdSaNS1_14adl_serializerES6_IhSaIhEEvEEEEPSG_SG_ET0_T_SM_SL_RSaIT1_E = comdat any

$_ZSt10__distanceIPKN8nlohmann16json_abi_v3_11_36detail8json_refINS1_10basic_jsonISt3mapSt6vectorNSt7__cxx1112basic_stringIcSt11char_traitsIcESaIcEEEblmdSaNS1_14adl_serializerES6_IhSaIhEEvEEEEENSt15iterator_traitsIT_E15difference_typeESL_SL_St26random_access_iterator_tag = comdat any

$_ZSt18uninitialized_copyIPKN8nlohmann16json_abi_v3_11_36detail8json_refINS1_10basic_jsonISt3mapSt6vectorNSt7__cxx1112basic_stringIcSt11char_traitsIcESaIcEEEblmdSaNS1_14adl_serializerES6_IhSaIhEEvEEEEPSG_ET0_T_SM_SL_ = comdat any

$_ZNSt20__uninitialized_copyILb0EE13__uninit_copyIPKN8nlohmann16json_abi_v3_11_36detail8json_refINS3_10basic_jsonISt3mapSt6vectorNSt7__cxx1112basic_stringIcSt11char_traitsIcESaIcEEEblmdSaNS3_14adl_serializerES8_IhSaIhEEvEEEEPSI_EET0_T_SO_SN_ = comdat any

$_ZSt16__do_uninit_copyIPKN8nlohmann16json_abi_v3_11_36detail8json_refINS1_10basic_jsonISt3mapSt6vectorNSt7__cxx1112basic_stringIcSt11char_traitsIcESaIcEEEblmdSaNS1_14adl_serializerES6_IhSaIhEEvEEEEPSG_ET0_T_SM_SL_ = comdat any

$_ZSt10_ConstructIN8nlohmann16json_abi_v3_11_310basic_jsonISt3mapSt6vectorNSt7__cxx1112basic_stringIcSt11char_traitsIcESaIcEEEblmdSaNS1_14adl_serializerES4_IhSaIhEEvEEJRKNS1_6detail8json_refISE_EEEEvPT_DpOT0_ = comdat any

$_ZN8nlohmann16json_abi_v3_11_310basic_jsonISt3mapSt6vectorNSt7__cxx1112basic_stringIcSt11char_traitsIcESaIcEEEblmdSaNS0_14adl_serializerES3_IhSaIhEEvEC2INS0_6detail8json_refISD_EETnNSt9enable_ifIXsr6detail11conjunctionINSF_11is_json_refIT_EESt7is_sameINSK_10value_typeESD_EEE5valueEiE4typeELi0EEERKSK_ = comdat any

$_ZNKSt15__uniq_ptr_implISt6vectorIN8nlohmann16json_abi_v3_11_310basic_jsonISt3mapS0_NSt7__cxx1112basic_stringIcSt11char_traitsIcESaIcEEEblmdSaNS2_14adl_serializerES0_IhSaIhEEvEESaISE_EEZNSE_6createISG_JPKNS2_6detail8json_refISE_EESM_EEEPT_DpOT0_EUlPSG_E_E6_M_ptrEv = comdat any

$_ZSt3getILm0EJPSt6vectorIN8nlohmann16json_abi_v3_11_310basic_jsonISt3mapS0_NSt7__cxx1112basic_stringIcSt11char_traitsIcESaIcEEEblmdSaNS2_14adl_serializerES0_IhSaIhEEvEESaISE_EEZNSE_6createISG_JPKNS2_6detail8json_refISE_EESN_EEEPT_DpOT0_EUlSH_E_EERKNSt13tuple_elementIXT_ESt5tupleIJDpSQ_EEE4typeERKSX_ = comdat any

$_ZSt12__get_helperILm0EPSt6vectorIN8nlohmann16json_abi_v3_11_310basic_jsonISt3mapS0_NSt7__cxx1112basic_stringIcSt11char_traitsIcESaIcEEEblmdSaNS2_14adl_serializerES0_IhSaIhEEvEESaISE_EEJZNSE_6createISG_JPKNS2_6detail8json_refISE_EESN_EEEPT_DpOT0_EUlSH_E_EERKT0_RKSt11_Tuple_implIXT_EJSU_DpT1_EE = comdat any

$_ZNSt11_Tuple_implILm0EJPSt6vectorIN8nlohmann16json_abi_v3_11_310basic_jsonISt3mapS0_NSt7__cxx1112basic_stringIcSt11char_traitsIcESaIcEEEblmdSaNS2_14adl_serializerES0_IhSaIhEEvEESaISE_EEZNSE_6createISG_JPKNS2_6detail8json_refISE_EESN_EEEPT_DpOT0_EUlSH_E_EE7_M_headERKSU_ = comdat any

$_ZNSt15__uniq_ptr_implISt6vectorIN8nlohmann16json_abi_v3_11_310basic_jsonISt3mapS0_NSt7__cxx1112basic_stringIcSt11char_traitsIcESaIcEEEblmdSaNS2_14adl_serializerES0_IhSaIhEEvEESaISE_EEZNSE_6createISG_JPKNS2_6detail8json_refISE_EESM_EEEPT_DpOT0_EUlPSG_E_E7releaseEv = comdat any

$_ZNSt15__uniq_ptr_implISt6vectorIN8nlohmann16json_abi_v3_11_310basic_jsonISt3mapS0_NSt7__cxx1112basic_stringIcSt11char_traitsIcESaIcEEEblmdSaNS2_14adl_serializerES0_IhSaIhEEvEESaISE_EEZNSE_6createISG_JPKNS2_6detail8json_refISE_EESM_EEEPT_DpOT0_EUlPSG_E_E6_M_ptrEv = comdat any

$_ZSt3getILm0EJPSt6vectorIN8nlohmann16json_abi_v3_11_310basic_jsonISt3mapS0_NSt7__cxx1112basic_stringIcSt11char_traitsIcESaIcEEEblmdSaNS2_14adl_serializerES0_IhSaIhEEvEESaISE_EEZNSE_6createISG_JPKNS2_6detail8json_refISE_EESN_EEEPT_DpOT0_EUlSH_E_EERNSt13tuple_elementIXT_ESt5tupleIJDpSQ_EEE4typeERSX_ = comdat any

$_ZSt12__get_helperILm0EPSt6vectorIN8nlohmann16json_abi_v3_11_310basic_jsonISt3mapS0_NSt7__cxx1112basic_stringIcSt11char_traitsIcESaIcEEEblmdSaNS2_14adl_serializerES0_IhSaIhEEvEESaISE_EEJZNSE_6createISG_JPKNS2_6detail8json_refISE_EESN_EEEPT_DpOT0_EUlSH_E_EERT0_RSt11_Tuple_implIXT_EJSU_DpT1_EE = comdat any

$_ZNSt11_Tuple_implILm0EJPSt6vectorIN8nlohmann16json_abi_v3_11_310basic_jsonISt3mapS0_NSt7__cxx1112basic_stringIcSt11char_traitsIcESaIcEEEblmdSaNS2_14adl_serializerES0_IhSaIhEEvEESaISE_EEZNSE_6createISG_JPKNS2_6detail8json_refISE_EESN_EEEPT_DpOT0_EUlSH_E_EE7_M_headERSU_ = comdat any

$_ZNSt10unique_ptrISt6vectorIN8nlohmann16json_abi_v3_11_310basic_jsonISt3mapS0_NSt7__cxx1112basic_stringIcSt11char_traitsIcESaIcEEEblmdSaNS2_14adl_serializerES0_IhSaIhEEvEESaISE_EEZNSE_6createISG_JPKNS2_6detail8json_refISE_EESM_EEEPT_DpOT0_EUlPSG_E_E11get_deleterEv = comdat any

$_ZZN8nlohmann16json_abi_v3_11_310basic_jsonISt3mapSt6vectorNSt7__cxx1112basic_stringIcSt11char_traitsIcESaIcEEEblmdSaNS0_14adl_serializerES3_IhSaIhEEvE6createIS3_ISD_SaISD_EEJPKNS0_6detail8json_refISD_EESL_EEEPT_DpOT0_ENKUlPSG_E_clESR_ = comdat any

$_ZNSt15__uniq_ptr_implISt6vectorIN8nlohmann16json_abi_v3_11_310basic_jsonISt3mapS0_NSt7__cxx1112basic_stringIcSt11char_traitsIcESaIcEEEblmdSaNS2_14adl_serializerES0_IhSaIhEEvEESaISE_EEZNSE_6createISG_JPKNS2_6detail8json_refISE_EESM_EEEPT_DpOT0_EUlPSG_E_E10_M_deleterEv = comdat any

$_ZSt3getILm1EJPSt6vectorIN8nlohmann16json_abi_v3_11_310basic_jsonISt3mapS0_NSt7__cxx1112basic_stringIcSt11char_traitsIcESaIcEEEblmdSaNS2_14adl_serializerES0_IhSaIhEEvEESaISE_EEZNSE_6createISG_JPKNS2_6detail8json_refISE_EESN_EEEPT_DpOT0_EUlSH_E_EERNSt13tuple_elementIXT_ESt5tupleIJDpSQ_EEE4typeERSX_ = comdat any

$_ZSt12__get_helperILm1EZN8nlohmann16json_abi_v3_11_310basic_jsonISt3mapSt6vectorNSt7__cxx1112basic_stringIcSt11char_traitsIcESaIcEEEblmdSaNS1_14adl_serializerES4_IhSaIhEEvE6createIS4_ISE_SaISE_EEJPKNS1_6detail8json_refISE_EESM_EEEPT_DpOT0_EUlPSH_E_JEERT0_RSt11_Tuple_implIXT_EJSU_DpT1_EE = comdat any

$_ZNSt11_Tuple_implILm1EJZN8nlohmann16json_abi_v3_11_310basic_jsonISt3mapSt6vectorNSt7__cxx1112basic_stringIcSt11char_traitsIcESaIcEEEblmdSaNS1_14adl_serializerES4_IhSaIhEEvE6createIS4_ISE_SaISE_EEJPKNS1_6detail8json_refISE_EESM_EEEPT_DpOT0_EUlPSH_E_EE7_M_headERSU_ = comdat any

$_ZNSt10_Head_baseILm1EZN8nlohmann16json_abi_v3_11_310basic_jsonISt3mapSt6vectorNSt7__cxx1112basic_stringIcSt11char_traitsIcESaIcEEEblmdSaNS1_14adl_serializerES4_IhSaIhEEvE6createIS4_ISE_SaISE_EEJPKNS1_6detail8json_refISE_EESM_EEEPT_DpOT0_EUlPSH_E_Lb0EE7_M_headERSU_ = comdat any

$_ZN8nlohmann16json_abi_v3_11_314adl_serializerIA4_cvE7to_jsonINS0_10basic_jsonISt3mapSt6vectorNSt7__cxx1112basic_stringIcSt11char_traitsIcESaIcEEEblmdSaS1_S7_IhSaIhEEvEERA4_KcEEDTcmclL_ZNS0_12_GLOBAL__N_17to_jsonEEfp_clsr3stdE7forwardIT0_Efp0_EEcvv_EERT_OSL_ = comdat any

$_ZNK8nlohmann16json_abi_v3_11_36detail10to_json_fnclINS0_10basic_jsonISt3mapSt6vectorNSt7__cxx1112basic_stringIcSt11char_traitsIcESaIcEEEblmdSaNS0_14adl_serializerES6_IhSaIhEEvEERA4_KcEEDTcmcl7to_jsonfp_clsr3stdE7forwardIT0_Efp0_EEcvv_EERT_OSK_ = comdat any

$_ZN8nlohmann16json_abi_v3_11_36detail7to_jsonINS0_10basic_jsonISt3mapSt6vectorNSt7__cxx1112basic_stringIcSt11char_traitsIcESaIcEEEblmdSaNS0_14adl_serializerES5_IhSaIhEEvEEA4_cTnNSt9enable_ifIXsr3std16is_constructibleINT_8string_tET0_EE5valueEiE4typeELi0EEEvRSI_RKSK_ = comdat any

$_ZN8nlohmann16json_abi_v3_11_36detail20external_constructorILNS1_7value_tE3EE9constructINS0_10basic_jsonISt3mapSt6vectorNSt7__cxx1112basic_stringIcSt11char_traitsIcESaIcEEEblmdSaNS0_14adl_serializerES8_IhSaIhEEvEEA4_cTnNSt9enable_ifIXntsr3std7is_sameIT0_NT_8string_tEEE5valueEiE4typeELi0EEEvRSM_RKSL_ = comdat any

$_ZN8nlohmann16json_abi_v3_11_310basic_jsonISt3mapSt6vectorNSt7__cxx1112basic_stringIcSt11char_traitsIcESaIcEEEblmdSaNS0_14adl_serializerES3_IhSaIhEEvE6createIS9_JRA4_KcEEEPT_DpOT0_ = comdat any

$_ZNSt10unique_ptrINSt7__cxx1112basic_stringIcSt11char_traitsIcESaIcEEEZN8nlohmann16json_abi_v3_11_310basic_jsonISt3mapSt6vectorS5_blmdSaNS7_14adl_serializerESA_IhSaIhEEvE6createIS5_JRA4_KcEEEPT_DpOT0_EUlPS5_E_EC2ISP_vEESO_RKSP_ = comdat any

$_ZNSt16allocator_traitsISaINSt7__cxx1112basic_stringIcSt11char_traitsIcESaIcEEEEE9constructIS5_JRA4_KcEEEvRS6_PT_DpOT0_ = comdat any

$_ZNKSt10unique_ptrINSt7__cxx1112basic_stringIcSt11char_traitsIcESaIcEEEZN8nlohmann16json_abi_v3_11_310basic_jsonISt3mapSt6vectorS5_blmdSaNS7_14adl_serializerESA_IhSaIhEEvE6createIS5_JRA4_KcEEEPT_DpOT0_EUlPS5_E_E3getEv = comdat any

$_ZNSt10unique_ptrINSt7__cxx1112basic_stringIcSt11char_traitsIcESaIcEEEZN8nlohmann16json_abi_v3_11_310basic_jsonISt3mapSt6vectorS5_blmdSaNS7_14adl_serializerESA_IhSaIhEEvE6createIS5_JRA4_KcEEEPT_DpOT0_EUlPS5_E_E7releaseEv = comdat any

$_ZNSt10unique_ptrINSt7__cxx1112basic_stringIcSt11char_traitsIcESaIcEEEZN8nlohmann16json_abi_v3_11_310basic_jsonISt3mapSt6vectorS5_blmdSaNS7_14adl_serializerESA_IhSaIhEEvE6createIS5_JRA4_KcEEEPT_DpOT0_EUlPS5_E_ED2Ev = comdat any

$_ZNSt15__uniq_ptr_dataINSt7__cxx1112basic_stringIcSt11char_traitsIcESaIcEEEZN8nlohmann16json_abi_v3_11_310basic_jsonISt3mapSt6vectorS5_blmdSaNS7_14adl_serializerESA_IhSaIhEEvE6createIS5_JRA4_KcEEEPT_DpOT0_EUlPS5_E_Lb1ELb0EECI2St15__uniq_ptr_implIS5_SP_EIRKSP_EESO_OSJ_ = comdat any

$_ZNSt15__uniq_ptr_implINSt7__cxx1112basic_stringIcSt11char_traitsIcESaIcEEEZN8nlohmann16json_abi_v3_11_310basic_jsonISt3mapSt6vectorS5_blmdSaNS7_14adl_serializerESA_IhSaIhEEvE6createIS5_JRA4_KcEEEPT_DpOT0_EUlPS5_E_EC2IRKSP_EESO_OSJ_ = comdat any

$_ZNSt5tupleIJPNSt7__cxx1112basic_stringIcSt11char_traitsIcESaIcEEEZN8nlohmann16json_abi_v3_11_310basic_jsonISt3mapSt6vectorS5_blmdSaNS8_14adl_serializerESB_IhSaIhEEvE6createIS5_JRA4_KcEEEPT_DpOT0_EUlS6_E_EEC2IRS6_RKSP_TnNSt9enable_ifIXclsr4_TCCIXntcl14__is_alloc_argISK_EEEEE29__is_implicitly_constructibleISK_T0_EEEbE4typeELb1EEEOSK_OSW_ = comdat any

$_ZNSt11_Tuple_implILm0EJPNSt7__cxx1112basic_stringIcSt11char_traitsIcESaIcEEEZN8nlohmann16json_abi_v3_11_310basic_jsonISt3mapSt6vectorS5_blmdSaNS8_14adl_serializerESB_IhSaIhEEvE6createIS5_JRA4_KcEEEPT_DpOT0_EUlS6_E_EEC2IRS6_JRKSP_EvEEOSK_SO_ = comdat any

$_ZNSt11_Tuple_implILm1EJZN8nlohmann16json_abi_v3_11_310basic_jsonISt3mapSt6vectorNSt7__cxx1112basic_stringIcSt11char_traitsIcESaIcEEEblmdSaNS1_14adl_serializerES4_IhSaIhEEvE6createISA_JRA4_KcEEEPT_DpOT0_EUlPSA_E_EEC2ERKSP_ = comdat any

$_ZNSt10_Head_baseILm1EZN8nlohmann16json_abi_v3_11_310basic_jsonISt3mapSt6vectorNSt7__cxx1112basic_stringIcSt11char_traitsIcESaIcEEEblmdSaNS1_14adl_serializerES4_IhSaIhEEvE6createISA_JRA4_KcEEEPT_DpOT0_EUlPSA_E_Lb0EEC2ERKSP_ = comdat any

$_ZNSt15__new_allocatorINSt7__cxx1112basic_stringIcSt11char_traitsIcESaIcEEEE9constructIS5_JRA4_KcEEEvPT_DpOT0_ = comdat any

$_ZNKSt15__uniq_ptr_implINSt7__cxx1112basic_stringIcSt11char_traitsIcESaIcEEEZN8nlohmann16json_abi_v3_11_310basic_jsonISt3mapSt6vectorS5_blmdSaNS7_14adl_serializerESA_IhSaIhEEvE6createIS5_JRA4_KcEEEPT_DpOT0_EUlPS5_E_E6_M_ptrEv = comdat any

$_ZSt3getILm0EJPNSt7__cxx1112basic_stringIcSt11char_traitsIcESaIcEEEZN8nlohmann16json_abi_v3_11_310basic_jsonISt3mapSt6vectorS5_blmdSaNS8_14adl_serializerESB_IhSaIhEEvE6createIS5_JRA4_KcEEEPT_DpOT0_EUlS6_E_EERKNSt13tuple_elementIXT_ESt5tupleIJDpSM_EEE4typeERKST_ = comdat any

$_ZSt12__get_helperILm0EPNSt7__cxx1112basic_stringIcSt11char_traitsIcESaIcEEEJZN8nlohmann16json_abi_v3_11_310basic_jsonISt3mapSt6vectorS5_blmdSaNS8_14adl_serializerESB_IhSaIhEEvE6createIS5_JRA4_KcEEEPT_DpOT0_EUlS6_E_EERKT0_RKSt11_Tuple_implIXT_EJSQ_DpT1_EE = comdat any

$_ZNSt11_Tuple_implILm0EJPNSt7__cxx1112basic_stringIcSt11char_traitsIcESaIcEEEZN8nlohmann16json_abi_v3_11_310basic_jsonISt3mapSt6vectorS5_blmdSaNS8_14adl_serializerESB_IhSaIhEEvE6createIS5_JRA4_KcEEEPT_DpOT0_EUlS6_E_EE7_M_headERKSQ_ = comdat any

$_ZNSt15__uniq_ptr_implINSt7__cxx1112basic_stringIcSt11char_traitsIcESaIcEEEZN8nlohmann16json_abi_v3_11_310basic_jsonISt3mapSt6vectorS5_blmdSaNS7_14adl_serializerESA_IhSaIhEEvE6createIS5_JRA4_KcEEEPT_DpOT0_EUlPS5_E_E7releaseEv = comdat any

$_ZNSt15__uniq_ptr_implINSt7__cxx1112basic_stringIcSt11char_traitsIcESaIcEEEZN8nlohmann16json_abi_v3_11_310basic_jsonISt3mapSt6vectorS5_blmdSaNS7_14adl_serializerESA_IhSaIhEEvE6createIS5_JRA4_KcEEEPT_DpOT0_EUlPS5_E_E6_M_ptrEv = comdat any

$_ZSt3getILm0EJPNSt7__cxx1112basic_stringIcSt11char_traitsIcESaIcEEEZN8nlohmann16json_abi_v3_11_310basic_jsonISt3mapSt6vectorS5_blmdSaNS8_14adl_serializerESB_IhSaIhEEvE6createIS5_JRA4_KcEEEPT_DpOT0_EUlS6_E_EERNSt13tuple_elementIXT_ESt5tupleIJDpSM_EEE4typeERST_ = comdat any

$_ZSt12__get_helperILm0EPNSt7__cxx1112basic_stringIcSt11char_traitsIcESaIcEEEJZN8nlohmann16json_abi_v3_11_310basic_jsonISt3mapSt6vectorS5_blmdSaNS8_14adl_serializerESB_IhSaIhEEvE6createIS5_JRA4_KcEEEPT_DpOT0_EUlS6_E_EERT0_RSt11_Tuple_implIXT_EJSQ_DpT1_EE = comdat any

$_ZNSt11_Tuple_implILm0EJPNSt7__cxx1112basic_stringIcSt11char_traitsIcESaIcEEEZN8nlohmann16json_abi_v3_11_310basic_jsonISt3mapSt6vectorS5_blmdSaNS8_14adl_serializerESB_IhSaIhEEvE6createIS5_JRA4_KcEEEPT_DpOT0_EUlS6_E_EE7_M_headERSQ_ = comdat any

$_ZNSt10unique_ptrINSt7__cxx1112basic_stringIcSt11char_traitsIcESaIcEEEZN8nlohmann16json_abi_v3_11_310basic_jsonISt3mapSt6vectorS5_blmdSaNS7_14adl_serializerESA_IhSaIhEEvE6createIS5_JRA4_KcEEEPT_DpOT0_EUlPS5_E_E11get_deleterEv = comdat any

$_ZZN8nlohmann16json_abi_v3_11_310basic_jsonISt3mapSt6vectorNSt7__cxx1112basic_stringIcSt11char_traitsIcESaIcEEEblmdSaNS0_14adl_serializerES3_IhSaIhEEvE6createIS9_JRA4_KcEEEPT_DpOT0_ENKUlPS9_E_clESN_ = comdat any

$_ZNSt15__uniq_ptr_implINSt7__cxx1112basic_stringIcSt11char_traitsIcESaIcEEEZN8nlohmann16json_abi_v3_11_310basic_jsonISt3mapSt6vectorS5_blmdSaNS7_14adl_serializerESA_IhSaIhEEvE6createIS5_JRA4_KcEEEPT_DpOT0_EUlPS5_E_E10_M_deleterEv = comdat any

$_ZSt3getILm1EJPNSt7__cxx1112basic_stringIcSt11char_traitsIcESaIcEEEZN8nlohmann16json_abi_v3_11_310basic_jsonISt3mapSt6vectorS5_blmdSaNS8_14adl_serializerESB_IhSaIhEEvE6createIS5_JRA4_KcEEEPT_DpOT0_EUlS6_E_EERNSt13tuple_elementIXT_ESt5tupleIJDpSM_EEE4typeERST_ = comdat any

$_ZSt12__get_helperILm1EZN8nlohmann16json_abi_v3_11_310basic_jsonISt3mapSt6vectorNSt7__cxx1112basic_stringIcSt11char_traitsIcESaIcEEEblmdSaNS1_14adl_serializerES4_IhSaIhEEvE6createISA_JRA4_KcEEEPT_DpOT0_EUlPSA_E_JEERT0_RSt11_Tuple_implIXT_EJSQ_DpT1_EE = comdat any

$_ZNSt11_Tuple_implILm1EJZN8nlohmann16json_abi_v3_11_310basic_jsonISt3mapSt6vectorNSt7__cxx1112basic_stringIcSt11char_traitsIcESaIcEEEblmdSaNS1_14adl_serializerES4_IhSaIhEEvE6createISA_JRA4_KcEEEPT_DpOT0_EUlPSA_E_EE7_M_headERSQ_ = comdat any

$_ZNSt10_Head_baseILm1EZN8nlohmann16json_abi_v3_11_310basic_jsonISt3mapSt6vectorNSt7__cxx1112basic_stringIcSt11char_traitsIcESaIcEEEblmdSaNS1_14adl_serializerES4_IhSaIhEEvE6createISA_JRA4_KcEEEPT_DpOT0_EUlPSA_E_Lb0EE7_M_headERSQ_ = comdat any

$_ZN7doctest6detail14Expression_lhsINSt7__cxx1112basic_stringIcSt11char_traitsIcESaIcEEEEC2EOS7_NS_10assertType4EnumE = comdat any

$_ZSteqIcSt11char_traitsIcESaIcEEbRKNSt7__cxx1112basic_stringIT_T0_T1_EEPKS5_ = comdat any

$_ZN7doctest6detail7forwardIKNSt7__cxx1112basic_stringIcSt11char_traitsIcESaIcEEEEEOT_RNS0_5types16remove_referenceIS9_E4typeE = comdat any

$_ZN7doctest6detail7forwardIRA7_KcEEOT_RNS0_5types16remove_referenceIS5_E4typeE = comdat any

$_ZN7doctest6detail19stringifyBinaryExprINSt7__cxx1112basic_stringIcSt11char_traitsIcESaIcEEEA7_cEENS_6StringERKT_PKcRKT0_ = comdat any

$_ZN7doctest8toStringINSt7__cxx1112basic_stringIcSt11char_traitsIcESaIcEEETnNS_6detail5types9enable_ifIXntsr6detail35should_stringify_as_underlying_typeIT_EE5valueEbE4typeELb1EEENS_6StringERKSA_ = comdat any

$_ZN7doctest8toStringIA7_cTnNS_6detail5types9enable_ifIXntsr6detail35should_stringify_as_underlying_typeIT_EE5valueEbE4typeELb1EEENS_6StringERKS5_ = comdat any

$_ZN7doctest6detail15StringMakerBaseILb1EE7convertINSt7__cxx1112basic_stringIcSt11char_traitsIcESaIcEEEEENS_6StringERKT_ = comdat any

$_ZN7doctest6detail8toStreamINSt7__cxx1112basic_stringIcSt11char_traitsIcESaIcEEEEENS_6StringERKT_ = comdat any

$_ZN7doctest6detail7fillossINSt7__cxx1112basic_stringIcSt11char_traitsIcESaIcEEEEEvPSoRKT_ = comdat any

$_ZN7doctest6detail8filldataINSt7__cxx1112basic_stringIcSt11char_traitsIcESaIcEEEE4fillEPSoRKS7_ = comdat any

$_ZN7doctest6detail15StringMakerBaseILb1EE7convertIA7_cEENS_6StringERKT_ = comdat any

$_ZN7doctest6detail8toStreamIA7_cEENS_6StringERKT_ = comdat any

$_ZN7doctest6detail7fillossIcLm7EEEvPSoRAT0__KT_ = comdat any

$_ZN7doctest6detail7fillossIA7_KcEEvPSoRKT_ = comdat any

$_ZN7doctest6detail8filldataIA7_KcE4fillEPSoRS3_ = comdat any

$_ZN8nlohmann16json_abi_v3_11_36detail9iter_implIKNS0_10basic_jsonISt3mapSt6vectorNSt7__cxx1112basic_stringIcSt11char_traitsIcESaIcEEEblmdSaNS0_14adl_serializerES5_IhSaIhEEvEEEC2ERKSH_ = comdat any

$_ZNSt8_Rb_treeINSt7__cxx1112basic_stringIcSt11char_traitsIcESaIcEEESt4pairIKS5_N8nlohmann16json_abi_v3_11_310basic_jsonISt3mapSt6vectorS5_blmdSaNS9_14adl_serializerESC_IhSaIhEEvEEESt10_Select1stISH_ESt4lessIS5_ESaISH_EE3endEv = comdat any

$_ZSt7advanceISt17_Rb_tree_iteratorISt4pairIKNSt7__cxx1112basic_stringIcSt11char_traitsIcESaIcEEEN8nlohmann16json_abi_v3_11_310basic_jsonISt3mapSt6vectorS7_blmdSaNSA_14adl_serializerESD_IhSaIhEEvEEEEiEvRT_T0_ = comdat any

$_ZSt7advanceIN9__gnu_cxx17__normal_iteratorIPN8nlohmann16json_abi_v3_11_310basic_jsonISt3mapSt6vectorNSt7__cxx1112basic_stringIcSt11char_traitsIcESaIcEEEblmdSaNS3_14adl_serializerES6_IhSaIhEEvEES6_ISG_SaISG_EEEEiEvRT_T0_ = comdat any

$_ZN8nlohmann16json_abi_v3_11_36detail20primitive_iterator_tppEv = comdat any

$_ZSt9__advanceISt17_Rb_tree_iteratorISt4pairIKNSt7__cxx1112basic_stringIcSt11char_traitsIcESaIcEEEN8nlohmann16json_abi_v3_11_310basic_jsonISt3mapSt6vectorS7_blmdSaNSA_14adl_serializerESD_IhSaIhEEvEEEElEvRT_T0_St26bidirectional_iterator_tag = comdat any

$_ZSt19__iterator_categoryISt17_Rb_tree_iteratorISt4pairIKNSt7__cxx1112basic_stringIcSt11char_traitsIcESaIcEEEN8nlohmann16json_abi_v3_11_310basic_jsonISt3mapSt6vectorS7_blmdSaNSA_14adl_serializerESD_IhSaIhEEvEEEEENSt15iterator_traitsIT_E17iterator_categoryERKSL_ = comdat any

$_ZSt9__advanceIN9__gnu_cxx17__normal_iteratorIPN8nlohmann16json_abi_v3_11_310basic_jsonISt3mapSt6vectorNSt7__cxx1112basic_stringIcSt11char_traitsIcESaIcEEEblmdSaNS3_14adl_serializerES6_IhSaIhEEvEES6_ISG_SaISG_EEEElEvRT_T0_St26random_access_iterator_tag = comdat any

$_ZSt19__iterator_categoryIN9__gnu_cxx17__normal_iteratorIPN8nlohmann16json_abi_v3_11_310basic_jsonISt3mapSt6vectorNSt7__cxx1112basic_stringIcSt11char_traitsIcESaIcEEEblmdSaNS3_14adl_serializerES6_IhSaIhEEvEES6_ISG_SaISG_EEEEENSt15iterator_traitsIT_E17iterator_categoryERKSM_ = comdat any

$_ZN9__gnu_cxx17__normal_iteratorIPN8nlohmann16json_abi_v3_11_310basic_jsonISt3mapSt6vectorNSt7__cxx1112basic_stringIcSt11char_traitsIcESaIcEEEblmdSaNS2_14adl_serializerES5_IhSaIhEEvEES5_ISF_SaISF_EEEppEv = comdat any

$_ZN9__gnu_cxx17__normal_iteratorIPN8nlohmann16json_abi_v3_11_310basic_jsonISt3mapSt6vectorNSt7__cxx1112basic_stringIcSt11char_traitsIcESaIcEEEblmdSaNS2_14adl_serializerES5_IhSaIhEEvEES5_ISF_SaISF_EEEmmEv = comdat any

$_ZN9__gnu_cxx17__normal_iteratorIPN8nlohmann16json_abi_v3_11_310basic_jsonISt3mapSt6vectorNSt7__cxx1112basic_stringIcSt11char_traitsIcESaIcEEEblmdSaNS2_14adl_serializerES5_IhSaIhEEvEES5_ISF_SaISF_EEEpLEl = comdat any

$_ZN8nlohmann16json_abi_v3_11_36detail20primitive_iterator_tmmEv = comdat any

$_ZTSN8nlohmann16json_abi_v3_11_36detail16invalid_iteratorE = comdat any

$_ZTSN8nlohmann16json_abi_v3_11_36detail9exceptionE = comdat any

$_ZTIN8nlohmann16json_abi_v3_11_36detail9exceptionE = comdat any

$_ZTIN8nlohmann16json_abi_v3_11_36detail16invalid_iteratorE = comdat any

$_ZTSN8nlohmann16json_abi_v3_11_36detail11other_errorE = comdat any

$_ZTIN8nlohmann16json_abi_v3_11_36detail11other_errorE = comdat any

$_ZZNSt8__detail18__to_chars_10_implIjEEvPcjT_E8__digits = comdat any

$_ZTVN8nlohmann16json_abi_v3_11_36detail11other_errorE = comdat any

$_ZTVN8nlohmann16json_abi_v3_11_36detail9exceptionE = comdat any

$_ZTVN8nlohmann16json_abi_v3_11_36detail16invalid_iteratorE = comdat any

$_ZN8nlohmann16json_abi_v3_11_36detail12static_constINS1_10to_json_fnEE5valueE = comdat any

$_ZTVSt23_Sp_counted_ptr_inplaceIN8nlohmann16json_abi_v3_11_36detail21output_stream_adapterIcEESaIvELN9__gnu_cxx12_Lock_policyE2EE = comdat any

$_ZTSSt23_Sp_counted_ptr_inplaceIN8nlohmann16json_abi_v3_11_36detail21output_stream_adapterIcEESaIvELN9__gnu_cxx12_Lock_policyE2EE = comdat any

$_ZTSSt16_Sp_counted_baseILN9__gnu_cxx12_Lock_policyE2EE = comdat any

$_ZTSSt11_Mutex_baseILN9__gnu_cxx12_Lock_policyE2EE = comdat any

$_ZTISt11_Mutex_baseILN9__gnu_cxx12_Lock_policyE2EE = comdat any

$_ZTISt16_Sp_counted_baseILN9__gnu_cxx12_Lock_policyE2EE = comdat any

$_ZTISt23_Sp_counted_ptr_inplaceIN8nlohmann16json_abi_v3_11_36detail21output_stream_adapterIcEESaIvELN9__gnu_cxx12_Lock_policyE2EE = comdat any

$_ZTVSt16_Sp_counted_baseILN9__gnu_cxx12_Lock_policyE2EE = comdat any

$_ZTVN8nlohmann16json_abi_v3_11_36detail21output_stream_adapterIcEE = comdat any

$_ZTSN8nlohmann16json_abi_v3_11_36detail21output_stream_adapterIcEE = comdat any

$_ZTSN8nlohmann16json_abi_v3_11_36detail23output_adapter_protocolIcEE = comdat any

$_ZTIN8nlohmann16json_abi_v3_11_36detail23output_adapter_protocolIcEE = comdat any

$_ZTIN8nlohmann16json_abi_v3_11_36detail21output_stream_adapterIcEE = comdat any

$_ZTVN8nlohmann16json_abi_v3_11_36detail23output_adapter_protocolIcEE = comdat any

$_ZTSSt19_Sp_make_shared_tag = comdat any

$_ZTISt19_Sp_make_shared_tag = comdat any

$_ZZNSt19_Sp_make_shared_tag5_S_tiEvE5__tag = comdat any

$_ZTSN8nlohmann16json_abi_v3_11_36detail10type_errorE = comdat any

$_ZTIN8nlohmann16json_abi_v3_11_36detail10type_errorE = comdat any

$_ZZN8nlohmann16json_abi_v3_11_36detail10serializerINS0_10basic_jsonISt3mapSt6vectorNSt7__cxx1112basic_stringIcSt11char_traitsIcESaIcEEEblmdSaNS0_14adl_serializerES5_IhSaIhEEvEEE6decodeERhRjhE5utf8d = comdat any

$_ZTVN8nlohmann16json_abi_v3_11_36detail10type_errorE = comdat any

$_ZZNSt8__detail18__to_chars_10_implImEEvPcjT_E8__digits = comdat any

$_ZZN8nlohmann16json_abi_v3_11_36detail10serializerINS0_10basic_jsonISt3mapSt6vectorNSt7__cxx1112basic_stringIcSt11char_traitsIcESaIcEEEblmdSaNS0_14adl_serializerES5_IhSaIhEEvEEE12dump_integerIhTnNSt9enable_ifIXoooooosr3std11is_integralIT_EE5valuesr3std7is_sameISJ_mEE5valuesr3std7is_sameISJ_lEE5valuesr3std7is_sameISJ_hEE5valueEiE4typeELi0EEEvSJ_E12digits_to_99 = comdat any

$_ZZN8nlohmann16json_abi_v3_11_36detail10serializerINS0_10basic_jsonISt3mapSt6vectorNSt7__cxx1112basic_stringIcSt11char_traitsIcESaIcEEEblmdSaNS0_14adl_serializerES5_IhSaIhEEvEEE12dump_integerImTnNSt9enable_ifIXoooooosr3std11is_integralIT_EE5valuesr3std7is_sameISJ_mEE5valuesr3std7is_sameISJ_lEE5valuesr3std7is_sameISJ_hEE5valueEiE4typeELi0EEEvSJ_E12digits_to_99 = comdat any

$_ZZN8nlohmann16json_abi_v3_11_36detail10serializerINS0_10basic_jsonISt3mapSt6vectorNSt7__cxx1112basic_stringIcSt11char_traitsIcESaIcEEEblmdSaNS0_14adl_serializerES5_IhSaIhEEvEEE12dump_integerIlTnNSt9enable_ifIXoooooosr3std11is_integralIT_EE5valuesr3std7is_sameISJ_mEE5valuesr3std7is_sameISJ_lEE5valuesr3std7is_sameISJ_hEE5valueEiE4typeELi0EEEvSJ_E12digits_to_99 = comdat any

$_ZZN8nlohmann16json_abi_v3_11_36detail10serializerINS0_10basic_jsonISt3mapSt6vectorNSt7__cxx1112basic_stringIcSt11char_traitsIcESaIcEEEblmdSaNS0_14adl_serializerES5_IhSaIhEEvEEE10dump_floatEdE24is_ieee_single_or_double = comdat any

$_ZZN8nlohmann16json_abi_v3_11_36detail9dtoa_impl36get_cached_power_for_binary_exponentEiE13kCachedPowers = comdat any

@_ZL18DOCTEST_ANON_VAR_0 = internal global i32 0, align 4
@.str = private unnamed_addr constant [1 x i8] zeroinitializer, align 1
@_ZL18DOCTEST_ANON_VAR_3 = internal global i32 0, align 4
@.str.2 = private unnamed_addr constant [136 x i8] c"generated/home/dtcxzyw/WorkSpace/Projects/compilers/llvm-opt-benchmark/bench/nlohmann_json/json/tests/src/unit-class_const_iterator.cpp\00", align 1
@.str.3 = private unnamed_addr constant [21 x i8] c"const_iterator class\00", align 1
@.str.4 = private unnamed_addr constant [13 x i8] c"construction\00", align 1
@.str.5 = private unnamed_addr constant [12 x i8] c"constructor\00", align 1
@.str.6 = private unnamed_addr constant [5 x i8] c"null\00", align 1
@.str.7 = private unnamed_addr constant [7 x i8] c"object\00", align 1
@.str.8 = private unnamed_addr constant [6 x i8] c"array\00", align 1
@.str.9 = private unnamed_addr constant [16 x i8] c"copy assignment\00", align 1
@.str.10 = private unnamed_addr constant [41 x i8] c"copy constructor from non-const iterator\00", align 1
@.str.11 = private unnamed_addr constant [35 x i8] c"create from uninitialized iterator\00", align 1
@.str.12 = private unnamed_addr constant [33 x i8] c"create from initialized iterator\00", align 1
@.str.13 = private unnamed_addr constant [15 x i8] c"initialization\00", align 1
@.str.14 = private unnamed_addr constant [10 x i8] c"set_begin\00", align 1
@.str.15 = private unnamed_addr constant [19 x i8] c"(it == j.cbegin())\00", align 1
@.str.16 = private unnamed_addr constant [8 x i8] c"set_end\00", align 1
@.str.17 = private unnamed_addr constant [17 x i8] c"(it == j.cend())\00", align 1
@.str.18 = private unnamed_addr constant [15 x i8] c"element access\00", align 1
@.str.19 = private unnamed_addr constant [10 x i8] c"operator*\00", align 1
@.str.20 = private unnamed_addr constant [4 x i8] c"*it\00", align 1
@.str.21 = private unnamed_addr constant [24 x i8] c"json::invalid_iterator&\00", align 1
@.str.22 = private unnamed_addr constant [55 x i8] c"[json.exception.invalid_iterator.214] cannot get value\00", align 1
@_ZTVN10__cxxabiv120__si_class_type_infoE = external global [0 x ptr]
@_ZTSN8nlohmann16json_abi_v3_11_36detail16invalid_iteratorE = linkonce_odr dso_local constant [55 x i8] c"N8nlohmann16json_abi_v3_11_36detail16invalid_iteratorE\00", comdat, align 1
@_ZTSN8nlohmann16json_abi_v3_11_36detail9exceptionE = linkonce_odr dso_local constant [47 x i8] c"N8nlohmann16json_abi_v3_11_36detail9exceptionE\00", comdat, align 1
@_ZTISt9exception = external constant ptr
@_ZTIN8nlohmann16json_abi_v3_11_36detail9exceptionE = linkonce_odr dso_local constant { ptr, ptr, ptr } { ptr getelementptr inbounds (ptr, ptr @_ZTVN10__cxxabiv120__si_class_type_infoE, i64 2), ptr @_ZTSN8nlohmann16json_abi_v3_11_36detail9exceptionE, ptr @_ZTISt9exception }, comdat, align 8
@_ZTIN8nlohmann16json_abi_v3_11_36detail16invalid_iteratorE = linkonce_odr dso_local constant { ptr, ptr, ptr } { ptr getelementptr inbounds (ptr, ptr @_ZTVN10__cxxabiv120__si_class_type_infoE, i64 2), ptr @_ZTSN8nlohmann16json_abi_v3_11_36detail16invalid_iteratorE, ptr @_ZTIN8nlohmann16json_abi_v3_11_36detail9exceptionE }, comdat, align 8
@.str.23 = private unnamed_addr constant [7 x i8] c"number\00", align 1
@.str.24 = private unnamed_addr constant [16 x i8] c"*it == json(17)\00", align 1
@.str.25 = private unnamed_addr constant [4 x i8] c"foo\00", align 1
@.str.26 = private unnamed_addr constant [4 x i8] c"bar\00", align 1
@.str.27 = private unnamed_addr constant [19 x i8] c"*it == json(\22bar\22)\00", align 1
@.str.28 = private unnamed_addr constant [15 x i8] c"*it == json(1)\00", align 1
@.str.29 = private unnamed_addr constant [11 x i8] c"operator->\00", align 1
@.str.30 = private unnamed_addr constant [29 x i8] c"std::string(it->type_name())\00", align 1
@.str.31 = private unnamed_addr constant [41 x i8] c"std::string(it->type_name()) == \22number\22\00", align 1
@.str.32 = private unnamed_addr constant [41 x i8] c"std::string(it->type_name()) == \22string\22\00", align 1
@.str.33 = private unnamed_addr constant [7 x i8] c"string\00", align 1
@.str.34 = private unnamed_addr constant [20 x i8] c"increment/decrement\00", align 1
@.str.35 = private unnamed_addr constant [15 x i8] c"post-increment\00", align 1
@.str.36 = private unnamed_addr constant [39 x i8] c"(it.m_it.primitive_iterator.m_it == 1)\00", align 1
@.str.37 = private unnamed_addr constant [79 x i8] c"(it.m_it.primitive_iterator.m_it != 0 && it.m_it.primitive_iterator.m_it != 1)\00", align 1
@.str.38 = private unnamed_addr constant [39 x i8] c"(it.m_it.primitive_iterator.m_it == 0)\00", align 1
@.str.39 = private unnamed_addr constant [73 x i8] c"(it.m_it.object_iterator == it.m_object->m_data.m_value.object->begin())\00", align 1
@.str.40 = private unnamed_addr constant [71 x i8] c"(it.m_it.object_iterator == it.m_object->m_data.m_value.object->end())\00", align 1
@.str.41 = private unnamed_addr constant [71 x i8] c"(it.m_it.array_iterator == it.m_object->m_data.m_value.array->begin())\00", align 1
@.str.42 = private unnamed_addr constant [71 x i8] c"(it.m_it.array_iterator != it.m_object->m_data.m_value.array->begin())\00", align 1
@.str.43 = private unnamed_addr constant [69 x i8] c"(it.m_it.array_iterator != it.m_object->m_data.m_value.array->end())\00", align 1
@.str.44 = private unnamed_addr constant [69 x i8] c"(it.m_it.array_iterator == it.m_object->m_data.m_value.array->end())\00", align 1
@.str.45 = private unnamed_addr constant [14 x i8] c"pre-increment\00", align 1
@.str.46 = private unnamed_addr constant [15 x i8] c"post-decrement\00", align 1
@.str.47 = private unnamed_addr constant [14 x i8] c"pre-decrement\00", align 1
@.str.48 = private unnamed_addr constant [48 x i8] c"961c151d2e87f2686a955a9be24d316f1362bf21 3.11.3\00", align 1
@_ZTSN8nlohmann16json_abi_v3_11_36detail11other_errorE = linkonce_odr dso_local constant [50 x i8] c"N8nlohmann16json_abi_v3_11_36detail11other_errorE\00", comdat, align 1
@_ZTIN8nlohmann16json_abi_v3_11_36detail11other_errorE = linkonce_odr dso_local constant { ptr, ptr, ptr } { ptr getelementptr inbounds (ptr, ptr @_ZTVN10__cxxabiv120__si_class_type_infoE, i64 2), ptr @_ZTSN8nlohmann16json_abi_v3_11_36detail11other_errorE, ptr @_ZTIN8nlohmann16json_abi_v3_11_36detail9exceptionE }, comdat, align 8
@.str.49 = private unnamed_addr constant [12 x i8] c"other_error\00", align 1
@.str.50 = private unnamed_addr constant [17 x i8] c"[json.exception.\00", align 1
@.str.51 = private unnamed_addr constant [3 x i8] c"] \00", align 1
@_ZZNSt8__detail18__to_chars_10_implIjEEvPcjT_E8__digits = linkonce_odr dso_local constant [201 x i8] c"00010203040506070809101112131415161718192021222324252627282930313233343536373839404142434445464748495051525354555657585960616263646566676869707172737475767778798081828384858687888990919293949596979899\00", comdat, align 16
@_ZTVN8nlohmann16json_abi_v3_11_36detail11other_errorE = linkonce_odr dso_local unnamed_addr constant { [5 x ptr] } { [5 x ptr] [ptr null, ptr @_ZTIN8nlohmann16json_abi_v3_11_36detail11other_errorE, ptr @_ZN8nlohmann16json_abi_v3_11_36detail11other_errorD2Ev, ptr @_ZN8nlohmann16json_abi_v3_11_36detail11other_errorD0Ev, ptr @_ZNK8nlohmann16json_abi_v3_11_36detail9exception4whatEv] }, comdat, align 8
@_ZTVN8nlohmann16json_abi_v3_11_36detail9exceptionE = linkonce_odr dso_local unnamed_addr constant { [5 x ptr] } { [5 x ptr] [ptr null, ptr @_ZTIN8nlohmann16json_abi_v3_11_36detail9exceptionE, ptr @_ZN8nlohmann16json_abi_v3_11_36detail9exceptionD2Ev, ptr @_ZN8nlohmann16json_abi_v3_11_36detail9exceptionD0Ev, ptr @_ZNK8nlohmann16json_abi_v3_11_36detail9exception4whatEv] }, comdat, align 8
@_ZTVSt9exception = external unnamed_addr constant { [5 x ptr] }, align 8
@.str.52 = private unnamed_addr constant [16 x i8] c"vector::reserve\00", align 1
@.str.53 = private unnamed_addr constant [26 x i8] c"vector::_M_realloc_insert\00", align 1
@.str.54 = private unnamed_addr constant [49 x i8] c"cannot compare iterators of different containers\00", align 1
@.str.55 = private unnamed_addr constant [17 x i8] c"invalid_iterator\00", align 1
@_ZTVN8nlohmann16json_abi_v3_11_36detail16invalid_iteratorE = linkonce_odr dso_local unnamed_addr constant { [5 x ptr] } { [5 x ptr] [ptr null, ptr @_ZTIN8nlohmann16json_abi_v3_11_36detail16invalid_iteratorE, ptr @_ZN8nlohmann16json_abi_v3_11_36detail16invalid_iteratorD2Ev, ptr @_ZN8nlohmann16json_abi_v3_11_36detail16invalid_iteratorD0Ev, ptr @_ZNK8nlohmann16json_abi_v3_11_36detail9exception4whatEv] }, comdat, align 8
@.str.56 = private unnamed_addr constant [17 x i8] c"cannot get value\00", align 1
@_ZN8nlohmann16json_abi_v3_11_36detail12static_constINS1_10to_json_fnEE5valueE = linkonce_odr dso_local constant %"struct.nlohmann::json_abi_v3_11_3::detail::to_json_fn" undef, comdat, align 1
@.str.57 = private unnamed_addr constant [5 x i8] c" == \00", align 1
@_ZTVSt23_Sp_counted_ptr_inplaceIN8nlohmann16json_abi_v3_11_36detail21output_stream_adapterIcEESaIvELN9__gnu_cxx12_Lock_policyE2EE = linkonce_odr dso_local unnamed_addr constant { [7 x ptr] } { [7 x ptr] [ptr null, ptr @_ZTISt23_Sp_counted_ptr_inplaceIN8nlohmann16json_abi_v3_11_36detail21output_stream_adapterIcEESaIvELN9__gnu_cxx12_Lock_policyE2EE, ptr @_ZNSt23_Sp_counted_ptr_inplaceIN8nlohmann16json_abi_v3_11_36detail21output_stream_adapterIcEESaIvELN9__gnu_cxx12_Lock_policyE2EED2Ev, ptr @_ZNSt23_Sp_counted_ptr_inplaceIN8nlohmann16json_abi_v3_11_36detail21output_stream_adapterIcEESaIvELN9__gnu_cxx12_Lock_policyE2EED0Ev, ptr @_ZNSt23_Sp_counted_ptr_inplaceIN8nlohmann16json_abi_v3_11_36detail21output_stream_adapterIcEESaIvELN9__gnu_cxx12_Lock_policyE2EE10_M_disposeEv, ptr @_ZNSt23_Sp_counted_ptr_inplaceIN8nlohmann16json_abi_v3_11_36detail21output_stream_adapterIcEESaIvELN9__gnu_cxx12_Lock_policyE2EE10_M_destroyEv, ptr @_ZNSt23_Sp_counted_ptr_inplaceIN8nlohmann16json_abi_v3_11_36detail21output_stream_adapterIcEESaIvELN9__gnu_cxx12_Lock_policyE2EE14_M_get_deleterERKSt9type_info] }, comdat, align 8
@_ZTSSt23_Sp_counted_ptr_inplaceIN8nlohmann16json_abi_v3_11_36detail21output_stream_adapterIcEESaIvELN9__gnu_cxx12_Lock_policyE2EE = linkonce_odr dso_local constant [126 x i8] c"St23_Sp_counted_ptr_inplaceIN8nlohmann16json_abi_v3_11_36detail21output_stream_adapterIcEESaIvELN9__gnu_cxx12_Lock_policyE2EE\00", comdat, align 1
@_ZTSSt16_Sp_counted_baseILN9__gnu_cxx12_Lock_policyE2EE = linkonce_odr dso_local constant [52 x i8] c"St16_Sp_counted_baseILN9__gnu_cxx12_Lock_policyE2EE\00", comdat, align 1
@_ZTVN10__cxxabiv117__class_type_infoE = external global [0 x ptr]
@_ZTSSt11_Mutex_baseILN9__gnu_cxx12_Lock_policyE2EE = linkonce_odr dso_local constant [47 x i8] c"St11_Mutex_baseILN9__gnu_cxx12_Lock_policyE2EE\00", comdat, align 1
@_ZTISt11_Mutex_baseILN9__gnu_cxx12_Lock_policyE2EE = linkonce_odr dso_local constant { ptr, ptr } { ptr getelementptr inbounds (ptr, ptr @_ZTVN10__cxxabiv117__class_type_infoE, i64 2), ptr @_ZTSSt11_Mutex_baseILN9__gnu_cxx12_Lock_policyE2EE }, comdat, align 8
@_ZTISt16_Sp_counted_baseILN9__gnu_cxx12_Lock_policyE2EE = linkonce_odr dso_local constant { ptr, ptr, ptr } { ptr getelementptr inbounds (ptr, ptr @_ZTVN10__cxxabiv120__si_class_type_infoE, i64 2), ptr @_ZTSSt16_Sp_counted_baseILN9__gnu_cxx12_Lock_policyE2EE, ptr @_ZTISt11_Mutex_baseILN9__gnu_cxx12_Lock_policyE2EE }, comdat, align 8
@_ZTISt23_Sp_counted_ptr_inplaceIN8nlohmann16json_abi_v3_11_36detail21output_stream_adapterIcEESaIvELN9__gnu_cxx12_Lock_policyE2EE = linkonce_odr dso_local constant { ptr, ptr, ptr } { ptr getelementptr inbounds (ptr, ptr @_ZTVN10__cxxabiv120__si_class_type_infoE, i64 2), ptr @_ZTSSt23_Sp_counted_ptr_inplaceIN8nlohmann16json_abi_v3_11_36detail21output_stream_adapterIcEESaIvELN9__gnu_cxx12_Lock_policyE2EE, ptr @_ZTISt16_Sp_counted_baseILN9__gnu_cxx12_Lock_policyE2EE }, comdat, align 8
@_ZTVSt16_Sp_counted_baseILN9__gnu_cxx12_Lock_policyE2EE = linkonce_odr dso_local unnamed_addr constant { [7 x ptr] } { [7 x ptr] [ptr null, ptr @_ZTISt16_Sp_counted_baseILN9__gnu_cxx12_Lock_policyE2EE, ptr @_ZNSt16_Sp_counted_baseILN9__gnu_cxx12_Lock_policyE2EED2Ev, ptr @_ZNSt16_Sp_counted_baseILN9__gnu_cxx12_Lock_policyE2EED0Ev, ptr @__cxa_pure_virtual, ptr @_ZNSt16_Sp_counted_baseILN9__gnu_cxx12_Lock_policyE2EE10_M_destroyEv, ptr @__cxa_pure_virtual] }, comdat, align 8
@_ZTVN8nlohmann16json_abi_v3_11_36detail21output_stream_adapterIcEE = linkonce_odr dso_local unnamed_addr constant { [6 x ptr] } { [6 x ptr] [ptr null, ptr @_ZTIN8nlohmann16json_abi_v3_11_36detail21output_stream_adapterIcEE, ptr @_ZN8nlohmann16json_abi_v3_11_36detail21output_stream_adapterIcE15write_characterEc, ptr @_ZN8nlohmann16json_abi_v3_11_36detail21output_stream_adapterIcE16write_charactersEPKcm, ptr @_ZN8nlohmann16json_abi_v3_11_36detail21output_stream_adapterIcED2Ev, ptr @_ZN8nlohmann16json_abi_v3_11_36detail21output_stream_adapterIcED0Ev] }, comdat, align 8
@_ZTSN8nlohmann16json_abi_v3_11_36detail21output_stream_adapterIcEE = linkonce_odr dso_local constant [63 x i8] c"N8nlohmann16json_abi_v3_11_36detail21output_stream_adapterIcEE\00", comdat, align 1
@_ZTSN8nlohmann16json_abi_v3_11_36detail23output_adapter_protocolIcEE = linkonce_odr dso_local constant [65 x i8] c"N8nlohmann16json_abi_v3_11_36detail23output_adapter_protocolIcEE\00", comdat, align 1
@_ZTIN8nlohmann16json_abi_v3_11_36detail23output_adapter_protocolIcEE = linkonce_odr dso_local constant { ptr, ptr } { ptr getelementptr inbounds (ptr, ptr @_ZTVN10__cxxabiv117__class_type_infoE, i64 2), ptr @_ZTSN8nlohmann16json_abi_v3_11_36detail23output_adapter_protocolIcEE }, comdat, align 8
@_ZTIN8nlohmann16json_abi_v3_11_36detail21output_stream_adapterIcEE = linkonce_odr dso_local constant { ptr, ptr, ptr } { ptr getelementptr inbounds (ptr, ptr @_ZTVN10__cxxabiv120__si_class_type_infoE, i64 2), ptr @_ZTSN8nlohmann16json_abi_v3_11_36detail21output_stream_adapterIcEE, ptr @_ZTIN8nlohmann16json_abi_v3_11_36detail23output_adapter_protocolIcEE }, comdat, align 8
@_ZTVN8nlohmann16json_abi_v3_11_36detail23output_adapter_protocolIcEE = linkonce_odr dso_local unnamed_addr constant { [6 x ptr] } { [6 x ptr] [ptr null, ptr @_ZTIN8nlohmann16json_abi_v3_11_36detail23output_adapter_protocolIcEE, ptr @__cxa_pure_virtual, ptr @__cxa_pure_virtual, ptr @_ZN8nlohmann16json_abi_v3_11_36detail23output_adapter_protocolIcED2Ev, ptr @_ZN8nlohmann16json_abi_v3_11_36detail23output_adapter_protocolIcED0Ev] }, comdat, align 8
@_ZTSSt19_Sp_make_shared_tag = linkonce_odr dso_local constant [24 x i8] c"St19_Sp_make_shared_tag\00", comdat, align 1
@_ZTISt19_Sp_make_shared_tag = linkonce_odr dso_local constant { ptr, ptr } { ptr getelementptr inbounds (ptr, ptr @_ZTVN10__cxxabiv117__class_type_infoE, i64 2), ptr @_ZTSSt19_Sp_make_shared_tag }, comdat, align 8
@_ZZNSt19_Sp_make_shared_tag5_S_tiEvE5__tag = linkonce_odr dso_local constant [16 x i8] zeroinitializer, comdat, align 8
@__libc_single_threaded = external global i8, align 1
@.str.58 = private unnamed_addr constant [3 x i8] c"{}\00", align 1
@.str.59 = private unnamed_addr constant [3 x i8] c"{\0A\00", align 1
@.str.60 = private unnamed_addr constant [4 x i8] c"\22: \00", align 1
@.str.61 = private unnamed_addr constant [3 x i8] c",\0A\00", align 1
@.str.62 = private unnamed_addr constant [3 x i8] c"\22:\00", align 1
@.str.63 = private unnamed_addr constant [3 x i8] c"[]\00", align 1
@.str.64 = private unnamed_addr constant [3 x i8] c"[\0A\00", align 1
@.str.65 = private unnamed_addr constant [11 x i8] c"\22bytes\22: [\00", align 1
@.str.66 = private unnamed_addr constant [3 x i8] c", \00", align 1
@.str.67 = private unnamed_addr constant [4 x i8] c"],\0A\00", align 1
@.str.68 = private unnamed_addr constant [12 x i8] c"\22subtype\22: \00", align 1
@.str.69 = private unnamed_addr constant [11 x i8] c"{\22bytes\22:[\00", align 1
@.str.70 = private unnamed_addr constant [13 x i8] c"],\22subtype\22:\00", align 1
@.str.71 = private unnamed_addr constant [6 x i8] c"null}\00", align 1
@.str.72 = private unnamed_addr constant [5 x i8] c"true\00", align 1
@.str.73 = private unnamed_addr constant [6 x i8] c"false\00", align 1
@.str.74 = private unnamed_addr constant [12 x i8] c"<discarded>\00", align 1
@.str.75 = private unnamed_addr constant [7 x i8] c"\\u%04x\00", align 1
@.str.76 = private unnamed_addr constant [13 x i8] c"\\u%04x\\u%04x\00", align 1
@.str.77 = private unnamed_addr constant [29 x i8] c"invalid UTF-8 byte at index \00", align 1
@.str.78 = private unnamed_addr constant [5 x i8] c": 0x\00", align 1
@_ZTSN8nlohmann16json_abi_v3_11_36detail10type_errorE = linkonce_odr dso_local constant [49 x i8] c"N8nlohmann16json_abi_v3_11_36detail10type_errorE\00", comdat, align 1
@_ZTIN8nlohmann16json_abi_v3_11_36detail10type_errorE = linkonce_odr dso_local constant { ptr, ptr, ptr } { ptr getelementptr inbounds (ptr, ptr @_ZTVN10__cxxabiv120__si_class_type_infoE, i64 2), ptr @_ZTSN8nlohmann16json_abi_v3_11_36detail10type_errorE, ptr @_ZTIN8nlohmann16json_abi_v3_11_36detail9exceptionE }, comdat, align 8
@.str.79 = private unnamed_addr constant [39 x i8] c"incomplete UTF-8 string; last byte: 0x\00", align 1
@.str.80 = private unnamed_addr constant [7 x i8] c"\\ufffd\00", align 1
@.str.81 = private unnamed_addr constant [4 x i8] c"\EF\BF\BD\00", align 1
@_ZZN8nlohmann16json_abi_v3_11_36detail10serializerINS0_10basic_jsonISt3mapSt6vectorNSt7__cxx1112basic_stringIcSt11char_traitsIcESaIcEEEblmdSaNS0_14adl_serializerES5_IhSaIhEEvEEE6decodeERhRjhE5utf8d = linkonce_odr dso_local constant %"struct.std::array.75" { [400 x i8] c"\00\00\00\00\00\00\00\00\00\00\00\00\00\00\00\00\00\00\00\00\00\00\00\00\00\00\00\00\00\00\00\00\00\00\00\00\00\00\00\00\00\00\00\00\00\00\00\00\00\00\00\00\00\00\00\00\00\00\00\00\00\00\00\00\00\00\00\00\00\00\00\00\00\00\00\00\00\00\00\00\00\00\00\00\00\00\00\00\00\00\00\00\00\00\00\00\00\00\00\00\00\00\00\00\00\00\00\00\00\00\00\00\00\00\00\00\00\00\00\00\00\00\00\00\00\00\00\00\01\01\01\01\01\01\01\01\01\01\01\01\01\01\01\01\09\09\09\09\09\09\09\09\09\09\09\09\09\09\09\09\07\07\07\07\07\07\07\07\07\07\07\07\07\07\07\07\07\07\07\07\07\07\07\07\07\07\07\07\07\07\07\07\08\08\02\02\02\02\02\02\02\02\02\02\02\02\02\02\02\02\02\02\02\02\02\02\02\02\02\02\02\02\02\02\0A\03\03\03\03\03\03\03\03\03\03\03\03\04\03\03\0B\06\06\06\05\08\08\08\08\08\08\08\08\08\08\08\00\01\02\03\05\08\07\01\01\01\04\06\01\01\01\01\01\01\01\01\01\01\01\01\01\01\01\01\01\01\01\01\01\00\01\01\01\01\01\00\01\00\01\01\01\01\01\01\01\02\01\01\01\01\01\02\01\02\01\01\01\01\01\01\01\01\01\01\01\01\01\02\01\01\01\01\01\01\01\01\01\02\01\01\01\01\01\01\01\02\01\01\01\01\01\01\01\01\01\01\01\01\01\03\01\03\01\01\01\01\01\01\01\03\01\01\01\01\01\03\01\03\01\01\01\01\01\01\01\03\01\01\01\01\01\01\01\01\01\01\01\01\01\01" }, comdat, align 1
@.str.82 = private unnamed_addr constant [11 x i8] c"type_error\00", align 1
@_ZTVN8nlohmann16json_abi_v3_11_36detail10type_errorE = linkonce_odr dso_local unnamed_addr constant { [5 x ptr] } { [5 x ptr] [ptr null, ptr @_ZTIN8nlohmann16json_abi_v3_11_36detail10type_errorE, ptr @_ZN8nlohmann16json_abi_v3_11_36detail10type_errorD2Ev, ptr @_ZN8nlohmann16json_abi_v3_11_36detail10type_errorD0Ev, ptr @_ZNK8nlohmann16json_abi_v3_11_36detail9exception4whatEv] }, comdat, align 8
@_ZZNSt8__detail18__to_chars_10_implImEEvPcjT_E8__digits = linkonce_odr dso_local constant [201 x i8] c"00010203040506070809101112131415161718192021222324252627282930313233343536373839404142434445464748495051525354555657585960616263646566676869707172737475767778798081828384858687888990919293949596979899\00", comdat, align 16
@.str.83 = private unnamed_addr constant [3 x i8] c"FF\00", align 1
@.str.84 = private unnamed_addr constant [17 x i8] c"0123456789ABCDEF\00", align 1
@_ZZN8nlohmann16json_abi_v3_11_36detail10serializerINS0_10basic_jsonISt3mapSt6vectorNSt7__cxx1112basic_stringIcSt11char_traitsIcESaIcEEEblmdSaNS0_14adl_serializerES5_IhSaIhEEvEEE12dump_integerIhTnNSt9enable_ifIXoooooosr3std11is_integralIT_EE5valuesr3std7is_sameISJ_mEE5valuesr3std7is_sameISJ_lEE5valuesr3std7is_sameISJ_hEE5valueEiE4typeELi0EEEvSJ_E12digits_to_99 = linkonce_odr dso_local constant %"struct.std::array.76" { [100 x %"struct.std::array.77"] [%"struct.std::array.77" { [2 x i8] c"00" }, %"struct.std::array.77" { [2 x i8] c"01" }, %"struct.std::array.77" { [2 x i8] c"02" }, %"struct.std::array.77" { [2 x i8] c"03" }, %"struct.std::array.77" { [2 x i8] c"04" }, %"struct.std::array.77" { [2 x i8] c"05" }, %"struct.std::array.77" { [2 x i8] c"06" }, %"struct.std::array.77" { [2 x i8] c"07" }, %"struct.std::array.77" { [2 x i8] c"08" }, %"struct.std::array.77" { [2 x i8] c"09" }, %"struct.std::array.77" { [2 x i8] c"10" }, %"struct.std::array.77" { [2 x i8] c"11" }, %"struct.std::array.77" { [2 x i8] c"12" }, %"struct.std::array.77" { [2 x i8] c"13" }, %"struct.std::array.77" { [2 x i8] c"14" }, %"struct.std::array.77" { [2 x i8] c"15" }, %"struct.std::array.77" { [2 x i8] c"16" }, %"struct.std::array.77" { [2 x i8] c"17" }, %"struct.std::array.77" { [2 x i8] c"18" }, %"struct.std::array.77" { [2 x i8] c"19" }, %"struct.std::array.77" { [2 x i8] c"20" }, %"struct.std::array.77" { [2 x i8] c"21" }, %"struct.std::array.77" { [2 x i8] c"22" }, %"struct.std::array.77" { [2 x i8] c"23" }, %"struct.std::array.77" { [2 x i8] c"24" }, %"struct.std::array.77" { [2 x i8] c"25" }, %"struct.std::array.77" { [2 x i8] c"26" }, %"struct.std::array.77" { [2 x i8] c"27" }, %"struct.std::array.77" { [2 x i8] c"28" }, %"struct.std::array.77" { [2 x i8] c"29" }, %"struct.std::array.77" { [2 x i8] c"30" }, %"struct.std::array.77" { [2 x i8] c"31" }, %"struct.std::array.77" { [2 x i8] c"32" }, %"struct.std::array.77" { [2 x i8] c"33" }, %"struct.std::array.77" { [2 x i8] c"34" }, %"struct.std::array.77" { [2 x i8] c"35" }, %"struct.std::array.77" { [2 x i8] c"36" }, %"struct.std::array.77" { [2 x i8] c"37" }, %"struct.std::array.77" { [2 x i8] c"38" }, %"struct.std::array.77" { [2 x i8] c"39" }, %"struct.std::array.77" { [2 x i8] c"40" }, %"struct.std::array.77" { [2 x i8] c"41" }, %"struct.std::array.77" { [2 x i8] c"42" }, %"struct.std::array.77" { [2 x i8] c"43" }, %"struct.std::array.77" { [2 x i8] c"44" }, %"struct.std::array.77" { [2 x i8] c"45" }, %"struct.std::array.77" { [2 x i8] c"46" }, %"struct.std::array.77" { [2 x i8] c"47" }, %"struct.std::array.77" { [2 x i8] c"48" }, %"struct.std::array.77" { [2 x i8] c"49" }, %"struct.std::array.77" { [2 x i8] c"50" }, %"struct.std::array.77" { [2 x i8] c"51" }, %"struct.std::array.77" { [2 x i8] c"52" }, %"struct.std::array.77" { [2 x i8] c"53" }, %"struct.std::array.77" { [2 x i8] c"54" }, %"struct.std::array.77" { [2 x i8] c"55" }, %"struct.std::array.77" { [2 x i8] c"56" }, %"struct.std::array.77" { [2 x i8] c"57" }, %"struct.std::array.77" { [2 x i8] c"58" }, %"struct.std::array.77" { [2 x i8] c"59" }, %"struct.std::array.77" { [2 x i8] c"60" }, %"struct.std::array.77" { [2 x i8] c"61" }, %"struct.std::array.77" { [2 x i8] c"62" }, %"struct.std::array.77" { [2 x i8] c"63" }, %"struct.std::array.77" { [2 x i8] c"64" }, %"struct.std::array.77" { [2 x i8] c"65" }, %"struct.std::array.77" { [2 x i8] c"66" }, %"struct.std::array.77" { [2 x i8] c"67" }, %"struct.std::array.77" { [2 x i8] c"68" }, %"struct.std::array.77" { [2 x i8] c"69" }, %"struct.std::array.77" { [2 x i8] c"70" }, %"struct.std::array.77" { [2 x i8] c"71" }, %"struct.std::array.77" { [2 x i8] c"72" }, %"struct.std::array.77" { [2 x i8] c"73" }, %"struct.std::array.77" { [2 x i8] c"74" }, %"struct.std::array.77" { [2 x i8] c"75" }, %"struct.std::array.77" { [2 x i8] c"76" }, %"struct.std::array.77" { [2 x i8] c"77" }, %"struct.std::array.77" { [2 x i8] c"78" }, %"struct.std::array.77" { [2 x i8] c"79" }, %"struct.std::array.77" { [2 x i8] c"80" }, %"struct.std::array.77" { [2 x i8] c"81" }, %"struct.std::array.77" { [2 x i8] c"82" }, %"struct.std::array.77" { [2 x i8] c"83" }, %"struct.std::array.77" { [2 x i8] c"84" }, %"struct.std::array.77" { [2 x i8] c"85" }, %"struct.std::array.77" { [2 x i8] c"86" }, %"struct.std::array.77" { [2 x i8] c"87" }, %"struct.std::array.77" { [2 x i8] c"88" }, %"struct.std::array.77" { [2 x i8] c"89" }, %"struct.std::array.77" { [2 x i8] c"90" }, %"struct.std::array.77" { [2 x i8] c"91" }, %"struct.std::array.77" { [2 x i8] c"92" }, %"struct.std::array.77" { [2 x i8] c"93" }, %"struct.std::array.77" { [2 x i8] c"94" }, %"struct.std::array.77" { [2 x i8] c"95" }, %"struct.std::array.77" { [2 x i8] c"96" }, %"struct.std::array.77" { [2 x i8] c"97" }, %"struct.std::array.77" { [2 x i8] c"98" }, %"struct.std::array.77" { [2 x i8] c"99" }] }, comdat, align 1
@_ZZN8nlohmann16json_abi_v3_11_36detail10serializerINS0_10basic_jsonISt3mapSt6vectorNSt7__cxx1112basic_stringIcSt11char_traitsIcESaIcEEEblmdSaNS0_14adl_serializerES5_IhSaIhEEvEEE12dump_integerImTnNSt9enable_ifIXoooooosr3std11is_integralIT_EE5valuesr3std7is_sameISJ_mEE5valuesr3std7is_sameISJ_lEE5valuesr3std7is_sameISJ_hEE5valueEiE4typeELi0EEEvSJ_E12digits_to_99 = linkonce_odr dso_local constant %"struct.std::array.76" { [100 x %"struct.std::array.77"] [%"struct.std::array.77" { [2 x i8] c"00" }, %"struct.std::array.77" { [2 x i8] c"01" }, %"struct.std::array.77" { [2 x i8] c"02" }, %"struct.std::array.77" { [2 x i8] c"03" }, %"struct.std::array.77" { [2 x i8] c"04" }, %"struct.std::array.77" { [2 x i8] c"05" }, %"struct.std::array.77" { [2 x i8] c"06" }, %"struct.std::array.77" { [2 x i8] c"07" }, %"struct.std::array.77" { [2 x i8] c"08" }, %"struct.std::array.77" { [2 x i8] c"09" }, %"struct.std::array.77" { [2 x i8] c"10" }, %"struct.std::array.77" { [2 x i8] c"11" }, %"struct.std::array.77" { [2 x i8] c"12" }, %"struct.std::array.77" { [2 x i8] c"13" }, %"struct.std::array.77" { [2 x i8] c"14" }, %"struct.std::array.77" { [2 x i8] c"15" }, %"struct.std::array.77" { [2 x i8] c"16" }, %"struct.std::array.77" { [2 x i8] c"17" }, %"struct.std::array.77" { [2 x i8] c"18" }, %"struct.std::array.77" { [2 x i8] c"19" }, %"struct.std::array.77" { [2 x i8] c"20" }, %"struct.std::array.77" { [2 x i8] c"21" }, %"struct.std::array.77" { [2 x i8] c"22" }, %"struct.std::array.77" { [2 x i8] c"23" }, %"struct.std::array.77" { [2 x i8] c"24" }, %"struct.std::array.77" { [2 x i8] c"25" }, %"struct.std::array.77" { [2 x i8] c"26" }, %"struct.std::array.77" { [2 x i8] c"27" }, %"struct.std::array.77" { [2 x i8] c"28" }, %"struct.std::array.77" { [2 x i8] c"29" }, %"struct.std::array.77" { [2 x i8] c"30" }, %"struct.std::array.77" { [2 x i8] c"31" }, %"struct.std::array.77" { [2 x i8] c"32" }, %"struct.std::array.77" { [2 x i8] c"33" }, %"struct.std::array.77" { [2 x i8] c"34" }, %"struct.std::array.77" { [2 x i8] c"35" }, %"struct.std::array.77" { [2 x i8] c"36" }, %"struct.std::array.77" { [2 x i8] c"37" }, %"struct.std::array.77" { [2 x i8] c"38" }, %"struct.std::array.77" { [2 x i8] c"39" }, %"struct.std::array.77" { [2 x i8] c"40" }, %"struct.std::array.77" { [2 x i8] c"41" }, %"struct.std::array.77" { [2 x i8] c"42" }, %"struct.std::array.77" { [2 x i8] c"43" }, %"struct.std::array.77" { [2 x i8] c"44" }, %"struct.std::array.77" { [2 x i8] c"45" }, %"struct.std::array.77" { [2 x i8] c"46" }, %"struct.std::array.77" { [2 x i8] c"47" }, %"struct.std::array.77" { [2 x i8] c"48" }, %"struct.std::array.77" { [2 x i8] c"49" }, %"struct.std::array.77" { [2 x i8] c"50" }, %"struct.std::array.77" { [2 x i8] c"51" }, %"struct.std::array.77" { [2 x i8] c"52" }, %"struct.std::array.77" { [2 x i8] c"53" }, %"struct.std::array.77" { [2 x i8] c"54" }, %"struct.std::array.77" { [2 x i8] c"55" }, %"struct.std::array.77" { [2 x i8] c"56" }, %"struct.std::array.77" { [2 x i8] c"57" }, %"struct.std::array.77" { [2 x i8] c"58" }, %"struct.std::array.77" { [2 x i8] c"59" }, %"struct.std::array.77" { [2 x i8] c"60" }, %"struct.std::array.77" { [2 x i8] c"61" }, %"struct.std::array.77" { [2 x i8] c"62" }, %"struct.std::array.77" { [2 x i8] c"63" }, %"struct.std::array.77" { [2 x i8] c"64" }, %"struct.std::array.77" { [2 x i8] c"65" }, %"struct.std::array.77" { [2 x i8] c"66" }, %"struct.std::array.77" { [2 x i8] c"67" }, %"struct.std::array.77" { [2 x i8] c"68" }, %"struct.std::array.77" { [2 x i8] c"69" }, %"struct.std::array.77" { [2 x i8] c"70" }, %"struct.std::array.77" { [2 x i8] c"71" }, %"struct.std::array.77" { [2 x i8] c"72" }, %"struct.std::array.77" { [2 x i8] c"73" }, %"struct.std::array.77" { [2 x i8] c"74" }, %"struct.std::array.77" { [2 x i8] c"75" }, %"struct.std::array.77" { [2 x i8] c"76" }, %"struct.std::array.77" { [2 x i8] c"77" }, %"struct.std::array.77" { [2 x i8] c"78" }, %"struct.std::array.77" { [2 x i8] c"79" }, %"struct.std::array.77" { [2 x i8] c"80" }, %"struct.std::array.77" { [2 x i8] c"81" }, %"struct.std::array.77" { [2 x i8] c"82" }, %"struct.std::array.77" { [2 x i8] c"83" }, %"struct.std::array.77" { [2 x i8] c"84" }, %"struct.std::array.77" { [2 x i8] c"85" }, %"struct.std::array.77" { [2 x i8] c"86" }, %"struct.std::array.77" { [2 x i8] c"87" }, %"struct.std::array.77" { [2 x i8] c"88" }, %"struct.std::array.77" { [2 x i8] c"89" }, %"struct.std::array.77" { [2 x i8] c"90" }, %"struct.std::array.77" { [2 x i8] c"91" }, %"struct.std::array.77" { [2 x i8] c"92" }, %"struct.std::array.77" { [2 x i8] c"93" }, %"struct.std::array.77" { [2 x i8] c"94" }, %"struct.std::array.77" { [2 x i8] c"95" }, %"struct.std::array.77" { [2 x i8] c"96" }, %"struct.std::array.77" { [2 x i8] c"97" }, %"struct.std::array.77" { [2 x i8] c"98" }, %"struct.std::array.77" { [2 x i8] c"99" }] }, comdat, align 1
@_ZZN8nlohmann16json_abi_v3_11_36detail10serializerINS0_10basic_jsonISt3mapSt6vectorNSt7__cxx1112basic_stringIcSt11char_traitsIcESaIcEEEblmdSaNS0_14adl_serializerES5_IhSaIhEEvEEE12dump_integerIlTnNSt9enable_ifIXoooooosr3std11is_integralIT_EE5valuesr3std7is_sameISJ_mEE5valuesr3std7is_sameISJ_lEE5valuesr3std7is_sameISJ_hEE5valueEiE4typeELi0EEEvSJ_E12digits_to_99 = linkonce_odr dso_local constant %"struct.std::array.76" { [100 x %"struct.std::array.77"] [%"struct.std::array.77" { [2 x i8] c"00" }, %"struct.std::array.77" { [2 x i8] c"01" }, %"struct.std::array.77" { [2 x i8] c"02" }, %"struct.std::array.77" { [2 x i8] c"03" }, %"struct.std::array.77" { [2 x i8] c"04" }, %"struct.std::array.77" { [2 x i8] c"05" }, %"struct.std::array.77" { [2 x i8] c"06" }, %"struct.std::array.77" { [2 x i8] c"07" }, %"struct.std::array.77" { [2 x i8] c"08" }, %"struct.std::array.77" { [2 x i8] c"09" }, %"struct.std::array.77" { [2 x i8] c"10" }, %"struct.std::array.77" { [2 x i8] c"11" }, %"struct.std::array.77" { [2 x i8] c"12" }, %"struct.std::array.77" { [2 x i8] c"13" }, %"struct.std::array.77" { [2 x i8] c"14" }, %"struct.std::array.77" { [2 x i8] c"15" }, %"struct.std::array.77" { [2 x i8] c"16" }, %"struct.std::array.77" { [2 x i8] c"17" }, %"struct.std::array.77" { [2 x i8] c"18" }, %"struct.std::array.77" { [2 x i8] c"19" }, %"struct.std::array.77" { [2 x i8] c"20" }, %"struct.std::array.77" { [2 x i8] c"21" }, %"struct.std::array.77" { [2 x i8] c"22" }, %"struct.std::array.77" { [2 x i8] c"23" }, %"struct.std::array.77" { [2 x i8] c"24" }, %"struct.std::array.77" { [2 x i8] c"25" }, %"struct.std::array.77" { [2 x i8] c"26" }, %"struct.std::array.77" { [2 x i8] c"27" }, %"struct.std::array.77" { [2 x i8] c"28" }, %"struct.std::array.77" { [2 x i8] c"29" }, %"struct.std::array.77" { [2 x i8] c"30" }, %"struct.std::array.77" { [2 x i8] c"31" }, %"struct.std::array.77" { [2 x i8] c"32" }, %"struct.std::array.77" { [2 x i8] c"33" }, %"struct.std::array.77" { [2 x i8] c"34" }, %"struct.std::array.77" { [2 x i8] c"35" }, %"struct.std::array.77" { [2 x i8] c"36" }, %"struct.std::array.77" { [2 x i8] c"37" }, %"struct.std::array.77" { [2 x i8] c"38" }, %"struct.std::array.77" { [2 x i8] c"39" }, %"struct.std::array.77" { [2 x i8] c"40" }, %"struct.std::array.77" { [2 x i8] c"41" }, %"struct.std::array.77" { [2 x i8] c"42" }, %"struct.std::array.77" { [2 x i8] c"43" }, %"struct.std::array.77" { [2 x i8] c"44" }, %"struct.std::array.77" { [2 x i8] c"45" }, %"struct.std::array.77" { [2 x i8] c"46" }, %"struct.std::array.77" { [2 x i8] c"47" }, %"struct.std::array.77" { [2 x i8] c"48" }, %"struct.std::array.77" { [2 x i8] c"49" }, %"struct.std::array.77" { [2 x i8] c"50" }, %"struct.std::array.77" { [2 x i8] c"51" }, %"struct.std::array.77" { [2 x i8] c"52" }, %"struct.std::array.77" { [2 x i8] c"53" }, %"struct.std::array.77" { [2 x i8] c"54" }, %"struct.std::array.77" { [2 x i8] c"55" }, %"struct.std::array.77" { [2 x i8] c"56" }, %"struct.std::array.77" { [2 x i8] c"57" }, %"struct.std::array.77" { [2 x i8] c"58" }, %"struct.std::array.77" { [2 x i8] c"59" }, %"struct.std::array.77" { [2 x i8] c"60" }, %"struct.std::array.77" { [2 x i8] c"61" }, %"struct.std::array.77" { [2 x i8] c"62" }, %"struct.std::array.77" { [2 x i8] c"63" }, %"struct.std::array.77" { [2 x i8] c"64" }, %"struct.std::array.77" { [2 x i8] c"65" }, %"struct.std::array.77" { [2 x i8] c"66" }, %"struct.std::array.77" { [2 x i8] c"67" }, %"struct.std::array.77" { [2 x i8] c"68" }, %"struct.std::array.77" { [2 x i8] c"69" }, %"struct.std::array.77" { [2 x i8] c"70" }, %"struct.std::array.77" { [2 x i8] c"71" }, %"struct.std::array.77" { [2 x i8] c"72" }, %"struct.std::array.77" { [2 x i8] c"73" }, %"struct.std::array.77" { [2 x i8] c"74" }, %"struct.std::array.77" { [2 x i8] c"75" }, %"struct.std::array.77" { [2 x i8] c"76" }, %"struct.std::array.77" { [2 x i8] c"77" }, %"struct.std::array.77" { [2 x i8] c"78" }, %"struct.std::array.77" { [2 x i8] c"79" }, %"struct.std::array.77" { [2 x i8] c"80" }, %"struct.std::array.77" { [2 x i8] c"81" }, %"struct.std::array.77" { [2 x i8] c"82" }, %"struct.std::array.77" { [2 x i8] c"83" }, %"struct.std::array.77" { [2 x i8] c"84" }, %"struct.std::array.77" { [2 x i8] c"85" }, %"struct.std::array.77" { [2 x i8] c"86" }, %"struct.std::array.77" { [2 x i8] c"87" }, %"struct.std::array.77" { [2 x i8] c"88" }, %"struct.std::array.77" { [2 x i8] c"89" }, %"struct.std::array.77" { [2 x i8] c"90" }, %"struct.std::array.77" { [2 x i8] c"91" }, %"struct.std::array.77" { [2 x i8] c"92" }, %"struct.std::array.77" { [2 x i8] c"93" }, %"struct.std::array.77" { [2 x i8] c"94" }, %"struct.std::array.77" { [2 x i8] c"95" }, %"struct.std::array.77" { [2 x i8] c"96" }, %"struct.std::array.77" { [2 x i8] c"97" }, %"struct.std::array.77" { [2 x i8] c"98" }, %"struct.std::array.77" { [2 x i8] c"99" }] }, comdat, align 1
@_ZZN8nlohmann16json_abi_v3_11_36detail10serializerINS0_10basic_jsonISt3mapSt6vectorNSt7__cxx1112basic_stringIcSt11char_traitsIcESaIcEEEblmdSaNS0_14adl_serializerES5_IhSaIhEEvEEE10dump_floatEdE24is_ieee_single_or_double = linkonce_odr dso_local constant i8 1, comdat, align 1
@_ZZN8nlohmann16json_abi_v3_11_36detail9dtoa_impl36get_cached_power_for_binary_exponentEiE13kCachedPowers = linkonce_odr dso_local constant %"struct.std::array.79" { [79 x %"struct.nlohmann::json_abi_v3_11_3::detail::dtoa_impl::cached_power"] [%"struct.nlohmann::json_abi_v3_11_3::detail::dtoa_impl::cached_power" { i64 -6093090917745768758, i32 -1060, i32 -300 }, %"struct.nlohmann::json_abi_v3_11_3::detail::dtoa_impl::cached_power" { i64 -38366372719436721, i32 -1034, i32 -292 }, %"struct.nlohmann::json_abi_v3_11_3::detail::dtoa_impl::cached_power" { i64 -4731433901725329908, i32 -1007, i32 -284 }, %"struct.nlohmann::json_abi_v3_11_3::detail::dtoa_impl::cached_power" { i64 -8228041688891786180, i32 -980, i32 -276 }, %"struct.nlohmann::json_abi_v3_11_3::detail::dtoa_impl::cached_power" { i64 -3219690930897053053, i32 -954, i32 -268 }, %"struct.nlohmann::json_abi_v3_11_3::detail::dtoa_impl::cached_power" { i64 -7101705404292871755, i32 -927, i32 -260 }, %"struct.nlohmann::json_abi_v3_11_3::detail::dtoa_impl::cached_power" { i64 -1541319077368263733, i32 -901, i32 -252 }, %"struct.nlohmann::json_abi_v3_11_3::detail::dtoa_impl::cached_power" { i64 -5851220927660403859, i32 -874, i32 -244 }, %"struct.nlohmann::json_abi_v3_11_3::detail::dtoa_impl::cached_power" { i64 -9062348037703676329, i32 -847, i32 -236 }, %"struct.nlohmann::json_abi_v3_11_3::detail::dtoa_impl::cached_power" { i64 -4462904269766699465, i32 -821, i32 -228 }, %"struct.nlohmann::json_abi_v3_11_3::detail::dtoa_impl::cached_power" { i64 -8027971522334779313, i32 -794, i32 -220 }, %"struct.nlohmann::json_abi_v3_11_3::detail::dtoa_impl::cached_power" { i64 -2921563150702462265, i32 -768, i32 -212 }, %"struct.nlohmann::json_abi_v3_11_3::detail::dtoa_impl::cached_power" { i64 -6879582898840692748, i32 -741, i32 -204 }, %"struct.nlohmann::json_abi_v3_11_3::detail::dtoa_impl::cached_power" { i64 -1210330751515841307, i32 -715, i32 -196 }, %"struct.nlohmann::json_abi_v3_11_3::detail::dtoa_impl::cached_power" { i64 -5604615407819967858, i32 -688, i32 -188 }, %"struct.nlohmann::json_abi_v3_11_3::detail::dtoa_impl::cached_power" { i64 -8878612607581929669, i32 -661, i32 -180 }, %"struct.nlohmann::json_abi_v3_11_3::detail::dtoa_impl::cached_power" { i64 -4189117143640191558, i32 -635, i32 -172 }, %"struct.nlohmann::json_abi_v3_11_3::detail::dtoa_impl::cached_power" { i64 -7823984217374209642, i32 -608, i32 -164 }, %"struct.nlohmann::json_abi_v3_11_3::detail::dtoa_impl::cached_power" { i64 -2617598379430861436, i32 -582, i32 -156 }, %"struct.nlohmann::json_abi_v3_11_3::detail::dtoa_impl::cached_power" { i64 -6653111496142234890, i32 -555, i32 -148 }, %"struct.nlohmann::json_abi_v3_11_3::detail::dtoa_impl::cached_power" { i64 -872862063775190746, i32 -529, i32 -140 }, %"struct.nlohmann::json_abi_v3_11_3::detail::dtoa_impl::cached_power" { i64 -5353181642124984136, i32 -502, i32 -132 }, %"struct.nlohmann::json_abi_v3_11_3::detail::dtoa_impl::cached_power" { i64 -8691279853972075893, i32 -475, i32 -124 }, %"struct.nlohmann::json_abi_v3_11_3::detail::dtoa_impl::cached_power" { i64 -3909969587797413805, i32 -449, i32 -116 }, %"struct.nlohmann::json_abi_v3_11_3::detail::dtoa_impl::cached_power" { i64 -7616003081050118571, i32 -422, i32 -108 }, %"struct.nlohmann::json_abi_v3_11_3::detail::dtoa_impl::cached_power" { i64 -2307682335666372931, i32 -396, i32 -100 }, %"struct.nlohmann::json_abi_v3_11_3::detail::dtoa_impl::cached_power" { i64 -6422206049907525489, i32 -369, i32 -92 }, %"struct.nlohmann::json_abi_v3_11_3::detail::dtoa_impl::cached_power" { i64 -528786136287117932, i32 -343, i32 -84 }, %"struct.nlohmann::json_abi_v3_11_3::detail::dtoa_impl::cached_power" { i64 -5096825099203863601, i32 -316, i32 -76 }, %"struct.nlohmann::json_abi_v3_11_3::detail::dtoa_impl::cached_power" { i64 -8500279345513818773, i32 -289, i32 -68 }, %"struct.nlohmann::json_abi_v3_11_3::detail::dtoa_impl::cached_power" { i64 -3625356651333078602, i32 -263, i32 -60 }, %"struct.nlohmann::json_abi_v3_11_3::detail::dtoa_impl::cached_power" { i64 -7403949918844649556, i32 -236, i32 -52 }, %"struct.nlohmann::json_abi_v3_11_3::detail::dtoa_impl::cached_power" { i64 -1991698500497491194, i32 -210, i32 -44 }, %"struct.nlohmann::json_abi_v3_11_3::detail::dtoa_impl::cached_power" { i64 -6186779746782440749, i32 -183, i32 -36 }, %"struct.nlohmann::json_abi_v3_11_3::detail::dtoa_impl::cached_power" { i64 -177973607073265138, i32 -157, i32 -28 }, %"struct.nlohmann::json_abi_v3_11_3::detail::dtoa_impl::cached_power" { i64 -4835449396872013077, i32 -130, i32 -20 }, %"struct.nlohmann::json_abi_v3_11_3::detail::dtoa_impl::cached_power" { i64 -8305539271883716404, i32 -103, i32 -12 }, %"struct.nlohmann::json_abi_v3_11_3::detail::dtoa_impl::cached_power" { i64 -3335171328526686932, i32 -77, i32 -4 }, %"struct.nlohmann::json_abi_v3_11_3::detail::dtoa_impl::cached_power" { i64 -7187745005283311616, i32 -50, i32 4 }, %"struct.nlohmann::json_abi_v3_11_3::detail::dtoa_impl::cached_power" { i64 -1669528073709551616, i32 -24, i32 12 }, %"struct.nlohmann::json_abi_v3_11_3::detail::dtoa_impl::cached_power" { i64 -5946744073709551616, i32 3, i32 20 }, %"struct.nlohmann::json_abi_v3_11_3::detail::dtoa_impl::cached_power" { i64 -9133518327554766460, i32 30, i32 28 }, %"struct.nlohmann::json_abi_v3_11_3::detail::dtoa_impl::cached_power" { i64 -4568956265895094861, i32 56, i32 36 }, %"struct.nlohmann::json_abi_v3_11_3::detail::dtoa_impl::cached_power" { i64 -8106986416796705680, i32 83, i32 44 }, %"struct.nlohmann::json_abi_v3_11_3::detail::dtoa_impl::cached_power" { i64 -3039304518611664792, i32 109, i32 52 }, %"struct.nlohmann::json_abi_v3_11_3::detail::dtoa_impl::cached_power" { i64 -6967307053960650171, i32 136, i32 60 }, %"struct.nlohmann::json_abi_v3_11_3::detail::dtoa_impl::cached_power" { i64 -1341049929119499481, i32 162, i32 68 }, %"struct.nlohmann::json_abi_v3_11_3::detail::dtoa_impl::cached_power" { i64 -5702008784649933400, i32 189, i32 76 }, %"struct.nlohmann::json_abi_v3_11_3::detail::dtoa_impl::cached_power" { i64 -8951176327949752869, i32 216, i32 84 }, %"struct.nlohmann::json_abi_v3_11_3::detail::dtoa_impl::cached_power" { i64 -4297245513042813542, i32 242, i32 92 }, %"struct.nlohmann::json_abi_v3_11_3::detail::dtoa_impl::cached_power" { i64 -7904546130479028392, i32 269, i32 100 }, %"struct.nlohmann::json_abi_v3_11_3::detail::dtoa_impl::cached_power" { i64 -2737644984756826646, i32 295, i32 108 }, %"struct.nlohmann::json_abi_v3_11_3::detail::dtoa_impl::cached_power" { i64 -6742553186979055798, i32 322, i32 116 }, %"struct.nlohmann::json_abi_v3_11_3::detail::dtoa_impl::cached_power" { i64 -1006140569036166267, i32 348, i32 124 }, %"struct.nlohmann::json_abi_v3_11_3::detail::dtoa_impl::cached_power" { i64 -5452481866653427593, i32 375, i32 132 }, %"struct.nlohmann::json_abi_v3_11_3::detail::dtoa_impl::cached_power" { i64 -8765264286586255934, i32 402, i32 140 }, %"struct.nlohmann::json_abi_v3_11_3::detail::dtoa_impl::cached_power" { i64 -4020214983419339459, i32 428, i32 148 }, %"struct.nlohmann::json_abi_v3_11_3::detail::dtoa_impl::cached_power" { i64 -7698142301602209613, i32 455, i32 156 }, %"struct.nlohmann::json_abi_v3_11_3::detail::dtoa_impl::cached_power" { i64 -2430079312244744221, i32 481, i32 164 }, %"struct.nlohmann::json_abi_v3_11_3::detail::dtoa_impl::cached_power" { i64 -6513398903789220827, i32 508, i32 172 }, %"struct.nlohmann::json_abi_v3_11_3::detail::dtoa_impl::cached_power" { i64 -664674077828931748, i32 534, i32 180 }, %"struct.nlohmann::json_abi_v3_11_3::detail::dtoa_impl::cached_power" { i64 -5198069505264599346, i32 561, i32 188 }, %"struct.nlohmann::json_abi_v3_11_3::detail::dtoa_impl::cached_power" { i64 -8575712306248138270, i32 588, i32 196 }, %"struct.nlohmann::json_abi_v3_11_3::detail::dtoa_impl::cached_power" { i64 -3737760522056206171, i32 614, i32 204 }, %"struct.nlohmann::json_abi_v3_11_3::detail::dtoa_impl::cached_power" { i64 -7487697328667536417, i32 641, i32 212 }, %"struct.nlohmann::json_abi_v3_11_3::detail::dtoa_impl::cached_power" { i64 -2116491865831296966, i32 667, i32 220 }, %"struct.nlohmann::json_abi_v3_11_3::detail::dtoa_impl::cached_power" { i64 -6279758049420528746, i32 694, i32 228 }, %"struct.nlohmann::json_abi_v3_11_3::detail::dtoa_impl::cached_power" { i64 -316522074587315140, i32 720, i32 236 }, %"struct.nlohmann::json_abi_v3_11_3::detail::dtoa_impl::cached_power" { i64 -4938676049251384304, i32 747, i32 244 }, %"struct.nlohmann::json_abi_v3_11_3::detail::dtoa_impl::cached_power" { i64 -8382449121214030822, i32 774, i32 252 }, %"struct.nlohmann::json_abi_v3_11_3::detail::dtoa_impl::cached_power" { i64 -3449775934753242068, i32 800, i32 260 }, %"struct.nlohmann::json_abi_v3_11_3::detail::dtoa_impl::cached_power" { i64 -7273132090830278359, i32 827, i32 268 }, %"struct.nlohmann::json_abi_v3_11_3::detail::dtoa_impl::cached_power" { i64 -1796764746270372707, i32 853, i32 276 }, %"struct.nlohmann::json_abi_v3_11_3::detail::dtoa_impl::cached_power" { i64 -6041542782089432023, i32 880, i32 284 }, %"struct.nlohmann::json_abi_v3_11_3::detail::dtoa_impl::cached_power" { i64 -9204148869281624187, i32 907, i32 292 }, %"struct.nlohmann::json_abi_v3_11_3::detail::dtoa_impl::cached_power" { i64 -4674203974643163859, i32 933, i32 300 }, %"struct.nlohmann::json_abi_v3_11_3::detail::dtoa_impl::cached_power" { i64 -8185402070463610993, i32 960, i32 308 }, %"struct.nlohmann::json_abi_v3_11_3::detail::dtoa_impl::cached_power" { i64 -3156152948152813503, i32 986, i32 316 }, %"struct.nlohmann::json_abi_v3_11_3::detail::dtoa_impl::cached_power" { i64 -7054365918152680535, i32 1013, i32 324 }] }, comdat, align 8
@.str.85 = private unnamed_addr constant [43 x i8] c"cannot create object from initializer list\00", align 1
@.str.86 = private unnamed_addr constant [52 x i8] c"cannot use operator[] with a numeric argument with \00", align 1
@.str.87 = private unnamed_addr constant [49 x i8] c"cannot create std::vector larger than max_size()\00", align 1
@.str.88 = private unnamed_addr constant [8 x i8] c"boolean\00", align 1
@.str.89 = private unnamed_addr constant [7 x i8] c"binary\00", align 1
@.str.90 = private unnamed_addr constant [10 x i8] c"discarded\00", align 1
@llvm.global_ctors = appending global [1 x { i32, ptr, ptr }] [{ i32, ptr, ptr } { i32 65535, ptr @_GLOBAL__sub_I_unit_class_const_iterator.cpp, ptr null }]

; Function Attrs: uwtable
define internal void @__cxx_global_var_init() #0 section ".text.startup" {
entry:
  %ref.tmp = alloca %"struct.doctest::detail::TestSuite", align 8
  call void @llvm.memset.p0.i64(ptr align 8 %ref.tmp, i8 0, i64 40, i1 false)
  call void @_ZN7doctest6detail9TestSuiteC2Ev(ptr noundef nonnull align 8 dereferenceable(40) %ref.tmp) #17
  %call = call noundef nonnull align 8 dereferenceable(40) ptr @_ZN7doctest6detail9TestSuitemlEPKc(ptr noundef nonnull align 8 dereferenceable(40) %ref.tmp, ptr noundef @.str)
  %call1 = call noundef i32 @_ZN7doctest6detail12setTestSuiteERKNS0_9TestSuiteE(ptr noundef nonnull align 8 dereferenceable(40) %call)
  %call2 = call noundef i32 @_ZN7doctest6detailL7consumeEPKii(ptr noundef @_ZL18DOCTEST_ANON_VAR_0, i32 noundef %call1) #17
  store i32 %call2, ptr @_ZL18DOCTEST_ANON_VAR_0, align 4
  ret void
}

; Function Attrs: mustprogress nounwind uwtable
define internal noundef i32 @_ZN7doctest6detailL7consumeEPKii(ptr noundef %0, i32 noundef %1) #1 {
entry:
  %.addr = alloca ptr, align 8
  %.addr1 = alloca i32, align 4
  store ptr %0, ptr %.addr, align 8
  store i32 %1, ptr %.addr1, align 4
  ret i32 0
}

declare noundef i32 @_ZN7doctest6detail12setTestSuiteERKNS0_9TestSuiteE(ptr noundef nonnull align 8 dereferenceable(40)) #2

; Function Attrs: nocallback nofree nounwind willreturn memory(argmem: write)
declare void @llvm.memset.p0.i64(ptr nocapture writeonly, i8, i64, i1 immarg) #3

; Function Attrs: mustprogress nounwind uwtable
define linkonce_odr dso_local void @_ZN7doctest6detail9TestSuiteC2Ev(ptr noundef nonnull align 8 dereferenceable(40) %this) unnamed_addr #1 comdat align 2 {
entry:
  %this.addr = alloca ptr, align 8
  store ptr %this, ptr %this.addr, align 8
  %this1 = load ptr, ptr %this.addr, align 8
  %m_test_suite = getelementptr inbounds %"struct.doctest::detail::TestSuite", ptr %this1, i32 0, i32 0
  store ptr null, ptr %m_test_suite, align 8
  %m_description = getelementptr inbounds %"struct.doctest::detail::TestSuite", ptr %this1, i32 0, i32 1
  store ptr null, ptr %m_description, align 8
  %m_skip = getelementptr inbounds %"struct.doctest::detail::TestSuite", ptr %this1, i32 0, i32 2
  store i8 0, ptr %m_skip, align 8
  %m_no_breaks = getelementptr inbounds %"struct.doctest::detail::TestSuite", ptr %this1, i32 0, i32 3
  store i8 0, ptr %m_no_breaks, align 1
  %m_no_output = getelementptr inbounds %"struct.doctest::detail::TestSuite", ptr %this1, i32 0, i32 4
  store i8 0, ptr %m_no_output, align 2
  %m_may_fail = getelementptr inbounds %"struct.doctest::detail::TestSuite", ptr %this1, i32 0, i32 5
  store i8 0, ptr %m_may_fail, align 1
  %m_should_fail = getelementptr inbounds %"struct.doctest::detail::TestSuite", ptr %this1, i32 0, i32 6
  store i8 0, ptr %m_should_fail, align 4
  %m_expected_failures = getelementptr inbounds %"struct.doctest::detail::TestSuite", ptr %this1, i32 0, i32 7
  store i32 0, ptr %m_expected_failures, align 8
  %m_timeout = getelementptr inbounds %"struct.doctest::detail::TestSuite", ptr %this1, i32 0, i32 8
  store double 0.000000e+00, ptr %m_timeout, align 8
  ret void
}

declare noundef nonnull align 8 dereferenceable(40) ptr @_ZN7doctest6detail9TestSuitemlEPKc(ptr noundef nonnull align 8 dereferenceable(40), ptr noundef) #2

; Function Attrs: uwtable
define internal void @__cxx_global_var_init.1() #0 section ".text.startup" personality ptr @__gxx_personality_v0 {
entry:
  %ref.tmp = alloca %"struct.doctest::detail::TestCase", align 8
  %ref.tmp1 = alloca %"class.doctest::String", align 8
  %exn.slot = alloca ptr, align 8
  %ehselector.slot = alloca i32, align 4
  %call = call noundef nonnull align 8 dereferenceable(40) ptr @_ZN28doctest_detail_test_suite_ns19getCurrentTestSuiteEv()
  call void @_ZN7doctest6StringC1Ev(ptr noundef nonnull align 8 dereferenceable(24) %ref.tmp1) #17
  invoke void @_ZN7doctest6detail8TestCaseC1EPFvvEPKcjRKNS0_9TestSuiteERKNS_6StringEi(ptr noundef nonnull align 8 dereferenceable(144) %ref.tmp, ptr noundef @_ZL19DOCTEST_ANON_FUNC_2v, ptr noundef @.str.2, i32 noundef 15, ptr noundef nonnull align 8 dereferenceable(40) %call, ptr noundef nonnull align 8 dereferenceable(24) %ref.tmp1, i32 noundef -1)
          to label %invoke.cont unwind label %lpad

invoke.cont:                                      ; preds = %entry
  %call4 = invoke noundef nonnull align 8 dereferenceable(144) ptr @_ZN7doctest6detail8TestCasemlEPKc(ptr noundef nonnull align 8 dereferenceable(144) %ref.tmp, ptr noundef @.str.3)
          to label %invoke.cont3 unwind label %lpad2

invoke.cont3:                                     ; preds = %invoke.cont
  %call6 = invoke noundef i32 @_ZN7doctest6detail7regTestERKNS0_8TestCaseE(ptr noundef nonnull align 8 dereferenceable(144) %call4)
          to label %invoke.cont5 unwind label %lpad2

invoke.cont5:                                     ; preds = %invoke.cont3
  %call7 = call noundef i32 @_ZN7doctest6detailL7consumeEPKii(ptr noundef @_ZL18DOCTEST_ANON_VAR_3, i32 noundef %call6) #17
  call void @_ZN7doctest6detail8TestCaseD2Ev(ptr noundef nonnull align 8 dereferenceable(144) %ref.tmp) #17
  call void @_ZN7doctest6StringD1Ev(ptr noundef nonnull align 8 dereferenceable(24) %ref.tmp1) #17
  store i32 %call7, ptr @_ZL18DOCTEST_ANON_VAR_3, align 4
  ret void

lpad:                                             ; preds = %entry
  %0 = landingpad { ptr, i32 }
          cleanup
  %1 = extractvalue { ptr, i32 } %0, 0
  store ptr %1, ptr %exn.slot, align 8
  %2 = extractvalue { ptr, i32 } %0, 1
  store i32 %2, ptr %ehselector.slot, align 4
  br label %ehcleanup

lpad2:                                            ; preds = %invoke.cont3, %invoke.cont
  %3 = landingpad { ptr, i32 }
          cleanup
  %4 = extractvalue { ptr, i32 } %3, 0
  store ptr %4, ptr %exn.slot, align 8
  %5 = extractvalue { ptr, i32 } %3, 1
  store i32 %5, ptr %ehselector.slot, align 4
  call void @_ZN7doctest6detail8TestCaseD2Ev(ptr noundef nonnull align 8 dereferenceable(144) %ref.tmp) #17
  br label %ehcleanup

ehcleanup:                                        ; preds = %lpad2, %lpad
  call void @_ZN7doctest6StringD1Ev(ptr noundef nonnull align 8 dereferenceable(24) %ref.tmp1) #17
  br label %eh.resume

eh.resume:                                        ; preds = %ehcleanup
  %exn = load ptr, ptr %exn.slot, align 8
  %sel = load i32, ptr %ehselector.slot, align 4
  %lpad.val = insertvalue { ptr, i32 } poison, ptr %exn, 0
  %lpad.val8 = insertvalue { ptr, i32 } %lpad.val, i32 %sel, 1
  resume { ptr, i32 } %lpad.val8
}

declare noundef i32 @_ZN7doctest6detail7regTestERKNS0_8TestCaseE(ptr noundef nonnull align 8 dereferenceable(144)) #2

; Function Attrs: mustprogress uwtable
define internal void @_ZL19DOCTEST_ANON_FUNC_2v() #4 personality ptr @__gxx_personality_v0 {
entry:
  %DOCTEST_ANON_SUBCASE_4 = alloca ptr, align 8
  %ref.tmp = alloca %"struct.doctest::detail::Subcase", align 8
  %ref.tmp1 = alloca %"class.doctest::String", align 8
  %exn.slot = alloca ptr, align 8
  %ehselector.slot = alloca i32, align 4
  %DOCTEST_ANON_SUBCASE_5 = alloca ptr, align 8
  %ref.tmp4 = alloca %"struct.doctest::detail::Subcase", align 8
  %ref.tmp5 = alloca %"class.doctest::String", align 8
  %DOCTEST_ANON_SUBCASE_6 = alloca ptr, align 8
  %ref.tmp13 = alloca %"struct.doctest::detail::Subcase", align 8
  %ref.tmp14 = alloca %"class.doctest::String", align 8
  %j = alloca %"class.nlohmann::json_abi_v3_11_3::basic_json", align 8
  %it = alloca %"class.nlohmann::json_abi_v3_11_3::detail::iter_impl", align 8
  %DOCTEST_ANON_SUBCASE_7 = alloca ptr, align 8
  %ref.tmp23 = alloca %"struct.doctest::detail::Subcase", align 8
  %ref.tmp24 = alloca %"class.doctest::String", align 8
  %j32 = alloca %"class.nlohmann::json_abi_v3_11_3::basic_json", align 8
  %it34 = alloca %"class.nlohmann::json_abi_v3_11_3::detail::iter_impl", align 8
  %DOCTEST_ANON_SUBCASE_8 = alloca ptr, align 8
  %ref.tmp36 = alloca %"struct.doctest::detail::Subcase", align 8
  %ref.tmp37 = alloca %"class.doctest::String", align 8
  %j45 = alloca %"class.nlohmann::json_abi_v3_11_3::basic_json", align 8
  %it47 = alloca %"class.nlohmann::json_abi_v3_11_3::detail::iter_impl", align 8
  %DOCTEST_ANON_SUBCASE_9 = alloca ptr, align 8
  %ref.tmp50 = alloca %"struct.doctest::detail::Subcase", align 8
  %ref.tmp51 = alloca %"class.doctest::String", align 8
  %j60 = alloca %"class.nlohmann::json_abi_v3_11_3::basic_json", align 8
  %it62 = alloca %"class.nlohmann::json_abi_v3_11_3::detail::iter_impl", align 8
  %it2 = alloca %"class.nlohmann::json_abi_v3_11_3::detail::iter_impl", align 8
  %DOCTEST_ANON_SUBCASE_10 = alloca ptr, align 8
  %ref.tmp66 = alloca %"struct.doctest::detail::Subcase", align 8
  %ref.tmp67 = alloca %"class.doctest::String", align 8
  %DOCTEST_ANON_SUBCASE_11 = alloca ptr, align 8
  %ref.tmp76 = alloca %"struct.doctest::detail::Subcase", align 8
  %ref.tmp77 = alloca %"class.doctest::String", align 8
  %it86 = alloca %"class.nlohmann::json_abi_v3_11_3::detail::iter_impl.0", align 8
  %cit = alloca %"class.nlohmann::json_abi_v3_11_3::detail::iter_impl", align 8
  %DOCTEST_ANON_SUBCASE_12 = alloca ptr, align 8
  %ref.tmp89 = alloca %"struct.doctest::detail::Subcase", align 8
  %ref.tmp90 = alloca %"class.doctest::String", align 8
  %j99 = alloca %"class.nlohmann::json_abi_v3_11_3::basic_json", align 8
  %it100 = alloca %"class.nlohmann::json_abi_v3_11_3::detail::iter_impl.0", align 8
  %cit101 = alloca %"class.nlohmann::json_abi_v3_11_3::detail::iter_impl", align 8
  %DOCTEST_ANON_SUBCASE_13 = alloca ptr, align 8
  %ref.tmp108 = alloca %"struct.doctest::detail::Subcase", align 8
  %ref.tmp109 = alloca %"class.doctest::String", align 8
  %DOCTEST_ANON_SUBCASE_14 = alloca ptr, align 8
  %ref.tmp117 = alloca %"struct.doctest::detail::Subcase", align 8
  %ref.tmp118 = alloca %"class.doctest::String", align 8
  %DOCTEST_ANON_SUBCASE_15 = alloca ptr, align 8
  %ref.tmp127 = alloca %"struct.doctest::detail::Subcase", align 8
  %ref.tmp128 = alloca %"class.doctest::String", align 8
  %j137 = alloca %"class.nlohmann::json_abi_v3_11_3::basic_json", align 8
  %it139 = alloca %"class.nlohmann::json_abi_v3_11_3::detail::iter_impl", align 8
  %ref.tmp140 = alloca %"struct.doctest::detail::Result", align 8
  %ref.tmp141 = alloca %"struct.doctest::detail::Expression_lhs", align 4
  %ref.tmp142 = alloca %"struct.doctest::detail::ExpressionDecomposer", align 4
  %ref.tmp145 = alloca i8, align 1
  %ref.tmp146 = alloca %"class.nlohmann::json_abi_v3_11_3::detail::iter_impl", align 8
  %DOCTEST_ANON_SUBCASE_16 = alloca ptr, align 8
  %ref.tmp159 = alloca %"struct.doctest::detail::Subcase", align 8
  %ref.tmp160 = alloca %"class.doctest::String", align 8
  %j169 = alloca %"class.nlohmann::json_abi_v3_11_3::basic_json", align 8
  %it171 = alloca %"class.nlohmann::json_abi_v3_11_3::detail::iter_impl", align 8
  %ref.tmp172 = alloca %"struct.doctest::detail::Result", align 8
  %ref.tmp173 = alloca %"struct.doctest::detail::Expression_lhs", align 4
  %ref.tmp174 = alloca %"struct.doctest::detail::ExpressionDecomposer", align 4
  %ref.tmp177 = alloca i8, align 1
  %ref.tmp178 = alloca %"class.nlohmann::json_abi_v3_11_3::detail::iter_impl", align 8
  %DOCTEST_ANON_SUBCASE_17 = alloca ptr, align 8
  %ref.tmp192 = alloca %"struct.doctest::detail::Subcase", align 8
  %ref.tmp193 = alloca %"class.doctest::String", align 8
  %j202 = alloca %"class.nlohmann::json_abi_v3_11_3::basic_json", align 8
  %it204 = alloca %"class.nlohmann::json_abi_v3_11_3::detail::iter_impl", align 8
  %ref.tmp205 = alloca %"struct.doctest::detail::Result", align 8
  %ref.tmp206 = alloca %"struct.doctest::detail::Expression_lhs", align 4
  %ref.tmp207 = alloca %"struct.doctest::detail::ExpressionDecomposer", align 4
  %ref.tmp210 = alloca i8, align 1
  %ref.tmp211 = alloca %"class.nlohmann::json_abi_v3_11_3::detail::iter_impl", align 8
  %DOCTEST_ANON_SUBCASE_18 = alloca ptr, align 8
  %ref.tmp227 = alloca %"struct.doctest::detail::Subcase", align 8
  %ref.tmp228 = alloca %"class.doctest::String", align 8
  %DOCTEST_ANON_SUBCASE_19 = alloca ptr, align 8
  %ref.tmp237 = alloca %"struct.doctest::detail::Subcase", align 8
  %ref.tmp238 = alloca %"class.doctest::String", align 8
  %j247 = alloca %"class.nlohmann::json_abi_v3_11_3::basic_json", align 8
  %it249 = alloca %"class.nlohmann::json_abi_v3_11_3::detail::iter_impl", align 8
  %ref.tmp250 = alloca %"struct.doctest::detail::Result", align 8
  %ref.tmp251 = alloca %"struct.doctest::detail::Expression_lhs", align 4
  %ref.tmp252 = alloca %"struct.doctest::detail::ExpressionDecomposer", align 4
  %ref.tmp255 = alloca i8, align 1
  %ref.tmp256 = alloca %"class.nlohmann::json_abi_v3_11_3::detail::iter_impl", align 8
  %DOCTEST_ANON_SUBCASE_20 = alloca ptr, align 8
  %ref.tmp270 = alloca %"struct.doctest::detail::Subcase", align 8
  %ref.tmp271 = alloca %"class.doctest::String", align 8
  %j280 = alloca %"class.nlohmann::json_abi_v3_11_3::basic_json", align 8
  %it282 = alloca %"class.nlohmann::json_abi_v3_11_3::detail::iter_impl", align 8
  %ref.tmp283 = alloca %"struct.doctest::detail::Result", align 8
  %ref.tmp284 = alloca %"struct.doctest::detail::Expression_lhs", align 4
  %ref.tmp285 = alloca %"struct.doctest::detail::ExpressionDecomposer", align 4
  %ref.tmp288 = alloca i8, align 1
  %ref.tmp289 = alloca %"class.nlohmann::json_abi_v3_11_3::detail::iter_impl", align 8
  %DOCTEST_ANON_SUBCASE_21 = alloca ptr, align 8
  %ref.tmp303 = alloca %"struct.doctest::detail::Subcase", align 8
  %ref.tmp304 = alloca %"class.doctest::String", align 8
  %j313 = alloca %"class.nlohmann::json_abi_v3_11_3::basic_json", align 8
  %it315 = alloca %"class.nlohmann::json_abi_v3_11_3::detail::iter_impl", align 8
  %ref.tmp316 = alloca %"struct.doctest::detail::Result", align 8
  %ref.tmp317 = alloca %"struct.doctest::detail::Expression_lhs", align 4
  %ref.tmp318 = alloca %"struct.doctest::detail::ExpressionDecomposer", align 4
  %ref.tmp321 = alloca i8, align 1
  %ref.tmp322 = alloca %"class.nlohmann::json_abi_v3_11_3::detail::iter_impl", align 8
  %DOCTEST_ANON_SUBCASE_22 = alloca ptr, align 8
  %ref.tmp340 = alloca %"struct.doctest::detail::Subcase", align 8
  %ref.tmp341 = alloca %"class.doctest::String", align 8
  %DOCTEST_ANON_SUBCASE_23 = alloca ptr, align 8
  %ref.tmp349 = alloca %"struct.doctest::detail::Subcase", align 8
  %ref.tmp350 = alloca %"class.doctest::String", align 8
  %DOCTEST_ANON_SUBCASE_24 = alloca ptr, align 8
  %ref.tmp359 = alloca %"struct.doctest::detail::Subcase", align 8
  %ref.tmp360 = alloca %"class.doctest::String", align 8
  %j369 = alloca %"class.nlohmann::json_abi_v3_11_3::basic_json", align 8
  %it371 = alloca %"class.nlohmann::json_abi_v3_11_3::detail::iter_impl", align 8
  %DOCTEST_RB = alloca %"struct.doctest::detail::ResultBuilder", align 8
  %ref.tmp376 = alloca %"class.doctest::String", align 8
  %0 = alloca ptr, align 8
  %DOCTEST_ANON_SUBCASE_25 = alloca ptr, align 8
  %ref.tmp407 = alloca %"struct.doctest::detail::Subcase", align 8
  %ref.tmp408 = alloca %"class.doctest::String", align 8
  %j417 = alloca %"class.nlohmann::json_abi_v3_11_3::basic_json", align 8
  %ref.tmp418 = alloca i32, align 4
  %it419 = alloca %"class.nlohmann::json_abi_v3_11_3::detail::iter_impl", align 8
  %ref.tmp420 = alloca %"struct.doctest::detail::Result", align 8
  %ref.tmp421 = alloca %"struct.doctest::detail::Expression_lhs.1", align 8
  %ref.tmp422 = alloca %"struct.doctest::detail::ExpressionDecomposer", align 4
  %ref.tmp429 = alloca %"class.nlohmann::json_abi_v3_11_3::basic_json", align 8
  %ref.tmp430 = alloca i32, align 4
  %ref.tmp438 = alloca %"class.nlohmann::json_abi_v3_11_3::detail::iter_impl", align 8
  %DOCTEST_RB445 = alloca %"struct.doctest::detail::ResultBuilder", align 8
  %ref.tmp446 = alloca %"class.doctest::String", align 8
  %1 = alloca ptr, align 8
  %DOCTEST_ANON_SUBCASE_26 = alloca ptr, align 8
  %ref.tmp487 = alloca %"struct.doctest::detail::Subcase", align 8
  %ref.tmp488 = alloca %"class.doctest::String", align 8
  %j497 = alloca %"class.nlohmann::json_abi_v3_11_3::basic_json", align 8
  %agg.tmp = alloca %"class.std::initializer_list", align 8
  %ref.tmp498 = alloca [1 x %"class.nlohmann::json_abi_v3_11_3::detail::json_ref"], align 8
  %arrayinit.endOfInit = alloca ptr, align 8
  %agg.tmp499 = alloca %"class.std::initializer_list", align 8
  %ref.tmp500 = alloca [2 x %"class.nlohmann::json_abi_v3_11_3::detail::json_ref"], align 8
  %arrayinit.endOfInit502 = alloca ptr, align 8
  %cleanup.isactive = alloca i1, align 1
  %it547 = alloca %"class.nlohmann::json_abi_v3_11_3::detail::iter_impl", align 8
  %ref.tmp548 = alloca %"struct.doctest::detail::Result", align 8
  %ref.tmp549 = alloca %"struct.doctest::detail::Expression_lhs.1", align 8
  %ref.tmp550 = alloca %"struct.doctest::detail::ExpressionDecomposer", align 4
  %ref.tmp557 = alloca %"class.nlohmann::json_abi_v3_11_3::basic_json", align 8
  %DOCTEST_ANON_SUBCASE_27 = alloca ptr, align 8
  %ref.tmp569 = alloca %"struct.doctest::detail::Subcase", align 8
  %ref.tmp570 = alloca %"class.doctest::String", align 8
  %j579 = alloca %"class.nlohmann::json_abi_v3_11_3::basic_json", align 8
  %agg.tmp580 = alloca %"class.std::initializer_list", align 8
  %ref.tmp581 = alloca [4 x %"class.nlohmann::json_abi_v3_11_3::detail::json_ref"], align 8
  %arrayinit.endOfInit583 = alloca ptr, align 8
  %ref.tmp584 = alloca i32, align 4
  %ref.tmp588 = alloca i32, align 4
  %ref.tmp591 = alloca i32, align 4
  %ref.tmp594 = alloca i32, align 4
  %it621 = alloca %"class.nlohmann::json_abi_v3_11_3::detail::iter_impl", align 8
  %ref.tmp622 = alloca %"struct.doctest::detail::Result", align 8
  %ref.tmp623 = alloca %"struct.doctest::detail::Expression_lhs.1", align 8
  %ref.tmp624 = alloca %"struct.doctest::detail::ExpressionDecomposer", align 4
  %ref.tmp631 = alloca %"class.nlohmann::json_abi_v3_11_3::basic_json", align 8
  %ref.tmp632 = alloca i32, align 4
  %DOCTEST_ANON_SUBCASE_28 = alloca ptr, align 8
  %ref.tmp645 = alloca %"struct.doctest::detail::Subcase", align 8
  %ref.tmp646 = alloca %"class.doctest::String", align 8
  %DOCTEST_ANON_SUBCASE_29 = alloca ptr, align 8
  %ref.tmp655 = alloca %"struct.doctest::detail::Subcase", align 8
  %ref.tmp656 = alloca %"class.doctest::String", align 8
  %j665 = alloca %"class.nlohmann::json_abi_v3_11_3::basic_json", align 8
  %it667 = alloca %"class.nlohmann::json_abi_v3_11_3::detail::iter_impl", align 8
  %DOCTEST_RB675 = alloca %"struct.doctest::detail::ResultBuilder", align 8
  %ref.tmp676 = alloca %"class.doctest::String", align 8
  %agg.tmp.ensured = alloca %"class.std::__cxx11::basic_string", align 8
  %ref.tmp685 = alloca %"class.std::allocator", align 1
  %2 = alloca ptr, align 8
  %DOCTEST_ANON_SUBCASE_30 = alloca ptr, align 8
  %ref.tmp722 = alloca %"struct.doctest::detail::Subcase", align 8
  %ref.tmp723 = alloca %"class.doctest::String", align 8
  %j732 = alloca %"class.nlohmann::json_abi_v3_11_3::basic_json", align 8
  %ref.tmp733 = alloca i32, align 4
  %it734 = alloca %"class.nlohmann::json_abi_v3_11_3::detail::iter_impl", align 8
  %ref.tmp735 = alloca %"struct.doctest::detail::Result", align 8
  %ref.tmp736 = alloca %"struct.doctest::detail::Expression_lhs.3", align 8
  %ref.tmp737 = alloca %"struct.doctest::detail::ExpressionDecomposer", align 4
  %ref.tmp740 = alloca %"class.std::__cxx11::basic_string", align 8
  %ref.tmp744 = alloca %"class.std::allocator", align 1
  %ref.tmp758 = alloca %"class.nlohmann::json_abi_v3_11_3::detail::iter_impl", align 8
  %DOCTEST_RB765 = alloca %"struct.doctest::detail::ResultBuilder", align 8
  %ref.tmp766 = alloca %"class.doctest::String", align 8
  %agg.tmp.ensured771 = alloca %"class.std::__cxx11::basic_string", align 8
  %ref.tmp776 = alloca %"class.std::allocator", align 1
  %3 = alloca ptr, align 8
  %DOCTEST_ANON_SUBCASE_31 = alloca ptr, align 8
  %ref.tmp813 = alloca %"struct.doctest::detail::Subcase", align 8
  %ref.tmp814 = alloca %"class.doctest::String", align 8
  %j823 = alloca %"class.nlohmann::json_abi_v3_11_3::basic_json", align 8
  %agg.tmp824 = alloca %"class.std::initializer_list", align 8
  %ref.tmp825 = alloca [1 x %"class.nlohmann::json_abi_v3_11_3::detail::json_ref"], align 8
  %arrayinit.endOfInit827 = alloca ptr, align 8
  %agg.tmp828 = alloca %"class.std::initializer_list", align 8
  %ref.tmp829 = alloca [2 x %"class.nlohmann::json_abi_v3_11_3::detail::json_ref"], align 8
  %arrayinit.endOfInit831 = alloca ptr, align 8
  %cleanup.isactive848 = alloca i1, align 1
  %it890 = alloca %"class.nlohmann::json_abi_v3_11_3::detail::iter_impl", align 8
  %ref.tmp891 = alloca %"struct.doctest::detail::Result", align 8
  %ref.tmp892 = alloca %"struct.doctest::detail::Expression_lhs.3", align 8
  %ref.tmp893 = alloca %"struct.doctest::detail::ExpressionDecomposer", align 4
  %ref.tmp896 = alloca %"class.std::__cxx11::basic_string", align 8
  %ref.tmp900 = alloca %"class.std::allocator", align 1
  %DOCTEST_ANON_SUBCASE_32 = alloca ptr, align 8
  %ref.tmp917 = alloca %"struct.doctest::detail::Subcase", align 8
  %ref.tmp918 = alloca %"class.doctest::String", align 8
  %j927 = alloca %"class.nlohmann::json_abi_v3_11_3::basic_json", align 8
  %agg.tmp928 = alloca %"class.std::initializer_list", align 8
  %ref.tmp929 = alloca [4 x %"class.nlohmann::json_abi_v3_11_3::detail::json_ref"], align 8
  %arrayinit.endOfInit931 = alloca ptr, align 8
  %ref.tmp932 = alloca i32, align 4
  %ref.tmp936 = alloca i32, align 4
  %ref.tmp939 = alloca i32, align 4
  %ref.tmp942 = alloca i32, align 4
  %it969 = alloca %"class.nlohmann::json_abi_v3_11_3::detail::iter_impl", align 8
  %ref.tmp970 = alloca %"struct.doctest::detail::Result", align 8
  %ref.tmp971 = alloca %"struct.doctest::detail::Expression_lhs.3", align 8
  %ref.tmp972 = alloca %"struct.doctest::detail::ExpressionDecomposer", align 4
  %ref.tmp975 = alloca %"class.std::__cxx11::basic_string", align 8
  %ref.tmp979 = alloca %"class.std::allocator", align 1
  %DOCTEST_ANON_SUBCASE_33 = alloca ptr, align 8
  %ref.tmp1000 = alloca %"struct.doctest::detail::Subcase", align 8
  %ref.tmp1001 = alloca %"class.doctest::String", align 8
  %DOCTEST_ANON_SUBCASE_34 = alloca ptr, align 8
  %ref.tmp1009 = alloca %"struct.doctest::detail::Subcase", align 8
  %ref.tmp1010 = alloca %"class.doctest::String", align 8
  %DOCTEST_ANON_SUBCASE_35 = alloca ptr, align 8
  %ref.tmp1019 = alloca %"struct.doctest::detail::Subcase", align 8
  %ref.tmp1020 = alloca %"class.doctest::String", align 8
  %j1029 = alloca %"class.nlohmann::json_abi_v3_11_3::basic_json", align 8
  %it1031 = alloca %"class.nlohmann::json_abi_v3_11_3::detail::iter_impl", align 8
  %ref.tmp1032 = alloca %"struct.doctest::detail::Result", align 8
  %ref.tmp1033 = alloca %"struct.doctest::detail::Expression_lhs", align 4
  %ref.tmp1034 = alloca %"struct.doctest::detail::ExpressionDecomposer", align 4
  %ref.tmp1037 = alloca i8, align 1
  %tmp = alloca %"class.nlohmann::json_abi_v3_11_3::detail::iter_impl", align 8
  %ref.tmp1048 = alloca %"struct.doctest::detail::Result", align 8
  %ref.tmp1049 = alloca %"struct.doctest::detail::Expression_lhs", align 4
  %ref.tmp1050 = alloca %"struct.doctest::detail::ExpressionDecomposer", align 4
  %ref.tmp1052 = alloca i8, align 1
  %DOCTEST_ANON_SUBCASE_36 = alloca ptr, align 8
  %ref.tmp1072 = alloca %"struct.doctest::detail::Subcase", align 8
  %ref.tmp1073 = alloca %"class.doctest::String", align 8
  %j1082 = alloca %"class.nlohmann::json_abi_v3_11_3::basic_json", align 8
  %ref.tmp1083 = alloca i32, align 4
  %it1084 = alloca %"class.nlohmann::json_abi_v3_11_3::detail::iter_impl", align 8
  %ref.tmp1085 = alloca %"struct.doctest::detail::Result", align 8
  %ref.tmp1086 = alloca %"struct.doctest::detail::Expression_lhs", align 4
  %ref.tmp1087 = alloca %"struct.doctest::detail::ExpressionDecomposer", align 4
  %ref.tmp1090 = alloca i8, align 1
  %tmp1103 = alloca %"class.nlohmann::json_abi_v3_11_3::detail::iter_impl", align 8
  %ref.tmp1105 = alloca %"struct.doctest::detail::Result", align 8
  %ref.tmp1106 = alloca %"struct.doctest::detail::Expression_lhs", align 4
  %ref.tmp1107 = alloca %"struct.doctest::detail::ExpressionDecomposer", align 4
  %ref.tmp1109 = alloca i8, align 1
  %tmp1122 = alloca %"class.nlohmann::json_abi_v3_11_3::detail::iter_impl", align 8
  %ref.tmp1124 = alloca %"struct.doctest::detail::Result", align 8
  %ref.tmp1125 = alloca %"struct.doctest::detail::Expression_lhs", align 4
  %ref.tmp1126 = alloca %"struct.doctest::detail::ExpressionDecomposer", align 4
  %ref.tmp1128 = alloca i8, align 1
  %DOCTEST_ANON_SUBCASE_37 = alloca ptr, align 8
  %ref.tmp1150 = alloca %"struct.doctest::detail::Subcase", align 8
  %ref.tmp1151 = alloca %"class.doctest::String", align 8
  %j1160 = alloca %"class.nlohmann::json_abi_v3_11_3::basic_json", align 8
  %agg.tmp1161 = alloca %"class.std::initializer_list", align 8
  %ref.tmp1162 = alloca [1 x %"class.nlohmann::json_abi_v3_11_3::detail::json_ref"], align 8
  %arrayinit.endOfInit1164 = alloca ptr, align 8
  %agg.tmp1165 = alloca %"class.std::initializer_list", align 8
  %ref.tmp1166 = alloca [2 x %"class.nlohmann::json_abi_v3_11_3::detail::json_ref"], align 8
  %arrayinit.endOfInit1168 = alloca ptr, align 8
  %cleanup.isactive1185 = alloca i1, align 1
  %it1227 = alloca %"class.nlohmann::json_abi_v3_11_3::detail::iter_impl", align 8
  %ref.tmp1228 = alloca %"struct.doctest::detail::Result", align 8
  %ref.tmp1229 = alloca %"struct.doctest::detail::Expression_lhs", align 4
  %ref.tmp1230 = alloca %"struct.doctest::detail::ExpressionDecomposer", align 4
  %ref.tmp1233 = alloca i8, align 1
  %ref.tmp1235 = alloca %"struct.std::_Rb_tree_iterator", align 8
  %tmp1246 = alloca %"class.nlohmann::json_abi_v3_11_3::detail::iter_impl", align 8
  %ref.tmp1248 = alloca %"struct.doctest::detail::Result", align 8
  %ref.tmp1249 = alloca %"struct.doctest::detail::Expression_lhs", align 4
  %ref.tmp1250 = alloca %"struct.doctest::detail::ExpressionDecomposer", align 4
  %ref.tmp1252 = alloca i8, align 1
  %ref.tmp1255 = alloca %"struct.std::_Rb_tree_iterator", align 8
  %DOCTEST_ANON_SUBCASE_38 = alloca ptr, align 8
  %ref.tmp1273 = alloca %"struct.doctest::detail::Subcase", align 8
  %ref.tmp1274 = alloca %"class.doctest::String", align 8
  %j1283 = alloca %"class.nlohmann::json_abi_v3_11_3::basic_json", align 8
  %agg.tmp1284 = alloca %"class.std::initializer_list", align 8
  %ref.tmp1285 = alloca [4 x %"class.nlohmann::json_abi_v3_11_3::detail::json_ref"], align 8
  %arrayinit.endOfInit1287 = alloca ptr, align 8
  %ref.tmp1288 = alloca i32, align 4
  %ref.tmp1292 = alloca i32, align 4
  %ref.tmp1295 = alloca i32, align 4
  %ref.tmp1298 = alloca i32, align 4
  %it1325 = alloca %"class.nlohmann::json_abi_v3_11_3::detail::iter_impl", align 8
  %ref.tmp1326 = alloca %"struct.doctest::detail::Result", align 8
  %ref.tmp1327 = alloca %"struct.doctest::detail::Expression_lhs", align 4
  %ref.tmp1328 = alloca %"struct.doctest::detail::ExpressionDecomposer", align 4
  %ref.tmp1331 = alloca i8, align 1
  %ref.tmp1333 = alloca %"class.__gnu_cxx::__normal_iterator", align 8
  %tmp1348 = alloca %"class.nlohmann::json_abi_v3_11_3::detail::iter_impl", align 8
  %ref.tmp1350 = alloca %"struct.doctest::detail::Result", align 8
  %ref.tmp1351 = alloca %"struct.doctest::detail::Expression_lhs", align 4
  %ref.tmp1352 = alloca %"struct.doctest::detail::ExpressionDecomposer", align 4
  %ref.tmp1354 = alloca i8, align 1
  %ref.tmp1357 = alloca %"class.__gnu_cxx::__normal_iterator", align 8
  %ref.tmp1372 = alloca %"struct.doctest::detail::Result", align 8
  %ref.tmp1373 = alloca %"struct.doctest::detail::Expression_lhs", align 4
  %ref.tmp1374 = alloca %"struct.doctest::detail::ExpressionDecomposer", align 4
  %ref.tmp1376 = alloca i8, align 1
  %ref.tmp1379 = alloca %"class.__gnu_cxx::__normal_iterator", align 8
  %tmp1394 = alloca %"class.nlohmann::json_abi_v3_11_3::detail::iter_impl", align 8
  %ref.tmp1396 = alloca %"struct.doctest::detail::Result", align 8
  %ref.tmp1397 = alloca %"struct.doctest::detail::Expression_lhs", align 4
  %ref.tmp1398 = alloca %"struct.doctest::detail::ExpressionDecomposer", align 4
  %ref.tmp1400 = alloca i8, align 1
  %ref.tmp1403 = alloca %"class.__gnu_cxx::__normal_iterator", align 8
  %ref.tmp1418 = alloca %"struct.doctest::detail::Result", align 8
  %ref.tmp1419 = alloca %"struct.doctest::detail::Expression_lhs", align 4
  %ref.tmp1420 = alloca %"struct.doctest::detail::ExpressionDecomposer", align 4
  %ref.tmp1422 = alloca i8, align 1
  %ref.tmp1425 = alloca %"class.__gnu_cxx::__normal_iterator", align 8
  %tmp1440 = alloca %"class.nlohmann::json_abi_v3_11_3::detail::iter_impl", align 8
  %ref.tmp1442 = alloca %"struct.doctest::detail::Result", align 8
  %ref.tmp1443 = alloca %"struct.doctest::detail::Expression_lhs", align 4
  %ref.tmp1444 = alloca %"struct.doctest::detail::ExpressionDecomposer", align 4
  %ref.tmp1446 = alloca i8, align 1
  %ref.tmp1449 = alloca %"class.__gnu_cxx::__normal_iterator", align 8
  %ref.tmp1464 = alloca %"struct.doctest::detail::Result", align 8
  %ref.tmp1465 = alloca %"struct.doctest::detail::Expression_lhs", align 4
  %ref.tmp1466 = alloca %"struct.doctest::detail::ExpressionDecomposer", align 4
  %ref.tmp1468 = alloca i8, align 1
  %ref.tmp1471 = alloca %"class.__gnu_cxx::__normal_iterator", align 8
  %tmp1486 = alloca %"class.nlohmann::json_abi_v3_11_3::detail::iter_impl", align 8
  %ref.tmp1488 = alloca %"struct.doctest::detail::Result", align 8
  %ref.tmp1489 = alloca %"struct.doctest::detail::Expression_lhs", align 4
  %ref.tmp1490 = alloca %"struct.doctest::detail::ExpressionDecomposer", align 4
  %ref.tmp1492 = alloca i8, align 1
  %ref.tmp1495 = alloca %"class.__gnu_cxx::__normal_iterator", align 8
  %ref.tmp1510 = alloca %"struct.doctest::detail::Result", align 8
  %ref.tmp1511 = alloca %"struct.doctest::detail::Expression_lhs", align 4
  %ref.tmp1512 = alloca %"struct.doctest::detail::ExpressionDecomposer", align 4
  %ref.tmp1514 = alloca i8, align 1
  %ref.tmp1517 = alloca %"class.__gnu_cxx::__normal_iterator", align 8
  %DOCTEST_ANON_SUBCASE_39 = alloca ptr, align 8
  %ref.tmp1537 = alloca %"struct.doctest::detail::Subcase", align 8
  %ref.tmp1538 = alloca %"class.doctest::String", align 8
  %DOCTEST_ANON_SUBCASE_40 = alloca ptr, align 8
  %ref.tmp1547 = alloca %"struct.doctest::detail::Subcase", align 8
  %ref.tmp1548 = alloca %"class.doctest::String", align 8
  %j1557 = alloca %"class.nlohmann::json_abi_v3_11_3::basic_json", align 8
  %it1559 = alloca %"class.nlohmann::json_abi_v3_11_3::detail::iter_impl", align 8
  %ref.tmp1560 = alloca %"struct.doctest::detail::Result", align 8
  %ref.tmp1561 = alloca %"struct.doctest::detail::Expression_lhs", align 4
  %ref.tmp1562 = alloca %"struct.doctest::detail::ExpressionDecomposer", align 4
  %ref.tmp1565 = alloca i8, align 1
  %ref.tmp1580 = alloca %"struct.doctest::detail::Result", align 8
  %ref.tmp1581 = alloca %"struct.doctest::detail::Expression_lhs", align 4
  %ref.tmp1582 = alloca %"struct.doctest::detail::ExpressionDecomposer", align 4
  %ref.tmp1584 = alloca i8, align 1
  %DOCTEST_ANON_SUBCASE_41 = alloca ptr, align 8
  %ref.tmp1606 = alloca %"struct.doctest::detail::Subcase", align 8
  %ref.tmp1607 = alloca %"class.doctest::String", align 8
  %j1616 = alloca %"class.nlohmann::json_abi_v3_11_3::basic_json", align 8
  %ref.tmp1617 = alloca i32, align 4
  %it1618 = alloca %"class.nlohmann::json_abi_v3_11_3::detail::iter_impl", align 8
  %ref.tmp1619 = alloca %"struct.doctest::detail::Result", align 8
  %ref.tmp1620 = alloca %"struct.doctest::detail::Expression_lhs", align 4
  %ref.tmp1621 = alloca %"struct.doctest::detail::ExpressionDecomposer", align 4
  %ref.tmp1624 = alloca i8, align 1
  %ref.tmp1639 = alloca %"struct.doctest::detail::Result", align 8
  %ref.tmp1640 = alloca %"struct.doctest::detail::Expression_lhs", align 4
  %ref.tmp1641 = alloca %"struct.doctest::detail::ExpressionDecomposer", align 4
  %ref.tmp1643 = alloca i8, align 1
  %ref.tmp1658 = alloca %"struct.doctest::detail::Result", align 8
  %ref.tmp1659 = alloca %"struct.doctest::detail::Expression_lhs", align 4
  %ref.tmp1660 = alloca %"struct.doctest::detail::ExpressionDecomposer", align 4
  %ref.tmp1662 = alloca i8, align 1
  %DOCTEST_ANON_SUBCASE_42 = alloca ptr, align 8
  %ref.tmp1684 = alloca %"struct.doctest::detail::Subcase", align 8
  %ref.tmp1685 = alloca %"class.doctest::String", align 8
  %j1694 = alloca %"class.nlohmann::json_abi_v3_11_3::basic_json", align 8
  %agg.tmp1695 = alloca %"class.std::initializer_list", align 8
  %ref.tmp1696 = alloca [1 x %"class.nlohmann::json_abi_v3_11_3::detail::json_ref"], align 8
  %arrayinit.endOfInit1698 = alloca ptr, align 8
  %agg.tmp1699 = alloca %"class.std::initializer_list", align 8
  %ref.tmp1700 = alloca [2 x %"class.nlohmann::json_abi_v3_11_3::detail::json_ref"], align 8
  %arrayinit.endOfInit1702 = alloca ptr, align 8
  %cleanup.isactive1719 = alloca i1, align 1
  %it1761 = alloca %"class.nlohmann::json_abi_v3_11_3::detail::iter_impl", align 8
  %ref.tmp1762 = alloca %"struct.doctest::detail::Result", align 8
  %ref.tmp1763 = alloca %"struct.doctest::detail::Expression_lhs", align 4
  %ref.tmp1764 = alloca %"struct.doctest::detail::ExpressionDecomposer", align 4
  %ref.tmp1767 = alloca i8, align 1
  %ref.tmp1770 = alloca %"struct.std::_Rb_tree_iterator", align 8
  %ref.tmp1787 = alloca %"struct.doctest::detail::Result", align 8
  %ref.tmp1788 = alloca %"struct.doctest::detail::Expression_lhs", align 4
  %ref.tmp1789 = alloca %"struct.doctest::detail::ExpressionDecomposer", align 4
  %ref.tmp1791 = alloca i8, align 1
  %ref.tmp1794 = alloca %"struct.std::_Rb_tree_iterator", align 8
  %DOCTEST_ANON_SUBCASE_43 = alloca ptr, align 8
  %ref.tmp1812 = alloca %"struct.doctest::detail::Subcase", align 8
  %ref.tmp1813 = alloca %"class.doctest::String", align 8
  %j1822 = alloca %"class.nlohmann::json_abi_v3_11_3::basic_json", align 8
  %agg.tmp1823 = alloca %"class.std::initializer_list", align 8
  %ref.tmp1824 = alloca [4 x %"class.nlohmann::json_abi_v3_11_3::detail::json_ref"], align 8
  %arrayinit.endOfInit1826 = alloca ptr, align 8
  %ref.tmp1827 = alloca i32, align 4
  %ref.tmp1831 = alloca i32, align 4
  %ref.tmp1834 = alloca i32, align 4
  %ref.tmp1837 = alloca i32, align 4
  %it1864 = alloca %"class.nlohmann::json_abi_v3_11_3::detail::iter_impl", align 8
  %ref.tmp1865 = alloca %"struct.doctest::detail::Result", align 8
  %ref.tmp1866 = alloca %"struct.doctest::detail::Expression_lhs", align 4
  %ref.tmp1867 = alloca %"struct.doctest::detail::ExpressionDecomposer", align 4
  %ref.tmp1870 = alloca i8, align 1
  %ref.tmp1873 = alloca %"class.__gnu_cxx::__normal_iterator", align 8
  %ref.tmp1890 = alloca %"struct.doctest::detail::Result", align 8
  %ref.tmp1891 = alloca %"struct.doctest::detail::Expression_lhs", align 4
  %ref.tmp1892 = alloca %"struct.doctest::detail::ExpressionDecomposer", align 4
  %ref.tmp1894 = alloca i8, align 1
  %ref.tmp1897 = alloca %"class.__gnu_cxx::__normal_iterator", align 8
  %ref.tmp1912 = alloca %"struct.doctest::detail::Result", align 8
  %ref.tmp1913 = alloca %"struct.doctest::detail::Expression_lhs", align 4
  %ref.tmp1914 = alloca %"struct.doctest::detail::ExpressionDecomposer", align 4
  %ref.tmp1916 = alloca i8, align 1
  %ref.tmp1919 = alloca %"class.__gnu_cxx::__normal_iterator", align 8
  %ref.tmp1936 = alloca %"struct.doctest::detail::Result", align 8
  %ref.tmp1937 = alloca %"struct.doctest::detail::Expression_lhs", align 4
  %ref.tmp1938 = alloca %"struct.doctest::detail::ExpressionDecomposer", align 4
  %ref.tmp1940 = alloca i8, align 1
  %ref.tmp1943 = alloca %"class.__gnu_cxx::__normal_iterator", align 8
  %ref.tmp1958 = alloca %"struct.doctest::detail::Result", align 8
  %ref.tmp1959 = alloca %"struct.doctest::detail::Expression_lhs", align 4
  %ref.tmp1960 = alloca %"struct.doctest::detail::ExpressionDecomposer", align 4
  %ref.tmp1962 = alloca i8, align 1
  %ref.tmp1965 = alloca %"class.__gnu_cxx::__normal_iterator", align 8
  %ref.tmp1982 = alloca %"struct.doctest::detail::Result", align 8
  %ref.tmp1983 = alloca %"struct.doctest::detail::Expression_lhs", align 4
  %ref.tmp1984 = alloca %"struct.doctest::detail::ExpressionDecomposer", align 4
  %ref.tmp1986 = alloca i8, align 1
  %ref.tmp1989 = alloca %"class.__gnu_cxx::__normal_iterator", align 8
  %ref.tmp2004 = alloca %"struct.doctest::detail::Result", align 8
  %ref.tmp2005 = alloca %"struct.doctest::detail::Expression_lhs", align 4
  %ref.tmp2006 = alloca %"struct.doctest::detail::ExpressionDecomposer", align 4
  %ref.tmp2008 = alloca i8, align 1
  %ref.tmp2011 = alloca %"class.__gnu_cxx::__normal_iterator", align 8
  %ref.tmp2028 = alloca %"struct.doctest::detail::Result", align 8
  %ref.tmp2029 = alloca %"struct.doctest::detail::Expression_lhs", align 4
  %ref.tmp2030 = alloca %"struct.doctest::detail::ExpressionDecomposer", align 4
  %ref.tmp2032 = alloca i8, align 1
  %ref.tmp2035 = alloca %"class.__gnu_cxx::__normal_iterator", align 8
  %ref.tmp2050 = alloca %"struct.doctest::detail::Result", align 8
  %ref.tmp2051 = alloca %"struct.doctest::detail::Expression_lhs", align 4
  %ref.tmp2052 = alloca %"struct.doctest::detail::ExpressionDecomposer", align 4
  %ref.tmp2054 = alloca i8, align 1
  %ref.tmp2057 = alloca %"class.__gnu_cxx::__normal_iterator", align 8
  %DOCTEST_ANON_SUBCASE_44 = alloca ptr, align 8
  %ref.tmp2077 = alloca %"struct.doctest::detail::Subcase", align 8
  %ref.tmp2078 = alloca %"class.doctest::String", align 8
  %DOCTEST_ANON_SUBCASE_45 = alloca ptr, align 8
  %ref.tmp2087 = alloca %"struct.doctest::detail::Subcase", align 8
  %ref.tmp2088 = alloca %"class.doctest::String", align 8
  %j2097 = alloca %"class.nlohmann::json_abi_v3_11_3::basic_json", align 8
  %it2099 = alloca %"class.nlohmann::json_abi_v3_11_3::detail::iter_impl", align 8
  %ref.tmp2100 = alloca %"struct.doctest::detail::Result", align 8
  %ref.tmp2101 = alloca %"struct.doctest::detail::Expression_lhs", align 4
  %ref.tmp2102 = alloca %"struct.doctest::detail::ExpressionDecomposer", align 4
  %ref.tmp2105 = alloca i8, align 1
  %DOCTEST_ANON_SUBCASE_46 = alloca ptr, align 8
  %ref.tmp2121 = alloca %"struct.doctest::detail::Subcase", align 8
  %ref.tmp2122 = alloca %"class.doctest::String", align 8
  %j2131 = alloca %"class.nlohmann::json_abi_v3_11_3::basic_json", align 8
  %ref.tmp2132 = alloca i32, align 4
  %it2133 = alloca %"class.nlohmann::json_abi_v3_11_3::detail::iter_impl", align 8
  %ref.tmp2134 = alloca %"struct.doctest::detail::Result", align 8
  %ref.tmp2135 = alloca %"struct.doctest::detail::Expression_lhs", align 4
  %ref.tmp2136 = alloca %"struct.doctest::detail::ExpressionDecomposer", align 4
  %ref.tmp2139 = alloca i8, align 1
  %tmp2152 = alloca %"class.nlohmann::json_abi_v3_11_3::detail::iter_impl", align 8
  %ref.tmp2154 = alloca %"struct.doctest::detail::Result", align 8
  %ref.tmp2155 = alloca %"struct.doctest::detail::Expression_lhs", align 4
  %ref.tmp2156 = alloca %"struct.doctest::detail::ExpressionDecomposer", align 4
  %ref.tmp2158 = alloca i8, align 1
  %tmp2171 = alloca %"class.nlohmann::json_abi_v3_11_3::detail::iter_impl", align 8
  %ref.tmp2173 = alloca %"struct.doctest::detail::Result", align 8
  %ref.tmp2174 = alloca %"struct.doctest::detail::Expression_lhs", align 4
  %ref.tmp2175 = alloca %"struct.doctest::detail::ExpressionDecomposer", align 4
  %ref.tmp2177 = alloca i8, align 1
  %DOCTEST_ANON_SUBCASE_47 = alloca ptr, align 8
  %ref.tmp2199 = alloca %"struct.doctest::detail::Subcase", align 8
  %ref.tmp2200 = alloca %"class.doctest::String", align 8
  %j2209 = alloca %"class.nlohmann::json_abi_v3_11_3::basic_json", align 8
  %agg.tmp2210 = alloca %"class.std::initializer_list", align 8
  %ref.tmp2211 = alloca [1 x %"class.nlohmann::json_abi_v3_11_3::detail::json_ref"], align 8
  %arrayinit.endOfInit2213 = alloca ptr, align 8
  %agg.tmp2214 = alloca %"class.std::initializer_list", align 8
  %ref.tmp2215 = alloca [2 x %"class.nlohmann::json_abi_v3_11_3::detail::json_ref"], align 8
  %arrayinit.endOfInit2217 = alloca ptr, align 8
  %cleanup.isactive2234 = alloca i1, align 1
  %it2276 = alloca %"class.nlohmann::json_abi_v3_11_3::detail::iter_impl", align 8
  %ref.tmp2277 = alloca %"struct.doctest::detail::Result", align 8
  %ref.tmp2278 = alloca %"struct.doctest::detail::Expression_lhs", align 4
  %ref.tmp2279 = alloca %"struct.doctest::detail::ExpressionDecomposer", align 4
  %ref.tmp2282 = alloca i8, align 1
  %ref.tmp2285 = alloca %"struct.std::_Rb_tree_iterator", align 8
  %tmp2300 = alloca %"class.nlohmann::json_abi_v3_11_3::detail::iter_impl", align 8
  %ref.tmp2302 = alloca %"struct.doctest::detail::Result", align 8
  %ref.tmp2303 = alloca %"struct.doctest::detail::Expression_lhs", align 4
  %ref.tmp2304 = alloca %"struct.doctest::detail::ExpressionDecomposer", align 4
  %ref.tmp2306 = alloca i8, align 1
  %ref.tmp2309 = alloca %"struct.std::_Rb_tree_iterator", align 8
  %DOCTEST_ANON_SUBCASE_48 = alloca ptr, align 8
  %ref.tmp2327 = alloca %"struct.doctest::detail::Subcase", align 8
  %ref.tmp2328 = alloca %"class.doctest::String", align 8
  %j2337 = alloca %"class.nlohmann::json_abi_v3_11_3::basic_json", align 8
  %agg.tmp2338 = alloca %"class.std::initializer_list", align 8
  %ref.tmp2339 = alloca [4 x %"class.nlohmann::json_abi_v3_11_3::detail::json_ref"], align 8
  %arrayinit.endOfInit2341 = alloca ptr, align 8
  %ref.tmp2342 = alloca i32, align 4
  %ref.tmp2346 = alloca i32, align 4
  %ref.tmp2349 = alloca i32, align 4
  %ref.tmp2352 = alloca i32, align 4
  %it2379 = alloca %"class.nlohmann::json_abi_v3_11_3::detail::iter_impl", align 8
  %ref.tmp2380 = alloca %"struct.doctest::detail::Result", align 8
  %ref.tmp2381 = alloca %"struct.doctest::detail::Expression_lhs", align 4
  %ref.tmp2382 = alloca %"struct.doctest::detail::ExpressionDecomposer", align 4
  %ref.tmp2385 = alloca i8, align 1
  %ref.tmp2388 = alloca %"class.__gnu_cxx::__normal_iterator", align 8
  %tmp2403 = alloca %"class.nlohmann::json_abi_v3_11_3::detail::iter_impl", align 8
  %ref.tmp2405 = alloca %"struct.doctest::detail::Result", align 8
  %ref.tmp2406 = alloca %"struct.doctest::detail::Expression_lhs", align 4
  %ref.tmp2407 = alloca %"struct.doctest::detail::ExpressionDecomposer", align 4
  %ref.tmp2409 = alloca i8, align 1
  %ref.tmp2412 = alloca %"class.__gnu_cxx::__normal_iterator", align 8
  %ref.tmp2427 = alloca %"struct.doctest::detail::Result", align 8
  %ref.tmp2428 = alloca %"struct.doctest::detail::Expression_lhs", align 4
  %ref.tmp2429 = alloca %"struct.doctest::detail::ExpressionDecomposer", align 4
  %ref.tmp2431 = alloca i8, align 1
  %ref.tmp2434 = alloca %"class.__gnu_cxx::__normal_iterator", align 8
  %tmp2449 = alloca %"class.nlohmann::json_abi_v3_11_3::detail::iter_impl", align 8
  %ref.tmp2451 = alloca %"struct.doctest::detail::Result", align 8
  %ref.tmp2452 = alloca %"struct.doctest::detail::Expression_lhs", align 4
  %ref.tmp2453 = alloca %"struct.doctest::detail::ExpressionDecomposer", align 4
  %ref.tmp2455 = alloca i8, align 1
  %ref.tmp2458 = alloca %"class.__gnu_cxx::__normal_iterator", align 8
  %ref.tmp2473 = alloca %"struct.doctest::detail::Result", align 8
  %ref.tmp2474 = alloca %"struct.doctest::detail::Expression_lhs", align 4
  %ref.tmp2475 = alloca %"struct.doctest::detail::ExpressionDecomposer", align 4
  %ref.tmp2477 = alloca i8, align 1
  %ref.tmp2480 = alloca %"class.__gnu_cxx::__normal_iterator", align 8
  %tmp2495 = alloca %"class.nlohmann::json_abi_v3_11_3::detail::iter_impl", align 8
  %ref.tmp2497 = alloca %"struct.doctest::detail::Result", align 8
  %ref.tmp2498 = alloca %"struct.doctest::detail::Expression_lhs", align 4
  %ref.tmp2499 = alloca %"struct.doctest::detail::ExpressionDecomposer", align 4
  %ref.tmp2501 = alloca i8, align 1
  %ref.tmp2504 = alloca %"class.__gnu_cxx::__normal_iterator", align 8
  %ref.tmp2519 = alloca %"struct.doctest::detail::Result", align 8
  %ref.tmp2520 = alloca %"struct.doctest::detail::Expression_lhs", align 4
  %ref.tmp2521 = alloca %"struct.doctest::detail::ExpressionDecomposer", align 4
  %ref.tmp2523 = alloca i8, align 1
  %ref.tmp2526 = alloca %"class.__gnu_cxx::__normal_iterator", align 8
  %tmp2541 = alloca %"class.nlohmann::json_abi_v3_11_3::detail::iter_impl", align 8
  %ref.tmp2543 = alloca %"struct.doctest::detail::Result", align 8
  %ref.tmp2544 = alloca %"struct.doctest::detail::Expression_lhs", align 4
  %ref.tmp2545 = alloca %"struct.doctest::detail::ExpressionDecomposer", align 4
  %ref.tmp2547 = alloca i8, align 1
  %ref.tmp2550 = alloca %"class.__gnu_cxx::__normal_iterator", align 8
  %ref.tmp2565 = alloca %"struct.doctest::detail::Result", align 8
  %ref.tmp2566 = alloca %"struct.doctest::detail::Expression_lhs", align 4
  %ref.tmp2567 = alloca %"struct.doctest::detail::ExpressionDecomposer", align 4
  %ref.tmp2569 = alloca i8, align 1
  %ref.tmp2572 = alloca %"class.__gnu_cxx::__normal_iterator", align 8
  %DOCTEST_ANON_SUBCASE_49 = alloca ptr, align 8
  %ref.tmp2592 = alloca %"struct.doctest::detail::Subcase", align 8
  %ref.tmp2593 = alloca %"class.doctest::String", align 8
  %DOCTEST_ANON_SUBCASE_50 = alloca ptr, align 8
  %ref.tmp2602 = alloca %"struct.doctest::detail::Subcase", align 8
  %ref.tmp2603 = alloca %"class.doctest::String", align 8
  %j2612 = alloca %"class.nlohmann::json_abi_v3_11_3::basic_json", align 8
  %it2614 = alloca %"class.nlohmann::json_abi_v3_11_3::detail::iter_impl", align 8
  %ref.tmp2615 = alloca %"struct.doctest::detail::Result", align 8
  %ref.tmp2616 = alloca %"struct.doctest::detail::Expression_lhs", align 4
  %ref.tmp2617 = alloca %"struct.doctest::detail::ExpressionDecomposer", align 4
  %ref.tmp2620 = alloca i8, align 1
  %DOCTEST_ANON_SUBCASE_51 = alloca ptr, align 8
  %ref.tmp2636 = alloca %"struct.doctest::detail::Subcase", align 8
  %ref.tmp2637 = alloca %"class.doctest::String", align 8
  %j2646 = alloca %"class.nlohmann::json_abi_v3_11_3::basic_json", align 8
  %ref.tmp2647 = alloca i32, align 4
  %it2648 = alloca %"class.nlohmann::json_abi_v3_11_3::detail::iter_impl", align 8
  %ref.tmp2649 = alloca %"struct.doctest::detail::Result", align 8
  %ref.tmp2650 = alloca %"struct.doctest::detail::Expression_lhs", align 4
  %ref.tmp2651 = alloca %"struct.doctest::detail::ExpressionDecomposer", align 4
  %ref.tmp2654 = alloca i8, align 1
  %ref.tmp2669 = alloca %"struct.doctest::detail::Result", align 8
  %ref.tmp2670 = alloca %"struct.doctest::detail::Expression_lhs", align 4
  %ref.tmp2671 = alloca %"struct.doctest::detail::ExpressionDecomposer", align 4
  %ref.tmp2673 = alloca i8, align 1
  %ref.tmp2688 = alloca %"struct.doctest::detail::Result", align 8
  %ref.tmp2689 = alloca %"struct.doctest::detail::Expression_lhs", align 4
  %ref.tmp2690 = alloca %"struct.doctest::detail::ExpressionDecomposer", align 4
  %ref.tmp2692 = alloca i8, align 1
  %DOCTEST_ANON_SUBCASE_52 = alloca ptr, align 8
  %ref.tmp2714 = alloca %"struct.doctest::detail::Subcase", align 8
  %ref.tmp2715 = alloca %"class.doctest::String", align 8
  %j2724 = alloca %"class.nlohmann::json_abi_v3_11_3::basic_json", align 8
  %agg.tmp2725 = alloca %"class.std::initializer_list", align 8
  %ref.tmp2726 = alloca [1 x %"class.nlohmann::json_abi_v3_11_3::detail::json_ref"], align 8
  %arrayinit.endOfInit2728 = alloca ptr, align 8
  %agg.tmp2729 = alloca %"class.std::initializer_list", align 8
  %ref.tmp2730 = alloca [2 x %"class.nlohmann::json_abi_v3_11_3::detail::json_ref"], align 8
  %arrayinit.endOfInit2732 = alloca ptr, align 8
  %cleanup.isactive2749 = alloca i1, align 1
  %it2791 = alloca %"class.nlohmann::json_abi_v3_11_3::detail::iter_impl", align 8
  %ref.tmp2792 = alloca %"struct.doctest::detail::Result", align 8
  %ref.tmp2793 = alloca %"struct.doctest::detail::Expression_lhs", align 4
  %ref.tmp2794 = alloca %"struct.doctest::detail::ExpressionDecomposer", align 4
  %ref.tmp2797 = alloca i8, align 1
  %ref.tmp2800 = alloca %"struct.std::_Rb_tree_iterator", align 8
  %ref.tmp2817 = alloca %"struct.doctest::detail::Result", align 8
  %ref.tmp2818 = alloca %"struct.doctest::detail::Expression_lhs", align 4
  %ref.tmp2819 = alloca %"struct.doctest::detail::ExpressionDecomposer", align 4
  %ref.tmp2821 = alloca i8, align 1
  %ref.tmp2824 = alloca %"struct.std::_Rb_tree_iterator", align 8
  %DOCTEST_ANON_SUBCASE_53 = alloca ptr, align 8
  %ref.tmp2842 = alloca %"struct.doctest::detail::Subcase", align 8
  %ref.tmp2843 = alloca %"class.doctest::String", align 8
  %j2852 = alloca %"class.nlohmann::json_abi_v3_11_3::basic_json", align 8
  %agg.tmp2853 = alloca %"class.std::initializer_list", align 8
  %ref.tmp2854 = alloca [4 x %"class.nlohmann::json_abi_v3_11_3::detail::json_ref"], align 8
  %arrayinit.endOfInit2856 = alloca ptr, align 8
  %ref.tmp2857 = alloca i32, align 4
  %ref.tmp2861 = alloca i32, align 4
  %ref.tmp2864 = alloca i32, align 4
  %ref.tmp2867 = alloca i32, align 4
  %it2894 = alloca %"class.nlohmann::json_abi_v3_11_3::detail::iter_impl", align 8
  %ref.tmp2895 = alloca %"struct.doctest::detail::Result", align 8
  %ref.tmp2896 = alloca %"struct.doctest::detail::Expression_lhs", align 4
  %ref.tmp2897 = alloca %"struct.doctest::detail::ExpressionDecomposer", align 4
  %ref.tmp2900 = alloca i8, align 1
  %ref.tmp2903 = alloca %"class.__gnu_cxx::__normal_iterator", align 8
  %ref.tmp2920 = alloca %"struct.doctest::detail::Result", align 8
  %ref.tmp2921 = alloca %"struct.doctest::detail::Expression_lhs", align 4
  %ref.tmp2922 = alloca %"struct.doctest::detail::ExpressionDecomposer", align 4
  %ref.tmp2924 = alloca i8, align 1
  %ref.tmp2927 = alloca %"class.__gnu_cxx::__normal_iterator", align 8
  %ref.tmp2942 = alloca %"struct.doctest::detail::Result", align 8
  %ref.tmp2943 = alloca %"struct.doctest::detail::Expression_lhs", align 4
  %ref.tmp2944 = alloca %"struct.doctest::detail::ExpressionDecomposer", align 4
  %ref.tmp2946 = alloca i8, align 1
  %ref.tmp2949 = alloca %"class.__gnu_cxx::__normal_iterator", align 8
  %ref.tmp2966 = alloca %"struct.doctest::detail::Result", align 8
  %ref.tmp2967 = alloca %"struct.doctest::detail::Expression_lhs", align 4
  %ref.tmp2968 = alloca %"struct.doctest::detail::ExpressionDecomposer", align 4
  %ref.tmp2970 = alloca i8, align 1
  %ref.tmp2973 = alloca %"class.__gnu_cxx::__normal_iterator", align 8
  %ref.tmp2988 = alloca %"struct.doctest::detail::Result", align 8
  %ref.tmp2989 = alloca %"struct.doctest::detail::Expression_lhs", align 4
  %ref.tmp2990 = alloca %"struct.doctest::detail::ExpressionDecomposer", align 4
  %ref.tmp2992 = alloca i8, align 1
  %ref.tmp2995 = alloca %"class.__gnu_cxx::__normal_iterator", align 8
  %ref.tmp3012 = alloca %"struct.doctest::detail::Result", align 8
  %ref.tmp3013 = alloca %"struct.doctest::detail::Expression_lhs", align 4
  %ref.tmp3014 = alloca %"struct.doctest::detail::ExpressionDecomposer", align 4
  %ref.tmp3016 = alloca i8, align 1
  %ref.tmp3019 = alloca %"class.__gnu_cxx::__normal_iterator", align 8
  %ref.tmp3034 = alloca %"struct.doctest::detail::Result", align 8
  %ref.tmp3035 = alloca %"struct.doctest::detail::Expression_lhs", align 4
  %ref.tmp3036 = alloca %"struct.doctest::detail::ExpressionDecomposer", align 4
  %ref.tmp3038 = alloca i8, align 1
  %ref.tmp3041 = alloca %"class.__gnu_cxx::__normal_iterator", align 8
  %ref.tmp3058 = alloca %"struct.doctest::detail::Result", align 8
  %ref.tmp3059 = alloca %"struct.doctest::detail::Expression_lhs", align 4
  %ref.tmp3060 = alloca %"struct.doctest::detail::ExpressionDecomposer", align 4
  %ref.tmp3062 = alloca i8, align 1
  %ref.tmp3065 = alloca %"class.__gnu_cxx::__normal_iterator", align 8
  %ref.tmp3080 = alloca %"struct.doctest::detail::Result", align 8
  %ref.tmp3081 = alloca %"struct.doctest::detail::Expression_lhs", align 4
  %ref.tmp3082 = alloca %"struct.doctest::detail::ExpressionDecomposer", align 4
  %ref.tmp3084 = alloca i8, align 1
  %ref.tmp3087 = alloca %"class.__gnu_cxx::__normal_iterator", align 8
  call void @_ZN7doctest6StringC1EPKc(ptr noundef nonnull align 8 dereferenceable(24) %ref.tmp1, ptr noundef @.str.4)
  invoke void @_ZN7doctest6detail7SubcaseC1ERKNS_6StringEPKci(ptr noundef nonnull align 8 dereferenceable(41) %ref.tmp, ptr noundef nonnull align 8 dereferenceable(24) %ref.tmp1, ptr noundef @.str.2, i32 noundef 17)
          to label %invoke.cont unwind label %lpad

invoke.cont:                                      ; preds = %entry
  call void @_ZN7doctest6StringD1Ev(ptr noundef nonnull align 8 dereferenceable(24) %ref.tmp1) #17
  store ptr %ref.tmp, ptr %DOCTEST_ANON_SUBCASE_4, align 8
  %4 = load ptr, ptr %DOCTEST_ANON_SUBCASE_4, align 8
  %call = invoke noundef zeroext i1 @_ZNK7doctest6detail7SubcasecvbEv(ptr noundef nonnull align 8 dereferenceable(41) %4)
          to label %invoke.cont3 unwind label %lpad2

invoke.cont3:                                     ; preds = %invoke.cont
  br i1 %call, label %if.then, label %if.end106

if.then:                                          ; preds = %invoke.cont3
  invoke void @_ZN7doctest6StringC1EPKc(ptr noundef nonnull align 8 dereferenceable(24) %ref.tmp5, ptr noundef @.str.5)
          to label %invoke.cont6 unwind label %lpad2

invoke.cont6:                                     ; preds = %if.then
  invoke void @_ZN7doctest6detail7SubcaseC1ERKNS_6StringEPKci(ptr noundef nonnull align 8 dereferenceable(41) %ref.tmp4, ptr noundef nonnull align 8 dereferenceable(24) %ref.tmp5, ptr noundef @.str.2, i32 noundef 19)
          to label %invoke.cont8 unwind label %lpad7

invoke.cont8:                                     ; preds = %invoke.cont6
  call void @_ZN7doctest6StringD1Ev(ptr noundef nonnull align 8 dereferenceable(24) %ref.tmp5) #17
  store ptr %ref.tmp4, ptr %DOCTEST_ANON_SUBCASE_5, align 8
  %5 = load ptr, ptr %DOCTEST_ANON_SUBCASE_5, align 8
  %call11 = invoke noundef zeroext i1 @_ZNK7doctest6detail7SubcasecvbEv(ptr noundef nonnull align 8 dereferenceable(41) %5)
          to label %invoke.cont10 unwind label %lpad9

invoke.cont10:                                    ; preds = %invoke.cont8
  br i1 %call11, label %if.then12, label %if.end49

if.then12:                                        ; preds = %invoke.cont10
  invoke void @_ZN7doctest6StringC1EPKc(ptr noundef nonnull align 8 dereferenceable(24) %ref.tmp14, ptr noundef @.str.6)
          to label %invoke.cont15 unwind label %lpad9

invoke.cont15:                                    ; preds = %if.then12
  invoke void @_ZN7doctest6detail7SubcaseC1ERKNS_6StringEPKci(ptr noundef nonnull align 8 dereferenceable(41) %ref.tmp13, ptr noundef nonnull align 8 dereferenceable(24) %ref.tmp14, ptr noundef @.str.2, i32 noundef 21)
          to label %invoke.cont17 unwind label %lpad16

invoke.cont17:                                    ; preds = %invoke.cont15
  call void @_ZN7doctest6StringD1Ev(ptr noundef nonnull align 8 dereferenceable(24) %ref.tmp14) #17
  store ptr %ref.tmp13, ptr %DOCTEST_ANON_SUBCASE_6, align 8
  %6 = load ptr, ptr %DOCTEST_ANON_SUBCASE_6, align 8
  %call20 = invoke noundef zeroext i1 @_ZNK7doctest6detail7SubcasecvbEv(ptr noundef nonnull align 8 dereferenceable(41) %6)
          to label %invoke.cont19 unwind label %lpad18

invoke.cont19:                                    ; preds = %invoke.cont17
  br i1 %call20, label %if.then21, label %if.end

if.then21:                                        ; preds = %invoke.cont19
  invoke void @_ZN8nlohmann16json_abi_v3_11_310basic_jsonISt3mapSt6vectorNSt7__cxx1112basic_stringIcSt11char_traitsIcESaIcEEEblmdSaNS0_14adl_serializerES3_IhSaIhEEvEC2ENS0_6detail7value_tE(ptr noundef nonnull align 8 dereferenceable(16) %j, i8 noundef zeroext 0)
          to label %invoke.cont22 unwind label %lpad18

invoke.cont22:                                    ; preds = %if.then21
  call void @_ZN8nlohmann16json_abi_v3_11_36detail9iter_implIKNS0_10basic_jsonISt3mapSt6vectorNSt7__cxx1112basic_stringIcSt11char_traitsIcESaIcEEEblmdSaNS0_14adl_serializerES5_IhSaIhEEvEEEC2EPSG_(ptr noundef nonnull align 8 dereferenceable(32) %it, ptr noundef %j) #17
  call void @_ZN8nlohmann16json_abi_v3_11_310basic_jsonISt3mapSt6vectorNSt7__cxx1112basic_stringIcSt11char_traitsIcESaIcEEEblmdSaNS0_14adl_serializerES3_IhSaIhEEvED2Ev(ptr noundef nonnull align 8 dereferenceable(16) %j) #17
  br label %if.end

lpad:                                             ; preds = %entry
  %7 = landingpad { ptr, i32 }
          cleanup
  %8 = extractvalue { ptr, i32 } %7, 0
  store ptr %8, ptr %exn.slot, align 8
  %9 = extractvalue { ptr, i32 } %7, 1
  store i32 %9, ptr %ehselector.slot, align 4
  call void @_ZN7doctest6StringD1Ev(ptr noundef nonnull align 8 dereferenceable(24) %ref.tmp1) #17
  br label %eh.resume

lpad2:                                            ; preds = %if.end64, %if.end49, %if.then, %invoke.cont
  %10 = landingpad { ptr, i32 }
          cleanup
  %11 = extractvalue { ptr, i32 } %10, 0
  store ptr %11, ptr %exn.slot, align 8
  %12 = extractvalue { ptr, i32 } %10, 1
  store i32 %12, ptr %ehselector.slot, align 4
  br label %ehcleanup107

lpad7:                                            ; preds = %invoke.cont6
  %13 = landingpad { ptr, i32 }
          cleanup
  %14 = extractvalue { ptr, i32 } %13, 0
  store ptr %14, ptr %exn.slot, align 8
  %15 = extractvalue { ptr, i32 } %13, 1
  store i32 %15, ptr %ehselector.slot, align 4
  call void @_ZN7doctest6StringD1Ev(ptr noundef nonnull align 8 dereferenceable(24) %ref.tmp5) #17
  br label %ehcleanup107

lpad9:                                            ; preds = %if.end35, %if.end, %if.then12, %invoke.cont8
  %16 = landingpad { ptr, i32 }
          cleanup
  %17 = extractvalue { ptr, i32 } %16, 0
  store ptr %17, ptr %exn.slot, align 8
  %18 = extractvalue { ptr, i32 } %16, 1
  store i32 %18, ptr %ehselector.slot, align 4
  br label %ehcleanup

lpad16:                                           ; preds = %invoke.cont15
  %19 = landingpad { ptr, i32 }
          cleanup
  %20 = extractvalue { ptr, i32 } %19, 0
  store ptr %20, ptr %exn.slot, align 8
  %21 = extractvalue { ptr, i32 } %19, 1
  store i32 %21, ptr %ehselector.slot, align 4
  call void @_ZN7doctest6StringD1Ev(ptr noundef nonnull align 8 dereferenceable(24) %ref.tmp14) #17
  br label %ehcleanup

lpad18:                                           ; preds = %if.then21, %invoke.cont17
  %22 = landingpad { ptr, i32 }
          cleanup
  %23 = extractvalue { ptr, i32 } %22, 0
  store ptr %23, ptr %exn.slot, align 8
  %24 = extractvalue { ptr, i32 } %22, 1
  store i32 %24, ptr %ehselector.slot, align 4
  call void @_ZN7doctest6detail7SubcaseD1Ev(ptr noundef nonnull align 8 dereferenceable(41) %ref.tmp13) #17
  br label %ehcleanup

if.end:                                           ; preds = %invoke.cont22, %invoke.cont19
  call void @_ZN7doctest6detail7SubcaseD1Ev(ptr noundef nonnull align 8 dereferenceable(41) %ref.tmp13) #17
  invoke void @_ZN7doctest6StringC1EPKc(ptr noundef nonnull align 8 dereferenceable(24) %ref.tmp24, ptr noundef @.str.7)
          to label %invoke.cont25 unwind label %lpad9

invoke.cont25:                                    ; preds = %if.end
  invoke void @_ZN7doctest6detail7SubcaseC1ERKNS_6StringEPKci(ptr noundef nonnull align 8 dereferenceable(41) %ref.tmp23, ptr noundef nonnull align 8 dereferenceable(24) %ref.tmp24, ptr noundef @.str.2, i32 noundef 27)
          to label %invoke.cont27 unwind label %lpad26

invoke.cont27:                                    ; preds = %invoke.cont25
  call void @_ZN7doctest6StringD1Ev(ptr noundef nonnull align 8 dereferenceable(24) %ref.tmp24) #17
  store ptr %ref.tmp23, ptr %DOCTEST_ANON_SUBCASE_7, align 8
  %25 = load ptr, ptr %DOCTEST_ANON_SUBCASE_7, align 8
  %call30 = invoke noundef zeroext i1 @_ZNK7doctest6detail7SubcasecvbEv(ptr noundef nonnull align 8 dereferenceable(41) %25)
          to label %invoke.cont29 unwind label %lpad28

invoke.cont29:                                    ; preds = %invoke.cont27
  br i1 %call30, label %if.then31, label %if.end35

if.then31:                                        ; preds = %invoke.cont29
  invoke void @_ZN8nlohmann16json_abi_v3_11_310basic_jsonISt3mapSt6vectorNSt7__cxx1112basic_stringIcSt11char_traitsIcESaIcEEEblmdSaNS0_14adl_serializerES3_IhSaIhEEvEC2ENS0_6detail7value_tE(ptr noundef nonnull align 8 dereferenceable(16) %j32, i8 noundef zeroext 1)
          to label %invoke.cont33 unwind label %lpad28

invoke.cont33:                                    ; preds = %if.then31
  call void @_ZN8nlohmann16json_abi_v3_11_36detail9iter_implIKNS0_10basic_jsonISt3mapSt6vectorNSt7__cxx1112basic_stringIcSt11char_traitsIcESaIcEEEblmdSaNS0_14adl_serializerES5_IhSaIhEEvEEEC2EPSG_(ptr noundef nonnull align 8 dereferenceable(32) %it34, ptr noundef %j32) #17
  call void @_ZN8nlohmann16json_abi_v3_11_310basic_jsonISt3mapSt6vectorNSt7__cxx1112basic_stringIcSt11char_traitsIcESaIcEEEblmdSaNS0_14adl_serializerES3_IhSaIhEEvED2Ev(ptr noundef nonnull align 8 dereferenceable(16) %j32) #17
  br label %if.end35

lpad26:                                           ; preds = %invoke.cont25
  %26 = landingpad { ptr, i32 }
          cleanup
  %27 = extractvalue { ptr, i32 } %26, 0
  store ptr %27, ptr %exn.slot, align 8
  %28 = extractvalue { ptr, i32 } %26, 1
  store i32 %28, ptr %ehselector.slot, align 4
  call void @_ZN7doctest6StringD1Ev(ptr noundef nonnull align 8 dereferenceable(24) %ref.tmp24) #17
  br label %ehcleanup

lpad28:                                           ; preds = %if.then31, %invoke.cont27
  %29 = landingpad { ptr, i32 }
          cleanup
  %30 = extractvalue { ptr, i32 } %29, 0
  store ptr %30, ptr %exn.slot, align 8
  %31 = extractvalue { ptr, i32 } %29, 1
  store i32 %31, ptr %ehselector.slot, align 4
  call void @_ZN7doctest6detail7SubcaseD1Ev(ptr noundef nonnull align 8 dereferenceable(41) %ref.tmp23) #17
  br label %ehcleanup

if.end35:                                         ; preds = %invoke.cont33, %invoke.cont29
  call void @_ZN7doctest6detail7SubcaseD1Ev(ptr noundef nonnull align 8 dereferenceable(41) %ref.tmp23) #17
  invoke void @_ZN7doctest6StringC1EPKc(ptr noundef nonnull align 8 dereferenceable(24) %ref.tmp37, ptr noundef @.str.8)
          to label %invoke.cont38 unwind label %lpad9

invoke.cont38:                                    ; preds = %if.end35
  invoke void @_ZN7doctest6detail7SubcaseC1ERKNS_6StringEPKci(ptr noundef nonnull align 8 dereferenceable(41) %ref.tmp36, ptr noundef nonnull align 8 dereferenceable(24) %ref.tmp37, ptr noundef @.str.2, i32 noundef 33)
          to label %invoke.cont40 unwind label %lpad39

invoke.cont40:                                    ; preds = %invoke.cont38
  call void @_ZN7doctest6StringD1Ev(ptr noundef nonnull align 8 dereferenceable(24) %ref.tmp37) #17
  store ptr %ref.tmp36, ptr %DOCTEST_ANON_SUBCASE_8, align 8
  %32 = load ptr, ptr %DOCTEST_ANON_SUBCASE_8, align 8
  %call43 = invoke noundef zeroext i1 @_ZNK7doctest6detail7SubcasecvbEv(ptr noundef nonnull align 8 dereferenceable(41) %32)
          to label %invoke.cont42 unwind label %lpad41

invoke.cont42:                                    ; preds = %invoke.cont40
  br i1 %call43, label %if.then44, label %if.end48

if.then44:                                        ; preds = %invoke.cont42
  invoke void @_ZN8nlohmann16json_abi_v3_11_310basic_jsonISt3mapSt6vectorNSt7__cxx1112basic_stringIcSt11char_traitsIcESaIcEEEblmdSaNS0_14adl_serializerES3_IhSaIhEEvEC2ENS0_6detail7value_tE(ptr noundef nonnull align 8 dereferenceable(16) %j45, i8 noundef zeroext 2)
          to label %invoke.cont46 unwind label %lpad41

invoke.cont46:                                    ; preds = %if.then44
  call void @_ZN8nlohmann16json_abi_v3_11_36detail9iter_implIKNS0_10basic_jsonISt3mapSt6vectorNSt7__cxx1112basic_stringIcSt11char_traitsIcESaIcEEEblmdSaNS0_14adl_serializerES5_IhSaIhEEvEEEC2EPSG_(ptr noundef nonnull align 8 dereferenceable(32) %it47, ptr noundef %j45) #17
  call void @_ZN8nlohmann16json_abi_v3_11_310basic_jsonISt3mapSt6vectorNSt7__cxx1112basic_stringIcSt11char_traitsIcESaIcEEEblmdSaNS0_14adl_serializerES3_IhSaIhEEvED2Ev(ptr noundef nonnull align 8 dereferenceable(16) %j45) #17
  br label %if.end48

lpad39:                                           ; preds = %invoke.cont38
  %33 = landingpad { ptr, i32 }
          cleanup
  %34 = extractvalue { ptr, i32 } %33, 0
  store ptr %34, ptr %exn.slot, align 8
  %35 = extractvalue { ptr, i32 } %33, 1
  store i32 %35, ptr %ehselector.slot, align 4
  call void @_ZN7doctest6StringD1Ev(ptr noundef nonnull align 8 dereferenceable(24) %ref.tmp37) #17
  br label %ehcleanup

lpad41:                                           ; preds = %if.then44, %invoke.cont40
  %36 = landingpad { ptr, i32 }
          cleanup
  %37 = extractvalue { ptr, i32 } %36, 0
  store ptr %37, ptr %exn.slot, align 8
  %38 = extractvalue { ptr, i32 } %36, 1
  store i32 %38, ptr %ehselector.slot, align 4
  call void @_ZN7doctest6detail7SubcaseD1Ev(ptr noundef nonnull align 8 dereferenceable(41) %ref.tmp36) #17
  br label %ehcleanup

if.end48:                                         ; preds = %invoke.cont46, %invoke.cont42
  call void @_ZN7doctest6detail7SubcaseD1Ev(ptr noundef nonnull align 8 dereferenceable(41) %ref.tmp36) #17
  br label %if.end49

if.end49:                                         ; preds = %if.end48, %invoke.cont10
  call void @_ZN7doctest6detail7SubcaseD1Ev(ptr noundef nonnull align 8 dereferenceable(41) %ref.tmp4) #17
  invoke void @_ZN7doctest6StringC1EPKc(ptr noundef nonnull align 8 dereferenceable(24) %ref.tmp51, ptr noundef @.str.9)
          to label %invoke.cont52 unwind label %lpad2

invoke.cont52:                                    ; preds = %if.end49
  invoke void @_ZN7doctest6detail7SubcaseC1ERKNS_6StringEPKci(ptr noundef nonnull align 8 dereferenceable(41) %ref.tmp50, ptr noundef nonnull align 8 dereferenceable(24) %ref.tmp51, ptr noundef @.str.2, i32 noundef 40)
          to label %invoke.cont54 unwind label %lpad53

invoke.cont54:                                    ; preds = %invoke.cont52
  call void @_ZN7doctest6StringD1Ev(ptr noundef nonnull align 8 dereferenceable(24) %ref.tmp51) #17
  store ptr %ref.tmp50, ptr %DOCTEST_ANON_SUBCASE_9, align 8
  %39 = load ptr, ptr %DOCTEST_ANON_SUBCASE_9, align 8
  %call58 = invoke noundef zeroext i1 @_ZNK7doctest6detail7SubcasecvbEv(ptr noundef nonnull align 8 dereferenceable(41) %39)
          to label %invoke.cont57 unwind label %lpad56

invoke.cont57:                                    ; preds = %invoke.cont54
  br i1 %call58, label %if.then59, label %if.end64

if.then59:                                        ; preds = %invoke.cont57
  invoke void @_ZN8nlohmann16json_abi_v3_11_310basic_jsonISt3mapSt6vectorNSt7__cxx1112basic_stringIcSt11char_traitsIcESaIcEEEblmdSaNS0_14adl_serializerES3_IhSaIhEEvEC2ENS0_6detail7value_tE(ptr noundef nonnull align 8 dereferenceable(16) %j60, i8 noundef zeroext 0)
          to label %invoke.cont61 unwind label %lpad56

invoke.cont61:                                    ; preds = %if.then59
  call void @_ZN8nlohmann16json_abi_v3_11_36detail9iter_implIKNS0_10basic_jsonISt3mapSt6vectorNSt7__cxx1112basic_stringIcSt11char_traitsIcESaIcEEEblmdSaNS0_14adl_serializerES5_IhSaIhEEvEEEC2EPSG_(ptr noundef nonnull align 8 dereferenceable(32) %it62, ptr noundef %j60) #17
  call void @_ZN8nlohmann16json_abi_v3_11_36detail9iter_implIKNS0_10basic_jsonISt3mapSt6vectorNSt7__cxx1112basic_stringIcSt11char_traitsIcESaIcEEEblmdSaNS0_14adl_serializerES5_IhSaIhEEvEEEC2EPSG_(ptr noundef nonnull align 8 dereferenceable(32) %it2, ptr noundef %j60) #17
  %call63 = call noundef nonnull align 8 dereferenceable(32) ptr @_ZN8nlohmann16json_abi_v3_11_36detail9iter_implIKNS0_10basic_jsonISt3mapSt6vectorNSt7__cxx1112basic_stringIcSt11char_traitsIcESaIcEEEblmdSaNS0_14adl_serializerES5_IhSaIhEEvEEEaSERKSH_(ptr noundef nonnull align 8 dereferenceable(32) %it2, ptr noundef nonnull align 8 dereferenceable(32) %it62) #17
  call void @_ZN8nlohmann16json_abi_v3_11_310basic_jsonISt3mapSt6vectorNSt7__cxx1112basic_stringIcSt11char_traitsIcESaIcEEEblmdSaNS0_14adl_serializerES3_IhSaIhEEvED2Ev(ptr noundef nonnull align 8 dereferenceable(16) %j60) #17
  br label %if.end64

ehcleanup:                                        ; preds = %lpad41, %lpad39, %lpad28, %lpad26, %lpad18, %lpad16, %lpad9
  call void @_ZN7doctest6detail7SubcaseD1Ev(ptr noundef nonnull align 8 dereferenceable(41) %ref.tmp4) #17
  br label %ehcleanup107

lpad53:                                           ; preds = %invoke.cont52
  %40 = landingpad { ptr, i32 }
          cleanup
  %41 = extractvalue { ptr, i32 } %40, 0
  store ptr %41, ptr %exn.slot, align 8
  %42 = extractvalue { ptr, i32 } %40, 1
  store i32 %42, ptr %ehselector.slot, align 4
  call void @_ZN7doctest6StringD1Ev(ptr noundef nonnull align 8 dereferenceable(24) %ref.tmp51) #17
  br label %ehcleanup107

lpad56:                                           ; preds = %if.then59, %invoke.cont54
  %43 = landingpad { ptr, i32 }
          cleanup
  %44 = extractvalue { ptr, i32 } %43, 0
  store ptr %44, ptr %exn.slot, align 8
  %45 = extractvalue { ptr, i32 } %43, 1
  store i32 %45, ptr %ehselector.slot, align 4
  call void @_ZN7doctest6detail7SubcaseD1Ev(ptr noundef nonnull align 8 dereferenceable(41) %ref.tmp50) #17
  br label %ehcleanup107

if.end64:                                         ; preds = %invoke.cont61, %invoke.cont57
  call void @_ZN7doctest6detail7SubcaseD1Ev(ptr noundef nonnull align 8 dereferenceable(41) %ref.tmp50) #17
  invoke void @_ZN7doctest6StringC1EPKc(ptr noundef nonnull align 8 dereferenceable(24) %ref.tmp67, ptr noundef @.str.10)
          to label %invoke.cont68 unwind label %lpad2

invoke.cont68:                                    ; preds = %if.end64
  invoke void @_ZN7doctest6detail7SubcaseC1ERKNS_6StringEPKci(ptr noundef nonnull align 8 dereferenceable(41) %ref.tmp66, ptr noundef nonnull align 8 dereferenceable(24) %ref.tmp67, ptr noundef @.str.2, i32 noundef 48)
          to label %invoke.cont70 unwind label %lpad69

invoke.cont70:                                    ; preds = %invoke.cont68
  call void @_ZN7doctest6StringD1Ev(ptr noundef nonnull align 8 dereferenceable(24) %ref.tmp67) #17
  store ptr %ref.tmp66, ptr %DOCTEST_ANON_SUBCASE_10, align 8
  %46 = load ptr, ptr %DOCTEST_ANON_SUBCASE_10, align 8
  %call74 = invoke noundef zeroext i1 @_ZNK7doctest6detail7SubcasecvbEv(ptr noundef nonnull align 8 dereferenceable(41) %46)
          to label %invoke.cont73 unwind label %lpad72

invoke.cont73:                                    ; preds = %invoke.cont70
  br i1 %call74, label %if.then75, label %if.end104

if.then75:                                        ; preds = %invoke.cont73
  invoke void @_ZN7doctest6StringC1EPKc(ptr noundef nonnull align 8 dereferenceable(24) %ref.tmp77, ptr noundef @.str.11)
          to label %invoke.cont78 unwind label %lpad72

invoke.cont78:                                    ; preds = %if.then75
  invoke void @_ZN7doctest6detail7SubcaseC1ERKNS_6StringEPKci(ptr noundef nonnull align 8 dereferenceable(41) %ref.tmp76, ptr noundef nonnull align 8 dereferenceable(24) %ref.tmp77, ptr noundef @.str.2, i32 noundef 50)
          to label %invoke.cont80 unwind label %lpad79

invoke.cont80:                                    ; preds = %invoke.cont78
  call void @_ZN7doctest6StringD1Ev(ptr noundef nonnull align 8 dereferenceable(24) %ref.tmp77) #17
  store ptr %ref.tmp76, ptr %DOCTEST_ANON_SUBCASE_11, align 8
  %47 = load ptr, ptr %DOCTEST_ANON_SUBCASE_11, align 8
  %call84 = invoke noundef zeroext i1 @_ZNK7doctest6detail7SubcasecvbEv(ptr noundef nonnull align 8 dereferenceable(41) %47)
          to label %invoke.cont83 unwind label %lpad82

invoke.cont83:                                    ; preds = %invoke.cont80
  br i1 %call84, label %if.then85, label %if.end87

if.then85:                                        ; preds = %invoke.cont83
  call void @llvm.memset.p0.i64(ptr align 8 %it86, i8 0, i64 32, i1 false)
  call void @_ZN8nlohmann16json_abi_v3_11_36detail9iter_implINS0_10basic_jsonISt3mapSt6vectorNSt7__cxx1112basic_stringIcSt11char_traitsIcESaIcEEEblmdSaNS0_14adl_serializerES5_IhSaIhEEvEEEC2Ev(ptr noundef nonnull align 8 dereferenceable(32) %it86) #17
  call void @_ZN8nlohmann16json_abi_v3_11_36detail9iter_implIKNS0_10basic_jsonISt3mapSt6vectorNSt7__cxx1112basic_stringIcSt11char_traitsIcESaIcEEEblmdSaNS0_14adl_serializerES5_IhSaIhEEvEEEC2ERKNS2_ISF_EE(ptr noundef nonnull align 8 dereferenceable(32) %cit, ptr noundef nonnull align 8 dereferenceable(32) %it86) #17
  br label %if.end87

lpad69:                                           ; preds = %invoke.cont68
  %48 = landingpad { ptr, i32 }
          cleanup
  %49 = extractvalue { ptr, i32 } %48, 0
  store ptr %49, ptr %exn.slot, align 8
  %50 = extractvalue { ptr, i32 } %48, 1
  store i32 %50, ptr %ehselector.slot, align 4
  call void @_ZN7doctest6StringD1Ev(ptr noundef nonnull align 8 dereferenceable(24) %ref.tmp67) #17
  br label %ehcleanup107

lpad72:                                           ; preds = %if.end87, %if.then75, %invoke.cont70
  %51 = landingpad { ptr, i32 }
          cleanup
  %52 = extractvalue { ptr, i32 } %51, 0
  store ptr %52, ptr %exn.slot, align 8
  %53 = extractvalue { ptr, i32 } %51, 1
  store i32 %53, ptr %ehselector.slot, align 4
  br label %ehcleanup105

lpad79:                                           ; preds = %invoke.cont78
  %54 = landingpad { ptr, i32 }
          cleanup
  %55 = extractvalue { ptr, i32 } %54, 0
  store ptr %55, ptr %exn.slot, align 8
  %56 = extractvalue { ptr, i32 } %54, 1
  store i32 %56, ptr %ehselector.slot, align 4
  call void @_ZN7doctest6StringD1Ev(ptr noundef nonnull align 8 dereferenceable(24) %ref.tmp77) #17
  br label %ehcleanup105

lpad82:                                           ; preds = %invoke.cont80
  %57 = landingpad { ptr, i32 }
          cleanup
  %58 = extractvalue { ptr, i32 } %57, 0
  store ptr %58, ptr %exn.slot, align 8
  %59 = extractvalue { ptr, i32 } %57, 1
  store i32 %59, ptr %ehselector.slot, align 4
  call void @_ZN7doctest6detail7SubcaseD1Ev(ptr noundef nonnull align 8 dereferenceable(41) %ref.tmp76) #17
  br label %ehcleanup105

if.end87:                                         ; preds = %if.then85, %invoke.cont83
  call void @_ZN7doctest6detail7SubcaseD1Ev(ptr noundef nonnull align 8 dereferenceable(41) %ref.tmp76) #17
  invoke void @_ZN7doctest6StringC1EPKc(ptr noundef nonnull align 8 dereferenceable(24) %ref.tmp90, ptr noundef @.str.12)
          to label %invoke.cont91 unwind label %lpad72

invoke.cont91:                                    ; preds = %if.end87
  invoke void @_ZN7doctest6detail7SubcaseC1ERKNS_6StringEPKci(ptr noundef nonnull align 8 dereferenceable(41) %ref.tmp89, ptr noundef nonnull align 8 dereferenceable(24) %ref.tmp90, ptr noundef @.str.2, i32 noundef 56)
          to label %invoke.cont93 unwind label %lpad92

invoke.cont93:                                    ; preds = %invoke.cont91
  call void @_ZN7doctest6StringD1Ev(ptr noundef nonnull align 8 dereferenceable(24) %ref.tmp90) #17
  store ptr %ref.tmp89, ptr %DOCTEST_ANON_SUBCASE_12, align 8
  %60 = load ptr, ptr %DOCTEST_ANON_SUBCASE_12, align 8
  %call97 = invoke noundef zeroext i1 @_ZNK7doctest6detail7SubcasecvbEv(ptr noundef nonnull align 8 dereferenceable(41) %60)
          to label %invoke.cont96 unwind label %lpad95

invoke.cont96:                                    ; preds = %invoke.cont93
  br i1 %call97, label %if.then98, label %if.end102

if.then98:                                        ; preds = %invoke.cont96
  call void @_ZN8nlohmann16json_abi_v3_11_310basic_jsonISt3mapSt6vectorNSt7__cxx1112basic_stringIcSt11char_traitsIcESaIcEEEblmdSaNS0_14adl_serializerES3_IhSaIhEEvEC2EDn(ptr noundef nonnull align 8 dereferenceable(16) %j99, ptr null) #17
  call void @_ZN8nlohmann16json_abi_v3_11_310basic_jsonISt3mapSt6vectorNSt7__cxx1112basic_stringIcSt11char_traitsIcESaIcEEEblmdSaNS0_14adl_serializerES3_IhSaIhEEvE5beginEv(ptr sret(%"class.nlohmann::json_abi_v3_11_3::detail::iter_impl.0") align 8 %it100, ptr noundef nonnull align 8 dereferenceable(16) %j99) #17
  call void @_ZN8nlohmann16json_abi_v3_11_36detail9iter_implIKNS0_10basic_jsonISt3mapSt6vectorNSt7__cxx1112basic_stringIcSt11char_traitsIcESaIcEEEblmdSaNS0_14adl_serializerES5_IhSaIhEEvEEEC2ERKNS2_ISF_EE(ptr noundef nonnull align 8 dereferenceable(32) %cit101, ptr noundef nonnull align 8 dereferenceable(32) %it100) #17
  call void @_ZN8nlohmann16json_abi_v3_11_310basic_jsonISt3mapSt6vectorNSt7__cxx1112basic_stringIcSt11char_traitsIcESaIcEEEblmdSaNS0_14adl_serializerES3_IhSaIhEEvED2Ev(ptr noundef nonnull align 8 dereferenceable(16) %j99) #17
  br label %if.end102

lpad92:                                           ; preds = %invoke.cont91
  %61 = landingpad { ptr, i32 }
          cleanup
  %62 = extractvalue { ptr, i32 } %61, 0
  store ptr %62, ptr %exn.slot, align 8
  %63 = extractvalue { ptr, i32 } %61, 1
  store i32 %63, ptr %ehselector.slot, align 4
  call void @_ZN7doctest6StringD1Ev(ptr noundef nonnull align 8 dereferenceable(24) %ref.tmp90) #17
  br label %ehcleanup105

lpad95:                                           ; preds = %invoke.cont93
  %64 = landingpad { ptr, i32 }
          cleanup
  %65 = extractvalue { ptr, i32 } %64, 0
  store ptr %65, ptr %exn.slot, align 8
  %66 = extractvalue { ptr, i32 } %64, 1
  store i32 %66, ptr %ehselector.slot, align 4
  call void @_ZN7doctest6detail7SubcaseD1Ev(ptr noundef nonnull align 8 dereferenceable(41) %ref.tmp89) #17
  br label %ehcleanup105

if.end102:                                        ; preds = %if.then98, %invoke.cont96
  call void @_ZN7doctest6detail7SubcaseD1Ev(ptr noundef nonnull align 8 dereferenceable(41) %ref.tmp89) #17
  br label %if.end104

if.end104:                                        ; preds = %if.end102, %invoke.cont73
  call void @_ZN7doctest6detail7SubcaseD1Ev(ptr noundef nonnull align 8 dereferenceable(41) %ref.tmp66) #17
  br label %if.end106

ehcleanup105:                                     ; preds = %lpad95, %lpad92, %lpad82, %lpad79, %lpad72
  call void @_ZN7doctest6detail7SubcaseD1Ev(ptr noundef nonnull align 8 dereferenceable(41) %ref.tmp66) #17
  br label %ehcleanup107

if.end106:                                        ; preds = %if.end104, %invoke.cont3
  call void @_ZN7doctest6detail7SubcaseD1Ev(ptr noundef nonnull align 8 dereferenceable(41) %ref.tmp) #17
  call void @_ZN7doctest6StringC1EPKc(ptr noundef nonnull align 8 dereferenceable(24) %ref.tmp109, ptr noundef @.str.13)
  invoke void @_ZN7doctest6detail7SubcaseC1ERKNS_6StringEPKci(ptr noundef nonnull align 8 dereferenceable(41) %ref.tmp108, ptr noundef nonnull align 8 dereferenceable(24) %ref.tmp109, ptr noundef @.str.2, i32 noundef 65)
          to label %invoke.cont111 unwind label %lpad110

invoke.cont111:                                   ; preds = %if.end106
  call void @_ZN7doctest6StringD1Ev(ptr noundef nonnull align 8 dereferenceable(24) %ref.tmp109) #17
  store ptr %ref.tmp108, ptr %DOCTEST_ANON_SUBCASE_13, align 8
  %67 = load ptr, ptr %DOCTEST_ANON_SUBCASE_13, align 8
  %call115 = invoke noundef zeroext i1 @_ZNK7doctest6detail7SubcasecvbEv(ptr noundef nonnull align 8 dereferenceable(41) %67)
          to label %invoke.cont114 unwind label %lpad113

invoke.cont114:                                   ; preds = %invoke.cont111
  br i1 %call115, label %if.then116, label %if.end338

if.then116:                                       ; preds = %invoke.cont114
  invoke void @_ZN7doctest6StringC1EPKc(ptr noundef nonnull align 8 dereferenceable(24) %ref.tmp118, ptr noundef @.str.14)
          to label %invoke.cont119 unwind label %lpad113

invoke.cont119:                                   ; preds = %if.then116
  invoke void @_ZN7doctest6detail7SubcaseC1ERKNS_6StringEPKci(ptr noundef nonnull align 8 dereferenceable(41) %ref.tmp117, ptr noundef nonnull align 8 dereferenceable(24) %ref.tmp118, ptr noundef @.str.2, i32 noundef 67)
          to label %invoke.cont121 unwind label %lpad120

invoke.cont121:                                   ; preds = %invoke.cont119
  call void @_ZN7doctest6StringD1Ev(ptr noundef nonnull align 8 dereferenceable(24) %ref.tmp118) #17
  store ptr %ref.tmp117, ptr %DOCTEST_ANON_SUBCASE_14, align 8
  %68 = load ptr, ptr %DOCTEST_ANON_SUBCASE_14, align 8
  %call125 = invoke noundef zeroext i1 @_ZNK7doctest6detail7SubcasecvbEv(ptr noundef nonnull align 8 dereferenceable(41) %68)
          to label %invoke.cont124 unwind label %lpad123

invoke.cont124:                                   ; preds = %invoke.cont121
  br i1 %call125, label %if.then126, label %if.end225

if.then126:                                       ; preds = %invoke.cont124
  invoke void @_ZN7doctest6StringC1EPKc(ptr noundef nonnull align 8 dereferenceable(24) %ref.tmp128, ptr noundef @.str.6)
          to label %invoke.cont129 unwind label %lpad123

invoke.cont129:                                   ; preds = %if.then126
  invoke void @_ZN7doctest6detail7SubcaseC1ERKNS_6StringEPKci(ptr noundef nonnull align 8 dereferenceable(41) %ref.tmp127, ptr noundef nonnull align 8 dereferenceable(24) %ref.tmp128, ptr noundef @.str.2, i32 noundef 69)
          to label %invoke.cont131 unwind label %lpad130

invoke.cont131:                                   ; preds = %invoke.cont129
  call void @_ZN7doctest6StringD1Ev(ptr noundef nonnull align 8 dereferenceable(24) %ref.tmp128) #17
  store ptr %ref.tmp127, ptr %DOCTEST_ANON_SUBCASE_15, align 8
  %69 = load ptr, ptr %DOCTEST_ANON_SUBCASE_15, align 8
  %call135 = invoke noundef zeroext i1 @_ZNK7doctest6detail7SubcasecvbEv(ptr noundef nonnull align 8 dereferenceable(41) %69)
          to label %invoke.cont134 unwind label %lpad133

invoke.cont134:                                   ; preds = %invoke.cont131
  br i1 %call135, label %if.then136, label %if.end157

if.then136:                                       ; preds = %invoke.cont134
  invoke void @_ZN8nlohmann16json_abi_v3_11_310basic_jsonISt3mapSt6vectorNSt7__cxx1112basic_stringIcSt11char_traitsIcESaIcEEEblmdSaNS0_14adl_serializerES3_IhSaIhEEvEC2ENS0_6detail7value_tE(ptr noundef nonnull align 8 dereferenceable(16) %j137, i8 noundef zeroext 0)
          to label %invoke.cont138 unwind label %lpad133

invoke.cont138:                                   ; preds = %if.then136
  call void @_ZN8nlohmann16json_abi_v3_11_36detail9iter_implIKNS0_10basic_jsonISt3mapSt6vectorNSt7__cxx1112basic_stringIcSt11char_traitsIcESaIcEEEblmdSaNS0_14adl_serializerES5_IhSaIhEEvEEEC2EPSG_(ptr noundef nonnull align 8 dereferenceable(32) %it139, ptr noundef %j137) #17
  call void @_ZN8nlohmann16json_abi_v3_11_36detail9iter_implIKNS0_10basic_jsonISt3mapSt6vectorNSt7__cxx1112basic_stringIcSt11char_traitsIcESaIcEEEblmdSaNS0_14adl_serializerES5_IhSaIhEEvEEE9set_beginEv(ptr noundef nonnull align 8 dereferenceable(32) %it139) #17
  invoke void @_ZN7doctest6detail20ExpressionDecomposerC1ENS_10assertType4EnumE(ptr noundef nonnull align 4 dereferenceable(4) %ref.tmp142, i32 noundef 10)
          to label %invoke.cont144 unwind label %lpad143

invoke.cont144:                                   ; preds = %invoke.cont138
  call void @_ZNK8nlohmann16json_abi_v3_11_310basic_jsonISt3mapSt6vectorNSt7__cxx1112basic_stringIcSt11char_traitsIcESaIcEEEblmdSaNS0_14adl_serializerES3_IhSaIhEEvE6cbeginEv(ptr sret(%"class.nlohmann::json_abi_v3_11_3::detail::iter_impl") align 8 %ref.tmp146, ptr noundef nonnull align 8 dereferenceable(16) %j137) #17
  %call148 = invoke noundef zeroext i1 @_ZNK8nlohmann16json_abi_v3_11_36detail9iter_implIKNS0_10basic_jsonISt3mapSt6vectorNSt7__cxx1112basic_stringIcSt11char_traitsIcESaIcEEEblmdSaNS0_14adl_serializerES5_IhSaIhEEvEEEeqISH_TnNSt9enable_ifIXoosr3std7is_sameIT_SH_EE5valuesr3std7is_sameISK_NS2_ISF_EEEE5valueEDnE4typeELDn0EEEbRKSK_(ptr noundef nonnull align 8 dereferenceable(32) %it139, ptr noundef nonnull align 8 dereferenceable(32) %ref.tmp146)
          to label %invoke.cont147 unwind label %lpad143

invoke.cont147:                                   ; preds = %invoke.cont144
  %frombool = zext i1 %call148 to i8
  store i8 %frombool, ptr %ref.tmp145, align 1
  %call150 = invoke i64 @_ZN7doctest6detail20ExpressionDecomposerlsIbEENS0_14Expression_lhsIT_EEOS4_(ptr noundef nonnull align 4 dereferenceable(4) %ref.tmp142, ptr noundef nonnull align 1 dereferenceable(1) %ref.tmp145)
          to label %invoke.cont149 unwind label %lpad143

invoke.cont149:                                   ; preds = %invoke.cont147
  store i64 %call150, ptr %ref.tmp141, align 4
  invoke void @_ZN7doctest6detail14Expression_lhsIbEcvNS0_6ResultEEv(ptr sret(%"struct.doctest::detail::Result") align 8 %ref.tmp140, ptr noundef nonnull align 4 dereferenceable(8) %ref.tmp141)
          to label %invoke.cont151 unwind label %lpad143

invoke.cont151:                                   ; preds = %invoke.cont149
  %call154 = invoke noundef zeroext i1 @_ZN7doctest6detail13decomp_assertENS_10assertType4EnumEPKciS4_RKNS0_6ResultE(i32 noundef 10, ptr noundef @.str.2, i32 noundef 74, ptr noundef @.str.15, ptr noundef nonnull align 8 dereferenceable(32) %ref.tmp140)
          to label %invoke.cont153 unwind label %lpad152

invoke.cont153:                                   ; preds = %invoke.cont151
  call void @_ZN7doctest6detail6ResultD2Ev(ptr noundef nonnull align 8 dereferenceable(32) %ref.tmp140) #17
  call void @_ZN8nlohmann16json_abi_v3_11_310basic_jsonISt3mapSt6vectorNSt7__cxx1112basic_stringIcSt11char_traitsIcESaIcEEEblmdSaNS0_14adl_serializerES3_IhSaIhEEvED2Ev(ptr noundef nonnull align 8 dereferenceable(16) %j137) #17
  br label %if.end157

ehcleanup107:                                     ; preds = %ehcleanup105, %lpad69, %lpad56, %lpad53, %ehcleanup, %lpad7, %lpad2
  call void @_ZN7doctest6detail7SubcaseD1Ev(ptr noundef nonnull align 8 dereferenceable(41) %ref.tmp) #17
  br label %eh.resume

lpad110:                                          ; preds = %if.end106
  %70 = landingpad { ptr, i32 }
          cleanup
  %71 = extractvalue { ptr, i32 } %70, 0
  store ptr %71, ptr %exn.slot, align 8
  %72 = extractvalue { ptr, i32 } %70, 1
  store i32 %72, ptr %ehselector.slot, align 4
  call void @_ZN7doctest6StringD1Ev(ptr noundef nonnull align 8 dereferenceable(24) %ref.tmp109) #17
  br label %eh.resume

lpad113:                                          ; preds = %if.end225, %if.then116, %invoke.cont111
  %73 = landingpad { ptr, i32 }
          cleanup
  %74 = extractvalue { ptr, i32 } %73, 0
  store ptr %74, ptr %exn.slot, align 8
  %75 = extractvalue { ptr, i32 } %73, 1
  store i32 %75, ptr %ehselector.slot, align 4
  br label %ehcleanup339

lpad120:                                          ; preds = %invoke.cont119
  %76 = landingpad { ptr, i32 }
          cleanup
  %77 = extractvalue { ptr, i32 } %76, 0
  store ptr %77, ptr %exn.slot, align 8
  %78 = extractvalue { ptr, i32 } %76, 1
  store i32 %78, ptr %ehselector.slot, align 4
  call void @_ZN7doctest6StringD1Ev(ptr noundef nonnull align 8 dereferenceable(24) %ref.tmp118) #17
  br label %ehcleanup339

lpad123:                                          ; preds = %if.end190, %if.end157, %if.then126, %invoke.cont121
  %79 = landingpad { ptr, i32 }
          cleanup
  %80 = extractvalue { ptr, i32 } %79, 0
  store ptr %80, ptr %exn.slot, align 8
  %81 = extractvalue { ptr, i32 } %79, 1
  store i32 %81, ptr %ehselector.slot, align 4
  br label %ehcleanup226

lpad130:                                          ; preds = %invoke.cont129
  %82 = landingpad { ptr, i32 }
          cleanup
  %83 = extractvalue { ptr, i32 } %82, 0
  store ptr %83, ptr %exn.slot, align 8
  %84 = extractvalue { ptr, i32 } %82, 1
  store i32 %84, ptr %ehselector.slot, align 4
  call void @_ZN7doctest6StringD1Ev(ptr noundef nonnull align 8 dereferenceable(24) %ref.tmp128) #17
  br label %ehcleanup226

lpad133:                                          ; preds = %if.then136, %invoke.cont131
  %85 = landingpad { ptr, i32 }
          cleanup
  %86 = extractvalue { ptr, i32 } %85, 0
  store ptr %86, ptr %exn.slot, align 8
  %87 = extractvalue { ptr, i32 } %85, 1
  store i32 %87, ptr %ehselector.slot, align 4
  br label %ehcleanup158

lpad143:                                          ; preds = %invoke.cont149, %invoke.cont147, %invoke.cont144, %invoke.cont138
  %88 = landingpad { ptr, i32 }
          cleanup
  %89 = extractvalue { ptr, i32 } %88, 0
  store ptr %89, ptr %exn.slot, align 8
  %90 = extractvalue { ptr, i32 } %88, 1
  store i32 %90, ptr %ehselector.slot, align 4
  br label %ehcleanup156

lpad152:                                          ; preds = %invoke.cont151
  %91 = landingpad { ptr, i32 }
          cleanup
  %92 = extractvalue { ptr, i32 } %91, 0
  store ptr %92, ptr %exn.slot, align 8
  %93 = extractvalue { ptr, i32 } %91, 1
  store i32 %93, ptr %ehselector.slot, align 4
  call void @_ZN7doctest6detail6ResultD2Ev(ptr noundef nonnull align 8 dereferenceable(32) %ref.tmp140) #17
  br label %ehcleanup156

ehcleanup156:                                     ; preds = %lpad152, %lpad143
  call void @_ZN8nlohmann16json_abi_v3_11_310basic_jsonISt3mapSt6vectorNSt7__cxx1112basic_stringIcSt11char_traitsIcESaIcEEEblmdSaNS0_14adl_serializerES3_IhSaIhEEvED2Ev(ptr noundef nonnull align 8 dereferenceable(16) %j137) #17
  br label %ehcleanup158

if.end157:                                        ; preds = %invoke.cont153, %invoke.cont134
  call void @_ZN7doctest6detail7SubcaseD1Ev(ptr noundef nonnull align 8 dereferenceable(41) %ref.tmp127) #17
  invoke void @_ZN7doctest6StringC1EPKc(ptr noundef nonnull align 8 dereferenceable(24) %ref.tmp160, ptr noundef @.str.7)
          to label %invoke.cont161 unwind label %lpad123

invoke.cont161:                                   ; preds = %if.end157
  invoke void @_ZN7doctest6detail7SubcaseC1ERKNS_6StringEPKci(ptr noundef nonnull align 8 dereferenceable(41) %ref.tmp159, ptr noundef nonnull align 8 dereferenceable(24) %ref.tmp160, ptr noundef @.str.2, i32 noundef 77)
          to label %invoke.cont163 unwind label %lpad162

invoke.cont163:                                   ; preds = %invoke.cont161
  call void @_ZN7doctest6StringD1Ev(ptr noundef nonnull align 8 dereferenceable(24) %ref.tmp160) #17
  store ptr %ref.tmp159, ptr %DOCTEST_ANON_SUBCASE_16, align 8
  %94 = load ptr, ptr %DOCTEST_ANON_SUBCASE_16, align 8
  %call167 = invoke noundef zeroext i1 @_ZNK7doctest6detail7SubcasecvbEv(ptr noundef nonnull align 8 dereferenceable(41) %94)
          to label %invoke.cont166 unwind label %lpad165

invoke.cont166:                                   ; preds = %invoke.cont163
  br i1 %call167, label %if.then168, label %if.end190

if.then168:                                       ; preds = %invoke.cont166
  invoke void @_ZN8nlohmann16json_abi_v3_11_310basic_jsonISt3mapSt6vectorNSt7__cxx1112basic_stringIcSt11char_traitsIcESaIcEEEblmdSaNS0_14adl_serializerES3_IhSaIhEEvEC2ENS0_6detail7value_tE(ptr noundef nonnull align 8 dereferenceable(16) %j169, i8 noundef zeroext 1)
          to label %invoke.cont170 unwind label %lpad165

invoke.cont170:                                   ; preds = %if.then168
  call void @_ZN8nlohmann16json_abi_v3_11_36detail9iter_implIKNS0_10basic_jsonISt3mapSt6vectorNSt7__cxx1112basic_stringIcSt11char_traitsIcESaIcEEEblmdSaNS0_14adl_serializerES5_IhSaIhEEvEEEC2EPSG_(ptr noundef nonnull align 8 dereferenceable(32) %it171, ptr noundef %j169) #17
  call void @_ZN8nlohmann16json_abi_v3_11_36detail9iter_implIKNS0_10basic_jsonISt3mapSt6vectorNSt7__cxx1112basic_stringIcSt11char_traitsIcESaIcEEEblmdSaNS0_14adl_serializerES5_IhSaIhEEvEEE9set_beginEv(ptr noundef nonnull align 8 dereferenceable(32) %it171) #17
  invoke void @_ZN7doctest6detail20ExpressionDecomposerC1ENS_10assertType4EnumE(ptr noundef nonnull align 4 dereferenceable(4) %ref.tmp174, i32 noundef 10)
          to label %invoke.cont176 unwind label %lpad175

invoke.cont176:                                   ; preds = %invoke.cont170
  call void @_ZNK8nlohmann16json_abi_v3_11_310basic_jsonISt3mapSt6vectorNSt7__cxx1112basic_stringIcSt11char_traitsIcESaIcEEEblmdSaNS0_14adl_serializerES3_IhSaIhEEvE6cbeginEv(ptr sret(%"class.nlohmann::json_abi_v3_11_3::detail::iter_impl") align 8 %ref.tmp178, ptr noundef nonnull align 8 dereferenceable(16) %j169) #17
  %call180 = invoke noundef zeroext i1 @_ZNK8nlohmann16json_abi_v3_11_36detail9iter_implIKNS0_10basic_jsonISt3mapSt6vectorNSt7__cxx1112basic_stringIcSt11char_traitsIcESaIcEEEblmdSaNS0_14adl_serializerES5_IhSaIhEEvEEEeqISH_TnNSt9enable_ifIXoosr3std7is_sameIT_SH_EE5valuesr3std7is_sameISK_NS2_ISF_EEEE5valueEDnE4typeELDn0EEEbRKSK_(ptr noundef nonnull align 8 dereferenceable(32) %it171, ptr noundef nonnull align 8 dereferenceable(32) %ref.tmp178)
          to label %invoke.cont179 unwind label %lpad175

invoke.cont179:                                   ; preds = %invoke.cont176
  %frombool181 = zext i1 %call180 to i8
  store i8 %frombool181, ptr %ref.tmp177, align 1
  %call183 = invoke i64 @_ZN7doctest6detail20ExpressionDecomposerlsIbEENS0_14Expression_lhsIT_EEOS4_(ptr noundef nonnull align 4 dereferenceable(4) %ref.tmp174, ptr noundef nonnull align 1 dereferenceable(1) %ref.tmp177)
          to label %invoke.cont182 unwind label %lpad175

invoke.cont182:                                   ; preds = %invoke.cont179
  store i64 %call183, ptr %ref.tmp173, align 4
  invoke void @_ZN7doctest6detail14Expression_lhsIbEcvNS0_6ResultEEv(ptr sret(%"struct.doctest::detail::Result") align 8 %ref.tmp172, ptr noundef nonnull align 4 dereferenceable(8) %ref.tmp173)
          to label %invoke.cont184 unwind label %lpad175

invoke.cont184:                                   ; preds = %invoke.cont182
  %call187 = invoke noundef zeroext i1 @_ZN7doctest6detail13decomp_assertENS_10assertType4EnumEPKciS4_RKNS0_6ResultE(i32 noundef 10, ptr noundef @.str.2, i32 noundef 82, ptr noundef @.str.15, ptr noundef nonnull align 8 dereferenceable(32) %ref.tmp172)
          to label %invoke.cont186 unwind label %lpad185

invoke.cont186:                                   ; preds = %invoke.cont184
  call void @_ZN7doctest6detail6ResultD2Ev(ptr noundef nonnull align 8 dereferenceable(32) %ref.tmp172) #17
  call void @_ZN8nlohmann16json_abi_v3_11_310basic_jsonISt3mapSt6vectorNSt7__cxx1112basic_stringIcSt11char_traitsIcESaIcEEEblmdSaNS0_14adl_serializerES3_IhSaIhEEvED2Ev(ptr noundef nonnull align 8 dereferenceable(16) %j169) #17
  br label %if.end190

ehcleanup158:                                     ; preds = %ehcleanup156, %lpad133
  call void @_ZN7doctest6detail7SubcaseD1Ev(ptr noundef nonnull align 8 dereferenceable(41) %ref.tmp127) #17
  br label %ehcleanup226

lpad162:                                          ; preds = %invoke.cont161
  %95 = landingpad { ptr, i32 }
          cleanup
  %96 = extractvalue { ptr, i32 } %95, 0
  store ptr %96, ptr %exn.slot, align 8
  %97 = extractvalue { ptr, i32 } %95, 1
  store i32 %97, ptr %ehselector.slot, align 4
  call void @_ZN7doctest6StringD1Ev(ptr noundef nonnull align 8 dereferenceable(24) %ref.tmp160) #17
  br label %ehcleanup226

lpad165:                                          ; preds = %if.then168, %invoke.cont163
  %98 = landingpad { ptr, i32 }
          cleanup
  %99 = extractvalue { ptr, i32 } %98, 0
  store ptr %99, ptr %exn.slot, align 8
  %100 = extractvalue { ptr, i32 } %98, 1
  store i32 %100, ptr %ehselector.slot, align 4
  br label %ehcleanup191

lpad175:                                          ; preds = %invoke.cont182, %invoke.cont179, %invoke.cont176, %invoke.cont170
  %101 = landingpad { ptr, i32 }
          cleanup
  %102 = extractvalue { ptr, i32 } %101, 0
  store ptr %102, ptr %exn.slot, align 8
  %103 = extractvalue { ptr, i32 } %101, 1
  store i32 %103, ptr %ehselector.slot, align 4
  br label %ehcleanup189

lpad185:                                          ; preds = %invoke.cont184
  %104 = landingpad { ptr, i32 }
          cleanup
  %105 = extractvalue { ptr, i32 } %104, 0
  store ptr %105, ptr %exn.slot, align 8
  %106 = extractvalue { ptr, i32 } %104, 1
  store i32 %106, ptr %ehselector.slot, align 4
  call void @_ZN7doctest6detail6ResultD2Ev(ptr noundef nonnull align 8 dereferenceable(32) %ref.tmp172) #17
  br label %ehcleanup189

ehcleanup189:                                     ; preds = %lpad185, %lpad175
  call void @_ZN8nlohmann16json_abi_v3_11_310basic_jsonISt3mapSt6vectorNSt7__cxx1112basic_stringIcSt11char_traitsIcESaIcEEEblmdSaNS0_14adl_serializerES3_IhSaIhEEvED2Ev(ptr noundef nonnull align 8 dereferenceable(16) %j169) #17
  br label %ehcleanup191

if.end190:                                        ; preds = %invoke.cont186, %invoke.cont166
  call void @_ZN7doctest6detail7SubcaseD1Ev(ptr noundef nonnull align 8 dereferenceable(41) %ref.tmp159) #17
  invoke void @_ZN7doctest6StringC1EPKc(ptr noundef nonnull align 8 dereferenceable(24) %ref.tmp193, ptr noundef @.str.8)
          to label %invoke.cont194 unwind label %lpad123

invoke.cont194:                                   ; preds = %if.end190
  invoke void @_ZN7doctest6detail7SubcaseC1ERKNS_6StringEPKci(ptr noundef nonnull align 8 dereferenceable(41) %ref.tmp192, ptr noundef nonnull align 8 dereferenceable(24) %ref.tmp193, ptr noundef @.str.2, i32 noundef 85)
          to label %invoke.cont196 unwind label %lpad195

invoke.cont196:                                   ; preds = %invoke.cont194
  call void @_ZN7doctest6StringD1Ev(ptr noundef nonnull align 8 dereferenceable(24) %ref.tmp193) #17
  store ptr %ref.tmp192, ptr %DOCTEST_ANON_SUBCASE_17, align 8
  %107 = load ptr, ptr %DOCTEST_ANON_SUBCASE_17, align 8
  %call200 = invoke noundef zeroext i1 @_ZNK7doctest6detail7SubcasecvbEv(ptr noundef nonnull align 8 dereferenceable(41) %107)
          to label %invoke.cont199 unwind label %lpad198

invoke.cont199:                                   ; preds = %invoke.cont196
  br i1 %call200, label %if.then201, label %if.end223

if.then201:                                       ; preds = %invoke.cont199
  invoke void @_ZN8nlohmann16json_abi_v3_11_310basic_jsonISt3mapSt6vectorNSt7__cxx1112basic_stringIcSt11char_traitsIcESaIcEEEblmdSaNS0_14adl_serializerES3_IhSaIhEEvEC2ENS0_6detail7value_tE(ptr noundef nonnull align 8 dereferenceable(16) %j202, i8 noundef zeroext 2)
          to label %invoke.cont203 unwind label %lpad198

invoke.cont203:                                   ; preds = %if.then201
  call void @_ZN8nlohmann16json_abi_v3_11_36detail9iter_implIKNS0_10basic_jsonISt3mapSt6vectorNSt7__cxx1112basic_stringIcSt11char_traitsIcESaIcEEEblmdSaNS0_14adl_serializerES5_IhSaIhEEvEEEC2EPSG_(ptr noundef nonnull align 8 dereferenceable(32) %it204, ptr noundef %j202) #17
  call void @_ZN8nlohmann16json_abi_v3_11_36detail9iter_implIKNS0_10basic_jsonISt3mapSt6vectorNSt7__cxx1112basic_stringIcSt11char_traitsIcESaIcEEEblmdSaNS0_14adl_serializerES5_IhSaIhEEvEEE9set_beginEv(ptr noundef nonnull align 8 dereferenceable(32) %it204) #17
  invoke void @_ZN7doctest6detail20ExpressionDecomposerC1ENS_10assertType4EnumE(ptr noundef nonnull align 4 dereferenceable(4) %ref.tmp207, i32 noundef 10)
          to label %invoke.cont209 unwind label %lpad208

invoke.cont209:                                   ; preds = %invoke.cont203
  call void @_ZNK8nlohmann16json_abi_v3_11_310basic_jsonISt3mapSt6vectorNSt7__cxx1112basic_stringIcSt11char_traitsIcESaIcEEEblmdSaNS0_14adl_serializerES3_IhSaIhEEvE6cbeginEv(ptr sret(%"class.nlohmann::json_abi_v3_11_3::detail::iter_impl") align 8 %ref.tmp211, ptr noundef nonnull align 8 dereferenceable(16) %j202) #17
  %call213 = invoke noundef zeroext i1 @_ZNK8nlohmann16json_abi_v3_11_36detail9iter_implIKNS0_10basic_jsonISt3mapSt6vectorNSt7__cxx1112basic_stringIcSt11char_traitsIcESaIcEEEblmdSaNS0_14adl_serializerES5_IhSaIhEEvEEEeqISH_TnNSt9enable_ifIXoosr3std7is_sameIT_SH_EE5valuesr3std7is_sameISK_NS2_ISF_EEEE5valueEDnE4typeELDn0EEEbRKSK_(ptr noundef nonnull align 8 dereferenceable(32) %it204, ptr noundef nonnull align 8 dereferenceable(32) %ref.tmp211)
          to label %invoke.cont212 unwind label %lpad208

invoke.cont212:                                   ; preds = %invoke.cont209
  %frombool214 = zext i1 %call213 to i8
  store i8 %frombool214, ptr %ref.tmp210, align 1
  %call216 = invoke i64 @_ZN7doctest6detail20ExpressionDecomposerlsIbEENS0_14Expression_lhsIT_EEOS4_(ptr noundef nonnull align 4 dereferenceable(4) %ref.tmp207, ptr noundef nonnull align 1 dereferenceable(1) %ref.tmp210)
          to label %invoke.cont215 unwind label %lpad208

invoke.cont215:                                   ; preds = %invoke.cont212
  store i64 %call216, ptr %ref.tmp206, align 4
  invoke void @_ZN7doctest6detail14Expression_lhsIbEcvNS0_6ResultEEv(ptr sret(%"struct.doctest::detail::Result") align 8 %ref.tmp205, ptr noundef nonnull align 4 dereferenceable(8) %ref.tmp206)
          to label %invoke.cont217 unwind label %lpad208

invoke.cont217:                                   ; preds = %invoke.cont215
  %call220 = invoke noundef zeroext i1 @_ZN7doctest6detail13decomp_assertENS_10assertType4EnumEPKciS4_RKNS0_6ResultE(i32 noundef 10, ptr noundef @.str.2, i32 noundef 90, ptr noundef @.str.15, ptr noundef nonnull align 8 dereferenceable(32) %ref.tmp205)
          to label %invoke.cont219 unwind label %lpad218

invoke.cont219:                                   ; preds = %invoke.cont217
  call void @_ZN7doctest6detail6ResultD2Ev(ptr noundef nonnull align 8 dereferenceable(32) %ref.tmp205) #17
  call void @_ZN8nlohmann16json_abi_v3_11_310basic_jsonISt3mapSt6vectorNSt7__cxx1112basic_stringIcSt11char_traitsIcESaIcEEEblmdSaNS0_14adl_serializerES3_IhSaIhEEvED2Ev(ptr noundef nonnull align 8 dereferenceable(16) %j202) #17
  br label %if.end223

ehcleanup191:                                     ; preds = %ehcleanup189, %lpad165
  call void @_ZN7doctest6detail7SubcaseD1Ev(ptr noundef nonnull align 8 dereferenceable(41) %ref.tmp159) #17
  br label %ehcleanup226

lpad195:                                          ; preds = %invoke.cont194
  %108 = landingpad { ptr, i32 }
          cleanup
  %109 = extractvalue { ptr, i32 } %108, 0
  store ptr %109, ptr %exn.slot, align 8
  %110 = extractvalue { ptr, i32 } %108, 1
  store i32 %110, ptr %ehselector.slot, align 4
  call void @_ZN7doctest6StringD1Ev(ptr noundef nonnull align 8 dereferenceable(24) %ref.tmp193) #17
  br label %ehcleanup226

lpad198:                                          ; preds = %if.then201, %invoke.cont196
  %111 = landingpad { ptr, i32 }
          cleanup
  %112 = extractvalue { ptr, i32 } %111, 0
  store ptr %112, ptr %exn.slot, align 8
  %113 = extractvalue { ptr, i32 } %111, 1
  store i32 %113, ptr %ehselector.slot, align 4
  br label %ehcleanup224

lpad208:                                          ; preds = %invoke.cont215, %invoke.cont212, %invoke.cont209, %invoke.cont203
  %114 = landingpad { ptr, i32 }
          cleanup
  %115 = extractvalue { ptr, i32 } %114, 0
  store ptr %115, ptr %exn.slot, align 8
  %116 = extractvalue { ptr, i32 } %114, 1
  store i32 %116, ptr %ehselector.slot, align 4
  br label %ehcleanup222

lpad218:                                          ; preds = %invoke.cont217
  %117 = landingpad { ptr, i32 }
          cleanup
  %118 = extractvalue { ptr, i32 } %117, 0
  store ptr %118, ptr %exn.slot, align 8
  %119 = extractvalue { ptr, i32 } %117, 1
  store i32 %119, ptr %ehselector.slot, align 4
  call void @_ZN7doctest6detail6ResultD2Ev(ptr noundef nonnull align 8 dereferenceable(32) %ref.tmp205) #17
  br label %ehcleanup222

ehcleanup222:                                     ; preds = %lpad218, %lpad208
  call void @_ZN8nlohmann16json_abi_v3_11_310basic_jsonISt3mapSt6vectorNSt7__cxx1112basic_stringIcSt11char_traitsIcESaIcEEEblmdSaNS0_14adl_serializerES3_IhSaIhEEvED2Ev(ptr noundef nonnull align 8 dereferenceable(16) %j202) #17
  br label %ehcleanup224

if.end223:                                        ; preds = %invoke.cont219, %invoke.cont199
  call void @_ZN7doctest6detail7SubcaseD1Ev(ptr noundef nonnull align 8 dereferenceable(41) %ref.tmp192) #17
  br label %if.end225

ehcleanup224:                                     ; preds = %ehcleanup222, %lpad198
  call void @_ZN7doctest6detail7SubcaseD1Ev(ptr noundef nonnull align 8 dereferenceable(41) %ref.tmp192) #17
  br label %ehcleanup226

if.end225:                                        ; preds = %if.end223, %invoke.cont124
  call void @_ZN7doctest6detail7SubcaseD1Ev(ptr noundef nonnull align 8 dereferenceable(41) %ref.tmp117) #17
  invoke void @_ZN7doctest6StringC1EPKc(ptr noundef nonnull align 8 dereferenceable(24) %ref.tmp228, ptr noundef @.str.16)
          to label %invoke.cont229 unwind label %lpad113

invoke.cont229:                                   ; preds = %if.end225
  invoke void @_ZN7doctest6detail7SubcaseC1ERKNS_6StringEPKci(ptr noundef nonnull align 8 dereferenceable(41) %ref.tmp227, ptr noundef nonnull align 8 dereferenceable(24) %ref.tmp228, ptr noundef @.str.2, i32 noundef 94)
          to label %invoke.cont231 unwind label %lpad230

invoke.cont231:                                   ; preds = %invoke.cont229
  call void @_ZN7doctest6StringD1Ev(ptr noundef nonnull align 8 dereferenceable(24) %ref.tmp228) #17
  store ptr %ref.tmp227, ptr %DOCTEST_ANON_SUBCASE_18, align 8
  %120 = load ptr, ptr %DOCTEST_ANON_SUBCASE_18, align 8
  %call235 = invoke noundef zeroext i1 @_ZNK7doctest6detail7SubcasecvbEv(ptr noundef nonnull align 8 dereferenceable(41) %120)
          to label %invoke.cont234 unwind label %lpad233

invoke.cont234:                                   ; preds = %invoke.cont231
  br i1 %call235, label %if.then236, label %if.end336

if.then236:                                       ; preds = %invoke.cont234
  invoke void @_ZN7doctest6StringC1EPKc(ptr noundef nonnull align 8 dereferenceable(24) %ref.tmp238, ptr noundef @.str.6)
          to label %invoke.cont239 unwind label %lpad233

invoke.cont239:                                   ; preds = %if.then236
  invoke void @_ZN7doctest6detail7SubcaseC1ERKNS_6StringEPKci(ptr noundef nonnull align 8 dereferenceable(41) %ref.tmp237, ptr noundef nonnull align 8 dereferenceable(24) %ref.tmp238, ptr noundef @.str.2, i32 noundef 96)
          to label %invoke.cont241 unwind label %lpad240

invoke.cont241:                                   ; preds = %invoke.cont239
  call void @_ZN7doctest6StringD1Ev(ptr noundef nonnull align 8 dereferenceable(24) %ref.tmp238) #17
  store ptr %ref.tmp237, ptr %DOCTEST_ANON_SUBCASE_19, align 8
  %121 = load ptr, ptr %DOCTEST_ANON_SUBCASE_19, align 8
  %call245 = invoke noundef zeroext i1 @_ZNK7doctest6detail7SubcasecvbEv(ptr noundef nonnull align 8 dereferenceable(41) %121)
          to label %invoke.cont244 unwind label %lpad243

invoke.cont244:                                   ; preds = %invoke.cont241
  br i1 %call245, label %if.then246, label %if.end268

if.then246:                                       ; preds = %invoke.cont244
  invoke void @_ZN8nlohmann16json_abi_v3_11_310basic_jsonISt3mapSt6vectorNSt7__cxx1112basic_stringIcSt11char_traitsIcESaIcEEEblmdSaNS0_14adl_serializerES3_IhSaIhEEvEC2ENS0_6detail7value_tE(ptr noundef nonnull align 8 dereferenceable(16) %j247, i8 noundef zeroext 0)
          to label %invoke.cont248 unwind label %lpad243

invoke.cont248:                                   ; preds = %if.then246
  call void @_ZN8nlohmann16json_abi_v3_11_36detail9iter_implIKNS0_10basic_jsonISt3mapSt6vectorNSt7__cxx1112basic_stringIcSt11char_traitsIcESaIcEEEblmdSaNS0_14adl_serializerES5_IhSaIhEEvEEEC2EPSG_(ptr noundef nonnull align 8 dereferenceable(32) %it249, ptr noundef %j247) #17
  call void @_ZN8nlohmann16json_abi_v3_11_36detail9iter_implIKNS0_10basic_jsonISt3mapSt6vectorNSt7__cxx1112basic_stringIcSt11char_traitsIcESaIcEEEblmdSaNS0_14adl_serializerES5_IhSaIhEEvEEE7set_endEv(ptr noundef nonnull align 8 dereferenceable(32) %it249) #17
  invoke void @_ZN7doctest6detail20ExpressionDecomposerC1ENS_10assertType4EnumE(ptr noundef nonnull align 4 dereferenceable(4) %ref.tmp252, i32 noundef 10)
          to label %invoke.cont254 unwind label %lpad253

invoke.cont254:                                   ; preds = %invoke.cont248
  call void @_ZNK8nlohmann16json_abi_v3_11_310basic_jsonISt3mapSt6vectorNSt7__cxx1112basic_stringIcSt11char_traitsIcESaIcEEEblmdSaNS0_14adl_serializerES3_IhSaIhEEvE4cendEv(ptr sret(%"class.nlohmann::json_abi_v3_11_3::detail::iter_impl") align 8 %ref.tmp256, ptr noundef nonnull align 8 dereferenceable(16) %j247) #17
  %call258 = invoke noundef zeroext i1 @_ZNK8nlohmann16json_abi_v3_11_36detail9iter_implIKNS0_10basic_jsonISt3mapSt6vectorNSt7__cxx1112basic_stringIcSt11char_traitsIcESaIcEEEblmdSaNS0_14adl_serializerES5_IhSaIhEEvEEEeqISH_TnNSt9enable_ifIXoosr3std7is_sameIT_SH_EE5valuesr3std7is_sameISK_NS2_ISF_EEEE5valueEDnE4typeELDn0EEEbRKSK_(ptr noundef nonnull align 8 dereferenceable(32) %it249, ptr noundef nonnull align 8 dereferenceable(32) %ref.tmp256)
          to label %invoke.cont257 unwind label %lpad253

invoke.cont257:                                   ; preds = %invoke.cont254
  %frombool259 = zext i1 %call258 to i8
  store i8 %frombool259, ptr %ref.tmp255, align 1
  %call261 = invoke i64 @_ZN7doctest6detail20ExpressionDecomposerlsIbEENS0_14Expression_lhsIT_EEOS4_(ptr noundef nonnull align 4 dereferenceable(4) %ref.tmp252, ptr noundef nonnull align 1 dereferenceable(1) %ref.tmp255)
          to label %invoke.cont260 unwind label %lpad253

invoke.cont260:                                   ; preds = %invoke.cont257
  store i64 %call261, ptr %ref.tmp251, align 4
  invoke void @_ZN7doctest6detail14Expression_lhsIbEcvNS0_6ResultEEv(ptr sret(%"struct.doctest::detail::Result") align 8 %ref.tmp250, ptr noundef nonnull align 4 dereferenceable(8) %ref.tmp251)
          to label %invoke.cont262 unwind label %lpad253

invoke.cont262:                                   ; preds = %invoke.cont260
  %call265 = invoke noundef zeroext i1 @_ZN7doctest6detail13decomp_assertENS_10assertType4EnumEPKciS4_RKNS0_6ResultE(i32 noundef 10, ptr noundef @.str.2, i32 noundef 101, ptr noundef @.str.17, ptr noundef nonnull align 8 dereferenceable(32) %ref.tmp250)
          to label %invoke.cont264 unwind label %lpad263

invoke.cont264:                                   ; preds = %invoke.cont262
  call void @_ZN7doctest6detail6ResultD2Ev(ptr noundef nonnull align 8 dereferenceable(32) %ref.tmp250) #17
  call void @_ZN8nlohmann16json_abi_v3_11_310basic_jsonISt3mapSt6vectorNSt7__cxx1112basic_stringIcSt11char_traitsIcESaIcEEEblmdSaNS0_14adl_serializerES3_IhSaIhEEvED2Ev(ptr noundef nonnull align 8 dereferenceable(16) %j247) #17
  br label %if.end268

ehcleanup226:                                     ; preds = %ehcleanup224, %lpad195, %ehcleanup191, %lpad162, %ehcleanup158, %lpad130, %lpad123
  call void @_ZN7doctest6detail7SubcaseD1Ev(ptr noundef nonnull align 8 dereferenceable(41) %ref.tmp117) #17
  br label %ehcleanup339

lpad230:                                          ; preds = %invoke.cont229
  %122 = landingpad { ptr, i32 }
          cleanup
  %123 = extractvalue { ptr, i32 } %122, 0
  store ptr %123, ptr %exn.slot, align 8
  %124 = extractvalue { ptr, i32 } %122, 1
  store i32 %124, ptr %ehselector.slot, align 4
  call void @_ZN7doctest6StringD1Ev(ptr noundef nonnull align 8 dereferenceable(24) %ref.tmp228) #17
  br label %ehcleanup339

lpad233:                                          ; preds = %if.end301, %if.end268, %if.then236, %invoke.cont231
  %125 = landingpad { ptr, i32 }
          cleanup
  %126 = extractvalue { ptr, i32 } %125, 0
  store ptr %126, ptr %exn.slot, align 8
  %127 = extractvalue { ptr, i32 } %125, 1
  store i32 %127, ptr %ehselector.slot, align 4
  br label %ehcleanup337

lpad240:                                          ; preds = %invoke.cont239
  %128 = landingpad { ptr, i32 }
          cleanup
  %129 = extractvalue { ptr, i32 } %128, 0
  store ptr %129, ptr %exn.slot, align 8
  %130 = extractvalue { ptr, i32 } %128, 1
  store i32 %130, ptr %ehselector.slot, align 4
  call void @_ZN7doctest6StringD1Ev(ptr noundef nonnull align 8 dereferenceable(24) %ref.tmp238) #17
  br label %ehcleanup337

lpad243:                                          ; preds = %if.then246, %invoke.cont241
  %131 = landingpad { ptr, i32 }
          cleanup
  %132 = extractvalue { ptr, i32 } %131, 0
  store ptr %132, ptr %exn.slot, align 8
  %133 = extractvalue { ptr, i32 } %131, 1
  store i32 %133, ptr %ehselector.slot, align 4
  br label %ehcleanup269

lpad253:                                          ; preds = %invoke.cont260, %invoke.cont257, %invoke.cont254, %invoke.cont248
  %134 = landingpad { ptr, i32 }
          cleanup
  %135 = extractvalue { ptr, i32 } %134, 0
  store ptr %135, ptr %exn.slot, align 8
  %136 = extractvalue { ptr, i32 } %134, 1
  store i32 %136, ptr %ehselector.slot, align 4
  br label %ehcleanup267

lpad263:                                          ; preds = %invoke.cont262
  %137 = landingpad { ptr, i32 }
          cleanup
  %138 = extractvalue { ptr, i32 } %137, 0
  store ptr %138, ptr %exn.slot, align 8
  %139 = extractvalue { ptr, i32 } %137, 1
  store i32 %139, ptr %ehselector.slot, align 4
  call void @_ZN7doctest6detail6ResultD2Ev(ptr noundef nonnull align 8 dereferenceable(32) %ref.tmp250) #17
  br label %ehcleanup267

ehcleanup267:                                     ; preds = %lpad263, %lpad253
  call void @_ZN8nlohmann16json_abi_v3_11_310basic_jsonISt3mapSt6vectorNSt7__cxx1112basic_stringIcSt11char_traitsIcESaIcEEEblmdSaNS0_14adl_serializerES3_IhSaIhEEvED2Ev(ptr noundef nonnull align 8 dereferenceable(16) %j247) #17
  br label %ehcleanup269

if.end268:                                        ; preds = %invoke.cont264, %invoke.cont244
  call void @_ZN7doctest6detail7SubcaseD1Ev(ptr noundef nonnull align 8 dereferenceable(41) %ref.tmp237) #17
  invoke void @_ZN7doctest6StringC1EPKc(ptr noundef nonnull align 8 dereferenceable(24) %ref.tmp271, ptr noundef @.str.7)
          to label %invoke.cont272 unwind label %lpad233

invoke.cont272:                                   ; preds = %if.end268
  invoke void @_ZN7doctest6detail7SubcaseC1ERKNS_6StringEPKci(ptr noundef nonnull align 8 dereferenceable(41) %ref.tmp270, ptr noundef nonnull align 8 dereferenceable(24) %ref.tmp271, ptr noundef @.str.2, i32 noundef 104)
          to label %invoke.cont274 unwind label %lpad273

invoke.cont274:                                   ; preds = %invoke.cont272
  call void @_ZN7doctest6StringD1Ev(ptr noundef nonnull align 8 dereferenceable(24) %ref.tmp271) #17
  store ptr %ref.tmp270, ptr %DOCTEST_ANON_SUBCASE_20, align 8
  %140 = load ptr, ptr %DOCTEST_ANON_SUBCASE_20, align 8
  %call278 = invoke noundef zeroext i1 @_ZNK7doctest6detail7SubcasecvbEv(ptr noundef nonnull align 8 dereferenceable(41) %140)
          to label %invoke.cont277 unwind label %lpad276

invoke.cont277:                                   ; preds = %invoke.cont274
  br i1 %call278, label %if.then279, label %if.end301

if.then279:                                       ; preds = %invoke.cont277
  invoke void @_ZN8nlohmann16json_abi_v3_11_310basic_jsonISt3mapSt6vectorNSt7__cxx1112basic_stringIcSt11char_traitsIcESaIcEEEblmdSaNS0_14adl_serializerES3_IhSaIhEEvEC2ENS0_6detail7value_tE(ptr noundef nonnull align 8 dereferenceable(16) %j280, i8 noundef zeroext 1)
          to label %invoke.cont281 unwind label %lpad276

invoke.cont281:                                   ; preds = %if.then279
  call void @_ZN8nlohmann16json_abi_v3_11_36detail9iter_implIKNS0_10basic_jsonISt3mapSt6vectorNSt7__cxx1112basic_stringIcSt11char_traitsIcESaIcEEEblmdSaNS0_14adl_serializerES5_IhSaIhEEvEEEC2EPSG_(ptr noundef nonnull align 8 dereferenceable(32) %it282, ptr noundef %j280) #17
  call void @_ZN8nlohmann16json_abi_v3_11_36detail9iter_implIKNS0_10basic_jsonISt3mapSt6vectorNSt7__cxx1112basic_stringIcSt11char_traitsIcESaIcEEEblmdSaNS0_14adl_serializerES5_IhSaIhEEvEEE7set_endEv(ptr noundef nonnull align 8 dereferenceable(32) %it282) #17
  invoke void @_ZN7doctest6detail20ExpressionDecomposerC1ENS_10assertType4EnumE(ptr noundef nonnull align 4 dereferenceable(4) %ref.tmp285, i32 noundef 10)
          to label %invoke.cont287 unwind label %lpad286

invoke.cont287:                                   ; preds = %invoke.cont281
  call void @_ZNK8nlohmann16json_abi_v3_11_310basic_jsonISt3mapSt6vectorNSt7__cxx1112basic_stringIcSt11char_traitsIcESaIcEEEblmdSaNS0_14adl_serializerES3_IhSaIhEEvE4cendEv(ptr sret(%"class.nlohmann::json_abi_v3_11_3::detail::iter_impl") align 8 %ref.tmp289, ptr noundef nonnull align 8 dereferenceable(16) %j280) #17
  %call291 = invoke noundef zeroext i1 @_ZNK8nlohmann16json_abi_v3_11_36detail9iter_implIKNS0_10basic_jsonISt3mapSt6vectorNSt7__cxx1112basic_stringIcSt11char_traitsIcESaIcEEEblmdSaNS0_14adl_serializerES5_IhSaIhEEvEEEeqISH_TnNSt9enable_ifIXoosr3std7is_sameIT_SH_EE5valuesr3std7is_sameISK_NS2_ISF_EEEE5valueEDnE4typeELDn0EEEbRKSK_(ptr noundef nonnull align 8 dereferenceable(32) %it282, ptr noundef nonnull align 8 dereferenceable(32) %ref.tmp289)
          to label %invoke.cont290 unwind label %lpad286

invoke.cont290:                                   ; preds = %invoke.cont287
  %frombool292 = zext i1 %call291 to i8
  store i8 %frombool292, ptr %ref.tmp288, align 1
  %call294 = invoke i64 @_ZN7doctest6detail20ExpressionDecomposerlsIbEENS0_14Expression_lhsIT_EEOS4_(ptr noundef nonnull align 4 dereferenceable(4) %ref.tmp285, ptr noundef nonnull align 1 dereferenceable(1) %ref.tmp288)
          to label %invoke.cont293 unwind label %lpad286

invoke.cont293:                                   ; preds = %invoke.cont290
  store i64 %call294, ptr %ref.tmp284, align 4
  invoke void @_ZN7doctest6detail14Expression_lhsIbEcvNS0_6ResultEEv(ptr sret(%"struct.doctest::detail::Result") align 8 %ref.tmp283, ptr noundef nonnull align 4 dereferenceable(8) %ref.tmp284)
          to label %invoke.cont295 unwind label %lpad286

invoke.cont295:                                   ; preds = %invoke.cont293
  %call298 = invoke noundef zeroext i1 @_ZN7doctest6detail13decomp_assertENS_10assertType4EnumEPKciS4_RKNS0_6ResultE(i32 noundef 10, ptr noundef @.str.2, i32 noundef 109, ptr noundef @.str.17, ptr noundef nonnull align 8 dereferenceable(32) %ref.tmp283)
          to label %invoke.cont297 unwind label %lpad296

invoke.cont297:                                   ; preds = %invoke.cont295
  call void @_ZN7doctest6detail6ResultD2Ev(ptr noundef nonnull align 8 dereferenceable(32) %ref.tmp283) #17
  call void @_ZN8nlohmann16json_abi_v3_11_310basic_jsonISt3mapSt6vectorNSt7__cxx1112basic_stringIcSt11char_traitsIcESaIcEEEblmdSaNS0_14adl_serializerES3_IhSaIhEEvED2Ev(ptr noundef nonnull align 8 dereferenceable(16) %j280) #17
  br label %if.end301

ehcleanup269:                                     ; preds = %ehcleanup267, %lpad243
  call void @_ZN7doctest6detail7SubcaseD1Ev(ptr noundef nonnull align 8 dereferenceable(41) %ref.tmp237) #17
  br label %ehcleanup337

lpad273:                                          ; preds = %invoke.cont272
  %141 = landingpad { ptr, i32 }
          cleanup
  %142 = extractvalue { ptr, i32 } %141, 0
  store ptr %142, ptr %exn.slot, align 8
  %143 = extractvalue { ptr, i32 } %141, 1
  store i32 %143, ptr %ehselector.slot, align 4
  call void @_ZN7doctest6StringD1Ev(ptr noundef nonnull align 8 dereferenceable(24) %ref.tmp271) #17
  br label %ehcleanup337

lpad276:                                          ; preds = %if.then279, %invoke.cont274
  %144 = landingpad { ptr, i32 }
          cleanup
  %145 = extractvalue { ptr, i32 } %144, 0
  store ptr %145, ptr %exn.slot, align 8
  %146 = extractvalue { ptr, i32 } %144, 1
  store i32 %146, ptr %ehselector.slot, align 4
  br label %ehcleanup302

lpad286:                                          ; preds = %invoke.cont293, %invoke.cont290, %invoke.cont287, %invoke.cont281
  %147 = landingpad { ptr, i32 }
          cleanup
  %148 = extractvalue { ptr, i32 } %147, 0
  store ptr %148, ptr %exn.slot, align 8
  %149 = extractvalue { ptr, i32 } %147, 1
  store i32 %149, ptr %ehselector.slot, align 4
  br label %ehcleanup300

lpad296:                                          ; preds = %invoke.cont295
  %150 = landingpad { ptr, i32 }
          cleanup
  %151 = extractvalue { ptr, i32 } %150, 0
  store ptr %151, ptr %exn.slot, align 8
  %152 = extractvalue { ptr, i32 } %150, 1
  store i32 %152, ptr %ehselector.slot, align 4
  call void @_ZN7doctest6detail6ResultD2Ev(ptr noundef nonnull align 8 dereferenceable(32) %ref.tmp283) #17
  br label %ehcleanup300

ehcleanup300:                                     ; preds = %lpad296, %lpad286
  call void @_ZN8nlohmann16json_abi_v3_11_310basic_jsonISt3mapSt6vectorNSt7__cxx1112basic_stringIcSt11char_traitsIcESaIcEEEblmdSaNS0_14adl_serializerES3_IhSaIhEEvED2Ev(ptr noundef nonnull align 8 dereferenceable(16) %j280) #17
  br label %ehcleanup302

if.end301:                                        ; preds = %invoke.cont297, %invoke.cont277
  call void @_ZN7doctest6detail7SubcaseD1Ev(ptr noundef nonnull align 8 dereferenceable(41) %ref.tmp270) #17
  invoke void @_ZN7doctest6StringC1EPKc(ptr noundef nonnull align 8 dereferenceable(24) %ref.tmp304, ptr noundef @.str.8)
          to label %invoke.cont305 unwind label %lpad233

invoke.cont305:                                   ; preds = %if.end301
  invoke void @_ZN7doctest6detail7SubcaseC1ERKNS_6StringEPKci(ptr noundef nonnull align 8 dereferenceable(41) %ref.tmp303, ptr noundef nonnull align 8 dereferenceable(24) %ref.tmp304, ptr noundef @.str.2, i32 noundef 112)
          to label %invoke.cont307 unwind label %lpad306

invoke.cont307:                                   ; preds = %invoke.cont305
  call void @_ZN7doctest6StringD1Ev(ptr noundef nonnull align 8 dereferenceable(24) %ref.tmp304) #17
  store ptr %ref.tmp303, ptr %DOCTEST_ANON_SUBCASE_21, align 8
  %153 = load ptr, ptr %DOCTEST_ANON_SUBCASE_21, align 8
  %call311 = invoke noundef zeroext i1 @_ZNK7doctest6detail7SubcasecvbEv(ptr noundef nonnull align 8 dereferenceable(41) %153)
          to label %invoke.cont310 unwind label %lpad309

invoke.cont310:                                   ; preds = %invoke.cont307
  br i1 %call311, label %if.then312, label %if.end334

if.then312:                                       ; preds = %invoke.cont310
  invoke void @_ZN8nlohmann16json_abi_v3_11_310basic_jsonISt3mapSt6vectorNSt7__cxx1112basic_stringIcSt11char_traitsIcESaIcEEEblmdSaNS0_14adl_serializerES3_IhSaIhEEvEC2ENS0_6detail7value_tE(ptr noundef nonnull align 8 dereferenceable(16) %j313, i8 noundef zeroext 2)
          to label %invoke.cont314 unwind label %lpad309

invoke.cont314:                                   ; preds = %if.then312
  call void @_ZN8nlohmann16json_abi_v3_11_36detail9iter_implIKNS0_10basic_jsonISt3mapSt6vectorNSt7__cxx1112basic_stringIcSt11char_traitsIcESaIcEEEblmdSaNS0_14adl_serializerES5_IhSaIhEEvEEEC2EPSG_(ptr noundef nonnull align 8 dereferenceable(32) %it315, ptr noundef %j313) #17
  call void @_ZN8nlohmann16json_abi_v3_11_36detail9iter_implIKNS0_10basic_jsonISt3mapSt6vectorNSt7__cxx1112basic_stringIcSt11char_traitsIcESaIcEEEblmdSaNS0_14adl_serializerES5_IhSaIhEEvEEE7set_endEv(ptr noundef nonnull align 8 dereferenceable(32) %it315) #17
  invoke void @_ZN7doctest6detail20ExpressionDecomposerC1ENS_10assertType4EnumE(ptr noundef nonnull align 4 dereferenceable(4) %ref.tmp318, i32 noundef 10)
          to label %invoke.cont320 unwind label %lpad319

invoke.cont320:                                   ; preds = %invoke.cont314
  call void @_ZNK8nlohmann16json_abi_v3_11_310basic_jsonISt3mapSt6vectorNSt7__cxx1112basic_stringIcSt11char_traitsIcESaIcEEEblmdSaNS0_14adl_serializerES3_IhSaIhEEvE4cendEv(ptr sret(%"class.nlohmann::json_abi_v3_11_3::detail::iter_impl") align 8 %ref.tmp322, ptr noundef nonnull align 8 dereferenceable(16) %j313) #17
  %call324 = invoke noundef zeroext i1 @_ZNK8nlohmann16json_abi_v3_11_36detail9iter_implIKNS0_10basic_jsonISt3mapSt6vectorNSt7__cxx1112basic_stringIcSt11char_traitsIcESaIcEEEblmdSaNS0_14adl_serializerES5_IhSaIhEEvEEEeqISH_TnNSt9enable_ifIXoosr3std7is_sameIT_SH_EE5valuesr3std7is_sameISK_NS2_ISF_EEEE5valueEDnE4typeELDn0EEEbRKSK_(ptr noundef nonnull align 8 dereferenceable(32) %it315, ptr noundef nonnull align 8 dereferenceable(32) %ref.tmp322)
          to label %invoke.cont323 unwind label %lpad319

invoke.cont323:                                   ; preds = %invoke.cont320
  %frombool325 = zext i1 %call324 to i8
  store i8 %frombool325, ptr %ref.tmp321, align 1
  %call327 = invoke i64 @_ZN7doctest6detail20ExpressionDecomposerlsIbEENS0_14Expression_lhsIT_EEOS4_(ptr noundef nonnull align 4 dereferenceable(4) %ref.tmp318, ptr noundef nonnull align 1 dereferenceable(1) %ref.tmp321)
          to label %invoke.cont326 unwind label %lpad319

invoke.cont326:                                   ; preds = %invoke.cont323
  store i64 %call327, ptr %ref.tmp317, align 4
  invoke void @_ZN7doctest6detail14Expression_lhsIbEcvNS0_6ResultEEv(ptr sret(%"struct.doctest::detail::Result") align 8 %ref.tmp316, ptr noundef nonnull align 4 dereferenceable(8) %ref.tmp317)
          to label %invoke.cont328 unwind label %lpad319

invoke.cont328:                                   ; preds = %invoke.cont326
  %call331 = invoke noundef zeroext i1 @_ZN7doctest6detail13decomp_assertENS_10assertType4EnumEPKciS4_RKNS0_6ResultE(i32 noundef 10, ptr noundef @.str.2, i32 noundef 117, ptr noundef @.str.17, ptr noundef nonnull align 8 dereferenceable(32) %ref.tmp316)
          to label %invoke.cont330 unwind label %lpad329

invoke.cont330:                                   ; preds = %invoke.cont328
  call void @_ZN7doctest6detail6ResultD2Ev(ptr noundef nonnull align 8 dereferenceable(32) %ref.tmp316) #17
  call void @_ZN8nlohmann16json_abi_v3_11_310basic_jsonISt3mapSt6vectorNSt7__cxx1112basic_stringIcSt11char_traitsIcESaIcEEEblmdSaNS0_14adl_serializerES3_IhSaIhEEvED2Ev(ptr noundef nonnull align 8 dereferenceable(16) %j313) #17
  br label %if.end334

ehcleanup302:                                     ; preds = %ehcleanup300, %lpad276
  call void @_ZN7doctest6detail7SubcaseD1Ev(ptr noundef nonnull align 8 dereferenceable(41) %ref.tmp270) #17
  br label %ehcleanup337

lpad306:                                          ; preds = %invoke.cont305
  %154 = landingpad { ptr, i32 }
          cleanup
  %155 = extractvalue { ptr, i32 } %154, 0
  store ptr %155, ptr %exn.slot, align 8
  %156 = extractvalue { ptr, i32 } %154, 1
  store i32 %156, ptr %ehselector.slot, align 4
  call void @_ZN7doctest6StringD1Ev(ptr noundef nonnull align 8 dereferenceable(24) %ref.tmp304) #17
  br label %ehcleanup337

lpad309:                                          ; preds = %if.then312, %invoke.cont307
  %157 = landingpad { ptr, i32 }
          cleanup
  %158 = extractvalue { ptr, i32 } %157, 0
  store ptr %158, ptr %exn.slot, align 8
  %159 = extractvalue { ptr, i32 } %157, 1
  store i32 %159, ptr %ehselector.slot, align 4
  br label %ehcleanup335

lpad319:                                          ; preds = %invoke.cont326, %invoke.cont323, %invoke.cont320, %invoke.cont314
  %160 = landingpad { ptr, i32 }
          cleanup
  %161 = extractvalue { ptr, i32 } %160, 0
  store ptr %161, ptr %exn.slot, align 8
  %162 = extractvalue { ptr, i32 } %160, 1
  store i32 %162, ptr %ehselector.slot, align 4
  br label %ehcleanup333

lpad329:                                          ; preds = %invoke.cont328
  %163 = landingpad { ptr, i32 }
          cleanup
  %164 = extractvalue { ptr, i32 } %163, 0
  store ptr %164, ptr %exn.slot, align 8
  %165 = extractvalue { ptr, i32 } %163, 1
  store i32 %165, ptr %ehselector.slot, align 4
  call void @_ZN7doctest6detail6ResultD2Ev(ptr noundef nonnull align 8 dereferenceable(32) %ref.tmp316) #17
  br label %ehcleanup333

ehcleanup333:                                     ; preds = %lpad329, %lpad319
  call void @_ZN8nlohmann16json_abi_v3_11_310basic_jsonISt3mapSt6vectorNSt7__cxx1112basic_stringIcSt11char_traitsIcESaIcEEEblmdSaNS0_14adl_serializerES3_IhSaIhEEvED2Ev(ptr noundef nonnull align 8 dereferenceable(16) %j313) #17
  br label %ehcleanup335

if.end334:                                        ; preds = %invoke.cont330, %invoke.cont310
  call void @_ZN7doctest6detail7SubcaseD1Ev(ptr noundef nonnull align 8 dereferenceable(41) %ref.tmp303) #17
  br label %if.end336

ehcleanup335:                                     ; preds = %ehcleanup333, %lpad309
  call void @_ZN7doctest6detail7SubcaseD1Ev(ptr noundef nonnull align 8 dereferenceable(41) %ref.tmp303) #17
  br label %ehcleanup337

if.end336:                                        ; preds = %if.end334, %invoke.cont234
  call void @_ZN7doctest6detail7SubcaseD1Ev(ptr noundef nonnull align 8 dereferenceable(41) %ref.tmp227) #17
  br label %if.end338

ehcleanup337:                                     ; preds = %ehcleanup335, %lpad306, %ehcleanup302, %lpad273, %ehcleanup269, %lpad240, %lpad233
  call void @_ZN7doctest6detail7SubcaseD1Ev(ptr noundef nonnull align 8 dereferenceable(41) %ref.tmp227) #17
  br label %ehcleanup339

if.end338:                                        ; preds = %if.end336, %invoke.cont114
  call void @_ZN7doctest6detail7SubcaseD1Ev(ptr noundef nonnull align 8 dereferenceable(41) %ref.tmp108) #17
  call void @_ZN7doctest6StringC1EPKc(ptr noundef nonnull align 8 dereferenceable(24) %ref.tmp341, ptr noundef @.str.18)
  invoke void @_ZN7doctest6detail7SubcaseC1ERKNS_6StringEPKci(ptr noundef nonnull align 8 dereferenceable(41) %ref.tmp340, ptr noundef nonnull align 8 dereferenceable(24) %ref.tmp341, ptr noundef @.str.2, i32 noundef 122)
          to label %invoke.cont343 unwind label %lpad342

invoke.cont343:                                   ; preds = %if.end338
  call void @_ZN7doctest6StringD1Ev(ptr noundef nonnull align 8 dereferenceable(24) %ref.tmp341) #17
  store ptr %ref.tmp340, ptr %DOCTEST_ANON_SUBCASE_22, align 8
  %166 = load ptr, ptr %DOCTEST_ANON_SUBCASE_22, align 8
  %call347 = invoke noundef zeroext i1 @_ZNK7doctest6detail7SubcasecvbEv(ptr noundef nonnull align 8 dereferenceable(41) %166)
          to label %invoke.cont346 unwind label %lpad345

invoke.cont346:                                   ; preds = %invoke.cont343
  br i1 %call347, label %if.then348, label %if.end998

if.then348:                                       ; preds = %invoke.cont346
  invoke void @_ZN7doctest6StringC1EPKc(ptr noundef nonnull align 8 dereferenceable(24) %ref.tmp350, ptr noundef @.str.19)
          to label %invoke.cont351 unwind label %lpad345

invoke.cont351:                                   ; preds = %if.then348
  invoke void @_ZN7doctest6detail7SubcaseC1ERKNS_6StringEPKci(ptr noundef nonnull align 8 dereferenceable(41) %ref.tmp349, ptr noundef nonnull align 8 dereferenceable(24) %ref.tmp350, ptr noundef @.str.2, i32 noundef 124)
          to label %invoke.cont353 unwind label %lpad352

invoke.cont353:                                   ; preds = %invoke.cont351
  call void @_ZN7doctest6StringD1Ev(ptr noundef nonnull align 8 dereferenceable(24) %ref.tmp350) #17
  store ptr %ref.tmp349, ptr %DOCTEST_ANON_SUBCASE_23, align 8
  %167 = load ptr, ptr %DOCTEST_ANON_SUBCASE_23, align 8
  %call357 = invoke noundef zeroext i1 @_ZNK7doctest6detail7SubcasecvbEv(ptr noundef nonnull align 8 dereferenceable(41) %167)
          to label %invoke.cont356 unwind label %lpad355

invoke.cont356:                                   ; preds = %invoke.cont353
  br i1 %call357, label %if.then358, label %if.end643

if.then358:                                       ; preds = %invoke.cont356
  invoke void @_ZN7doctest6StringC1EPKc(ptr noundef nonnull align 8 dereferenceable(24) %ref.tmp360, ptr noundef @.str.6)
          to label %invoke.cont361 unwind label %lpad355

invoke.cont361:                                   ; preds = %if.then358
  invoke void @_ZN7doctest6detail7SubcaseC1ERKNS_6StringEPKci(ptr noundef nonnull align 8 dereferenceable(41) %ref.tmp359, ptr noundef nonnull align 8 dereferenceable(24) %ref.tmp360, ptr noundef @.str.2, i32 noundef 126)
          to label %invoke.cont363 unwind label %lpad362

invoke.cont363:                                   ; preds = %invoke.cont361
  call void @_ZN7doctest6StringD1Ev(ptr noundef nonnull align 8 dereferenceable(24) %ref.tmp360) #17
  store ptr %ref.tmp359, ptr %DOCTEST_ANON_SUBCASE_24, align 8
  %168 = load ptr, ptr %DOCTEST_ANON_SUBCASE_24, align 8
  %call367 = invoke noundef zeroext i1 @_ZNK7doctest6detail7SubcasecvbEv(ptr noundef nonnull align 8 dereferenceable(41) %168)
          to label %invoke.cont366 unwind label %lpad365

invoke.cont366:                                   ; preds = %invoke.cont363
  br i1 %call367, label %if.then368, label %if.end405

if.then368:                                       ; preds = %invoke.cont366
  invoke void @_ZN8nlohmann16json_abi_v3_11_310basic_jsonISt3mapSt6vectorNSt7__cxx1112basic_stringIcSt11char_traitsIcESaIcEEEblmdSaNS0_14adl_serializerES3_IhSaIhEEvEC2ENS0_6detail7value_tE(ptr noundef nonnull align 8 dereferenceable(16) %j369, i8 noundef zeroext 0)
          to label %invoke.cont370 unwind label %lpad365

invoke.cont370:                                   ; preds = %if.then368
  call void @_ZNK8nlohmann16json_abi_v3_11_310basic_jsonISt3mapSt6vectorNSt7__cxx1112basic_stringIcSt11char_traitsIcESaIcEEEblmdSaNS0_14adl_serializerES3_IhSaIhEEvE6cbeginEv(ptr sret(%"class.nlohmann::json_abi_v3_11_3::detail::iter_impl") align 8 %it371, ptr noundef nonnull align 8 dereferenceable(16) %j369) #17
  br label %do.body

do.body:                                          ; preds = %invoke.cont370
  %call374 = invoke noundef ptr @_ZN7doctest17getContextOptionsEv()
          to label %invoke.cont373 unwind label %lpad372

invoke.cont373:                                   ; preds = %do.body
  %no_throw = getelementptr inbounds %"struct.doctest::ContextOptions", ptr %call374, i32 0, i32 16
  %169 = load i8, ptr %no_throw, align 2
  %tobool = trunc i8 %169 to i1
  br i1 %tobool, label %if.else, label %if.then375

if.then375:                                       ; preds = %invoke.cont373
  invoke void @_ZN7doctest6StringC1EPKc(ptr noundef nonnull align 8 dereferenceable(24) %ref.tmp376, ptr noundef @.str.22)
          to label %invoke.cont377 unwind label %lpad372

invoke.cont377:                                   ; preds = %if.then375
  invoke void @_ZN7doctest6detail13ResultBuilderC1ENS_10assertType4EnumEPKciS5_S5_RKNS_6StringE(ptr noundef nonnull align 8 dereferenceable(144) %DOCTEST_RB, i32 noundef 98, ptr noundef @.str.2, i32 noundef 130, ptr noundef @.str.20, ptr noundef @.str.21, ptr noundef nonnull align 8 dereferenceable(24) %ref.tmp376)
          to label %invoke.cont379 unwind label %lpad378

invoke.cont379:                                   ; preds = %invoke.cont377
  call void @_ZN7doctest6StringD1Ev(ptr noundef nonnull align 8 dereferenceable(24) %ref.tmp376) #17
  %call383 = invoke noundef nonnull align 8 dereferenceable(16) ptr @_ZNK8nlohmann16json_abi_v3_11_36detail9iter_implIKNS0_10basic_jsonISt3mapSt6vectorNSt7__cxx1112basic_stringIcSt11char_traitsIcESaIcEEEblmdSaNS0_14adl_serializerES5_IhSaIhEEvEEEdeEv(ptr noundef nonnull align 8 dereferenceable(32) %it371)
          to label %invoke.cont382 unwind label %lpad381

invoke.cont382:                                   ; preds = %invoke.cont379
  br label %try.cont

ehcleanup339:                                     ; preds = %ehcleanup337, %lpad230, %ehcleanup226, %lpad120, %lpad113
  call void @_ZN7doctest6detail7SubcaseD1Ev(ptr noundef nonnull align 8 dereferenceable(41) %ref.tmp108) #17
  br label %eh.resume

lpad342:                                          ; preds = %if.end338
  %170 = landingpad { ptr, i32 }
          cleanup
  %171 = extractvalue { ptr, i32 } %170, 0
  store ptr %171, ptr %exn.slot, align 8
  %172 = extractvalue { ptr, i32 } %170, 1
  store i32 %172, ptr %ehselector.slot, align 4
  call void @_ZN7doctest6StringD1Ev(ptr noundef nonnull align 8 dereferenceable(24) %ref.tmp341) #17
  br label %eh.resume

lpad345:                                          ; preds = %if.end643, %if.then348, %invoke.cont343
  %173 = landingpad { ptr, i32 }
          cleanup
  %174 = extractvalue { ptr, i32 } %173, 0
  store ptr %174, ptr %exn.slot, align 8
  %175 = extractvalue { ptr, i32 } %173, 1
  store i32 %175, ptr %ehselector.slot, align 4
  br label %ehcleanup999

lpad352:                                          ; preds = %invoke.cont351
  %176 = landingpad { ptr, i32 }
          cleanup
  %177 = extractvalue { ptr, i32 } %176, 0
  store ptr %177, ptr %exn.slot, align 8
  %178 = extractvalue { ptr, i32 } %176, 1
  store i32 %178, ptr %ehselector.slot, align 4
  call void @_ZN7doctest6StringD1Ev(ptr noundef nonnull align 8 dereferenceable(24) %ref.tmp350) #17
  br label %ehcleanup999

lpad355:                                          ; preds = %if.end567, %if.end485, %if.end405, %if.then358, %invoke.cont353
  %179 = landingpad { ptr, i32 }
          cleanup
  %180 = extractvalue { ptr, i32 } %179, 0
  store ptr %180, ptr %exn.slot, align 8
  %181 = extractvalue { ptr, i32 } %179, 1
  store i32 %181, ptr %ehselector.slot, align 4
  br label %ehcleanup644

lpad362:                                          ; preds = %invoke.cont361
  %182 = landingpad { ptr, i32 }
          cleanup
  %183 = extractvalue { ptr, i32 } %182, 0
  store ptr %183, ptr %exn.slot, align 8
  %184 = extractvalue { ptr, i32 } %182, 1
  store i32 %184, ptr %ehselector.slot, align 4
  call void @_ZN7doctest6StringD1Ev(ptr noundef nonnull align 8 dereferenceable(24) %ref.tmp360) #17
  br label %ehcleanup644

lpad365:                                          ; preds = %if.then368, %invoke.cont363
  %185 = landingpad { ptr, i32 }
          cleanup
  %186 = extractvalue { ptr, i32 } %185, 0
  store ptr %186, ptr %exn.slot, align 8
  %187 = extractvalue { ptr, i32 } %185, 1
  store i32 %187, ptr %ehselector.slot, align 4
  br label %ehcleanup406

lpad372:                                          ; preds = %if.then375, %do.body
  %188 = landingpad { ptr, i32 }
          cleanup
  %189 = extractvalue { ptr, i32 } %188, 0
  store ptr %189, ptr %exn.slot, align 8
  %190 = extractvalue { ptr, i32 } %188, 1
  store i32 %190, ptr %ehselector.slot, align 4
  br label %ehcleanup404

lpad378:                                          ; preds = %invoke.cont377
  %191 = landingpad { ptr, i32 }
          cleanup
  %192 = extractvalue { ptr, i32 } %191, 0
  store ptr %192, ptr %exn.slot, align 8
  %193 = extractvalue { ptr, i32 } %191, 1
  store i32 %193, ptr %ehselector.slot, align 4
  call void @_ZN7doctest6StringD1Ev(ptr noundef nonnull align 8 dereferenceable(24) %ref.tmp376) #17
  br label %ehcleanup404

lpad381:                                          ; preds = %invoke.cont379
  %194 = landingpad { ptr, i32 }
          catch ptr @_ZTIN8nlohmann16json_abi_v3_11_36detail16invalid_iteratorE
          catch ptr null
  %195 = extractvalue { ptr, i32 } %194, 0
  store ptr %195, ptr %exn.slot, align 8
  %196 = extractvalue { ptr, i32 } %194, 1
  store i32 %196, ptr %ehselector.slot, align 4
  br label %catch.dispatch

catch.dispatch:                                   ; preds = %lpad381
  %sel = load i32, ptr %ehselector.slot, align 4
  %197 = call i32 @llvm.eh.typeid.for(ptr @_ZTIN8nlohmann16json_abi_v3_11_36detail16invalid_iteratorE) #17
  %matches = icmp eq i32 %sel, %197
  br i1 %matches, label %catch390, label %catch

catch390:                                         ; preds = %catch.dispatch
  %exn391 = load ptr, ptr %exn.slot, align 8
  %198 = call ptr @__cxa_begin_catch(ptr %exn391) #17
  store ptr %198, ptr %0, align 8
  invoke void @_ZN7doctest6detail13ResultBuilder18translateExceptionEv(ptr noundef nonnull align 8 dereferenceable(144) %DOCTEST_RB)
          to label %invoke.cont393 unwind label %lpad392

invoke.cont393:                                   ; preds = %catch390
  %m_threw_as = getelementptr inbounds %"struct.doctest::AssertData", ptr %DOCTEST_RB, i32 0, i32 9
  store i8 1, ptr %m_threw_as, align 8
  invoke void @__cxa_end_catch()
          to label %invoke.cont394 unwind label %lpad386

invoke.cont394:                                   ; preds = %invoke.cont393
  br label %try.cont

try.cont:                                         ; preds = %invoke.cont387, %invoke.cont394, %invoke.cont382
  %call398 = invoke noundef zeroext i1 @_ZN7doctest6detail13ResultBuilder3logEv(ptr noundef nonnull align 8 dereferenceable(144) %DOCTEST_RB)
          to label %invoke.cont397 unwind label %lpad386

invoke.cont397:                                   ; preds = %try.cont
  br i1 %call398, label %if.then399, label %if.end400

if.then399:                                       ; preds = %invoke.cont397
  call void asm sideeffect "int $$3\0A", "~{dirflag},~{fpsr},~{flags}"() #17, !srcloc !5
  br label %if.end400

catch:                                            ; preds = %catch.dispatch
  %exn = load ptr, ptr %exn.slot, align 8
  %199 = call ptr @__cxa_begin_catch(ptr %exn) #17
  invoke void @_ZN7doctest6detail13ResultBuilder18translateExceptionEv(ptr noundef nonnull align 8 dereferenceable(144) %DOCTEST_RB)
          to label %invoke.cont385 unwind label %lpad384

invoke.cont385:                                   ; preds = %catch
  invoke void @__cxa_end_catch()
          to label %invoke.cont387 unwind label %lpad386

invoke.cont387:                                   ; preds = %invoke.cont385
  br label %try.cont

lpad384:                                          ; preds = %catch
  %200 = landingpad { ptr, i32 }
          cleanup
  %201 = extractvalue { ptr, i32 } %200, 0
  store ptr %201, ptr %exn.slot, align 8
  %202 = extractvalue { ptr, i32 } %200, 1
  store i32 %202, ptr %ehselector.slot, align 4
  invoke void @__cxa_end_catch()
          to label %invoke.cont389 unwind label %terminate.lpad

lpad386:                                          ; preds = %if.end400, %invoke.cont385, %try.cont, %invoke.cont393
  %203 = landingpad { ptr, i32 }
          cleanup
  %204 = extractvalue { ptr, i32 } %203, 0
  store ptr %204, ptr %exn.slot, align 8
  %205 = extractvalue { ptr, i32 } %203, 1
  store i32 %205, ptr %ehselector.slot, align 4
  br label %ehcleanup402

invoke.cont389:                                   ; preds = %lpad384
  br label %ehcleanup402

lpad392:                                          ; preds = %catch390
  %206 = landingpad { ptr, i32 }
          cleanup
  %207 = extractvalue { ptr, i32 } %206, 0
  store ptr %207, ptr %exn.slot, align 8
  %208 = extractvalue { ptr, i32 } %206, 1
  store i32 %208, ptr %ehselector.slot, align 4
  invoke void @__cxa_end_catch()
          to label %invoke.cont396 unwind label %terminate.lpad

invoke.cont396:                                   ; preds = %lpad392
  br label %ehcleanup402

if.end400:                                        ; preds = %if.then399, %invoke.cont397
  invoke void @_ZNK7doctest6detail13ResultBuilder5reactEv(ptr noundef nonnull align 8 dereferenceable(144) %DOCTEST_RB)
          to label %invoke.cont401 unwind label %lpad386

invoke.cont401:                                   ; preds = %if.end400
  call void @_ZN7doctest6detail13ResultBuilderD2Ev(ptr noundef nonnull align 8 dereferenceable(144) %DOCTEST_RB) #17
  br label %if.end403

ehcleanup402:                                     ; preds = %invoke.cont396, %invoke.cont389, %lpad386
  call void @_ZN7doctest6detail13ResultBuilderD2Ev(ptr noundef nonnull align 8 dereferenceable(144) %DOCTEST_RB) #17
  br label %ehcleanup404

if.else:                                          ; preds = %invoke.cont373
  br label %if.end403

if.end403:                                        ; preds = %if.else, %invoke.cont401
  br label %do.cond

do.cond:                                          ; preds = %if.end403
  br label %do.end

do.end:                                           ; preds = %do.cond
  call void @_ZN8nlohmann16json_abi_v3_11_310basic_jsonISt3mapSt6vectorNSt7__cxx1112basic_stringIcSt11char_traitsIcESaIcEEEblmdSaNS0_14adl_serializerES3_IhSaIhEEvED2Ev(ptr noundef nonnull align 8 dereferenceable(16) %j369) #17
  br label %if.end405

ehcleanup404:                                     ; preds = %ehcleanup402, %lpad378, %lpad372
  call void @_ZN8nlohmann16json_abi_v3_11_310basic_jsonISt3mapSt6vectorNSt7__cxx1112basic_stringIcSt11char_traitsIcESaIcEEEblmdSaNS0_14adl_serializerES3_IhSaIhEEvED2Ev(ptr noundef nonnull align 8 dereferenceable(16) %j369) #17
  br label %ehcleanup406

if.end405:                                        ; preds = %do.end, %invoke.cont366
  call void @_ZN7doctest6detail7SubcaseD1Ev(ptr noundef nonnull align 8 dereferenceable(41) %ref.tmp359) #17
  invoke void @_ZN7doctest6StringC1EPKc(ptr noundef nonnull align 8 dereferenceable(24) %ref.tmp408, ptr noundef @.str.23)
          to label %invoke.cont409 unwind label %lpad355

invoke.cont409:                                   ; preds = %if.end405
  invoke void @_ZN7doctest6detail7SubcaseC1ERKNS_6StringEPKci(ptr noundef nonnull align 8 dereferenceable(41) %ref.tmp407, ptr noundef nonnull align 8 dereferenceable(24) %ref.tmp408, ptr noundef @.str.2, i32 noundef 133)
          to label %invoke.cont411 unwind label %lpad410

invoke.cont411:                                   ; preds = %invoke.cont409
  call void @_ZN7doctest6StringD1Ev(ptr noundef nonnull align 8 dereferenceable(24) %ref.tmp408) #17
  store ptr %ref.tmp407, ptr %DOCTEST_ANON_SUBCASE_25, align 8
  %209 = load ptr, ptr %DOCTEST_ANON_SUBCASE_25, align 8
  %call415 = invoke noundef zeroext i1 @_ZNK7doctest6detail7SubcasecvbEv(ptr noundef nonnull align 8 dereferenceable(41) %209)
          to label %invoke.cont414 unwind label %lpad413

invoke.cont414:                                   ; preds = %invoke.cont411
  br i1 %call415, label %if.then416, label %if.end485

if.then416:                                       ; preds = %invoke.cont414
  store i32 17, ptr %ref.tmp418, align 4
  call void @_ZN8nlohmann16json_abi_v3_11_310basic_jsonISt3mapSt6vectorNSt7__cxx1112basic_stringIcSt11char_traitsIcESaIcEEEblmdSaNS0_14adl_serializerES3_IhSaIhEEvEC2IiiTnNSt9enable_ifIXaantsr6detail13is_basic_jsonIT0_EE5valuesr6detail18is_compatible_typeISD_SG_EE5valueEiE4typeELi0EEEOT_(ptr noundef nonnull align 8 dereferenceable(16) %j417, ptr noundef nonnull align 4 dereferenceable(4) %ref.tmp418) #17
  call void @_ZNK8nlohmann16json_abi_v3_11_310basic_jsonISt3mapSt6vectorNSt7__cxx1112basic_stringIcSt11char_traitsIcESaIcEEEblmdSaNS0_14adl_serializerES3_IhSaIhEEvE6cbeginEv(ptr sret(%"class.nlohmann::json_abi_v3_11_3::detail::iter_impl") align 8 %it419, ptr noundef nonnull align 8 dereferenceable(16) %j417) #17
  invoke void @_ZN7doctest6detail20ExpressionDecomposerC1ENS_10assertType4EnumE(ptr noundef nonnull align 4 dereferenceable(4) %ref.tmp422, i32 noundef 10)
          to label %invoke.cont424 unwind label %lpad423

invoke.cont424:                                   ; preds = %if.then416
  %call426 = invoke noundef nonnull align 8 dereferenceable(16) ptr @_ZNK8nlohmann16json_abi_v3_11_36detail9iter_implIKNS0_10basic_jsonISt3mapSt6vectorNSt7__cxx1112basic_stringIcSt11char_traitsIcESaIcEEEblmdSaNS0_14adl_serializerES5_IhSaIhEEvEEEdeEv(ptr noundef nonnull align 8 dereferenceable(32) %it419)
          to label %invoke.cont425 unwind label %lpad423

invoke.cont425:                                   ; preds = %invoke.cont424
  %call428 = invoke { ptr, i32 } @_ZN7doctest6detail20ExpressionDecomposerlsIN8nlohmann16json_abi_v3_11_310basic_jsonISt3mapSt6vectorNSt7__cxx1112basic_stringIcSt11char_traitsIcESaIcEEEblmdSaNS4_14adl_serializerES7_IhSaIhEEvEETnPNS0_5types9enable_ifIXntsr7doctest6detail5types19is_rvalue_referenceIT_EE5valueEvE4typeELPv0EEENS0_14Expression_lhsIRKSK_EESR_(ptr noundef nonnull align 4 dereferenceable(4) %ref.tmp422, ptr noundef nonnull align 8 dereferenceable(16) %call426)
          to label %invoke.cont427 unwind label %lpad423

invoke.cont427:                                   ; preds = %invoke.cont425
  %210 = getelementptr inbounds { ptr, i32 }, ptr %ref.tmp421, i32 0, i32 0
  %211 = extractvalue { ptr, i32 } %call428, 0
  store ptr %211, ptr %210, align 8
  %212 = getelementptr inbounds { ptr, i32 }, ptr %ref.tmp421, i32 0, i32 1
  %213 = extractvalue { ptr, i32 } %call428, 1
  store i32 %213, ptr %212, align 8
  store i32 17, ptr %ref.tmp430, align 4
  call void @_ZN8nlohmann16json_abi_v3_11_310basic_jsonISt3mapSt6vectorNSt7__cxx1112basic_stringIcSt11char_traitsIcESaIcEEEblmdSaNS0_14adl_serializerES3_IhSaIhEEvEC2IiiTnNSt9enable_ifIXaantsr6detail13is_basic_jsonIT0_EE5valuesr6detail18is_compatible_typeISD_SG_EE5valueEiE4typeELi0EEEOT_(ptr noundef nonnull align 8 dereferenceable(16) %ref.tmp429, ptr noundef nonnull align 4 dereferenceable(4) %ref.tmp430) #17
  invoke void @_ZN7doctest6detail14Expression_lhsIRKN8nlohmann16json_abi_v3_11_310basic_jsonISt3mapSt6vectorNSt7__cxx1112basic_stringIcSt11char_traitsIcESaIcEEEblmdSaNS3_14adl_serializerES6_IhSaIhEEvEEEeqISG_EEDTcmcvveqclL_ZNS0_7declvalISI_EEOT_vEEclsr7doctest6detailE7declvalISM_EEtlNS0_6ResultEEESN_(ptr sret(%"struct.doctest::detail::Result") align 8 %ref.tmp420, ptr noundef nonnull align 8 dereferenceable(12) %ref.tmp421, ptr noundef nonnull align 8 dereferenceable(16) %ref.tmp429)
          to label %invoke.cont432 unwind label %lpad431

invoke.cont432:                                   ; preds = %invoke.cont427
  %call435 = invoke noundef zeroext i1 @_ZN7doctest6detail13decomp_assertENS_10assertType4EnumEPKciS4_RKNS0_6ResultE(i32 noundef 10, ptr noundef @.str.2, i32 noundef 137, ptr noundef @.str.24, ptr noundef nonnull align 8 dereferenceable(32) %ref.tmp420)
          to label %invoke.cont434 unwind label %lpad433

invoke.cont434:                                   ; preds = %invoke.cont432
  call void @_ZN7doctest6detail6ResultD2Ev(ptr noundef nonnull align 8 dereferenceable(32) %ref.tmp420) #17
  call void @_ZN8nlohmann16json_abi_v3_11_310basic_jsonISt3mapSt6vectorNSt7__cxx1112basic_stringIcSt11char_traitsIcESaIcEEEblmdSaNS0_14adl_serializerES3_IhSaIhEEvED2Ev(ptr noundef nonnull align 8 dereferenceable(16) %ref.tmp429) #17
  call void @_ZNK8nlohmann16json_abi_v3_11_310basic_jsonISt3mapSt6vectorNSt7__cxx1112basic_stringIcSt11char_traitsIcESaIcEEEblmdSaNS0_14adl_serializerES3_IhSaIhEEvE4cendEv(ptr sret(%"class.nlohmann::json_abi_v3_11_3::detail::iter_impl") align 8 %ref.tmp438, ptr noundef nonnull align 8 dereferenceable(16) %j417) #17
  call void @llvm.memcpy.p0.p0.i64(ptr align 8 %it419, ptr align 8 %ref.tmp438, i64 32, i1 false)
  br label %do.body439

do.body439:                                       ; preds = %invoke.cont434
  %call441 = invoke noundef ptr @_ZN7doctest17getContextOptionsEv()
          to label %invoke.cont440 unwind label %lpad423

invoke.cont440:                                   ; preds = %do.body439
  %no_throw442 = getelementptr inbounds %"struct.doctest::ContextOptions", ptr %call441, i32 0, i32 16
  %214 = load i8, ptr %no_throw442, align 2
  %tobool443 = trunc i8 %214 to i1
  br i1 %tobool443, label %if.else480, label %if.then444

if.then444:                                       ; preds = %invoke.cont440
  invoke void @_ZN7doctest6StringC1EPKc(ptr noundef nonnull align 8 dereferenceable(24) %ref.tmp446, ptr noundef @.str.22)
          to label %invoke.cont447 unwind label %lpad423

invoke.cont447:                                   ; preds = %if.then444
  invoke void @_ZN7doctest6detail13ResultBuilderC1ENS_10assertType4EnumEPKciS5_S5_RKNS_6StringE(ptr noundef nonnull align 8 dereferenceable(144) %DOCTEST_RB445, i32 noundef 98, ptr noundef @.str.2, i32 noundef 139, ptr noundef @.str.20, ptr noundef @.str.21, ptr noundef nonnull align 8 dereferenceable(24) %ref.tmp446)
          to label %invoke.cont449 unwind label %lpad448

invoke.cont449:                                   ; preds = %invoke.cont447
  call void @_ZN7doctest6StringD1Ev(ptr noundef nonnull align 8 dereferenceable(24) %ref.tmp446) #17
  %call453 = invoke noundef nonnull align 8 dereferenceable(16) ptr @_ZNK8nlohmann16json_abi_v3_11_36detail9iter_implIKNS0_10basic_jsonISt3mapSt6vectorNSt7__cxx1112basic_stringIcSt11char_traitsIcESaIcEEEblmdSaNS0_14adl_serializerES5_IhSaIhEEvEEEdeEv(ptr noundef nonnull align 8 dereferenceable(32) %it419)
          to label %invoke.cont452 unwind label %lpad451

invoke.cont452:                                   ; preds = %invoke.cont449
  br label %try.cont473

ehcleanup406:                                     ; preds = %ehcleanup404, %lpad365
  call void @_ZN7doctest6detail7SubcaseD1Ev(ptr noundef nonnull align 8 dereferenceable(41) %ref.tmp359) #17
  br label %ehcleanup644

lpad410:                                          ; preds = %invoke.cont409
  %215 = landingpad { ptr, i32 }
          cleanup
  %216 = extractvalue { ptr, i32 } %215, 0
  store ptr %216, ptr %exn.slot, align 8
  %217 = extractvalue { ptr, i32 } %215, 1
  store i32 %217, ptr %ehselector.slot, align 4
  call void @_ZN7doctest6StringD1Ev(ptr noundef nonnull align 8 dereferenceable(24) %ref.tmp408) #17
  br label %ehcleanup644

lpad413:                                          ; preds = %invoke.cont411
  %218 = landingpad { ptr, i32 }
          cleanup
  %219 = extractvalue { ptr, i32 } %218, 0
  store ptr %219, ptr %exn.slot, align 8
  %220 = extractvalue { ptr, i32 } %218, 1
  store i32 %220, ptr %ehselector.slot, align 4
  br label %ehcleanup486

lpad423:                                          ; preds = %if.then444, %do.body439, %invoke.cont425, %invoke.cont424, %if.then416
  %221 = landingpad { ptr, i32 }
          cleanup
  %222 = extractvalue { ptr, i32 } %221, 0
  store ptr %222, ptr %exn.slot, align 8
  %223 = extractvalue { ptr, i32 } %221, 1
  store i32 %223, ptr %ehselector.slot, align 4
  br label %ehcleanup484

lpad431:                                          ; preds = %invoke.cont427
  %224 = landingpad { ptr, i32 }
          cleanup
  %225 = extractvalue { ptr, i32 } %224, 0
  store ptr %225, ptr %exn.slot, align 8
  %226 = extractvalue { ptr, i32 } %224, 1
  store i32 %226, ptr %ehselector.slot, align 4
  br label %ehcleanup437

lpad433:                                          ; preds = %invoke.cont432
  %227 = landingpad { ptr, i32 }
          cleanup
  %228 = extractvalue { ptr, i32 } %227, 0
  store ptr %228, ptr %exn.slot, align 8
  %229 = extractvalue { ptr, i32 } %227, 1
  store i32 %229, ptr %ehselector.slot, align 4
  call void @_ZN7doctest6detail6ResultD2Ev(ptr noundef nonnull align 8 dereferenceable(32) %ref.tmp420) #17
  br label %ehcleanup437

ehcleanup437:                                     ; preds = %lpad433, %lpad431
  call void @_ZN8nlohmann16json_abi_v3_11_310basic_jsonISt3mapSt6vectorNSt7__cxx1112basic_stringIcSt11char_traitsIcESaIcEEEblmdSaNS0_14adl_serializerES3_IhSaIhEEvED2Ev(ptr noundef nonnull align 8 dereferenceable(16) %ref.tmp429) #17
  br label %ehcleanup484

lpad448:                                          ; preds = %invoke.cont447
  %230 = landingpad { ptr, i32 }
          cleanup
  %231 = extractvalue { ptr, i32 } %230, 0
  store ptr %231, ptr %exn.slot, align 8
  %232 = extractvalue { ptr, i32 } %230, 1
  store i32 %232, ptr %ehselector.slot, align 4
  call void @_ZN7doctest6StringD1Ev(ptr noundef nonnull align 8 dereferenceable(24) %ref.tmp446) #17
  br label %ehcleanup484

lpad451:                                          ; preds = %invoke.cont449
  %233 = landingpad { ptr, i32 }
          catch ptr @_ZTIN8nlohmann16json_abi_v3_11_36detail16invalid_iteratorE
          catch ptr null
  %234 = extractvalue { ptr, i32 } %233, 0
  store ptr %234, ptr %exn.slot, align 8
  %235 = extractvalue { ptr, i32 } %233, 1
  store i32 %235, ptr %ehselector.slot, align 4
  br label %catch.dispatch454

catch.dispatch454:                                ; preds = %lpad451
  %sel455 = load i32, ptr %ehselector.slot, align 4
  %236 = call i32 @llvm.eh.typeid.for(ptr @_ZTIN8nlohmann16json_abi_v3_11_36detail16invalid_iteratorE) #17
  %matches456 = icmp eq i32 %sel455, %236
  br i1 %matches456, label %catch465, label %catch457

catch465:                                         ; preds = %catch.dispatch454
  %exn466 = load ptr, ptr %exn.slot, align 8
  %237 = call ptr @__cxa_begin_catch(ptr %exn466) #17
  store ptr %237, ptr %1, align 8
  invoke void @_ZN7doctest6detail13ResultBuilder18translateExceptionEv(ptr noundef nonnull align 8 dereferenceable(144) %DOCTEST_RB445)
          to label %invoke.cont468 unwind label %lpad467

invoke.cont468:                                   ; preds = %catch465
  %m_threw_as469 = getelementptr inbounds %"struct.doctest::AssertData", ptr %DOCTEST_RB445, i32 0, i32 9
  store i8 1, ptr %m_threw_as469, align 8
  invoke void @__cxa_end_catch()
          to label %invoke.cont470 unwind label %lpad461

invoke.cont470:                                   ; preds = %invoke.cont468
  br label %try.cont473

try.cont473:                                      ; preds = %invoke.cont462, %invoke.cont470, %invoke.cont452
  %call475 = invoke noundef zeroext i1 @_ZN7doctest6detail13ResultBuilder3logEv(ptr noundef nonnull align 8 dereferenceable(144) %DOCTEST_RB445)
          to label %invoke.cont474 unwind label %lpad461

invoke.cont474:                                   ; preds = %try.cont473
  br i1 %call475, label %if.then476, label %if.end477

if.then476:                                       ; preds = %invoke.cont474
  call void asm sideeffect "int $$3\0A", "~{dirflag},~{fpsr},~{flags}"() #17, !srcloc !6
  br label %if.end477

catch457:                                         ; preds = %catch.dispatch454
  %exn458 = load ptr, ptr %exn.slot, align 8
  %238 = call ptr @__cxa_begin_catch(ptr %exn458) #17
  invoke void @_ZN7doctest6detail13ResultBuilder18translateExceptionEv(ptr noundef nonnull align 8 dereferenceable(144) %DOCTEST_RB445)
          to label %invoke.cont460 unwind label %lpad459

invoke.cont460:                                   ; preds = %catch457
  invoke void @__cxa_end_catch()
          to label %invoke.cont462 unwind label %lpad461

invoke.cont462:                                   ; preds = %invoke.cont460
  br label %try.cont473

lpad459:                                          ; preds = %catch457
  %239 = landingpad { ptr, i32 }
          cleanup
  %240 = extractvalue { ptr, i32 } %239, 0
  store ptr %240, ptr %exn.slot, align 8
  %241 = extractvalue { ptr, i32 } %239, 1
  store i32 %241, ptr %ehselector.slot, align 4
  invoke void @__cxa_end_catch()
          to label %invoke.cont464 unwind label %terminate.lpad

lpad461:                                          ; preds = %if.end477, %invoke.cont460, %try.cont473, %invoke.cont468
  %242 = landingpad { ptr, i32 }
          cleanup
  %243 = extractvalue { ptr, i32 } %242, 0
  store ptr %243, ptr %exn.slot, align 8
  %244 = extractvalue { ptr, i32 } %242, 1
  store i32 %244, ptr %ehselector.slot, align 4
  br label %ehcleanup479

invoke.cont464:                                   ; preds = %lpad459
  br label %ehcleanup479

lpad467:                                          ; preds = %catch465
  %245 = landingpad { ptr, i32 }
          cleanup
  %246 = extractvalue { ptr, i32 } %245, 0
  store ptr %246, ptr %exn.slot, align 8
  %247 = extractvalue { ptr, i32 } %245, 1
  store i32 %247, ptr %ehselector.slot, align 4
  invoke void @__cxa_end_catch()
          to label %invoke.cont472 unwind label %terminate.lpad

invoke.cont472:                                   ; preds = %lpad467
  br label %ehcleanup479

if.end477:                                        ; preds = %if.then476, %invoke.cont474
  invoke void @_ZNK7doctest6detail13ResultBuilder5reactEv(ptr noundef nonnull align 8 dereferenceable(144) %DOCTEST_RB445)
          to label %invoke.cont478 unwind label %lpad461

invoke.cont478:                                   ; preds = %if.end477
  call void @_ZN7doctest6detail13ResultBuilderD2Ev(ptr noundef nonnull align 8 dereferenceable(144) %DOCTEST_RB445) #17
  br label %if.end481

ehcleanup479:                                     ; preds = %invoke.cont472, %invoke.cont464, %lpad461
  call void @_ZN7doctest6detail13ResultBuilderD2Ev(ptr noundef nonnull align 8 dereferenceable(144) %DOCTEST_RB445) #17
  br label %ehcleanup484

if.else480:                                       ; preds = %invoke.cont440
  br label %if.end481

if.end481:                                        ; preds = %if.else480, %invoke.cont478
  br label %do.cond482

do.cond482:                                       ; preds = %if.end481
  br label %do.end483

do.end483:                                        ; preds = %do.cond482
  call void @_ZN8nlohmann16json_abi_v3_11_310basic_jsonISt3mapSt6vectorNSt7__cxx1112basic_stringIcSt11char_traitsIcESaIcEEEblmdSaNS0_14adl_serializerES3_IhSaIhEEvED2Ev(ptr noundef nonnull align 8 dereferenceable(16) %j417) #17
  br label %if.end485

ehcleanup484:                                     ; preds = %ehcleanup479, %lpad448, %ehcleanup437, %lpad423
  call void @_ZN8nlohmann16json_abi_v3_11_310basic_jsonISt3mapSt6vectorNSt7__cxx1112basic_stringIcSt11char_traitsIcESaIcEEEblmdSaNS0_14adl_serializerES3_IhSaIhEEvED2Ev(ptr noundef nonnull align 8 dereferenceable(16) %j417) #17
  br label %ehcleanup486

if.end485:                                        ; preds = %do.end483, %invoke.cont414
  call void @_ZN7doctest6detail7SubcaseD1Ev(ptr noundef nonnull align 8 dereferenceable(41) %ref.tmp407) #17
  invoke void @_ZN7doctest6StringC1EPKc(ptr noundef nonnull align 8 dereferenceable(24) %ref.tmp488, ptr noundef @.str.7)
          to label %invoke.cont489 unwind label %lpad355

invoke.cont489:                                   ; preds = %if.end485
  invoke void @_ZN7doctest6detail7SubcaseC1ERKNS_6StringEPKci(ptr noundef nonnull align 8 dereferenceable(41) %ref.tmp487, ptr noundef nonnull align 8 dereferenceable(24) %ref.tmp488, ptr noundef @.str.2, i32 noundef 142)
          to label %invoke.cont491 unwind label %lpad490

invoke.cont491:                                   ; preds = %invoke.cont489
  call void @_ZN7doctest6StringD1Ev(ptr noundef nonnull align 8 dereferenceable(24) %ref.tmp488) #17
  store ptr %ref.tmp487, ptr %DOCTEST_ANON_SUBCASE_26, align 8
  %248 = load ptr, ptr %DOCTEST_ANON_SUBCASE_26, align 8
  %call495 = invoke noundef zeroext i1 @_ZNK7doctest6detail7SubcasecvbEv(ptr noundef nonnull align 8 dereferenceable(41) %248)
          to label %invoke.cont494 unwind label %lpad493

invoke.cont494:                                   ; preds = %invoke.cont491
  br i1 %call495, label %if.then496, label %if.end567

if.then496:                                       ; preds = %invoke.cont494
  %arrayinit.begin = getelementptr inbounds [1 x %"class.nlohmann::json_abi_v3_11_3::detail::json_ref"], ptr %ref.tmp498, i64 0, i64 0
  store i1 true, ptr %cleanup.isactive, align 1
  store ptr %arrayinit.begin, ptr %arrayinit.endOfInit, align 8
  %arrayinit.begin501 = getelementptr inbounds [2 x %"class.nlohmann::json_abi_v3_11_3::detail::json_ref"], ptr %ref.tmp500, i64 0, i64 0
  store ptr %arrayinit.begin501, ptr %arrayinit.endOfInit502, align 8
  invoke void @_ZN8nlohmann16json_abi_v3_11_36detail8json_refINS0_10basic_jsonISt3mapSt6vectorNSt7__cxx1112basic_stringIcSt11char_traitsIcESaIcEEEblmdSaNS0_14adl_serializerES5_IhSaIhEEvEEEC2IJRA4_KcETnNSt9enable_ifIXsr3std16is_constructibleISF_DpT_EE5valueEiE4typeELi0EEEDpOSM_(ptr noundef nonnull align 8 dereferenceable(24) %arrayinit.begin501, ptr noundef nonnull align 1 dereferenceable(4) @.str.25)
          to label %invoke.cont504 unwind label %lpad503

invoke.cont504:                                   ; preds = %if.then496
  %arrayinit.element = getelementptr inbounds %"class.nlohmann::json_abi_v3_11_3::detail::json_ref", ptr %arrayinit.begin501, i64 1
  store ptr %arrayinit.element, ptr %arrayinit.endOfInit502, align 8
  invoke void @_ZN8nlohmann16json_abi_v3_11_36detail8json_refINS0_10basic_jsonISt3mapSt6vectorNSt7__cxx1112basic_stringIcSt11char_traitsIcESaIcEEEblmdSaNS0_14adl_serializerES5_IhSaIhEEvEEEC2IJRA4_KcETnNSt9enable_ifIXsr3std16is_constructibleISF_DpT_EE5valueEiE4typeELi0EEEDpOSM_(ptr noundef nonnull align 8 dereferenceable(24) %arrayinit.element, ptr noundef nonnull align 1 dereferenceable(4) @.str.26)
          to label %invoke.cont505 unwind label %lpad503

invoke.cont505:                                   ; preds = %invoke.cont504
  %_M_array = getelementptr inbounds %"class.std::initializer_list", ptr %agg.tmp499, i32 0, i32 0
  %arraystart = getelementptr inbounds [2 x %"class.nlohmann::json_abi_v3_11_3::detail::json_ref"], ptr %ref.tmp500, i64 0, i64 0
  store ptr %arraystart, ptr %_M_array, align 8
  %_M_len = getelementptr inbounds %"class.std::initializer_list", ptr %agg.tmp499, i32 0, i32 1
  store i64 2, ptr %_M_len, align 8
  %249 = getelementptr inbounds { ptr, i64 }, ptr %agg.tmp499, i32 0, i32 0
  %250 = load ptr, ptr %249, align 8
  %251 = getelementptr inbounds { ptr, i64 }, ptr %agg.tmp499, i32 0, i32 1
  %252 = load i64, ptr %251, align 8
  invoke void @_ZN8nlohmann16json_abi_v3_11_36detail8json_refINS0_10basic_jsonISt3mapSt6vectorNSt7__cxx1112basic_stringIcSt11char_traitsIcESaIcEEEblmdSaNS0_14adl_serializerES5_IhSaIhEEvEEEC2ESt16initializer_listISG_E(ptr noundef nonnull align 8 dereferenceable(24) %arrayinit.begin, ptr %250, i64 %252)
          to label %invoke.cont509 unwind label %lpad508

invoke.cont509:                                   ; preds = %invoke.cont505
  store i1 false, ptr %cleanup.isactive, align 1
  %_M_array510 = getelementptr inbounds %"class.std::initializer_list", ptr %agg.tmp, i32 0, i32 0
  %arraystart511 = getelementptr inbounds [1 x %"class.nlohmann::json_abi_v3_11_3::detail::json_ref"], ptr %ref.tmp498, i64 0, i64 0
  store ptr %arraystart511, ptr %_M_array510, align 8
  %_M_len512 = getelementptr inbounds %"class.std::initializer_list", ptr %agg.tmp, i32 0, i32 1
  store i64 1, ptr %_M_len512, align 8
  %253 = getelementptr inbounds { ptr, i64 }, ptr %agg.tmp, i32 0, i32 0
  %254 = load ptr, ptr %253, align 8
  %255 = getelementptr inbounds { ptr, i64 }, ptr %agg.tmp, i32 0, i32 1
  %256 = load i64, ptr %255, align 8
  invoke void @_ZN8nlohmann16json_abi_v3_11_310basic_jsonISt3mapSt6vectorNSt7__cxx1112basic_stringIcSt11char_traitsIcESaIcEEEblmdSaNS0_14adl_serializerES3_IhSaIhEEvEC2ESt16initializer_listINS0_6detail8json_refISD_EEEbNSF_7value_tE(ptr noundef nonnull align 8 dereferenceable(16) %j497, ptr %254, i64 %256, i1 noundef zeroext true, i8 noundef zeroext 2)
          to label %invoke.cont514 unwind label %lpad513

invoke.cont514:                                   ; preds = %invoke.cont509
  %array.begin = getelementptr inbounds [1 x %"class.nlohmann::json_abi_v3_11_3::detail::json_ref"], ptr %ref.tmp498, i32 0, i32 0
  %257 = getelementptr inbounds %"class.nlohmann::json_abi_v3_11_3::detail::json_ref", ptr %array.begin, i64 1
  br label %arraydestroy.body515

arraydestroy.body515:                             ; preds = %arraydestroy.body515, %invoke.cont514
  %arraydestroy.elementPast516 = phi ptr [ %257, %invoke.cont514 ], [ %arraydestroy.element517, %arraydestroy.body515 ]
  %arraydestroy.element517 = getelementptr inbounds %"class.nlohmann::json_abi_v3_11_3::detail::json_ref", ptr %arraydestroy.elementPast516, i64 -1
  call void @_ZN8nlohmann16json_abi_v3_11_36detail8json_refINS0_10basic_jsonISt3mapSt6vectorNSt7__cxx1112basic_stringIcSt11char_traitsIcESaIcEEEblmdSaNS0_14adl_serializerES5_IhSaIhEEvEEED2Ev(ptr noundef nonnull align 8 dereferenceable(24) %arraydestroy.element517) #17
  %arraydestroy.done518 = icmp eq ptr %arraydestroy.element517, %array.begin
  br i1 %arraydestroy.done518, label %arraydestroy.done519, label %arraydestroy.body515

arraydestroy.done519:                             ; preds = %arraydestroy.body515
  %array.begin527 = getelementptr inbounds [2 x %"class.nlohmann::json_abi_v3_11_3::detail::json_ref"], ptr %ref.tmp500, i32 0, i32 0
  %258 = getelementptr inbounds %"class.nlohmann::json_abi_v3_11_3::detail::json_ref", ptr %array.begin527, i64 2
  br label %arraydestroy.body528

arraydestroy.body528:                             ; preds = %arraydestroy.body528, %arraydestroy.done519
  %arraydestroy.elementPast529 = phi ptr [ %258, %arraydestroy.done519 ], [ %arraydestroy.element530, %arraydestroy.body528 ]
  %arraydestroy.element530 = getelementptr inbounds %"class.nlohmann::json_abi_v3_11_3::detail::json_ref", ptr %arraydestroy.elementPast529, i64 -1
  call void @_ZN8nlohmann16json_abi_v3_11_36detail8json_refINS0_10basic_jsonISt3mapSt6vectorNSt7__cxx1112basic_stringIcSt11char_traitsIcESaIcEEEblmdSaNS0_14adl_serializerES5_IhSaIhEEvEEED2Ev(ptr noundef nonnull align 8 dereferenceable(24) %arraydestroy.element530) #17
  %arraydestroy.done531 = icmp eq ptr %arraydestroy.element530, %array.begin527
  br i1 %arraydestroy.done531, label %arraydestroy.done532, label %arraydestroy.body528

arraydestroy.done532:                             ; preds = %arraydestroy.body528
  call void @_ZNK8nlohmann16json_abi_v3_11_310basic_jsonISt3mapSt6vectorNSt7__cxx1112basic_stringIcSt11char_traitsIcESaIcEEEblmdSaNS0_14adl_serializerES3_IhSaIhEEvE6cbeginEv(ptr sret(%"class.nlohmann::json_abi_v3_11_3::detail::iter_impl") align 8 %it547, ptr noundef nonnull align 8 dereferenceable(16) %j497) #17
  invoke void @_ZN7doctest6detail20ExpressionDecomposerC1ENS_10assertType4EnumE(ptr noundef nonnull align 4 dereferenceable(4) %ref.tmp550, i32 noundef 10)
          to label %invoke.cont552 unwind label %lpad551

invoke.cont552:                                   ; preds = %arraydestroy.done532
  %call554 = invoke noundef nonnull align 8 dereferenceable(16) ptr @_ZNK8nlohmann16json_abi_v3_11_36detail9iter_implIKNS0_10basic_jsonISt3mapSt6vectorNSt7__cxx1112basic_stringIcSt11char_traitsIcESaIcEEEblmdSaNS0_14adl_serializerES5_IhSaIhEEvEEEdeEv(ptr noundef nonnull align 8 dereferenceable(32) %it547)
          to label %invoke.cont553 unwind label %lpad551

invoke.cont553:                                   ; preds = %invoke.cont552
  %call556 = invoke { ptr, i32 } @_ZN7doctest6detail20ExpressionDecomposerlsIN8nlohmann16json_abi_v3_11_310basic_jsonISt3mapSt6vectorNSt7__cxx1112basic_stringIcSt11char_traitsIcESaIcEEEblmdSaNS4_14adl_serializerES7_IhSaIhEEvEETnPNS0_5types9enable_ifIXntsr7doctest6detail5types19is_rvalue_referenceIT_EE5valueEvE4typeELPv0EEENS0_14Expression_lhsIRKSK_EESR_(ptr noundef nonnull align 4 dereferenceable(4) %ref.tmp550, ptr noundef nonnull align 8 dereferenceable(16) %call554)
          to label %invoke.cont555 unwind label %lpad551

invoke.cont555:                                   ; preds = %invoke.cont553
  %259 = getelementptr inbounds { ptr, i32 }, ptr %ref.tmp549, i32 0, i32 0
  %260 = extractvalue { ptr, i32 } %call556, 0
  store ptr %260, ptr %259, align 8
  %261 = getelementptr inbounds { ptr, i32 }, ptr %ref.tmp549, i32 0, i32 1
  %262 = extractvalue { ptr, i32 } %call556, 1
  store i32 %262, ptr %261, align 8
  invoke void @_ZN8nlohmann16json_abi_v3_11_310basic_jsonISt3mapSt6vectorNSt7__cxx1112basic_stringIcSt11char_traitsIcESaIcEEEblmdSaNS0_14adl_serializerES3_IhSaIhEEvEC2IRA4_KcA4_cTnNSt9enable_ifIXaantsr6detail13is_basic_jsonIT0_EE5valuesr6detail18is_compatible_typeISD_SK_EE5valueEiE4typeELi0EEEOT_(ptr noundef nonnull align 8 dereferenceable(16) %ref.tmp557, ptr noundef nonnull align 1 dereferenceable(4) @.str.26)
          to label %invoke.cont558 unwind label %lpad551

invoke.cont558:                                   ; preds = %invoke.cont555
  invoke void @_ZN7doctest6detail14Expression_lhsIRKN8nlohmann16json_abi_v3_11_310basic_jsonISt3mapSt6vectorNSt7__cxx1112basic_stringIcSt11char_traitsIcESaIcEEEblmdSaNS3_14adl_serializerES6_IhSaIhEEvEEEeqISG_EEDTcmcvveqclL_ZNS0_7declvalISI_EEOT_vEEclsr7doctest6detailE7declvalISM_EEtlNS0_6ResultEEESN_(ptr sret(%"struct.doctest::detail::Result") align 8 %ref.tmp548, ptr noundef nonnull align 8 dereferenceable(12) %ref.tmp549, ptr noundef nonnull align 8 dereferenceable(16) %ref.tmp557)
          to label %invoke.cont560 unwind label %lpad559

invoke.cont560:                                   ; preds = %invoke.cont558
  %call563 = invoke noundef zeroext i1 @_ZN7doctest6detail13decomp_assertENS_10assertType4EnumEPKciS4_RKNS0_6ResultE(i32 noundef 10, ptr noundef @.str.2, i32 noundef 146, ptr noundef @.str.27, ptr noundef nonnull align 8 dereferenceable(32) %ref.tmp548)
          to label %invoke.cont562 unwind label %lpad561

invoke.cont562:                                   ; preds = %invoke.cont560
  call void @_ZN7doctest6detail6ResultD2Ev(ptr noundef nonnull align 8 dereferenceable(32) %ref.tmp548) #17
  call void @_ZN8nlohmann16json_abi_v3_11_310basic_jsonISt3mapSt6vectorNSt7__cxx1112basic_stringIcSt11char_traitsIcESaIcEEEblmdSaNS0_14adl_serializerES3_IhSaIhEEvED2Ev(ptr noundef nonnull align 8 dereferenceable(16) %ref.tmp557) #17
  call void @_ZN8nlohmann16json_abi_v3_11_310basic_jsonISt3mapSt6vectorNSt7__cxx1112basic_stringIcSt11char_traitsIcESaIcEEEblmdSaNS0_14adl_serializerES3_IhSaIhEEvED2Ev(ptr noundef nonnull align 8 dereferenceable(16) %j497) #17
  br label %if.end567

ehcleanup486:                                     ; preds = %ehcleanup484, %lpad413
  call void @_ZN7doctest6detail7SubcaseD1Ev(ptr noundef nonnull align 8 dereferenceable(41) %ref.tmp407) #17
  br label %ehcleanup644

lpad490:                                          ; preds = %invoke.cont489
  %263 = landingpad { ptr, i32 }
          cleanup
  %264 = extractvalue { ptr, i32 } %263, 0
  store ptr %264, ptr %exn.slot, align 8
  %265 = extractvalue { ptr, i32 } %263, 1
  store i32 %265, ptr %ehselector.slot, align 4
  call void @_ZN7doctest6StringD1Ev(ptr noundef nonnull align 8 dereferenceable(24) %ref.tmp488) #17
  br label %ehcleanup644

lpad493:                                          ; preds = %invoke.cont491
  %266 = landingpad { ptr, i32 }
          cleanup
  %267 = extractvalue { ptr, i32 } %266, 0
  store ptr %267, ptr %exn.slot, align 8
  %268 = extractvalue { ptr, i32 } %266, 1
  store i32 %268, ptr %ehselector.slot, align 4
  br label %ehcleanup568

lpad503:                                          ; preds = %invoke.cont504, %if.then496
  %269 = landingpad { ptr, i32 }
          cleanup
  %270 = extractvalue { ptr, i32 } %269, 0
  store ptr %270, ptr %exn.slot, align 8
  %271 = extractvalue { ptr, i32 } %269, 1
  store i32 %271, ptr %ehselector.slot, align 4
  %272 = load ptr, ptr %arrayinit.endOfInit502, align 8
  %arraydestroy.isempty = icmp eq ptr %arrayinit.begin501, %272
  br i1 %arraydestroy.isempty, label %arraydestroy.done507, label %arraydestroy.body

arraydestroy.body:                                ; preds = %arraydestroy.body, %lpad503
  %arraydestroy.elementPast = phi ptr [ %272, %lpad503 ], [ %arraydestroy.element, %arraydestroy.body ]
  %arraydestroy.element = getelementptr inbounds %"class.nlohmann::json_abi_v3_11_3::detail::json_ref", ptr %arraydestroy.elementPast, i64 -1
  call void @_ZN8nlohmann16json_abi_v3_11_36detail8json_refINS0_10basic_jsonISt3mapSt6vectorNSt7__cxx1112basic_stringIcSt11char_traitsIcESaIcEEEblmdSaNS0_14adl_serializerES5_IhSaIhEEvEEED2Ev(ptr noundef nonnull align 8 dereferenceable(24) %arraydestroy.element) #17
  %arraydestroy.done = icmp eq ptr %arraydestroy.element, %arrayinit.begin501
  br i1 %arraydestroy.done, label %arraydestroy.done507, label %arraydestroy.body

arraydestroy.done507:                             ; preds = %arraydestroy.body, %lpad503
  br label %ehcleanup540

lpad508:                                          ; preds = %invoke.cont505
  %273 = landingpad { ptr, i32 }
          cleanup
  %274 = extractvalue { ptr, i32 } %273, 0
  store ptr %274, ptr %exn.slot, align 8
  %275 = extractvalue { ptr, i32 } %273, 1
  store i32 %275, ptr %ehselector.slot, align 4
  br label %ehcleanup533

lpad513:                                          ; preds = %invoke.cont509
  %276 = landingpad { ptr, i32 }
          cleanup
  %277 = extractvalue { ptr, i32 } %276, 0
  store ptr %277, ptr %exn.slot, align 8
  %278 = extractvalue { ptr, i32 } %276, 1
  store i32 %278, ptr %ehselector.slot, align 4
  %array.begin521 = getelementptr inbounds [1 x %"class.nlohmann::json_abi_v3_11_3::detail::json_ref"], ptr %ref.tmp498, i32 0, i32 0
  %279 = getelementptr inbounds %"class.nlohmann::json_abi_v3_11_3::detail::json_ref", ptr %array.begin521, i64 1
  br label %arraydestroy.body522

arraydestroy.body522:                             ; preds = %arraydestroy.body522, %lpad513
  %arraydestroy.elementPast523 = phi ptr [ %279, %lpad513 ], [ %arraydestroy.element524, %arraydestroy.body522 ]
  %arraydestroy.element524 = getelementptr inbounds %"class.nlohmann::json_abi_v3_11_3::detail::json_ref", ptr %arraydestroy.elementPast523, i64 -1
  call void @_ZN8nlohmann16json_abi_v3_11_36detail8json_refINS0_10basic_jsonISt3mapSt6vectorNSt7__cxx1112basic_stringIcSt11char_traitsIcESaIcEEEblmdSaNS0_14adl_serializerES5_IhSaIhEEvEEED2Ev(ptr noundef nonnull align 8 dereferenceable(24) %arraydestroy.element524) #17
  %arraydestroy.done525 = icmp eq ptr %arraydestroy.element524, %array.begin521
  br i1 %arraydestroy.done525, label %arraydestroy.done526, label %arraydestroy.body522

arraydestroy.done526:                             ; preds = %arraydestroy.body522
  br label %ehcleanup533

ehcleanup533:                                     ; preds = %arraydestroy.done526, %lpad508
  %array.begin534 = getelementptr inbounds [2 x %"class.nlohmann::json_abi_v3_11_3::detail::json_ref"], ptr %ref.tmp500, i32 0, i32 0
  %280 = getelementptr inbounds %"class.nlohmann::json_abi_v3_11_3::detail::json_ref", ptr %array.begin534, i64 2
  br label %arraydestroy.body535

arraydestroy.body535:                             ; preds = %arraydestroy.body535, %ehcleanup533
  %arraydestroy.elementPast536 = phi ptr [ %280, %ehcleanup533 ], [ %arraydestroy.element537, %arraydestroy.body535 ]
  %arraydestroy.element537 = getelementptr inbounds %"class.nlohmann::json_abi_v3_11_3::detail::json_ref", ptr %arraydestroy.elementPast536, i64 -1
  call void @_ZN8nlohmann16json_abi_v3_11_36detail8json_refINS0_10basic_jsonISt3mapSt6vectorNSt7__cxx1112basic_stringIcSt11char_traitsIcESaIcEEEblmdSaNS0_14adl_serializerES5_IhSaIhEEvEEED2Ev(ptr noundef nonnull align 8 dereferenceable(24) %arraydestroy.element537) #17
  %arraydestroy.done538 = icmp eq ptr %arraydestroy.element537, %array.begin534
  br i1 %arraydestroy.done538, label %arraydestroy.done539, label %arraydestroy.body535

arraydestroy.done539:                             ; preds = %arraydestroy.body535
  br label %ehcleanup540

ehcleanup540:                                     ; preds = %arraydestroy.done539, %arraydestroy.done507
  %cleanup.is_active = load i1, ptr %cleanup.isactive, align 1
  br i1 %cleanup.is_active, label %cleanup.action, label %cleanup.done

cleanup.action:                                   ; preds = %ehcleanup540
  %281 = load ptr, ptr %arrayinit.endOfInit, align 8
  %arraydestroy.isempty541 = icmp eq ptr %arrayinit.begin, %281
  br i1 %arraydestroy.isempty541, label %arraydestroy.done546, label %arraydestroy.body542

arraydestroy.body542:                             ; preds = %arraydestroy.body542, %cleanup.action
  %arraydestroy.elementPast543 = phi ptr [ %281, %cleanup.action ], [ %arraydestroy.element544, %arraydestroy.body542 ]
  %arraydestroy.element544 = getelementptr inbounds %"class.nlohmann::json_abi_v3_11_3::detail::json_ref", ptr %arraydestroy.elementPast543, i64 -1
  call void @_ZN8nlohmann16json_abi_v3_11_36detail8json_refINS0_10basic_jsonISt3mapSt6vectorNSt7__cxx1112basic_stringIcSt11char_traitsIcESaIcEEEblmdSaNS0_14adl_serializerES5_IhSaIhEEvEEED2Ev(ptr noundef nonnull align 8 dereferenceable(24) %arraydestroy.element544) #17
  %arraydestroy.done545 = icmp eq ptr %arraydestroy.element544, %arrayinit.begin
  br i1 %arraydestroy.done545, label %arraydestroy.done546, label %arraydestroy.body542

arraydestroy.done546:                             ; preds = %arraydestroy.body542, %cleanup.action
  br label %cleanup.done

cleanup.done:                                     ; preds = %arraydestroy.done546, %ehcleanup540
  br label %ehcleanup568

lpad551:                                          ; preds = %invoke.cont555, %invoke.cont553, %invoke.cont552, %arraydestroy.done532
  %282 = landingpad { ptr, i32 }
          cleanup
  %283 = extractvalue { ptr, i32 } %282, 0
  store ptr %283, ptr %exn.slot, align 8
  %284 = extractvalue { ptr, i32 } %282, 1
  store i32 %284, ptr %ehselector.slot, align 4
  br label %ehcleanup566

lpad559:                                          ; preds = %invoke.cont558
  %285 = landingpad { ptr, i32 }
          cleanup
  %286 = extractvalue { ptr, i32 } %285, 0
  store ptr %286, ptr %exn.slot, align 8
  %287 = extractvalue { ptr, i32 } %285, 1
  store i32 %287, ptr %ehselector.slot, align 4
  br label %ehcleanup565

lpad561:                                          ; preds = %invoke.cont560
  %288 = landingpad { ptr, i32 }
          cleanup
  %289 = extractvalue { ptr, i32 } %288, 0
  store ptr %289, ptr %exn.slot, align 8
  %290 = extractvalue { ptr, i32 } %288, 1
  store i32 %290, ptr %ehselector.slot, align 4
  call void @_ZN7doctest6detail6ResultD2Ev(ptr noundef nonnull align 8 dereferenceable(32) %ref.tmp548) #17
  br label %ehcleanup565

ehcleanup565:                                     ; preds = %lpad561, %lpad559
  call void @_ZN8nlohmann16json_abi_v3_11_310basic_jsonISt3mapSt6vectorNSt7__cxx1112basic_stringIcSt11char_traitsIcESaIcEEEblmdSaNS0_14adl_serializerES3_IhSaIhEEvED2Ev(ptr noundef nonnull align 8 dereferenceable(16) %ref.tmp557) #17
  br label %ehcleanup566

ehcleanup566:                                     ; preds = %ehcleanup565, %lpad551
  call void @_ZN8nlohmann16json_abi_v3_11_310basic_jsonISt3mapSt6vectorNSt7__cxx1112basic_stringIcSt11char_traitsIcESaIcEEEblmdSaNS0_14adl_serializerES3_IhSaIhEEvED2Ev(ptr noundef nonnull align 8 dereferenceable(16) %j497) #17
  br label %ehcleanup568

if.end567:                                        ; preds = %invoke.cont562, %invoke.cont494
  call void @_ZN7doctest6detail7SubcaseD1Ev(ptr noundef nonnull align 8 dereferenceable(41) %ref.tmp487) #17
  invoke void @_ZN7doctest6StringC1EPKc(ptr noundef nonnull align 8 dereferenceable(24) %ref.tmp570, ptr noundef @.str.8)
          to label %invoke.cont571 unwind label %lpad355

invoke.cont571:                                   ; preds = %if.end567
  invoke void @_ZN7doctest6detail7SubcaseC1ERKNS_6StringEPKci(ptr noundef nonnull align 8 dereferenceable(41) %ref.tmp569, ptr noundef nonnull align 8 dereferenceable(24) %ref.tmp570, ptr noundef @.str.2, i32 noundef 149)
          to label %invoke.cont573 unwind label %lpad572

invoke.cont573:                                   ; preds = %invoke.cont571
  call void @_ZN7doctest6StringD1Ev(ptr noundef nonnull align 8 dereferenceable(24) %ref.tmp570) #17
  store ptr %ref.tmp569, ptr %DOCTEST_ANON_SUBCASE_27, align 8
  %291 = load ptr, ptr %DOCTEST_ANON_SUBCASE_27, align 8
  %call577 = invoke noundef zeroext i1 @_ZNK7doctest6detail7SubcasecvbEv(ptr noundef nonnull align 8 dereferenceable(41) %291)
          to label %invoke.cont576 unwind label %lpad575

invoke.cont576:                                   ; preds = %invoke.cont573
  br i1 %call577, label %if.then578, label %if.end641

if.then578:                                       ; preds = %invoke.cont576
  %arrayinit.begin582 = getelementptr inbounds [4 x %"class.nlohmann::json_abi_v3_11_3::detail::json_ref"], ptr %ref.tmp581, i64 0, i64 0
  store ptr %arrayinit.begin582, ptr %arrayinit.endOfInit583, align 8
  store i32 1, ptr %ref.tmp584, align 4
  invoke void @_ZN8nlohmann16json_abi_v3_11_36detail8json_refINS0_10basic_jsonISt3mapSt6vectorNSt7__cxx1112basic_stringIcSt11char_traitsIcESaIcEEEblmdSaNS0_14adl_serializerES5_IhSaIhEEvEEEC2IJiETnNSt9enable_ifIXsr3std16is_constructibleISF_DpT_EE5valueEiE4typeELi0EEEDpOSJ_(ptr noundef nonnull align 8 dereferenceable(24) %arrayinit.begin582, ptr noundef nonnull align 4 dereferenceable(4) %ref.tmp584)
          to label %invoke.cont586 unwind label %lpad585

invoke.cont586:                                   ; preds = %if.then578
  %arrayinit.element587 = getelementptr inbounds %"class.nlohmann::json_abi_v3_11_3::detail::json_ref", ptr %arrayinit.begin582, i64 1
  store ptr %arrayinit.element587, ptr %arrayinit.endOfInit583, align 8
  store i32 2, ptr %ref.tmp588, align 4
  invoke void @_ZN8nlohmann16json_abi_v3_11_36detail8json_refINS0_10basic_jsonISt3mapSt6vectorNSt7__cxx1112basic_stringIcSt11char_traitsIcESaIcEEEblmdSaNS0_14adl_serializerES5_IhSaIhEEvEEEC2IJiETnNSt9enable_ifIXsr3std16is_constructibleISF_DpT_EE5valueEiE4typeELi0EEEDpOSJ_(ptr noundef nonnull align 8 dereferenceable(24) %arrayinit.element587, ptr noundef nonnull align 4 dereferenceable(4) %ref.tmp588)
          to label %invoke.cont589 unwind label %lpad585

invoke.cont589:                                   ; preds = %invoke.cont586
  %arrayinit.element590 = getelementptr inbounds %"class.nlohmann::json_abi_v3_11_3::detail::json_ref", ptr %arrayinit.element587, i64 1
  store ptr %arrayinit.element590, ptr %arrayinit.endOfInit583, align 8
  store i32 3, ptr %ref.tmp591, align 4
  invoke void @_ZN8nlohmann16json_abi_v3_11_36detail8json_refINS0_10basic_jsonISt3mapSt6vectorNSt7__cxx1112basic_stringIcSt11char_traitsIcESaIcEEEblmdSaNS0_14adl_serializerES5_IhSaIhEEvEEEC2IJiETnNSt9enable_ifIXsr3std16is_constructibleISF_DpT_EE5valueEiE4typeELi0EEEDpOSJ_(ptr noundef nonnull align 8 dereferenceable(24) %arrayinit.element590, ptr noundef nonnull align 4 dereferenceable(4) %ref.tmp591)
          to label %invoke.cont592 unwind label %lpad585

invoke.cont592:                                   ; preds = %invoke.cont589
  %arrayinit.element593 = getelementptr inbounds %"class.nlohmann::json_abi_v3_11_3::detail::json_ref", ptr %arrayinit.element590, i64 1
  store ptr %arrayinit.element593, ptr %arrayinit.endOfInit583, align 8
  store i32 4, ptr %ref.tmp594, align 4
  invoke void @_ZN8nlohmann16json_abi_v3_11_36detail8json_refINS0_10basic_jsonISt3mapSt6vectorNSt7__cxx1112basic_stringIcSt11char_traitsIcESaIcEEEblmdSaNS0_14adl_serializerES5_IhSaIhEEvEEEC2IJiETnNSt9enable_ifIXsr3std16is_constructibleISF_DpT_EE5valueEiE4typeELi0EEEDpOSJ_(ptr noundef nonnull align 8 dereferenceable(24) %arrayinit.element593, ptr noundef nonnull align 4 dereferenceable(4) %ref.tmp594)
          to label %invoke.cont595 unwind label %lpad585

invoke.cont595:                                   ; preds = %invoke.cont592
  %_M_array603 = getelementptr inbounds %"class.std::initializer_list", ptr %agg.tmp580, i32 0, i32 0
  %arraystart604 = getelementptr inbounds [4 x %"class.nlohmann::json_abi_v3_11_3::detail::json_ref"], ptr %ref.tmp581, i64 0, i64 0
  store ptr %arraystart604, ptr %_M_array603, align 8
  %_M_len605 = getelementptr inbounds %"class.std::initializer_list", ptr %agg.tmp580, i32 0, i32 1
  store i64 4, ptr %_M_len605, align 8
  %292 = getelementptr inbounds { ptr, i64 }, ptr %agg.tmp580, i32 0, i32 0
  %293 = load ptr, ptr %292, align 8
  %294 = getelementptr inbounds { ptr, i64 }, ptr %agg.tmp580, i32 0, i32 1
  %295 = load i64, ptr %294, align 8
  invoke void @_ZN8nlohmann16json_abi_v3_11_310basic_jsonISt3mapSt6vectorNSt7__cxx1112basic_stringIcSt11char_traitsIcESaIcEEEblmdSaNS0_14adl_serializerES3_IhSaIhEEvEC2ESt16initializer_listINS0_6detail8json_refISD_EEEbNSF_7value_tE(ptr noundef nonnull align 8 dereferenceable(16) %j579, ptr %293, i64 %295, i1 noundef zeroext true, i8 noundef zeroext 2)
          to label %invoke.cont607 unwind label %lpad606

invoke.cont607:                                   ; preds = %invoke.cont595
  %array.begin608 = getelementptr inbounds [4 x %"class.nlohmann::json_abi_v3_11_3::detail::json_ref"], ptr %ref.tmp581, i32 0, i32 0
  %296 = getelementptr inbounds %"class.nlohmann::json_abi_v3_11_3::detail::json_ref", ptr %array.begin608, i64 4
  br label %arraydestroy.body609

arraydestroy.body609:                             ; preds = %arraydestroy.body609, %invoke.cont607
  %arraydestroy.elementPast610 = phi ptr [ %296, %invoke.cont607 ], [ %arraydestroy.element611, %arraydestroy.body609 ]
  %arraydestroy.element611 = getelementptr inbounds %"class.nlohmann::json_abi_v3_11_3::detail::json_ref", ptr %arraydestroy.elementPast610, i64 -1
  call void @_ZN8nlohmann16json_abi_v3_11_36detail8json_refINS0_10basic_jsonISt3mapSt6vectorNSt7__cxx1112basic_stringIcSt11char_traitsIcESaIcEEEblmdSaNS0_14adl_serializerES5_IhSaIhEEvEEED2Ev(ptr noundef nonnull align 8 dereferenceable(24) %arraydestroy.element611) #17
  %arraydestroy.done612 = icmp eq ptr %arraydestroy.element611, %array.begin608
  br i1 %arraydestroy.done612, label %arraydestroy.done613, label %arraydestroy.body609

arraydestroy.done613:                             ; preds = %arraydestroy.body609
  call void @_ZNK8nlohmann16json_abi_v3_11_310basic_jsonISt3mapSt6vectorNSt7__cxx1112basic_stringIcSt11char_traitsIcESaIcEEEblmdSaNS0_14adl_serializerES3_IhSaIhEEvE6cbeginEv(ptr sret(%"class.nlohmann::json_abi_v3_11_3::detail::iter_impl") align 8 %it621, ptr noundef nonnull align 8 dereferenceable(16) %j579) #17
  invoke void @_ZN7doctest6detail20ExpressionDecomposerC1ENS_10assertType4EnumE(ptr noundef nonnull align 4 dereferenceable(4) %ref.tmp624, i32 noundef 10)
          to label %invoke.cont626 unwind label %lpad625

invoke.cont626:                                   ; preds = %arraydestroy.done613
  %call628 = invoke noundef nonnull align 8 dereferenceable(16) ptr @_ZNK8nlohmann16json_abi_v3_11_36detail9iter_implIKNS0_10basic_jsonISt3mapSt6vectorNSt7__cxx1112basic_stringIcSt11char_traitsIcESaIcEEEblmdSaNS0_14adl_serializerES5_IhSaIhEEvEEEdeEv(ptr noundef nonnull align 8 dereferenceable(32) %it621)
          to label %invoke.cont627 unwind label %lpad625

invoke.cont627:                                   ; preds = %invoke.cont626
  %call630 = invoke { ptr, i32 } @_ZN7doctest6detail20ExpressionDecomposerlsIN8nlohmann16json_abi_v3_11_310basic_jsonISt3mapSt6vectorNSt7__cxx1112basic_stringIcSt11char_traitsIcESaIcEEEblmdSaNS4_14adl_serializerES7_IhSaIhEEvEETnPNS0_5types9enable_ifIXntsr7doctest6detail5types19is_rvalue_referenceIT_EE5valueEvE4typeELPv0EEENS0_14Expression_lhsIRKSK_EESR_(ptr noundef nonnull align 4 dereferenceable(4) %ref.tmp624, ptr noundef nonnull align 8 dereferenceable(16) %call628)
          to label %invoke.cont629 unwind label %lpad625

invoke.cont629:                                   ; preds = %invoke.cont627
  %297 = getelementptr inbounds { ptr, i32 }, ptr %ref.tmp623, i32 0, i32 0
  %298 = extractvalue { ptr, i32 } %call630, 0
  store ptr %298, ptr %297, align 8
  %299 = getelementptr inbounds { ptr, i32 }, ptr %ref.tmp623, i32 0, i32 1
  %300 = extractvalue { ptr, i32 } %call630, 1
  store i32 %300, ptr %299, align 8
  store i32 1, ptr %ref.tmp632, align 4
  call void @_ZN8nlohmann16json_abi_v3_11_310basic_jsonISt3mapSt6vectorNSt7__cxx1112basic_stringIcSt11char_traitsIcESaIcEEEblmdSaNS0_14adl_serializerES3_IhSaIhEEvEC2IiiTnNSt9enable_ifIXaantsr6detail13is_basic_jsonIT0_EE5valuesr6detail18is_compatible_typeISD_SG_EE5valueEiE4typeELi0EEEOT_(ptr noundef nonnull align 8 dereferenceable(16) %ref.tmp631, ptr noundef nonnull align 4 dereferenceable(4) %ref.tmp632) #17
  invoke void @_ZN7doctest6detail14Expression_lhsIRKN8nlohmann16json_abi_v3_11_310basic_jsonISt3mapSt6vectorNSt7__cxx1112basic_stringIcSt11char_traitsIcESaIcEEEblmdSaNS3_14adl_serializerES6_IhSaIhEEvEEEeqISG_EEDTcmcvveqclL_ZNS0_7declvalISI_EEOT_vEEclsr7doctest6detailE7declvalISM_EEtlNS0_6ResultEEESN_(ptr sret(%"struct.doctest::detail::Result") align 8 %ref.tmp622, ptr noundef nonnull align 8 dereferenceable(12) %ref.tmp623, ptr noundef nonnull align 8 dereferenceable(16) %ref.tmp631)
          to label %invoke.cont634 unwind label %lpad633

invoke.cont634:                                   ; preds = %invoke.cont629
  %call637 = invoke noundef zeroext i1 @_ZN7doctest6detail13decomp_assertENS_10assertType4EnumEPKciS4_RKNS0_6ResultE(i32 noundef 10, ptr noundef @.str.2, i32 noundef 153, ptr noundef @.str.28, ptr noundef nonnull align 8 dereferenceable(32) %ref.tmp622)
          to label %invoke.cont636 unwind label %lpad635

invoke.cont636:                                   ; preds = %invoke.cont634
  call void @_ZN7doctest6detail6ResultD2Ev(ptr noundef nonnull align 8 dereferenceable(32) %ref.tmp622) #17
  call void @_ZN8nlohmann16json_abi_v3_11_310basic_jsonISt3mapSt6vectorNSt7__cxx1112basic_stringIcSt11char_traitsIcESaIcEEEblmdSaNS0_14adl_serializerES3_IhSaIhEEvED2Ev(ptr noundef nonnull align 8 dereferenceable(16) %ref.tmp631) #17
  call void @_ZN8nlohmann16json_abi_v3_11_310basic_jsonISt3mapSt6vectorNSt7__cxx1112basic_stringIcSt11char_traitsIcESaIcEEEblmdSaNS0_14adl_serializerES3_IhSaIhEEvED2Ev(ptr noundef nonnull align 8 dereferenceable(16) %j579) #17
  br label %if.end641

ehcleanup568:                                     ; preds = %ehcleanup566, %cleanup.done, %lpad493
  call void @_ZN7doctest6detail7SubcaseD1Ev(ptr noundef nonnull align 8 dereferenceable(41) %ref.tmp487) #17
  br label %ehcleanup644

lpad572:                                          ; preds = %invoke.cont571
  %301 = landingpad { ptr, i32 }
          cleanup
  %302 = extractvalue { ptr, i32 } %301, 0
  store ptr %302, ptr %exn.slot, align 8
  %303 = extractvalue { ptr, i32 } %301, 1
  store i32 %303, ptr %ehselector.slot, align 4
  call void @_ZN7doctest6StringD1Ev(ptr noundef nonnull align 8 dereferenceable(24) %ref.tmp570) #17
  br label %ehcleanup644

lpad575:                                          ; preds = %invoke.cont573
  %304 = landingpad { ptr, i32 }
          cleanup
  %305 = extractvalue { ptr, i32 } %304, 0
  store ptr %305, ptr %exn.slot, align 8
  %306 = extractvalue { ptr, i32 } %304, 1
  store i32 %306, ptr %ehselector.slot, align 4
  br label %ehcleanup642

lpad585:                                          ; preds = %invoke.cont592, %invoke.cont589, %invoke.cont586, %if.then578
  %307 = landingpad { ptr, i32 }
          cleanup
  %308 = extractvalue { ptr, i32 } %307, 0
  store ptr %308, ptr %exn.slot, align 8
  %309 = extractvalue { ptr, i32 } %307, 1
  store i32 %309, ptr %ehselector.slot, align 4
  %310 = load ptr, ptr %arrayinit.endOfInit583, align 8
  %arraydestroy.isempty597 = icmp eq ptr %arrayinit.begin582, %310
  br i1 %arraydestroy.isempty597, label %arraydestroy.done602, label %arraydestroy.body598

arraydestroy.body598:                             ; preds = %arraydestroy.body598, %lpad585
  %arraydestroy.elementPast599 = phi ptr [ %310, %lpad585 ], [ %arraydestroy.element600, %arraydestroy.body598 ]
  %arraydestroy.element600 = getelementptr inbounds %"class.nlohmann::json_abi_v3_11_3::detail::json_ref", ptr %arraydestroy.elementPast599, i64 -1
  call void @_ZN8nlohmann16json_abi_v3_11_36detail8json_refINS0_10basic_jsonISt3mapSt6vectorNSt7__cxx1112basic_stringIcSt11char_traitsIcESaIcEEEblmdSaNS0_14adl_serializerES5_IhSaIhEEvEEED2Ev(ptr noundef nonnull align 8 dereferenceable(24) %arraydestroy.element600) #17
  %arraydestroy.done601 = icmp eq ptr %arraydestroy.element600, %arrayinit.begin582
  br i1 %arraydestroy.done601, label %arraydestroy.done602, label %arraydestroy.body598

arraydestroy.done602:                             ; preds = %arraydestroy.body598, %lpad585
  br label %ehcleanup642

lpad606:                                          ; preds = %invoke.cont595
  %311 = landingpad { ptr, i32 }
          cleanup
  %312 = extractvalue { ptr, i32 } %311, 0
  store ptr %312, ptr %exn.slot, align 8
  %313 = extractvalue { ptr, i32 } %311, 1
  store i32 %313, ptr %ehselector.slot, align 4
  %array.begin615 = getelementptr inbounds [4 x %"class.nlohmann::json_abi_v3_11_3::detail::json_ref"], ptr %ref.tmp581, i32 0, i32 0
  %314 = getelementptr inbounds %"class.nlohmann::json_abi_v3_11_3::detail::json_ref", ptr %array.begin615, i64 4
  br label %arraydestroy.body616

arraydestroy.body616:                             ; preds = %arraydestroy.body616, %lpad606
  %arraydestroy.elementPast617 = phi ptr [ %314, %lpad606 ], [ %arraydestroy.element618, %arraydestroy.body616 ]
  %arraydestroy.element618 = getelementptr inbounds %"class.nlohmann::json_abi_v3_11_3::detail::json_ref", ptr %arraydestroy.elementPast617, i64 -1
  call void @_ZN8nlohmann16json_abi_v3_11_36detail8json_refINS0_10basic_jsonISt3mapSt6vectorNSt7__cxx1112basic_stringIcSt11char_traitsIcESaIcEEEblmdSaNS0_14adl_serializerES5_IhSaIhEEvEEED2Ev(ptr noundef nonnull align 8 dereferenceable(24) %arraydestroy.element618) #17
  %arraydestroy.done619 = icmp eq ptr %arraydestroy.element618, %array.begin615
  br i1 %arraydestroy.done619, label %arraydestroy.done620, label %arraydestroy.body616

arraydestroy.done620:                             ; preds = %arraydestroy.body616
  br label %ehcleanup642

lpad625:                                          ; preds = %invoke.cont627, %invoke.cont626, %arraydestroy.done613
  %315 = landingpad { ptr, i32 }
          cleanup
  %316 = extractvalue { ptr, i32 } %315, 0
  store ptr %316, ptr %exn.slot, align 8
  %317 = extractvalue { ptr, i32 } %315, 1
  store i32 %317, ptr %ehselector.slot, align 4
  br label %ehcleanup640

lpad633:                                          ; preds = %invoke.cont629
  %318 = landingpad { ptr, i32 }
          cleanup
  %319 = extractvalue { ptr, i32 } %318, 0
  store ptr %319, ptr %exn.slot, align 8
  %320 = extractvalue { ptr, i32 } %318, 1
  store i32 %320, ptr %ehselector.slot, align 4
  br label %ehcleanup639

lpad635:                                          ; preds = %invoke.cont634
  %321 = landingpad { ptr, i32 }
          cleanup
  %322 = extractvalue { ptr, i32 } %321, 0
  store ptr %322, ptr %exn.slot, align 8
  %323 = extractvalue { ptr, i32 } %321, 1
  store i32 %323, ptr %ehselector.slot, align 4
  call void @_ZN7doctest6detail6ResultD2Ev(ptr noundef nonnull align 8 dereferenceable(32) %ref.tmp622) #17
  br label %ehcleanup639

ehcleanup639:                                     ; preds = %lpad635, %lpad633
  call void @_ZN8nlohmann16json_abi_v3_11_310basic_jsonISt3mapSt6vectorNSt7__cxx1112basic_stringIcSt11char_traitsIcESaIcEEEblmdSaNS0_14adl_serializerES3_IhSaIhEEvED2Ev(ptr noundef nonnull align 8 dereferenceable(16) %ref.tmp631) #17
  br label %ehcleanup640

ehcleanup640:                                     ; preds = %ehcleanup639, %lpad625
  call void @_ZN8nlohmann16json_abi_v3_11_310basic_jsonISt3mapSt6vectorNSt7__cxx1112basic_stringIcSt11char_traitsIcESaIcEEEblmdSaNS0_14adl_serializerES3_IhSaIhEEvED2Ev(ptr noundef nonnull align 8 dereferenceable(16) %j579) #17
  br label %ehcleanup642

if.end641:                                        ; preds = %invoke.cont636, %invoke.cont576
  call void @_ZN7doctest6detail7SubcaseD1Ev(ptr noundef nonnull align 8 dereferenceable(41) %ref.tmp569) #17
  br label %if.end643

ehcleanup642:                                     ; preds = %ehcleanup640, %arraydestroy.done620, %arraydestroy.done602, %lpad575
  call void @_ZN7doctest6detail7SubcaseD1Ev(ptr noundef nonnull align 8 dereferenceable(41) %ref.tmp569) #17
  br label %ehcleanup644

if.end643:                                        ; preds = %if.end641, %invoke.cont356
  call void @_ZN7doctest6detail7SubcaseD1Ev(ptr noundef nonnull align 8 dereferenceable(41) %ref.tmp349) #17
  invoke void @_ZN7doctest6StringC1EPKc(ptr noundef nonnull align 8 dereferenceable(24) %ref.tmp646, ptr noundef @.str.29)
          to label %invoke.cont647 unwind label %lpad345

invoke.cont647:                                   ; preds = %if.end643
  invoke void @_ZN7doctest6detail7SubcaseC1ERKNS_6StringEPKci(ptr noundef nonnull align 8 dereferenceable(41) %ref.tmp645, ptr noundef nonnull align 8 dereferenceable(24) %ref.tmp646, ptr noundef @.str.2, i32 noundef 157)
          to label %invoke.cont649 unwind label %lpad648

invoke.cont649:                                   ; preds = %invoke.cont647
  call void @_ZN7doctest6StringD1Ev(ptr noundef nonnull align 8 dereferenceable(24) %ref.tmp646) #17
  store ptr %ref.tmp645, ptr %DOCTEST_ANON_SUBCASE_28, align 8
  %324 = load ptr, ptr %DOCTEST_ANON_SUBCASE_28, align 8
  %call653 = invoke noundef zeroext i1 @_ZNK7doctest6detail7SubcasecvbEv(ptr noundef nonnull align 8 dereferenceable(41) %324)
          to label %invoke.cont652 unwind label %lpad651

invoke.cont652:                                   ; preds = %invoke.cont649
  br i1 %call653, label %if.then654, label %if.end996

if.then654:                                       ; preds = %invoke.cont652
  invoke void @_ZN7doctest6StringC1EPKc(ptr noundef nonnull align 8 dereferenceable(24) %ref.tmp656, ptr noundef @.str.6)
          to label %invoke.cont657 unwind label %lpad651

invoke.cont657:                                   ; preds = %if.then654
  invoke void @_ZN7doctest6detail7SubcaseC1ERKNS_6StringEPKci(ptr noundef nonnull align 8 dereferenceable(41) %ref.tmp655, ptr noundef nonnull align 8 dereferenceable(24) %ref.tmp656, ptr noundef @.str.2, i32 noundef 159)
          to label %invoke.cont659 unwind label %lpad658

invoke.cont659:                                   ; preds = %invoke.cont657
  call void @_ZN7doctest6StringD1Ev(ptr noundef nonnull align 8 dereferenceable(24) %ref.tmp656) #17
  store ptr %ref.tmp655, ptr %DOCTEST_ANON_SUBCASE_29, align 8
  %325 = load ptr, ptr %DOCTEST_ANON_SUBCASE_29, align 8
  %call663 = invoke noundef zeroext i1 @_ZNK7doctest6detail7SubcasecvbEv(ptr noundef nonnull align 8 dereferenceable(41) %325)
          to label %invoke.cont662 unwind label %lpad661

invoke.cont662:                                   ; preds = %invoke.cont659
  br i1 %call663, label %if.then664, label %if.end720

if.then664:                                       ; preds = %invoke.cont662
  invoke void @_ZN8nlohmann16json_abi_v3_11_310basic_jsonISt3mapSt6vectorNSt7__cxx1112basic_stringIcSt11char_traitsIcESaIcEEEblmdSaNS0_14adl_serializerES3_IhSaIhEEvEC2ENS0_6detail7value_tE(ptr noundef nonnull align 8 dereferenceable(16) %j665, i8 noundef zeroext 0)
          to label %invoke.cont666 unwind label %lpad661

invoke.cont666:                                   ; preds = %if.then664
  call void @_ZNK8nlohmann16json_abi_v3_11_310basic_jsonISt3mapSt6vectorNSt7__cxx1112basic_stringIcSt11char_traitsIcESaIcEEEblmdSaNS0_14adl_serializerES3_IhSaIhEEvE6cbeginEv(ptr sret(%"class.nlohmann::json_abi_v3_11_3::detail::iter_impl") align 8 %it667, ptr noundef nonnull align 8 dereferenceable(16) %j665) #17
  br label %do.body668

do.body668:                                       ; preds = %invoke.cont666
  %call671 = invoke noundef ptr @_ZN7doctest17getContextOptionsEv()
          to label %invoke.cont670 unwind label %lpad669

invoke.cont670:                                   ; preds = %do.body668
  %no_throw672 = getelementptr inbounds %"struct.doctest::ContextOptions", ptr %call671, i32 0, i32 16
  %326 = load i8, ptr %no_throw672, align 2
  %tobool673 = trunc i8 %326 to i1
  br i1 %tobool673, label %if.else715, label %if.then674

if.then674:                                       ; preds = %invoke.cont670
  invoke void @_ZN7doctest6StringC1EPKc(ptr noundef nonnull align 8 dereferenceable(24) %ref.tmp676, ptr noundef @.str.22)
          to label %invoke.cont677 unwind label %lpad669

invoke.cont677:                                   ; preds = %if.then674
  invoke void @_ZN7doctest6detail13ResultBuilderC1ENS_10assertType4EnumEPKciS5_S5_RKNS_6StringE(ptr noundef nonnull align 8 dereferenceable(144) %DOCTEST_RB675, i32 noundef 98, ptr noundef @.str.2, i32 noundef 163, ptr noundef @.str.30, ptr noundef @.str.21, ptr noundef nonnull align 8 dereferenceable(24) %ref.tmp676)
          to label %invoke.cont679 unwind label %lpad678

invoke.cont679:                                   ; preds = %invoke.cont677
  call void @_ZN7doctest6StringD1Ev(ptr noundef nonnull align 8 dereferenceable(24) %ref.tmp676) #17
  %call683 = invoke noundef ptr @_ZNK8nlohmann16json_abi_v3_11_36detail9iter_implIKNS0_10basic_jsonISt3mapSt6vectorNSt7__cxx1112basic_stringIcSt11char_traitsIcESaIcEEEblmdSaNS0_14adl_serializerES5_IhSaIhEEvEEEptEv(ptr noundef nonnull align 8 dereferenceable(32) %it667)
          to label %invoke.cont682 unwind label %lpad681

invoke.cont682:                                   ; preds = %invoke.cont679
  %call684 = call noundef nonnull ptr @_ZNK8nlohmann16json_abi_v3_11_310basic_jsonISt3mapSt6vectorNSt7__cxx1112basic_stringIcSt11char_traitsIcESaIcEEEblmdSaNS0_14adl_serializerES3_IhSaIhEEvE9type_nameEv(ptr noundef nonnull align 8 dereferenceable(16) %call683) #17
  call void @_ZNSaIcEC1Ev(ptr noundef nonnull align 1 dereferenceable(1) %ref.tmp685) #17
  invoke void @_ZNSt7__cxx1112basic_stringIcSt11char_traitsIcESaIcEEC1EPKcRKS3_(ptr noundef nonnull align 8 dereferenceable(32) %agg.tmp.ensured, ptr noundef %call684, ptr noundef nonnull align 1 dereferenceable(1) %ref.tmp685)
          to label %invoke.cont687 unwind label %lpad686

invoke.cont687:                                   ; preds = %invoke.cont682
  call void @_ZNSt7__cxx1112basic_stringIcSt11char_traitsIcESaIcEED1Ev(ptr noundef nonnull align 8 dereferenceable(32) %agg.tmp.ensured) #17
  call void @_ZNSaIcED1Ev(ptr noundef nonnull align 1 dereferenceable(1) %ref.tmp685) #17
  br label %try.cont708

ehcleanup644:                                     ; preds = %ehcleanup642, %lpad572, %ehcleanup568, %lpad490, %ehcleanup486, %lpad410, %ehcleanup406, %lpad362, %lpad355
  call void @_ZN7doctest6detail7SubcaseD1Ev(ptr noundef nonnull align 8 dereferenceable(41) %ref.tmp349) #17
  br label %ehcleanup999

lpad648:                                          ; preds = %invoke.cont647
  %327 = landingpad { ptr, i32 }
          cleanup
  %328 = extractvalue { ptr, i32 } %327, 0
  store ptr %328, ptr %exn.slot, align 8
  %329 = extractvalue { ptr, i32 } %327, 1
  store i32 %329, ptr %ehselector.slot, align 4
  call void @_ZN7doctest6StringD1Ev(ptr noundef nonnull align 8 dereferenceable(24) %ref.tmp646) #17
  br label %ehcleanup999

lpad651:                                          ; preds = %if.end915, %if.end811, %if.end720, %if.then654, %invoke.cont649
  %330 = landingpad { ptr, i32 }
          cleanup
  %331 = extractvalue { ptr, i32 } %330, 0
  store ptr %331, ptr %exn.slot, align 8
  %332 = extractvalue { ptr, i32 } %330, 1
  store i32 %332, ptr %ehselector.slot, align 4
  br label %ehcleanup997

lpad658:                                          ; preds = %invoke.cont657
  %333 = landingpad { ptr, i32 }
          cleanup
  %334 = extractvalue { ptr, i32 } %333, 0
  store ptr %334, ptr %exn.slot, align 8
  %335 = extractvalue { ptr, i32 } %333, 1
  store i32 %335, ptr %ehselector.slot, align 4
  call void @_ZN7doctest6StringD1Ev(ptr noundef nonnull align 8 dereferenceable(24) %ref.tmp656) #17
  br label %ehcleanup997

lpad661:                                          ; preds = %if.then664, %invoke.cont659
  %336 = landingpad { ptr, i32 }
          cleanup
  %337 = extractvalue { ptr, i32 } %336, 0
  store ptr %337, ptr %exn.slot, align 8
  %338 = extractvalue { ptr, i32 } %336, 1
  store i32 %338, ptr %ehselector.slot, align 4
  br label %ehcleanup721

lpad669:                                          ; preds = %if.then674, %do.body668
  %339 = landingpad { ptr, i32 }
          cleanup
  %340 = extractvalue { ptr, i32 } %339, 0
  store ptr %340, ptr %exn.slot, align 8
  %341 = extractvalue { ptr, i32 } %339, 1
  store i32 %341, ptr %ehselector.slot, align 4
  br label %ehcleanup719

lpad678:                                          ; preds = %invoke.cont677
  %342 = landingpad { ptr, i32 }
          cleanup
  %343 = extractvalue { ptr, i32 } %342, 0
  store ptr %343, ptr %exn.slot, align 8
  %344 = extractvalue { ptr, i32 } %342, 1
  store i32 %344, ptr %ehselector.slot, align 4
  call void @_ZN7doctest6StringD1Ev(ptr noundef nonnull align 8 dereferenceable(24) %ref.tmp676) #17
  br label %ehcleanup719

lpad681:                                          ; preds = %invoke.cont679
  %345 = landingpad { ptr, i32 }
          catch ptr @_ZTIN8nlohmann16json_abi_v3_11_36detail16invalid_iteratorE
          catch ptr null
  %346 = extractvalue { ptr, i32 } %345, 0
  store ptr %346, ptr %exn.slot, align 8
  %347 = extractvalue { ptr, i32 } %345, 1
  store i32 %347, ptr %ehselector.slot, align 4
  br label %catch.dispatch689

lpad686:                                          ; preds = %invoke.cont682
  %348 = landingpad { ptr, i32 }
          catch ptr @_ZTIN8nlohmann16json_abi_v3_11_36detail16invalid_iteratorE
          catch ptr null
  %349 = extractvalue { ptr, i32 } %348, 0
  store ptr %349, ptr %exn.slot, align 8
  %350 = extractvalue { ptr, i32 } %348, 1
  store i32 %350, ptr %ehselector.slot, align 4
  call void @_ZNSaIcED1Ev(ptr noundef nonnull align 1 dereferenceable(1) %ref.tmp685) #17
  br label %catch.dispatch689

catch.dispatch689:                                ; preds = %lpad686, %lpad681
  %sel690 = load i32, ptr %ehselector.slot, align 4
  %351 = call i32 @llvm.eh.typeid.for(ptr @_ZTIN8nlohmann16json_abi_v3_11_36detail16invalid_iteratorE) #17
  %matches691 = icmp eq i32 %sel690, %351
  br i1 %matches691, label %catch700, label %catch692

catch700:                                         ; preds = %catch.dispatch689
  %exn701 = load ptr, ptr %exn.slot, align 8
  %352 = call ptr @__cxa_begin_catch(ptr %exn701) #17
  store ptr %352, ptr %2, align 8
  invoke void @_ZN7doctest6detail13ResultBuilder18translateExceptionEv(ptr noundef nonnull align 8 dereferenceable(144) %DOCTEST_RB675)
          to label %invoke.cont703 unwind label %lpad702

invoke.cont703:                                   ; preds = %catch700
  %m_threw_as704 = getelementptr inbounds %"struct.doctest::AssertData", ptr %DOCTEST_RB675, i32 0, i32 9
  store i8 1, ptr %m_threw_as704, align 8
  invoke void @__cxa_end_catch()
          to label %invoke.cont705 unwind label %lpad696

invoke.cont705:                                   ; preds = %invoke.cont703
  br label %try.cont708

try.cont708:                                      ; preds = %invoke.cont697, %invoke.cont705, %invoke.cont687
  %call710 = invoke noundef zeroext i1 @_ZN7doctest6detail13ResultBuilder3logEv(ptr noundef nonnull align 8 dereferenceable(144) %DOCTEST_RB675)
          to label %invoke.cont709 unwind label %lpad696

invoke.cont709:                                   ; preds = %try.cont708
  br i1 %call710, label %if.then711, label %if.end712

if.then711:                                       ; preds = %invoke.cont709
  call void asm sideeffect "int $$3\0A", "~{dirflag},~{fpsr},~{flags}"() #17, !srcloc !7
  br label %if.end712

catch692:                                         ; preds = %catch.dispatch689
  %exn693 = load ptr, ptr %exn.slot, align 8
  %353 = call ptr @__cxa_begin_catch(ptr %exn693) #17
  invoke void @_ZN7doctest6detail13ResultBuilder18translateExceptionEv(ptr noundef nonnull align 8 dereferenceable(144) %DOCTEST_RB675)
          to label %invoke.cont695 unwind label %lpad694

invoke.cont695:                                   ; preds = %catch692
  invoke void @__cxa_end_catch()
          to label %invoke.cont697 unwind label %lpad696

invoke.cont697:                                   ; preds = %invoke.cont695
  br label %try.cont708

lpad694:                                          ; preds = %catch692
  %354 = landingpad { ptr, i32 }
          cleanup
  %355 = extractvalue { ptr, i32 } %354, 0
  store ptr %355, ptr %exn.slot, align 8
  %356 = extractvalue { ptr, i32 } %354, 1
  store i32 %356, ptr %ehselector.slot, align 4
  invoke void @__cxa_end_catch()
          to label %invoke.cont699 unwind label %terminate.lpad

lpad696:                                          ; preds = %if.end712, %invoke.cont695, %try.cont708, %invoke.cont703
  %357 = landingpad { ptr, i32 }
          cleanup
  %358 = extractvalue { ptr, i32 } %357, 0
  store ptr %358, ptr %exn.slot, align 8
  %359 = extractvalue { ptr, i32 } %357, 1
  store i32 %359, ptr %ehselector.slot, align 4
  br label %ehcleanup714

invoke.cont699:                                   ; preds = %lpad694
  br label %ehcleanup714

lpad702:                                          ; preds = %catch700
  %360 = landingpad { ptr, i32 }
          cleanup
  %361 = extractvalue { ptr, i32 } %360, 0
  store ptr %361, ptr %exn.slot, align 8
  %362 = extractvalue { ptr, i32 } %360, 1
  store i32 %362, ptr %ehselector.slot, align 4
  invoke void @__cxa_end_catch()
          to label %invoke.cont707 unwind label %terminate.lpad

invoke.cont707:                                   ; preds = %lpad702
  br label %ehcleanup714

if.end712:                                        ; preds = %if.then711, %invoke.cont709
  invoke void @_ZNK7doctest6detail13ResultBuilder5reactEv(ptr noundef nonnull align 8 dereferenceable(144) %DOCTEST_RB675)
          to label %invoke.cont713 unwind label %lpad696

invoke.cont713:                                   ; preds = %if.end712
  call void @_ZN7doctest6detail13ResultBuilderD2Ev(ptr noundef nonnull align 8 dereferenceable(144) %DOCTEST_RB675) #17
  br label %if.end716

ehcleanup714:                                     ; preds = %invoke.cont707, %invoke.cont699, %lpad696
  call void @_ZN7doctest6detail13ResultBuilderD2Ev(ptr noundef nonnull align 8 dereferenceable(144) %DOCTEST_RB675) #17
  br label %ehcleanup719

if.else715:                                       ; preds = %invoke.cont670
  br label %if.end716

if.end716:                                        ; preds = %if.else715, %invoke.cont713
  br label %do.cond717

do.cond717:                                       ; preds = %if.end716
  br label %do.end718

do.end718:                                        ; preds = %do.cond717
  call void @_ZN8nlohmann16json_abi_v3_11_310basic_jsonISt3mapSt6vectorNSt7__cxx1112basic_stringIcSt11char_traitsIcESaIcEEEblmdSaNS0_14adl_serializerES3_IhSaIhEEvED2Ev(ptr noundef nonnull align 8 dereferenceable(16) %j665) #17
  br label %if.end720

ehcleanup719:                                     ; preds = %ehcleanup714, %lpad678, %lpad669
  call void @_ZN8nlohmann16json_abi_v3_11_310basic_jsonISt3mapSt6vectorNSt7__cxx1112basic_stringIcSt11char_traitsIcESaIcEEEblmdSaNS0_14adl_serializerES3_IhSaIhEEvED2Ev(ptr noundef nonnull align 8 dereferenceable(16) %j665) #17
  br label %ehcleanup721

if.end720:                                        ; preds = %do.end718, %invoke.cont662
  call void @_ZN7doctest6detail7SubcaseD1Ev(ptr noundef nonnull align 8 dereferenceable(41) %ref.tmp655) #17
  invoke void @_ZN7doctest6StringC1EPKc(ptr noundef nonnull align 8 dereferenceable(24) %ref.tmp723, ptr noundef @.str.23)
          to label %invoke.cont724 unwind label %lpad651

invoke.cont724:                                   ; preds = %if.end720
  invoke void @_ZN7doctest6detail7SubcaseC1ERKNS_6StringEPKci(ptr noundef nonnull align 8 dereferenceable(41) %ref.tmp722, ptr noundef nonnull align 8 dereferenceable(24) %ref.tmp723, ptr noundef @.str.2, i32 noundef 166)
          to label %invoke.cont726 unwind label %lpad725

invoke.cont726:                                   ; preds = %invoke.cont724
  call void @_ZN7doctest6StringD1Ev(ptr noundef nonnull align 8 dereferenceable(24) %ref.tmp723) #17
  store ptr %ref.tmp722, ptr %DOCTEST_ANON_SUBCASE_30, align 8
  %363 = load ptr, ptr %DOCTEST_ANON_SUBCASE_30, align 8
  %call730 = invoke noundef zeroext i1 @_ZNK7doctest6detail7SubcasecvbEv(ptr noundef nonnull align 8 dereferenceable(41) %363)
          to label %invoke.cont729 unwind label %lpad728

invoke.cont729:                                   ; preds = %invoke.cont726
  br i1 %call730, label %if.then731, label %if.end811

if.then731:                                       ; preds = %invoke.cont729
  store i32 17, ptr %ref.tmp733, align 4
  call void @_ZN8nlohmann16json_abi_v3_11_310basic_jsonISt3mapSt6vectorNSt7__cxx1112basic_stringIcSt11char_traitsIcESaIcEEEblmdSaNS0_14adl_serializerES3_IhSaIhEEvEC2IiiTnNSt9enable_ifIXaantsr6detail13is_basic_jsonIT0_EE5valuesr6detail18is_compatible_typeISD_SG_EE5valueEiE4typeELi0EEEOT_(ptr noundef nonnull align 8 dereferenceable(16) %j732, ptr noundef nonnull align 4 dereferenceable(4) %ref.tmp733) #17
  call void @_ZNK8nlohmann16json_abi_v3_11_310basic_jsonISt3mapSt6vectorNSt7__cxx1112basic_stringIcSt11char_traitsIcESaIcEEEblmdSaNS0_14adl_serializerES3_IhSaIhEEvE6cbeginEv(ptr sret(%"class.nlohmann::json_abi_v3_11_3::detail::iter_impl") align 8 %it734, ptr noundef nonnull align 8 dereferenceable(16) %j732) #17
  invoke void @_ZN7doctest6detail20ExpressionDecomposerC1ENS_10assertType4EnumE(ptr noundef nonnull align 4 dereferenceable(4) %ref.tmp737, i32 noundef 10)
          to label %invoke.cont739 unwind label %lpad738

invoke.cont739:                                   ; preds = %if.then731
  %call742 = invoke noundef ptr @_ZNK8nlohmann16json_abi_v3_11_36detail9iter_implIKNS0_10basic_jsonISt3mapSt6vectorNSt7__cxx1112basic_stringIcSt11char_traitsIcESaIcEEEblmdSaNS0_14adl_serializerES5_IhSaIhEEvEEEptEv(ptr noundef nonnull align 8 dereferenceable(32) %it734)
          to label %invoke.cont741 unwind label %lpad738

invoke.cont741:                                   ; preds = %invoke.cont739
  %call743 = call noundef nonnull ptr @_ZNK8nlohmann16json_abi_v3_11_310basic_jsonISt3mapSt6vectorNSt7__cxx1112basic_stringIcSt11char_traitsIcESaIcEEEblmdSaNS0_14adl_serializerES3_IhSaIhEEvE9type_nameEv(ptr noundef nonnull align 8 dereferenceable(16) %call742) #17
  call void @_ZNSaIcEC1Ev(ptr noundef nonnull align 1 dereferenceable(1) %ref.tmp744) #17
  invoke void @_ZNSt7__cxx1112basic_stringIcSt11char_traitsIcESaIcEEC1EPKcRKS3_(ptr noundef nonnull align 8 dereferenceable(32) %ref.tmp740, ptr noundef %call743, ptr noundef nonnull align 1 dereferenceable(1) %ref.tmp744)
          to label %invoke.cont746 unwind label %lpad745

invoke.cont746:                                   ; preds = %invoke.cont741
  invoke void @_ZN7doctest6detail20ExpressionDecomposerlsINSt7__cxx1112basic_stringIcSt11char_traitsIcESaIcEEEEENS0_14Expression_lhsIT_EEOSA_(ptr sret(%"struct.doctest::detail::Expression_lhs.3") align 8 %ref.tmp736, ptr noundef nonnull align 4 dereferenceable(4) %ref.tmp737, ptr noundef nonnull align 8 dereferenceable(32) %ref.tmp740)
          to label %invoke.cont748 unwind label %lpad747

invoke.cont748:                                   ; preds = %invoke.cont746
  invoke void @_ZN7doctest6detail14Expression_lhsINSt7__cxx1112basic_stringIcSt11char_traitsIcESaIcEEEEeqIRA7_KcEEDTcmcvveqclL_ZNS0_7declvalIS7_EEOT_vEEclsr7doctest6detailE7declvalISE_EEtlNS0_6ResultEEESF_(ptr sret(%"struct.doctest::detail::Result") align 8 %ref.tmp735, ptr noundef nonnull align 8 dereferenceable(36) %ref.tmp736, ptr noundef nonnull align 1 dereferenceable(7) @.str.23)
          to label %invoke.cont750 unwind label %lpad749

invoke.cont750:                                   ; preds = %invoke.cont748
  %call753 = invoke noundef zeroext i1 @_ZN7doctest6detail13decomp_assertENS_10assertType4EnumEPKciS4_RKNS0_6ResultE(i32 noundef 10, ptr noundef @.str.2, i32 noundef 170, ptr noundef @.str.31, ptr noundef nonnull align 8 dereferenceable(32) %ref.tmp735)
          to label %invoke.cont752 unwind label %lpad751

invoke.cont752:                                   ; preds = %invoke.cont750
  call void @_ZN7doctest6detail6ResultD2Ev(ptr noundef nonnull align 8 dereferenceable(32) %ref.tmp735) #17
  call void @_ZN7doctest6detail14Expression_lhsINSt7__cxx1112basic_stringIcSt11char_traitsIcESaIcEEEED2Ev(ptr noundef nonnull align 8 dereferenceable(36) %ref.tmp736) #17
  call void @_ZNSt7__cxx1112basic_stringIcSt11char_traitsIcESaIcEED1Ev(ptr noundef nonnull align 8 dereferenceable(32) %ref.tmp740) #17
  call void @_ZNSaIcED1Ev(ptr noundef nonnull align 1 dereferenceable(1) %ref.tmp744) #17
  call void @_ZNK8nlohmann16json_abi_v3_11_310basic_jsonISt3mapSt6vectorNSt7__cxx1112basic_stringIcSt11char_traitsIcESaIcEEEblmdSaNS0_14adl_serializerES3_IhSaIhEEvE4cendEv(ptr sret(%"class.nlohmann::json_abi_v3_11_3::detail::iter_impl") align 8 %ref.tmp758, ptr noundef nonnull align 8 dereferenceable(16) %j732) #17
  call void @llvm.memcpy.p0.p0.i64(ptr align 8 %it734, ptr align 8 %ref.tmp758, i64 32, i1 false)
  br label %do.body759

do.body759:                                       ; preds = %invoke.cont752
  %call761 = invoke noundef ptr @_ZN7doctest17getContextOptionsEv()
          to label %invoke.cont760 unwind label %lpad738

invoke.cont760:                                   ; preds = %do.body759
  %no_throw762 = getelementptr inbounds %"struct.doctest::ContextOptions", ptr %call761, i32 0, i32 16
  %364 = load i8, ptr %no_throw762, align 2
  %tobool763 = trunc i8 %364 to i1
  br i1 %tobool763, label %if.else806, label %if.then764

if.then764:                                       ; preds = %invoke.cont760
  invoke void @_ZN7doctest6StringC1EPKc(ptr noundef nonnull align 8 dereferenceable(24) %ref.tmp766, ptr noundef @.str.22)
          to label %invoke.cont767 unwind label %lpad738

invoke.cont767:                                   ; preds = %if.then764
  invoke void @_ZN7doctest6detail13ResultBuilderC1ENS_10assertType4EnumEPKciS5_S5_RKNS_6StringE(ptr noundef nonnull align 8 dereferenceable(144) %DOCTEST_RB765, i32 noundef 98, ptr noundef @.str.2, i32 noundef 172, ptr noundef @.str.30, ptr noundef @.str.21, ptr noundef nonnull align 8 dereferenceable(24) %ref.tmp766)
          to label %invoke.cont769 unwind label %lpad768

invoke.cont769:                                   ; preds = %invoke.cont767
  call void @_ZN7doctest6StringD1Ev(ptr noundef nonnull align 8 dereferenceable(24) %ref.tmp766) #17
  %call774 = invoke noundef ptr @_ZNK8nlohmann16json_abi_v3_11_36detail9iter_implIKNS0_10basic_jsonISt3mapSt6vectorNSt7__cxx1112basic_stringIcSt11char_traitsIcESaIcEEEblmdSaNS0_14adl_serializerES5_IhSaIhEEvEEEptEv(ptr noundef nonnull align 8 dereferenceable(32) %it734)
          to label %invoke.cont773 unwind label %lpad772

invoke.cont773:                                   ; preds = %invoke.cont769
  %call775 = call noundef nonnull ptr @_ZNK8nlohmann16json_abi_v3_11_310basic_jsonISt3mapSt6vectorNSt7__cxx1112basic_stringIcSt11char_traitsIcESaIcEEEblmdSaNS0_14adl_serializerES3_IhSaIhEEvE9type_nameEv(ptr noundef nonnull align 8 dereferenceable(16) %call774) #17
  call void @_ZNSaIcEC1Ev(ptr noundef nonnull align 1 dereferenceable(1) %ref.tmp776) #17
  invoke void @_ZNSt7__cxx1112basic_stringIcSt11char_traitsIcESaIcEEC1EPKcRKS3_(ptr noundef nonnull align 8 dereferenceable(32) %agg.tmp.ensured771, ptr noundef %call775, ptr noundef nonnull align 1 dereferenceable(1) %ref.tmp776)
          to label %invoke.cont778 unwind label %lpad777

invoke.cont778:                                   ; preds = %invoke.cont773
  call void @_ZNSt7__cxx1112basic_stringIcSt11char_traitsIcESaIcEED1Ev(ptr noundef nonnull align 8 dereferenceable(32) %agg.tmp.ensured771) #17
  call void @_ZNSaIcED1Ev(ptr noundef nonnull align 1 dereferenceable(1) %ref.tmp776) #17
  br label %try.cont799

ehcleanup721:                                     ; preds = %ehcleanup719, %lpad661
  call void @_ZN7doctest6detail7SubcaseD1Ev(ptr noundef nonnull align 8 dereferenceable(41) %ref.tmp655) #17
  br label %ehcleanup997

lpad725:                                          ; preds = %invoke.cont724
  %365 = landingpad { ptr, i32 }
          cleanup
  %366 = extractvalue { ptr, i32 } %365, 0
  store ptr %366, ptr %exn.slot, align 8
  %367 = extractvalue { ptr, i32 } %365, 1
  store i32 %367, ptr %ehselector.slot, align 4
  call void @_ZN7doctest6StringD1Ev(ptr noundef nonnull align 8 dereferenceable(24) %ref.tmp723) #17
  br label %ehcleanup997

lpad728:                                          ; preds = %invoke.cont726
  %368 = landingpad { ptr, i32 }
          cleanup
  %369 = extractvalue { ptr, i32 } %368, 0
  store ptr %369, ptr %exn.slot, align 8
  %370 = extractvalue { ptr, i32 } %368, 1
  store i32 %370, ptr %ehselector.slot, align 4
  br label %ehcleanup812

lpad738:                                          ; preds = %if.then764, %do.body759, %invoke.cont739, %if.then731
  %371 = landingpad { ptr, i32 }
          cleanup
  %372 = extractvalue { ptr, i32 } %371, 0
  store ptr %372, ptr %exn.slot, align 8
  %373 = extractvalue { ptr, i32 } %371, 1
  store i32 %373, ptr %ehselector.slot, align 4
  br label %ehcleanup810

lpad745:                                          ; preds = %invoke.cont741
  %374 = landingpad { ptr, i32 }
          cleanup
  %375 = extractvalue { ptr, i32 } %374, 0
  store ptr %375, ptr %exn.slot, align 8
  %376 = extractvalue { ptr, i32 } %374, 1
  store i32 %376, ptr %ehselector.slot, align 4
  br label %ehcleanup757

lpad747:                                          ; preds = %invoke.cont746
  %377 = landingpad { ptr, i32 }
          cleanup
  %378 = extractvalue { ptr, i32 } %377, 0
  store ptr %378, ptr %exn.slot, align 8
  %379 = extractvalue { ptr, i32 } %377, 1
  store i32 %379, ptr %ehselector.slot, align 4
  br label %ehcleanup756

lpad749:                                          ; preds = %invoke.cont748
  %380 = landingpad { ptr, i32 }
          cleanup
  %381 = extractvalue { ptr, i32 } %380, 0
  store ptr %381, ptr %exn.slot, align 8
  %382 = extractvalue { ptr, i32 } %380, 1
  store i32 %382, ptr %ehselector.slot, align 4
  br label %ehcleanup755

lpad751:                                          ; preds = %invoke.cont750
  %383 = landingpad { ptr, i32 }
          cleanup
  %384 = extractvalue { ptr, i32 } %383, 0
  store ptr %384, ptr %exn.slot, align 8
  %385 = extractvalue { ptr, i32 } %383, 1
  store i32 %385, ptr %ehselector.slot, align 4
  call void @_ZN7doctest6detail6ResultD2Ev(ptr noundef nonnull align 8 dereferenceable(32) %ref.tmp735) #17
  br label %ehcleanup755

ehcleanup755:                                     ; preds = %lpad751, %lpad749
  call void @_ZN7doctest6detail14Expression_lhsINSt7__cxx1112basic_stringIcSt11char_traitsIcESaIcEEEED2Ev(ptr noundef nonnull align 8 dereferenceable(36) %ref.tmp736) #17
  br label %ehcleanup756

ehcleanup756:                                     ; preds = %ehcleanup755, %lpad747
  call void @_ZNSt7__cxx1112basic_stringIcSt11char_traitsIcESaIcEED1Ev(ptr noundef nonnull align 8 dereferenceable(32) %ref.tmp740) #17
  br label %ehcleanup757

ehcleanup757:                                     ; preds = %ehcleanup756, %lpad745
  call void @_ZNSaIcED1Ev(ptr noundef nonnull align 1 dereferenceable(1) %ref.tmp744) #17
  br label %ehcleanup810

lpad768:                                          ; preds = %invoke.cont767
  %386 = landingpad { ptr, i32 }
          cleanup
  %387 = extractvalue { ptr, i32 } %386, 0
  store ptr %387, ptr %exn.slot, align 8
  %388 = extractvalue { ptr, i32 } %386, 1
  store i32 %388, ptr %ehselector.slot, align 4
  call void @_ZN7doctest6StringD1Ev(ptr noundef nonnull align 8 dereferenceable(24) %ref.tmp766) #17
  br label %ehcleanup810

lpad772:                                          ; preds = %invoke.cont769
  %389 = landingpad { ptr, i32 }
          catch ptr @_ZTIN8nlohmann16json_abi_v3_11_36detail16invalid_iteratorE
          catch ptr null
  %390 = extractvalue { ptr, i32 } %389, 0
  store ptr %390, ptr %exn.slot, align 8
  %391 = extractvalue { ptr, i32 } %389, 1
  store i32 %391, ptr %ehselector.slot, align 4
  br label %catch.dispatch780

lpad777:                                          ; preds = %invoke.cont773
  %392 = landingpad { ptr, i32 }
          catch ptr @_ZTIN8nlohmann16json_abi_v3_11_36detail16invalid_iteratorE
          catch ptr null
  %393 = extractvalue { ptr, i32 } %392, 0
  store ptr %393, ptr %exn.slot, align 8
  %394 = extractvalue { ptr, i32 } %392, 1
  store i32 %394, ptr %ehselector.slot, align 4
  call void @_ZNSaIcED1Ev(ptr noundef nonnull align 1 dereferenceable(1) %ref.tmp776) #17
  br label %catch.dispatch780

catch.dispatch780:                                ; preds = %lpad777, %lpad772
  %sel781 = load i32, ptr %ehselector.slot, align 4
  %395 = call i32 @llvm.eh.typeid.for(ptr @_ZTIN8nlohmann16json_abi_v3_11_36detail16invalid_iteratorE) #17
  %matches782 = icmp eq i32 %sel781, %395
  br i1 %matches782, label %catch791, label %catch783

catch791:                                         ; preds = %catch.dispatch780
  %exn792 = load ptr, ptr %exn.slot, align 8
  %396 = call ptr @__cxa_begin_catch(ptr %exn792) #17
  store ptr %396, ptr %3, align 8
  invoke void @_ZN7doctest6detail13ResultBuilder18translateExceptionEv(ptr noundef nonnull align 8 dereferenceable(144) %DOCTEST_RB765)
          to label %invoke.cont794 unwind label %lpad793

invoke.cont794:                                   ; preds = %catch791
  %m_threw_as795 = getelementptr inbounds %"struct.doctest::AssertData", ptr %DOCTEST_RB765, i32 0, i32 9
  store i8 1, ptr %m_threw_as795, align 8
  invoke void @__cxa_end_catch()
          to label %invoke.cont796 unwind label %lpad787

invoke.cont796:                                   ; preds = %invoke.cont794
  br label %try.cont799

try.cont799:                                      ; preds = %invoke.cont788, %invoke.cont796, %invoke.cont778
  %call801 = invoke noundef zeroext i1 @_ZN7doctest6detail13ResultBuilder3logEv(ptr noundef nonnull align 8 dereferenceable(144) %DOCTEST_RB765)
          to label %invoke.cont800 unwind label %lpad787

invoke.cont800:                                   ; preds = %try.cont799
  br i1 %call801, label %if.then802, label %if.end803

if.then802:                                       ; preds = %invoke.cont800
  call void asm sideeffect "int $$3\0A", "~{dirflag},~{fpsr},~{flags}"() #17, !srcloc !8
  br label %if.end803

catch783:                                         ; preds = %catch.dispatch780
  %exn784 = load ptr, ptr %exn.slot, align 8
  %397 = call ptr @__cxa_begin_catch(ptr %exn784) #17
  invoke void @_ZN7doctest6detail13ResultBuilder18translateExceptionEv(ptr noundef nonnull align 8 dereferenceable(144) %DOCTEST_RB765)
          to label %invoke.cont786 unwind label %lpad785

invoke.cont786:                                   ; preds = %catch783
  invoke void @__cxa_end_catch()
          to label %invoke.cont788 unwind label %lpad787

invoke.cont788:                                   ; preds = %invoke.cont786
  br label %try.cont799

lpad785:                                          ; preds = %catch783
  %398 = landingpad { ptr, i32 }
          cleanup
  %399 = extractvalue { ptr, i32 } %398, 0
  store ptr %399, ptr %exn.slot, align 8
  %400 = extractvalue { ptr, i32 } %398, 1
  store i32 %400, ptr %ehselector.slot, align 4
  invoke void @__cxa_end_catch()
          to label %invoke.cont790 unwind label %terminate.lpad

lpad787:                                          ; preds = %if.end803, %invoke.cont786, %try.cont799, %invoke.cont794
  %401 = landingpad { ptr, i32 }
          cleanup
  %402 = extractvalue { ptr, i32 } %401, 0
  store ptr %402, ptr %exn.slot, align 8
  %403 = extractvalue { ptr, i32 } %401, 1
  store i32 %403, ptr %ehselector.slot, align 4
  br label %ehcleanup805

invoke.cont790:                                   ; preds = %lpad785
  br label %ehcleanup805

lpad793:                                          ; preds = %catch791
  %404 = landingpad { ptr, i32 }
          cleanup
  %405 = extractvalue { ptr, i32 } %404, 0
  store ptr %405, ptr %exn.slot, align 8
  %406 = extractvalue { ptr, i32 } %404, 1
  store i32 %406, ptr %ehselector.slot, align 4
  invoke void @__cxa_end_catch()
          to label %invoke.cont798 unwind label %terminate.lpad

invoke.cont798:                                   ; preds = %lpad793
  br label %ehcleanup805

if.end803:                                        ; preds = %if.then802, %invoke.cont800
  invoke void @_ZNK7doctest6detail13ResultBuilder5reactEv(ptr noundef nonnull align 8 dereferenceable(144) %DOCTEST_RB765)
          to label %invoke.cont804 unwind label %lpad787

invoke.cont804:                                   ; preds = %if.end803
  call void @_ZN7doctest6detail13ResultBuilderD2Ev(ptr noundef nonnull align 8 dereferenceable(144) %DOCTEST_RB765) #17
  br label %if.end807

ehcleanup805:                                     ; preds = %invoke.cont798, %invoke.cont790, %lpad787
  call void @_ZN7doctest6detail13ResultBuilderD2Ev(ptr noundef nonnull align 8 dereferenceable(144) %DOCTEST_RB765) #17
  br label %ehcleanup810

if.else806:                                       ; preds = %invoke.cont760
  br label %if.end807

if.end807:                                        ; preds = %if.else806, %invoke.cont804
  br label %do.cond808

do.cond808:                                       ; preds = %if.end807
  br label %do.end809

do.end809:                                        ; preds = %do.cond808
  call void @_ZN8nlohmann16json_abi_v3_11_310basic_jsonISt3mapSt6vectorNSt7__cxx1112basic_stringIcSt11char_traitsIcESaIcEEEblmdSaNS0_14adl_serializerES3_IhSaIhEEvED2Ev(ptr noundef nonnull align 8 dereferenceable(16) %j732) #17
  br label %if.end811

ehcleanup810:                                     ; preds = %ehcleanup805, %lpad768, %ehcleanup757, %lpad738
  call void @_ZN8nlohmann16json_abi_v3_11_310basic_jsonISt3mapSt6vectorNSt7__cxx1112basic_stringIcSt11char_traitsIcESaIcEEEblmdSaNS0_14adl_serializerES3_IhSaIhEEvED2Ev(ptr noundef nonnull align 8 dereferenceable(16) %j732) #17
  br label %ehcleanup812

if.end811:                                        ; preds = %do.end809, %invoke.cont729
  call void @_ZN7doctest6detail7SubcaseD1Ev(ptr noundef nonnull align 8 dereferenceable(41) %ref.tmp722) #17
  invoke void @_ZN7doctest6StringC1EPKc(ptr noundef nonnull align 8 dereferenceable(24) %ref.tmp814, ptr noundef @.str.7)
          to label %invoke.cont815 unwind label %lpad651

