target datalayout = "e-m:e-p270:32:32-p271:32:32-p272:64:64-i64:64-i128:128-f80:128-n8:16:32:64-S128"
target triple = "x86_64-unknown-linux-gnu"

%"struct.nlohmann::json_abi_v3_11_3::detail::to_json_fn" = type { i8 }
%"struct.std::array.121" = type { [400 x i8] }
%"struct.std::array.122" = type { [100 x %"struct.std::array.123"] }
%"struct.std::array.123" = type { [2 x i8] }
%"struct.std::array.125" = type { [79 x %"struct.nlohmann::json_abi_v3_11_3::detail::dtoa_impl::cached_power"] }
%"struct.nlohmann::json_abi_v3_11_3::detail::dtoa_impl::cached_power" = type { i64, i32, i32 }
%"struct.doctest::detail::TestSuite" = type { ptr, ptr, i8, i8, i8, i8, i8, i32, double }
%"struct.doctest::detail::TestCase" = type { %"struct.doctest::TestCaseData", ptr, %"class.doctest::String", i32, %"class.doctest::String" }
%"struct.doctest::TestCaseData" = type { %"class.doctest::String", i32, ptr, ptr, ptr, i8, i8, i8, i8, i8, i32, double }
%"class.doctest::String" = type { %union.anon }
%union.anon = type { %"struct.doctest::String::view", [8 x i8] }
%"struct.doctest::String::view" = type { ptr, i32, i32 }
%"struct.doctest::detail::Subcase" = type { %"struct.doctest::SubcaseSignature", i8, [7 x i8] }
%"struct.doctest::SubcaseSignature" = type <{ %"class.doctest::String", ptr, i32, [4 x i8] }>
%"class.std::__cxx11::basic_stringstream" = type { %"class.std::basic_iostream.base", %"class.std::__cxx11::basic_stringbuf", %"class.std::basic_ios" }
%"class.std::basic_iostream.base" = type { %"class.std::basic_istream.base", %"class.std::basic_ostream.base" }
%"class.std::basic_istream.base" = type { ptr, i64 }
%"class.std::basic_ostream.base" = type { ptr }
%"class.std::__cxx11::basic_stringbuf" = type { %"class.std::basic_streambuf", i32, %"class.std::__cxx11::basic_string" }
%"class.std::basic_streambuf" = type { ptr, ptr, ptr, ptr, ptr, ptr, ptr, %"class.std::locale" }
%"class.std::locale" = type { ptr }
%"class.std::__cxx11::basic_string" = type { %"struct.std::__cxx11::basic_string<char>::_Alloc_hider", i64, %union.anon.0 }
%"struct.std::__cxx11::basic_string<char>::_Alloc_hider" = type { ptr }
%union.anon.0 = type { i64, [8 x i8] }
%"class.std::basic_ios" = type { %"class.std::ios_base", ptr, i8, i8, ptr, ptr, ptr, ptr }
%"class.std::ios_base" = type { ptr, i64, i64, i32, i32, i32, ptr, %"struct.std::ios_base::_Words", [8 x %"struct.std::ios_base::_Words"], i32, ptr, %"class.std::locale" }
%"struct.std::ios_base::_Words" = type { ptr, i64 }
%"class.nlohmann::json_abi_v3_11_3::basic_json" = type { %"struct.nlohmann::json_abi_v3_11_3::basic_json<>::data" }
%"struct.nlohmann::json_abi_v3_11_3::basic_json<>::data" = type { i8, %"union.nlohmann::json_abi_v3_11_3::basic_json<>::json_value" }
%"union.nlohmann::json_abi_v3_11_3::basic_json<>::json_value" = type { ptr }
%"class.std::initializer_list" = type { ptr, i64 }
%"class.nlohmann::json_abi_v3_11_3::detail::json_ref" = type { %"class.nlohmann::json_abi_v3_11_3::basic_json", ptr }
%"struct.doctest::detail::Result" = type { i8, %"class.doctest::String" }
%"struct.doctest::detail::Expression_lhs" = type <{ %"class.std::__cxx11::basic_string", i32, [4 x i8] }>
%"struct.doctest::detail::ExpressionDecomposer" = type { i32 }
%"struct.std::_Setw" = type { i32 }
%"struct.std::_Setfill" = type { i8 }
%"struct.doctest::detail::ResultBuilder" = type { %"struct.doctest::AssertData" }
%"struct.doctest::AssertData" = type { ptr, i32, ptr, i32, ptr, i8, i8, %"class.doctest::String", %"class.doctest::String", i8, ptr, %"class.doctest::AssertData::StringContains" }
%"class.doctest::AssertData::StringContains" = type <{ %"class.doctest::Contains", i8, [7 x i8] }>
%"class.doctest::Contains" = type { %"class.doctest::String" }
%class.anon = type { i8 }
%"class.std::allocator" = type { i8 }
%class.anon.1 = type { i8 }
%"struct.doctest::ContextOptions" = type <{ ptr, %"class.doctest::String", ptr, %"class.doctest::String", %"class.doctest::String", i32, i32, i32, i32, i32, i8, i8, i8, i8, i8, i8, i8, i8, i8, i8, i8, i8, i8, i8, i8, i8, i8, i8, i8, i8, i8, i8, i8, i8, i8, i8, i8, i8 }>
%"struct.(anonymous namespace)::DOCTEST_ANON_TMP_18ITERATOR" = type { i8 }
%"struct.(anonymous namespace)::DOCTEST_ANON_TMP_18ITERATOR.176" = type { i8 }
%"class.std::vector.22" = type { %"struct.std::_Vector_base.23" }
%"struct.std::_Vector_base.23" = type { %"struct.std::_Vector_base<unsigned char, std::allocator<unsigned char>>::_Vector_impl" }
%"struct.std::_Vector_base<unsigned char, std::allocator<unsigned char>>::_Vector_impl" = type { %"struct.std::_Vector_base<unsigned char, std::allocator<unsigned char>>::_Vector_impl_data" }
%"struct.std::_Vector_base<unsigned char, std::allocator<unsigned char>>::_Vector_impl_data" = type { ptr, ptr, ptr }
%"class.std::initializer_list.159" = type { ptr, i64 }
%"class.std::allocator.24" = type { i8 }
%"struct.std::pair.33" = type <{ %"struct.std::_Rb_tree_iterator", i8, [7 x i8] }>
%"struct.std::_Rb_tree_iterator" = type { ptr }
%"class.nlohmann::json_abi_v3_11_3::detail::type_error" = type { %"class.nlohmann::json_abi_v3_11_3::detail::exception" }
%"class.nlohmann::json_abi_v3_11_3::detail::exception" = type { %"class.std::exception", i32, %"class.std::runtime_error" }
%"class.std::exception" = type { ptr }
%"class.std::runtime_error" = type { %"class.std::exception", %"struct.std::__cow_string" }
%"struct.std::__cow_string" = type { %union.anon.32 }
%union.anon.32 = type { ptr }
%"class.nlohmann::json_abi_v3_11_3::detail::serializer" = type <{ %"class.std::shared_ptr", %"struct.std::array", ptr, i8, i8, %"struct.std::array.113", i8, [5 x i8], %"class.std::__cxx11::basic_string", i32, [4 x i8] }>
%"class.std::shared_ptr" = type { %"class.std::__shared_ptr" }
%"class.std::__shared_ptr" = type { ptr, %"class.std::__shared_count" }
%"class.std::__shared_count" = type { ptr }
%"struct.std::array" = type { [64 x i8] }
%"struct.std::array.113" = type { [512 x i8] }
%"class.nlohmann::json_abi_v3_11_3::detail::output_adapter" = type { %"class.std::shared_ptr" }
%"class.std::vector" = type { %"struct.std::_Vector_base" }
%"struct.std::_Vector_base" = type { %"struct.std::_Vector_base<nlohmann::json_abi_v3_11_3::basic_json<>, std::allocator<nlohmann::json_abi_v3_11_3::basic_json<>>>::_Vector_impl" }
%"struct.std::_Vector_base<nlohmann::json_abi_v3_11_3::basic_json<>, std::allocator<nlohmann::json_abi_v3_11_3::basic_json<>>>::_Vector_impl" = type { %"struct.std::_Vector_base<nlohmann::json_abi_v3_11_3::basic_json<>, std::allocator<nlohmann::json_abi_v3_11_3::basic_json<>>>::_Vector_impl_data" }
%"struct.std::_Vector_base<nlohmann::json_abi_v3_11_3::basic_json<>, std::allocator<nlohmann::json_abi_v3_11_3::basic_json<>>>::_Vector_impl_data" = type { ptr, ptr, ptr }
%"class.__gnu_cxx::__normal_iterator" = type { ptr }
%"class.std::back_insert_iterator" = type { ptr }
%"class.std::allocator.9" = type { i8 }
%"class.std::allocator.12" = type { i8 }
%"class.std::allocator.15" = type { i8 }
%"class.std::allocator.18" = type { i8 }
%"struct.std::pair" = type { %"class.std::__cxx11::basic_string", %"class.nlohmann::json_abi_v3_11_3::basic_json" }
%class.anon.27 = type { ptr }
%"class.std::unique_ptr" = type { %"struct.std::__uniq_ptr_data" }
%"struct.std::__uniq_ptr_data" = type { %"class.std::__uniq_ptr_impl" }
%"class.std::__uniq_ptr_impl" = type { %"class.std::tuple" }
%"class.std::tuple" = type { %"struct.std::_Tuple_impl" }
%"struct.std::_Tuple_impl" = type { %"struct.std::_Tuple_impl.28", %"struct.std::_Head_base.29" }
%"struct.std::_Tuple_impl.28" = type { %"struct.std::_Head_base" }
%"struct.std::_Head_base" = type { %class.anon.27 }
%"struct.std::_Head_base.29" = type { ptr }
%"class.std::map" = type { %"class.std::_Rb_tree" }
%"class.std::_Rb_tree" = type { %"struct.std::_Rb_tree<std::__cxx11::basic_string<char>, std::pair<const std::__cxx11::basic_string<char>, nlohmann::json_abi_v3_11_3::basic_json<>>, std::_Select1st<std::pair<const std::__cxx11::basic_string<char>, nlohmann::json_abi_v3_11_3::basic_json<>>>, std::less<std::__cxx11::basic_string<char>>>::_Rb_tree_impl" }
%"struct.std::_Rb_tree<std::__cxx11::basic_string<char>, std::pair<const std::__cxx11::basic_string<char>, nlohmann::json_abi_v3_11_3::basic_json<>>, std::_Select1st<std::pair<const std::__cxx11::basic_string<char>, nlohmann::json_abi_v3_11_3::basic_json<>>>, std::less<std::__cxx11::basic_string<char>>>::_Rb_tree_impl" = type { %"struct.std::_Rb_tree_key_compare", %"struct.std::_Rb_tree_header" }
%"struct.std::_Rb_tree_key_compare" = type { %"struct.std::less" }
%"struct.std::less" = type { i8 }
%"struct.std::_Rb_tree_header" = type { %"struct.std::_Rb_tree_node_base", i64 }
%"struct.std::_Rb_tree_node_base" = type { i32, ptr, ptr, ptr }
%"class.__gnu_cxx::__normal_iterator.21" = type { ptr }
%"struct.std::_Rb_tree_node" = type { %"struct.std::_Rb_tree_node_base", %"struct.__gnu_cxx::__aligned_membuf" }
%"struct.__gnu_cxx::__aligned_membuf" = type { [48 x i8] }
%"class.nlohmann::json_abi_v3_11_3::detail::other_error" = type { %"class.nlohmann::json_abi_v3_11_3::detail::exception" }
%class.anon.105 = type { ptr }
%"class.std::unique_ptr.106" = type { %"struct.std::__uniq_ptr_data.107" }
%"struct.std::__uniq_ptr_data.107" = type { %"class.std::__uniq_ptr_impl.108" }
%"class.std::__uniq_ptr_impl.108" = type { %"class.std::tuple.109" }
%"class.std::tuple.109" = type { %"struct.std::_Tuple_impl.110" }
%"struct.std::_Tuple_impl.110" = type { %"struct.std::_Tuple_impl.111", %"struct.std::_Head_base.52" }
%"struct.std::_Tuple_impl.111" = type { %"struct.std::_Head_base.112" }
%"struct.std::_Head_base.112" = type { %class.anon.105 }
%"struct.std::_Head_base.52" = type { ptr }
%"struct.__gnu_cxx::__ops::_Iter_pred" = type { %class.anon.30 }
%class.anon.30 = type { i8 }
%"struct.__gnu_cxx::__ops::_Iter_negate" = type { %class.anon.30 }
%class.anon.35 = type { ptr }
%"class.std::unique_ptr.36" = type { %"struct.std::__uniq_ptr_data.37" }
%"struct.std::__uniq_ptr_data.37" = type { %"class.std::__uniq_ptr_impl.38" }
%"class.std::__uniq_ptr_impl.38" = type { %"class.std::tuple.39" }
%"class.std::tuple.39" = type { %"struct.std::_Tuple_impl.40" }
%"struct.std::_Tuple_impl.40" = type { %"struct.std::_Tuple_impl.41", %"struct.std::_Head_base.43" }
%"struct.std::_Tuple_impl.41" = type { %"struct.std::_Head_base.42" }
%"struct.std::_Head_base.42" = type { %class.anon.35 }
%"struct.std::_Head_base.43" = type { ptr }
%class.anon.44 = type { ptr }
%"class.std::unique_ptr.45" = type { %"struct.std::__uniq_ptr_data.46" }
%"struct.std::__uniq_ptr_data.46" = type { %"class.std::__uniq_ptr_impl.47" }
%"class.std::__uniq_ptr_impl.47" = type { %"class.std::tuple.48" }
%"class.std::tuple.48" = type { %"struct.std::_Tuple_impl.49" }
%"struct.std::_Tuple_impl.49" = type { %"struct.std::_Tuple_impl.50", %"struct.std::_Head_base.52" }
%"struct.std::_Tuple_impl.50" = type { %"struct.std::_Head_base.51" }
%"struct.std::_Head_base.51" = type { %class.anon.44 }
%class.anon.53 = type { ptr }
%"class.std::unique_ptr.54" = type { %"struct.std::__uniq_ptr_data.55" }
%"struct.std::__uniq_ptr_data.55" = type { %"class.std::__uniq_ptr_impl.56" }
%"class.std::__uniq_ptr_impl.56" = type { %"class.std::tuple.57" }
%"class.std::tuple.57" = type { %"struct.std::_Tuple_impl.58" }
%"struct.std::_Tuple_impl.58" = type { %"struct.std::_Tuple_impl.59", %"struct.std::_Head_base.29" }
%"struct.std::_Tuple_impl.59" = type { %"struct.std::_Head_base.60" }
%"struct.std::_Head_base.60" = type { %class.anon.53 }
%class.anon.61 = type { ptr }
%"class.std::unique_ptr.62" = type { %"struct.std::__uniq_ptr_data.63" }
%"struct.std::__uniq_ptr_data.63" = type { %"class.std::__uniq_ptr_impl.64" }
%"class.std::__uniq_ptr_impl.64" = type { %"class.std::tuple.65" }
%"class.std::tuple.65" = type { %"struct.std::_Tuple_impl.66" }
%"struct.std::_Tuple_impl.66" = type { %"struct.std::_Tuple_impl.67", %"struct.std::_Head_base.69" }
%"struct.std::_Tuple_impl.67" = type { %"struct.std::_Head_base.68" }
%"struct.std::_Head_base.68" = type { %class.anon.61 }
%"struct.std::_Head_base.69" = type { ptr }
%"class.nlohmann::json_abi_v3_11_3::byte_container_with_subtype" = type <{ %"class.std::vector.22", i64, i8, [7 x i8] }>
%class.anon.70 = type { ptr }
%"class.std::unique_ptr.71" = type { %"struct.std::__uniq_ptr_data.72" }
%"struct.std::__uniq_ptr_data.72" = type { %"class.std::__uniq_ptr_impl.73" }
%"class.std::__uniq_ptr_impl.73" = type { %"class.std::tuple.74" }
%"class.std::tuple.74" = type { %"struct.std::_Tuple_impl.75" }
%"struct.std::_Tuple_impl.75" = type { %"struct.std::_Tuple_impl.76", %"struct.std::_Head_base.43" }
%"struct.std::_Tuple_impl.76" = type { %"struct.std::_Head_base.77" }
%"struct.std::_Head_base.77" = type { %class.anon.70 }
%"class.std::allocator.6" = type { i8 }
%"struct.std::_Rb_tree<std::__cxx11::basic_string<char>, std::pair<const std::__cxx11::basic_string<char>, nlohmann::json_abi_v3_11_3::basic_json<>>, std::_Select1st<std::pair<const std::__cxx11::basic_string<char>, nlohmann::json_abi_v3_11_3::basic_json<>>>, std::less<std::__cxx11::basic_string<char>>>::_Alloc_node" = type { ptr }
%class.anon.78 = type { ptr }
%"class.std::unique_ptr.79" = type { %"struct.std::__uniq_ptr_data.80" }
%"struct.std::__uniq_ptr_data.80" = type { %"class.std::__uniq_ptr_impl.81" }
%"class.std::__uniq_ptr_impl.81" = type { %"class.std::tuple.82" }
%"class.std::tuple.82" = type { %"struct.std::_Tuple_impl.83" }
%"struct.std::_Tuple_impl.83" = type { %"struct.std::_Tuple_impl.84", %"struct.std::_Head_base.52" }
%"struct.std::_Tuple_impl.84" = type { %"struct.std::_Head_base.85" }
%"struct.std::_Head_base.85" = type { %class.anon.78 }
%"class.std::allocator.3" = type { i8 }
%class.anon.86 = type { ptr }
%"class.std::unique_ptr.87" = type { %"struct.std::__uniq_ptr_data.88" }
%"struct.std::__uniq_ptr_data.88" = type { %"class.std::__uniq_ptr_impl.89" }
%"class.std::__uniq_ptr_impl.89" = type { %"class.std::tuple.90" }
%"class.std::tuple.90" = type { %"struct.std::_Tuple_impl.91" }
%"struct.std::_Tuple_impl.91" = type { %"struct.std::_Tuple_impl.92", %"struct.std::_Head_base.29" }
%"struct.std::_Tuple_impl.92" = type { %"struct.std::_Head_base.93" }
%"struct.std::_Head_base.93" = type { %class.anon.86 }
%class.anon.94 = type { ptr }
%"class.std::unique_ptr.95" = type { %"struct.std::__uniq_ptr_data.96" }
%"struct.std::__uniq_ptr_data.96" = type { %"class.std::__uniq_ptr_impl.97" }
%"class.std::__uniq_ptr_impl.97" = type { %"class.std::tuple.98" }
%"class.std::tuple.98" = type { %"struct.std::_Tuple_impl.99" }
%"struct.std::_Tuple_impl.99" = type { %"struct.std::_Tuple_impl.100", %"struct.std::_Head_base.69" }
%"struct.std::_Tuple_impl.100" = type { %"struct.std::_Head_base.101" }
%"struct.std::_Head_base.101" = type { %class.anon.94 }
%"class.__gnu_cxx::__normal_iterator.102" = type { ptr }
%"struct.std::_Rb_tree<std::__cxx11::basic_string<char>, std::pair<const std::__cxx11::basic_string<char>, nlohmann::json_abi_v3_11_3::basic_json<>>, std::_Select1st<std::pair<const std::__cxx11::basic_string<char>, nlohmann::json_abi_v3_11_3::basic_json<>>>, std::less<std::__cxx11::basic_string<char>>>::_Auto_node" = type { ptr, ptr }
%"struct.std::pair.103" = type { ptr, ptr }
%"struct.std::_Select1st" = type { i8 }
%"class.std::shared_ptr.114" = type { %"class.std::__shared_ptr.115" }
%"class.std::__shared_ptr.115" = type { ptr, %"class.std::__shared_count" }
%struct.lconv = type { ptr, ptr, ptr, ptr, ptr, ptr, ptr, ptr, ptr, ptr, i8, i8, i8, i8, i8, i8, i8, i8, i8, i8, i8, i8, i8, i8 }
%"struct.std::_Rb_tree_const_iterator" = type { ptr }
%"class.std::allocator.117" = type { i8 }
%"struct.std::_Sp_alloc_shared_tag" = type { ptr }
%"class.std::allocator.118" = type { i8 }
%"struct.std::__allocated_ptr" = type { ptr, ptr }
%"class.std::_Sp_counted_ptr_inplace" = type { %"class.std::_Sp_counted_base", %"class.std::_Sp_counted_ptr_inplace<nlohmann::json_abi_v3_11_3::detail::output_stream_adapter<char>, std::allocator<void>, __gnu_cxx::_S_atomic>::_Impl" }
%"class.std::_Sp_counted_base" = type { ptr, i32, i32 }
%"class.std::_Sp_counted_ptr_inplace<nlohmann::json_abi_v3_11_3::detail::output_stream_adapter<char>, std::allocator<void>, __gnu_cxx::_S_atomic>::_Impl" = type { %"struct.__gnu_cxx::__aligned_buffer" }
%"struct.__gnu_cxx::__aligned_buffer" = type { %"union.std::aligned_storage<16, 8>::type" }
%"union.std::aligned_storage<16, 8>::type" = type { [16 x i8] }
%"class.nlohmann::json_abi_v3_11_3::detail::output_stream_adapter" = type { %"struct.nlohmann::json_abi_v3_11_3::detail::output_adapter_protocol", ptr }
%"struct.nlohmann::json_abi_v3_11_3::detail::output_adapter_protocol" = type { ptr }
%"class.std::type_info" = type { ptr, ptr }
%"class.__gnu_cxx::__normal_iterator.124" = type { ptr }
%"struct.nlohmann::json_abi_v3_11_3::detail::dtoa_impl::boundaries" = type { %"struct.nlohmann::json_abi_v3_11_3::detail::dtoa_impl::diyfp", %"struct.nlohmann::json_abi_v3_11_3::detail::dtoa_impl::diyfp", %"struct.nlohmann::json_abi_v3_11_3::detail::dtoa_impl::diyfp" }
%"struct.nlohmann::json_abi_v3_11_3::detail::dtoa_impl::diyfp" = type <{ i64, i32, [4 x i8] }>
%class.anon.126 = type { ptr }
%"class.std::unique_ptr.127" = type { %"struct.std::__uniq_ptr_data.128" }
%"struct.std::__uniq_ptr_data.128" = type { %"class.std::__uniq_ptr_impl.129" }
%"class.std::__uniq_ptr_impl.129" = type { %"class.std::tuple.130" }
%"class.std::tuple.130" = type { %"struct.std::_Tuple_impl.131" }
%"struct.std::_Tuple_impl.131" = type { %"struct.std::_Tuple_impl.132", %"struct.std::_Head_base.29" }
%"struct.std::_Tuple_impl.132" = type { %"struct.std::_Head_base.133" }
%"struct.std::_Head_base.133" = type { %class.anon.126 }
%"class.std::shared_ptr.134" = type { %"class.std::__shared_ptr.135" }
%"class.std::__shared_ptr.135" = type { ptr, %"class.std::__shared_count" }
%"class.std::allocator.137" = type { i8 }
%"struct.std::__allocated_ptr.140" = type { ptr, ptr }
%"class.std::_Sp_counted_ptr_inplace.141" = type { %"class.std::_Sp_counted_base", %"class.std::_Sp_counted_ptr_inplace<nlohmann::json_abi_v3_11_3::detail::output_string_adapter<char>, std::allocator<void>, __gnu_cxx::_S_atomic>::_Impl" }
%"class.std::_Sp_counted_ptr_inplace<nlohmann::json_abi_v3_11_3::detail::output_string_adapter<char>, std::allocator<void>, __gnu_cxx::_S_atomic>::_Impl" = type { %"struct.__gnu_cxx::__aligned_buffer.142" }
%"struct.__gnu_cxx::__aligned_buffer.142" = type { %"union.std::aligned_storage<16, 8>::type" }
%"class.nlohmann::json_abi_v3_11_3::detail::output_string_adapter" = type { %"struct.nlohmann::json_abi_v3_11_3::detail::output_adapter_protocol", ptr }
%class.anon.143 = type { ptr }
%"class.std::unique_ptr.144" = type { %"struct.std::__uniq_ptr_data.145" }
%"struct.std::__uniq_ptr_data.145" = type { %"class.std::__uniq_ptr_impl.146" }
%"class.std::__uniq_ptr_impl.146" = type { %"class.std::tuple.147" }
%"class.std::tuple.147" = type { %"struct.std::_Tuple_impl.148" }
%"struct.std::_Tuple_impl.148" = type { %"struct.std::_Tuple_impl.149", %"struct.std::_Head_base.29" }
%"struct.std::_Tuple_impl.149" = type { %"struct.std::_Head_base.150" }
%"struct.std::_Head_base.150" = type { %class.anon.143 }
%class.anon.151 = type { ptr }
%"class.std::unique_ptr.152" = type { %"struct.std::__uniq_ptr_data.153" }
%"struct.std::__uniq_ptr_data.153" = type { %"class.std::__uniq_ptr_impl.154" }
%"class.std::__uniq_ptr_impl.154" = type { %"class.std::tuple.155" }
%"class.std::tuple.155" = type { %"struct.std::_Tuple_impl.156" }
%"struct.std::_Tuple_impl.156" = type { %"struct.std::_Tuple_impl.157", %"struct.std::_Head_base.29" }
%"struct.std::_Tuple_impl.157" = type { %"struct.std::_Head_base.158" }
%"struct.std::_Head_base.158" = type { %class.anon.151 }
%class.anon.160 = type { ptr }
%"class.std::unique_ptr.161" = type { %"struct.std::__uniq_ptr_data.162" }
%"struct.std::__uniq_ptr_data.162" = type { %"class.std::__uniq_ptr_impl.163" }
%"class.std::__uniq_ptr_impl.163" = type { %"class.std::tuple.164" }
%"class.std::tuple.164" = type { %"struct.std::_Tuple_impl.165" }
%"struct.std::_Tuple_impl.165" = type { %"struct.std::_Tuple_impl.166", %"struct.std::_Head_base.69" }
%"struct.std::_Tuple_impl.166" = type { %"struct.std::_Head_base.167" }
%"struct.std::_Head_base.167" = type { %class.anon.160 }
%class.anon.168 = type { ptr }
%"class.std::unique_ptr.169" = type { %"struct.std::__uniq_ptr_data.170" }
%"struct.std::__uniq_ptr_data.170" = type { %"class.std::__uniq_ptr_impl.171" }
%"class.std::__uniq_ptr_impl.171" = type { %"class.std::tuple.172" }
%"class.std::tuple.172" = type { %"struct.std::_Tuple_impl.173" }
%"struct.std::_Tuple_impl.173" = type { %"struct.std::_Tuple_impl.174", %"struct.std::_Head_base.69" }
%"struct.std::_Tuple_impl.174" = type { %"struct.std::_Head_base.175" }
%"struct.std::_Head_base.175" = type { %class.anon.168 }
%"struct.(anonymous namespace)::DOCTEST_ANON_TMP_18ITERATOR.178" = type { i8 }
%"struct.(anonymous namespace)::DOCTEST_ANON_TMP_18ITERATOR.180" = type { i8 }
%"struct.(anonymous namespace)::DOCTEST_ANON_TMP_18ITERATOR.182" = type { i8 }

$_ZN7doctest6detail9TestSuiteC2Ev = comdat any

$_ZN7doctest6detail8TestCaseD2Ev = comdat any

$_ZN7doctest12TestCaseDataD2Ev = comdat any

$_ZN8nlohmann16json_abi_v3_11_36detail8json_refINS0_10basic_jsonISt3mapSt6vectorNSt7__cxx1112basic_stringIcSt11char_traitsIcESaIcEEEblmdSaNS0_14adl_serializerES5_IhSaIhEEvEEEC2IJRA4_KcETnNSt9enable_ifIXsr3std16is_constructibleISF_DpT_EE5valueEiE4typeELi0EEEDpOSM_ = comdat any

$_ZN8nlohmann16json_abi_v3_11_36detail8json_refINS0_10basic_jsonISt3mapSt6vectorNSt7__cxx1112basic_stringIcSt11char_traitsIcESaIcEEEblmdSaNS0_14adl_serializerES5_IhSaIhEEvEEEC2IJiETnNSt9enable_ifIXsr3std16is_constructibleISF_DpT_EE5valueEiE4typeELi0EEEDpOSJ_ = comdat any

$_ZN8nlohmann16json_abi_v3_11_36detail8json_refINS0_10basic_jsonISt3mapSt6vectorNSt7__cxx1112basic_stringIcSt11char_traitsIcESaIcEEEblmdSaNS0_14adl_serializerES5_IhSaIhEEvEEEC2IJbETnNSt9enable_ifIXsr3std16is_constructibleISF_DpT_EE5valueEiE4typeELi0EEEDpOSJ_ = comdat any

$_ZN8nlohmann16json_abi_v3_11_36detail8json_refINS0_10basic_jsonISt3mapSt6vectorNSt7__cxx1112basic_stringIcSt11char_traitsIcESaIcEEEblmdSaNS0_14adl_serializerES5_IhSaIhEEvEEED2Ev = comdat any

$_ZN8nlohmann16json_abi_v3_11_36detail8json_refINS0_10basic_jsonISt3mapSt6vectorNSt7__cxx1112basic_stringIcSt11char_traitsIcESaIcEEEblmdSaNS0_14adl_serializerES5_IhSaIhEEvEEEC2ESt16initializer_listISG_E = comdat any

$_ZN8nlohmann16json_abi_v3_11_310basic_jsonISt3mapSt6vectorNSt7__cxx1112basic_stringIcSt11char_traitsIcESaIcEEEblmdSaNS0_14adl_serializerES3_IhSaIhEEvEC2ESt16initializer_listINS0_6detail8json_refISD_EEEbNSF_7value_tE = comdat any

$_ZN8nlohmann16json_abi_v3_11_3lsERSoRKNS0_10basic_jsonISt3mapSt6vectorNSt7__cxx1112basic_stringIcSt11char_traitsIcESaIcEEEblmdSaNS0_14adl_serializerES4_IhSaIhEEvEE = comdat any

$_ZN7doctest6detail20ExpressionDecomposerlsINSt7__cxx1112basic_stringIcSt11char_traitsIcESaIcEEEEENS0_14Expression_lhsIT_EEOSA_ = comdat any

$_ZN7doctest6detail14Expression_lhsINSt7__cxx1112basic_stringIcSt11char_traitsIcESaIcEEEEeqIRA30_KcEEDTcmcvveqclL_ZNS0_7declvalIS7_EEOT_vEEclsr7doctest6detailE7declvalISE_EEtlNS0_6ResultEEESF_ = comdat any

$_ZN7doctest6detail6ResultD2Ev = comdat any

$_ZN7doctest6detail14Expression_lhsINSt7__cxx1112basic_stringIcSt11char_traitsIcESaIcEEEED2Ev = comdat any

$_ZN8nlohmann16json_abi_v3_11_310basic_jsonISt3mapSt6vectorNSt7__cxx1112basic_stringIcSt11char_traitsIcESaIcEEEblmdSaNS0_14adl_serializerES3_IhSaIhEEvED2Ev = comdat any

$_ZSt4setwi = comdat any

$_ZN7doctest6detail14Expression_lhsINSt7__cxx1112basic_stringIcSt11char_traitsIcESaIcEEEEeqIRA76_KcEEDTcmcvveqclL_ZNS0_7declvalIS7_EEOT_vEEclsr7doctest6detailE7declvalISE_EEtlNS0_6ResultEEESF_ = comdat any

$_ZSt7setfillIcESt8_SetfillIT_ES1_ = comdat any

$_ZN7doctest6detail14Expression_lhsINSt7__cxx1112basic_stringIcSt11char_traitsIcESaIcEEEEeqIRA49_KcEEDTcmcvveqclL_ZNS0_7declvalIS7_EEOT_vEEclsr7doctest6detailE7declvalISE_EEtlNS0_6ResultEEESF_ = comdat any

$_ZN8nlohmann16json_abi_v3_11_3rsERKNS0_10basic_jsonISt3mapSt6vectorNSt7__cxx1112basic_stringIcSt11char_traitsIcESaIcEEEblmdSaNS0_14adl_serializerES3_IhSaIhEEvEERSo = comdat any

$_ZNSt8ios_base5widthEl = comdat any

$_ZN8nlohmann16json_abi_v3_11_310basic_jsonISt3mapSt6vectorNSt7__cxx1112basic_stringIcSt11char_traitsIcESaIcEEEblmdSaNS0_14adl_serializerES3_IhSaIhEEvEC2IRA6_KcA6_cTnNSt9enable_ifIXaantsr6detail13is_basic_jsonIT0_EE5valuesr6detail18is_compatible_typeISD_SK_EE5valueEiE4typeELi0EEEOT_ = comdat any

$_ZNK8nlohmann16json_abi_v3_11_310basic_jsonISt3mapSt6vectorNSt7__cxx1112basic_stringIcSt11char_traitsIcESaIcEEEblmdSaNS0_14adl_serializerES3_IhSaIhEEvE4dumpEicbNS0_6detail15error_handler_tE = comdat any

$__clang_call_terminate = comdat any

$_ZN7doctest6detail13ResultBuilderD2Ev = comdat any

$_ZN7doctest6detail14Expression_lhsINSt7__cxx1112basic_stringIcSt11char_traitsIcESaIcEEEEeqIRA7_KcEEDTcmcvveqclL_ZNS0_7declvalIS7_EEOT_vEEclsr7doctest6detailE7declvalISE_EEtlNS0_6ResultEEESF_ = comdat any

$_ZN7doctest6detail14Expression_lhsINSt7__cxx1112basic_stringIcSt11char_traitsIcESaIcEEEEeqIRA10_KcEEDTcmcvveqclL_ZNS0_7declvalIS7_EEOT_vEEclsr7doctest6detailE7declvalISE_EEtlNS0_6ResultEEESF_ = comdat any

$_ZN7doctest6detail14Expression_lhsINSt7__cxx1112basic_stringIcSt11char_traitsIcESaIcEEEEeqIRA21_KcEEDTcmcvveqclL_ZNS0_7declvalIS7_EEOT_vEEclsr7doctest6detailE7declvalISE_EEtlNS0_6ResultEEESF_ = comdat any

$_ZN8nlohmann16json_abi_v3_11_310basic_jsonISt3mapSt6vectorNSt7__cxx1112basic_stringIcSt11char_traitsIcESaIcEEEblmdSaNS0_14adl_serializerES3_IhSaIhEEvEC2IRA5_KcA5_cTnNSt9enable_ifIXaantsr6detail13is_basic_jsonIT0_EE5valuesr6detail18is_compatible_typeISD_SK_EE5valueEiE4typeELi0EEEOT_ = comdat any

$_ZN7doctest6detail14Expression_lhsINSt7__cxx1112basic_stringIcSt11char_traitsIcESaIcEEEEeqIRA6_KcEEDTcmcvveqclL_ZNS0_7declvalIS7_EEOT_vEEclsr7doctest6detailE7declvalISE_EEtlNS0_6ResultEEESF_ = comdat any

$_ZN7doctest6detail14Expression_lhsINSt7__cxx1112basic_stringIcSt11char_traitsIcESaIcEEEEeqIRA9_KcEEDTcmcvveqclL_ZNS0_7declvalIS7_EEOT_vEEclsr7doctest6detailE7declvalISE_EEtlNS0_6ResultEEESF_ = comdat any

$_ZN7doctest6detail14Expression_lhsINSt7__cxx1112basic_stringIcSt11char_traitsIcESaIcEEEEeqIRA12_KcEEDTcmcvveqclL_ZNS0_7declvalIS7_EEOT_vEEclsr7doctest6detailE7declvalISE_EEtlNS0_6ResultEEESF_ = comdat any

$_ZN8nlohmann16json_abi_v3_11_310basic_jsonISt3mapSt6vectorNSt7__cxx1112basic_stringIcSt11char_traitsIcESaIcEEEblmdSaNS0_14adl_serializerES3_IhSaIhEEvEC2IRA9_KcA9_cTnNSt9enable_ifIXaantsr6detail13is_basic_jsonIT0_EE5valuesr6detail18is_compatible_typeISD_SK_EE5valueEiE4typeELi0EEEOT_ = comdat any

$_ZN7doctest6detail14Expression_lhsINSt7__cxx1112basic_stringIcSt11char_traitsIcESaIcEEEEeqIRA15_KcEEDTcmcvveqclL_ZNS0_7declvalIS7_EEOT_vEEclsr7doctest6detailE7declvalISE_EEtlNS0_6ResultEEESF_ = comdat any

$_ZN8nlohmann16json_abi_v3_11_310basic_jsonISt3mapSt6vectorNSt7__cxx1112basic_stringIcSt11char_traitsIcESaIcEEEblmdSaNS0_14adl_serializerES3_IhSaIhEEvEC2IRA4_KcA4_cTnNSt9enable_ifIXaantsr6detail13is_basic_jsonIT0_EE5valuesr6detail18is_compatible_typeISD_SK_EE5valueEiE4typeELi0EEEOT_ = comdat any

$_ZN8nlohmann16json_abi_v3_11_310basic_jsonISt3mapSt6vectorNSt7__cxx1112basic_stringIcSt11char_traitsIcESaIcEEEblmdSaNS0_14adl_serializerES3_IhSaIhEEvE4dataC2Ev = comdat any

$_ZN8nlohmann16json_abi_v3_11_314adl_serializerIA4_cvE7to_jsonINS0_10basic_jsonISt3mapSt6vectorNSt7__cxx1112basic_stringIcSt11char_traitsIcESaIcEEEblmdSaS1_S7_IhSaIhEEvEERA4_KcEEDTcmclL_ZNS0_12_GLOBAL__N_17to_jsonEEfp_clsr3stdE7forwardIT0_Efp0_EEcvv_EERT_OSL_ = comdat any

$_ZN8nlohmann16json_abi_v3_11_310basic_jsonISt3mapSt6vectorNSt7__cxx1112basic_stringIcSt11char_traitsIcESaIcEEEblmdSaNS0_14adl_serializerES3_IhSaIhEEvE11set_parentsEv = comdat any

$_ZNK8nlohmann16json_abi_v3_11_310basic_jsonISt3mapSt6vectorNSt7__cxx1112basic_stringIcSt11char_traitsIcESaIcEEEblmdSaNS0_14adl_serializerES3_IhSaIhEEvE16assert_invariantEb = comdat any

$_ZN8nlohmann16json_abi_v3_11_310basic_jsonISt3mapSt6vectorNSt7__cxx1112basic_stringIcSt11char_traitsIcESaIcEEEblmdSaNS0_14adl_serializerES3_IhSaIhEEvE4dataD2Ev = comdat any

$_ZNK8nlohmann16json_abi_v3_11_36detail10to_json_fnclINS0_10basic_jsonISt3mapSt6vectorNSt7__cxx1112basic_stringIcSt11char_traitsIcESaIcEEEblmdSaNS0_14adl_serializerES6_IhSaIhEEvEERA4_KcEEDTcmcl7to_jsonfp_clsr3stdE7forwardIT0_Efp0_EEcvv_EERT_OSK_ = comdat any

$_ZN8nlohmann16json_abi_v3_11_36detail7to_jsonINS0_10basic_jsonISt3mapSt6vectorNSt7__cxx1112basic_stringIcSt11char_traitsIcESaIcEEEblmdSaNS0_14adl_serializerES5_IhSaIhEEvEEA4_cTnNSt9enable_ifIXsr3std16is_constructibleINT_8string_tET0_EE5valueEiE4typeELi0EEEvRSI_RKSK_ = comdat any

$_ZN8nlohmann16json_abi_v3_11_36detail20external_constructorILNS1_7value_tE3EE9constructINS0_10basic_jsonISt3mapSt6vectorNSt7__cxx1112basic_stringIcSt11char_traitsIcESaIcEEEblmdSaNS0_14adl_serializerES8_IhSaIhEEvEEA4_cTnNSt9enable_ifIXntsr3std7is_sameIT0_NT_8string_tEEE5valueEiE4typeELi0EEEvRSM_RKSL_ = comdat any

$_ZN8nlohmann16json_abi_v3_11_310basic_jsonISt3mapSt6vectorNSt7__cxx1112basic_stringIcSt11char_traitsIcESaIcEEEblmdSaNS0_14adl_serializerES3_IhSaIhEEvE10json_value7destroyENS0_6detail7value_tE = comdat any

$_ZN8nlohmann16json_abi_v3_11_310basic_jsonISt3mapSt6vectorNSt7__cxx1112basic_stringIcSt11char_traitsIcESaIcEEEblmdSaNS0_14adl_serializerES3_IhSaIhEEvE6createIS9_JRA4_KcEEEPT_DpOT0_ = comdat any

$_ZNSt6vectorIN8nlohmann16json_abi_v3_11_310basic_jsonISt3mapS_NSt7__cxx1112basic_stringIcSt11char_traitsIcESaIcEEEblmdSaNS1_14adl_serializerES_IhSaIhEEvEESaISD_EEC2Ev = comdat any

$_ZNSt6vectorIN8nlohmann16json_abi_v3_11_310basic_jsonISt3mapS_NSt7__cxx1112basic_stringIcSt11char_traitsIcESaIcEEEblmdSaNS1_14adl_serializerES_IhSaIhEEvEESaISD_EE7reserveEm = comdat any

$_ZNKSt6vectorIN8nlohmann16json_abi_v3_11_310basic_jsonISt3mapS_NSt7__cxx1112basic_stringIcSt11char_traitsIcESaIcEEEblmdSaNS1_14adl_serializerES_IhSaIhEEvEESaISD_EE4sizeEv = comdat any

$_ZSt4moveIN9__gnu_cxx17__normal_iteratorIPN8nlohmann16json_abi_v3_11_310basic_jsonISt3mapSt6vectorNSt7__cxx1112basic_stringIcSt11char_traitsIcESaIcEEEblmdSaNS3_14adl_serializerES6_IhSaIhEEvEES6_ISG_SaISG_EEEESt20back_insert_iteratorISJ_EET0_T_SO_SN_ = comdat any

$_ZNSt6vectorIN8nlohmann16json_abi_v3_11_310basic_jsonISt3mapS_NSt7__cxx1112basic_stringIcSt11char_traitsIcESaIcEEEblmdSaNS1_14adl_serializerES_IhSaIhEEvEESaISD_EE5beginEv = comdat any

$_ZNSt6vectorIN8nlohmann16json_abi_v3_11_310basic_jsonISt3mapS_NSt7__cxx1112basic_stringIcSt11char_traitsIcESaIcEEEblmdSaNS1_14adl_serializerES_IhSaIhEEvEESaISD_EE3endEv = comdat any

$_ZSt13back_inserterISt6vectorIN8nlohmann16json_abi_v3_11_310basic_jsonISt3mapS0_NSt7__cxx1112basic_stringIcSt11char_traitsIcESaIcEEEblmdSaNS2_14adl_serializerES0_IhSaIhEEvEESaISE_EEESt20back_insert_iteratorIT_ERSI_ = comdat any

$_ZNKSt3mapINSt7__cxx1112basic_stringIcSt11char_traitsIcESaIcEEEN8nlohmann16json_abi_v3_11_310basic_jsonIS_St6vectorS5_blmdSaNS7_14adl_serializerES9_IhSaIhEEvEESt4lessIS5_ESaISt4pairIKS5_SD_EEE4sizeEv = comdat any

$_ZNSt3mapINSt7__cxx1112basic_stringIcSt11char_traitsIcESaIcEEEN8nlohmann16json_abi_v3_11_310basic_jsonIS_St6vectorS5_blmdSaNS7_14adl_serializerES9_IhSaIhEEvEESt4lessIS5_ESaISt4pairIKS5_SD_EEE5beginEv = comdat any

$_ZNSt3mapINSt7__cxx1112basic_stringIcSt11char_traitsIcESaIcEEEN8nlohmann16json_abi_v3_11_310basic_jsonIS_St6vectorS5_blmdSaNS7_14adl_serializerES9_IhSaIhEEvEESt4lessIS5_ESaISt4pairIKS5_SD_EEE3endEv = comdat any

$_ZStneRKSt17_Rb_tree_iteratorISt4pairIKNSt7__cxx1112basic_stringIcSt11char_traitsIcESaIcEEEN8nlohmann16json_abi_v3_11_310basic_jsonISt3mapSt6vectorS6_blmdSaNS9_14adl_serializerESC_IhSaIhEEvEEEESK_ = comdat any

$_ZNKSt17_Rb_tree_iteratorISt4pairIKNSt7__cxx1112basic_stringIcSt11char_traitsIcESaIcEEEN8nlohmann16json_abi_v3_11_310basic_jsonISt3mapSt6vectorS6_blmdSaNS9_14adl_serializerESC_IhSaIhEEvEEEEdeEv = comdat any

$_ZNSt6vectorIN8nlohmann16json_abi_v3_11_310basic_jsonISt3mapS_NSt7__cxx1112basic_stringIcSt11char_traitsIcESaIcEEEblmdSaNS1_14adl_serializerES_IhSaIhEEvEESaISD_EE9push_backEOSD_ = comdat any

$_ZNSt17_Rb_tree_iteratorISt4pairIKNSt7__cxx1112basic_stringIcSt11char_traitsIcESaIcEEEN8nlohmann16json_abi_v3_11_310basic_jsonISt3mapSt6vectorS6_blmdSaNS9_14adl_serializerESC_IhSaIhEEvEEEEppEv = comdat any

$_ZNKSt6vectorIN8nlohmann16json_abi_v3_11_310basic_jsonISt3mapS_NSt7__cxx1112basic_stringIcSt11char_traitsIcESaIcEEEblmdSaNS1_14adl_serializerES_IhSaIhEEvEESaISD_EE5emptyEv = comdat any

$_ZNSt6vectorIN8nlohmann16json_abi_v3_11_310basic_jsonISt3mapS_NSt7__cxx1112basic_stringIcSt11char_traitsIcESaIcEEEblmdSaNS1_14adl_serializerES_IhSaIhEEvEESaISD_EE4backEv = comdat any

$_ZN8nlohmann16json_abi_v3_11_310basic_jsonISt3mapSt6vectorNSt7__cxx1112basic_stringIcSt11char_traitsIcESaIcEEEblmdSaNS0_14adl_serializerES3_IhSaIhEEvEC2EOSD_ = comdat any

$_ZNSt6vectorIN8nlohmann16json_abi_v3_11_310basic_jsonISt3mapS_NSt7__cxx1112basic_stringIcSt11char_traitsIcESaIcEEEblmdSaNS1_14adl_serializerES_IhSaIhEEvEESaISD_EE8pop_backEv = comdat any

$_ZNK8nlohmann16json_abi_v3_11_310basic_jsonISt3mapSt6vectorNSt7__cxx1112basic_stringIcSt11char_traitsIcESaIcEEEblmdSaNS0_14adl_serializerES3_IhSaIhEEvE8is_arrayEv = comdat any

$_ZNSt6vectorIN8nlohmann16json_abi_v3_11_310basic_jsonISt3mapS_NSt7__cxx1112basic_stringIcSt11char_traitsIcESaIcEEEblmdSaNS1_14adl_serializerES_IhSaIhEEvEESaISD_EE5clearEv = comdat any

$_ZNK8nlohmann16json_abi_v3_11_310basic_jsonISt3mapSt6vectorNSt7__cxx1112basic_stringIcSt11char_traitsIcESaIcEEEblmdSaNS0_14adl_serializerES3_IhSaIhEEvE9is_objectEv = comdat any

$_ZNSt3mapINSt7__cxx1112basic_stringIcSt11char_traitsIcESaIcEEEN8nlohmann16json_abi_v3_11_310basic_jsonIS_St6vectorS5_blmdSaNS7_14adl_serializerES9_IhSaIhEEvEESt4lessIS5_ESaISt4pairIKS5_SD_EEE5clearEv = comdat any

$_ZNSt6vectorIN8nlohmann16json_abi_v3_11_310basic_jsonISt3mapS_NSt7__cxx1112basic_stringIcSt11char_traitsIcESaIcEEEblmdSaNS1_14adl_serializerES_IhSaIhEEvEESaISD_EED2Ev = comdat any

$_ZNSaISt3mapINSt7__cxx1112basic_stringIcSt11char_traitsIcESaIcEEEN8nlohmann16json_abi_v3_11_310basic_jsonIS_St6vectorS5_blmdSaNS7_14adl_serializerES9_IhSaIhEEvEESt4lessIS5_ESaISt4pairIKS5_SD_EEEEC2Ev = comdat any

$_ZNSt16allocator_traitsISaISt3mapINSt7__cxx1112basic_stringIcSt11char_traitsIcESaIcEEEN8nlohmann16json_abi_v3_11_310basic_jsonIS0_St6vectorS6_blmdSaNS8_14adl_serializerESA_IhSaIhEEvEESt4lessIS6_ESaISt4pairIKS6_SE_EEEEE7destroyISL_EEvRSM_PT_ = comdat any

$_ZNSt16allocator_traitsISaISt3mapINSt7__cxx1112basic_stringIcSt11char_traitsIcESaIcEEEN8nlohmann16json_abi_v3_11_310basic_jsonIS0_St6vectorS6_blmdSaNS8_14adl_serializerESA_IhSaIhEEvEESt4lessIS6_ESaISt4pairIKS6_SE_EEEEE10deallocateERSM_PSL_m = comdat any

$_ZNSaISt3mapINSt7__cxx1112basic_stringIcSt11char_traitsIcESaIcEEEN8nlohmann16json_abi_v3_11_310basic_jsonIS_St6vectorS5_blmdSaNS7_14adl_serializerES9_IhSaIhEEvEESt4lessIS5_ESaISt4pairIKS5_SD_EEEED2Ev = comdat any

$_ZNSaISt6vectorIN8nlohmann16json_abi_v3_11_310basic_jsonISt3mapS_NSt7__cxx1112basic_stringIcSt11char_traitsIcESaIcEEEblmdSaNS1_14adl_serializerES_IhSaIhEEvEESaISD_EEEC2Ev = comdat any

$_ZNSt16allocator_traitsISaISt6vectorIN8nlohmann16json_abi_v3_11_310basic_jsonISt3mapS0_NSt7__cxx1112basic_stringIcSt11char_traitsIcESaIcEEEblmdSaNS2_14adl_serializerES0_IhSaIhEEvEESaISE_EEEE7destroyISG_EEvRSH_PT_ = comdat any

$_ZNSt16allocator_traitsISaISt6vectorIN8nlohmann16json_abi_v3_11_310basic_jsonISt3mapS0_NSt7__cxx1112basic_stringIcSt11char_traitsIcESaIcEEEblmdSaNS2_14adl_serializerES0_IhSaIhEEvEESaISE_EEEE10deallocateERSH_PSG_m = comdat any

$_ZNSaISt6vectorIN8nlohmann16json_abi_v3_11_310basic_jsonISt3mapS_NSt7__cxx1112basic_stringIcSt11char_traitsIcESaIcEEEblmdSaNS1_14adl_serializerES_IhSaIhEEvEESaISD_EEED2Ev = comdat any

$_ZNSaINSt7__cxx1112basic_stringIcSt11char_traitsIcESaIcEEEEC2Ev = comdat any

$_ZNSt16allocator_traitsISaINSt7__cxx1112basic_stringIcSt11char_traitsIcESaIcEEEEE7destroyIS5_EEvRS6_PT_ = comdat any

$_ZNSt16allocator_traitsISaINSt7__cxx1112basic_stringIcSt11char_traitsIcESaIcEEEEE10deallocateERS6_PS5_m = comdat any

$_ZNSaINSt7__cxx1112basic_stringIcSt11char_traitsIcESaIcEEEED2Ev = comdat any

$_ZNSaIN8nlohmann16json_abi_v3_11_327byte_container_with_subtypeISt6vectorIhSaIhEEEEEC2Ev = comdat any

$_ZNSt16allocator_traitsISaIN8nlohmann16json_abi_v3_11_327byte_container_with_subtypeISt6vectorIhSaIhEEEEEE7destroyIS6_EEvRS7_PT_ = comdat any

$_ZNSt16allocator_traitsISaIN8nlohmann16json_abi_v3_11_327byte_container_with_subtypeISt6vectorIhSaIhEEEEEE10deallocateERS7_PS6_m = comdat any

$_ZNSaIN8nlohmann16json_abi_v3_11_327byte_container_with_subtypeISt6vectorIhSaIhEEEEED2Ev = comdat any

$_ZNSt12_Vector_baseIN8nlohmann16json_abi_v3_11_310basic_jsonISt3mapSt6vectorNSt7__cxx1112basic_stringIcSt11char_traitsIcESaIcEEEblmdSaNS1_14adl_serializerES4_IhSaIhEEvEESaISE_EEC2Ev = comdat any

$_ZNSt12_Vector_baseIN8nlohmann16json_abi_v3_11_310basic_jsonISt3mapSt6vectorNSt7__cxx1112basic_stringIcSt11char_traitsIcESaIcEEEblmdSaNS1_14adl_serializerES4_IhSaIhEEvEESaISE_EE12_Vector_implC2Ev = comdat any

$_ZNSt12_Vector_baseIN8nlohmann16json_abi_v3_11_310basic_jsonISt3mapSt6vectorNSt7__cxx1112basic_stringIcSt11char_traitsIcESaIcEEEblmdSaNS1_14adl_serializerES4_IhSaIhEEvEESaISE_EE17_Vector_impl_dataC2Ev = comdat any

$_ZNSt15__new_allocatorIN8nlohmann16json_abi_v3_11_310basic_jsonISt3mapSt6vectorNSt7__cxx1112basic_stringIcSt11char_traitsIcESaIcEEEblmdSaNS1_14adl_serializerES4_IhSaIhEEvEEEC2Ev = comdat any

$_ZNKSt6vectorIN8nlohmann16json_abi_v3_11_310basic_jsonISt3mapS_NSt7__cxx1112basic_stringIcSt11char_traitsIcESaIcEEEblmdSaNS1_14adl_serializerES_IhSaIhEEvEESaISD_EE8max_sizeEv = comdat any

$_ZNKSt6vectorIN8nlohmann16json_abi_v3_11_310basic_jsonISt3mapS_NSt7__cxx1112basic_stringIcSt11char_traitsIcESaIcEEEblmdSaNS1_14adl_serializerES_IhSaIhEEvEESaISD_EE8capacityEv = comdat any

$_ZNSt12_Vector_baseIN8nlohmann16json_abi_v3_11_310basic_jsonISt3mapSt6vectorNSt7__cxx1112basic_stringIcSt11char_traitsIcESaIcEEEblmdSaNS1_14adl_serializerES4_IhSaIhEEvEESaISE_EE11_M_allocateEm = comdat any

$_ZNSt6vectorIN8nlohmann16json_abi_v3_11_310basic_jsonISt3mapS_NSt7__cxx1112basic_stringIcSt11char_traitsIcESaIcEEEblmdSaNS1_14adl_serializerES_IhSaIhEEvEESaISD_EE11_S_relocateEPSD_SG_SG_RSE_ = comdat any

$_ZNSt12_Vector_baseIN8nlohmann16json_abi_v3_11_310basic_jsonISt3mapSt6vectorNSt7__cxx1112basic_stringIcSt11char_traitsIcESaIcEEEblmdSaNS1_14adl_serializerES4_IhSaIhEEvEESaISE_EE19_M_get_Tp_allocatorEv = comdat any

$_ZNSt12_Vector_baseIN8nlohmann16json_abi_v3_11_310basic_jsonISt3mapSt6vectorNSt7__cxx1112basic_stringIcSt11char_traitsIcESaIcEEEblmdSaNS1_14adl_serializerES4_IhSaIhEEvEESaISE_EE13_M_deallocateEPSE_m = comdat any

$_ZNSt6vectorIN8nlohmann16json_abi_v3_11_310basic_jsonISt3mapS_NSt7__cxx1112basic_stringIcSt11char_traitsIcESaIcEEEblmdSaNS1_14adl_serializerES_IhSaIhEEvEESaISD_EE11_S_max_sizeERKSE_ = comdat any

$_ZNKSt12_Vector_baseIN8nlohmann16json_abi_v3_11_310basic_jsonISt3mapSt6vectorNSt7__cxx1112basic_stringIcSt11char_traitsIcESaIcEEEblmdSaNS1_14adl_serializerES4_IhSaIhEEvEESaISE_EE19_M_get_Tp_allocatorEv = comdat any

$_ZNSt16allocator_traitsISaIN8nlohmann16json_abi_v3_11_310basic_jsonISt3mapSt6vectorNSt7__cxx1112basic_stringIcSt11char_traitsIcESaIcEEEblmdSaNS1_14adl_serializerES4_IhSaIhEEvEEEE8max_sizeERKSF_ = comdat any

$_ZSt3minImERKT_S2_S2_ = comdat any

$_ZNKSt15__new_allocatorIN8nlohmann16json_abi_v3_11_310basic_jsonISt3mapSt6vectorNSt7__cxx1112basic_stringIcSt11char_traitsIcESaIcEEEblmdSaNS1_14adl_serializerES4_IhSaIhEEvEEE8max_sizeEv = comdat any

$_ZNKSt15__new_allocatorIN8nlohmann16json_abi_v3_11_310basic_jsonISt3mapSt6vectorNSt7__cxx1112basic_stringIcSt11char_traitsIcESaIcEEEblmdSaNS1_14adl_serializerES4_IhSaIhEEvEEE11_M_max_sizeEv = comdat any

$_ZNSt16allocator_traitsISaIN8nlohmann16json_abi_v3_11_310basic_jsonISt3mapSt6vectorNSt7__cxx1112basic_stringIcSt11char_traitsIcESaIcEEEblmdSaNS1_14adl_serializerES4_IhSaIhEEvEEEE8allocateERSF_m = comdat any

$_ZNSt15__new_allocatorIN8nlohmann16json_abi_v3_11_310basic_jsonISt3mapSt6vectorNSt7__cxx1112basic_stringIcSt11char_traitsIcESaIcEEEblmdSaNS1_14adl_serializerES4_IhSaIhEEvEEE8allocateEmPKv = comdat any

$_ZNSt6vectorIN8nlohmann16json_abi_v3_11_310basic_jsonISt3mapS_NSt7__cxx1112basic_stringIcSt11char_traitsIcESaIcEEEblmdSaNS1_14adl_serializerES_IhSaIhEEvEESaISD_EE14_S_do_relocateEPSD_SG_SG_RSE_St17integral_constantIbLb1EE = comdat any

$_ZSt12__relocate_aIPN8nlohmann16json_abi_v3_11_310basic_jsonISt3mapSt6vectorNSt7__cxx1112basic_stringIcSt11char_traitsIcESaIcEEEblmdSaNS1_14adl_serializerES4_IhSaIhEEvEESF_SaISE_EET0_T_SI_SH_RT1_ = comdat any

$_ZSt14__relocate_a_1IPN8nlohmann16json_abi_v3_11_310basic_jsonISt3mapSt6vectorNSt7__cxx1112basic_stringIcSt11char_traitsIcESaIcEEEblmdSaNS1_14adl_serializerES4_IhSaIhEEvEESF_SaISE_EET0_T_SI_SH_RT1_ = comdat any

$_ZSt12__niter_baseIPN8nlohmann16json_abi_v3_11_310basic_jsonISt3mapSt6vectorNSt7__cxx1112basic_stringIcSt11char_traitsIcESaIcEEEblmdSaNS1_14adl_serializerES4_IhSaIhEEvEEET_SG_ = comdat any

$_ZSt19__relocate_object_aIN8nlohmann16json_abi_v3_11_310basic_jsonISt3mapSt6vectorNSt7__cxx1112basic_stringIcSt11char_traitsIcESaIcEEEblmdSaNS1_14adl_serializerES4_IhSaIhEEvEESE_SaISE_EEvPT_PT0_RT1_ = comdat any

$_ZNSt16allocator_traitsISaIN8nlohmann16json_abi_v3_11_310basic_jsonISt3mapSt6vectorNSt7__cxx1112basic_stringIcSt11char_traitsIcESaIcEEEblmdSaNS1_14adl_serializerES4_IhSaIhEEvEEEE9constructISE_JSE_EEEvRSF_PT_DpOT0_ = comdat any

$_ZNSt16allocator_traitsISaIN8nlohmann16json_abi_v3_11_310basic_jsonISt3mapSt6vectorNSt7__cxx1112basic_stringIcSt11char_traitsIcESaIcEEEblmdSaNS1_14adl_serializerES4_IhSaIhEEvEEEE7destroyISE_EEvRSF_PT_ = comdat any

$_ZNSt15__new_allocatorIN8nlohmann16json_abi_v3_11_310basic_jsonISt3mapSt6vectorNSt7__cxx1112basic_stringIcSt11char_traitsIcESaIcEEEblmdSaNS1_14adl_serializerES4_IhSaIhEEvEEE9constructISE_JSE_EEEvPT_DpOT0_ = comdat any

$_ZNSt15__new_allocatorIN8nlohmann16json_abi_v3_11_310basic_jsonISt3mapSt6vectorNSt7__cxx1112basic_stringIcSt11char_traitsIcESaIcEEEblmdSaNS1_14adl_serializerES4_IhSaIhEEvEEE7destroyISE_EEvPT_ = comdat any

$_ZNSt16allocator_traitsISaIN8nlohmann16json_abi_v3_11_310basic_jsonISt3mapSt6vectorNSt7__cxx1112basic_stringIcSt11char_traitsIcESaIcEEEblmdSaNS1_14adl_serializerES4_IhSaIhEEvEEEE10deallocateERSF_PSE_m = comdat any

$_ZNSt15__new_allocatorIN8nlohmann16json_abi_v3_11_310basic_jsonISt3mapSt6vectorNSt7__cxx1112basic_stringIcSt11char_traitsIcESaIcEEEblmdSaNS1_14adl_serializerES4_IhSaIhEEvEEE10deallocateEPSE_m = comdat any

$_ZSt13__copy_move_aILb1EN9__gnu_cxx17__normal_iteratorIPN8nlohmann16json_abi_v3_11_310basic_jsonISt3mapSt6vectorNSt7__cxx1112basic_stringIcSt11char_traitsIcESaIcEEEblmdSaNS3_14adl_serializerES6_IhSaIhEEvEES6_ISG_SaISG_EEEESt20back_insert_iteratorISJ_EET1_T0_SO_SN_ = comdat any

$_ZSt12__miter_baseIN9__gnu_cxx17__normal_iteratorIPN8nlohmann16json_abi_v3_11_310basic_jsonISt3mapSt6vectorNSt7__cxx1112basic_stringIcSt11char_traitsIcESaIcEEEblmdSaNS3_14adl_serializerES6_IhSaIhEEvEES6_ISG_SaISG_EEEEET_SL_ = comdat any

$_ZSt12__niter_wrapISt20back_insert_iteratorISt6vectorIN8nlohmann16json_abi_v3_11_310basic_jsonISt3mapS1_NSt7__cxx1112basic_stringIcSt11char_traitsIcESaIcEEEblmdSaNS3_14adl_serializerES1_IhSaIhEEvEESaISF_EEEET_RKSJ_SJ_ = comdat any

$_ZSt14__copy_move_a1ILb1EPN8nlohmann16json_abi_v3_11_310basic_jsonISt3mapSt6vectorNSt7__cxx1112basic_stringIcSt11char_traitsIcESaIcEEEblmdSaNS1_14adl_serializerES4_IhSaIhEEvEESt20back_insert_iteratorIS4_ISE_SaISE_EEEET1_T0_SL_SK_ = comdat any

$_ZSt12__niter_baseIPN8nlohmann16json_abi_v3_11_310basic_jsonISt3mapSt6vectorNSt7__cxx1112basic_stringIcSt11char_traitsIcESaIcEEEblmdSaNS1_14adl_serializerES4_IhSaIhEEvEES4_ISE_SaISE_EEET_N9__gnu_cxx17__normal_iteratorISI_T0_EE = comdat any

$_ZSt12__niter_baseISt20back_insert_iteratorISt6vectorIN8nlohmann16json_abi_v3_11_310basic_jsonISt3mapS1_NSt7__cxx1112basic_stringIcSt11char_traitsIcESaIcEEEblmdSaNS3_14adl_serializerES1_IhSaIhEEvEESaISF_EEEET_SJ_ = comdat any

$_ZSt14__copy_move_a2ILb1EPN8nlohmann16json_abi_v3_11_310basic_jsonISt3mapSt6vectorNSt7__cxx1112basic_stringIcSt11char_traitsIcESaIcEEEblmdSaNS1_14adl_serializerES4_IhSaIhEEvEESt20back_insert_iteratorIS4_ISE_SaISE_EEEET1_T0_SL_SK_ = comdat any

$_ZNSt11__copy_moveILb1ELb0ESt26random_access_iterator_tagE8__copy_mIPN8nlohmann16json_abi_v3_11_310basic_jsonISt3mapSt6vectorNSt7__cxx1112basic_stringIcSt11char_traitsIcESaIcEEEblmdSaNS4_14adl_serializerES7_IhSaIhEEvEESt20back_insert_iteratorIS7_ISH_SaISH_EEEEET0_T_SO_SN_ = comdat any

$_ZNSt20back_insert_iteratorISt6vectorIN8nlohmann16json_abi_v3_11_310basic_jsonISt3mapS0_NSt7__cxx1112basic_stringIcSt11char_traitsIcESaIcEEEblmdSaNS2_14adl_serializerES0_IhSaIhEEvEESaISE_EEEdeEv = comdat any

$_ZNSt20back_insert_iteratorISt6vectorIN8nlohmann16json_abi_v3_11_310basic_jsonISt3mapS0_NSt7__cxx1112basic_stringIcSt11char_traitsIcESaIcEEEblmdSaNS2_14adl_serializerES0_IhSaIhEEvEESaISE_EEEaSEOSE_ = comdat any

$_ZNSt20back_insert_iteratorISt6vectorIN8nlohmann16json_abi_v3_11_310basic_jsonISt3mapS0_NSt7__cxx1112basic_stringIcSt11char_traitsIcESaIcEEEblmdSaNS2_14adl_serializerES0_IhSaIhEEvEESaISE_EEEppEv = comdat any

$_ZNK9__gnu_cxx17__normal_iteratorIPN8nlohmann16json_abi_v3_11_310basic_jsonISt3mapSt6vectorNSt7__cxx1112basic_stringIcSt11char_traitsIcESaIcEEEblmdSaNS2_14adl_serializerES5_IhSaIhEEvEES5_ISF_SaISF_EEE4baseEv = comdat any

$_ZN9__gnu_cxx17__normal_iteratorIPN8nlohmann16json_abi_v3_11_310basic_jsonISt3mapSt6vectorNSt7__cxx1112basic_stringIcSt11char_traitsIcESaIcEEEblmdSaNS2_14adl_serializerES5_IhSaIhEEvEES5_ISF_SaISF_EEEC2ERKSG_ = comdat any

$_ZNSt20back_insert_iteratorISt6vectorIN8nlohmann16json_abi_v3_11_310basic_jsonISt3mapS0_NSt7__cxx1112basic_stringIcSt11char_traitsIcESaIcEEEblmdSaNS2_14adl_serializerES0_IhSaIhEEvEESaISE_EEEC2ERSG_ = comdat any

$_ZNKSt8_Rb_treeINSt7__cxx1112basic_stringIcSt11char_traitsIcESaIcEEESt4pairIKS5_N8nlohmann16json_abi_v3_11_310basic_jsonISt3mapSt6vectorS5_blmdSaNS9_14adl_serializerESC_IhSaIhEEvEEESt10_Select1stISH_ESt4lessIS5_ESaISH_EE4sizeEv = comdat any

$_ZNSt8_Rb_treeINSt7__cxx1112basic_stringIcSt11char_traitsIcESaIcEEESt4pairIKS5_N8nlohmann16json_abi_v3_11_310basic_jsonISt3mapSt6vectorS5_blmdSaNS9_14adl_serializerESC_IhSaIhEEvEEESt10_Select1stISH_ESt4lessIS5_ESaISH_EE5beginEv = comdat any

$_ZNSt17_Rb_tree_iteratorISt4pairIKNSt7__cxx1112basic_stringIcSt11char_traitsIcESaIcEEEN8nlohmann16json_abi_v3_11_310basic_jsonISt3mapSt6vectorS6_blmdSaNS9_14adl_serializerESC_IhSaIhEEvEEEEC2EPSt18_Rb_tree_node_base = comdat any

$_ZNSt8_Rb_treeINSt7__cxx1112basic_stringIcSt11char_traitsIcESaIcEEESt4pairIKS5_N8nlohmann16json_abi_v3_11_310basic_jsonISt3mapSt6vectorS5_blmdSaNS9_14adl_serializerESC_IhSaIhEEvEEESt10_Select1stISH_ESt4lessIS5_ESaISH_EE3endEv = comdat any

$_ZNSt13_Rb_tree_nodeISt4pairIKNSt7__cxx1112basic_stringIcSt11char_traitsIcESaIcEEEN8nlohmann16json_abi_v3_11_310basic_jsonISt3mapSt6vectorS6_blmdSaNS9_14adl_serializerESC_IhSaIhEEvEEEE9_M_valptrEv = comdat any

$_ZN9__gnu_cxx16__aligned_membufISt4pairIKNSt7__cxx1112basic_stringIcSt11char_traitsIcESaIcEEEN8nlohmann16json_abi_v3_11_310basic_jsonISt3mapSt6vectorS7_blmdSaNSA_14adl_serializerESD_IhSaIhEEvEEEE6_M_ptrEv = comdat any

$_ZN9__gnu_cxx16__aligned_membufISt4pairIKNSt7__cxx1112basic_stringIcSt11char_traitsIcESaIcEEEN8nlohmann16json_abi_v3_11_310basic_jsonISt3mapSt6vectorS7_blmdSaNSA_14adl_serializerESD_IhSaIhEEvEEEE7_M_addrEv = comdat any

$_ZNSt6vectorIN8nlohmann16json_abi_v3_11_310basic_jsonISt3mapS_NSt7__cxx1112basic_stringIcSt11char_traitsIcESaIcEEEblmdSaNS1_14adl_serializerES_IhSaIhEEvEESaISD_EE12emplace_backIJSD_EEEvDpOT_ = comdat any

$_ZNSt6vectorIN8nlohmann16json_abi_v3_11_310basic_jsonISt3mapS_NSt7__cxx1112basic_stringIcSt11char_traitsIcESaIcEEEblmdSaNS1_14adl_serializerES_IhSaIhEEvEESaISD_EE17_M_realloc_insertIJSD_EEEvN9__gnu_cxx17__normal_iteratorIPSD_SF_EEDpOT_ = comdat any

$_ZNKSt6vectorIN8nlohmann16json_abi_v3_11_310basic_jsonISt3mapS_NSt7__cxx1112basic_stringIcSt11char_traitsIcESaIcEEEblmdSaNS1_14adl_serializerES_IhSaIhEEvEESaISD_EE12_M_check_lenEmPKc = comdat any

$_ZN9__gnu_cxxmiIPN8nlohmann16json_abi_v3_11_310basic_jsonISt3mapSt6vectorNSt7__cxx1112basic_stringIcSt11char_traitsIcESaIcEEEblmdSaNS2_14adl_serializerES5_IhSaIhEEvEES5_ISF_SaISF_EEEENS_17__normal_iteratorIT_T0_E15difference_typeERKSM_SP_ = comdat any

$_ZSt3maxImERKT_S2_S2_ = comdat any

$_ZN9__gnu_cxxeqIPKN8nlohmann16json_abi_v3_11_310basic_jsonISt3mapSt6vectorNSt7__cxx1112basic_stringIcSt11char_traitsIcESaIcEEEblmdSaNS2_14adl_serializerES5_IhSaIhEEvEES5_ISF_SaISF_EEEEbRKNS_17__normal_iteratorIT_T0_EESP_ = comdat any

$_ZNKSt6vectorIN8nlohmann16json_abi_v3_11_310basic_jsonISt3mapS_NSt7__cxx1112basic_stringIcSt11char_traitsIcESaIcEEEblmdSaNS1_14adl_serializerES_IhSaIhEEvEESaISD_EE5beginEv = comdat any

$_ZNKSt6vectorIN8nlohmann16json_abi_v3_11_310basic_jsonISt3mapS_NSt7__cxx1112basic_stringIcSt11char_traitsIcESaIcEEEblmdSaNS1_14adl_serializerES_IhSaIhEEvEESaISD_EE3endEv = comdat any

$_ZNK9__gnu_cxx17__normal_iteratorIPKN8nlohmann16json_abi_v3_11_310basic_jsonISt3mapSt6vectorNSt7__cxx1112basic_stringIcSt11char_traitsIcESaIcEEEblmdSaNS2_14adl_serializerES5_IhSaIhEEvEES5_ISF_SaISF_EEE4baseEv = comdat any

$_ZN9__gnu_cxx17__normal_iteratorIPKN8nlohmann16json_abi_v3_11_310basic_jsonISt3mapSt6vectorNSt7__cxx1112basic_stringIcSt11char_traitsIcESaIcEEEblmdSaNS2_14adl_serializerES5_IhSaIhEEvEES5_ISF_SaISF_EEEC2ERKSH_ = comdat any

$_ZNK9__gnu_cxx17__normal_iteratorIPN8nlohmann16json_abi_v3_11_310basic_jsonISt3mapSt6vectorNSt7__cxx1112basic_stringIcSt11char_traitsIcESaIcEEEblmdSaNS2_14adl_serializerES5_IhSaIhEEvEES5_ISF_SaISF_EEEmiEl = comdat any

$_ZNK9__gnu_cxx17__normal_iteratorIPN8nlohmann16json_abi_v3_11_310basic_jsonISt3mapSt6vectorNSt7__cxx1112basic_stringIcSt11char_traitsIcESaIcEEEblmdSaNS2_14adl_serializerES5_IhSaIhEEvEES5_ISF_SaISF_EEEdeEv = comdat any

$_ZNSt6vectorIN8nlohmann16json_abi_v3_11_310basic_jsonISt3mapS_NSt7__cxx1112basic_stringIcSt11char_traitsIcESaIcEEEblmdSaNS1_14adl_serializerES_IhSaIhEEvEESaISD_EE15_M_erase_at_endEPSD_ = comdat any

$_ZSt8_DestroyIPN8nlohmann16json_abi_v3_11_310basic_jsonISt3mapSt6vectorNSt7__cxx1112basic_stringIcSt11char_traitsIcESaIcEEEblmdSaNS1_14adl_serializerES4_IhSaIhEEvEESE_EvT_SG_RSaIT0_E = comdat any

$_ZSt8_DestroyIPN8nlohmann16json_abi_v3_11_310basic_jsonISt3mapSt6vectorNSt7__cxx1112basic_stringIcSt11char_traitsIcESaIcEEEblmdSaNS1_14adl_serializerES4_IhSaIhEEvEEEvT_SG_ = comdat any

$_ZNSt12_Destroy_auxILb0EE9__destroyIPN8nlohmann16json_abi_v3_11_310basic_jsonISt3mapSt6vectorNSt7__cxx1112basic_stringIcSt11char_traitsIcESaIcEEEblmdSaNS3_14adl_serializerES6_IhSaIhEEvEEEEvT_SI_ = comdat any

$_ZSt8_DestroyIN8nlohmann16json_abi_v3_11_310basic_jsonISt3mapSt6vectorNSt7__cxx1112basic_stringIcSt11char_traitsIcESaIcEEEblmdSaNS1_14adl_serializerES4_IhSaIhEEvEEEvPT_ = comdat any

$_ZNSt8_Rb_treeINSt7__cxx1112basic_stringIcSt11char_traitsIcESaIcEEESt4pairIKS5_N8nlohmann16json_abi_v3_11_310basic_jsonISt3mapSt6vectorS5_blmdSaNS9_14adl_serializerESC_IhSaIhEEvEEESt10_Select1stISH_ESt4lessIS5_ESaISH_EE5clearEv = comdat any

$_ZNSt8_Rb_treeINSt7__cxx1112basic_stringIcSt11char_traitsIcESaIcEEESt4pairIKS5_N8nlohmann16json_abi_v3_11_310basic_jsonISt3mapSt6vectorS5_blmdSaNS9_14adl_serializerESC_IhSaIhEEvEEESt10_Select1stISH_ESt4lessIS5_ESaISH_EE8_M_eraseEPSt13_Rb_tree_nodeISH_E = comdat any

$_ZNSt8_Rb_treeINSt7__cxx1112basic_stringIcSt11char_traitsIcESaIcEEESt4pairIKS5_N8nlohmann16json_abi_v3_11_310basic_jsonISt3mapSt6vectorS5_blmdSaNS9_14adl_serializerESC_IhSaIhEEvEEESt10_Select1stISH_ESt4lessIS5_ESaISH_EE8_M_beginEv = comdat any

$_ZNSt15_Rb_tree_header8_M_resetEv = comdat any

$_ZNSt8_Rb_treeINSt7__cxx1112basic_stringIcSt11char_traitsIcESaIcEEESt4pairIKS5_N8nlohmann16json_abi_v3_11_310basic_jsonISt3mapSt6vectorS5_blmdSaNS9_14adl_serializerESC_IhSaIhEEvEEESt10_Select1stISH_ESt4lessIS5_ESaISH_EE8_S_rightEPSt18_Rb_tree_node_base = comdat any

$_ZNSt8_Rb_treeINSt7__cxx1112basic_stringIcSt11char_traitsIcESaIcEEESt4pairIKS5_N8nlohmann16json_abi_v3_11_310basic_jsonISt3mapSt6vectorS5_blmdSaNS9_14adl_serializerESC_IhSaIhEEvEEESt10_Select1stISH_ESt4lessIS5_ESaISH_EE7_S_leftEPSt18_Rb_tree_node_base = comdat any

$_ZNSt8_Rb_treeINSt7__cxx1112basic_stringIcSt11char_traitsIcESaIcEEESt4pairIKS5_N8nlohmann16json_abi_v3_11_310basic_jsonISt3mapSt6vectorS5_blmdSaNS9_14adl_serializerESC_IhSaIhEEvEEESt10_Select1stISH_ESt4lessIS5_ESaISH_EE12_M_drop_nodeEPSt13_Rb_tree_nodeISH_E = comdat any

$_ZNSt8_Rb_treeINSt7__cxx1112basic_stringIcSt11char_traitsIcESaIcEEESt4pairIKS5_N8nlohmann16json_abi_v3_11_310basic_jsonISt3mapSt6vectorS5_blmdSaNS9_14adl_serializerESC_IhSaIhEEvEEESt10_Select1stISH_ESt4lessIS5_ESaISH_EE15_M_destroy_nodeEPSt13_Rb_tree_nodeISH_E = comdat any

$_ZNSt8_Rb_treeINSt7__cxx1112basic_stringIcSt11char_traitsIcESaIcEEESt4pairIKS5_N8nlohmann16json_abi_v3_11_310basic_jsonISt3mapSt6vectorS5_blmdSaNS9_14adl_serializerESC_IhSaIhEEvEEESt10_Select1stISH_ESt4lessIS5_ESaISH_EE11_M_put_nodeEPSt13_Rb_tree_nodeISH_E = comdat any

$_ZNSt16allocator_traitsISaISt13_Rb_tree_nodeISt4pairIKNSt7__cxx1112basic_stringIcSt11char_traitsIcESaIcEEEN8nlohmann16json_abi_v3_11_310basic_jsonISt3mapSt6vectorS7_blmdSaNSA_14adl_serializerESD_IhSaIhEEvEEEEEE7destroyISI_EEvRSK_PT_ = comdat any

$_ZNSt8_Rb_treeINSt7__cxx1112basic_stringIcSt11char_traitsIcESaIcEEESt4pairIKS5_N8nlohmann16json_abi_v3_11_310basic_jsonISt3mapSt6vectorS5_blmdSaNS9_14adl_serializerESC_IhSaIhEEvEEESt10_Select1stISH_ESt4lessIS5_ESaISH_EE21_M_get_Node_allocatorEv = comdat any

$_ZNSt15__new_allocatorISt13_Rb_tree_nodeISt4pairIKNSt7__cxx1112basic_stringIcSt11char_traitsIcESaIcEEEN8nlohmann16json_abi_v3_11_310basic_jsonISt3mapSt6vectorS7_blmdSaNSA_14adl_serializerESD_IhSaIhEEvEEEEE7destroyISI_EEvPT_ = comdat any

$_ZNSt4pairIKNSt7__cxx1112basic_stringIcSt11char_traitsIcESaIcEEEN8nlohmann16json_abi_v3_11_310basic_jsonISt3mapSt6vectorS5_blmdSaNS8_14adl_serializerESB_IhSaIhEEvEEED2Ev = comdat any

$_ZNSt16allocator_traitsISaISt13_Rb_tree_nodeISt4pairIKNSt7__cxx1112basic_stringIcSt11char_traitsIcESaIcEEEN8nlohmann16json_abi_v3_11_310basic_jsonISt3mapSt6vectorS7_blmdSaNSA_14adl_serializerESD_IhSaIhEEvEEEEEE10deallocateERSK_PSJ_m = comdat any

$_ZNSt15__new_allocatorISt13_Rb_tree_nodeISt4pairIKNSt7__cxx1112basic_stringIcSt11char_traitsIcESaIcEEEN8nlohmann16json_abi_v3_11_310basic_jsonISt3mapSt6vectorS7_blmdSaNSA_14adl_serializerESD_IhSaIhEEvEEEEE10deallocateEPSJ_m = comdat any

$_ZNKSt8_Rb_treeINSt7__cxx1112basic_stringIcSt11char_traitsIcESaIcEEESt4pairIKS5_N8nlohmann16json_abi_v3_11_310basic_jsonISt3mapSt6vectorS5_blmdSaNS9_14adl_serializerESC_IhSaIhEEvEEESt10_Select1stISH_ESt4lessIS5_ESaISH_EE9_M_mbeginEv = comdat any

$_ZNSt12_Vector_baseIN8nlohmann16json_abi_v3_11_310basic_jsonISt3mapSt6vectorNSt7__cxx1112basic_stringIcSt11char_traitsIcESaIcEEEblmdSaNS1_14adl_serializerES4_IhSaIhEEvEESaISE_EED2Ev = comdat any

$_ZNSt12_Vector_baseIN8nlohmann16json_abi_v3_11_310basic_jsonISt3mapSt6vectorNSt7__cxx1112basic_stringIcSt11char_traitsIcESaIcEEEblmdSaNS1_14adl_serializerES4_IhSaIhEEvEESaISE_EE12_Vector_implD2Ev = comdat any

$_ZNSt15__new_allocatorIN8nlohmann16json_abi_v3_11_310basic_jsonISt3mapSt6vectorNSt7__cxx1112basic_stringIcSt11char_traitsIcESaIcEEEblmdSaNS1_14adl_serializerES4_IhSaIhEEvEEED2Ev = comdat any

$_ZNSt15__new_allocatorISt3mapINSt7__cxx1112basic_stringIcSt11char_traitsIcESaIcEEEN8nlohmann16json_abi_v3_11_310basic_jsonIS0_St6vectorS6_blmdSaNS8_14adl_serializerESA_IhSaIhEEvEESt4lessIS6_ESaISt4pairIKS6_SE_EEEEC2Ev = comdat any

$_ZNSt15__new_allocatorISt3mapINSt7__cxx1112basic_stringIcSt11char_traitsIcESaIcEEEN8nlohmann16json_abi_v3_11_310basic_jsonIS0_St6vectorS6_blmdSaNS8_14adl_serializerESA_IhSaIhEEvEESt4lessIS6_ESaISt4pairIKS6_SE_EEEE7destroyISL_EEvPT_ = comdat any

$_ZNSt3mapINSt7__cxx1112basic_stringIcSt11char_traitsIcESaIcEEEN8nlohmann16json_abi_v3_11_310basic_jsonIS_St6vectorS5_blmdSaNS7_14adl_serializerES9_IhSaIhEEvEESt4lessIS5_ESaISt4pairIKS5_SD_EEED2Ev = comdat any

$_ZNSt8_Rb_treeINSt7__cxx1112basic_stringIcSt11char_traitsIcESaIcEEESt4pairIKS5_N8nlohmann16json_abi_v3_11_310basic_jsonISt3mapSt6vectorS5_blmdSaNS9_14adl_serializerESC_IhSaIhEEvEEESt10_Select1stISH_ESt4lessIS5_ESaISH_EED2Ev = comdat any

$_ZNSt8_Rb_treeINSt7__cxx1112basic_stringIcSt11char_traitsIcESaIcEEESt4pairIKS5_N8nlohmann16json_abi_v3_11_310basic_jsonISt3mapSt6vectorS5_blmdSaNS9_14adl_serializerESC_IhSaIhEEvEEESt10_Select1stISH_ESt4lessIS5_ESaISH_EE13_Rb_tree_implISL_Lb1EED2Ev = comdat any

$_ZNSt15__new_allocatorISt13_Rb_tree_nodeISt4pairIKNSt7__cxx1112basic_stringIcSt11char_traitsIcESaIcEEEN8nlohmann16json_abi_v3_11_310basic_jsonISt3mapSt6vectorS7_blmdSaNSA_14adl_serializerESD_IhSaIhEEvEEEEED2Ev = comdat any

$_ZNSt15__new_allocatorISt3mapINSt7__cxx1112basic_stringIcSt11char_traitsIcESaIcEEEN8nlohmann16json_abi_v3_11_310basic_jsonIS0_St6vectorS6_blmdSaNS8_14adl_serializerESA_IhSaIhEEvEESt4lessIS6_ESaISt4pairIKS6_SE_EEEE10deallocateEPSL_m = comdat any

$_ZNSt15__new_allocatorISt3mapINSt7__cxx1112basic_stringIcSt11char_traitsIcESaIcEEEN8nlohmann16json_abi_v3_11_310basic_jsonIS0_St6vectorS6_blmdSaNS8_14adl_serializerESA_IhSaIhEEvEESt4lessIS6_ESaISt4pairIKS6_SE_EEEED2Ev = comdat any

$_ZNSt15__new_allocatorISt6vectorIN8nlohmann16json_abi_v3_11_310basic_jsonISt3mapS0_NSt7__cxx1112basic_stringIcSt11char_traitsIcESaIcEEEblmdSaNS2_14adl_serializerES0_IhSaIhEEvEESaISE_EEEC2Ev = comdat any

$_ZNSt15__new_allocatorISt6vectorIN8nlohmann16json_abi_v3_11_310basic_jsonISt3mapS0_NSt7__cxx1112basic_stringIcSt11char_traitsIcESaIcEEEblmdSaNS2_14adl_serializerES0_IhSaIhEEvEESaISE_EEE7destroyISG_EEvPT_ = comdat any

$_ZNSt15__new_allocatorISt6vectorIN8nlohmann16json_abi_v3_11_310basic_jsonISt3mapS0_NSt7__cxx1112basic_stringIcSt11char_traitsIcESaIcEEEblmdSaNS2_14adl_serializerES0_IhSaIhEEvEESaISE_EEE10deallocateEPSG_m = comdat any

$_ZNSt15__new_allocatorISt6vectorIN8nlohmann16json_abi_v3_11_310basic_jsonISt3mapS0_NSt7__cxx1112basic_stringIcSt11char_traitsIcESaIcEEEblmdSaNS2_14adl_serializerES0_IhSaIhEEvEESaISE_EEED2Ev = comdat any

$_ZNSt15__new_allocatorINSt7__cxx1112basic_stringIcSt11char_traitsIcESaIcEEEEC2Ev = comdat any

$_ZNSt15__new_allocatorINSt7__cxx1112basic_stringIcSt11char_traitsIcESaIcEEEE7destroyIS5_EEvPT_ = comdat any

$_ZNSt15__new_allocatorINSt7__cxx1112basic_stringIcSt11char_traitsIcESaIcEEEE10deallocateEPS5_m = comdat any

$_ZNSt15__new_allocatorINSt7__cxx1112basic_stringIcSt11char_traitsIcESaIcEEEED2Ev = comdat any

$_ZNSt15__new_allocatorIN8nlohmann16json_abi_v3_11_327byte_container_with_subtypeISt6vectorIhSaIhEEEEEC2Ev = comdat any

$_ZNSt15__new_allocatorIN8nlohmann16json_abi_v3_11_327byte_container_with_subtypeISt6vectorIhSaIhEEEEE7destroyIS6_EEvPT_ = comdat any

$_ZN8nlohmann16json_abi_v3_11_327byte_container_with_subtypeISt6vectorIhSaIhEEED2Ev = comdat any

$_ZSt8_DestroyIPhhEvT_S1_RSaIT0_E = comdat any

$_ZNSt12_Vector_baseIhSaIhEE19_M_get_Tp_allocatorEv = comdat any

$_ZNSt12_Vector_baseIhSaIhEED2Ev = comdat any

$_ZSt8_DestroyIPhEvT_S1_ = comdat any

$_ZNSt12_Destroy_auxILb1EE9__destroyIPhEEvT_S3_ = comdat any

$_ZNSt12_Vector_baseIhSaIhEE13_M_deallocateEPhm = comdat any

$_ZNSt12_Vector_baseIhSaIhEE12_Vector_implD2Ev = comdat any

$_ZNSt16allocator_traitsISaIhEE10deallocateERS0_Phm = comdat any

$_ZNSt15__new_allocatorIhE10deallocateEPhm = comdat any

$_ZNSt15__new_allocatorIhED2Ev = comdat any

$_ZNSt15__new_allocatorIN8nlohmann16json_abi_v3_11_327byte_container_with_subtypeISt6vectorIhSaIhEEEEE10deallocateEPS6_m = comdat any

$_ZNSt15__new_allocatorIN8nlohmann16json_abi_v3_11_327byte_container_with_subtypeISt6vectorIhSaIhEEEEED2Ev = comdat any

$_ZNSt16allocator_traitsISaINSt7__cxx1112basic_stringIcSt11char_traitsIcESaIcEEEEE8allocateERS6_m = comdat any

$_ZNSt10unique_ptrINSt7__cxx1112basic_stringIcSt11char_traitsIcESaIcEEEZN8nlohmann16json_abi_v3_11_310basic_jsonISt3mapSt6vectorS5_blmdSaNS7_14adl_serializerESA_IhSaIhEEvE6createIS5_JRA4_KcEEEPT_DpOT0_EUlPS5_E_EC2ISP_vEESO_RKSP_ = comdat any

$_ZNSt16allocator_traitsISaINSt7__cxx1112basic_stringIcSt11char_traitsIcESaIcEEEEE9constructIS5_JRA4_KcEEEvRS6_PT_DpOT0_ = comdat any

$_ZNKSt10unique_ptrINSt7__cxx1112basic_stringIcSt11char_traitsIcESaIcEEEZN8nlohmann16json_abi_v3_11_310basic_jsonISt3mapSt6vectorS5_blmdSaNS7_14adl_serializerESA_IhSaIhEEvE6createIS5_JRA4_KcEEEPT_DpOT0_EUlPS5_E_E3getEv = comdat any

$_ZNSt10unique_ptrINSt7__cxx1112basic_stringIcSt11char_traitsIcESaIcEEEZN8nlohmann16json_abi_v3_11_310basic_jsonISt3mapSt6vectorS5_blmdSaNS7_14adl_serializerESA_IhSaIhEEvE6createIS5_JRA4_KcEEEPT_DpOT0_EUlPS5_E_E7releaseEv = comdat any

$_ZNSt10unique_ptrINSt7__cxx1112basic_stringIcSt11char_traitsIcESaIcEEEZN8nlohmann16json_abi_v3_11_310basic_jsonISt3mapSt6vectorS5_blmdSaNS7_14adl_serializerESA_IhSaIhEEvE6createIS5_JRA4_KcEEEPT_DpOT0_EUlPS5_E_ED2Ev = comdat any

$_ZNSt15__new_allocatorINSt7__cxx1112basic_stringIcSt11char_traitsIcESaIcEEEE8allocateEmPKv = comdat any

$_ZNKSt15__new_allocatorINSt7__cxx1112basic_stringIcSt11char_traitsIcESaIcEEEE11_M_max_sizeEv = comdat any

$_ZNSt15__uniq_ptr_dataINSt7__cxx1112basic_stringIcSt11char_traitsIcESaIcEEEZN8nlohmann16json_abi_v3_11_310basic_jsonISt3mapSt6vectorS5_blmdSaNS7_14adl_serializerESA_IhSaIhEEvE6createIS5_JRA4_KcEEEPT_DpOT0_EUlPS5_E_Lb1ELb0EECI2St15__uniq_ptr_implIS5_SP_EIRKSP_EESO_OSJ_ = comdat any

$_ZNSt15__uniq_ptr_implINSt7__cxx1112basic_stringIcSt11char_traitsIcESaIcEEEZN8nlohmann16json_abi_v3_11_310basic_jsonISt3mapSt6vectorS5_blmdSaNS7_14adl_serializerESA_IhSaIhEEvE6createIS5_JRA4_KcEEEPT_DpOT0_EUlPS5_E_EC2IRKSP_EESO_OSJ_ = comdat any

$_ZNSt5tupleIJPNSt7__cxx1112basic_stringIcSt11char_traitsIcESaIcEEEZN8nlohmann16json_abi_v3_11_310basic_jsonISt3mapSt6vectorS5_blmdSaNS8_14adl_serializerESB_IhSaIhEEvE6createIS5_JRA4_KcEEEPT_DpOT0_EUlS6_E_EEC2IRS6_RKSP_TnNSt9enable_ifIXclsr4_TCCIXntcl14__is_alloc_argISK_EEEEE29__is_implicitly_constructibleISK_T0_EEEbE4typeELb1EEEOSK_OSW_ = comdat any

$_ZNSt11_Tuple_implILm0EJPNSt7__cxx1112basic_stringIcSt11char_traitsIcESaIcEEEZN8nlohmann16json_abi_v3_11_310basic_jsonISt3mapSt6vectorS5_blmdSaNS8_14adl_serializerESB_IhSaIhEEvE6createIS5_JRA4_KcEEEPT_DpOT0_EUlS6_E_EEC2IRS6_JRKSP_EvEEOSK_SO_ = comdat any

$_ZNSt11_Tuple_implILm1EJZN8nlohmann16json_abi_v3_11_310basic_jsonISt3mapSt6vectorNSt7__cxx1112basic_stringIcSt11char_traitsIcESaIcEEEblmdSaNS1_14adl_serializerES4_IhSaIhEEvE6createISA_JRA4_KcEEEPT_DpOT0_EUlPSA_E_EEC2ERKSP_ = comdat any

$_ZNSt10_Head_baseILm0EPNSt7__cxx1112basic_stringIcSt11char_traitsIcESaIcEEELb0EEC2IRS6_EEOT_ = comdat any

$_ZNSt10_Head_baseILm1EZN8nlohmann16json_abi_v3_11_310basic_jsonISt3mapSt6vectorNSt7__cxx1112basic_stringIcSt11char_traitsIcESaIcEEEblmdSaNS1_14adl_serializerES4_IhSaIhEEvE6createISA_JRA4_KcEEEPT_DpOT0_EUlPSA_E_Lb0EEC2ERKSP_ = comdat any

$_ZNSt15__new_allocatorINSt7__cxx1112basic_stringIcSt11char_traitsIcESaIcEEEE9constructIS5_JRA4_KcEEEvPT_DpOT0_ = comdat any

$_ZNKSt15__uniq_ptr_implINSt7__cxx1112basic_stringIcSt11char_traitsIcESaIcEEEZN8nlohmann16json_abi_v3_11_310basic_jsonISt3mapSt6vectorS5_blmdSaNS7_14adl_serializerESA_IhSaIhEEvE6createIS5_JRA4_KcEEEPT_DpOT0_EUlPS5_E_E6_M_ptrEv = comdat any

$_ZSt3getILm0EJPNSt7__cxx1112basic_stringIcSt11char_traitsIcESaIcEEEZN8nlohmann16json_abi_v3_11_310basic_jsonISt3mapSt6vectorS5_blmdSaNS8_14adl_serializerESB_IhSaIhEEvE6createIS5_JRA4_KcEEEPT_DpOT0_EUlS6_E_EERKNSt13tuple_elementIXT_ESt5tupleIJDpSM_EEE4typeERKST_ = comdat any

$_ZSt12__get_helperILm0EPNSt7__cxx1112basic_stringIcSt11char_traitsIcESaIcEEEJZN8nlohmann16json_abi_v3_11_310basic_jsonISt3mapSt6vectorS5_blmdSaNS8_14adl_serializerESB_IhSaIhEEvE6createIS5_JRA4_KcEEEPT_DpOT0_EUlS6_E_EERKT0_RKSt11_Tuple_implIXT_EJSQ_DpT1_EE = comdat any

$_ZNSt11_Tuple_implILm0EJPNSt7__cxx1112basic_stringIcSt11char_traitsIcESaIcEEEZN8nlohmann16json_abi_v3_11_310basic_jsonISt3mapSt6vectorS5_blmdSaNS8_14adl_serializerESB_IhSaIhEEvE6createIS5_JRA4_KcEEEPT_DpOT0_EUlS6_E_EE7_M_headERKSQ_ = comdat any

$_ZNSt10_Head_baseILm0EPNSt7__cxx1112basic_stringIcSt11char_traitsIcESaIcEEELb0EE7_M_headERKS7_ = comdat any

$_ZNSt15__uniq_ptr_implINSt7__cxx1112basic_stringIcSt11char_traitsIcESaIcEEEZN8nlohmann16json_abi_v3_11_310basic_jsonISt3mapSt6vectorS5_blmdSaNS7_14adl_serializerESA_IhSaIhEEvE6createIS5_JRA4_KcEEEPT_DpOT0_EUlPS5_E_E7releaseEv = comdat any

$_ZNSt15__uniq_ptr_implINSt7__cxx1112basic_stringIcSt11char_traitsIcESaIcEEEZN8nlohmann16json_abi_v3_11_310basic_jsonISt3mapSt6vectorS5_blmdSaNS7_14adl_serializerESA_IhSaIhEEvE6createIS5_JRA4_KcEEEPT_DpOT0_EUlPS5_E_E6_M_ptrEv = comdat any

$_ZSt3getILm0EJPNSt7__cxx1112basic_stringIcSt11char_traitsIcESaIcEEEZN8nlohmann16json_abi_v3_11_310basic_jsonISt3mapSt6vectorS5_blmdSaNS8_14adl_serializerESB_IhSaIhEEvE6createIS5_JRA4_KcEEEPT_DpOT0_EUlS6_E_EERNSt13tuple_elementIXT_ESt5tupleIJDpSM_EEE4typeERST_ = comdat any

$_ZSt12__get_helperILm0EPNSt7__cxx1112basic_stringIcSt11char_traitsIcESaIcEEEJZN8nlohmann16json_abi_v3_11_310basic_jsonISt3mapSt6vectorS5_blmdSaNS8_14adl_serializerESB_IhSaIhEEvE6createIS5_JRA4_KcEEEPT_DpOT0_EUlS6_E_EERT0_RSt11_Tuple_implIXT_EJSQ_DpT1_EE = comdat any

$_ZNSt11_Tuple_implILm0EJPNSt7__cxx1112basic_stringIcSt11char_traitsIcESaIcEEEZN8nlohmann16json_abi_v3_11_310basic_jsonISt3mapSt6vectorS5_blmdSaNS8_14adl_serializerESB_IhSaIhEEvE6createIS5_JRA4_KcEEEPT_DpOT0_EUlS6_E_EE7_M_headERSQ_ = comdat any

$_ZNSt10_Head_baseILm0EPNSt7__cxx1112basic_stringIcSt11char_traitsIcESaIcEEELb0EE7_M_headERS7_ = comdat any

$_ZNSt10unique_ptrINSt7__cxx1112basic_stringIcSt11char_traitsIcESaIcEEEZN8nlohmann16json_abi_v3_11_310basic_jsonISt3mapSt6vectorS5_blmdSaNS7_14adl_serializerESA_IhSaIhEEvE6createIS5_JRA4_KcEEEPT_DpOT0_EUlPS5_E_E11get_deleterEv = comdat any

$_ZZN8nlohmann16json_abi_v3_11_310basic_jsonISt3mapSt6vectorNSt7__cxx1112basic_stringIcSt11char_traitsIcESaIcEEEblmdSaNS0_14adl_serializerES3_IhSaIhEEvE6createIS9_JRA4_KcEEEPT_DpOT0_ENKUlPS9_E_clESN_ = comdat any

$_ZNSt15__uniq_ptr_implINSt7__cxx1112basic_stringIcSt11char_traitsIcESaIcEEEZN8nlohmann16json_abi_v3_11_310basic_jsonISt3mapSt6vectorS5_blmdSaNS7_14adl_serializerESA_IhSaIhEEvE6createIS5_JRA4_KcEEEPT_DpOT0_EUlPS5_E_E10_M_deleterEv = comdat any

$_ZSt3getILm1EJPNSt7__cxx1112basic_stringIcSt11char_traitsIcESaIcEEEZN8nlohmann16json_abi_v3_11_310basic_jsonISt3mapSt6vectorS5_blmdSaNS8_14adl_serializerESB_IhSaIhEEvE6createIS5_JRA4_KcEEEPT_DpOT0_EUlS6_E_EERNSt13tuple_elementIXT_ESt5tupleIJDpSM_EEE4typeERST_ = comdat any

$_ZSt12__get_helperILm1EZN8nlohmann16json_abi_v3_11_310basic_jsonISt3mapSt6vectorNSt7__cxx1112basic_stringIcSt11char_traitsIcESaIcEEEblmdSaNS1_14adl_serializerES4_IhSaIhEEvE6createISA_JRA4_KcEEEPT_DpOT0_EUlPSA_E_JEERT0_RSt11_Tuple_implIXT_EJSQ_DpT1_EE = comdat any

$_ZNSt11_Tuple_implILm1EJZN8nlohmann16json_abi_v3_11_310basic_jsonISt3mapSt6vectorNSt7__cxx1112basic_stringIcSt11char_traitsIcESaIcEEEblmdSaNS1_14adl_serializerES4_IhSaIhEEvE6createISA_JRA4_KcEEEPT_DpOT0_EUlPSA_E_EE7_M_headERSQ_ = comdat any

$_ZNSt10_Head_baseILm1EZN8nlohmann16json_abi_v3_11_310basic_jsonISt3mapSt6vectorNSt7__cxx1112basic_stringIcSt11char_traitsIcESaIcEEEblmdSaNS1_14adl_serializerES4_IhSaIhEEvE6createISA_JRA4_KcEEEPT_DpOT0_EUlPSA_E_Lb0EE7_M_headERSQ_ = comdat any

$_ZN8nlohmann16json_abi_v3_11_310basic_jsonISt3mapSt6vectorNSt7__cxx1112basic_stringIcSt11char_traitsIcESaIcEEEblmdSaNS0_14adl_serializerES3_IhSaIhEEvEC2IiiTnNSt9enable_ifIXaantsr6detail13is_basic_jsonIT0_EE5valuesr6detail18is_compatible_typeISD_SG_EE5valueEiE4typeELi0EEEOT_ = comdat any

$_ZN8nlohmann16json_abi_v3_11_314adl_serializerIivE7to_jsonINS0_10basic_jsonISt3mapSt6vectorNSt7__cxx1112basic_stringIcSt11char_traitsIcESaIcEEEblmdSaS1_S6_IhSaIhEEvEEiEEDTcmclL_ZNS0_12_GLOBAL__N_17to_jsonEEfp_clsr3stdE7forwardIT0_Efp0_EEcvv_EERT_OSH_ = comdat any

$_ZNK8nlohmann16json_abi_v3_11_36detail10to_json_fnclINS0_10basic_jsonISt3mapSt6vectorNSt7__cxx1112basic_stringIcSt11char_traitsIcESaIcEEEblmdSaNS0_14adl_serializerES6_IhSaIhEEvEEiEEDTcmcl7to_jsonfp_clsr3stdE7forwardIT0_Efp0_EEcvv_EERT_OSH_ = comdat any

$_ZN8nlohmann16json_abi_v3_11_36detail7to_jsonINS0_10basic_jsonISt3mapSt6vectorNSt7__cxx1112basic_stringIcSt11char_traitsIcESaIcEEEblmdSaNS0_14adl_serializerES5_IhSaIhEEvEEiTnNSt9enable_ifIXsr26is_compatible_integer_typeINT_16number_integer_tET0_EE5valueEiE4typeELi0EEEvRSH_SJ_ = comdat any

$_ZN8nlohmann16json_abi_v3_11_36detail20external_constructorILNS1_7value_tE5EE9constructINS0_10basic_jsonISt3mapSt6vectorNSt7__cxx1112basic_stringIcSt11char_traitsIcESaIcEEEblmdSaNS0_14adl_serializerES8_IhSaIhEEvEEEEvRT_NSJ_16number_integer_tE = comdat any

$_ZN8nlohmann16json_abi_v3_11_310basic_jsonISt3mapSt6vectorNSt7__cxx1112basic_stringIcSt11char_traitsIcESaIcEEEblmdSaNS0_14adl_serializerES3_IhSaIhEEvE10json_valueC2El = comdat any

$_ZN8nlohmann16json_abi_v3_11_310basic_jsonISt3mapSt6vectorNSt7__cxx1112basic_stringIcSt11char_traitsIcESaIcEEEblmdSaNS0_14adl_serializerES3_IhSaIhEEvEC2IbbTnNSt9enable_ifIXaantsr6detail13is_basic_jsonIT0_EE5valuesr6detail18is_compatible_typeISD_SG_EE5valueEiE4typeELi0EEEOT_ = comdat any

$_ZN8nlohmann16json_abi_v3_11_314adl_serializerIbvE7to_jsonINS0_10basic_jsonISt3mapSt6vectorNSt7__cxx1112basic_stringIcSt11char_traitsIcESaIcEEEblmdSaS1_S6_IhSaIhEEvEEbEEDTcmclL_ZNS0_12_GLOBAL__N_17to_jsonEEfp_clsr3stdE7forwardIT0_Efp0_EEcvv_EERT_OSH_ = comdat any

$_ZNK8nlohmann16json_abi_v3_11_36detail10to_json_fnclINS0_10basic_jsonISt3mapSt6vectorNSt7__cxx1112basic_stringIcSt11char_traitsIcESaIcEEEblmdSaNS0_14adl_serializerES6_IhSaIhEEvEEbEEDTcmcl7to_jsonfp_clsr3stdE7forwardIT0_Efp0_EEcvv_EERT_OSH_ = comdat any

$_ZN8nlohmann16json_abi_v3_11_36detail7to_jsonINS0_10basic_jsonISt3mapSt6vectorNSt7__cxx1112basic_stringIcSt11char_traitsIcESaIcEEEblmdSaNS0_14adl_serializerES5_IhSaIhEEvEEbTnNSt9enable_ifIXsr3std7is_sameIT0_NT_9boolean_tEEE5valueEiE4typeELi0EEEvRSI_SH_ = comdat any

$_ZN8nlohmann16json_abi_v3_11_36detail20external_constructorILNS1_7value_tE4EE9constructINS0_10basic_jsonISt3mapSt6vectorNSt7__cxx1112basic_stringIcSt11char_traitsIcESaIcEEEblmdSaNS0_14adl_serializerES8_IhSaIhEEvEEEEvRT_NSJ_9boolean_tE = comdat any

$_ZN8nlohmann16json_abi_v3_11_310basic_jsonISt3mapSt6vectorNSt7__cxx1112basic_stringIcSt11char_traitsIcESaIcEEEblmdSaNS0_14adl_serializerES3_IhSaIhEEvE10json_valueC2Eb = comdat any

$_ZSt6all_ofIPKN8nlohmann16json_abi_v3_11_36detail8json_refINS1_10basic_jsonISt3mapSt6vectorNSt7__cxx1112basic_stringIcSt11char_traitsIcESaIcEEEblmdSaNS1_14adl_serializerES6_IhSaIhEEvEEEEZNSG_C1ESt16initializer_listISH_EbNS2_7value_tEEUlRSI_E_EbT_SP_T0_ = comdat any

$_ZNKSt16initializer_listIN8nlohmann16json_abi_v3_11_36detail8json_refINS1_10basic_jsonISt3mapSt6vectorNSt7__cxx1112basic_stringIcSt11char_traitsIcESaIcEEEblmdSaNS1_14adl_serializerES6_IhSaIhEEvEEEEE5beginEv = comdat any

$_ZNKSt16initializer_listIN8nlohmann16json_abi_v3_11_36detail8json_refINS1_10basic_jsonISt3mapSt6vectorNSt7__cxx1112basic_stringIcSt11char_traitsIcESaIcEEEblmdSaNS1_14adl_serializerES6_IhSaIhEEvEEEEE3endEv = comdat any

$_ZN8nlohmann16json_abi_v3_11_36detail10type_error6createIDnTnNSt9enable_ifIXsr21is_basic_json_contextIT_EE5valueEiE4typeELi0EEES2_iRKNSt7__cxx1112basic_stringIcSt11char_traitsIcESaIcEEES5_ = comdat any

$_ZN8nlohmann16json_abi_v3_11_36detail10type_errorD2Ev = comdat any

$_ZN8nlohmann16json_abi_v3_11_310basic_jsonISt3mapSt6vectorNSt7__cxx1112basic_stringIcSt11char_traitsIcESaIcEEEblmdSaNS0_14adl_serializerES3_IhSaIhEEvE10json_valueC2ENS0_6detail7value_tE = comdat any

$_ZNK8nlohmann16json_abi_v3_11_36detail8json_refINS0_10basic_jsonISt3mapSt6vectorNSt7__cxx1112basic_stringIcSt11char_traitsIcESaIcEEEblmdSaNS0_14adl_serializerES5_IhSaIhEEvEEE15moved_or_copiedEv = comdat any

$_ZNSt3mapINSt7__cxx1112basic_stringIcSt11char_traitsIcESaIcEEEN8nlohmann16json_abi_v3_11_310basic_jsonIS_St6vectorS5_blmdSaNS7_14adl_serializerES9_IhSaIhEEvEESt4lessIS5_ESaISt4pairIKS5_SD_EEE7emplaceIJS5_SD_EEESG_ISt17_Rb_tree_iteratorISI_EbEDpOT_ = comdat any

$_ZNSt6vectorIN8nlohmann16json_abi_v3_11_310basic_jsonISt3mapS_NSt7__cxx1112basic_stringIcSt11char_traitsIcESaIcEEEblmdSaNS1_14adl_serializerES_IhSaIhEEvEESaISD_EEixEm = comdat any

$_ZN8nlohmann16json_abi_v3_11_310basic_jsonISt3mapSt6vectorNSt7__cxx1112basic_stringIcSt11char_traitsIcESaIcEEEblmdSaNS0_14adl_serializerES3_IhSaIhEEvE6createIS3_ISD_SaISD_EEJPKNS0_6detail8json_refISD_EESL_EEEPT_DpOT0_ = comdat any

$_ZSt11find_if_notIPKN8nlohmann16json_abi_v3_11_36detail8json_refINS1_10basic_jsonISt3mapSt6vectorNSt7__cxx1112basic_stringIcSt11char_traitsIcESaIcEEEblmdSaNS1_14adl_serializerES6_IhSaIhEEvEEEEZNSG_C1ESt16initializer_listISH_EbNS2_7value_tEEUlRSI_E_ET_SP_SP_T0_ = comdat any

$_ZSt13__find_if_notIPKN8nlohmann16json_abi_v3_11_36detail8json_refINS1_10basic_jsonISt3mapSt6vectorNSt7__cxx1112basic_stringIcSt11char_traitsIcESaIcEEEblmdSaNS1_14adl_serializerES6_IhSaIhEEvEEEEN9__gnu_cxx5__ops10_Iter_predIZNSG_C1ESt16initializer_listISH_EbNS2_7value_tEEUlRSI_E_EEET_ST_ST_T0_ = comdat any

$_ZN9__gnu_cxx5__ops11__pred_iterIZN8nlohmann16json_abi_v3_11_310basic_jsonISt3mapSt6vectorNSt7__cxx1112basic_stringIcSt11char_traitsIcESaIcEEEblmdSaNS3_14adl_serializerES6_IhSaIhEEvEC1ESt16initializer_listINS3_6detail8json_refISG_EEEbNSI_7value_tEEUlRKSK_E_EENS0_10_Iter_predIT_EESR_ = comdat any

$_ZSt9__find_ifIPKN8nlohmann16json_abi_v3_11_36detail8json_refINS1_10basic_jsonISt3mapSt6vectorNSt7__cxx1112basic_stringIcSt11char_traitsIcESaIcEEEblmdSaNS1_14adl_serializerES6_IhSaIhEEvEEEEN9__gnu_cxx5__ops12_Iter_negateIZNSG_C1ESt16initializer_listISH_EbNS2_7value_tEEUlRSI_E_EEET_ST_ST_T0_St26random_access_iterator_tag = comdat any

$_ZN9__gnu_cxx5__ops8__negateIZN8nlohmann16json_abi_v3_11_310basic_jsonISt3mapSt6vectorNSt7__cxx1112basic_stringIcSt11char_traitsIcESaIcEEEblmdSaNS3_14adl_serializerES6_IhSaIhEEvEC1ESt16initializer_listINS3_6detail8json_refISG_EEEbNSI_7value_tEEUlRKSK_E_EENS0_12_Iter_negateIT_EENS0_10_Iter_predISR_EE = comdat any

$_ZSt19__iterator_categoryIPKN8nlohmann16json_abi_v3_11_36detail8json_refINS1_10basic_jsonISt3mapSt6vectorNSt7__cxx1112basic_stringIcSt11char_traitsIcESaIcEEEblmdSaNS1_14adl_serializerES6_IhSaIhEEvEEEEENSt15iterator_traitsIT_E17iterator_categoryERKSL_ = comdat any

$_ZN9__gnu_cxx5__ops12_Iter_negateIZN8nlohmann16json_abi_v3_11_310basic_jsonISt3mapSt6vectorNSt7__cxx1112basic_stringIcSt11char_traitsIcESaIcEEEblmdSaNS3_14adl_serializerES6_IhSaIhEEvEC1ESt16initializer_listINS3_6detail8json_refISG_EEEbNSI_7value_tEEUlRKSK_E_EclIPSN_EEbT_ = comdat any

$_ZZN8nlohmann16json_abi_v3_11_310basic_jsonISt3mapSt6vectorNSt7__cxx1112basic_stringIcSt11char_traitsIcESaIcEEEblmdSaNS0_14adl_serializerES3_IhSaIhEEvEC1ESt16initializer_listINS0_6detail8json_refISD_EEEbNSF_7value_tEENKUlRKSH_E_clESL_ = comdat any

$_ZNK8nlohmann16json_abi_v3_11_36detail8json_refINS0_10basic_jsonISt3mapSt6vectorNSt7__cxx1112basic_stringIcSt11char_traitsIcESaIcEEEblmdSaNS0_14adl_serializerES5_IhSaIhEEvEEEptEv = comdat any

$_ZNK8nlohmann16json_abi_v3_11_310basic_jsonISt3mapSt6vectorNSt7__cxx1112basic_stringIcSt11char_traitsIcESaIcEEEblmdSaNS0_14adl_serializerES3_IhSaIhEEvE4sizeEv = comdat any

$_ZNK8nlohmann16json_abi_v3_11_36detail8json_refINS0_10basic_jsonISt3mapSt6vectorNSt7__cxx1112basic_stringIcSt11char_traitsIcESaIcEEEblmdSaNS0_14adl_serializerES5_IhSaIhEEvEEEdeEv = comdat any

$_ZNK8nlohmann16json_abi_v3_11_310basic_jsonISt3mapSt6vectorNSt7__cxx1112basic_stringIcSt11char_traitsIcESaIcEEEblmdSaNS0_14adl_serializerES3_IhSaIhEEvEixEm = comdat any

$_ZNK8nlohmann16json_abi_v3_11_310basic_jsonISt3mapSt6vectorNSt7__cxx1112basic_stringIcSt11char_traitsIcESaIcEEEblmdSaNS0_14adl_serializerES3_IhSaIhEEvE9is_stringEv = comdat any

$_ZN8nlohmann16json_abi_v3_11_36detail10type_error6createIPKNS0_10basic_jsonISt3mapSt6vectorNSt7__cxx1112basic_stringIcSt11char_traitsIcESaIcEEEblmdSaNS0_14adl_serializerES6_IhSaIhEEvEETnNSt9enable_ifIXsr21is_basic_json_contextIT_EE5valueEiE4typeELi0EEES2_iRKSC_SK_ = comdat any

$_ZN8nlohmann16json_abi_v3_11_36detail6concatINSt7__cxx1112basic_stringIcSt11char_traitsIcESaIcEEEJRA52_KcPS9_EEET_DpOT0_ = comdat any

$_ZNK8nlohmann16json_abi_v3_11_310basic_jsonISt3mapSt6vectorNSt7__cxx1112basic_stringIcSt11char_traitsIcESaIcEEEblmdSaNS0_14adl_serializerES3_IhSaIhEEvE9type_nameEv = comdat any

$_ZN8nlohmann16json_abi_v3_11_36detail6concatINSt7__cxx1112basic_stringIcSt11char_traitsIcESaIcEEEJS8_S8_RKS8_EEET_DpOT0_ = comdat any

$_ZN8nlohmann16json_abi_v3_11_36detail9exception4nameERKNSt7__cxx1112basic_stringIcSt11char_traitsIcESaIcEEEi = comdat any

$_ZN8nlohmann16json_abi_v3_11_36detail9exception11diagnosticsINS0_10basic_jsonISt3mapSt6vectorNSt7__cxx1112basic_stringIcSt11char_traitsIcESaIcEEEblmdSaNS0_14adl_serializerES6_IhSaIhEEvEEEESC_PKT_ = comdat any

$_ZN8nlohmann16json_abi_v3_11_36detail10type_errorC2EiPKc = comdat any

$_ZN8nlohmann16json_abi_v3_11_36detail13concat_lengthINSt7__cxx1112basic_stringIcSt11char_traitsIcESaIcEEEJS8_S8_EEEmRKT_DpRKT0_ = comdat any

$_ZN8nlohmann16json_abi_v3_11_36detail11concat_intoINSt7__cxx1112basic_stringIcSt11char_traitsIcESaIcEEES8_JS8_RKS8_ETnNSt9enable_ifIXsr24detect_string_can_appendIT_T0_EE5valueEiE4typeELi0EEEvRSC_OSD_DpOT1_ = comdat any

$_ZN8nlohmann16json_abi_v3_11_36detail13concat_lengthINSt7__cxx1112basic_stringIcSt11char_traitsIcESaIcEEEJS8_EEEmRKT_DpRKT0_ = comdat any

$_ZN8nlohmann16json_abi_v3_11_36detail13concat_lengthINSt7__cxx1112basic_stringIcSt11char_traitsIcESaIcEEEJEEEmRKT_DpRKT0_ = comdat any

$_ZN8nlohmann16json_abi_v3_11_36detail13concat_lengthEv = comdat any

$_ZN8nlohmann16json_abi_v3_11_36detail11concat_intoINSt7__cxx1112basic_stringIcSt11char_traitsIcESaIcEEES8_JRKS8_ETnNSt9enable_ifIXsr24detect_string_can_appendIT_T0_EE5valueEiE4typeELi0EEEvRSC_OSD_DpOT1_ = comdat any

$_ZN8nlohmann16json_abi_v3_11_36detail11concat_intoINSt7__cxx1112basic_stringIcSt11char_traitsIcESaIcEEERKS8_JETnNSt9enable_ifIXsr24detect_string_can_appendIT_T0_EE5valueEiE4typeELi0EEEvRSC_OSD_DpOT1_ = comdat any

$_ZN8nlohmann16json_abi_v3_11_36detail11concat_intoINSt7__cxx1112basic_stringIcSt11char_traitsIcESaIcEEEEEvRT_ = comdat any

$_ZN8nlohmann16json_abi_v3_11_36detail6concatINSt7__cxx1112basic_stringIcSt11char_traitsIcESaIcEEEJRA17_KcRKS8_cS8_RA3_S9_EEET_DpOT0_ = comdat any

$_ZNSt7__cxx119to_stringEi = comdat any

$_ZN8nlohmann16json_abi_v3_11_36detail13concat_lengthIJNSt7__cxx1112basic_stringIcSt11char_traitsIcESaIcEEEcS8_A3_cEEEmPKcDpRKT_ = comdat any

$_ZN8nlohmann16json_abi_v3_11_36detail11concat_intoINSt7__cxx1112basic_stringIcSt11char_traitsIcESaIcEEERA17_KcJRKS8_cS8_RA3_S9_ETnNSt9enable_ifIXsr24detect_string_can_appendIT_T0_EE5valueEiE4typeELi0EEEvRSH_OSI_DpOT1_ = comdat any

$_ZN8nlohmann16json_abi_v3_11_36detail13concat_lengthINSt7__cxx1112basic_stringIcSt11char_traitsIcESaIcEEEJcS8_A3_cEEEmRKT_DpRKT0_ = comdat any

$_ZN8nlohmann16json_abi_v3_11_36detail13concat_lengthIJNSt7__cxx1112basic_stringIcSt11char_traitsIcESaIcEEEA3_cEEEmcDpRKT_ = comdat any

$_ZN8nlohmann16json_abi_v3_11_36detail13concat_lengthINSt7__cxx1112basic_stringIcSt11char_traitsIcESaIcEEEJA3_cEEEmRKT_DpRKT0_ = comdat any

$_ZN8nlohmann16json_abi_v3_11_36detail13concat_lengthIJEEEmPKcDpRKT_ = comdat any

$_ZN8nlohmann16json_abi_v3_11_36detail11concat_intoINSt7__cxx1112basic_stringIcSt11char_traitsIcESaIcEEERKS8_JcS8_RA3_KcETnNSt9enable_ifIXsr24detect_string_can_appendIT_T0_EE5valueEiE4typeELi0EEEvRSF_OSG_DpOT1_ = comdat any

$_ZN8nlohmann16json_abi_v3_11_36detail11concat_intoINSt7__cxx1112basic_stringIcSt11char_traitsIcESaIcEEEcJS8_RA3_KcETnNSt9enable_ifIXaantsr24detect_string_can_appendIT_T0_EE5valuesr27detect_string_can_append_opISD_SE_EE5valueEiE4typeELi0EEEvRSD_OSE_DpOT1_ = comdat any

$_ZN8nlohmann16json_abi_v3_11_36detail11concat_intoINSt7__cxx1112basic_stringIcSt11char_traitsIcESaIcEEES8_JRA3_KcETnNSt9enable_ifIXsr24detect_string_can_appendIT_T0_EE5valueEiE4typeELi0EEEvRSD_OSE_DpOT1_ = comdat any

$_ZN8nlohmann16json_abi_v3_11_36detail11concat_intoINSt7__cxx1112basic_stringIcSt11char_traitsIcESaIcEEERA3_KcJETnNSt9enable_ifIXsr24detect_string_can_appendIT_T0_EE5valueEiE4typeELi0EEEvRSD_OSE_DpOT1_ = comdat any

$_ZNSt8__detail14__to_chars_lenIjEEjT_i = comdat any

$_ZNSt8__detail18__to_chars_10_implIjEEvPcjT_ = comdat any

$_ZN8nlohmann16json_abi_v3_11_36detail9exceptionC2EiPKc = comdat any

$_ZN8nlohmann16json_abi_v3_11_36detail10type_errorD0Ev = comdat any

$_ZNK8nlohmann16json_abi_v3_11_36detail9exception4whatEv = comdat any

$_ZNSt9exceptionC2Ev = comdat any

$_ZN8nlohmann16json_abi_v3_11_36detail9exceptionD2Ev = comdat any

$_ZN8nlohmann16json_abi_v3_11_36detail9exceptionD0Ev = comdat any

$_ZN8nlohmann16json_abi_v3_11_36detail13concat_lengthIJPKcEEEmS4_DpRKT_ = comdat any

$_ZN8nlohmann16json_abi_v3_11_36detail11concat_intoINSt7__cxx1112basic_stringIcSt11char_traitsIcESaIcEEERA52_KcJPS9_ETnNSt9enable_ifIXsr24detect_string_can_appendIT_T0_EE5valueEiE4typeELi0EEEvRSE_OSF_DpOT1_ = comdat any

$_ZN8nlohmann16json_abi_v3_11_36detail11concat_intoINSt7__cxx1112basic_stringIcSt11char_traitsIcESaIcEEEPKcJETnNSt9enable_ifIXsr24detect_string_can_appendIT_T0_EE5valueEiE4typeELi0EEEvRSC_OSD_DpOT1_ = comdat any

$_ZN9__gnu_cxx5__ops12_Iter_negateIZN8nlohmann16json_abi_v3_11_310basic_jsonISt3mapSt6vectorNSt7__cxx1112basic_stringIcSt11char_traitsIcESaIcEEEblmdSaNS3_14adl_serializerES6_IhSaIhEEvEC1ESt16initializer_listINS3_6detail8json_refISG_EEEbNSI_7value_tEEUlRKSK_E_EC2ESP_ = comdat any

$_ZN9__gnu_cxx5__ops10_Iter_predIZN8nlohmann16json_abi_v3_11_310basic_jsonISt3mapSt6vectorNSt7__cxx1112basic_stringIcSt11char_traitsIcESaIcEEEblmdSaNS3_14adl_serializerES6_IhSaIhEEvEC1ESt16initializer_listINS3_6detail8json_refISG_EEEbNSI_7value_tEEUlRKSK_E_EC2ESP_ = comdat any

$_ZNKSt16initializer_listIN8nlohmann16json_abi_v3_11_36detail8json_refINS1_10basic_jsonISt3mapSt6vectorNSt7__cxx1112basic_stringIcSt11char_traitsIcESaIcEEEblmdSaNS1_14adl_serializerES6_IhSaIhEEvEEEEE4sizeEv = comdat any

$_ZN8nlohmann16json_abi_v3_11_36detail9exception11diagnosticsB5cxx11EDn = comdat any

$_ZN8nlohmann16json_abi_v3_11_310basic_jsonISt3mapSt6vectorNSt7__cxx1112basic_stringIcSt11char_traitsIcESaIcEEEblmdSaNS0_14adl_serializerES3_IhSaIhEEvE6createIS2_IS9_SD_St4lessIS9_ESaISt4pairIKS9_SD_EEEJEEEPT_DpOT0_ = comdat any

$_ZN8nlohmann16json_abi_v3_11_310basic_jsonISt3mapSt6vectorNSt7__cxx1112basic_stringIcSt11char_traitsIcESaIcEEEblmdSaNS0_14adl_serializerES3_IhSaIhEEvE6createIS3_ISD_SaISD_EEJEEEPT_DpOT0_ = comdat any

$_ZN8nlohmann16json_abi_v3_11_310basic_jsonISt3mapSt6vectorNSt7__cxx1112basic_stringIcSt11char_traitsIcESaIcEEEblmdSaNS0_14adl_serializerES3_IhSaIhEEvE6createIS9_JRA1_KcEEEPT_DpOT0_ = comdat any

$_ZN8nlohmann16json_abi_v3_11_310basic_jsonISt3mapSt6vectorNSt7__cxx1112basic_stringIcSt11char_traitsIcESaIcEEEblmdSaNS0_14adl_serializerES3_IhSaIhEEvE6createINS0_27byte_container_with_subtypeISC_EEJEEEPT_DpOT0_ = comdat any

$_ZN8nlohmann16json_abi_v3_11_36detail11other_error6createIDnTnNSt9enable_ifIXsr21is_basic_json_contextIT_EE5valueEiE4typeELi0EEES2_iRKNSt7__cxx1112basic_stringIcSt11char_traitsIcESaIcEEES5_ = comdat any

$_ZN8nlohmann16json_abi_v3_11_36detail11other_errorD2Ev = comdat any

$_ZNSt16allocator_traitsISaISt3mapINSt7__cxx1112basic_stringIcSt11char_traitsIcESaIcEEEN8nlohmann16json_abi_v3_11_310basic_jsonIS0_St6vectorS6_blmdSaNS8_14adl_serializerESA_IhSaIhEEvEESt4lessIS6_ESaISt4pairIKS6_SE_EEEEE8allocateERSM_m = comdat any

$_ZNSt10unique_ptrISt3mapINSt7__cxx1112basic_stringIcSt11char_traitsIcESaIcEEEN8nlohmann16json_abi_v3_11_310basic_jsonIS0_St6vectorS6_blmdSaNS8_14adl_serializerESA_IhSaIhEEvEESt4lessIS6_ESaISt4pairIKS6_SE_EEEZNSE_6createISL_JEEEPT_DpOT0_EUlPSL_E_EC2IST_vEESS_RKST_ = comdat any

$_ZNSt16allocator_traitsISaISt3mapINSt7__cxx1112basic_stringIcSt11char_traitsIcESaIcEEEN8nlohmann16json_abi_v3_11_310basic_jsonIS0_St6vectorS6_blmdSaNS8_14adl_serializerESA_IhSaIhEEvEESt4lessIS6_ESaISt4pairIKS6_SE_EEEEE9constructISL_JEEEvRSM_PT_DpOT0_ = comdat any

$_ZNKSt10unique_ptrISt3mapINSt7__cxx1112basic_stringIcSt11char_traitsIcESaIcEEEN8nlohmann16json_abi_v3_11_310basic_jsonIS0_St6vectorS6_blmdSaNS8_14adl_serializerESA_IhSaIhEEvEESt4lessIS6_ESaISt4pairIKS6_SE_EEEZNSE_6createISL_JEEEPT_DpOT0_EUlPSL_E_E3getEv = comdat any

$_ZNSt10unique_ptrISt3mapINSt7__cxx1112basic_stringIcSt11char_traitsIcESaIcEEEN8nlohmann16json_abi_v3_11_310basic_jsonIS0_St6vectorS6_blmdSaNS8_14adl_serializerESA_IhSaIhEEvEESt4lessIS6_ESaISt4pairIKS6_SE_EEEZNSE_6createISL_JEEEPT_DpOT0_EUlPSL_E_E7releaseEv = comdat any

$_ZNSt10unique_ptrISt3mapINSt7__cxx1112basic_stringIcSt11char_traitsIcESaIcEEEN8nlohmann16json_abi_v3_11_310basic_jsonIS0_St6vectorS6_blmdSaNS8_14adl_serializerESA_IhSaIhEEvEESt4lessIS6_ESaISt4pairIKS6_SE_EEEZNSE_6createISL_JEEEPT_DpOT0_EUlPSL_E_ED2Ev = comdat any

$_ZNSt15__new_allocatorISt3mapINSt7__cxx1112basic_stringIcSt11char_traitsIcESaIcEEEN8nlohmann16json_abi_v3_11_310basic_jsonIS0_St6vectorS6_blmdSaNS8_14adl_serializerESA_IhSaIhEEvEESt4lessIS6_ESaISt4pairIKS6_SE_EEEE8allocateEmPKv = comdat any

$_ZNKSt15__new_allocatorISt3mapINSt7__cxx1112basic_stringIcSt11char_traitsIcESaIcEEEN8nlohmann16json_abi_v3_11_310basic_jsonIS0_St6vectorS6_blmdSaNS8_14adl_serializerESA_IhSaIhEEvEESt4lessIS6_ESaISt4pairIKS6_SE_EEEE11_M_max_sizeEv = comdat any

$_ZNSt15__uniq_ptr_dataISt3mapINSt7__cxx1112basic_stringIcSt11char_traitsIcESaIcEEEN8nlohmann16json_abi_v3_11_310basic_jsonIS0_St6vectorS6_blmdSaNS8_14adl_serializerESA_IhSaIhEEvEESt4lessIS6_ESaISt4pairIKS6_SE_EEEZNSE_6createISL_JEEEPT_DpOT0_EUlPSL_E_Lb1ELb0EECI2St15__uniq_ptr_implISL_ST_EIRKST_EESS_OSN_ = comdat any

$_ZNSt15__uniq_ptr_implISt3mapINSt7__cxx1112basic_stringIcSt11char_traitsIcESaIcEEEN8nlohmann16json_abi_v3_11_310basic_jsonIS0_St6vectorS6_blmdSaNS8_14adl_serializerESA_IhSaIhEEvEESt4lessIS6_ESaISt4pairIKS6_SE_EEEZNSE_6createISL_JEEEPT_DpOT0_EUlPSL_E_EC2IRKST_EESS_OSN_ = comdat any

$_ZNSt5tupleIJPSt3mapINSt7__cxx1112basic_stringIcSt11char_traitsIcESaIcEEEN8nlohmann16json_abi_v3_11_310basic_jsonIS0_St6vectorS6_blmdSaNS8_14adl_serializerESA_IhSaIhEEvEESt4lessIS6_ESaISt4pairIKS6_SE_EEEZNSE_6createISL_JEEEPT_DpOT0_EUlSM_E_EEC2IRSM_RKST_TnNSt9enable_ifIXclsr4_TCCIXntcl14__is_alloc_argISO_EEEEE29__is_implicitly_constructibleISO_T0_EEEbE4typeELb1EEEOSO_OS10_ = comdat any

$_ZNSt11_Tuple_implILm0EJPSt3mapINSt7__cxx1112basic_stringIcSt11char_traitsIcESaIcEEEN8nlohmann16json_abi_v3_11_310basic_jsonIS0_St6vectorS6_blmdSaNS8_14adl_serializerESA_IhSaIhEEvEESt4lessIS6_ESaISt4pairIKS6_SE_EEEZNSE_6createISL_JEEEPT_DpOT0_EUlSM_E_EEC2IRSM_JRKST_EvEEOSO_SS_ = comdat any

$_ZNSt11_Tuple_implILm1EJZN8nlohmann16json_abi_v3_11_310basic_jsonISt3mapSt6vectorNSt7__cxx1112basic_stringIcSt11char_traitsIcESaIcEEEblmdSaNS1_14adl_serializerES4_IhSaIhEEvE6createIS3_ISA_SE_St4lessISA_ESaISt4pairIKSA_SE_EEEJEEEPT_DpOT0_EUlPSM_E_EEC2ERKST_ = comdat any

$_ZNSt10_Head_baseILm0EPSt3mapINSt7__cxx1112basic_stringIcSt11char_traitsIcESaIcEEEN8nlohmann16json_abi_v3_11_310basic_jsonIS0_St6vectorS6_blmdSaNS8_14adl_serializerESA_IhSaIhEEvEESt4lessIS6_ESaISt4pairIKS6_SE_EEELb0EEC2IRSM_EEOT_ = comdat any

$_ZNSt10_Head_baseILm1EZN8nlohmann16json_abi_v3_11_310basic_jsonISt3mapSt6vectorNSt7__cxx1112basic_stringIcSt11char_traitsIcESaIcEEEblmdSaNS1_14adl_serializerES4_IhSaIhEEvE6createIS3_ISA_SE_St4lessISA_ESaISt4pairIKSA_SE_EEEJEEEPT_DpOT0_EUlPSM_E_Lb0EEC2ERKST_ = comdat any

$_ZNSt15__new_allocatorISt3mapINSt7__cxx1112basic_stringIcSt11char_traitsIcESaIcEEEN8nlohmann16json_abi_v3_11_310basic_jsonIS0_St6vectorS6_blmdSaNS8_14adl_serializerESA_IhSaIhEEvEESt4lessIS6_ESaISt4pairIKS6_SE_EEEE9constructISL_JEEEvPT_DpOT0_ = comdat any

$_ZNSt3mapINSt7__cxx1112basic_stringIcSt11char_traitsIcESaIcEEEN8nlohmann16json_abi_v3_11_310basic_jsonIS_St6vectorS5_blmdSaNS7_14adl_serializerES9_IhSaIhEEvEESt4lessIS5_ESaISt4pairIKS5_SD_EEEC2Ev = comdat any

$_ZNSt8_Rb_treeINSt7__cxx1112basic_stringIcSt11char_traitsIcESaIcEEESt4pairIKS5_N8nlohmann16json_abi_v3_11_310basic_jsonISt3mapSt6vectorS5_blmdSaNS9_14adl_serializerESC_IhSaIhEEvEEESt10_Select1stISH_ESt4lessIS5_ESaISH_EEC2Ev = comdat any

$_ZNSt8_Rb_treeINSt7__cxx1112basic_stringIcSt11char_traitsIcESaIcEEESt4pairIKS5_N8nlohmann16json_abi_v3_11_310basic_jsonISt3mapSt6vectorS5_blmdSaNS9_14adl_serializerESC_IhSaIhEEvEEESt10_Select1stISH_ESt4lessIS5_ESaISH_EE13_Rb_tree_implISL_Lb1EEC2Ev = comdat any

$_ZNSaISt13_Rb_tree_nodeISt4pairIKNSt7__cxx1112basic_stringIcSt11char_traitsIcESaIcEEEN8nlohmann16json_abi_v3_11_310basic_jsonISt3mapSt6vectorS6_blmdSaNS9_14adl_serializerESC_IhSaIhEEvEEEEEC2Ev = comdat any

$_ZNSt20_Rb_tree_key_compareISt4lessINSt7__cxx1112basic_stringIcSt11char_traitsIcESaIcEEEEEC2Ev = comdat any

$_ZNSt15_Rb_tree_headerC2Ev = comdat any

$_ZNSt15__new_allocatorISt13_Rb_tree_nodeISt4pairIKNSt7__cxx1112basic_stringIcSt11char_traitsIcESaIcEEEN8nlohmann16json_abi_v3_11_310basic_jsonISt3mapSt6vectorS7_blmdSaNSA_14adl_serializerESD_IhSaIhEEvEEEEEC2Ev = comdat any

$_ZNKSt15__uniq_ptr_implISt3mapINSt7__cxx1112basic_stringIcSt11char_traitsIcESaIcEEEN8nlohmann16json_abi_v3_11_310basic_jsonIS0_St6vectorS6_blmdSaNS8_14adl_serializerESA_IhSaIhEEvEESt4lessIS6_ESaISt4pairIKS6_SE_EEEZNSE_6createISL_JEEEPT_DpOT0_EUlPSL_E_E6_M_ptrEv = comdat any

$_ZSt3getILm0EJPSt3mapINSt7__cxx1112basic_stringIcSt11char_traitsIcESaIcEEEN8nlohmann16json_abi_v3_11_310basic_jsonIS0_St6vectorS6_blmdSaNS8_14adl_serializerESA_IhSaIhEEvEESt4lessIS6_ESaISt4pairIKS6_SE_EEEZNSE_6createISL_JEEEPT_DpOT0_EUlSM_E_EERKNSt13tuple_elementIXT_ESt5tupleIJDpSQ_EEE4typeERKSX_ = comdat any

$_ZSt12__get_helperILm0EPSt3mapINSt7__cxx1112basic_stringIcSt11char_traitsIcESaIcEEEN8nlohmann16json_abi_v3_11_310basic_jsonIS0_St6vectorS6_blmdSaNS8_14adl_serializerESA_IhSaIhEEvEESt4lessIS6_ESaISt4pairIKS6_SE_EEEJZNSE_6createISL_JEEEPT_DpOT0_EUlSM_E_EERKT0_RKSt11_Tuple_implIXT_EJSU_DpT1_EE = comdat any

$_ZNSt11_Tuple_implILm0EJPSt3mapINSt7__cxx1112basic_stringIcSt11char_traitsIcESaIcEEEN8nlohmann16json_abi_v3_11_310basic_jsonIS0_St6vectorS6_blmdSaNS8_14adl_serializerESA_IhSaIhEEvEESt4lessIS6_ESaISt4pairIKS6_SE_EEEZNSE_6createISL_JEEEPT_DpOT0_EUlSM_E_EE7_M_headERKSU_ = comdat any

$_ZNSt10_Head_baseILm0EPSt3mapINSt7__cxx1112basic_stringIcSt11char_traitsIcESaIcEEEN8nlohmann16json_abi_v3_11_310basic_jsonIS0_St6vectorS6_blmdSaNS8_14adl_serializerESA_IhSaIhEEvEESt4lessIS6_ESaISt4pairIKS6_SE_EEELb0EE7_M_headERKSN_ = comdat any

$_ZNSt15__uniq_ptr_implISt3mapINSt7__cxx1112basic_stringIcSt11char_traitsIcESaIcEEEN8nlohmann16json_abi_v3_11_310basic_jsonIS0_St6vectorS6_blmdSaNS8_14adl_serializerESA_IhSaIhEEvEESt4lessIS6_ESaISt4pairIKS6_SE_EEEZNSE_6createISL_JEEEPT_DpOT0_EUlPSL_E_E7releaseEv = comdat any

$_ZNSt15__uniq_ptr_implISt3mapINSt7__cxx1112basic_stringIcSt11char_traitsIcESaIcEEEN8nlohmann16json_abi_v3_11_310basic_jsonIS0_St6vectorS6_blmdSaNS8_14adl_serializerESA_IhSaIhEEvEESt4lessIS6_ESaISt4pairIKS6_SE_EEEZNSE_6createISL_JEEEPT_DpOT0_EUlPSL_E_E6_M_ptrEv = comdat any

$_ZSt3getILm0EJPSt3mapINSt7__cxx1112basic_stringIcSt11char_traitsIcESaIcEEEN8nlohmann16json_abi_v3_11_310basic_jsonIS0_St6vectorS6_blmdSaNS8_14adl_serializerESA_IhSaIhEEvEESt4lessIS6_ESaISt4pairIKS6_SE_EEEZNSE_6createISL_JEEEPT_DpOT0_EUlSM_E_EERNSt13tuple_elementIXT_ESt5tupleIJDpSQ_EEE4typeERSX_ = comdat any

$_ZSt12__get_helperILm0EPSt3mapINSt7__cxx1112basic_stringIcSt11char_traitsIcESaIcEEEN8nlohmann16json_abi_v3_11_310basic_jsonIS0_St6vectorS6_blmdSaNS8_14adl_serializerESA_IhSaIhEEvEESt4lessIS6_ESaISt4pairIKS6_SE_EEEJZNSE_6createISL_JEEEPT_DpOT0_EUlSM_E_EERT0_RSt11_Tuple_implIXT_EJSU_DpT1_EE = comdat any

$_ZNSt11_Tuple_implILm0EJPSt3mapINSt7__cxx1112basic_stringIcSt11char_traitsIcESaIcEEEN8nlohmann16json_abi_v3_11_310basic_jsonIS0_St6vectorS6_blmdSaNS8_14adl_serializerESA_IhSaIhEEvEESt4lessIS6_ESaISt4pairIKS6_SE_EEEZNSE_6createISL_JEEEPT_DpOT0_EUlSM_E_EE7_M_headERSU_ = comdat any

$_ZNSt10_Head_baseILm0EPSt3mapINSt7__cxx1112basic_stringIcSt11char_traitsIcESaIcEEEN8nlohmann16json_abi_v3_11_310basic_jsonIS0_St6vectorS6_blmdSaNS8_14adl_serializerESA_IhSaIhEEvEESt4lessIS6_ESaISt4pairIKS6_SE_EEELb0EE7_M_headERSN_ = comdat any

$_ZNSt10unique_ptrISt3mapINSt7__cxx1112basic_stringIcSt11char_traitsIcESaIcEEEN8nlohmann16json_abi_v3_11_310basic_jsonIS0_St6vectorS6_blmdSaNS8_14adl_serializerESA_IhSaIhEEvEESt4lessIS6_ESaISt4pairIKS6_SE_EEEZNSE_6createISL_JEEEPT_DpOT0_EUlPSL_E_E11get_deleterEv = comdat any

$_ZZN8nlohmann16json_abi_v3_11_310basic_jsonISt3mapSt6vectorNSt7__cxx1112basic_stringIcSt11char_traitsIcESaIcEEEblmdSaNS0_14adl_serializerES3_IhSaIhEEvE6createIS2_IS9_SD_St4lessIS9_ESaISt4pairIKS9_SD_EEEJEEEPT_DpOT0_ENKUlPSL_E_clESR_ = comdat any

$_ZNSt15__uniq_ptr_implISt3mapINSt7__cxx1112basic_stringIcSt11char_traitsIcESaIcEEEN8nlohmann16json_abi_v3_11_310basic_jsonIS0_St6vectorS6_blmdSaNS8_14adl_serializerESA_IhSaIhEEvEESt4lessIS6_ESaISt4pairIKS6_SE_EEEZNSE_6createISL_JEEEPT_DpOT0_EUlPSL_E_E10_M_deleterEv = comdat any

$_ZSt3getILm1EJPSt3mapINSt7__cxx1112basic_stringIcSt11char_traitsIcESaIcEEEN8nlohmann16json_abi_v3_11_310basic_jsonIS0_St6vectorS6_blmdSaNS8_14adl_serializerESA_IhSaIhEEvEESt4lessIS6_ESaISt4pairIKS6_SE_EEEZNSE_6createISL_JEEEPT_DpOT0_EUlSM_E_EERNSt13tuple_elementIXT_ESt5tupleIJDpSQ_EEE4typeERSX_ = comdat any

$_ZSt12__get_helperILm1EZN8nlohmann16json_abi_v3_11_310basic_jsonISt3mapSt6vectorNSt7__cxx1112basic_stringIcSt11char_traitsIcESaIcEEEblmdSaNS1_14adl_serializerES4_IhSaIhEEvE6createIS3_ISA_SE_St4lessISA_ESaISt4pairIKSA_SE_EEEJEEEPT_DpOT0_EUlPSM_E_JEERT0_RSt11_Tuple_implIXT_EJSU_DpT1_EE = comdat any

$_ZNSt11_Tuple_implILm1EJZN8nlohmann16json_abi_v3_11_310basic_jsonISt3mapSt6vectorNSt7__cxx1112basic_stringIcSt11char_traitsIcESaIcEEEblmdSaNS1_14adl_serializerES4_IhSaIhEEvE6createIS3_ISA_SE_St4lessISA_ESaISt4pairIKSA_SE_EEEJEEEPT_DpOT0_EUlPSM_E_EE7_M_headERSU_ = comdat any

$_ZNSt10_Head_baseILm1EZN8nlohmann16json_abi_v3_11_310basic_jsonISt3mapSt6vectorNSt7__cxx1112basic_stringIcSt11char_traitsIcESaIcEEEblmdSaNS1_14adl_serializerES4_IhSaIhEEvE6createIS3_ISA_SE_St4lessISA_ESaISt4pairIKSA_SE_EEEJEEEPT_DpOT0_EUlPSM_E_Lb0EE7_M_headERSU_ = comdat any

$_ZNSt16allocator_traitsISaISt6vectorIN8nlohmann16json_abi_v3_11_310basic_jsonISt3mapS0_NSt7__cxx1112basic_stringIcSt11char_traitsIcESaIcEEEblmdSaNS2_14adl_serializerES0_IhSaIhEEvEESaISE_EEEE8allocateERSH_m = comdat any

$_ZNSt10unique_ptrISt6vectorIN8nlohmann16json_abi_v3_11_310basic_jsonISt3mapS0_NSt7__cxx1112basic_stringIcSt11char_traitsIcESaIcEEEblmdSaNS2_14adl_serializerES0_IhSaIhEEvEESaISE_EEZNSE_6createISG_JEEEPT_DpOT0_EUlPSG_E_EC2ISO_vEESN_RKSO_ = comdat any

$_ZNSt16allocator_traitsISaISt6vectorIN8nlohmann16json_abi_v3_11_310basic_jsonISt3mapS0_NSt7__cxx1112basic_stringIcSt11char_traitsIcESaIcEEEblmdSaNS2_14adl_serializerES0_IhSaIhEEvEESaISE_EEEE9constructISG_JEEEvRSH_PT_DpOT0_ = comdat any

$_ZNKSt10unique_ptrISt6vectorIN8nlohmann16json_abi_v3_11_310basic_jsonISt3mapS0_NSt7__cxx1112basic_stringIcSt11char_traitsIcESaIcEEEblmdSaNS2_14adl_serializerES0_IhSaIhEEvEESaISE_EEZNSE_6createISG_JEEEPT_DpOT0_EUlPSG_E_E3getEv = comdat any

$_ZNSt10unique_ptrISt6vectorIN8nlohmann16json_abi_v3_11_310basic_jsonISt3mapS0_NSt7__cxx1112basic_stringIcSt11char_traitsIcESaIcEEEblmdSaNS2_14adl_serializerES0_IhSaIhEEvEESaISE_EEZNSE_6createISG_JEEEPT_DpOT0_EUlPSG_E_E7releaseEv = comdat any

$_ZNSt10unique_ptrISt6vectorIN8nlohmann16json_abi_v3_11_310basic_jsonISt3mapS0_NSt7__cxx1112basic_stringIcSt11char_traitsIcESaIcEEEblmdSaNS2_14adl_serializerES0_IhSaIhEEvEESaISE_EEZNSE_6createISG_JEEEPT_DpOT0_EUlPSG_E_ED2Ev = comdat any

$_ZNSt15__new_allocatorISt6vectorIN8nlohmann16json_abi_v3_11_310basic_jsonISt3mapS0_NSt7__cxx1112basic_stringIcSt11char_traitsIcESaIcEEEblmdSaNS2_14adl_serializerES0_IhSaIhEEvEESaISE_EEE8allocateEmPKv = comdat any

$_ZNKSt15__new_allocatorISt6vectorIN8nlohmann16json_abi_v3_11_310basic_jsonISt3mapS0_NSt7__cxx1112basic_stringIcSt11char_traitsIcESaIcEEEblmdSaNS2_14adl_serializerES0_IhSaIhEEvEESaISE_EEE11_M_max_sizeEv = comdat any

$_ZNSt15__uniq_ptr_dataISt6vectorIN8nlohmann16json_abi_v3_11_310basic_jsonISt3mapS0_NSt7__cxx1112basic_stringIcSt11char_traitsIcESaIcEEEblmdSaNS2_14adl_serializerES0_IhSaIhEEvEESaISE_EEZNSE_6createISG_JEEEPT_DpOT0_EUlPSG_E_Lb1ELb0EECI2St15__uniq_ptr_implISG_SO_EIRKSO_EESN_OSI_ = comdat any

$_ZNSt15__uniq_ptr_implISt6vectorIN8nlohmann16json_abi_v3_11_310basic_jsonISt3mapS0_NSt7__cxx1112basic_stringIcSt11char_traitsIcESaIcEEEblmdSaNS2_14adl_serializerES0_IhSaIhEEvEESaISE_EEZNSE_6createISG_JEEEPT_DpOT0_EUlPSG_E_EC2IRKSO_EESN_OSI_ = comdat any

$_ZNSt5tupleIJPSt6vectorIN8nlohmann16json_abi_v3_11_310basic_jsonISt3mapS0_NSt7__cxx1112basic_stringIcSt11char_traitsIcESaIcEEEblmdSaNS2_14adl_serializerES0_IhSaIhEEvEESaISE_EEZNSE_6createISG_JEEEPT_DpOT0_EUlSH_E_EEC2IRSH_RKSO_TnNSt9enable_ifIXclsr4_TCCIXntcl14__is_alloc_argISJ_EEEEE29__is_implicitly_constructibleISJ_T0_EEEbE4typeELb1EEEOSJ_OSV_ = comdat any

$_ZNSt11_Tuple_implILm0EJPSt6vectorIN8nlohmann16json_abi_v3_11_310basic_jsonISt3mapS0_NSt7__cxx1112basic_stringIcSt11char_traitsIcESaIcEEEblmdSaNS2_14adl_serializerES0_IhSaIhEEvEESaISE_EEZNSE_6createISG_JEEEPT_DpOT0_EUlSH_E_EEC2IRSH_JRKSO_EvEEOSJ_SN_ = comdat any

$_ZNSt11_Tuple_implILm1EJZN8nlohmann16json_abi_v3_11_310basic_jsonISt3mapSt6vectorNSt7__cxx1112basic_stringIcSt11char_traitsIcESaIcEEEblmdSaNS1_14adl_serializerES4_IhSaIhEEvE6createIS4_ISE_SaISE_EEJEEEPT_DpOT0_EUlPSH_E_EEC2ERKSO_ = comdat any

$_ZNSt10_Head_baseILm0EPSt6vectorIN8nlohmann16json_abi_v3_11_310basic_jsonISt3mapS0_NSt7__cxx1112basic_stringIcSt11char_traitsIcESaIcEEEblmdSaNS2_14adl_serializerES0_IhSaIhEEvEESaISE_EELb0EEC2IRSH_EEOT_ = comdat any

$_ZNSt10_Head_baseILm1EZN8nlohmann16json_abi_v3_11_310basic_jsonISt3mapSt6vectorNSt7__cxx1112basic_stringIcSt11char_traitsIcESaIcEEEblmdSaNS1_14adl_serializerES4_IhSaIhEEvE6createIS4_ISE_SaISE_EEJEEEPT_DpOT0_EUlPSH_E_Lb0EEC2ERKSO_ = comdat any

$_ZNSt15__new_allocatorISt6vectorIN8nlohmann16json_abi_v3_11_310basic_jsonISt3mapS0_NSt7__cxx1112basic_stringIcSt11char_traitsIcESaIcEEEblmdSaNS2_14adl_serializerES0_IhSaIhEEvEESaISE_EEE9constructISG_JEEEvPT_DpOT0_ = comdat any

$_ZNKSt15__uniq_ptr_implISt6vectorIN8nlohmann16json_abi_v3_11_310basic_jsonISt3mapS0_NSt7__cxx1112basic_stringIcSt11char_traitsIcESaIcEEEblmdSaNS2_14adl_serializerES0_IhSaIhEEvEESaISE_EEZNSE_6createISG_JEEEPT_DpOT0_EUlPSG_E_E6_M_ptrEv = comdat any

$_ZSt3getILm0EJPSt6vectorIN8nlohmann16json_abi_v3_11_310basic_jsonISt3mapS0_NSt7__cxx1112basic_stringIcSt11char_traitsIcESaIcEEEblmdSaNS2_14adl_serializerES0_IhSaIhEEvEESaISE_EEZNSE_6createISG_JEEEPT_DpOT0_EUlSH_E_EERKNSt13tuple_elementIXT_ESt5tupleIJDpSL_EEE4typeERKSS_ = comdat any

$_ZSt12__get_helperILm0EPSt6vectorIN8nlohmann16json_abi_v3_11_310basic_jsonISt3mapS0_NSt7__cxx1112basic_stringIcSt11char_traitsIcESaIcEEEblmdSaNS2_14adl_serializerES0_IhSaIhEEvEESaISE_EEJZNSE_6createISG_JEEEPT_DpOT0_EUlSH_E_EERKT0_RKSt11_Tuple_implIXT_EJSP_DpT1_EE = comdat any

$_ZNSt11_Tuple_implILm0EJPSt6vectorIN8nlohmann16json_abi_v3_11_310basic_jsonISt3mapS0_NSt7__cxx1112basic_stringIcSt11char_traitsIcESaIcEEEblmdSaNS2_14adl_serializerES0_IhSaIhEEvEESaISE_EEZNSE_6createISG_JEEEPT_DpOT0_EUlSH_E_EE7_M_headERKSP_ = comdat any

$_ZNSt10_Head_baseILm0EPSt6vectorIN8nlohmann16json_abi_v3_11_310basic_jsonISt3mapS0_NSt7__cxx1112basic_stringIcSt11char_traitsIcESaIcEEEblmdSaNS2_14adl_serializerES0_IhSaIhEEvEESaISE_EELb0EE7_M_headERKSI_ = comdat any

$_ZNSt15__uniq_ptr_implISt6vectorIN8nlohmann16json_abi_v3_11_310basic_jsonISt3mapS0_NSt7__cxx1112basic_stringIcSt11char_traitsIcESaIcEEEblmdSaNS2_14adl_serializerES0_IhSaIhEEvEESaISE_EEZNSE_6createISG_JEEEPT_DpOT0_EUlPSG_E_E7releaseEv = comdat any

$_ZNSt15__uniq_ptr_implISt6vectorIN8nlohmann16json_abi_v3_11_310basic_jsonISt3mapS0_NSt7__cxx1112basic_stringIcSt11char_traitsIcESaIcEEEblmdSaNS2_14adl_serializerES0_IhSaIhEEvEESaISE_EEZNSE_6createISG_JEEEPT_DpOT0_EUlPSG_E_E6_M_ptrEv = comdat any

$_ZSt3getILm0EJPSt6vectorIN8nlohmann16json_abi_v3_11_310basic_jsonISt3mapS0_NSt7__cxx1112basic_stringIcSt11char_traitsIcESaIcEEEblmdSaNS2_14adl_serializerES0_IhSaIhEEvEESaISE_EEZNSE_6createISG_JEEEPT_DpOT0_EUlSH_E_EERNSt13tuple_elementIXT_ESt5tupleIJDpSL_EEE4typeERSS_ = comdat any

$_ZSt12__get_helperILm0EPSt6vectorIN8nlohmann16json_abi_v3_11_310basic_jsonISt3mapS0_NSt7__cxx1112basic_stringIcSt11char_traitsIcESaIcEEEblmdSaNS2_14adl_serializerES0_IhSaIhEEvEESaISE_EEJZNSE_6createISG_JEEEPT_DpOT0_EUlSH_E_EERT0_RSt11_Tuple_implIXT_EJSP_DpT1_EE = comdat any

$_ZNSt11_Tuple_implILm0EJPSt6vectorIN8nlohmann16json_abi_v3_11_310basic_jsonISt3mapS0_NSt7__cxx1112basic_stringIcSt11char_traitsIcESaIcEEEblmdSaNS2_14adl_serializerES0_IhSaIhEEvEESaISE_EEZNSE_6createISG_JEEEPT_DpOT0_EUlSH_E_EE7_M_headERSP_ = comdat any

$_ZNSt10_Head_baseILm0EPSt6vectorIN8nlohmann16json_abi_v3_11_310basic_jsonISt3mapS0_NSt7__cxx1112basic_stringIcSt11char_traitsIcESaIcEEEblmdSaNS2_14adl_serializerES0_IhSaIhEEvEESaISE_EELb0EE7_M_headERSI_ = comdat any

$_ZNSt10unique_ptrISt6vectorIN8nlohmann16json_abi_v3_11_310basic_jsonISt3mapS0_NSt7__cxx1112basic_stringIcSt11char_traitsIcESaIcEEEblmdSaNS2_14adl_serializerES0_IhSaIhEEvEESaISE_EEZNSE_6createISG_JEEEPT_DpOT0_EUlPSG_E_E11get_deleterEv = comdat any

$_ZZN8nlohmann16json_abi_v3_11_310basic_jsonISt3mapSt6vectorNSt7__cxx1112basic_stringIcSt11char_traitsIcESaIcEEEblmdSaNS0_14adl_serializerES3_IhSaIhEEvE6createIS3_ISD_SaISD_EEJEEEPT_DpOT0_ENKUlPSG_E_clESM_ = comdat any

$_ZNSt15__uniq_ptr_implISt6vectorIN8nlohmann16json_abi_v3_11_310basic_jsonISt3mapS0_NSt7__cxx1112basic_stringIcSt11char_traitsIcESaIcEEEblmdSaNS2_14adl_serializerES0_IhSaIhEEvEESaISE_EEZNSE_6createISG_JEEEPT_DpOT0_EUlPSG_E_E10_M_deleterEv = comdat any

$_ZSt3getILm1EJPSt6vectorIN8nlohmann16json_abi_v3_11_310basic_jsonISt3mapS0_NSt7__cxx1112basic_stringIcSt11char_traitsIcESaIcEEEblmdSaNS2_14adl_serializerES0_IhSaIhEEvEESaISE_EEZNSE_6createISG_JEEEPT_DpOT0_EUlSH_E_EERNSt13tuple_elementIXT_ESt5tupleIJDpSL_EEE4typeERSS_ = comdat any

$_ZSt12__get_helperILm1EZN8nlohmann16json_abi_v3_11_310basic_jsonISt3mapSt6vectorNSt7__cxx1112basic_stringIcSt11char_traitsIcESaIcEEEblmdSaNS1_14adl_serializerES4_IhSaIhEEvE6createIS4_ISE_SaISE_EEJEEEPT_DpOT0_EUlPSH_E_JEERT0_RSt11_Tuple_implIXT_EJSP_DpT1_EE = comdat any

$_ZNSt11_Tuple_implILm1EJZN8nlohmann16json_abi_v3_11_310basic_jsonISt3mapSt6vectorNSt7__cxx1112basic_stringIcSt11char_traitsIcESaIcEEEblmdSaNS1_14adl_serializerES4_IhSaIhEEvE6createIS4_ISE_SaISE_EEJEEEPT_DpOT0_EUlPSH_E_EE7_M_headERSP_ = comdat any

$_ZNSt10_Head_baseILm1EZN8nlohmann16json_abi_v3_11_310basic_jsonISt3mapSt6vectorNSt7__cxx1112basic_stringIcSt11char_traitsIcESaIcEEEblmdSaNS1_14adl_serializerES4_IhSaIhEEvE6createIS4_ISE_SaISE_EEJEEEPT_DpOT0_EUlPSH_E_Lb0EE7_M_headERSP_ = comdat any

$_ZNSt10unique_ptrINSt7__cxx1112basic_stringIcSt11char_traitsIcESaIcEEEZN8nlohmann16json_abi_v3_11_310basic_jsonISt3mapSt6vectorS5_blmdSaNS7_14adl_serializerESA_IhSaIhEEvE6createIS5_JRA1_KcEEEPT_DpOT0_EUlPS5_E_EC2ISP_vEESO_RKSP_ = comdat any

$_ZNSt16allocator_traitsISaINSt7__cxx1112basic_stringIcSt11char_traitsIcESaIcEEEEE9constructIS5_JRA1_KcEEEvRS6_PT_DpOT0_ = comdat any

$_ZNKSt10unique_ptrINSt7__cxx1112basic_stringIcSt11char_traitsIcESaIcEEEZN8nlohmann16json_abi_v3_11_310basic_jsonISt3mapSt6vectorS5_blmdSaNS7_14adl_serializerESA_IhSaIhEEvE6createIS5_JRA1_KcEEEPT_DpOT0_EUlPS5_E_E3getEv = comdat any

$_ZNSt10unique_ptrINSt7__cxx1112basic_stringIcSt11char_traitsIcESaIcEEEZN8nlohmann16json_abi_v3_11_310basic_jsonISt3mapSt6vectorS5_blmdSaNS7_14adl_serializerESA_IhSaIhEEvE6createIS5_JRA1_KcEEEPT_DpOT0_EUlPS5_E_E7releaseEv = comdat any

$_ZNSt10unique_ptrINSt7__cxx1112basic_stringIcSt11char_traitsIcESaIcEEEZN8nlohmann16json_abi_v3_11_310basic_jsonISt3mapSt6vectorS5_blmdSaNS7_14adl_serializerESA_IhSaIhEEvE6createIS5_JRA1_KcEEEPT_DpOT0_EUlPS5_E_ED2Ev = comdat any

$_ZNSt15__uniq_ptr_dataINSt7__cxx1112basic_stringIcSt11char_traitsIcESaIcEEEZN8nlohmann16json_abi_v3_11_310basic_jsonISt3mapSt6vectorS5_blmdSaNS7_14adl_serializerESA_IhSaIhEEvE6createIS5_JRA1_KcEEEPT_DpOT0_EUlPS5_E_Lb1ELb0EECI2St15__uniq_ptr_implIS5_SP_EIRKSP_EESO_OSJ_ = comdat any

$_ZNSt15__uniq_ptr_implINSt7__cxx1112basic_stringIcSt11char_traitsIcESaIcEEEZN8nlohmann16json_abi_v3_11_310basic_jsonISt3mapSt6vectorS5_blmdSaNS7_14adl_serializerESA_IhSaIhEEvE6createIS5_JRA1_KcEEEPT_DpOT0_EUlPS5_E_EC2IRKSP_EESO_OSJ_ = comdat any

$_ZNSt5tupleIJPNSt7__cxx1112basic_stringIcSt11char_traitsIcESaIcEEEZN8nlohmann16json_abi_v3_11_310basic_jsonISt3mapSt6vectorS5_blmdSaNS8_14adl_serializerESB_IhSaIhEEvE6createIS5_JRA1_KcEEEPT_DpOT0_EUlS6_E_EEC2IRS6_RKSP_TnNSt9enable_ifIXclsr4_TCCIXntcl14__is_alloc_argISK_EEEEE29__is_implicitly_constructibleISK_T0_EEEbE4typeELb1EEEOSK_OSW_ = comdat any

$_ZNSt11_Tuple_implILm0EJPNSt7__cxx1112basic_stringIcSt11char_traitsIcESaIcEEEZN8nlohmann16json_abi_v3_11_310basic_jsonISt3mapSt6vectorS5_blmdSaNS8_14adl_serializerESB_IhSaIhEEvE6createIS5_JRA1_KcEEEPT_DpOT0_EUlS6_E_EEC2IRS6_JRKSP_EvEEOSK_SO_ = comdat any

$_ZNSt11_Tuple_implILm1EJZN8nlohmann16json_abi_v3_11_310basic_jsonISt3mapSt6vectorNSt7__cxx1112basic_stringIcSt11char_traitsIcESaIcEEEblmdSaNS1_14adl_serializerES4_IhSaIhEEvE6createISA_JRA1_KcEEEPT_DpOT0_EUlPSA_E_EEC2ERKSP_ = comdat any

$_ZNSt10_Head_baseILm1EZN8nlohmann16json_abi_v3_11_310basic_jsonISt3mapSt6vectorNSt7__cxx1112basic_stringIcSt11char_traitsIcESaIcEEEblmdSaNS1_14adl_serializerES4_IhSaIhEEvE6createISA_JRA1_KcEEEPT_DpOT0_EUlPSA_E_Lb0EEC2ERKSP_ = comdat any

$_ZNSt15__new_allocatorINSt7__cxx1112basic_stringIcSt11char_traitsIcESaIcEEEE9constructIS5_JRA1_KcEEEvPT_DpOT0_ = comdat any

$_ZNKSt15__uniq_ptr_implINSt7__cxx1112basic_stringIcSt11char_traitsIcESaIcEEEZN8nlohmann16json_abi_v3_11_310basic_jsonISt3mapSt6vectorS5_blmdSaNS7_14adl_serializerESA_IhSaIhEEvE6createIS5_JRA1_KcEEEPT_DpOT0_EUlPS5_E_E6_M_ptrEv = comdat any

$_ZSt3getILm0EJPNSt7__cxx1112basic_stringIcSt11char_traitsIcESaIcEEEZN8nlohmann16json_abi_v3_11_310basic_jsonISt3mapSt6vectorS5_blmdSaNS8_14adl_serializerESB_IhSaIhEEvE6createIS5_JRA1_KcEEEPT_DpOT0_EUlS6_E_EERKNSt13tuple_elementIXT_ESt5tupleIJDpSM_EEE4typeERKST_ = comdat any

$_ZSt12__get_helperILm0EPNSt7__cxx1112basic_stringIcSt11char_traitsIcESaIcEEEJZN8nlohmann16json_abi_v3_11_310basic_jsonISt3mapSt6vectorS5_blmdSaNS8_14adl_serializerESB_IhSaIhEEvE6createIS5_JRA1_KcEEEPT_DpOT0_EUlS6_E_EERKT0_RKSt11_Tuple_implIXT_EJSQ_DpT1_EE = comdat any

$_ZNSt11_Tuple_implILm0EJPNSt7__cxx1112basic_stringIcSt11char_traitsIcESaIcEEEZN8nlohmann16json_abi_v3_11_310basic_jsonISt3mapSt6vectorS5_blmdSaNS8_14adl_serializerESB_IhSaIhEEvE6createIS5_JRA1_KcEEEPT_DpOT0_EUlS6_E_EE7_M_headERKSQ_ = comdat any

$_ZNSt15__uniq_ptr_implINSt7__cxx1112basic_stringIcSt11char_traitsIcESaIcEEEZN8nlohmann16json_abi_v3_11_310basic_jsonISt3mapSt6vectorS5_blmdSaNS7_14adl_serializerESA_IhSaIhEEvE6createIS5_JRA1_KcEEEPT_DpOT0_EUlPS5_E_E7releaseEv = comdat any

$_ZNSt15__uniq_ptr_implINSt7__cxx1112basic_stringIcSt11char_traitsIcESaIcEEEZN8nlohmann16json_abi_v3_11_310basic_jsonISt3mapSt6vectorS5_blmdSaNS7_14adl_serializerESA_IhSaIhEEvE6createIS5_JRA1_KcEEEPT_DpOT0_EUlPS5_E_E6_M_ptrEv = comdat any

$_ZSt3getILm0EJPNSt7__cxx1112basic_stringIcSt11char_traitsIcESaIcEEEZN8nlohmann16json_abi_v3_11_310basic_jsonISt3mapSt6vectorS5_blmdSaNS8_14adl_serializerESB_IhSaIhEEvE6createIS5_JRA1_KcEEEPT_DpOT0_EUlS6_E_EERNSt13tuple_elementIXT_ESt5tupleIJDpSM_EEE4typeERST_ = comdat any

$_ZSt12__get_helperILm0EPNSt7__cxx1112basic_stringIcSt11char_traitsIcESaIcEEEJZN8nlohmann16json_abi_v3_11_310basic_jsonISt3mapSt6vectorS5_blmdSaNS8_14adl_serializerESB_IhSaIhEEvE6createIS5_JRA1_KcEEEPT_DpOT0_EUlS6_E_EERT0_RSt11_Tuple_implIXT_EJSQ_DpT1_EE = comdat any

$_ZNSt11_Tuple_implILm0EJPNSt7__cxx1112basic_stringIcSt11char_traitsIcESaIcEEEZN8nlohmann16json_abi_v3_11_310basic_jsonISt3mapSt6vectorS5_blmdSaNS8_14adl_serializerESB_IhSaIhEEvE6createIS5_JRA1_KcEEEPT_DpOT0_EUlS6_E_EE7_M_headERSQ_ = comdat any

$_ZNSt10unique_ptrINSt7__cxx1112basic_stringIcSt11char_traitsIcESaIcEEEZN8nlohmann16json_abi_v3_11_310basic_jsonISt3mapSt6vectorS5_blmdSaNS7_14adl_serializerESA_IhSaIhEEvE6createIS5_JRA1_KcEEEPT_DpOT0_EUlPS5_E_E11get_deleterEv = comdat any

$_ZZN8nlohmann16json_abi_v3_11_310basic_jsonISt3mapSt6vectorNSt7__cxx1112basic_stringIcSt11char_traitsIcESaIcEEEblmdSaNS0_14adl_serializerES3_IhSaIhEEvE6createIS9_JRA1_KcEEEPT_DpOT0_ENKUlPS9_E_clESN_ = comdat any

$_ZNSt15__uniq_ptr_implINSt7__cxx1112basic_stringIcSt11char_traitsIcESaIcEEEZN8nlohmann16json_abi_v3_11_310basic_jsonISt3mapSt6vectorS5_blmdSaNS7_14adl_serializerESA_IhSaIhEEvE6createIS5_JRA1_KcEEEPT_DpOT0_EUlPS5_E_E10_M_deleterEv = comdat any

$_ZSt3getILm1EJPNSt7__cxx1112basic_stringIcSt11char_traitsIcESaIcEEEZN8nlohmann16json_abi_v3_11_310basic_jsonISt3mapSt6vectorS5_blmdSaNS8_14adl_serializerESB_IhSaIhEEvE6createIS5_JRA1_KcEEEPT_DpOT0_EUlS6_E_EERNSt13tuple_elementIXT_ESt5tupleIJDpSM_EEE4typeERST_ = comdat any

$_ZSt12__get_helperILm1EZN8nlohmann16json_abi_v3_11_310basic_jsonISt3mapSt6vectorNSt7__cxx1112basic_stringIcSt11char_traitsIcESaIcEEEblmdSaNS1_14adl_serializerES4_IhSaIhEEvE6createISA_JRA1_KcEEEPT_DpOT0_EUlPSA_E_JEERT0_RSt11_Tuple_implIXT_EJSQ_DpT1_EE = comdat any

$_ZNSt11_Tuple_implILm1EJZN8nlohmann16json_abi_v3_11_310basic_jsonISt3mapSt6vectorNSt7__cxx1112basic_stringIcSt11char_traitsIcESaIcEEEblmdSaNS1_14adl_serializerES4_IhSaIhEEvE6createISA_JRA1_KcEEEPT_DpOT0_EUlPSA_E_EE7_M_headERSQ_ = comdat any

$_ZNSt10_Head_baseILm1EZN8nlohmann16json_abi_v3_11_310basic_jsonISt3mapSt6vectorNSt7__cxx1112basic_stringIcSt11char_traitsIcESaIcEEEblmdSaNS1_14adl_serializerES4_IhSaIhEEvE6createISA_JRA1_KcEEEPT_DpOT0_EUlPSA_E_Lb0EE7_M_headERSQ_ = comdat any

$_ZNSt16allocator_traitsISaIN8nlohmann16json_abi_v3_11_327byte_container_with_subtypeISt6vectorIhSaIhEEEEEE8allocateERS7_m = comdat any

$_ZNSt10unique_ptrIN8nlohmann16json_abi_v3_11_327byte_container_with_subtypeISt6vectorIhSaIhEEEEZNS1_10basic_jsonISt3mapS3_NSt7__cxx1112basic_stringIcSt11char_traitsIcESaIcEEEblmdSaNS1_14adl_serializerES5_vE6createIS6_JEEEPT_DpOT0_EUlPS6_E_EC2ISO_vEESN_RKSO_ = comdat any

$_ZNSt16allocator_traitsISaIN8nlohmann16json_abi_v3_11_327byte_container_with_subtypeISt6vectorIhSaIhEEEEEE9constructIS6_JEEEvRS7_PT_DpOT0_ = comdat any

$_ZNKSt10unique_ptrIN8nlohmann16json_abi_v3_11_327byte_container_with_subtypeISt6vectorIhSaIhEEEEZNS1_10basic_jsonISt3mapS3_NSt7__cxx1112basic_stringIcSt11char_traitsIcESaIcEEEblmdSaNS1_14adl_serializerES5_vE6createIS6_JEEEPT_DpOT0_EUlPS6_E_E3getEv = comdat any

$_ZNSt10unique_ptrIN8nlohmann16json_abi_v3_11_327byte_container_with_subtypeISt6vectorIhSaIhEEEEZNS1_10basic_jsonISt3mapS3_NSt7__cxx1112basic_stringIcSt11char_traitsIcESaIcEEEblmdSaNS1_14adl_serializerES5_vE6createIS6_JEEEPT_DpOT0_EUlPS6_E_E7releaseEv = comdat any

$_ZNSt10unique_ptrIN8nlohmann16json_abi_v3_11_327byte_container_with_subtypeISt6vectorIhSaIhEEEEZNS1_10basic_jsonISt3mapS3_NSt7__cxx1112basic_stringIcSt11char_traitsIcESaIcEEEblmdSaNS1_14adl_serializerES5_vE6createIS6_JEEEPT_DpOT0_EUlPS6_E_ED2Ev = comdat any

$_ZNSt15__new_allocatorIN8nlohmann16json_abi_v3_11_327byte_container_with_subtypeISt6vectorIhSaIhEEEEE8allocateEmPKv = comdat any

$_ZNKSt15__new_allocatorIN8nlohmann16json_abi_v3_11_327byte_container_with_subtypeISt6vectorIhSaIhEEEEE11_M_max_sizeEv = comdat any

$_ZNSt15__uniq_ptr_dataIN8nlohmann16json_abi_v3_11_327byte_container_with_subtypeISt6vectorIhSaIhEEEEZNS1_10basic_jsonISt3mapS3_NSt7__cxx1112basic_stringIcSt11char_traitsIcESaIcEEEblmdSaNS1_14adl_serializerES5_vE6createIS6_JEEEPT_DpOT0_EUlPS6_E_Lb1ELb0EECI2St15__uniq_ptr_implIS6_SO_EIRKSO_EESN_OSI_ = comdat any

$_ZNSt15__uniq_ptr_implIN8nlohmann16json_abi_v3_11_327byte_container_with_subtypeISt6vectorIhSaIhEEEEZNS1_10basic_jsonISt3mapS3_NSt7__cxx1112basic_stringIcSt11char_traitsIcESaIcEEEblmdSaNS1_14adl_serializerES5_vE6createIS6_JEEEPT_DpOT0_EUlPS6_E_EC2IRKSO_EESN_OSI_ = comdat any

$_ZNSt5tupleIJPN8nlohmann16json_abi_v3_11_327byte_container_with_subtypeISt6vectorIhSaIhEEEEZNS1_10basic_jsonISt3mapS3_NSt7__cxx1112basic_stringIcSt11char_traitsIcESaIcEEEblmdSaNS1_14adl_serializerES5_vE6createIS6_JEEEPT_DpOT0_EUlS7_E_EEC2IRS7_RKSO_TnNSt9enable_ifIXclsr4_TCCIXntcl14__is_alloc_argISJ_EEEEE29__is_implicitly_constructibleISJ_T0_EEEbE4typeELb1EEEOSJ_OSV_ = comdat any

$_ZNSt11_Tuple_implILm0EJPN8nlohmann16json_abi_v3_11_327byte_container_with_subtypeISt6vectorIhSaIhEEEEZNS1_10basic_jsonISt3mapS3_NSt7__cxx1112basic_stringIcSt11char_traitsIcESaIcEEEblmdSaNS1_14adl_serializerES5_vE6createIS6_JEEEPT_DpOT0_EUlS7_E_EEC2IRS7_JRKSO_EvEEOSJ_SN_ = comdat any

$_ZNSt11_Tuple_implILm1EJZN8nlohmann16json_abi_v3_11_310basic_jsonISt3mapSt6vectorNSt7__cxx1112basic_stringIcSt11char_traitsIcESaIcEEEblmdSaNS1_14adl_serializerES4_IhSaIhEEvE6createINS1_27byte_container_with_subtypeISD_EEJEEEPT_DpOT0_EUlPSH_E_EEC2ERKSO_ = comdat any

$_ZNSt10_Head_baseILm0EPN8nlohmann16json_abi_v3_11_327byte_container_with_subtypeISt6vectorIhSaIhEEEELb0EEC2IRS7_EEOT_ = comdat any

$_ZNSt10_Head_baseILm1EZN8nlohmann16json_abi_v3_11_310basic_jsonISt3mapSt6vectorNSt7__cxx1112basic_stringIcSt11char_traitsIcESaIcEEEblmdSaNS1_14adl_serializerES4_IhSaIhEEvE6createINS1_27byte_container_with_subtypeISD_EEJEEEPT_DpOT0_EUlPSH_E_Lb0EEC2ERKSO_ = comdat any

$_ZNSt15__new_allocatorIN8nlohmann16json_abi_v3_11_327byte_container_with_subtypeISt6vectorIhSaIhEEEEE9constructIS6_JEEEvPT_DpOT0_ = comdat any

$_ZN8nlohmann16json_abi_v3_11_327byte_container_with_subtypeISt6vectorIhSaIhEEEC2Ev = comdat any

$_ZNSt12_Vector_baseIhSaIhEEC2Ev = comdat any

$_ZNSt12_Vector_baseIhSaIhEE12_Vector_implC2Ev = comdat any

$_ZNSt12_Vector_baseIhSaIhEE17_Vector_impl_dataC2Ev = comdat any

$_ZNSt15__new_allocatorIhEC2Ev = comdat any

$_ZNKSt15__uniq_ptr_implIN8nlohmann16json_abi_v3_11_327byte_container_with_subtypeISt6vectorIhSaIhEEEEZNS1_10basic_jsonISt3mapS3_NSt7__cxx1112basic_stringIcSt11char_traitsIcESaIcEEEblmdSaNS1_14adl_serializerES5_vE6createIS6_JEEEPT_DpOT0_EUlPS6_E_E6_M_ptrEv = comdat any

$_ZSt3getILm0EJPN8nlohmann16json_abi_v3_11_327byte_container_with_subtypeISt6vectorIhSaIhEEEEZNS1_10basic_jsonISt3mapS3_NSt7__cxx1112basic_stringIcSt11char_traitsIcESaIcEEEblmdSaNS1_14adl_serializerES5_vE6createIS6_JEEEPT_DpOT0_EUlS7_E_EERKNSt13tuple_elementIXT_ESt5tupleIJDpSL_EEE4typeERKSS_ = comdat any

$_ZSt12__get_helperILm0EPN8nlohmann16json_abi_v3_11_327byte_container_with_subtypeISt6vectorIhSaIhEEEEJZNS1_10basic_jsonISt3mapS3_NSt7__cxx1112basic_stringIcSt11char_traitsIcESaIcEEEblmdSaNS1_14adl_serializerES5_vE6createIS6_JEEEPT_DpOT0_EUlS7_E_EERKT0_RKSt11_Tuple_implIXT_EJSP_DpT1_EE = comdat any

$_ZNSt11_Tuple_implILm0EJPN8nlohmann16json_abi_v3_11_327byte_container_with_subtypeISt6vectorIhSaIhEEEEZNS1_10basic_jsonISt3mapS3_NSt7__cxx1112basic_stringIcSt11char_traitsIcESaIcEEEblmdSaNS1_14adl_serializerES5_vE6createIS6_JEEEPT_DpOT0_EUlS7_E_EE7_M_headERKSP_ = comdat any

$_ZNSt10_Head_baseILm0EPN8nlohmann16json_abi_v3_11_327byte_container_with_subtypeISt6vectorIhSaIhEEEELb0EE7_M_headERKS8_ = comdat any

$_ZNSt15__uniq_ptr_implIN8nlohmann16json_abi_v3_11_327byte_container_with_subtypeISt6vectorIhSaIhEEEEZNS1_10basic_jsonISt3mapS3_NSt7__cxx1112basic_stringIcSt11char_traitsIcESaIcEEEblmdSaNS1_14adl_serializerES5_vE6createIS6_JEEEPT_DpOT0_EUlPS6_E_E7releaseEv = comdat any

$_ZNSt15__uniq_ptr_implIN8nlohmann16json_abi_v3_11_327byte_container_with_subtypeISt6vectorIhSaIhEEEEZNS1_10basic_jsonISt3mapS3_NSt7__cxx1112basic_stringIcSt11char_traitsIcESaIcEEEblmdSaNS1_14adl_serializerES5_vE6createIS6_JEEEPT_DpOT0_EUlPS6_E_E6_M_ptrEv = comdat any

$_ZSt3getILm0EJPN8nlohmann16json_abi_v3_11_327byte_container_with_subtypeISt6vectorIhSaIhEEEEZNS1_10basic_jsonISt3mapS3_NSt7__cxx1112basic_stringIcSt11char_traitsIcESaIcEEEblmdSaNS1_14adl_serializerES5_vE6createIS6_JEEEPT_DpOT0_EUlS7_E_EERNSt13tuple_elementIXT_ESt5tupleIJDpSL_EEE4typeERSS_ = comdat any

$_ZSt12__get_helperILm0EPN8nlohmann16json_abi_v3_11_327byte_container_with_subtypeISt6vectorIhSaIhEEEEJZNS1_10basic_jsonISt3mapS3_NSt7__cxx1112basic_stringIcSt11char_traitsIcESaIcEEEblmdSaNS1_14adl_serializerES5_vE6createIS6_JEEEPT_DpOT0_EUlS7_E_EERT0_RSt11_Tuple_implIXT_EJSP_DpT1_EE = comdat any

$_ZNSt11_Tuple_implILm0EJPN8nlohmann16json_abi_v3_11_327byte_container_with_subtypeISt6vectorIhSaIhEEEEZNS1_10basic_jsonISt3mapS3_NSt7__cxx1112basic_stringIcSt11char_traitsIcESaIcEEEblmdSaNS1_14adl_serializerES5_vE6createIS6_JEEEPT_DpOT0_EUlS7_E_EE7_M_headERSP_ = comdat any

$_ZNSt10_Head_baseILm0EPN8nlohmann16json_abi_v3_11_327byte_container_with_subtypeISt6vectorIhSaIhEEEELb0EE7_M_headERS8_ = comdat any

$_ZNSt10unique_ptrIN8nlohmann16json_abi_v3_11_327byte_container_with_subtypeISt6vectorIhSaIhEEEEZNS1_10basic_jsonISt3mapS3_NSt7__cxx1112basic_stringIcSt11char_traitsIcESaIcEEEblmdSaNS1_14adl_serializerES5_vE6createIS6_JEEEPT_DpOT0_EUlPS6_E_E11get_deleterEv = comdat any

$_ZZN8nlohmann16json_abi_v3_11_310basic_jsonISt3mapSt6vectorNSt7__cxx1112basic_stringIcSt11char_traitsIcESaIcEEEblmdSaNS0_14adl_serializerES3_IhSaIhEEvE6createINS0_27byte_container_with_subtypeISC_EEJEEEPT_DpOT0_ENKUlPSG_E_clESM_ = comdat any

$_ZNSt15__uniq_ptr_implIN8nlohmann16json_abi_v3_11_327byte_container_with_subtypeISt6vectorIhSaIhEEEEZNS1_10basic_jsonISt3mapS3_NSt7__cxx1112basic_stringIcSt11char_traitsIcESaIcEEEblmdSaNS1_14adl_serializerES5_vE6createIS6_JEEEPT_DpOT0_EUlPS6_E_E10_M_deleterEv = comdat any

$_ZSt3getILm1EJPN8nlohmann16json_abi_v3_11_327byte_container_with_subtypeISt6vectorIhSaIhEEEEZNS1_10basic_jsonISt3mapS3_NSt7__cxx1112basic_stringIcSt11char_traitsIcESaIcEEEblmdSaNS1_14adl_serializerES5_vE6createIS6_JEEEPT_DpOT0_EUlS7_E_EERNSt13tuple_elementIXT_ESt5tupleIJDpSL_EEE4typeERSS_ = comdat any

$_ZSt12__get_helperILm1EZN8nlohmann16json_abi_v3_11_310basic_jsonISt3mapSt6vectorNSt7__cxx1112basic_stringIcSt11char_traitsIcESaIcEEEblmdSaNS1_14adl_serializerES4_IhSaIhEEvE6createINS1_27byte_container_with_subtypeISD_EEJEEEPT_DpOT0_EUlPSH_E_JEERT0_RSt11_Tuple_implIXT_EJSP_DpT1_EE = comdat any

$_ZNSt11_Tuple_implILm1EJZN8nlohmann16json_abi_v3_11_310basic_jsonISt3mapSt6vectorNSt7__cxx1112basic_stringIcSt11char_traitsIcESaIcEEEblmdSaNS1_14adl_serializerES4_IhSaIhEEvE6createINS1_27byte_container_with_subtypeISD_EEJEEEPT_DpOT0_EUlPSH_E_EE7_M_headERSP_ = comdat any

$_ZNSt10_Head_baseILm1EZN8nlohmann16json_abi_v3_11_310basic_jsonISt3mapSt6vectorNSt7__cxx1112basic_stringIcSt11char_traitsIcESaIcEEEblmdSaNS1_14adl_serializerES4_IhSaIhEEvE6createINS1_27byte_container_with_subtypeISD_EEJEEEPT_DpOT0_EUlPSH_E_Lb0EE7_M_headERSP_ = comdat any

$_ZN8nlohmann16json_abi_v3_11_36detail11other_errorC2EiPKc = comdat any

$_ZN8nlohmann16json_abi_v3_11_36detail11other_errorD0Ev = comdat any

$_ZN8nlohmann16json_abi_v3_11_310basic_jsonISt3mapSt6vectorNSt7__cxx1112basic_stringIcSt11char_traitsIcESaIcEEEblmdSaNS0_14adl_serializerES3_IhSaIhEEvEC2ERKSD_ = comdat any

$_ZN8nlohmann16json_abi_v3_11_310basic_jsonISt3mapSt6vectorNSt7__cxx1112basic_stringIcSt11char_traitsIcESaIcEEEblmdSaNS0_14adl_serializerES3_IhSaIhEEvE10json_valueC2ERKS2_IS9_SD_St4lessIS9_ESaISt4pairIKS9_SD_EEE = comdat any

$_ZN8nlohmann16json_abi_v3_11_310basic_jsonISt3mapSt6vectorNSt7__cxx1112basic_stringIcSt11char_traitsIcESaIcEEEblmdSaNS0_14adl_serializerES3_IhSaIhEEvE10json_valueC2ERKS3_ISD_SaISD_EE = comdat any

$_ZN8nlohmann16json_abi_v3_11_310basic_jsonISt3mapSt6vectorNSt7__cxx1112basic_stringIcSt11char_traitsIcESaIcEEEblmdSaNS0_14adl_serializerES3_IhSaIhEEvE10json_valueC2ERKS9_ = comdat any

$_ZN8nlohmann16json_abi_v3_11_310basic_jsonISt3mapSt6vectorNSt7__cxx1112basic_stringIcSt11char_traitsIcESaIcEEEblmdSaNS0_14adl_serializerES3_IhSaIhEEvE10json_valueC2Em = comdat any

$_ZN8nlohmann16json_abi_v3_11_310basic_jsonISt3mapSt6vectorNSt7__cxx1112basic_stringIcSt11char_traitsIcESaIcEEEblmdSaNS0_14adl_serializerES3_IhSaIhEEvE10json_valueC2Ed = comdat any

$_ZN8nlohmann16json_abi_v3_11_310basic_jsonISt3mapSt6vectorNSt7__cxx1112basic_stringIcSt11char_traitsIcESaIcEEEblmdSaNS0_14adl_serializerES3_IhSaIhEEvE10json_valueC2ERKNS0_27byte_container_with_subtypeISC_EE = comdat any

$_ZN8nlohmann16json_abi_v3_11_310basic_jsonISt3mapSt6vectorNSt7__cxx1112basic_stringIcSt11char_traitsIcESaIcEEEblmdSaNS0_14adl_serializerES3_IhSaIhEEvE6createIS2_IS9_SD_St4lessIS9_ESaISt4pairIKS9_SD_EEEJRKSL_EEEPT_DpOT0_ = comdat any

$_ZNSt10unique_ptrISt3mapINSt7__cxx1112basic_stringIcSt11char_traitsIcESaIcEEEN8nlohmann16json_abi_v3_11_310basic_jsonIS0_St6vectorS6_blmdSaNS8_14adl_serializerESA_IhSaIhEEvEESt4lessIS6_ESaISt4pairIKS6_SE_EEEZNSE_6createISL_JRKSL_EEEPT_DpOT0_EUlPSL_E_EC2ISV_vEESU_RKSV_ = comdat any

$_ZNSt16allocator_traitsISaISt3mapINSt7__cxx1112basic_stringIcSt11char_traitsIcESaIcEEEN8nlohmann16json_abi_v3_11_310basic_jsonIS0_St6vectorS6_blmdSaNS8_14adl_serializerESA_IhSaIhEEvEESt4lessIS6_ESaISt4pairIKS6_SE_EEEEE9constructISL_JRKSL_EEEvRSM_PT_DpOT0_ = comdat any

$_ZNKSt10unique_ptrISt3mapINSt7__cxx1112basic_stringIcSt11char_traitsIcESaIcEEEN8nlohmann16json_abi_v3_11_310basic_jsonIS0_St6vectorS6_blmdSaNS8_14adl_serializerESA_IhSaIhEEvEESt4lessIS6_ESaISt4pairIKS6_SE_EEEZNSE_6createISL_JRKSL_EEEPT_DpOT0_EUlPSL_E_E3getEv = comdat any

$_ZNSt10unique_ptrISt3mapINSt7__cxx1112basic_stringIcSt11char_traitsIcESaIcEEEN8nlohmann16json_abi_v3_11_310basic_jsonIS0_St6vectorS6_blmdSaNS8_14adl_serializerESA_IhSaIhEEvEESt4lessIS6_ESaISt4pairIKS6_SE_EEEZNSE_6createISL_JRKSL_EEEPT_DpOT0_EUlPSL_E_E7releaseEv = comdat any

$_ZNSt10unique_ptrISt3mapINSt7__cxx1112basic_stringIcSt11char_traitsIcESaIcEEEN8nlohmann16json_abi_v3_11_310basic_jsonIS0_St6vectorS6_blmdSaNS8_14adl_serializerESA_IhSaIhEEvEESt4lessIS6_ESaISt4pairIKS6_SE_EEEZNSE_6createISL_JRKSL_EEEPT_DpOT0_EUlPSL_E_ED2Ev = comdat any

$_ZNSt15__uniq_ptr_dataISt3mapINSt7__cxx1112basic_stringIcSt11char_traitsIcESaIcEEEN8nlohmann16json_abi_v3_11_310basic_jsonIS0_St6vectorS6_blmdSaNS8_14adl_serializerESA_IhSaIhEEvEESt4lessIS6_ESaISt4pairIKS6_SE_EEEZNSE_6createISL_JRKSL_EEEPT_DpOT0_EUlPSL_E_Lb1ELb0EECI2St15__uniq_ptr_implISL_SV_EIRKSV_EESU_OSP_ = comdat any

$_ZNSt15__uniq_ptr_implISt3mapINSt7__cxx1112basic_stringIcSt11char_traitsIcESaIcEEEN8nlohmann16json_abi_v3_11_310basic_jsonIS0_St6vectorS6_blmdSaNS8_14adl_serializerESA_IhSaIhEEvEESt4lessIS6_ESaISt4pairIKS6_SE_EEEZNSE_6createISL_JRKSL_EEEPT_DpOT0_EUlPSL_E_EC2IRKSV_EESU_OSP_ = comdat any

$_ZNSt5tupleIJPSt3mapINSt7__cxx1112basic_stringIcSt11char_traitsIcESaIcEEEN8nlohmann16json_abi_v3_11_310basic_jsonIS0_St6vectorS6_blmdSaNS8_14adl_serializerESA_IhSaIhEEvEESt4lessIS6_ESaISt4pairIKS6_SE_EEEZNSE_6createISL_JRKSL_EEEPT_DpOT0_EUlSM_E_EEC2IRSM_RKSV_TnNSt9enable_ifIXclsr4_TCCIXntcl14__is_alloc_argISQ_EEEEE29__is_implicitly_constructibleISQ_T0_EEEbE4typeELb1EEEOSQ_OS12_ = comdat any

$_ZNSt11_Tuple_implILm0EJPSt3mapINSt7__cxx1112basic_stringIcSt11char_traitsIcESaIcEEEN8nlohmann16json_abi_v3_11_310basic_jsonIS0_St6vectorS6_blmdSaNS8_14adl_serializerESA_IhSaIhEEvEESt4lessIS6_ESaISt4pairIKS6_SE_EEEZNSE_6createISL_JRKSL_EEEPT_DpOT0_EUlSM_E_EEC2IRSM_JRKSV_EvEEOSQ_SU_ = comdat any

$_ZNSt11_Tuple_implILm1EJZN8nlohmann16json_abi_v3_11_310basic_jsonISt3mapSt6vectorNSt7__cxx1112basic_stringIcSt11char_traitsIcESaIcEEEblmdSaNS1_14adl_serializerES4_IhSaIhEEvE6createIS3_ISA_SE_St4lessISA_ESaISt4pairIKSA_SE_EEEJRKSM_EEEPT_DpOT0_EUlPSM_E_EEC2ERKSV_ = comdat any

$_ZNSt10_Head_baseILm1EZN8nlohmann16json_abi_v3_11_310basic_jsonISt3mapSt6vectorNSt7__cxx1112basic_stringIcSt11char_traitsIcESaIcEEEblmdSaNS1_14adl_serializerES4_IhSaIhEEvE6createIS3_ISA_SE_St4lessISA_ESaISt4pairIKSA_SE_EEEJRKSM_EEEPT_DpOT0_EUlPSM_E_Lb0EEC2ERKSV_ = comdat any

$_ZNSt15__new_allocatorISt3mapINSt7__cxx1112basic_stringIcSt11char_traitsIcESaIcEEEN8nlohmann16json_abi_v3_11_310basic_jsonIS0_St6vectorS6_blmdSaNS8_14adl_serializerESA_IhSaIhEEvEESt4lessIS6_ESaISt4pairIKS6_SE_EEEE9constructISL_JRKSL_EEEvPT_DpOT0_ = comdat any

$_ZNSt3mapINSt7__cxx1112basic_stringIcSt11char_traitsIcESaIcEEEN8nlohmann16json_abi_v3_11_310basic_jsonIS_St6vectorS5_blmdSaNS7_14adl_serializerES9_IhSaIhEEvEESt4lessIS5_ESaISt4pairIKS5_SD_EEEC2ERKSK_ = comdat any

$_ZNSt8_Rb_treeINSt7__cxx1112basic_stringIcSt11char_traitsIcESaIcEEESt4pairIKS5_N8nlohmann16json_abi_v3_11_310basic_jsonISt3mapSt6vectorS5_blmdSaNS9_14adl_serializerESC_IhSaIhEEvEEESt10_Select1stISH_ESt4lessIS5_ESaISH_EEC2ERKSN_ = comdat any

$_ZNSt8_Rb_treeINSt7__cxx1112basic_stringIcSt11char_traitsIcESaIcEEESt4pairIKS5_N8nlohmann16json_abi_v3_11_310basic_jsonISt3mapSt6vectorS5_blmdSaNS9_14adl_serializerESC_IhSaIhEEvEEESt10_Select1stISH_ESt4lessIS5_ESaISH_EE13_Rb_tree_implISL_Lb1EEC2ERKSP_ = comdat any

$_ZNKSt8_Rb_treeINSt7__cxx1112basic_stringIcSt11char_traitsIcESaIcEEESt4pairIKS5_N8nlohmann16json_abi_v3_11_310basic_jsonISt3mapSt6vectorS5_blmdSaNS9_14adl_serializerESC_IhSaIhEEvEEESt10_Select1stISH_ESt4lessIS5_ESaISH_EE7_M_rootEv = comdat any

$_ZNSt8_Rb_treeINSt7__cxx1112basic_stringIcSt11char_traitsIcESaIcEEESt4pairIKS5_N8nlohmann16json_abi_v3_11_310basic_jsonISt3mapSt6vectorS5_blmdSaNS9_14adl_serializerESC_IhSaIhEEvEEESt10_Select1stISH_ESt4lessIS5_ESaISH_EE7_M_copyERKSN_ = comdat any

$_ZNSt8_Rb_treeINSt7__cxx1112basic_stringIcSt11char_traitsIcESaIcEEESt4pairIKS5_N8nlohmann16json_abi_v3_11_310basic_jsonISt3mapSt6vectorS5_blmdSaNS9_14adl_serializerESC_IhSaIhEEvEEESt10_Select1stISH_ESt4lessIS5_ESaISH_EE7_M_rootEv = comdat any

$_ZN9__gnu_cxx14__alloc_traitsISaISt13_Rb_tree_nodeISt4pairIKNSt7__cxx1112basic_stringIcSt11char_traitsIcESaIcEEEN8nlohmann16json_abi_v3_11_310basic_jsonISt3mapSt6vectorS8_blmdSaNSB_14adl_serializerESE_IhSaIhEEvEEEEESK_E17_S_select_on_copyERKSL_ = comdat any

$_ZNSaISt13_Rb_tree_nodeISt4pairIKNSt7__cxx1112basic_stringIcSt11char_traitsIcESaIcEEEN8nlohmann16json_abi_v3_11_310basic_jsonISt3mapSt6vectorS6_blmdSaNS9_14adl_serializerESC_IhSaIhEEvEEEEED2Ev = comdat any

$_ZNSt20_Rb_tree_key_compareISt4lessINSt7__cxx1112basic_stringIcSt11char_traitsIcESaIcEEEEEC2ERKS7_ = comdat any

$_ZNSt16allocator_traitsISaISt13_Rb_tree_nodeISt4pairIKNSt7__cxx1112basic_stringIcSt11char_traitsIcESaIcEEEN8nlohmann16json_abi_v3_11_310basic_jsonISt3mapSt6vectorS7_blmdSaNSA_14adl_serializerESD_IhSaIhEEvEEEEEE37select_on_container_copy_constructionERKSK_ = comdat any

$_ZNSaISt13_Rb_tree_nodeISt4pairIKNSt7__cxx1112basic_stringIcSt11char_traitsIcESaIcEEEN8nlohmann16json_abi_v3_11_310basic_jsonISt3mapSt6vectorS6_blmdSaNS9_14adl_serializerESC_IhSaIhEEvEEEEEC2ERKSJ_ = comdat any

$_ZNSt15__new_allocatorISt13_Rb_tree_nodeISt4pairIKNSt7__cxx1112basic_stringIcSt11char_traitsIcESaIcEEEN8nlohmann16json_abi_v3_11_310basic_jsonISt3mapSt6vectorS7_blmdSaNSA_14adl_serializerESD_IhSaIhEEvEEEEEC2ERKSK_ = comdat any

$_ZNSt8_Rb_treeINSt7__cxx1112basic_stringIcSt11char_traitsIcESaIcEEESt4pairIKS5_N8nlohmann16json_abi_v3_11_310basic_jsonISt3mapSt6vectorS5_blmdSaNS9_14adl_serializerESC_IhSaIhEEvEEESt10_Select1stISH_ESt4lessIS5_ESaISH_EE11_Alloc_nodeC2ERSN_ = comdat any

$_ZNSt8_Rb_treeINSt7__cxx1112basic_stringIcSt11char_traitsIcESaIcEEESt4pairIKS5_N8nlohmann16json_abi_v3_11_310basic_jsonISt3mapSt6vectorS5_blmdSaNS9_14adl_serializerESC_IhSaIhEEvEEESt10_Select1stISH_ESt4lessIS5_ESaISH_EE7_M_copyILb0ENSN_11_Alloc_nodeEEEPSt13_Rb_tree_nodeISH_ERKSN_RT0_ = comdat any

$_ZNSt8_Rb_treeINSt7__cxx1112basic_stringIcSt11char_traitsIcESaIcEEESt4pairIKS5_N8nlohmann16json_abi_v3_11_310basic_jsonISt3mapSt6vectorS5_blmdSaNS9_14adl_serializerESC_IhSaIhEEvEEESt10_Select1stISH_ESt4lessIS5_ESaISH_EE7_M_copyILb0ENSN_11_Alloc_nodeEEEPSt13_Rb_tree_nodeISH_ESS_PSt18_Rb_tree_node_baseRT0_ = comdat any

$_ZNSt8_Rb_treeINSt7__cxx1112basic_stringIcSt11char_traitsIcESaIcEEESt4pairIKS5_N8nlohmann16json_abi_v3_11_310basic_jsonISt3mapSt6vectorS5_blmdSaNS9_14adl_serializerESC_IhSaIhEEvEEESt10_Select1stISH_ESt4lessIS5_ESaISH_EE6_M_endEv = comdat any

$_ZNSt8_Rb_treeINSt7__cxx1112basic_stringIcSt11char_traitsIcESaIcEEESt4pairIKS5_N8nlohmann16json_abi_v3_11_310basic_jsonISt3mapSt6vectorS5_blmdSaNS9_14adl_serializerESC_IhSaIhEEvEEESt10_Select1stISH_ESt4lessIS5_ESaISH_EE10_S_minimumEPSt18_Rb_tree_node_base = comdat any

$_ZNSt8_Rb_treeINSt7__cxx1112basic_stringIcSt11char_traitsIcESaIcEEESt4pairIKS5_N8nlohmann16json_abi_v3_11_310basic_jsonISt3mapSt6vectorS5_blmdSaNS9_14adl_serializerESC_IhSaIhEEvEEESt10_Select1stISH_ESt4lessIS5_ESaISH_EE11_M_leftmostEv = comdat any

$_ZNSt8_Rb_treeINSt7__cxx1112basic_stringIcSt11char_traitsIcESaIcEEESt4pairIKS5_N8nlohmann16json_abi_v3_11_310basic_jsonISt3mapSt6vectorS5_blmdSaNS9_14adl_serializerESC_IhSaIhEEvEEESt10_Select1stISH_ESt4lessIS5_ESaISH_EE10_S_maximumEPSt18_Rb_tree_node_base = comdat any

$_ZNSt8_Rb_treeINSt7__cxx1112basic_stringIcSt11char_traitsIcESaIcEEESt4pairIKS5_N8nlohmann16json_abi_v3_11_310basic_jsonISt3mapSt6vectorS5_blmdSaNS9_14adl_serializerESC_IhSaIhEEvEEESt10_Select1stISH_ESt4lessIS5_ESaISH_EE12_M_rightmostEv = comdat any

$_ZNSt8_Rb_treeINSt7__cxx1112basic_stringIcSt11char_traitsIcESaIcEEESt4pairIKS5_N8nlohmann16json_abi_v3_11_310basic_jsonISt3mapSt6vectorS5_blmdSaNS9_14adl_serializerESC_IhSaIhEEvEEESt10_Select1stISH_ESt4lessIS5_ESaISH_EE13_M_clone_nodeILb0ENSN_11_Alloc_nodeEEEPSt13_Rb_tree_nodeISH_ESS_RT0_ = comdat any

$_ZNKSt8_Rb_treeINSt7__cxx1112basic_stringIcSt11char_traitsIcESaIcEEESt4pairIKS5_N8nlohmann16json_abi_v3_11_310basic_jsonISt3mapSt6vectorS5_blmdSaNS9_14adl_serializerESC_IhSaIhEEvEEESt10_Select1stISH_ESt4lessIS5_ESaISH_EE11_Alloc_nodeclIRKSH_EEPSt13_Rb_tree_nodeISH_EOT_ = comdat any

$_ZNSt8_Rb_treeINSt7__cxx1112basic_stringIcSt11char_traitsIcESaIcEEESt4pairIKS5_N8nlohmann16json_abi_v3_11_310basic_jsonISt3mapSt6vectorS5_blmdSaNS9_14adl_serializerESC_IhSaIhEEvEEESt10_Select1stISH_ESt4lessIS5_ESaISH_EE14_M_create_nodeIJRKSH_EEEPSt13_Rb_tree_nodeISH_EDpOT_ = comdat any

$_ZNSt8_Rb_treeINSt7__cxx1112basic_stringIcSt11char_traitsIcESaIcEEESt4pairIKS5_N8nlohmann16json_abi_v3_11_310basic_jsonISt3mapSt6vectorS5_blmdSaNS9_14adl_serializerESC_IhSaIhEEvEEESt10_Select1stISH_ESt4lessIS5_ESaISH_EE11_M_get_nodeEv = comdat any

$_ZNSt8_Rb_treeINSt7__cxx1112basic_stringIcSt11char_traitsIcESaIcEEESt4pairIKS5_N8nlohmann16json_abi_v3_11_310basic_jsonISt3mapSt6vectorS5_blmdSaNS9_14adl_serializerESC_IhSaIhEEvEEESt10_Select1stISH_ESt4lessIS5_ESaISH_EE17_M_construct_nodeIJRKSH_EEEvPSt13_Rb_tree_nodeISH_EDpOT_ = comdat any

$_ZNSt16allocator_traitsISaISt13_Rb_tree_nodeISt4pairIKNSt7__cxx1112basic_stringIcSt11char_traitsIcESaIcEEEN8nlohmann16json_abi_v3_11_310basic_jsonISt3mapSt6vectorS7_blmdSaNSA_14adl_serializerESD_IhSaIhEEvEEEEEE8allocateERSK_m = comdat any

$_ZNSt15__new_allocatorISt13_Rb_tree_nodeISt4pairIKNSt7__cxx1112basic_stringIcSt11char_traitsIcESaIcEEEN8nlohmann16json_abi_v3_11_310basic_jsonISt3mapSt6vectorS7_blmdSaNSA_14adl_serializerESD_IhSaIhEEvEEEEE8allocateEmPKv = comdat any

$_ZNKSt15__new_allocatorISt13_Rb_tree_nodeISt4pairIKNSt7__cxx1112basic_stringIcSt11char_traitsIcESaIcEEEN8nlohmann16json_abi_v3_11_310basic_jsonISt3mapSt6vectorS7_blmdSaNSA_14adl_serializerESD_IhSaIhEEvEEEEE11_M_max_sizeEv = comdat any

$_ZNSt16allocator_traitsISaISt13_Rb_tree_nodeISt4pairIKNSt7__cxx1112basic_stringIcSt11char_traitsIcESaIcEEEN8nlohmann16json_abi_v3_11_310basic_jsonISt3mapSt6vectorS7_blmdSaNSA_14adl_serializerESD_IhSaIhEEvEEEEEE9constructISI_JRKSI_EEEvRSK_PT_DpOT0_ = comdat any

$_ZNSt15__new_allocatorISt13_Rb_tree_nodeISt4pairIKNSt7__cxx1112basic_stringIcSt11char_traitsIcESaIcEEEN8nlohmann16json_abi_v3_11_310basic_jsonISt3mapSt6vectorS7_blmdSaNSA_14adl_serializerESD_IhSaIhEEvEEEEE9constructISI_JRKSI_EEEvPT_DpOT0_ = comdat any

$_ZNSt4pairIKNSt7__cxx1112basic_stringIcSt11char_traitsIcESaIcEEEN8nlohmann16json_abi_v3_11_310basic_jsonISt3mapSt6vectorS5_blmdSaNS8_14adl_serializerESB_IhSaIhEEvEEEC2ERKSG_ = comdat any

$_ZNSt18_Rb_tree_node_base10_S_minimumEPS_ = comdat any

$_ZNSt18_Rb_tree_node_base10_S_maximumEPS_ = comdat any

$_ZNKSt15__uniq_ptr_implISt3mapINSt7__cxx1112basic_stringIcSt11char_traitsIcESaIcEEEN8nlohmann16json_abi_v3_11_310basic_jsonIS0_St6vectorS6_blmdSaNS8_14adl_serializerESA_IhSaIhEEvEESt4lessIS6_ESaISt4pairIKS6_SE_EEEZNSE_6createISL_JRKSL_EEEPT_DpOT0_EUlPSL_E_E6_M_ptrEv = comdat any

$_ZSt3getILm0EJPSt3mapINSt7__cxx1112basic_stringIcSt11char_traitsIcESaIcEEEN8nlohmann16json_abi_v3_11_310basic_jsonIS0_St6vectorS6_blmdSaNS8_14adl_serializerESA_IhSaIhEEvEESt4lessIS6_ESaISt4pairIKS6_SE_EEEZNSE_6createISL_JRKSL_EEEPT_DpOT0_EUlSM_E_EERKNSt13tuple_elementIXT_ESt5tupleIJDpSS_EEE4typeERKSZ_ = comdat any

$_ZSt12__get_helperILm0EPSt3mapINSt7__cxx1112basic_stringIcSt11char_traitsIcESaIcEEEN8nlohmann16json_abi_v3_11_310basic_jsonIS0_St6vectorS6_blmdSaNS8_14adl_serializerESA_IhSaIhEEvEESt4lessIS6_ESaISt4pairIKS6_SE_EEEJZNSE_6createISL_JRKSL_EEEPT_DpOT0_EUlSM_E_EERKT0_RKSt11_Tuple_implIXT_EJSW_DpT1_EE = comdat any

$_ZNSt11_Tuple_implILm0EJPSt3mapINSt7__cxx1112basic_stringIcSt11char_traitsIcESaIcEEEN8nlohmann16json_abi_v3_11_310basic_jsonIS0_St6vectorS6_blmdSaNS8_14adl_serializerESA_IhSaIhEEvEESt4lessIS6_ESaISt4pairIKS6_SE_EEEZNSE_6createISL_JRKSL_EEEPT_DpOT0_EUlSM_E_EE7_M_headERKSW_ = comdat any

$_ZNSt15__uniq_ptr_implISt3mapINSt7__cxx1112basic_stringIcSt11char_traitsIcESaIcEEEN8nlohmann16json_abi_v3_11_310basic_jsonIS0_St6vectorS6_blmdSaNS8_14adl_serializerESA_IhSaIhEEvEESt4lessIS6_ESaISt4pairIKS6_SE_EEEZNSE_6createISL_JRKSL_EEEPT_DpOT0_EUlPSL_E_E7releaseEv = comdat any

$_ZNSt15__uniq_ptr_implISt3mapINSt7__cxx1112basic_stringIcSt11char_traitsIcESaIcEEEN8nlohmann16json_abi_v3_11_310basic_jsonIS0_St6vectorS6_blmdSaNS8_14adl_serializerESA_IhSaIhEEvEESt4lessIS6_ESaISt4pairIKS6_SE_EEEZNSE_6createISL_JRKSL_EEEPT_DpOT0_EUlPSL_E_E6_M_ptrEv = comdat any

$_ZSt3getILm0EJPSt3mapINSt7__cxx1112basic_stringIcSt11char_traitsIcESaIcEEEN8nlohmann16json_abi_v3_11_310basic_jsonIS0_St6vectorS6_blmdSaNS8_14adl_serializerESA_IhSaIhEEvEESt4lessIS6_ESaISt4pairIKS6_SE_EEEZNSE_6createISL_JRKSL_EEEPT_DpOT0_EUlSM_E_EERNSt13tuple_elementIXT_ESt5tupleIJDpSS_EEE4typeERSZ_ = comdat any

$_ZSt12__get_helperILm0EPSt3mapINSt7__cxx1112basic_stringIcSt11char_traitsIcESaIcEEEN8nlohmann16json_abi_v3_11_310basic_jsonIS0_St6vectorS6_blmdSaNS8_14adl_serializerESA_IhSaIhEEvEESt4lessIS6_ESaISt4pairIKS6_SE_EEEJZNSE_6createISL_JRKSL_EEEPT_DpOT0_EUlSM_E_EERT0_RSt11_Tuple_implIXT_EJSW_DpT1_EE = comdat any

$_ZNSt11_Tuple_implILm0EJPSt3mapINSt7__cxx1112basic_stringIcSt11char_traitsIcESaIcEEEN8nlohmann16json_abi_v3_11_310basic_jsonIS0_St6vectorS6_blmdSaNS8_14adl_serializerESA_IhSaIhEEvEESt4lessIS6_ESaISt4pairIKS6_SE_EEEZNSE_6createISL_JRKSL_EEEPT_DpOT0_EUlSM_E_EE7_M_headERSW_ = comdat any

$_ZNSt10unique_ptrISt3mapINSt7__cxx1112basic_stringIcSt11char_traitsIcESaIcEEEN8nlohmann16json_abi_v3_11_310basic_jsonIS0_St6vectorS6_blmdSaNS8_14adl_serializerESA_IhSaIhEEvEESt4lessIS6_ESaISt4pairIKS6_SE_EEEZNSE_6createISL_JRKSL_EEEPT_DpOT0_EUlPSL_E_E11get_deleterEv = comdat any

$_ZZN8nlohmann16json_abi_v3_11_310basic_jsonISt3mapSt6vectorNSt7__cxx1112basic_stringIcSt11char_traitsIcESaIcEEEblmdSaNS0_14adl_serializerES3_IhSaIhEEvE6createIS2_IS9_SD_St4lessIS9_ESaISt4pairIKS9_SD_EEEJRKSL_EEEPT_DpOT0_ENKUlPSL_E_clEST_ = comdat any

$_ZNSt15__uniq_ptr_implISt3mapINSt7__cxx1112basic_stringIcSt11char_traitsIcESaIcEEEN8nlohmann16json_abi_v3_11_310basic_jsonIS0_St6vectorS6_blmdSaNS8_14adl_serializerESA_IhSaIhEEvEESt4lessIS6_ESaISt4pairIKS6_SE_EEEZNSE_6createISL_JRKSL_EEEPT_DpOT0_EUlPSL_E_E10_M_deleterEv = comdat any

$_ZSt3getILm1EJPSt3mapINSt7__cxx1112basic_stringIcSt11char_traitsIcESaIcEEEN8nlohmann16json_abi_v3_11_310basic_jsonIS0_St6vectorS6_blmdSaNS8_14adl_serializerESA_IhSaIhEEvEESt4lessIS6_ESaISt4pairIKS6_SE_EEEZNSE_6createISL_JRKSL_EEEPT_DpOT0_EUlSM_E_EERNSt13tuple_elementIXT_ESt5tupleIJDpSS_EEE4typeERSZ_ = comdat any

$_ZSt12__get_helperILm1EZN8nlohmann16json_abi_v3_11_310basic_jsonISt3mapSt6vectorNSt7__cxx1112basic_stringIcSt11char_traitsIcESaIcEEEblmdSaNS1_14adl_serializerES4_IhSaIhEEvE6createIS3_ISA_SE_St4lessISA_ESaISt4pairIKSA_SE_EEEJRKSM_EEEPT_DpOT0_EUlPSM_E_JEERT0_RSt11_Tuple_implIXT_EJSW_DpT1_EE = comdat any

$_ZNSt11_Tuple_implILm1EJZN8nlohmann16json_abi_v3_11_310basic_jsonISt3mapSt6vectorNSt7__cxx1112basic_stringIcSt11char_traitsIcESaIcEEEblmdSaNS1_14adl_serializerES4_IhSaIhEEvE6createIS3_ISA_SE_St4lessISA_ESaISt4pairIKSA_SE_EEEJRKSM_EEEPT_DpOT0_EUlPSM_E_EE7_M_headERSW_ = comdat any

$_ZNSt10_Head_baseILm1EZN8nlohmann16json_abi_v3_11_310basic_jsonISt3mapSt6vectorNSt7__cxx1112basic_stringIcSt11char_traitsIcESaIcEEEblmdSaNS1_14adl_serializerES4_IhSaIhEEvE6createIS3_ISA_SE_St4lessISA_ESaISt4pairIKSA_SE_EEEJRKSM_EEEPT_DpOT0_EUlPSM_E_Lb0EE7_M_headERSW_ = comdat any

$_ZN8nlohmann16json_abi_v3_11_310basic_jsonISt3mapSt6vectorNSt7__cxx1112basic_stringIcSt11char_traitsIcESaIcEEEblmdSaNS0_14adl_serializerES3_IhSaIhEEvE6createIS3_ISD_SaISD_EEJRKSG_EEEPT_DpOT0_ = comdat any

$_ZNSt10unique_ptrISt6vectorIN8nlohmann16json_abi_v3_11_310basic_jsonISt3mapS0_NSt7__cxx1112basic_stringIcSt11char_traitsIcESaIcEEEblmdSaNS2_14adl_serializerES0_IhSaIhEEvEESaISE_EEZNSE_6createISG_JRKSG_EEEPT_DpOT0_EUlPSG_E_EC2ISQ_vEESP_RKSQ_ = comdat any

$_ZNSt16allocator_traitsISaISt6vectorIN8nlohmann16json_abi_v3_11_310basic_jsonISt3mapS0_NSt7__cxx1112basic_stringIcSt11char_traitsIcESaIcEEEblmdSaNS2_14adl_serializerES0_IhSaIhEEvEESaISE_EEEE9constructISG_JRKSG_EEEvRSH_PT_DpOT0_ = comdat any

$_ZNKSt10unique_ptrISt6vectorIN8nlohmann16json_abi_v3_11_310basic_jsonISt3mapS0_NSt7__cxx1112basic_stringIcSt11char_traitsIcESaIcEEEblmdSaNS2_14adl_serializerES0_IhSaIhEEvEESaISE_EEZNSE_6createISG_JRKSG_EEEPT_DpOT0_EUlPSG_E_E3getEv = comdat any

$_ZNSt10unique_ptrISt6vectorIN8nlohmann16json_abi_v3_11_310basic_jsonISt3mapS0_NSt7__cxx1112basic_stringIcSt11char_traitsIcESaIcEEEblmdSaNS2_14adl_serializerES0_IhSaIhEEvEESaISE_EEZNSE_6createISG_JRKSG_EEEPT_DpOT0_EUlPSG_E_E7releaseEv = comdat any

$_ZNSt10unique_ptrISt6vectorIN8nlohmann16json_abi_v3_11_310basic_jsonISt3mapS0_NSt7__cxx1112basic_stringIcSt11char_traitsIcESaIcEEEblmdSaNS2_14adl_serializerES0_IhSaIhEEvEESaISE_EEZNSE_6createISG_JRKSG_EEEPT_DpOT0_EUlPSG_E_ED2Ev = comdat any

$_ZNSt15__uniq_ptr_dataISt6vectorIN8nlohmann16json_abi_v3_11_310basic_jsonISt3mapS0_NSt7__cxx1112basic_stringIcSt11char_traitsIcESaIcEEEblmdSaNS2_14adl_serializerES0_IhSaIhEEvEESaISE_EEZNSE_6createISG_JRKSG_EEEPT_DpOT0_EUlPSG_E_Lb1ELb0EECI2St15__uniq_ptr_implISG_SQ_EIRKSQ_EESP_OSK_ = comdat any

$_ZNSt15__uniq_ptr_implISt6vectorIN8nlohmann16json_abi_v3_11_310basic_jsonISt3mapS0_NSt7__cxx1112basic_stringIcSt11char_traitsIcESaIcEEEblmdSaNS2_14adl_serializerES0_IhSaIhEEvEESaISE_EEZNSE_6createISG_JRKSG_EEEPT_DpOT0_EUlPSG_E_EC2IRKSQ_EESP_OSK_ = comdat any

$_ZNSt5tupleIJPSt6vectorIN8nlohmann16json_abi_v3_11_310basic_jsonISt3mapS0_NSt7__cxx1112basic_stringIcSt11char_traitsIcESaIcEEEblmdSaNS2_14adl_serializerES0_IhSaIhEEvEESaISE_EEZNSE_6createISG_JRKSG_EEEPT_DpOT0_EUlSH_E_EEC2IRSH_RKSQ_TnNSt9enable_ifIXclsr4_TCCIXntcl14__is_alloc_argISL_EEEEE29__is_implicitly_constructibleISL_T0_EEEbE4typeELb1EEEOSL_OSX_ = comdat any

$_ZNSt11_Tuple_implILm0EJPSt6vectorIN8nlohmann16json_abi_v3_11_310basic_jsonISt3mapS0_NSt7__cxx1112basic_stringIcSt11char_traitsIcESaIcEEEblmdSaNS2_14adl_serializerES0_IhSaIhEEvEESaISE_EEZNSE_6createISG_JRKSG_EEEPT_DpOT0_EUlSH_E_EEC2IRSH_JRKSQ_EvEEOSL_SP_ = comdat any

$_ZNSt11_Tuple_implILm1EJZN8nlohmann16json_abi_v3_11_310basic_jsonISt3mapSt6vectorNSt7__cxx1112basic_stringIcSt11char_traitsIcESaIcEEEblmdSaNS1_14adl_serializerES4_IhSaIhEEvE6createIS4_ISE_SaISE_EEJRKSH_EEEPT_DpOT0_EUlPSH_E_EEC2ERKSQ_ = comdat any

$_ZNSt10_Head_baseILm1EZN8nlohmann16json_abi_v3_11_310basic_jsonISt3mapSt6vectorNSt7__cxx1112basic_stringIcSt11char_traitsIcESaIcEEEblmdSaNS1_14adl_serializerES4_IhSaIhEEvE6createIS4_ISE_SaISE_EEJRKSH_EEEPT_DpOT0_EUlPSH_E_Lb0EEC2ERKSQ_ = comdat any

$_ZNSt15__new_allocatorISt6vectorIN8nlohmann16json_abi_v3_11_310basic_jsonISt3mapS0_NSt7__cxx1112basic_stringIcSt11char_traitsIcESaIcEEEblmdSaNS2_14adl_serializerES0_IhSaIhEEvEESaISE_EEE9constructISG_JRKSG_EEEvPT_DpOT0_ = comdat any

$_ZNSt6vectorIN8nlohmann16json_abi_v3_11_310basic_jsonISt3mapS_NSt7__cxx1112basic_stringIcSt11char_traitsIcESaIcEEEblmdSaNS1_14adl_serializerES_IhSaIhEEvEESaISD_EEC2ERKSF_ = comdat any

$_ZN9__gnu_cxx14__alloc_traitsISaIN8nlohmann16json_abi_v3_11_310basic_jsonISt3mapSt6vectorNSt7__cxx1112basic_stringIcSt11char_traitsIcESaIcEEEblmdSaNS2_14adl_serializerES5_IhSaIhEEvEEESF_E17_S_select_on_copyERKSG_ = comdat any

$_ZNSt12_Vector_baseIN8nlohmann16json_abi_v3_11_310basic_jsonISt3mapSt6vectorNSt7__cxx1112basic_stringIcSt11char_traitsIcESaIcEEEblmdSaNS1_14adl_serializerES4_IhSaIhEEvEESaISE_EEC2EmRKSF_ = comdat any

$_ZNSaIN8nlohmann16json_abi_v3_11_310basic_jsonISt3mapSt6vectorNSt7__cxx1112basic_stringIcSt11char_traitsIcESaIcEEEblmdSaNS0_14adl_serializerES3_IhSaIhEEvEEED2Ev = comdat any

$_ZSt22__uninitialized_copy_aIN9__gnu_cxx17__normal_iteratorIPKN8nlohmann16json_abi_v3_11_310basic_jsonISt3mapSt6vectorNSt7__cxx1112basic_stringIcSt11char_traitsIcESaIcEEEblmdSaNS3_14adl_serializerES6_IhSaIhEEvEES6_ISG_SaISG_EEEEPSG_SG_ET0_T_SO_SN_RSaIT1_E = comdat any

$_ZNSt16allocator_traitsISaIN8nlohmann16json_abi_v3_11_310basic_jsonISt3mapSt6vectorNSt7__cxx1112basic_stringIcSt11char_traitsIcESaIcEEEblmdSaNS1_14adl_serializerES4_IhSaIhEEvEEEE37select_on_container_copy_constructionERKSF_ = comdat any

$_ZNSaIN8nlohmann16json_abi_v3_11_310basic_jsonISt3mapSt6vectorNSt7__cxx1112basic_stringIcSt11char_traitsIcESaIcEEEblmdSaNS0_14adl_serializerES3_IhSaIhEEvEEEC2ERKSE_ = comdat any

$_ZNSt15__new_allocatorIN8nlohmann16json_abi_v3_11_310basic_jsonISt3mapSt6vectorNSt7__cxx1112basic_stringIcSt11char_traitsIcESaIcEEEblmdSaNS1_14adl_serializerES4_IhSaIhEEvEEEC2ERKSF_ = comdat any

$_ZNSt12_Vector_baseIN8nlohmann16json_abi_v3_11_310basic_jsonISt3mapSt6vectorNSt7__cxx1112basic_stringIcSt11char_traitsIcESaIcEEEblmdSaNS1_14adl_serializerES4_IhSaIhEEvEESaISE_EE12_Vector_implC2ERKSF_ = comdat any

$_ZNSt12_Vector_baseIN8nlohmann16json_abi_v3_11_310basic_jsonISt3mapSt6vectorNSt7__cxx1112basic_stringIcSt11char_traitsIcESaIcEEEblmdSaNS1_14adl_serializerES4_IhSaIhEEvEESaISE_EE17_M_create_storageEm = comdat any

$_ZSt18uninitialized_copyIN9__gnu_cxx17__normal_iteratorIPKN8nlohmann16json_abi_v3_11_310basic_jsonISt3mapSt6vectorNSt7__cxx1112basic_stringIcSt11char_traitsIcESaIcEEEblmdSaNS3_14adl_serializerES6_IhSaIhEEvEES6_ISG_SaISG_EEEEPSG_ET0_T_SO_SN_ = comdat any

$_ZNSt20__uninitialized_copyILb0EE13__uninit_copyIN9__gnu_cxx17__normal_iteratorIPKN8nlohmann16json_abi_v3_11_310basic_jsonISt3mapSt6vectorNSt7__cxx1112basic_stringIcSt11char_traitsIcESaIcEEEblmdSaNS5_14adl_serializerES8_IhSaIhEEvEES8_ISI_SaISI_EEEEPSI_EET0_T_SQ_SP_ = comdat any

$_ZSt16__do_uninit_copyIN9__gnu_cxx17__normal_iteratorIPKN8nlohmann16json_abi_v3_11_310basic_jsonISt3mapSt6vectorNSt7__cxx1112basic_stringIcSt11char_traitsIcESaIcEEEblmdSaNS3_14adl_serializerES6_IhSaIhEEvEES6_ISG_SaISG_EEEEPSG_ET0_T_SO_SN_ = comdat any

$_ZN9__gnu_cxxneIPKN8nlohmann16json_abi_v3_11_310basic_jsonISt3mapSt6vectorNSt7__cxx1112basic_stringIcSt11char_traitsIcESaIcEEEblmdSaNS2_14adl_serializerES5_IhSaIhEEvEES5_ISF_SaISF_EEEEbRKNS_17__normal_iteratorIT_T0_EESP_ = comdat any

$_ZSt10_ConstructIN8nlohmann16json_abi_v3_11_310basic_jsonISt3mapSt6vectorNSt7__cxx1112basic_stringIcSt11char_traitsIcESaIcEEEblmdSaNS1_14adl_serializerES4_IhSaIhEEvEEJRKSE_EEvPT_DpOT0_ = comdat any

$_ZNK9__gnu_cxx17__normal_iteratorIPKN8nlohmann16json_abi_v3_11_310basic_jsonISt3mapSt6vectorNSt7__cxx1112basic_stringIcSt11char_traitsIcESaIcEEEblmdSaNS2_14adl_serializerES5_IhSaIhEEvEES5_ISF_SaISF_EEEdeEv = comdat any

$_ZN9__gnu_cxx17__normal_iteratorIPKN8nlohmann16json_abi_v3_11_310basic_jsonISt3mapSt6vectorNSt7__cxx1112basic_stringIcSt11char_traitsIcESaIcEEEblmdSaNS2_14adl_serializerES5_IhSaIhEEvEES5_ISF_SaISF_EEEppEv = comdat any

$_ZNKSt15__uniq_ptr_implISt6vectorIN8nlohmann16json_abi_v3_11_310basic_jsonISt3mapS0_NSt7__cxx1112basic_stringIcSt11char_traitsIcESaIcEEEblmdSaNS2_14adl_serializerES0_IhSaIhEEvEESaISE_EEZNSE_6createISG_JRKSG_EEEPT_DpOT0_EUlPSG_E_E6_M_ptrEv = comdat any

$_ZSt3getILm0EJPSt6vectorIN8nlohmann16json_abi_v3_11_310basic_jsonISt3mapS0_NSt7__cxx1112basic_stringIcSt11char_traitsIcESaIcEEEblmdSaNS2_14adl_serializerES0_IhSaIhEEvEESaISE_EEZNSE_6createISG_JRKSG_EEEPT_DpOT0_EUlSH_E_EERKNSt13tuple_elementIXT_ESt5tupleIJDpSN_EEE4typeERKSU_ = comdat any

$_ZSt12__get_helperILm0EPSt6vectorIN8nlohmann16json_abi_v3_11_310basic_jsonISt3mapS0_NSt7__cxx1112basic_stringIcSt11char_traitsIcESaIcEEEblmdSaNS2_14adl_serializerES0_IhSaIhEEvEESaISE_EEJZNSE_6createISG_JRKSG_EEEPT_DpOT0_EUlSH_E_EERKT0_RKSt11_Tuple_implIXT_EJSR_DpT1_EE = comdat any

$_ZNSt11_Tuple_implILm0EJPSt6vectorIN8nlohmann16json_abi_v3_11_310basic_jsonISt3mapS0_NSt7__cxx1112basic_stringIcSt11char_traitsIcESaIcEEEblmdSaNS2_14adl_serializerES0_IhSaIhEEvEESaISE_EEZNSE_6createISG_JRKSG_EEEPT_DpOT0_EUlSH_E_EE7_M_headERKSR_ = comdat any

$_ZNSt15__uniq_ptr_implISt6vectorIN8nlohmann16json_abi_v3_11_310basic_jsonISt3mapS0_NSt7__cxx1112basic_stringIcSt11char_traitsIcESaIcEEEblmdSaNS2_14adl_serializerES0_IhSaIhEEvEESaISE_EEZNSE_6createISG_JRKSG_EEEPT_DpOT0_EUlPSG_E_E7releaseEv = comdat any

$_ZNSt15__uniq_ptr_implISt6vectorIN8nlohmann16json_abi_v3_11_310basic_jsonISt3mapS0_NSt7__cxx1112basic_stringIcSt11char_traitsIcESaIcEEEblmdSaNS2_14adl_serializerES0_IhSaIhEEvEESaISE_EEZNSE_6createISG_JRKSG_EEEPT_DpOT0_EUlPSG_E_E6_M_ptrEv = comdat any

$_ZSt3getILm0EJPSt6vectorIN8nlohmann16json_abi_v3_11_310basic_jsonISt3mapS0_NSt7__cxx1112basic_stringIcSt11char_traitsIcESaIcEEEblmdSaNS2_14adl_serializerES0_IhSaIhEEvEESaISE_EEZNSE_6createISG_JRKSG_EEEPT_DpOT0_EUlSH_E_EERNSt13tuple_elementIXT_ESt5tupleIJDpSN_EEE4typeERSU_ = comdat any

$_ZSt12__get_helperILm0EPSt6vectorIN8nlohmann16json_abi_v3_11_310basic_jsonISt3mapS0_NSt7__cxx1112basic_stringIcSt11char_traitsIcESaIcEEEblmdSaNS2_14adl_serializerES0_IhSaIhEEvEESaISE_EEJZNSE_6createISG_JRKSG_EEEPT_DpOT0_EUlSH_E_EERT0_RSt11_Tuple_implIXT_EJSR_DpT1_EE = comdat any

$_ZNSt11_Tuple_implILm0EJPSt6vectorIN8nlohmann16json_abi_v3_11_310basic_jsonISt3mapS0_NSt7__cxx1112basic_stringIcSt11char_traitsIcESaIcEEEblmdSaNS2_14adl_serializerES0_IhSaIhEEvEESaISE_EEZNSE_6createISG_JRKSG_EEEPT_DpOT0_EUlSH_E_EE7_M_headERSR_ = comdat any

$_ZNSt10unique_ptrISt6vectorIN8nlohmann16json_abi_v3_11_310basic_jsonISt3mapS0_NSt7__cxx1112basic_stringIcSt11char_traitsIcESaIcEEEblmdSaNS2_14adl_serializerES0_IhSaIhEEvEESaISE_EEZNSE_6createISG_JRKSG_EEEPT_DpOT0_EUlPSG_E_E11get_deleterEv = comdat any

$_ZZN8nlohmann16json_abi_v3_11_310basic_jsonISt3mapSt6vectorNSt7__cxx1112basic_stringIcSt11char_traitsIcESaIcEEEblmdSaNS0_14adl_serializerES3_IhSaIhEEvE6createIS3_ISD_SaISD_EEJRKSG_EEEPT_DpOT0_ENKUlPSG_E_clESO_ = comdat any

$_ZNSt15__uniq_ptr_implISt6vectorIN8nlohmann16json_abi_v3_11_310basic_jsonISt3mapS0_NSt7__cxx1112basic_stringIcSt11char_traitsIcESaIcEEEblmdSaNS2_14adl_serializerES0_IhSaIhEEvEESaISE_EEZNSE_6createISG_JRKSG_EEEPT_DpOT0_EUlPSG_E_E10_M_deleterEv = comdat any

$_ZSt3getILm1EJPSt6vectorIN8nlohmann16json_abi_v3_11_310basic_jsonISt3mapS0_NSt7__cxx1112basic_stringIcSt11char_traitsIcESaIcEEEblmdSaNS2_14adl_serializerES0_IhSaIhEEvEESaISE_EEZNSE_6createISG_JRKSG_EEEPT_DpOT0_EUlSH_E_EERNSt13tuple_elementIXT_ESt5tupleIJDpSN_EEE4typeERSU_ = comdat any

$_ZSt12__get_helperILm1EZN8nlohmann16json_abi_v3_11_310basic_jsonISt3mapSt6vectorNSt7__cxx1112basic_stringIcSt11char_traitsIcESaIcEEEblmdSaNS1_14adl_serializerES4_IhSaIhEEvE6createIS4_ISE_SaISE_EEJRKSH_EEEPT_DpOT0_EUlPSH_E_JEERT0_RSt11_Tuple_implIXT_EJSR_DpT1_EE = comdat any

$_ZNSt11_Tuple_implILm1EJZN8nlohmann16json_abi_v3_11_310basic_jsonISt3mapSt6vectorNSt7__cxx1112basic_stringIcSt11char_traitsIcESaIcEEEblmdSaNS1_14adl_serializerES4_IhSaIhEEvE6createIS4_ISE_SaISE_EEJRKSH_EEEPT_DpOT0_EUlPSH_E_EE7_M_headERSR_ = comdat any

$_ZNSt10_Head_baseILm1EZN8nlohmann16json_abi_v3_11_310basic_jsonISt3mapSt6vectorNSt7__cxx1112basic_stringIcSt11char_traitsIcESaIcEEEblmdSaNS1_14adl_serializerES4_IhSaIhEEvE6createIS4_ISE_SaISE_EEJRKSH_EEEPT_DpOT0_EUlPSH_E_Lb0EE7_M_headERSR_ = comdat any

$_ZN8nlohmann16json_abi_v3_11_310basic_jsonISt3mapSt6vectorNSt7__cxx1112basic_stringIcSt11char_traitsIcESaIcEEEblmdSaNS0_14adl_serializerES3_IhSaIhEEvE6createIS9_JRKS9_EEEPT_DpOT0_ = comdat any

$_ZNSt10unique_ptrINSt7__cxx1112basic_stringIcSt11char_traitsIcESaIcEEEZN8nlohmann16json_abi_v3_11_310basic_jsonISt3mapSt6vectorS5_blmdSaNS7_14adl_serializerESA_IhSaIhEEvE6createIS5_JRKS5_EEEPT_DpOT0_EUlPS5_E_EC2ISO_vEESN_RKSO_ = comdat any

$_ZNSt16allocator_traitsISaINSt7__cxx1112basic_stringIcSt11char_traitsIcESaIcEEEEE9constructIS5_JRKS5_EEEvRS6_PT_DpOT0_ = comdat any

$_ZNKSt10unique_ptrINSt7__cxx1112basic_stringIcSt11char_traitsIcESaIcEEEZN8nlohmann16json_abi_v3_11_310basic_jsonISt3mapSt6vectorS5_blmdSaNS7_14adl_serializerESA_IhSaIhEEvE6createIS5_JRKS5_EEEPT_DpOT0_EUlPS5_E_E3getEv = comdat any

$_ZNSt10unique_ptrINSt7__cxx1112basic_stringIcSt11char_traitsIcESaIcEEEZN8nlohmann16json_abi_v3_11_310basic_jsonISt3mapSt6vectorS5_blmdSaNS7_14adl_serializerESA_IhSaIhEEvE6createIS5_JRKS5_EEEPT_DpOT0_EUlPS5_E_E7releaseEv = comdat any

$_ZNSt10unique_ptrINSt7__cxx1112basic_stringIcSt11char_traitsIcESaIcEEEZN8nlohmann16json_abi_v3_11_310basic_jsonISt3mapSt6vectorS5_blmdSaNS7_14adl_serializerESA_IhSaIhEEvE6createIS5_JRKS5_EEEPT_DpOT0_EUlPS5_E_ED2Ev = comdat any

$_ZNSt15__uniq_ptr_dataINSt7__cxx1112basic_stringIcSt11char_traitsIcESaIcEEEZN8nlohmann16json_abi_v3_11_310basic_jsonISt3mapSt6vectorS5_blmdSaNS7_14adl_serializerESA_IhSaIhEEvE6createIS5_JRKS5_EEEPT_DpOT0_EUlPS5_E_Lb1ELb0EECI2St15__uniq_ptr_implIS5_SO_EIRKSO_EESN_OSI_ = comdat any

$_ZNSt15__uniq_ptr_implINSt7__cxx1112basic_stringIcSt11char_traitsIcESaIcEEEZN8nlohmann16json_abi_v3_11_310basic_jsonISt3mapSt6vectorS5_blmdSaNS7_14adl_serializerESA_IhSaIhEEvE6createIS5_JRKS5_EEEPT_DpOT0_EUlPS5_E_EC2IRKSO_EESN_OSI_ = comdat any

$_ZNSt5tupleIJPNSt7__cxx1112basic_stringIcSt11char_traitsIcESaIcEEEZN8nlohmann16json_abi_v3_11_310basic_jsonISt3mapSt6vectorS5_blmdSaNS8_14adl_serializerESB_IhSaIhEEvE6createIS5_JRKS5_EEEPT_DpOT0_EUlS6_E_EEC2IRS6_RKSO_TnNSt9enable_ifIXclsr4_TCCIXntcl14__is_alloc_argISJ_EEEEE29__is_implicitly_constructibleISJ_T0_EEEbE4typeELb1EEEOSJ_OSV_ = comdat any

$_ZNSt11_Tuple_implILm0EJPNSt7__cxx1112basic_stringIcSt11char_traitsIcESaIcEEEZN8nlohmann16json_abi_v3_11_310basic_jsonISt3mapSt6vectorS5_blmdSaNS8_14adl_serializerESB_IhSaIhEEvE6createIS5_JRKS5_EEEPT_DpOT0_EUlS6_E_EEC2IRS6_JRKSO_EvEEOSJ_SN_ = comdat any

$_ZNSt11_Tuple_implILm1EJZN8nlohmann16json_abi_v3_11_310basic_jsonISt3mapSt6vectorNSt7__cxx1112basic_stringIcSt11char_traitsIcESaIcEEEblmdSaNS1_14adl_serializerES4_IhSaIhEEvE6createISA_JRKSA_EEEPT_DpOT0_EUlPSA_E_EEC2ERKSO_ = comdat any

$_ZNSt10_Head_baseILm1EZN8nlohmann16json_abi_v3_11_310basic_jsonISt3mapSt6vectorNSt7__cxx1112basic_stringIcSt11char_traitsIcESaIcEEEblmdSaNS1_14adl_serializerES4_IhSaIhEEvE6createISA_JRKSA_EEEPT_DpOT0_EUlPSA_E_Lb0EEC2ERKSO_ = comdat any

$_ZNSt15__new_allocatorINSt7__cxx1112basic_stringIcSt11char_traitsIcESaIcEEEE9constructIS5_JRKS5_EEEvPT_DpOT0_ = comdat any

$_ZNKSt15__uniq_ptr_implINSt7__cxx1112basic_stringIcSt11char_traitsIcESaIcEEEZN8nlohmann16json_abi_v3_11_310basic_jsonISt3mapSt6vectorS5_blmdSaNS7_14adl_serializerESA_IhSaIhEEvE6createIS5_JRKS5_EEEPT_DpOT0_EUlPS5_E_E6_M_ptrEv = comdat any

$_ZSt3getILm0EJPNSt7__cxx1112basic_stringIcSt11char_traitsIcESaIcEEEZN8nlohmann16json_abi_v3_11_310basic_jsonISt3mapSt6vectorS5_blmdSaNS8_14adl_serializerESB_IhSaIhEEvE6createIS5_JRKS5_EEEPT_DpOT0_EUlS6_E_EERKNSt13tuple_elementIXT_ESt5tupleIJDpSL_EEE4typeERKSS_ = comdat any

$_ZSt12__get_helperILm0EPNSt7__cxx1112basic_stringIcSt11char_traitsIcESaIcEEEJZN8nlohmann16json_abi_v3_11_310basic_jsonISt3mapSt6vectorS5_blmdSaNS8_14adl_serializerESB_IhSaIhEEvE6createIS5_JRKS5_EEEPT_DpOT0_EUlS6_E_EERKT0_RKSt11_Tuple_implIXT_EJSP_DpT1_EE = comdat any

$_ZNSt11_Tuple_implILm0EJPNSt7__cxx1112basic_stringIcSt11char_traitsIcESaIcEEEZN8nlohmann16json_abi_v3_11_310basic_jsonISt3mapSt6vectorS5_blmdSaNS8_14adl_serializerESB_IhSaIhEEvE6createIS5_JRKS5_EEEPT_DpOT0_EUlS6_E_EE7_M_headERKSP_ = comdat any

$_ZNSt15__uniq_ptr_implINSt7__cxx1112basic_stringIcSt11char_traitsIcESaIcEEEZN8nlohmann16json_abi_v3_11_310basic_jsonISt3mapSt6vectorS5_blmdSaNS7_14adl_serializerESA_IhSaIhEEvE6createIS5_JRKS5_EEEPT_DpOT0_EUlPS5_E_E7releaseEv = comdat any

$_ZNSt15__uniq_ptr_implINSt7__cxx1112basic_stringIcSt11char_traitsIcESaIcEEEZN8nlohmann16json_abi_v3_11_310basic_jsonISt3mapSt6vectorS5_blmdSaNS7_14adl_serializerESA_IhSaIhEEvE6createIS5_JRKS5_EEEPT_DpOT0_EUlPS5_E_E6_M_ptrEv = comdat any

$_ZSt3getILm0EJPNSt7__cxx1112basic_stringIcSt11char_traitsIcESaIcEEEZN8nlohmann16json_abi_v3_11_310basic_jsonISt3mapSt6vectorS5_blmdSaNS8_14adl_serializerESB_IhSaIhEEvE6createIS5_JRKS5_EEEPT_DpOT0_EUlS6_E_EERNSt13tuple_elementIXT_ESt5tupleIJDpSL_EEE4typeERSS_ = comdat any

$_ZSt12__get_helperILm0EPNSt7__cxx1112basic_stringIcSt11char_traitsIcESaIcEEEJZN8nlohmann16json_abi_v3_11_310basic_jsonISt3mapSt6vectorS5_blmdSaNS8_14adl_serializerESB_IhSaIhEEvE6createIS5_JRKS5_EEEPT_DpOT0_EUlS6_E_EERT0_RSt11_Tuple_implIXT_EJSP_DpT1_EE = comdat any

$_ZNSt11_Tuple_implILm0EJPNSt7__cxx1112basic_stringIcSt11char_traitsIcESaIcEEEZN8nlohmann16json_abi_v3_11_310basic_jsonISt3mapSt6vectorS5_blmdSaNS8_14adl_serializerESB_IhSaIhEEvE6createIS5_JRKS5_EEEPT_DpOT0_EUlS6_E_EE7_M_headERSP_ = comdat any

$_ZNSt10unique_ptrINSt7__cxx1112basic_stringIcSt11char_traitsIcESaIcEEEZN8nlohmann16json_abi_v3_11_310basic_jsonISt3mapSt6vectorS5_blmdSaNS7_14adl_serializerESA_IhSaIhEEvE6createIS5_JRKS5_EEEPT_DpOT0_EUlPS5_E_E11get_deleterEv = comdat any

$_ZZN8nlohmann16json_abi_v3_11_310basic_jsonISt3mapSt6vectorNSt7__cxx1112basic_stringIcSt11char_traitsIcESaIcEEEblmdSaNS0_14adl_serializerES3_IhSaIhEEvE6createIS9_JRKS9_EEEPT_DpOT0_ENKUlPS9_E_clESM_ = comdat any

$_ZNSt15__uniq_ptr_implINSt7__cxx1112basic_stringIcSt11char_traitsIcESaIcEEEZN8nlohmann16json_abi_v3_11_310basic_jsonISt3mapSt6vectorS5_blmdSaNS7_14adl_serializerESA_IhSaIhEEvE6createIS5_JRKS5_EEEPT_DpOT0_EUlPS5_E_E10_M_deleterEv = comdat any

$_ZSt3getILm1EJPNSt7__cxx1112basic_stringIcSt11char_traitsIcESaIcEEEZN8nlohmann16json_abi_v3_11_310basic_jsonISt3mapSt6vectorS5_blmdSaNS8_14adl_serializerESB_IhSaIhEEvE6createIS5_JRKS5_EEEPT_DpOT0_EUlS6_E_EERNSt13tuple_elementIXT_ESt5tupleIJDpSL_EEE4typeERSS_ = comdat any

$_ZSt12__get_helperILm1EZN8nlohmann16json_abi_v3_11_310basic_jsonISt3mapSt6vectorNSt7__cxx1112basic_stringIcSt11char_traitsIcESaIcEEEblmdSaNS1_14adl_serializerES4_IhSaIhEEvE6createISA_JRKSA_EEEPT_DpOT0_EUlPSA_E_JEERT0_RSt11_Tuple_implIXT_EJSP_DpT1_EE = comdat any

$_ZNSt11_Tuple_implILm1EJZN8nlohmann16json_abi_v3_11_310basic_jsonISt3mapSt6vectorNSt7__cxx1112basic_stringIcSt11char_traitsIcESaIcEEEblmdSaNS1_14adl_serializerES4_IhSaIhEEvE6createISA_JRKSA_EEEPT_DpOT0_EUlPSA_E_EE7_M_headERSP_ = comdat any

$_ZNSt10_Head_baseILm1EZN8nlohmann16json_abi_v3_11_310basic_jsonISt3mapSt6vectorNSt7__cxx1112basic_stringIcSt11char_traitsIcESaIcEEEblmdSaNS1_14adl_serializerES4_IhSaIhEEvE6createISA_JRKSA_EEEPT_DpOT0_EUlPSA_E_Lb0EE7_M_headERSP_ = comdat any

$_ZN8nlohmann16json_abi_v3_11_310basic_jsonISt3mapSt6vectorNSt7__cxx1112basic_stringIcSt11char_traitsIcESaIcEEEblmdSaNS0_14adl_serializerES3_IhSaIhEEvE6createINS0_27byte_container_with_subtypeISC_EEJRKSG_EEEPT_DpOT0_ = comdat any

$_ZNSt10unique_ptrIN8nlohmann16json_abi_v3_11_327byte_container_with_subtypeISt6vectorIhSaIhEEEEZNS1_10basic_jsonISt3mapS3_NSt7__cxx1112basic_stringIcSt11char_traitsIcESaIcEEEblmdSaNS1_14adl_serializerES5_vE6createIS6_JRKS6_EEEPT_DpOT0_EUlPS6_E_EC2ISQ_vEESP_RKSQ_ = comdat any

$_ZNSt16allocator_traitsISaIN8nlohmann16json_abi_v3_11_327byte_container_with_subtypeISt6vectorIhSaIhEEEEEE9constructIS6_JRKS6_EEEvRS7_PT_DpOT0_ = comdat any

$_ZNKSt10unique_ptrIN8nlohmann16json_abi_v3_11_327byte_container_with_subtypeISt6vectorIhSaIhEEEEZNS1_10basic_jsonISt3mapS3_NSt7__cxx1112basic_stringIcSt11char_traitsIcESaIcEEEblmdSaNS1_14adl_serializerES5_vE6createIS6_JRKS6_EEEPT_DpOT0_EUlPS6_E_E3getEv = comdat any

$_ZNSt10unique_ptrIN8nlohmann16json_abi_v3_11_327byte_container_with_subtypeISt6vectorIhSaIhEEEEZNS1_10basic_jsonISt3mapS3_NSt7__cxx1112basic_stringIcSt11char_traitsIcESaIcEEEblmdSaNS1_14adl_serializerES5_vE6createIS6_JRKS6_EEEPT_DpOT0_EUlPS6_E_E7releaseEv = comdat any

$_ZNSt10unique_ptrIN8nlohmann16json_abi_v3_11_327byte_container_with_subtypeISt6vectorIhSaIhEEEEZNS1_10basic_jsonISt3mapS3_NSt7__cxx1112basic_stringIcSt11char_traitsIcESaIcEEEblmdSaNS1_14adl_serializerES5_vE6createIS6_JRKS6_EEEPT_DpOT0_EUlPS6_E_ED2Ev = comdat any

$_ZNSt15__uniq_ptr_dataIN8nlohmann16json_abi_v3_11_327byte_container_with_subtypeISt6vectorIhSaIhEEEEZNS1_10basic_jsonISt3mapS3_NSt7__cxx1112basic_stringIcSt11char_traitsIcESaIcEEEblmdSaNS1_14adl_serializerES5_vE6createIS6_JRKS6_EEEPT_DpOT0_EUlPS6_E_Lb1ELb0EECI2St15__uniq_ptr_implIS6_SQ_EIRKSQ_EESP_OSK_ = comdat any

$_ZNSt15__uniq_ptr_implIN8nlohmann16json_abi_v3_11_327byte_container_with_subtypeISt6vectorIhSaIhEEEEZNS1_10basic_jsonISt3mapS3_NSt7__cxx1112basic_stringIcSt11char_traitsIcESaIcEEEblmdSaNS1_14adl_serializerES5_vE6createIS6_JRKS6_EEEPT_DpOT0_EUlPS6_E_EC2IRKSQ_EESP_OSK_ = comdat any

$_ZNSt5tupleIJPN8nlohmann16json_abi_v3_11_327byte_container_with_subtypeISt6vectorIhSaIhEEEEZNS1_10basic_jsonISt3mapS3_NSt7__cxx1112basic_stringIcSt11char_traitsIcESaIcEEEblmdSaNS1_14adl_serializerES5_vE6createIS6_JRKS6_EEEPT_DpOT0_EUlS7_E_EEC2IRS7_RKSQ_TnNSt9enable_ifIXclsr4_TCCIXntcl14__is_alloc_argISL_EEEEE29__is_implicitly_constructibleISL_T0_EEEbE4typeELb1EEEOSL_OSX_ = comdat any

$_ZNSt11_Tuple_implILm0EJPN8nlohmann16json_abi_v3_11_327byte_container_with_subtypeISt6vectorIhSaIhEEEEZNS1_10basic_jsonISt3mapS3_NSt7__cxx1112basic_stringIcSt11char_traitsIcESaIcEEEblmdSaNS1_14adl_serializerES5_vE6createIS6_JRKS6_EEEPT_DpOT0_EUlS7_E_EEC2IRS7_JRKSQ_EvEEOSL_SP_ = comdat any

$_ZNSt11_Tuple_implILm1EJZN8nlohmann16json_abi_v3_11_310basic_jsonISt3mapSt6vectorNSt7__cxx1112basic_stringIcSt11char_traitsIcESaIcEEEblmdSaNS1_14adl_serializerES4_IhSaIhEEvE6createINS1_27byte_container_with_subtypeISD_EEJRKSH_EEEPT_DpOT0_EUlPSH_E_EEC2ERKSQ_ = comdat any

$_ZNSt10_Head_baseILm1EZN8nlohmann16json_abi_v3_11_310basic_jsonISt3mapSt6vectorNSt7__cxx1112basic_stringIcSt11char_traitsIcESaIcEEEblmdSaNS1_14adl_serializerES4_IhSaIhEEvE6createINS1_27byte_container_with_subtypeISD_EEJRKSH_EEEPT_DpOT0_EUlPSH_E_Lb0EEC2ERKSQ_ = comdat any

$_ZNSt15__new_allocatorIN8nlohmann16json_abi_v3_11_327byte_container_with_subtypeISt6vectorIhSaIhEEEEE9constructIS6_JRKS6_EEEvPT_DpOT0_ = comdat any

$_ZN8nlohmann16json_abi_v3_11_327byte_container_with_subtypeISt6vectorIhSaIhEEEC2ERKS5_ = comdat any

$_ZNSt6vectorIhSaIhEEC2ERKS1_ = comdat any

$_ZNKSt6vectorIhSaIhEE4sizeEv = comdat any

$_ZN9__gnu_cxx14__alloc_traitsISaIhEhE17_S_select_on_copyERKS1_ = comdat any

$_ZNKSt12_Vector_baseIhSaIhEE19_M_get_Tp_allocatorEv = comdat any

$_ZNSt12_Vector_baseIhSaIhEEC2EmRKS0_ = comdat any

$_ZNSaIhED2Ev = comdat any

$_ZSt22__uninitialized_copy_aIN9__gnu_cxx17__normal_iteratorIPKhSt6vectorIhSaIhEEEEPhhET0_T_SA_S9_RSaIT1_E = comdat any

$_ZNKSt6vectorIhSaIhEE5beginEv = comdat any

$_ZNKSt6vectorIhSaIhEE3endEv = comdat any

$_ZNSt16allocator_traitsISaIhEE37select_on_container_copy_constructionERKS0_ = comdat any

$_ZNSaIhEC2ERKS_ = comdat any

$_ZNSt15__new_allocatorIhEC2ERKS0_ = comdat any

$_ZNSt12_Vector_baseIhSaIhEE12_Vector_implC2ERKS0_ = comdat any

$_ZNSt12_Vector_baseIhSaIhEE17_M_create_storageEm = comdat any

$_ZNSt12_Vector_baseIhSaIhEE11_M_allocateEm = comdat any

$_ZNSt16allocator_traitsISaIhEE8allocateERS0_m = comdat any

$_ZNSt15__new_allocatorIhE8allocateEmPKv = comdat any

$_ZNKSt15__new_allocatorIhE11_M_max_sizeEv = comdat any

$_ZSt18uninitialized_copyIN9__gnu_cxx17__normal_iteratorIPKhSt6vectorIhSaIhEEEEPhET0_T_SA_S9_ = comdat any

$_ZNSt20__uninitialized_copyILb1EE13__uninit_copyIN9__gnu_cxx17__normal_iteratorIPKhSt6vectorIhSaIhEEEEPhEET0_T_SC_SB_ = comdat any

$_ZSt4copyIN9__gnu_cxx17__normal_iteratorIPKhSt6vectorIhSaIhEEEEPhET0_T_SA_S9_ = comdat any

$_ZSt13__copy_move_aILb0EN9__gnu_cxx17__normal_iteratorIPKhSt6vectorIhSaIhEEEEPhET1_T0_SA_S9_ = comdat any

$_ZSt12__miter_baseIN9__gnu_cxx17__normal_iteratorIPKhSt6vectorIhSaIhEEEEET_S8_ = comdat any

$_ZSt12__niter_wrapIPhET_RKS1_S1_ = comdat any

$_ZSt14__copy_move_a1ILb0EPKhPhET1_T0_S4_S3_ = comdat any

$_ZSt12__niter_baseIPKhSt6vectorIhSaIhEEET_N9__gnu_cxx17__normal_iteratorIS5_T0_EE = comdat any

$_ZSt12__niter_baseIPhET_S1_ = comdat any

$_ZSt14__copy_move_a2ILb0EPKhPhET1_T0_S4_S3_ = comdat any

$_ZNSt11__copy_moveILb0ELb1ESt26random_access_iterator_tagE8__copy_mIhEEPT_PKS3_S6_S4_ = comdat any

$_ZNK9__gnu_cxx17__normal_iteratorIPKhSt6vectorIhSaIhEEE4baseEv = comdat any

$_ZN9__gnu_cxx17__normal_iteratorIPKhSt6vectorIhSaIhEEEC2ERKS2_ = comdat any

$_ZNKSt15__uniq_ptr_implIN8nlohmann16json_abi_v3_11_327byte_container_with_subtypeISt6vectorIhSaIhEEEEZNS1_10basic_jsonISt3mapS3_NSt7__cxx1112basic_stringIcSt11char_traitsIcESaIcEEEblmdSaNS1_14adl_serializerES5_vE6createIS6_JRKS6_EEEPT_DpOT0_EUlPS6_E_E6_M_ptrEv = comdat any

$_ZSt3getILm0EJPN8nlohmann16json_abi_v3_11_327byte_container_with_subtypeISt6vectorIhSaIhEEEEZNS1_10basic_jsonISt3mapS3_NSt7__cxx1112basic_stringIcSt11char_traitsIcESaIcEEEblmdSaNS1_14adl_serializerES5_vE6createIS6_JRKS6_EEEPT_DpOT0_EUlS7_E_EERKNSt13tuple_elementIXT_ESt5tupleIJDpSN_EEE4typeERKSU_ = comdat any

$_ZSt12__get_helperILm0EPN8nlohmann16json_abi_v3_11_327byte_container_with_subtypeISt6vectorIhSaIhEEEEJZNS1_10basic_jsonISt3mapS3_NSt7__cxx1112basic_stringIcSt11char_traitsIcESaIcEEEblmdSaNS1_14adl_serializerES5_vE6createIS6_JRKS6_EEEPT_DpOT0_EUlS7_E_EERKT0_RKSt11_Tuple_implIXT_EJSR_DpT1_EE = comdat any

$_ZNSt11_Tuple_implILm0EJPN8nlohmann16json_abi_v3_11_327byte_container_with_subtypeISt6vectorIhSaIhEEEEZNS1_10basic_jsonISt3mapS3_NSt7__cxx1112basic_stringIcSt11char_traitsIcESaIcEEEblmdSaNS1_14adl_serializerES5_vE6createIS6_JRKS6_EEEPT_DpOT0_EUlS7_E_EE7_M_headERKSR_ = comdat any

$_ZNSt15__uniq_ptr_implIN8nlohmann16json_abi_v3_11_327byte_container_with_subtypeISt6vectorIhSaIhEEEEZNS1_10basic_jsonISt3mapS3_NSt7__cxx1112basic_stringIcSt11char_traitsIcESaIcEEEblmdSaNS1_14adl_serializerES5_vE6createIS6_JRKS6_EEEPT_DpOT0_EUlPS6_E_E7releaseEv = comdat any

$_ZNSt15__uniq_ptr_implIN8nlohmann16json_abi_v3_11_327byte_container_with_subtypeISt6vectorIhSaIhEEEEZNS1_10basic_jsonISt3mapS3_NSt7__cxx1112basic_stringIcSt11char_traitsIcESaIcEEEblmdSaNS1_14adl_serializerES5_vE6createIS6_JRKS6_EEEPT_DpOT0_EUlPS6_E_E6_M_ptrEv = comdat any

$_ZSt3getILm0EJPN8nlohmann16json_abi_v3_11_327byte_container_with_subtypeISt6vectorIhSaIhEEEEZNS1_10basic_jsonISt3mapS3_NSt7__cxx1112basic_stringIcSt11char_traitsIcESaIcEEEblmdSaNS1_14adl_serializerES5_vE6createIS6_JRKS6_EEEPT_DpOT0_EUlS7_E_EERNSt13tuple_elementIXT_ESt5tupleIJDpSN_EEE4typeERSU_ = comdat any

$_ZSt12__get_helperILm0EPN8nlohmann16json_abi_v3_11_327byte_container_with_subtypeISt6vectorIhSaIhEEEEJZNS1_10basic_jsonISt3mapS3_NSt7__cxx1112basic_stringIcSt11char_traitsIcESaIcEEEblmdSaNS1_14adl_serializerES5_vE6createIS6_JRKS6_EEEPT_DpOT0_EUlS7_E_EERT0_RSt11_Tuple_implIXT_EJSR_DpT1_EE = comdat any

$_ZNSt11_Tuple_implILm0EJPN8nlohmann16json_abi_v3_11_327byte_container_with_subtypeISt6vectorIhSaIhEEEEZNS1_10basic_jsonISt3mapS3_NSt7__cxx1112basic_stringIcSt11char_traitsIcESaIcEEEblmdSaNS1_14adl_serializerES5_vE6createIS6_JRKS6_EEEPT_DpOT0_EUlS7_E_EE7_M_headERSR_ = comdat any

$_ZNSt10unique_ptrIN8nlohmann16json_abi_v3_11_327byte_container_with_subtypeISt6vectorIhSaIhEEEEZNS1_10basic_jsonISt3mapS3_NSt7__cxx1112basic_stringIcSt11char_traitsIcESaIcEEEblmdSaNS1_14adl_serializerES5_vE6createIS6_JRKS6_EEEPT_DpOT0_EUlPS6_E_E11get_deleterEv = comdat any

$_ZZN8nlohmann16json_abi_v3_11_310basic_jsonISt3mapSt6vectorNSt7__cxx1112basic_stringIcSt11char_traitsIcESaIcEEEblmdSaNS0_14adl_serializerES3_IhSaIhEEvE6createINS0_27byte_container_with_subtypeISC_EEJRKSG_EEEPT_DpOT0_ENKUlPSG_E_clESO_ = comdat any

$_ZNSt15__uniq_ptr_implIN8nlohmann16json_abi_v3_11_327byte_container_with_subtypeISt6vectorIhSaIhEEEEZNS1_10basic_jsonISt3mapS3_NSt7__cxx1112basic_stringIcSt11char_traitsIcESaIcEEEblmdSaNS1_14adl_serializerES5_vE6createIS6_JRKS6_EEEPT_DpOT0_EUlPS6_E_E10_M_deleterEv = comdat any

$_ZSt3getILm1EJPN8nlohmann16json_abi_v3_11_327byte_container_with_subtypeISt6vectorIhSaIhEEEEZNS1_10basic_jsonISt3mapS3_NSt7__cxx1112basic_stringIcSt11char_traitsIcESaIcEEEblmdSaNS1_14adl_serializerES5_vE6createIS6_JRKS6_EEEPT_DpOT0_EUlS7_E_EERNSt13tuple_elementIXT_ESt5tupleIJDpSN_EEE4typeERSU_ = comdat any

$_ZSt12__get_helperILm1EZN8nlohmann16json_abi_v3_11_310basic_jsonISt3mapSt6vectorNSt7__cxx1112basic_stringIcSt11char_traitsIcESaIcEEEblmdSaNS1_14adl_serializerES4_IhSaIhEEvE6createINS1_27byte_container_with_subtypeISD_EEJRKSH_EEEPT_DpOT0_EUlPSH_E_JEERT0_RSt11_Tuple_implIXT_EJSR_DpT1_EE = comdat any

$_ZNSt11_Tuple_implILm1EJZN8nlohmann16json_abi_v3_11_310basic_jsonISt3mapSt6vectorNSt7__cxx1112basic_stringIcSt11char_traitsIcESaIcEEEblmdSaNS1_14adl_serializerES4_IhSaIhEEvE6createINS1_27byte_container_with_subtypeISD_EEJRKSH_EEEPT_DpOT0_EUlPSH_E_EE7_M_headERSR_ = comdat any

$_ZNSt10_Head_baseILm1EZN8nlohmann16json_abi_v3_11_310basic_jsonISt3mapSt6vectorNSt7__cxx1112basic_stringIcSt11char_traitsIcESaIcEEEblmdSaNS1_14adl_serializerES4_IhSaIhEEvE6createINS1_27byte_container_with_subtypeISD_EEJRKSH_EEEPT_DpOT0_EUlPSH_E_Lb0EE7_M_headERSR_ = comdat any

$_ZNSt8_Rb_treeINSt7__cxx1112basic_stringIcSt11char_traitsIcESaIcEEESt4pairIKS5_N8nlohmann16json_abi_v3_11_310basic_jsonISt3mapSt6vectorS5_blmdSaNS9_14adl_serializerESC_IhSaIhEEvEEESt10_Select1stISH_ESt4lessIS5_ESaISH_EE17_M_emplace_uniqueIJS5_SG_EEES6_ISt17_Rb_tree_iteratorISH_EbEDpOT_ = comdat any

$_ZNSt8_Rb_treeINSt7__cxx1112basic_stringIcSt11char_traitsIcESaIcEEESt4pairIKS5_N8nlohmann16json_abi_v3_11_310basic_jsonISt3mapSt6vectorS5_blmdSaNS9_14adl_serializerESC_IhSaIhEEvEEESt10_Select1stISH_ESt4lessIS5_ESaISH_EE10_Auto_nodeC2IJS5_SG_EEERSN_DpOT_ = comdat any

$_ZNSt8_Rb_treeINSt7__cxx1112basic_stringIcSt11char_traitsIcESaIcEEESt4pairIKS5_N8nlohmann16json_abi_v3_11_310basic_jsonISt3mapSt6vectorS5_blmdSaNS9_14adl_serializerESC_IhSaIhEEvEEESt10_Select1stISH_ESt4lessIS5_ESaISH_EE24_M_get_insert_unique_posERS7_ = comdat any

$_ZNKSt8_Rb_treeINSt7__cxx1112basic_stringIcSt11char_traitsIcESaIcEEESt4pairIKS5_N8nlohmann16json_abi_v3_11_310basic_jsonISt3mapSt6vectorS5_blmdSaNS9_14adl_serializerESC_IhSaIhEEvEEESt10_Select1stISH_ESt4lessIS5_ESaISH_EE10_Auto_node6_M_keyEv = comdat any

$_ZNSt8_Rb_treeINSt7__cxx1112basic_stringIcSt11char_traitsIcESaIcEEESt4pairIKS5_N8nlohmann16json_abi_v3_11_310basic_jsonISt3mapSt6vectorS5_blmdSaNS9_14adl_serializerESC_IhSaIhEEvEEESt10_Select1stISH_ESt4lessIS5_ESaISH_EE10_Auto_node9_M_insertES6_IPSt18_Rb_tree_node_baseSQ_E = comdat any

$_ZNSt4pairISt17_Rb_tree_iteratorIS_IKNSt7__cxx1112basic_stringIcSt11char_traitsIcESaIcEEEN8nlohmann16json_abi_v3_11_310basic_jsonISt3mapSt6vectorS6_blmdSaNS9_14adl_serializerESC_IhSaIhEEvEEEEbEC2ISI_bTnNSt9enable_ifIXaaclsr5_PCCPE22_MoveConstructiblePairIT_T0_EEclsr5_PCCPE30_ImplicitlyMoveConvertiblePairISM_SN_EEEbE4typeELb1EEEOSM_OSN_ = comdat any

$_ZNSt8_Rb_treeINSt7__cxx1112basic_stringIcSt11char_traitsIcESaIcEEESt4pairIKS5_N8nlohmann16json_abi_v3_11_310basic_jsonISt3mapSt6vectorS5_blmdSaNS9_14adl_serializerESC_IhSaIhEEvEEESt10_Select1stISH_ESt4lessIS5_ESaISH_EE10_Auto_nodeD2Ev = comdat any

$_ZNSt8_Rb_treeINSt7__cxx1112basic_stringIcSt11char_traitsIcESaIcEEESt4pairIKS5_N8nlohmann16json_abi_v3_11_310basic_jsonISt3mapSt6vectorS5_blmdSaNS9_14adl_serializerESC_IhSaIhEEvEEESt10_Select1stISH_ESt4lessIS5_ESaISH_EE14_M_create_nodeIJS5_SG_EEEPSt13_Rb_tree_nodeISH_EDpOT_ = comdat any

$_ZNSt8_Rb_treeINSt7__cxx1112basic_stringIcSt11char_traitsIcESaIcEEESt4pairIKS5_N8nlohmann16json_abi_v3_11_310basic_jsonISt3mapSt6vectorS5_blmdSaNS9_14adl_serializerESC_IhSaIhEEvEEESt10_Select1stISH_ESt4lessIS5_ESaISH_EE17_M_construct_nodeIJS5_SG_EEEvPSt13_Rb_tree_nodeISH_EDpOT_ = comdat any

$_ZNSt16allocator_traitsISaISt13_Rb_tree_nodeISt4pairIKNSt7__cxx1112basic_stringIcSt11char_traitsIcESaIcEEEN8nlohmann16json_abi_v3_11_310basic_jsonISt3mapSt6vectorS7_blmdSaNSA_14adl_serializerESD_IhSaIhEEvEEEEEE9constructISI_JS7_SH_EEEvRSK_PT_DpOT0_ = comdat any

$_ZNSt15__new_allocatorISt13_Rb_tree_nodeISt4pairIKNSt7__cxx1112basic_stringIcSt11char_traitsIcESaIcEEEN8nlohmann16json_abi_v3_11_310basic_jsonISt3mapSt6vectorS7_blmdSaNSA_14adl_serializerESD_IhSaIhEEvEEEEE9constructISI_JS7_SH_EEEvPT_DpOT0_ = comdat any

$_ZNSt4pairIKNSt7__cxx1112basic_stringIcSt11char_traitsIcESaIcEEEN8nlohmann16json_abi_v3_11_310basic_jsonISt3mapSt6vectorS5_blmdSaNS8_14adl_serializerESB_IhSaIhEEvEEEC2IS5_SF_TnNSt9enable_ifIXaaclsr5_PCCPE22_MoveConstructiblePairIT_T0_EEclsr5_PCCPE30_ImplicitlyMoveConvertiblePairISJ_SK_EEEbE4typeELb1EEEOSJ_OSK_ = comdat any

$_ZNKSt4lessINSt7__cxx1112basic_stringIcSt11char_traitsIcESaIcEEEEclERKS5_S8_ = comdat any

$_ZNSt8_Rb_treeINSt7__cxx1112basic_stringIcSt11char_traitsIcESaIcEEESt4pairIKS5_N8nlohmann16json_abi_v3_11_310basic_jsonISt3mapSt6vectorS5_blmdSaNS9_14adl_serializerESC_IhSaIhEEvEEESt10_Select1stISH_ESt4lessIS5_ESaISH_EE6_S_keyEPKSt13_Rb_tree_nodeISH_E = comdat any

$_ZSteqRKSt17_Rb_tree_iteratorISt4pairIKNSt7__cxx1112basic_stringIcSt11char_traitsIcESaIcEEEN8nlohmann16json_abi_v3_11_310basic_jsonISt3mapSt6vectorS6_blmdSaNS9_14adl_serializerESC_IhSaIhEEvEEEESK_ = comdat any

$_ZNSt4pairIPSt18_Rb_tree_node_baseS1_EC2IRPSt13_Rb_tree_nodeIS_IKNSt7__cxx1112basic_stringIcSt11char_traitsIcESaIcEEEN8nlohmann16json_abi_v3_11_310basic_jsonISt3mapSt6vectorSA_blmdSaNSD_14adl_serializerESG_IhSaIhEEvEEEERS1_TnNSt9enable_ifIXaaclsr5_PCCPE22_MoveConstructiblePairIT_T0_EEclsr5_PCCPE30_ImplicitlyMoveConvertiblePairISR_SS_EEEbE4typeELb1EEEOSR_OSS_ = comdat any

$_ZNSt17_Rb_tree_iteratorISt4pairIKNSt7__cxx1112basic_stringIcSt11char_traitsIcESaIcEEEN8nlohmann16json_abi_v3_11_310basic_jsonISt3mapSt6vectorS6_blmdSaNS9_14adl_serializerESC_IhSaIhEEvEEEEmmEv = comdat any

$_ZNSt8_Rb_treeINSt7__cxx1112basic_stringIcSt11char_traitsIcESaIcEEESt4pairIKS5_N8nlohmann16json_abi_v3_11_310basic_jsonISt3mapSt6vectorS5_blmdSaNS9_14adl_serializerESC_IhSaIhEEvEEESt10_Select1stISH_ESt4lessIS5_ESaISH_EE6_S_keyEPKSt18_Rb_tree_node_base = comdat any

$_ZNSt4pairIPSt18_Rb_tree_node_baseS1_EC2IS1_S1_TnNSt9enable_ifIXaaclsr5_PCCPE18_ConstructiblePairIT_T0_EEclsr5_PCCPE26_ImplicitlyConvertiblePairIS5_S6_EEEbE4typeELb1EEERKS1_SA_ = comdat any

$_ZStltIcSt11char_traitsIcESaIcEEbRKNSt7__cxx1112basic_stringIT_T0_T1_EESA_ = comdat any

$_ZNKSt10_Select1stISt4pairIKNSt7__cxx1112basic_stringIcSt11char_traitsIcESaIcEEEN8nlohmann16json_abi_v3_11_310basic_jsonISt3mapSt6vectorS6_blmdSaNS9_14adl_serializerESC_IhSaIhEEvEEEEclERKSH_ = comdat any

$_ZNKSt13_Rb_tree_nodeISt4pairIKNSt7__cxx1112basic_stringIcSt11char_traitsIcESaIcEEEN8nlohmann16json_abi_v3_11_310basic_jsonISt3mapSt6vectorS6_blmdSaNS9_14adl_serializerESC_IhSaIhEEvEEEE9_M_valptrEv = comdat any

$_ZNK9__gnu_cxx16__aligned_membufISt4pairIKNSt7__cxx1112basic_stringIcSt11char_traitsIcESaIcEEEN8nlohmann16json_abi_v3_11_310basic_jsonISt3mapSt6vectorS7_blmdSaNSA_14adl_serializerESD_IhSaIhEEvEEEE6_M_ptrEv = comdat any

$_ZNK9__gnu_cxx16__aligned_membufISt4pairIKNSt7__cxx1112basic_stringIcSt11char_traitsIcESaIcEEEN8nlohmann16json_abi_v3_11_310basic_jsonISt3mapSt6vectorS7_blmdSaNSA_14adl_serializerESD_IhSaIhEEvEEEE7_M_addrEv = comdat any

$_ZNSt8_Rb_treeINSt7__cxx1112basic_stringIcSt11char_traitsIcESaIcEEESt4pairIKS5_N8nlohmann16json_abi_v3_11_310basic_jsonISt3mapSt6vectorS5_blmdSaNS9_14adl_serializerESC_IhSaIhEEvEEESt10_Select1stISH_ESt4lessIS5_ESaISH_EE14_M_insert_nodeEPSt18_Rb_tree_node_baseSP_PSt13_Rb_tree_nodeISH_E = comdat any

$_ZNSt10unique_ptrISt6vectorIN8nlohmann16json_abi_v3_11_310basic_jsonISt3mapS0_NSt7__cxx1112basic_stringIcSt11char_traitsIcESaIcEEEblmdSaNS2_14adl_serializerES0_IhSaIhEEvEESaISE_EEZNSE_6createISG_JPKNS2_6detail8json_refISE_EESM_EEEPT_DpOT0_EUlPSG_E_EC2IST_vEESS_RKST_ = comdat any

$_ZNSt16allocator_traitsISaISt6vectorIN8nlohmann16json_abi_v3_11_310basic_jsonISt3mapS0_NSt7__cxx1112basic_stringIcSt11char_traitsIcESaIcEEEblmdSaNS2_14adl_serializerES0_IhSaIhEEvEESaISE_EEEE9constructISG_JPKNS2_6detail8json_refISE_EESO_EEEvRSH_PT_DpOT0_ = comdat any

$_ZNKSt10unique_ptrISt6vectorIN8nlohmann16json_abi_v3_11_310basic_jsonISt3mapS0_NSt7__cxx1112basic_stringIcSt11char_traitsIcESaIcEEEblmdSaNS2_14adl_serializerES0_IhSaIhEEvEESaISE_EEZNSE_6createISG_JPKNS2_6detail8json_refISE_EESM_EEEPT_DpOT0_EUlPSG_E_E3getEv = comdat any

$_ZNSt10unique_ptrISt6vectorIN8nlohmann16json_abi_v3_11_310basic_jsonISt3mapS0_NSt7__cxx1112basic_stringIcSt11char_traitsIcESaIcEEEblmdSaNS2_14adl_serializerES0_IhSaIhEEvEESaISE_EEZNSE_6createISG_JPKNS2_6detail8json_refISE_EESM_EEEPT_DpOT0_EUlPSG_E_E7releaseEv = comdat any

$_ZNSt10unique_ptrISt6vectorIN8nlohmann16json_abi_v3_11_310basic_jsonISt3mapS0_NSt7__cxx1112basic_stringIcSt11char_traitsIcESaIcEEEblmdSaNS2_14adl_serializerES0_IhSaIhEEvEESaISE_EEZNSE_6createISG_JPKNS2_6detail8json_refISE_EESM_EEEPT_DpOT0_EUlPSG_E_ED2Ev = comdat any

$_ZNSt15__uniq_ptr_dataISt6vectorIN8nlohmann16json_abi_v3_11_310basic_jsonISt3mapS0_NSt7__cxx1112basic_stringIcSt11char_traitsIcESaIcEEEblmdSaNS2_14adl_serializerES0_IhSaIhEEvEESaISE_EEZNSE_6createISG_JPKNS2_6detail8json_refISE_EESM_EEEPT_DpOT0_EUlPSG_E_Lb1ELb0EECI2St15__uniq_ptr_implISG_ST_EIRKST_EESS_OSN_ = comdat any

$_ZNSt15__uniq_ptr_implISt6vectorIN8nlohmann16json_abi_v3_11_310basic_jsonISt3mapS0_NSt7__cxx1112basic_stringIcSt11char_traitsIcESaIcEEEblmdSaNS2_14adl_serializerES0_IhSaIhEEvEESaISE_EEZNSE_6createISG_JPKNS2_6detail8json_refISE_EESM_EEEPT_DpOT0_EUlPSG_E_EC2IRKST_EESS_OSN_ = comdat any

$_ZNSt5tupleIJPSt6vectorIN8nlohmann16json_abi_v3_11_310basic_jsonISt3mapS0_NSt7__cxx1112basic_stringIcSt11char_traitsIcESaIcEEEblmdSaNS2_14adl_serializerES0_IhSaIhEEvEESaISE_EEZNSE_6createISG_JPKNS2_6detail8json_refISE_EESN_EEEPT_DpOT0_EUlSH_E_EEC2IRSH_RKST_TnNSt9enable_ifIXclsr4_TCCIXntcl14__is_alloc_argISO_EEEEE29__is_implicitly_constructibleISO_T0_EEEbE4typeELb1EEEOSO_OS10_ = comdat any

$_ZNSt11_Tuple_implILm0EJPSt6vectorIN8nlohmann16json_abi_v3_11_310basic_jsonISt3mapS0_NSt7__cxx1112basic_stringIcSt11char_traitsIcESaIcEEEblmdSaNS2_14adl_serializerES0_IhSaIhEEvEESaISE_EEZNSE_6createISG_JPKNS2_6detail8json_refISE_EESN_EEEPT_DpOT0_EUlSH_E_EEC2IRSH_JRKST_EvEEOSO_SS_ = comdat any

$_ZNSt11_Tuple_implILm1EJZN8nlohmann16json_abi_v3_11_310basic_jsonISt3mapSt6vectorNSt7__cxx1112basic_stringIcSt11char_traitsIcESaIcEEEblmdSaNS1_14adl_serializerES4_IhSaIhEEvE6createIS4_ISE_SaISE_EEJPKNS1_6detail8json_refISE_EESM_EEEPT_DpOT0_EUlPSH_E_EEC2ERKST_ = comdat any

$_ZNSt10_Head_baseILm1EZN8nlohmann16json_abi_v3_11_310basic_jsonISt3mapSt6vectorNSt7__cxx1112basic_stringIcSt11char_traitsIcESaIcEEEblmdSaNS1_14adl_serializerES4_IhSaIhEEvE6createIS4_ISE_SaISE_EEJPKNS1_6detail8json_refISE_EESM_EEEPT_DpOT0_EUlPSH_E_Lb0EEC2ERKST_ = comdat any

$_ZNSt15__new_allocatorISt6vectorIN8nlohmann16json_abi_v3_11_310basic_jsonISt3mapS0_NSt7__cxx1112basic_stringIcSt11char_traitsIcESaIcEEEblmdSaNS2_14adl_serializerES0_IhSaIhEEvEESaISE_EEE9constructISG_JPKNS2_6detail8json_refISE_EESN_EEEvPT_DpOT0_ = comdat any

$_ZNSaIN8nlohmann16json_abi_v3_11_310basic_jsonISt3mapSt6vectorNSt7__cxx1112basic_stringIcSt11char_traitsIcESaIcEEEblmdSaNS0_14adl_serializerES3_IhSaIhEEvEEEC2Ev = comdat any

$_ZNSt6vectorIN8nlohmann16json_abi_v3_11_310basic_jsonISt3mapS_NSt7__cxx1112basic_stringIcSt11char_traitsIcESaIcEEEblmdSaNS1_14adl_serializerES_IhSaIhEEvEESaISD_EEC2IPKNS1_6detail8json_refISD_EEvEET_SM_RKSE_ = comdat any

$_ZNSt12_Vector_baseIN8nlohmann16json_abi_v3_11_310basic_jsonISt3mapSt6vectorNSt7__cxx1112basic_stringIcSt11char_traitsIcESaIcEEEblmdSaNS1_14adl_serializerES4_IhSaIhEEvEESaISE_EEC2ERKSF_ = comdat any

$_ZNSt6vectorIN8nlohmann16json_abi_v3_11_310basic_jsonISt3mapS_NSt7__cxx1112basic_stringIcSt11char_traitsIcESaIcEEEblmdSaNS1_14adl_serializerES_IhSaIhEEvEESaISD_EE19_M_range_initializeIPKNS1_6detail8json_refISD_EEEEvT_SM_St20forward_iterator_tag = comdat any

$_ZSt8distanceIPKN8nlohmann16json_abi_v3_11_36detail8json_refINS1_10basic_jsonISt3mapSt6vectorNSt7__cxx1112basic_stringIcSt11char_traitsIcESaIcEEEblmdSaNS1_14adl_serializerES6_IhSaIhEEvEEEEENSt15iterator_traitsIT_E15difference_typeESL_SL_ = comdat any

$_ZNSt6vectorIN8nlohmann16json_abi_v3_11_310basic_jsonISt3mapS_NSt7__cxx1112basic_stringIcSt11char_traitsIcESaIcEEEblmdSaNS1_14adl_serializerES_IhSaIhEEvEESaISD_EE17_S_check_init_lenEmRKSE_ = comdat any

$_ZSt22__uninitialized_copy_aIPKN8nlohmann16json_abi_v3_11_36detail8json_refINS1_10basic_jsonISt3mapSt6vectorNSt7__cxx1112basic_stringIcSt11char_traitsIcESaIcEEEblmdSaNS1_14adl_serializerES6_IhSaIhEEvEEEEPSG_SG_ET0_T_SM_SL_RSaIT1_E = comdat any

$_ZSt10__distanceIPKN8nlohmann16json_abi_v3_11_36detail8json_refINS1_10basic_jsonISt3mapSt6vectorNSt7__cxx1112basic_stringIcSt11char_traitsIcESaIcEEEblmdSaNS1_14adl_serializerES6_IhSaIhEEvEEEEENSt15iterator_traitsIT_E15difference_typeESL_SL_St26random_access_iterator_tag = comdat any

$_ZSt18uninitialized_copyIPKN8nlohmann16json_abi_v3_11_36detail8json_refINS1_10basic_jsonISt3mapSt6vectorNSt7__cxx1112basic_stringIcSt11char_traitsIcESaIcEEEblmdSaNS1_14adl_serializerES6_IhSaIhEEvEEEEPSG_ET0_T_SM_SL_ = comdat any

$_ZNSt20__uninitialized_copyILb0EE13__uninit_copyIPKN8nlohmann16json_abi_v3_11_36detail8json_refINS3_10basic_jsonISt3mapSt6vectorNSt7__cxx1112basic_stringIcSt11char_traitsIcESaIcEEEblmdSaNS3_14adl_serializerES8_IhSaIhEEvEEEEPSI_EET0_T_SO_SN_ = comdat any

$_ZSt16__do_uninit_copyIPKN8nlohmann16json_abi_v3_11_36detail8json_refINS1_10basic_jsonISt3mapSt6vectorNSt7__cxx1112basic_stringIcSt11char_traitsIcESaIcEEEblmdSaNS1_14adl_serializerES6_IhSaIhEEvEEEEPSG_ET0_T_SM_SL_ = comdat any

$_ZSt10_ConstructIN8nlohmann16json_abi_v3_11_310basic_jsonISt3mapSt6vectorNSt7__cxx1112basic_stringIcSt11char_traitsIcESaIcEEEblmdSaNS1_14adl_serializerES4_IhSaIhEEvEEJRKNS1_6detail8json_refISE_EEEEvPT_DpOT0_ = comdat any

$_ZN8nlohmann16json_abi_v3_11_310basic_jsonISt3mapSt6vectorNSt7__cxx1112basic_stringIcSt11char_traitsIcESaIcEEEblmdSaNS0_14adl_serializerES3_IhSaIhEEvEC2INS0_6detail8json_refISD_EETnNSt9enable_ifIXsr6detail11conjunctionINSF_11is_json_refIT_EESt7is_sameINSK_10value_typeESD_EEE5valueEiE4typeELi0EEERKSK_ = comdat any

$_ZNKSt15__uniq_ptr_implISt6vectorIN8nlohmann16json_abi_v3_11_310basic_jsonISt3mapS0_NSt7__cxx1112basic_stringIcSt11char_traitsIcESaIcEEEblmdSaNS2_14adl_serializerES0_IhSaIhEEvEESaISE_EEZNSE_6createISG_JPKNS2_6detail8json_refISE_EESM_EEEPT_DpOT0_EUlPSG_E_E6_M_ptrEv = comdat any

$_ZSt3getILm0EJPSt6vectorIN8nlohmann16json_abi_v3_11_310basic_jsonISt3mapS0_NSt7__cxx1112basic_stringIcSt11char_traitsIcESaIcEEEblmdSaNS2_14adl_serializerES0_IhSaIhEEvEESaISE_EEZNSE_6createISG_JPKNS2_6detail8json_refISE_EESN_EEEPT_DpOT0_EUlSH_E_EERKNSt13tuple_elementIXT_ESt5tupleIJDpSQ_EEE4typeERKSX_ = comdat any

$_ZSt12__get_helperILm0EPSt6vectorIN8nlohmann16json_abi_v3_11_310basic_jsonISt3mapS0_NSt7__cxx1112basic_stringIcSt11char_traitsIcESaIcEEEblmdSaNS2_14adl_serializerES0_IhSaIhEEvEESaISE_EEJZNSE_6createISG_JPKNS2_6detail8json_refISE_EESN_EEEPT_DpOT0_EUlSH_E_EERKT0_RKSt11_Tuple_implIXT_EJSU_DpT1_EE = comdat any

$_ZNSt11_Tuple_implILm0EJPSt6vectorIN8nlohmann16json_abi_v3_11_310basic_jsonISt3mapS0_NSt7__cxx1112basic_stringIcSt11char_traitsIcESaIcEEEblmdSaNS2_14adl_serializerES0_IhSaIhEEvEESaISE_EEZNSE_6createISG_JPKNS2_6detail8json_refISE_EESN_EEEPT_DpOT0_EUlSH_E_EE7_M_headERKSU_ = comdat any

$_ZNSt15__uniq_ptr_implISt6vectorIN8nlohmann16json_abi_v3_11_310basic_jsonISt3mapS0_NSt7__cxx1112basic_stringIcSt11char_traitsIcESaIcEEEblmdSaNS2_14adl_serializerES0_IhSaIhEEvEESaISE_EEZNSE_6createISG_JPKNS2_6detail8json_refISE_EESM_EEEPT_DpOT0_EUlPSG_E_E7releaseEv = comdat any

$_ZNSt15__uniq_ptr_implISt6vectorIN8nlohmann16json_abi_v3_11_310basic_jsonISt3mapS0_NSt7__cxx1112basic_stringIcSt11char_traitsIcESaIcEEEblmdSaNS2_14adl_serializerES0_IhSaIhEEvEESaISE_EEZNSE_6createISG_JPKNS2_6detail8json_refISE_EESM_EEEPT_DpOT0_EUlPSG_E_E6_M_ptrEv = comdat any

$_ZSt3getILm0EJPSt6vectorIN8nlohmann16json_abi_v3_11_310basic_jsonISt3mapS0_NSt7__cxx1112basic_stringIcSt11char_traitsIcESaIcEEEblmdSaNS2_14adl_serializerES0_IhSaIhEEvEESaISE_EEZNSE_6createISG_JPKNS2_6detail8json_refISE_EESN_EEEPT_DpOT0_EUlSH_E_EERNSt13tuple_elementIXT_ESt5tupleIJDpSQ_EEE4typeERSX_ = comdat any

$_ZSt12__get_helperILm0EPSt6vectorIN8nlohmann16json_abi_v3_11_310basic_jsonISt3mapS0_NSt7__cxx1112basic_stringIcSt11char_traitsIcESaIcEEEblmdSaNS2_14adl_serializerES0_IhSaIhEEvEESaISE_EEJZNSE_6createISG_JPKNS2_6detail8json_refISE_EESN_EEEPT_DpOT0_EUlSH_E_EERT0_RSt11_Tuple_implIXT_EJSU_DpT1_EE = comdat any

$_ZNSt11_Tuple_implILm0EJPSt6vectorIN8nlohmann16json_abi_v3_11_310basic_jsonISt3mapS0_NSt7__cxx1112basic_stringIcSt11char_traitsIcESaIcEEEblmdSaNS2_14adl_serializerES0_IhSaIhEEvEESaISE_EEZNSE_6createISG_JPKNS2_6detail8json_refISE_EESN_EEEPT_DpOT0_EUlSH_E_EE7_M_headERSU_ = comdat any

$_ZNSt10unique_ptrISt6vectorIN8nlohmann16json_abi_v3_11_310basic_jsonISt3mapS0_NSt7__cxx1112basic_stringIcSt11char_traitsIcESaIcEEEblmdSaNS2_14adl_serializerES0_IhSaIhEEvEESaISE_EEZNSE_6createISG_JPKNS2_6detail8json_refISE_EESM_EEEPT_DpOT0_EUlPSG_E_E11get_deleterEv = comdat any

$_ZZN8nlohmann16json_abi_v3_11_310basic_jsonISt3mapSt6vectorNSt7__cxx1112basic_stringIcSt11char_traitsIcESaIcEEEblmdSaNS0_14adl_serializerES3_IhSaIhEEvE6createIS3_ISD_SaISD_EEJPKNS0_6detail8json_refISD_EESL_EEEPT_DpOT0_ENKUlPSG_E_clESR_ = comdat any

$_ZNSt15__uniq_ptr_implISt6vectorIN8nlohmann16json_abi_v3_11_310basic_jsonISt3mapS0_NSt7__cxx1112basic_stringIcSt11char_traitsIcESaIcEEEblmdSaNS2_14adl_serializerES0_IhSaIhEEvEESaISE_EEZNSE_6createISG_JPKNS2_6detail8json_refISE_EESM_EEEPT_DpOT0_EUlPSG_E_E10_M_deleterEv = comdat any

$_ZSt3getILm1EJPSt6vectorIN8nlohmann16json_abi_v3_11_310basic_jsonISt3mapS0_NSt7__cxx1112basic_stringIcSt11char_traitsIcESaIcEEEblmdSaNS2_14adl_serializerES0_IhSaIhEEvEESaISE_EEZNSE_6createISG_JPKNS2_6detail8json_refISE_EESN_EEEPT_DpOT0_EUlSH_E_EERNSt13tuple_elementIXT_ESt5tupleIJDpSQ_EEE4typeERSX_ = comdat any

$_ZSt12__get_helperILm1EZN8nlohmann16json_abi_v3_11_310basic_jsonISt3mapSt6vectorNSt7__cxx1112basic_stringIcSt11char_traitsIcESaIcEEEblmdSaNS1_14adl_serializerES4_IhSaIhEEvE6createIS4_ISE_SaISE_EEJPKNS1_6detail8json_refISE_EESM_EEEPT_DpOT0_EUlPSH_E_JEERT0_RSt11_Tuple_implIXT_EJSU_DpT1_EE = comdat any

$_ZNSt11_Tuple_implILm1EJZN8nlohmann16json_abi_v3_11_310basic_jsonISt3mapSt6vectorNSt7__cxx1112basic_stringIcSt11char_traitsIcESaIcEEEblmdSaNS1_14adl_serializerES4_IhSaIhEEvE6createIS4_ISE_SaISE_EEJPKNS1_6detail8json_refISE_EESM_EEEPT_DpOT0_EUlPSH_E_EE7_M_headERSU_ = comdat any

$_ZNSt10_Head_baseILm1EZN8nlohmann16json_abi_v3_11_310basic_jsonISt3mapSt6vectorNSt7__cxx1112basic_stringIcSt11char_traitsIcESaIcEEEblmdSaNS1_14adl_serializerES4_IhSaIhEEvE6createIS4_ISE_SaISE_EEJPKNS1_6detail8json_refISE_EESM_EEEPT_DpOT0_EUlPSH_E_Lb0EE7_M_headERSU_ = comdat any

$_ZNKSt8ios_base5widthEv = comdat any

$_ZN8nlohmann16json_abi_v3_11_36detail14output_adapterIcNSt7__cxx1112basic_stringIcSt11char_traitsIcESaIcEEEEC2ERSo = comdat any

$_ZN8nlohmann16json_abi_v3_11_36detail14output_adapterIcNSt7__cxx1112basic_stringIcSt11char_traitsIcESaIcEEEEcvSt10shared_ptrINS1_23output_adapter_protocolIcEEEEv = comdat any

$_ZN8nlohmann16json_abi_v3_11_36detail10serializerINS0_10basic_jsonISt3mapSt6vectorNSt7__cxx1112basic_stringIcSt11char_traitsIcESaIcEEEblmdSaNS0_14adl_serializerES5_IhSaIhEEvEEEC2ESt10shared_ptrINS1_23output_adapter_protocolIcEEEcNS1_15error_handler_tE = comdat any

$_ZNSt10shared_ptrIN8nlohmann16json_abi_v3_11_36detail23output_adapter_protocolIcEEED2Ev = comdat any

$_ZN8nlohmann16json_abi_v3_11_36detail14output_adapterIcNSt7__cxx1112basic_stringIcSt11char_traitsIcESaIcEEEED2Ev = comdat any

$_ZN8nlohmann16json_abi_v3_11_36detail10serializerINS0_10basic_jsonISt3mapSt6vectorNSt7__cxx1112basic_stringIcSt11char_traitsIcESaIcEEEblmdSaNS0_14adl_serializerES5_IhSaIhEEvEEE4dumpERKSF_bbjj = comdat any

$_ZN8nlohmann16json_abi_v3_11_36detail10serializerINS0_10basic_jsonISt3mapSt6vectorNSt7__cxx1112basic_stringIcSt11char_traitsIcESaIcEEEblmdSaNS0_14adl_serializerES5_IhSaIhEEvEEED2Ev = comdat any

$_ZSt11make_sharedIN8nlohmann16json_abi_v3_11_36detail21output_stream_adapterIcEEJRSoEESt10shared_ptrINSt9enable_ifIXntsr8is_arrayIT_EE5valueES8_E4typeEEDpOT0_ = comdat any

$_ZNSt10shared_ptrIN8nlohmann16json_abi_v3_11_36detail23output_adapter_protocolIcEEEC2INS2_21output_stream_adapterIcEEvEEOS_IT_E = comdat any

$_ZNSt10shared_ptrIN8nlohmann16json_abi_v3_11_36detail21output_stream_adapterIcEEED2Ev = comdat any

$_ZNSt10shared_ptrIN8nlohmann16json_abi_v3_11_36detail21output_stream_adapterIcEEEC2ISaIvEJRSoEEESt20_Sp_alloc_shared_tagIT_EDpOT0_ = comdat any

$_ZNSt12__shared_ptrIN8nlohmann16json_abi_v3_11_36detail21output_stream_adapterIcEELN9__gnu_cxx12_Lock_policyE2EEC2ISaIvEJRSoEEESt20_Sp_alloc_shared_tagIT_EDpOT0_ = comdat any

$_ZNSt14__shared_countILN9__gnu_cxx12_Lock_policyE2EEC2IN8nlohmann16json_abi_v3_11_36detail21output_stream_adapterIcEESaIvEJRSoEEERPT_St20_Sp_alloc_shared_tagIT0_EDpOT1_ = comdat any

$_ZNSt12__shared_ptrIN8nlohmann16json_abi_v3_11_36detail21output_stream_adapterIcEELN9__gnu_cxx12_Lock_policyE2EE31_M_enable_shared_from_this_withIS4_S4_EENSt9enable_ifIXntsr15__has_esft_baseIT0_EE5valueEvE4typeEPT_ = comdat any

$_ZNSaISt23_Sp_counted_ptr_inplaceIN8nlohmann16json_abi_v3_11_36detail21output_stream_adapterIcEESaIvELN9__gnu_cxx12_Lock_policyE2EEEC2IvEERKSaIT_E = comdat any

$_ZSt18__allocate_guardedISaISt23_Sp_counted_ptr_inplaceIN8nlohmann16json_abi_v3_11_36detail21output_stream_adapterIcEESaIvELN9__gnu_cxx12_Lock_policyE2EEEESt15__allocated_ptrIT_ERSC_ = comdat any

$_ZNSt15__allocated_ptrISaISt23_Sp_counted_ptr_inplaceIN8nlohmann16json_abi_v3_11_36detail21output_stream_adapterIcEESaIvELN9__gnu_cxx12_Lock_policyE2EEEE3getEv = comdat any

$_ZNSt23_Sp_counted_ptr_inplaceIN8nlohmann16json_abi_v3_11_36detail21output_stream_adapterIcEESaIvELN9__gnu_cxx12_Lock_policyE2EEC2IJRSoEEES5_DpOT_ = comdat any

$_ZNSt15__allocated_ptrISaISt23_Sp_counted_ptr_inplaceIN8nlohmann16json_abi_v3_11_36detail21output_stream_adapterIcEESaIvELN9__gnu_cxx12_Lock_policyE2EEEEaSEDn = comdat any

$_ZNSt23_Sp_counted_ptr_inplaceIN8nlohmann16json_abi_v3_11_36detail21output_stream_adapterIcEESaIvELN9__gnu_cxx12_Lock_policyE2EE6_M_ptrEv = comdat any

$_ZNSt15__allocated_ptrISaISt23_Sp_counted_ptr_inplaceIN8nlohmann16json_abi_v3_11_36detail21output_stream_adapterIcEESaIvELN9__gnu_cxx12_Lock_policyE2EEEED2Ev = comdat any

$_ZNSaISt23_Sp_counted_ptr_inplaceIN8nlohmann16json_abi_v3_11_36detail21output_stream_adapterIcEESaIvELN9__gnu_cxx12_Lock_policyE2EEED2Ev = comdat any

$_ZNSt15__new_allocatorISt23_Sp_counted_ptr_inplaceIN8nlohmann16json_abi_v3_11_36detail21output_stream_adapterIcEESaIvELN9__gnu_cxx12_Lock_policyE2EEEC2Ev = comdat any

$_ZNSt16allocator_traitsISaISt23_Sp_counted_ptr_inplaceIN8nlohmann16json_abi_v3_11_36detail21output_stream_adapterIcEESaIvELN9__gnu_cxx12_Lock_policyE2EEEE8allocateERSA_m = comdat any

$_ZNSt15__allocated_ptrISaISt23_Sp_counted_ptr_inplaceIN8nlohmann16json_abi_v3_11_36detail21output_stream_adapterIcEESaIvELN9__gnu_cxx12_Lock_policyE2EEEEC2ERSA_PS9_ = comdat any

$_ZNSt15__new_allocatorISt23_Sp_counted_ptr_inplaceIN8nlohmann16json_abi_v3_11_36detail21output_stream_adapterIcEESaIvELN9__gnu_cxx12_Lock_policyE2EEE8allocateEmPKv = comdat any

$_ZNKSt15__new_allocatorISt23_Sp_counted_ptr_inplaceIN8nlohmann16json_abi_v3_11_36detail21output_stream_adapterIcEESaIvELN9__gnu_cxx12_Lock_policyE2EEE11_M_max_sizeEv = comdat any

$_ZSt12__to_addressISt23_Sp_counted_ptr_inplaceIN8nlohmann16json_abi_v3_11_36detail21output_stream_adapterIcEESaIvELN9__gnu_cxx12_Lock_policyE2EEEPT_SB_ = comdat any

$_ZNSt16_Sp_counted_baseILN9__gnu_cxx12_Lock_policyE2EEC2Ev = comdat any

$_ZNSt23_Sp_counted_ptr_inplaceIN8nlohmann16json_abi_v3_11_36detail21output_stream_adapterIcEESaIvELN9__gnu_cxx12_Lock_policyE2EE5_ImplC2ES5_ = comdat any

$_ZNSt16allocator_traitsISaIvEE9constructIN8nlohmann16json_abi_v3_11_36detail21output_stream_adapterIcEEJRSoEEEvRS0_PT_DpOT0_ = comdat any

$_ZNSt23_Sp_counted_ptr_inplaceIN8nlohmann16json_abi_v3_11_36detail21output_stream_adapterIcEESaIvELN9__gnu_cxx12_Lock_policyE2EED2Ev = comdat any

$_ZNSt23_Sp_counted_ptr_inplaceIN8nlohmann16json_abi_v3_11_36detail21output_stream_adapterIcEESaIvELN9__gnu_cxx12_Lock_policyE2EED0Ev = comdat any

$_ZNSt23_Sp_counted_ptr_inplaceIN8nlohmann16json_abi_v3_11_36detail21output_stream_adapterIcEESaIvELN9__gnu_cxx12_Lock_policyE2EE10_M_disposeEv = comdat any

$_ZNSt23_Sp_counted_ptr_inplaceIN8nlohmann16json_abi_v3_11_36detail21output_stream_adapterIcEESaIvELN9__gnu_cxx12_Lock_policyE2EE10_M_destroyEv = comdat any

$_ZNSt23_Sp_counted_ptr_inplaceIN8nlohmann16json_abi_v3_11_36detail21output_stream_adapterIcEESaIvELN9__gnu_cxx12_Lock_policyE2EE14_M_get_deleterERKSt9type_info = comdat any

$_ZNSt16_Sp_counted_baseILN9__gnu_cxx12_Lock_policyE2EED2Ev = comdat any

$_ZNSt16_Sp_counted_baseILN9__gnu_cxx12_Lock_policyE2EED0Ev = comdat any

$_ZNSt16_Sp_counted_baseILN9__gnu_cxx12_Lock_policyE2EE10_M_destroyEv = comdat any

$_ZNSt14_Sp_ebo_helperILi0ESaIvELb1EEC2ERKS0_ = comdat any

$_ZSt10_ConstructIN8nlohmann16json_abi_v3_11_36detail21output_stream_adapterIcEEJRSoEEvPT_DpOT0_ = comdat any

$_ZN8nlohmann16json_abi_v3_11_36detail21output_stream_adapterIcEC2ERSo = comdat any

$_ZN8nlohmann16json_abi_v3_11_36detail23output_adapter_protocolIcEC2Ev = comdat any

$_ZN8nlohmann16json_abi_v3_11_36detail21output_stream_adapterIcE15write_characterEc = comdat any

$_ZN8nlohmann16json_abi_v3_11_36detail21output_stream_adapterIcE16write_charactersEPKcm = comdat any

$_ZN8nlohmann16json_abi_v3_11_36detail21output_stream_adapterIcED2Ev = comdat any

$_ZN8nlohmann16json_abi_v3_11_36detail21output_stream_adapterIcED0Ev = comdat any

$_ZN8nlohmann16json_abi_v3_11_36detail23output_adapter_protocolIcED2Ev = comdat any

$_ZN8nlohmann16json_abi_v3_11_36detail23output_adapter_protocolIcED0Ev = comdat any

$_ZNSt16allocator_traitsISaIvEE7destroyIN8nlohmann16json_abi_v3_11_36detail21output_stream_adapterIcEEEEvRS0_PT_ = comdat any

$_ZNSt23_Sp_counted_ptr_inplaceIN8nlohmann16json_abi_v3_11_36detail21output_stream_adapterIcEESaIvELN9__gnu_cxx12_Lock_policyE2EE5_Impl8_M_allocEv = comdat any

$_ZSt8_DestroyIN8nlohmann16json_abi_v3_11_36detail21output_stream_adapterIcEEEvPT_ = comdat any

$_ZNSt14_Sp_ebo_helperILi0ESaIvELb1EE6_S_getERS1_ = comdat any

$_ZNSt19_Sp_make_shared_tag5_S_tiEv = comdat any

$_ZNKSt9type_infoeqERKS_ = comdat any

$_ZNKSt9type_info4nameEv = comdat any

$_ZN9__gnu_cxx16__aligned_bufferIN8nlohmann16json_abi_v3_11_36detail21output_stream_adapterIcEEE6_M_ptrEv = comdat any

$_ZN9__gnu_cxx16__aligned_bufferIN8nlohmann16json_abi_v3_11_36detail21output_stream_adapterIcEEE7_M_addrEv = comdat any

$_ZNSt16allocator_traitsISaISt23_Sp_counted_ptr_inplaceIN8nlohmann16json_abi_v3_11_36detail21output_stream_adapterIcEESaIvELN9__gnu_cxx12_Lock_policyE2EEEE10deallocateERSA_PS9_m = comdat any

$_ZNSt15__new_allocatorISt23_Sp_counted_ptr_inplaceIN8nlohmann16json_abi_v3_11_36detail21output_stream_adapterIcEESaIvELN9__gnu_cxx12_Lock_policyE2EEE10deallocateEPS9_m = comdat any

$_ZNSt15__new_allocatorISt23_Sp_counted_ptr_inplaceIN8nlohmann16json_abi_v3_11_36detail21output_stream_adapterIcEESaIvELN9__gnu_cxx12_Lock_policyE2EEED2Ev = comdat any

$_ZNSt12__shared_ptrIN8nlohmann16json_abi_v3_11_36detail23output_adapter_protocolIcEELN9__gnu_cxx12_Lock_policyE2EEC2INS2_21output_stream_adapterIcEEvEEOS_IT_LS6_2EE = comdat any

$_ZNSt14__shared_countILN9__gnu_cxx12_Lock_policyE2EEC2Ev = comdat any

$_ZNSt14__shared_countILN9__gnu_cxx12_Lock_policyE2EE7_M_swapERS2_ = comdat any

$_ZNSt12__shared_ptrIN8nlohmann16json_abi_v3_11_36detail21output_stream_adapterIcEELN9__gnu_cxx12_Lock_policyE2EED2Ev = comdat any

$_ZNSt14__shared_countILN9__gnu_cxx12_Lock_policyE2EED2Ev = comdat any

$_ZNSt16_Sp_counted_baseILN9__gnu_cxx12_Lock_policyE2EE10_M_releaseEv = comdat any

$_ZNSt16_Sp_counted_baseILN9__gnu_cxx12_Lock_policyE2EE24_M_release_last_use_coldEv = comdat any

$_ZNSt16_Sp_counted_baseILN9__gnu_cxx12_Lock_policyE2EE19_M_release_last_useEv = comdat any

$_ZNSt10shared_ptrIN8nlohmann16json_abi_v3_11_36detail23output_adapter_protocolIcEEEC2ERKS5_ = comdat any

$_ZNSt12__shared_ptrIN8nlohmann16json_abi_v3_11_36detail23output_adapter_protocolIcEELN9__gnu_cxx12_Lock_policyE2EEC2ERKS7_ = comdat any

$_ZNSt14__shared_countILN9__gnu_cxx12_Lock_policyE2EEC2ERKS2_ = comdat any

$_ZNSt16_Sp_counted_baseILN9__gnu_cxx12_Lock_policyE2EE15_M_add_ref_copyEv = comdat any

$_ZNSt10shared_ptrIN8nlohmann16json_abi_v3_11_36detail23output_adapter_protocolIcEEEC2EOS5_ = comdat any

$_ZNSt11char_traitsIcE12to_char_typeERKi = comdat any

$_ZNSt12__shared_ptrIN8nlohmann16json_abi_v3_11_36detail23output_adapter_protocolIcEELN9__gnu_cxx12_Lock_policyE2EEC2EOS7_ = comdat any

$_ZNSt12__shared_ptrIN8nlohmann16json_abi_v3_11_36detail23output_adapter_protocolIcEELN9__gnu_cxx12_Lock_policyE2EED2Ev = comdat any

$_ZNKSt3mapINSt7__cxx1112basic_stringIcSt11char_traitsIcESaIcEEEN8nlohmann16json_abi_v3_11_310basic_jsonIS_St6vectorS5_blmdSaNS7_14adl_serializerES9_IhSaIhEEvEESt4lessIS5_ESaISt4pairIKS5_SD_EEE5emptyEv = comdat any

$_ZNKSt19__shared_ptr_accessIN8nlohmann16json_abi_v3_11_36detail23output_adapter_protocolIcEELN9__gnu_cxx12_Lock_policyE2ELb0ELb0EEptEv = comdat any

$_ZNKSt3mapINSt7__cxx1112basic_stringIcSt11char_traitsIcESaIcEEEN8nlohmann16json_abi_v3_11_310basic_jsonIS_St6vectorS5_blmdSaNS7_14adl_serializerES9_IhSaIhEEvEESt4lessIS5_ESaISt4pairIKS5_SD_EEE6cbeginEv = comdat any

$_ZN8nlohmann16json_abi_v3_11_36detail10serializerINS0_10basic_jsonISt3mapSt6vectorNSt7__cxx1112basic_stringIcSt11char_traitsIcESaIcEEEblmdSaNS0_14adl_serializerES5_IhSaIhEEvEEE12dump_escapedERKSB_b = comdat any

$_ZNKSt23_Rb_tree_const_iteratorISt4pairIKNSt7__cxx1112basic_stringIcSt11char_traitsIcESaIcEEEN8nlohmann16json_abi_v3_11_310basic_jsonISt3mapSt6vectorS6_blmdSaNS9_14adl_serializerESC_IhSaIhEEvEEEEptEv = comdat any

$_ZNSt23_Rb_tree_const_iteratorISt4pairIKNSt7__cxx1112basic_stringIcSt11char_traitsIcESaIcEEEN8nlohmann16json_abi_v3_11_310basic_jsonISt3mapSt6vectorS6_blmdSaNS9_14adl_serializerESC_IhSaIhEEvEEEEppEv = comdat any

$_ZNKSt6vectorIN8nlohmann16json_abi_v3_11_310basic_jsonISt3mapS_NSt7__cxx1112basic_stringIcSt11char_traitsIcESaIcEEEblmdSaNS1_14adl_serializerES_IhSaIhEEvEESaISD_EE6cbeginEv = comdat any

$_ZNKSt6vectorIN8nlohmann16json_abi_v3_11_310basic_jsonISt3mapS_NSt7__cxx1112basic_stringIcSt11char_traitsIcESaIcEEEblmdSaNS1_14adl_serializerES_IhSaIhEEvEESaISD_EE4cendEv = comdat any

$_ZNK9__gnu_cxx17__normal_iteratorIPKN8nlohmann16json_abi_v3_11_310basic_jsonISt3mapSt6vectorNSt7__cxx1112basic_stringIcSt11char_traitsIcESaIcEEEblmdSaNS2_14adl_serializerES5_IhSaIhEEvEES5_ISF_SaISF_EEEmiEl = comdat any

$_ZNKSt6vectorIhSaIhEE5emptyEv = comdat any

$_ZNKSt6vectorIhSaIhEE6cbeginEv = comdat any

$_ZN9__gnu_cxxneIPKhSt6vectorIhSaIhEEEEbRKNS_17__normal_iteratorIT_T0_EESB_ = comdat any

$_ZNKSt6vectorIhSaIhEE4cendEv = comdat any

$_ZNK9__gnu_cxx17__normal_iteratorIPKhSt6vectorIhSaIhEEEmiEl = comdat any

$_ZN8nlohmann16json_abi_v3_11_36detail10serializerINS0_10basic_jsonISt3mapSt6vectorNSt7__cxx1112basic_stringIcSt11char_traitsIcESaIcEEEblmdSaNS0_14adl_serializerES5_IhSaIhEEvEEE12dump_integerIhTnNSt9enable_ifIXoooooosr3std11is_integralIT_EE5valuesr3std7is_sameISJ_mEE5valuesr3std7is_sameISJ_lEE5valuesr3std7is_sameISJ_hEE5valueEiE4typeELi0EEEvSJ_ = comdat any

$_ZNK9__gnu_cxx17__normal_iteratorIPKhSt6vectorIhSaIhEEEdeEv = comdat any

$_ZN9__gnu_cxx17__normal_iteratorIPKhSt6vectorIhSaIhEEEppEv = comdat any

$_ZNSt6vectorIhSaIhEE4backEv = comdat any

$_ZNK8nlohmann16json_abi_v3_11_327byte_container_with_subtypeISt6vectorIhSaIhEEE11has_subtypeEv = comdat any

$_ZN8nlohmann16json_abi_v3_11_36detail10serializerINS0_10basic_jsonISt3mapSt6vectorNSt7__cxx1112basic_stringIcSt11char_traitsIcESaIcEEEblmdSaNS0_14adl_serializerES5_IhSaIhEEvEEE12dump_integerImTnNSt9enable_ifIXoooooosr3std11is_integralIT_EE5valuesr3std7is_sameISJ_mEE5valuesr3std7is_sameISJ_lEE5valuesr3std7is_sameISJ_hEE5valueEiE4typeELi0EEEvSJ_ = comdat any

$_ZNK8nlohmann16json_abi_v3_11_327byte_container_with_subtypeISt6vectorIhSaIhEEE7subtypeEv = comdat any

$_ZN8nlohmann16json_abi_v3_11_36detail10serializerINS0_10basic_jsonISt3mapSt6vectorNSt7__cxx1112basic_stringIcSt11char_traitsIcESaIcEEEblmdSaNS0_14adl_serializerES5_IhSaIhEEvEEE12dump_integerIlTnNSt9enable_ifIXoooooosr3std11is_integralIT_EE5valuesr3std7is_sameISJ_mEE5valuesr3std7is_sameISJ_lEE5valuesr3std7is_sameISJ_hEE5valueEiE4typeELi0EEEvSJ_ = comdat any

$_ZN8nlohmann16json_abi_v3_11_36detail10serializerINS0_10basic_jsonISt3mapSt6vectorNSt7__cxx1112basic_stringIcSt11char_traitsIcESaIcEEEblmdSaNS0_14adl_serializerES5_IhSaIhEEvEEE10dump_floatEd = comdat any

$_ZNKSt8_Rb_treeINSt7__cxx1112basic_stringIcSt11char_traitsIcESaIcEEESt4pairIKS5_N8nlohmann16json_abi_v3_11_310basic_jsonISt3mapSt6vectorS5_blmdSaNS9_14adl_serializerESC_IhSaIhEEvEEESt10_Select1stISH_ESt4lessIS5_ESaISH_EE5emptyEv = comdat any

$_ZNKSt19__shared_ptr_accessIN8nlohmann16json_abi_v3_11_36detail23output_adapter_protocolIcEELN9__gnu_cxx12_Lock_policyE2ELb0ELb0EE6_M_getEv = comdat any

$_ZNKSt12__shared_ptrIN8nlohmann16json_abi_v3_11_36detail23output_adapter_protocolIcEELN9__gnu_cxx12_Lock_policyE2EE3getEv = comdat any

$_ZNKSt8_Rb_treeINSt7__cxx1112basic_stringIcSt11char_traitsIcESaIcEEESt4pairIKS5_N8nlohmann16json_abi_v3_11_310basic_jsonISt3mapSt6vectorS5_blmdSaNS9_14adl_serializerESC_IhSaIhEEvEEESt10_Select1stISH_ESt4lessIS5_ESaISH_EE5beginEv = comdat any

$_ZNSt23_Rb_tree_const_iteratorISt4pairIKNSt7__cxx1112basic_stringIcSt11char_traitsIcESaIcEEEN8nlohmann16json_abi_v3_11_310basic_jsonISt3mapSt6vectorS6_blmdSaNS9_14adl_serializerESC_IhSaIhEEvEEEEC2EPKSt18_Rb_tree_node_base = comdat any

$_ZN8nlohmann16json_abi_v3_11_36detail10serializerINS0_10basic_jsonISt3mapSt6vectorNSt7__cxx1112basic_stringIcSt11char_traitsIcESaIcEEEblmdSaNS0_14adl_serializerES5_IhSaIhEEvEEE6decodeERhRjh = comdat any

$_ZNSt5arrayIcLm512EEixEm = comdat any

$_ZNSt5arrayIcLm512EE4dataEv = comdat any

$_ZNKSt5arrayIcLm512EE4sizeEv = comdat any

$_ZN8nlohmann16json_abi_v3_11_36detail6concatINSt7__cxx1112basic_stringIcSt11char_traitsIcESaIcEEEJRA29_KcS8_RA5_S9_S8_EEET_DpOT0_ = comdat any

$_ZNSt7__cxx119to_stringEm = comdat any

$_ZN8nlohmann16json_abi_v3_11_36detail10serializerINS0_10basic_jsonISt3mapSt6vectorNSt7__cxx1112basic_stringIcSt11char_traitsIcESaIcEEEblmdSaNS0_14adl_serializerES5_IhSaIhEEvEEE9hex_bytesEh = comdat any

$_ZN8nlohmann16json_abi_v3_11_36detail13binary_writerINS0_10basic_jsonISt3mapSt6vectorNSt7__cxx1112basic_stringIcSt11char_traitsIcESaIcEEEblmdSaNS0_14adl_serializerES5_IhSaIhEEvEEcE12to_char_typeIccTnPNSt9enable_ifIXaaaasr3std9is_signedIT0_EE5valueL_ZNSt17integral_constantIbLb1EE5valueEEsr3std7is_sameIcNSt9remove_cvIT_E4typeEEE5valueEvE4typeELPv0EEEcSN_ = comdat any

$_ZN8nlohmann16json_abi_v3_11_36detail6concatINSt7__cxx1112basic_stringIcSt11char_traitsIcESaIcEEEJRA39_KcS8_EEET_DpOT0_ = comdat any

$_ZNKSt5arrayIhLm400EEixEm = comdat any

$_ZNSt14__array_traitsIhLm400EE6_S_refERA400_Khm = comdat any

$_ZNSt14__array_traitsIcLm512EE6_S_refERA512_Kcm = comdat any

$_ZNSt14__array_traitsIcLm512EE6_S_ptrERA512_Kc = comdat any

$_ZN8nlohmann16json_abi_v3_11_36detail13concat_lengthIJNSt7__cxx1112basic_stringIcSt11char_traitsIcESaIcEEEA5_cS8_EEEmPKcDpRKT_ = comdat any

$_ZN8nlohmann16json_abi_v3_11_36detail11concat_intoINSt7__cxx1112basic_stringIcSt11char_traitsIcESaIcEEERA29_KcJS8_RA5_S9_S8_ETnNSt9enable_ifIXsr24detect_string_can_appendIT_T0_EE5valueEiE4typeELi0EEEvRSF_OSG_DpOT1_ = comdat any

$_ZN8nlohmann16json_abi_v3_11_36detail13concat_lengthINSt7__cxx1112basic_stringIcSt11char_traitsIcESaIcEEEJA5_cS8_EEEmRKT_DpRKT0_ = comdat any

$_ZN8nlohmann16json_abi_v3_11_36detail13concat_lengthIJNSt7__cxx1112basic_stringIcSt11char_traitsIcESaIcEEEEEEmPKcDpRKT_ = comdat any

$_ZN8nlohmann16json_abi_v3_11_36detail11concat_intoINSt7__cxx1112basic_stringIcSt11char_traitsIcESaIcEEES8_JRA5_KcS8_ETnNSt9enable_ifIXsr24detect_string_can_appendIT_T0_EE5valueEiE4typeELi0EEEvRSD_OSE_DpOT1_ = comdat any

$_ZN8nlohmann16json_abi_v3_11_36detail11concat_intoINSt7__cxx1112basic_stringIcSt11char_traitsIcESaIcEEERA5_KcJS8_ETnNSt9enable_ifIXsr24detect_string_can_appendIT_T0_EE5valueEiE4typeELi0EEEvRSD_OSE_DpOT1_ = comdat any

$_ZN8nlohmann16json_abi_v3_11_36detail11concat_intoINSt7__cxx1112basic_stringIcSt11char_traitsIcESaIcEEES8_JETnNSt9enable_ifIXsr24detect_string_can_appendIT_T0_EE5valueEiE4typeELi0EEEvRSA_OSB_DpOT1_ = comdat any

$_ZNSt8__detail14__to_chars_lenImEEjT_i = comdat any

$_ZNSt8__detail18__to_chars_10_implImEEvPcjT_ = comdat any

$_ZN8nlohmann16json_abi_v3_11_36detail11concat_intoINSt7__cxx1112basic_stringIcSt11char_traitsIcESaIcEEERA39_KcJS8_ETnNSt9enable_ifIXsr24detect_string_can_appendIT_T0_EE5valueEiE4typeELi0EEEvRSD_OSE_DpOT1_ = comdat any

$_ZN9__gnu_cxxeqIPKhSt6vectorIhSaIhEEEEbRKNS_17__normal_iteratorIT_T0_EESB_ = comdat any

$_ZNSt5arrayIcLm64EE5beginEv = comdat any

$_ZN8nlohmann16json_abi_v3_11_36detail10serializerINS0_10basic_jsonISt3mapSt6vectorNSt7__cxx1112basic_stringIcSt11char_traitsIcESaIcEEEblmdSaNS0_14adl_serializerES5_IhSaIhEEvEEE18is_negative_numberIhTnNSt9enable_ifIXsr3std11is_unsignedIT_EE5valueEiE4typeELi0EEEbSJ_ = comdat any

$_ZN8nlohmann16json_abi_v3_11_36detail10serializerINS0_10basic_jsonISt3mapSt6vectorNSt7__cxx1112basic_stringIcSt11char_traitsIcESaIcEEEblmdSaNS0_14adl_serializerES5_IhSaIhEEvEEE11remove_signEl = comdat any

$_ZN8nlohmann16json_abi_v3_11_36detail10serializerINS0_10basic_jsonISt3mapSt6vectorNSt7__cxx1112basic_stringIcSt11char_traitsIcESaIcEEEblmdSaNS0_14adl_serializerES5_IhSaIhEEvEEE12count_digitsEm = comdat any

$_ZNKSt5arrayIS_IcLm2EELm100EEixEm = comdat any

$_ZNKSt5arrayIcLm2EEixEm = comdat any

$_ZNSt5arrayIcLm64EE4dataEv = comdat any

$_ZNSt14__array_traitsISt5arrayIcLm2EELm100EE6_S_refERA100_KS1_m = comdat any

$_ZNSt14__array_traitsIcLm2EE6_S_refERA2_Kcm = comdat any

$_ZNSt14__array_traitsIcLm64EE6_S_ptrERA64_Kc = comdat any

$_ZNSt6vectorIhSaIhEE3endEv = comdat any

$_ZNK9__gnu_cxx17__normal_iteratorIPhSt6vectorIhSaIhEEEmiEl = comdat any

$_ZNK9__gnu_cxx17__normal_iteratorIPhSt6vectorIhSaIhEEEdeEv = comdat any

$_ZN9__gnu_cxx17__normal_iteratorIPhSt6vectorIhSaIhEEEC2ERKS1_ = comdat any

$_ZN8nlohmann16json_abi_v3_11_36detail10serializerINS0_10basic_jsonISt3mapSt6vectorNSt7__cxx1112basic_stringIcSt11char_traitsIcESaIcEEEblmdSaNS0_14adl_serializerES5_IhSaIhEEvEEE18is_negative_numberImTnNSt9enable_ifIXsr3std11is_unsignedIT_EE5valueEiE4typeELi0EEEbSJ_ = comdat any

$_ZN8nlohmann16json_abi_v3_11_36detail10serializerINS0_10basic_jsonISt3mapSt6vectorNSt7__cxx1112basic_stringIcSt11char_traitsIcESaIcEEEblmdSaNS0_14adl_serializerES5_IhSaIhEEvEEE18is_negative_numberIlTnNSt9enable_ifIXsr3std9is_signedIT_EE5valueEiE4typeELi0EEEbSJ_ = comdat any

$_ZSt8isfinited = comdat any

$_ZN8nlohmann16json_abi_v3_11_36detail10serializerINS0_10basic_jsonISt3mapSt6vectorNSt7__cxx1112basic_stringIcSt11char_traitsIcESaIcEEEblmdSaNS0_14adl_serializerES5_IhSaIhEEvEEE10dump_floatEdSt17integral_constantIbLb1EE = comdat any

$_ZN8nlohmann16json_abi_v3_11_36detail8to_charsIdEEPcS3_PKcT_ = comdat any

$_ZNKSt5arrayIcLm64EE4sizeEv = comdat any

$_ZSt7signbitd = comdat any

$_ZN8nlohmann16json_abi_v3_11_36detail9dtoa_impl6grisu2IdEEvPcRiS5_T_ = comdat any

$_ZN8nlohmann16json_abi_v3_11_36detail9dtoa_impl13format_bufferEPciiii = comdat any

$_ZN8nlohmann16json_abi_v3_11_36detail9dtoa_impl18compute_boundariesIdEENS2_10boundariesET_ = comdat any

$_ZN8nlohmann16json_abi_v3_11_36detail9dtoa_impl6grisu2EPcRiS4_NS2_5diyfpES5_S5_ = comdat any

$_ZN8nlohmann16json_abi_v3_11_36detail9dtoa_impl16reinterpret_bitsImdEET_T0_ = comdat any

$_ZN8nlohmann16json_abi_v3_11_36detail9dtoa_impl5diyfpC2Emi = comdat any

$_ZN8nlohmann16json_abi_v3_11_36detail9dtoa_impl5diyfp9normalizeES3_ = comdat any

$_ZN8nlohmann16json_abi_v3_11_36detail9dtoa_impl5diyfp12normalize_toERKS3_i = comdat any

$_ZN8nlohmann16json_abi_v3_11_36detail9dtoa_impl36get_cached_power_for_binary_exponentEi = comdat any

$_ZN8nlohmann16json_abi_v3_11_36detail9dtoa_impl5diyfp3mulERKS3_S5_ = comdat any

$_ZN8nlohmann16json_abi_v3_11_36detail9dtoa_impl16grisu2_digit_genEPcRiS4_NS2_5diyfpES5_S5_ = comdat any

$_ZNKSt5arrayIN8nlohmann16json_abi_v3_11_36detail9dtoa_impl12cached_powerELm79EEixEm = comdat any

$_ZNSt14__array_traitsIN8nlohmann16json_abi_v3_11_36detail9dtoa_impl12cached_powerELm79EE6_S_refERA79_KS4_m = comdat any

$_ZN8nlohmann16json_abi_v3_11_36detail9dtoa_impl5diyfp3subERKS3_S5_ = comdat any

$_ZN8nlohmann16json_abi_v3_11_36detail9dtoa_impl18find_largest_pow10EjRj = comdat any

$_ZN8nlohmann16json_abi_v3_11_36detail9dtoa_impl12grisu2_roundEPcimmmm = comdat any

$_ZN8nlohmann16json_abi_v3_11_36detail9dtoa_impl15append_exponentEPci = comdat any

$_ZN7doctest6detail14Expression_lhsINSt7__cxx1112basic_stringIcSt11char_traitsIcESaIcEEEEC2EOS7_NS_10assertType4EnumE = comdat any

$_ZSteqIcSt11char_traitsIcESaIcEEbRKNSt7__cxx1112basic_stringIT_T0_T1_EEPKS5_ = comdat any

$_ZN7doctest6detail7forwardIKNSt7__cxx1112basic_stringIcSt11char_traitsIcESaIcEEEEEOT_RNS0_5types16remove_referenceIS9_E4typeE = comdat any

$_ZN7doctest6detail7forwardIRA30_KcEEOT_RNS0_5types16remove_referenceIS5_E4typeE = comdat any

$_ZN7doctest6detail19stringifyBinaryExprINSt7__cxx1112basic_stringIcSt11char_traitsIcESaIcEEEA30_cEENS_6StringERKT_PKcRKT0_ = comdat any

$_ZN7doctest8toStringINSt7__cxx1112basic_stringIcSt11char_traitsIcESaIcEEETnNS_6detail5types9enable_ifIXntsr6detail35should_stringify_as_underlying_typeIT_EE5valueEbE4typeELb1EEENS_6StringERKSA_ = comdat any

$_ZN7doctest8toStringIA30_cTnNS_6detail5types9enable_ifIXntsr6detail35should_stringify_as_underlying_typeIT_EE5valueEbE4typeELb1EEENS_6StringERKS5_ = comdat any

$_ZN7doctest6detail15StringMakerBaseILb1EE7convertINSt7__cxx1112basic_stringIcSt11char_traitsIcESaIcEEEEENS_6StringERKT_ = comdat any

$_ZN7doctest6detail8toStreamINSt7__cxx1112basic_stringIcSt11char_traitsIcESaIcEEEEENS_6StringERKT_ = comdat any

$_ZN7doctest6detail7fillossINSt7__cxx1112basic_stringIcSt11char_traitsIcESaIcEEEEEvPSoRKT_ = comdat any

$_ZN7doctest6detail8filldataINSt7__cxx1112basic_stringIcSt11char_traitsIcESaIcEEEE4fillEPSoRKS7_ = comdat any

$_ZN7doctest6detail15StringMakerBaseILb1EE7convertIA30_cEENS_6StringERKT_ = comdat any

$_ZN7doctest6detail8toStreamIA30_cEENS_6StringERKT_ = comdat any

$_ZN7doctest6detail7fillossIcLm30EEEvPSoRAT0__KT_ = comdat any

$_ZN7doctest6detail7fillossIA30_KcEEvPSoRKT_ = comdat any

$_ZN7doctest6detail8filldataIA30_KcE4fillEPSoRS3_ = comdat any

$_ZN7doctest6detail7forwardIRA76_KcEEOT_RNS0_5types16remove_referenceIS5_E4typeE = comdat any

$_ZN7doctest6detail19stringifyBinaryExprINSt7__cxx1112basic_stringIcSt11char_traitsIcESaIcEEEA76_cEENS_6StringERKT_PKcRKT0_ = comdat any

$_ZN7doctest8toStringIA76_cTnNS_6detail5types9enable_ifIXntsr6detail35should_stringify_as_underlying_typeIT_EE5valueEbE4typeELb1EEENS_6StringERKS5_ = comdat any

$_ZN7doctest6detail15StringMakerBaseILb1EE7convertIA76_cEENS_6StringERKT_ = comdat any

$_ZN7doctest6detail8toStreamIA76_cEENS_6StringERKT_ = comdat any

$_ZN7doctest6detail7fillossIcLm76EEEvPSoRAT0__KT_ = comdat any

$_ZN7doctest6detail7fillossIA76_KcEEvPSoRKT_ = comdat any

$_ZN7doctest6detail8filldataIA76_KcE4fillEPSoRS3_ = comdat any

$_ZN7doctest6detail7forwardIRA49_KcEEOT_RNS0_5types16remove_referenceIS5_E4typeE = comdat any

$_ZN7doctest6detail19stringifyBinaryExprINSt7__cxx1112basic_stringIcSt11char_traitsIcESaIcEEEA49_cEENS_6StringERKT_PKcRKT0_ = comdat any

$_ZN7doctest8toStringIA49_cTnNS_6detail5types9enable_ifIXntsr6detail35should_stringify_as_underlying_typeIT_EE5valueEbE4typeELb1EEENS_6StringERKS5_ = comdat any

$_ZN7doctest6detail15StringMakerBaseILb1EE7convertIA49_cEENS_6StringERKT_ = comdat any

$_ZN7doctest6detail8toStreamIA49_cEENS_6StringERKT_ = comdat any

$_ZN7doctest6detail7fillossIcLm49EEEvPSoRAT0__KT_ = comdat any

$_ZN7doctest6detail7fillossIA49_KcEEvPSoRKT_ = comdat any

$_ZN7doctest6detail8filldataIA49_KcE4fillEPSoRS3_ = comdat any

$_ZN8nlohmann16json_abi_v3_11_314adl_serializerIA6_cvE7to_jsonINS0_10basic_jsonISt3mapSt6vectorNSt7__cxx1112basic_stringIcSt11char_traitsIcESaIcEEEblmdSaS1_S7_IhSaIhEEvEERA6_KcEEDTcmclL_ZNS0_12_GLOBAL__N_17to_jsonEEfp_clsr3stdE7forwardIT0_Efp0_EEcvv_EERT_OSL_ = comdat any

$_ZNK8nlohmann16json_abi_v3_11_36detail10to_json_fnclINS0_10basic_jsonISt3mapSt6vectorNSt7__cxx1112basic_stringIcSt11char_traitsIcESaIcEEEblmdSaNS0_14adl_serializerES6_IhSaIhEEvEERA6_KcEEDTcmcl7to_jsonfp_clsr3stdE7forwardIT0_Efp0_EEcvv_EERT_OSK_ = comdat any

$_ZN8nlohmann16json_abi_v3_11_36detail7to_jsonINS0_10basic_jsonISt3mapSt6vectorNSt7__cxx1112basic_stringIcSt11char_traitsIcESaIcEEEblmdSaNS0_14adl_serializerES5_IhSaIhEEvEEA6_cTnNSt9enable_ifIXsr3std16is_constructibleINT_8string_tET0_EE5valueEiE4typeELi0EEEvRSI_RKSK_ = comdat any

$_ZN8nlohmann16json_abi_v3_11_36detail20external_constructorILNS1_7value_tE3EE9constructINS0_10basic_jsonISt3mapSt6vectorNSt7__cxx1112basic_stringIcSt11char_traitsIcESaIcEEEblmdSaNS0_14adl_serializerES8_IhSaIhEEvEEA6_cTnNSt9enable_ifIXntsr3std7is_sameIT0_NT_8string_tEEE5valueEiE4typeELi0EEEvRSM_RKSL_ = comdat any

$_ZN8nlohmann16json_abi_v3_11_310basic_jsonISt3mapSt6vectorNSt7__cxx1112basic_stringIcSt11char_traitsIcESaIcEEEblmdSaNS0_14adl_serializerES3_IhSaIhEEvE6createIS9_JRA6_KcEEEPT_DpOT0_ = comdat any

$_ZNSt10unique_ptrINSt7__cxx1112basic_stringIcSt11char_traitsIcESaIcEEEZN8nlohmann16json_abi_v3_11_310basic_jsonISt3mapSt6vectorS5_blmdSaNS7_14adl_serializerESA_IhSaIhEEvE6createIS5_JRA6_KcEEEPT_DpOT0_EUlPS5_E_EC2ISP_vEESO_RKSP_ = comdat any

$_ZNSt16allocator_traitsISaINSt7__cxx1112basic_stringIcSt11char_traitsIcESaIcEEEEE9constructIS5_JRA6_KcEEEvRS6_PT_DpOT0_ = comdat any

$_ZNKSt10unique_ptrINSt7__cxx1112basic_stringIcSt11char_traitsIcESaIcEEEZN8nlohmann16json_abi_v3_11_310basic_jsonISt3mapSt6vectorS5_blmdSaNS7_14adl_serializerESA_IhSaIhEEvE6createIS5_JRA6_KcEEEPT_DpOT0_EUlPS5_E_E3getEv = comdat any

$_ZNSt10unique_ptrINSt7__cxx1112basic_stringIcSt11char_traitsIcESaIcEEEZN8nlohmann16json_abi_v3_11_310basic_jsonISt3mapSt6vectorS5_blmdSaNS7_14adl_serializerESA_IhSaIhEEvE6createIS5_JRA6_KcEEEPT_DpOT0_EUlPS5_E_E7releaseEv = comdat any

$_ZNSt10unique_ptrINSt7__cxx1112basic_stringIcSt11char_traitsIcESaIcEEEZN8nlohmann16json_abi_v3_11_310basic_jsonISt3mapSt6vectorS5_blmdSaNS7_14adl_serializerESA_IhSaIhEEvE6createIS5_JRA6_KcEEEPT_DpOT0_EUlPS5_E_ED2Ev = comdat any

$_ZNSt15__uniq_ptr_dataINSt7__cxx1112basic_stringIcSt11char_traitsIcESaIcEEEZN8nlohmann16json_abi_v3_11_310basic_jsonISt3mapSt6vectorS5_blmdSaNS7_14adl_serializerESA_IhSaIhEEvE6createIS5_JRA6_KcEEEPT_DpOT0_EUlPS5_E_Lb1ELb0EECI2St15__uniq_ptr_implIS5_SP_EIRKSP_EESO_OSJ_ = comdat any

$_ZNSt15__uniq_ptr_implINSt7__cxx1112basic_stringIcSt11char_traitsIcESaIcEEEZN8nlohmann16json_abi_v3_11_310basic_jsonISt3mapSt6vectorS5_blmdSaNS7_14adl_serializerESA_IhSaIhEEvE6createIS5_JRA6_KcEEEPT_DpOT0_EUlPS5_E_EC2IRKSP_EESO_OSJ_ = comdat any

$_ZNSt5tupleIJPNSt7__cxx1112basic_stringIcSt11char_traitsIcESaIcEEEZN8nlohmann16json_abi_v3_11_310basic_jsonISt3mapSt6vectorS5_blmdSaNS8_14adl_serializerESB_IhSaIhEEvE6createIS5_JRA6_KcEEEPT_DpOT0_EUlS6_E_EEC2IRS6_RKSP_TnNSt9enable_ifIXclsr4_TCCIXntcl14__is_alloc_argISK_EEEEE29__is_implicitly_constructibleISK_T0_EEEbE4typeELb1EEEOSK_OSW_ = comdat any

$_ZNSt11_Tuple_implILm0EJPNSt7__cxx1112basic_stringIcSt11char_traitsIcESaIcEEEZN8nlohmann16json_abi_v3_11_310basic_jsonISt3mapSt6vectorS5_blmdSaNS8_14adl_serializerESB_IhSaIhEEvE6createIS5_JRA6_KcEEEPT_DpOT0_EUlS6_E_EEC2IRS6_JRKSP_EvEEOSK_SO_ = comdat any

$_ZNSt11_Tuple_implILm1EJZN8nlohmann16json_abi_v3_11_310basic_jsonISt3mapSt6vectorNSt7__cxx1112basic_stringIcSt11char_traitsIcESaIcEEEblmdSaNS1_14adl_serializerES4_IhSaIhEEvE6createISA_JRA6_KcEEEPT_DpOT0_EUlPSA_E_EEC2ERKSP_ = comdat any

$_ZNSt10_Head_baseILm1EZN8nlohmann16json_abi_v3_11_310basic_jsonISt3mapSt6vectorNSt7__cxx1112basic_stringIcSt11char_traitsIcESaIcEEEblmdSaNS1_14adl_serializerES4_IhSaIhEEvE6createISA_JRA6_KcEEEPT_DpOT0_EUlPSA_E_Lb0EEC2ERKSP_ = comdat any

$_ZNSt15__new_allocatorINSt7__cxx1112basic_stringIcSt11char_traitsIcESaIcEEEE9constructIS5_JRA6_KcEEEvPT_DpOT0_ = comdat any

$_ZNKSt15__uniq_ptr_implINSt7__cxx1112basic_stringIcSt11char_traitsIcESaIcEEEZN8nlohmann16json_abi_v3_11_310basic_jsonISt3mapSt6vectorS5_blmdSaNS7_14adl_serializerESA_IhSaIhEEvE6createIS5_JRA6_KcEEEPT_DpOT0_EUlPS5_E_E6_M_ptrEv = comdat any

$_ZSt3getILm0EJPNSt7__cxx1112basic_stringIcSt11char_traitsIcESaIcEEEZN8nlohmann16json_abi_v3_11_310basic_jsonISt3mapSt6vectorS5_blmdSaNS8_14adl_serializerESB_IhSaIhEEvE6createIS5_JRA6_KcEEEPT_DpOT0_EUlS6_E_EERKNSt13tuple_elementIXT_ESt5tupleIJDpSM_EEE4typeERKST_ = comdat any

$_ZSt12__get_helperILm0EPNSt7__cxx1112basic_stringIcSt11char_traitsIcESaIcEEEJZN8nlohmann16json_abi_v3_11_310basic_jsonISt3mapSt6vectorS5_blmdSaNS8_14adl_serializerESB_IhSaIhEEvE6createIS5_JRA6_KcEEEPT_DpOT0_EUlS6_E_EERKT0_RKSt11_Tuple_implIXT_EJSQ_DpT1_EE = comdat any

$_ZNSt11_Tuple_implILm0EJPNSt7__cxx1112basic_stringIcSt11char_traitsIcESaIcEEEZN8nlohmann16json_abi_v3_11_310basic_jsonISt3mapSt6vectorS5_blmdSaNS8_14adl_serializerESB_IhSaIhEEvE6createIS5_JRA6_KcEEEPT_DpOT0_EUlS6_E_EE7_M_headERKSQ_ = comdat any

$_ZNSt15__uniq_ptr_implINSt7__cxx1112basic_stringIcSt11char_traitsIcESaIcEEEZN8nlohmann16json_abi_v3_11_310basic_jsonISt3mapSt6vectorS5_blmdSaNS7_14adl_serializerESA_IhSaIhEEvE6createIS5_JRA6_KcEEEPT_DpOT0_EUlPS5_E_E7releaseEv = comdat any

$_ZNSt15__uniq_ptr_implINSt7__cxx1112basic_stringIcSt11char_traitsIcESaIcEEEZN8nlohmann16json_abi_v3_11_310basic_jsonISt3mapSt6vectorS5_blmdSaNS7_14adl_serializerESA_IhSaIhEEvE6createIS5_JRA6_KcEEEPT_DpOT0_EUlPS5_E_E6_M_ptrEv = comdat any

$_ZSt3getILm0EJPNSt7__cxx1112basic_stringIcSt11char_traitsIcESaIcEEEZN8nlohmann16json_abi_v3_11_310basic_jsonISt3mapSt6vectorS5_blmdSaNS8_14adl_serializerESB_IhSaIhEEvE6createIS5_JRA6_KcEEEPT_DpOT0_EUlS6_E_EERNSt13tuple_elementIXT_ESt5tupleIJDpSM_EEE4typeERST_ = comdat any

$_ZSt12__get_helperILm0EPNSt7__cxx1112basic_stringIcSt11char_traitsIcESaIcEEEJZN8nlohmann16json_abi_v3_11_310basic_jsonISt3mapSt6vectorS5_blmdSaNS8_14adl_serializerESB_IhSaIhEEvE6createIS5_JRA6_KcEEEPT_DpOT0_EUlS6_E_EERT0_RSt11_Tuple_implIXT_EJSQ_DpT1_EE = comdat any

$_ZNSt11_Tuple_implILm0EJPNSt7__cxx1112basic_stringIcSt11char_traitsIcESaIcEEEZN8nlohmann16json_abi_v3_11_310basic_jsonISt3mapSt6vectorS5_blmdSaNS8_14adl_serializerESB_IhSaIhEEvE6createIS5_JRA6_KcEEEPT_DpOT0_EUlS6_E_EE7_M_headERSQ_ = comdat any

$_ZNSt10unique_ptrINSt7__cxx1112basic_stringIcSt11char_traitsIcESaIcEEEZN8nlohmann16json_abi_v3_11_310basic_jsonISt3mapSt6vectorS5_blmdSaNS7_14adl_serializerESA_IhSaIhEEvE6createIS5_JRA6_KcEEEPT_DpOT0_EUlPS5_E_E11get_deleterEv = comdat any

$_ZZN8nlohmann16json_abi_v3_11_310basic_jsonISt3mapSt6vectorNSt7__cxx1112basic_stringIcSt11char_traitsIcESaIcEEEblmdSaNS0_14adl_serializerES3_IhSaIhEEvE6createIS9_JRA6_KcEEEPT_DpOT0_ENKUlPS9_E_clESN_ = comdat any

$_ZNSt15__uniq_ptr_implINSt7__cxx1112basic_stringIcSt11char_traitsIcESaIcEEEZN8nlohmann16json_abi_v3_11_310basic_jsonISt3mapSt6vectorS5_blmdSaNS7_14adl_serializerESA_IhSaIhEEvE6createIS5_JRA6_KcEEEPT_DpOT0_EUlPS5_E_E10_M_deleterEv = comdat any

$_ZSt3getILm1EJPNSt7__cxx1112basic_stringIcSt11char_traitsIcESaIcEEEZN8nlohmann16json_abi_v3_11_310basic_jsonISt3mapSt6vectorS5_blmdSaNS8_14adl_serializerESB_IhSaIhEEvE6createIS5_JRA6_KcEEEPT_DpOT0_EUlS6_E_EERNSt13tuple_elementIXT_ESt5tupleIJDpSM_EEE4typeERST_ = comdat any

$_ZSt12__get_helperILm1EZN8nlohmann16json_abi_v3_11_310basic_jsonISt3mapSt6vectorNSt7__cxx1112basic_stringIcSt11char_traitsIcESaIcEEEblmdSaNS1_14adl_serializerES4_IhSaIhEEvE6createISA_JRA6_KcEEEPT_DpOT0_EUlPSA_E_JEERT0_RSt11_Tuple_implIXT_EJSQ_DpT1_EE = comdat any

$_ZNSt11_Tuple_implILm1EJZN8nlohmann16json_abi_v3_11_310basic_jsonISt3mapSt6vectorNSt7__cxx1112basic_stringIcSt11char_traitsIcESaIcEEEblmdSaNS1_14adl_serializerES4_IhSaIhEEvE6createISA_JRA6_KcEEEPT_DpOT0_EUlPSA_E_EE7_M_headERSQ_ = comdat any

$_ZNSt10_Head_baseILm1EZN8nlohmann16json_abi_v3_11_310basic_jsonISt3mapSt6vectorNSt7__cxx1112basic_stringIcSt11char_traitsIcESaIcEEEblmdSaNS1_14adl_serializerES4_IhSaIhEEvE6createISA_JRA6_KcEEEPT_DpOT0_EUlPSA_E_Lb0EE7_M_headERSQ_ = comdat any

$_ZN8nlohmann16json_abi_v3_11_36detail14output_adapterIcNSt7__cxx1112basic_stringIcSt11char_traitsIcESaIcEEEEC2ERS8_ = comdat any

$_ZSt11make_sharedIN8nlohmann16json_abi_v3_11_36detail21output_string_adapterIcNSt7__cxx1112basic_stringIcSt11char_traitsIcESaIcEEEEEJRS9_EESt10shared_ptrINSt9enable_ifIXntsr8is_arrayIT_EE5valueESE_E4typeEEDpOT0_ = comdat any

$_ZNSt10shared_ptrIN8nlohmann16json_abi_v3_11_36detail23output_adapter_protocolIcEEEC2INS2_21output_string_adapterIcNSt7__cxx1112basic_stringIcSt11char_traitsIcESaIcEEEEEvEEOS_IT_E = comdat any

$_ZNSt10shared_ptrIN8nlohmann16json_abi_v3_11_36detail21output_string_adapterIcNSt7__cxx1112basic_stringIcSt11char_traitsIcESaIcEEEEEED2Ev = comdat any

$_ZNSt10shared_ptrIN8nlohmann16json_abi_v3_11_36detail21output_string_adapterIcNSt7__cxx1112basic_stringIcSt11char_traitsIcESaIcEEEEEEC2ISaIvEJRS9_EEESt20_Sp_alloc_shared_tagIT_EDpOT0_ = comdat any

$_ZNSt12__shared_ptrIN8nlohmann16json_abi_v3_11_36detail21output_string_adapterIcNSt7__cxx1112basic_stringIcSt11char_traitsIcESaIcEEEEELN9__gnu_cxx12_Lock_policyE2EEC2ISaIvEJRS9_EEESt20_Sp_alloc_shared_tagIT_EDpOT0_ = comdat any

$_ZNSt14__shared_countILN9__gnu_cxx12_Lock_policyE2EEC2IN8nlohmann16json_abi_v3_11_36detail21output_string_adapterIcNSt7__cxx1112basic_stringIcSt11char_traitsIcESaIcEEEEESaIvEJRSD_EEERPT_St20_Sp_alloc_shared_tagIT0_EDpOT1_ = comdat any

$_ZNSt12__shared_ptrIN8nlohmann16json_abi_v3_11_36detail21output_string_adapterIcNSt7__cxx1112basic_stringIcSt11char_traitsIcESaIcEEEEELN9__gnu_cxx12_Lock_policyE2EE31_M_enable_shared_from_this_withISA_SA_EENSt9enable_ifIXntsr15__has_esft_baseIT0_EE5valueEvE4typeEPT_ = comdat any

$_ZNSaISt23_Sp_counted_ptr_inplaceIN8nlohmann16json_abi_v3_11_36detail21output_string_adapterIcNSt7__cxx1112basic_stringIcSt11char_traitsIcESaIcEEEEESaIvELN9__gnu_cxx12_Lock_policyE2EEEC2IvEERKSaIT_E = comdat any

$_ZSt18__allocate_guardedISaISt23_Sp_counted_ptr_inplaceIN8nlohmann16json_abi_v3_11_36detail21output_string_adapterIcNSt7__cxx1112basic_stringIcSt11char_traitsIcESaIcEEEEESaIvELN9__gnu_cxx12_Lock_policyE2EEEESt15__allocated_ptrIT_ERSI_ = comdat any

$_ZNSt15__allocated_ptrISaISt23_Sp_counted_ptr_inplaceIN8nlohmann16json_abi_v3_11_36detail21output_string_adapterIcNSt7__cxx1112basic_stringIcSt11char_traitsIcESaIcEEEEESaIvELN9__gnu_cxx12_Lock_policyE2EEEE3getEv = comdat any

$_ZNSt23_Sp_counted_ptr_inplaceIN8nlohmann16json_abi_v3_11_36detail21output_string_adapterIcNSt7__cxx1112basic_stringIcSt11char_traitsIcESaIcEEEEESaIvELN9__gnu_cxx12_Lock_policyE2EEC2IJRS9_EEESB_DpOT_ = comdat any

$_ZNSt15__allocated_ptrISaISt23_Sp_counted_ptr_inplaceIN8nlohmann16json_abi_v3_11_36detail21output_string_adapterIcNSt7__cxx1112basic_stringIcSt11char_traitsIcESaIcEEEEESaIvELN9__gnu_cxx12_Lock_policyE2EEEEaSEDn = comdat any

$_ZNSt23_Sp_counted_ptr_inplaceIN8nlohmann16json_abi_v3_11_36detail21output_string_adapterIcNSt7__cxx1112basic_stringIcSt11char_traitsIcESaIcEEEEESaIvELN9__gnu_cxx12_Lock_policyE2EE6_M_ptrEv = comdat any

$_ZNSt15__allocated_ptrISaISt23_Sp_counted_ptr_inplaceIN8nlohmann16json_abi_v3_11_36detail21output_string_adapterIcNSt7__cxx1112basic_stringIcSt11char_traitsIcESaIcEEEEESaIvELN9__gnu_cxx12_Lock_policyE2EEEED2Ev = comdat any

$_ZNSaISt23_Sp_counted_ptr_inplaceIN8nlohmann16json_abi_v3_11_36detail21output_string_adapterIcNSt7__cxx1112basic_stringIcSt11char_traitsIcESaIcEEEEESaIvELN9__gnu_cxx12_Lock_policyE2EEED2Ev = comdat any

$_ZNSt15__new_allocatorISt23_Sp_counted_ptr_inplaceIN8nlohmann16json_abi_v3_11_36detail21output_string_adapterIcNSt7__cxx1112basic_stringIcSt11char_traitsIcESaIcEEEEESaIvELN9__gnu_cxx12_Lock_policyE2EEEC2Ev = comdat any

$_ZNSt16allocator_traitsISaISt23_Sp_counted_ptr_inplaceIN8nlohmann16json_abi_v3_11_36detail21output_string_adapterIcNSt7__cxx1112basic_stringIcSt11char_traitsIcESaIcEEEEESaIvELN9__gnu_cxx12_Lock_policyE2EEEE8allocateERSG_m = comdat any

$_ZNSt15__allocated_ptrISaISt23_Sp_counted_ptr_inplaceIN8nlohmann16json_abi_v3_11_36detail21output_string_adapterIcNSt7__cxx1112basic_stringIcSt11char_traitsIcESaIcEEEEESaIvELN9__gnu_cxx12_Lock_policyE2EEEEC2ERSG_PSF_ = comdat any

$_ZNSt15__new_allocatorISt23_Sp_counted_ptr_inplaceIN8nlohmann16json_abi_v3_11_36detail21output_string_adapterIcNSt7__cxx1112basic_stringIcSt11char_traitsIcESaIcEEEEESaIvELN9__gnu_cxx12_Lock_policyE2EEE8allocateEmPKv = comdat any

$_ZNKSt15__new_allocatorISt23_Sp_counted_ptr_inplaceIN8nlohmann16json_abi_v3_11_36detail21output_string_adapterIcNSt7__cxx1112basic_stringIcSt11char_traitsIcESaIcEEEEESaIvELN9__gnu_cxx12_Lock_policyE2EEE11_M_max_sizeEv = comdat any

$_ZSt12__to_addressISt23_Sp_counted_ptr_inplaceIN8nlohmann16json_abi_v3_11_36detail21output_string_adapterIcNSt7__cxx1112basic_stringIcSt11char_traitsIcESaIcEEEEESaIvELN9__gnu_cxx12_Lock_policyE2EEEPT_SH_ = comdat any

$_ZNSt23_Sp_counted_ptr_inplaceIN8nlohmann16json_abi_v3_11_36detail21output_string_adapterIcNSt7__cxx1112basic_stringIcSt11char_traitsIcESaIcEEEEESaIvELN9__gnu_cxx12_Lock_policyE2EE5_ImplC2ESB_ = comdat any

$_ZNSt16allocator_traitsISaIvEE9constructIN8nlohmann16json_abi_v3_11_36detail21output_string_adapterIcNSt7__cxx1112basic_stringIcSt11char_traitsIcESaIcEEEEEJRSC_EEEvRS0_PT_DpOT0_ = comdat any

$_ZNSt23_Sp_counted_ptr_inplaceIN8nlohmann16json_abi_v3_11_36detail21output_string_adapterIcNSt7__cxx1112basic_stringIcSt11char_traitsIcESaIcEEEEESaIvELN9__gnu_cxx12_Lock_policyE2EED2Ev = comdat any

$_ZNSt23_Sp_counted_ptr_inplaceIN8nlohmann16json_abi_v3_11_36detail21output_string_adapterIcNSt7__cxx1112basic_stringIcSt11char_traitsIcESaIcEEEEESaIvELN9__gnu_cxx12_Lock_policyE2EED0Ev = comdat any

$_ZNSt23_Sp_counted_ptr_inplaceIN8nlohmann16json_abi_v3_11_36detail21output_string_adapterIcNSt7__cxx1112basic_stringIcSt11char_traitsIcESaIcEEEEESaIvELN9__gnu_cxx12_Lock_policyE2EE10_M_disposeEv = comdat any

$_ZNSt23_Sp_counted_ptr_inplaceIN8nlohmann16json_abi_v3_11_36detail21output_string_adapterIcNSt7__cxx1112basic_stringIcSt11char_traitsIcESaIcEEEEESaIvELN9__gnu_cxx12_Lock_policyE2EE10_M_destroyEv = comdat any

$_ZNSt23_Sp_counted_ptr_inplaceIN8nlohmann16json_abi_v3_11_36detail21output_string_adapterIcNSt7__cxx1112basic_stringIcSt11char_traitsIcESaIcEEEEESaIvELN9__gnu_cxx12_Lock_policyE2EE14_M_get_deleterERKSt9type_info = comdat any

$_ZSt10_ConstructIN8nlohmann16json_abi_v3_11_36detail21output_string_adapterIcNSt7__cxx1112basic_stringIcSt11char_traitsIcESaIcEEEEEJRS9_EEvPT_DpOT0_ = comdat any

$_ZN8nlohmann16json_abi_v3_11_36detail21output_string_adapterIcNSt7__cxx1112basic_stringIcSt11char_traitsIcESaIcEEEEC2ERS8_ = comdat any

$_ZN8nlohmann16json_abi_v3_11_36detail21output_string_adapterIcNSt7__cxx1112basic_stringIcSt11char_traitsIcESaIcEEEE15write_characterEc = comdat any

$_ZN8nlohmann16json_abi_v3_11_36detail21output_string_adapterIcNSt7__cxx1112basic_stringIcSt11char_traitsIcESaIcEEEE16write_charactersEPKcm = comdat any

$_ZN8nlohmann16json_abi_v3_11_36detail21output_string_adapterIcNSt7__cxx1112basic_stringIcSt11char_traitsIcESaIcEEEED2Ev = comdat any

$_ZN8nlohmann16json_abi_v3_11_36detail21output_string_adapterIcNSt7__cxx1112basic_stringIcSt11char_traitsIcESaIcEEEED0Ev = comdat any

$_ZNSt16allocator_traitsISaIvEE7destroyIN8nlohmann16json_abi_v3_11_36detail21output_string_adapterIcNSt7__cxx1112basic_stringIcSt11char_traitsIcESaIcEEEEEEEvRS0_PT_ = comdat any

$_ZNSt23_Sp_counted_ptr_inplaceIN8nlohmann16json_abi_v3_11_36detail21output_string_adapterIcNSt7__cxx1112basic_stringIcSt11char_traitsIcESaIcEEEEESaIvELN9__gnu_cxx12_Lock_policyE2EE5_Impl8_M_allocEv = comdat any

$_ZSt8_DestroyIN8nlohmann16json_abi_v3_11_36detail21output_string_adapterIcNSt7__cxx1112basic_stringIcSt11char_traitsIcESaIcEEEEEEvPT_ = comdat any

$_ZN9__gnu_cxx16__aligned_bufferIN8nlohmann16json_abi_v3_11_36detail21output_string_adapterIcNSt7__cxx1112basic_stringIcSt11char_traitsIcESaIcEEEEEE6_M_ptrEv = comdat any

$_ZN9__gnu_cxx16__aligned_bufferIN8nlohmann16json_abi_v3_11_36detail21output_string_adapterIcNSt7__cxx1112basic_stringIcSt11char_traitsIcESaIcEEEEEE7_M_addrEv = comdat any

$_ZNSt16allocator_traitsISaISt23_Sp_counted_ptr_inplaceIN8nlohmann16json_abi_v3_11_36detail21output_string_adapterIcNSt7__cxx1112basic_stringIcSt11char_traitsIcESaIcEEEEESaIvELN9__gnu_cxx12_Lock_policyE2EEEE10deallocateERSG_PSF_m = comdat any

$_ZNSt15__new_allocatorISt23_Sp_counted_ptr_inplaceIN8nlohmann16json_abi_v3_11_36detail21output_string_adapterIcNSt7__cxx1112basic_stringIcSt11char_traitsIcESaIcEEEEESaIvELN9__gnu_cxx12_Lock_policyE2EEE10deallocateEPSF_m = comdat any

$_ZNSt15__new_allocatorISt23_Sp_counted_ptr_inplaceIN8nlohmann16json_abi_v3_11_36detail21output_string_adapterIcNSt7__cxx1112basic_stringIcSt11char_traitsIcESaIcEEEEESaIvELN9__gnu_cxx12_Lock_policyE2EEED2Ev = comdat any

$_ZNSt12__shared_ptrIN8nlohmann16json_abi_v3_11_36detail23output_adapter_protocolIcEELN9__gnu_cxx12_Lock_policyE2EEC2INS2_21output_string_adapterIcNSt7__cxx1112basic_stringIcSt11char_traitsIcESaIcEEEEEvEEOS_IT_LS6_2EE = comdat any

$_ZNSt12__shared_ptrIN8nlohmann16json_abi_v3_11_36detail21output_string_adapterIcNSt7__cxx1112basic_stringIcSt11char_traitsIcESaIcEEEEELN9__gnu_cxx12_Lock_policyE2EED2Ev = comdat any

$_ZN7doctest10AssertDataD2Ev = comdat any

$_ZN7doctest10AssertData14StringContainsD2Ev = comdat any

$_ZN7doctest8ContainsD2Ev = comdat any

$_ZN7doctest6detail7forwardIRA7_KcEEOT_RNS0_5types16remove_referenceIS5_E4typeE = comdat any

$_ZN7doctest6detail19stringifyBinaryExprINSt7__cxx1112basic_stringIcSt11char_traitsIcESaIcEEEA7_cEENS_6StringERKT_PKcRKT0_ = comdat any

$_ZN7doctest8toStringIA7_cTnNS_6detail5types9enable_ifIXntsr6detail35should_stringify_as_underlying_typeIT_EE5valueEbE4typeELb1EEENS_6StringERKS5_ = comdat any

$_ZN7doctest6detail15StringMakerBaseILb1EE7convertIA7_cEENS_6StringERKT_ = comdat any

$_ZN7doctest6detail8toStreamIA7_cEENS_6StringERKT_ = comdat any

$_ZN7doctest6detail7fillossIcLm7EEEvPSoRAT0__KT_ = comdat any

$_ZN7doctest6detail7fillossIA7_KcEEvPSoRKT_ = comdat any

$_ZN7doctest6detail8filldataIA7_KcE4fillEPSoRS3_ = comdat any

$_ZN7doctest6detail7forwardIRA10_KcEEOT_RNS0_5types16remove_referenceIS5_E4typeE = comdat any

$_ZN7doctest6detail19stringifyBinaryExprINSt7__cxx1112basic_stringIcSt11char_traitsIcESaIcEEEA10_cEENS_6StringERKT_PKcRKT0_ = comdat any

$_ZN7doctest8toStringIA10_cTnNS_6detail5types9enable_ifIXntsr6detail35should_stringify_as_underlying_typeIT_EE5valueEbE4typeELb1EEENS_6StringERKS5_ = comdat any

$_ZN7doctest6detail15StringMakerBaseILb1EE7convertIA10_cEENS_6StringERKT_ = comdat any

$_ZN7doctest6detail8toStreamIA10_cEENS_6StringERKT_ = comdat any

$_ZN7doctest6detail7fillossIcLm10EEEvPSoRAT0__KT_ = comdat any

$_ZN7doctest6detail7fillossIA10_KcEEvPSoRKT_ = comdat any

$_ZN7doctest6detail8filldataIA10_KcE4fillEPSoRS3_ = comdat any

$_ZN7doctest6detail7forwardIRA21_KcEEOT_RNS0_5types16remove_referenceIS5_E4typeE = comdat any

$_ZN7doctest6detail19stringifyBinaryExprINSt7__cxx1112basic_stringIcSt11char_traitsIcESaIcEEEA21_cEENS_6StringERKT_PKcRKT0_ = comdat any

$_ZN7doctest8toStringIA21_cTnNS_6detail5types9enable_ifIXntsr6detail35should_stringify_as_underlying_typeIT_EE5valueEbE4typeELb1EEENS_6StringERKS5_ = comdat any

$_ZN7doctest6detail15StringMakerBaseILb1EE7convertIA21_cEENS_6StringERKT_ = comdat any

$_ZN7doctest6detail8toStreamIA21_cEENS_6StringERKT_ = comdat any

$_ZN7doctest6detail7fillossIcLm21EEEvPSoRAT0__KT_ = comdat any

$_ZN7doctest6detail7fillossIA21_KcEEvPSoRKT_ = comdat any

$_ZN7doctest6detail8filldataIA21_KcE4fillEPSoRS3_ = comdat any

$_ZN8nlohmann16json_abi_v3_11_314adl_serializerIA5_cvE7to_jsonINS0_10basic_jsonISt3mapSt6vectorNSt7__cxx1112basic_stringIcSt11char_traitsIcESaIcEEEblmdSaS1_S7_IhSaIhEEvEERA5_KcEEDTcmclL_ZNS0_12_GLOBAL__N_17to_jsonEEfp_clsr3stdE7forwardIT0_Efp0_EEcvv_EERT_OSL_ = comdat any

$_ZNK8nlohmann16json_abi_v3_11_36detail10to_json_fnclINS0_10basic_jsonISt3mapSt6vectorNSt7__cxx1112basic_stringIcSt11char_traitsIcESaIcEEEblmdSaNS0_14adl_serializerES6_IhSaIhEEvEERA5_KcEEDTcmcl7to_jsonfp_clsr3stdE7forwardIT0_Efp0_EEcvv_EERT_OSK_ = comdat any

$_ZN8nlohmann16json_abi_v3_11_36detail7to_jsonINS0_10basic_jsonISt3mapSt6vectorNSt7__cxx1112basic_stringIcSt11char_traitsIcESaIcEEEblmdSaNS0_14adl_serializerES5_IhSaIhEEvEEA5_cTnNSt9enable_ifIXsr3std16is_constructibleINT_8string_tET0_EE5valueEiE4typeELi0EEEvRSI_RKSK_ = comdat any

$_ZN8nlohmann16json_abi_v3_11_36detail20external_constructorILNS1_7value_tE3EE9constructINS0_10basic_jsonISt3mapSt6vectorNSt7__cxx1112basic_stringIcSt11char_traitsIcESaIcEEEblmdSaNS0_14adl_serializerES8_IhSaIhEEvEEA5_cTnNSt9enable_ifIXntsr3std7is_sameIT0_NT_8string_tEEE5valueEiE4typeELi0EEEvRSM_RKSL_ = comdat any

$_ZN8nlohmann16json_abi_v3_11_310basic_jsonISt3mapSt6vectorNSt7__cxx1112basic_stringIcSt11char_traitsIcESaIcEEEblmdSaNS0_14adl_serializerES3_IhSaIhEEvE6createIS9_JRA5_KcEEEPT_DpOT0_ = comdat any

$_ZNSt10unique_ptrINSt7__cxx1112basic_stringIcSt11char_traitsIcESaIcEEEZN8nlohmann16json_abi_v3_11_310basic_jsonISt3mapSt6vectorS5_blmdSaNS7_14adl_serializerESA_IhSaIhEEvE6createIS5_JRA5_KcEEEPT_DpOT0_EUlPS5_E_EC2ISP_vEESO_RKSP_ = comdat any

$_ZNSt16allocator_traitsISaINSt7__cxx1112basic_stringIcSt11char_traitsIcESaIcEEEEE9constructIS5_JRA5_KcEEEvRS6_PT_DpOT0_ = comdat any

$_ZNKSt10unique_ptrINSt7__cxx1112basic_stringIcSt11char_traitsIcESaIcEEEZN8nlohmann16json_abi_v3_11_310basic_jsonISt3mapSt6vectorS5_blmdSaNS7_14adl_serializerESA_IhSaIhEEvE6createIS5_JRA5_KcEEEPT_DpOT0_EUlPS5_E_E3getEv = comdat any

$_ZNSt10unique_ptrINSt7__cxx1112basic_stringIcSt11char_traitsIcESaIcEEEZN8nlohmann16json_abi_v3_11_310basic_jsonISt3mapSt6vectorS5_blmdSaNS7_14adl_serializerESA_IhSaIhEEvE6createIS5_JRA5_KcEEEPT_DpOT0_EUlPS5_E_E7releaseEv = comdat any

$_ZNSt10unique_ptrINSt7__cxx1112basic_stringIcSt11char_traitsIcESaIcEEEZN8nlohmann16json_abi_v3_11_310basic_jsonISt3mapSt6vectorS5_blmdSaNS7_14adl_serializerESA_IhSaIhEEvE6createIS5_JRA5_KcEEEPT_DpOT0_EUlPS5_E_ED2Ev = comdat any

$_ZNSt15__uniq_ptr_dataINSt7__cxx1112basic_stringIcSt11char_traitsIcESaIcEEEZN8nlohmann16json_abi_v3_11_310basic_jsonISt3mapSt6vectorS5_blmdSaNS7_14adl_serializerESA_IhSaIhEEvE6createIS5_JRA5_KcEEEPT_DpOT0_EUlPS5_E_Lb1ELb0EECI2St15__uniq_ptr_implIS5_SP_EIRKSP_EESO_OSJ_ = comdat any

$_ZNSt15__uniq_ptr_implINSt7__cxx1112basic_stringIcSt11char_traitsIcESaIcEEEZN8nlohmann16json_abi_v3_11_310basic_jsonISt3mapSt6vectorS5_blmdSaNS7_14adl_serializerESA_IhSaIhEEvE6createIS5_JRA5_KcEEEPT_DpOT0_EUlPS5_E_EC2IRKSP_EESO_OSJ_ = comdat any

$_ZNSt5tupleIJPNSt7__cxx1112basic_stringIcSt11char_traitsIcESaIcEEEZN8nlohmann16json_abi_v3_11_310basic_jsonISt3mapSt6vectorS5_blmdSaNS8_14adl_serializerESB_IhSaIhEEvE6createIS5_JRA5_KcEEEPT_DpOT0_EUlS6_E_EEC2IRS6_RKSP_TnNSt9enable_ifIXclsr4_TCCIXntcl14__is_alloc_argISK_EEEEE29__is_implicitly_constructibleISK_T0_EEEbE4typeELb1EEEOSK_OSW_ = comdat any

$_ZNSt11_Tuple_implILm0EJPNSt7__cxx1112basic_stringIcSt11char_traitsIcESaIcEEEZN8nlohmann16json_abi_v3_11_310basic_jsonISt3mapSt6vectorS5_blmdSaNS8_14adl_serializerESB_IhSaIhEEvE6createIS5_JRA5_KcEEEPT_DpOT0_EUlS6_E_EEC2IRS6_JRKSP_EvEEOSK_SO_ = comdat any

$_ZNSt11_Tuple_implILm1EJZN8nlohmann16json_abi_v3_11_310basic_jsonISt3mapSt6vectorNSt7__cxx1112basic_stringIcSt11char_traitsIcESaIcEEEblmdSaNS1_14adl_serializerES4_IhSaIhEEvE6createISA_JRA5_KcEEEPT_DpOT0_EUlPSA_E_EEC2ERKSP_ = comdat any

$_ZNSt10_Head_baseILm1EZN8nlohmann16json_abi_v3_11_310basic_jsonISt3mapSt6vectorNSt7__cxx1112basic_stringIcSt11char_traitsIcESaIcEEEblmdSaNS1_14adl_serializerES4_IhSaIhEEvE6createISA_JRA5_KcEEEPT_DpOT0_EUlPSA_E_Lb0EEC2ERKSP_ = comdat any

$_ZNSt15__new_allocatorINSt7__cxx1112basic_stringIcSt11char_traitsIcESaIcEEEE9constructIS5_JRA5_KcEEEvPT_DpOT0_ = comdat any

$_ZNKSt15__uniq_ptr_implINSt7__cxx1112basic_stringIcSt11char_traitsIcESaIcEEEZN8nlohmann16json_abi_v3_11_310basic_jsonISt3mapSt6vectorS5_blmdSaNS7_14adl_serializerESA_IhSaIhEEvE6createIS5_JRA5_KcEEEPT_DpOT0_EUlPS5_E_E6_M_ptrEv = comdat any

$_ZSt3getILm0EJPNSt7__cxx1112basic_stringIcSt11char_traitsIcESaIcEEEZN8nlohmann16json_abi_v3_11_310basic_jsonISt3mapSt6vectorS5_blmdSaNS8_14adl_serializerESB_IhSaIhEEvE6createIS5_JRA5_KcEEEPT_DpOT0_EUlS6_E_EERKNSt13tuple_elementIXT_ESt5tupleIJDpSM_EEE4typeERKST_ = comdat any

$_ZSt12__get_helperILm0EPNSt7__cxx1112basic_stringIcSt11char_traitsIcESaIcEEEJZN8nlohmann16json_abi_v3_11_310basic_jsonISt3mapSt6vectorS5_blmdSaNS8_14adl_serializerESB_IhSaIhEEvE6createIS5_JRA5_KcEEEPT_DpOT0_EUlS6_E_EERKT0_RKSt11_Tuple_implIXT_EJSQ_DpT1_EE = comdat any

$_ZNSt11_Tuple_implILm0EJPNSt7__cxx1112basic_stringIcSt11char_traitsIcESaIcEEEZN8nlohmann16json_abi_v3_11_310basic_jsonISt3mapSt6vectorS5_blmdSaNS8_14adl_serializerESB_IhSaIhEEvE6createIS5_JRA5_KcEEEPT_DpOT0_EUlS6_E_EE7_M_headERKSQ_ = comdat any

$_ZNSt15__uniq_ptr_implINSt7__cxx1112basic_stringIcSt11char_traitsIcESaIcEEEZN8nlohmann16json_abi_v3_11_310basic_jsonISt3mapSt6vectorS5_blmdSaNS7_14adl_serializerESA_IhSaIhEEvE6createIS5_JRA5_KcEEEPT_DpOT0_EUlPS5_E_E7releaseEv = comdat any

$_ZNSt15__uniq_ptr_implINSt7__cxx1112basic_stringIcSt11char_traitsIcESaIcEEEZN8nlohmann16json_abi_v3_11_310basic_jsonISt3mapSt6vectorS5_blmdSaNS7_14adl_serializerESA_IhSaIhEEvE6createIS5_JRA5_KcEEEPT_DpOT0_EUlPS5_E_E6_M_ptrEv = comdat any

$_ZSt3getILm0EJPNSt7__cxx1112basic_stringIcSt11char_traitsIcESaIcEEEZN8nlohmann16json_abi_v3_11_310basic_jsonISt3mapSt6vectorS5_blmdSaNS8_14adl_serializerESB_IhSaIhEEvE6createIS5_JRA5_KcEEEPT_DpOT0_EUlS6_E_EERNSt13tuple_elementIXT_ESt5tupleIJDpSM_EEE4typeERST_ = comdat any

$_ZSt12__get_helperILm0EPNSt7__cxx1112basic_stringIcSt11char_traitsIcESaIcEEEJZN8nlohmann16json_abi_v3_11_310basic_jsonISt3mapSt6vectorS5_blmdSaNS8_14adl_serializerESB_IhSaIhEEvE6createIS5_JRA5_KcEEEPT_DpOT0_EUlS6_E_EERT0_RSt11_Tuple_implIXT_EJSQ_DpT1_EE = comdat any

$_ZNSt11_Tuple_implILm0EJPNSt7__cxx1112basic_stringIcSt11char_traitsIcESaIcEEEZN8nlohmann16json_abi_v3_11_310basic_jsonISt3mapSt6vectorS5_blmdSaNS8_14adl_serializerESB_IhSaIhEEvE6createIS5_JRA5_KcEEEPT_DpOT0_EUlS6_E_EE7_M_headERSQ_ = comdat any

$_ZNSt10unique_ptrINSt7__cxx1112basic_stringIcSt11char_traitsIcESaIcEEEZN8nlohmann16json_abi_v3_11_310basic_jsonISt3mapSt6vectorS5_blmdSaNS7_14adl_serializerESA_IhSaIhEEvE6createIS5_JRA5_KcEEEPT_DpOT0_EUlPS5_E_E11get_deleterEv = comdat any

$_ZZN8nlohmann16json_abi_v3_11_310basic_jsonISt3mapSt6vectorNSt7__cxx1112basic_stringIcSt11char_traitsIcESaIcEEEblmdSaNS0_14adl_serializerES3_IhSaIhEEvE6createIS9_JRA5_KcEEEPT_DpOT0_ENKUlPS9_E_clESN_ = comdat any

$_ZNSt15__uniq_ptr_implINSt7__cxx1112basic_stringIcSt11char_traitsIcESaIcEEEZN8nlohmann16json_abi_v3_11_310basic_jsonISt3mapSt6vectorS5_blmdSaNS7_14adl_serializerESA_IhSaIhEEvE6createIS5_JRA5_KcEEEPT_DpOT0_EUlPS5_E_E10_M_deleterEv = comdat any

$_ZSt3getILm1EJPNSt7__cxx1112basic_stringIcSt11char_traitsIcESaIcEEEZN8nlohmann16json_abi_v3_11_310basic_jsonISt3mapSt6vectorS5_blmdSaNS8_14adl_serializerESB_IhSaIhEEvE6createIS5_JRA5_KcEEEPT_DpOT0_EUlS6_E_EERNSt13tuple_elementIXT_ESt5tupleIJDpSM_EEE4typeERST_ = comdat any

$_ZSt12__get_helperILm1EZN8nlohmann16json_abi_v3_11_310basic_jsonISt3mapSt6vectorNSt7__cxx1112basic_stringIcSt11char_traitsIcESaIcEEEblmdSaNS1_14adl_serializerES4_IhSaIhEEvE6createISA_JRA5_KcEEEPT_DpOT0_EUlPSA_E_JEERT0_RSt11_Tuple_implIXT_EJSQ_DpT1_EE = comdat any

$_ZNSt11_Tuple_implILm1EJZN8nlohmann16json_abi_v3_11_310basic_jsonISt3mapSt6vectorNSt7__cxx1112basic_stringIcSt11char_traitsIcESaIcEEEblmdSaNS1_14adl_serializerES4_IhSaIhEEvE6createISA_JRA5_KcEEEPT_DpOT0_EUlPSA_E_EE7_M_headERSQ_ = comdat any

$_ZNSt10_Head_baseILm1EZN8nlohmann16json_abi_v3_11_310basic_jsonISt3mapSt6vectorNSt7__cxx1112basic_stringIcSt11char_traitsIcESaIcEEEblmdSaNS1_14adl_serializerES4_IhSaIhEEvE6createISA_JRA5_KcEEEPT_DpOT0_EUlPSA_E_Lb0EE7_M_headERSQ_ = comdat any

$_ZN7doctest6detail7forwardIRA6_KcEEOT_RNS0_5types16remove_referenceIS5_E4typeE = comdat any

$_ZN7doctest6detail19stringifyBinaryExprINSt7__cxx1112basic_stringIcSt11char_traitsIcESaIcEEEA6_cEENS_6StringERKT_PKcRKT0_ = comdat any

$_ZN7doctest8toStringIA6_cTnNS_6detail5types9enable_ifIXntsr6detail35should_stringify_as_underlying_typeIT_EE5valueEbE4typeELb1EEENS_6StringERKS5_ = comdat any

$_ZN7doctest6detail15StringMakerBaseILb1EE7convertIA6_cEENS_6StringERKT_ = comdat any

$_ZN7doctest6detail8toStreamIA6_cEENS_6StringERKT_ = comdat any

$_ZN7doctest6detail7fillossIcLm6EEEvPSoRAT0__KT_ = comdat any

$_ZN7doctest6detail7fillossIA6_KcEEvPSoRKT_ = comdat any

$_ZN7doctest6detail8filldataIA6_KcE4fillEPSoRS3_ = comdat any

$_ZN7doctest6detail7forwardIRA9_KcEEOT_RNS0_5types16remove_referenceIS5_E4typeE = comdat any

$_ZN7doctest6detail19stringifyBinaryExprINSt7__cxx1112basic_stringIcSt11char_traitsIcESaIcEEEA9_cEENS_6StringERKT_PKcRKT0_ = comdat any

$_ZN7doctest8toStringIA9_cTnNS_6detail5types9enable_ifIXntsr6detail35should_stringify_as_underlying_typeIT_EE5valueEbE4typeELb1EEENS_6StringERKS5_ = comdat any

$_ZN7doctest6detail15StringMakerBaseILb1EE7convertIA9_cEENS_6StringERKT_ = comdat any

$_ZN7doctest6detail8toStreamIA9_cEENS_6StringERKT_ = comdat any

$_ZN7doctest6detail7fillossIcLm9EEEvPSoRAT0__KT_ = comdat any

$_ZN7doctest6detail7fillossIA9_KcEEvPSoRKT_ = comdat any

$_ZN7doctest6detail8filldataIA9_KcE4fillEPSoRS3_ = comdat any

$_ZN7doctest6detail7forwardIRA12_KcEEOT_RNS0_5types16remove_referenceIS5_E4typeE = comdat any

$_ZN7doctest6detail19stringifyBinaryExprINSt7__cxx1112basic_stringIcSt11char_traitsIcESaIcEEEA12_cEENS_6StringERKT_PKcRKT0_ = comdat any

$_ZN7doctest8toStringIA12_cTnNS_6detail5types9enable_ifIXntsr6detail35should_stringify_as_underlying_typeIT_EE5valueEbE4typeELb1EEENS_6StringERKS5_ = comdat any

$_ZN7doctest6detail15StringMakerBaseILb1EE7convertIA12_cEENS_6StringERKT_ = comdat any

$_ZN7doctest6detail8toStreamIA12_cEENS_6StringERKT_ = comdat any

$_ZN7doctest6detail7fillossIcLm12EEEvPSoRAT0__KT_ = comdat any

$_ZN7doctest6detail7fillossIA12_KcEEvPSoRKT_ = comdat any

$_ZN7doctest6detail8filldataIA12_KcE4fillEPSoRS3_ = comdat any

$_ZN8nlohmann16json_abi_v3_11_314adl_serializerIA9_cvE7to_jsonINS0_10basic_jsonISt3mapSt6vectorNSt7__cxx1112basic_stringIcSt11char_traitsIcESaIcEEEblmdSaS1_S7_IhSaIhEEvEERA9_KcEEDTcmclL_ZNS0_12_GLOBAL__N_17to_jsonEEfp_clsr3stdE7forwardIT0_Efp0_EEcvv_EERT_OSL_ = comdat any

$_ZNK8nlohmann16json_abi_v3_11_36detail10to_json_fnclINS0_10basic_jsonISt3mapSt6vectorNSt7__cxx1112basic_stringIcSt11char_traitsIcESaIcEEEblmdSaNS0_14adl_serializerES6_IhSaIhEEvEERA9_KcEEDTcmcl7to_jsonfp_clsr3stdE7forwardIT0_Efp0_EEcvv_EERT_OSK_ = comdat any

$_ZN8nlohmann16json_abi_v3_11_36detail7to_jsonINS0_10basic_jsonISt3mapSt6vectorNSt7__cxx1112basic_stringIcSt11char_traitsIcESaIcEEEblmdSaNS0_14adl_serializerES5_IhSaIhEEvEEA9_cTnNSt9enable_ifIXsr3std16is_constructibleINT_8string_tET0_EE5valueEiE4typeELi0EEEvRSI_RKSK_ = comdat any

$_ZN8nlohmann16json_abi_v3_11_36detail20external_constructorILNS1_7value_tE3EE9constructINS0_10basic_jsonISt3mapSt6vectorNSt7__cxx1112basic_stringIcSt11char_traitsIcESaIcEEEblmdSaNS0_14adl_serializerES8_IhSaIhEEvEEA9_cTnNSt9enable_ifIXntsr3std7is_sameIT0_NT_8string_tEEE5valueEiE4typeELi0EEEvRSM_RKSL_ = comdat any

$_ZN8nlohmann16json_abi_v3_11_310basic_jsonISt3mapSt6vectorNSt7__cxx1112basic_stringIcSt11char_traitsIcESaIcEEEblmdSaNS0_14adl_serializerES3_IhSaIhEEvE6createIS9_JRA9_KcEEEPT_DpOT0_ = comdat any

$_ZNSt10unique_ptrINSt7__cxx1112basic_stringIcSt11char_traitsIcESaIcEEEZN8nlohmann16json_abi_v3_11_310basic_jsonISt3mapSt6vectorS5_blmdSaNS7_14adl_serializerESA_IhSaIhEEvE6createIS5_JRA9_KcEEEPT_DpOT0_EUlPS5_E_EC2ISP_vEESO_RKSP_ = comdat any

$_ZNSt16allocator_traitsISaINSt7__cxx1112basic_stringIcSt11char_traitsIcESaIcEEEEE9constructIS5_JRA9_KcEEEvRS6_PT_DpOT0_ = comdat any

$_ZNKSt10unique_ptrINSt7__cxx1112basic_stringIcSt11char_traitsIcESaIcEEEZN8nlohmann16json_abi_v3_11_310basic_jsonISt3mapSt6vectorS5_blmdSaNS7_14adl_serializerESA_IhSaIhEEvE6createIS5_JRA9_KcEEEPT_DpOT0_EUlPS5_E_E3getEv = comdat any

$_ZNSt10unique_ptrINSt7__cxx1112basic_stringIcSt11char_traitsIcESaIcEEEZN8nlohmann16json_abi_v3_11_310basic_jsonISt3mapSt6vectorS5_blmdSaNS7_14adl_serializerESA_IhSaIhEEvE6createIS5_JRA9_KcEEEPT_DpOT0_EUlPS5_E_E7releaseEv = comdat any

$_ZNSt10unique_ptrINSt7__cxx1112basic_stringIcSt11char_traitsIcESaIcEEEZN8nlohmann16json_abi_v3_11_310basic_jsonISt3mapSt6vectorS5_blmdSaNS7_14adl_serializerESA_IhSaIhEEvE6createIS5_JRA9_KcEEEPT_DpOT0_EUlPS5_E_ED2Ev = comdat any

$_ZNSt15__uniq_ptr_dataINSt7__cxx1112basic_stringIcSt11char_traitsIcESaIcEEEZN8nlohmann16json_abi_v3_11_310basic_jsonISt3mapSt6vectorS5_blmdSaNS7_14adl_serializerESA_IhSaIhEEvE6createIS5_JRA9_KcEEEPT_DpOT0_EUlPS5_E_Lb1ELb0EECI2St15__uniq_ptr_implIS5_SP_EIRKSP_EESO_OSJ_ = comdat any

$_ZNSt15__uniq_ptr_implINSt7__cxx1112basic_stringIcSt11char_traitsIcESaIcEEEZN8nlohmann16json_abi_v3_11_310basic_jsonISt3mapSt6vectorS5_blmdSaNS7_14adl_serializerESA_IhSaIhEEvE6createIS5_JRA9_KcEEEPT_DpOT0_EUlPS5_E_EC2IRKSP_EESO_OSJ_ = comdat any

$_ZNSt5tupleIJPNSt7__cxx1112basic_stringIcSt11char_traitsIcESaIcEEEZN8nlohmann16json_abi_v3_11_310basic_jsonISt3mapSt6vectorS5_blmdSaNS8_14adl_serializerESB_IhSaIhEEvE6createIS5_JRA9_KcEEEPT_DpOT0_EUlS6_E_EEC2IRS6_RKSP_TnNSt9enable_ifIXclsr4_TCCIXntcl14__is_alloc_argISK_EEEEE29__is_implicitly_constructibleISK_T0_EEEbE4typeELb1EEEOSK_OSW_ = comdat any

$_ZNSt11_Tuple_implILm0EJPNSt7__cxx1112basic_stringIcSt11char_traitsIcESaIcEEEZN8nlohmann16json_abi_v3_11_310basic_jsonISt3mapSt6vectorS5_blmdSaNS8_14adl_serializerESB_IhSaIhEEvE6createIS5_JRA9_KcEEEPT_DpOT0_EUlS6_E_EEC2IRS6_JRKSP_EvEEOSK_SO_ = comdat any

$_ZNSt11_Tuple_implILm1EJZN8nlohmann16json_abi_v3_11_310basic_jsonISt3mapSt6vectorNSt7__cxx1112basic_stringIcSt11char_traitsIcESaIcEEEblmdSaNS1_14adl_serializerES4_IhSaIhEEvE6createISA_JRA9_KcEEEPT_DpOT0_EUlPSA_E_EEC2ERKSP_ = comdat any

$_ZNSt10_Head_baseILm1EZN8nlohmann16json_abi_v3_11_310basic_jsonISt3mapSt6vectorNSt7__cxx1112basic_stringIcSt11char_traitsIcESaIcEEEblmdSaNS1_14adl_serializerES4_IhSaIhEEvE6createISA_JRA9_KcEEEPT_DpOT0_EUlPSA_E_Lb0EEC2ERKSP_ = comdat any

$_ZNSt15__new_allocatorINSt7__cxx1112basic_stringIcSt11char_traitsIcESaIcEEEE9constructIS5_JRA9_KcEEEvPT_DpOT0_ = comdat any

$_ZNKSt15__uniq_ptr_implINSt7__cxx1112basic_stringIcSt11char_traitsIcESaIcEEEZN8nlohmann16json_abi_v3_11_310basic_jsonISt3mapSt6vectorS5_blmdSaNS7_14adl_serializerESA_IhSaIhEEvE6createIS5_JRA9_KcEEEPT_DpOT0_EUlPS5_E_E6_M_ptrEv = comdat any

$_ZSt3getILm0EJPNSt7__cxx1112basic_stringIcSt11char_traitsIcESaIcEEEZN8nlohmann16json_abi_v3_11_310basic_jsonISt3mapSt6vectorS5_blmdSaNS8_14adl_serializerESB_IhSaIhEEvE6createIS5_JRA9_KcEEEPT_DpOT0_EUlS6_E_EERKNSt13tuple_elementIXT_ESt5tupleIJDpSM_EEE4typeERKST_ = comdat any

$_ZSt12__get_helperILm0EPNSt7__cxx1112basic_stringIcSt11char_traitsIcESaIcEEEJZN8nlohmann16json_abi_v3_11_310basic_jsonISt3mapSt6vectorS5_blmdSaNS8_14adl_serializerESB_IhSaIhEEvE6createIS5_JRA9_KcEEEPT_DpOT0_EUlS6_E_EERKT0_RKSt11_Tuple_implIXT_EJSQ_DpT1_EE = comdat any

$_ZNSt11_Tuple_implILm0EJPNSt7__cxx1112basic_stringIcSt11char_traitsIcESaIcEEEZN8nlohmann16json_abi_v3_11_310basic_jsonISt3mapSt6vectorS5_blmdSaNS8_14adl_serializerESB_IhSaIhEEvE6createIS5_JRA9_KcEEEPT_DpOT0_EUlS6_E_EE7_M_headERKSQ_ = comdat any

$_ZNSt15__uniq_ptr_implINSt7__cxx1112basic_stringIcSt11char_traitsIcESaIcEEEZN8nlohmann16json_abi_v3_11_310basic_jsonISt3mapSt6vectorS5_blmdSaNS7_14adl_serializerESA_IhSaIhEEvE6createIS5_JRA9_KcEEEPT_DpOT0_EUlPS5_E_E7releaseEv = comdat any

$_ZNSt15__uniq_ptr_implINSt7__cxx1112basic_stringIcSt11char_traitsIcESaIcEEEZN8nlohmann16json_abi_v3_11_310basic_jsonISt3mapSt6vectorS5_blmdSaNS7_14adl_serializerESA_IhSaIhEEvE6createIS5_JRA9_KcEEEPT_DpOT0_EUlPS5_E_E6_M_ptrEv = comdat any

$_ZSt3getILm0EJPNSt7__cxx1112basic_stringIcSt11char_traitsIcESaIcEEEZN8nlohmann16json_abi_v3_11_310basic_jsonISt3mapSt6vectorS5_blmdSaNS8_14adl_serializerESB_IhSaIhEEvE6createIS5_JRA9_KcEEEPT_DpOT0_EUlS6_E_EERNSt13tuple_elementIXT_ESt5tupleIJDpSM_EEE4typeERST_ = comdat any

$_ZSt12__get_helperILm0EPNSt7__cxx1112basic_stringIcSt11char_traitsIcESaIcEEEJZN8nlohmann16json_abi_v3_11_310basic_jsonISt3mapSt6vectorS5_blmdSaNS8_14adl_serializerESB_IhSaIhEEvE6createIS5_JRA9_KcEEEPT_DpOT0_EUlS6_E_EERT0_RSt11_Tuple_implIXT_EJSQ_DpT1_EE = comdat any

$_ZNSt11_Tuple_implILm0EJPNSt7__cxx1112basic_stringIcSt11char_traitsIcESaIcEEEZN8nlohmann16json_abi_v3_11_310basic_jsonISt3mapSt6vectorS5_blmdSaNS8_14adl_serializerESB_IhSaIhEEvE6createIS5_JRA9_KcEEEPT_DpOT0_EUlS6_E_EE7_M_headERSQ_ = comdat any

$_ZNSt10unique_ptrINSt7__cxx1112basic_stringIcSt11char_traitsIcESaIcEEEZN8nlohmann16json_abi_v3_11_310basic_jsonISt3mapSt6vectorS5_blmdSaNS7_14adl_serializerESA_IhSaIhEEvE6createIS5_JRA9_KcEEEPT_DpOT0_EUlPS5_E_E11get_deleterEv = comdat any

$_ZZN8nlohmann16json_abi_v3_11_310basic_jsonISt3mapSt6vectorNSt7__cxx1112basic_stringIcSt11char_traitsIcESaIcEEEblmdSaNS0_14adl_serializerES3_IhSaIhEEvE6createIS9_JRA9_KcEEEPT_DpOT0_ENKUlPS9_E_clESN_ = comdat any

$_ZNSt15__uniq_ptr_implINSt7__cxx1112basic_stringIcSt11char_traitsIcESaIcEEEZN8nlohmann16json_abi_v3_11_310basic_jsonISt3mapSt6vectorS5_blmdSaNS7_14adl_serializerESA_IhSaIhEEvE6createIS5_JRA9_KcEEEPT_DpOT0_EUlPS5_E_E10_M_deleterEv = comdat any

$_ZSt3getILm1EJPNSt7__cxx1112basic_stringIcSt11char_traitsIcESaIcEEEZN8nlohmann16json_abi_v3_11_310basic_jsonISt3mapSt6vectorS5_blmdSaNS8_14adl_serializerESB_IhSaIhEEvE6createIS5_JRA9_KcEEEPT_DpOT0_EUlS6_E_EERNSt13tuple_elementIXT_ESt5tupleIJDpSM_EEE4typeERST_ = comdat any

$_ZSt12__get_helperILm1EZN8nlohmann16json_abi_v3_11_310basic_jsonISt3mapSt6vectorNSt7__cxx1112basic_stringIcSt11char_traitsIcESaIcEEEblmdSaNS1_14adl_serializerES4_IhSaIhEEvE6createISA_JRA9_KcEEEPT_DpOT0_EUlPSA_E_JEERT0_RSt11_Tuple_implIXT_EJSQ_DpT1_EE = comdat any

$_ZNSt11_Tuple_implILm1EJZN8nlohmann16json_abi_v3_11_310basic_jsonISt3mapSt6vectorNSt7__cxx1112basic_stringIcSt11char_traitsIcESaIcEEEblmdSaNS1_14adl_serializerES4_IhSaIhEEvE6createISA_JRA9_KcEEEPT_DpOT0_EUlPSA_E_EE7_M_headERSQ_ = comdat any

$_ZNSt10_Head_baseILm1EZN8nlohmann16json_abi_v3_11_310basic_jsonISt3mapSt6vectorNSt7__cxx1112basic_stringIcSt11char_traitsIcESaIcEEEblmdSaNS1_14adl_serializerES4_IhSaIhEEvE6createISA_JRA9_KcEEEPT_DpOT0_EUlPSA_E_Lb0EE7_M_headERSQ_ = comdat any

$_ZN7doctest6detail7forwardIRA15_KcEEOT_RNS0_5types16remove_referenceIS5_E4typeE = comdat any

$_ZN7doctest6detail19stringifyBinaryExprINSt7__cxx1112basic_stringIcSt11char_traitsIcESaIcEEEA15_cEENS_6StringERKT_PKcRKT0_ = comdat any

$_ZN7doctest8toStringIA15_cTnNS_6detail5types9enable_ifIXntsr6detail35should_stringify_as_underlying_typeIT_EE5valueEbE4typeELb1EEENS_6StringERKS5_ = comdat any

$_ZN7doctest6detail15StringMakerBaseILb1EE7convertIA15_cEENS_6StringERKT_ = comdat any

$_ZN7doctest6detail8toStreamIA15_cEENS_6StringERKT_ = comdat any

$_ZN7doctest6detail7fillossIcLm15EEEvPSoRAT0__KT_ = comdat any

$_ZN7doctest6detail7fillossIA15_KcEEvPSoRKT_ = comdat any

$_ZN7doctest6detail8filldataIA15_KcE4fillEPSoRS3_ = comdat any

$_ZN8nlohmann16json_abi_v3_11_310basic_jsonISt3mapSt6vectorNSt7__cxx1112basic_stringIcSt11char_traitsIcESaIcEEEblmdSaNS0_14adl_serializerES3_IhSaIhEEvEC2IRKS9_S9_TnNSt9enable_ifIXaantsr6detail13is_basic_jsonIT0_EE5valuesr6detail18is_compatible_typeISD_SI_EE5valueEiE4typeELi0EEEOT_ = comdat any

$_ZN7doctest6detail14Expression_lhsINSt7__cxx1112basic_stringIcSt11char_traitsIcESaIcEEEEeqIS7_EEDTcmcvveqclL_ZNS0_7declvalIS7_EEOT_vEEclsr7doctest6detailE7declvalISB_EEtlNS0_6ResultEEESC_ = comdat any

$_ZStplIcSt11char_traitsIcESaIcEENSt7__cxx1112basic_stringIT_T0_T1_EEOS8_PKS5_ = comdat any

$_ZStplIcSt11char_traitsIcESaIcEENSt7__cxx1112basic_stringIT_T0_T1_EEPKS5_RKS8_ = comdat any

$_ZN8nlohmann16json_abi_v3_11_314adl_serializerINSt7__cxx1112basic_stringIcSt11char_traitsIcESaIcEEEvE7to_jsonINS0_10basic_jsonISt3mapSt6vectorS7_blmdSaS1_SC_IhSaIhEEvEERKS7_EEDTcmclL_ZNS0_12_GLOBAL__N_17to_jsonEEfp_clsr3stdE7forwardIT0_Efp0_EEcvv_EERT_OSJ_ = comdat any

$_ZNK8nlohmann16json_abi_v3_11_36detail10to_json_fnclINS0_10basic_jsonISt3mapSt6vectorNSt7__cxx1112basic_stringIcSt11char_traitsIcESaIcEEEblmdSaNS0_14adl_serializerES6_IhSaIhEEvEERKSC_EEDTcmcl7to_jsonfp_clsr3stdE7forwardIT0_Efp0_EEcvv_EERT_OSJ_ = comdat any

$_ZN8nlohmann16json_abi_v3_11_36detail7to_jsonINS0_10basic_jsonISt3mapSt6vectorNSt7__cxx1112basic_stringIcSt11char_traitsIcESaIcEEEblmdSaNS0_14adl_serializerES5_IhSaIhEEvEESB_TnNSt9enable_ifIXsr3std16is_constructibleINT_8string_tET0_EE5valueEiE4typeELi0EEEvRSH_RKSJ_ = comdat any

$_ZN8nlohmann16json_abi_v3_11_36detail20external_constructorILNS1_7value_tE3EE9constructINS0_10basic_jsonISt3mapSt6vectorNSt7__cxx1112basic_stringIcSt11char_traitsIcESaIcEEEblmdSaNS0_14adl_serializerES8_IhSaIhEEvEEEEvRT_RKNSJ_8string_tE = comdat any

$_ZSteqIcEN9__gnu_cxx11__enable_ifIXsr9__is_charIT_EE7__valueEbE6__typeERKNSt7__cxx1112basic_stringIS2_St11char_traitsIS2_ESaIS2_EEESC_ = comdat any

$_ZN7doctest6detail7forwardINSt7__cxx1112basic_stringIcSt11char_traitsIcESaIcEEEEEOT_RNS0_5types16remove_referenceIS8_E4typeE = comdat any

$_ZN7doctest6detail19stringifyBinaryExprINSt7__cxx1112basic_stringIcSt11char_traitsIcESaIcEEES7_EENS_6StringERKT_PKcRKT0_ = comdat any

$_ZNSt11char_traitsIcE7compareEPKcS2_m = comdat any

$_ZNSt11char_traitsIcE6lengthEPKc = comdat any

$_ZN9__gnu_cxx14__alloc_traitsISaIcEcE17_S_select_on_copyERKS1_ = comdat any

$_ZNSt16allocator_traitsISaIcEE37select_on_container_copy_constructionERKS0_ = comdat any

$_ZN8nlohmann16json_abi_v3_11_39to_stringITtTyTyTpTyESt3mapTtTyTpTyESt6vectorNSt7__cxx1112basic_stringIcSt11char_traitsIcESaIcEEEblmdSaNS0_14adl_serializerES3_IhSaIhEEvEES9_RKNS0_10basic_jsonIT_T0_T1_T2_T3_T4_T5_T6_T7_T8_T9_EE = comdat any

$_ZN8nlohmann16json_abi_v3_11_310basic_jsonISt3mapSt6vectorNSt7__cxx1112basic_stringIcSt11char_traitsIcESaIcEEEblmdSaNS0_14adl_serializerES3_IhSaIhEEvE6binaryEOSC_ = comdat any

$_ZNSaIhEC2Ev = comdat any

$_ZNSt6vectorIhSaIhEEC2ESt16initializer_listIhERKS0_ = comdat any

$_ZNSt6vectorIhSaIhEED2Ev = comdat any

$_ZNSt6vectorIhSaIhEEC2Ev = comdat any

$_ZN8nlohmann16json_abi_v3_11_310basic_jsonISt3mapSt6vectorNSt7__cxx1112basic_stringIcSt11char_traitsIcESaIcEEEblmdSaNS0_14adl_serializerES3_IhSaIhEEvE6binaryEOSC_m = comdat any

$_ZN8nlohmann16json_abi_v3_11_36detail8json_refINS0_10basic_jsonISt3mapSt6vectorNSt7__cxx1112basic_stringIcSt11char_traitsIcESaIcEEEblmdSaNS0_14adl_serializerES5_IhSaIhEEvEEEC2IJRSF_ETnNSt9enable_ifIXsr3std16is_constructibleISF_DpT_EE5valueEiE4typeELi0EEEDpOSK_ = comdat any

$_ZN8nlohmann16json_abi_v3_11_36detail8json_refINS0_10basic_jsonISt3mapSt6vectorNSt7__cxx1112basic_stringIcSt11char_traitsIcESaIcEEEblmdSaNS0_14adl_serializerES5_IhSaIhEEvEEEC2IJRA6_KcETnNSt9enable_ifIXsr3std16is_constructibleISF_DpT_EE5valueEiE4typeELi0EEEDpOSM_ = comdat any

$_ZN7doctest6detail14Expression_lhsINSt7__cxx1112basic_stringIcSt11char_traitsIcESaIcEEEEeqIRA35_KcEEDTcmcvveqclL_ZNS0_7declvalIS7_EEOT_vEEclsr7doctest6detailE7declvalISE_EEtlNS0_6ResultEEESF_ = comdat any

$_ZN7doctest6detail14Expression_lhsINSt7__cxx1112basic_stringIcSt11char_traitsIcESaIcEEEEeqIRA28_KcEEDTcmcvveqclL_ZNS0_7declvalIS7_EEOT_vEEclsr7doctest6detailE7declvalISE_EEtlNS0_6ResultEEESF_ = comdat any

$_ZN7doctest6detail14Expression_lhsINSt7__cxx1112basic_stringIcSt11char_traitsIcESaIcEEEEeqIRA34_KcEEDTcmcvveqclL_ZNS0_7declvalIS7_EEOT_vEEclsr7doctest6detailE7declvalISE_EEtlNS0_6ResultEEESF_ = comdat any

$_ZN7doctest6detail14Expression_lhsINSt7__cxx1112basic_stringIcSt11char_traitsIcESaIcEEEEeqIRA27_KcEEDTcmcvveqclL_ZNS0_7declvalIS7_EEOT_vEEclsr7doctest6detailE7declvalISE_EEtlNS0_6ResultEEESF_ = comdat any

$_ZN7doctest6detail14Expression_lhsINSt7__cxx1112basic_stringIcSt11char_traitsIcESaIcEEEEeqIRA43_KcEEDTcmcvveqclL_ZNS0_7declvalIS7_EEOT_vEEclsr7doctest6detailE7declvalISE_EEtlNS0_6ResultEEESF_ = comdat any

$_ZN7doctest6detail14Expression_lhsINSt7__cxx1112basic_stringIcSt11char_traitsIcESaIcEEEEeqIRA36_KcEEDTcmcvveqclL_ZNS0_7declvalIS7_EEOT_vEEclsr7doctest6detailE7declvalISE_EEtlNS0_6ResultEEESF_ = comdat any

$_ZN7doctest6detail14Expression_lhsINSt7__cxx1112basic_stringIcSt11char_traitsIcESaIcEEEEeqIRA42_KcEEDTcmcvveqclL_ZNS0_7declvalIS7_EEOT_vEEclsr7doctest6detailE7declvalISE_EEtlNS0_6ResultEEESF_ = comdat any

$_ZN7doctest6detail14Expression_lhsINSt7__cxx1112basic_stringIcSt11char_traitsIcESaIcEEEEeqIRA47_KcEEDTcmcvveqclL_ZNS0_7declvalIS7_EEOT_vEEclsr7doctest6detailE7declvalISE_EEtlNS0_6ResultEEESF_ = comdat any

$_ZN7doctest6detail14Expression_lhsINSt7__cxx1112basic_stringIcSt11char_traitsIcESaIcEEEEeqIRA40_KcEEDTcmcvveqclL_ZNS0_7declvalIS7_EEOT_vEEclsr7doctest6detailE7declvalISE_EEtlNS0_6ResultEEESF_ = comdat any

$_ZN7doctest6detail14Expression_lhsINSt7__cxx1112basic_stringIcSt11char_traitsIcESaIcEEEEeqIRA46_KcEEDTcmcvveqclL_ZNS0_7declvalIS7_EEOT_vEEclsr7doctest6detailE7declvalISE_EEtlNS0_6ResultEEESF_ = comdat any

$_ZN7doctest6detail14Expression_lhsINSt7__cxx1112basic_stringIcSt11char_traitsIcESaIcEEEEeqIRA39_KcEEDTcmcvveqclL_ZNS0_7declvalIS7_EEOT_vEEclsr7doctest6detailE7declvalISE_EEtlNS0_6ResultEEESF_ = comdat any

$_ZN7doctest6detail14Expression_lhsINSt7__cxx1112basic_stringIcSt11char_traitsIcESaIcEEEEeqIRA51_KcEEDTcmcvveqclL_ZNS0_7declvalIS7_EEOT_vEEclsr7doctest6detailE7declvalISE_EEtlNS0_6ResultEEESF_ = comdat any

$_ZN7doctest6detail14Expression_lhsINSt7__cxx1112basic_stringIcSt11char_traitsIcESaIcEEEEeqIRA41_KcEEDTcmcvveqclL_ZNS0_7declvalIS7_EEOT_vEEclsr7doctest6detailE7declvalISE_EEtlNS0_6ResultEEESF_ = comdat any

$_ZN7doctest6detail14Expression_lhsINSt7__cxx1112basic_stringIcSt11char_traitsIcESaIcEEEEeqIRA50_KcEEDTcmcvveqclL_ZNS0_7declvalIS7_EEOT_vEEclsr7doctest6detailE7declvalISE_EEtlNS0_6ResultEEESF_ = comdat any

$_ZN7doctest6detail14Expression_lhsINSt7__cxx1112basic_stringIcSt11char_traitsIcESaIcEEEEeqIRA78_KcEEDTcmcvveqclL_ZNS0_7declvalIS7_EEOT_vEEclsr7doctest6detailE7declvalISE_EEtlNS0_6ResultEEESF_ = comdat any

$_ZN7doctest6detail14Expression_lhsINSt7__cxx1112basic_stringIcSt11char_traitsIcESaIcEEEEeqIRA68_KcEEDTcmcvveqclL_ZNS0_7declvalIS7_EEOT_vEEclsr7doctest6detailE7declvalISE_EEtlNS0_6ResultEEESF_ = comdat any

$_ZN7doctest6detail14Expression_lhsINSt7__cxx1112basic_stringIcSt11char_traitsIcESaIcEEEEeqIRA77_KcEEDTcmcvveqclL_ZNS0_7declvalIS7_EEOT_vEEclsr7doctest6detailE7declvalISE_EEtlNS0_6ResultEEESF_ = comdat any

$_ZN7doctest6detail14Expression_lhsINSt7__cxx1112basic_stringIcSt11char_traitsIcESaIcEEEEeqIRA67_KcEEDTcmcvveqclL_ZNS0_7declvalIS7_EEOT_vEEclsr7doctest6detailE7declvalISE_EEtlNS0_6ResultEEESF_ = comdat any

$_ZN7doctest6detail14Expression_lhsINSt7__cxx1112basic_stringIcSt11char_traitsIcESaIcEEEEeqIRA91_KcEEDTcmcvveqclL_ZNS0_7declvalIS7_EEOT_vEEclsr7doctest6detailE7declvalISE_EEtlNS0_6ResultEEESF_ = comdat any

$_ZN7doctest6detail14Expression_lhsINSt7__cxx1112basic_stringIcSt11char_traitsIcESaIcEEEEeqIRA81_KcEEDTcmcvveqclL_ZNS0_7declvalIS7_EEOT_vEEclsr7doctest6detailE7declvalISE_EEtlNS0_6ResultEEESF_ = comdat any

$_ZN7doctest6detail14Expression_lhsINSt7__cxx1112basic_stringIcSt11char_traitsIcESaIcEEEEeqIRA90_KcEEDTcmcvveqclL_ZNS0_7declvalIS7_EEOT_vEEclsr7doctest6detailE7declvalISE_EEtlNS0_6ResultEEESF_ = comdat any

$_ZN7doctest6detail14Expression_lhsINSt7__cxx1112basic_stringIcSt11char_traitsIcESaIcEEEEeqIRA80_KcEEDTcmcvveqclL_ZNS0_7declvalIS7_EEOT_vEEclsr7doctest6detailE7declvalISE_EEtlNS0_6ResultEEESF_ = comdat any

$_ZN8nlohmann16json_abi_v3_11_310basic_jsonISt3mapSt6vectorNSt7__cxx1112basic_stringIcSt11char_traitsIcESaIcEEEblmdSaNS0_14adl_serializerES3_IhSaIhEEvEC2EDn = comdat any

$_ZN8nlohmann16json_abi_v3_11_310basic_jsonISt3mapSt6vectorNSt7__cxx1112basic_stringIcSt11char_traitsIcESaIcEEEblmdSaNS0_14adl_serializerES3_IhSaIhEEvE10json_valueC2EOSC_ = comdat any

$_ZN8nlohmann16json_abi_v3_11_310basic_jsonISt3mapSt6vectorNSt7__cxx1112basic_stringIcSt11char_traitsIcESaIcEEEblmdSaNS0_14adl_serializerES3_IhSaIhEEvEC2ENS0_6detail7value_tE = comdat any

$_ZN8nlohmann16json_abi_v3_11_310basic_jsonISt3mapSt6vectorNSt7__cxx1112basic_stringIcSt11char_traitsIcESaIcEEEblmdSaNS0_14adl_serializerES3_IhSaIhEEvE4dataC2ENS0_6detail7value_tE = comdat any

$_ZN8nlohmann16json_abi_v3_11_310basic_jsonISt3mapSt6vectorNSt7__cxx1112basic_stringIcSt11char_traitsIcESaIcEEEblmdSaNS0_14adl_serializerES3_IhSaIhEEvE6createINS0_27byte_container_with_subtypeISC_EEJSC_EEEPT_DpOT0_ = comdat any

$_ZNSt10unique_ptrIN8nlohmann16json_abi_v3_11_327byte_container_with_subtypeISt6vectorIhSaIhEEEEZNS1_10basic_jsonISt3mapS3_NSt7__cxx1112basic_stringIcSt11char_traitsIcESaIcEEEblmdSaNS1_14adl_serializerES5_vE6createIS6_JS5_EEEPT_DpOT0_EUlPS6_E_EC2ISO_vEESN_RKSO_ = comdat any

$_ZNSt16allocator_traitsISaIN8nlohmann16json_abi_v3_11_327byte_container_with_subtypeISt6vectorIhSaIhEEEEEE9constructIS6_JS5_EEEvRS7_PT_DpOT0_ = comdat any

$_ZNKSt10unique_ptrIN8nlohmann16json_abi_v3_11_327byte_container_with_subtypeISt6vectorIhSaIhEEEEZNS1_10basic_jsonISt3mapS3_NSt7__cxx1112basic_stringIcSt11char_traitsIcESaIcEEEblmdSaNS1_14adl_serializerES5_vE6createIS6_JS5_EEEPT_DpOT0_EUlPS6_E_E3getEv = comdat any

$_ZNSt10unique_ptrIN8nlohmann16json_abi_v3_11_327byte_container_with_subtypeISt6vectorIhSaIhEEEEZNS1_10basic_jsonISt3mapS3_NSt7__cxx1112basic_stringIcSt11char_traitsIcESaIcEEEblmdSaNS1_14adl_serializerES5_vE6createIS6_JS5_EEEPT_DpOT0_EUlPS6_E_E7releaseEv = comdat any

$_ZNSt10unique_ptrIN8nlohmann16json_abi_v3_11_327byte_container_with_subtypeISt6vectorIhSaIhEEEEZNS1_10basic_jsonISt3mapS3_NSt7__cxx1112basic_stringIcSt11char_traitsIcESaIcEEEblmdSaNS1_14adl_serializerES5_vE6createIS6_JS5_EEEPT_DpOT0_EUlPS6_E_ED2Ev = comdat any

$_ZNSt15__uniq_ptr_dataIN8nlohmann16json_abi_v3_11_327byte_container_with_subtypeISt6vectorIhSaIhEEEEZNS1_10basic_jsonISt3mapS3_NSt7__cxx1112basic_stringIcSt11char_traitsIcESaIcEEEblmdSaNS1_14adl_serializerES5_vE6createIS6_JS5_EEEPT_DpOT0_EUlPS6_E_Lb1ELb0EECI2St15__uniq_ptr_implIS6_SO_EIRKSO_EESN_OSI_ = comdat any

$_ZNSt15__uniq_ptr_implIN8nlohmann16json_abi_v3_11_327byte_container_with_subtypeISt6vectorIhSaIhEEEEZNS1_10basic_jsonISt3mapS3_NSt7__cxx1112basic_stringIcSt11char_traitsIcESaIcEEEblmdSaNS1_14adl_serializerES5_vE6createIS6_JS5_EEEPT_DpOT0_EUlPS6_E_EC2IRKSO_EESN_OSI_ = comdat any

$_ZNSt5tupleIJPN8nlohmann16json_abi_v3_11_327byte_container_with_subtypeISt6vectorIhSaIhEEEEZNS1_10basic_jsonISt3mapS3_NSt7__cxx1112basic_stringIcSt11char_traitsIcESaIcEEEblmdSaNS1_14adl_serializerES5_vE6createIS6_JS5_EEEPT_DpOT0_EUlS7_E_EEC2IRS7_RKSO_TnNSt9enable_ifIXclsr4_TCCIXntcl14__is_alloc_argISJ_EEEEE29__is_implicitly_constructibleISJ_T0_EEEbE4typeELb1EEEOSJ_OSV_ = comdat any

$_ZNSt11_Tuple_implILm0EJPN8nlohmann16json_abi_v3_11_327byte_container_with_subtypeISt6vectorIhSaIhEEEEZNS1_10basic_jsonISt3mapS3_NSt7__cxx1112basic_stringIcSt11char_traitsIcESaIcEEEblmdSaNS1_14adl_serializerES5_vE6createIS6_JS5_EEEPT_DpOT0_EUlS7_E_EEC2IRS7_JRKSO_EvEEOSJ_SN_ = comdat any

$_ZNSt11_Tuple_implILm1EJZN8nlohmann16json_abi_v3_11_310basic_jsonISt3mapSt6vectorNSt7__cxx1112basic_stringIcSt11char_traitsIcESaIcEEEblmdSaNS1_14adl_serializerES4_IhSaIhEEvE6createINS1_27byte_container_with_subtypeISD_EEJSD_EEEPT_DpOT0_EUlPSH_E_EEC2ERKSO_ = comdat any

$_ZNSt10_Head_baseILm1EZN8nlohmann16json_abi_v3_11_310basic_jsonISt3mapSt6vectorNSt7__cxx1112basic_stringIcSt11char_traitsIcESaIcEEEblmdSaNS1_14adl_serializerES4_IhSaIhEEvE6createINS1_27byte_container_with_subtypeISD_EEJSD_EEEPT_DpOT0_EUlPSH_E_Lb0EEC2ERKSO_ = comdat any

$_ZNSt15__new_allocatorIN8nlohmann16json_abi_v3_11_327byte_container_with_subtypeISt6vectorIhSaIhEEEEE9constructIS6_JS5_EEEvPT_DpOT0_ = comdat any

$_ZN8nlohmann16json_abi_v3_11_327byte_container_with_subtypeISt6vectorIhSaIhEEEC2EOS4_ = comdat any

$_ZNSt6vectorIhSaIhEEC2EOS1_ = comdat any

$_ZNSt12_Vector_baseIhSaIhEEC2EOS1_ = comdat any

$_ZNSt12_Vector_baseIhSaIhEE12_Vector_implC2EOS2_ = comdat any

$_ZNSt12_Vector_baseIhSaIhEE17_Vector_impl_dataC2EOS2_ = comdat any

$_ZNKSt15__uniq_ptr_implIN8nlohmann16json_abi_v3_11_327byte_container_with_subtypeISt6vectorIhSaIhEEEEZNS1_10basic_jsonISt3mapS3_NSt7__cxx1112basic_stringIcSt11char_traitsIcESaIcEEEblmdSaNS1_14adl_serializerES5_vE6createIS6_JS5_EEEPT_DpOT0_EUlPS6_E_E6_M_ptrEv = comdat any

$_ZSt3getILm0EJPN8nlohmann16json_abi_v3_11_327byte_container_with_subtypeISt6vectorIhSaIhEEEEZNS1_10basic_jsonISt3mapS3_NSt7__cxx1112basic_stringIcSt11char_traitsIcESaIcEEEblmdSaNS1_14adl_serializerES5_vE6createIS6_JS5_EEEPT_DpOT0_EUlS7_E_EERKNSt13tuple_elementIXT_ESt5tupleIJDpSL_EEE4typeERKSS_ = comdat any

$_ZSt12__get_helperILm0EPN8nlohmann16json_abi_v3_11_327byte_container_with_subtypeISt6vectorIhSaIhEEEEJZNS1_10basic_jsonISt3mapS3_NSt7__cxx1112basic_stringIcSt11char_traitsIcESaIcEEEblmdSaNS1_14adl_serializerES5_vE6createIS6_JS5_EEEPT_DpOT0_EUlS7_E_EERKT0_RKSt11_Tuple_implIXT_EJSP_DpT1_EE = comdat any

$_ZNSt11_Tuple_implILm0EJPN8nlohmann16json_abi_v3_11_327byte_container_with_subtypeISt6vectorIhSaIhEEEEZNS1_10basic_jsonISt3mapS3_NSt7__cxx1112basic_stringIcSt11char_traitsIcESaIcEEEblmdSaNS1_14adl_serializerES5_vE6createIS6_JS5_EEEPT_DpOT0_EUlS7_E_EE7_M_headERKSP_ = comdat any

$_ZNSt15__uniq_ptr_implIN8nlohmann16json_abi_v3_11_327byte_container_with_subtypeISt6vectorIhSaIhEEEEZNS1_10basic_jsonISt3mapS3_NSt7__cxx1112basic_stringIcSt11char_traitsIcESaIcEEEblmdSaNS1_14adl_serializerES5_vE6createIS6_JS5_EEEPT_DpOT0_EUlPS6_E_E7releaseEv = comdat any

$_ZNSt15__uniq_ptr_implIN8nlohmann16json_abi_v3_11_327byte_container_with_subtypeISt6vectorIhSaIhEEEEZNS1_10basic_jsonISt3mapS3_NSt7__cxx1112basic_stringIcSt11char_traitsIcESaIcEEEblmdSaNS1_14adl_serializerES5_vE6createIS6_JS5_EEEPT_DpOT0_EUlPS6_E_E6_M_ptrEv = comdat any

$_ZSt3getILm0EJPN8nlohmann16json_abi_v3_11_327byte_container_with_subtypeISt6vectorIhSaIhEEEEZNS1_10basic_jsonISt3mapS3_NSt7__cxx1112basic_stringIcSt11char_traitsIcESaIcEEEblmdSaNS1_14adl_serializerES5_vE6createIS6_JS5_EEEPT_DpOT0_EUlS7_E_EERNSt13tuple_elementIXT_ESt5tupleIJDpSL_EEE4typeERSS_ = comdat any

$_ZSt12__get_helperILm0EPN8nlohmann16json_abi_v3_11_327byte_container_with_subtypeISt6vectorIhSaIhEEEEJZNS1_10basic_jsonISt3mapS3_NSt7__cxx1112basic_stringIcSt11char_traitsIcESaIcEEEblmdSaNS1_14adl_serializerES5_vE6createIS6_JS5_EEEPT_DpOT0_EUlS7_E_EERT0_RSt11_Tuple_implIXT_EJSP_DpT1_EE = comdat any

$_ZNSt11_Tuple_implILm0EJPN8nlohmann16json_abi_v3_11_327byte_container_with_subtypeISt6vectorIhSaIhEEEEZNS1_10basic_jsonISt3mapS3_NSt7__cxx1112basic_stringIcSt11char_traitsIcESaIcEEEblmdSaNS1_14adl_serializerES5_vE6createIS6_JS5_EEEPT_DpOT0_EUlS7_E_EE7_M_headERSP_ = comdat any

$_ZNSt10unique_ptrIN8nlohmann16json_abi_v3_11_327byte_container_with_subtypeISt6vectorIhSaIhEEEEZNS1_10basic_jsonISt3mapS3_NSt7__cxx1112basic_stringIcSt11char_traitsIcESaIcEEEblmdSaNS1_14adl_serializerES5_vE6createIS6_JS5_EEEPT_DpOT0_EUlPS6_E_E11get_deleterEv = comdat any

$_ZZN8nlohmann16json_abi_v3_11_310basic_jsonISt3mapSt6vectorNSt7__cxx1112basic_stringIcSt11char_traitsIcESaIcEEEblmdSaNS0_14adl_serializerES3_IhSaIhEEvE6createINS0_27byte_container_with_subtypeISC_EEJSC_EEEPT_DpOT0_ENKUlPSG_E_clESM_ = comdat any

$_ZNSt15__uniq_ptr_implIN8nlohmann16json_abi_v3_11_327byte_container_with_subtypeISt6vectorIhSaIhEEEEZNS1_10basic_jsonISt3mapS3_NSt7__cxx1112basic_stringIcSt11char_traitsIcESaIcEEEblmdSaNS1_14adl_serializerES5_vE6createIS6_JS5_EEEPT_DpOT0_EUlPS6_E_E10_M_deleterEv = comdat any

$_ZSt3getILm1EJPN8nlohmann16json_abi_v3_11_327byte_container_with_subtypeISt6vectorIhSaIhEEEEZNS1_10basic_jsonISt3mapS3_NSt7__cxx1112basic_stringIcSt11char_traitsIcESaIcEEEblmdSaNS1_14adl_serializerES5_vE6createIS6_JS5_EEEPT_DpOT0_EUlS7_E_EERNSt13tuple_elementIXT_ESt5tupleIJDpSL_EEE4typeERSS_ = comdat any

$_ZSt12__get_helperILm1EZN8nlohmann16json_abi_v3_11_310basic_jsonISt3mapSt6vectorNSt7__cxx1112basic_stringIcSt11char_traitsIcESaIcEEEblmdSaNS1_14adl_serializerES4_IhSaIhEEvE6createINS1_27byte_container_with_subtypeISD_EEJSD_EEEPT_DpOT0_EUlPSH_E_JEERT0_RSt11_Tuple_implIXT_EJSP_DpT1_EE = comdat any

$_ZNSt11_Tuple_implILm1EJZN8nlohmann16json_abi_v3_11_310basic_jsonISt3mapSt6vectorNSt7__cxx1112basic_stringIcSt11char_traitsIcESaIcEEEblmdSaNS1_14adl_serializerES4_IhSaIhEEvE6createINS1_27byte_container_with_subtypeISD_EEJSD_EEEPT_DpOT0_EUlPSH_E_EE7_M_headERSP_ = comdat any

$_ZNSt10_Head_baseILm1EZN8nlohmann16json_abi_v3_11_310basic_jsonISt3mapSt6vectorNSt7__cxx1112basic_stringIcSt11char_traitsIcESaIcEEEblmdSaNS1_14adl_serializerES4_IhSaIhEEvE6createINS1_27byte_container_with_subtypeISD_EEJSD_EEEPT_DpOT0_EUlPSH_E_Lb0EE7_M_headERSP_ = comdat any

$_ZNSt12_Vector_baseIhSaIhEEC2ERKS0_ = comdat any

$_ZNSt6vectorIhSaIhEE19_M_range_initializeIPKhEEvT_S5_St20forward_iterator_tag = comdat any

$_ZNKSt16initializer_listIhE5beginEv = comdat any

$_ZNKSt16initializer_listIhE3endEv = comdat any

$_ZSt8distanceIPKhENSt15iterator_traitsIT_E15difference_typeES3_S3_ = comdat any

$_ZNSt6vectorIhSaIhEE17_S_check_init_lenEmRKS0_ = comdat any

$_ZSt22__uninitialized_copy_aIPKhPhhET0_T_S4_S3_RSaIT1_E = comdat any

$_ZSt10__distanceIPKhENSt15iterator_traitsIT_E15difference_typeES3_S3_St26random_access_iterator_tag = comdat any

$_ZSt19__iterator_categoryIPKhENSt15iterator_traitsIT_E17iterator_categoryERKS3_ = comdat any

$_ZNSt6vectorIhSaIhEE11_S_max_sizeERKS0_ = comdat any

$_ZNSt16allocator_traitsISaIhEE8max_sizeERKS0_ = comdat any

$_ZNKSt15__new_allocatorIhE8max_sizeEv = comdat any

$_ZSt18uninitialized_copyIPKhPhET0_T_S4_S3_ = comdat any

$_ZNSt20__uninitialized_copyILb1EE13__uninit_copyIPKhPhEET0_T_S6_S5_ = comdat any

$_ZSt4copyIPKhPhET0_T_S4_S3_ = comdat any

$_ZSt13__copy_move_aILb0EPKhPhET1_T0_S4_S3_ = comdat any

$_ZSt12__miter_baseIPKhET_S2_ = comdat any

$_ZSt12__niter_baseIPKhET_S2_ = comdat any

$_ZNKSt16initializer_listIhE4sizeEv = comdat any

$_ZN8nlohmann16json_abi_v3_11_327byte_container_with_subtypeISt6vectorIhSaIhEEEC2EOS4_m = comdat any

$_ZN8nlohmann16json_abi_v3_11_310basic_jsonISt3mapSt6vectorNSt7__cxx1112basic_stringIcSt11char_traitsIcESaIcEEEblmdSaNS0_14adl_serializerES3_IhSaIhEEvE10json_valueC2EONS0_27byte_container_with_subtypeISC_EE = comdat any

$_ZN8nlohmann16json_abi_v3_11_310basic_jsonISt3mapSt6vectorNSt7__cxx1112basic_stringIcSt11char_traitsIcESaIcEEEblmdSaNS0_14adl_serializerES3_IhSaIhEEvE6createINS0_27byte_container_with_subtypeISC_EEJSG_EEEPT_DpOT0_ = comdat any

$_ZNSt10unique_ptrIN8nlohmann16json_abi_v3_11_327byte_container_with_subtypeISt6vectorIhSaIhEEEEZNS1_10basic_jsonISt3mapS3_NSt7__cxx1112basic_stringIcSt11char_traitsIcESaIcEEEblmdSaNS1_14adl_serializerES5_vE6createIS6_JS6_EEEPT_DpOT0_EUlPS6_E_EC2ISO_vEESN_RKSO_ = comdat any

$_ZNSt16allocator_traitsISaIN8nlohmann16json_abi_v3_11_327byte_container_with_subtypeISt6vectorIhSaIhEEEEEE9constructIS6_JS6_EEEvRS7_PT_DpOT0_ = comdat any

$_ZNKSt10unique_ptrIN8nlohmann16json_abi_v3_11_327byte_container_with_subtypeISt6vectorIhSaIhEEEEZNS1_10basic_jsonISt3mapS3_NSt7__cxx1112basic_stringIcSt11char_traitsIcESaIcEEEblmdSaNS1_14adl_serializerES5_vE6createIS6_JS6_EEEPT_DpOT0_EUlPS6_E_E3getEv = comdat any

$_ZNSt10unique_ptrIN8nlohmann16json_abi_v3_11_327byte_container_with_subtypeISt6vectorIhSaIhEEEEZNS1_10basic_jsonISt3mapS3_NSt7__cxx1112basic_stringIcSt11char_traitsIcESaIcEEEblmdSaNS1_14adl_serializerES5_vE6createIS6_JS6_EEEPT_DpOT0_EUlPS6_E_E7releaseEv = comdat any

$_ZNSt10unique_ptrIN8nlohmann16json_abi_v3_11_327byte_container_with_subtypeISt6vectorIhSaIhEEEEZNS1_10basic_jsonISt3mapS3_NSt7__cxx1112basic_stringIcSt11char_traitsIcESaIcEEEblmdSaNS1_14adl_serializerES5_vE6createIS6_JS6_EEEPT_DpOT0_EUlPS6_E_ED2Ev = comdat any

$_ZNSt15__uniq_ptr_dataIN8nlohmann16json_abi_v3_11_327byte_container_with_subtypeISt6vectorIhSaIhEEEEZNS1_10basic_jsonISt3mapS3_NSt7__cxx1112basic_stringIcSt11char_traitsIcESaIcEEEblmdSaNS1_14adl_serializerES5_vE6createIS6_JS6_EEEPT_DpOT0_EUlPS6_E_Lb1ELb0EECI2St15__uniq_ptr_implIS6_SO_EIRKSO_EESN_OSI_ = comdat any

$_ZNSt15__uniq_ptr_implIN8nlohmann16json_abi_v3_11_327byte_container_with_subtypeISt6vectorIhSaIhEEEEZNS1_10basic_jsonISt3mapS3_NSt7__cxx1112basic_stringIcSt11char_traitsIcESaIcEEEblmdSaNS1_14adl_serializerES5_vE6createIS6_JS6_EEEPT_DpOT0_EUlPS6_E_EC2IRKSO_EESN_OSI_ = comdat any

$_ZNSt5tupleIJPN8nlohmann16json_abi_v3_11_327byte_container_with_subtypeISt6vectorIhSaIhEEEEZNS1_10basic_jsonISt3mapS3_NSt7__cxx1112basic_stringIcSt11char_traitsIcESaIcEEEblmdSaNS1_14adl_serializerES5_vE6createIS6_JS6_EEEPT_DpOT0_EUlS7_E_EEC2IRS7_RKSO_TnNSt9enable_ifIXclsr4_TCCIXntcl14__is_alloc_argISJ_EEEEE29__is_implicitly_constructibleISJ_T0_EEEbE4typeELb1EEEOSJ_OSV_ = comdat any

$_ZNSt11_Tuple_implILm0EJPN8nlohmann16json_abi_v3_11_327byte_container_with_subtypeISt6vectorIhSaIhEEEEZNS1_10basic_jsonISt3mapS3_NSt7__cxx1112basic_stringIcSt11char_traitsIcESaIcEEEblmdSaNS1_14adl_serializerES5_vE6createIS6_JS6_EEEPT_DpOT0_EUlS7_E_EEC2IRS7_JRKSO_EvEEOSJ_SN_ = comdat any

$_ZNSt11_Tuple_implILm1EJZN8nlohmann16json_abi_v3_11_310basic_jsonISt3mapSt6vectorNSt7__cxx1112basic_stringIcSt11char_traitsIcESaIcEEEblmdSaNS1_14adl_serializerES4_IhSaIhEEvE6createINS1_27byte_container_with_subtypeISD_EEJSH_EEEPT_DpOT0_EUlPSH_E_EEC2ERKSO_ = comdat any

$_ZNSt10_Head_baseILm1EZN8nlohmann16json_abi_v3_11_310basic_jsonISt3mapSt6vectorNSt7__cxx1112basic_stringIcSt11char_traitsIcESaIcEEEblmdSaNS1_14adl_serializerES4_IhSaIhEEvE6createINS1_27byte_container_with_subtypeISD_EEJSH_EEEPT_DpOT0_EUlPSH_E_Lb0EEC2ERKSO_ = comdat any

$_ZNSt15__new_allocatorIN8nlohmann16json_abi_v3_11_327byte_container_with_subtypeISt6vectorIhSaIhEEEEE9constructIS6_JS6_EEEvPT_DpOT0_ = comdat any

$_ZN8nlohmann16json_abi_v3_11_327byte_container_with_subtypeISt6vectorIhSaIhEEEC2EOS5_ = comdat any

$_ZNKSt15__uniq_ptr_implIN8nlohmann16json_abi_v3_11_327byte_container_with_subtypeISt6vectorIhSaIhEEEEZNS1_10basic_jsonISt3mapS3_NSt7__cxx1112basic_stringIcSt11char_traitsIcESaIcEEEblmdSaNS1_14adl_serializerES5_vE6createIS6_JS6_EEEPT_DpOT0_EUlPS6_E_E6_M_ptrEv = comdat any

$_ZSt3getILm0EJPN8nlohmann16json_abi_v3_11_327byte_container_with_subtypeISt6vectorIhSaIhEEEEZNS1_10basic_jsonISt3mapS3_NSt7__cxx1112basic_stringIcSt11char_traitsIcESaIcEEEblmdSaNS1_14adl_serializerES5_vE6createIS6_JS6_EEEPT_DpOT0_EUlS7_E_EERKNSt13tuple_elementIXT_ESt5tupleIJDpSL_EEE4typeERKSS_ = comdat any

$_ZSt12__get_helperILm0EPN8nlohmann16json_abi_v3_11_327byte_container_with_subtypeISt6vectorIhSaIhEEEEJZNS1_10basic_jsonISt3mapS3_NSt7__cxx1112basic_stringIcSt11char_traitsIcESaIcEEEblmdSaNS1_14adl_serializerES5_vE6createIS6_JS6_EEEPT_DpOT0_EUlS7_E_EERKT0_RKSt11_Tuple_implIXT_EJSP_DpT1_EE = comdat any

$_ZNSt11_Tuple_implILm0EJPN8nlohmann16json_abi_v3_11_327byte_container_with_subtypeISt6vectorIhSaIhEEEEZNS1_10basic_jsonISt3mapS3_NSt7__cxx1112basic_stringIcSt11char_traitsIcESaIcEEEblmdSaNS1_14adl_serializerES5_vE6createIS6_JS6_EEEPT_DpOT0_EUlS7_E_EE7_M_headERKSP_ = comdat any

$_ZNSt15__uniq_ptr_implIN8nlohmann16json_abi_v3_11_327byte_container_with_subtypeISt6vectorIhSaIhEEEEZNS1_10basic_jsonISt3mapS3_NSt7__cxx1112basic_stringIcSt11char_traitsIcESaIcEEEblmdSaNS1_14adl_serializerES5_vE6createIS6_JS6_EEEPT_DpOT0_EUlPS6_E_E7releaseEv = comdat any

$_ZNSt15__uniq_ptr_implIN8nlohmann16json_abi_v3_11_327byte_container_with_subtypeISt6vectorIhSaIhEEEEZNS1_10basic_jsonISt3mapS3_NSt7__cxx1112basic_stringIcSt11char_traitsIcESaIcEEEblmdSaNS1_14adl_serializerES5_vE6createIS6_JS6_EEEPT_DpOT0_EUlPS6_E_E6_M_ptrEv = comdat any

$_ZSt3getILm0EJPN8nlohmann16json_abi_v3_11_327byte_container_with_subtypeISt6vectorIhSaIhEEEEZNS1_10basic_jsonISt3mapS3_NSt7__cxx1112basic_stringIcSt11char_traitsIcESaIcEEEblmdSaNS1_14adl_serializerES5_vE6createIS6_JS6_EEEPT_DpOT0_EUlS7_E_EERNSt13tuple_elementIXT_ESt5tupleIJDpSL_EEE4typeERSS_ = comdat any

$_ZSt12__get_helperILm0EPN8nlohmann16json_abi_v3_11_327byte_container_with_subtypeISt6vectorIhSaIhEEEEJZNS1_10basic_jsonISt3mapS3_NSt7__cxx1112basic_stringIcSt11char_traitsIcESaIcEEEblmdSaNS1_14adl_serializerES5_vE6createIS6_JS6_EEEPT_DpOT0_EUlS7_E_EERT0_RSt11_Tuple_implIXT_EJSP_DpT1_EE = comdat any

$_ZNSt11_Tuple_implILm0EJPN8nlohmann16json_abi_v3_11_327byte_container_with_subtypeISt6vectorIhSaIhEEEEZNS1_10basic_jsonISt3mapS3_NSt7__cxx1112basic_stringIcSt11char_traitsIcESaIcEEEblmdSaNS1_14adl_serializerES5_vE6createIS6_JS6_EEEPT_DpOT0_EUlS7_E_EE7_M_headERSP_ = comdat any

$_ZNSt10unique_ptrIN8nlohmann16json_abi_v3_11_327byte_container_with_subtypeISt6vectorIhSaIhEEEEZNS1_10basic_jsonISt3mapS3_NSt7__cxx1112basic_stringIcSt11char_traitsIcESaIcEEEblmdSaNS1_14adl_serializerES5_vE6createIS6_JS6_EEEPT_DpOT0_EUlPS6_E_E11get_deleterEv = comdat any

$_ZZN8nlohmann16json_abi_v3_11_310basic_jsonISt3mapSt6vectorNSt7__cxx1112basic_stringIcSt11char_traitsIcESaIcEEEblmdSaNS0_14adl_serializerES3_IhSaIhEEvE6createINS0_27byte_container_with_subtypeISC_EEJSG_EEEPT_DpOT0_ENKUlPSG_E_clESM_ = comdat any

$_ZNSt15__uniq_ptr_implIN8nlohmann16json_abi_v3_11_327byte_container_with_subtypeISt6vectorIhSaIhEEEEZNS1_10basic_jsonISt3mapS3_NSt7__cxx1112basic_stringIcSt11char_traitsIcESaIcEEEblmdSaNS1_14adl_serializerES5_vE6createIS6_JS6_EEEPT_DpOT0_EUlPS6_E_E10_M_deleterEv = comdat any

$_ZSt3getILm1EJPN8nlohmann16json_abi_v3_11_327byte_container_with_subtypeISt6vectorIhSaIhEEEEZNS1_10basic_jsonISt3mapS3_NSt7__cxx1112basic_stringIcSt11char_traitsIcESaIcEEEblmdSaNS1_14adl_serializerES5_vE6createIS6_JS6_EEEPT_DpOT0_EUlS7_E_EERNSt13tuple_elementIXT_ESt5tupleIJDpSL_EEE4typeERSS_ = comdat any

$_ZSt12__get_helperILm1EZN8nlohmann16json_abi_v3_11_310basic_jsonISt3mapSt6vectorNSt7__cxx1112basic_stringIcSt11char_traitsIcESaIcEEEblmdSaNS1_14adl_serializerES4_IhSaIhEEvE6createINS1_27byte_container_with_subtypeISD_EEJSH_EEEPT_DpOT0_EUlPSH_E_JEERT0_RSt11_Tuple_implIXT_EJSP_DpT1_EE = comdat any

$_ZNSt11_Tuple_implILm1EJZN8nlohmann16json_abi_v3_11_310basic_jsonISt3mapSt6vectorNSt7__cxx1112basic_stringIcSt11char_traitsIcESaIcEEEblmdSaNS1_14adl_serializerES4_IhSaIhEEvE6createINS1_27byte_container_with_subtypeISD_EEJSH_EEEPT_DpOT0_EUlPSH_E_EE7_M_headERSP_ = comdat any

$_ZNSt10_Head_baseILm1EZN8nlohmann16json_abi_v3_11_310basic_jsonISt3mapSt6vectorNSt7__cxx1112basic_stringIcSt11char_traitsIcESaIcEEEblmdSaNS1_14adl_serializerES4_IhSaIhEEvE6createINS1_27byte_container_with_subtypeISD_EEJSH_EEEPT_DpOT0_EUlPSH_E_Lb0EE7_M_headERSP_ = comdat any

$_ZN7doctest6detail7forwardIRA35_KcEEOT_RNS0_5types16remove_referenceIS5_E4typeE = comdat any

$_ZN7doctest6detail19stringifyBinaryExprINSt7__cxx1112basic_stringIcSt11char_traitsIcESaIcEEEA35_cEENS_6StringERKT_PKcRKT0_ = comdat any

$_ZN7doctest8toStringIA35_cTnNS_6detail5types9enable_ifIXntsr6detail35should_stringify_as_underlying_typeIT_EE5valueEbE4typeELb1EEENS_6StringERKS5_ = comdat any

$_ZN7doctest6detail15StringMakerBaseILb1EE7convertIA35_cEENS_6StringERKT_ = comdat any

$_ZN7doctest6detail8toStreamIA35_cEENS_6StringERKT_ = comdat any

$_ZN7doctest6detail7fillossIcLm35EEEvPSoRAT0__KT_ = comdat any

$_ZN7doctest6detail7fillossIA35_KcEEvPSoRKT_ = comdat any

$_ZN7doctest6detail8filldataIA35_KcE4fillEPSoRS3_ = comdat any

$_ZN7doctest6detail7forwardIRA28_KcEEOT_RNS0_5types16remove_referenceIS5_E4typeE = comdat any

$_ZN7doctest6detail19stringifyBinaryExprINSt7__cxx1112basic_stringIcSt11char_traitsIcESaIcEEEA28_cEENS_6StringERKT_PKcRKT0_ = comdat any

$_ZN7doctest8toStringIA28_cTnNS_6detail5types9enable_ifIXntsr6detail35should_stringify_as_underlying_typeIT_EE5valueEbE4typeELb1EEENS_6StringERKS5_ = comdat any

$_ZN7doctest6detail15StringMakerBaseILb1EE7convertIA28_cEENS_6StringERKT_ = comdat any

$_ZN7doctest6detail8toStreamIA28_cEENS_6StringERKT_ = comdat any

$_ZN7doctest6detail7fillossIcLm28EEEvPSoRAT0__KT_ = comdat any

$_ZN7doctest6detail7fillossIA28_KcEEvPSoRKT_ = comdat any

$_ZN7doctest6detail8filldataIA28_KcE4fillEPSoRS3_ = comdat any

$_ZN7doctest6detail7forwardIRA34_KcEEOT_RNS0_5types16remove_referenceIS5_E4typeE = comdat any

$_ZN7doctest6detail19stringifyBinaryExprINSt7__cxx1112basic_stringIcSt11char_traitsIcESaIcEEEA34_cEENS_6StringERKT_PKcRKT0_ = comdat any

$_ZN7doctest8toStringIA34_cTnNS_6detail5types9enable_ifIXntsr6detail35should_stringify_as_underlying_typeIT_EE5valueEbE4typeELb1EEENS_6StringERKS5_ = comdat any

$_ZN7doctest6detail15StringMakerBaseILb1EE7convertIA34_cEENS_6StringERKT_ = comdat any

$_ZN7doctest6detail8toStreamIA34_cEENS_6StringERKT_ = comdat any

$_ZN7doctest6detail7fillossIcLm34EEEvPSoRAT0__KT_ = comdat any

$_ZN7doctest6detail7fillossIA34_KcEEvPSoRKT_ = comdat any

$_ZN7doctest6detail8filldataIA34_KcE4fillEPSoRS3_ = comdat any

$_ZN7doctest6detail7forwardIRA27_KcEEOT_RNS0_5types16remove_referenceIS5_E4typeE = comdat any

$_ZN7doctest6detail19stringifyBinaryExprINSt7__cxx1112basic_stringIcSt11char_traitsIcESaIcEEEA27_cEENS_6StringERKT_PKcRKT0_ = comdat any

$_ZN7doctest8toStringIA27_cTnNS_6detail5types9enable_ifIXntsr6detail35should_stringify_as_underlying_typeIT_EE5valueEbE4typeELb1EEENS_6StringERKS5_ = comdat any

$_ZN7doctest6detail15StringMakerBaseILb1EE7convertIA27_cEENS_6StringERKT_ = comdat any

$_ZN7doctest6detail8toStreamIA27_cEENS_6StringERKT_ = comdat any

$_ZN7doctest6detail7fillossIcLm27EEEvPSoRAT0__KT_ = comdat any

$_ZN7doctest6detail7fillossIA27_KcEEvPSoRKT_ = comdat any

$_ZN7doctest6detail8filldataIA27_KcE4fillEPSoRS3_ = comdat any

$_ZN7doctest6detail7forwardIRA43_KcEEOT_RNS0_5types16remove_referenceIS5_E4typeE = comdat any

$_ZN7doctest6detail19stringifyBinaryExprINSt7__cxx1112basic_stringIcSt11char_traitsIcESaIcEEEA43_cEENS_6StringERKT_PKcRKT0_ = comdat any

$_ZN7doctest8toStringIA43_cTnNS_6detail5types9enable_ifIXntsr6detail35should_stringify_as_underlying_typeIT_EE5valueEbE4typeELb1EEENS_6StringERKS5_ = comdat any

$_ZN7doctest6detail15StringMakerBaseILb1EE7convertIA43_cEENS_6StringERKT_ = comdat any

$_ZN7doctest6detail8toStreamIA43_cEENS_6StringERKT_ = comdat any

$_ZN7doctest6detail7fillossIcLm43EEEvPSoRAT0__KT_ = comdat any

$_ZN7doctest6detail7fillossIA43_KcEEvPSoRKT_ = comdat any

$_ZN7doctest6detail8filldataIA43_KcE4fillEPSoRS3_ = comdat any

$_ZN7doctest6detail7forwardIRA36_KcEEOT_RNS0_5types16remove_referenceIS5_E4typeE = comdat any

$_ZN7doctest6detail19stringifyBinaryExprINSt7__cxx1112basic_stringIcSt11char_traitsIcESaIcEEEA36_cEENS_6StringERKT_PKcRKT0_ = comdat any

$_ZN7doctest8toStringIA36_cTnNS_6detail5types9enable_ifIXntsr6detail35should_stringify_as_underlying_typeIT_EE5valueEbE4typeELb1EEENS_6StringERKS5_ = comdat any

$_ZN7doctest6detail15StringMakerBaseILb1EE7convertIA36_cEENS_6StringERKT_ = comdat any

$_ZN7doctest6detail8toStreamIA36_cEENS_6StringERKT_ = comdat any

$_ZN7doctest6detail7fillossIcLm36EEEvPSoRAT0__KT_ = comdat any

$_ZN7doctest6detail7fillossIA36_KcEEvPSoRKT_ = comdat any

$_ZN7doctest6detail8filldataIA36_KcE4fillEPSoRS3_ = comdat any

$_ZN7doctest6detail7forwardIRA42_KcEEOT_RNS0_5types16remove_referenceIS5_E4typeE = comdat any

$_ZN7doctest6detail19stringifyBinaryExprINSt7__cxx1112basic_stringIcSt11char_traitsIcESaIcEEEA42_cEENS_6StringERKT_PKcRKT0_ = comdat any

$_ZN7doctest8toStringIA42_cTnNS_6detail5types9enable_ifIXntsr6detail35should_stringify_as_underlying_typeIT_EE5valueEbE4typeELb1EEENS_6StringERKS5_ = comdat any

$_ZN7doctest6detail15StringMakerBaseILb1EE7convertIA42_cEENS_6StringERKT_ = comdat any

$_ZN7doctest6detail8toStreamIA42_cEENS_6StringERKT_ = comdat any

$_ZN7doctest6detail7fillossIcLm42EEEvPSoRAT0__KT_ = comdat any

$_ZN7doctest6detail7fillossIA42_KcEEvPSoRKT_ = comdat any

$_ZN7doctest6detail8filldataIA42_KcE4fillEPSoRS3_ = comdat any

$_ZN7doctest6detail7forwardIRA47_KcEEOT_RNS0_5types16remove_referenceIS5_E4typeE = comdat any

$_ZN7doctest6detail19stringifyBinaryExprINSt7__cxx1112basic_stringIcSt11char_traitsIcESaIcEEEA47_cEENS_6StringERKT_PKcRKT0_ = comdat any

$_ZN7doctest8toStringIA47_cTnNS_6detail5types9enable_ifIXntsr6detail35should_stringify_as_underlying_typeIT_EE5valueEbE4typeELb1EEENS_6StringERKS5_ = comdat any

$_ZN7doctest6detail15StringMakerBaseILb1EE7convertIA47_cEENS_6StringERKT_ = comdat any

$_ZN7doctest6detail8toStreamIA47_cEENS_6StringERKT_ = comdat any

$_ZN7doctest6detail7fillossIcLm47EEEvPSoRAT0__KT_ = comdat any

$_ZN7doctest6detail7fillossIA47_KcEEvPSoRKT_ = comdat any

$_ZN7doctest6detail8filldataIA47_KcE4fillEPSoRS3_ = comdat any

$_ZN7doctest6detail7forwardIRA40_KcEEOT_RNS0_5types16remove_referenceIS5_E4typeE = comdat any

$_ZN7doctest6detail19stringifyBinaryExprINSt7__cxx1112basic_stringIcSt11char_traitsIcESaIcEEEA40_cEENS_6StringERKT_PKcRKT0_ = comdat any

$_ZN7doctest8toStringIA40_cTnNS_6detail5types9enable_ifIXntsr6detail35should_stringify_as_underlying_typeIT_EE5valueEbE4typeELb1EEENS_6StringERKS5_ = comdat any

$_ZN7doctest6detail15StringMakerBaseILb1EE7convertIA40_cEENS_6StringERKT_ = comdat any

$_ZN7doctest6detail8toStreamIA40_cEENS_6StringERKT_ = comdat any

$_ZN7doctest6detail7fillossIcLm40EEEvPSoRAT0__KT_ = comdat any

$_ZN7doctest6detail7fillossIA40_KcEEvPSoRKT_ = comdat any

$_ZN7doctest6detail8filldataIA40_KcE4fillEPSoRS3_ = comdat any

$_ZN7doctest6detail7forwardIRA46_KcEEOT_RNS0_5types16remove_referenceIS5_E4typeE = comdat any

$_ZN7doctest6detail19stringifyBinaryExprINSt7__cxx1112basic_stringIcSt11char_traitsIcESaIcEEEA46_cEENS_6StringERKT_PKcRKT0_ = comdat any

$_ZN7doctest8toStringIA46_cTnNS_6detail5types9enable_ifIXntsr6detail35should_stringify_as_underlying_typeIT_EE5valueEbE4typeELb1EEENS_6StringERKS5_ = comdat any

$_ZN7doctest6detail15StringMakerBaseILb1EE7convertIA46_cEENS_6StringERKT_ = comdat any

$_ZN7doctest6detail8toStreamIA46_cEENS_6StringERKT_ = comdat any

$_ZN7doctest6detail7fillossIcLm46EEEvPSoRAT0__KT_ = comdat any

$_ZN7doctest6detail7fillossIA46_KcEEvPSoRKT_ = comdat any

$_ZN7doctest6detail8filldataIA46_KcE4fillEPSoRS3_ = comdat any

$_ZN7doctest6detail7forwardIRA39_KcEEOT_RNS0_5types16remove_referenceIS5_E4typeE = comdat any

$_ZN7doctest6detail19stringifyBinaryExprINSt7__cxx1112basic_stringIcSt11char_traitsIcESaIcEEEA39_cEENS_6StringERKT_PKcRKT0_ = comdat any

$_ZN7doctest8toStringIA39_cTnNS_6detail5types9enable_ifIXntsr6detail35should_stringify_as_underlying_typeIT_EE5valueEbE4typeELb1EEENS_6StringERKS5_ = comdat any

$_ZN7doctest6detail15StringMakerBaseILb1EE7convertIA39_cEENS_6StringERKT_ = comdat any

$_ZN7doctest6detail8toStreamIA39_cEENS_6StringERKT_ = comdat any

$_ZN7doctest6detail7fillossIcLm39EEEvPSoRAT0__KT_ = comdat any

$_ZN7doctest6detail7fillossIA39_KcEEvPSoRKT_ = comdat any

$_ZN7doctest6detail8filldataIA39_KcE4fillEPSoRS3_ = comdat any

$_ZN7doctest6detail7forwardIRA51_KcEEOT_RNS0_5types16remove_referenceIS5_E4typeE = comdat any

$_ZN7doctest6detail19stringifyBinaryExprINSt7__cxx1112basic_stringIcSt11char_traitsIcESaIcEEEA51_cEENS_6StringERKT_PKcRKT0_ = comdat any

$_ZN7doctest8toStringIA51_cTnNS_6detail5types9enable_ifIXntsr6detail35should_stringify_as_underlying_typeIT_EE5valueEbE4typeELb1EEENS_6StringERKS5_ = comdat any

$_ZN7doctest6detail15StringMakerBaseILb1EE7convertIA51_cEENS_6StringERKT_ = comdat any

$_ZN7doctest6detail8toStreamIA51_cEENS_6StringERKT_ = comdat any

$_ZN7doctest6detail7fillossIcLm51EEEvPSoRAT0__KT_ = comdat any

$_ZN7doctest6detail7fillossIA51_KcEEvPSoRKT_ = comdat any

$_ZN7doctest6detail8filldataIA51_KcE4fillEPSoRS3_ = comdat any

$_ZN7doctest6detail7forwardIRA41_KcEEOT_RNS0_5types16remove_referenceIS5_E4typeE = comdat any

$_ZN7doctest6detail19stringifyBinaryExprINSt7__cxx1112basic_stringIcSt11char_traitsIcESaIcEEEA41_cEENS_6StringERKT_PKcRKT0_ = comdat any

$_ZN7doctest8toStringIA41_cTnNS_6detail5types9enable_ifIXntsr6detail35should_stringify_as_underlying_typeIT_EE5valueEbE4typeELb1EEENS_6StringERKS5_ = comdat any

$_ZN7doctest6detail15StringMakerBaseILb1EE7convertIA41_cEENS_6StringERKT_ = comdat any

$_ZN7doctest6detail8toStreamIA41_cEENS_6StringERKT_ = comdat any

$_ZN7doctest6detail7fillossIcLm41EEEvPSoRAT0__KT_ = comdat any

$_ZN7doctest6detail7fillossIA41_KcEEvPSoRKT_ = comdat any

$_ZN7doctest6detail8filldataIA41_KcE4fillEPSoRS3_ = comdat any

$_ZN7doctest6detail7forwardIRA50_KcEEOT_RNS0_5types16remove_referenceIS5_E4typeE = comdat any

$_ZN7doctest6detail19stringifyBinaryExprINSt7__cxx1112basic_stringIcSt11char_traitsIcESaIcEEEA50_cEENS_6StringERKT_PKcRKT0_ = comdat any

$_ZN7doctest8toStringIA50_cTnNS_6detail5types9enable_ifIXntsr6detail35should_stringify_as_underlying_typeIT_EE5valueEbE4typeELb1EEENS_6StringERKS5_ = comdat any

$_ZN7doctest6detail15StringMakerBaseILb1EE7convertIA50_cEENS_6StringERKT_ = comdat any

$_ZN7doctest6detail8toStreamIA50_cEENS_6StringERKT_ = comdat any

$_ZN7doctest6detail7fillossIcLm50EEEvPSoRAT0__KT_ = comdat any

$_ZN7doctest6detail7fillossIA50_KcEEvPSoRKT_ = comdat any

$_ZN7doctest6detail8filldataIA50_KcE4fillEPSoRS3_ = comdat any

$_ZN7doctest6detail7forwardIRA78_KcEEOT_RNS0_5types16remove_referenceIS5_E4typeE = comdat any

$_ZN7doctest6detail19stringifyBinaryExprINSt7__cxx1112basic_stringIcSt11char_traitsIcESaIcEEEA78_cEENS_6StringERKT_PKcRKT0_ = comdat any

$_ZN7doctest8toStringIA78_cTnNS_6detail5types9enable_ifIXntsr6detail35should_stringify_as_underlying_typeIT_EE5valueEbE4typeELb1EEENS_6StringERKS5_ = comdat any

$_ZN7doctest6detail15StringMakerBaseILb1EE7convertIA78_cEENS_6StringERKT_ = comdat any

$_ZN7doctest6detail8toStreamIA78_cEENS_6StringERKT_ = comdat any

$_ZN7doctest6detail7fillossIcLm78EEEvPSoRAT0__KT_ = comdat any

$_ZN7doctest6detail7fillossIA78_KcEEvPSoRKT_ = comdat any

$_ZN7doctest6detail8filldataIA78_KcE4fillEPSoRS3_ = comdat any

$_ZN7doctest6detail7forwardIRA68_KcEEOT_RNS0_5types16remove_referenceIS5_E4typeE = comdat any

$_ZN7doctest6detail19stringifyBinaryExprINSt7__cxx1112basic_stringIcSt11char_traitsIcESaIcEEEA68_cEENS_6StringERKT_PKcRKT0_ = comdat any

$_ZN7doctest8toStringIA68_cTnNS_6detail5types9enable_ifIXntsr6detail35should_stringify_as_underlying_typeIT_EE5valueEbE4typeELb1EEENS_6StringERKS5_ = comdat any

$_ZN7doctest6detail15StringMakerBaseILb1EE7convertIA68_cEENS_6StringERKT_ = comdat any

$_ZN7doctest6detail8toStreamIA68_cEENS_6StringERKT_ = comdat any

$_ZN7doctest6detail7fillossIcLm68EEEvPSoRAT0__KT_ = comdat any

$_ZN7doctest6detail7fillossIA68_KcEEvPSoRKT_ = comdat any

$_ZN7doctest6detail8filldataIA68_KcE4fillEPSoRS3_ = comdat any

$_ZN7doctest6detail7forwardIRA77_KcEEOT_RNS0_5types16remove_referenceIS5_E4typeE = comdat any

$_ZN7doctest6detail19stringifyBinaryExprINSt7__cxx1112basic_stringIcSt11char_traitsIcESaIcEEEA77_cEENS_6StringERKT_PKcRKT0_ = comdat any

$_ZN7doctest8toStringIA77_cTnNS_6detail5types9enable_ifIXntsr6detail35should_stringify_as_underlying_typeIT_EE5valueEbE4typeELb1EEENS_6StringERKS5_ = comdat any

$_ZN7doctest6detail15StringMakerBaseILb1EE7convertIA77_cEENS_6StringERKT_ = comdat any

$_ZN7doctest6detail8toStreamIA77_cEENS_6StringERKT_ = comdat any

$_ZN7doctest6detail7fillossIcLm77EEEvPSoRAT0__KT_ = comdat any

$_ZN7doctest6detail7fillossIA77_KcEEvPSoRKT_ = comdat any

$_ZN7doctest6detail8filldataIA77_KcE4fillEPSoRS3_ = comdat any

$_ZN7doctest6detail7forwardIRA67_KcEEOT_RNS0_5types16remove_referenceIS5_E4typeE = comdat any

$_ZN7doctest6detail19stringifyBinaryExprINSt7__cxx1112basic_stringIcSt11char_traitsIcESaIcEEEA67_cEENS_6StringERKT_PKcRKT0_ = comdat any

$_ZN7doctest8toStringIA67_cTnNS_6detail5types9enable_ifIXntsr6detail35should_stringify_as_underlying_typeIT_EE5valueEbE4typeELb1EEENS_6StringERKS5_ = comdat any

$_ZN7doctest6detail15StringMakerBaseILb1EE7convertIA67_cEENS_6StringERKT_ = comdat any

$_ZN7doctest6detail8toStreamIA67_cEENS_6StringERKT_ = comdat any

$_ZN7doctest6detail7fillossIcLm67EEEvPSoRAT0__KT_ = comdat any

$_ZN7doctest6detail7fillossIA67_KcEEvPSoRKT_ = comdat any

$_ZN7doctest6detail8filldataIA67_KcE4fillEPSoRS3_ = comdat any

$_ZN7doctest6detail7forwardIRA91_KcEEOT_RNS0_5types16remove_referenceIS5_E4typeE = comdat any

$_ZN7doctest6detail19stringifyBinaryExprINSt7__cxx1112basic_stringIcSt11char_traitsIcESaIcEEEA91_cEENS_6StringERKT_PKcRKT0_ = comdat any

$_ZN7doctest8toStringIA91_cTnNS_6detail5types9enable_ifIXntsr6detail35should_stringify_as_underlying_typeIT_EE5valueEbE4typeELb1EEENS_6StringERKS5_ = comdat any

$_ZN7doctest6detail15StringMakerBaseILb1EE7convertIA91_cEENS_6StringERKT_ = comdat any

$_ZN7doctest6detail8toStreamIA91_cEENS_6StringERKT_ = comdat any

$_ZN7doctest6detail7fillossIcLm91EEEvPSoRAT0__KT_ = comdat any

$_ZN7doctest6detail7fillossIA91_KcEEvPSoRKT_ = comdat any

$_ZN7doctest6detail8filldataIA91_KcE4fillEPSoRS3_ = comdat any

$_ZN7doctest6detail7forwardIRA81_KcEEOT_RNS0_5types16remove_referenceIS5_E4typeE = comdat any

$_ZN7doctest6detail19stringifyBinaryExprINSt7__cxx1112basic_stringIcSt11char_traitsIcESaIcEEEA81_cEENS_6StringERKT_PKcRKT0_ = comdat any

$_ZN7doctest8toStringIA81_cTnNS_6detail5types9enable_ifIXntsr6detail35should_stringify_as_underlying_typeIT_EE5valueEbE4typeELb1EEENS_6StringERKS5_ = comdat any

$_ZN7doctest6detail15StringMakerBaseILb1EE7convertIA81_cEENS_6StringERKT_ = comdat any

$_ZN7doctest6detail8toStreamIA81_cEENS_6StringERKT_ = comdat any

$_ZN7doctest6detail7fillossIcLm81EEEvPSoRAT0__KT_ = comdat any

$_ZN7doctest6detail7fillossIA81_KcEEvPSoRKT_ = comdat any

$_ZN7doctest6detail8filldataIA81_KcE4fillEPSoRS3_ = comdat any

$_ZN7doctest6detail7forwardIRA90_KcEEOT_RNS0_5types16remove_referenceIS5_E4typeE = comdat any

$_ZN7doctest6detail19stringifyBinaryExprINSt7__cxx1112basic_stringIcSt11char_traitsIcESaIcEEEA90_cEENS_6StringERKT_PKcRKT0_ = comdat any

$_ZN7doctest8toStringIA90_cTnNS_6detail5types9enable_ifIXntsr6detail35should_stringify_as_underlying_typeIT_EE5valueEbE4typeELb1EEENS_6StringERKS5_ = comdat any

$_ZN7doctest6detail15StringMakerBaseILb1EE7convertIA90_cEENS_6StringERKT_ = comdat any

$_ZN7doctest6detail8toStreamIA90_cEENS_6StringERKT_ = comdat any

$_ZN7doctest6detail7fillossIcLm90EEEvPSoRAT0__KT_ = comdat any

$_ZN7doctest6detail7fillossIA90_KcEEvPSoRKT_ = comdat any

$_ZN7doctest6detail8filldataIA90_KcE4fillEPSoRS3_ = comdat any

$_ZN7doctest6detail7forwardIRA80_KcEEOT_RNS0_5types16remove_referenceIS5_E4typeE = comdat any

$_ZN7doctest6detail19stringifyBinaryExprINSt7__cxx1112basic_stringIcSt11char_traitsIcESaIcEEEA80_cEENS_6StringERKT_PKcRKT0_ = comdat any

$_ZN7doctest8toStringIA80_cTnNS_6detail5types9enable_ifIXntsr6detail35should_stringify_as_underlying_typeIT_EE5valueEbE4typeELb1EEENS_6StringERKS5_ = comdat any

$_ZN7doctest6detail15StringMakerBaseILb1EE7convertIA80_cEENS_6StringERKT_ = comdat any

$_ZN7doctest6detail8toStreamIA80_cEENS_6StringERKT_ = comdat any

$_ZN7doctest6detail7fillossIcLm80EEEvPSoRAT0__KT_ = comdat any

$_ZN7doctest6detail7fillossIA80_KcEEvPSoRKT_ = comdat any

$_ZN7doctest6detail8filldataIA80_KcE4fillEPSoRS3_ = comdat any

$_ZN7doctest8toStringIiEENS_6StringEv = comdat any

$_ZN8nlohmann16json_abi_v3_11_310basic_jsonISt3mapSt6vectorNSt7__cxx1112basic_stringIcSt11char_traitsIcESaIcEEEblmdSaNS0_14adl_serializerES3_IhSaIhEEvEC2IRKiiTnNSt9enable_ifIXaantsr6detail13is_basic_jsonIT0_EE5valuesr6detail18is_compatible_typeISD_SI_EE5valueEiE4typeELi0EEEOT_ = comdat any

$_ZN8nlohmann16json_abi_v3_11_314adl_serializerIivE7to_jsonINS0_10basic_jsonISt3mapSt6vectorNSt7__cxx1112basic_stringIcSt11char_traitsIcESaIcEEEblmdSaS1_S6_IhSaIhEEvEERKiEEDTcmclL_ZNS0_12_GLOBAL__N_17to_jsonEEfp_clsr3stdE7forwardIT0_Efp0_EEcvv_EERT_OSJ_ = comdat any

$_ZNK8nlohmann16json_abi_v3_11_36detail10to_json_fnclINS0_10basic_jsonISt3mapSt6vectorNSt7__cxx1112basic_stringIcSt11char_traitsIcESaIcEEEblmdSaNS0_14adl_serializerES6_IhSaIhEEvEERKiEEDTcmcl7to_jsonfp_clsr3stdE7forwardIT0_Efp0_EEcvv_EERT_OSJ_ = comdat any

$_ZN7doctest8toStringIjEENS_6StringEv = comdat any

$_ZN8nlohmann16json_abi_v3_11_310basic_jsonISt3mapSt6vectorNSt7__cxx1112basic_stringIcSt11char_traitsIcESaIcEEEblmdSaNS0_14adl_serializerES3_IhSaIhEEvEC2IRKjjTnNSt9enable_ifIXaantsr6detail13is_basic_jsonIT0_EE5valuesr6detail18is_compatible_typeISD_SI_EE5valueEiE4typeELi0EEEOT_ = comdat any

$_ZNSt7__cxx119to_stringEj = comdat any

$_ZN8nlohmann16json_abi_v3_11_314adl_serializerIjvE7to_jsonINS0_10basic_jsonISt3mapSt6vectorNSt7__cxx1112basic_stringIcSt11char_traitsIcESaIcEEEblmdSaS1_S6_IhSaIhEEvEERKjEEDTcmclL_ZNS0_12_GLOBAL__N_17to_jsonEEfp_clsr3stdE7forwardIT0_Efp0_EEcvv_EERT_OSJ_ = comdat any

$_ZNK8nlohmann16json_abi_v3_11_36detail10to_json_fnclINS0_10basic_jsonISt3mapSt6vectorNSt7__cxx1112basic_stringIcSt11char_traitsIcESaIcEEEblmdSaNS0_14adl_serializerES6_IhSaIhEEvEERKjEEDTcmcl7to_jsonfp_clsr3stdE7forwardIT0_Efp0_EEcvv_EERT_OSJ_ = comdat any

$_ZN8nlohmann16json_abi_v3_11_36detail7to_jsonINS0_10basic_jsonISt3mapSt6vectorNSt7__cxx1112basic_stringIcSt11char_traitsIcESaIcEEEblmdSaNS0_14adl_serializerES5_IhSaIhEEvEEjTnNSt9enable_ifIXsr26is_compatible_integer_typeINT_17number_unsigned_tET0_EE5valueEiE4typeELi0EEEvRSH_SJ_ = comdat any

$_ZN8nlohmann16json_abi_v3_11_36detail20external_constructorILNS1_7value_tE6EE9constructINS0_10basic_jsonISt3mapSt6vectorNSt7__cxx1112basic_stringIcSt11char_traitsIcESaIcEEEblmdSaNS0_14adl_serializerES8_IhSaIhEEvEEEEvRT_NSJ_17number_unsigned_tE = comdat any

$_ZN7doctest8toStringIlEENS_6StringEv = comdat any

$_ZN8nlohmann16json_abi_v3_11_310basic_jsonISt3mapSt6vectorNSt7__cxx1112basic_stringIcSt11char_traitsIcESaIcEEEblmdSaNS0_14adl_serializerES3_IhSaIhEEvEC2IRKllTnNSt9enable_ifIXaantsr6detail13is_basic_jsonIT0_EE5valuesr6detail18is_compatible_typeISD_SI_EE5valueEiE4typeELi0EEEOT_ = comdat any

$_ZNSt7__cxx119to_stringEl = comdat any

$_ZN8nlohmann16json_abi_v3_11_314adl_serializerIlvE7to_jsonINS0_10basic_jsonISt3mapSt6vectorNSt7__cxx1112basic_stringIcSt11char_traitsIcESaIcEEEblmdSaS1_S6_IhSaIhEEvEERKlEEDTcmclL_ZNS0_12_GLOBAL__N_17to_jsonEEfp_clsr3stdE7forwardIT0_Efp0_EEcvv_EERT_OSJ_ = comdat any

$_ZNK8nlohmann16json_abi_v3_11_36detail10to_json_fnclINS0_10basic_jsonISt3mapSt6vectorNSt7__cxx1112basic_stringIcSt11char_traitsIcESaIcEEEblmdSaNS0_14adl_serializerES6_IhSaIhEEvEERKlEEDTcmcl7to_jsonfp_clsr3stdE7forwardIT0_Efp0_EEcvv_EERT_OSJ_ = comdat any

$_ZN8nlohmann16json_abi_v3_11_36detail7to_jsonINS0_10basic_jsonISt3mapSt6vectorNSt7__cxx1112basic_stringIcSt11char_traitsIcESaIcEEEblmdSaNS0_14adl_serializerES5_IhSaIhEEvEElTnNSt9enable_ifIXsr26is_compatible_integer_typeINT_16number_integer_tET0_EE5valueEiE4typeELi0EEEvRSH_SJ_ = comdat any

$_ZN7doctest8toStringImEENS_6StringEv = comdat any

$_ZN8nlohmann16json_abi_v3_11_310basic_jsonISt3mapSt6vectorNSt7__cxx1112basic_stringIcSt11char_traitsIcESaIcEEEblmdSaNS0_14adl_serializerES3_IhSaIhEEvEC2IRKmmTnNSt9enable_ifIXaantsr6detail13is_basic_jsonIT0_EE5valuesr6detail18is_compatible_typeISD_SI_EE5valueEiE4typeELi0EEEOT_ = comdat any

$_ZN8nlohmann16json_abi_v3_11_314adl_serializerImvE7to_jsonINS0_10basic_jsonISt3mapSt6vectorNSt7__cxx1112basic_stringIcSt11char_traitsIcESaIcEEEblmdSaS1_S6_IhSaIhEEvEERKmEEDTcmclL_ZNS0_12_GLOBAL__N_17to_jsonEEfp_clsr3stdE7forwardIT0_Efp0_EEcvv_EERT_OSJ_ = comdat any

$_ZNK8nlohmann16json_abi_v3_11_36detail10to_json_fnclINS0_10basic_jsonISt3mapSt6vectorNSt7__cxx1112basic_stringIcSt11char_traitsIcESaIcEEEblmdSaNS0_14adl_serializerES6_IhSaIhEEvEERKmEEDTcmcl7to_jsonfp_clsr3stdE7forwardIT0_Efp0_EEcvv_EERT_OSJ_ = comdat any

$_ZN8nlohmann16json_abi_v3_11_36detail7to_jsonINS0_10basic_jsonISt3mapSt6vectorNSt7__cxx1112basic_stringIcSt11char_traitsIcESaIcEEEblmdSaNS0_14adl_serializerES5_IhSaIhEEvEEmTnNSt9enable_ifIXsr26is_compatible_integer_typeINT_17number_unsigned_tET0_EE5valueEiE4typeELi0EEEvRSH_SJ_ = comdat any

$_ZTSN8nlohmann16json_abi_v3_11_36detail10type_errorE = comdat any

$_ZTSN8nlohmann16json_abi_v3_11_36detail9exceptionE = comdat any

$_ZTIN8nlohmann16json_abi_v3_11_36detail9exceptionE = comdat any

$_ZTIN8nlohmann16json_abi_v3_11_36detail10type_errorE = comdat any

$_ZN8nlohmann16json_abi_v3_11_36detail12static_constINS1_10to_json_fnEE5valueE = comdat any

$_ZZNSt8__detail18__to_chars_10_implIjEEvPcjT_E8__digits = comdat any

$_ZTVN8nlohmann16json_abi_v3_11_36detail10type_errorE = comdat any

$_ZTVN8nlohmann16json_abi_v3_11_36detail9exceptionE = comdat any

$_ZTSN8nlohmann16json_abi_v3_11_36detail11other_errorE = comdat any

$_ZTIN8nlohmann16json_abi_v3_11_36detail11other_errorE = comdat any

$_ZTVN8nlohmann16json_abi_v3_11_36detail11other_errorE = comdat any

$_ZTVSt23_Sp_counted_ptr_inplaceIN8nlohmann16json_abi_v3_11_36detail21output_stream_adapterIcEESaIvELN9__gnu_cxx12_Lock_policyE2EE = comdat any

$_ZTSSt23_Sp_counted_ptr_inplaceIN8nlohmann16json_abi_v3_11_36detail21output_stream_adapterIcEESaIvELN9__gnu_cxx12_Lock_policyE2EE = comdat any

$_ZTSSt16_Sp_counted_baseILN9__gnu_cxx12_Lock_policyE2EE = comdat any

$_ZTSSt11_Mutex_baseILN9__gnu_cxx12_Lock_policyE2EE = comdat any

$_ZTISt11_Mutex_baseILN9__gnu_cxx12_Lock_policyE2EE = comdat any

$_ZTISt16_Sp_counted_baseILN9__gnu_cxx12_Lock_policyE2EE = comdat any

$_ZTISt23_Sp_counted_ptr_inplaceIN8nlohmann16json_abi_v3_11_36detail21output_stream_adapterIcEESaIvELN9__gnu_cxx12_Lock_policyE2EE = comdat any

$_ZTVSt16_Sp_counted_baseILN9__gnu_cxx12_Lock_policyE2EE = comdat any

$_ZTVN8nlohmann16json_abi_v3_11_36detail21output_stream_adapterIcEE = comdat any

$_ZTSN8nlohmann16json_abi_v3_11_36detail21output_stream_adapterIcEE = comdat any

$_ZTSN8nlohmann16json_abi_v3_11_36detail23output_adapter_protocolIcEE = comdat any

$_ZTIN8nlohmann16json_abi_v3_11_36detail23output_adapter_protocolIcEE = comdat any

$_ZTIN8nlohmann16json_abi_v3_11_36detail21output_stream_adapterIcEE = comdat any

$_ZTVN8nlohmann16json_abi_v3_11_36detail23output_adapter_protocolIcEE = comdat any

$_ZTSSt19_Sp_make_shared_tag = comdat any

$_ZTISt19_Sp_make_shared_tag = comdat any

$_ZZNSt19_Sp_make_shared_tag5_S_tiEvE5__tag = comdat any

$_ZZN8nlohmann16json_abi_v3_11_36detail10serializerINS0_10basic_jsonISt3mapSt6vectorNSt7__cxx1112basic_stringIcSt11char_traitsIcESaIcEEEblmdSaNS0_14adl_serializerES5_IhSaIhEEvEEE6decodeERhRjhE5utf8d = comdat any

$_ZZNSt8__detail18__to_chars_10_implImEEvPcjT_E8__digits = comdat any

$_ZZN8nlohmann16json_abi_v3_11_36detail10serializerINS0_10basic_jsonISt3mapSt6vectorNSt7__cxx1112basic_stringIcSt11char_traitsIcESaIcEEEblmdSaNS0_14adl_serializerES5_IhSaIhEEvEEE12dump_integerIhTnNSt9enable_ifIXoooooosr3std11is_integralIT_EE5valuesr3std7is_sameISJ_mEE5valuesr3std7is_sameISJ_lEE5valuesr3std7is_sameISJ_hEE5valueEiE4typeELi0EEEvSJ_E12digits_to_99 = comdat any

$_ZZN8nlohmann16json_abi_v3_11_36detail10serializerINS0_10basic_jsonISt3mapSt6vectorNSt7__cxx1112basic_stringIcSt11char_traitsIcESaIcEEEblmdSaNS0_14adl_serializerES5_IhSaIhEEvEEE12dump_integerImTnNSt9enable_ifIXoooooosr3std11is_integralIT_EE5valuesr3std7is_sameISJ_mEE5valuesr3std7is_sameISJ_lEE5valuesr3std7is_sameISJ_hEE5valueEiE4typeELi0EEEvSJ_E12digits_to_99 = comdat any

$_ZZN8nlohmann16json_abi_v3_11_36detail10serializerINS0_10basic_jsonISt3mapSt6vectorNSt7__cxx1112basic_stringIcSt11char_traitsIcESaIcEEEblmdSaNS0_14adl_serializerES5_IhSaIhEEvEEE12dump_integerIlTnNSt9enable_ifIXoooooosr3std11is_integralIT_EE5valuesr3std7is_sameISJ_mEE5valuesr3std7is_sameISJ_lEE5valuesr3std7is_sameISJ_hEE5valueEiE4typeELi0EEEvSJ_E12digits_to_99 = comdat any

$_ZZN8nlohmann16json_abi_v3_11_36detail10serializerINS0_10basic_jsonISt3mapSt6vectorNSt7__cxx1112basic_stringIcSt11char_traitsIcESaIcEEEblmdSaNS0_14adl_serializerES5_IhSaIhEEvEEE10dump_floatEdE24is_ieee_single_or_double = comdat any

$_ZZN8nlohmann16json_abi_v3_11_36detail9dtoa_impl36get_cached_power_for_binary_exponentEiE13kCachedPowers = comdat any

$_ZTVSt23_Sp_counted_ptr_inplaceIN8nlohmann16json_abi_v3_11_36detail21output_string_adapterIcNSt7__cxx1112basic_stringIcSt11char_traitsIcESaIcEEEEESaIvELN9__gnu_cxx12_Lock_policyE2EE = comdat any

$_ZTSSt23_Sp_counted_ptr_inplaceIN8nlohmann16json_abi_v3_11_36detail21output_string_adapterIcNSt7__cxx1112basic_stringIcSt11char_traitsIcESaIcEEEEESaIvELN9__gnu_cxx12_Lock_policyE2EE = comdat any

$_ZTISt23_Sp_counted_ptr_inplaceIN8nlohmann16json_abi_v3_11_36detail21output_string_adapterIcNSt7__cxx1112basic_stringIcSt11char_traitsIcESaIcEEEEESaIvELN9__gnu_cxx12_Lock_policyE2EE = comdat any

$_ZTVN8nlohmann16json_abi_v3_11_36detail21output_string_adapterIcNSt7__cxx1112basic_stringIcSt11char_traitsIcESaIcEEEEE = comdat any

$_ZTSN8nlohmann16json_abi_v3_11_36detail21output_string_adapterIcNSt7__cxx1112basic_stringIcSt11char_traitsIcESaIcEEEEE = comdat any

$_ZTIN8nlohmann16json_abi_v3_11_36detail21output_string_adapterIcNSt7__cxx1112basic_stringIcSt11char_traitsIcESaIcEEEEE = comdat any

@_ZL18DOCTEST_ANON_VAR_0 = internal global i32 0, align 4
@.str = private unnamed_addr constant [1 x i8] zeroinitializer, align 1
@_ZL18DOCTEST_ANON_VAR_3 = internal global i32 0, align 4
@.str.2 = private unnamed_addr constant [129 x i8] c"generated/home/dtcxzyw/WorkSpace/Projects/compilers/llvm-opt-benchmark/bench/nlohmann_json/json/tests/src/unit-serialization.cpp\00", align 1
@.str.3 = private unnamed_addr constant [14 x i8] c"serialization\00", align 1
@_ZL24DOCTEST_ANON_TMP_18DUMMY = internal global i32 0, align 4
@_ZL19DOCTEST_ANON_VAR_22 = internal global i32 0, align 4
@.str.6 = private unnamed_addr constant [24 x i8] c"dump with binary values\00", align 1
@.str.7 = private unnamed_addr constant [11 x i8] c"operator<<\00", align 1
@.str.8 = private unnamed_addr constant [15 x i8] c"no given width\00", align 1
@.str.9 = private unnamed_addr constant [4 x i8] c"foo\00", align 1
@.str.10 = private unnamed_addr constant [4 x i8] c"one\00", align 1
@.str.11 = private unnamed_addr constant [48 x i8] c"ss.str() == \22[\\\22foo\\\22,1,2,3,false,{\\\22one\\\22:1}]\22\00", align 1
@.str.12 = private unnamed_addr constant [30 x i8] c"[\22foo\22,1,2,3,false,{\22one\22:1}]\00", align 1
@.str.13 = private unnamed_addr constant [12 x i8] c"given width\00", align 1
@.str.14 = private unnamed_addr constant [103 x i8] c"ss.str() == \22[\\n    \\\22foo\\\22,\\n    1,\\n    2,\\n    3,\\n    false,\\n    {\\n        \\\22one\\\22: 1\\n    }\\n]\22\00", align 1
@.str.15 = private unnamed_addr constant [76 x i8] c"[\0A    \22foo\22,\0A    1,\0A    2,\0A    3,\0A    false,\0A    {\0A        \22one\22: 1\0A    }\0A]\00", align 1
@.str.16 = private unnamed_addr constant [11 x i8] c"given fill\00", align 1
@.str.17 = private unnamed_addr constant [85 x i8] c"ss.str() == \22[\\n\\t\\\22foo\\\22,\\n\\t1,\\n\\t2,\\n\\t3,\\n\\tfalse,\\n\\t{\\n\\t\\t\\\22one\\\22: 1\\n\\t}\\n]\22\00", align 1
@.str.18 = private unnamed_addr constant [49 x i8] c"[\0A\09\22foo\22,\0A\091,\0A\092,\0A\093,\0A\09false,\0A\09{\0A\09\09\22one\22: 1\0A\09}\0A]\00", align 1
@.str.19 = private unnamed_addr constant [11 x i8] c"operator>>\00", align 1
@.str.20 = private unnamed_addr constant [5 x i8] c"dump\00", align 1
@.str.21 = private unnamed_addr constant [18 x i8] c"invalid character\00", align 1
@.str.22 = private unnamed_addr constant [6 x i8] c"\C3\A4\A9\C3\BC\00", align 1
@.str.23 = private unnamed_addr constant [9 x i8] c"j.dump()\00", align 1
@.str.24 = private unnamed_addr constant [18 x i8] c"json::type_error&\00", align 1
@.str.25 = private unnamed_addr constant [68 x i8] c"[json.exception.type_error.316] invalid UTF-8 byte at index 2: 0xA9\00", align 1
@_ZTVN10__cxxabiv120__si_class_type_infoE = external global [0 x ptr]
@_ZTSN8nlohmann16json_abi_v3_11_36detail10type_errorE = linkonce_odr dso_local constant [49 x i8] c"N8nlohmann16json_abi_v3_11_36detail10type_errorE\00", comdat, align 1
@_ZTSN8nlohmann16json_abi_v3_11_36detail9exceptionE = linkonce_odr dso_local constant [47 x i8] c"N8nlohmann16json_abi_v3_11_36detail9exceptionE\00", comdat, align 1
@_ZTISt9exception = external constant ptr
@_ZTIN8nlohmann16json_abi_v3_11_36detail9exceptionE = linkonce_odr dso_local constant { ptr, ptr, ptr } { ptr getelementptr inbounds (ptr, ptr @_ZTVN10__cxxabiv120__si_class_type_infoE, i64 2), ptr @_ZTSN8nlohmann16json_abi_v3_11_36detail9exceptionE, ptr @_ZTISt9exception }, comdat, align 8
@_ZTIN8nlohmann16json_abi_v3_11_36detail10type_errorE = linkonce_odr dso_local constant { ptr, ptr, ptr } { ptr getelementptr inbounds (ptr, ptr @_ZTVN10__cxxabiv120__si_class_type_infoE, i64 2), ptr @_ZTSN8nlohmann16json_abi_v3_11_36detail10type_errorE, ptr @_ZTIN8nlohmann16json_abi_v3_11_36detail9exceptionE }, comdat, align 8
@.str.26 = private unnamed_addr constant [53 x i8] c"j.dump(1, ' ', false, json::error_handler_t::strict)\00", align 1
@.str.27 = private unnamed_addr constant [68 x i8] c"j.dump(-1, ' ', false, json::error_handler_t::ignore) == \22\\\22\C3\A4\C3\BC\\\22\22\00", align 1
@.str.28 = private unnamed_addr constant [7 x i8] c"\22\C3\A4\C3\BC\22\00", align 1
@.str.29 = private unnamed_addr constant [81 x i8] c"j.dump(-1, ' ', false, json::error_handler_t::replace) == \22\\\22\C3\A4\\xEF\\xBF\\xBD\C3\BC\\\22\22\00", align 1
@.str.30 = private unnamed_addr constant [10 x i8] c"\22\C3\A4\EF\BF\BD\C3\BC\22\00", align 1
@.str.31 = private unnamed_addr constant [85 x i8] c"j.dump(-1, ' ', true, json::error_handler_t::replace) == \22\\\22\\\\u00e4\\\\ufffd\\\\u00fc\\\22\22\00", align 1
@.str.32 = private unnamed_addr constant [21 x i8] c"\22\\u00e4\\ufffd\\u00fc\22\00", align 1
@.str.33 = private unnamed_addr constant [33 x i8] c"ending with incomplete character\00", align 1
@.str.34 = private unnamed_addr constant [5 x i8] c"123\C2\00", align 1
@.str.35 = private unnamed_addr constant [73 x i8] c"[json.exception.type_error.316] incomplete UTF-8 string; last byte: 0xC2\00", align 1
@.str.36 = private unnamed_addr constant [67 x i8] c"j.dump(-1, ' ', false, json::error_handler_t::ignore) == \22\\\22123\\\22\22\00", align 1
@.str.37 = private unnamed_addr constant [6 x i8] c"\22123\22\00", align 1
@.str.38 = private unnamed_addr constant [80 x i8] c"j.dump(-1, ' ', false, json::error_handler_t::replace) == \22\\\22123\\xEF\\xBF\\xBD\\\22\22\00", align 1
@.str.39 = private unnamed_addr constant [9 x i8] c"\22123\EF\BF\BD\22\00", align 1
@.str.40 = private unnamed_addr constant [74 x i8] c"j.dump(-1, ' ', true, json::error_handler_t::replace) == \22\\\22123\\\\ufffd\\\22\22\00", align 1
@.str.41 = private unnamed_addr constant [12 x i8] c"\22123\\ufffd\22\00", align 1
@.str.42 = private unnamed_addr constant [21 x i8] c"unexpected character\00", align 1
@.str.43 = private unnamed_addr constant [9 x i8] c"123\F1\B0456\00", align 1
@.str.44 = private unnamed_addr constant [68 x i8] c"[json.exception.type_error.316] invalid UTF-8 byte at index 5: 0x34\00", align 1
@.str.45 = private unnamed_addr constant [70 x i8] c"j.dump(-1, ' ', false, json::error_handler_t::ignore) == \22\\\22123456\\\22\22\00", align 1
@.str.46 = private unnamed_addr constant [9 x i8] c"\22123456\22\00", align 1
@.str.47 = private unnamed_addr constant [92 x i8] c"j.dump(-1, ' ', false, json::error_handler_t::replace) == \22\\\22123\\xEF\\xBF\\xBD\\x34\\x35\\x36\\\22\22\00", align 1
@.str.48 = private unnamed_addr constant [12 x i8] c"\22123\EF\BF\BD456\22\00", align 1
@.str.49 = private unnamed_addr constant [77 x i8] c"j.dump(-1, ' ', true, json::error_handler_t::replace) == \22\\\22123\\\\ufffd456\\\22\22\00", align 1
@.str.50 = private unnamed_addr constant [15 x i8] c"\22123\\ufffd456\22\00", align 1
@.str.51 = private unnamed_addr constant [40 x i8] c"U+FFFD Substitution of Maximal Subparts\00", align 1
@.str.52 = private unnamed_addr constant [2 x i8] c"\C2\00", align 1
@.str.53 = private unnamed_addr constant [7 x i8] c"\\ufffd\00", align 1
@.str.54 = private unnamed_addr constant [4 x i8] c"\C2AB\00", align 1
@.str.55 = private unnamed_addr constant [9 x i8] c"\\ufffdAB\00", align 1
@.str.56 = private unnamed_addr constant [3 x i8] c"\C2\F4\00", align 1
@.str.57 = private unnamed_addr constant [13 x i8] c"\\ufffd\\ufffd\00", align 1
@.str.58 = private unnamed_addr constant [5 x i8] c"\F0\80\80A\00", align 1
@.str.59 = private unnamed_addr constant [20 x i8] c"\\ufffd\\ufffd\\ufffdA\00", align 1
@.str.60 = private unnamed_addr constant [5 x i8] c"\F1\80\80A\00", align 1
@.str.61 = private unnamed_addr constant [8 x i8] c"\\ufffdA\00", align 1
@.str.62 = private unnamed_addr constant [5 x i8] c"\F2\80\80A\00", align 1
@.str.63 = private unnamed_addr constant [5 x i8] c"\F3\80\80A\00", align 1
@.str.64 = private unnamed_addr constant [5 x i8] c"\F4\80\80A\00", align 1
@.str.65 = private unnamed_addr constant [5 x i8] c"\F5\80\80A\00", align 1
@.str.66 = private unnamed_addr constant [5 x i8] c"\F0\90\80A\00", align 1
@.str.67 = private unnamed_addr constant [5 x i8] c"\F1\90\80A\00", align 1
@.str.68 = private unnamed_addr constant [5 x i8] c"\F2\90\80A\00", align 1
@.str.69 = private unnamed_addr constant [5 x i8] c"\F3\90\80A\00", align 1
@.str.70 = private unnamed_addr constant [5 x i8] c"\F4\90\80A\00", align 1
@.str.71 = private unnamed_addr constant [5 x i8] c"\F5\90\80A\00", align 1
@.str.72 = private unnamed_addr constant [10 x i8] c"\C0\AF\E0\80\BF\F0\81\82A\00", align 1
@.str.73 = private unnamed_addr constant [50 x i8] c"\\ufffd\\ufffd\\ufffd\\ufffd\\ufffd\\ufffd\\ufffd\\ufffdA\00", align 1
@.str.74 = private unnamed_addr constant [10 x i8] c"\ED\A0\80\ED\BF\BF\ED\AFA\00", align 1
@.str.75 = private unnamed_addr constant [10 x i8] c"\F4\91\92\93\FFA\80\BFB\00", align 1
@.str.76 = private unnamed_addr constant [45 x i8] c"\\ufffd\\ufffd\\ufffd\\ufffd\\ufffdA\\ufffd\\ufffdB\00", align 1
@.str.77 = private unnamed_addr constant [10 x i8] c"\E1\80\E2\F0\91\92\F1\BFA\00", align 1
@.str.78 = private unnamed_addr constant [26 x i8] c"\\ufffd\\ufffd\\ufffd\\ufffdA\00", align 1
@.str.79 = private unnamed_addr constant [10 x i8] c"to_string\00", align 1
@.str.80 = private unnamed_addr constant [14 x i8] c"{\22x\22:5,\22y\22:6}\00", align 1
@.str.81 = private unnamed_addr constant [18 x i8] c"{\\\22x\\\22:5,\\\22y\\\22:6}\00", align 1
@.str.82 = private unnamed_addr constant [26 x i8] c"{\22x\22:[10,null,null,null]}\00", align 1
@.str.83 = private unnamed_addr constant [28 x i8] c"{\\\22x\\\22:[10,null,null,null]}\00", align 1
@.str.84 = private unnamed_addr constant [5 x i8] c"test\00", align 1
@.str.85 = private unnamed_addr constant [18 x i8] c"[3,\22false\22,false]\00", align 1
@.str.86 = private unnamed_addr constant [20 x i8] c"[3,\\\22false\\\22,false]\00", align 1
@_ZN8nlohmann16json_abi_v3_11_36detail12static_constINS1_10to_json_fnEE5valueE = linkonce_odr dso_local constant %"struct.nlohmann::json_abi_v3_11_3::detail::to_json_fn" undef, comdat, align 1
@.str.87 = private unnamed_addr constant [16 x i8] c"vector::reserve\00", align 1
@.str.88 = private unnamed_addr constant [26 x i8] c"vector::_M_realloc_insert\00", align 1
@.str.89 = private unnamed_addr constant [43 x i8] c"cannot create object from initializer list\00", align 1
@.str.90 = private unnamed_addr constant [52 x i8] c"cannot use operator[] with a numeric argument with \00", align 1
@.str.91 = private unnamed_addr constant [11 x i8] c"type_error\00", align 1
@.str.92 = private unnamed_addr constant [17 x i8] c"[json.exception.\00", align 1
@.str.93 = private unnamed_addr constant [3 x i8] c"] \00", align 1
@_ZZNSt8__detail18__to_chars_10_implIjEEvPcjT_E8__digits = linkonce_odr dso_local constant [201 x i8] c"00010203040506070809101112131415161718192021222324252627282930313233343536373839404142434445464748495051525354555657585960616263646566676869707172737475767778798081828384858687888990919293949596979899\00", comdat, align 16
@_ZTVN8nlohmann16json_abi_v3_11_36detail10type_errorE = linkonce_odr dso_local unnamed_addr constant { [5 x ptr] } { [5 x ptr] [ptr null, ptr @_ZTIN8nlohmann16json_abi_v3_11_36detail10type_errorE, ptr @_ZN8nlohmann16json_abi_v3_11_36detail10type_errorD2Ev, ptr @_ZN8nlohmann16json_abi_v3_11_36detail10type_errorD0Ev, ptr @_ZNK8nlohmann16json_abi_v3_11_36detail9exception4whatEv] }, comdat, align 8
@_ZTVN8nlohmann16json_abi_v3_11_36detail9exceptionE = linkonce_odr dso_local unnamed_addr constant { [5 x ptr] } { [5 x ptr] [ptr null, ptr @_ZTIN8nlohmann16json_abi_v3_11_36detail9exceptionE, ptr @_ZN8nlohmann16json_abi_v3_11_36detail9exceptionD2Ev, ptr @_ZN8nlohmann16json_abi_v3_11_36detail9exceptionD0Ev, ptr @_ZNK8nlohmann16json_abi_v3_11_36detail9exception4whatEv] }, comdat, align 8
@_ZTVSt9exception = external unnamed_addr constant { [5 x ptr] }, align 8
@.str.94 = private unnamed_addr constant [5 x i8] c"null\00", align 1
@.str.95 = private unnamed_addr constant [7 x i8] c"object\00", align 1
@.str.96 = private unnamed_addr constant [6 x i8] c"array\00", align 1
@.str.97 = private unnamed_addr constant [7 x i8] c"string\00", align 1
@.str.98 = private unnamed_addr constant [8 x i8] c"boolean\00", align 1
@.str.99 = private unnamed_addr constant [7 x i8] c"binary\00", align 1
@.str.100 = private unnamed_addr constant [10 x i8] c"discarded\00", align 1
@.str.101 = private unnamed_addr constant [7 x i8] c"number\00", align 1
@.str.102 = private unnamed_addr constant [48 x i8] c"961c151d2e87f2686a955a9be24d316f1362bf21 3.11.3\00", align 1
@_ZTSN8nlohmann16json_abi_v3_11_36detail11other_errorE = linkonce_odr dso_local constant [50 x i8] c"N8nlohmann16json_abi_v3_11_36detail11other_errorE\00", comdat, align 1
@_ZTIN8nlohmann16json_abi_v3_11_36detail11other_errorE = linkonce_odr dso_local constant { ptr, ptr, ptr } { ptr getelementptr inbounds (ptr, ptr @_ZTVN10__cxxabiv120__si_class_type_infoE, i64 2), ptr @_ZTSN8nlohmann16json_abi_v3_11_36detail11other_errorE, ptr @_ZTIN8nlohmann16json_abi_v3_11_36detail9exceptionE }, comdat, align 8
@.str.103 = private unnamed_addr constant [12 x i8] c"other_error\00", align 1
@_ZTVN8nlohmann16json_abi_v3_11_36detail11other_errorE = linkonce_odr dso_local unnamed_addr constant { [5 x ptr] } { [5 x ptr] [ptr null, ptr @_ZTIN8nlohmann16json_abi_v3_11_36detail11other_errorE, ptr @_ZN8nlohmann16json_abi_v3_11_36detail11other_errorD2Ev, ptr @_ZN8nlohmann16json_abi_v3_11_36detail11other_errorD0Ev, ptr @_ZNK8nlohmann16json_abi_v3_11_36detail9exception4whatEv] }, comdat, align 8
@.str.104 = private unnamed_addr constant [49 x i8] c"cannot create std::vector larger than max_size()\00", align 1
@_ZTVSt23_Sp_counted_ptr_inplaceIN8nlohmann16json_abi_v3_11_36detail21output_stream_adapterIcEESaIvELN9__gnu_cxx12_Lock_policyE2EE = linkonce_odr dso_local unnamed_addr constant { [7 x ptr] } { [7 x ptr] [ptr null, ptr @_ZTISt23_Sp_counted_ptr_inplaceIN8nlohmann16json_abi_v3_11_36detail21output_stream_adapterIcEESaIvELN9__gnu_cxx12_Lock_policyE2EE, ptr @_ZNSt23_Sp_counted_ptr_inplaceIN8nlohmann16json_abi_v3_11_36detail21output_stream_adapterIcEESaIvELN9__gnu_cxx12_Lock_policyE2EED2Ev, ptr @_ZNSt23_Sp_counted_ptr_inplaceIN8nlohmann16json_abi_v3_11_36detail21output_stream_adapterIcEESaIvELN9__gnu_cxx12_Lock_policyE2EED0Ev, ptr @_ZNSt23_Sp_counted_ptr_inplaceIN8nlohmann16json_abi_v3_11_36detail21output_stream_adapterIcEESaIvELN9__gnu_cxx12_Lock_policyE2EE10_M_disposeEv, ptr @_ZNSt23_Sp_counted_ptr_inplaceIN8nlohmann16json_abi_v3_11_36detail21output_stream_adapterIcEESaIvELN9__gnu_cxx12_Lock_policyE2EE10_M_destroyEv, ptr @_ZNSt23_Sp_counted_ptr_inplaceIN8nlohmann16json_abi_v3_11_36detail21output_stream_adapterIcEESaIvELN9__gnu_cxx12_Lock_policyE2EE14_M_get_deleterERKSt9type_info] }, comdat, align 8
@_ZTSSt23_Sp_counted_ptr_inplaceIN8nlohmann16json_abi_v3_11_36detail21output_stream_adapterIcEESaIvELN9__gnu_cxx12_Lock_policyE2EE = linkonce_odr dso_local constant [126 x i8] c"St23_Sp_counted_ptr_inplaceIN8nlohmann16json_abi_v3_11_36detail21output_stream_adapterIcEESaIvELN9__gnu_cxx12_Lock_policyE2EE\00", comdat, align 1
@_ZTSSt16_Sp_counted_baseILN9__gnu_cxx12_Lock_policyE2EE = linkonce_odr dso_local constant [52 x i8] c"St16_Sp_counted_baseILN9__gnu_cxx12_Lock_policyE2EE\00", comdat, align 1
@_ZTVN10__cxxabiv117__class_type_infoE = external global [0 x ptr]
@_ZTSSt11_Mutex_baseILN9__gnu_cxx12_Lock_policyE2EE = linkonce_odr dso_local constant [47 x i8] c"St11_Mutex_baseILN9__gnu_cxx12_Lock_policyE2EE\00", comdat, align 1
@_ZTISt11_Mutex_baseILN9__gnu_cxx12_Lock_policyE2EE = linkonce_odr dso_local constant { ptr, ptr } { ptr getelementptr inbounds (ptr, ptr @_ZTVN10__cxxabiv117__class_type_infoE, i64 2), ptr @_ZTSSt11_Mutex_baseILN9__gnu_cxx12_Lock_policyE2EE }, comdat, align 8
@_ZTISt16_Sp_counted_baseILN9__gnu_cxx12_Lock_policyE2EE = linkonce_odr dso_local constant { ptr, ptr, ptr } { ptr getelementptr inbounds (ptr, ptr @_ZTVN10__cxxabiv120__si_class_type_infoE, i64 2), ptr @_ZTSSt16_Sp_counted_baseILN9__gnu_cxx12_Lock_policyE2EE, ptr @_ZTISt11_Mutex_baseILN9__gnu_cxx12_Lock_policyE2EE }, comdat, align 8
@_ZTISt23_Sp_counted_ptr_inplaceIN8nlohmann16json_abi_v3_11_36detail21output_stream_adapterIcEESaIvELN9__gnu_cxx12_Lock_policyE2EE = linkonce_odr dso_local constant { ptr, ptr, ptr } { ptr getelementptr inbounds (ptr, ptr @_ZTVN10__cxxabiv120__si_class_type_infoE, i64 2), ptr @_ZTSSt23_Sp_counted_ptr_inplaceIN8nlohmann16json_abi_v3_11_36detail21output_stream_adapterIcEESaIvELN9__gnu_cxx12_Lock_policyE2EE, ptr @_ZTISt16_Sp_counted_baseILN9__gnu_cxx12_Lock_policyE2EE }, comdat, align 8
@_ZTVSt16_Sp_counted_baseILN9__gnu_cxx12_Lock_policyE2EE = linkonce_odr dso_local unnamed_addr constant { [7 x ptr] } { [7 x ptr] [ptr null, ptr @_ZTISt16_Sp_counted_baseILN9__gnu_cxx12_Lock_policyE2EE, ptr @_ZNSt16_Sp_counted_baseILN9__gnu_cxx12_Lock_policyE2EED2Ev, ptr @_ZNSt16_Sp_counted_baseILN9__gnu_cxx12_Lock_policyE2EED0Ev, ptr @__cxa_pure_virtual, ptr @_ZNSt16_Sp_counted_baseILN9__gnu_cxx12_Lock_policyE2EE10_M_destroyEv, ptr @__cxa_pure_virtual] }, comdat, align 8
@_ZTVN8nlohmann16json_abi_v3_11_36detail21output_stream_adapterIcEE = linkonce_odr dso_local unnamed_addr constant { [6 x ptr] } { [6 x ptr] [ptr null, ptr @_ZTIN8nlohmann16json_abi_v3_11_36detail21output_stream_adapterIcEE, ptr @_ZN8nlohmann16json_abi_v3_11_36detail21output_stream_adapterIcE15write_characterEc, ptr @_ZN8nlohmann16json_abi_v3_11_36detail21output_stream_adapterIcE16write_charactersEPKcm, ptr @_ZN8nlohmann16json_abi_v3_11_36detail21output_stream_adapterIcED2Ev, ptr @_ZN8nlohmann16json_abi_v3_11_36detail21output_stream_adapterIcED0Ev] }, comdat, align 8
@_ZTSN8nlohmann16json_abi_v3_11_36detail21output_stream_adapterIcEE = linkonce_odr dso_local constant [63 x i8] c"N8nlohmann16json_abi_v3_11_36detail21output_stream_adapterIcEE\00", comdat, align 1
@_ZTSN8nlohmann16json_abi_v3_11_36detail23output_adapter_protocolIcEE = linkonce_odr dso_local constant [65 x i8] c"N8nlohmann16json_abi_v3_11_36detail23output_adapter_protocolIcEE\00", comdat, align 1
@_ZTIN8nlohmann16json_abi_v3_11_36detail23output_adapter_protocolIcEE = linkonce_odr dso_local constant { ptr, ptr } { ptr getelementptr inbounds (ptr, ptr @_ZTVN10__cxxabiv117__class_type_infoE, i64 2), ptr @_ZTSN8nlohmann16json_abi_v3_11_36detail23output_adapter_protocolIcEE }, comdat, align 8
@_ZTIN8nlohmann16json_abi_v3_11_36detail21output_stream_adapterIcEE = linkonce_odr dso_local constant { ptr, ptr, ptr } { ptr getelementptr inbounds (ptr, ptr @_ZTVN10__cxxabiv120__si_class_type_infoE, i64 2), ptr @_ZTSN8nlohmann16json_abi_v3_11_36detail21output_stream_adapterIcEE, ptr @_ZTIN8nlohmann16json_abi_v3_11_36detail23output_adapter_protocolIcEE }, comdat, align 8
@_ZTVN8nlohmann16json_abi_v3_11_36detail23output_adapter_protocolIcEE = linkonce_odr dso_local unnamed_addr constant { [6 x ptr] } { [6 x ptr] [ptr null, ptr @_ZTIN8nlohmann16json_abi_v3_11_36detail23output_adapter_protocolIcEE, ptr @__cxa_pure_virtual, ptr @__cxa_pure_virtual, ptr @_ZN8nlohmann16json_abi_v3_11_36detail23output_adapter_protocolIcED2Ev, ptr @_ZN8nlohmann16json_abi_v3_11_36detail23output_adapter_protocolIcED0Ev] }, comdat, align 8
@_ZTSSt19_Sp_make_shared_tag = linkonce_odr dso_local constant [24 x i8] c"St19_Sp_make_shared_tag\00", comdat, align 1
@_ZTISt19_Sp_make_shared_tag = linkonce_odr dso_local constant { ptr, ptr } { ptr getelementptr inbounds (ptr, ptr @_ZTVN10__cxxabiv117__class_type_infoE, i64 2), ptr @_ZTSSt19_Sp_make_shared_tag }, comdat, align 8
@_ZZNSt19_Sp_make_shared_tag5_S_tiEvE5__tag = linkonce_odr dso_local constant [16 x i8] zeroinitializer, comdat, align 8
@__libc_single_threaded = external global i8, align 1
@.str.105 = private unnamed_addr constant [3 x i8] c"{}\00", align 1
@.str.106 = private unnamed_addr constant [3 x i8] c"{\0A\00", align 1
@.str.107 = private unnamed_addr constant [4 x i8] c"\22: \00", align 1
@.str.108 = private unnamed_addr constant [3 x i8] c",\0A\00", align 1
@.str.109 = private unnamed_addr constant [3 x i8] c"\22:\00", align 1
@.str.110 = private unnamed_addr constant [3 x i8] c"[]\00", align 1
@.str.111 = private unnamed_addr constant [3 x i8] c"[\0A\00", align 1
@.str.112 = private unnamed_addr constant [11 x i8] c"\22bytes\22: [\00", align 1
@.str.113 = private unnamed_addr constant [3 x i8] c", \00", align 1
@.str.114 = private unnamed_addr constant [4 x i8] c"],\0A\00", align 1
@.str.115 = private unnamed_addr constant [12 x i8] c"\22subtype\22: \00", align 1
@.str.116 = private unnamed_addr constant [11 x i8] c"{\22bytes\22:[\00", align 1
@.str.117 = private unnamed_addr constant [13 x i8] c"],\22subtype\22:\00", align 1
@.str.118 = private unnamed_addr constant [6 x i8] c"null}\00", align 1
@.str.119 = private unnamed_addr constant [5 x i8] c"true\00", align 1
@.str.120 = private unnamed_addr constant [6 x i8] c"false\00", align 1
@.str.121 = private unnamed_addr constant [12 x i8] c"<discarded>\00", align 1
@.str.122 = private unnamed_addr constant [7 x i8] c"\\u%04x\00", align 1
@.str.123 = private unnamed_addr constant [13 x i8] c"\\u%04x\\u%04x\00", align 1
@.str.124 = private unnamed_addr constant [29 x i8] c"invalid UTF-8 byte at index \00", align 1
@.str.125 = private unnamed_addr constant [5 x i8] c": 0x\00", align 1
@.str.126 = private unnamed_addr constant [39 x i8] c"incomplete UTF-8 string; last byte: 0x\00", align 1
@.str.127 = private unnamed_addr constant [4 x i8] c"\EF\BF\BD\00", align 1
@_ZZN8nlohmann16json_abi_v3_11_36detail10serializerINS0_10basic_jsonISt3mapSt6vectorNSt7__cxx1112basic_stringIcSt11char_traitsIcESaIcEEEblmdSaNS0_14adl_serializerES5_IhSaIhEEvEEE6decodeERhRjhE5utf8d = linkonce_odr dso_local constant %"struct.std::array.121" { [400 x i8] c"\00\00\00\00\00\00\00\00\00\00\00\00\00\00\00\00\00\00\00\00\00\00\00\00\00\00\00\00\00\00\00\00\00\00\00\00\00\00\00\00\00\00\00\00\00\00\00\00\00\00\00\00\00\00\00\00\00\00\00\00\00\00\00\00\00\00\00\00\00\00\00\00\00\00\00\00\00\00\00\00\00\00\00\00\00\00\00\00\00\00\00\00\00\00\00\00\00\00\00\00\00\00\00\00\00\00\00\00\00\00\00\00\00\00\00\00\00\00\00\00\00\00\00\00\00\00\00\00\01\01\01\01\01\01\01\01\01\01\01\01\01\01\01\01\09\09\09\09\09\09\09\09\09\09\09\09\09\09\09\09\07\07\07\07\07\07\07\07\07\07\07\07\07\07\07\07\07\07\07\07\07\07\07\07\07\07\07\07\07\07\07\07\08\08\02\02\02\02\02\02\02\02\02\02\02\02\02\02\02\02\02\02\02\02\02\02\02\02\02\02\02\02\02\02\0A\03\03\03\03\03\03\03\03\03\03\03\03\04\03\03\0B\06\06\06\05\08\08\08\08\08\08\08\08\08\08\08\00\01\02\03\05\08\07\01\01\01\04\06\01\01\01\01\01\01\01\01\01\01\01\01\01\01\01\01\01\01\01\01\01\00\01\01\01\01\01\00\01\00\01\01\01\01\01\01\01\02\01\01\01\01\01\02\01\02\01\01\01\01\01\01\01\01\01\01\01\01\01\02\01\01\01\01\01\01\01\01\01\02\01\01\01\01\01\01\01\02\01\01\01\01\01\01\01\01\01\01\01\01\01\03\01\03\01\01\01\01\01\01\01\03\01\01\01\01\01\03\01\03\01\01\01\01\01\01\01\03\01\01\01\01\01\01\01\01\01\01\01\01\01\01" }, comdat, align 1
@_ZZNSt8__detail18__to_chars_10_implImEEvPcjT_E8__digits = linkonce_odr dso_local constant [201 x i8] c"00010203040506070809101112131415161718192021222324252627282930313233343536373839404142434445464748495051525354555657585960616263646566676869707172737475767778798081828384858687888990919293949596979899\00", comdat, align 16
@.str.128 = private unnamed_addr constant [3 x i8] c"FF\00", align 1
@.str.129 = private unnamed_addr constant [17 x i8] c"0123456789ABCDEF\00", align 1
@_ZZN8nlohmann16json_abi_v3_11_36detail10serializerINS0_10basic_jsonISt3mapSt6vectorNSt7__cxx1112basic_stringIcSt11char_traitsIcESaIcEEEblmdSaNS0_14adl_serializerES5_IhSaIhEEvEEE12dump_integerIhTnNSt9enable_ifIXoooooosr3std11is_integralIT_EE5valuesr3std7is_sameISJ_mEE5valuesr3std7is_sameISJ_lEE5valuesr3std7is_sameISJ_hEE5valueEiE4typeELi0EEEvSJ_E12digits_to_99 = linkonce_odr dso_local constant %"struct.std::array.122" { [100 x %"struct.std::array.123"] [%"struct.std::array.123" { [2 x i8] c"00" }, %"struct.std::array.123" { [2 x i8] c"01" }, %"struct.std::array.123" { [2 x i8] c"02" }, %"struct.std::array.123" { [2 x i8] c"03" }, %"struct.std::array.123" { [2 x i8] c"04" }, %"struct.std::array.123" { [2 x i8] c"05" }, %"struct.std::array.123" { [2 x i8] c"06" }, %"struct.std::array.123" { [2 x i8] c"07" }, %"struct.std::array.123" { [2 x i8] c"08" }, %"struct.std::array.123" { [2 x i8] c"09" }, %"struct.std::array.123" { [2 x i8] c"10" }, %"struct.std::array.123" { [2 x i8] c"11" }, %"struct.std::array.123" { [2 x i8] c"12" }, %"struct.std::array.123" { [2 x i8] c"13" }, %"struct.std::array.123" { [2 x i8] c"14" }, %"struct.std::array.123" { [2 x i8] c"15" }, %"struct.std::array.123" { [2 x i8] c"16" }, %"struct.std::array.123" { [2 x i8] c"17" }, %"struct.std::array.123" { [2 x i8] c"18" }, %"struct.std::array.123" { [2 x i8] c"19" }, %"struct.std::array.123" { [2 x i8] c"20" }, %"struct.std::array.123" { [2 x i8] c"21" }, %"struct.std::array.123" { [2 x i8] c"22" }, %"struct.std::array.123" { [2 x i8] c"23" }, %"struct.std::array.123" { [2 x i8] c"24" }, %"struct.std::array.123" { [2 x i8] c"25" }, %"struct.std::array.123" { [2 x i8] c"26" }, %"struct.std::array.123" { [2 x i8] c"27" }, %"struct.std::array.123" { [2 x i8] c"28" }, %"struct.std::array.123" { [2 x i8] c"29" }, %"struct.std::array.123" { [2 x i8] c"30" }, %"struct.std::array.123" { [2 x i8] c"31" }, %"struct.std::array.123" { [2 x i8] c"32" }, %"struct.std::array.123" { [2 x i8] c"33" }, %"struct.std::array.123" { [2 x i8] c"34" }, %"struct.std::array.123" { [2 x i8] c"35" }, %"struct.std::array.123" { [2 x i8] c"36" }, %"struct.std::array.123" { [2 x i8] c"37" }, %"struct.std::array.123" { [2 x i8] c"38" }, %"struct.std::array.123" { [2 x i8] c"39" }, %"struct.std::array.123" { [2 x i8] c"40" }, %"struct.std::array.123" { [2 x i8] c"41" }, %"struct.std::array.123" { [2 x i8] c"42" }, %"struct.std::array.123" { [2 x i8] c"43" }, %"struct.std::array.123" { [2 x i8] c"44" }, %"struct.std::array.123" { [2 x i8] c"45" }, %"struct.std::array.123" { [2 x i8] c"46" }, %"struct.std::array.123" { [2 x i8] c"47" }, %"struct.std::array.123" { [2 x i8] c"48" }, %"struct.std::array.123" { [2 x i8] c"49" }, %"struct.std::array.123" { [2 x i8] c"50" }, %"struct.std::array.123" { [2 x i8] c"51" }, %"struct.std::array.123" { [2 x i8] c"52" }, %"struct.std::array.123" { [2 x i8] c"53" }, %"struct.std::array.123" { [2 x i8] c"54" }, %"struct.std::array.123" { [2 x i8] c"55" }, %"struct.std::array.123" { [2 x i8] c"56" }, %"struct.std::array.123" { [2 x i8] c"57" }, %"struct.std::array.123" { [2 x i8] c"58" }, %"struct.std::array.123" { [2 x i8] c"59" }, %"struct.std::array.123" { [2 x i8] c"60" }, %"struct.std::array.123" { [2 x i8] c"61" }, %"struct.std::array.123" { [2 x i8] c"62" }, %"struct.std::array.123" { [2 x i8] c"63" }, %"struct.std::array.123" { [2 x i8] c"64" }, %"struct.std::array.123" { [2 x i8] c"65" }, %"struct.std::array.123" { [2 x i8] c"66" }, %"struct.std::array.123" { [2 x i8] c"67" }, %"struct.std::array.123" { [2 x i8] c"68" }, %"struct.std::array.123" { [2 x i8] c"69" }, %"struct.std::array.123" { [2 x i8] c"70" }, %"struct.std::array.123" { [2 x i8] c"71" }, %"struct.std::array.123" { [2 x i8] c"72" }, %"struct.std::array.123" { [2 x i8] c"73" }, %"struct.std::array.123" { [2 x i8] c"74" }, %"struct.std::array.123" { [2 x i8] c"75" }, %"struct.std::array.123" { [2 x i8] c"76" }, %"struct.std::array.123" { [2 x i8] c"77" }, %"struct.std::array.123" { [2 x i8] c"78" }, %"struct.std::array.123" { [2 x i8] c"79" }, %"struct.std::array.123" { [2 x i8] c"80" }, %"struct.std::array.123" { [2 x i8] c"81" }, %"struct.std::array.123" { [2 x i8] c"82" }, %"struct.std::array.123" { [2 x i8] c"83" }, %"struct.std::array.123" { [2 x i8] c"84" }, %"struct.std::array.123" { [2 x i8] c"85" }, %"struct.std::array.123" { [2 x i8] c"86" }, %"struct.std::array.123" { [2 x i8] c"87" }, %"struct.std::array.123" { [2 x i8] c"88" }, %"struct.std::array.123" { [2 x i8] c"89" }, %"struct.std::array.123" { [2 x i8] c"90" }, %"struct.std::array.123" { [2 x i8] c"91" }, %"struct.std::array.123" { [2 x i8] c"92" }, %"struct.std::array.123" { [2 x i8] c"93" }, %"struct.std::array.123" { [2 x i8] c"94" }, %"struct.std::array.123" { [2 x i8] c"95" }, %"struct.std::array.123" { [2 x i8] c"96" }, %"struct.std::array.123" { [2 x i8] c"97" }, %"struct.std::array.123" { [2 x i8] c"98" }, %"struct.std::array.123" { [2 x i8] c"99" }] }, comdat, align 1
@_ZZN8nlohmann16json_abi_v3_11_36detail10serializerINS0_10basic_jsonISt3mapSt6vectorNSt7__cxx1112basic_stringIcSt11char_traitsIcESaIcEEEblmdSaNS0_14adl_serializerES5_IhSaIhEEvEEE12dump_integerImTnNSt9enable_ifIXoooooosr3std11is_integralIT_EE5valuesr3std7is_sameISJ_mEE5valuesr3std7is_sameISJ_lEE5valuesr3std7is_sameISJ_hEE5valueEiE4typeELi0EEEvSJ_E12digits_to_99 = linkonce_odr dso_local constant %"struct.std::array.122" { [100 x %"struct.std::array.123"] [%"struct.std::array.123" { [2 x i8] c"00" }, %"struct.std::array.123" { [2 x i8] c"01" }, %"struct.std::array.123" { [2 x i8] c"02" }, %"struct.std::array.123" { [2 x i8] c"03" }, %"struct.std::array.123" { [2 x i8] c"04" }, %"struct.std::array.123" { [2 x i8] c"05" }, %"struct.std::array.123" { [2 x i8] c"06" }, %"struct.std::array.123" { [2 x i8] c"07" }, %"struct.std::array.123" { [2 x i8] c"08" }, %"struct.std::array.123" { [2 x i8] c"09" }, %"struct.std::array.123" { [2 x i8] c"10" }, %"struct.std::array.123" { [2 x i8] c"11" }, %"struct.std::array.123" { [2 x i8] c"12" }, %"struct.std::array.123" { [2 x i8] c"13" }, %"struct.std::array.123" { [2 x i8] c"14" }, %"struct.std::array.123" { [2 x i8] c"15" }, %"struct.std::array.123" { [2 x i8] c"16" }, %"struct.std::array.123" { [2 x i8] c"17" }, %"struct.std::array.123" { [2 x i8] c"18" }, %"struct.std::array.123" { [2 x i8] c"19" }, %"struct.std::array.123" { [2 x i8] c"20" }, %"struct.std::array.123" { [2 x i8] c"21" }, %"struct.std::array.123" { [2 x i8] c"22" }, %"struct.std::array.123" { [2 x i8] c"23" }, %"struct.std::array.123" { [2 x i8] c"24" }, %"struct.std::array.123" { [2 x i8] c"25" }, %"struct.std::array.123" { [2 x i8] c"26" }, %"struct.std::array.123" { [2 x i8] c"27" }, %"struct.std::array.123" { [2 x i8] c"28" }, %"struct.std::array.123" { [2 x i8] c"29" }, %"struct.std::array.123" { [2 x i8] c"30" }, %"struct.std::array.123" { [2 x i8] c"31" }, %"struct.std::array.123" { [2 x i8] c"32" }, %"struct.std::array.123" { [2 x i8] c"33" }, %"struct.std::array.123" { [2 x i8] c"34" }, %"struct.std::array.123" { [2 x i8] c"35" }, %"struct.std::array.123" { [2 x i8] c"36" }, %"struct.std::array.123" { [2 x i8] c"37" }, %"struct.std::array.123" { [2 x i8] c"38" }, %"struct.std::array.123" { [2 x i8] c"39" }, %"struct.std::array.123" { [2 x i8] c"40" }, %"struct.std::array.123" { [2 x i8] c"41" }, %"struct.std::array.123" { [2 x i8] c"42" }, %"struct.std::array.123" { [2 x i8] c"43" }, %"struct.std::array.123" { [2 x i8] c"44" }, %"struct.std::array.123" { [2 x i8] c"45" }, %"struct.std::array.123" { [2 x i8] c"46" }, %"struct.std::array.123" { [2 x i8] c"47" }, %"struct.std::array.123" { [2 x i8] c"48" }, %"struct.std::array.123" { [2 x i8] c"49" }, %"struct.std::array.123" { [2 x i8] c"50" }, %"struct.std::array.123" { [2 x i8] c"51" }, %"struct.std::array.123" { [2 x i8] c"52" }, %"struct.std::array.123" { [2 x i8] c"53" }, %"struct.std::array.123" { [2 x i8] c"54" }, %"struct.std::array.123" { [2 x i8] c"55" }, %"struct.std::array.123" { [2 x i8] c"56" }, %"struct.std::array.123" { [2 x i8] c"57" }, %"struct.std::array.123" { [2 x i8] c"58" }, %"struct.std::array.123" { [2 x i8] c"59" }, %"struct.std::array.123" { [2 x i8] c"60" }, %"struct.std::array.123" { [2 x i8] c"61" }, %"struct.std::array.123" { [2 x i8] c"62" }, %"struct.std::array.123" { [2 x i8] c"63" }, %"struct.std::array.123" { [2 x i8] c"64" }, %"struct.std::array.123" { [2 x i8] c"65" }, %"struct.std::array.123" { [2 x i8] c"66" }, %"struct.std::array.123" { [2 x i8] c"67" }, %"struct.std::array.123" { [2 x i8] c"68" }, %"struct.std::array.123" { [2 x i8] c"69" }, %"struct.std::array.123" { [2 x i8] c"70" }, %"struct.std::array.123" { [2 x i8] c"71" }, %"struct.std::array.123" { [2 x i8] c"72" }, %"struct.std::array.123" { [2 x i8] c"73" }, %"struct.std::array.123" { [2 x i8] c"74" }, %"struct.std::array.123" { [2 x i8] c"75" }, %"struct.std::array.123" { [2 x i8] c"76" }, %"struct.std::array.123" { [2 x i8] c"77" }, %"struct.std::array.123" { [2 x i8] c"78" }, %"struct.std::array.123" { [2 x i8] c"79" }, %"struct.std::array.123" { [2 x i8] c"80" }, %"struct.std::array.123" { [2 x i8] c"81" }, %"struct.std::array.123" { [2 x i8] c"82" }, %"struct.std::array.123" { [2 x i8] c"83" }, %"struct.std::array.123" { [2 x i8] c"84" }, %"struct.std::array.123" { [2 x i8] c"85" }, %"struct.std::array.123" { [2 x i8] c"86" }, %"struct.std::array.123" { [2 x i8] c"87" }, %"struct.std::array.123" { [2 x i8] c"88" }, %"struct.std::array.123" { [2 x i8] c"89" }, %"struct.std::array.123" { [2 x i8] c"90" }, %"struct.std::array.123" { [2 x i8] c"91" }, %"struct.std::array.123" { [2 x i8] c"92" }, %"struct.std::array.123" { [2 x i8] c"93" }, %"struct.std::array.123" { [2 x i8] c"94" }, %"struct.std::array.123" { [2 x i8] c"95" }, %"struct.std::array.123" { [2 x i8] c"96" }, %"struct.std::array.123" { [2 x i8] c"97" }, %"struct.std::array.123" { [2 x i8] c"98" }, %"struct.std::array.123" { [2 x i8] c"99" }] }, comdat, align 1
@_ZZN8nlohmann16json_abi_v3_11_36detail10serializerINS0_10basic_jsonISt3mapSt6vectorNSt7__cxx1112basic_stringIcSt11char_traitsIcESaIcEEEblmdSaNS0_14adl_serializerES5_IhSaIhEEvEEE12dump_integerIlTnNSt9enable_ifIXoooooosr3std11is_integralIT_EE5valuesr3std7is_sameISJ_mEE5valuesr3std7is_sameISJ_lEE5valuesr3std7is_sameISJ_hEE5valueEiE4typeELi0EEEvSJ_E12digits_to_99 = linkonce_odr dso_local constant %"struct.std::array.122" { [100 x %"struct.std::array.123"] [%"struct.std::array.123" { [2 x i8] c"00" }, %"struct.std::array.123" { [2 x i8] c"01" }, %"struct.std::array.123" { [2 x i8] c"02" }, %"struct.std::array.123" { [2 x i8] c"03" }, %"struct.std::array.123" { [2 x i8] c"04" }, %"struct.std::array.123" { [2 x i8] c"05" }, %"struct.std::array.123" { [2 x i8] c"06" }, %"struct.std::array.123" { [2 x i8] c"07" }, %"struct.std::array.123" { [2 x i8] c"08" }, %"struct.std::array.123" { [2 x i8] c"09" }, %"struct.std::array.123" { [2 x i8] c"10" }, %"struct.std::array.123" { [2 x i8] c"11" }, %"struct.std::array.123" { [2 x i8] c"12" }, %"struct.std::array.123" { [2 x i8] c"13" }, %"struct.std::array.123" { [2 x i8] c"14" }, %"struct.std::array.123" { [2 x i8] c"15" }, %"struct.std::array.123" { [2 x i8] c"16" }, %"struct.std::array.123" { [2 x i8] c"17" }, %"struct.std::array.123" { [2 x i8] c"18" }, %"struct.std::array.123" { [2 x i8] c"19" }, %"struct.std::array.123" { [2 x i8] c"20" }, %"struct.std::array.123" { [2 x i8] c"21" }, %"struct.std::array.123" { [2 x i8] c"22" }, %"struct.std::array.123" { [2 x i8] c"23" }, %"struct.std::array.123" { [2 x i8] c"24" }, %"struct.std::array.123" { [2 x i8] c"25" }, %"struct.std::array.123" { [2 x i8] c"26" }, %"struct.std::array.123" { [2 x i8] c"27" }, %"struct.std::array.123" { [2 x i8] c"28" }, %"struct.std::array.123" { [2 x i8] c"29" }, %"struct.std::array.123" { [2 x i8] c"30" }, %"struct.std::array.123" { [2 x i8] c"31" }, %"struct.std::array.123" { [2 x i8] c"32" }, %"struct.std::array.123" { [2 x i8] c"33" }, %"struct.std::array.123" { [2 x i8] c"34" }, %"struct.std::array.123" { [2 x i8] c"35" }, %"struct.std::array.123" { [2 x i8] c"36" }, %"struct.std::array.123" { [2 x i8] c"37" }, %"struct.std::array.123" { [2 x i8] c"38" }, %"struct.std::array.123" { [2 x i8] c"39" }, %"struct.std::array.123" { [2 x i8] c"40" }, %"struct.std::array.123" { [2 x i8] c"41" }, %"struct.std::array.123" { [2 x i8] c"42" }, %"struct.std::array.123" { [2 x i8] c"43" }, %"struct.std::array.123" { [2 x i8] c"44" }, %"struct.std::array.123" { [2 x i8] c"45" }, %"struct.std::array.123" { [2 x i8] c"46" }, %"struct.std::array.123" { [2 x i8] c"47" }, %"struct.std::array.123" { [2 x i8] c"48" }, %"struct.std::array.123" { [2 x i8] c"49" }, %"struct.std::array.123" { [2 x i8] c"50" }, %"struct.std::array.123" { [2 x i8] c"51" }, %"struct.std::array.123" { [2 x i8] c"52" }, %"struct.std::array.123" { [2 x i8] c"53" }, %"struct.std::array.123" { [2 x i8] c"54" }, %"struct.std::array.123" { [2 x i8] c"55" }, %"struct.std::array.123" { [2 x i8] c"56" }, %"struct.std::array.123" { [2 x i8] c"57" }, %"struct.std::array.123" { [2 x i8] c"58" }, %"struct.std::array.123" { [2 x i8] c"59" }, %"struct.std::array.123" { [2 x i8] c"60" }, %"struct.std::array.123" { [2 x i8] c"61" }, %"struct.std::array.123" { [2 x i8] c"62" }, %"struct.std::array.123" { [2 x i8] c"63" }, %"struct.std::array.123" { [2 x i8] c"64" }, %"struct.std::array.123" { [2 x i8] c"65" }, %"struct.std::array.123" { [2 x i8] c"66" }, %"struct.std::array.123" { [2 x i8] c"67" }, %"struct.std::array.123" { [2 x i8] c"68" }, %"struct.std::array.123" { [2 x i8] c"69" }, %"struct.std::array.123" { [2 x i8] c"70" }, %"struct.std::array.123" { [2 x i8] c"71" }, %"struct.std::array.123" { [2 x i8] c"72" }, %"struct.std::array.123" { [2 x i8] c"73" }, %"struct.std::array.123" { [2 x i8] c"74" }, %"struct.std::array.123" { [2 x i8] c"75" }, %"struct.std::array.123" { [2 x i8] c"76" }, %"struct.std::array.123" { [2 x i8] c"77" }, %"struct.std::array.123" { [2 x i8] c"78" }, %"struct.std::array.123" { [2 x i8] c"79" }, %"struct.std::array.123" { [2 x i8] c"80" }, %"struct.std::array.123" { [2 x i8] c"81" }, %"struct.std::array.123" { [2 x i8] c"82" }, %"struct.std::array.123" { [2 x i8] c"83" }, %"struct.std::array.123" { [2 x i8] c"84" }, %"struct.std::array.123" { [2 x i8] c"85" }, %"struct.std::array.123" { [2 x i8] c"86" }, %"struct.std::array.123" { [2 x i8] c"87" }, %"struct.std::array.123" { [2 x i8] c"88" }, %"struct.std::array.123" { [2 x i8] c"89" }, %"struct.std::array.123" { [2 x i8] c"90" }, %"struct.std::array.123" { [2 x i8] c"91" }, %"struct.std::array.123" { [2 x i8] c"92" }, %"struct.std::array.123" { [2 x i8] c"93" }, %"struct.std::array.123" { [2 x i8] c"94" }, %"struct.std::array.123" { [2 x i8] c"95" }, %"struct.std::array.123" { [2 x i8] c"96" }, %"struct.std::array.123" { [2 x i8] c"97" }, %"struct.std::array.123" { [2 x i8] c"98" }, %"struct.std::array.123" { [2 x i8] c"99" }] }, comdat, align 1
@_ZZN8nlohmann16json_abi_v3_11_36detail10serializerINS0_10basic_jsonISt3mapSt6vectorNSt7__cxx1112basic_stringIcSt11char_traitsIcESaIcEEEblmdSaNS0_14adl_serializerES5_IhSaIhEEvEEE10dump_floatEdE24is_ieee_single_or_double = linkonce_odr dso_local constant i8 1, comdat, align 1
@_ZZN8nlohmann16json_abi_v3_11_36detail9dtoa_impl36get_cached_power_for_binary_exponentEiE13kCachedPowers = linkonce_odr dso_local constant %"struct.std::array.125" { [79 x %"struct.nlohmann::json_abi_v3_11_3::detail::dtoa_impl::cached_power"] [%"struct.nlohmann::json_abi_v3_11_3::detail::dtoa_impl::cached_power" { i64 -6093090917745768758, i32 -1060, i32 -300 }, %"struct.nlohmann::json_abi_v3_11_3::detail::dtoa_impl::cached_power" { i64 -38366372719436721, i32 -1034, i32 -292 }, %"struct.nlohmann::json_abi_v3_11_3::detail::dtoa_impl::cached_power" { i64 -4731433901725329908, i32 -1007, i32 -284 }, %"struct.nlohmann::json_abi_v3_11_3::detail::dtoa_impl::cached_power" { i64 -8228041688891786180, i32 -980, i32 -276 }, %"struct.nlohmann::json_abi_v3_11_3::detail::dtoa_impl::cached_power" { i64 -3219690930897053053, i32 -954, i32 -268 }, %"struct.nlohmann::json_abi_v3_11_3::detail::dtoa_impl::cached_power" { i64 -7101705404292871755, i32 -927, i32 -260 }, %"struct.nlohmann::json_abi_v3_11_3::detail::dtoa_impl::cached_power" { i64 -1541319077368263733, i32 -901, i32 -252 }, %"struct.nlohmann::json_abi_v3_11_3::detail::dtoa_impl::cached_power" { i64 -5851220927660403859, i32 -874, i32 -244 }, %"struct.nlohmann::json_abi_v3_11_3::detail::dtoa_impl::cached_power" { i64 -9062348037703676329, i32 -847, i32 -236 }, %"struct.nlohmann::json_abi_v3_11_3::detail::dtoa_impl::cached_power" { i64 -4462904269766699465, i32 -821, i32 -228 }, %"struct.nlohmann::json_abi_v3_11_3::detail::dtoa_impl::cached_power" { i64 -8027971522334779313, i32 -794, i32 -220 }, %"struct.nlohmann::json_abi_v3_11_3::detail::dtoa_impl::cached_power" { i64 -2921563150702462265, i32 -768, i32 -212 }, %"struct.nlohmann::json_abi_v3_11_3::detail::dtoa_impl::cached_power" { i64 -6879582898840692748, i32 -741, i32 -204 }, %"struct.nlohmann::json_abi_v3_11_3::detail::dtoa_impl::cached_power" { i64 -1210330751515841307, i32 -715, i32 -196 }, %"struct.nlohmann::json_abi_v3_11_3::detail::dtoa_impl::cached_power" { i64 -5604615407819967858, i32 -688, i32 -188 }, %"struct.nlohmann::json_abi_v3_11_3::detail::dtoa_impl::cached_power" { i64 -8878612607581929669, i32 -661, i32 -180 }, %"struct.nlohmann::json_abi_v3_11_3::detail::dtoa_impl::cached_power" { i64 -4189117143640191558, i32 -635, i32 -172 }, %"struct.nlohmann::json_abi_v3_11_3::detail::dtoa_impl::cached_power" { i64 -7823984217374209642, i32 -608, i32 -164 }, %"struct.nlohmann::json_abi_v3_11_3::detail::dtoa_impl::cached_power" { i64 -2617598379430861436, i32 -582, i32 -156 }, %"struct.nlohmann::json_abi_v3_11_3::detail::dtoa_impl::cached_power" { i64 -6653111496142234890, i32 -555, i32 -148 }, %"struct.nlohmann::json_abi_v3_11_3::detail::dtoa_impl::cached_power" { i64 -872862063775190746, i32 -529, i32 -140 }, %"struct.nlohmann::json_abi_v3_11_3::detail::dtoa_impl::cached_power" { i64 -5353181642124984136, i32 -502, i32 -132 }, %"struct.nlohmann::json_abi_v3_11_3::detail::dtoa_impl::cached_power" { i64 -8691279853972075893, i32 -475, i32 -124 }, %"struct.nlohmann::json_abi_v3_11_3::detail::dtoa_impl::cached_power" { i64 -3909969587797413805, i32 -449, i32 -116 }, %"struct.nlohmann::json_abi_v3_11_3::detail::dtoa_impl::cached_power" { i64 -7616003081050118571, i32 -422, i32 -108 }, %"struct.nlohmann::json_abi_v3_11_3::detail::dtoa_impl::cached_power" { i64 -2307682335666372931, i32 -396, i32 -100 }, %"struct.nlohmann::json_abi_v3_11_3::detail::dtoa_impl::cached_power" { i64 -6422206049907525489, i32 -369, i32 -92 }, %"struct.nlohmann::json_abi_v3_11_3::detail::dtoa_impl::cached_power" { i64 -528786136287117932, i32 -343, i32 -84 }, %"struct.nlohmann::json_abi_v3_11_3::detail::dtoa_impl::cached_power" { i64 -5096825099203863601, i32 -316, i32 -76 }, %"struct.nlohmann::json_abi_v3_11_3::detail::dtoa_impl::cached_power" { i64 -8500279345513818773, i32 -289, i32 -68 }, %"struct.nlohmann::json_abi_v3_11_3::detail::dtoa_impl::cached_power" { i64 -3625356651333078602, i32 -263, i32 -60 }, %"struct.nlohmann::json_abi_v3_11_3::detail::dtoa_impl::cached_power" { i64 -7403949918844649556, i32 -236, i32 -52 }, %"struct.nlohmann::json_abi_v3_11_3::detail::dtoa_impl::cached_power" { i64 -1991698500497491194, i32 -210, i32 -44 }, %"struct.nlohmann::json_abi_v3_11_3::detail::dtoa_impl::cached_power" { i64 -6186779746782440749, i32 -183, i32 -36 }, %"struct.nlohmann::json_abi_v3_11_3::detail::dtoa_impl::cached_power" { i64 -177973607073265138, i32 -157, i32 -28 }, %"struct.nlohmann::json_abi_v3_11_3::detail::dtoa_impl::cached_power" { i64 -4835449396872013077, i32 -130, i32 -20 }, %"struct.nlohmann::json_abi_v3_11_3::detail::dtoa_impl::cached_power" { i64 -8305539271883716404, i32 -103, i32 -12 }, %"struct.nlohmann::json_abi_v3_11_3::detail::dtoa_impl::cached_power" { i64 -3335171328526686932, i32 -77, i32 -4 }, %"struct.nlohmann::json_abi_v3_11_3::detail::dtoa_impl::cached_power" { i64 -7187745005283311616, i32 -50, i32 4 }, %"struct.nlohmann::json_abi_v3_11_3::detail::dtoa_impl::cached_power" { i64 -1669528073709551616, i32 -24, i32 12 }, %"struct.nlohmann::json_abi_v3_11_3::detail::dtoa_impl::cached_power" { i64 -5946744073709551616, i32 3, i32 20 }, %"struct.nlohmann::json_abi_v3_11_3::detail::dtoa_impl::cached_power" { i64 -9133518327554766460, i32 30, i32 28 }, %"struct.nlohmann::json_abi_v3_11_3::detail::dtoa_impl::cached_power" { i64 -4568956265895094861, i32 56, i32 36 }, %"struct.nlohmann::json_abi_v3_11_3::detail::dtoa_impl::cached_power" { i64 -8106986416796705680, i32 83, i32 44 }, %"struct.nlohmann::json_abi_v3_11_3::detail::dtoa_impl::cached_power" { i64 -3039304518611664792, i32 109, i32 52 }, %"struct.nlohmann::json_abi_v3_11_3::detail::dtoa_impl::cached_power" { i64 -6967307053960650171, i32 136, i32 60 }, %"struct.nlohmann::json_abi_v3_11_3::detail::dtoa_impl::cached_power" { i64 -1341049929119499481, i32 162, i32 68 }, %"struct.nlohmann::json_abi_v3_11_3::detail::dtoa_impl::cached_power" { i64 -5702008784649933400, i32 189, i32 76 }, %"struct.nlohmann::json_abi_v3_11_3::detail::dtoa_impl::cached_power" { i64 -8951176327949752869, i32 216, i32 84 }, %"struct.nlohmann::json_abi_v3_11_3::detail::dtoa_impl::cached_power" { i64 -4297245513042813542, i32 242, i32 92 }, %"struct.nlohmann::json_abi_v3_11_3::detail::dtoa_impl::cached_power" { i64 -7904546130479028392, i32 269, i32 100 }, %"struct.nlohmann::json_abi_v3_11_3::detail::dtoa_impl::cached_power" { i64 -2737644984756826646, i32 295, i32 108 }, %"struct.nlohmann::json_abi_v3_11_3::detail::dtoa_impl::cached_power" { i64 -6742553186979055798, i32 322, i32 116 }, %"struct.nlohmann::json_abi_v3_11_3::detail::dtoa_impl::cached_power" { i64 -1006140569036166267, i32 348, i32 124 }, %"struct.nlohmann::json_abi_v3_11_3::detail::dtoa_impl::cached_power" { i64 -5452481866653427593, i32 375, i32 132 }, %"struct.nlohmann::json_abi_v3_11_3::detail::dtoa_impl::cached_power" { i64 -8765264286586255934, i32 402, i32 140 }, %"struct.nlohmann::json_abi_v3_11_3::detail::dtoa_impl::cached_power" { i64 -4020214983419339459, i32 428, i32 148 }, %"struct.nlohmann::json_abi_v3_11_3::detail::dtoa_impl::cached_power" { i64 -7698142301602209613, i32 455, i32 156 }, %"struct.nlohmann::json_abi_v3_11_3::detail::dtoa_impl::cached_power" { i64 -2430079312244744221, i32 481, i32 164 }, %"struct.nlohmann::json_abi_v3_11_3::detail::dtoa_impl::cached_power" { i64 -6513398903789220827, i32 508, i32 172 }, %"struct.nlohmann::json_abi_v3_11_3::detail::dtoa_impl::cached_power" { i64 -664674077828931748, i32 534, i32 180 }, %"struct.nlohmann::json_abi_v3_11_3::detail::dtoa_impl::cached_power" { i64 -5198069505264599346, i32 561, i32 188 }, %"struct.nlohmann::json_abi_v3_11_3::detail::dtoa_impl::cached_power" { i64 -8575712306248138270, i32 588, i32 196 }, %"struct.nlohmann::json_abi_v3_11_3::detail::dtoa_impl::cached_power" { i64 -3737760522056206171, i32 614, i32 204 }, %"struct.nlohmann::json_abi_v3_11_3::detail::dtoa_impl::cached_power" { i64 -7487697328667536417, i32 641, i32 212 }, %"struct.nlohmann::json_abi_v3_11_3::detail::dtoa_impl::cached_power" { i64 -2116491865831296966, i32 667, i32 220 }, %"struct.nlohmann::json_abi_v3_11_3::detail::dtoa_impl::cached_power" { i64 -6279758049420528746, i32 694, i32 228 }, %"struct.nlohmann::json_abi_v3_11_3::detail::dtoa_impl::cached_power" { i64 -316522074587315140, i32 720, i32 236 }, %"struct.nlohmann::json_abi_v3_11_3::detail::dtoa_impl::cached_power" { i64 -4938676049251384304, i32 747, i32 244 }, %"struct.nlohmann::json_abi_v3_11_3::detail::dtoa_impl::cached_power" { i64 -8382449121214030822, i32 774, i32 252 }, %"struct.nlohmann::json_abi_v3_11_3::detail::dtoa_impl::cached_power" { i64 -3449775934753242068, i32 800, i32 260 }, %"struct.nlohmann::json_abi_v3_11_3::detail::dtoa_impl::cached_power" { i64 -7273132090830278359, i32 827, i32 268 }, %"struct.nlohmann::json_abi_v3_11_3::detail::dtoa_impl::cached_power" { i64 -1796764746270372707, i32 853, i32 276 }, %"struct.nlohmann::json_abi_v3_11_3::detail::dtoa_impl::cached_power" { i64 -6041542782089432023, i32 880, i32 284 }, %"struct.nlohmann::json_abi_v3_11_3::detail::dtoa_impl::cached_power" { i64 -9204148869281624187, i32 907, i32 292 }, %"struct.nlohmann::json_abi_v3_11_3::detail::dtoa_impl::cached_power" { i64 -4674203974643163859, i32 933, i32 300 }, %"struct.nlohmann::json_abi_v3_11_3::detail::dtoa_impl::cached_power" { i64 -8185402070463610993, i32 960, i32 308 }, %"struct.nlohmann::json_abi_v3_11_3::detail::dtoa_impl::cached_power" { i64 -3156152948152813503, i32 986, i32 316 }, %"struct.nlohmann::json_abi_v3_11_3::detail::dtoa_impl::cached_power" { i64 -7054365918152680535, i32 1013, i32 324 }] }, comdat, align 8
@.str.130 = private unnamed_addr constant [5 x i8] c" == \00", align 1
@_ZTVSt23_Sp_counted_ptr_inplaceIN8nlohmann16json_abi_v3_11_36detail21output_string_adapterIcNSt7__cxx1112basic_stringIcSt11char_traitsIcESaIcEEEEESaIvELN9__gnu_cxx12_Lock_policyE2EE = linkonce_odr dso_local unnamed_addr constant { [7 x ptr] } { [7 x ptr] [ptr null, ptr @_ZTISt23_Sp_counted_ptr_inplaceIN8nlohmann16json_abi_v3_11_36detail21output_string_adapterIcNSt7__cxx1112basic_stringIcSt11char_traitsIcESaIcEEEEESaIvELN9__gnu_cxx12_Lock_policyE2EE, ptr @_ZNSt23_Sp_counted_ptr_inplaceIN8nlohmann16json_abi_v3_11_36detail21output_string_adapterIcNSt7__cxx1112basic_stringIcSt11char_traitsIcESaIcEEEEESaIvELN9__gnu_cxx12_Lock_policyE2EED2Ev, ptr @_ZNSt23_Sp_counted_ptr_inplaceIN8nlohmann16json_abi_v3_11_36detail21output_string_adapterIcNSt7__cxx1112basic_stringIcSt11char_traitsIcESaIcEEEEESaIvELN9__gnu_cxx12_Lock_policyE2EED0Ev, ptr @_ZNSt23_Sp_counted_ptr_inplaceIN8nlohmann16json_abi_v3_11_36detail21output_string_adapterIcNSt7__cxx1112basic_stringIcSt11char_traitsIcESaIcEEEEESaIvELN9__gnu_cxx12_Lock_policyE2EE10_M_disposeEv, ptr @_ZNSt23_Sp_counted_ptr_inplaceIN8nlohmann16json_abi_v3_11_36detail21output_string_adapterIcNSt7__cxx1112basic_stringIcSt11char_traitsIcESaIcEEEEESaIvELN9__gnu_cxx12_Lock_policyE2EE10_M_destroyEv, ptr @_ZNSt23_Sp_counted_ptr_inplaceIN8nlohmann16json_abi_v3_11_36detail21output_string_adapterIcNSt7__cxx1112basic_stringIcSt11char_traitsIcESaIcEEEEESaIvELN9__gnu_cxx12_Lock_policyE2EE14_M_get_deleterERKSt9type_info] }, comdat, align 8
@_ZTSSt23_Sp_counted_ptr_inplaceIN8nlohmann16json_abi_v3_11_36detail21output_string_adapterIcNSt7__cxx1112basic_stringIcSt11char_traitsIcESaIcEEEEESaIvELN9__gnu_cxx12_Lock_policyE2EE = linkonce_odr dso_local constant [178 x i8] c"St23_Sp_counted_ptr_inplaceIN8nlohmann16json_abi_v3_11_36detail21output_string_adapterIcNSt7__cxx1112basic_stringIcSt11char_traitsIcESaIcEEEEESaIvELN9__gnu_cxx12_Lock_policyE2EE\00", comdat, align 1
@_ZTISt23_Sp_counted_ptr_inplaceIN8nlohmann16json_abi_v3_11_36detail21output_string_adapterIcNSt7__cxx1112basic_stringIcSt11char_traitsIcESaIcEEEEESaIvELN9__gnu_cxx12_Lock_policyE2EE = linkonce_odr dso_local constant { ptr, ptr, ptr } { ptr getelementptr inbounds (ptr, ptr @_ZTVN10__cxxabiv120__si_class_type_infoE, i64 2), ptr @_ZTSSt23_Sp_counted_ptr_inplaceIN8nlohmann16json_abi_v3_11_36detail21output_string_adapterIcNSt7__cxx1112basic_stringIcSt11char_traitsIcESaIcEEEEESaIvELN9__gnu_cxx12_Lock_policyE2EE, ptr @_ZTISt16_Sp_counted_baseILN9__gnu_cxx12_Lock_policyE2EE }, comdat, align 8
@_ZTVN8nlohmann16json_abi_v3_11_36detail21output_string_adapterIcNSt7__cxx1112basic_stringIcSt11char_traitsIcESaIcEEEEE = linkonce_odr dso_local unnamed_addr constant { [6 x ptr] } { [6 x ptr] [ptr null, ptr @_ZTIN8nlohmann16json_abi_v3_11_36detail21output_string_adapterIcNSt7__cxx1112basic_stringIcSt11char_traitsIcESaIcEEEEE, ptr @_ZN8nlohmann16json_abi_v3_11_36detail21output_string_adapterIcNSt7__cxx1112basic_stringIcSt11char_traitsIcESaIcEEEE15write_characterEc, ptr @_ZN8nlohmann16json_abi_v3_11_36detail21output_string_adapterIcNSt7__cxx1112basic_stringIcSt11char_traitsIcESaIcEEEE16write_charactersEPKcm, ptr @_ZN8nlohmann16json_abi_v3_11_36detail21output_string_adapterIcNSt7__cxx1112basic_stringIcSt11char_traitsIcESaIcEEEED2Ev, ptr @_ZN8nlohmann16json_abi_v3_11_36detail21output_string_adapterIcNSt7__cxx1112basic_stringIcSt11char_traitsIcESaIcEEEED0Ev] }, comdat, align 8
@_ZTSN8nlohmann16json_abi_v3_11_36detail21output_string_adapterIcNSt7__cxx1112basic_stringIcSt11char_traitsIcESaIcEEEEE = linkonce_odr dso_local constant [115 x i8] c"N8nlohmann16json_abi_v3_11_36detail21output_string_adapterIcNSt7__cxx1112basic_stringIcSt11char_traitsIcESaIcEEEEE\00", comdat, align 1
@_ZTIN8nlohmann16json_abi_v3_11_36detail21output_string_adapterIcNSt7__cxx1112basic_stringIcSt11char_traitsIcESaIcEEEEE = linkonce_odr dso_local constant { ptr, ptr, ptr } { ptr getelementptr inbounds (ptr, ptr @_ZTVN10__cxxabiv120__si_class_type_infoE, i64 2), ptr @_ZTSN8nlohmann16json_abi_v3_11_36detail21output_string_adapterIcNSt7__cxx1112basic_stringIcSt11char_traitsIcESaIcEEEEE, ptr @_ZTIN8nlohmann16json_abi_v3_11_36detail23output_adapter_protocolIcEE }, comdat, align 8
@.str.131 = private unnamed_addr constant [80 x i8] c"j.dump(-1, ' ', true, json::error_handler_t::replace) == \22\\\22\22 + expected + \22\\\22\22\00", align 1
@.str.132 = private unnamed_addr constant [2 x i8] c"\22\00", align 1
@.str.133 = private unnamed_addr constant [39 x i8] c"to_string(j) == \22\\\22\22 + expected + \22\\\22\22\00", align 1
@.str.134 = private unnamed_addr constant [4 x i8] c"key\00", align 1
@.str.135 = private unnamed_addr constant [6 x i8] c"value\00", align 1
@.str.136 = private unnamed_addr constant [7 x i8] c"normal\00", align 1
@.str.137 = private unnamed_addr constant [58 x i8] c"binary.dump() == \22{\\\22bytes\\\22:[1,2,3,4],\\\22subtype\\\22:null}\22\00", align 1
@.str.138 = private unnamed_addr constant [35 x i8] c"{\22bytes\22:[1,2,3,4],\22subtype\22:null}\00", align 1
@.str.139 = private unnamed_addr constant [57 x i8] c"binary_empty.dump() == \22{\\\22bytes\\\22:[],\\\22subtype\\\22:null}\22\00", align 1
@.str.140 = private unnamed_addr constant [28 x i8] c"{\22bytes\22:[],\22subtype\22:null}\00", align 1
@.str.141 = private unnamed_addr constant [70 x i8] c"binary_with_subtype.dump() == \22{\\\22bytes\\\22:[1,2,3,4],\\\22subtype\\\22:128}\22\00", align 1
@.str.142 = private unnamed_addr constant [34 x i8] c"{\22bytes\22:[1,2,3,4],\22subtype\22:128}\00", align 1
@.str.143 = private unnamed_addr constant [69 x i8] c"binary_empty_with_subtype.dump() == \22{\\\22bytes\\\22:[],\\\22subtype\\\22:128}\22\00", align 1
@.str.144 = private unnamed_addr constant [27 x i8] c"{\22bytes\22:[],\22subtype\22:128}\00", align 1
@.str.145 = private unnamed_addr constant [68 x i8] c"object.dump() == \22{\\\22key\\\22:{\\\22bytes\\\22:[1,2,3,4],\\\22subtype\\\22:null}}\22\00", align 1
@.str.146 = private unnamed_addr constant [43 x i8] c"{\22key\22:{\22bytes\22:[1,2,3,4],\22subtype\22:null}}\00", align 1
@.str.147 = private unnamed_addr constant [67 x i8] c"object_empty.dump() == \22{\\\22key\\\22:{\\\22bytes\\\22:[],\\\22subtype\\\22:null}}\22\00", align 1
@.str.148 = private unnamed_addr constant [36 x i8] c"{\22key\22:{\22bytes\22:[],\22subtype\22:null}}\00", align 1
@.str.149 = private unnamed_addr constant [80 x i8] c"object_with_subtype.dump() == \22{\\\22key\\\22:{\\\22bytes\\\22:[1,2,3,4],\\\22subtype\\\22:128}}\22\00", align 1
@.str.150 = private unnamed_addr constant [42 x i8] c"{\22key\22:{\22bytes\22:[1,2,3,4],\22subtype\22:128}}\00", align 1
@.str.151 = private unnamed_addr constant [79 x i8] c"object_empty_with_subtype.dump() == \22{\\\22key\\\22:{\\\22bytes\\\22:[],\\\22subtype\\\22:128}}\22\00", align 1
@.str.152 = private unnamed_addr constant [35 x i8] c"{\22key\22:{\22bytes\22:[],\22subtype\22:128}}\00", align 1
@.str.153 = private unnamed_addr constant [71 x i8] c"array.dump() == \22[\\\22value\\\22,1,{\\\22bytes\\\22:[1,2,3,4],\\\22subtype\\\22:null}]\22\00", align 1
@.str.154 = private unnamed_addr constant [47 x i8] c"[\22value\22,1,{\22bytes\22:[1,2,3,4],\22subtype\22:null}]\00", align 1
@.str.155 = private unnamed_addr constant [70 x i8] c"array_empty.dump() == \22[\\\22value\\\22,1,{\\\22bytes\\\22:[],\\\22subtype\\\22:null}]\22\00", align 1
@.str.156 = private unnamed_addr constant [40 x i8] c"[\22value\22,1,{\22bytes\22:[],\22subtype\22:null}]\00", align 1
@.str.157 = private unnamed_addr constant [83 x i8] c"array_with_subtype.dump() == \22[\\\22value\\\22,1,{\\\22bytes\\\22:[1,2,3,4],\\\22subtype\\\22:128}]\22\00", align 1
@.str.158 = private unnamed_addr constant [46 x i8] c"[\22value\22,1,{\22bytes\22:[1,2,3,4],\22subtype\22:128}]\00", align 1
@.str.159 = private unnamed_addr constant [82 x i8] c"array_empty_with_subtype.dump() == \22[\\\22value\\\22,1,{\\\22bytes\\\22:[],\\\22subtype\\\22:128}]\22\00", align 1
@.str.160 = private unnamed_addr constant [39 x i8] c"[\22value\22,1,{\22bytes\22:[],\22subtype\22:128}]\00", align 1
@.str.161 = private unnamed_addr constant [15 x i8] c"pretty-printed\00", align 1
@.str.162 = private unnamed_addr constant [87 x i8] c"binary.dump(4) == \22{\\n\22 \22    \\\22bytes\\\22: [1, 2, 3, 4],\\n\22 \22    \\\22subtype\\\22: null\\n\22 \22}\22\00", align 1
@.str.163 = private unnamed_addr constant [51 x i8] c"{\0A    \22bytes\22: [1, 2, 3, 4],\0A    \22subtype\22: null\0A}\00", align 1
@.str.164 = private unnamed_addr constant [83 x i8] c"binary_empty.dump(4) == \22{\\n\22 \22    \\\22bytes\\\22: [],\\n\22 \22    \\\22subtype\\\22: null\\n\22 \22}\22\00", align 1
@.str.165 = private unnamed_addr constant [41 x i8] c"{\0A    \22bytes\22: [],\0A    \22subtype\22: null\0A}\00", align 1
@.str.166 = private unnamed_addr constant [99 x i8] c"binary_with_subtype.dump(4) == \22{\\n\22 \22    \\\22bytes\\\22: [1, 2, 3, 4],\\n\22 \22    \\\22subtype\\\22: 128\\n\22 \22}\22\00", align 1
@.str.167 = private unnamed_addr constant [50 x i8] c"{\0A    \22bytes\22: [1, 2, 3, 4],\0A    \22subtype\22: 128\0A}\00", align 1
@.str.168 = private unnamed_addr constant [95 x i8] c"binary_empty_with_subtype.dump(4) == \22{\\n\22 \22    \\\22bytes\\\22: [],\\n\22 \22    \\\22subtype\\\22: 128\\n\22 \22}\22\00", align 1
@.str.169 = private unnamed_addr constant [40 x i8] c"{\0A    \22bytes\22: [],\0A    \22subtype\22: 128\0A}\00", align 1
@.str.170 = private unnamed_addr constant [124 x i8] c"object.dump(4) == \22{\\n\22 \22    \\\22key\\\22: {\\n\22 \22        \\\22bytes\\\22: [1, 2, 3, 4],\\n\22 \22        \\\22subtype\\\22: null\\n\22 \22    }\\n\22 \22}\22\00", align 1
@.str.171 = private unnamed_addr constant [78 x i8] c"{\0A    \22key\22: {\0A        \22bytes\22: [1, 2, 3, 4],\0A        \22subtype\22: null\0A    }\0A}\00", align 1
@.str.172 = private unnamed_addr constant [120 x i8] c"object_empty.dump(4) == \22{\\n\22 \22    \\\22key\\\22: {\\n\22 \22        \\\22bytes\\\22: [],\\n\22 \22        \\\22subtype\\\22: null\\n\22 \22    }\\n\22 \22}\22\00", align 1
@.str.173 = private unnamed_addr constant [68 x i8] c"{\0A    \22key\22: {\0A        \22bytes\22: [],\0A        \22subtype\22: null\0A    }\0A}\00", align 1
@.str.174 = private unnamed_addr constant [136 x i8] c"object_with_subtype.dump(4) == \22{\\n\22 \22    \\\22key\\\22: {\\n\22 \22        \\\22bytes\\\22: [1, 2, 3, 4],\\n\22 \22        \\\22subtype\\\22: 128\\n\22 \22    }\\n\22 \22}\22\00", align 1
@.str.175 = private unnamed_addr constant [77 x i8] c"{\0A    \22key\22: {\0A        \22bytes\22: [1, 2, 3, 4],\0A        \22subtype\22: 128\0A    }\0A}\00", align 1
@.str.176 = private unnamed_addr constant [132 x i8] c"object_empty_with_subtype.dump(4) == \22{\\n\22 \22    \\\22key\\\22: {\\n\22 \22        \\\22bytes\\\22: [],\\n\22 \22        \\\22subtype\\\22: 128\\n\22 \22    }\\n\22 \22}\22\00", align 1
@.str.177 = private unnamed_addr constant [67 x i8] c"{\0A    \22key\22: {\0A        \22bytes\22: [],\0A        \22subtype\22: 128\0A    }\0A}\00", align 1
@.str.178 = private unnamed_addr constant [144 x i8] c"array.dump(4) == \22[\\n\22 \22    \\\22value\\\22,\\n\22 \22    1,\\n\22 \22    {\\n\22 \22        \\\22bytes\\\22: [1, 2, 3, 4],\\n\22 \22        \\\22subtype\\\22: null\\n\22 \22    }\\n\22 \22]\22\00", align 1
@.str.179 = private unnamed_addr constant [91 x i8] c"[\0A    \22value\22,\0A    1,\0A    {\0A        \22bytes\22: [1, 2, 3, 4],\0A        \22subtype\22: null\0A    }\0A]\00", align 1
@.str.180 = private unnamed_addr constant [140 x i8] c"array_empty.dump(4) == \22[\\n\22 \22    \\\22value\\\22,\\n\22 \22    1,\\n\22 \22    {\\n\22 \22        \\\22bytes\\\22: [],\\n\22 \22        \\\22subtype\\\22: null\\n\22 \22    }\\n\22 \22]\22\00", align 1
@.str.181 = private unnamed_addr constant [81 x i8] c"[\0A    \22value\22,\0A    1,\0A    {\0A        \22bytes\22: [],\0A        \22subtype\22: null\0A    }\0A]\00", align 1
@.str.182 = private unnamed_addr constant [156 x i8] c"array_with_subtype.dump(4) == \22[\\n\22 \22    \\\22value\\\22,\\n\22 \22    1,\\n\22 \22    {\\n\22 \22        \\\22bytes\\\22: [1, 2, 3, 4],\\n\22 \22        \\\22subtype\\\22: 128\\n\22 \22    }\\n\22 \22]\22\00", align 1
@.str.183 = private unnamed_addr constant [90 x i8] c"[\0A    \22value\22,\0A    1,\0A    {\0A        \22bytes\22: [1, 2, 3, 4],\0A        \22subtype\22: 128\0A    }\0A]\00", align 1
@.str.184 = private unnamed_addr constant [152 x i8] c"array_empty_with_subtype.dump(4) == \22[\\n\22 \22    \\\22value\\\22,\\n\22 \22    1,\\n\22 \22    {\\n\22 \22        \\\22bytes\\\22: [],\\n\22 \22        \\\22subtype\\\22: 128\\n\22 \22    }\\n\22 \22]\22\00", align 1
@.str.185 = private unnamed_addr constant [80 x i8] c"[\0A    \22value\22,\0A    1,\0A    {\0A        \22bytes\22: [],\0A        \22subtype\22: 128\0A    }\0A]\00", align 1
@.str.186 = private unnamed_addr constant [41 x i8] c"serialization for extreme integer values\00", align 1
@.str.187 = private unnamed_addr constant [8 x i8] c"minimum\00", align 1
@.str.188 = private unnamed_addr constant [36 x i8] c"j.dump() == std::to_string(minimum)\00", align 1
@.str.189 = private unnamed_addr constant [8 x i8] c"maximum\00", align 1
@.str.190 = private unnamed_addr constant [36 x i8] c"j.dump() == std::to_string(maximum)\00", align 1
@__PRETTY_FUNCTION__._ZN7doctest8toStringIiEENS_6StringEv = private unnamed_addr constant [37 x i8] c"String doctest::toString() [T = int]\00", align 1
@__PRETTY_FUNCTION__._ZN7doctest8toStringIjEENS_6StringEv = private unnamed_addr constant [46 x i8] c"String doctest::toString() [T = unsigned int]\00", align 1
@__PRETTY_FUNCTION__._ZN7doctest8toStringIlEENS_6StringEv = private unnamed_addr constant [38 x i8] c"String doctest::toString() [T = long]\00", align 1
@__PRETTY_FUNCTION__._ZN7doctest8toStringImEENS_6StringEv = private unnamed_addr constant [47 x i8] c"String doctest::toString() [T = unsigned long]\00", align 1
@llvm.global_ctors = appending global [1 x { i32, ptr, ptr }] [{ i32, ptr, ptr } { i32 65535, ptr @_GLOBAL__sub_I_unit_serialization.cpp, ptr null }]

; Function Attrs: uwtable
define internal void @__cxx_global_var_init() #0 section ".text.startup" {
entry:
  %ref.tmp = alloca %"struct.doctest::detail::TestSuite", align 8
  call void @llvm.memset.p0.i64(ptr align 8 %ref.tmp, i8 0, i64 40, i1 false)
  call void @_ZN7doctest6detail9TestSuiteC2Ev(ptr noundef nonnull align 8 dereferenceable(40) %ref.tmp) #16
  %call = call noundef nonnull align 8 dereferenceable(40) ptr @_ZN7doctest6detail9TestSuitemlEPKc(ptr noundef nonnull align 8 dereferenceable(40) %ref.tmp, ptr noundef @.str)
  %call1 = call noundef i32 @_ZN7doctest6detail12setTestSuiteERKNS0_9TestSuiteE(ptr noundef nonnull align 8 dereferenceable(40) %call)
  %call2 = call noundef i32 @_ZN7doctest6detailL7consumeEPKii(ptr noundef @_ZL18DOCTEST_ANON_VAR_0, i32 noundef %call1) #16
  store i32 %call2, ptr @_ZL18DOCTEST_ANON_VAR_0, align 4
  ret void
}

; Function Attrs: mustprogress nounwind uwtable
define internal noundef i32 @_ZN7doctest6detailL7consumeEPKii(ptr noundef %0, i32 noundef %1) #1 {
entry:
  %.addr = alloca ptr, align 8
  %.addr1 = alloca i32, align 4
  store ptr %0, ptr %.addr, align 8
  store i32 %1, ptr %.addr1, align 4
  ret i32 0
}

declare noundef i32 @_ZN7doctest6detail12setTestSuiteERKNS0_9TestSuiteE(ptr noundef nonnull align 8 dereferenceable(40)) #2

; Function Attrs: nocallback nofree nounwind willreturn memory(argmem: write)
declare void @llvm.memset.p0.i64(ptr nocapture writeonly, i8, i64, i1 immarg) #3

; Function Attrs: mustprogress nounwind uwtable
define linkonce_odr dso_local void @_ZN7doctest6detail9TestSuiteC2Ev(ptr noundef nonnull align 8 dereferenceable(40) %this) unnamed_addr #1 comdat align 2 {
entry:
  %this.addr = alloca ptr, align 8
  store ptr %this, ptr %this.addr, align 8
  %this1 = load ptr, ptr %this.addr, align 8
  %m_test_suite = getelementptr inbounds %"struct.doctest::detail::TestSuite", ptr %this1, i32 0, i32 0
  store ptr null, ptr %m_test_suite, align 8
  %m_description = getelementptr inbounds %"struct.doctest::detail::TestSuite", ptr %this1, i32 0, i32 1
  store ptr null, ptr %m_description, align 8
  %m_skip = getelementptr inbounds %"struct.doctest::detail::TestSuite", ptr %this1, i32 0, i32 2
  store i8 0, ptr %m_skip, align 8
  %m_no_breaks = getelementptr inbounds %"struct.doctest::detail::TestSuite", ptr %this1, i32 0, i32 3
  store i8 0, ptr %m_no_breaks, align 1
  %m_no_output = getelementptr inbounds %"struct.doctest::detail::TestSuite", ptr %this1, i32 0, i32 4
  store i8 0, ptr %m_no_output, align 2
  %m_may_fail = getelementptr inbounds %"struct.doctest::detail::TestSuite", ptr %this1, i32 0, i32 5
  store i8 0, ptr %m_may_fail, align 1
  %m_should_fail = getelementptr inbounds %"struct.doctest::detail::TestSuite", ptr %this1, i32 0, i32 6
  store i8 0, ptr %m_should_fail, align 4
  %m_expected_failures = getelementptr inbounds %"struct.doctest::detail::TestSuite", ptr %this1, i32 0, i32 7
  store i32 0, ptr %m_expected_failures, align 8
  %m_timeout = getelementptr inbounds %"struct.doctest::detail::TestSuite", ptr %this1, i32 0, i32 8
  store double 0.000000e+00, ptr %m_timeout, align 8
  ret void
}

declare noundef nonnull align 8 dereferenceable(40) ptr @_ZN7doctest6detail9TestSuitemlEPKc(ptr noundef nonnull align 8 dereferenceable(40), ptr noundef) #2

; Function Attrs: uwtable
define internal void @__cxx_global_var_init.1() #0 section ".text.startup" personality ptr @__gxx_personality_v0 {
entry:
  %ref.tmp = alloca %"struct.doctest::detail::TestCase", align 8
  %ref.tmp1 = alloca %"class.doctest::String", align 8
  %exn.slot = alloca ptr, align 8
  %ehselector.slot = alloca i32, align 4
  %call = call noundef nonnull align 8 dereferenceable(40) ptr @_ZN28doctest_detail_test_suite_ns19getCurrentTestSuiteEv()
  call void @_ZN7doctest6StringC1Ev(ptr noundef nonnull align 8 dereferenceable(24) %ref.tmp1) #16
  invoke void @_ZN7doctest6detail8TestCaseC1EPFvvEPKcjRKNS0_9TestSuiteERKNS_6StringEi(ptr noundef nonnull align 8 dereferenceable(144) %ref.tmp, ptr noundef @_ZL19DOCTEST_ANON_FUNC_2v, ptr noundef @.str.2, i32 noundef 17, ptr noundef nonnull align 8 dereferenceable(40) %call, ptr noundef nonnull align 8 dereferenceable(24) %ref.tmp1, i32 noundef -1)
          to label %invoke.cont unwind label %lpad

invoke.cont:                                      ; preds = %entry
  %call4 = invoke noundef nonnull align 8 dereferenceable(144) ptr @_ZN7doctest6detail8TestCasemlEPKc(ptr noundef nonnull align 8 dereferenceable(144) %ref.tmp, ptr noundef @.str.3)
          to label %invoke.cont3 unwind label %lpad2

invoke.cont3:                                     ; preds = %invoke.cont
  %call6 = invoke noundef i32 @_ZN7doctest6detail7regTestERKNS0_8TestCaseE(ptr noundef nonnull align 8 dereferenceable(144) %call4)
          to label %invoke.cont5 unwind label %lpad2

invoke.cont5:                                     ; preds = %invoke.cont3
  %call7 = call noundef i32 @_ZN7doctest6detailL7consumeEPKii(ptr noundef @_ZL18DOCTEST_ANON_VAR_3, i32 noundef %call6) #16
  call void @_ZN7doctest6detail8TestCaseD2Ev(ptr noundef nonnull align 8 dereferenceable(144) %ref.tmp) #16
  call void @_ZN7doctest6StringD1Ev(ptr noundef nonnull align 8 dereferenceable(24) %ref.tmp1) #16
  store i32 %call7, ptr @_ZL18DOCTEST_ANON_VAR_3, align 4
  ret void

lpad:                                             ; preds = %entry
  %0 = landingpad { ptr, i32 }
          cleanup
  %1 = extractvalue { ptr, i32 } %0, 0
  store ptr %1, ptr %exn.slot, align 8
  %2 = extractvalue { ptr, i32 } %0, 1
  store i32 %2, ptr %ehselector.slot, align 4
  br label %ehcleanup

lpad2:                                            ; preds = %invoke.cont3, %invoke.cont
  %3 = landingpad { ptr, i32 }
          cleanup
  %4 = extractvalue { ptr, i32 } %3, 0
  store ptr %4, ptr %exn.slot, align 8
  %5 = extractvalue { ptr, i32 } %3, 1
  store i32 %5, ptr %ehselector.slot, align 4
  call void @_ZN7doctest6detail8TestCaseD2Ev(ptr noundef nonnull align 8 dereferenceable(144) %ref.tmp) #16
  br label %ehcleanup

ehcleanup:                                        ; preds = %lpad2, %lpad
  call void @_ZN7doctest6StringD1Ev(ptr noundef nonnull align 8 dereferenceable(24) %ref.tmp1) #16
  br label %eh.resume

eh.resume:                                        ; preds = %ehcleanup
  %exn = load ptr, ptr %exn.slot, align 8
  %sel = load i32, ptr %ehselector.slot, align 4
  %lpad.val = insertvalue { ptr, i32 } poison, ptr %exn, 0
  %lpad.val8 = insertvalue { ptr, i32 } %lpad.val, i32 %sel, 1
  resume { ptr, i32 } %lpad.val8
}

declare noundef i32 @_ZN7doctest6detail7regTestERKNS0_8TestCaseE(ptr noundef nonnull align 8 dereferenceable(144)) #2

; Function Attrs: mustprogress uwtable
define internal void @_ZL19DOCTEST_ANON_FUNC_2v() #4 personality ptr @__gxx_personality_v0 {
entry:
  %DOCTEST_ANON_SUBCASE_4 = alloca ptr, align 8
  %ref.tmp = alloca %"struct.doctest::detail::Subcase", align 8
  %ref.tmp1 = alloca %"class.doctest::String", align 8
  %exn.slot = alloca ptr, align 8
  %ehselector.slot = alloca i32, align 4
  %DOCTEST_ANON_SUBCASE_5 = alloca ptr, align 8
  %ref.tmp4 = alloca %"struct.doctest::detail::Subcase", align 8
  %ref.tmp5 = alloca %"class.doctest::String", align 8
  %ss = alloca %"class.std::__cxx11::basic_stringstream", align 8
  %j = alloca %"class.nlohmann::json_abi_v3_11_3::basic_json", align 8
  %agg.tmp = alloca %"class.std::initializer_list", align 8
  %ref.tmp14 = alloca [6 x %"class.nlohmann::json_abi_v3_11_3::detail::json_ref"], align 8
  %arrayinit.endOfInit = alloca ptr, align 8
  %ref.tmp17 = alloca i32, align 4
  %ref.tmp20 = alloca i32, align 4
  %ref.tmp23 = alloca i32, align 4
  %ref.tmp26 = alloca i8, align 1
  %agg.tmp29 = alloca %"class.std::initializer_list", align 8
  %ref.tmp30 = alloca [1 x %"class.nlohmann::json_abi_v3_11_3::detail::json_ref"], align 8
  %arrayinit.endOfInit32 = alloca ptr, align 8
  %agg.tmp33 = alloca %"class.std::initializer_list", align 8
  %ref.tmp34 = alloca [2 x %"class.nlohmann::json_abi_v3_11_3::detail::json_ref"], align 8
  %arrayinit.endOfInit36 = alloca ptr, align 8
  %ref.tmp40 = alloca i32, align 4
  %cleanup.isactive = alloca i1, align 1
  %cleanup.isactive50 = alloca i1, align 1
  %ref.tmp112 = alloca %"struct.doctest::detail::Result", align 8
  %ref.tmp113 = alloca %"struct.doctest::detail::Expression_lhs", align 8
  %ref.tmp114 = alloca %"struct.doctest::detail::ExpressionDecomposer", align 4
  %ref.tmp116 = alloca %"class.std::__cxx11::basic_string", align 8
  %DOCTEST_ANON_SUBCASE_6 = alloca ptr, align 8
  %ref.tmp131 = alloca %"struct.doctest::detail::Subcase", align 8
  %ref.tmp132 = alloca %"class.doctest::String", align 8
  %ss141 = alloca %"class.std::__cxx11::basic_stringstream", align 8
  %j143 = alloca %"class.nlohmann::json_abi_v3_11_3::basic_json", align 8
  %agg.tmp144 = alloca %"class.std::initializer_list", align 8
  %ref.tmp145 = alloca [6 x %"class.nlohmann::json_abi_v3_11_3::detail::json_ref"], align 8
  %arrayinit.endOfInit147 = alloca ptr, align 8
  %ref.tmp151 = alloca i32, align 4
  %ref.tmp154 = alloca i32, align 4
  %ref.tmp157 = alloca i32, align 4
  %ref.tmp160 = alloca i8, align 1
  %agg.tmp163 = alloca %"class.std::initializer_list", align 8
  %ref.tmp164 = alloca [1 x %"class.nlohmann::json_abi_v3_11_3::detail::json_ref"], align 8
  %arrayinit.endOfInit166 = alloca ptr, align 8
  %agg.tmp167 = alloca %"class.std::initializer_list", align 8
  %ref.tmp168 = alloca [2 x %"class.nlohmann::json_abi_v3_11_3::detail::json_ref"], align 8
  %arrayinit.endOfInit170 = alloca ptr, align 8
  %ref.tmp174 = alloca i32, align 4
  %cleanup.isactive188 = alloca i1, align 1
  %cleanup.isactive194 = alloca i1, align 1
  %agg.tmp260 = alloca %"struct.std::_Setw", align 4
  %ref.tmp269 = alloca %"struct.doctest::detail::Result", align 8
  %ref.tmp270 = alloca %"struct.doctest::detail::Expression_lhs", align 8
  %ref.tmp271 = alloca %"struct.doctest::detail::ExpressionDecomposer", align 4
  %ref.tmp273 = alloca %"class.std::__cxx11::basic_string", align 8
  %DOCTEST_ANON_SUBCASE_7 = alloca ptr, align 8
  %ref.tmp289 = alloca %"struct.doctest::detail::Subcase", align 8
  %ref.tmp290 = alloca %"class.doctest::String", align 8
  %ss299 = alloca %"class.std::__cxx11::basic_stringstream", align 8
  %j301 = alloca %"class.nlohmann::json_abi_v3_11_3::basic_json", align 8
  %agg.tmp302 = alloca %"class.std::initializer_list", align 8
  %ref.tmp303 = alloca [6 x %"class.nlohmann::json_abi_v3_11_3::detail::json_ref"], align 8
  %arrayinit.endOfInit305 = alloca ptr, align 8
  %ref.tmp309 = alloca i32, align 4
  %ref.tmp312 = alloca i32, align 4
  %ref.tmp315 = alloca i32, align 4
  %ref.tmp318 = alloca i8, align 1
  %agg.tmp321 = alloca %"class.std::initializer_list", align 8
  %ref.tmp322 = alloca [1 x %"class.nlohmann::json_abi_v3_11_3::detail::json_ref"], align 8
  %arrayinit.endOfInit324 = alloca ptr, align 8
  %agg.tmp325 = alloca %"class.std::initializer_list", align 8
  %ref.tmp326 = alloca [2 x %"class.nlohmann::json_abi_v3_11_3::detail::json_ref"], align 8
  %arrayinit.endOfInit328 = alloca ptr, align 8
  %ref.tmp332 = alloca i32, align 4
  %cleanup.isactive346 = alloca i1, align 1
  %cleanup.isactive352 = alloca i1, align 1
  %agg.tmp418 = alloca %"struct.std::_Setw", align 4
  %agg.tmp426 = alloca %"struct.std::_Setfill", align 1
  %ref.tmp435 = alloca %"struct.doctest::detail::Result", align 8
  %ref.tmp436 = alloca %"struct.doctest::detail::Expression_lhs", align 8
  %ref.tmp437 = alloca %"struct.doctest::detail::ExpressionDecomposer", align 4
  %ref.tmp439 = alloca %"class.std::__cxx11::basic_string", align 8
  %DOCTEST_ANON_SUBCASE_8 = alloca ptr, align 8
  %ref.tmp457 = alloca %"struct.doctest::detail::Subcase", align 8
  %ref.tmp458 = alloca %"class.doctest::String", align 8
  %DOCTEST_ANON_SUBCASE_9 = alloca ptr, align 8
  %ref.tmp466 = alloca %"struct.doctest::detail::Subcase", align 8
  %ref.tmp467 = alloca %"class.doctest::String", align 8
  %ss476 = alloca %"class.std::__cxx11::basic_stringstream", align 8
  %j478 = alloca %"class.nlohmann::json_abi_v3_11_3::basic_json", align 8
  %agg.tmp479 = alloca %"class.std::initializer_list", align 8
  %ref.tmp480 = alloca [6 x %"class.nlohmann::json_abi_v3_11_3::detail::json_ref"], align 8
  %arrayinit.endOfInit482 = alloca ptr, align 8
  %ref.tmp486 = alloca i32, align 4
  %ref.tmp489 = alloca i32, align 4
  %ref.tmp492 = alloca i32, align 4
  %ref.tmp495 = alloca i8, align 1
  %agg.tmp498 = alloca %"class.std::initializer_list", align 8
  %ref.tmp499 = alloca [1 x %"class.nlohmann::json_abi_v3_11_3::detail::json_ref"], align 8
  %arrayinit.endOfInit501 = alloca ptr, align 8
  %agg.tmp502 = alloca %"class.std::initializer_list", align 8
  %ref.tmp503 = alloca [2 x %"class.nlohmann::json_abi_v3_11_3::detail::json_ref"], align 8
  %arrayinit.endOfInit505 = alloca ptr, align 8
  %ref.tmp509 = alloca i32, align 4
  %cleanup.isactive523 = alloca i1, align 1
  %cleanup.isactive529 = alloca i1, align 1
  %ref.tmp598 = alloca %"struct.doctest::detail::Result", align 8
  %ref.tmp599 = alloca %"struct.doctest::detail::Expression_lhs", align 8
  %ref.tmp600 = alloca %"struct.doctest::detail::ExpressionDecomposer", align 4
  %ref.tmp602 = alloca %"class.std::__cxx11::basic_string", align 8
  %DOCTEST_ANON_SUBCASE_10 = alloca ptr, align 8
  %ref.tmp618 = alloca %"struct.doctest::detail::Subcase", align 8
  %ref.tmp619 = alloca %"class.doctest::String", align 8
  %ss628 = alloca %"class.std::__cxx11::basic_stringstream", align 8
  %j630 = alloca %"class.nlohmann::json_abi_v3_11_3::basic_json", align 8
  %agg.tmp631 = alloca %"class.std::initializer_list", align 8
  %ref.tmp632 = alloca [6 x %"class.nlohmann::json_abi_v3_11_3::detail::json_ref"], align 8
  %arrayinit.endOfInit634 = alloca ptr, align 8
  %ref.tmp638 = alloca i32, align 4
  %ref.tmp641 = alloca i32, align 4
  %ref.tmp644 = alloca i32, align 4
  %ref.tmp647 = alloca i8, align 1
  %agg.tmp650 = alloca %"class.std::initializer_list", align 8
  %ref.tmp651 = alloca [1 x %"class.nlohmann::json_abi_v3_11_3::detail::json_ref"], align 8
  %arrayinit.endOfInit653 = alloca ptr, align 8
  %agg.tmp654 = alloca %"class.std::initializer_list", align 8
  %ref.tmp655 = alloca [2 x %"class.nlohmann::json_abi_v3_11_3::detail::json_ref"], align 8
  %arrayinit.endOfInit657 = alloca ptr, align 8
  %ref.tmp661 = alloca i32, align 4
  %cleanup.isactive675 = alloca i1, align 1
  %cleanup.isactive681 = alloca i1, align 1
  %ref.tmp753 = alloca %"struct.doctest::detail::Result", align 8
  %ref.tmp754 = alloca %"struct.doctest::detail::Expression_lhs", align 8
  %ref.tmp755 = alloca %"struct.doctest::detail::ExpressionDecomposer", align 4
  %ref.tmp757 = alloca %"class.std::__cxx11::basic_string", align 8
  %DOCTEST_ANON_SUBCASE_11 = alloca ptr, align 8
  %ref.tmp773 = alloca %"struct.doctest::detail::Subcase", align 8
  %ref.tmp774 = alloca %"class.doctest::String", align 8
  %ss783 = alloca %"class.std::__cxx11::basic_stringstream", align 8
  %j785 = alloca %"class.nlohmann::json_abi_v3_11_3::basic_json", align 8
  %agg.tmp786 = alloca %"class.std::initializer_list", align 8
  %ref.tmp787 = alloca [6 x %"class.nlohmann::json_abi_v3_11_3::detail::json_ref"], align 8
  %arrayinit.endOfInit789 = alloca ptr, align 8
  %ref.tmp793 = alloca i32, align 4
  %ref.tmp796 = alloca i32, align 4
  %ref.tmp799 = alloca i32, align 4
  %ref.tmp802 = alloca i8, align 1
  %agg.tmp805 = alloca %"class.std::initializer_list", align 8
  %ref.tmp806 = alloca [1 x %"class.nlohmann::json_abi_v3_11_3::detail::json_ref"], align 8
  %arrayinit.endOfInit808 = alloca ptr, align 8
  %agg.tmp809 = alloca %"class.std::initializer_list", align 8
  %ref.tmp810 = alloca [2 x %"class.nlohmann::json_abi_v3_11_3::detail::json_ref"], align 8
  %arrayinit.endOfInit812 = alloca ptr, align 8
  %ref.tmp816 = alloca i32, align 4
  %cleanup.isactive830 = alloca i1, align 1
  %cleanup.isactive836 = alloca i1, align 1
  %ref.tmp917 = alloca %"struct.doctest::detail::Result", align 8
  %ref.tmp918 = alloca %"struct.doctest::detail::Expression_lhs", align 8
  %ref.tmp919 = alloca %"struct.doctest::detail::ExpressionDecomposer", align 4
  %ref.tmp921 = alloca %"class.std::__cxx11::basic_string", align 8
  %DOCTEST_ANON_SUBCASE_12 = alloca ptr, align 8
  %ref.tmp939 = alloca %"struct.doctest::detail::Subcase", align 8
  %ref.tmp940 = alloca %"class.doctest::String", align 8
  %DOCTEST_ANON_SUBCASE_13 = alloca ptr, align 8
  %ref.tmp948 = alloca %"struct.doctest::detail::Subcase", align 8
  %ref.tmp949 = alloca %"class.doctest::String", align 8
  %j958 = alloca %"class.nlohmann::json_abi_v3_11_3::basic_json", align 8
  %DOCTEST_RB = alloca %"struct.doctest::detail::ResultBuilder", align 8
  %ref.tmp964 = alloca %"class.doctest::String", align 8
  %agg.tmp.ensured = alloca %"class.std::__cxx11::basic_string", align 8
  %0 = alloca ptr, align 8
  %DOCTEST_RB997 = alloca %"struct.doctest::detail::ResultBuilder", align 8
  %ref.tmp998 = alloca %"class.doctest::String", align 8
  %agg.tmp.ensured1003 = alloca %"class.std::__cxx11::basic_string", align 8
  %1 = alloca ptr, align 8
  %ref.tmp1036 = alloca %"struct.doctest::detail::Result", align 8
  %ref.tmp1037 = alloca %"struct.doctest::detail::Expression_lhs", align 8
  %ref.tmp1038 = alloca %"struct.doctest::detail::ExpressionDecomposer", align 4
  %ref.tmp1040 = alloca %"class.std::__cxx11::basic_string", align 8
  %ref.tmp1052 = alloca %"struct.doctest::detail::Result", align 8
  %ref.tmp1053 = alloca %"struct.doctest::detail::Expression_lhs", align 8
  %ref.tmp1054 = alloca %"struct.doctest::detail::ExpressionDecomposer", align 4
  %ref.tmp1056 = alloca %"class.std::__cxx11::basic_string", align 8
  %ref.tmp1068 = alloca %"struct.doctest::detail::Result", align 8
  %ref.tmp1069 = alloca %"struct.doctest::detail::Expression_lhs", align 8
  %ref.tmp1070 = alloca %"struct.doctest::detail::ExpressionDecomposer", align 4
  %ref.tmp1072 = alloca %"class.std::__cxx11::basic_string", align 8
  %DOCTEST_ANON_SUBCASE_14 = alloca ptr, align 8
  %ref.tmp1087 = alloca %"struct.doctest::detail::Subcase", align 8
  %ref.tmp1088 = alloca %"class.doctest::String", align 8
  %j1097 = alloca %"class.nlohmann::json_abi_v3_11_3::basic_json", align 8
  %DOCTEST_RB1106 = alloca %"struct.doctest::detail::ResultBuilder", align 8
  %ref.tmp1107 = alloca %"class.doctest::String", align 8
  %agg.tmp.ensured1112 = alloca %"class.std::__cxx11::basic_string", align 8
  %2 = alloca ptr, align 8
  %DOCTEST_RB1151 = alloca %"struct.doctest::detail::ResultBuilder", align 8
  %ref.tmp1152 = alloca %"class.doctest::String", align 8
  %agg.tmp.ensured1157 = alloca %"class.std::__cxx11::basic_string", align 8
  %3 = alloca ptr, align 8
  %ref.tmp1190 = alloca %"struct.doctest::detail::Result", align 8
  %ref.tmp1191 = alloca %"struct.doctest::detail::Expression_lhs", align 8
  %ref.tmp1192 = alloca %"struct.doctest::detail::ExpressionDecomposer", align 4
  %ref.tmp1194 = alloca %"class.std::__cxx11::basic_string", align 8
  %ref.tmp1206 = alloca %"struct.doctest::detail::Result", align 8
  %ref.tmp1207 = alloca %"struct.doctest::detail::Expression_lhs", align 8
  %ref.tmp1208 = alloca %"struct.doctest::detail::ExpressionDecomposer", align 4
  %ref.tmp1210 = alloca %"class.std::__cxx11::basic_string", align 8
  %ref.tmp1222 = alloca %"struct.doctest::detail::Result", align 8
  %ref.tmp1223 = alloca %"struct.doctest::detail::Expression_lhs", align 8
  %ref.tmp1224 = alloca %"struct.doctest::detail::ExpressionDecomposer", align 4
  %ref.tmp1226 = alloca %"class.std::__cxx11::basic_string", align 8
  %DOCTEST_ANON_SUBCASE_15 = alloca ptr, align 8
  %ref.tmp1241 = alloca %"struct.doctest::detail::Subcase", align 8
  %ref.tmp1242 = alloca %"class.doctest::String", align 8
  %j1251 = alloca %"class.nlohmann::json_abi_v3_11_3::basic_json", align 8
  %DOCTEST_RB1260 = alloca %"struct.doctest::detail::ResultBuilder", align 8
  %ref.tmp1261 = alloca %"class.doctest::String", align 8
  %agg.tmp.ensured1266 = alloca %"class.std::__cxx11::basic_string", align 8
  %4 = alloca ptr, align 8
  %DOCTEST_RB1305 = alloca %"struct.doctest::detail::ResultBuilder", align 8
  %ref.tmp1306 = alloca %"class.doctest::String", align 8
  %agg.tmp.ensured1311 = alloca %"class.std::__cxx11::basic_string", align 8
  %5 = alloca ptr, align 8
  %ref.tmp1344 = alloca %"struct.doctest::detail::Result", align 8
  %ref.tmp1345 = alloca %"struct.doctest::detail::Expression_lhs", align 8
  %ref.tmp1346 = alloca %"struct.doctest::detail::ExpressionDecomposer", align 4
  %ref.tmp1348 = alloca %"class.std::__cxx11::basic_string", align 8
  %ref.tmp1360 = alloca %"struct.doctest::detail::Result", align 8
  %ref.tmp1361 = alloca %"struct.doctest::detail::Expression_lhs", align 8
  %ref.tmp1362 = alloca %"struct.doctest::detail::ExpressionDecomposer", align 4
  %ref.tmp1364 = alloca %"class.std::__cxx11::basic_string", align 8
  %ref.tmp1376 = alloca %"struct.doctest::detail::Result", align 8
  %ref.tmp1377 = alloca %"struct.doctest::detail::Expression_lhs", align 8
  %ref.tmp1378 = alloca %"struct.doctest::detail::ExpressionDecomposer", align 4
  %ref.tmp1380 = alloca %"class.std::__cxx11::basic_string", align 8
  %DOCTEST_ANON_SUBCASE_16 = alloca ptr, align 8
  %ref.tmp1395 = alloca %"struct.doctest::detail::Subcase", align 8
  %ref.tmp1396 = alloca %"class.doctest::String", align 8
  %test = alloca %class.anon, align 1
  %ref.tmp1405 = alloca %"class.std::__cxx11::basic_string", align 8
  %ref.tmp1406 = alloca %"class.std::allocator", align 1
  %ref.tmp1409 = alloca %"class.std::__cxx11::basic_string", align 8
  %ref.tmp1410 = alloca %"class.std::allocator", align 1
  %ref.tmp1419 = alloca %"class.std::__cxx11::basic_string", align 8
  %ref.tmp1420 = alloca %"class.std::allocator", align 1
  %ref.tmp1423 = alloca %"class.std::__cxx11::basic_string", align 8
  %ref.tmp1424 = alloca %"class.std::allocator", align 1
  %ref.tmp1433 = alloca %"class.std::__cxx11::basic_string", align 8
  %ref.tmp1434 = alloca %"class.std::allocator", align 1
  %ref.tmp1437 = alloca %"class.std::__cxx11::basic_string", align 8
  %ref.tmp1438 = alloca %"class.std::allocator", align 1
  %ref.tmp1447 = alloca %"class.std::__cxx11::basic_string", align 8
  %ref.tmp1448 = alloca %"class.std::allocator", align 1
  %ref.tmp1451 = alloca %"class.std::__cxx11::basic_string", align 8
  %ref.tmp1452 = alloca %"class.std::allocator", align 1
  %ref.tmp1461 = alloca %"class.std::__cxx11::basic_string", align 8
  %ref.tmp1462 = alloca %"class.std::allocator", align 1
  %ref.tmp1465 = alloca %"class.std::__cxx11::basic_string", align 8
  %ref.tmp1466 = alloca %"class.std::allocator", align 1
  %ref.tmp1475 = alloca %"class.std::__cxx11::basic_string", align 8
  %ref.tmp1476 = alloca %"class.std::allocator", align 1
  %ref.tmp1479 = alloca %"class.std::__cxx11::basic_string", align 8
  %ref.tmp1480 = alloca %"class.std::allocator", align 1
  %ref.tmp1489 = alloca %"class.std::__cxx11::basic_string", align 8
  %ref.tmp1490 = alloca %"class.std::allocator", align 1
  %ref.tmp1493 = alloca %"class.std::__cxx11::basic_string", align 8
  %ref.tmp1494 = alloca %"class.std::allocator", align 1
  %ref.tmp1503 = alloca %"class.std::__cxx11::basic_string", align 8
  %ref.tmp1504 = alloca %"class.std::allocator", align 1
  %ref.tmp1507 = alloca %"class.std::__cxx11::basic_string", align 8
  %ref.tmp1508 = alloca %"class.std::allocator", align 1
  %ref.tmp1517 = alloca %"class.std::__cxx11::basic_string", align 8
  %ref.tmp1518 = alloca %"class.std::allocator", align 1
  %ref.tmp1521 = alloca %"class.std::__cxx11::basic_string", align 8
  %ref.tmp1522 = alloca %"class.std::allocator", align 1
  %ref.tmp1531 = alloca %"class.std::__cxx11::basic_string", align 8
  %ref.tmp1532 = alloca %"class.std::allocator", align 1
  %ref.tmp1535 = alloca %"class.std::__cxx11::basic_string", align 8
  %ref.tmp1536 = alloca %"class.std::allocator", align 1
  %ref.tmp1545 = alloca %"class.std::__cxx11::basic_string", align 8
  %ref.tmp1546 = alloca %"class.std::allocator", align 1
  %ref.tmp1549 = alloca %"class.std::__cxx11::basic_string", align 8
  %ref.tmp1550 = alloca %"class.std::allocator", align 1
  %ref.tmp1559 = alloca %"class.std::__cxx11::basic_string", align 8
  %ref.tmp1560 = alloca %"class.std::allocator", align 1
  %ref.tmp1563 = alloca %"class.std::__cxx11::basic_string", align 8
  %ref.tmp1564 = alloca %"class.std::allocator", align 1
  %ref.tmp1573 = alloca %"class.std::__cxx11::basic_string", align 8
  %ref.tmp1574 = alloca %"class.std::allocator", align 1
  %ref.tmp1577 = alloca %"class.std::__cxx11::basic_string", align 8
  %ref.tmp1578 = alloca %"class.std::allocator", align 1
  %ref.tmp1587 = alloca %"class.std::__cxx11::basic_string", align 8
  %ref.tmp1588 = alloca %"class.std::allocator", align 1
  %ref.tmp1591 = alloca %"class.std::__cxx11::basic_string", align 8
  %ref.tmp1592 = alloca %"class.std::allocator", align 1
  %ref.tmp1601 = alloca %"class.std::__cxx11::basic_string", align 8
  %ref.tmp1602 = alloca %"class.std::allocator", align 1
  %ref.tmp1605 = alloca %"class.std::__cxx11::basic_string", align 8
  %ref.tmp1606 = alloca %"class.std::allocator", align 1
  %ref.tmp1615 = alloca %"class.std::__cxx11::basic_string", align 8
  %ref.tmp1616 = alloca %"class.std::allocator", align 1
  %ref.tmp1619 = alloca %"class.std::__cxx11::basic_string", align 8
  %ref.tmp1620 = alloca %"class.std::allocator", align 1
  %ref.tmp1629 = alloca %"class.std::__cxx11::basic_string", align 8
  %ref.tmp1630 = alloca %"class.std::allocator", align 1
  %ref.tmp1633 = alloca %"class.std::__cxx11::basic_string", align 8
  %ref.tmp1634 = alloca %"class.std::allocator", align 1
  %ref.tmp1643 = alloca %"class.std::__cxx11::basic_string", align 8
  %ref.tmp1644 = alloca %"class.std::allocator", align 1
  %ref.tmp1647 = alloca %"class.std::__cxx11::basic_string", align 8
  %ref.tmp1648 = alloca %"class.std::allocator", align 1
  %ref.tmp1657 = alloca %"class.std::__cxx11::basic_string", align 8
  %ref.tmp1658 = alloca %"class.std::allocator", align 1
  %ref.tmp1661 = alloca %"class.std::__cxx11::basic_string", align 8
  %ref.tmp1662 = alloca %"class.std::allocator", align 1
  %DOCTEST_ANON_SUBCASE_17 = alloca ptr, align 8
  %ref.tmp1675 = alloca %"struct.doctest::detail::Subcase", align 8
  %ref.tmp1676 = alloca %"class.doctest::String", align 8
  %test1684 = alloca %class.anon.1, align 1
  %ref.tmp1685 = alloca %"class.std::__cxx11::basic_string", align 8
  %ref.tmp1686 = alloca %"class.std::allocator", align 1
  %ref.tmp1689 = alloca %"class.std::__cxx11::basic_string", align 8
  %ref.tmp1690 = alloca %"class.std::allocator", align 1
  %ref.tmp1699 = alloca %"class.std::__cxx11::basic_string", align 8
  %ref.tmp1700 = alloca %"class.std::allocator", align 1
  %ref.tmp1703 = alloca %"class.std::__cxx11::basic_string", align 8
  %ref.tmp1704 = alloca %"class.std::allocator", align 1
  %ref.tmp1713 = alloca %"class.std::__cxx11::basic_string", align 8
  %ref.tmp1714 = alloca %"class.std::allocator", align 1
  %ref.tmp1717 = alloca %"class.std::__cxx11::basic_string", align 8
  %ref.tmp1718 = alloca %"class.std::allocator", align 1
  %ref.tmp1727 = alloca %"class.std::__cxx11::basic_string", align 8
  %ref.tmp1728 = alloca %"class.std::allocator", align 1
  %ref.tmp1731 = alloca %"class.std::__cxx11::basic_string", align 8
  %ref.tmp1732 = alloca %"class.std::allocator", align 1
  call void @_ZN7doctest6StringC1EPKc(ptr noundef nonnull align 8 dereferenceable(24) %ref.tmp1, ptr noundef @.str.7)
  invoke void @_ZN7doctest6detail7SubcaseC1ERKNS_6StringEPKci(ptr noundef nonnull align 8 dereferenceable(41) %ref.tmp, ptr noundef nonnull align 8 dereferenceable(24) %ref.tmp1, ptr noundef @.str.2, i32 noundef 19)
          to label %invoke.cont unwind label %lpad

invoke.cont:                                      ; preds = %entry
  call void @_ZN7doctest6StringD1Ev(ptr noundef nonnull align 8 dereferenceable(24) %ref.tmp1) #16
  store ptr %ref.tmp, ptr %DOCTEST_ANON_SUBCASE_4, align 8
  %6 = load ptr, ptr %DOCTEST_ANON_SUBCASE_4, align 8
  %call = invoke noundef zeroext i1 @_ZNK7doctest6detail7SubcasecvbEv(ptr noundef nonnull align 8 dereferenceable(41) %6)
          to label %invoke.cont3 unwind label %lpad2

invoke.cont3:                                     ; preds = %invoke.cont
  br i1 %call, label %if.then, label %if.end455

if.then:                                          ; preds = %invoke.cont3
  invoke void @_ZN7doctest6StringC1EPKc(ptr noundef nonnull align 8 dereferenceable(24) %ref.tmp5, ptr noundef @.str.8)
          to label %invoke.cont6 unwind label %lpad2

invoke.cont6:                                     ; preds = %if.then
  invoke void @_ZN7doctest6detail7SubcaseC1ERKNS_6StringEPKci(ptr noundef nonnull align 8 dereferenceable(41) %ref.tmp4, ptr noundef nonnull align 8 dereferenceable(24) %ref.tmp5, ptr noundef @.str.2, i32 noundef 21)
          to label %invoke.cont8 unwind label %lpad7

invoke.cont8:                                     ; preds = %invoke.cont6
  call void @_ZN7doctest6StringD1Ev(ptr noundef nonnull align 8 dereferenceable(24) %ref.tmp5) #16
  store ptr %ref.tmp4, ptr %DOCTEST_ANON_SUBCASE_5, align 8
  %7 = load ptr, ptr %DOCTEST_ANON_SUBCASE_5, align 8
  %call11 = invoke noundef zeroext i1 @_ZNK7doctest6detail7SubcasecvbEv(ptr noundef nonnull align 8 dereferenceable(41) %7)
          to label %invoke.cont10 unwind label %lpad9

invoke.cont10:                                    ; preds = %invoke.cont8
  br i1 %call11, label %if.then12, label %if.end

if.then12:                                        ; preds = %invoke.cont10
  invoke void @_ZNSt7__cxx1118basic_stringstreamIcSt11char_traitsIcESaIcEEC1Ev(ptr noundef nonnull align 8 dereferenceable(128) %ss)
          to label %invoke.cont13 unwind label %lpad9

invoke.cont13:                                    ; preds = %if.then12
  %arrayinit.begin = getelementptr inbounds [6 x %"class.nlohmann::json_abi_v3_11_3::detail::json_ref"], ptr %ref.tmp14, i64 0, i64 0
  store i1 true, ptr %cleanup.isactive50, align 1
  store ptr %arrayinit.begin, ptr %arrayinit.endOfInit, align 8
  invoke void @_ZN8nlohmann16json_abi_v3_11_36detail8json_refINS0_10basic_jsonISt3mapSt6vectorNSt7__cxx1112basic_stringIcSt11char_traitsIcESaIcEEEblmdSaNS0_14adl_serializerES5_IhSaIhEEvEEEC2IJRA4_KcETnNSt9enable_ifIXsr3std16is_constructibleISF_DpT_EE5valueEiE4typeELi0EEEDpOSM_(ptr noundef nonnull align 8 dereferenceable(24) %arrayinit.begin, ptr noundef nonnull align 1 dereferenceable(4) @.str.9)
          to label %invoke.cont16 unwind label %lpad15

invoke.cont16:                                    ; preds = %invoke.cont13
  %arrayinit.element = getelementptr inbounds %"class.nlohmann::json_abi_v3_11_3::detail::json_ref", ptr %arrayinit.begin, i64 1
  store ptr %arrayinit.element, ptr %arrayinit.endOfInit, align 8
  store i32 1, ptr %ref.tmp17, align 4
  invoke void @_ZN8nlohmann16json_abi_v3_11_36detail8json_refINS0_10basic_jsonISt3mapSt6vectorNSt7__cxx1112basic_stringIcSt11char_traitsIcESaIcEEEblmdSaNS0_14adl_serializerES5_IhSaIhEEvEEEC2IJiETnNSt9enable_ifIXsr3std16is_constructibleISF_DpT_EE5valueEiE4typeELi0EEEDpOSJ_(ptr noundef nonnull align 8 dereferenceable(24) %arrayinit.element, ptr noundef nonnull align 4 dereferenceable(4) %ref.tmp17)
          to label %invoke.cont18 unwind label %lpad15

invoke.cont18:                                    ; preds = %invoke.cont16
  %arrayinit.element19 = getelementptr inbounds %"class.nlohmann::json_abi_v3_11_3::detail::json_ref", ptr %arrayinit.element, i64 1
  store ptr %arrayinit.element19, ptr %arrayinit.endOfInit, align 8
  store i32 2, ptr %ref.tmp20, align 4
  invoke void @_ZN8nlohmann16json_abi_v3_11_36detail8json_refINS0_10basic_jsonISt3mapSt6vectorNSt7__cxx1112basic_stringIcSt11char_traitsIcESaIcEEEblmdSaNS0_14adl_serializerES5_IhSaIhEEvEEEC2IJiETnNSt9enable_ifIXsr3std16is_constructibleISF_DpT_EE5valueEiE4typeELi0EEEDpOSJ_(ptr noundef nonnull align 8 dereferenceable(24) %arrayinit.element19, ptr noundef nonnull align 4 dereferenceable(4) %ref.tmp20)
          to label %invoke.cont21 unwind label %lpad15

invoke.cont21:                                    ; preds = %invoke.cont18
  %arrayinit.element22 = getelementptr inbounds %"class.nlohmann::json_abi_v3_11_3::detail::json_ref", ptr %arrayinit.element19, i64 1
  store ptr %arrayinit.element22, ptr %arrayinit.endOfInit, align 8
  store i32 3, ptr %ref.tmp23, align 4
  invoke void @_ZN8nlohmann16json_abi_v3_11_36detail8json_refINS0_10basic_jsonISt3mapSt6vectorNSt7__cxx1112basic_stringIcSt11char_traitsIcESaIcEEEblmdSaNS0_14adl_serializerES5_IhSaIhEEvEEEC2IJiETnNSt9enable_ifIXsr3std16is_constructibleISF_DpT_EE5valueEiE4typeELi0EEEDpOSJ_(ptr noundef nonnull align 8 dereferenceable(24) %arrayinit.element22, ptr noundef nonnull align 4 dereferenceable(4) %ref.tmp23)
          to label %invoke.cont24 unwind label %lpad15

invoke.cont24:                                    ; preds = %invoke.cont21
  %arrayinit.element25 = getelementptr inbounds %"class.nlohmann::json_abi_v3_11_3::detail::json_ref", ptr %arrayinit.element22, i64 1
  store ptr %arrayinit.element25, ptr %arrayinit.endOfInit, align 8
  store i8 0, ptr %ref.tmp26, align 1
  invoke void @_ZN8nlohmann16json_abi_v3_11_36detail8json_refINS0_10basic_jsonISt3mapSt6vectorNSt7__cxx1112basic_stringIcSt11char_traitsIcESaIcEEEblmdSaNS0_14adl_serializerES5_IhSaIhEEvEEEC2IJbETnNSt9enable_ifIXsr3std16is_constructibleISF_DpT_EE5valueEiE4typeELi0EEEDpOSJ_(ptr noundef nonnull align 8 dereferenceable(24) %arrayinit.element25, ptr noundef nonnull align 1 dereferenceable(1) %ref.tmp26)
          to label %invoke.cont27 unwind label %lpad15

invoke.cont27:                                    ; preds = %invoke.cont24
  %arrayinit.element28 = getelementptr inbounds %"class.nlohmann::json_abi_v3_11_3::detail::json_ref", ptr %arrayinit.element25, i64 1
  store ptr %arrayinit.element28, ptr %arrayinit.endOfInit, align 8
  %arrayinit.begin31 = getelementptr inbounds [1 x %"class.nlohmann::json_abi_v3_11_3::detail::json_ref"], ptr %ref.tmp30, i64 0, i64 0
  store i1 true, ptr %cleanup.isactive, align 1
  store ptr %arrayinit.begin31, ptr %arrayinit.endOfInit32, align 8
  %arrayinit.begin35 = getelementptr inbounds [2 x %"class.nlohmann::json_abi_v3_11_3::detail::json_ref"], ptr %ref.tmp34, i64 0, i64 0
  store ptr %arrayinit.begin35, ptr %arrayinit.endOfInit36, align 8
  invoke void @_ZN8nlohmann16json_abi_v3_11_36detail8json_refINS0_10basic_jsonISt3mapSt6vectorNSt7__cxx1112basic_stringIcSt11char_traitsIcESaIcEEEblmdSaNS0_14adl_serializerES5_IhSaIhEEvEEEC2IJRA4_KcETnNSt9enable_ifIXsr3std16is_constructibleISF_DpT_EE5valueEiE4typeELi0EEEDpOSM_(ptr noundef nonnull align 8 dereferenceable(24) %arrayinit.begin35, ptr noundef nonnull align 1 dereferenceable(4) @.str.10)
          to label %invoke.cont38 unwind label %lpad37

invoke.cont38:                                    ; preds = %invoke.cont27
  %arrayinit.element39 = getelementptr inbounds %"class.nlohmann::json_abi_v3_11_3::detail::json_ref", ptr %arrayinit.begin35, i64 1
  store ptr %arrayinit.element39, ptr %arrayinit.endOfInit36, align 8
  store i32 1, ptr %ref.tmp40, align 4
  invoke void @_ZN8nlohmann16json_abi_v3_11_36detail8json_refINS0_10basic_jsonISt3mapSt6vectorNSt7__cxx1112basic_stringIcSt11char_traitsIcESaIcEEEblmdSaNS0_14adl_serializerES5_IhSaIhEEvEEEC2IJiETnNSt9enable_ifIXsr3std16is_constructibleISF_DpT_EE5valueEiE4typeELi0EEEDpOSJ_(ptr noundef nonnull align 8 dereferenceable(24) %arrayinit.element39, ptr noundef nonnull align 4 dereferenceable(4) %ref.tmp40)
          to label %invoke.cont41 unwind label %lpad37

invoke.cont41:                                    ; preds = %invoke.cont38
  %_M_array = getelementptr inbounds %"class.std::initializer_list", ptr %agg.tmp33, i32 0, i32 0
  %arraystart = getelementptr inbounds [2 x %"class.nlohmann::json_abi_v3_11_3::detail::json_ref"], ptr %ref.tmp34, i64 0, i64 0
  store ptr %arraystart, ptr %_M_array, align 8
  %_M_len = getelementptr inbounds %"class.std::initializer_list", ptr %agg.tmp33, i32 0, i32 1
  store i64 2, ptr %_M_len, align 8
  %8 = getelementptr inbounds { ptr, i64 }, ptr %agg.tmp33, i32 0, i32 0
  %9 = load ptr, ptr %8, align 8
  %10 = getelementptr inbounds { ptr, i64 }, ptr %agg.tmp33, i32 0, i32 1
  %11 = load i64, ptr %10, align 8
  invoke void @_ZN8nlohmann16json_abi_v3_11_36detail8json_refINS0_10basic_jsonISt3mapSt6vectorNSt7__cxx1112basic_stringIcSt11char_traitsIcESaIcEEEblmdSaNS0_14adl_serializerES5_IhSaIhEEvEEEC2ESt16initializer_listISG_E(ptr noundef nonnull align 8 dereferenceable(24) %arrayinit.begin31, ptr %9, i64 %11)
          to label %invoke.cont44 unwind label %lpad43

invoke.cont44:                                    ; preds = %invoke.cont41
  store i1 false, ptr %cleanup.isactive, align 1
  %_M_array45 = getelementptr inbounds %"class.std::initializer_list", ptr %agg.tmp29, i32 0, i32 0
  %arraystart46 = getelementptr inbounds [1 x %"class.nlohmann::json_abi_v3_11_3::detail::json_ref"], ptr %ref.tmp30, i64 0, i64 0
  store ptr %arraystart46, ptr %_M_array45, align 8
  %_M_len47 = getelementptr inbounds %"class.std::initializer_list", ptr %agg.tmp29, i32 0, i32 1
  store i64 1, ptr %_M_len47, align 8
  %12 = getelementptr inbounds { ptr, i64 }, ptr %agg.tmp29, i32 0, i32 0
  %13 = load ptr, ptr %12, align 8
  %14 = getelementptr inbounds { ptr, i64 }, ptr %agg.tmp29, i32 0, i32 1
  %15 = load i64, ptr %14, align 8
  invoke void @_ZN8nlohmann16json_abi_v3_11_36detail8json_refINS0_10basic_jsonISt3mapSt6vectorNSt7__cxx1112basic_stringIcSt11char_traitsIcESaIcEEEblmdSaNS0_14adl_serializerES5_IhSaIhEEvEEEC2ESt16initializer_listISG_E(ptr noundef nonnull align 8 dereferenceable(24) %arrayinit.element28, ptr %13, i64 %15)
          to label %invoke.cont49 unwind label %lpad48

invoke.cont49:                                    ; preds = %invoke.cont44
  store i1 false, ptr %cleanup.isactive50, align 1
  %_M_array51 = getelementptr inbounds %"class.std::initializer_list", ptr %agg.tmp, i32 0, i32 0
  %arraystart52 = getelementptr inbounds [6 x %"class.nlohmann::json_abi_v3_11_3::detail::json_ref"], ptr %ref.tmp14, i64 0, i64 0
  store ptr %arraystart52, ptr %_M_array51, align 8
  %_M_len53 = getelementptr inbounds %"class.std::initializer_list", ptr %agg.tmp, i32 0, i32 1
  store i64 6, ptr %_M_len53, align 8
  %16 = getelementptr inbounds { ptr, i64 }, ptr %agg.tmp, i32 0, i32 0
  %17 = load ptr, ptr %16, align 8
  %18 = getelementptr inbounds { ptr, i64 }, ptr %agg.tmp, i32 0, i32 1
  %19 = load i64, ptr %18, align 8
  invoke void @_ZN8nlohmann16json_abi_v3_11_310basic_jsonISt3mapSt6vectorNSt7__cxx1112basic_stringIcSt11char_traitsIcESaIcEEEblmdSaNS0_14adl_serializerES3_IhSaIhEEvEC2ESt16initializer_listINS0_6detail8json_refISD_EEEbNSF_7value_tE(ptr noundef nonnull align 8 dereferenceable(16) %j, ptr %17, i64 %19, i1 noundef zeroext true, i8 noundef zeroext 2)
          to label %invoke.cont55 unwind label %lpad54

invoke.cont55:                                    ; preds = %invoke.cont49
  %array.begin = getelementptr inbounds [6 x %"class.nlohmann::json_abi_v3_11_3::detail::json_ref"], ptr %ref.tmp14, i32 0, i32 0
  %20 = getelementptr inbounds %"class.nlohmann::json_abi_v3_11_3::detail::json_ref", ptr %array.begin, i64 6
  br label %arraydestroy.body56

arraydestroy.body56:                              ; preds = %arraydestroy.body56, %invoke.cont55
  %arraydestroy.elementPast57 = phi ptr [ %20, %invoke.cont55 ], [ %arraydestroy.element58, %arraydestroy.body56 ]
  %arraydestroy.element58 = getelementptr inbounds %"class.nlohmann::json_abi_v3_11_3::detail::json_ref", ptr %arraydestroy.elementPast57, i64 -1
  call void @_ZN8nlohmann16json_abi_v3_11_36detail8json_refINS0_10basic_jsonISt3mapSt6vectorNSt7__cxx1112basic_stringIcSt11char_traitsIcESaIcEEEblmdSaNS0_14adl_serializerES5_IhSaIhEEvEEED2Ev(ptr noundef nonnull align 8 dereferenceable(24) %arraydestroy.element58) #16
  %arraydestroy.done59 = icmp eq ptr %arraydestroy.element58, %array.begin
  br i1 %arraydestroy.done59, label %arraydestroy.done60, label %arraydestroy.body56

arraydestroy.done60:                              ; preds = %arraydestroy.body56
  %array.begin67 = getelementptr inbounds [1 x %"class.nlohmann::json_abi_v3_11_3::detail::json_ref"], ptr %ref.tmp30, i32 0, i32 0
  %21 = getelementptr inbounds %"class.nlohmann::json_abi_v3_11_3::detail::json_ref", ptr %array.begin67, i64 1
  br label %arraydestroy.body68

arraydestroy.body68:                              ; preds = %arraydestroy.body68, %arraydestroy.done60
  %arraydestroy.elementPast69 = phi ptr [ %21, %arraydestroy.done60 ], [ %arraydestroy.element70, %arraydestroy.body68 ]
  %arraydestroy.element70 = getelementptr inbounds %"class.nlohmann::json_abi_v3_11_3::detail::json_ref", ptr %arraydestroy.elementPast69, i64 -1
  call void @_ZN8nlohmann16json_abi_v3_11_36detail8json_refINS0_10basic_jsonISt3mapSt6vectorNSt7__cxx1112basic_stringIcSt11char_traitsIcESaIcEEEblmdSaNS0_14adl_serializerES5_IhSaIhEEvEEED2Ev(ptr noundef nonnull align 8 dereferenceable(24) %arraydestroy.element70) #16
  %arraydestroy.done71 = icmp eq ptr %arraydestroy.element70, %array.begin67
  br i1 %arraydestroy.done71, label %arraydestroy.done72, label %arraydestroy.body68

arraydestroy.done72:                              ; preds = %arraydestroy.body68
  %array.begin79 = getelementptr inbounds [2 x %"class.nlohmann::json_abi_v3_11_3::detail::json_ref"], ptr %ref.tmp34, i32 0, i32 0
  %22 = getelementptr inbounds %"class.nlohmann::json_abi_v3_11_3::detail::json_ref", ptr %array.begin79, i64 2
  br label %arraydestroy.body80

arraydestroy.body80:                              ; preds = %arraydestroy.body80, %arraydestroy.done72
  %arraydestroy.elementPast81 = phi ptr [ %22, %arraydestroy.done72 ], [ %arraydestroy.element82, %arraydestroy.body80 ]
  %arraydestroy.element82 = getelementptr inbounds %"class.nlohmann::json_abi_v3_11_3::detail::json_ref", ptr %arraydestroy.elementPast81, i64 -1
  call void @_ZN8nlohmann16json_abi_v3_11_36detail8json_refINS0_10basic_jsonISt3mapSt6vectorNSt7__cxx1112basic_stringIcSt11char_traitsIcESaIcEEEblmdSaNS0_14adl_serializerES5_IhSaIhEEvEEED2Ev(ptr noundef nonnull align 8 dereferenceable(24) %arraydestroy.element82) #16
  %arraydestroy.done83 = icmp eq ptr %arraydestroy.element82, %array.begin79
  br i1 %arraydestroy.done83, label %arraydestroy.done84, label %arraydestroy.body80

arraydestroy.done84:                              ; preds = %arraydestroy.body80
  %add.ptr = getelementptr inbounds i8, ptr %ss, i64 16
  %call111 = invoke noundef nonnull align 8 dereferenceable(8) ptr @_ZN8nlohmann16json_abi_v3_11_3lsERSoRKNS0_10basic_jsonISt3mapSt6vectorNSt7__cxx1112basic_stringIcSt11char_traitsIcESaIcEEEblmdSaNS0_14adl_serializerES4_IhSaIhEEvEE(ptr noundef nonnull align 8 dereferenceable(8) %add.ptr, ptr noundef nonnull align 8 dereferenceable(16) %j)
          to label %invoke.cont110 unwind label %lpad109

invoke.cont110:                                   ; preds = %arraydestroy.done84
  invoke void @_ZN7doctest6detail20ExpressionDecomposerC1ENS_10assertType4EnumE(ptr noundef nonnull align 4 dereferenceable(4) %ref.tmp114, i32 noundef 10)
          to label %invoke.cont115 unwind label %lpad109

invoke.cont115:                                   ; preds = %invoke.cont110
  invoke void @_ZNKSt7__cxx1118basic_stringstreamIcSt11char_traitsIcESaIcEE3strEv(ptr sret(%"class.std::__cxx11::basic_string") align 8 %ref.tmp116, ptr noundef nonnull align 8 dereferenceable(128) %ss)
          to label %invoke.cont117 unwind label %lpad109

invoke.cont117:                                   ; preds = %invoke.cont115
  invoke void @_ZN7doctest6detail20ExpressionDecomposerlsINSt7__cxx1112basic_stringIcSt11char_traitsIcESaIcEEEEENS0_14Expression_lhsIT_EEOSA_(ptr sret(%"struct.doctest::detail::Expression_lhs") align 8 %ref.tmp113, ptr noundef nonnull align 4 dereferenceable(4) %ref.tmp114, ptr noundef nonnull align 8 dereferenceable(32) %ref.tmp116)
          to label %invoke.cont119 unwind label %lpad118

invoke.cont119:                                   ; preds = %invoke.cont117
  invoke void @_ZN7doctest6detail14Expression_lhsINSt7__cxx1112basic_stringIcSt11char_traitsIcESaIcEEEEeqIRA30_KcEEDTcmcvveqclL_ZNS0_7declvalIS7_EEOT_vEEclsr7doctest6detailE7declvalISE_EEtlNS0_6ResultEEESF_(ptr sret(%"struct.doctest::detail::Result") align 8 %ref.tmp112, ptr noundef nonnull align 8 dereferenceable(36) %ref.tmp113, ptr noundef nonnull align 1 dereferenceable(30) @.str.12)
          to label %invoke.cont121 unwind label %lpad120

invoke.cont121:                                   ; preds = %invoke.cont119
  %call124 = invoke noundef zeroext i1 @_ZN7doctest6detail13decomp_assertENS_10assertType4EnumEPKciS4_RKNS0_6ResultE(i32 noundef 10, ptr noundef @.str.2, i32 noundef 26, ptr noundef @.str.11, ptr noundef nonnull align 8 dereferenceable(32) %ref.tmp112)
          to label %invoke.cont123 unwind label %lpad122

invoke.cont123:                                   ; preds = %invoke.cont121
  call void @_ZN7doctest6detail6ResultD2Ev(ptr noundef nonnull align 8 dereferenceable(32) %ref.tmp112) #16
  call void @_ZN7doctest6detail14Expression_lhsINSt7__cxx1112basic_stringIcSt11char_traitsIcESaIcEEEED2Ev(ptr noundef nonnull align 8 dereferenceable(36) %ref.tmp113) #16
  call void @_ZNSt7__cxx1112basic_stringIcSt11char_traitsIcESaIcEED1Ev(ptr noundef nonnull align 8 dereferenceable(32) %ref.tmp116) #16
  call void @_ZN8nlohmann16json_abi_v3_11_310basic_jsonISt3mapSt6vectorNSt7__cxx1112basic_stringIcSt11char_traitsIcESaIcEEEblmdSaNS0_14adl_serializerES3_IhSaIhEEvED2Ev(ptr noundef nonnull align 8 dereferenceable(16) %j) #16
  call void @_ZNSt7__cxx1118basic_stringstreamIcSt11char_traitsIcESaIcEED1Ev(ptr noundef nonnull align 8 dereferenceable(128) %ss) #16
  br label %if.end

lpad:                                             ; preds = %entry
  %23 = landingpad { ptr, i32 }
          cleanup
  %24 = extractvalue { ptr, i32 } %23, 0
  store ptr %24, ptr %exn.slot, align 8
  %25 = extractvalue { ptr, i32 } %23, 1
  store i32 %25, ptr %ehselector.slot, align 4
  call void @_ZN7doctest6StringD1Ev(ptr noundef nonnull align 8 dereferenceable(24) %ref.tmp1) #16
  br label %eh.resume

lpad2:                                            ; preds = %if.end287, %if.end, %if.then, %invoke.cont
  %26 = landingpad { ptr, i32 }
          cleanup
  %27 = extractvalue { ptr, i32 } %26, 0
  store ptr %27, ptr %exn.slot, align 8
  %28 = extractvalue { ptr, i32 } %26, 1
  store i32 %28, ptr %ehselector.slot, align 4
  br label %ehcleanup456

lpad7:                                            ; preds = %invoke.cont6
  %29 = landingpad { ptr, i32 }
          cleanup
  %30 = extractvalue { ptr, i32 } %29, 0
  store ptr %30, ptr %exn.slot, align 8
  %31 = extractvalue { ptr, i32 } %29, 1
  store i32 %31, ptr %ehselector.slot, align 4
  call void @_ZN7doctest6StringD1Ev(ptr noundef nonnull align 8 dereferenceable(24) %ref.tmp5) #16
  br label %ehcleanup456

lpad9:                                            ; preds = %if.then12, %invoke.cont8
  %32 = landingpad { ptr, i32 }
          cleanup
  %33 = extractvalue { ptr, i32 } %32, 0
  store ptr %33, ptr %exn.slot, align 8
  %34 = extractvalue { ptr, i32 } %32, 1
  store i32 %34, ptr %ehselector.slot, align 4
  br label %ehcleanup130

lpad15:                                           ; preds = %invoke.cont24, %invoke.cont21, %invoke.cont18, %invoke.cont16, %invoke.cont13
  %35 = landingpad { ptr, i32 }
          cleanup
  %36 = extractvalue { ptr, i32 } %35, 0
  store ptr %36, ptr %exn.slot, align 8
  %37 = extractvalue { ptr, i32 } %35, 1
  store i32 %37, ptr %ehselector.slot, align 4
  br label %ehcleanup99

lpad37:                                           ; preds = %invoke.cont38, %invoke.cont27
  %38 = landingpad { ptr, i32 }
          cleanup
  %39 = extractvalue { ptr, i32 } %38, 0
  store ptr %39, ptr %exn.slot, align 8
  %40 = extractvalue { ptr, i32 } %38, 1
  store i32 %40, ptr %ehselector.slot, align 4
  %41 = load ptr, ptr %arrayinit.endOfInit36, align 8
  %arraydestroy.isempty = icmp eq ptr %arrayinit.begin35, %41
  br i1 %arraydestroy.isempty, label %arraydestroy.done42, label %arraydestroy.body

arraydestroy.body:                                ; preds = %arraydestroy.body, %lpad37
  %arraydestroy.elementPast = phi ptr [ %41, %lpad37 ], [ %arraydestroy.element, %arraydestroy.body ]
  %arraydestroy.element = getelementptr inbounds %"class.nlohmann::json_abi_v3_11_3::detail::json_ref", ptr %arraydestroy.elementPast, i64 -1
  call void @_ZN8nlohmann16json_abi_v3_11_36detail8json_refINS0_10basic_jsonISt3mapSt6vectorNSt7__cxx1112basic_stringIcSt11char_traitsIcESaIcEEEblmdSaNS0_14adl_serializerES5_IhSaIhEEvEEED2Ev(ptr noundef nonnull align 8 dereferenceable(24) %arraydestroy.element) #16
  %arraydestroy.done = icmp eq ptr %arraydestroy.element, %arrayinit.begin35
  br i1 %arraydestroy.done, label %arraydestroy.done42, label %arraydestroy.body

arraydestroy.done42:                              ; preds = %arraydestroy.body, %lpad37
  br label %ehcleanup92

lpad43:                                           ; preds = %invoke.cont41
  %42 = landingpad { ptr, i32 }
          cleanup
  %43 = extractvalue { ptr, i32 } %42, 0
  store ptr %43, ptr %exn.slot, align 8
  %44 = extractvalue { ptr, i32 } %42, 1
  store i32 %44, ptr %ehselector.slot, align 4
  br label %ehcleanup85

lpad48:                                           ; preds = %invoke.cont44
  %45 = landingpad { ptr, i32 }
          cleanup
  %46 = extractvalue { ptr, i32 } %45, 0
  store ptr %46, ptr %exn.slot, align 8
  %47 = extractvalue { ptr, i32 } %45, 1
  store i32 %47, ptr %ehselector.slot, align 4
  br label %ehcleanup

lpad54:                                           ; preds = %invoke.cont49
  %48 = landingpad { ptr, i32 }
          cleanup
  %49 = extractvalue { ptr, i32 } %48, 0
  store ptr %49, ptr %exn.slot, align 8
  %50 = extractvalue { ptr, i32 } %48, 1
  store i32 %50, ptr %ehselector.slot, align 4
  %array.begin61 = getelementptr inbounds [6 x %"class.nlohmann::json_abi_v3_11_3::detail::json_ref"], ptr %ref.tmp14, i32 0, i32 0
  %51 = getelementptr inbounds %"class.nlohmann::json_abi_v3_11_3::detail::json_ref", ptr %array.begin61, i64 6
  br label %arraydestroy.body62

arraydestroy.body62:                              ; preds = %arraydestroy.body62, %lpad54
  %arraydestroy.elementPast63 = phi ptr [ %51, %lpad54 ], [ %arraydestroy.element64, %arraydestroy.body62 ]
  %arraydestroy.element64 = getelementptr inbounds %"class.nlohmann::json_abi_v3_11_3::detail::json_ref", ptr %arraydestroy.elementPast63, i64 -1
  call void @_ZN8nlohmann16json_abi_v3_11_36detail8json_refINS0_10basic_jsonISt3mapSt6vectorNSt7__cxx1112basic_stringIcSt11char_traitsIcESaIcEEEblmdSaNS0_14adl_serializerES5_IhSaIhEEvEEED2Ev(ptr noundef nonnull align 8 dereferenceable(24) %arraydestroy.element64) #16
  %arraydestroy.done65 = icmp eq ptr %arraydestroy.element64, %array.begin61
  br i1 %arraydestroy.done65, label %arraydestroy.done66, label %arraydestroy.body62

arraydestroy.done66:                              ; preds = %arraydestroy.body62
  br label %ehcleanup

ehcleanup:                                        ; preds = %arraydestroy.done66, %lpad48
  %array.begin73 = getelementptr inbounds [1 x %"class.nlohmann::json_abi_v3_11_3::detail::json_ref"], ptr %ref.tmp30, i32 0, i32 0
  %52 = getelementptr inbounds %"class.nlohmann::json_abi_v3_11_3::detail::json_ref", ptr %array.begin73, i64 1
  br label %arraydestroy.body74

arraydestroy.body74:                              ; preds = %arraydestroy.body74, %ehcleanup
  %arraydestroy.elementPast75 = phi ptr [ %52, %ehcleanup ], [ %arraydestroy.element76, %arraydestroy.body74 ]
  %arraydestroy.element76 = getelementptr inbounds %"class.nlohmann::json_abi_v3_11_3::detail::json_ref", ptr %arraydestroy.elementPast75, i64 -1
  call void @_ZN8nlohmann16json_abi_v3_11_36detail8json_refINS0_10basic_jsonISt3mapSt6vectorNSt7__cxx1112basic_stringIcSt11char_traitsIcESaIcEEEblmdSaNS0_14adl_serializerES5_IhSaIhEEvEEED2Ev(ptr noundef nonnull align 8 dereferenceable(24) %arraydestroy.element76) #16
  %arraydestroy.done77 = icmp eq ptr %arraydestroy.element76, %array.begin73
  br i1 %arraydestroy.done77, label %arraydestroy.done78, label %arraydestroy.body74

arraydestroy.done78:                              ; preds = %arraydestroy.body74
  br label %ehcleanup85

ehcleanup85:                                      ; preds = %arraydestroy.done78, %lpad43
  %array.begin86 = getelementptr inbounds [2 x %"class.nlohmann::json_abi_v3_11_3::detail::json_ref"], ptr %ref.tmp34, i32 0, i32 0
  %53 = getelementptr inbounds %"class.nlohmann::json_abi_v3_11_3::detail::json_ref", ptr %array.begin86, i64 2
  br label %arraydestroy.body87

arraydestroy.body87:                              ; preds = %arraydestroy.body87, %ehcleanup85
  %arraydestroy.elementPast88 = phi ptr [ %53, %ehcleanup85 ], [ %arraydestroy.element89, %arraydestroy.body87 ]
  %arraydestroy.element89 = getelementptr inbounds %"class.nlohmann::json_abi_v3_11_3::detail::json_ref", ptr %arraydestroy.elementPast88, i64 -1
  call void @_ZN8nlohmann16json_abi_v3_11_36detail8json_refINS0_10basic_jsonISt3mapSt6vectorNSt7__cxx1112basic_stringIcSt11char_traitsIcESaIcEEEblmdSaNS0_14adl_serializerES5_IhSaIhEEvEEED2Ev(ptr noundef nonnull align 8 dereferenceable(24) %arraydestroy.element89) #16
  %arraydestroy.done90 = icmp eq ptr %arraydestroy.element89, %array.begin86
  br i1 %arraydestroy.done90, label %arraydestroy.done91, label %arraydestroy.body87

arraydestroy.done91:                              ; preds = %arraydestroy.body87
  br label %ehcleanup92

ehcleanup92:                                      ; preds = %arraydestroy.done91, %arraydestroy.done42
  %cleanup.is_active = load i1, ptr %cleanup.isactive, align 1
  br i1 %cleanup.is_active, label %cleanup.action, label %cleanup.done

cleanup.action:                                   ; preds = %ehcleanup92
  %54 = load ptr, ptr %arrayinit.endOfInit32, align 8
  %arraydestroy.isempty93 = icmp eq ptr %arrayinit.begin31, %54
  br i1 %arraydestroy.isempty93, label %arraydestroy.done98, label %arraydestroy.body94

arraydestroy.body94:                              ; preds = %arraydestroy.body94, %cleanup.action
  %arraydestroy.elementPast95 = phi ptr [ %54, %cleanup.action ], [ %arraydestroy.element96, %arraydestroy.body94 ]
  %arraydestroy.element96 = getelementptr inbounds %"class.nlohmann::json_abi_v3_11_3::detail::json_ref", ptr %arraydestroy.elementPast95, i64 -1
  call void @_ZN8nlohmann16json_abi_v3_11_36detail8json_refINS0_10basic_jsonISt3mapSt6vectorNSt7__cxx1112basic_stringIcSt11char_traitsIcESaIcEEEblmdSaNS0_14adl_serializerES5_IhSaIhEEvEEED2Ev(ptr noundef nonnull align 8 dereferenceable(24) %arraydestroy.element96) #16
  %arraydestroy.done97 = icmp eq ptr %arraydestroy.element96, %arrayinit.begin31
  br i1 %arraydestroy.done97, label %arraydestroy.done98, label %arraydestroy.body94

arraydestroy.done98:                              ; preds = %arraydestroy.body94, %cleanup.action
  br label %cleanup.done

cleanup.done:                                     ; preds = %arraydestroy.done98, %ehcleanup92
  br label %ehcleanup99

ehcleanup99:                                      ; preds = %cleanup.done, %lpad15
  %cleanup.is_active100 = load i1, ptr %cleanup.isactive50, align 1
  br i1 %cleanup.is_active100, label %cleanup.action101, label %cleanup.done108

cleanup.action101:                                ; preds = %ehcleanup99
  %55 = load ptr, ptr %arrayinit.endOfInit, align 8
  %arraydestroy.isempty102 = icmp eq ptr %arrayinit.begin, %55
  br i1 %arraydestroy.isempty102, label %arraydestroy.done107, label %arraydestroy.body103

arraydestroy.body103:                             ; preds = %arraydestroy.body103, %cleanup.action101
  %arraydestroy.elementPast104 = phi ptr [ %55, %cleanup.action101 ], [ %arraydestroy.element105, %arraydestroy.body103 ]
  %arraydestroy.element105 = getelementptr inbounds %"class.nlohmann::json_abi_v3_11_3::detail::json_ref", ptr %arraydestroy.elementPast104, i64 -1
  call void @_ZN8nlohmann16json_abi_v3_11_36detail8json_refINS0_10basic_jsonISt3mapSt6vectorNSt7__cxx1112basic_stringIcSt11char_traitsIcESaIcEEEblmdSaNS0_14adl_serializerES5_IhSaIhEEvEEED2Ev(ptr noundef nonnull align 8 dereferenceable(24) %arraydestroy.element105) #16
  %arraydestroy.done106 = icmp eq ptr %arraydestroy.element105, %arrayinit.begin
  br i1 %arraydestroy.done106, label %arraydestroy.done107, label %arraydestroy.body103

arraydestroy.done107:                             ; preds = %arraydestroy.body103, %cleanup.action101
  br label %cleanup.done108

cleanup.done108:                                  ; preds = %arraydestroy.done107, %ehcleanup99
  br label %ehcleanup129

lpad109:                                          ; preds = %invoke.cont115, %invoke.cont110, %arraydestroy.done84
  %56 = landingpad { ptr, i32 }
          cleanup
  %57 = extractvalue { ptr, i32 } %56, 0
  store ptr %57, ptr %exn.slot, align 8
  %58 = extractvalue { ptr, i32 } %56, 1
  store i32 %58, ptr %ehselector.slot, align 4
  br label %ehcleanup128

lpad118:                                          ; preds = %invoke.cont117
  %59 = landingpad { ptr, i32 }
          cleanup
  %60 = extractvalue { ptr, i32 } %59, 0
  store ptr %60, ptr %exn.slot, align 8
  %61 = extractvalue { ptr, i32 } %59, 1
  store i32 %61, ptr %ehselector.slot, align 4
  br label %ehcleanup127

lpad120:                                          ; preds = %invoke.cont119
  %62 = landingpad { ptr, i32 }
          cleanup
  %63 = extractvalue { ptr, i32 } %62, 0
  store ptr %63, ptr %exn.slot, align 8
  %64 = extractvalue { ptr, i32 } %62, 1
  store i32 %64, ptr %ehselector.slot, align 4
  br label %ehcleanup126

lpad122:                                          ; preds = %invoke.cont121
  %65 = landingpad { ptr, i32 }
          cleanup
  %66 = extractvalue { ptr, i32 } %65, 0
  store ptr %66, ptr %exn.slot, align 8
  %67 = extractvalue { ptr, i32 } %65, 1
  store i32 %67, ptr %ehselector.slot, align 4
  call void @_ZN7doctest6detail6ResultD2Ev(ptr noundef nonnull align 8 dereferenceable(32) %ref.tmp112) #16
  br label %ehcleanup126

ehcleanup126:                                     ; preds = %lpad122, %lpad120
  call void @_ZN7doctest6detail14Expression_lhsINSt7__cxx1112basic_stringIcSt11char_traitsIcESaIcEEEED2Ev(ptr noundef nonnull align 8 dereferenceable(36) %ref.tmp113) #16
  br label %ehcleanup127

ehcleanup127:                                     ; preds = %ehcleanup126, %lpad118
  call void @_ZNSt7__cxx1112basic_stringIcSt11char_traitsIcESaIcEED1Ev(ptr noundef nonnull align 8 dereferenceable(32) %ref.tmp116) #16
  br label %ehcleanup128

ehcleanup128:                                     ; preds = %ehcleanup127, %lpad109
  call void @_ZN8nlohmann16json_abi_v3_11_310basic_jsonISt3mapSt6vectorNSt7__cxx1112basic_stringIcSt11char_traitsIcESaIcEEEblmdSaNS0_14adl_serializerES3_IhSaIhEEvED2Ev(ptr noundef nonnull align 8 dereferenceable(16) %j) #16
  br label %ehcleanup129

ehcleanup129:                                     ; preds = %ehcleanup128, %cleanup.done108
  call void @_ZNSt7__cxx1118basic_stringstreamIcSt11char_traitsIcESaIcEED1Ev(ptr noundef nonnull align 8 dereferenceable(128) %ss) #16
  br label %ehcleanup130

if.end:                                           ; preds = %invoke.cont123, %invoke.cont10
  call void @_ZN7doctest6detail7SubcaseD1Ev(ptr noundef nonnull align 8 dereferenceable(41) %ref.tmp4) #16
  invoke void @_ZN7doctest6StringC1EPKc(ptr noundef nonnull align 8 dereferenceable(24) %ref.tmp132, ptr noundef @.str.13)
          to label %invoke.cont133 unwind label %lpad2

invoke.cont133:                                   ; preds = %if.end
  invoke void @_ZN7doctest6detail7SubcaseC1ERKNS_6StringEPKci(ptr noundef nonnull align 8 dereferenceable(41) %ref.tmp131, ptr noundef nonnull align 8 dereferenceable(24) %ref.tmp132, ptr noundef @.str.2, i32 noundef 29)
          to label %invoke.cont135 unwind label %lpad134

invoke.cont135:                                   ; preds = %invoke.cont133
  call void @_ZN7doctest6StringD1Ev(ptr noundef nonnull align 8 dereferenceable(24) %ref.tmp132) #16
  store ptr %ref.tmp131, ptr %DOCTEST_ANON_SUBCASE_6, align 8
  %68 = load ptr, ptr %DOCTEST_ANON_SUBCASE_6, align 8
  %call139 = invoke noundef zeroext i1 @_ZNK7doctest6detail7SubcasecvbEv(ptr noundef nonnull align 8 dereferenceable(41) %68)
          to label %invoke.cont138 unwind label %lpad137

invoke.cont138:                                   ; preds = %invoke.cont135
  br i1 %call139, label %if.then140, label %if.end287

if.then140:                                       ; preds = %invoke.cont138
  invoke void @_ZNSt7__cxx1118basic_stringstreamIcSt11char_traitsIcESaIcEEC1Ev(ptr noundef nonnull align 8 dereferenceable(128) %ss141)
          to label %invoke.cont142 unwind label %lpad137

invoke.cont142:                                   ; preds = %if.then140
  %arrayinit.begin146 = getelementptr inbounds [6 x %"class.nlohmann::json_abi_v3_11_3::detail::json_ref"], ptr %ref.tmp145, i64 0, i64 0
  store i1 true, ptr %cleanup.isactive194, align 1
  store ptr %arrayinit.begin146, ptr %arrayinit.endOfInit147, align 8
  invoke void @_ZN8nlohmann16json_abi_v3_11_36detail8json_refINS0_10basic_jsonISt3mapSt6vectorNSt7__cxx1112basic_stringIcSt11char_traitsIcESaIcEEEblmdSaNS0_14adl_serializerES5_IhSaIhEEvEEEC2IJRA4_KcETnNSt9enable_ifIXsr3std16is_constructibleISF_DpT_EE5valueEiE4typeELi0EEEDpOSM_(ptr noundef nonnull align 8 dereferenceable(24) %arrayinit.begin146, ptr noundef nonnull align 1 dereferenceable(4) @.str.9)
          to label %invoke.cont149 unwind label %lpad148

invoke.cont149:                                   ; preds = %invoke.cont142
  %arrayinit.element150 = getelementptr inbounds %"class.nlohmann::json_abi_v3_11_3::detail::json_ref", ptr %arrayinit.begin146, i64 1
  store ptr %arrayinit.element150, ptr %arrayinit.endOfInit147, align 8
  store i32 1, ptr %ref.tmp151, align 4
  invoke void @_ZN8nlohmann16json_abi_v3_11_36detail8json_refINS0_10basic_jsonISt3mapSt6vectorNSt7__cxx1112basic_stringIcSt11char_traitsIcESaIcEEEblmdSaNS0_14adl_serializerES5_IhSaIhEEvEEEC2IJiETnNSt9enable_ifIXsr3std16is_constructibleISF_DpT_EE5valueEiE4typeELi0EEEDpOSJ_(ptr noundef nonnull align 8 dereferenceable(24) %arrayinit.element150, ptr noundef nonnull align 4 dereferenceable(4) %ref.tmp151)
          to label %invoke.cont152 unwind label %lpad148

invoke.cont152:                                   ; preds = %invoke.cont149
  %arrayinit.element153 = getelementptr inbounds %"class.nlohmann::json_abi_v3_11_3::detail::json_ref", ptr %arrayinit.element150, i64 1
  store ptr %arrayinit.element153, ptr %arrayinit.endOfInit147, align 8
  store i32 2, ptr %ref.tmp154, align 4
  invoke void @_ZN8nlohmann16json_abi_v3_11_36detail8json_refINS0_10basic_jsonISt3mapSt6vectorNSt7__cxx1112basic_stringIcSt11char_traitsIcESaIcEEEblmdSaNS0_14adl_serializerES5_IhSaIhEEvEEEC2IJiETnNSt9enable_ifIXsr3std16is_constructibleISF_DpT_EE5valueEiE4typeELi0EEEDpOSJ_(ptr noundef nonnull align 8 dereferenceable(24) %arrayinit.element153, ptr noundef nonnull align 4 dereferenceable(4) %ref.tmp154)
          to label %invoke.cont155 unwind label %lpad148

invoke.cont155:                                   ; preds = %invoke.cont152
  %arrayinit.element156 = getelementptr inbounds %"class.nlohmann::json_abi_v3_11_3::detail::json_ref", ptr %arrayinit.element153, i64 1
  store ptr %arrayinit.element156, ptr %arrayinit.endOfInit147, align 8
  store i32 3, ptr %ref.tmp157, align 4
  invoke void @_ZN8nlohmann16json_abi_v3_11_36detail8json_refINS0_10basic_jsonISt3mapSt6vectorNSt7__cxx1112basic_stringIcSt11char_traitsIcESaIcEEEblmdSaNS0_14adl_serializerES5_IhSaIhEEvEEEC2IJiETnNSt9enable_ifIXsr3std16is_constructibleISF_DpT_EE5valueEiE4typeELi0EEEDpOSJ_(ptr noundef nonnull align 8 dereferenceable(24) %arrayinit.element156, ptr noundef nonnull align 4 dereferenceable(4) %ref.tmp157)
          to label %invoke.cont158 unwind label %lpad148

invoke.cont158:                                   ; preds = %invoke.cont155
  %arrayinit.element159 = getelementptr inbounds %"class.nlohmann::json_abi_v3_11_3::detail::json_ref", ptr %arrayinit.element156, i64 1
  store ptr %arrayinit.element159, ptr %arrayinit.endOfInit147, align 8
  store i8 0, ptr %ref.tmp160, align 1
  invoke void @_ZN8nlohmann16json_abi_v3_11_36detail8json_refINS0_10basic_jsonISt3mapSt6vectorNSt7__cxx1112basic_stringIcSt11char_traitsIcESaIcEEEblmdSaNS0_14adl_serializerES5_IhSaIhEEvEEEC2IJbETnNSt9enable_ifIXsr3std16is_constructibleISF_DpT_EE5valueEiE4typeELi0EEEDpOSJ_(ptr noundef nonnull align 8 dereferenceable(24) %arrayinit.element159, ptr noundef nonnull align 1 dereferenceable(1) %ref.tmp160)
          to label %invoke.cont161 unwind label %lpad148

invoke.cont161:                                   ; preds = %invoke.cont158
  %arrayinit.element162 = getelementptr inbounds %"class.nlohmann::json_abi_v3_11_3::detail::json_ref", ptr %arrayinit.element159, i64 1
  store ptr %arrayinit.element162, ptr %arrayinit.endOfInit147, align 8
  %arrayinit.begin165 = getelementptr inbounds [1 x %"class.nlohmann::json_abi_v3_11_3::detail::json_ref"], ptr %ref.tmp164, i64 0, i64 0
  store i1 true, ptr %cleanup.isactive188, align 1
  store ptr %arrayinit.begin165, ptr %arrayinit.endOfInit166, align 8
  %arrayinit.begin169 = getelementptr inbounds [2 x %"class.nlohmann::json_abi_v3_11_3::detail::json_ref"], ptr %ref.tmp168, i64 0, i64 0
  store ptr %arrayinit.begin169, ptr %arrayinit.endOfInit170, align 8
  invoke void @_ZN8nlohmann16json_abi_v3_11_36detail8json_refINS0_10basic_jsonISt3mapSt6vectorNSt7__cxx1112basic_stringIcSt11char_traitsIcESaIcEEEblmdSaNS0_14adl_serializerES5_IhSaIhEEvEEEC2IJRA4_KcETnNSt9enable_ifIXsr3std16is_constructibleISF_DpT_EE5valueEiE4typeELi0EEEDpOSM_(ptr noundef nonnull align 8 dereferenceable(24) %arrayinit.begin169, ptr noundef nonnull align 1 dereferenceable(4) @.str.10)
          to label %invoke.cont172 unwind label %lpad171

invoke.cont172:                                   ; preds = %invoke.cont161
  %arrayinit.element173 = getelementptr inbounds %"class.nlohmann::json_abi_v3_11_3::detail::json_ref", ptr %arrayinit.begin169, i64 1
  store ptr %arrayinit.element173, ptr %arrayinit.endOfInit170, align 8
  store i32 1, ptr %ref.tmp174, align 4
  invoke void @_ZN8nlohmann16json_abi_v3_11_36detail8json_refINS0_10basic_jsonISt3mapSt6vectorNSt7__cxx1112basic_stringIcSt11char_traitsIcESaIcEEEblmdSaNS0_14adl_serializerES5_IhSaIhEEvEEEC2IJiETnNSt9enable_ifIXsr3std16is_constructibleISF_DpT_EE5valueEiE4typeELi0EEEDpOSJ_(ptr noundef nonnull align 8 dereferenceable(24) %arrayinit.element173, ptr noundef nonnull align 4 dereferenceable(4) %ref.tmp174)
          to label %invoke.cont175 unwind label %lpad171

invoke.cont175:                                   ; preds = %invoke.cont172
  %_M_array183 = getelementptr inbounds %"class.std::initializer_list", ptr %agg.tmp167, i32 0, i32 0
  %arraystart184 = getelementptr inbounds [2 x %"class.nlohmann::json_abi_v3_11_3::detail::json_ref"], ptr %ref.tmp168, i64 0, i64 0
  store ptr %arraystart184, ptr %_M_array183, align 8
  %_M_len185 = getelementptr inbounds %"class.std::initializer_list", ptr %agg.tmp167, i32 0, i32 1
  store i64 2, ptr %_M_len185, align 8
  %69 = getelementptr inbounds { ptr, i64 }, ptr %agg.tmp167, i32 0, i32 0
  %70 = load ptr, ptr %69, align 8
  %71 = getelementptr inbounds { ptr, i64 }, ptr %agg.tmp167, i32 0, i32 1
  %72 = load i64, ptr %71, align 8
  invoke void @_ZN8nlohmann16json_abi_v3_11_36detail8json_refINS0_10basic_jsonISt3mapSt6vectorNSt7__cxx1112basic_stringIcSt11char_traitsIcESaIcEEEblmdSaNS0_14adl_serializerES5_IhSaIhEEvEEEC2ESt16initializer_listISG_E(ptr noundef nonnull align 8 dereferenceable(24) %arrayinit.begin165, ptr %70, i64 %72)
          to label %invoke.cont187 unwind label %lpad186

invoke.cont187:                                   ; preds = %invoke.cont175
  store i1 false, ptr %cleanup.isactive188, align 1
  %_M_array189 = getelementptr inbounds %"class.std::initializer_list", ptr %agg.tmp163, i32 0, i32 0
  %arraystart190 = getelementptr inbounds [1 x %"class.nlohmann::json_abi_v3_11_3::detail::json_ref"], ptr %ref.tmp164, i64 0, i64 0
  store ptr %arraystart190, ptr %_M_array189, align 8
  %_M_len191 = getelementptr inbounds %"class.std::initializer_list", ptr %agg.tmp163, i32 0, i32 1
  store i64 1, ptr %_M_len191, align 8
  %73 = getelementptr inbounds { ptr, i64 }, ptr %agg.tmp163, i32 0, i32 0
  %74 = load ptr, ptr %73, align 8
  %75 = getelementptr inbounds { ptr, i64 }, ptr %agg.tmp163, i32 0, i32 1
  %76 = load i64, ptr %75, align 8
  invoke void @_ZN8nlohmann16json_abi_v3_11_36detail8json_refINS0_10basic_jsonISt3mapSt6vectorNSt7__cxx1112basic_stringIcSt11char_traitsIcESaIcEEEblmdSaNS0_14adl_serializerES5_IhSaIhEEvEEEC2ESt16initializer_listISG_E(ptr noundef nonnull align 8 dereferenceable(24) %arrayinit.element162, ptr %74, i64 %76)
          to label %invoke.cont193 unwind label %lpad192

invoke.cont193:                                   ; preds = %invoke.cont187
  store i1 false, ptr %cleanup.isactive194, align 1
  %_M_array195 = getelementptr inbounds %"class.std::initializer_list", ptr %agg.tmp144, i32 0, i32 0
  %arraystart196 = getelementptr inbounds [6 x %"class.nlohmann::json_abi_v3_11_3::detail::json_ref"], ptr %ref.tmp145, i64 0, i64 0
  store ptr %arraystart196, ptr %_M_array195, align 8
  %_M_len197 = getelementptr inbounds %"class.std::initializer_list", ptr %agg.tmp144, i32 0, i32 1
  store i64 6, ptr %_M_len197, align 8
  %77 = getelementptr inbounds { ptr, i64 }, ptr %agg.tmp144, i32 0, i32 0
  %78 = load ptr, ptr %77, align 8
  %79 = getelementptr inbounds { ptr, i64 }, ptr %agg.tmp144, i32 0, i32 1
  %80 = load i64, ptr %79, align 8
  invoke void @_ZN8nlohmann16json_abi_v3_11_310basic_jsonISt3mapSt6vectorNSt7__cxx1112basic_stringIcSt11char_traitsIcESaIcEEEblmdSaNS0_14adl_serializerES3_IhSaIhEEvEC2ESt16initializer_listINS0_6detail8json_refISD_EEEbNSF_7value_tE(ptr noundef nonnull align 8 dereferenceable(16) %j143, ptr %78, i64 %80, i1 noundef zeroext true, i8 noundef zeroext 2)
          to label %invoke.cont199 unwind label %lpad198

invoke.cont199:                                   ; preds = %invoke.cont193
  %array.begin200 = getelementptr inbounds [6 x %"class.nlohmann::json_abi_v3_11_3::detail::json_ref"], ptr %ref.tmp145, i32 0, i32 0
  %81 = getelementptr inbounds %"class.nlohmann::json_abi_v3_11_3::detail::json_ref", ptr %array.begin200, i64 6
  br label %arraydestroy.body201

arraydestroy.body201:                             ; preds = %arraydestroy.body201, %invoke.cont199
  %arraydestroy.elementPast202 = phi ptr [ %81, %invoke.cont199 ], [ %arraydestroy.element203, %arraydestroy.body201 ]
  %arraydestroy.element203 = getelementptr inbounds %"class.nlohmann::json_abi_v3_11_3::detail::json_ref", ptr %arraydestroy.elementPast202, i64 -1
  call void @_ZN8nlohmann16json_abi_v3_11_36detail8json_refINS0_10basic_jsonISt3mapSt6vectorNSt7__cxx1112basic_stringIcSt11char_traitsIcESaIcEEEblmdSaNS0_14adl_serializerES5_IhSaIhEEvEEED2Ev(ptr noundef nonnull align 8 dereferenceable(24) %arraydestroy.element203) #16
  %arraydestroy.done204 = icmp eq ptr %arraydestroy.element203, %array.begin200
  br i1 %arraydestroy.done204, label %arraydestroy.done205, label %arraydestroy.body201

arraydestroy.done205:                             ; preds = %arraydestroy.body201
  %array.begin213 = getelementptr inbounds [1 x %"class.nlohmann::json_abi_v3_11_3::detail::json_ref"], ptr %ref.tmp164, i32 0, i32 0
  %82 = getelementptr inbounds %"class.nlohmann::json_abi_v3_11_3::detail::json_ref", ptr %array.begin213, i64 1
  br label %arraydestroy.body214

arraydestroy.body214:                             ; preds = %arraydestroy.body214, %arraydestroy.done205
  %arraydestroy.elementPast215 = phi ptr [ %82, %arraydestroy.done205 ], [ %arraydestroy.element216, %arraydestroy.body214 ]
  %arraydestroy.element216 = getelementptr inbounds %"class.nlohmann::json_abi_v3_11_3::detail::json_ref", ptr %arraydestroy.elementPast215, i64 -1
  call void @_ZN8nlohmann16json_abi_v3_11_36detail8json_refINS0_10basic_jsonISt3mapSt6vectorNSt7__cxx1112basic_stringIcSt11char_traitsIcESaIcEEEblmdSaNS0_14adl_serializerES5_IhSaIhEEvEEED2Ev(ptr noundef nonnull align 8 dereferenceable(24) %arraydestroy.element216) #16
  %arraydestroy.done217 = icmp eq ptr %arraydestroy.element216, %array.begin213
  br i1 %arraydestroy.done217, label %arraydestroy.done218, label %arraydestroy.body214

arraydestroy.done218:                             ; preds = %arraydestroy.body214
  %array.begin226 = getelementptr inbounds [2 x %"class.nlohmann::json_abi_v3_11_3::detail::json_ref"], ptr %ref.tmp168, i32 0, i32 0
  %83 = getelementptr inbounds %"class.nlohmann::json_abi_v3_11_3::detail::json_ref", ptr %array.begin226, i64 2
  br label %arraydestroy.body227

arraydestroy.body227:                             ; preds = %arraydestroy.body227, %arraydestroy.done218
  %arraydestroy.elementPast228 = phi ptr [ %83, %arraydestroy.done218 ], [ %arraydestroy.element229, %arraydestroy.body227 ]
  %arraydestroy.element229 = getelementptr inbounds %"class.nlohmann::json_abi_v3_11_3::detail::json_ref", ptr %arraydestroy.elementPast228, i64 -1
  call void @_ZN8nlohmann16json_abi_v3_11_36detail8json_refINS0_10basic_jsonISt3mapSt6vectorNSt7__cxx1112basic_stringIcSt11char_traitsIcESaIcEEEblmdSaNS0_14adl_serializerES5_IhSaIhEEvEEED2Ev(ptr noundef nonnull align 8 dereferenceable(24) %arraydestroy.element229) #16
  %arraydestroy.done230 = icmp eq ptr %arraydestroy.element229, %array.begin226
  br i1 %arraydestroy.done230, label %arraydestroy.done231, label %arraydestroy.body227

arraydestroy.done231:                             ; preds = %arraydestroy.body227
  %add.ptr259 = getelementptr inbounds i8, ptr %ss141, i64 16
  %call263 = invoke i32 @_ZSt4setwi(i32 noundef 4)
          to label %invoke.cont262 unwind label %lpad261

invoke.cont262:                                   ; preds = %arraydestroy.done231
  %coerce.dive = getelementptr inbounds %"struct.std::_Setw", ptr %agg.tmp260, i32 0, i32 0
  store i32 %call263, ptr %coerce.dive, align 4
  %coerce.dive264 = getelementptr inbounds %"struct.std::_Setw", ptr %agg.tmp260, i32 0, i32 0
  %84 = load i32, ptr %coerce.dive264, align 4
  %call266 = invoke noundef nonnull align 8 dereferenceable(8) ptr @_ZStlsIcSt11char_traitsIcEERSt13basic_ostreamIT_T0_ES6_St5_Setw(ptr noundef nonnull align 8 dereferenceable(8) %add.ptr259, i32 %84)
          to label %invoke.cont265 unwind label %lpad261

invoke.cont265:                                   ; preds = %invoke.cont262
  %call268 = invoke noundef nonnull align 8 dereferenceable(8) ptr @_ZN8nlohmann16json_abi_v3_11_3lsERSoRKNS0_10basic_jsonISt3mapSt6vectorNSt7__cxx1112basic_stringIcSt11char_traitsIcESaIcEEEblmdSaNS0_14adl_serializerES4_IhSaIhEEvEE(ptr noundef nonnull align 8 dereferenceable(8) %call266, ptr noundef nonnull align 8 dereferenceable(16) %j143)
          to label %invoke.cont267 unwind label %lpad261

invoke.cont267:                                   ; preds = %invoke.cont265
  invoke void @_ZN7doctest6detail20ExpressionDecomposerC1ENS_10assertType4EnumE(ptr noundef nonnull align 4 dereferenceable(4) %ref.tmp271, i32 noundef 10)
          to label %invoke.cont272 unwind label %lpad261

invoke.cont272:                                   ; preds = %invoke.cont267
  invoke void @_ZNKSt7__cxx1118basic_stringstreamIcSt11char_traitsIcESaIcEE3strEv(ptr sret(%"class.std::__cxx11::basic_string") align 8 %ref.tmp273, ptr noundef nonnull align 8 dereferenceable(128) %ss141)
          to label %invoke.cont274 unwind label %lpad261

invoke.cont274:                                   ; preds = %invoke.cont272
  invoke void @_ZN7doctest6detail20ExpressionDecomposerlsINSt7__cxx1112basic_stringIcSt11char_traitsIcESaIcEEEEENS0_14Expression_lhsIT_EEOSA_(ptr sret(%"struct.doctest::detail::Expression_lhs") align 8 %ref.tmp270, ptr noundef nonnull align 4 dereferenceable(4) %ref.tmp271, ptr noundef nonnull align 8 dereferenceable(32) %ref.tmp273)
          to label %invoke.cont276 unwind label %lpad275

invoke.cont276:                                   ; preds = %invoke.cont274
  invoke void @_ZN7doctest6detail14Expression_lhsINSt7__cxx1112basic_stringIcSt11char_traitsIcESaIcEEEEeqIRA76_KcEEDTcmcvveqclL_ZNS0_7declvalIS7_EEOT_vEEclsr7doctest6detailE7declvalISE_EEtlNS0_6ResultEEESF_(ptr sret(%"struct.doctest::detail::Result") align 8 %ref.tmp269, ptr noundef nonnull align 8 dereferenceable(36) %ref.tmp270, ptr noundef nonnull align 1 dereferenceable(76) @.str.15)
          to label %invoke.cont278 unwind label %lpad277

invoke.cont278:                                   ; preds = %invoke.cont276
  %call281 = invoke noundef zeroext i1 @_ZN7doctest6detail13decomp_assertENS_10assertType4EnumEPKciS4_RKNS0_6ResultE(i32 noundef 10, ptr noundef @.str.2, i32 noundef 35, ptr noundef @.str.14, ptr noundef nonnull align 8 dereferenceable(32) %ref.tmp269)
          to label %invoke.cont280 unwind label %lpad279

invoke.cont280:                                   ; preds = %invoke.cont278
  call void @_ZN7doctest6detail6ResultD2Ev(ptr noundef nonnull align 8 dereferenceable(32) %ref.tmp269) #16
  call void @_ZN7doctest6detail14Expression_lhsINSt7__cxx1112basic_stringIcSt11char_traitsIcESaIcEEEED2Ev(ptr noundef nonnull align 8 dereferenceable(36) %ref.tmp270) #16
  call void @_ZNSt7__cxx1112basic_stringIcSt11char_traitsIcESaIcEED1Ev(ptr noundef nonnull align 8 dereferenceable(32) %ref.tmp273) #16
  call void @_ZN8nlohmann16json_abi_v3_11_310basic_jsonISt3mapSt6vectorNSt7__cxx1112basic_stringIcSt11char_traitsIcESaIcEEEblmdSaNS0_14adl_serializerES3_IhSaIhEEvED2Ev(ptr noundef nonnull align 8 dereferenceable(16) %j143) #16
  call void @_ZNSt7__cxx1118basic_stringstreamIcSt11char_traitsIcESaIcEED1Ev(ptr noundef nonnull align 8 dereferenceable(128) %ss141) #16
  br label %if.end287

ehcleanup130:                                     ; preds = %ehcleanup129, %lpad9
  call void @_ZN7doctest6detail7SubcaseD1Ev(ptr noundef nonnull align 8 dereferenceable(41) %ref.tmp4) #16
  br label %ehcleanup456

lpad134:                                          ; preds = %invoke.cont133
  %85 = landingpad { ptr, i32 }
          cleanup
  %86 = extractvalue { ptr, i32 } %85, 0
  store ptr %86, ptr %exn.slot, align 8
  %87 = extractvalue { ptr, i32 } %85, 1
  store i32 %87, ptr %ehselector.slot, align 4
  call void @_ZN7doctest6StringD1Ev(ptr noundef nonnull align 8 dereferenceable(24) %ref.tmp132) #16
  br label %ehcleanup456

lpad137:                                          ; preds = %if.then140, %invoke.cont135
  %88 = landingpad { ptr, i32 }
          cleanup
  %89 = extractvalue { ptr, i32 } %88, 0
  store ptr %89, ptr %exn.slot, align 8
  %90 = extractvalue { ptr, i32 } %88, 1
  store i32 %90, ptr %ehselector.slot, align 4
  br label %ehcleanup288

lpad148:                                          ; preds = %invoke.cont158, %invoke.cont155, %invoke.cont152, %invoke.cont149, %invoke.cont142
  %91 = landingpad { ptr, i32 }
          cleanup
  %92 = extractvalue { ptr, i32 } %91, 0
  store ptr %92, ptr %exn.slot, align 8
  %93 = extractvalue { ptr, i32 } %91, 1
  store i32 %93, ptr %ehselector.slot, align 4
  br label %ehcleanup249

lpad171:                                          ; preds = %invoke.cont172, %invoke.cont161
  %94 = landingpad { ptr, i32 }
          cleanup
  %95 = extractvalue { ptr, i32 } %94, 0
  store ptr %95, ptr %exn.slot, align 8
  %96 = extractvalue { ptr, i32 } %94, 1
  store i32 %96, ptr %ehselector.slot, align 4
  %97 = load ptr, ptr %arrayinit.endOfInit170, align 8
  %arraydestroy.isempty177 = icmp eq ptr %arrayinit.begin169, %97
  br i1 %arraydestroy.isempty177, label %arraydestroy.done182, label %arraydestroy.body178

arraydestroy.body178:                             ; preds = %arraydestroy.body178, %lpad171
  %arraydestroy.elementPast179 = phi ptr [ %97, %lpad171 ], [ %arraydestroy.element180, %arraydestroy.body178 ]
  %arraydestroy.element180 = getelementptr inbounds %"class.nlohmann::json_abi_v3_11_3::detail::json_ref", ptr %arraydestroy.elementPast179, i64 -1
  call void @_ZN8nlohmann16json_abi_v3_11_36detail8json_refINS0_10basic_jsonISt3mapSt6vectorNSt7__cxx1112basic_stringIcSt11char_traitsIcESaIcEEEblmdSaNS0_14adl_serializerES5_IhSaIhEEvEEED2Ev(ptr noundef nonnull align 8 dereferenceable(24) %arraydestroy.element180) #16
  %arraydestroy.done181 = icmp eq ptr %arraydestroy.element180, %arrayinit.begin169
  br i1 %arraydestroy.done181, label %arraydestroy.done182, label %arraydestroy.body178

arraydestroy.done182:                             ; preds = %arraydestroy.body178, %lpad171
  br label %ehcleanup239

lpad186:                                          ; preds = %invoke.cont175
  %98 = landingpad { ptr, i32 }
          cleanup
  %99 = extractvalue { ptr, i32 } %98, 0
  store ptr %99, ptr %exn.slot, align 8
  %100 = extractvalue { ptr, i32 } %98, 1
  store i32 %100, ptr %ehselector.slot, align 4
  br label %ehcleanup232

lpad192:                                          ; preds = %invoke.cont187
  %101 = landingpad { ptr, i32 }
          cleanup
  %102 = extractvalue { ptr, i32 } %101, 0
  store ptr %102, ptr %exn.slot, align 8
  %103 = extractvalue { ptr, i32 } %101, 1
  store i32 %103, ptr %ehselector.slot, align 4
  br label %ehcleanup219

lpad198:                                          ; preds = %invoke.cont193
  %104 = landingpad { ptr, i32 }
          cleanup
  %105 = extractvalue { ptr, i32 } %104, 0
  store ptr %105, ptr %exn.slot, align 8
  %106 = extractvalue { ptr, i32 } %104, 1
  store i32 %106, ptr %ehselector.slot, align 4
  %array.begin207 = getelementptr inbounds [6 x %"class.nlohmann::json_abi_v3_11_3::detail::json_ref"], ptr %ref.tmp145, i32 0, i32 0
  %107 = getelementptr inbounds %"class.nlohmann::json_abi_v3_11_3::detail::json_ref", ptr %array.begin207, i64 6
  br label %arraydestroy.body208

arraydestroy.body208:                             ; preds = %arraydestroy.body208, %lpad198
  %arraydestroy.elementPast209 = phi ptr [ %107, %lpad198 ], [ %arraydestroy.element210, %arraydestroy.body208 ]
  %arraydestroy.element210 = getelementptr inbounds %"class.nlohmann::json_abi_v3_11_3::detail::json_ref", ptr %arraydestroy.elementPast209, i64 -1
  call void @_ZN8nlohmann16json_abi_v3_11_36detail8json_refINS0_10basic_jsonISt3mapSt6vectorNSt7__cxx1112basic_stringIcSt11char_traitsIcESaIcEEEblmdSaNS0_14adl_serializerES5_IhSaIhEEvEEED2Ev(ptr noundef nonnull align 8 dereferenceable(24) %arraydestroy.element210) #16
  %arraydestroy.done211 = icmp eq ptr %arraydestroy.element210, %array.begin207
  br i1 %arraydestroy.done211, label %arraydestroy.done212, label %arraydestroy.body208

arraydestroy.done212:                             ; preds = %arraydestroy.body208
  br label %ehcleanup219

ehcleanup219:                                     ; preds = %arraydestroy.done212, %lpad192
  %array.begin220 = getelementptr inbounds [1 x %"class.nlohmann::json_abi_v3_11_3::detail::json_ref"], ptr %ref.tmp164, i32 0, i32 0
  %108 = getelementptr inbounds %"class.nlohmann::json_abi_v3_11_3::detail::json_ref", ptr %array.begin220, i64 1
  br label %arraydestroy.body221

arraydestroy.body221:                             ; preds = %arraydestroy.body221, %ehcleanup219
  %arraydestroy.elementPast222 = phi ptr [ %108, %ehcleanup219 ], [ %arraydestroy.element223, %arraydestroy.body221 ]
  %arraydestroy.element223 = getelementptr inbounds %"class.nlohmann::json_abi_v3_11_3::detail::json_ref", ptr %arraydestroy.elementPast222, i64 -1
  call void @_ZN8nlohmann16json_abi_v3_11_36detail8json_refINS0_10basic_jsonISt3mapSt6vectorNSt7__cxx1112basic_stringIcSt11char_traitsIcESaIcEEEblmdSaNS0_14adl_serializerES5_IhSaIhEEvEEED2Ev(ptr noundef nonnull align 8 dereferenceable(24) %arraydestroy.element223) #16
  %arraydestroy.done224 = icmp eq ptr %arraydestroy.element223, %array.begin220
  br i1 %arraydestroy.done224, label %arraydestroy.done225, label %arraydestroy.body221

arraydestroy.done225:                             ; preds = %arraydestroy.body221
  br label %ehcleanup232

ehcleanup232:                                     ; preds = %arraydestroy.done225, %lpad186
  %array.begin233 = getelementptr inbounds [2 x %"class.nlohmann::json_abi_v3_11_3::detail::json_ref"], ptr %ref.tmp168, i32 0, i32 0
  %109 = getelementptr inbounds %"class.nlohmann::json_abi_v3_11_3::detail::json_ref", ptr %array.begin233, i64 2
  br label %arraydestroy.body234

arraydestroy.body234:                             ; preds = %arraydestroy.body234, %ehcleanup232
  %arraydestroy.elementPast235 = phi ptr [ %109, %ehcleanup232 ], [ %arraydestroy.element236, %arraydestroy.body234 ]
  %arraydestroy.element236 = getelementptr inbounds %"class.nlohmann::json_abi_v3_11_3::detail::json_ref", ptr %arraydestroy.elementPast235, i64 -1
  call void @_ZN8nlohmann16json_abi_v3_11_36detail8json_refINS0_10basic_jsonISt3mapSt6vectorNSt7__cxx1112basic_stringIcSt11char_traitsIcESaIcEEEblmdSaNS0_14adl_serializerES5_IhSaIhEEvEEED2Ev(ptr noundef nonnull align 8 dereferenceable(24) %arraydestroy.element236) #16
  %arraydestroy.done237 = icmp eq ptr %arraydestroy.element236, %array.begin233
  br i1 %arraydestroy.done237, label %arraydestroy.done238, label %arraydestroy.body234

arraydestroy.done238:                             ; preds = %arraydestroy.body234
  br label %ehcleanup239

ehcleanup239:                                     ; preds = %arraydestroy.done238, %arraydestroy.done182
  %cleanup.is_active240 = load i1, ptr %cleanup.isactive188, align 1
  br i1 %cleanup.is_active240, label %cleanup.action241, label %cleanup.done248

cleanup.action241:                                ; preds = %ehcleanup239
  %110 = load ptr, ptr %arrayinit.endOfInit166, align 8
  %arraydestroy.isempty242 = icmp eq ptr %arrayinit.begin165, %110
  br i1 %arraydestroy.isempty242, label %arraydestroy.done247, label %arraydestroy.body243

arraydestroy.body243:                             ; preds = %arraydestroy.body243, %cleanup.action241
  %arraydestroy.elementPast244 = phi ptr [ %110, %cleanup.action241 ], [ %arraydestroy.element245, %arraydestroy.body243 ]
  %arraydestroy.element245 = getelementptr inbounds %"class.nlohmann::json_abi_v3_11_3::detail::json_ref", ptr %arraydestroy.elementPast244, i64 -1
  call void @_ZN8nlohmann16json_abi_v3_11_36detail8json_refINS0_10basic_jsonISt3mapSt6vectorNSt7__cxx1112basic_stringIcSt11char_traitsIcESaIcEEEblmdSaNS0_14adl_serializerES5_IhSaIhEEvEEED2Ev(ptr noundef nonnull align 8 dereferenceable(24) %arraydestroy.element245) #16
  %arraydestroy.done246 = icmp eq ptr %arraydestroy.element245, %arrayinit.begin165
  br i1 %arraydestroy.done246, label %arraydestroy.done247, label %arraydestroy.body243

arraydestroy.done247:                             ; preds = %arraydestroy.body243, %cleanup.action241
  br label %cleanup.done248

cleanup.done248:                                  ; preds = %arraydestroy.done247, %ehcleanup239
  br label %ehcleanup249

ehcleanup249:                                     ; preds = %cleanup.done248, %lpad148
  %cleanup.is_active250 = load i1, ptr %cleanup.isactive194, align 1
  br i1 %cleanup.is_active250, label %cleanup.action251, label %cleanup.done258

cleanup.action251:                                ; preds = %ehcleanup249
  %111 = load ptr, ptr %arrayinit.endOfInit147, align 8
  %arraydestroy.isempty252 = icmp eq ptr %arrayinit.begin146, %111
  br i1 %arraydestroy.isempty252, label %arraydestroy.done257, label %arraydestroy.body253

arraydestroy.body253:                             ; preds = %arraydestroy.body253, %cleanup.action251
  %arraydestroy.elementPast254 = phi ptr [ %111, %cleanup.action251 ], [ %arraydestroy.element255, %arraydestroy.body253 ]
  %arraydestroy.element255 = getelementptr inbounds %"class.nlohmann::json_abi_v3_11_3::detail::json_ref", ptr %arraydestroy.elementPast254, i64 -1
  call void @_ZN8nlohmann16json_abi_v3_11_36detail8json_refINS0_10basic_jsonISt3mapSt6vectorNSt7__cxx1112basic_stringIcSt11char_traitsIcESaIcEEEblmdSaNS0_14adl_serializerES5_IhSaIhEEvEEED2Ev(ptr noundef nonnull align 8 dereferenceable(24) %arraydestroy.element255) #16
  %arraydestroy.done256 = icmp eq ptr %arraydestroy.element255, %arrayinit.begin146
  br i1 %arraydestroy.done256, label %arraydestroy.done257, label %arraydestroy.body253

arraydestroy.done257:                             ; preds = %arraydestroy.body253, %cleanup.action251
  br label %cleanup.done258

cleanup.done258:                                  ; preds = %arraydestroy.done257, %ehcleanup249
  br label %ehcleanup286

lpad261:                                          ; preds = %invoke.cont272, %invoke.cont267, %invoke.cont265, %invoke.cont262, %arraydestroy.done231
  %112 = landingpad { ptr, i32 }
          cleanup
  %113 = extractvalue { ptr, i32 } %112, 0
  store ptr %113, ptr %exn.slot, align 8
  %114 = extractvalue { ptr, i32 } %112, 1
  store i32 %114, ptr %ehselector.slot, align 4
  br label %ehcleanup285

lpad275:                                          ; preds = %invoke.cont274
  %115 = landingpad { ptr, i32 }
          cleanup
  %116 = extractvalue { ptr, i32 } %115, 0
  store ptr %116, ptr %exn.slot, align 8
  %117 = extractvalue { ptr, i32 } %115, 1
  store i32 %117, ptr %ehselector.slot, align 4
  br label %ehcleanup284

lpad277:                                          ; preds = %invoke.cont276
  %118 = landingpad { ptr, i32 }
          cleanup
  %119 = extractvalue { ptr, i32 } %118, 0
  store ptr %119, ptr %exn.slot, align 8
  %120 = extractvalue { ptr, i32 } %118, 1
  store i32 %120, ptr %ehselector.slot, align 4
  br label %ehcleanup283

lpad279:                                          ; preds = %invoke.cont278
  %121 = landingpad { ptr, i32 }
          cleanup
  %122 = extractvalue { ptr, i32 } %121, 0
  store ptr %122, ptr %exn.slot, align 8
  %123 = extractvalue { ptr, i32 } %121, 1
  store i32 %123, ptr %ehselector.slot, align 4
  call void @_ZN7doctest6detail6ResultD2Ev(ptr noundef nonnull align 8 dereferenceable(32) %ref.tmp269) #16
  br label %ehcleanup283

ehcleanup283:                                     ; preds = %lpad279, %lpad277
  call void @_ZN7doctest6detail14Expression_lhsINSt7__cxx1112basic_stringIcSt11char_traitsIcESaIcEEEED2Ev(ptr noundef nonnull align 8 dereferenceable(36) %ref.tmp270) #16
  br label %ehcleanup284

ehcleanup284:                                     ; preds = %ehcleanup283, %lpad275
  call void @_ZNSt7__cxx1112basic_stringIcSt11char_traitsIcESaIcEED1Ev(ptr noundef nonnull align 8 dereferenceable(32) %ref.tmp273) #16
  br label %ehcleanup285

ehcleanup285:                                     ; preds = %ehcleanup284, %lpad261
  call void @_ZN8nlohmann16json_abi_v3_11_310basic_jsonISt3mapSt6vectorNSt7__cxx1112basic_stringIcSt11char_traitsIcESaIcEEEblmdSaNS0_14adl_serializerES3_IhSaIhEEvED2Ev(ptr noundef nonnull align 8 dereferenceable(16) %j143) #16
  br label %ehcleanup286

ehcleanup286:                                     ; preds = %ehcleanup285, %cleanup.done258
  call void @_ZNSt7__cxx1118basic_stringstreamIcSt11char_traitsIcESaIcEED1Ev(ptr noundef nonnull align 8 dereferenceable(128) %ss141) #16
  br label %ehcleanup288

if.end287:                                        ; preds = %invoke.cont280, %invoke.cont138
  call void @_ZN7doctest6detail7SubcaseD1Ev(ptr noundef nonnull align 8 dereferenceable(41) %ref.tmp131) #16
  invoke void @_ZN7doctest6StringC1EPKc(ptr noundef nonnull align 8 dereferenceable(24) %ref.tmp290, ptr noundef @.str.16)
          to label %invoke.cont291 unwind label %lpad2

invoke.cont291:                                   ; preds = %if.end287
  invoke void @_ZN7doctest6detail7SubcaseC1ERKNS_6StringEPKci(ptr noundef nonnull align 8 dereferenceable(41) %ref.tmp289, ptr noundef nonnull align 8 dereferenceable(24) %ref.tmp290, ptr noundef @.str.2, i32 noundef 38)
          to label %invoke.cont293 unwind label %lpad292

invoke.cont293:                                   ; preds = %invoke.cont291
  call void @_ZN7doctest6StringD1Ev(ptr noundef nonnull align 8 dereferenceable(24) %ref.tmp290) #16
  store ptr %ref.tmp289, ptr %DOCTEST_ANON_SUBCASE_7, align 8
  %124 = load ptr, ptr %DOCTEST_ANON_SUBCASE_7, align 8
  %call297 = invoke noundef zeroext i1 @_ZNK7doctest6detail7SubcasecvbEv(ptr noundef nonnull align 8 dereferenceable(41) %124)
          to label %invoke.cont296 unwind label %lpad295

invoke.cont296:                                   ; preds = %invoke.cont293
  br i1 %call297, label %if.then298, label %if.end453

if.then298:                                       ; preds = %invoke.cont296
  invoke void @_ZNSt7__cxx1118basic_stringstreamIcSt11char_traitsIcESaIcEEC1Ev(ptr noundef nonnull align 8 dereferenceable(128) %ss299)
          to label %invoke.cont300 unwind label %lpad295

invoke.cont300:                                   ; preds = %if.then298
  %arrayinit.begin304 = getelementptr inbounds [6 x %"class.nlohmann::json_abi_v3_11_3::detail::json_ref"], ptr %ref.tmp303, i64 0, i64 0
  store i1 true, ptr %cleanup.isactive352, align 1
  store ptr %arrayinit.begin304, ptr %arrayinit.endOfInit305, align 8
  invoke void @_ZN8nlohmann16json_abi_v3_11_36detail8json_refINS0_10basic_jsonISt3mapSt6vectorNSt7__cxx1112basic_stringIcSt11char_traitsIcESaIcEEEblmdSaNS0_14adl_serializerES5_IhSaIhEEvEEEC2IJRA4_KcETnNSt9enable_ifIXsr3std16is_constructibleISF_DpT_EE5valueEiE4typeELi0EEEDpOSM_(ptr noundef nonnull align 8 dereferenceable(24) %arrayinit.begin304, ptr noundef nonnull align 1 dereferenceable(4) @.str.9)
          to label %invoke.cont307 unwind label %lpad306

invoke.cont307:                                   ; preds = %invoke.cont300
  %arrayinit.element308 = getelementptr inbounds %"class.nlohmann::json_abi_v3_11_3::detail::json_ref", ptr %arrayinit.begin304, i64 1
  store ptr %arrayinit.element308, ptr %arrayinit.endOfInit305, align 8
  store i32 1, ptr %ref.tmp309, align 4
  invoke void @_ZN8nlohmann16json_abi_v3_11_36detail8json_refINS0_10basic_jsonISt3mapSt6vectorNSt7__cxx1112basic_stringIcSt11char_traitsIcESaIcEEEblmdSaNS0_14adl_serializerES5_IhSaIhEEvEEEC2IJiETnNSt9enable_ifIXsr3std16is_constructibleISF_DpT_EE5valueEiE4typeELi0EEEDpOSJ_(ptr noundef nonnull align 8 dereferenceable(24) %arrayinit.element308, ptr noundef nonnull align 4 dereferenceable(4) %ref.tmp309)
          to label %invoke.cont310 unwind label %lpad306

invoke.cont310:                                   ; preds = %invoke.cont307
  %arrayinit.element311 = getelementptr inbounds %"class.nlohmann::json_abi_v3_11_3::detail::json_ref", ptr %arrayinit.element308, i64 1
  store ptr %arrayinit.element311, ptr %arrayinit.endOfInit305, align 8
  store i32 2, ptr %ref.tmp312, align 4
  invoke void @_ZN8nlohmann16json_abi_v3_11_36detail8json_refINS0_10basic_jsonISt3mapSt6vectorNSt7__cxx1112basic_stringIcSt11char_traitsIcESaIcEEEblmdSaNS0_14adl_serializerES5_IhSaIhEEvEEEC2IJiETnNSt9enable_ifIXsr3std16is_constructibleISF_DpT_EE5valueEiE4typeELi0EEEDpOSJ_(ptr noundef nonnull align 8 dereferenceable(24) %arrayinit.element311, ptr noundef nonnull align 4 dereferenceable(4) %ref.tmp312)
          to label %invoke.cont313 unwind label %lpad306

invoke.cont313:                                   ; preds = %invoke.cont310
  %arrayinit.element314 = getelementptr inbounds %"class.nlohmann::json_abi_v3_11_3::detail::json_ref", ptr %arrayinit.element311, i64 1
  store ptr %arrayinit.element314, ptr %arrayinit.endOfInit305, align 8
  store i32 3, ptr %ref.tmp315, align 4
  invoke void @_ZN8nlohmann16json_abi_v3_11_36detail8json_refINS0_10basic_jsonISt3mapSt6vectorNSt7__cxx1112basic_stringIcSt11char_traitsIcESaIcEEEblmdSaNS0_14adl_serializerES5_IhSaIhEEvEEEC2IJiETnNSt9enable_ifIXsr3std16is_constructibleISF_DpT_EE5valueEiE4typeELi0EEEDpOSJ_(ptr noundef nonnull align 8 dereferenceable(24) %arrayinit.element314, ptr noundef nonnull align 4 dereferenceable(4) %ref.tmp315)
          to label %invoke.cont316 unwind label %lpad306

invoke.cont316:                                   ; preds = %invoke.cont313
  %arrayinit.element317 = getelementptr inbounds %"class.nlohmann::json_abi_v3_11_3::detail::json_ref", ptr %arrayinit.element314, i64 1
  store ptr %arrayinit.element317, ptr %arrayinit.endOfInit305, align 8
  store i8 0, ptr %ref.tmp318, align 1
  invoke void @_ZN8nlohmann16json_abi_v3_11_36detail8json_refINS0_10basic_jsonISt3mapSt6vectorNSt7__cxx1112basic_stringIcSt11char_traitsIcESaIcEEEblmdSaNS0_14adl_serializerES5_IhSaIhEEvEEEC2IJbETnNSt9enable_ifIXsr3std16is_constructibleISF_DpT_EE5valueEiE4typeELi0EEEDpOSJ_(ptr noundef nonnull align 8 dereferenceable(24) %arrayinit.element317, ptr noundef nonnull align 1 dereferenceable(1) %ref.tmp318)
          to label %invoke.cont319 unwind label %lpad306

invoke.cont319:                                   ; preds = %invoke.cont316
  %arrayinit.element320 = getelementptr inbounds %"class.nlohmann::json_abi_v3_11_3::detail::json_ref", ptr %arrayinit.element317, i64 1
  store ptr %arrayinit.element320, ptr %arrayinit.endOfInit305, align 8
  %arrayinit.begin323 = getelementptr inbounds [1 x %"class.nlohmann::json_abi_v3_11_3::detail::json_ref"], ptr %ref.tmp322, i64 0, i64 0
  store i1 true, ptr %cleanup.isactive346, align 1
  store ptr %arrayinit.begin323, ptr %arrayinit.endOfInit324, align 8
  %arrayinit.begin327 = getelementptr inbounds [2 x %"class.nlohmann::json_abi_v3_11_3::detail::json_ref"], ptr %ref.tmp326, i64 0, i64 0
  store ptr %arrayinit.begin327, ptr %arrayinit.endOfInit328, align 8
  invoke void @_ZN8nlohmann16json_abi_v3_11_36detail8json_refINS0_10basic_jsonISt3mapSt6vectorNSt7__cxx1112basic_stringIcSt11char_traitsIcESaIcEEEblmdSaNS0_14adl_serializerES5_IhSaIhEEvEEEC2IJRA4_KcETnNSt9enable_ifIXsr3std16is_constructibleISF_DpT_EE5valueEiE4typeELi0EEEDpOSM_(ptr noundef nonnull align 8 dereferenceable(24) %arrayinit.begin327, ptr noundef nonnull align 1 dereferenceable(4) @.str.10)
          to label %invoke.cont330 unwind label %lpad329

invoke.cont330:                                   ; preds = %invoke.cont319
  %arrayinit.element331 = getelementptr inbounds %"class.nlohmann::json_abi_v3_11_3::detail::json_ref", ptr %arrayinit.begin327, i64 1
  store ptr %arrayinit.element331, ptr %arrayinit.endOfInit328, align 8
  store i32 1, ptr %ref.tmp332, align 4
  invoke void @_ZN8nlohmann16json_abi_v3_11_36detail8json_refINS0_10basic_jsonISt3mapSt6vectorNSt7__cxx1112basic_stringIcSt11char_traitsIcESaIcEEEblmdSaNS0_14adl_serializerES5_IhSaIhEEvEEEC2IJiETnNSt9enable_ifIXsr3std16is_constructibleISF_DpT_EE5valueEiE4typeELi0EEEDpOSJ_(ptr noundef nonnull align 8 dereferenceable(24) %arrayinit.element331, ptr noundef nonnull align 4 dereferenceable(4) %ref.tmp332)
          to label %invoke.cont333 unwind label %lpad329

invoke.cont333:                                   ; preds = %invoke.cont330
  %_M_array341 = getelementptr inbounds %"class.std::initializer_list", ptr %agg.tmp325, i32 0, i32 0
  %arraystart342 = getelementptr inbounds [2 x %"class.nlohmann::json_abi_v3_11_3::detail::json_ref"], ptr %ref.tmp326, i64 0, i64 0
  store ptr %arraystart342, ptr %_M_array341, align 8
  %_M_len343 = getelementptr inbounds %"class.std::initializer_list", ptr %agg.tmp325, i32 0, i32 1
  store i64 2, ptr %_M_len343, align 8
  %125 = getelementptr inbounds { ptr, i64 }, ptr %agg.tmp325, i32 0, i32 0
  %126 = load ptr, ptr %125, align 8
  %127 = getelementptr inbounds { ptr, i64 }, ptr %agg.tmp325, i32 0, i32 1
  %128 = load i64, ptr %127, align 8
  invoke void @_ZN8nlohmann16json_abi_v3_11_36detail8json_refINS0_10basic_jsonISt3mapSt6vectorNSt7__cxx1112basic_stringIcSt11char_traitsIcESaIcEEEblmdSaNS0_14adl_serializerES5_IhSaIhEEvEEEC2ESt16initializer_listISG_E(ptr noundef nonnull align 8 dereferenceable(24) %arrayinit.begin323, ptr %126, i64 %128)
          to label %invoke.cont345 unwind label %lpad344

invoke.cont345:                                   ; preds = %invoke.cont333
  store i1 false, ptr %cleanup.isactive346, align 1
  %_M_array347 = getelementptr inbounds %"class.std::initializer_list", ptr %agg.tmp321, i32 0, i32 0
  %arraystart348 = getelementptr inbounds [1 x %"class.nlohmann::json_abi_v3_11_3::detail::json_ref"], ptr %ref.tmp322, i64 0, i64 0
  store ptr %arraystart348, ptr %_M_array347, align 8
  %_M_len349 = getelementptr inbounds %"class.std::initializer_list", ptr %agg.tmp321, i32 0, i32 1
  store i64 1, ptr %_M_len349, align 8
  %129 = getelementptr inbounds { ptr, i64 }, ptr %agg.tmp321, i32 0, i32 0
  %130 = load ptr, ptr %129, align 8
  %131 = getelementptr inbounds { ptr, i64 }, ptr %agg.tmp321, i32 0, i32 1
  %132 = load i64, ptr %131, align 8
  invoke void @_ZN8nlohmann16json_abi_v3_11_36detail8json_refINS0_10basic_jsonISt3mapSt6vectorNSt7__cxx1112basic_stringIcSt11char_traitsIcESaIcEEEblmdSaNS0_14adl_serializerES5_IhSaIhEEvEEEC2ESt16initializer_listISG_E(ptr noundef nonnull align 8 dereferenceable(24) %arrayinit.element320, ptr %130, i64 %132)
          to label %invoke.cont351 unwind label %lpad350

invoke.cont351:                                   ; preds = %invoke.cont345
  store i1 false, ptr %cleanup.isactive352, align 1
  %_M_array353 = getelementptr inbounds %"class.std::initializer_list", ptr %agg.tmp302, i32 0, i32 0
  %arraystart354 = getelementptr inbounds [6 x %"class.nlohmann::json_abi_v3_11_3::detail::json_ref"], ptr %ref.tmp303, i64 0, i64 0
  store ptr %arraystart354, ptr %_M_array353, align 8
  %_M_len355 = getelementptr inbounds %"class.std::initializer_list", ptr %agg.tmp302, i32 0, i32 1
  store i64 6, ptr %_M_len355, align 8
  %133 = getelementptr inbounds { ptr, i64 }, ptr %agg.tmp302, i32 0, i32 0
  %134 = load ptr, ptr %133, align 8
  %135 = getelementptr inbounds { ptr, i64 }, ptr %agg.tmp302, i32 0, i32 1
  %136 = load i64, ptr %135, align 8
  invoke void @_ZN8nlohmann16json_abi_v3_11_310basic_jsonISt3mapSt6vectorNSt7__cxx1112basic_stringIcSt11char_traitsIcESaIcEEEblmdSaNS0_14adl_serializerES3_IhSaIhEEvEC2ESt16initializer_listINS0_6detail8json_refISD_EEEbNSF_7value_tE(ptr noundef nonnull align 8 dereferenceable(16) %j301, ptr %134, i64 %136, i1 noundef zeroext true, i8 noundef zeroext 2)
          to label %invoke.cont357 unwind label %lpad356

invoke.cont357:                                   ; preds = %invoke.cont351
  %array.begin358 = getelementptr inbounds [6 x %"class.nlohmann::json_abi_v3_11_3::detail::json_ref"], ptr %ref.tmp303, i32 0, i32 0
  %137 = getelementptr inbounds %"class.nlohmann::json_abi_v3_11_3::detail::json_ref", ptr %array.begin358, i64 6
  br label %arraydestroy.body359

arraydestroy.body359:                             ; preds = %arraydestroy.body359, %invoke.cont357
  %arraydestroy.elementPast360 = phi ptr [ %137, %invoke.cont357 ], [ %arraydestroy.element361, %arraydestroy.body359 ]
  %arraydestroy.element361 = getelementptr inbounds %"class.nlohmann::json_abi_v3_11_3::detail::json_ref", ptr %arraydestroy.elementPast360, i64 -1
  call void @_ZN8nlohmann16json_abi_v3_11_36detail8json_refINS0_10basic_jsonISt3mapSt6vectorNSt7__cxx1112basic_stringIcSt11char_traitsIcESaIcEEEblmdSaNS0_14adl_serializerES5_IhSaIhEEvEEED2Ev(ptr noundef nonnull align 8 dereferenceable(24) %arraydestroy.element361) #16
  %arraydestroy.done362 = icmp eq ptr %arraydestroy.element361, %array.begin358
  br i1 %arraydestroy.done362, label %arraydestroy.done363, label %arraydestroy.body359

arraydestroy.done363:                             ; preds = %arraydestroy.body359
  %array.begin371 = getelementptr inbounds [1 x %"class.nlohmann::json_abi_v3_11_3::detail::json_ref"], ptr %ref.tmp322, i32 0, i32 0
  %138 = getelementptr inbounds %"class.nlohmann::json_abi_v3_11_3::detail::json_ref", ptr %array.begin371, i64 1
  br label %arraydestroy.body372

arraydestroy.body372:                             ; preds = %arraydestroy.body372, %arraydestroy.done363
  %arraydestroy.elementPast373 = phi ptr [ %138, %arraydestroy.done363 ], [ %arraydestroy.element374, %arraydestroy.body372 ]
  %arraydestroy.element374 = getelementptr inbounds %"class.nlohmann::json_abi_v3_11_3::detail::json_ref", ptr %arraydestroy.elementPast373, i64 -1
  call void @_ZN8nlohmann16json_abi_v3_11_36detail8json_refINS0_10basic_jsonISt3mapSt6vectorNSt7__cxx1112basic_stringIcSt11char_traitsIcESaIcEEEblmdSaNS0_14adl_serializerES5_IhSaIhEEvEEED2Ev(ptr noundef nonnull align 8 dereferenceable(24) %arraydestroy.element374) #16
  %arraydestroy.done375 = icmp eq ptr %arraydestroy.element374, %array.begin371
  br i1 %arraydestroy.done375, label %arraydestroy.done376, label %arraydestroy.body372

arraydestroy.done376:                             ; preds = %arraydestroy.body372
  %array.begin384 = getelementptr inbounds [2 x %"class.nlohmann::json_abi_v3_11_3::detail::json_ref"], ptr %ref.tmp326, i32 0, i32 0
  %139 = getelementptr inbounds %"class.nlohmann::json_abi_v3_11_3::detail::json_ref", ptr %array.begin384, i64 2
  br label %arraydestroy.body385

arraydestroy.body385:                             ; preds = %arraydestroy.body385, %arraydestroy.done376
  %arraydestroy.elementPast386 = phi ptr [ %139, %arraydestroy.done376 ], [ %arraydestroy.element387, %arraydestroy.body385 ]
  %arraydestroy.element387 = getelementptr inbounds %"class.nlohmann::json_abi_v3_11_3::detail::json_ref", ptr %arraydestroy.elementPast386, i64 -1
  call void @_ZN8nlohmann16json_abi_v3_11_36detail8json_refINS0_10basic_jsonISt3mapSt6vectorNSt7__cxx1112basic_stringIcSt11char_traitsIcESaIcEEEblmdSaNS0_14adl_serializerES5_IhSaIhEEvEEED2Ev(ptr noundef nonnull align 8 dereferenceable(24) %arraydestroy.element387) #16
  %arraydestroy.done388 = icmp eq ptr %arraydestroy.element387, %array.begin384
  br i1 %arraydestroy.done388, label %arraydestroy.done389, label %arraydestroy.body385

arraydestroy.done389:                             ; preds = %arraydestroy.body385
  %add.ptr417 = getelementptr inbounds i8, ptr %ss299, i64 16
  %call421 = invoke i32 @_ZSt4setwi(i32 noundef 1)
          to label %invoke.cont420 unwind label %lpad419

invoke.cont420:                                   ; preds = %arraydestroy.done389
  %coerce.dive422 = getelementptr inbounds %"struct.std::_Setw", ptr %agg.tmp418, i32 0, i32 0
  store i32 %call421, ptr %coerce.dive422, align 4
  %coerce.dive423 = getelementptr inbounds %"struct.std::_Setw", ptr %agg.tmp418, i32 0, i32 0
  %140 = load i32, ptr %coerce.dive423, align 4
  %call425 = invoke noundef nonnull align 8 dereferenceable(8) ptr @_ZStlsIcSt11char_traitsIcEERSt13basic_ostreamIT_T0_ES6_St5_Setw(ptr noundef nonnull align 8 dereferenceable(8) %add.ptr417, i32 %140)
          to label %invoke.cont424 unwind label %lpad419

invoke.cont424:                                   ; preds = %invoke.cont420
  %call428 = invoke i8 @_ZSt7setfillIcESt8_SetfillIT_ES1_(i8 noundef signext 9)
          to label %invoke.cont427 unwind label %lpad419

invoke.cont427:                                   ; preds = %invoke.cont424
  %coerce.dive429 = getelementptr inbounds %"struct.std::_Setfill", ptr %agg.tmp426, i32 0, i32 0
  store i8 %call428, ptr %coerce.dive429, align 1
  %coerce.dive430 = getelementptr inbounds %"struct.std::_Setfill", ptr %agg.tmp426, i32 0, i32 0
  %141 = load i8, ptr %coerce.dive430, align 1
  %call432 = invoke noundef nonnull align 8 dereferenceable(8) ptr @_ZStlsIcSt11char_traitsIcEERSt13basic_ostreamIT_T0_ES6_St8_SetfillIS3_E(ptr noundef nonnull align 8 dereferenceable(8) %call425, i8 %141)
          to label %invoke.cont431 unwind label %lpad419

invoke.cont431:                                   ; preds = %invoke.cont427
  %call434 = invoke noundef nonnull align 8 dereferenceable(8) ptr @_ZN8nlohmann16json_abi_v3_11_3lsERSoRKNS0_10basic_jsonISt3mapSt6vectorNSt7__cxx1112basic_stringIcSt11char_traitsIcESaIcEEEblmdSaNS0_14adl_serializerES4_IhSaIhEEvEE(ptr noundef nonnull align 8 dereferenceable(8) %call432, ptr noundef nonnull align 8 dereferenceable(16) %j301)
          to label %invoke.cont433 unwind label %lpad419

invoke.cont433:                                   ; preds = %invoke.cont431
  invoke void @_ZN7doctest6detail20ExpressionDecomposerC1ENS_10assertType4EnumE(ptr noundef nonnull align 4 dereferenceable(4) %ref.tmp437, i32 noundef 10)
          to label %invoke.cont438 unwind label %lpad419

invoke.cont438:                                   ; preds = %invoke.cont433
  invoke void @_ZNKSt7__cxx1118basic_stringstreamIcSt11char_traitsIcESaIcEE3strEv(ptr sret(%"class.std::__cxx11::basic_string") align 8 %ref.tmp439, ptr noundef nonnull align 8 dereferenceable(128) %ss299)
          to label %invoke.cont440 unwind label %lpad419

invoke.cont440:                                   ; preds = %invoke.cont438
  invoke void @_ZN7doctest6detail20ExpressionDecomposerlsINSt7__cxx1112basic_stringIcSt11char_traitsIcESaIcEEEEENS0_14Expression_lhsIT_EEOSA_(ptr sret(%"struct.doctest::detail::Expression_lhs") align 8 %ref.tmp436, ptr noundef nonnull align 4 dereferenceable(4) %ref.tmp437, ptr noundef nonnull align 8 dereferenceable(32) %ref.tmp439)
          to label %invoke.cont442 unwind label %lpad441

invoke.cont442:                                   ; preds = %invoke.cont440
  invoke void @_ZN7doctest6detail14Expression_lhsINSt7__cxx1112basic_stringIcSt11char_traitsIcESaIcEEEEeqIRA49_KcEEDTcmcvveqclL_ZNS0_7declvalIS7_EEOT_vEEclsr7doctest6detailE7declvalISE_EEtlNS0_6ResultEEESF_(ptr sret(%"struct.doctest::detail::Result") align 8 %ref.tmp435, ptr noundef nonnull align 8 dereferenceable(36) %ref.tmp436, ptr noundef nonnull align 1 dereferenceable(49) @.str.18)
          to label %invoke.cont444 unwind label %lpad443

invoke.cont444:                                   ; preds = %invoke.cont442
  %call447 = invoke noundef zeroext i1 @_ZN7doctest6detail13decomp_assertENS_10assertType4EnumEPKciS4_RKNS0_6ResultE(i32 noundef 10, ptr noundef @.str.2, i32 noundef 44, ptr noundef @.str.17, ptr noundef nonnull align 8 dereferenceable(32) %ref.tmp435)
          to label %invoke.cont446 unwind label %lpad445

invoke.cont446:                                   ; preds = %invoke.cont444
  call void @_ZN7doctest6detail6ResultD2Ev(ptr noundef nonnull align 8 dereferenceable(32) %ref.tmp435) #16
  call void @_ZN7doctest6detail14Expression_lhsINSt7__cxx1112basic_stringIcSt11char_traitsIcESaIcEEEED2Ev(ptr noundef nonnull align 8 dereferenceable(36) %ref.tmp436) #16
  call void @_ZNSt7__cxx1112basic_stringIcSt11char_traitsIcESaIcEED1Ev(ptr noundef nonnull align 8 dereferenceable(32) %ref.tmp439) #16
  call void @_ZN8nlohmann16json_abi_v3_11_310basic_jsonISt3mapSt6vectorNSt7__cxx1112basic_stringIcSt11char_traitsIcESaIcEEEblmdSaNS0_14adl_serializerES3_IhSaIhEEvED2Ev(ptr noundef nonnull align 8 dereferenceable(16) %j301) #16
  call void @_ZNSt7__cxx1118basic_stringstreamIcSt11char_traitsIcESaIcEED1Ev(ptr noundef nonnull align 8 dereferenceable(128) %ss299) #16
  br label %if.end453

ehcleanup288:                                     ; preds = %ehcleanup286, %lpad137
  call void @_ZN7doctest6detail7SubcaseD1Ev(ptr noundef nonnull align 8 dereferenceable(41) %ref.tmp131) #16
  br label %ehcleanup456

lpad292:                                          ; preds = %invoke.cont291
  %142 = landingpad { ptr, i32 }
          cleanup
  %143 = extractvalue { ptr, i32 } %142, 0
  store ptr %143, ptr %exn.slot, align 8
  %144 = extractvalue { ptr, i32 } %142, 1
  store i32 %144, ptr %ehselector.slot, align 4
  call void @_ZN7doctest6StringD1Ev(ptr noundef nonnull align 8 dereferenceable(24) %ref.tmp290) #16
  br label %ehcleanup456

lpad295:                                          ; preds = %if.then298, %invoke.cont293
  %145 = landingpad { ptr, i32 }
          cleanup
  %146 = extractvalue { ptr, i32 } %145, 0
  store ptr %146, ptr %exn.slot, align 8
  %147 = extractvalue { ptr, i32 } %145, 1
  store i32 %147, ptr %ehselector.slot, align 4
  br label %ehcleanup454

lpad306:                                          ; preds = %invoke.cont316, %invoke.cont313, %invoke.cont310, %invoke.cont307, %invoke.cont300
  %148 = landingpad { ptr, i32 }
          cleanup
  %149 = extractvalue { ptr, i32 } %148, 0
  store ptr %149, ptr %exn.slot, align 8
  %150 = extractvalue { ptr, i32 } %148, 1
  store i32 %150, ptr %ehselector.slot, align 4
  br label %ehcleanup407

lpad329:                                          ; preds = %invoke.cont330, %invoke.cont319
  %151 = landingpad { ptr, i32 }
          cleanup
  %152 = extractvalue { ptr, i32 } %151, 0
  store ptr %152, ptr %exn.slot, align 8
  %153 = extractvalue { ptr, i32 } %151, 1
  store i32 %153, ptr %ehselector.slot, align 4
  %154 = load ptr, ptr %arrayinit.endOfInit328, align 8
  %arraydestroy.isempty335 = icmp eq ptr %arrayinit.begin327, %154
  br i1 %arraydestroy.isempty335, label %arraydestroy.done340, label %arraydestroy.body336

arraydestroy.body336:                             ; preds = %arraydestroy.body336, %lpad329
  %arraydestroy.elementPast337 = phi ptr [ %154, %lpad329 ], [ %arraydestroy.element338, %arraydestroy.body336 ]
  %arraydestroy.element338 = getelementptr inbounds %"class.nlohmann::json_abi_v3_11_3::detail::json_ref", ptr %arraydestroy.elementPast337, i64 -1
  call void @_ZN8nlohmann16json_abi_v3_11_36detail8json_refINS0_10basic_jsonISt3mapSt6vectorNSt7__cxx1112basic_stringIcSt11char_traitsIcESaIcEEEblmdSaNS0_14adl_serializerES5_IhSaIhEEvEEED2Ev(ptr noundef nonnull align 8 dereferenceable(24) %arraydestroy.element338) #16
  %arraydestroy.done339 = icmp eq ptr %arraydestroy.element338, %arrayinit.begin327
  br i1 %arraydestroy.done339, label %arraydestroy.done340, label %arraydestroy.body336

arraydestroy.done340:                             ; preds = %arraydestroy.body336, %lpad329
  br label %ehcleanup397

lpad344:                                          ; preds = %invoke.cont333
  %155 = landingpad { ptr, i32 }
          cleanup
  %156 = extractvalue { ptr, i32 } %155, 0
  store ptr %156, ptr %exn.slot, align 8
  %157 = extractvalue { ptr, i32 } %155, 1
  store i32 %157, ptr %ehselector.slot, align 4
  br label %ehcleanup390

lpad350:                                          ; preds = %invoke.cont345
  %158 = landingpad { ptr, i32 }
          cleanup
  %159 = extractvalue { ptr, i32 } %158, 0
  store ptr %159, ptr %exn.slot, align 8
  %160 = extractvalue { ptr, i32 } %158, 1
  store i32 %160, ptr %ehselector.slot, align 4
  br label %ehcleanup377

lpad356:                                          ; preds = %invoke.cont351
  %161 = landingpad { ptr, i32 }
          cleanup
  %162 = extractvalue { ptr, i32 } %161, 0
  store ptr %162, ptr %exn.slot, align 8
  %163 = extractvalue { ptr, i32 } %161, 1
  store i32 %163, ptr %ehselector.slot, align 4
  %array.begin365 = getelementptr inbounds [6 x %"class.nlohmann::json_abi_v3_11_3::detail::json_ref"], ptr %ref.tmp303, i32 0, i32 0
  %164 = getelementptr inbounds %"class.nlohmann::json_abi_v3_11_3::detail::json_ref", ptr %array.begin365, i64 6
  br label %arraydestroy.body366

arraydestroy.body366:                             ; preds = %arraydestroy.body366, %lpad356
  %arraydestroy.elementPast367 = phi ptr [ %164, %lpad356 ], [ %arraydestroy.element368, %arraydestroy.body366 ]
  %arraydestroy.element368 = getelementptr inbounds %"class.nlohmann::json_abi_v3_11_3::detail::json_ref", ptr %arraydestroy.elementPast367, i64 -1
  call void @_ZN8nlohmann16json_abi_v3_11_36detail8json_refINS0_10basic_jsonISt3mapSt6vectorNSt7__cxx1112basic_stringIcSt11char_traitsIcESaIcEEEblmdSaNS0_14adl_serializerES5_IhSaIhEEvEEED2Ev(ptr noundef nonnull align 8 dereferenceable(24) %arraydestroy.element368) #16
  %arraydestroy.done369 = icmp eq ptr %arraydestroy.element368, %array.begin365
  br i1 %arraydestroy.done369, label %arraydestroy.done370, label %arraydestroy.body366

arraydestroy.done370:                             ; preds = %arraydestroy.body366
  br label %ehcleanup377

ehcleanup377:                                     ; preds = %arraydestroy.done370, %lpad350
  %array.begin378 = getelementptr inbounds [1 x %"class.nlohmann::json_abi_v3_11_3::detail::json_ref"], ptr %ref.tmp322, i32 0, i32 0
  %165 = getelementptr inbounds %"class.nlohmann::json_abi_v3_11_3::detail::json_ref", ptr %array.begin378, i64 1
  br label %arraydestroy.body379

arraydestroy.body379:                             ; preds = %arraydestroy.body379, %ehcleanup377
  %arraydestroy.elementPast380 = phi ptr [ %165, %ehcleanup377 ], [ %arraydestroy.element381, %arraydestroy.body379 ]
  %arraydestroy.element381 = getelementptr inbounds %"class.nlohmann::json_abi_v3_11_3::detail::json_ref", ptr %arraydestroy.elementPast380, i64 -1
  call void @_ZN8nlohmann16json_abi_v3_11_36detail8json_refINS0_10basic_jsonISt3mapSt6vectorNSt7__cxx1112basic_stringIcSt11char_traitsIcESaIcEEEblmdSaNS0_14adl_serializerES5_IhSaIhEEvEEED2Ev(ptr noundef nonnull align 8 dereferenceable(24) %arraydestroy.element381) #16
  %arraydestroy.done382 = icmp eq ptr %arraydestroy.element381, %array.begin378
  br i1 %arraydestroy.done382, label %arraydestroy.done383, label %arraydestroy.body379

arraydestroy.done383:                             ; preds = %arraydestroy.body379
  br label %ehcleanup390

ehcleanup390:                                     ; preds = %arraydestroy.done383, %lpad344
  %array.begin391 = getelementptr inbounds [2 x %"class.nlohmann::json_abi_v3_11_3::detail::json_ref"], ptr %ref.tmp326, i32 0, i32 0
  %166 = getelementptr inbounds %"class.nlohmann::json_abi_v3_11_3::detail::json_ref", ptr %array.begin391, i64 2
  br label %arraydestroy.body392

arraydestroy.body392:                             ; preds = %arraydestroy.body392, %ehcleanup390
  %arraydestroy.elementPast393 = phi ptr [ %166, %ehcleanup390 ], [ %arraydestroy.element394, %arraydestroy.body392 ]
  %arraydestroy.element394 = getelementptr inbounds %"class.nlohmann::json_abi_v3_11_3::detail::json_ref", ptr %arraydestroy.elementPast393, i64 -1
  call void @_ZN8nlohmann16json_abi_v3_11_36detail8json_refINS0_10basic_jsonISt3mapSt6vectorNSt7__cxx1112basic_stringIcSt11char_traitsIcESaIcEEEblmdSaNS0_14adl_serializerES5_IhSaIhEEvEEED2Ev(ptr noundef nonnull align 8 dereferenceable(24) %arraydestroy.element394) #16
  %arraydestroy.done395 = icmp eq ptr %arraydestroy.element394, %array.begin391
  br i1 %arraydestroy.done395, label %arraydestroy.done396, label %arraydestroy.body392

arraydestroy.done396:                             ; preds = %arraydestroy.body392
  br label %ehcleanup397

ehcleanup397:                                     ; preds = %arraydestroy.done396, %arraydestroy.done340
  %cleanup.is_active398 = load i1, ptr %cleanup.isactive346, align 1
  br i1 %cleanup.is_active398, label %cleanup.action399, label %cleanup.done406

cleanup.action399:                                ; preds = %ehcleanup397
  %167 = load ptr, ptr %arrayinit.endOfInit324, align 8
  %arraydestroy.isempty400 = icmp eq ptr %arrayinit.begin323, %167
  br i1 %arraydestroy.isempty400, label %arraydestroy.done405, label %arraydestroy.body401

arraydestroy.body401:                             ; preds = %arraydestroy.body401, %cleanup.action399
  %arraydestroy.elementPast402 = phi ptr [ %167, %cleanup.action399 ], [ %arraydestroy.element403, %arraydestroy.body401 ]
  %arraydestroy.element403 = getelementptr inbounds %"class.nlohmann::json_abi_v3_11_3::detail::json_ref", ptr %arraydestroy.elementPast402, i64 -1
  call void @_ZN8nlohmann16json_abi_v3_11_36detail8json_refINS0_10basic_jsonISt3mapSt6vectorNSt7__cxx1112basic_stringIcSt11char_traitsIcESaIcEEEblmdSaNS0_14adl_serializerES5_IhSaIhEEvEEED2Ev(ptr noundef nonnull align 8 dereferenceable(24) %arraydestroy.element403) #16
  %arraydestroy.done404 = icmp eq ptr %arraydestroy.element403, %arrayinit.begin323
  br i1 %arraydestroy.done404, label %arraydestroy.done405, label %arraydestroy.body401

arraydestroy.done405:                             ; preds = %arraydestroy.body401, %cleanup.action399
  br label %cleanup.done406

cleanup.done406:                                  ; preds = %arraydestroy.done405, %ehcleanup397
  br label %ehcleanup407

ehcleanup407:                                     ; preds = %cleanup.done406, %lpad306
  %cleanup.is_active408 = load i1, ptr %cleanup.isactive352, align 1
  br i1 %cleanup.is_active408, label %cleanup.action409, label %cleanup.done416

cleanup.action409:                                ; preds = %ehcleanup407
  %168 = load ptr, ptr %arrayinit.endOfInit305, align 8
  %arraydestroy.isempty410 = icmp eq ptr %arrayinit.begin304, %168
  br i1 %arraydestroy.isempty410, label %arraydestroy.done415, label %arraydestroy.body411

arraydestroy.body411:                             ; preds = %arraydestroy.body411, %cleanup.action409
  %arraydestroy.elementPast412 = phi ptr [ %168, %cleanup.action409 ], [ %arraydestroy.element413, %arraydestroy.body411 ]
  %arraydestroy.element413 = getelementptr inbounds %"class.nlohmann::json_abi_v3_11_3::detail::json_ref", ptr %arraydestroy.elementPast412, i64 -1
  call void @_ZN8nlohmann16json_abi_v3_11_36detail8json_refINS0_10basic_jsonISt3mapSt6vectorNSt7__cxx1112basic_stringIcSt11char_traitsIcESaIcEEEblmdSaNS0_14adl_serializerES5_IhSaIhEEvEEED2Ev(ptr noundef nonnull align 8 dereferenceable(24) %arraydestroy.element413) #16
  %arraydestroy.done414 = icmp eq ptr %arraydestroy.element413, %arrayinit.begin304
  br i1 %arraydestroy.done414, label %arraydestroy.done415, label %arraydestroy.body411

arraydestroy.done415:                             ; preds = %arraydestroy.body411, %cleanup.action409
  br label %cleanup.done416

cleanup.done416:                                  ; preds = %arraydestroy.done415, %ehcleanup407
  br label %ehcleanup452

lpad419:                                          ; preds = %invoke.cont438, %invoke.cont433, %invoke.cont431, %invoke.cont427, %invoke.cont424, %invoke.cont420, %arraydestroy.done389
  %169 = landingpad { ptr, i32 }
          cleanup
  %170 = extractvalue { ptr, i32 } %169, 0
  store ptr %170, ptr %exn.slot, align 8
  %171 = extractvalue { ptr, i32 } %169, 1
  store i32 %171, ptr %ehselector.slot, align 4
  br label %ehcleanup451

lpad441:                                          ; preds = %invoke.cont440
  %172 = landingpad { ptr, i32 }
          cleanup
  %173 = extractvalue { ptr, i32 } %172, 0
  store ptr %173, ptr %exn.slot, align 8
  %174 = extractvalue { ptr, i32 } %172, 1
  store i32 %174, ptr %ehselector.slot, align 4
  br label %ehcleanup450

lpad443:                                          ; preds = %invoke.cont442
  %175 = landingpad { ptr, i32 }
          cleanup
  %176 = extractvalue { ptr, i32 } %175, 0
  store ptr %176, ptr %exn.slot, align 8
  %177 = extractvalue { ptr, i32 } %175, 1
  store i32 %177, ptr %ehselector.slot, align 4
  br label %ehcleanup449

lpad445:                                          ; preds = %invoke.cont444
  %178 = landingpad { ptr, i32 }
          cleanup
  %179 = extractvalue { ptr, i32 } %178, 0
  store ptr %179, ptr %exn.slot, align 8
  %180 = extractvalue { ptr, i32 } %178, 1
  store i32 %180, ptr %ehselector.slot, align 4
  call void @_ZN7doctest6detail6ResultD2Ev(ptr noundef nonnull align 8 dereferenceable(32) %ref.tmp435) #16
  br label %ehcleanup449

ehcleanup449:                                     ; preds = %lpad445, %lpad443
  call void @_ZN7doctest6detail14Expression_lhsINSt7__cxx1112basic_stringIcSt11char_traitsIcESaIcEEEED2Ev(ptr noundef nonnull align 8 dereferenceable(36) %ref.tmp436) #16
  br label %ehcleanup450

ehcleanup450:                                     ; preds = %ehcleanup449, %lpad441
  call void @_ZNSt7__cxx1112basic_stringIcSt11char_traitsIcESaIcEED1Ev(ptr noundef nonnull align 8 dereferenceable(32) %ref.tmp439) #16
  br label %ehcleanup451

ehcleanup451:                                     ; preds = %ehcleanup450, %lpad419
  call void @_ZN8nlohmann16json_abi_v3_11_310basic_jsonISt3mapSt6vectorNSt7__cxx1112basic_stringIcSt11char_traitsIcESaIcEEEblmdSaNS0_14adl_serializerES3_IhSaIhEEvED2Ev(ptr noundef nonnull align 8 dereferenceable(16) %j301) #16
  br label %ehcleanup452

ehcleanup452:                                     ; preds = %ehcleanup451, %cleanup.done416
  call void @_ZNSt7__cxx1118basic_stringstreamIcSt11char_traitsIcESaIcEED1Ev(ptr noundef nonnull align 8 dereferenceable(128) %ss299) #16
  br label %ehcleanup454

if.end453:                                        ; preds = %invoke.cont446, %invoke.cont296
  call void @_ZN7doctest6detail7SubcaseD1Ev(ptr noundef nonnull align 8 dereferenceable(41) %ref.tmp289) #16
  br label %if.end455

ehcleanup454:                                     ; preds = %ehcleanup452, %lpad295
  call void @_ZN7doctest6detail7SubcaseD1Ev(ptr noundef nonnull align 8 dereferenceable(41) %ref.tmp289) #16
  br label %ehcleanup456

if.end455:                                        ; preds = %if.end453, %invoke.cont3
  call void @_ZN7doctest6detail7SubcaseD1Ev(ptr noundef nonnull align 8 dereferenceable(41) %ref.tmp) #16
  call void @_ZN7doctest6StringC1EPKc(ptr noundef nonnull align 8 dereferenceable(24) %ref.tmp458, ptr noundef @.str.19)
  invoke void @_ZN7doctest6detail7SubcaseC1ERKNS_6StringEPKci(ptr noundef nonnull align 8 dereferenceable(41) %ref.tmp457, ptr noundef nonnull align 8 dereferenceable(24) %ref.tmp458, ptr noundef @.str.2, i32 noundef 48)
          to label %invoke.cont460 unwind label %lpad459

invoke.cont460:                                   ; preds = %if.end455
  call void @_ZN7doctest6StringD1Ev(ptr noundef nonnull align 8 dereferenceable(24) %ref.tmp458) #16
  store ptr %ref.tmp457, ptr %DOCTEST_ANON_SUBCASE_8, align 8
  %181 = load ptr, ptr %DOCTEST_ANON_SUBCASE_8, align 8
  %call464 = invoke noundef zeroext i1 @_ZNK7doctest6detail7SubcasecvbEv(ptr noundef nonnull align 8 dereferenceable(41) %181)
          to label %invoke.cont463 unwind label %lpad462

invoke.cont463:                                   ; preds = %invoke.cont460
  br i1 %call464, label %if.then465, label %if.end937

if.then465:                                       ; preds = %invoke.cont463
  invoke void @_ZN7doctest6StringC1EPKc(ptr noundef nonnull align 8 dereferenceable(24) %ref.tmp467, ptr noundef @.str.8)
          to label %invoke.cont468 unwind label %lpad462

invoke.cont468:                                   ; preds = %if.then465
  invoke void @_ZN7doctest6detail7SubcaseC1ERKNS_6StringEPKci(ptr noundef nonnull align 8 dereferenceable(41) %ref.tmp466, ptr noundef nonnull align 8 dereferenceable(24) %ref.tmp467, ptr noundef @.str.2, i32 noundef 50)
          to label %invoke.cont470 unwind label %lpad469

invoke.cont470:                                   ; preds = %invoke.cont468
  call void @_ZN7doctest6StringD1Ev(ptr noundef nonnull align 8 dereferenceable(24) %ref.tmp467) #16
  store ptr %ref.tmp466, ptr %DOCTEST_ANON_SUBCASE_9, align 8
  %182 = load ptr, ptr %DOCTEST_ANON_SUBCASE_9, align 8
  %call474 = invoke noundef zeroext i1 @_ZNK7doctest6detail7SubcasecvbEv(ptr noundef nonnull align 8 dereferenceable(41) %182)
          to label %invoke.cont473 unwind label %lpad472

invoke.cont473:                                   ; preds = %invoke.cont470
  br i1 %call474, label %if.then475, label %if.end616

if.then475:                                       ; preds = %invoke.cont473
  invoke void @_ZNSt7__cxx1118basic_stringstreamIcSt11char_traitsIcESaIcEEC1Ev(ptr noundef nonnull align 8 dereferenceable(128) %ss476)
          to label %invoke.cont477 unwind label %lpad472

invoke.cont477:                                   ; preds = %if.then475
  %arrayinit.begin481 = getelementptr inbounds [6 x %"class.nlohmann::json_abi_v3_11_3::detail::json_ref"], ptr %ref.tmp480, i64 0, i64 0
  store i1 true, ptr %cleanup.isactive529, align 1
  store ptr %arrayinit.begin481, ptr %arrayinit.endOfInit482, align 8
  invoke void @_ZN8nlohmann16json_abi_v3_11_36detail8json_refINS0_10basic_jsonISt3mapSt6vectorNSt7__cxx1112basic_stringIcSt11char_traitsIcESaIcEEEblmdSaNS0_14adl_serializerES5_IhSaIhEEvEEEC2IJRA4_KcETnNSt9enable_ifIXsr3std16is_constructibleISF_DpT_EE5valueEiE4typeELi0EEEDpOSM_(ptr noundef nonnull align 8 dereferenceable(24) %arrayinit.begin481, ptr noundef nonnull align 1 dereferenceable(4) @.str.9)
          to label %invoke.cont484 unwind label %lpad483

invoke.cont484:                                   ; preds = %invoke.cont477
  %arrayinit.element485 = getelementptr inbounds %"class.nlohmann::json_abi_v3_11_3::detail::json_ref", ptr %arrayinit.begin481, i64 1
  store ptr %arrayinit.element485, ptr %arrayinit.endOfInit482, align 8
  store i32 1, ptr %ref.tmp486, align 4
  invoke void @_ZN8nlohmann16json_abi_v3_11_36detail8json_refINS0_10basic_jsonISt3mapSt6vectorNSt7__cxx1112basic_stringIcSt11char_traitsIcESaIcEEEblmdSaNS0_14adl_serializerES5_IhSaIhEEvEEEC2IJiETnNSt9enable_ifIXsr3std16is_constructibleISF_DpT_EE5valueEiE4typeELi0EEEDpOSJ_(ptr noundef nonnull align 8 dereferenceable(24) %arrayinit.element485, ptr noundef nonnull align 4 dereferenceable(4) %ref.tmp486)
          to label %invoke.cont487 unwind label %lpad483

invoke.cont487:                                   ; preds = %invoke.cont484
  %arrayinit.element488 = getelementptr inbounds %"class.nlohmann::json_abi_v3_11_3::detail::json_ref", ptr %arrayinit.element485, i64 1
  store ptr %arrayinit.element488, ptr %arrayinit.endOfInit482, align 8
  store i32 2, ptr %ref.tmp489, align 4
  invoke void @_ZN8nlohmann16json_abi_v3_11_36detail8json_refINS0_10basic_jsonISt3mapSt6vectorNSt7__cxx1112basic_stringIcSt11char_traitsIcESaIcEEEblmdSaNS0_14adl_serializerES5_IhSaIhEEvEEEC2IJiETnNSt9enable_ifIXsr3std16is_constructibleISF_DpT_EE5valueEiE4typeELi0EEEDpOSJ_(ptr noundef nonnull align 8 dereferenceable(24) %arrayinit.element488, ptr noundef nonnull align 4 dereferenceable(4) %ref.tmp489)
          to label %invoke.cont490 unwind label %lpad483

invoke.cont490:                                   ; preds = %invoke.cont487
  %arrayinit.element491 = getelementptr inbounds %"class.nlohmann::json_abi_v3_11_3::detail::json_ref", ptr %arrayinit.element488, i64 1
  store ptr %arrayinit.element491, ptr %arrayinit.endOfInit482, align 8
  store i32 3, ptr %ref.tmp492, align 4
  invoke void @_ZN8nlohmann16json_abi_v3_11_36detail8json_refINS0_10basic_jsonISt3mapSt6vectorNSt7__cxx1112basic_stringIcSt11char_traitsIcESaIcEEEblmdSaNS0_14adl_serializerES5_IhSaIhEEvEEEC2IJiETnNSt9enable_ifIXsr3std16is_constructibleISF_DpT_EE5valueEiE4typeELi0EEEDpOSJ_(ptr noundef nonnull align 8 dereferenceable(24) %arrayinit.element491, ptr noundef nonnull align 4 dereferenceable(4) %ref.tmp492)
          to label %invoke.cont493 unwind label %lpad483

invoke.cont493:                                   ; preds = %invoke.cont490
  %arrayinit.element494 = getelementptr inbounds %"class.nlohmann::json_abi_v3_11_3::detail::json_ref", ptr %arrayinit.element491, i64 1
  store ptr %arrayinit.element494, ptr %arrayinit.endOfInit482, align 8
  store i8 0, ptr %ref.tmp495, align 1
  invoke void @_ZN8nlohmann16json_abi_v3_11_36detail8json_refINS0_10basic_jsonISt3mapSt6vectorNSt7__cxx1112basic_stringIcSt11char_traitsIcESaIcEEEblmdSaNS0_14adl_serializerES5_IhSaIhEEvEEEC2IJbETnNSt9enable_ifIXsr3std16is_constructibleISF_DpT_EE5valueEiE4typeELi0EEEDpOSJ_(ptr noundef nonnull align 8 dereferenceable(24) %arrayinit.element494, ptr noundef nonnull align 1 dereferenceable(1) %ref.tmp495)
          to label %invoke.cont496 unwind label %lpad483

invoke.cont496:                                   ; preds = %invoke.cont493
  %arrayinit.element497 = getelementptr inbounds %"class.nlohmann::json_abi_v3_11_3::detail::json_ref", ptr %arrayinit.element494, i64 1
  store ptr %arrayinit.element497, ptr %arrayinit.endOfInit482, align 8
  %arrayinit.begin500 = getelementptr inbounds [1 x %"class.nlohmann::json_abi_v3_11_3::detail::json_ref"], ptr %ref.tmp499, i64 0, i64 0
  store i1 true, ptr %cleanup.isactive523, align 1
  store ptr %arrayinit.begin500, ptr %arrayinit.endOfInit501, align 8
  %arrayinit.begin504 = getelementptr inbounds [2 x %"class.nlohmann::json_abi_v3_11_3::detail::json_ref"], ptr %ref.tmp503, i64 0, i64 0
  store ptr %arrayinit.begin504, ptr %arrayinit.endOfInit505, align 8
  invoke void @_ZN8nlohmann16json_abi_v3_11_36detail8json_refINS0_10basic_jsonISt3mapSt6vectorNSt7__cxx1112basic_stringIcSt11char_traitsIcESaIcEEEblmdSaNS0_14adl_serializerES5_IhSaIhEEvEEEC2IJRA4_KcETnNSt9enable_ifIXsr3std16is_constructibleISF_DpT_EE5valueEiE4typeELi0EEEDpOSM_(ptr noundef nonnull align 8 dereferenceable(24) %arrayinit.begin504, ptr noundef nonnull align 1 dereferenceable(4) @.str.10)
          to label %invoke.cont507 unwind label %lpad506

invoke.cont507:                                   ; preds = %invoke.cont496
  %arrayinit.element508 = getelementptr inbounds %"class.nlohmann::json_abi_v3_11_3::detail::json_ref", ptr %arrayinit.begin504, i64 1
  store ptr %arrayinit.element508, ptr %arrayinit.endOfInit505, align 8
  store i32 1, ptr %ref.tmp509, align 4
  invoke void @_ZN8nlohmann16json_abi_v3_11_36detail8json_refINS0_10basic_jsonISt3mapSt6vectorNSt7__cxx1112basic_stringIcSt11char_traitsIcESaIcEEEblmdSaNS0_14adl_serializerES5_IhSaIhEEvEEEC2IJiETnNSt9enable_ifIXsr3std16is_constructibleISF_DpT_EE5valueEiE4typeELi0EEEDpOSJ_(ptr noundef nonnull align 8 dereferenceable(24) %arrayinit.element508, ptr noundef nonnull align 4 dereferenceable(4) %ref.tmp509)
          to label %invoke.cont510 unwind label %lpad506

invoke.cont510:                                   ; preds = %invoke.cont507
  %_M_array518 = getelementptr inbounds %"class.std::initializer_list", ptr %agg.tmp502, i32 0, i32 0
  %arraystart519 = getelementptr inbounds [2 x %"class.nlohmann::json_abi_v3_11_3::detail::json_ref"], ptr %ref.tmp503, i64 0, i64 0
  store ptr %arraystart519, ptr %_M_array518, align 8
  %_M_len520 = getelementptr inbounds %"class.std::initializer_list", ptr %agg.tmp502, i32 0, i32 1
  store i64 2, ptr %_M_len520, align 8
  %183 = getelementptr inbounds { ptr, i64 }, ptr %agg.tmp502, i32 0, i32 0
  %184 = load ptr, ptr %183, align 8
  %185 = getelementptr inbounds { ptr, i64 }, ptr %agg.tmp502, i32 0, i32 1
  %186 = load i64, ptr %185, align 8
  invoke void @_ZN8nlohmann16json_abi_v3_11_36detail8json_refINS0_10basic_jsonISt3mapSt6vectorNSt7__cxx1112basic_stringIcSt11char_traitsIcESaIcEEEblmdSaNS0_14adl_serializerES5_IhSaIhEEvEEEC2ESt16initializer_listISG_E(ptr noundef nonnull align 8 dereferenceable(24) %arrayinit.begin500, ptr %184, i64 %186)
          to label %invoke.cont522 unwind label %lpad521

invoke.cont522:                                   ; preds = %invoke.cont510
  store i1 false, ptr %cleanup.isactive523, align 1
  %_M_array524 = getelementptr inbounds %"class.std::initializer_list", ptr %agg.tmp498, i32 0, i32 0
  %arraystart525 = getelementptr inbounds [1 x %"class.nlohmann::json_abi_v3_11_3::detail::json_ref"], ptr %ref.tmp499, i64 0, i64 0
  store ptr %arraystart525, ptr %_M_array524, align 8
  %_M_len526 = getelementptr inbounds %"class.std::initializer_list", ptr %agg.tmp498, i32 0, i32 1
  store i64 1, ptr %_M_len526, align 8
  %187 = getelementptr inbounds { ptr, i64 }, ptr %agg.tmp498, i32 0, i32 0
  %188 = load ptr, ptr %187, align 8
  %189 = getelementptr inbounds { ptr, i64 }, ptr %agg.tmp498, i32 0, i32 1
  %190 = load i64, ptr %189, align 8
  invoke void @_ZN8nlohmann16json_abi_v3_11_36detail8json_refINS0_10basic_jsonISt3mapSt6vectorNSt7__cxx1112basic_stringIcSt11char_traitsIcESaIcEEEblmdSaNS0_14adl_serializerES5_IhSaIhEEvEEEC2ESt16initializer_listISG_E(ptr noundef nonnull align 8 dereferenceable(24) %arrayinit.element497, ptr %188, i64 %190)
          to label %invoke.cont528 unwind label %lpad527

invoke.cont528:                                   ; preds = %invoke.cont522
  store i1 false, ptr %cleanup.isactive529, align 1
  %_M_array530 = getelementptr inbounds %"class.std::initializer_list", ptr %agg.tmp479, i32 0, i32 0
  %arraystart531 = getelementptr inbounds [6 x %"class.nlohmann::json_abi_v3_11_3::detail::json_ref"], ptr %ref.tmp480, i64 0, i64 0
  store ptr %arraystart531, ptr %_M_array530, align 8
  %_M_len532 = getelementptr inbounds %"class.std::initializer_list", ptr %agg.tmp479, i32 0, i32 1
  store i64 6, ptr %_M_len532, align 8
  %191 = getelementptr inbounds { ptr, i64 }, ptr %agg.tmp479, i32 0, i32 0
  %192 = load ptr, ptr %191, align 8
  %193 = getelementptr inbounds { ptr, i64 }, ptr %agg.tmp479, i32 0, i32 1
  %194 = load i64, ptr %193, align 8
  invoke void @_ZN8nlohmann16json_abi_v3_11_310basic_jsonISt3mapSt6vectorNSt7__cxx1112basic_stringIcSt11char_traitsIcESaIcEEEblmdSaNS0_14adl_serializerES3_IhSaIhEEvEC2ESt16initializer_listINS0_6detail8json_refISD_EEEbNSF_7value_tE(ptr noundef nonnull align 8 dereferenceable(16) %j478, ptr %192, i64 %194, i1 noundef zeroext true, i8 noundef zeroext 2)
          to label %invoke.cont534 unwind label %lpad533

invoke.cont534:                                   ; preds = %invoke.cont528
  %array.begin535 = getelementptr inbounds [6 x %"class.nlohmann::json_abi_v3_11_3::detail::json_ref"], ptr %ref.tmp480, i32 0, i32 0
  %195 = getelementptr inbounds %"class.nlohmann::json_abi_v3_11_3::detail::json_ref", ptr %array.begin535, i64 6
  br label %arraydestroy.body536

arraydestroy.body536:                             ; preds = %arraydestroy.body536, %invoke.cont534
  %arraydestroy.elementPast537 = phi ptr [ %195, %invoke.cont534 ], [ %arraydestroy.element538, %arraydestroy.body536 ]
  %arraydestroy.element538 = getelementptr inbounds %"class.nlohmann::json_abi_v3_11_3::detail::json_ref", ptr %arraydestroy.elementPast537, i64 -1
  call void @_ZN8nlohmann16json_abi_v3_11_36detail8json_refINS0_10basic_jsonISt3mapSt6vectorNSt7__cxx1112basic_stringIcSt11char_traitsIcESaIcEEEblmdSaNS0_14adl_serializerES5_IhSaIhEEvEEED2Ev(ptr noundef nonnull align 8 dereferenceable(24) %arraydestroy.element538) #16
  %arraydestroy.done539 = icmp eq ptr %arraydestroy.element538, %array.begin535
  br i1 %arraydestroy.done539, label %arraydestroy.done540, label %arraydestroy.body536

arraydestroy.done540:                             ; preds = %arraydestroy.body536
  %array.begin548 = getelementptr inbounds [1 x %"class.nlohmann::json_abi_v3_11_3::detail::json_ref"], ptr %ref.tmp499, i32 0, i32 0
  %196 = getelementptr inbounds %"class.nlohmann::json_abi_v3_11_3::detail::json_ref", ptr %array.begin548, i64 1
  br label %arraydestroy.body549

arraydestroy.body549:                             ; preds = %arraydestroy.body549, %arraydestroy.done540
  %arraydestroy.elementPast550 = phi ptr [ %196, %arraydestroy.done540 ], [ %arraydestroy.element551, %arraydestroy.body549 ]
  %arraydestroy.element551 = getelementptr inbounds %"class.nlohmann::json_abi_v3_11_3::detail::json_ref", ptr %arraydestroy.elementPast550, i64 -1
