target datalayout = "e-m:e-p270:32:32-p271:32:32-p272:64:64-i64:64-i128:128-f80:128-n8:16:32:64-S128"
target triple = "x86_64-unknown-linux-gnu"

%"struct.nlohmann::json_abi_v3_11_3::detail::to_json_fn" = type { i8 }
%"struct.doctest::detail::TestSuite" = type { ptr, ptr, i8, i8, i8, i8, i8, i32, double }
%"struct.doctest::detail::TestCase" = type { %"struct.doctest::TestCaseData", ptr, %"class.doctest::String", i32, %"class.doctest::String" }
%"struct.doctest::TestCaseData" = type { %"class.doctest::String", i32, ptr, ptr, ptr, i8, i8, i8, i8, i8, i32, double }
%"class.doctest::String" = type { %union.anon }
%union.anon = type { %"struct.doctest::String::view", [8 x i8] }
%"struct.doctest::String::view" = type { ptr, i32, i32 }
%"struct.doctest::detail::Subcase" = type { %"struct.doctest::SubcaseSignature", i8, [7 x i8] }
%"struct.doctest::SubcaseSignature" = type <{ %"class.doctest::String", ptr, i32, [4 x i8] }>
%"struct.doctest::detail::ResultBuilder" = type { %"struct.doctest::AssertData" }
%"struct.doctest::AssertData" = type { ptr, i32, ptr, i32, ptr, i8, i8, %"class.doctest::String", %"class.doctest::String", i8, ptr, %"class.doctest::AssertData::StringContains" }
%"class.doctest::AssertData::StringContains" = type <{ %"class.doctest::Contains", i8, [7 x i8] }>
%"class.doctest::Contains" = type { %"class.doctest::String" }
%"class.nlohmann::json_abi_v3_11_3::basic_json" = type { %"struct.nlohmann::json_abi_v3_11_3::basic_json<std::map, std::vector, std::__cxx11::basic_string<char>, bool, long, unsigned long, double, (anonymous namespace)::bad_allocator>::data" }
%"struct.nlohmann::json_abi_v3_11_3::basic_json<std::map, std::vector, std::__cxx11::basic_string<char>, bool, long, unsigned long, double, (anonymous namespace)::bad_allocator>::data" = type { i8, %"union.nlohmann::json_abi_v3_11_3::basic_json<std::map, std::vector, std::__cxx11::basic_string<char>, bool, long, unsigned long, double, (anonymous namespace)::bad_allocator>::json_value" }
%"union.nlohmann::json_abi_v3_11_3::basic_json<std::map, std::vector, std::__cxx11::basic_string<char>, bool, long, unsigned long, double, (anonymous namespace)::bad_allocator>::json_value" = type { ptr }
%"struct.doctest::ContextOptions" = type <{ ptr, %"class.doctest::String", ptr, %"class.doctest::String", %"class.doctest::String", i32, i32, i32, i32, i32, i8, i8, i8, i8, i8, i8, i8, i8, i8, i8, i8, i8, i8, i8, i8, i8, i8, i8, i8, i8, i8, i8, i8, i8, i8, i8, i8, i8 }>
%"union.nlohmann::json_abi_v3_11_3::basic_json<std::map, std::vector, std::__cxx11::basic_string<char>, bool, long, unsigned long, double, (anonymous namespace)::my_allocator>::json_value" = type { ptr }
%"class.std::__cxx11::basic_string" = type { %"struct.std::__cxx11::basic_string<char>::_Alloc_hider", i64, %union.anon.1 }
%"struct.std::__cxx11::basic_string<char>::_Alloc_hider" = type { ptr }
%union.anon.1 = type { i64, [8 x i8] }
%"class.std::allocator" = type { i8 }
%"class.std::map.63" = type { %"class.std::_Rb_tree.64" }
%"class.std::_Rb_tree.64" = type { %"struct.std::_Rb_tree<std::__cxx11::basic_string<char>, std::pair<const std::__cxx11::basic_string<char>, std::__cxx11::basic_string<char>>, std::_Select1st<std::pair<const std::__cxx11::basic_string<char>, std::__cxx11::basic_string<char>>>, std::less<std::__cxx11::basic_string<char>>>::_Rb_tree_impl" }
%"struct.std::_Rb_tree<std::__cxx11::basic_string<char>, std::pair<const std::__cxx11::basic_string<char>, std::__cxx11::basic_string<char>>, std::_Select1st<std::pair<const std::__cxx11::basic_string<char>, std::__cxx11::basic_string<char>>>, std::less<std::__cxx11::basic_string<char>>>::_Rb_tree_impl" = type { %"struct.std::_Rb_tree_key_compare", %"struct.std::_Rb_tree_header" }
%"struct.std::_Rb_tree_key_compare" = type { %"struct.std::less" }
%"struct.std::less" = type { i8 }
%"struct.std::_Rb_tree_header" = type { %"struct.std::_Rb_tree_node_base", i64 }
%"struct.std::_Rb_tree_node_base" = type { i32, ptr, ptr, ptr }
%"class.std::initializer_list" = type { ptr, i64 }
%"struct.std::pair.68" = type { %"class.std::__cxx11::basic_string", %"class.std::__cxx11::basic_string" }
%"class.std::allocator.70" = type { i8 }
%"class.nlohmann::json_abi_v3_11_3::basic_json.73" = type { %"struct.nlohmann::json_abi_v3_11_3::basic_json<std::map, std::vector, std::__cxx11::basic_string<char>, bool, long, unsigned long, double, (anonymous namespace)::my_allocator>::data" }
%"struct.nlohmann::json_abi_v3_11_3::basic_json<std::map, std::vector, std::__cxx11::basic_string<char>, bool, long, unsigned long, double, (anonymous namespace)::my_allocator>::data" = type { i8, %"union.nlohmann::json_abi_v3_11_3::basic_json<std::map, std::vector, std::__cxx11::basic_string<char>, bool, long, unsigned long, double, (anonymous namespace)::my_allocator>::json_value" }
%"class.std::vector.74" = type { %"struct.std::_Vector_base.75" }
%"struct.std::_Vector_base.75" = type { %"struct.std::_Vector_base<std::__cxx11::basic_string<char>, std::allocator<std::__cxx11::basic_string<char>>>::_Vector_impl" }
%"struct.std::_Vector_base<std::__cxx11::basic_string<char>, std::allocator<std::__cxx11::basic_string<char>>>::_Vector_impl" = type { %"struct.std::_Vector_base<std::__cxx11::basic_string<char>, std::allocator<std::__cxx11::basic_string<char>>>::_Vector_impl_data" }
%"struct.std::_Vector_base<std::__cxx11::basic_string<char>, std::allocator<std::__cxx11::basic_string<char>>>::_Vector_impl_data" = type { ptr, ptr, ptr }
%"class.std::initializer_list.76" = type { ptr, i64 }
%"class.std::allocator.21" = type { i8 }
%"class.nlohmann::json_abi_v3_11_3::basic_json.185" = type { %"struct.nlohmann::json_abi_v3_11_3::basic_json<std::map, std::vector, std::__cxx11::basic_string<char>, bool, long, unsigned long, double, (anonymous namespace)::allocator_no_forward>::data" }
%"struct.nlohmann::json_abi_v3_11_3::basic_json<std::map, std::vector, std::__cxx11::basic_string<char>, bool, long, unsigned long, double, (anonymous namespace)::allocator_no_forward>::data" = type { i8, %"union.nlohmann::json_abi_v3_11_3::basic_json<std::map, std::vector, std::__cxx11::basic_string<char>, bool, long, unsigned long, double, (anonymous namespace)::allocator_no_forward>::json_value" }
%"union.nlohmann::json_abi_v3_11_3::basic_json<std::map, std::vector, std::__cxx11::basic_string<char>, bool, long, unsigned long, double, (anonymous namespace)::allocator_no_forward>::json_value" = type { ptr }
%"class.std::vector.186" = type { %"struct.std::_Vector_base.187" }
%"struct.std::_Vector_base.187" = type { %"struct.std::_Vector_base<nlohmann::json_abi_v3_11_3::basic_json<std::map, std::vector, std::__cxx11::basic_string<char>, bool, long, unsigned long, double, (anonymous namespace)::allocator_no_forward>, (anonymous namespace)::allocator_no_forward<nlohmann::json_abi_v3_11_3::basic_json<std::map, std::vector, std::__cxx11::basic_string<char>, bool, long, unsigned long, double, (anonymous namespace)::allocator_no_forward>>>::_Vector_impl" }
%"struct.std::_Vector_base<nlohmann::json_abi_v3_11_3::basic_json<std::map, std::vector, std::__cxx11::basic_string<char>, bool, long, unsigned long, double, (anonymous namespace)::allocator_no_forward>, (anonymous namespace)::allocator_no_forward<nlohmann::json_abi_v3_11_3::basic_json<std::map, std::vector, std::__cxx11::basic_string<char>, bool, long, unsigned long, double, (anonymous namespace)::allocator_no_forward>>>::_Vector_impl" = type { %"struct.std::_Vector_base<nlohmann::json_abi_v3_11_3::basic_json<std::map, std::vector, std::__cxx11::basic_string<char>, bool, long, unsigned long, double, (anonymous namespace)::allocator_no_forward>, (anonymous namespace)::allocator_no_forward<nlohmann::json_abi_v3_11_3::basic_json<std::map, std::vector, std::__cxx11::basic_string<char>, bool, long, unsigned long, double, (anonymous namespace)::allocator_no_forward>>>::_Vector_impl_data" }
%"struct.std::_Vector_base<nlohmann::json_abi_v3_11_3::basic_json<std::map, std::vector, std::__cxx11::basic_string<char>, bool, long, unsigned long, double, (anonymous namespace)::allocator_no_forward>, (anonymous namespace)::allocator_no_forward<nlohmann::json_abi_v3_11_3::basic_json<std::map, std::vector, std::__cxx11::basic_string<char>, bool, long, unsigned long, double, (anonymous namespace)::allocator_no_forward>>>::_Vector_impl_data" = type { ptr, ptr, ptr }
%"class.nlohmann::json_abi_v3_11_3::detail::other_error" = type { %"class.nlohmann::json_abi_v3_11_3::detail::exception" }
%"class.nlohmann::json_abi_v3_11_3::detail::exception" = type { %"class.std::exception", i32, %"class.std::runtime_error" }
%"class.std::exception" = type { ptr }
%"class.std::runtime_error" = type { %"class.std::exception", %"struct.std::__cow_string" }
%"struct.std::__cow_string" = type { %union.anon.0 }
%union.anon.0 = type { ptr }
%"struct.(anonymous namespace)::bad_allocator" = type { i8 }
%class.anon = type { ptr }
%"class.std::unique_ptr" = type { %"struct.std::__uniq_ptr_data" }
%"struct.std::__uniq_ptr_data" = type { %"class.std::__uniq_ptr_impl" }
%"class.std::__uniq_ptr_impl" = type { %"class.std::tuple" }
%"class.std::tuple" = type { %"struct.std::_Tuple_impl" }
%"struct.std::_Tuple_impl" = type { %"struct.std::_Tuple_impl.5", %"struct.std::_Head_base.6" }
%"struct.std::_Tuple_impl.5" = type { %"struct.std::_Head_base" }
%"struct.std::_Head_base" = type { %class.anon }
%"struct.std::_Head_base.6" = type { ptr }
%"struct.(anonymous namespace)::bad_allocator.7" = type { i8 }
%class.anon.11 = type { ptr }
%"class.std::unique_ptr.12" = type { %"struct.std::__uniq_ptr_data.13" }
%"struct.std::__uniq_ptr_data.13" = type { %"class.std::__uniq_ptr_impl.14" }
%"class.std::__uniq_ptr_impl.14" = type { %"class.std::tuple.15" }
%"class.std::tuple.15" = type { %"struct.std::_Tuple_impl.16" }
%"struct.std::_Tuple_impl.16" = type { %"struct.std::_Tuple_impl.17", %"struct.std::_Head_base.19" }
%"struct.std::_Tuple_impl.17" = type { %"struct.std::_Head_base.18" }
%"struct.std::_Head_base.18" = type { %class.anon.11 }
%"struct.std::_Head_base.19" = type { ptr }
%"struct.(anonymous namespace)::bad_allocator.20" = type { i8 }
%class.anon.24 = type { ptr }
%"class.std::unique_ptr.25" = type { %"struct.std::__uniq_ptr_data.26" }
%"struct.std::__uniq_ptr_data.26" = type { %"class.std::__uniq_ptr_impl.27" }
%"class.std::__uniq_ptr_impl.27" = type { %"class.std::tuple.28" }
%"class.std::tuple.28" = type { %"struct.std::_Tuple_impl.29" }
%"struct.std::_Tuple_impl.29" = type { %"struct.std::_Tuple_impl.30", %"struct.std::_Head_base.32" }
%"struct.std::_Tuple_impl.30" = type { %"struct.std::_Head_base.31" }
%"struct.std::_Head_base.31" = type { %class.anon.24 }
%"struct.std::_Head_base.32" = type { ptr }
%"struct.(anonymous namespace)::bad_allocator.33" = type { i8 }
%class.anon.37 = type { ptr }
%"class.std::unique_ptr.38" = type { %"struct.std::__uniq_ptr_data.39" }
%"struct.std::__uniq_ptr_data.39" = type { %"class.std::__uniq_ptr_impl.40" }
%"class.std::__uniq_ptr_impl.40" = type { %"class.std::tuple.41" }
%"class.std::tuple.41" = type { %"struct.std::_Tuple_impl.42" }
%"struct.std::_Tuple_impl.42" = type { %"struct.std::_Tuple_impl.43", %"struct.std::_Head_base.45" }
%"struct.std::_Tuple_impl.43" = type { %"struct.std::_Head_base.44" }
%"struct.std::_Head_base.44" = type { %class.anon.37 }
%"struct.std::_Head_base.45" = type { ptr }
%"class.std::vector" = type { %"struct.std::_Vector_base" }
%"struct.std::_Vector_base" = type { %"struct.std::_Vector_base<nlohmann::json_abi_v3_11_3::basic_json<std::map, std::vector, std::__cxx11::basic_string<char>, bool, long, unsigned long, double, (anonymous namespace)::bad_allocator>, std::allocator<nlohmann::json_abi_v3_11_3::basic_json<std::map, std::vector, std::__cxx11::basic_string<char>, bool, long, unsigned long, double, (anonymous namespace)::bad_allocator>>>::_Vector_impl" }
%"struct.std::_Vector_base<nlohmann::json_abi_v3_11_3::basic_json<std::map, std::vector, std::__cxx11::basic_string<char>, bool, long, unsigned long, double, (anonymous namespace)::bad_allocator>, std::allocator<nlohmann::json_abi_v3_11_3::basic_json<std::map, std::vector, std::__cxx11::basic_string<char>, bool, long, unsigned long, double, (anonymous namespace)::bad_allocator>>>::_Vector_impl" = type { %"struct.std::_Vector_base<nlohmann::json_abi_v3_11_3::basic_json<std::map, std::vector, std::__cxx11::basic_string<char>, bool, long, unsigned long, double, (anonymous namespace)::bad_allocator>, std::allocator<nlohmann::json_abi_v3_11_3::basic_json<std::map, std::vector, std::__cxx11::basic_string<char>, bool, long, unsigned long, double, (anonymous namespace)::bad_allocator>>>::_Vector_impl_data" }
%"struct.std::_Vector_base<nlohmann::json_abi_v3_11_3::basic_json<std::map, std::vector, std::__cxx11::basic_string<char>, bool, long, unsigned long, double, (anonymous namespace)::bad_allocator>, std::allocator<nlohmann::json_abi_v3_11_3::basic_json<std::map, std::vector, std::__cxx11::basic_string<char>, bool, long, unsigned long, double, (anonymous namespace)::bad_allocator>>>::_Vector_impl_data" = type { ptr, ptr, ptr }
%"class.__gnu_cxx::__normal_iterator" = type { ptr }
%"class.std::back_insert_iterator" = type { ptr }
%"struct.std::_Rb_tree_iterator" = type { ptr }
%"struct.std::pair" = type { %"class.std::__cxx11::basic_string", %"class.nlohmann::json_abi_v3_11_3::basic_json" }
%"struct.std::_Vector_base.50" = type { %"struct.std::_Vector_base<nlohmann::json_abi_v3_11_3::basic_json<std::map, std::vector, std::__cxx11::basic_string<char>, bool, long, unsigned long, double, (anonymous namespace)::bad_allocator>, (anonymous namespace)::bad_allocator<nlohmann::json_abi_v3_11_3::basic_json<std::map, std::vector, std::__cxx11::basic_string<char>, bool, long, unsigned long, double, (anonymous namespace)::bad_allocator>>>::_Vector_impl" }
%"struct.std::_Vector_base<nlohmann::json_abi_v3_11_3::basic_json<std::map, std::vector, std::__cxx11::basic_string<char>, bool, long, unsigned long, double, (anonymous namespace)::bad_allocator>, (anonymous namespace)::bad_allocator<nlohmann::json_abi_v3_11_3::basic_json<std::map, std::vector, std::__cxx11::basic_string<char>, bool, long, unsigned long, double, (anonymous namespace)::bad_allocator>>>::_Vector_impl" = type { %"struct.std::_Vector_base<nlohmann::json_abi_v3_11_3::basic_json<std::map, std::vector, std::__cxx11::basic_string<char>, bool, long, unsigned long, double, (anonymous namespace)::bad_allocator>, (anonymous namespace)::bad_allocator<nlohmann::json_abi_v3_11_3::basic_json<std::map, std::vector, std::__cxx11::basic_string<char>, bool, long, unsigned long, double, (anonymous namespace)::bad_allocator>>>::_Vector_impl_data" }
%"struct.std::_Vector_base<nlohmann::json_abi_v3_11_3::basic_json<std::map, std::vector, std::__cxx11::basic_string<char>, bool, long, unsigned long, double, (anonymous namespace)::bad_allocator>, (anonymous namespace)::bad_allocator<nlohmann::json_abi_v3_11_3::basic_json<std::map, std::vector, std::__cxx11::basic_string<char>, bool, long, unsigned long, double, (anonymous namespace)::bad_allocator>>>::_Vector_impl_data" = type { ptr, ptr, ptr }
%"class.std::map" = type { %"class.std::_Rb_tree" }
%"class.std::_Rb_tree" = type { %"struct.std::_Rb_tree<std::__cxx11::basic_string<char>, std::pair<const std::__cxx11::basic_string<char>, nlohmann::json_abi_v3_11_3::basic_json<std::map, std::vector, std::__cxx11::basic_string<char>, bool, long, unsigned long, double, (anonymous namespace)::bad_allocator>>, std::_Select1st<std::pair<const std::__cxx11::basic_string<char>, nlohmann::json_abi_v3_11_3::basic_json<std::map, std::vector, std::__cxx11::basic_string<char>, bool, long, unsigned long, double, (anonymous namespace)::bad_allocator>>>, std::less<std::__cxx11::basic_string<char>>, (anonymous namespace)::bad_allocator<std::pair<const std::__cxx11::basic_string<char>, nlohmann::json_abi_v3_11_3::basic_json<std::map, std::vector, std::__cxx11::basic_string<char>, bool, long, unsigned long, double, (anonymous namespace)::bad_allocator>>>>::_Rb_tree_impl" }
%"struct.std::_Rb_tree<std::__cxx11::basic_string<char>, std::pair<const std::__cxx11::basic_string<char>, nlohmann::json_abi_v3_11_3::basic_json<std::map, std::vector, std::__cxx11::basic_string<char>, bool, long, unsigned long, double, (anonymous namespace)::bad_allocator>>, std::_Select1st<std::pair<const std::__cxx11::basic_string<char>, nlohmann::json_abi_v3_11_3::basic_json<std::map, std::vector, std::__cxx11::basic_string<char>, bool, long, unsigned long, double, (anonymous namespace)::bad_allocator>>>, std::less<std::__cxx11::basic_string<char>>, (anonymous namespace)::bad_allocator<std::pair<const std::__cxx11::basic_string<char>, nlohmann::json_abi_v3_11_3::basic_json<std::map, std::vector, std::__cxx11::basic_string<char>, bool, long, unsigned long, double, (anonymous namespace)::bad_allocator>>>>::_Rb_tree_impl" = type { %"struct.std::_Rb_tree_key_compare", %"struct.std::_Rb_tree_header" }
%"class.__gnu_cxx::__normal_iterator.57" = type { ptr }
%"class.__gnu_cxx::__normal_iterator.56" = type { ptr }
%"struct.std::_Rb_tree_node" = type { %"struct.std::_Rb_tree_node_base", %"struct.__gnu_cxx::__aligned_membuf" }
%"struct.__gnu_cxx::__aligned_membuf" = type { [48 x i8] }
%"struct.std::_Vector_base.59" = type { %"struct.std::_Vector_base<unsigned char, std::allocator<unsigned char>>::_Vector_impl" }
%"struct.std::_Vector_base<unsigned char, std::allocator<unsigned char>>::_Vector_impl" = type { %"struct.std::_Vector_base<unsigned char, std::allocator<unsigned char>>::_Vector_impl_data" }
%"struct.std::_Vector_base<unsigned char, std::allocator<unsigned char>>::_Vector_impl_data" = type { ptr, ptr, ptr }
%"struct.(anonymous namespace)::my_allocator" = type { i8 }
%"struct.(anonymous namespace)::my_allocator.99" = type { i8 }
%"struct.(anonymous namespace)::my_allocator.118" = type { i8 }
%"class.std::map.80" = type { %"class.std::_Rb_tree.81" }
%"class.std::_Rb_tree.81" = type { %"struct.std::_Rb_tree<std::__cxx11::basic_string<char>, std::pair<const std::__cxx11::basic_string<char>, nlohmann::json_abi_v3_11_3::basic_json<std::map, std::vector, std::__cxx11::basic_string<char>, bool, long, unsigned long, double, (anonymous namespace)::my_allocator>>, std::_Select1st<std::pair<const std::__cxx11::basic_string<char>, nlohmann::json_abi_v3_11_3::basic_json<std::map, std::vector, std::__cxx11::basic_string<char>, bool, long, unsigned long, double, (anonymous namespace)::my_allocator>>>, std::less<std::__cxx11::basic_string<char>>, (anonymous namespace)::my_allocator<std::pair<const std::__cxx11::basic_string<char>, nlohmann::json_abi_v3_11_3::basic_json<std::map, std::vector, std::__cxx11::basic_string<char>, bool, long, unsigned long, double, (anonymous namespace)::my_allocator>>>>::_Rb_tree_impl" }
%"struct.std::_Rb_tree<std::__cxx11::basic_string<char>, std::pair<const std::__cxx11::basic_string<char>, nlohmann::json_abi_v3_11_3::basic_json<std::map, std::vector, std::__cxx11::basic_string<char>, bool, long, unsigned long, double, (anonymous namespace)::my_allocator>>, std::_Select1st<std::pair<const std::__cxx11::basic_string<char>, nlohmann::json_abi_v3_11_3::basic_json<std::map, std::vector, std::__cxx11::basic_string<char>, bool, long, unsigned long, double, (anonymous namespace)::my_allocator>>>, std::less<std::__cxx11::basic_string<char>>, (anonymous namespace)::my_allocator<std::pair<const std::__cxx11::basic_string<char>, nlohmann::json_abi_v3_11_3::basic_json<std::map, std::vector, std::__cxx11::basic_string<char>, bool, long, unsigned long, double, (anonymous namespace)::my_allocator>>>>::_Rb_tree_impl" = type { %"struct.std::_Rb_tree_key_compare", %"struct.std::_Rb_tree_header" }
%"struct.std::_Rb_tree_node.86" = type { %"struct.std::_Rb_tree_node_base", %"struct.__gnu_cxx::__aligned_membuf.87" }
%"struct.__gnu_cxx::__aligned_membuf.87" = type { [48 x i8] }
%"struct.std::pair.88" = type { %"class.std::__cxx11::basic_string", %"class.nlohmann::json_abi_v3_11_3::basic_json.73" }
%class.anon.90 = type { ptr }
%"class.std::unique_ptr.91" = type { %"struct.std::__uniq_ptr_data.92" }
%"struct.std::__uniq_ptr_data.92" = type { %"class.std::__uniq_ptr_impl.93" }
%"class.std::__uniq_ptr_impl.93" = type { %"class.std::tuple.94" }
%"class.std::tuple.94" = type { %"struct.std::_Tuple_impl.95" }
%"struct.std::_Tuple_impl.95" = type { %"struct.std::_Tuple_impl.96", %"struct.std::_Head_base.98" }
%"struct.std::_Tuple_impl.96" = type { %"struct.std::_Head_base.97" }
%"struct.std::_Head_base.97" = type { %class.anon.90 }
%"struct.std::_Head_base.98" = type { ptr }
%class.anon.103 = type { ptr }
%"class.std::unique_ptr.104" = type { %"struct.std::__uniq_ptr_data.105" }
%"struct.std::__uniq_ptr_data.105" = type { %"class.std::__uniq_ptr_impl.106" }
%"class.std::__uniq_ptr_impl.106" = type { %"class.std::tuple.107" }
%"class.std::tuple.107" = type { %"struct.std::_Tuple_impl.108" }
%"struct.std::_Tuple_impl.108" = type { %"struct.std::_Tuple_impl.109", %"struct.std::_Head_base.111" }
%"struct.std::_Tuple_impl.109" = type { %"struct.std::_Head_base.110" }
%"struct.std::_Head_base.110" = type { %class.anon.103 }
%"struct.std::_Head_base.111" = type { ptr }
%class.anon.119 = type { ptr }
%"class.std::unique_ptr.120" = type { %"struct.std::__uniq_ptr_data.121" }
%"struct.std::__uniq_ptr_data.121" = type { %"class.std::__uniq_ptr_impl.122" }
%"class.std::__uniq_ptr_impl.122" = type { %"class.std::tuple.123" }
%"class.std::tuple.123" = type { %"struct.std::_Tuple_impl.124" }
%"struct.std::_Tuple_impl.124" = type { %"struct.std::_Tuple_impl.125", %"struct.std::_Head_base.32" }
%"struct.std::_Tuple_impl.125" = type { %"struct.std::_Head_base.126" }
%"struct.std::_Head_base.126" = type { %class.anon.119 }
%"struct.(anonymous namespace)::my_allocator.127" = type { i8 }
%class.anon.128 = type { ptr }
%"class.std::unique_ptr.129" = type { %"struct.std::__uniq_ptr_data.130" }
%"struct.std::__uniq_ptr_data.130" = type { %"class.std::__uniq_ptr_impl.131" }
%"class.std::__uniq_ptr_impl.131" = type { %"class.std::tuple.132" }
%"class.std::tuple.132" = type { %"struct.std::_Tuple_impl.133" }
%"struct.std::_Tuple_impl.133" = type { %"struct.std::_Tuple_impl.134", %"struct.std::_Head_base.45" }
%"struct.std::_Tuple_impl.134" = type { %"struct.std::_Head_base.135" }
%"struct.std::_Head_base.135" = type { %class.anon.128 }
%"struct.std::_Vector_base.113" = type { %"struct.std::_Vector_base<nlohmann::json_abi_v3_11_3::basic_json<std::map, std::vector, std::__cxx11::basic_string<char>, bool, long, unsigned long, double, (anonymous namespace)::my_allocator>, (anonymous namespace)::my_allocator<nlohmann::json_abi_v3_11_3::basic_json<std::map, std::vector, std::__cxx11::basic_string<char>, bool, long, unsigned long, double, (anonymous namespace)::my_allocator>>>::_Vector_impl" }
%"struct.std::_Vector_base<nlohmann::json_abi_v3_11_3::basic_json<std::map, std::vector, std::__cxx11::basic_string<char>, bool, long, unsigned long, double, (anonymous namespace)::my_allocator>, (anonymous namespace)::my_allocator<nlohmann::json_abi_v3_11_3::basic_json<std::map, std::vector, std::__cxx11::basic_string<char>, bool, long, unsigned long, double, (anonymous namespace)::my_allocator>>>::_Vector_impl" = type { %"struct.std::_Vector_base<nlohmann::json_abi_v3_11_3::basic_json<std::map, std::vector, std::__cxx11::basic_string<char>, bool, long, unsigned long, double, (anonymous namespace)::my_allocator>, (anonymous namespace)::my_allocator<nlohmann::json_abi_v3_11_3::basic_json<std::map, std::vector, std::__cxx11::basic_string<char>, bool, long, unsigned long, double, (anonymous namespace)::my_allocator>>>::_Vector_impl_data" }
%"struct.std::_Vector_base<nlohmann::json_abi_v3_11_3::basic_json<std::map, std::vector, std::__cxx11::basic_string<char>, bool, long, unsigned long, double, (anonymous namespace)::my_allocator>, (anonymous namespace)::my_allocator<nlohmann::json_abi_v3_11_3::basic_json<std::map, std::vector, std::__cxx11::basic_string<char>, bool, long, unsigned long, double, (anonymous namespace)::my_allocator>>>::_Vector_impl_data" = type { ptr, ptr, ptr }
%"class.nlohmann::json_abi_v3_11_3::byte_container_with_subtype" = type <{ %"class.std::vector.58", i64, i8, [7 x i8] }>
%"class.std::vector.58" = type { %"struct.std::_Vector_base.59" }
%class.anon.136 = type { ptr }
%"class.std::unique_ptr.137" = type { %"struct.std::__uniq_ptr_data.138" }
%"struct.std::__uniq_ptr_data.138" = type { %"class.std::__uniq_ptr_impl.139" }
%"class.std::__uniq_ptr_impl.139" = type { %"class.std::tuple.140" }
%"class.std::tuple.140" = type { %"struct.std::_Tuple_impl.141" }
%"struct.std::_Tuple_impl.141" = type { %"struct.std::_Tuple_impl.142", %"struct.std::_Head_base.32" }
%"struct.std::_Tuple_impl.142" = type { %"struct.std::_Head_base.143" }
%"struct.std::_Head_base.143" = type { %class.anon.136 }
%"class.std::allocator.65" = type { i8 }
%"struct.std::_Rb_tree<std::__cxx11::basic_string<char>, std::pair<const std::__cxx11::basic_string<char>, std::__cxx11::basic_string<char>>, std::_Select1st<std::pair<const std::__cxx11::basic_string<char>, std::__cxx11::basic_string<char>>>, std::less<std::__cxx11::basic_string<char>>>::_Alloc_node" = type { ptr }
%"struct.std::_Rb_tree_const_iterator" = type { ptr }
%"struct.std::_Rb_tree_iterator.144" = type { ptr }
%"struct.std::pair.145" = type { ptr, ptr }
%"struct.std::_Select1st" = type { i8 }
%"struct.std::_Rb_tree_node.147" = type { %"struct.std::_Rb_tree_node_base", %"struct.__gnu_cxx::__aligned_membuf.148" }
%"struct.__gnu_cxx::__aligned_membuf.148" = type { [64 x i8] }
%"class.std::vector.149" = type { %"struct.std::_Vector_base.150" }
%"struct.std::_Vector_base.150" = type { %"struct.std::_Vector_base<nlohmann::json_abi_v3_11_3::basic_json<std::map, std::vector, std::__cxx11::basic_string<char>, bool, long, unsigned long, double, (anonymous namespace)::my_allocator>, std::allocator<nlohmann::json_abi_v3_11_3::basic_json<std::map, std::vector, std::__cxx11::basic_string<char>, bool, long, unsigned long, double, (anonymous namespace)::my_allocator>>>::_Vector_impl" }
%"struct.std::_Vector_base<nlohmann::json_abi_v3_11_3::basic_json<std::map, std::vector, std::__cxx11::basic_string<char>, bool, long, unsigned long, double, (anonymous namespace)::my_allocator>, std::allocator<nlohmann::json_abi_v3_11_3::basic_json<std::map, std::vector, std::__cxx11::basic_string<char>, bool, long, unsigned long, double, (anonymous namespace)::my_allocator>>>::_Vector_impl" = type { %"struct.std::_Vector_base<nlohmann::json_abi_v3_11_3::basic_json<std::map, std::vector, std::__cxx11::basic_string<char>, bool, long, unsigned long, double, (anonymous namespace)::my_allocator>, std::allocator<nlohmann::json_abi_v3_11_3::basic_json<std::map, std::vector, std::__cxx11::basic_string<char>, bool, long, unsigned long, double, (anonymous namespace)::my_allocator>>>::_Vector_impl_data" }
%"struct.std::_Vector_base<nlohmann::json_abi_v3_11_3::basic_json<std::map, std::vector, std::__cxx11::basic_string<char>, bool, long, unsigned long, double, (anonymous namespace)::my_allocator>, std::allocator<nlohmann::json_abi_v3_11_3::basic_json<std::map, std::vector, std::__cxx11::basic_string<char>, bool, long, unsigned long, double, (anonymous namespace)::my_allocator>>>::_Vector_impl_data" = type { ptr, ptr, ptr }
%"class.__gnu_cxx::__normal_iterator.152" = type { ptr }
%"class.std::back_insert_iterator.151" = type { ptr }
%"struct.std::_Rb_tree_iterator.153" = type { ptr }
%class.anon.156 = type { ptr }
%"class.std::unique_ptr.157" = type { %"struct.std::__uniq_ptr_data.158" }
%"struct.std::__uniq_ptr_data.158" = type { %"class.std::__uniq_ptr_impl.159" }
%"class.std::__uniq_ptr_impl.159" = type { %"class.std::tuple.160" }
%"class.std::tuple.160" = type { %"struct.std::_Tuple_impl.161" }
%"struct.std::_Tuple_impl.161" = type { %"struct.std::_Tuple_impl.162", %"struct.std::_Head_base.98" }
%"struct.std::_Tuple_impl.162" = type { %"struct.std::_Head_base.163" }
%"struct.std::_Head_base.163" = type { %class.anon.156 }
%"class.__gnu_cxx::__normal_iterator.155" = type { ptr }
%"class.__gnu_cxx::__normal_iterator.154" = type { ptr }
%"struct.std::pair.164" = type <{ %"struct.std::_Rb_tree_iterator.153", i8, [7 x i8] }>
%"struct.std::_Rb_tree<std::__cxx11::basic_string<char>, std::pair<const std::__cxx11::basic_string<char>, nlohmann::json_abi_v3_11_3::basic_json<std::map, std::vector, std::__cxx11::basic_string<char>, bool, long, unsigned long, double, (anonymous namespace)::my_allocator>>, std::_Select1st<std::pair<const std::__cxx11::basic_string<char>, nlohmann::json_abi_v3_11_3::basic_json<std::map, std::vector, std::__cxx11::basic_string<char>, bool, long, unsigned long, double, (anonymous namespace)::my_allocator>>>, std::less<std::__cxx11::basic_string<char>>, (anonymous namespace)::my_allocator<std::pair<const std::__cxx11::basic_string<char>, nlohmann::json_abi_v3_11_3::basic_json<std::map, std::vector, std::__cxx11::basic_string<char>, bool, long, unsigned long, double, (anonymous namespace)::my_allocator>>>>::_Auto_node" = type { ptr, ptr }
%"struct.std::_Select1st.166" = type { i8 }
%"class.__gnu_cxx::__normal_iterator.168" = type { ptr }
%class.anon.169 = type { ptr }
%"class.std::unique_ptr.170" = type { %"struct.std::__uniq_ptr_data.171" }
%"struct.std::__uniq_ptr_data.171" = type { %"class.std::__uniq_ptr_impl.172" }
%"class.std::__uniq_ptr_impl.172" = type { %"class.std::tuple.173" }
%"class.std::tuple.173" = type { %"struct.std::_Tuple_impl.174" }
%"struct.std::_Tuple_impl.174" = type { %"struct.std::_Tuple_impl.175", %"struct.std::_Head_base.111" }
%"struct.std::_Tuple_impl.175" = type { %"struct.std::_Head_base.176" }
%"struct.std::_Head_base.176" = type { %class.anon.169 }
%"struct.(anonymous namespace)::my_allocator.114" = type { i8 }
%class.anon.177 = type { ptr }
%"class.std::unique_ptr.178" = type { %"struct.std::__uniq_ptr_data.179" }
%"struct.std::__uniq_ptr_data.179" = type { %"class.std::__uniq_ptr_impl.180" }
%"class.std::__uniq_ptr_impl.180" = type { %"class.std::tuple.181" }
%"class.std::tuple.181" = type { %"struct.std::_Tuple_impl.182" }
%"struct.std::_Tuple_impl.182" = type { %"struct.std::_Tuple_impl.183", %"struct.std::_Head_base.32" }
%"struct.std::_Tuple_impl.183" = type { %"struct.std::_Head_base.184" }
%"struct.std::_Head_base.184" = type { %class.anon.177 }
%"class.nlohmann::json_abi_v3_11_3::detail::type_error" = type { %"class.nlohmann::json_abi_v3_11_3::detail::exception" }
%"struct.(anonymous namespace)::allocator_no_forward.191" = type { i8 }
%class.anon.195 = type { ptr }
%"class.std::unique_ptr.196" = type { %"struct.std::__uniq_ptr_data.197" }
%"struct.std::__uniq_ptr_data.197" = type { %"class.std::__uniq_ptr_impl.198" }
%"class.std::__uniq_ptr_impl.198" = type { %"class.std::tuple.199" }
%"class.std::tuple.199" = type { %"struct.std::_Tuple_impl.200" }
%"struct.std::_Tuple_impl.200" = type { %"struct.std::_Tuple_impl.201", %"struct.std::_Head_base.203" }
%"struct.std::_Tuple_impl.201" = type { %"struct.std::_Head_base.202" }
%"struct.std::_Head_base.202" = type { %class.anon.195 }
%"struct.std::_Head_base.203" = type { ptr }
%"struct.(anonymous namespace)::allocator_no_forward.210" = type { i8 }
%class.anon.214 = type { ptr }
%"class.std::unique_ptr.215" = type { %"struct.std::__uniq_ptr_data.216" }
%"struct.std::__uniq_ptr_data.216" = type { %"class.std::__uniq_ptr_impl.217" }
%"class.std::__uniq_ptr_impl.217" = type { %"class.std::tuple.218" }
%"class.std::tuple.218" = type { %"struct.std::_Tuple_impl.219" }
%"struct.std::_Tuple_impl.219" = type { %"struct.std::_Tuple_impl.220", %"struct.std::_Head_base.222" }
%"struct.std::_Tuple_impl.220" = type { %"struct.std::_Head_base.221" }
%"struct.std::_Head_base.221" = type { %class.anon.214 }
%"struct.std::_Head_base.222" = type { ptr }
%"struct.(anonymous namespace)::allocator_no_forward.223" = type { i8 }
%class.anon.224 = type { ptr }
%"class.std::unique_ptr.225" = type { %"struct.std::__uniq_ptr_data.226" }
%"struct.std::__uniq_ptr_data.226" = type { %"class.std::__uniq_ptr_impl.227" }
%"class.std::__uniq_ptr_impl.227" = type { %"class.std::tuple.228" }
%"class.std::tuple.228" = type { %"struct.std::_Tuple_impl.229" }
%"struct.std::_Tuple_impl.229" = type { %"struct.std::_Tuple_impl.230", %"struct.std::_Head_base.32" }
%"struct.std::_Tuple_impl.230" = type { %"struct.std::_Head_base.231" }
%"struct.std::_Head_base.231" = type { %class.anon.224 }
%"struct.(anonymous namespace)::allocator_no_forward.232" = type { i8 }
%class.anon.233 = type { ptr }
%"class.std::unique_ptr.234" = type { %"struct.std::__uniq_ptr_data.235" }
%"struct.std::__uniq_ptr_data.235" = type { %"class.std::__uniq_ptr_impl.236" }
%"class.std::__uniq_ptr_impl.236" = type { %"class.std::tuple.237" }
%"class.std::tuple.237" = type { %"struct.std::_Tuple_impl.238" }
%"struct.std::_Tuple_impl.238" = type { %"struct.std::_Tuple_impl.239", %"struct.std::_Head_base.45" }
%"struct.std::_Tuple_impl.239" = type { %"struct.std::_Head_base.240" }
%"struct.std::_Head_base.240" = type { %class.anon.233 }
%"class.std::map.204" = type { %"class.std::_Rb_tree.205" }
%"class.std::_Rb_tree.205" = type { %"struct.std::_Rb_tree<std::__cxx11::basic_string<char>, std::pair<const std::__cxx11::basic_string<char>, nlohmann::json_abi_v3_11_3::basic_json<std::map, std::vector, std::__cxx11::basic_string<char>, bool, long, unsigned long, double, (anonymous namespace)::allocator_no_forward>>, std::_Select1st<std::pair<const std::__cxx11::basic_string<char>, nlohmann::json_abi_v3_11_3::basic_json<std::map, std::vector, std::__cxx11::basic_string<char>, bool, long, unsigned long, double, (anonymous namespace)::allocator_no_forward>>>, std::less<std::__cxx11::basic_string<char>>, (anonymous namespace)::allocator_no_forward<std::pair<const std::__cxx11::basic_string<char>, nlohmann::json_abi_v3_11_3::basic_json<std::map, std::vector, std::__cxx11::basic_string<char>, bool, long, unsigned long, double, (anonymous namespace)::allocator_no_forward>>>>::_Rb_tree_impl" }
%"struct.std::_Rb_tree<std::__cxx11::basic_string<char>, std::pair<const std::__cxx11::basic_string<char>, nlohmann::json_abi_v3_11_3::basic_json<std::map, std::vector, std::__cxx11::basic_string<char>, bool, long, unsigned long, double, (anonymous namespace)::allocator_no_forward>>, std::_Select1st<std::pair<const std::__cxx11::basic_string<char>, nlohmann::json_abi_v3_11_3::basic_json<std::map, std::vector, std::__cxx11::basic_string<char>, bool, long, unsigned long, double, (anonymous namespace)::allocator_no_forward>>>, std::less<std::__cxx11::basic_string<char>>, (anonymous namespace)::allocator_no_forward<std::pair<const std::__cxx11::basic_string<char>, nlohmann::json_abi_v3_11_3::basic_json<std::map, std::vector, std::__cxx11::basic_string<char>, bool, long, unsigned long, double, (anonymous namespace)::allocator_no_forward>>>>::_Rb_tree_impl" = type { %"struct.std::_Rb_tree_key_compare", %"struct.std::_Rb_tree_header" }
%"class.std::vector.241" = type { %"struct.std::_Vector_base.242" }
%"struct.std::_Vector_base.242" = type { %"struct.std::_Vector_base<nlohmann::json_abi_v3_11_3::basic_json<std::map, std::vector, std::__cxx11::basic_string<char>, bool, long, unsigned long, double, (anonymous namespace)::allocator_no_forward>, std::allocator<nlohmann::json_abi_v3_11_3::basic_json<std::map, std::vector, std::__cxx11::basic_string<char>, bool, long, unsigned long, double, (anonymous namespace)::allocator_no_forward>>>::_Vector_impl" }
%"struct.std::_Vector_base<nlohmann::json_abi_v3_11_3::basic_json<std::map, std::vector, std::__cxx11::basic_string<char>, bool, long, unsigned long, double, (anonymous namespace)::allocator_no_forward>, std::allocator<nlohmann::json_abi_v3_11_3::basic_json<std::map, std::vector, std::__cxx11::basic_string<char>, bool, long, unsigned long, double, (anonymous namespace)::allocator_no_forward>>>::_Vector_impl" = type { %"struct.std::_Vector_base<nlohmann::json_abi_v3_11_3::basic_json<std::map, std::vector, std::__cxx11::basic_string<char>, bool, long, unsigned long, double, (anonymous namespace)::allocator_no_forward>, std::allocator<nlohmann::json_abi_v3_11_3::basic_json<std::map, std::vector, std::__cxx11::basic_string<char>, bool, long, unsigned long, double, (anonymous namespace)::allocator_no_forward>>>::_Vector_impl_data" }
%"struct.std::_Vector_base<nlohmann::json_abi_v3_11_3::basic_json<std::map, std::vector, std::__cxx11::basic_string<char>, bool, long, unsigned long, double, (anonymous namespace)::allocator_no_forward>, std::allocator<nlohmann::json_abi_v3_11_3::basic_json<std::map, std::vector, std::__cxx11::basic_string<char>, bool, long, unsigned long, double, (anonymous namespace)::allocator_no_forward>>>::_Vector_impl_data" = type { ptr, ptr, ptr }
%"class.__gnu_cxx::__normal_iterator.244" = type { ptr }
%"class.std::back_insert_iterator.243" = type { ptr }
%"struct.std::_Rb_tree_iterator.245" = type { ptr }
%"struct.std::pair.246" = type { %"class.std::__cxx11::basic_string", %"class.nlohmann::json_abi_v3_11_3::basic_json.185" }
%"class.__gnu_cxx::__normal_iterator.251" = type { ptr }
%"class.__gnu_cxx::__normal_iterator.250" = type { ptr }
%"struct.std::_Rb_tree_node.248" = type { %"struct.std::_Rb_tree_node_base", %"struct.__gnu_cxx::__aligned_membuf.249" }
%"struct.__gnu_cxx::__aligned_membuf.249" = type { [48 x i8] }
%class.anon.252 = type { ptr }
%"class.std::unique_ptr.253" = type { %"struct.std::__uniq_ptr_data.254" }
%"struct.std::__uniq_ptr_data.254" = type { %"class.std::__uniq_ptr_impl.255" }
%"class.std::__uniq_ptr_impl.255" = type { %"class.std::tuple.256" }
%"class.std::tuple.256" = type { %"struct.std::_Tuple_impl.257" }
%"struct.std::_Tuple_impl.257" = type { %"struct.std::_Tuple_impl.258", %"struct.std::_Head_base.222" }
%"struct.std::_Tuple_impl.258" = type { %"struct.std::_Head_base.259" }
%"struct.std::_Head_base.259" = type { %class.anon.252 }
%"struct.(anonymous namespace)::allocator_no_forward" = type { i8 }
%"class.__gnu_cxx::__normal_iterator.260" = type { ptr }
%class.anon.261 = type { ptr }
%"class.std::unique_ptr.262" = type { %"struct.std::__uniq_ptr_data.263" }
%"struct.std::__uniq_ptr_data.263" = type { %"class.std::__uniq_ptr_impl.264" }
%"class.std::__uniq_ptr_impl.264" = type { %"class.std::tuple.265" }
%"class.std::tuple.265" = type { %"struct.std::_Tuple_impl.266" }
%"struct.std::_Tuple_impl.266" = type { %"struct.std::_Tuple_impl.267", %"struct.std::_Head_base.203" }
%"struct.std::_Tuple_impl.267" = type { %"struct.std::_Head_base.268" }
%"struct.std::_Head_base.268" = type { %class.anon.261 }
%"struct.(anonymous namespace)::allocator_no_forward.206" = type { i8 }
%"struct.std::_Rb_tree<std::__cxx11::basic_string<char>, std::pair<const std::__cxx11::basic_string<char>, nlohmann::json_abi_v3_11_3::basic_json<std::map, std::vector, std::__cxx11::basic_string<char>, bool, long, unsigned long, double, (anonymous namespace)::allocator_no_forward>>, std::_Select1st<std::pair<const std::__cxx11::basic_string<char>, nlohmann::json_abi_v3_11_3::basic_json<std::map, std::vector, std::__cxx11::basic_string<char>, bool, long, unsigned long, double, (anonymous namespace)::allocator_no_forward>>>, std::less<std::__cxx11::basic_string<char>>, (anonymous namespace)::allocator_no_forward<std::pair<const std::__cxx11::basic_string<char>, nlohmann::json_abi_v3_11_3::basic_json<std::map, std::vector, std::__cxx11::basic_string<char>, bool, long, unsigned long, double, (anonymous namespace)::allocator_no_forward>>>>::_Alloc_node" = type { ptr }
%class.anon.269 = type { ptr }
%"class.std::unique_ptr.270" = type { %"struct.std::__uniq_ptr_data.271" }
%"struct.std::__uniq_ptr_data.271" = type { %"class.std::__uniq_ptr_impl.272" }
%"class.std::__uniq_ptr_impl.272" = type { %"class.std::tuple.273" }
%"class.std::tuple.273" = type { %"struct.std::_Tuple_impl.274" }
%"struct.std::_Tuple_impl.274" = type { %"struct.std::_Tuple_impl.275", %"struct.std::_Head_base.222" }
%"struct.std::_Tuple_impl.275" = type { %"struct.std::_Head_base.276" }
%"struct.std::_Head_base.276" = type { %class.anon.269 }
%class.anon.277 = type { ptr }
%"class.std::unique_ptr.278" = type { %"struct.std::__uniq_ptr_data.279" }
%"struct.std::__uniq_ptr_data.279" = type { %"class.std::__uniq_ptr_impl.280" }
%"class.std::__uniq_ptr_impl.280" = type { %"class.std::tuple.281" }
%"class.std::tuple.281" = type { %"struct.std::_Tuple_impl.282" }
%"struct.std::_Tuple_impl.282" = type { %"struct.std::_Tuple_impl.283", %"struct.std::_Head_base.32" }
%"struct.std::_Tuple_impl.283" = type { %"struct.std::_Head_base.284" }
%"struct.std::_Head_base.284" = type { %class.anon.277 }
%class.anon.285 = type { ptr }
%"class.std::unique_ptr.286" = type { %"struct.std::__uniq_ptr_data.287" }
%"struct.std::__uniq_ptr_data.287" = type { %"class.std::__uniq_ptr_impl.288" }
%"class.std::__uniq_ptr_impl.288" = type { %"class.std::tuple.289" }
%"class.std::tuple.289" = type { %"struct.std::_Tuple_impl.290" }
%"struct.std::_Tuple_impl.290" = type { %"struct.std::_Tuple_impl.291", %"struct.std::_Head_base.45" }
%"struct.std::_Tuple_impl.291" = type { %"struct.std::_Head_base.292" }
%"struct.std::_Head_base.292" = type { %class.anon.285 }
%"class.std::allocator.60" = type { i8 }
%"class.__gnu_cxx::__normal_iterator.293" = type { ptr }
%"struct.std::pair.294" = type <{ %"struct.std::_Rb_tree_iterator.245", i8, [7 x i8] }>
%"struct.std::_Rb_tree<std::__cxx11::basic_string<char>, std::pair<const std::__cxx11::basic_string<char>, nlohmann::json_abi_v3_11_3::basic_json<std::map, std::vector, std::__cxx11::basic_string<char>, bool, long, unsigned long, double, (anonymous namespace)::allocator_no_forward>>, std::_Select1st<std::pair<const std::__cxx11::basic_string<char>, nlohmann::json_abi_v3_11_3::basic_json<std::map, std::vector, std::__cxx11::basic_string<char>, bool, long, unsigned long, double, (anonymous namespace)::allocator_no_forward>>>, std::less<std::__cxx11::basic_string<char>>, (anonymous namespace)::allocator_no_forward<std::pair<const std::__cxx11::basic_string<char>, nlohmann::json_abi_v3_11_3::basic_json<std::map, std::vector, std::__cxx11::basic_string<char>, bool, long, unsigned long, double, (anonymous namespace)::allocator_no_forward>>>>::_Auto_node" = type { ptr, ptr }
%"struct.std::_Select1st.297" = type { i8 }
%"class.std::move_iterator" = type { ptr }
%class.anon.299 = type { ptr }
%"class.std::unique_ptr.300" = type { %"struct.std::__uniq_ptr_data.301" }
%"struct.std::__uniq_ptr_data.301" = type { %"class.std::__uniq_ptr_impl.302" }
%"class.std::__uniq_ptr_impl.302" = type { %"class.std::tuple.303" }
%"class.std::tuple.303" = type { %"struct.std::_Tuple_impl.304" }
%"struct.std::_Tuple_impl.304" = type { %"struct.std::_Tuple_impl.305", %"struct.std::_Head_base.32" }
%"struct.std::_Tuple_impl.305" = type { %"struct.std::_Head_base.306" }
%"struct.std::_Head_base.306" = type { %class.anon.299 }

$_ZN7doctest6detail9TestSuiteC2Ev = comdat any

$_ZN7doctest6detail8TestCaseD2Ev = comdat any

$_ZN7doctest12TestCaseDataD2Ev = comdat any

$__clang_call_terminate = comdat any

$_ZN7doctest6detail13ResultBuilderD2Ev = comdat any

$_ZN8nlohmann16json_abi_v3_11_36detail11other_error6createIDnTnNSt9enable_ifIXsr21is_basic_json_contextIT_EE5valueEiE4typeELi0EEES2_iRKNSt7__cxx1112basic_stringIcSt11char_traitsIcESaIcEEES5_ = comdat any

$_ZN8nlohmann16json_abi_v3_11_36detail11other_errorD2Ev = comdat any

$_ZNSt9bad_allocC2Ev = comdat any

$_ZNSt9exceptionC2Ev = comdat any

$_ZNSt15__new_allocatorINSt7__cxx1112basic_stringIcSt11char_traitsIcESaIcEEEEC2Ev = comdat any

$_ZNSt15__new_allocatorINSt7__cxx1112basic_stringIcSt11char_traitsIcESaIcEEEE8allocateEmPKv = comdat any

$_ZNKSt15__new_allocatorINSt7__cxx1112basic_stringIcSt11char_traitsIcESaIcEEEE11_M_max_sizeEv = comdat any

$_ZNSt10_Head_baseILm0EPNSt7__cxx1112basic_stringIcSt11char_traitsIcESaIcEEELb0EEC2IRS6_EEOT_ = comdat any

$_ZNSt10_Head_baseILm0EPNSt7__cxx1112basic_stringIcSt11char_traitsIcESaIcEEELb0EE7_M_headERKS7_ = comdat any

$_ZNSt10_Head_baseILm0EPNSt7__cxx1112basic_stringIcSt11char_traitsIcESaIcEEELb0EE7_M_headERS7_ = comdat any

$_ZNSt15__new_allocatorINSt7__cxx1112basic_stringIcSt11char_traitsIcESaIcEEEE10deallocateEPS5_m = comdat any

$_ZNSt15__new_allocatorINSt7__cxx1112basic_stringIcSt11char_traitsIcESaIcEEEED2Ev = comdat any

$_ZNSaIN8nlohmann16json_abi_v3_11_327byte_container_with_subtypeISt6vectorIhSaIhEEEEEC2Ev = comdat any

$_ZNSt15__new_allocatorIN8nlohmann16json_abi_v3_11_327byte_container_with_subtypeISt6vectorIhSaIhEEEEEC2Ev = comdat any

$_ZNSt15__new_allocatorIN8nlohmann16json_abi_v3_11_327byte_container_with_subtypeISt6vectorIhSaIhEEEEE8allocateEmPKv = comdat any

$_ZNKSt15__new_allocatorIN8nlohmann16json_abi_v3_11_327byte_container_with_subtypeISt6vectorIhSaIhEEEEE11_M_max_sizeEv = comdat any

$_ZNSt10_Head_baseILm0EPN8nlohmann16json_abi_v3_11_327byte_container_with_subtypeISt6vectorIhSaIhEEEELb0EEC2IRS7_EEOT_ = comdat any

$_ZNSt10_Head_baseILm0EPN8nlohmann16json_abi_v3_11_327byte_container_with_subtypeISt6vectorIhSaIhEEEELb0EE7_M_headERKS8_ = comdat any

$_ZNSt10_Head_baseILm0EPN8nlohmann16json_abi_v3_11_327byte_container_with_subtypeISt6vectorIhSaIhEEEELb0EE7_M_headERS8_ = comdat any

$_ZNSt15__new_allocatorIN8nlohmann16json_abi_v3_11_327byte_container_with_subtypeISt6vectorIhSaIhEEEEE10deallocateEPS6_m = comdat any

$_ZNSaIN8nlohmann16json_abi_v3_11_327byte_container_with_subtypeISt6vectorIhSaIhEEEEED2Ev = comdat any

$_ZNSt15__new_allocatorIN8nlohmann16json_abi_v3_11_327byte_container_with_subtypeISt6vectorIhSaIhEEEEED2Ev = comdat any

$_ZN8nlohmann16json_abi_v3_11_36detail6concatINSt7__cxx1112basic_stringIcSt11char_traitsIcESaIcEEEJS8_S8_RKS8_EEET_DpOT0_ = comdat any

$_ZN8nlohmann16json_abi_v3_11_36detail9exception4nameERKNSt7__cxx1112basic_stringIcSt11char_traitsIcESaIcEEEi = comdat any

$_ZN8nlohmann16json_abi_v3_11_36detail9exception11diagnosticsB5cxx11EDn = comdat any

$_ZN8nlohmann16json_abi_v3_11_36detail11other_errorC2EiPKc = comdat any

$_ZN8nlohmann16json_abi_v3_11_36detail13concat_lengthINSt7__cxx1112basic_stringIcSt11char_traitsIcESaIcEEEJS8_S8_EEEmRKT_DpRKT0_ = comdat any

$_ZN8nlohmann16json_abi_v3_11_36detail11concat_intoINSt7__cxx1112basic_stringIcSt11char_traitsIcESaIcEEES8_JS8_RKS8_ETnNSt9enable_ifIXsr24detect_string_can_appendIT_T0_EE5valueEiE4typeELi0EEEvRSC_OSD_DpOT1_ = comdat any

$_ZN8nlohmann16json_abi_v3_11_36detail13concat_lengthINSt7__cxx1112basic_stringIcSt11char_traitsIcESaIcEEEJS8_EEEmRKT_DpRKT0_ = comdat any

$_ZN8nlohmann16json_abi_v3_11_36detail13concat_lengthINSt7__cxx1112basic_stringIcSt11char_traitsIcESaIcEEEJEEEmRKT_DpRKT0_ = comdat any

$_ZN8nlohmann16json_abi_v3_11_36detail13concat_lengthEv = comdat any

$_ZN8nlohmann16json_abi_v3_11_36detail11concat_intoINSt7__cxx1112basic_stringIcSt11char_traitsIcESaIcEEES8_JRKS8_ETnNSt9enable_ifIXsr24detect_string_can_appendIT_T0_EE5valueEiE4typeELi0EEEvRSC_OSD_DpOT1_ = comdat any

$_ZN8nlohmann16json_abi_v3_11_36detail11concat_intoINSt7__cxx1112basic_stringIcSt11char_traitsIcESaIcEEERKS8_JETnNSt9enable_ifIXsr24detect_string_can_appendIT_T0_EE5valueEiE4typeELi0EEEvRSC_OSD_DpOT1_ = comdat any

$_ZN8nlohmann16json_abi_v3_11_36detail11concat_intoINSt7__cxx1112basic_stringIcSt11char_traitsIcESaIcEEEEEvRT_ = comdat any

$_ZN8nlohmann16json_abi_v3_11_36detail6concatINSt7__cxx1112basic_stringIcSt11char_traitsIcESaIcEEEJRA17_KcRKS8_cS8_RA3_S9_EEET_DpOT0_ = comdat any

$_ZNSt7__cxx119to_stringEi = comdat any

$_ZN8nlohmann16json_abi_v3_11_36detail13concat_lengthIJNSt7__cxx1112basic_stringIcSt11char_traitsIcESaIcEEEcS8_A3_cEEEmPKcDpRKT_ = comdat any

$_ZN8nlohmann16json_abi_v3_11_36detail11concat_intoINSt7__cxx1112basic_stringIcSt11char_traitsIcESaIcEEERA17_KcJRKS8_cS8_RA3_S9_ETnNSt9enable_ifIXsr24detect_string_can_appendIT_T0_EE5valueEiE4typeELi0EEEvRSH_OSI_DpOT1_ = comdat any

$_ZN8nlohmann16json_abi_v3_11_36detail13concat_lengthINSt7__cxx1112basic_stringIcSt11char_traitsIcESaIcEEEJcS8_A3_cEEEmRKT_DpRKT0_ = comdat any

$_ZN8nlohmann16json_abi_v3_11_36detail13concat_lengthIJNSt7__cxx1112basic_stringIcSt11char_traitsIcESaIcEEEA3_cEEEmcDpRKT_ = comdat any

$_ZN8nlohmann16json_abi_v3_11_36detail13concat_lengthINSt7__cxx1112basic_stringIcSt11char_traitsIcESaIcEEEJA3_cEEEmRKT_DpRKT0_ = comdat any

$_ZN8nlohmann16json_abi_v3_11_36detail13concat_lengthIJEEEmPKcDpRKT_ = comdat any

$_ZN8nlohmann16json_abi_v3_11_36detail11concat_intoINSt7__cxx1112basic_stringIcSt11char_traitsIcESaIcEEERKS8_JcS8_RA3_KcETnNSt9enable_ifIXsr24detect_string_can_appendIT_T0_EE5valueEiE4typeELi0EEEvRSF_OSG_DpOT1_ = comdat any

$_ZN8nlohmann16json_abi_v3_11_36detail11concat_intoINSt7__cxx1112basic_stringIcSt11char_traitsIcESaIcEEEcJS8_RA3_KcETnNSt9enable_ifIXaantsr24detect_string_can_appendIT_T0_EE5valuesr27detect_string_can_append_opISD_SE_EE5valueEiE4typeELi0EEEvRSD_OSE_DpOT1_ = comdat any

$_ZN8nlohmann16json_abi_v3_11_36detail11concat_intoINSt7__cxx1112basic_stringIcSt11char_traitsIcESaIcEEES8_JRA3_KcETnNSt9enable_ifIXsr24detect_string_can_appendIT_T0_EE5valueEiE4typeELi0EEEvRSD_OSE_DpOT1_ = comdat any

$_ZN8nlohmann16json_abi_v3_11_36detail11concat_intoINSt7__cxx1112basic_stringIcSt11char_traitsIcESaIcEEERA3_KcJETnNSt9enable_ifIXsr24detect_string_can_appendIT_T0_EE5valueEiE4typeELi0EEEvRSD_OSE_DpOT1_ = comdat any

$_ZNSt8__detail14__to_chars_lenIjEEjT_i = comdat any

$_ZNSt8__detail18__to_chars_10_implIjEEvPcjT_ = comdat any

$_ZN8nlohmann16json_abi_v3_11_36detail9exceptionC2EiPKc = comdat any

$_ZN8nlohmann16json_abi_v3_11_36detail11other_errorD0Ev = comdat any

$_ZNK8nlohmann16json_abi_v3_11_36detail9exception4whatEv = comdat any

$_ZN8nlohmann16json_abi_v3_11_36detail9exceptionD2Ev = comdat any

$_ZN8nlohmann16json_abi_v3_11_36detail9exceptionD0Ev = comdat any

$_ZSt3minImERKT_S2_S2_ = comdat any

$_ZSt3maxImERKT_S2_S2_ = comdat any

$_ZNSt15_Rb_tree_header8_M_resetEv = comdat any

$_ZNSt15__new_allocatorINSt7__cxx1112basic_stringIcSt11char_traitsIcESaIcEEEE7destroyIS5_EEvPT_ = comdat any

$_ZNSt15__new_allocatorIN8nlohmann16json_abi_v3_11_327byte_container_with_subtypeISt6vectorIhSaIhEEEEE7destroyIS6_EEvPT_ = comdat any

$_ZN8nlohmann16json_abi_v3_11_327byte_container_with_subtypeISt6vectorIhSaIhEEED2Ev = comdat any

$_ZNSt6vectorIhSaIhEED2Ev = comdat any

$_ZSt8_DestroyIPhhEvT_S1_RSaIT0_E = comdat any

$_ZNSt12_Vector_baseIhSaIhEE19_M_get_Tp_allocatorEv = comdat any

$_ZNSt12_Vector_baseIhSaIhEED2Ev = comdat any

$_ZSt8_DestroyIPhEvT_S1_ = comdat any

$_ZNSt12_Destroy_auxILb1EE9__destroyIPhEEvT_S3_ = comdat any

$_ZNSt12_Vector_baseIhSaIhEE13_M_deallocateEPhm = comdat any

$_ZNSt12_Vector_baseIhSaIhEE12_Vector_implD2Ev = comdat any

$_ZNSt16allocator_traitsISaIhEE10deallocateERS0_Phm = comdat any

$_ZNSt15__new_allocatorIhE10deallocateEPhm = comdat any

$_ZNSt15__new_allocatorIhED2Ev = comdat any

$_ZN7doctest10AssertDataD2Ev = comdat any

$_ZN7doctest10AssertData14StringContainsD2Ev = comdat any

$_ZN7doctest8ContainsD2Ev = comdat any

$_ZNSt4pairIKNSt7__cxx1112basic_stringIcSt11char_traitsIcESaIcEEES5_EC2IRA4_KcSB_TnNSt9enable_ifIXaaclsr5_PCCPE22_MoveConstructiblePairIT_T0_EEclsr5_PCCPE30_ImplicitlyMoveConvertiblePairISD_SE_EEEbE4typeELb1EEEOSD_OSE_ = comdat any

$_ZNSt4pairIKNSt7__cxx1112basic_stringIcSt11char_traitsIcESaIcEEES5_ED2Ev = comdat any

$_ZNSaISt4pairIKNSt7__cxx1112basic_stringIcSt11char_traitsIcESaIcEEES5_EEC2Ev = comdat any

$_ZNSt3mapINSt7__cxx1112basic_stringIcSt11char_traitsIcESaIcEEES5_St4lessIS5_ESaISt4pairIKS5_S5_EEEC2ESt16initializer_listISA_ERKS7_RKSB_ = comdat any

$_ZNSaISt4pairIKNSt7__cxx1112basic_stringIcSt11char_traitsIcESaIcEEES5_EED2Ev = comdat any

$_ZNSt3mapINSt7__cxx1112basic_stringIcSt11char_traitsIcESaIcEEES5_St4lessIS5_ESaISt4pairIKS5_S5_EEED2Ev = comdat any

$_ZNSaINSt7__cxx1112basic_stringIcSt11char_traitsIcESaIcEEEEC2Ev = comdat any

$_ZNSt6vectorINSt7__cxx1112basic_stringIcSt11char_traitsIcESaIcEEESaIS5_EEC2ESt16initializer_listIS5_ERKS6_ = comdat any

$_ZNSaINSt7__cxx1112basic_stringIcSt11char_traitsIcESaIcEEEED2Ev = comdat any

$_ZNSt6vectorINSt7__cxx1112basic_stringIcSt11char_traitsIcESaIcEEESaIS5_EED2Ev = comdat any

$_ZNSt20_Rb_tree_key_compareISt4lessINSt7__cxx1112basic_stringIcSt11char_traitsIcESaIcEEEEEC2Ev = comdat any

$_ZNSt15_Rb_tree_headerC2Ev = comdat any

$_ZN8nlohmann16json_abi_v3_11_327byte_container_with_subtypeISt6vectorIhSaIhEEEC2Ev = comdat any

$_ZNSt6vectorIhSaIhEEC2Ev = comdat any

$_ZNSt12_Vector_baseIhSaIhEEC2Ev = comdat any

$_ZNSt12_Vector_baseIhSaIhEE12_Vector_implC2Ev = comdat any

$_ZNSaIhEC2Ev = comdat any

$_ZNSt12_Vector_baseIhSaIhEE17_Vector_impl_dataC2Ev = comdat any

$_ZNSt15__new_allocatorIhEC2Ev = comdat any

$_ZNSt15__new_allocatorISt4pairIKNSt7__cxx1112basic_stringIcSt11char_traitsIcESaIcEEES6_EEC2Ev = comdat any

$_ZNSaISt4pairIKNSt7__cxx1112basic_stringIcSt11char_traitsIcESaIcEEES5_EEC2ERKS8_ = comdat any

$_ZNSt8_Rb_treeINSt7__cxx1112basic_stringIcSt11char_traitsIcESaIcEEESt4pairIKS5_S5_ESt10_Select1stIS8_ESt4lessIS5_ESaIS8_EEC2ERKSC_RKSD_ = comdat any

$_ZNSt8_Rb_treeINSt7__cxx1112basic_stringIcSt11char_traitsIcESaIcEEESt4pairIKS5_S5_ESt10_Select1stIS8_ESt4lessIS5_ESaIS8_EE22_M_insert_range_uniqueIPKS8_EENSt9enable_ifIXsr17__same_value_typeIT_EE5valueEvE4typeESJ_SJ_ = comdat any

$_ZNKSt16initializer_listISt4pairIKNSt7__cxx1112basic_stringIcSt11char_traitsIcESaIcEEES6_EE5beginEv = comdat any

$_ZNKSt16initializer_listISt4pairIKNSt7__cxx1112basic_stringIcSt11char_traitsIcESaIcEEES6_EE3endEv = comdat any

$_ZNSt8_Rb_treeINSt7__cxx1112basic_stringIcSt11char_traitsIcESaIcEEESt4pairIKS5_S5_ESt10_Select1stIS8_ESt4lessIS5_ESaIS8_EED2Ev = comdat any

$_ZNSt15__new_allocatorISt4pairIKNSt7__cxx1112basic_stringIcSt11char_traitsIcESaIcEEES6_EEC2ERKS9_ = comdat any

$_ZNSaISt13_Rb_tree_nodeISt4pairIKNSt7__cxx1112basic_stringIcSt11char_traitsIcESaIcEEES6_EEEC2IS8_EERKSaIT_E = comdat any

$_ZNSt8_Rb_treeINSt7__cxx1112basic_stringIcSt11char_traitsIcESaIcEEESt4pairIKS5_S5_ESt10_Select1stIS8_ESt4lessIS5_ESaIS8_EE13_Rb_tree_implISC_Lb1EEC2ERKSC_OSaISt13_Rb_tree_nodeIS8_EE = comdat any

$_ZNSaISt13_Rb_tree_nodeISt4pairIKNSt7__cxx1112basic_stringIcSt11char_traitsIcESaIcEEES6_EEED2Ev = comdat any

$_ZNSt15__new_allocatorISt13_Rb_tree_nodeISt4pairIKNSt7__cxx1112basic_stringIcSt11char_traitsIcESaIcEEES7_EEEC2Ev = comdat any

$_ZNSaISt13_Rb_tree_nodeISt4pairIKNSt7__cxx1112basic_stringIcSt11char_traitsIcESaIcEEES6_EEEC2ERKSA_ = comdat any

$_ZNSt20_Rb_tree_key_compareISt4lessINSt7__cxx1112basic_stringIcSt11char_traitsIcESaIcEEEEEC2ERKS7_ = comdat any

$_ZNSt15__new_allocatorISt13_Rb_tree_nodeISt4pairIKNSt7__cxx1112basic_stringIcSt11char_traitsIcESaIcEEES7_EEEC2ERKSB_ = comdat any

$_ZNSt15__new_allocatorISt13_Rb_tree_nodeISt4pairIKNSt7__cxx1112basic_stringIcSt11char_traitsIcESaIcEEES7_EEED2Ev = comdat any

$_ZNSt8_Rb_treeINSt7__cxx1112basic_stringIcSt11char_traitsIcESaIcEEESt4pairIKS5_S5_ESt10_Select1stIS8_ESt4lessIS5_ESaIS8_EE11_Alloc_nodeC2ERSE_ = comdat any

$_ZNSt8_Rb_treeINSt7__cxx1112basic_stringIcSt11char_traitsIcESaIcEEESt4pairIKS5_S5_ESt10_Select1stIS8_ESt4lessIS5_ESaIS8_EE17_M_insert_unique_IRKS8_NSE_11_Alloc_nodeEEESt17_Rb_tree_iteratorIS8_ESt23_Rb_tree_const_iteratorIS8_EOT_RT0_ = comdat any

$_ZNSt8_Rb_treeINSt7__cxx1112basic_stringIcSt11char_traitsIcESaIcEEESt4pairIKS5_S5_ESt10_Select1stIS8_ESt4lessIS5_ESaIS8_EE3endEv = comdat any

$_ZNSt23_Rb_tree_const_iteratorISt4pairIKNSt7__cxx1112basic_stringIcSt11char_traitsIcESaIcEEES6_EEC2ERKSt17_Rb_tree_iteratorIS8_E = comdat any

$_ZNSt8_Rb_treeINSt7__cxx1112basic_stringIcSt11char_traitsIcESaIcEEESt4pairIKS5_S5_ESt10_Select1stIS8_ESt4lessIS5_ESaIS8_EE29_M_get_insert_hint_unique_posESt23_Rb_tree_const_iteratorIS8_ERS7_ = comdat any

$_ZNKSt10_Select1stISt4pairIKNSt7__cxx1112basic_stringIcSt11char_traitsIcESaIcEEES6_EEclERKS8_ = comdat any

$_ZNSt8_Rb_treeINSt7__cxx1112basic_stringIcSt11char_traitsIcESaIcEEESt4pairIKS5_S5_ESt10_Select1stIS8_ESt4lessIS5_ESaIS8_EE10_M_insert_IRKS8_NSE_11_Alloc_nodeEEESt17_Rb_tree_iteratorIS8_EPSt18_Rb_tree_node_baseSM_OT_RT0_ = comdat any

$_ZNSt17_Rb_tree_iteratorISt4pairIKNSt7__cxx1112basic_stringIcSt11char_traitsIcESaIcEEES6_EEC2EPSt18_Rb_tree_node_base = comdat any

$_ZNKSt23_Rb_tree_const_iteratorISt4pairIKNSt7__cxx1112basic_stringIcSt11char_traitsIcESaIcEEES6_EE13_M_const_castEv = comdat any

$_ZNSt8_Rb_treeINSt7__cxx1112basic_stringIcSt11char_traitsIcESaIcEEESt4pairIKS5_S5_ESt10_Select1stIS8_ESt4lessIS5_ESaIS8_EE6_M_endEv = comdat any

$_ZNKSt8_Rb_treeINSt7__cxx1112basic_stringIcSt11char_traitsIcESaIcEEESt4pairIKS5_S5_ESt10_Select1stIS8_ESt4lessIS5_ESaIS8_EE4sizeEv = comdat any

$_ZNKSt4lessINSt7__cxx1112basic_stringIcSt11char_traitsIcESaIcEEEEclERKS5_S8_ = comdat any

$_ZNSt8_Rb_treeINSt7__cxx1112basic_stringIcSt11char_traitsIcESaIcEEESt4pairIKS5_S5_ESt10_Select1stIS8_ESt4lessIS5_ESaIS8_EE6_S_keyEPKSt18_Rb_tree_node_base = comdat any

$_ZNSt8_Rb_treeINSt7__cxx1112basic_stringIcSt11char_traitsIcESaIcEEESt4pairIKS5_S5_ESt10_Select1stIS8_ESt4lessIS5_ESaIS8_EE12_M_rightmostEv = comdat any

$_ZNSt4pairIPSt18_Rb_tree_node_baseS1_EC2IS1_S1_TnNSt9enable_ifIXaaclsr5_PCCPE18_ConstructiblePairIT_T0_EEclsr5_PCCPE26_ImplicitlyConvertiblePairIS5_S6_EEEbE4typeELb1EEERKS1_SA_ = comdat any

$_ZNSt8_Rb_treeINSt7__cxx1112basic_stringIcSt11char_traitsIcESaIcEEESt4pairIKS5_S5_ESt10_Select1stIS8_ESt4lessIS5_ESaIS8_EE24_M_get_insert_unique_posERS7_ = comdat any

$_ZNSt8_Rb_treeINSt7__cxx1112basic_stringIcSt11char_traitsIcESaIcEEESt4pairIKS5_S5_ESt10_Select1stIS8_ESt4lessIS5_ESaIS8_EE11_M_leftmostEv = comdat any

$_ZNSt4pairIPSt18_Rb_tree_node_baseS1_EC2IRS1_S4_TnNSt9enable_ifIXaaclsr5_PCCPE22_MoveConstructiblePairIT_T0_EEclsr5_PCCPE30_ImplicitlyMoveConvertiblePairIS6_S7_EEEbE4typeELb1EEEOS6_OS7_ = comdat any

$_ZNSt17_Rb_tree_iteratorISt4pairIKNSt7__cxx1112basic_stringIcSt11char_traitsIcESaIcEEES6_EEmmEv = comdat any

$_ZNSt8_Rb_treeINSt7__cxx1112basic_stringIcSt11char_traitsIcESaIcEEESt4pairIKS5_S5_ESt10_Select1stIS8_ESt4lessIS5_ESaIS8_EE8_S_rightEPSt18_Rb_tree_node_base = comdat any

$_ZNSt17_Rb_tree_iteratorISt4pairIKNSt7__cxx1112basic_stringIcSt11char_traitsIcESaIcEEES6_EEppEv = comdat any

$_ZStltIcSt11char_traitsIcESaIcEEbRKNSt7__cxx1112basic_stringIT_T0_T1_EESA_ = comdat any

$_ZNSt8_Rb_treeINSt7__cxx1112basic_stringIcSt11char_traitsIcESaIcEEESt4pairIKS5_S5_ESt10_Select1stIS8_ESt4lessIS5_ESaIS8_EE6_S_keyEPKSt13_Rb_tree_nodeIS8_E = comdat any

$_ZNKSt13_Rb_tree_nodeISt4pairIKNSt7__cxx1112basic_stringIcSt11char_traitsIcESaIcEEES6_EE9_M_valptrEv = comdat any

$_ZNK9__gnu_cxx16__aligned_membufISt4pairIKNSt7__cxx1112basic_stringIcSt11char_traitsIcESaIcEEES7_EE6_M_ptrEv = comdat any

$_ZNK9__gnu_cxx16__aligned_membufISt4pairIKNSt7__cxx1112basic_stringIcSt11char_traitsIcESaIcEEES7_EE7_M_addrEv = comdat any

$_ZNSt8_Rb_treeINSt7__cxx1112basic_stringIcSt11char_traitsIcESaIcEEESt4pairIKS5_S5_ESt10_Select1stIS8_ESt4lessIS5_ESaIS8_EE8_M_beginEv = comdat any

$_ZNSt8_Rb_treeINSt7__cxx1112basic_stringIcSt11char_traitsIcESaIcEEESt4pairIKS5_S5_ESt10_Select1stIS8_ESt4lessIS5_ESaIS8_EE7_S_leftEPSt18_Rb_tree_node_base = comdat any

$_ZSteqRKSt17_Rb_tree_iteratorISt4pairIKNSt7__cxx1112basic_stringIcSt11char_traitsIcESaIcEEES6_EESB_ = comdat any

$_ZNSt8_Rb_treeINSt7__cxx1112basic_stringIcSt11char_traitsIcESaIcEEESt4pairIKS5_S5_ESt10_Select1stIS8_ESt4lessIS5_ESaIS8_EE5beginEv = comdat any

$_ZNSt4pairIPSt18_Rb_tree_node_baseS1_EC2IRPSt13_Rb_tree_nodeIS_IKNSt7__cxx1112basic_stringIcSt11char_traitsIcESaIcEEESA_EERS1_TnNSt9enable_ifIXaaclsr5_PCCPE22_MoveConstructiblePairIT_T0_EEclsr5_PCCPE30_ImplicitlyMoveConvertiblePairISI_SJ_EEEbE4typeELb1EEEOSI_OSJ_ = comdat any

$_ZNKSt8_Rb_treeINSt7__cxx1112basic_stringIcSt11char_traitsIcESaIcEEESt4pairIKS5_S5_ESt10_Select1stIS8_ESt4lessIS5_ESaIS8_EE9_M_mbeginEv = comdat any

$_ZNKSt8_Rb_treeINSt7__cxx1112basic_stringIcSt11char_traitsIcESaIcEEESt4pairIKS5_S5_ESt10_Select1stIS8_ESt4lessIS5_ESaIS8_EE11_Alloc_nodeclIRKS8_EEPSt13_Rb_tree_nodeIS8_EOT_ = comdat any

$_ZNSt8_Rb_treeINSt7__cxx1112basic_stringIcSt11char_traitsIcESaIcEEESt4pairIKS5_S5_ESt10_Select1stIS8_ESt4lessIS5_ESaIS8_EE14_M_create_nodeIJRKS8_EEEPSt13_Rb_tree_nodeIS8_EDpOT_ = comdat any

$_ZNSt8_Rb_treeINSt7__cxx1112basic_stringIcSt11char_traitsIcESaIcEEESt4pairIKS5_S5_ESt10_Select1stIS8_ESt4lessIS5_ESaIS8_EE11_M_get_nodeEv = comdat any

$_ZNSt8_Rb_treeINSt7__cxx1112basic_stringIcSt11char_traitsIcESaIcEEESt4pairIKS5_S5_ESt10_Select1stIS8_ESt4lessIS5_ESaIS8_EE17_M_construct_nodeIJRKS8_EEEvPSt13_Rb_tree_nodeIS8_EDpOT_ = comdat any

$_ZNSt16allocator_traitsISaISt13_Rb_tree_nodeISt4pairIKNSt7__cxx1112basic_stringIcSt11char_traitsIcESaIcEEES7_EEEE8allocateERSB_m = comdat any

$_ZNSt8_Rb_treeINSt7__cxx1112basic_stringIcSt11char_traitsIcESaIcEEESt4pairIKS5_S5_ESt10_Select1stIS8_ESt4lessIS5_ESaIS8_EE21_M_get_Node_allocatorEv = comdat any

$_ZNSt15__new_allocatorISt13_Rb_tree_nodeISt4pairIKNSt7__cxx1112basic_stringIcSt11char_traitsIcESaIcEEES7_EEE8allocateEmPKv = comdat any

$_ZNKSt15__new_allocatorISt13_Rb_tree_nodeISt4pairIKNSt7__cxx1112basic_stringIcSt11char_traitsIcESaIcEEES7_EEE11_M_max_sizeEv = comdat any

$_ZNSt16allocator_traitsISaISt13_Rb_tree_nodeISt4pairIKNSt7__cxx1112basic_stringIcSt11char_traitsIcESaIcEEES7_EEEE9constructIS9_JRKS9_EEEvRSB_PT_DpOT0_ = comdat any

$_ZNSt13_Rb_tree_nodeISt4pairIKNSt7__cxx1112basic_stringIcSt11char_traitsIcESaIcEEES6_EE9_M_valptrEv = comdat any

$_ZNSt8_Rb_treeINSt7__cxx1112basic_stringIcSt11char_traitsIcESaIcEEESt4pairIKS5_S5_ESt10_Select1stIS8_ESt4lessIS5_ESaIS8_EE11_M_put_nodeEPSt13_Rb_tree_nodeIS8_E = comdat any

$_ZNSt15__new_allocatorISt13_Rb_tree_nodeISt4pairIKNSt7__cxx1112basic_stringIcSt11char_traitsIcESaIcEEES7_EEE9constructIS9_JRKS9_EEEvPT_DpOT0_ = comdat any

$_ZNSt4pairIKNSt7__cxx1112basic_stringIcSt11char_traitsIcESaIcEEES5_EC2ERKS7_ = comdat any

$_ZN9__gnu_cxx16__aligned_membufISt4pairIKNSt7__cxx1112basic_stringIcSt11char_traitsIcESaIcEEES7_EE6_M_ptrEv = comdat any

$_ZN9__gnu_cxx16__aligned_membufISt4pairIKNSt7__cxx1112basic_stringIcSt11char_traitsIcESaIcEEES7_EE7_M_addrEv = comdat any

$_ZNSt16allocator_traitsISaISt13_Rb_tree_nodeISt4pairIKNSt7__cxx1112basic_stringIcSt11char_traitsIcESaIcEEES7_EEEE10deallocateERSB_PSA_m = comdat any

$_ZNSt15__new_allocatorISt13_Rb_tree_nodeISt4pairIKNSt7__cxx1112basic_stringIcSt11char_traitsIcESaIcEEES7_EEE10deallocateEPSA_m = comdat any

$_ZNKSt16initializer_listISt4pairIKNSt7__cxx1112basic_stringIcSt11char_traitsIcESaIcEEES6_EE4sizeEv = comdat any

$_ZNSt8_Rb_treeINSt7__cxx1112basic_stringIcSt11char_traitsIcESaIcEEESt4pairIKS5_S5_ESt10_Select1stIS8_ESt4lessIS5_ESaIS8_EE8_M_eraseEPSt13_Rb_tree_nodeIS8_E = comdat any

$_ZNSt8_Rb_treeINSt7__cxx1112basic_stringIcSt11char_traitsIcESaIcEEESt4pairIKS5_S5_ESt10_Select1stIS8_ESt4lessIS5_ESaIS8_EE13_Rb_tree_implISC_Lb1EED2Ev = comdat any

$_ZNSt8_Rb_treeINSt7__cxx1112basic_stringIcSt11char_traitsIcESaIcEEESt4pairIKS5_S5_ESt10_Select1stIS8_ESt4lessIS5_ESaIS8_EE12_M_drop_nodeEPSt13_Rb_tree_nodeIS8_E = comdat any

$_ZNSt8_Rb_treeINSt7__cxx1112basic_stringIcSt11char_traitsIcESaIcEEESt4pairIKS5_S5_ESt10_Select1stIS8_ESt4lessIS5_ESaIS8_EE15_M_destroy_nodeEPSt13_Rb_tree_nodeIS8_E = comdat any

$_ZNSt16allocator_traitsISaISt13_Rb_tree_nodeISt4pairIKNSt7__cxx1112basic_stringIcSt11char_traitsIcESaIcEEES7_EEEE7destroyIS9_EEvRSB_PT_ = comdat any

$_ZNSt15__new_allocatorISt13_Rb_tree_nodeISt4pairIKNSt7__cxx1112basic_stringIcSt11char_traitsIcESaIcEEES7_EEE7destroyIS9_EEvPT_ = comdat any

$_ZNSt15__new_allocatorISt4pairIKNSt7__cxx1112basic_stringIcSt11char_traitsIcESaIcEEES6_EED2Ev = comdat any

$_ZSt5beginISt3mapINSt7__cxx1112basic_stringIcSt11char_traitsIcESaIcEEES6_St4lessIS6_ESaISt4pairIKS6_S6_EEEEDTcldtfp_5beginEERKT_ = comdat any

$_ZSt3endISt3mapINSt7__cxx1112basic_stringIcSt11char_traitsIcESaIcEEES6_St4lessIS6_ESaISt4pairIKS6_S6_EEEEDTcldtfp_3endEERKT_ = comdat any

$_ZStneRKSt23_Rb_tree_const_iteratorISt4pairIKNSt7__cxx1112basic_stringIcSt11char_traitsIcESaIcEEES6_EESB_ = comdat any

$_ZNKSt23_Rb_tree_const_iteratorISt4pairIKNSt7__cxx1112basic_stringIcSt11char_traitsIcESaIcEEES6_EEdeEv = comdat any

$_ZNSt23_Rb_tree_const_iteratorISt4pairIKNSt7__cxx1112basic_stringIcSt11char_traitsIcESaIcEEES6_EEppEv = comdat any

$_ZNKSt3mapINSt7__cxx1112basic_stringIcSt11char_traitsIcESaIcEEES5_St4lessIS5_ESaISt4pairIKS5_S5_EEE5beginEv = comdat any

$_ZNKSt8_Rb_treeINSt7__cxx1112basic_stringIcSt11char_traitsIcESaIcEEESt4pairIKS5_S5_ESt10_Select1stIS8_ESt4lessIS5_ESaIS8_EE5beginEv = comdat any

$_ZNSt23_Rb_tree_const_iteratorISt4pairIKNSt7__cxx1112basic_stringIcSt11char_traitsIcESaIcEEES6_EEC2EPKSt18_Rb_tree_node_base = comdat any

$_ZNKSt3mapINSt7__cxx1112basic_stringIcSt11char_traitsIcESaIcEEES5_St4lessIS5_ESaISt4pairIKS5_S5_EEE3endEv = comdat any

$_ZNKSt8_Rb_treeINSt7__cxx1112basic_stringIcSt11char_traitsIcESaIcEEESt4pairIKS5_S5_ESt10_Select1stIS8_ESt4lessIS5_ESaIS8_EE3endEv = comdat any

$_ZNSt12_Vector_baseINSt7__cxx1112basic_stringIcSt11char_traitsIcESaIcEEESaIS5_EEC2ERKS6_ = comdat any

$_ZNSt6vectorINSt7__cxx1112basic_stringIcSt11char_traitsIcESaIcEEESaIS5_EE19_M_range_initializeIPKS5_EEvT_SB_St20forward_iterator_tag = comdat any

$_ZNKSt16initializer_listINSt7__cxx1112basic_stringIcSt11char_traitsIcESaIcEEEE5beginEv = comdat any

$_ZNKSt16initializer_listINSt7__cxx1112basic_stringIcSt11char_traitsIcESaIcEEEE3endEv = comdat any

$_ZNSt12_Vector_baseINSt7__cxx1112basic_stringIcSt11char_traitsIcESaIcEEESaIS5_EED2Ev = comdat any

$_ZNSt12_Vector_baseINSt7__cxx1112basic_stringIcSt11char_traitsIcESaIcEEESaIS5_EE12_Vector_implC2ERKS6_ = comdat any

$_ZNSt12_Vector_baseINSt7__cxx1112basic_stringIcSt11char_traitsIcESaIcEEESaIS5_EE17_Vector_impl_dataC2Ev = comdat any

$_ZNSt15__new_allocatorINSt7__cxx1112basic_stringIcSt11char_traitsIcESaIcEEEEC2ERKS6_ = comdat any

$_ZSt8distanceIPKNSt7__cxx1112basic_stringIcSt11char_traitsIcESaIcEEEENSt15iterator_traitsIT_E15difference_typeES9_S9_ = comdat any

$_ZNSt12_Vector_baseINSt7__cxx1112basic_stringIcSt11char_traitsIcESaIcEEESaIS5_EE11_M_allocateEm = comdat any

$_ZNSt6vectorINSt7__cxx1112basic_stringIcSt11char_traitsIcESaIcEEESaIS5_EE17_S_check_init_lenEmRKS6_ = comdat any

$_ZNSt12_Vector_baseINSt7__cxx1112basic_stringIcSt11char_traitsIcESaIcEEESaIS5_EE19_M_get_Tp_allocatorEv = comdat any

$_ZSt22__uninitialized_copy_aIPKNSt7__cxx1112basic_stringIcSt11char_traitsIcESaIcEEEPS5_S5_ET0_T_SA_S9_RSaIT1_E = comdat any

$_ZSt10__distanceIPKNSt7__cxx1112basic_stringIcSt11char_traitsIcESaIcEEEENSt15iterator_traitsIT_E15difference_typeES9_S9_St26random_access_iterator_tag = comdat any

$_ZSt19__iterator_categoryIPKNSt7__cxx1112basic_stringIcSt11char_traitsIcESaIcEEEENSt15iterator_traitsIT_E17iterator_categoryERKS9_ = comdat any

$_ZNSt16allocator_traitsISaINSt7__cxx1112basic_stringIcSt11char_traitsIcESaIcEEEEE8allocateERS6_m = comdat any

$_ZNSt6vectorINSt7__cxx1112basic_stringIcSt11char_traitsIcESaIcEEESaIS5_EE11_S_max_sizeERKS6_ = comdat any

$_ZNSaINSt7__cxx1112basic_stringIcSt11char_traitsIcESaIcEEEEC2ERKS5_ = comdat any

$_ZNSt16allocator_traitsISaINSt7__cxx1112basic_stringIcSt11char_traitsIcESaIcEEEEE8max_sizeERKS6_ = comdat any

$_ZNKSt15__new_allocatorINSt7__cxx1112basic_stringIcSt11char_traitsIcESaIcEEEE8max_sizeEv = comdat any

$_ZSt18uninitialized_copyIPKNSt7__cxx1112basic_stringIcSt11char_traitsIcESaIcEEEPS5_ET0_T_SA_S9_ = comdat any

$_ZNSt20__uninitialized_copyILb0EE13__uninit_copyIPKNSt7__cxx1112basic_stringIcSt11char_traitsIcESaIcEEEPS7_EET0_T_SC_SB_ = comdat any

$_ZSt16__do_uninit_copyIPKNSt7__cxx1112basic_stringIcSt11char_traitsIcESaIcEEEPS5_ET0_T_SA_S9_ = comdat any

$_ZSt10_ConstructINSt7__cxx1112basic_stringIcSt11char_traitsIcESaIcEEEJRKS5_EEvPT_DpOT0_ = comdat any

$_ZSt8_DestroyIPNSt7__cxx1112basic_stringIcSt11char_traitsIcESaIcEEEEvT_S7_ = comdat any

$_ZNSt12_Destroy_auxILb0EE9__destroyIPNSt7__cxx1112basic_stringIcSt11char_traitsIcESaIcEEEEEvT_S9_ = comdat any

$_ZSt8_DestroyINSt7__cxx1112basic_stringIcSt11char_traitsIcESaIcEEEEvPT_ = comdat any

$_ZNKSt16initializer_listINSt7__cxx1112basic_stringIcSt11char_traitsIcESaIcEEEE4sizeEv = comdat any

$_ZNSt12_Vector_baseINSt7__cxx1112basic_stringIcSt11char_traitsIcESaIcEEESaIS5_EE13_M_deallocateEPS5_m = comdat any

$_ZNSt12_Vector_baseINSt7__cxx1112basic_stringIcSt11char_traitsIcESaIcEEESaIS5_EE12_Vector_implD2Ev = comdat any

$_ZNSt16allocator_traitsISaINSt7__cxx1112basic_stringIcSt11char_traitsIcESaIcEEEEE10deallocateERS6_PS5_m = comdat any

$_ZSt5beginISt6vectorINSt7__cxx1112basic_stringIcSt11char_traitsIcESaIcEEESaIS6_EEEDTcldtfp_5beginEERKT_ = comdat any

$_ZSt3endISt6vectorINSt7__cxx1112basic_stringIcSt11char_traitsIcESaIcEEESaIS6_EEEDTcldtfp_3endEERKT_ = comdat any

$_ZSt19__iterator_categoryIN9__gnu_cxx17__normal_iteratorIPKNSt7__cxx1112basic_stringIcSt11char_traitsIcESaIcEEESt6vectorIS7_SaIS7_EEEEENSt15iterator_traitsIT_E17iterator_categoryERKSF_ = comdat any

$_ZSt8distanceIN9__gnu_cxx17__normal_iteratorIPKNSt7__cxx1112basic_stringIcSt11char_traitsIcESaIcEEESt6vectorIS7_SaIS7_EEEEENSt15iterator_traitsIT_E15difference_typeESF_SF_ = comdat any

$_ZSt10__distanceIN9__gnu_cxx17__normal_iteratorIPKNSt7__cxx1112basic_stringIcSt11char_traitsIcESaIcEEESt6vectorIS7_SaIS7_EEEEENSt15iterator_traitsIT_E15difference_typeESF_SF_St26random_access_iterator_tag = comdat any

$_ZN9__gnu_cxxmiIPKNSt7__cxx1112basic_stringIcSt11char_traitsIcESaIcEEESt6vectorIS6_SaIS6_EEEENS_17__normal_iteratorIT_T0_E15difference_typeERKSF_SI_ = comdat any

$_ZNK9__gnu_cxx17__normal_iteratorIPKNSt7__cxx1112basic_stringIcSt11char_traitsIcESaIcEEESt6vectorIS6_SaIS6_EEE4baseEv = comdat any

$_ZN9__gnu_cxxneIPKNSt7__cxx1112basic_stringIcSt11char_traitsIcESaIcEEESt6vectorIS6_SaIS6_EEEEbRKNS_17__normal_iteratorIT_T0_EESH_ = comdat any

$_ZNK9__gnu_cxx17__normal_iteratorIPKNSt7__cxx1112basic_stringIcSt11char_traitsIcESaIcEEESt6vectorIS6_SaIS6_EEEdeEv = comdat any

$_ZN9__gnu_cxx17__normal_iteratorIPKNSt7__cxx1112basic_stringIcSt11char_traitsIcESaIcEEESt6vectorIS6_SaIS6_EEEppEv = comdat any

$_ZNKSt6vectorINSt7__cxx1112basic_stringIcSt11char_traitsIcESaIcEEESaIS5_EE5beginEv = comdat any

$_ZN9__gnu_cxx17__normal_iteratorIPKNSt7__cxx1112basic_stringIcSt11char_traitsIcESaIcEEESt6vectorIS6_SaIS6_EEEC2ERKS8_ = comdat any

$_ZNKSt6vectorINSt7__cxx1112basic_stringIcSt11char_traitsIcESaIcEEESaIS5_EE3endEv = comdat any

$_ZSt8_DestroyIPNSt7__cxx1112basic_stringIcSt11char_traitsIcESaIcEEES5_EvT_S7_RSaIT0_E = comdat any

$_ZNSt18_Rb_tree_node_base10_S_minimumEPS_ = comdat any

$_ZNSt18_Rb_tree_node_base10_S_maximumEPS_ = comdat any

$_ZN8nlohmann16json_abi_v3_11_327byte_container_with_subtypeISt6vectorIhSaIhEEEC2ERKS5_ = comdat any

$_ZNSt6vectorIhSaIhEEC2ERKS1_ = comdat any

$_ZNKSt6vectorIhSaIhEE4sizeEv = comdat any

$_ZN9__gnu_cxx14__alloc_traitsISaIhEhE17_S_select_on_copyERKS1_ = comdat any

$_ZNKSt12_Vector_baseIhSaIhEE19_M_get_Tp_allocatorEv = comdat any

$_ZNSt12_Vector_baseIhSaIhEEC2EmRKS0_ = comdat any

$_ZNSaIhED2Ev = comdat any

$_ZSt22__uninitialized_copy_aIN9__gnu_cxx17__normal_iteratorIPKhSt6vectorIhSaIhEEEEPhhET0_T_SA_S9_RSaIT1_E = comdat any

$_ZNKSt6vectorIhSaIhEE5beginEv = comdat any

$_ZNKSt6vectorIhSaIhEE3endEv = comdat any

$_ZNSt16allocator_traitsISaIhEE37select_on_container_copy_constructionERKS0_ = comdat any

$_ZNSaIhEC2ERKS_ = comdat any

$_ZNSt15__new_allocatorIhEC2ERKS0_ = comdat any

$_ZNSt12_Vector_baseIhSaIhEE12_Vector_implC2ERKS0_ = comdat any

$_ZNSt12_Vector_baseIhSaIhEE17_M_create_storageEm = comdat any

$_ZNSt12_Vector_baseIhSaIhEE11_M_allocateEm = comdat any

$_ZNSt16allocator_traitsISaIhEE8allocateERS0_m = comdat any

$_ZNSt15__new_allocatorIhE8allocateEmPKv = comdat any

$_ZNKSt15__new_allocatorIhE11_M_max_sizeEv = comdat any

$_ZSt18uninitialized_copyIN9__gnu_cxx17__normal_iteratorIPKhSt6vectorIhSaIhEEEEPhET0_T_SA_S9_ = comdat any

$_ZNSt20__uninitialized_copyILb1EE13__uninit_copyIN9__gnu_cxx17__normal_iteratorIPKhSt6vectorIhSaIhEEEEPhEET0_T_SC_SB_ = comdat any

$_ZSt4copyIN9__gnu_cxx17__normal_iteratorIPKhSt6vectorIhSaIhEEEEPhET0_T_SA_S9_ = comdat any

$_ZSt13__copy_move_aILb0EN9__gnu_cxx17__normal_iteratorIPKhSt6vectorIhSaIhEEEEPhET1_T0_SA_S9_ = comdat any

$_ZSt12__miter_baseIN9__gnu_cxx17__normal_iteratorIPKhSt6vectorIhSaIhEEEEET_S8_ = comdat any

$_ZSt12__niter_wrapIPhET_RKS1_S1_ = comdat any

$_ZSt14__copy_move_a1ILb0EPKhPhET1_T0_S4_S3_ = comdat any

$_ZSt12__niter_baseIPKhSt6vectorIhSaIhEEET_N9__gnu_cxx17__normal_iteratorIS5_T0_EE = comdat any

$_ZSt12__niter_baseIPhET_S1_ = comdat any

$_ZSt14__copy_move_a2ILb0EPKhPhET1_T0_S4_S3_ = comdat any

$_ZNSt11__copy_moveILb0ELb1ESt26random_access_iterator_tagE8__copy_mIhEEPT_PKS3_S6_S4_ = comdat any

$_ZNK9__gnu_cxx17__normal_iteratorIPKhSt6vectorIhSaIhEEE4baseEv = comdat any

$_ZN9__gnu_cxx17__normal_iteratorIPKhSt6vectorIhSaIhEEEC2ERKS2_ = comdat any

$_ZN8nlohmann16json_abi_v3_11_36detail6concatINSt7__cxx1112basic_stringIcSt11char_traitsIcESaIcEEEJRA51_KcPS9_EEET_DpOT0_ = comdat any

$_ZN8nlohmann16json_abi_v3_11_36detail10type_errorD2Ev = comdat any

$_ZN8nlohmann16json_abi_v3_11_36detail10type_errorC2EiPKc = comdat any

$_ZN8nlohmann16json_abi_v3_11_36detail10type_errorD0Ev = comdat any

$_ZN8nlohmann16json_abi_v3_11_36detail13concat_lengthIJPKcEEEmS4_DpRKT_ = comdat any

$_ZN8nlohmann16json_abi_v3_11_36detail11concat_intoINSt7__cxx1112basic_stringIcSt11char_traitsIcESaIcEEERA51_KcJPS9_ETnNSt9enable_ifIXsr24detect_string_can_appendIT_T0_EE5valueEiE4typeELi0EEEvRSE_OSF_DpOT1_ = comdat any

$_ZN8nlohmann16json_abi_v3_11_36detail11concat_intoINSt7__cxx1112basic_stringIcSt11char_traitsIcESaIcEEEPKcJETnNSt9enable_ifIXsr24detect_string_can_appendIT_T0_EE5valueEiE4typeELi0EEEvRSC_OSD_DpOT1_ = comdat any

$_ZSt4swapIN8nlohmann16json_abi_v3_11_36detail7value_tEENSt9enable_ifIXsr6__and_ISt6__not_ISt15__is_tuple_likeIT_EESt21is_move_constructibleIS7_ESt18is_move_assignableIS7_EEE5valueEvE4typeERS7_SG_ = comdat any

$_ZN8nlohmann16json_abi_v3_11_36detail6concatINSt7__cxx1112basic_stringIcSt11char_traitsIcESaIcEEEJRA29_KcPS9_EEET_DpOT0_ = comdat any

$_ZN8nlohmann16json_abi_v3_11_36detail11concat_intoINSt7__cxx1112basic_stringIcSt11char_traitsIcESaIcEEERA29_KcJPS9_ETnNSt9enable_ifIXsr24detect_string_can_appendIT_T0_EE5valueEiE4typeELi0EEEvRSE_OSF_DpOT1_ = comdat any

$_ZTSN8nlohmann16json_abi_v3_11_36detail11other_errorE = comdat any

$_ZTSN8nlohmann16json_abi_v3_11_36detail9exceptionE = comdat any

$_ZTIN8nlohmann16json_abi_v3_11_36detail9exceptionE = comdat any

$_ZTIN8nlohmann16json_abi_v3_11_36detail11other_errorE = comdat any

$_ZZNSt8__detail18__to_chars_10_implIjEEvPcjT_E8__digits = comdat any

$_ZTVN8nlohmann16json_abi_v3_11_36detail11other_errorE = comdat any

$_ZTVN8nlohmann16json_abi_v3_11_36detail9exceptionE = comdat any

$_ZN8nlohmann16json_abi_v3_11_36detail12static_constINS1_10to_json_fnEE5valueE = comdat any

$_ZTSN8nlohmann16json_abi_v3_11_36detail10type_errorE = comdat any

$_ZTIN8nlohmann16json_abi_v3_11_36detail10type_errorE = comdat any

$_ZTVN8nlohmann16json_abi_v3_11_36detail10type_errorE = comdat any

@_ZL18DOCTEST_ANON_VAR_0 = internal global i32 0, align 4
@.str = private unnamed_addr constant [1 x i8] zeroinitializer, align 1
@_ZL18DOCTEST_ANON_VAR_3 = internal global i32 0, align 4
@.str.2 = private unnamed_addr constant [125 x i8] c"generated/home/dtcxzyw/WorkSpace/Projects/compilers/llvm-opt-benchmark/bench/nlohmann_json/json/tests/src/unit-allocator.cpp\00", align 1
@.str.3 = private unnamed_addr constant [10 x i8] c"bad_alloc\00", align 1
@_ZL18DOCTEST_ANON_VAR_6 = internal global i32 0, align 4
@.str.5 = private unnamed_addr constant [21 x i8] c"controlled bad_alloc\00", align 1
@_ZL19DOCTEST_ANON_VAR_19 = internal global i32 0, align 4
@.str.7 = private unnamed_addr constant [28 x i8] c"bad my_allocator::construct\00", align 1
@.str.8 = private unnamed_addr constant [36 x i8] c"bad_json(bad_json::value_t::object)\00", align 1
@.str.9 = private unnamed_addr constant [16 x i8] c"std::bad_alloc&\00", align 1
@_ZTISt9bad_alloc = external constant ptr
@.str.10 = private unnamed_addr constant [48 x i8] c"961c151d2e87f2686a955a9be24d316f1362bf21 3.11.3\00", align 1
@_ZTVN10__cxxabiv120__si_class_type_infoE = external global [0 x ptr]
@_ZTSN8nlohmann16json_abi_v3_11_36detail11other_errorE = linkonce_odr dso_local constant [50 x i8] c"N8nlohmann16json_abi_v3_11_36detail11other_errorE\00", comdat, align 1
@_ZTSN8nlohmann16json_abi_v3_11_36detail9exceptionE = linkonce_odr dso_local constant [47 x i8] c"N8nlohmann16json_abi_v3_11_36detail9exceptionE\00", comdat, align 1
@_ZTISt9exception = external constant ptr
@_ZTIN8nlohmann16json_abi_v3_11_36detail9exceptionE = linkonce_odr dso_local constant { ptr, ptr, ptr } { ptr getelementptr inbounds (ptr, ptr @_ZTVN10__cxxabiv120__si_class_type_infoE, i64 2), ptr @_ZTSN8nlohmann16json_abi_v3_11_36detail9exceptionE, ptr @_ZTISt9exception }, comdat, align 8
@_ZTIN8nlohmann16json_abi_v3_11_36detail11other_errorE = linkonce_odr dso_local constant { ptr, ptr, ptr } { ptr getelementptr inbounds (ptr, ptr @_ZTVN10__cxxabiv120__si_class_type_infoE, i64 2), ptr @_ZTSN8nlohmann16json_abi_v3_11_36detail11other_errorE, ptr @_ZTIN8nlohmann16json_abi_v3_11_36detail9exceptionE }, comdat, align 8
@_ZTVSt9bad_alloc = external unnamed_addr constant { [5 x ptr] }, align 8
@_ZTVSt9exception = external unnamed_addr constant { [5 x ptr] }, align 8
@.str.11 = private unnamed_addr constant [12 x i8] c"other_error\00", align 1
@.str.12 = private unnamed_addr constant [17 x i8] c"[json.exception.\00", align 1
@.str.13 = private unnamed_addr constant [3 x i8] c"] \00", align 1
@_ZZNSt8__detail18__to_chars_10_implIjEEvPcjT_E8__digits = linkonce_odr dso_local constant [201 x i8] c"00010203040506070809101112131415161718192021222324252627282930313233343536373839404142434445464748495051525354555657585960616263646566676869707172737475767778798081828384858687888990919293949596979899\00", comdat, align 16
@_ZTVN8nlohmann16json_abi_v3_11_36detail11other_errorE = linkonce_odr dso_local unnamed_addr constant { [5 x ptr] } { [5 x ptr] [ptr null, ptr @_ZTIN8nlohmann16json_abi_v3_11_36detail11other_errorE, ptr @_ZN8nlohmann16json_abi_v3_11_36detail11other_errorD2Ev, ptr @_ZN8nlohmann16json_abi_v3_11_36detail11other_errorD0Ev, ptr @_ZNK8nlohmann16json_abi_v3_11_36detail9exception4whatEv] }, comdat, align 8
@_ZTVN8nlohmann16json_abi_v3_11_36detail9exceptionE = linkonce_odr dso_local unnamed_addr constant { [5 x ptr] } { [5 x ptr] [ptr null, ptr @_ZTIN8nlohmann16json_abi_v3_11_36detail9exceptionE, ptr @_ZN8nlohmann16json_abi_v3_11_36detail9exceptionD2Ev, ptr @_ZN8nlohmann16json_abi_v3_11_36detail9exceptionD0Ev, ptr @_ZNK8nlohmann16json_abi_v3_11_36detail9exception4whatEv] }, comdat, align 8
@.str.14 = private unnamed_addr constant [16 x i8] c"vector::reserve\00", align 1
@.str.15 = private unnamed_addr constant [26 x i8] c"vector::_M_realloc_insert\00", align 1
@.str.16 = private unnamed_addr constant [17 x i8] c"class json_value\00", align 1
@.str.17 = private unnamed_addr constant [20 x i8] c"json_value(value_t)\00", align 1
@.str.18 = private unnamed_addr constant [7 x i8] c"object\00", align 1
@_ZN12_GLOBAL__N_120next_construct_failsE = internal global i8 0, align 1
@.str.19 = private unnamed_addr constant [53 x i8] c"my_allocator_clean_up(my_json::json_value(t).object)\00", align 1
@.str.20 = private unnamed_addr constant [23 x i8] c"my_json::json_value(t)\00", align 1
@.str.21 = private unnamed_addr constant [6 x i8] c"array\00", align 1
@.str.22 = private unnamed_addr constant [52 x i8] c"my_allocator_clean_up(my_json::json_value(t).array)\00", align 1
@.str.23 = private unnamed_addr constant [7 x i8] c"string\00", align 1
@.str.24 = private unnamed_addr constant [53 x i8] c"my_allocator_clean_up(my_json::json_value(t).string)\00", align 1
@.str.25 = private unnamed_addr constant [28 x i8] c"json_value(const string_t&)\00", align 1
@.str.26 = private unnamed_addr constant [4 x i8] c"foo\00", align 1
@.str.27 = private unnamed_addr constant [53 x i8] c"my_allocator_clean_up(my_json::json_value(v).string)\00", align 1
@.str.28 = private unnamed_addr constant [23 x i8] c"my_json::json_value(v)\00", align 1
@.str.29 = private unnamed_addr constant [17 x i8] c"class basic_json\00", align 1
@.str.30 = private unnamed_addr constant [40 x i8] c"basic_json(const CompatibleObjectType&)\00", align 1
@.str.31 = private unnamed_addr constant [4 x i8] c"bar\00", align 1
@.str.32 = private unnamed_addr constant [11 x i8] c"my_json(v)\00", align 1
@.str.33 = private unnamed_addr constant [39 x i8] c"basic_json(const CompatibleArrayType&)\00", align 1
@.str.34 = private unnamed_addr constant [4 x i8] c"baz\00", align 1
@.str.35 = private unnamed_addr constant [49 x i8] c"basic_json(const typename string_t::value_type*)\00", align 1
@.str.36 = private unnamed_addr constant [15 x i8] c"my_json(\22foo\22)\00", align 1
@.str.37 = private unnamed_addr constant [11 x i8] c"my_json(s)\00", align 1
@_ZN12_GLOBAL__N_118next_destroy_failsE = internal global i8 0, align 1
@_ZN12_GLOBAL__N_121next_deallocate_failsE = internal global i8 0, align 1
@_ZN8nlohmann16json_abi_v3_11_36detail12static_constINS1_10to_json_fnEE5valueE = linkonce_odr dso_local constant %"struct.nlohmann::json_abi_v3_11_3::detail::to_json_fn" undef, comdat, align 1
@.str.38 = private unnamed_addr constant [49 x i8] c"cannot create std::vector larger than max_size()\00", align 1
@.str.39 = private unnamed_addr constant [40 x i8] c"my_allocator::construct doesn't forward\00", align 1
@.str.40 = private unnamed_addr constant [5 x i8] c"test\00", align 1
@.str.41 = private unnamed_addr constant [16 x i8] c"should not leak\00", align 1
@.str.42 = private unnamed_addr constant [51 x i8] c"cannot use operator[] with a string argument with \00", align 1
@_ZTSN8nlohmann16json_abi_v3_11_36detail10type_errorE = linkonce_odr dso_local constant [49 x i8] c"N8nlohmann16json_abi_v3_11_36detail10type_errorE\00", comdat, align 1
@_ZTIN8nlohmann16json_abi_v3_11_36detail10type_errorE = linkonce_odr dso_local constant { ptr, ptr, ptr } { ptr getelementptr inbounds (ptr, ptr @_ZTVN10__cxxabiv120__si_class_type_infoE, i64 2), ptr @_ZTSN8nlohmann16json_abi_v3_11_36detail10type_errorE, ptr @_ZTIN8nlohmann16json_abi_v3_11_36detail9exceptionE }, comdat, align 8
@.str.43 = private unnamed_addr constant [11 x i8] c"type_error\00", align 1
@_ZTVN8nlohmann16json_abi_v3_11_36detail10type_errorE = linkonce_odr dso_local unnamed_addr constant { [5 x ptr] } { [5 x ptr] [ptr null, ptr @_ZTIN8nlohmann16json_abi_v3_11_36detail10type_errorE, ptr @_ZN8nlohmann16json_abi_v3_11_36detail10type_errorD2Ev, ptr @_ZN8nlohmann16json_abi_v3_11_36detail10type_errorD0Ev, ptr @_ZNK8nlohmann16json_abi_v3_11_36detail9exception4whatEv] }, comdat, align 8
@.str.44 = private unnamed_addr constant [5 x i8] c"null\00", align 1
@.str.45 = private unnamed_addr constant [8 x i8] c"boolean\00", align 1
@.str.46 = private unnamed_addr constant [7 x i8] c"binary\00", align 1
@.str.47 = private unnamed_addr constant [10 x i8] c"discarded\00", align 1
@.str.48 = private unnamed_addr constant [7 x i8] c"number\00", align 1
@.str.49 = private unnamed_addr constant [29 x i8] c"cannot use push_back() with \00", align 1
@llvm.global_ctors = appending global [1 x { i32, ptr, ptr }] [{ i32, ptr, ptr } { i32 65535, ptr @_GLOBAL__sub_I_unit_allocator.cpp, ptr null }]

; Function Attrs: uwtable
define internal void @__cxx_global_var_init() #0 section ".text.startup" {
entry:
  %ref.tmp = alloca %"struct.doctest::detail::TestSuite", align 8
  call void @llvm.memset.p0.i64(ptr align 8 %ref.tmp, i8 0, i64 40, i1 false)
  call void @_ZN7doctest6detail9TestSuiteC2Ev(ptr noundef nonnull align 8 dereferenceable(40) %ref.tmp) #14
  %call = call noundef nonnull align 8 dereferenceable(40) ptr @_ZN7doctest6detail9TestSuitemlEPKc(ptr noundef nonnull align 8 dereferenceable(40) %ref.tmp, ptr noundef @.str)
  %call1 = call noundef i32 @_ZN7doctest6detail12setTestSuiteERKNS0_9TestSuiteE(ptr noundef nonnull align 8 dereferenceable(40) %call)
  %call2 = call noundef i32 @_ZN7doctest6detailL7consumeEPKii(ptr noundef @_ZL18DOCTEST_ANON_VAR_0, i32 noundef %call1) #14
  store i32 %call2, ptr @_ZL18DOCTEST_ANON_VAR_0, align 4
  ret void
}

; Function Attrs: mustprogress nounwind uwtable
define internal noundef i32 @_ZN7doctest6detailL7consumeEPKii(ptr noundef %0, i32 noundef %1) #1 {
entry:
  %.addr = alloca ptr, align 8
  %.addr1 = alloca i32, align 4
  store ptr %0, ptr %.addr, align 8
  store i32 %1, ptr %.addr1, align 4
  ret i32 0
}

declare noundef i32 @_ZN7doctest6detail12setTestSuiteERKNS0_9TestSuiteE(ptr noundef nonnull align 8 dereferenceable(40)) #2

; Function Attrs: nocallback nofree nounwind willreturn memory(argmem: write)
declare void @llvm.memset.p0.i64(ptr nocapture writeonly, i8, i64, i1 immarg) #3

; Function Attrs: mustprogress nounwind uwtable
define linkonce_odr dso_local void @_ZN7doctest6detail9TestSuiteC2Ev(ptr noundef nonnull align 8 dereferenceable(40) %this) unnamed_addr #1 comdat align 2 {
entry:
  %this.addr = alloca ptr, align 8
  store ptr %this, ptr %this.addr, align 8
  %this1 = load ptr, ptr %this.addr, align 8
  %m_test_suite = getelementptr inbounds %"struct.doctest::detail::TestSuite", ptr %this1, i32 0, i32 0
  store ptr null, ptr %m_test_suite, align 8
  %m_description = getelementptr inbounds %"struct.doctest::detail::TestSuite", ptr %this1, i32 0, i32 1
  store ptr null, ptr %m_description, align 8
  %m_skip = getelementptr inbounds %"struct.doctest::detail::TestSuite", ptr %this1, i32 0, i32 2
  store i8 0, ptr %m_skip, align 8
  %m_no_breaks = getelementptr inbounds %"struct.doctest::detail::TestSuite", ptr %this1, i32 0, i32 3
  store i8 0, ptr %m_no_breaks, align 1
  %m_no_output = getelementptr inbounds %"struct.doctest::detail::TestSuite", ptr %this1, i32 0, i32 4
  store i8 0, ptr %m_no_output, align 2
  %m_may_fail = getelementptr inbounds %"struct.doctest::detail::TestSuite", ptr %this1, i32 0, i32 5
  store i8 0, ptr %m_may_fail, align 1
  %m_should_fail = getelementptr inbounds %"struct.doctest::detail::TestSuite", ptr %this1, i32 0, i32 6
  store i8 0, ptr %m_should_fail, align 4
  %m_expected_failures = getelementptr inbounds %"struct.doctest::detail::TestSuite", ptr %this1, i32 0, i32 7
  store i32 0, ptr %m_expected_failures, align 8
  %m_timeout = getelementptr inbounds %"struct.doctest::detail::TestSuite", ptr %this1, i32 0, i32 8
  store double 0.000000e+00, ptr %m_timeout, align 8
  ret void
}

declare noundef nonnull align 8 dereferenceable(40) ptr @_ZN7doctest6detail9TestSuitemlEPKc(ptr noundef nonnull align 8 dereferenceable(40), ptr noundef) #2

; Function Attrs: uwtable
define internal void @__cxx_global_var_init.1() #0 section ".text.startup" personality ptr @__gxx_personality_v0 {
entry:
  %ref.tmp = alloca %"struct.doctest::detail::TestCase", align 8
  %ref.tmp1 = alloca %"class.doctest::String", align 8
  %exn.slot = alloca ptr, align 8
  %ehselector.slot = alloca i32, align 4
  %call = call noundef nonnull align 8 dereferenceable(40) ptr @_ZN28doctest_detail_test_suite_ns19getCurrentTestSuiteEv()
  call void @_ZN7doctest6StringC1Ev(ptr noundef nonnull align 8 dereferenceable(24) %ref.tmp1) #14
  invoke void @_ZN7doctest6detail8TestCaseC1EPFvvEPKcjRKNS0_9TestSuiteERKNS_6StringEi(ptr noundef nonnull align 8 dereferenceable(144) %ref.tmp, ptr noundef @_ZL19DOCTEST_ANON_FUNC_2v, ptr noundef @.str.2, i32 noundef 40, ptr noundef nonnull align 8 dereferenceable(40) %call, ptr noundef nonnull align 8 dereferenceable(24) %ref.tmp1, i32 noundef -1)
          to label %invoke.cont unwind label %lpad

invoke.cont:                                      ; preds = %entry
  %call4 = invoke noundef nonnull align 8 dereferenceable(144) ptr @_ZN7doctest6detail8TestCasemlEPKc(ptr noundef nonnull align 8 dereferenceable(144) %ref.tmp, ptr noundef @.str.3)
          to label %invoke.cont3 unwind label %lpad2

invoke.cont3:                                     ; preds = %invoke.cont
  %call6 = invoke noundef i32 @_ZN7doctest6detail7regTestERKNS0_8TestCaseE(ptr noundef nonnull align 8 dereferenceable(144) %call4)
          to label %invoke.cont5 unwind label %lpad2

invoke.cont5:                                     ; preds = %invoke.cont3
  %call7 = call noundef i32 @_ZN7doctest6detailL7consumeEPKii(ptr noundef @_ZL18DOCTEST_ANON_VAR_3, i32 noundef %call6) #14
  call void @_ZN7doctest6detail8TestCaseD2Ev(ptr noundef nonnull align 8 dereferenceable(144) %ref.tmp) #14
  call void @_ZN7doctest6StringD1Ev(ptr noundef nonnull align 8 dereferenceable(24) %ref.tmp1) #14
  store i32 %call7, ptr @_ZL18DOCTEST_ANON_VAR_3, align 4
  ret void

lpad:                                             ; preds = %entry
  %0 = landingpad { ptr, i32 }
          cleanup
  %1 = extractvalue { ptr, i32 } %0, 0
  store ptr %1, ptr %exn.slot, align 8
  %2 = extractvalue { ptr, i32 } %0, 1
  store i32 %2, ptr %ehselector.slot, align 4
  br label %ehcleanup

lpad2:                                            ; preds = %invoke.cont3, %invoke.cont
  %3 = landingpad { ptr, i32 }
          cleanup
  %4 = extractvalue { ptr, i32 } %3, 0
  store ptr %4, ptr %exn.slot, align 8
  %5 = extractvalue { ptr, i32 } %3, 1
  store i32 %5, ptr %ehselector.slot, align 4
  call void @_ZN7doctest6detail8TestCaseD2Ev(ptr noundef nonnull align 8 dereferenceable(144) %ref.tmp) #14
  br label %ehcleanup

ehcleanup:                                        ; preds = %lpad2, %lpad
  call void @_ZN7doctest6StringD1Ev(ptr noundef nonnull align 8 dereferenceable(24) %ref.tmp1) #14
  br label %eh.resume

eh.resume:                                        ; preds = %ehcleanup
  %exn = load ptr, ptr %exn.slot, align 8
  %sel = load i32, ptr %ehselector.slot, align 4
  %lpad.val = insertvalue { ptr, i32 } poison, ptr %exn, 0
  %lpad.val8 = insertvalue { ptr, i32 } %lpad.val, i32 %sel, 1
  resume { ptr, i32 } %lpad.val8
}

declare noundef i32 @_ZN7doctest6detail7regTestERKNS0_8TestCaseE(ptr noundef nonnull align 8 dereferenceable(144)) #2

; Function Attrs: mustprogress uwtable
define internal void @_ZL19DOCTEST_ANON_FUNC_2v() #4 personality ptr @__gxx_personality_v0 {
entry:
  %DOCTEST_ANON_SUBCASE_4 = alloca ptr, align 8
  %ref.tmp = alloca %"struct.doctest::detail::Subcase", align 8
  %ref.tmp1 = alloca %"class.doctest::String", align 8
  %exn.slot = alloca ptr, align 8
  %ehselector.slot = alloca i32, align 4
  %DOCTEST_RB = alloca %"struct.doctest::detail::ResultBuilder", align 8
  %ref.tmp7 = alloca %"class.doctest::String", align 8
  %agg.tmp.ensured = alloca %"class.nlohmann::json_abi_v3_11_3::basic_json", align 8
  %0 = alloca ptr, align 8
  call void @_ZN7doctest6StringC1EPKc(ptr noundef nonnull align 8 dereferenceable(24) %ref.tmp1, ptr noundef @.str.3)
  invoke void @_ZN7doctest6detail7SubcaseC1ERKNS_6StringEPKci(ptr noundef nonnull align 8 dereferenceable(41) %ref.tmp, ptr noundef nonnull align 8 dereferenceable(24) %ref.tmp1, ptr noundef @.str.2, i32 noundef 42)
          to label %invoke.cont unwind label %lpad

invoke.cont:                                      ; preds = %entry
  call void @_ZN7doctest6StringD1Ev(ptr noundef nonnull align 8 dereferenceable(24) %ref.tmp1) #14
  store ptr %ref.tmp, ptr %DOCTEST_ANON_SUBCASE_4, align 8
  %1 = load ptr, ptr %DOCTEST_ANON_SUBCASE_4, align 8
  %call = invoke noundef zeroext i1 @_ZNK7doctest6detail7SubcasecvbEv(ptr noundef nonnull align 8 dereferenceable(41) %1)
          to label %invoke.cont3 unwind label %lpad2

invoke.cont3:                                     ; preds = %invoke.cont
  br i1 %call, label %if.then, label %if.end29

if.then:                                          ; preds = %invoke.cont3
  br label %do.body

do.body:                                          ; preds = %if.then
  %call5 = invoke noundef ptr @_ZN7doctest17getContextOptionsEv()
          to label %invoke.cont4 unwind label %lpad2

invoke.cont4:                                     ; preds = %do.body
  %no_throw = getelementptr inbounds %"struct.doctest::ContextOptions", ptr %call5, i32 0, i32 16
  %2 = load i8, ptr %no_throw, align 2
  %tobool = trunc i8 %2 to i1
  br i1 %tobool, label %if.else, label %if.then6

if.then6:                                         ; preds = %invoke.cont4
  invoke void @_ZN7doctest6StringC1EPKc(ptr noundef nonnull align 8 dereferenceable(24) %ref.tmp7, ptr noundef @.str)
          to label %invoke.cont8 unwind label %lpad2

invoke.cont8:                                     ; preds = %if.then6
  invoke void @_ZN7doctest6detail13ResultBuilderC1ENS_10assertType4EnumEPKciS5_S5_RKNS_6StringE(ptr noundef nonnull align 8 dereferenceable(144) %DOCTEST_RB, i32 noundef 34, ptr noundef @.str.2, i32 noundef 55, ptr noundef @.str.8, ptr noundef @.str.9, ptr noundef nonnull align 8 dereferenceable(24) %ref.tmp7)
          to label %invoke.cont10 unwind label %lpad9

invoke.cont10:                                    ; preds = %invoke.cont8
  call void @_ZN7doctest6StringD1Ev(ptr noundef nonnull align 8 dereferenceable(24) %ref.tmp7) #14
  invoke void @_ZN8nlohmann16json_abi_v3_11_310basic_jsonISt3mapSt6vectorNSt7__cxx1112basic_stringIcSt11char_traitsIcESaIcEEEblmdN12_GLOBAL__N_113bad_allocatorENS0_14adl_serializerES3_IhSaIhEEvEC2ENS0_6detail7value_tE(ptr noundef nonnull align 8 dereferenceable(16) %agg.tmp.ensured, i8 noundef zeroext 1)
          to label %invoke.cont12 unwind label %lpad11

invoke.cont12:                                    ; preds = %invoke.cont10
  call void @_ZN8nlohmann16json_abi_v3_11_310basic_jsonISt3mapSt6vectorNSt7__cxx1112basic_stringIcSt11char_traitsIcESaIcEEEblmdN12_GLOBAL__N_113bad_allocatorENS0_14adl_serializerES3_IhSaIhEEvED2Ev(ptr noundef nonnull align 8 dereferenceable(16) %agg.tmp.ensured) #14
  br label %try.cont

lpad:                                             ; preds = %entry
  %3 = landingpad { ptr, i32 }
          cleanup
  %4 = extractvalue { ptr, i32 } %3, 0
  store ptr %4, ptr %exn.slot, align 8
  %5 = extractvalue { ptr, i32 } %3, 1
  store i32 %5, ptr %ehselector.slot, align 4
  call void @_ZN7doctest6StringD1Ev(ptr noundef nonnull align 8 dereferenceable(24) %ref.tmp1) #14
  br label %eh.resume

lpad2:                                            ; preds = %if.then6, %do.body, %invoke.cont
  %6 = landingpad { ptr, i32 }
          cleanup
  %7 = extractvalue { ptr, i32 } %6, 0
  store ptr %7, ptr %exn.slot, align 8
  %8 = extractvalue { ptr, i32 } %6, 1
  store i32 %8, ptr %ehselector.slot, align 4
  br label %ehcleanup30

lpad9:                                            ; preds = %invoke.cont8
  %9 = landingpad { ptr, i32 }
          cleanup
  %10 = extractvalue { ptr, i32 } %9, 0
  store ptr %10, ptr %exn.slot, align 8
  %11 = extractvalue { ptr, i32 } %9, 1
  store i32 %11, ptr %ehselector.slot, align 4
  call void @_ZN7doctest6StringD1Ev(ptr noundef nonnull align 8 dereferenceable(24) %ref.tmp7) #14
  br label %ehcleanup30

lpad11:                                           ; preds = %invoke.cont10
  %12 = landingpad { ptr, i32 }
          catch ptr @_ZTISt9bad_alloc
          catch ptr null
  %13 = extractvalue { ptr, i32 } %12, 0
  store ptr %13, ptr %exn.slot, align 8
  %14 = extractvalue { ptr, i32 } %12, 1
  store i32 %14, ptr %ehselector.slot, align 4
  br label %catch.dispatch

catch.dispatch:                                   ; preds = %lpad11
  %sel = load i32, ptr %ehselector.slot, align 4
  %15 = call i32 @llvm.eh.typeid.for(ptr @_ZTISt9bad_alloc) #14
  %matches = icmp eq i32 %sel, %15
  br i1 %matches, label %catch18, label %catch

catch18:                                          ; preds = %catch.dispatch
  %exn19 = load ptr, ptr %exn.slot, align 8
  %16 = call ptr @__cxa_begin_catch(ptr %exn19) #14
  store ptr %16, ptr %0, align 8
  invoke void @_ZN7doctest6detail13ResultBuilder18translateExceptionEv(ptr noundef nonnull align 8 dereferenceable(144) %DOCTEST_RB)
          to label %invoke.cont21 unwind label %lpad20

invoke.cont21:                                    ; preds = %catch18
  %m_threw_as = getelementptr inbounds %"struct.doctest::AssertData", ptr %DOCTEST_RB, i32 0, i32 9
  store i8 1, ptr %m_threw_as, align 8
  invoke void @__cxa_end_catch()
          to label %invoke.cont22 unwind label %lpad15

invoke.cont22:                                    ; preds = %invoke.cont21
  br label %try.cont

try.cont:                                         ; preds = %invoke.cont16, %invoke.cont22, %invoke.cont12
  %call25 = invoke noundef zeroext i1 @_ZN7doctest6detail13ResultBuilder3logEv(ptr noundef nonnull align 8 dereferenceable(144) %DOCTEST_RB)
          to label %invoke.cont24 unwind label %lpad15

invoke.cont24:                                    ; preds = %try.cont
  br i1 %call25, label %if.then26, label %if.end

if.then26:                                        ; preds = %invoke.cont24
  call void asm sideeffect "int $$3\0A", "~{dirflag},~{fpsr},~{flags}"() #14, !srcloc !5
  br label %if.end

catch:                                            ; preds = %catch.dispatch
  %exn = load ptr, ptr %exn.slot, align 8
  %17 = call ptr @__cxa_begin_catch(ptr %exn) #14
  invoke void @_ZN7doctest6detail13ResultBuilder18translateExceptionEv(ptr noundef nonnull align 8 dereferenceable(144) %DOCTEST_RB)
          to label %invoke.cont14 unwind label %lpad13

invoke.cont14:                                    ; preds = %catch
  invoke void @__cxa_end_catch()
          to label %invoke.cont16 unwind label %lpad15

invoke.cont16:                                    ; preds = %invoke.cont14
  br label %try.cont

lpad13:                                           ; preds = %catch
  %18 = landingpad { ptr, i32 }
          cleanup
  %19 = extractvalue { ptr, i32 } %18, 0
  store ptr %19, ptr %exn.slot, align 8
  %20 = extractvalue { ptr, i32 } %18, 1
  store i32 %20, ptr %ehselector.slot, align 4
  invoke void @__cxa_end_catch()
          to label %invoke.cont17 unwind label %terminate.lpad

lpad15:                                           ; preds = %if.end, %invoke.cont14, %try.cont, %invoke.cont21
  %21 = landingpad { ptr, i32 }
          cleanup
  %22 = extractvalue { ptr, i32 } %21, 0
  store ptr %22, ptr %exn.slot, align 8
  %23 = extractvalue { ptr, i32 } %21, 1
  store i32 %23, ptr %ehselector.slot, align 4
  br label %ehcleanup

invoke.cont17:                                    ; preds = %lpad13
  br label %ehcleanup

lpad20:                                           ; preds = %catch18
  %24 = landingpad { ptr, i32 }
          cleanup
  %25 = extractvalue { ptr, i32 } %24, 0
  store ptr %25, ptr %exn.slot, align 8
  %26 = extractvalue { ptr, i32 } %24, 1
  store i32 %26, ptr %ehselector.slot, align 4
  invoke void @__cxa_end_catch()
          to label %invoke.cont23 unwind label %terminate.lpad

invoke.cont23:                                    ; preds = %lpad20
  br label %ehcleanup

if.end:                                           ; preds = %if.then26, %invoke.cont24
  invoke void @_ZNK7doctest6detail13ResultBuilder5reactEv(ptr noundef nonnull align 8 dereferenceable(144) %DOCTEST_RB)
          to label %invoke.cont27 unwind label %lpad15

invoke.cont27:                                    ; preds = %if.end
  call void @_ZN7doctest6detail13ResultBuilderD2Ev(ptr noundef nonnull align 8 dereferenceable(144) %DOCTEST_RB) #14
  br label %if.end28

ehcleanup:                                        ; preds = %invoke.cont23, %invoke.cont17, %lpad15
  call void @_ZN7doctest6detail13ResultBuilderD2Ev(ptr noundef nonnull align 8 dereferenceable(144) %DOCTEST_RB) #14
  br label %ehcleanup30

if.else:                                          ; preds = %invoke.cont4
  br label %if.end28

if.end28:                                         ; preds = %if.else, %invoke.cont27
  br label %do.cond

do.cond:                                          ; preds = %if.end28
  br label %do.end

do.end:                                           ; preds = %do.cond
  br label %if.end29

if.end29:                                         ; preds = %do.end, %invoke.cont3
  call void @_ZN7doctest6detail7SubcaseD1Ev(ptr noundef nonnull align 8 dereferenceable(41) %ref.tmp) #14
  ret void

ehcleanup30:                                      ; preds = %ehcleanup, %lpad9, %lpad2
  call void @_ZN7doctest6detail7SubcaseD1Ev(ptr noundef nonnull align 8 dereferenceable(41) %ref.tmp) #14
  br label %eh.resume

eh.resume:                                        ; preds = %ehcleanup30, %lpad
  %exn31 = load ptr, ptr %exn.slot, align 8
  %sel32 = load i32, ptr %ehselector.slot, align 4
  %lpad.val = insertvalue { ptr, i32 } poison, ptr %exn31, 0
  %lpad.val33 = insertvalue { ptr, i32 } %lpad.val, i32 %sel32, 1
  resume { ptr, i32 } %lpad.val33

terminate.lpad:                                   ; preds = %lpad20, %lpad13
  %27 = landingpad { ptr, i32 }
          catch ptr null
  %28 = extractvalue { ptr, i32 } %27, 0
  call void @__clang_call_terminate(ptr %28) #15
  unreachable
}

declare noundef nonnull align 8 dereferenceable(40) ptr @_ZN28doctest_detail_test_suite_ns19getCurrentTestSuiteEv() #2

; Function Attrs: nounwind
declare void @_ZN7doctest6StringC1Ev(ptr noundef nonnull align 8 dereferenceable(24)) unnamed_addr #5

declare void @_ZN7doctest6detail8TestCaseC1EPFvvEPKcjRKNS0_9TestSuiteERKNS_6StringEi(ptr noundef nonnull align 8 dereferenceable(144), ptr noundef, ptr noundef, i32 noundef, ptr noundef nonnull align 8 dereferenceable(40), ptr noundef nonnull align 8 dereferenceable(24), i32 noundef) unnamed_addr #2

declare i32 @__gxx_personality_v0(...)

declare noundef nonnull align 8 dereferenceable(144) ptr @_ZN7doctest6detail8TestCasemlEPKc(ptr noundef nonnull align 8 dereferenceable(144), ptr noundef) #2

; Function Attrs: mustprogress nounwind uwtable
define linkonce_odr dso_local void @_ZN7doctest6detail8TestCaseD2Ev(ptr noundef nonnull align 8 dereferenceable(144) %this) unnamed_addr #1 comdat align 2 {
entry:
  %this.addr = alloca ptr, align 8
  store ptr %this, ptr %this.addr, align 8
  %this1 = load ptr, ptr %this.addr, align 8
  %m_full_name = getelementptr inbounds %"struct.doctest::detail::TestCase", ptr %this1, i32 0, i32 4
  call void @_ZN7doctest6StringD1Ev(ptr noundef nonnull align 8 dereferenceable(24) %m_full_name) #14
  %m_type = getelementptr inbounds %"struct.doctest::detail::TestCase", ptr %this1, i32 0, i32 2
  call void @_ZN7doctest6StringD1Ev(ptr noundef nonnull align 8 dereferenceable(24) %m_type) #14
  call void @_ZN7doctest12TestCaseDataD2Ev(ptr noundef nonnull align 8 dereferenceable(80) %this1) #14
  ret void
}

; Function Attrs: nounwind
declare void @_ZN7doctest6StringD1Ev(ptr noundef nonnull align 8 dereferenceable(24)) unnamed_addr #5

; Function Attrs: uwtable
define internal void @__cxx_global_var_init.4() #0 section ".text.startup" personality ptr @__gxx_personality_v0 {
entry:
  %ref.tmp = alloca %"struct.doctest::detail::TestCase", align 8
  %ref.tmp1 = alloca %"class.doctest::String", align 8
  %exn.slot = alloca ptr, align 8
  %ehselector.slot = alloca i32, align 4
  %call = call noundef nonnull align 8 dereferenceable(40) ptr @_ZN28doctest_detail_test_suite_ns19getCurrentTestSuiteEv()
  call void @_ZN7doctest6StringC1Ev(ptr noundef nonnull align 8 dereferenceable(24) %ref.tmp1) #14
  invoke void @_ZN7doctest6detail8TestCaseC1EPFvvEPKcjRKNS0_9TestSuiteERKNS_6StringEi(ptr noundef nonnull align 8 dereferenceable(144) %ref.tmp, ptr noundef @_ZL19DOCTEST_ANON_FUNC_5v, ptr noundef @.str.2, i32 noundef 123, ptr noundef nonnull align 8 dereferenceable(40) %call, ptr noundef nonnull align 8 dereferenceable(24) %ref.tmp1, i32 noundef -1)
          to label %invoke.cont unwind label %lpad

invoke.cont:                                      ; preds = %entry
  %call4 = invoke noundef nonnull align 8 dereferenceable(144) ptr @_ZN7doctest6detail8TestCasemlEPKc(ptr noundef nonnull align 8 dereferenceable(144) %ref.tmp, ptr noundef @.str.5)
          to label %invoke.cont3 unwind label %lpad2

invoke.cont3:                                     ; preds = %invoke.cont
  %call6 = invoke noundef i32 @_ZN7doctest6detail7regTestERKNS0_8TestCaseE(ptr noundef nonnull align 8 dereferenceable(144) %call4)
          to label %invoke.cont5 unwind label %lpad2

invoke.cont5:                                     ; preds = %invoke.cont3
  %call7 = call noundef i32 @_ZN7doctest6detailL7consumeEPKii(ptr noundef @_ZL18DOCTEST_ANON_VAR_6, i32 noundef %call6) #14
  call void @_ZN7doctest6detail8TestCaseD2Ev(ptr noundef nonnull align 8 dereferenceable(144) %ref.tmp) #14
  call void @_ZN7doctest6StringD1Ev(ptr noundef nonnull align 8 dereferenceable(24) %ref.tmp1) #14
  store i32 %call7, ptr @_ZL18DOCTEST_ANON_VAR_6, align 4
  ret void

lpad:                                             ; preds = %entry
  %0 = landingpad { ptr, i32 }
          cleanup
  %1 = extractvalue { ptr, i32 } %0, 0
  store ptr %1, ptr %exn.slot, align 8
  %2 = extractvalue { ptr, i32 } %0, 1
  store i32 %2, ptr %ehselector.slot, align 4
  br label %ehcleanup

lpad2:                                            ; preds = %invoke.cont3, %invoke.cont
  %3 = landingpad { ptr, i32 }
          cleanup
  %4 = extractvalue { ptr, i32 } %3, 0
  store ptr %4, ptr %exn.slot, align 8
  %5 = extractvalue { ptr, i32 } %3, 1
  store i32 %5, ptr %ehselector.slot, align 4
  call void @_ZN7doctest6detail8TestCaseD2Ev(ptr noundef nonnull align 8 dereferenceable(144) %ref.tmp) #14
  br label %ehcleanup

ehcleanup:                                        ; preds = %lpad2, %lpad
  call void @_ZN7doctest6StringD1Ev(ptr noundef nonnull align 8 dereferenceable(24) %ref.tmp1) #14
  br label %eh.resume

eh.resume:                                        ; preds = %ehcleanup
  %exn = load ptr, ptr %exn.slot, align 8
  %sel = load i32, ptr %ehselector.slot, align 4
  %lpad.val = insertvalue { ptr, i32 } poison, ptr %exn, 0
  %lpad.val8 = insertvalue { ptr, i32 } %lpad.val, i32 %sel, 1
  resume { ptr, i32 } %lpad.val8
}

; Function Attrs: mustprogress uwtable
define internal void @_ZL19DOCTEST_ANON_FUNC_5v() #4 personality ptr @__gxx_personality_v0 {
entry:
  %DOCTEST_ANON_SUBCASE_7 = alloca ptr, align 8
  %ref.tmp = alloca %"struct.doctest::detail::Subcase", align 8
  %ref.tmp1 = alloca %"class.doctest::String", align 8
  %exn.slot = alloca ptr, align 8
  %ehselector.slot = alloca i32, align 4
  %DOCTEST_ANON_SUBCASE_8 = alloca ptr, align 8
  %ref.tmp4 = alloca %"struct.doctest::detail::Subcase", align 8
  %ref.tmp5 = alloca %"class.doctest::String", align 8
  %DOCTEST_ANON_SUBCASE_9 = alloca ptr, align 8
  %ref.tmp13 = alloca %"struct.doctest::detail::Subcase", align 8
  %ref.tmp14 = alloca %"class.doctest::String", align 8
  %t = alloca i8, align 1
  %DOCTEST_RB = alloca %"struct.doctest::detail::ResultBuilder", align 8
  %ref.tmp22 = alloca %"class.doctest::String", align 8
  %ref.tmp26 = alloca %"union.nlohmann::json_abi_v3_11_3::basic_json<std::map, std::vector, std::__cxx11::basic_string<char>, bool, long, unsigned long, double, (anonymous namespace)::my_allocator>::json_value", align 8
  %DOCTEST_RB43 = alloca %"struct.doctest::detail::ResultBuilder", align 8
  %ref.tmp44 = alloca %"class.doctest::String", align 8
  %agg.tmp.ensured = alloca %"union.nlohmann::json_abi_v3_11_3::basic_json<std::map, std::vector, std::__cxx11::basic_string<char>, bool, long, unsigned long, double, (anonymous namespace)::my_allocator>::json_value", align 8
  %0 = alloca ptr, align 8
  %DOCTEST_ANON_SUBCASE_10 = alloca ptr, align 8
  %ref.tmp78 = alloca %"struct.doctest::detail::Subcase", align 8
  %ref.tmp79 = alloca %"class.doctest::String", align 8
  %t88 = alloca i8, align 1
  %DOCTEST_RB90 = alloca %"struct.doctest::detail::ResultBuilder", align 8
  %ref.tmp91 = alloca %"class.doctest::String", align 8
  %ref.tmp96 = alloca %"union.nlohmann::json_abi_v3_11_3::basic_json<std::map, std::vector, std::__cxx11::basic_string<char>, bool, long, unsigned long, double, (anonymous namespace)::my_allocator>::json_value", align 8
  %DOCTEST_RB123 = alloca %"struct.doctest::detail::ResultBuilder", align 8
  %ref.tmp124 = alloca %"class.doctest::String", align 8
  %agg.tmp.ensured129 = alloca %"union.nlohmann::json_abi_v3_11_3::basic_json<std::map, std::vector, std::__cxx11::basic_string<char>, bool, long, unsigned long, double, (anonymous namespace)::my_allocator>::json_value", align 8
  %1 = alloca ptr, align 8
  %DOCTEST_ANON_SUBCASE_11 = alloca ptr, align 8
  %ref.tmp164 = alloca %"struct.doctest::detail::Subcase", align 8
  %ref.tmp165 = alloca %"class.doctest::String", align 8
  %t174 = alloca i8, align 1
  %DOCTEST_RB176 = alloca %"struct.doctest::detail::ResultBuilder", align 8
  %ref.tmp177 = alloca %"class.doctest::String", align 8
  %ref.tmp182 = alloca %"union.nlohmann::json_abi_v3_11_3::basic_json<std::map, std::vector, std::__cxx11::basic_string<char>, bool, long, unsigned long, double, (anonymous namespace)::my_allocator>::json_value", align 8
  %DOCTEST_RB209 = alloca %"struct.doctest::detail::ResultBuilder", align 8
  %ref.tmp210 = alloca %"class.doctest::String", align 8
  %agg.tmp.ensured215 = alloca %"union.nlohmann::json_abi_v3_11_3::basic_json<std::map, std::vector, std::__cxx11::basic_string<char>, bool, long, unsigned long, double, (anonymous namespace)::my_allocator>::json_value", align 8
  %2 = alloca ptr, align 8
  %DOCTEST_ANON_SUBCASE_12 = alloca ptr, align 8
  %ref.tmp252 = alloca %"struct.doctest::detail::Subcase", align 8
  %ref.tmp253 = alloca %"class.doctest::String", align 8
  %v = alloca %"class.std::__cxx11::basic_string", align 8
  %ref.tmp262 = alloca %"class.std::allocator", align 1
  %DOCTEST_RB267 = alloca %"struct.doctest::detail::ResultBuilder", align 8
  %ref.tmp268 = alloca %"class.doctest::String", align 8
  %ref.tmp274 = alloca %"union.nlohmann::json_abi_v3_11_3::basic_json<std::map, std::vector, std::__cxx11::basic_string<char>, bool, long, unsigned long, double, (anonymous namespace)::my_allocator>::json_value", align 8
  %DOCTEST_RB301 = alloca %"struct.doctest::detail::ResultBuilder", align 8
  %ref.tmp302 = alloca %"class.doctest::String", align 8
  %agg.tmp.ensured307 = alloca %"union.nlohmann::json_abi_v3_11_3::basic_json<std::map, std::vector, std::__cxx11::basic_string<char>, bool, long, unsigned long, double, (anonymous namespace)::my_allocator>::json_value", align 8
  %3 = alloca ptr, align 8
  %DOCTEST_ANON_SUBCASE_13 = alloca ptr, align 8
  %ref.tmp345 = alloca %"struct.doctest::detail::Subcase", align 8
  %ref.tmp346 = alloca %"class.doctest::String", align 8
  %DOCTEST_ANON_SUBCASE_14 = alloca ptr, align 8
  %ref.tmp354 = alloca %"struct.doctest::detail::Subcase", align 8
  %ref.tmp355 = alloca %"class.doctest::String", align 8
  %v364 = alloca %"class.std::map.63", align 8
  %agg.tmp = alloca %"class.std::initializer_list", align 8
  %ref.tmp365 = alloca [1 x %"struct.std::pair.68"], align 8
  %arrayinit.endOfInit = alloca ptr, align 8
  %ref.tmp370 = alloca %"struct.std::less", align 1
  %ref.tmp371 = alloca %"class.std::allocator.70", align 1
  %DOCTEST_RB388 = alloca %"struct.doctest::detail::ResultBuilder", align 8
  %ref.tmp389 = alloca %"class.doctest::String", align 8
  %agg.tmp.ensured395 = alloca %"class.nlohmann::json_abi_v3_11_3::basic_json.73", align 8
  %DOCTEST_RB421 = alloca %"struct.doctest::detail::ResultBuilder", align 8
  %ref.tmp422 = alloca %"class.doctest::String", align 8
  %agg.tmp.ensured427 = alloca %"class.nlohmann::json_abi_v3_11_3::basic_json.73", align 8
  %4 = alloca ptr, align 8
  %DOCTEST_ANON_SUBCASE_15 = alloca ptr, align 8
  %ref.tmp463 = alloca %"struct.doctest::detail::Subcase", align 8
  %ref.tmp464 = alloca %"class.doctest::String", align 8
  %v473 = alloca %"class.std::vector.74", align 8
  %agg.tmp474 = alloca %"class.std::initializer_list.76", align 8
  %ref.tmp475 = alloca [3 x %"class.std::__cxx11::basic_string"], align 8
  %arrayinit.endOfInit477 = alloca ptr, align 8
  %ref.tmp478 = alloca %"class.std::allocator", align 1
  %ref.tmp481 = alloca %"class.std::allocator", align 1
  %ref.tmp485 = alloca %"class.std::allocator", align 1
  %cleanup.isactive = alloca i1, align 1
  %ref.tmp491 = alloca %"class.std::allocator.21", align 1
  %DOCTEST_RB519 = alloca %"struct.doctest::detail::ResultBuilder", align 8
  %ref.tmp520 = alloca %"class.doctest::String", align 8
  %agg.tmp.ensured526 = alloca %"class.nlohmann::json_abi_v3_11_3::basic_json.73", align 8
  %DOCTEST_RB552 = alloca %"struct.doctest::detail::ResultBuilder", align 8
  %ref.tmp553 = alloca %"class.doctest::String", align 8
  %agg.tmp.ensured558 = alloca %"class.nlohmann::json_abi_v3_11_3::basic_json.73", align 8
  %5 = alloca ptr, align 8
  %DOCTEST_ANON_SUBCASE_16 = alloca ptr, align 8
  %ref.tmp594 = alloca %"struct.doctest::detail::Subcase", align 8
  %ref.tmp595 = alloca %"class.doctest::String", align 8
  %DOCTEST_RB605 = alloca %"struct.doctest::detail::ResultBuilder", align 8
  %ref.tmp606 = alloca %"class.doctest::String", align 8
  %agg.tmp.ensured611 = alloca %"class.nlohmann::json_abi_v3_11_3::basic_json.73", align 8
  %DOCTEST_RB637 = alloca %"struct.doctest::detail::ResultBuilder", align 8
  %ref.tmp638 = alloca %"class.doctest::String", align 8
  %agg.tmp.ensured643 = alloca %"class.nlohmann::json_abi_v3_11_3::basic_json.73", align 8
  %6 = alloca ptr, align 8
  %DOCTEST_ANON_SUBCASE_17 = alloca ptr, align 8
  %ref.tmp678 = alloca %"struct.doctest::detail::Subcase", align 8
  %ref.tmp679 = alloca %"class.doctest::String", align 8
  %s = alloca %"class.std::__cxx11::basic_string", align 8
  %ref.tmp688 = alloca %"class.std::allocator", align 1
  %DOCTEST_RB693 = alloca %"struct.doctest::detail::ResultBuilder", align 8
  %ref.tmp694 = alloca %"class.doctest::String", align 8
  %agg.tmp.ensured700 = alloca %"class.nlohmann::json_abi_v3_11_3::basic_json.73", align 8
  %DOCTEST_RB726 = alloca %"struct.doctest::detail::ResultBuilder", align 8
  %ref.tmp727 = alloca %"class.doctest::String", align 8
  %agg.tmp.ensured732 = alloca %"class.nlohmann::json_abi_v3_11_3::basic_json.73", align 8
  %7 = alloca ptr, align 8
  call void @_ZN7doctest6StringC1EPKc(ptr noundef nonnull align 8 dereferenceable(24) %ref.tmp1, ptr noundef @.str.16)
  invoke void @_ZN7doctest6detail7SubcaseC1ERKNS_6StringEPKci(ptr noundef nonnull align 8 dereferenceable(41) %ref.tmp, ptr noundef nonnull align 8 dereferenceable(24) %ref.tmp1, ptr noundef @.str.2, i32 noundef 135)
          to label %invoke.cont unwind label %lpad

invoke.cont:                                      ; preds = %entry
  call void @_ZN7doctest6StringD1Ev(ptr noundef nonnull align 8 dereferenceable(24) %ref.tmp1) #14
  store ptr %ref.tmp, ptr %DOCTEST_ANON_SUBCASE_7, align 8
  %8 = load ptr, ptr %DOCTEST_ANON_SUBCASE_7, align 8
  %call = invoke noundef zeroext i1 @_ZNK7doctest6detail7SubcasecvbEv(ptr noundef nonnull align 8 dereferenceable(41) %8)
          to label %invoke.cont3 unwind label %lpad2

invoke.cont3:                                     ; preds = %invoke.cont
  br i1 %call, label %if.then, label %if.end343

if.then:                                          ; preds = %invoke.cont3
  invoke void @_ZN7doctest6StringC1EPKc(ptr noundef nonnull align 8 dereferenceable(24) %ref.tmp5, ptr noundef @.str.17)
          to label %invoke.cont6 unwind label %lpad2

invoke.cont6:                                     ; preds = %if.then
  invoke void @_ZN7doctest6detail7SubcaseC1ERKNS_6StringEPKci(ptr noundef nonnull align 8 dereferenceable(41) %ref.tmp4, ptr noundef nonnull align 8 dereferenceable(24) %ref.tmp5, ptr noundef @.str.2, i32 noundef 137)
          to label %invoke.cont8 unwind label %lpad7

invoke.cont8:                                     ; preds = %invoke.cont6
  call void @_ZN7doctest6StringD1Ev(ptr noundef nonnull align 8 dereferenceable(24) %ref.tmp5) #14
  store ptr %ref.tmp4, ptr %DOCTEST_ANON_SUBCASE_8, align 8
  %9 = load ptr, ptr %DOCTEST_ANON_SUBCASE_8, align 8
  %call11 = invoke noundef zeroext i1 @_ZNK7doctest6detail7SubcasecvbEv(ptr noundef nonnull align 8 dereferenceable(41) %9)
          to label %invoke.cont10 unwind label %lpad9

invoke.cont10:                                    ; preds = %invoke.cont8
  br i1 %call11, label %if.then12, label %if.end250

if.then12:                                        ; preds = %invoke.cont10
  invoke void @_ZN7doctest6StringC1EPKc(ptr noundef nonnull align 8 dereferenceable(24) %ref.tmp14, ptr noundef @.str.18)
          to label %invoke.cont15 unwind label %lpad9

invoke.cont15:                                    ; preds = %if.then12
  invoke void @_ZN7doctest6detail7SubcaseC1ERKNS_6StringEPKci(ptr noundef nonnull align 8 dereferenceable(41) %ref.tmp13, ptr noundef nonnull align 8 dereferenceable(24) %ref.tmp14, ptr noundef @.str.2, i32 noundef 139)
          to label %invoke.cont17 unwind label %lpad16

invoke.cont17:                                    ; preds = %invoke.cont15
  call void @_ZN7doctest6StringD1Ev(ptr noundef nonnull align 8 dereferenceable(24) %ref.tmp14) #14
  store ptr %ref.tmp13, ptr %DOCTEST_ANON_SUBCASE_9, align 8
  %10 = load ptr, ptr %DOCTEST_ANON_SUBCASE_9, align 8
  %call20 = invoke noundef zeroext i1 @_ZNK7doctest6detail7SubcasecvbEv(ptr noundef nonnull align 8 dereferenceable(41) %10)
          to label %invoke.cont19 unwind label %lpad18

invoke.cont19:                                    ; preds = %invoke.cont17
  br i1 %call20, label %if.then21, label %if.end76

if.then21:                                        ; preds = %invoke.cont19
  store i8 0, ptr @_ZN12_GLOBAL__N_120next_construct_failsE, align 1
  store i8 1, ptr %t, align 1
  br label %do.body

do.body:                                          ; preds = %if.then21
  invoke void @_ZN7doctest6StringC1EPKc(ptr noundef nonnull align 8 dereferenceable(24) %ref.tmp22, ptr noundef @.str)
          to label %invoke.cont23 unwind label %lpad18

invoke.cont23:                                    ; preds = %do.body
  invoke void @_ZN7doctest6detail13ResultBuilderC1ENS_10assertType4EnumEPKciS5_S5_RKNS_6StringE(ptr noundef nonnull align 8 dereferenceable(144) %DOCTEST_RB, i32 noundef 130, ptr noundef @.str.2, i32 noundef 143, ptr noundef @.str.19, ptr noundef @.str, ptr noundef nonnull align 8 dereferenceable(24) %ref.tmp22)
          to label %invoke.cont25 unwind label %lpad24

invoke.cont25:                                    ; preds = %invoke.cont23
  call void @_ZN7doctest6StringD1Ev(ptr noundef nonnull align 8 dereferenceable(24) %ref.tmp22) #14
  %11 = load i8, ptr %t, align 1
  invoke void @_ZN8nlohmann16json_abi_v3_11_310basic_jsonISt3mapSt6vectorNSt7__cxx1112basic_stringIcSt11char_traitsIcESaIcEEEblmdN12_GLOBAL__N_112my_allocatorENS0_14adl_serializerES3_IhSaIhEEvE10json_valueC2ENS0_6detail7value_tE(ptr noundef nonnull align 8 dereferenceable(8) %ref.tmp26, i8 noundef zeroext %11)
          to label %invoke.cont28 unwind label %lpad27

invoke.cont28:                                    ; preds = %invoke.cont25
  %12 = load ptr, ptr %ref.tmp26, align 8
  invoke void @_ZN12_GLOBAL__N_121my_allocator_clean_upISt3mapINSt7__cxx1112basic_stringIcSt11char_traitsIcESaIcEEEN8nlohmann16json_abi_v3_11_310basic_jsonIS1_St6vectorS7_blmdNS_12my_allocatorENS9_14adl_serializerESB_IhSaIhEEvEESt4lessIS7_ENSC_ISt4pairIKS7_SG_EEEEEEvPT_(ptr noundef %12)
          to label %invoke.cont29 unwind label %lpad27

invoke.cont29:                                    ; preds = %invoke.cont28
  br label %try.cont

lpad:                                             ; preds = %entry
  %13 = landingpad { ptr, i32 }
          cleanup
  %14 = extractvalue { ptr, i32 } %13, 0
  store ptr %14, ptr %exn.slot, align 8
  %15 = extractvalue { ptr, i32 } %13, 1
  store i32 %15, ptr %ehselector.slot, align 4
  call void @_ZN7doctest6StringD1Ev(ptr noundef nonnull align 8 dereferenceable(24) %ref.tmp1) #14
  br label %eh.resume

lpad2:                                            ; preds = %if.end250, %if.then, %invoke.cont
  %16 = landingpad { ptr, i32 }
          cleanup
  %17 = extractvalue { ptr, i32 } %16, 0
  store ptr %17, ptr %exn.slot, align 8
  %18 = extractvalue { ptr, i32 } %16, 1
  store i32 %18, ptr %ehselector.slot, align 4
  br label %ehcleanup344

lpad7:                                            ; preds = %invoke.cont6
  %19 = landingpad { ptr, i32 }
          cleanup
  %20 = extractvalue { ptr, i32 } %19, 0
  store ptr %20, ptr %exn.slot, align 8
  %21 = extractvalue { ptr, i32 } %19, 1
  store i32 %21, ptr %ehselector.slot, align 4
  call void @_ZN7doctest6StringD1Ev(ptr noundef nonnull align 8 dereferenceable(24) %ref.tmp5) #14
  br label %ehcleanup344

lpad9:                                            ; preds = %if.end162, %if.end76, %if.then12, %invoke.cont8
  %22 = landingpad { ptr, i32 }
          cleanup
  %23 = extractvalue { ptr, i32 } %22, 0
  store ptr %23, ptr %exn.slot, align 8
  %24 = extractvalue { ptr, i32 } %22, 1
  store i32 %24, ptr %ehselector.slot, align 4
  br label %ehcleanup251

lpad16:                                           ; preds = %invoke.cont15
  %25 = landingpad { ptr, i32 }
          cleanup
  %26 = extractvalue { ptr, i32 } %25, 0
  store ptr %26, ptr %exn.slot, align 8
  %27 = extractvalue { ptr, i32 } %25, 1
  store i32 %27, ptr %ehselector.slot, align 4
  call void @_ZN7doctest6StringD1Ev(ptr noundef nonnull align 8 dereferenceable(24) %ref.tmp14) #14
  br label %ehcleanup251

lpad18:                                           ; preds = %if.then42, %do.body39, %do.body, %invoke.cont17
  %28 = landingpad { ptr, i32 }
          cleanup
  %29 = extractvalue { ptr, i32 } %28, 0
  store ptr %29, ptr %exn.slot, align 8
  %30 = extractvalue { ptr, i32 } %28, 1
  store i32 %30, ptr %ehselector.slot, align 4
  br label %ehcleanup77

lpad24:                                           ; preds = %invoke.cont23
  %31 = landingpad { ptr, i32 }
          cleanup
  %32 = extractvalue { ptr, i32 } %31, 0
  store ptr %32, ptr %exn.slot, align 8
  %33 = extractvalue { ptr, i32 } %31, 1
  store i32 %33, ptr %ehselector.slot, align 4
  call void @_ZN7doctest6StringD1Ev(ptr noundef nonnull align 8 dereferenceable(24) %ref.tmp22) #14
  br label %ehcleanup77

lpad27:                                           ; preds = %invoke.cont28, %invoke.cont25
  %34 = landingpad { ptr, i32 }
          catch ptr null
  %35 = extractvalue { ptr, i32 } %34, 0
  store ptr %35, ptr %exn.slot, align 8
  %36 = extractvalue { ptr, i32 } %34, 1
  store i32 %36, ptr %ehselector.slot, align 4
  br label %catch

catch:                                            ; preds = %lpad27
  %exn = load ptr, ptr %exn.slot, align 8
  %37 = call ptr @__cxa_begin_catch(ptr %exn) #14
  invoke void @_ZN7doctest6detail13ResultBuilder18translateExceptionEv(ptr noundef nonnull align 8 dereferenceable(144) %DOCTEST_RB)
          to label %invoke.cont31 unwind label %lpad30

invoke.cont31:                                    ; preds = %catch
  invoke void @__cxa_end_catch()
          to label %invoke.cont33 unwind label %lpad32

invoke.cont33:                                    ; preds = %invoke.cont31
  br label %try.cont

try.cont:                                         ; preds = %invoke.cont33, %invoke.cont29
  %call36 = invoke noundef zeroext i1 @_ZN7doctest6detail13ResultBuilder3logEv(ptr noundef nonnull align 8 dereferenceable(144) %DOCTEST_RB)
          to label %invoke.cont35 unwind label %lpad32

invoke.cont35:                                    ; preds = %try.cont
  br i1 %call36, label %if.then37, label %if.end

if.then37:                                        ; preds = %invoke.cont35
  call void asm sideeffect "int $$3\0A", "~{dirflag},~{fpsr},~{flags}"() #14, !srcloc !6
  br label %if.end

lpad30:                                           ; preds = %catch
  %38 = landingpad { ptr, i32 }
          cleanup
  %39 = extractvalue { ptr, i32 } %38, 0
  store ptr %39, ptr %exn.slot, align 8
  %40 = extractvalue { ptr, i32 } %38, 1
  store i32 %40, ptr %ehselector.slot, align 4
  invoke void @__cxa_end_catch()
          to label %invoke.cont34 unwind label %terminate.lpad

lpad32:                                           ; preds = %if.end, %try.cont, %invoke.cont31
  %41 = landingpad { ptr, i32 }
          cleanup
  %42 = extractvalue { ptr, i32 } %41, 0
  store ptr %42, ptr %exn.slot, align 8
  %43 = extractvalue { ptr, i32 } %41, 1
  store i32 %43, ptr %ehselector.slot, align 4
  br label %ehcleanup

invoke.cont34:                                    ; preds = %lpad30
  br label %ehcleanup

if.end:                                           ; preds = %if.then37, %invoke.cont35
  invoke void @_ZNK7doctest6detail13ResultBuilder5reactEv(ptr noundef nonnull align 8 dereferenceable(144) %DOCTEST_RB)
          to label %invoke.cont38 unwind label %lpad32

invoke.cont38:                                    ; preds = %if.end
  call void @_ZN7doctest6detail13ResultBuilderD2Ev(ptr noundef nonnull align 8 dereferenceable(144) %DOCTEST_RB) #14
  br label %do.cond

do.cond:                                          ; preds = %invoke.cont38
  br label %do.end

do.end:                                           ; preds = %do.cond
  store i8 1, ptr @_ZN12_GLOBAL__N_120next_construct_failsE, align 1
  br label %do.body39

do.body39:                                        ; preds = %do.end
  %call41 = invoke noundef ptr @_ZN7doctest17getContextOptionsEv()
          to label %invoke.cont40 unwind label %lpad18

invoke.cont40:                                    ; preds = %do.body39
  %no_throw = getelementptr inbounds %"struct.doctest::ContextOptions", ptr %call41, i32 0, i32 16
  %44 = load i8, ptr %no_throw, align 2
  %tobool = trunc i8 %44 to i1
  br i1 %tobool, label %if.else, label %if.then42

if.then42:                                        ; preds = %invoke.cont40
  invoke void @_ZN7doctest6StringC1EPKc(ptr noundef nonnull align 8 dereferenceable(24) %ref.tmp44, ptr noundef @.str)
          to label %invoke.cont45 unwind label %lpad18

invoke.cont45:                                    ; preds = %if.then42
  invoke void @_ZN7doctest6detail13ResultBuilderC1ENS_10assertType4EnumEPKciS5_S5_RKNS_6StringE(ptr noundef nonnull align 8 dereferenceable(144) %DOCTEST_RB43, i32 noundef 34, ptr noundef @.str.2, i32 noundef 145, ptr noundef @.str.20, ptr noundef @.str.9, ptr noundef nonnull align 8 dereferenceable(24) %ref.tmp44)
          to label %invoke.cont47 unwind label %lpad46

invoke.cont47:                                    ; preds = %invoke.cont45
  call void @_ZN7doctest6StringD1Ev(ptr noundef nonnull align 8 dereferenceable(24) %ref.tmp44) #14
  %45 = load i8, ptr %t, align 1
  invoke void @_ZN8nlohmann16json_abi_v3_11_310basic_jsonISt3mapSt6vectorNSt7__cxx1112basic_stringIcSt11char_traitsIcESaIcEEEblmdN12_GLOBAL__N_112my_allocatorENS0_14adl_serializerES3_IhSaIhEEvE10json_valueC2ENS0_6detail7value_tE(ptr noundef nonnull align 8 dereferenceable(8) %agg.tmp.ensured, i8 noundef zeroext %45)
          to label %invoke.cont50 unwind label %lpad49

invoke.cont50:                                    ; preds = %invoke.cont47
  br label %try.cont66

ehcleanup:                                        ; preds = %invoke.cont34, %lpad32
  call void @_ZN7doctest6detail13ResultBuilderD2Ev(ptr noundef nonnull align 8 dereferenceable(144) %DOCTEST_RB) #14
  br label %ehcleanup77

lpad46:                                           ; preds = %invoke.cont45
  %46 = landingpad { ptr, i32 }
          cleanup
  %47 = extractvalue { ptr, i32 } %46, 0
  store ptr %47, ptr %exn.slot, align 8
  %48 = extractvalue { ptr, i32 } %46, 1
  store i32 %48, ptr %ehselector.slot, align 4
  call void @_ZN7doctest6StringD1Ev(ptr noundef nonnull align 8 dereferenceable(24) %ref.tmp44) #14
  br label %ehcleanup77

lpad49:                                           ; preds = %invoke.cont47
  %49 = landingpad { ptr, i32 }
          catch ptr @_ZTISt9bad_alloc
          catch ptr null
  %50 = extractvalue { ptr, i32 } %49, 0
  store ptr %50, ptr %exn.slot, align 8
  %51 = extractvalue { ptr, i32 } %49, 1
  store i32 %51, ptr %ehselector.slot, align 4
  br label %catch.dispatch

catch.dispatch:                                   ; preds = %lpad49
  %sel = load i32, ptr %ehselector.slot, align 4
  %52 = call i32 @llvm.eh.typeid.for(ptr @_ZTISt9bad_alloc) #14
  %matches = icmp eq i32 %sel, %52
  br i1 %matches, label %catch59, label %catch51

catch59:                                          ; preds = %catch.dispatch
  %exn60 = load ptr, ptr %exn.slot, align 8
  %53 = call ptr @__cxa_begin_catch(ptr %exn60) #14
  store ptr %53, ptr %0, align 8
  invoke void @_ZN7doctest6detail13ResultBuilder18translateExceptionEv(ptr noundef nonnull align 8 dereferenceable(144) %DOCTEST_RB43)
          to label %invoke.cont62 unwind label %lpad61

invoke.cont62:                                    ; preds = %catch59
  %m_threw_as = getelementptr inbounds %"struct.doctest::AssertData", ptr %DOCTEST_RB43, i32 0, i32 9
  store i8 1, ptr %m_threw_as, align 8
  invoke void @__cxa_end_catch()
          to label %invoke.cont63 unwind label %lpad55

invoke.cont63:                                    ; preds = %invoke.cont62
  br label %try.cont66

try.cont66:                                       ; preds = %invoke.cont56, %invoke.cont63, %invoke.cont50
  %call68 = invoke noundef zeroext i1 @_ZN7doctest6detail13ResultBuilder3logEv(ptr noundef nonnull align 8 dereferenceable(144) %DOCTEST_RB43)
          to label %invoke.cont67 unwind label %lpad55

invoke.cont67:                                    ; preds = %try.cont66
  br i1 %call68, label %if.then69, label %if.end70

if.then69:                                        ; preds = %invoke.cont67
  call void asm sideeffect "int $$3\0A", "~{dirflag},~{fpsr},~{flags}"() #14, !srcloc !7
  br label %if.end70

catch51:                                          ; preds = %catch.dispatch
  %exn52 = load ptr, ptr %exn.slot, align 8
  %54 = call ptr @__cxa_begin_catch(ptr %exn52) #14
  invoke void @_ZN7doctest6detail13ResultBuilder18translateExceptionEv(ptr noundef nonnull align 8 dereferenceable(144) %DOCTEST_RB43)
          to label %invoke.cont54 unwind label %lpad53

invoke.cont54:                                    ; preds = %catch51
  invoke void @__cxa_end_catch()
          to label %invoke.cont56 unwind label %lpad55

invoke.cont56:                                    ; preds = %invoke.cont54
  br label %try.cont66

lpad53:                                           ; preds = %catch51
  %55 = landingpad { ptr, i32 }
          cleanup
  %56 = extractvalue { ptr, i32 } %55, 0
  store ptr %56, ptr %exn.slot, align 8
  %57 = extractvalue { ptr, i32 } %55, 1
  store i32 %57, ptr %ehselector.slot, align 4
  invoke void @__cxa_end_catch()
          to label %invoke.cont58 unwind label %terminate.lpad

lpad55:                                           ; preds = %if.end70, %invoke.cont54, %try.cont66, %invoke.cont62
  %58 = landingpad { ptr, i32 }
          cleanup
  %59 = extractvalue { ptr, i32 } %58, 0
  store ptr %59, ptr %exn.slot, align 8
  %60 = extractvalue { ptr, i32 } %58, 1
  store i32 %60, ptr %ehselector.slot, align 4
  br label %ehcleanup72

invoke.cont58:                                    ; preds = %lpad53
  br label %ehcleanup72

lpad61:                                           ; preds = %catch59
  %61 = landingpad { ptr, i32 }
          cleanup
  %62 = extractvalue { ptr, i32 } %61, 0
  store ptr %62, ptr %exn.slot, align 8
  %63 = extractvalue { ptr, i32 } %61, 1
  store i32 %63, ptr %ehselector.slot, align 4
  invoke void @__cxa_end_catch()
          to label %invoke.cont65 unwind label %terminate.lpad

invoke.cont65:                                    ; preds = %lpad61
  br label %ehcleanup72

if.end70:                                         ; preds = %if.then69, %invoke.cont67
  invoke void @_ZNK7doctest6detail13ResultBuilder5reactEv(ptr noundef nonnull align 8 dereferenceable(144) %DOCTEST_RB43)
          to label %invoke.cont71 unwind label %lpad55

invoke.cont71:                                    ; preds = %if.end70
  call void @_ZN7doctest6detail13ResultBuilderD2Ev(ptr noundef nonnull align 8 dereferenceable(144) %DOCTEST_RB43) #14
  br label %if.end73

ehcleanup72:                                      ; preds = %invoke.cont65, %invoke.cont58, %lpad55
  call void @_ZN7doctest6detail13ResultBuilderD2Ev(ptr noundef nonnull align 8 dereferenceable(144) %DOCTEST_RB43) #14
  br label %ehcleanup77

if.else:                                          ; preds = %invoke.cont40
  br label %if.end73

if.end73:                                         ; preds = %if.else, %invoke.cont71
  br label %do.cond74

do.cond74:                                        ; preds = %if.end73
  br label %do.end75

do.end75:                                         ; preds = %do.cond74
  store i8 0, ptr @_ZN12_GLOBAL__N_120next_construct_failsE, align 1
  br label %if.end76

if.end76:                                         ; preds = %do.end75, %invoke.cont19
  call void @_ZN7doctest6detail7SubcaseD1Ev(ptr noundef nonnull align 8 dereferenceable(41) %ref.tmp13) #14
  invoke void @_ZN7doctest6StringC1EPKc(ptr noundef nonnull align 8 dereferenceable(24) %ref.tmp79, ptr noundef @.str.21)
          to label %invoke.cont80 unwind label %lpad9

invoke.cont80:                                    ; preds = %if.end76
  invoke void @_ZN7doctest6detail7SubcaseC1ERKNS_6StringEPKci(ptr noundef nonnull align 8 dereferenceable(41) %ref.tmp78, ptr noundef nonnull align 8 dereferenceable(24) %ref.tmp79, ptr noundef @.str.2, i32 noundef 148)
          to label %invoke.cont82 unwind label %lpad81

invoke.cont82:                                    ; preds = %invoke.cont80
  call void @_ZN7doctest6StringD1Ev(ptr noundef nonnull align 8 dereferenceable(24) %ref.tmp79) #14
  store ptr %ref.tmp78, ptr %DOCTEST_ANON_SUBCASE_10, align 8
  %64 = load ptr, ptr %DOCTEST_ANON_SUBCASE_10, align 8
  %call86 = invoke noundef zeroext i1 @_ZNK7doctest6detail7SubcasecvbEv(ptr noundef nonnull align 8 dereferenceable(41) %64)
          to label %invoke.cont85 unwind label %lpad84

invoke.cont85:                                    ; preds = %invoke.cont82
  br i1 %call86, label %if.then87, label %if.end162

if.then87:                                        ; preds = %invoke.cont85
  store i8 0, ptr @_ZN12_GLOBAL__N_120next_construct_failsE, align 1
  store i8 2, ptr %t88, align 1
  br label %do.body89

do.body89:                                        ; preds = %if.then87
  invoke void @_ZN7doctest6StringC1EPKc(ptr noundef nonnull align 8 dereferenceable(24) %ref.tmp91, ptr noundef @.str)
          to label %invoke.cont92 unwind label %lpad84

invoke.cont92:                                    ; preds = %do.body89
  invoke void @_ZN7doctest6detail13ResultBuilderC1ENS_10assertType4EnumEPKciS5_S5_RKNS_6StringE(ptr noundef nonnull align 8 dereferenceable(144) %DOCTEST_RB90, i32 noundef 130, ptr noundef @.str.2, i32 noundef 152, ptr noundef @.str.22, ptr noundef @.str, ptr noundef nonnull align 8 dereferenceable(24) %ref.tmp91)
          to label %invoke.cont94 unwind label %lpad93

invoke.cont94:                                    ; preds = %invoke.cont92
  call void @_ZN7doctest6StringD1Ev(ptr noundef nonnull align 8 dereferenceable(24) %ref.tmp91) #14
  %65 = load i8, ptr %t88, align 1
  invoke void @_ZN8nlohmann16json_abi_v3_11_310basic_jsonISt3mapSt6vectorNSt7__cxx1112basic_stringIcSt11char_traitsIcESaIcEEEblmdN12_GLOBAL__N_112my_allocatorENS0_14adl_serializerES3_IhSaIhEEvE10json_valueC2ENS0_6detail7value_tE(ptr noundef nonnull align 8 dereferenceable(8) %ref.tmp96, i8 noundef zeroext %65)
          to label %invoke.cont98 unwind label %lpad97

invoke.cont98:                                    ; preds = %invoke.cont94
  %66 = load ptr, ptr %ref.tmp96, align 8
  invoke void @_ZN12_GLOBAL__N_121my_allocator_clean_upISt6vectorIN8nlohmann16json_abi_v3_11_310basic_jsonISt3mapS1_NSt7__cxx1112basic_stringIcSt11char_traitsIcESaIcEEEblmdNS_12my_allocatorENS3_14adl_serializerES1_IhSaIhEEvEENSC_ISG_EEEEEvPT_(ptr noundef %66)
          to label %invoke.cont99 unwind label %lpad97

invoke.cont99:                                    ; preds = %invoke.cont98
  br label %try.cont108

ehcleanup77:                                      ; preds = %ehcleanup72, %lpad46, %ehcleanup, %lpad24, %lpad18
  call void @_ZN7doctest6detail7SubcaseD1Ev(ptr noundef nonnull align 8 dereferenceable(41) %ref.tmp13) #14
  br label %ehcleanup251

lpad81:                                           ; preds = %invoke.cont80
  %67 = landingpad { ptr, i32 }
          cleanup
  %68 = extractvalue { ptr, i32 } %67, 0
  store ptr %68, ptr %exn.slot, align 8
  %69 = extractvalue { ptr, i32 } %67, 1
  store i32 %69, ptr %ehselector.slot, align 4
  call void @_ZN7doctest6StringD1Ev(ptr noundef nonnull align 8 dereferenceable(24) %ref.tmp79) #14
  br label %ehcleanup251

lpad84:                                           ; preds = %if.then122, %do.body117, %do.body89, %invoke.cont82
  %70 = landingpad { ptr, i32 }
          cleanup
  %71 = extractvalue { ptr, i32 } %70, 0
  store ptr %71, ptr %exn.slot, align 8
  %72 = extractvalue { ptr, i32 } %70, 1
  store i32 %72, ptr %ehselector.slot, align 4
  br label %ehcleanup163

lpad93:                                           ; preds = %invoke.cont92
  %73 = landingpad { ptr, i32 }
          cleanup
  %74 = extractvalue { ptr, i32 } %73, 0
  store ptr %74, ptr %exn.slot, align 8
  %75 = extractvalue { ptr, i32 } %73, 1
  store i32 %75, ptr %ehselector.slot, align 4
  call void @_ZN7doctest6StringD1Ev(ptr noundef nonnull align 8 dereferenceable(24) %ref.tmp91) #14
  br label %ehcleanup163

lpad97:                                           ; preds = %invoke.cont98, %invoke.cont94
  %76 = landingpad { ptr, i32 }
          catch ptr null
  %77 = extractvalue { ptr, i32 } %76, 0
  store ptr %77, ptr %exn.slot, align 8
  %78 = extractvalue { ptr, i32 } %76, 1
  store i32 %78, ptr %ehselector.slot, align 4
  br label %catch100

catch100:                                         ; preds = %lpad97
  %exn101 = load ptr, ptr %exn.slot, align 8
  %79 = call ptr @__cxa_begin_catch(ptr %exn101) #14
  invoke void @_ZN7doctest6detail13ResultBuilder18translateExceptionEv(ptr noundef nonnull align 8 dereferenceable(144) %DOCTEST_RB90)
          to label %invoke.cont103 unwind label %lpad102

invoke.cont103:                                   ; preds = %catch100
  invoke void @__cxa_end_catch()
          to label %invoke.cont105 unwind label %lpad104

invoke.cont105:                                   ; preds = %invoke.cont103
  br label %try.cont108

try.cont108:                                      ; preds = %invoke.cont105, %invoke.cont99
  %call110 = invoke noundef zeroext i1 @_ZN7doctest6detail13ResultBuilder3logEv(ptr noundef nonnull align 8 dereferenceable(144) %DOCTEST_RB90)
          to label %invoke.cont109 unwind label %lpad104

invoke.cont109:                                   ; preds = %try.cont108
  br i1 %call110, label %if.then111, label %if.end112

if.then111:                                       ; preds = %invoke.cont109
  call void asm sideeffect "int $$3\0A", "~{dirflag},~{fpsr},~{flags}"() #14, !srcloc !8
  br label %if.end112

lpad102:                                          ; preds = %catch100
  %80 = landingpad { ptr, i32 }
          cleanup
  %81 = extractvalue { ptr, i32 } %80, 0
  store ptr %81, ptr %exn.slot, align 8
  %82 = extractvalue { ptr, i32 } %80, 1
  store i32 %82, ptr %ehselector.slot, align 4
  invoke void @__cxa_end_catch()
          to label %invoke.cont107 unwind label %terminate.lpad

lpad104:                                          ; preds = %if.end112, %try.cont108, %invoke.cont103
  %83 = landingpad { ptr, i32 }
          cleanup
  %84 = extractvalue { ptr, i32 } %83, 0
  store ptr %84, ptr %exn.slot, align 8
  %85 = extractvalue { ptr, i32 } %83, 1
  store i32 %85, ptr %ehselector.slot, align 4
  br label %ehcleanup114

invoke.cont107:                                   ; preds = %lpad102
  br label %ehcleanup114

if.end112:                                        ; preds = %if.then111, %invoke.cont109
  invoke void @_ZNK7doctest6detail13ResultBuilder5reactEv(ptr noundef nonnull align 8 dereferenceable(144) %DOCTEST_RB90)
          to label %invoke.cont113 unwind label %lpad104

invoke.cont113:                                   ; preds = %if.end112
  call void @_ZN7doctest6detail13ResultBuilderD2Ev(ptr noundef nonnull align 8 dereferenceable(144) %DOCTEST_RB90) #14
  br label %do.cond115

do.cond115:                                       ; preds = %invoke.cont113
  br label %do.end116

do.end116:                                        ; preds = %do.cond115
  store i8 1, ptr @_ZN12_GLOBAL__N_120next_construct_failsE, align 1
  br label %do.body117

do.body117:                                       ; preds = %do.end116
  %call119 = invoke noundef ptr @_ZN7doctest17getContextOptionsEv()
          to label %invoke.cont118 unwind label %lpad84

invoke.cont118:                                   ; preds = %do.body117
  %no_throw120 = getelementptr inbounds %"struct.doctest::ContextOptions", ptr %call119, i32 0, i32 16
  %86 = load i8, ptr %no_throw120, align 2
  %tobool121 = trunc i8 %86 to i1
  br i1 %tobool121, label %if.else158, label %if.then122

if.then122:                                       ; preds = %invoke.cont118
  invoke void @_ZN7doctest6StringC1EPKc(ptr noundef nonnull align 8 dereferenceable(24) %ref.tmp124, ptr noundef @.str)
          to label %invoke.cont125 unwind label %lpad84

invoke.cont125:                                   ; preds = %if.then122
  invoke void @_ZN7doctest6detail13ResultBuilderC1ENS_10assertType4EnumEPKciS5_S5_RKNS_6StringE(ptr noundef nonnull align 8 dereferenceable(144) %DOCTEST_RB123, i32 noundef 34, ptr noundef @.str.2, i32 noundef 154, ptr noundef @.str.20, ptr noundef @.str.9, ptr noundef nonnull align 8 dereferenceable(24) %ref.tmp124)
          to label %invoke.cont127 unwind label %lpad126

invoke.cont127:                                   ; preds = %invoke.cont125
  call void @_ZN7doctest6StringD1Ev(ptr noundef nonnull align 8 dereferenceable(24) %ref.tmp124) #14
  %87 = load i8, ptr %t88, align 1
  invoke void @_ZN8nlohmann16json_abi_v3_11_310basic_jsonISt3mapSt6vectorNSt7__cxx1112basic_stringIcSt11char_traitsIcESaIcEEEblmdN12_GLOBAL__N_112my_allocatorENS0_14adl_serializerES3_IhSaIhEEvE10json_valueC2ENS0_6detail7value_tE(ptr noundef nonnull align 8 dereferenceable(8) %agg.tmp.ensured129, i8 noundef zeroext %87)
          to label %invoke.cont131 unwind label %lpad130

invoke.cont131:                                   ; preds = %invoke.cont127
  br label %try.cont151

ehcleanup114:                                     ; preds = %invoke.cont107, %lpad104
  call void @_ZN7doctest6detail13ResultBuilderD2Ev(ptr noundef nonnull align 8 dereferenceable(144) %DOCTEST_RB90) #14
  br label %ehcleanup163

lpad126:                                          ; preds = %invoke.cont125
  %88 = landingpad { ptr, i32 }
          cleanup
  %89 = extractvalue { ptr, i32 } %88, 0
  store ptr %89, ptr %exn.slot, align 8
  %90 = extractvalue { ptr, i32 } %88, 1
  store i32 %90, ptr %ehselector.slot, align 4
  call void @_ZN7doctest6StringD1Ev(ptr noundef nonnull align 8 dereferenceable(24) %ref.tmp124) #14
  br label %ehcleanup163

lpad130:                                          ; preds = %invoke.cont127
  %91 = landingpad { ptr, i32 }
          catch ptr @_ZTISt9bad_alloc
          catch ptr null
  %92 = extractvalue { ptr, i32 } %91, 0
  store ptr %92, ptr %exn.slot, align 8
  %93 = extractvalue { ptr, i32 } %91, 1
  store i32 %93, ptr %ehselector.slot, align 4
  br label %catch.dispatch132

catch.dispatch132:                                ; preds = %lpad130
  %sel133 = load i32, ptr %ehselector.slot, align 4
  %94 = call i32 @llvm.eh.typeid.for(ptr @_ZTISt9bad_alloc) #14
  %matches134 = icmp eq i32 %sel133, %94
  br i1 %matches134, label %catch143, label %catch135

catch143:                                         ; preds = %catch.dispatch132
  %exn144 = load ptr, ptr %exn.slot, align 8
  %95 = call ptr @__cxa_begin_catch(ptr %exn144) #14
  store ptr %95, ptr %1, align 8
  invoke void @_ZN7doctest6detail13ResultBuilder18translateExceptionEv(ptr noundef nonnull align 8 dereferenceable(144) %DOCTEST_RB123)
          to label %invoke.cont146 unwind label %lpad145

invoke.cont146:                                   ; preds = %catch143
  %m_threw_as147 = getelementptr inbounds %"struct.doctest::AssertData", ptr %DOCTEST_RB123, i32 0, i32 9
  store i8 1, ptr %m_threw_as147, align 8
  invoke void @__cxa_end_catch()
          to label %invoke.cont148 unwind label %lpad139

invoke.cont148:                                   ; preds = %invoke.cont146
  br label %try.cont151

try.cont151:                                      ; preds = %invoke.cont140, %invoke.cont148, %invoke.cont131
  %call153 = invoke noundef zeroext i1 @_ZN7doctest6detail13ResultBuilder3logEv(ptr noundef nonnull align 8 dereferenceable(144) %DOCTEST_RB123)
          to label %invoke.cont152 unwind label %lpad139

invoke.cont152:                                   ; preds = %try.cont151
  br i1 %call153, label %if.then154, label %if.end155

if.then154:                                       ; preds = %invoke.cont152
  call void asm sideeffect "int $$3\0A", "~{dirflag},~{fpsr},~{flags}"() #14, !srcloc !9
  br label %if.end155

catch135:                                         ; preds = %catch.dispatch132
  %exn136 = load ptr, ptr %exn.slot, align 8
  %96 = call ptr @__cxa_begin_catch(ptr %exn136) #14
  invoke void @_ZN7doctest6detail13ResultBuilder18translateExceptionEv(ptr noundef nonnull align 8 dereferenceable(144) %DOCTEST_RB123)
          to label %invoke.cont138 unwind label %lpad137

invoke.cont138:                                   ; preds = %catch135
  invoke void @__cxa_end_catch()
          to label %invoke.cont140 unwind label %lpad139

invoke.cont140:                                   ; preds = %invoke.cont138
  br label %try.cont151

lpad137:                                          ; preds = %catch135
  %97 = landingpad { ptr, i32 }
          cleanup
  %98 = extractvalue { ptr, i32 } %97, 0
  store ptr %98, ptr %exn.slot, align 8
  %99 = extractvalue { ptr, i32 } %97, 1
  store i32 %99, ptr %ehselector.slot, align 4
  invoke void @__cxa_end_catch()
          to label %invoke.cont142 unwind label %terminate.lpad

lpad139:                                          ; preds = %if.end155, %invoke.cont138, %try.cont151, %invoke.cont146
  %100 = landingpad { ptr, i32 }
          cleanup
  %101 = extractvalue { ptr, i32 } %100, 0
  store ptr %101, ptr %exn.slot, align 8
  %102 = extractvalue { ptr, i32 } %100, 1
  store i32 %102, ptr %ehselector.slot, align 4
  br label %ehcleanup157

invoke.cont142:                                   ; preds = %lpad137
  br label %ehcleanup157

lpad145:                                          ; preds = %catch143
  %103 = landingpad { ptr, i32 }
          cleanup
  %104 = extractvalue { ptr, i32 } %103, 0
  store ptr %104, ptr %exn.slot, align 8
  %105 = extractvalue { ptr, i32 } %103, 1
  store i32 %105, ptr %ehselector.slot, align 4
  invoke void @__cxa_end_catch()
          to label %invoke.cont150 unwind label %terminate.lpad

invoke.cont150:                                   ; preds = %lpad145
  br label %ehcleanup157

if.end155:                                        ; preds = %if.then154, %invoke.cont152
  invoke void @_ZNK7doctest6detail13ResultBuilder5reactEv(ptr noundef nonnull align 8 dereferenceable(144) %DOCTEST_RB123)
          to label %invoke.cont156 unwind label %lpad139

invoke.cont156:                                   ; preds = %if.end155
  call void @_ZN7doctest6detail13ResultBuilderD2Ev(ptr noundef nonnull align 8 dereferenceable(144) %DOCTEST_RB123) #14
  br label %if.end159

ehcleanup157:                                     ; preds = %invoke.cont150, %invoke.cont142, %lpad139
  call void @_ZN7doctest6detail13ResultBuilderD2Ev(ptr noundef nonnull align 8 dereferenceable(144) %DOCTEST_RB123) #14
  br label %ehcleanup163

if.else158:                                       ; preds = %invoke.cont118
  br label %if.end159

if.end159:                                        ; preds = %if.else158, %invoke.cont156
  br label %do.cond160

do.cond160:                                       ; preds = %if.end159
  br label %do.end161

do.end161:                                        ; preds = %do.cond160
  store i8 0, ptr @_ZN12_GLOBAL__N_120next_construct_failsE, align 1
  br label %if.end162

if.end162:                                        ; preds = %do.end161, %invoke.cont85
  call void @_ZN7doctest6detail7SubcaseD1Ev(ptr noundef nonnull align 8 dereferenceable(41) %ref.tmp78) #14
  invoke void @_ZN7doctest6StringC1EPKc(ptr noundef nonnull align 8 dereferenceable(24) %ref.tmp165, ptr noundef @.str.23)
          to label %invoke.cont166 unwind label %lpad9

invoke.cont166:                                   ; preds = %if.end162
  invoke void @_ZN7doctest6detail7SubcaseC1ERKNS_6StringEPKci(ptr noundef nonnull align 8 dereferenceable(41) %ref.tmp164, ptr noundef nonnull align 8 dereferenceable(24) %ref.tmp165, ptr noundef @.str.2, i32 noundef 157)
          to label %invoke.cont168 unwind label %lpad167

invoke.cont168:                                   ; preds = %invoke.cont166
  call void @_ZN7doctest6StringD1Ev(ptr noundef nonnull align 8 dereferenceable(24) %ref.tmp165) #14
  store ptr %ref.tmp164, ptr %DOCTEST_ANON_SUBCASE_11, align 8
  %106 = load ptr, ptr %DOCTEST_ANON_SUBCASE_11, align 8
  %call172 = invoke noundef zeroext i1 @_ZNK7doctest6detail7SubcasecvbEv(ptr noundef nonnull align 8 dereferenceable(41) %106)
          to label %invoke.cont171 unwind label %lpad170

invoke.cont171:                                   ; preds = %invoke.cont168
  br i1 %call172, label %if.then173, label %if.end248

if.then173:                                       ; preds = %invoke.cont171
  store i8 0, ptr @_ZN12_GLOBAL__N_120next_construct_failsE, align 1
  store i8 3, ptr %t174, align 1
  br label %do.body175

do.body175:                                       ; preds = %if.then173
  invoke void @_ZN7doctest6StringC1EPKc(ptr noundef nonnull align 8 dereferenceable(24) %ref.tmp177, ptr noundef @.str)
          to label %invoke.cont178 unwind label %lpad170

invoke.cont178:                                   ; preds = %do.body175
  invoke void @_ZN7doctest6detail13ResultBuilderC1ENS_10assertType4EnumEPKciS5_S5_RKNS_6StringE(ptr noundef nonnull align 8 dereferenceable(144) %DOCTEST_RB176, i32 noundef 130, ptr noundef @.str.2, i32 noundef 161, ptr noundef @.str.24, ptr noundef @.str, ptr noundef nonnull align 8 dereferenceable(24) %ref.tmp177)
          to label %invoke.cont180 unwind label %lpad179

invoke.cont180:                                   ; preds = %invoke.cont178
  call void @_ZN7doctest6StringD1Ev(ptr noundef nonnull align 8 dereferenceable(24) %ref.tmp177) #14
  %107 = load i8, ptr %t174, align 1
  invoke void @_ZN8nlohmann16json_abi_v3_11_310basic_jsonISt3mapSt6vectorNSt7__cxx1112basic_stringIcSt11char_traitsIcESaIcEEEblmdN12_GLOBAL__N_112my_allocatorENS0_14adl_serializerES3_IhSaIhEEvE10json_valueC2ENS0_6detail7value_tE(ptr noundef nonnull align 8 dereferenceable(8) %ref.tmp182, i8 noundef zeroext %107)
          to label %invoke.cont184 unwind label %lpad183

invoke.cont184:                                   ; preds = %invoke.cont180
  %108 = load ptr, ptr %ref.tmp182, align 8
  invoke void @_ZN12_GLOBAL__N_121my_allocator_clean_upINSt7__cxx1112basic_stringIcSt11char_traitsIcESaIcEEEEEvPT_(ptr noundef %108)
          to label %invoke.cont185 unwind label %lpad183

invoke.cont185:                                   ; preds = %invoke.cont184
  br label %try.cont194

ehcleanup163:                                     ; preds = %ehcleanup157, %lpad126, %ehcleanup114, %lpad93, %lpad84
  call void @_ZN7doctest6detail7SubcaseD1Ev(ptr noundef nonnull align 8 dereferenceable(41) %ref.tmp78) #14
  br label %ehcleanup251

lpad167:                                          ; preds = %invoke.cont166
  %109 = landingpad { ptr, i32 }
          cleanup
  %110 = extractvalue { ptr, i32 } %109, 0
  store ptr %110, ptr %exn.slot, align 8
  %111 = extractvalue { ptr, i32 } %109, 1
  store i32 %111, ptr %ehselector.slot, align 4
  call void @_ZN7doctest6StringD1Ev(ptr noundef nonnull align 8 dereferenceable(24) %ref.tmp165) #14
  br label %ehcleanup251

lpad170:                                          ; preds = %if.then208, %do.body203, %do.body175, %invoke.cont168
  %112 = landingpad { ptr, i32 }
          cleanup
  %113 = extractvalue { ptr, i32 } %112, 0
  store ptr %113, ptr %exn.slot, align 8
  %114 = extractvalue { ptr, i32 } %112, 1
  store i32 %114, ptr %ehselector.slot, align 4
  br label %ehcleanup249

lpad179:                                          ; preds = %invoke.cont178
  %115 = landingpad { ptr, i32 }
          cleanup
  %116 = extractvalue { ptr, i32 } %115, 0
  store ptr %116, ptr %exn.slot, align 8
  %117 = extractvalue { ptr, i32 } %115, 1
  store i32 %117, ptr %ehselector.slot, align 4
  call void @_ZN7doctest6StringD1Ev(ptr noundef nonnull align 8 dereferenceable(24) %ref.tmp177) #14
  br label %ehcleanup249

lpad183:                                          ; preds = %invoke.cont184, %invoke.cont180
  %118 = landingpad { ptr, i32 }
          catch ptr null
  %119 = extractvalue { ptr, i32 } %118, 0
  store ptr %119, ptr %exn.slot, align 8
  %120 = extractvalue { ptr, i32 } %118, 1
  store i32 %120, ptr %ehselector.slot, align 4
  br label %catch186

catch186:                                         ; preds = %lpad183
  %exn187 = load ptr, ptr %exn.slot, align 8
  %121 = call ptr @__cxa_begin_catch(ptr %exn187) #14
  invoke void @_ZN7doctest6detail13ResultBuilder18translateExceptionEv(ptr noundef nonnull align 8 dereferenceable(144) %DOCTEST_RB176)
          to label %invoke.cont189 unwind label %lpad188

invoke.cont189:                                   ; preds = %catch186
  invoke void @__cxa_end_catch()
          to label %invoke.cont191 unwind label %lpad190

invoke.cont191:                                   ; preds = %invoke.cont189
  br label %try.cont194

try.cont194:                                      ; preds = %invoke.cont191, %invoke.cont185
  %call196 = invoke noundef zeroext i1 @_ZN7doctest6detail13ResultBuilder3logEv(ptr noundef nonnull align 8 dereferenceable(144) %DOCTEST_RB176)
          to label %invoke.cont195 unwind label %lpad190

invoke.cont195:                                   ; preds = %try.cont194
  br i1 %call196, label %if.then197, label %if.end198

if.then197:                                       ; preds = %invoke.cont195
  call void asm sideeffect "int $$3\0A", "~{dirflag},~{fpsr},~{flags}"() #14, !srcloc !10
  br label %if.end198

lpad188:                                          ; preds = %catch186
  %122 = landingpad { ptr, i32 }
          cleanup
  %123 = extractvalue { ptr, i32 } %122, 0
  store ptr %123, ptr %exn.slot, align 8
  %124 = extractvalue { ptr, i32 } %122, 1
  store i32 %124, ptr %ehselector.slot, align 4
  invoke void @__cxa_end_catch()
          to label %invoke.cont193 unwind label %terminate.lpad

lpad190:                                          ; preds = %if.end198, %try.cont194, %invoke.cont189
  %125 = landingpad { ptr, i32 }
          cleanup
  %126 = extractvalue { ptr, i32 } %125, 0
  store ptr %126, ptr %exn.slot, align 8
  %127 = extractvalue { ptr, i32 } %125, 1
  store i32 %127, ptr %ehselector.slot, align 4
  br label %ehcleanup200

invoke.cont193:                                   ; preds = %lpad188
  br label %ehcleanup200

if.end198:                                        ; preds = %if.then197, %invoke.cont195
  invoke void @_ZNK7doctest6detail13ResultBuilder5reactEv(ptr noundef nonnull align 8 dereferenceable(144) %DOCTEST_RB176)
          to label %invoke.cont199 unwind label %lpad190

invoke.cont199:                                   ; preds = %if.end198
  call void @_ZN7doctest6detail13ResultBuilderD2Ev(ptr noundef nonnull align 8 dereferenceable(144) %DOCTEST_RB176) #14
  br label %do.cond201

do.cond201:                                       ; preds = %invoke.cont199
  br label %do.end202

do.end202:                                        ; preds = %do.cond201
  store i8 1, ptr @_ZN12_GLOBAL__N_120next_construct_failsE, align 1
  br label %do.body203

do.body203:                                       ; preds = %do.end202
  %call205 = invoke noundef ptr @_ZN7doctest17getContextOptionsEv()
          to label %invoke.cont204 unwind label %lpad170

invoke.cont204:                                   ; preds = %do.body203
  %no_throw206 = getelementptr inbounds %"struct.doctest::ContextOptions", ptr %call205, i32 0, i32 16
  %128 = load i8, ptr %no_throw206, align 2
  %tobool207 = trunc i8 %128 to i1
  br i1 %tobool207, label %if.else244, label %if.then208

if.then208:                                       ; preds = %invoke.cont204
  invoke void @_ZN7doctest6StringC1EPKc(ptr noundef nonnull align 8 dereferenceable(24) %ref.tmp210, ptr noundef @.str)
          to label %invoke.cont211 unwind label %lpad170

invoke.cont211:                                   ; preds = %if.then208
  invoke void @_ZN7doctest6detail13ResultBuilderC1ENS_10assertType4EnumEPKciS5_S5_RKNS_6StringE(ptr noundef nonnull align 8 dereferenceable(144) %DOCTEST_RB209, i32 noundef 34, ptr noundef @.str.2, i32 noundef 163, ptr noundef @.str.20, ptr noundef @.str.9, ptr noundef nonnull align 8 dereferenceable(24) %ref.tmp210)
          to label %invoke.cont213 unwind label %lpad212

invoke.cont213:                                   ; preds = %invoke.cont211
  call void @_ZN7doctest6StringD1Ev(ptr noundef nonnull align 8 dereferenceable(24) %ref.tmp210) #14
  %129 = load i8, ptr %t174, align 1
  invoke void @_ZN8nlohmann16json_abi_v3_11_310basic_jsonISt3mapSt6vectorNSt7__cxx1112basic_stringIcSt11char_traitsIcESaIcEEEblmdN12_GLOBAL__N_112my_allocatorENS0_14adl_serializerES3_IhSaIhEEvE10json_valueC2ENS0_6detail7value_tE(ptr noundef nonnull align 8 dereferenceable(8) %agg.tmp.ensured215, i8 noundef zeroext %129)
          to label %invoke.cont217 unwind label %lpad216

invoke.cont217:                                   ; preds = %invoke.cont213
  br label %try.cont237

ehcleanup200:                                     ; preds = %invoke.cont193, %lpad190
  call void @_ZN7doctest6detail13ResultBuilderD2Ev(ptr noundef nonnull align 8 dereferenceable(144) %DOCTEST_RB176) #14
  br label %ehcleanup249

lpad212:                                          ; preds = %invoke.cont211
  %130 = landingpad { ptr, i32 }
          cleanup
  %131 = extractvalue { ptr, i32 } %130, 0
  store ptr %131, ptr %exn.slot, align 8
  %132 = extractvalue { ptr, i32 } %130, 1
  store i32 %132, ptr %ehselector.slot, align 4
  call void @_ZN7doctest6StringD1Ev(ptr noundef nonnull align 8 dereferenceable(24) %ref.tmp210) #14
  br label %ehcleanup249

lpad216:                                          ; preds = %invoke.cont213
  %133 = landingpad { ptr, i32 }
          catch ptr @_ZTISt9bad_alloc
          catch ptr null
  %134 = extractvalue { ptr, i32 } %133, 0
  store ptr %134, ptr %exn.slot, align 8
  %135 = extractvalue { ptr, i32 } %133, 1
  store i32 %135, ptr %ehselector.slot, align 4
  br label %catch.dispatch218

catch.dispatch218:                                ; preds = %lpad216
  %sel219 = load i32, ptr %ehselector.slot, align 4
  %136 = call i32 @llvm.eh.typeid.for(ptr @_ZTISt9bad_alloc) #14
  %matches220 = icmp eq i32 %sel219, %136
  br i1 %matches220, label %catch229, label %catch221

catch229:                                         ; preds = %catch.dispatch218
  %exn230 = load ptr, ptr %exn.slot, align 8
  %137 = call ptr @__cxa_begin_catch(ptr %exn230) #14
  store ptr %137, ptr %2, align 8
  invoke void @_ZN7doctest6detail13ResultBuilder18translateExceptionEv(ptr noundef nonnull align 8 dereferenceable(144) %DOCTEST_RB209)
          to label %invoke.cont232 unwind label %lpad231

invoke.cont232:                                   ; preds = %catch229
  %m_threw_as233 = getelementptr inbounds %"struct.doctest::AssertData", ptr %DOCTEST_RB209, i32 0, i32 9
  store i8 1, ptr %m_threw_as233, align 8
  invoke void @__cxa_end_catch()
          to label %invoke.cont234 unwind label %lpad225

invoke.cont234:                                   ; preds = %invoke.cont232
  br label %try.cont237

try.cont237:                                      ; preds = %invoke.cont226, %invoke.cont234, %invoke.cont217
  %call239 = invoke noundef zeroext i1 @_ZN7doctest6detail13ResultBuilder3logEv(ptr noundef nonnull align 8 dereferenceable(144) %DOCTEST_RB209)
          to label %invoke.cont238 unwind label %lpad225

invoke.cont238:                                   ; preds = %try.cont237
  br i1 %call239, label %if.then240, label %if.end241

if.then240:                                       ; preds = %invoke.cont238
  call void asm sideeffect "int $$3\0A", "~{dirflag},~{fpsr},~{flags}"() #14, !srcloc !11
  br label %if.end241

catch221:                                         ; preds = %catch.dispatch218
  %exn222 = load ptr, ptr %exn.slot, align 8
  %138 = call ptr @__cxa_begin_catch(ptr %exn222) #14
  invoke void @_ZN7doctest6detail13ResultBuilder18translateExceptionEv(ptr noundef nonnull align 8 dereferenceable(144) %DOCTEST_RB209)
          to label %invoke.cont224 unwind label %lpad223

invoke.cont224:                                   ; preds = %catch221
  invoke void @__cxa_end_catch()
          to label %invoke.cont226 unwind label %lpad225

invoke.cont226:                                   ; preds = %invoke.cont224
  br label %try.cont237

lpad223:                                          ; preds = %catch221
  %139 = landingpad { ptr, i32 }
          cleanup
  %140 = extractvalue { ptr, i32 } %139, 0
  store ptr %140, ptr %exn.slot, align 8
  %141 = extractvalue { ptr, i32 } %139, 1
  store i32 %141, ptr %ehselector.slot, align 4
  invoke void @__cxa_end_catch()
          to label %invoke.cont228 unwind label %terminate.lpad

lpad225:                                          ; preds = %if.end241, %invoke.cont224, %try.cont237, %invoke.cont232
  %142 = landingpad { ptr, i32 }
          cleanup
  %143 = extractvalue { ptr, i32 } %142, 0
  store ptr %143, ptr %exn.slot, align 8
  %144 = extractvalue { ptr, i32 } %142, 1
  store i32 %144, ptr %ehselector.slot, align 4
  br label %ehcleanup243

invoke.cont228:                                   ; preds = %lpad223
  br label %ehcleanup243

lpad231:                                          ; preds = %catch229
  %145 = landingpad { ptr, i32 }
          cleanup
  %146 = extractvalue { ptr, i32 } %145, 0
  store ptr %146, ptr %exn.slot, align 8
  %147 = extractvalue { ptr, i32 } %145, 1
  store i32 %147, ptr %ehselector.slot, align 4
  invoke void @__cxa_end_catch()
          to label %invoke.cont236 unwind label %terminate.lpad

invoke.cont236:                                   ; preds = %lpad231
  br label %ehcleanup243

if.end241:                                        ; preds = %if.then240, %invoke.cont238
  invoke void @_ZNK7doctest6detail13ResultBuilder5reactEv(ptr noundef nonnull align 8 dereferenceable(144) %DOCTEST_RB209)
          to label %invoke.cont242 unwind label %lpad225

invoke.cont242:                                   ; preds = %if.end241
  call void @_ZN7doctest6detail13ResultBuilderD2Ev(ptr noundef nonnull align 8 dereferenceable(144) %DOCTEST_RB209) #14
  br label %if.end245

ehcleanup243:                                     ; preds = %invoke.cont236, %invoke.cont228, %lpad225
  call void @_ZN7doctest6detail13ResultBuilderD2Ev(ptr noundef nonnull align 8 dereferenceable(144) %DOCTEST_RB209) #14
  br label %ehcleanup249

if.else244:                                       ; preds = %invoke.cont204
  br label %if.end245

if.end245:                                        ; preds = %if.else244, %invoke.cont242
  br label %do.cond246

do.cond246:                                       ; preds = %if.end245
  br label %do.end247

do.end247:                                        ; preds = %do.cond246
  store i8 0, ptr @_ZN12_GLOBAL__N_120next_construct_failsE, align 1
  br label %if.end248

if.end248:                                        ; preds = %do.end247, %invoke.cont171
  call void @_ZN7doctest6detail7SubcaseD1Ev(ptr noundef nonnull align 8 dereferenceable(41) %ref.tmp164) #14
  br label %if.end250

ehcleanup249:                                     ; preds = %ehcleanup243, %lpad212, %ehcleanup200, %lpad179, %lpad170
  call void @_ZN7doctest6detail7SubcaseD1Ev(ptr noundef nonnull align 8 dereferenceable(41) %ref.tmp164) #14
  br label %ehcleanup251

if.end250:                                        ; preds = %if.end248, %invoke.cont10
  call void @_ZN7doctest6detail7SubcaseD1Ev(ptr noundef nonnull align 8 dereferenceable(41) %ref.tmp4) #14
  invoke void @_ZN7doctest6StringC1EPKc(ptr noundef nonnull align 8 dereferenceable(24) %ref.tmp253, ptr noundef @.str.25)
          to label %invoke.cont254 unwind label %lpad2

invoke.cont254:                                   ; preds = %if.end250
  invoke void @_ZN7doctest6detail7SubcaseC1ERKNS_6StringEPKci(ptr noundef nonnull align 8 dereferenceable(41) %ref.tmp252, ptr noundef nonnull align 8 dereferenceable(24) %ref.tmp253, ptr noundef @.str.2, i32 noundef 168)
          to label %invoke.cont256 unwind label %lpad255

invoke.cont256:                                   ; preds = %invoke.cont254
  call void @_ZN7doctest6StringD1Ev(ptr noundef nonnull align 8 dereferenceable(24) %ref.tmp253) #14
  store ptr %ref.tmp252, ptr %DOCTEST_ANON_SUBCASE_12, align 8
  %148 = load ptr, ptr %DOCTEST_ANON_SUBCASE_12, align 8
  %call260 = invoke noundef zeroext i1 @_ZNK7doctest6detail7SubcasecvbEv(ptr noundef nonnull align 8 dereferenceable(41) %148)
          to label %invoke.cont259 unwind label %lpad258

invoke.cont259:                                   ; preds = %invoke.cont256
  br i1 %call260, label %if.then261, label %if.end341

if.then261:                                       ; preds = %invoke.cont259
  store i8 0, ptr @_ZN12_GLOBAL__N_120next_construct_failsE, align 1
  call void @_ZNSaIcEC1Ev(ptr noundef nonnull align 1 dereferenceable(1) %ref.tmp262) #14
  invoke void @_ZNSt7__cxx1112basic_stringIcSt11char_traitsIcESaIcEEC1EPKcRKS3_(ptr noundef nonnull align 8 dereferenceable(32) %v, ptr noundef @.str.26, ptr noundef nonnull align 1 dereferenceable(1) %ref.tmp262)
          to label %invoke.cont264 unwind label %lpad263

invoke.cont264:                                   ; preds = %if.then261
  call void @_ZNSaIcED1Ev(ptr noundef nonnull align 1 dereferenceable(1) %ref.tmp262) #14
  br label %do.body266

do.body266:                                       ; preds = %invoke.cont264
  invoke void @_ZN7doctest6StringC1EPKc(ptr noundef nonnull align 8 dereferenceable(24) %ref.tmp268, ptr noundef @.str)
          to label %invoke.cont270 unwind label %lpad269

invoke.cont270:                                   ; preds = %do.body266
  invoke void @_ZN7doctest6detail13ResultBuilderC1ENS_10assertType4EnumEPKciS5_S5_RKNS_6StringE(ptr noundef nonnull align 8 dereferenceable(144) %DOCTEST_RB267, i32 noundef 130, ptr noundef @.str.2, i32 noundef 172, ptr noundef @.str.27, ptr noundef @.str, ptr noundef nonnull align 8 dereferenceable(24) %ref.tmp268)
          to label %invoke.cont272 unwind label %lpad271

invoke.cont272:                                   ; preds = %invoke.cont270
  call void @_ZN7doctest6StringD1Ev(ptr noundef nonnull align 8 dereferenceable(24) %ref.tmp268) #14
  invoke void @_ZN8nlohmann16json_abi_v3_11_310basic_jsonISt3mapSt6vectorNSt7__cxx1112basic_stringIcSt11char_traitsIcESaIcEEEblmdN12_GLOBAL__N_112my_allocatorENS0_14adl_serializerES3_IhSaIhEEvE10json_valueC2ERKS9_(ptr noundef nonnull align 8 dereferenceable(8) %ref.tmp274, ptr noundef nonnull align 8 dereferenceable(32) %v)
          to label %invoke.cont276 unwind label %lpad275

invoke.cont276:                                   ; preds = %invoke.cont272
  %149 = load ptr, ptr %ref.tmp274, align 8
  invoke void @_ZN12_GLOBAL__N_121my_allocator_clean_upINSt7__cxx1112basic_stringIcSt11char_traitsIcESaIcEEEEEvPT_(ptr noundef %149)
          to label %invoke.cont277 unwind label %lpad275

invoke.cont277:                                   ; preds = %invoke.cont276
  br label %try.cont286

ehcleanup251:                                     ; preds = %ehcleanup249, %lpad167, %ehcleanup163, %lpad81, %ehcleanup77, %lpad16, %lpad9
  call void @_ZN7doctest6detail7SubcaseD1Ev(ptr noundef nonnull align 8 dereferenceable(41) %ref.tmp4) #14
  br label %ehcleanup344

lpad255:                                          ; preds = %invoke.cont254
  %150 = landingpad { ptr, i32 }
          cleanup
  %151 = extractvalue { ptr, i32 } %150, 0
  store ptr %151, ptr %exn.slot, align 8
  %152 = extractvalue { ptr, i32 } %150, 1
  store i32 %152, ptr %ehselector.slot, align 4
  call void @_ZN7doctest6StringD1Ev(ptr noundef nonnull align 8 dereferenceable(24) %ref.tmp253) #14
  br label %ehcleanup344

lpad258:                                          ; preds = %invoke.cont256
  %153 = landingpad { ptr, i32 }
          cleanup
  %154 = extractvalue { ptr, i32 } %153, 0
  store ptr %154, ptr %exn.slot, align 8
  %155 = extractvalue { ptr, i32 } %153, 1
  store i32 %155, ptr %ehselector.slot, align 4
  br label %ehcleanup342

lpad263:                                          ; preds = %if.then261
  %156 = landingpad { ptr, i32 }
          cleanup
  %157 = extractvalue { ptr, i32 } %156, 0
  store ptr %157, ptr %exn.slot, align 8
  %158 = extractvalue { ptr, i32 } %156, 1
  store i32 %158, ptr %ehselector.slot, align 4
  call void @_ZNSaIcED1Ev(ptr noundef nonnull align 1 dereferenceable(1) %ref.tmp262) #14
  br label %ehcleanup342

lpad269:                                          ; preds = %if.then300, %do.body295, %do.body266
  %159 = landingpad { ptr, i32 }
          cleanup
  %160 = extractvalue { ptr, i32 } %159, 0
  store ptr %160, ptr %exn.slot, align 8
  %161 = extractvalue { ptr, i32 } %159, 1
  store i32 %161, ptr %ehselector.slot, align 4
  br label %ehcleanup340

lpad271:                                          ; preds = %invoke.cont270
  %162 = landingpad { ptr, i32 }
          cleanup
  %163 = extractvalue { ptr, i32 } %162, 0
  store ptr %163, ptr %exn.slot, align 8
  %164 = extractvalue { ptr, i32 } %162, 1
  store i32 %164, ptr %ehselector.slot, align 4
  call void @_ZN7doctest6StringD1Ev(ptr noundef nonnull align 8 dereferenceable(24) %ref.tmp268) #14
  br label %ehcleanup340

lpad275:                                          ; preds = %invoke.cont276, %invoke.cont272
  %165 = landingpad { ptr, i32 }
          catch ptr null
  %166 = extractvalue { ptr, i32 } %165, 0
  store ptr %166, ptr %exn.slot, align 8
  %167 = extractvalue { ptr, i32 } %165, 1
  store i32 %167, ptr %ehselector.slot, align 4
  br label %catch278

catch278:                                         ; preds = %lpad275
  %exn279 = load ptr, ptr %exn.slot, align 8
  %168 = call ptr @__cxa_begin_catch(ptr %exn279) #14
  invoke void @_ZN7doctest6detail13ResultBuilder18translateExceptionEv(ptr noundef nonnull align 8 dereferenceable(144) %DOCTEST_RB267)
          to label %invoke.cont281 unwind label %lpad280

invoke.cont281:                                   ; preds = %catch278
  invoke void @__cxa_end_catch()
          to label %invoke.cont283 unwind label %lpad282

invoke.cont283:                                   ; preds = %invoke.cont281
  br label %try.cont286

try.cont286:                                      ; preds = %invoke.cont283, %invoke.cont277
  %call288 = invoke noundef zeroext i1 @_ZN7doctest6detail13ResultBuilder3logEv(ptr noundef nonnull align 8 dereferenceable(144) %DOCTEST_RB267)
          to label %invoke.cont287 unwind label %lpad282

invoke.cont287:                                   ; preds = %try.cont286
  br i1 %call288, label %if.then289, label %if.end290

if.then289:                                       ; preds = %invoke.cont287
  call void asm sideeffect "int $$3\0A", "~{dirflag},~{fpsr},~{flags}"() #14, !srcloc !12
  br label %if.end290

lpad280:                                          ; preds = %catch278
  %169 = landingpad { ptr, i32 }
          cleanup
  %170 = extractvalue { ptr, i32 } %169, 0
  store ptr %170, ptr %exn.slot, align 8
  %171 = extractvalue { ptr, i32 } %169, 1
  store i32 %171, ptr %ehselector.slot, align 4
  invoke void @__cxa_end_catch()
          to label %invoke.cont285 unwind label %terminate.lpad

lpad282:                                          ; preds = %if.end290, %try.cont286, %invoke.cont281
  %172 = landingpad { ptr, i32 }
          cleanup
  %173 = extractvalue { ptr, i32 } %172, 0
  store ptr %173, ptr %exn.slot, align 8
  %174 = extractvalue { ptr, i32 } %172, 1
  store i32 %174, ptr %ehselector.slot, align 4
  br label %ehcleanup292

invoke.cont285:                                   ; preds = %lpad280
  br label %ehcleanup292

if.end290:                                        ; preds = %if.then289, %invoke.cont287
  invoke void @_ZNK7doctest6detail13ResultBuilder5reactEv(ptr noundef nonnull align 8 dereferenceable(144) %DOCTEST_RB267)
          to label %invoke.cont291 unwind label %lpad282

invoke.cont291:                                   ; preds = %if.end290
  call void @_ZN7doctest6detail13ResultBuilderD2Ev(ptr noundef nonnull align 8 dereferenceable(144) %DOCTEST_RB267) #14
  br label %do.cond293

do.cond293:                                       ; preds = %invoke.cont291
  br label %do.end294

do.end294:                                        ; preds = %do.cond293
  store i8 1, ptr @_ZN12_GLOBAL__N_120next_construct_failsE, align 1
  br label %do.body295

do.body295:                                       ; preds = %do.end294
  %call297 = invoke noundef ptr @_ZN7doctest17getContextOptionsEv()
          to label %invoke.cont296 unwind label %lpad269

invoke.cont296:                                   ; preds = %do.body295
  %no_throw298 = getelementptr inbounds %"struct.doctest::ContextOptions", ptr %call297, i32 0, i32 16
  %175 = load i8, ptr %no_throw298, align 2
  %tobool299 = trunc i8 %175 to i1
  br i1 %tobool299, label %if.else336, label %if.then300

if.then300:                                       ; preds = %invoke.cont296
  invoke void @_ZN7doctest6StringC1EPKc(ptr noundef nonnull align 8 dereferenceable(24) %ref.tmp302, ptr noundef @.str)
          to label %invoke.cont303 unwind label %lpad269

invoke.cont303:                                   ; preds = %if.then300
  invoke void @_ZN7doctest6detail13ResultBuilderC1ENS_10assertType4EnumEPKciS5_S5_RKNS_6StringE(ptr noundef nonnull align 8 dereferenceable(144) %DOCTEST_RB301, i32 noundef 34, ptr noundef @.str.2, i32 noundef 174, ptr noundef @.str.28, ptr noundef @.str.9, ptr noundef nonnull align 8 dereferenceable(24) %ref.tmp302)
          to label %invoke.cont305 unwind label %lpad304

invoke.cont305:                                   ; preds = %invoke.cont303
  call void @_ZN7doctest6StringD1Ev(ptr noundef nonnull align 8 dereferenceable(24) %ref.tmp302) #14
  invoke void @_ZN8nlohmann16json_abi_v3_11_310basic_jsonISt3mapSt6vectorNSt7__cxx1112basic_stringIcSt11char_traitsIcESaIcEEEblmdN12_GLOBAL__N_112my_allocatorENS0_14adl_serializerES3_IhSaIhEEvE10json_valueC2ERKS9_(ptr noundef nonnull align 8 dereferenceable(8) %agg.tmp.ensured307, ptr noundef nonnull align 8 dereferenceable(32) %v)
          to label %invoke.cont309 unwind label %lpad308

invoke.cont309:                                   ; preds = %invoke.cont305
  br label %try.cont329

ehcleanup292:                                     ; preds = %invoke.cont285, %lpad282
  call void @_ZN7doctest6detail13ResultBuilderD2Ev(ptr noundef nonnull align 8 dereferenceable(144) %DOCTEST_RB267) #14
  br label %ehcleanup340

lpad304:                                          ; preds = %invoke.cont303
  %176 = landingpad { ptr, i32 }
          cleanup
  %177 = extractvalue { ptr, i32 } %176, 0
  store ptr %177, ptr %exn.slot, align 8
  %178 = extractvalue { ptr, i32 } %176, 1
  store i32 %178, ptr %ehselector.slot, align 4
  call void @_ZN7doctest6StringD1Ev(ptr noundef nonnull align 8 dereferenceable(24) %ref.tmp302) #14
  br label %ehcleanup340

lpad308:                                          ; preds = %invoke.cont305
  %179 = landingpad { ptr, i32 }
          catch ptr @_ZTISt9bad_alloc
          catch ptr null
  %180 = extractvalue { ptr, i32 } %179, 0
  store ptr %180, ptr %exn.slot, align 8
  %181 = extractvalue { ptr, i32 } %179, 1
  store i32 %181, ptr %ehselector.slot, align 4
  br label %catch.dispatch310

catch.dispatch310:                                ; preds = %lpad308
  %sel311 = load i32, ptr %ehselector.slot, align 4
  %182 = call i32 @llvm.eh.typeid.for(ptr @_ZTISt9bad_alloc) #14
  %matches312 = icmp eq i32 %sel311, %182
  br i1 %matches312, label %catch321, label %catch313

catch321:                                         ; preds = %catch.dispatch310
  %exn322 = load ptr, ptr %exn.slot, align 8
  %183 = call ptr @__cxa_begin_catch(ptr %exn322) #14
  store ptr %183, ptr %3, align 8
  invoke void @_ZN7doctest6detail13ResultBuilder18translateExceptionEv(ptr noundef nonnull align 8 dereferenceable(144) %DOCTEST_RB301)
          to label %invoke.cont324 unwind label %lpad323

invoke.cont324:                                   ; preds = %catch321
  %m_threw_as325 = getelementptr inbounds %"struct.doctest::AssertData", ptr %DOCTEST_RB301, i32 0, i32 9
  store i8 1, ptr %m_threw_as325, align 8
  invoke void @__cxa_end_catch()
          to label %invoke.cont326 unwind label %lpad317

invoke.cont326:                                   ; preds = %invoke.cont324
  br label %try.cont329

try.cont329:                                      ; preds = %invoke.cont318, %invoke.cont326, %invoke.cont309
  %call331 = invoke noundef zeroext i1 @_ZN7doctest6detail13ResultBuilder3logEv(ptr noundef nonnull align 8 dereferenceable(144) %DOCTEST_RB301)
          to label %invoke.cont330 unwind label %lpad317

invoke.cont330:                                   ; preds = %try.cont329
  br i1 %call331, label %if.then332, label %if.end333

if.then332:                                       ; preds = %invoke.cont330
  call void asm sideeffect "int $$3\0A", "~{dirflag},~{fpsr},~{flags}"() #14, !srcloc !13
  br label %if.end333

catch313:                                         ; preds = %catch.dispatch310
  %exn314 = load ptr, ptr %exn.slot, align 8
  %184 = call ptr @__cxa_begin_catch(ptr %exn314) #14
  invoke void @_ZN7doctest6detail13ResultBuilder18translateExceptionEv(ptr noundef nonnull align 8 dereferenceable(144) %DOCTEST_RB301)
          to label %invoke.cont316 unwind label %lpad315

invoke.cont316:                                   ; preds = %catch313
  invoke void @__cxa_end_catch()
          to label %invoke.cont318 unwind label %lpad317

invoke.cont318:                                   ; preds = %invoke.cont316
  br label %try.cont329

lpad315:                                          ; preds = %catch313
  %185 = landingpad { ptr, i32 }
          cleanup
  %186 = extractvalue { ptr, i32 } %185, 0
  store ptr %186, ptr %exn.slot, align 8
  %187 = extractvalue { ptr, i32 } %185, 1
  store i32 %187, ptr %ehselector.slot, align 4
  invoke void @__cxa_end_catch()
          to label %invoke.cont320 unwind label %terminate.lpad

lpad317:                                          ; preds = %if.end333, %invoke.cont316, %try.cont329, %invoke.cont324
  %188 = landingpad { ptr, i32 }
          cleanup
  %189 = extractvalue { ptr, i32 } %188, 0
  store ptr %189, ptr %exn.slot, align 8
  %190 = extractvalue { ptr, i32 } %188, 1
  store i32 %190, ptr %ehselector.slot, align 4
  br label %ehcleanup335

invoke.cont320:                                   ; preds = %lpad315
  br label %ehcleanup335

lpad323:                                          ; preds = %catch321
  %191 = landingpad { ptr, i32 }
          cleanup
  %192 = extractvalue { ptr, i32 } %191, 0
  store ptr %192, ptr %exn.slot, align 8
  %193 = extractvalue { ptr, i32 } %191, 1
  store i32 %193, ptr %ehselector.slot, align 4
  invoke void @__cxa_end_catch()
          to label %invoke.cont328 unwind label %terminate.lpad

invoke.cont328:                                   ; preds = %lpad323
  br label %ehcleanup335

if.end333:                                        ; preds = %if.then332, %invoke.cont330
  invoke void @_ZNK7doctest6detail13ResultBuilder5reactEv(ptr noundef nonnull align 8 dereferenceable(144) %DOCTEST_RB301)
          to label %invoke.cont334 unwind label %lpad317

invoke.cont334:                                   ; preds = %if.end333
  call void @_ZN7doctest6detail13ResultBuilderD2Ev(ptr noundef nonnull align 8 dereferenceable(144) %DOCTEST_RB301) #14
  br label %if.end337

ehcleanup335:                                     ; preds = %invoke.cont328, %invoke.cont320, %lpad317
  call void @_ZN7doctest6detail13ResultBuilderD2Ev(ptr noundef nonnull align 8 dereferenceable(144) %DOCTEST_RB301) #14
  br label %ehcleanup340

if.else336:                                       ; preds = %invoke.cont296
  br label %if.end337

if.end337:                                        ; preds = %if.else336, %invoke.cont334
  br label %do.cond338

do.cond338:                                       ; preds = %if.end337
  br label %do.end339

do.end339:                                        ; preds = %do.cond338
  store i8 0, ptr @_ZN12_GLOBAL__N_120next_construct_failsE, align 1
  call void @_ZNSt7__cxx1112basic_stringIcSt11char_traitsIcESaIcEED1Ev(ptr noundef nonnull align 8 dereferenceable(32) %v) #14
  br label %if.end341

ehcleanup340:                                     ; preds = %ehcleanup335, %lpad304, %ehcleanup292, %lpad271, %lpad269
  call void @_ZNSt7__cxx1112basic_stringIcSt11char_traitsIcESaIcEED1Ev(ptr noundef nonnull align 8 dereferenceable(32) %v) #14
  br label %ehcleanup342

if.end341:                                        ; preds = %do.end339, %invoke.cont259
  call void @_ZN7doctest6detail7SubcaseD1Ev(ptr noundef nonnull align 8 dereferenceable(41) %ref.tmp252) #14
  br label %if.end343

ehcleanup342:                                     ; preds = %ehcleanup340, %lpad263, %lpad258
  call void @_ZN7doctest6detail7SubcaseD1Ev(ptr noundef nonnull align 8 dereferenceable(41) %ref.tmp252) #14
  br label %ehcleanup344

if.end343:                                        ; preds = %if.end341, %invoke.cont3
  call void @_ZN7doctest6detail7SubcaseD1Ev(ptr noundef nonnull align 8 dereferenceable(41) %ref.tmp) #14
  call void @_ZN7doctest6StringC1EPKc(ptr noundef nonnull align 8 dereferenceable(24) %ref.tmp346, ptr noundef @.str.29)
  invoke void @_ZN7doctest6detail7SubcaseC1ERKNS_6StringEPKci(ptr noundef nonnull align 8 dereferenceable(41) %ref.tmp345, ptr noundef nonnull align 8 dereferenceable(24) %ref.tmp346, ptr noundef @.str.2, i32 noundef 179)
          to label %invoke.cont348 unwind label %lpad347

invoke.cont348:                                   ; preds = %if.end343
  call void @_ZN7doctest6StringD1Ev(ptr noundef nonnull align 8 dereferenceable(24) %ref.tmp346) #14
  store ptr %ref.tmp345, ptr %DOCTEST_ANON_SUBCASE_13, align 8
  %194 = load ptr, ptr %DOCTEST_ANON_SUBCASE_13, align 8
  %call352 = invoke noundef zeroext i1 @_ZNK7doctest6detail7SubcasecvbEv(ptr noundef nonnull align 8 dereferenceable(41) %194)
          to label %invoke.cont351 unwind label %lpad350

invoke.cont351:                                   ; preds = %invoke.cont348
  br i1 %call352, label %if.then353, label %if.end768

if.then353:                                       ; preds = %invoke.cont351
  invoke void @_ZN7doctest6StringC1EPKc(ptr noundef nonnull align 8 dereferenceable(24) %ref.tmp355, ptr noundef @.str.30)
          to label %invoke.cont356 unwind label %lpad350

invoke.cont356:                                   ; preds = %if.then353
  invoke void @_ZN7doctest6detail7SubcaseC1ERKNS_6StringEPKci(ptr noundef nonnull align 8 dereferenceable(41) %ref.tmp354, ptr noundef nonnull align 8 dereferenceable(24) %ref.tmp355, ptr noundef @.str.2, i32 noundef 181)
          to label %invoke.cont358 unwind label %lpad357

invoke.cont358:                                   ; preds = %invoke.cont356
  call void @_ZN7doctest6StringD1Ev(ptr noundef nonnull align 8 dereferenceable(24) %ref.tmp355) #14
  store ptr %ref.tmp354, ptr %DOCTEST_ANON_SUBCASE_14, align 8
  %195 = load ptr, ptr %DOCTEST_ANON_SUBCASE_14, align 8
  %call362 = invoke noundef zeroext i1 @_ZNK7doctest6detail7SubcasecvbEv(ptr noundef nonnull align 8 dereferenceable(41) %195)
          to label %invoke.cont361 unwind label %lpad360

invoke.cont361:                                   ; preds = %invoke.cont358
  br i1 %call362, label %if.then363, label %if.end461

if.then363:                                       ; preds = %invoke.cont361
  store i8 0, ptr @_ZN12_GLOBAL__N_120next_construct_failsE, align 1
  %arrayinit.begin = getelementptr inbounds [1 x %"struct.std::pair.68"], ptr %ref.tmp365, i64 0, i64 0
  store ptr %arrayinit.begin, ptr %arrayinit.endOfInit, align 8
  invoke void @_ZNSt4pairIKNSt7__cxx1112basic_stringIcSt11char_traitsIcESaIcEEES5_EC2IRA4_KcSB_TnNSt9enable_ifIXaaclsr5_PCCPE22_MoveConstructiblePairIT_T0_EEclsr5_PCCPE30_ImplicitlyMoveConvertiblePairISD_SE_EEEbE4typeELb1EEEOSD_OSE_(ptr noundef nonnull align 8 dereferenceable(64) %arrayinit.begin, ptr noundef nonnull align 1 dereferenceable(4) @.str.26, ptr noundef nonnull align 1 dereferenceable(4) @.str.31)
          to label %invoke.cont367 unwind label %lpad366

invoke.cont367:                                   ; preds = %if.then363
  %_M_array = getelementptr inbounds %"class.std::initializer_list", ptr %agg.tmp, i32 0, i32 0
  %arraystart = getelementptr inbounds [1 x %"struct.std::pair.68"], ptr %ref.tmp365, i64 0, i64 0
  store ptr %arraystart, ptr %_M_array, align 8
  %_M_len = getelementptr inbounds %"class.std::initializer_list", ptr %agg.tmp, i32 0, i32 1
  store i64 1, ptr %_M_len, align 8
  call void @_ZNSaISt4pairIKNSt7__cxx1112basic_stringIcSt11char_traitsIcESaIcEEES5_EEC2Ev(ptr noundef nonnull align 1 dereferenceable(1) %ref.tmp371) #14
  %196 = getelementptr inbounds { ptr, i64 }, ptr %agg.tmp, i32 0, i32 0
  %197 = load ptr, ptr %196, align 8
  %198 = getelementptr inbounds { ptr, i64 }, ptr %agg.tmp, i32 0, i32 1
  %199 = load i64, ptr %198, align 8
  invoke void @_ZNSt3mapINSt7__cxx1112basic_stringIcSt11char_traitsIcESaIcEEES5_St4lessIS5_ESaISt4pairIKS5_S5_EEEC2ESt16initializer_listISA_ERKS7_RKSB_(ptr noundef nonnull align 8 dereferenceable(48) %v364, ptr %197, i64 %199, ptr noundef nonnull align 1 dereferenceable(1) %ref.tmp370, ptr noundef nonnull align 1 dereferenceable(1) %ref.tmp371)
          to label %invoke.cont373 unwind label %lpad372

invoke.cont373:                                   ; preds = %invoke.cont367
  call void @_ZNSaISt4pairIKNSt7__cxx1112basic_stringIcSt11char_traitsIcESaIcEEES5_EED2Ev(ptr noundef nonnull align 1 dereferenceable(1) %ref.tmp371) #14
  %array.begin = getelementptr inbounds [1 x %"struct.std::pair.68"], ptr %ref.tmp365, i32 0, i32 0
  %200 = getelementptr inbounds %"struct.std::pair.68", ptr %array.begin, i64 1
  br label %arraydestroy.body375

arraydestroy.body375:                             ; preds = %arraydestroy.body375, %invoke.cont373
  %arraydestroy.elementPast376 = phi ptr [ %200, %invoke.cont373 ], [ %arraydestroy.element377, %arraydestroy.body375 ]
  %arraydestroy.element377 = getelementptr inbounds %"struct.std::pair.68", ptr %arraydestroy.elementPast376, i64 -1
  call void @_ZNSt4pairIKNSt7__cxx1112basic_stringIcSt11char_traitsIcESaIcEEES5_ED2Ev(ptr noundef nonnull align 8 dereferenceable(64) %arraydestroy.element377) #14
  %arraydestroy.done378 = icmp eq ptr %arraydestroy.element377, %array.begin
  br i1 %arraydestroy.done378, label %arraydestroy.done379, label %arraydestroy.body375

arraydestroy.done379:                             ; preds = %arraydestroy.body375
  br label %do.body387

do.body387:                                       ; preds = %arraydestroy.done379
  invoke void @_ZN7doctest6StringC1EPKc(ptr noundef nonnull align 8 dereferenceable(24) %ref.tmp389, ptr noundef @.str)
          to label %invoke.cont391 unwind label %lpad390

invoke.cont391:                                   ; preds = %do.body387
  invoke void @_ZN7doctest6detail13ResultBuilderC1ENS_10assertType4EnumEPKciS5_S5_RKNS_6StringE(ptr noundef nonnull align 8 dereferenceable(144) %DOCTEST_RB388, i32 noundef 130, ptr noundef @.str.2, i32 noundef 185, ptr noundef @.str.32, ptr noundef @.str, ptr noundef nonnull align 8 dereferenceable(24) %ref.tmp389)
          to label %invoke.cont393 unwind label %lpad392

invoke.cont393:                                   ; preds = %invoke.cont391
  call void @_ZN7doctest6StringD1Ev(ptr noundef nonnull align 8 dereferenceable(24) %ref.tmp389) #14
  invoke void @_ZN8nlohmann16json_abi_v3_11_310basic_jsonISt3mapSt6vectorNSt7__cxx1112basic_stringIcSt11char_traitsIcESaIcEEEblmdN12_GLOBAL__N_112my_allocatorENS0_14adl_serializerES3_IhSaIhEEvEC2IRKS2_IS9_S9_St4lessIS9_ESaISt4pairIKS9_S9_EEESN_TnNSt9enable_ifIXaantsr6detail13is_basic_jsonIT0_EE5valuesr6detail18is_compatible_typeISF_SR_EE5valueEiE4typeELi0EEEOT_(ptr noundef nonnull align 8 dereferenceable(16) %agg.tmp.ensured395, ptr noundef nonnull align 8 dereferenceable(48) %v364)
          to label %invoke.cont397 unwind label %lpad396

invoke.cont397:                                   ; preds = %invoke.cont393
  call void @_ZN8nlohmann16json_abi_v3_11_310basic_jsonISt3mapSt6vectorNSt7__cxx1112basic_stringIcSt11char_traitsIcESaIcEEEblmdN12_GLOBAL__N_112my_allocatorENS0_14adl_serializerES3_IhSaIhEEvED2Ev(ptr noundef nonnull align 8 dereferenceable(16) %agg.tmp.ensured395) #14
  br label %try.cont406

ehcleanup344:                                     ; preds = %ehcleanup342, %lpad255, %ehcleanup251, %lpad7, %lpad2
  call void @_ZN7doctest6detail7SubcaseD1Ev(ptr noundef nonnull align 8 dereferenceable(41) %ref.tmp) #14
  br label %eh.resume

lpad347:                                          ; preds = %if.end343
  %201 = landingpad { ptr, i32 }
          cleanup
  %202 = extractvalue { ptr, i32 } %201, 0
  store ptr %202, ptr %exn.slot, align 8
  %203 = extractvalue { ptr, i32 } %201, 1
  store i32 %203, ptr %ehselector.slot, align 4
  call void @_ZN7doctest6StringD1Ev(ptr noundef nonnull align 8 dereferenceable(24) %ref.tmp346) #14
  br label %eh.resume

lpad350:                                          ; preds = %if.end676, %if.end592, %if.end461, %if.then353, %invoke.cont348
  %204 = landingpad { ptr, i32 }
          cleanup
  %205 = extractvalue { ptr, i32 } %204, 0
  store ptr %205, ptr %exn.slot, align 8
  %206 = extractvalue { ptr, i32 } %204, 1
  store i32 %206, ptr %ehselector.slot, align 4
  br label %ehcleanup769

lpad357:                                          ; preds = %invoke.cont356
  %207 = landingpad { ptr, i32 }
          cleanup
  %208 = extractvalue { ptr, i32 } %207, 0
  store ptr %208, ptr %exn.slot, align 8
  %209 = extractvalue { ptr, i32 } %207, 1
  store i32 %209, ptr %ehselector.slot, align 4
  call void @_ZN7doctest6StringD1Ev(ptr noundef nonnull align 8 dereferenceable(24) %ref.tmp355) #14
  br label %ehcleanup769

lpad360:                                          ; preds = %invoke.cont358
  %210 = landingpad { ptr, i32 }
          cleanup
  %211 = extractvalue { ptr, i32 } %210, 0
  store ptr %211, ptr %exn.slot, align 8
  %212 = extractvalue { ptr, i32 } %210, 1
  store i32 %212, ptr %ehselector.slot, align 4
  br label %ehcleanup462

lpad366:                                          ; preds = %if.then363
  %213 = landingpad { ptr, i32 }
          cleanup
  %214 = extractvalue { ptr, i32 } %213, 0
  store ptr %214, ptr %exn.slot, align 8
  %215 = extractvalue { ptr, i32 } %213, 1
  store i32 %215, ptr %ehselector.slot, align 4
  %216 = load ptr, ptr %arrayinit.endOfInit, align 8
  %arraydestroy.isempty = icmp eq ptr %arrayinit.begin, %216
  br i1 %arraydestroy.isempty, label %arraydestroy.done369, label %arraydestroy.body

arraydestroy.body:                                ; preds = %arraydestroy.body, %lpad366
  %arraydestroy.elementPast = phi ptr [ %216, %lpad366 ], [ %arraydestroy.element, %arraydestroy.body ]
  %arraydestroy.element = getelementptr inbounds %"struct.std::pair.68", ptr %arraydestroy.elementPast, i64 -1
  call void @_ZNSt4pairIKNSt7__cxx1112basic_stringIcSt11char_traitsIcESaIcEEES5_ED2Ev(ptr noundef nonnull align 8 dereferenceable(64) %arraydestroy.element) #14
  %arraydestroy.done = icmp eq ptr %arraydestroy.element, %arrayinit.begin
  br i1 %arraydestroy.done, label %arraydestroy.done369, label %arraydestroy.body

arraydestroy.done369:                             ; preds = %arraydestroy.body, %lpad366
  br label %ehcleanup462

lpad372:                                          ; preds = %invoke.cont367
  %217 = landingpad { ptr, i32 }
          cleanup
  %218 = extractvalue { ptr, i32 } %217, 0
  store ptr %218, ptr %exn.slot, align 8
  %219 = extractvalue { ptr, i32 } %217, 1
  store i32 %219, ptr %ehselector.slot, align 4
  call void @_ZNSaISt4pairIKNSt7__cxx1112basic_stringIcSt11char_traitsIcESaIcEEES5_EED2Ev(ptr noundef nonnull align 1 dereferenceable(1) %ref.tmp371) #14
  %array.begin381 = getelementptr inbounds [1 x %"struct.std::pair.68"], ptr %ref.tmp365, i32 0, i32 0
  %220 = getelementptr inbounds %"struct.std::pair.68", ptr %array.begin381, i64 1
  br label %arraydestroy.body382

arraydestroy.body382:                             ; preds = %arraydestroy.body382, %lpad372
  %arraydestroy.elementPast383 = phi ptr [ %220, %lpad372 ], [ %arraydestroy.element384, %arraydestroy.body382 ]
  %arraydestroy.element384 = getelementptr inbounds %"struct.std::pair.68", ptr %arraydestroy.elementPast383, i64 -1
  call void @_ZNSt4pairIKNSt7__cxx1112basic_stringIcSt11char_traitsIcESaIcEEES5_ED2Ev(ptr noundef nonnull align 8 dereferenceable(64) %arraydestroy.element384) #14
  %arraydestroy.done385 = icmp eq ptr %arraydestroy.element384, %array.begin381
  br i1 %arraydestroy.done385, label %arraydestroy.done386, label %arraydestroy.body382

arraydestroy.done386:                             ; preds = %arraydestroy.body382
  br label %ehcleanup462

lpad390:                                          ; preds = %if.then420, %do.body415, %do.body387
  %221 = landingpad { ptr, i32 }
          cleanup
  %222 = extractvalue { ptr, i32 } %221, 0
  store ptr %222, ptr %exn.slot, align 8
  %223 = extractvalue { ptr, i32 } %221, 1
  store i32 %223, ptr %ehselector.slot, align 4
  br label %ehcleanup460

lpad392:                                          ; preds = %invoke.cont391
  %224 = landingpad { ptr, i32 }
          cleanup
  %225 = extractvalue { ptr, i32 } %224, 0
  store ptr %225, ptr %exn.slot, align 8
  %226 = extractvalue { ptr, i32 } %224, 1
  store i32 %226, ptr %ehselector.slot, align 4
  call void @_ZN7doctest6StringD1Ev(ptr noundef nonnull align 8 dereferenceable(24) %ref.tmp389) #14
  br label %ehcleanup460

lpad396:                                          ; preds = %invoke.cont393
  %227 = landingpad { ptr, i32 }
          catch ptr null
  %228 = extractvalue { ptr, i32 } %227, 0
  store ptr %228, ptr %exn.slot, align 8
  %229 = extractvalue { ptr, i32 } %227, 1
  store i32 %229, ptr %ehselector.slot, align 4
  br label %catch398

catch398:                                         ; preds = %lpad396
  %exn399 = load ptr, ptr %exn.slot, align 8
  %230 = call ptr @__cxa_begin_catch(ptr %exn399) #14
  invoke void @_ZN7doctest6detail13ResultBuilder18translateExceptionEv(ptr noundef nonnull align 8 dereferenceable(144) %DOCTEST_RB388)
          to label %invoke.cont401 unwind label %lpad400

invoke.cont401:                                   ; preds = %catch398
  invoke void @__cxa_end_catch()
          to label %invoke.cont403 unwind label %lpad402

invoke.cont403:                                   ; preds = %invoke.cont401
  br label %try.cont406

try.cont406:                                      ; preds = %invoke.cont403, %invoke.cont397
  %call408 = invoke noundef zeroext i1 @_ZN7doctest6detail13ResultBuilder3logEv(ptr noundef nonnull align 8 dereferenceable(144) %DOCTEST_RB388)
          to label %invoke.cont407 unwind label %lpad402

invoke.cont407:                                   ; preds = %try.cont406
  br i1 %call408, label %if.then409, label %if.end410

if.then409:                                       ; preds = %invoke.cont407
  call void asm sideeffect "int $$3\0A", "~{dirflag},~{fpsr},~{flags}"() #14, !srcloc !14
  br label %if.end410

lpad400:                                          ; preds = %catch398
  %231 = landingpad { ptr, i32 }
          cleanup
  %232 = extractvalue { ptr, i32 } %231, 0
  store ptr %232, ptr %exn.slot, align 8
  %233 = extractvalue { ptr, i32 } %231, 1
  store i32 %233, ptr %ehselector.slot, align 4
  invoke void @__cxa_end_catch()
          to label %invoke.cont405 unwind label %terminate.lpad

lpad402:                                          ; preds = %if.end410, %try.cont406, %invoke.cont401
  %234 = landingpad { ptr, i32 }
          cleanup
  %235 = extractvalue { ptr, i32 } %234, 0
  store ptr %235, ptr %exn.slot, align 8
  %236 = extractvalue { ptr, i32 } %234, 1
  store i32 %236, ptr %ehselector.slot, align 4
  br label %ehcleanup412

invoke.cont405:                                   ; preds = %lpad400
  br label %ehcleanup412

if.end410:                                        ; preds = %if.then409, %invoke.cont407
  invoke void @_ZNK7doctest6detail13ResultBuilder5reactEv(ptr noundef nonnull align 8 dereferenceable(144) %DOCTEST_RB388)
          to label %invoke.cont411 unwind label %lpad402

invoke.cont411:                                   ; preds = %if.end410
  call void @_ZN7doctest6detail13ResultBuilderD2Ev(ptr noundef nonnull align 8 dereferenceable(144) %DOCTEST_RB388) #14
  br label %do.cond413

do.cond413:                                       ; preds = %invoke.cont411
  br label %do.end414

do.end414:                                        ; preds = %do.cond413
  store i8 1, ptr @_ZN12_GLOBAL__N_120next_construct_failsE, align 1
  br label %do.body415

do.body415:                                       ; preds = %do.end414
  %call417 = invoke noundef ptr @_ZN7doctest17getContextOptionsEv()
          to label %invoke.cont416 unwind label %lpad390

invoke.cont416:                                   ; preds = %do.body415
  %no_throw418 = getelementptr inbounds %"struct.doctest::ContextOptions", ptr %call417, i32 0, i32 16
  %237 = load i8, ptr %no_throw418, align 2
  %tobool419 = trunc i8 %237 to i1
  br i1 %tobool419, label %if.else456, label %if.then420

if.then420:                                       ; preds = %invoke.cont416
  invoke void @_ZN7doctest6StringC1EPKc(ptr noundef nonnull align 8 dereferenceable(24) %ref.tmp422, ptr noundef @.str)
          to label %invoke.cont423 unwind label %lpad390

invoke.cont423:                                   ; preds = %if.then420
  invoke void @_ZN7doctest6detail13ResultBuilderC1ENS_10assertType4EnumEPKciS5_S5_RKNS_6StringE(ptr noundef nonnull align 8 dereferenceable(144) %DOCTEST_RB421, i32 noundef 34, ptr noundef @.str.2, i32 noundef 187, ptr noundef @.str.32, ptr noundef @.str.9, ptr noundef nonnull align 8 dereferenceable(24) %ref.tmp422)
          to label %invoke.cont425 unwind label %lpad424

invoke.cont425:                                   ; preds = %invoke.cont423
  call void @_ZN7doctest6StringD1Ev(ptr noundef nonnull align 8 dereferenceable(24) %ref.tmp422) #14
  invoke void @_ZN8nlohmann16json_abi_v3_11_310basic_jsonISt3mapSt6vectorNSt7__cxx1112basic_stringIcSt11char_traitsIcESaIcEEEblmdN12_GLOBAL__N_112my_allocatorENS0_14adl_serializerES3_IhSaIhEEvEC2IRKS2_IS9_S9_St4lessIS9_ESaISt4pairIKS9_S9_EEESN_TnNSt9enable_ifIXaantsr6detail13is_basic_jsonIT0_EE5valuesr6detail18is_compatible_typeISF_SR_EE5valueEiE4typeELi0EEEOT_(ptr noundef nonnull align 8 dereferenceable(16) %agg.tmp.ensured427, ptr noundef nonnull align 8 dereferenceable(48) %v364)
          to label %invoke.cont429 unwind label %lpad428

invoke.cont429:                                   ; preds = %invoke.cont425
  call void @_ZN8nlohmann16json_abi_v3_11_310basic_jsonISt3mapSt6vectorNSt7__cxx1112basic_stringIcSt11char_traitsIcESaIcEEEblmdN12_GLOBAL__N_112my_allocatorENS0_14adl_serializerES3_IhSaIhEEvED2Ev(ptr noundef nonnull align 8 dereferenceable(16) %agg.tmp.ensured427) #14
  br label %try.cont449

ehcleanup412:                                     ; preds = %invoke.cont405, %lpad402
  call void @_ZN7doctest6detail13ResultBuilderD2Ev(ptr noundef nonnull align 8 dereferenceable(144) %DOCTEST_RB388) #14
  br label %ehcleanup460

lpad424:                                          ; preds = %invoke.cont423
  %238 = landingpad { ptr, i32 }
          cleanup
  %239 = extractvalue { ptr, i32 } %238, 0
  store ptr %239, ptr %exn.slot, align 8
  %240 = extractvalue { ptr, i32 } %238, 1
  store i32 %240, ptr %ehselector.slot, align 4
  call void @_ZN7doctest6StringD1Ev(ptr noundef nonnull align 8 dereferenceable(24) %ref.tmp422) #14
  br label %ehcleanup460

lpad428:                                          ; preds = %invoke.cont425
  %241 = landingpad { ptr, i32 }
          catch ptr @_ZTISt9bad_alloc
          catch ptr null
  %242 = extractvalue { ptr, i32 } %241, 0
  store ptr %242, ptr %exn.slot, align 8
  %243 = extractvalue { ptr, i32 } %241, 1
  store i32 %243, ptr %ehselector.slot, align 4
  br label %catch.dispatch430

catch.dispatch430:                                ; preds = %lpad428
  %sel431 = load i32, ptr %ehselector.slot, align 4
  %244 = call i32 @llvm.eh.typeid.for(ptr @_ZTISt9bad_alloc) #14
  %matches432 = icmp eq i32 %sel431, %244
  br i1 %matches432, label %catch441, label %catch433

catch441:                                         ; preds = %catch.dispatch430
  %exn442 = load ptr, ptr %exn.slot, align 8
  %245 = call ptr @__cxa_begin_catch(ptr %exn442) #14
  store ptr %245, ptr %4, align 8
  invoke void @_ZN7doctest6detail13ResultBuilder18translateExceptionEv(ptr noundef nonnull align 8 dereferenceable(144) %DOCTEST_RB421)
          to label %invoke.cont444 unwind label %lpad443

invoke.cont444:                                   ; preds = %catch441
  %m_threw_as445 = getelementptr inbounds %"struct.doctest::AssertData", ptr %DOCTEST_RB421, i32 0, i32 9
  store i8 1, ptr %m_threw_as445, align 8
  invoke void @__cxa_end_catch()
          to label %invoke.cont446 unwind label %lpad437

invoke.cont446:                                   ; preds = %invoke.cont444
  br label %try.cont449

try.cont449:                                      ; preds = %invoke.cont438, %invoke.cont446, %invoke.cont429
  %call451 = invoke noundef zeroext i1 @_ZN7doctest6detail13ResultBuilder3logEv(ptr noundef nonnull align 8 dereferenceable(144) %DOCTEST_RB421)
          to label %invoke.cont450 unwind label %lpad437

invoke.cont450:                                   ; preds = %try.cont449
  br i1 %call451, label %if.then452, label %if.end453

if.then452:                                       ; preds = %invoke.cont450
  call void asm sideeffect "int $$3\0A", "~{dirflag},~{fpsr},~{flags}"() #14, !srcloc !15
  br label %if.end453

catch433:                                         ; preds = %catch.dispatch430
  %exn434 = load ptr, ptr %exn.slot, align 8
  %246 = call ptr @__cxa_begin_catch(ptr %exn434) #14
  invoke void @_ZN7doctest6detail13ResultBuilder18translateExceptionEv(ptr noundef nonnull align 8 dereferenceable(144) %DOCTEST_RB421)
          to label %invoke.cont436 unwind label %lpad435

invoke.cont436:                                   ; preds = %catch433
  invoke void @__cxa_end_catch()
          to label %invoke.cont438 unwind label %lpad437

invoke.cont438:                                   ; preds = %invoke.cont436
  br label %try.cont449

lpad435:                                          ; preds = %catch433
  %247 = landingpad { ptr, i32 }
          cleanup
  %248 = extractvalue { ptr, i32 } %247, 0
  store ptr %248, ptr %exn.slot, align 8
  %249 = extractvalue { ptr, i32 } %247, 1
  store i32 %249, ptr %ehselector.slot, align 4
  invoke void @__cxa_end_catch()
          to label %invoke.cont440 unwind label %terminate.lpad

lpad437:                                          ; preds = %if.end453, %invoke.cont436, %try.cont449, %invoke.cont444
  %250 = landingpad { ptr, i32 }
          cleanup
  %251 = extractvalue { ptr, i32 } %250, 0
  store ptr %251, ptr %exn.slot, align 8
  %252 = extractvalue { ptr, i32 } %250, 1
  store i32 %252, ptr %ehselector.slot, align 4
  br label %ehcleanup455

invoke.cont440:                                   ; preds = %lpad435
  br label %ehcleanup455

lpad443:                                          ; preds = %catch441
  %253 = landingpad { ptr, i32 }
          cleanup
  %254 = extractvalue { ptr, i32 } %253, 0
  store ptr %254, ptr %exn.slot, align 8
  %255 = extractvalue { ptr, i32 } %253, 1
  store i32 %255, ptr %ehselector.slot, align 4
  invoke void @__cxa_end_catch()
          to label %invoke.cont448 unwind label %terminate.lpad

invoke.cont448:                                   ; preds = %lpad443
  br label %ehcleanup455

if.end453:                                        ; preds = %if.then452, %invoke.cont450
  invoke void @_ZNK7doctest6detail13ResultBuilder5reactEv(ptr noundef nonnull align 8 dereferenceable(144) %DOCTEST_RB421)
          to label %invoke.cont454 unwind label %lpad437

invoke.cont454:                                   ; preds = %if.end453
  call void @_ZN7doctest6detail13ResultBuilderD2Ev(ptr noundef nonnull align 8 dereferenceable(144) %DOCTEST_RB421) #14
  br label %if.end457

ehcleanup455:                                     ; preds = %invoke.cont448, %invoke.cont440, %lpad437
  call void @_ZN7doctest6detail13ResultBuilderD2Ev(ptr noundef nonnull align 8 dereferenceable(144) %DOCTEST_RB421) #14
  br label %ehcleanup460

if.else456:                                       ; preds = %invoke.cont416
  br label %if.end457

if.end457:                                        ; preds = %if.else456, %invoke.cont454
  br label %do.cond458

do.cond458:                                       ; preds = %if.end457
  br label %do.end459

do.end459:                                        ; preds = %do.cond458
  store i8 0, ptr @_ZN12_GLOBAL__N_120next_construct_failsE, align 1
  call void @_ZNSt3mapINSt7__cxx1112basic_stringIcSt11char_traitsIcESaIcEEES5_St4lessIS5_ESaISt4pairIKS5_S5_EEED2Ev(ptr noundef nonnull align 8 dereferenceable(48) %v364) #14
  br label %if.end461

ehcleanup460:                                     ; preds = %ehcleanup455, %lpad424, %ehcleanup412, %lpad392, %lpad390
  call void @_ZNSt3mapINSt7__cxx1112basic_stringIcSt11char_traitsIcESaIcEEES5_St4lessIS5_ESaISt4pairIKS5_S5_EEED2Ev(ptr noundef nonnull align 8 dereferenceable(48) %v364) #14
  br label %ehcleanup462

if.end461:                                        ; preds = %do.end459, %invoke.cont361
  call void @_ZN7doctest6detail7SubcaseD1Ev(ptr noundef nonnull align 8 dereferenceable(41) %ref.tmp354) #14
  invoke void @_ZN7doctest6StringC1EPKc(ptr noundef nonnull align 8 dereferenceable(24) %ref.tmp464, ptr noundef @.str.33)
          to label %invoke.cont465 unwind label %lpad350

invoke.cont465:                                   ; preds = %if.end461
  invoke void @_ZN7doctest6detail7SubcaseC1ERKNS_6StringEPKci(ptr noundef nonnull align 8 dereferenceable(41) %ref.tmp463, ptr noundef nonnull align 8 dereferenceable(24) %ref.tmp464, ptr noundef @.str.2, i32 noundef 191)
          to label %invoke.cont467 unwind label %lpad466

invoke.cont467:                                   ; preds = %invoke.cont465
  call void @_ZN7doctest6StringD1Ev(ptr noundef nonnull align 8 dereferenceable(24) %ref.tmp464) #14
  store ptr %ref.tmp463, ptr %DOCTEST_ANON_SUBCASE_15, align 8
  %256 = load ptr, ptr %DOCTEST_ANON_SUBCASE_15, align 8
  %call471 = invoke noundef zeroext i1 @_ZNK7doctest6detail7SubcasecvbEv(ptr noundef nonnull align 8 dereferenceable(41) %256)
          to label %invoke.cont470 unwind label %lpad469

invoke.cont470:                                   ; preds = %invoke.cont467
  br i1 %call471, label %if.then472, label %if.end592

if.then472:                                       ; preds = %invoke.cont470
  store i8 0, ptr @_ZN12_GLOBAL__N_120next_construct_failsE, align 1
  %arrayinit.begin476 = getelementptr inbounds [3 x %"class.std::__cxx11::basic_string"], ptr %ref.tmp475, i64 0, i64 0
  store i1 true, ptr %cleanup.isactive, align 1
  store ptr %arrayinit.begin476, ptr %arrayinit.endOfInit477, align 8
  call void @_ZNSaIcEC1Ev(ptr noundef nonnull align 1 dereferenceable(1) %ref.tmp478) #14
  invoke void @_ZNSt7__cxx1112basic_stringIcSt11char_traitsIcESaIcEEC1EPKcRKS3_(ptr noundef nonnull align 8 dereferenceable(32) %arrayinit.begin476, ptr noundef @.str.26, ptr noundef nonnull align 1 dereferenceable(1) %ref.tmp478)
          to label %invoke.cont480 unwind label %lpad479

invoke.cont480:                                   ; preds = %if.then472
  %arrayinit.element = getelementptr inbounds %"class.std::__cxx11::basic_string", ptr %arrayinit.begin476, i64 1
  store ptr %arrayinit.element, ptr %arrayinit.endOfInit477, align 8
  call void @_ZNSaIcEC1Ev(ptr noundef nonnull align 1 dereferenceable(1) %ref.tmp481) #14
  invoke void @_ZNSt7__cxx1112basic_stringIcSt11char_traitsIcESaIcEEC1EPKcRKS3_(ptr noundef nonnull align 8 dereferenceable(32) %arrayinit.element, ptr noundef @.str.31, ptr noundef nonnull align 1 dereferenceable(1) %ref.tmp481)
          to label %invoke.cont483 unwind label %lpad482

invoke.cont483:                                   ; preds = %invoke.cont480
  %arrayinit.element484 = getelementptr inbounds %"class.std::__cxx11::basic_string", ptr %arrayinit.element, i64 1
  store ptr %arrayinit.element484, ptr %arrayinit.endOfInit477, align 8
  call void @_ZNSaIcEC1Ev(ptr noundef nonnull align 1 dereferenceable(1) %ref.tmp485) #14
  invoke void @_ZNSt7__cxx1112basic_stringIcSt11char_traitsIcESaIcEEC1EPKcRKS3_(ptr noundef nonnull align 8 dereferenceable(32) %arrayinit.element484, ptr noundef @.str.34, ptr noundef nonnull align 1 dereferenceable(1) %ref.tmp485)
          to label %invoke.cont487 unwind label %lpad486

invoke.cont487:                                   ; preds = %invoke.cont483
  store i1 false, ptr %cleanup.isactive, align 1
  %_M_array488 = getelementptr inbounds %"class.std::initializer_list.76", ptr %agg.tmp474, i32 0, i32 0
  %arraystart489 = getelementptr inbounds [3 x %"class.std::__cxx11::basic_string"], ptr %ref.tmp475, i64 0, i64 0
  store ptr %arraystart489, ptr %_M_array488, align 8
  %_M_len490 = getelementptr inbounds %"class.std::initializer_list.76", ptr %agg.tmp474, i32 0, i32 1
  store i64 3, ptr %_M_len490, align 8
  call void @_ZNSaINSt7__cxx1112basic_stringIcSt11char_traitsIcESaIcEEEEC2Ev(ptr noundef nonnull align 1 dereferenceable(1) %ref.tmp491) #14
  %257 = getelementptr inbounds { ptr, i64 }, ptr %agg.tmp474, i32 0, i32 0
  %258 = load ptr, ptr %257, align 8
  %259 = getelementptr inbounds { ptr, i64 }, ptr %agg.tmp474, i32 0, i32 1
  %260 = load i64, ptr %259, align 8
  invoke void @_ZNSt6vectorINSt7__cxx1112basic_stringIcSt11char_traitsIcESaIcEEESaIS5_EEC2ESt16initializer_listIS5_ERKS6_(ptr noundef nonnull align 8 dereferenceable(24) %v473, ptr %258, i64 %260, ptr noundef nonnull align 1 dereferenceable(1) %ref.tmp491)
          to label %invoke.cont493 unwind label %lpad492

invoke.cont493:                                   ; preds = %invoke.cont487
  call void @_ZNSaINSt7__cxx1112basic_stringIcSt11char_traitsIcESaIcEEEED2Ev(ptr noundef nonnull align 1 dereferenceable(1) %ref.tmp491) #14
  %array.begin495 = getelementptr inbounds [3 x %"class.std::__cxx11::basic_string"], ptr %ref.tmp475, i32 0, i32 0
  %261 = getelementptr inbounds %"class.std::__cxx11::basic_string", ptr %array.begin495, i64 3
  br label %arraydestroy.body496

arraydestroy.body496:                             ; preds = %arraydestroy.body496, %invoke.cont493
  %arraydestroy.elementPast497 = phi ptr [ %261, %invoke.cont493 ], [ %arraydestroy.element498, %arraydestroy.body496 ]
  %arraydestroy.element498 = getelementptr inbounds %"class.std::__cxx11::basic_string", ptr %arraydestroy.elementPast497, i64 -1
  call void @_ZNSt7__cxx1112basic_stringIcSt11char_traitsIcESaIcEED1Ev(ptr noundef nonnull align 8 dereferenceable(32) %arraydestroy.element498) #14
  %arraydestroy.done499 = icmp eq ptr %arraydestroy.element498, %array.begin495
  br i1 %arraydestroy.done499, label %arraydestroy.done500, label %arraydestroy.body496

arraydestroy.done500:                             ; preds = %arraydestroy.body496
  call void @_ZNSaIcED1Ev(ptr noundef nonnull align 1 dereferenceable(1) %ref.tmp485) #14
  call void @_ZNSaIcED1Ev(ptr noundef nonnull align 1 dereferenceable(1) %ref.tmp481) #14
  call void @_ZNSaIcED1Ev(ptr noundef nonnull align 1 dereferenceable(1) %ref.tmp478) #14
  br label %do.body518

do.body518:                                       ; preds = %arraydestroy.done500
  invoke void @_ZN7doctest6StringC1EPKc(ptr noundef nonnull align 8 dereferenceable(24) %ref.tmp520, ptr noundef @.str)
          to label %invoke.cont522 unwind label %lpad521

invoke.cont522:                                   ; preds = %do.body518
  invoke void @_ZN7doctest6detail13ResultBuilderC1ENS_10assertType4EnumEPKciS5_S5_RKNS_6StringE(ptr noundef nonnull align 8 dereferenceable(144) %DOCTEST_RB519, i32 noundef 130, ptr noundef @.str.2, i32 noundef 195, ptr noundef @.str.32, ptr noundef @.str, ptr noundef nonnull align 8 dereferenceable(24) %ref.tmp520)
          to label %invoke.cont524 unwind label %lpad523

invoke.cont524:                                   ; preds = %invoke.cont522
  call void @_ZN7doctest6StringD1Ev(ptr noundef nonnull align 8 dereferenceable(24) %ref.tmp520) #14
  invoke void @_ZN8nlohmann16json_abi_v3_11_310basic_jsonISt3mapSt6vectorNSt7__cxx1112basic_stringIcSt11char_traitsIcESaIcEEEblmdN12_GLOBAL__N_112my_allocatorENS0_14adl_serializerES3_IhSaIhEEvEC2IRKS3_IS9_SaIS9_EESI_TnNSt9enable_ifIXaantsr6detail13is_basic_jsonIT0_EE5valuesr6detail18is_compatible_typeISF_SM_EE5valueEiE4typeELi0EEEOT_(ptr noundef nonnull align 8 dereferenceable(16) %agg.tmp.ensured526, ptr noundef nonnull align 8 dereferenceable(24) %v473)
          to label %invoke.cont528 unwind label %lpad527

invoke.cont528:                                   ; preds = %invoke.cont524
  call void @_ZN8nlohmann16json_abi_v3_11_310basic_jsonISt3mapSt6vectorNSt7__cxx1112basic_stringIcSt11char_traitsIcESaIcEEEblmdN12_GLOBAL__N_112my_allocatorENS0_14adl_serializerES3_IhSaIhEEvED2Ev(ptr noundef nonnull align 8 dereferenceable(16) %agg.tmp.ensured526) #14
  br label %try.cont537

ehcleanup462:                                     ; preds = %ehcleanup460, %arraydestroy.done386, %arraydestroy.done369, %lpad360
  call void @_ZN7doctest6detail7SubcaseD1Ev(ptr noundef nonnull align 8 dereferenceable(41) %ref.tmp354) #14
  br label %ehcleanup769

lpad466:                                          ; preds = %invoke.cont465
  %262 = landingpad { ptr, i32 }
          cleanup
  %263 = extractvalue { ptr, i32 } %262, 0
  store ptr %263, ptr %exn.slot, align 8
  %264 = extractvalue { ptr, i32 } %262, 1
  store i32 %264, ptr %ehselector.slot, align 4
  call void @_ZN7doctest6StringD1Ev(ptr noundef nonnull align 8 dereferenceable(24) %ref.tmp464) #14
  br label %ehcleanup769

lpad469:                                          ; preds = %invoke.cont467
  %265 = landingpad { ptr, i32 }
          cleanup
  %266 = extractvalue { ptr, i32 } %265, 0
  store ptr %266, ptr %exn.slot, align 8
  %267 = extractvalue { ptr, i32 } %265, 1
  store i32 %267, ptr %ehselector.slot, align 4
  br label %ehcleanup593

lpad479:                                          ; preds = %if.then472
  %268 = landingpad { ptr, i32 }
          cleanup
  %269 = extractvalue { ptr, i32 } %268, 0
  store ptr %269, ptr %exn.slot, align 8
  %270 = extractvalue { ptr, i32 } %268, 1
  store i32 %270, ptr %ehselector.slot, align 4
  br label %ehcleanup510

lpad482:                                          ; preds = %invoke.cont480
  %271 = landingpad { ptr, i32 }
          cleanup
  %272 = extractvalue { ptr, i32 } %271, 0
  store ptr %272, ptr %exn.slot, align 8
  %273 = extractvalue { ptr, i32 } %271, 1
  store i32 %273, ptr %ehselector.slot, align 4
  br label %ehcleanup509

lpad486:                                          ; preds = %invoke.cont483
  %274 = landingpad { ptr, i32 }
          cleanup
  %275 = extractvalue { ptr, i32 } %274, 0
  store ptr %275, ptr %exn.slot, align 8
  %276 = extractvalue { ptr, i32 } %274, 1
  store i32 %276, ptr %ehselector.slot, align 4
  br label %ehcleanup508

lpad492:                                          ; preds = %invoke.cont487
  %277 = landingpad { ptr, i32 }
          cleanup
  %278 = extractvalue { ptr, i32 } %277, 0
  store ptr %278, ptr %exn.slot, align 8
  %279 = extractvalue { ptr, i32 } %277, 1
  store i32 %279, ptr %ehselector.slot, align 4
  call void @_ZNSaINSt7__cxx1112basic_stringIcSt11char_traitsIcESaIcEEEED2Ev(ptr noundef nonnull align 1 dereferenceable(1) %ref.tmp491) #14
  %array.begin502 = getelementptr inbounds [3 x %"class.std::__cxx11::basic_string"], ptr %ref.tmp475, i32 0, i32 0
  %280 = getelementptr inbounds %"class.std::__cxx11::basic_string", ptr %array.begin502, i64 3
  br label %arraydestroy.body503

arraydestroy.body503:                             ; preds = %arraydestroy.body503, %lpad492
  %arraydestroy.elementPast504 = phi ptr [ %280, %lpad492 ], [ %arraydestroy.element505, %arraydestroy.body503 ]
  %arraydestroy.element505 = getelementptr inbounds %"class.std::__cxx11::basic_string", ptr %arraydestroy.elementPast504, i64 -1
  call void @_ZNSt7__cxx1112basic_stringIcSt11char_traitsIcESaIcEED1Ev(ptr noundef nonnull align 8 dereferenceable(32) %arraydestroy.element505) #14
  %arraydestroy.done506 = icmp eq ptr %arraydestroy.element505, %array.begin502
  br i1 %arraydestroy.done506, label %arraydestroy.done507, label %arraydestroy.body503

arraydestroy.done507:                             ; preds = %arraydestroy.body503
  br label %ehcleanup508

ehcleanup508:                                     ; preds = %arraydestroy.done507, %lpad486
  call void @_ZNSaIcED1Ev(ptr noundef nonnull align 1 dereferenceable(1) %ref.tmp485) #14
  br label %ehcleanup509

ehcleanup509:                                     ; preds = %ehcleanup508, %lpad482
  call void @_ZNSaIcED1Ev(ptr noundef nonnull align 1 dereferenceable(1) %ref.tmp481) #14
  br label %ehcleanup510

ehcleanup510:                                     ; preds = %ehcleanup509, %lpad479
  call void @_ZNSaIcED1Ev(ptr noundef nonnull align 1 dereferenceable(1) %ref.tmp478) #14
  %cleanup.is_active = load i1, ptr %cleanup.isactive, align 1
  br i1 %cleanup.is_active, label %cleanup.action, label %cleanup.done

cleanup.action:                                   ; preds = %ehcleanup510
  %281 = load ptr, ptr %arrayinit.endOfInit477, align 8
  %arraydestroy.isempty512 = icmp eq ptr %arrayinit.begin476, %281
  br i1 %arraydestroy.isempty512, label %arraydestroy.done517, label %arraydestroy.body513

arraydestroy.body513:                             ; preds = %arraydestroy.body513, %cleanup.action
  %arraydestroy.elementPast514 = phi ptr [ %281, %cleanup.action ], [ %arraydestroy.element515, %arraydestroy.body513 ]
  %arraydestroy.element515 = getelementptr inbounds %"class.std::__cxx11::basic_string", ptr %arraydestroy.elementPast514, i64 -1
  call void @_ZNSt7__cxx1112basic_stringIcSt11char_traitsIcESaIcEED1Ev(ptr noundef nonnull align 8 dereferenceable(32) %arraydestroy.element515) #14
  %arraydestroy.done516 = icmp eq ptr %arraydestroy.element515, %arrayinit.begin476
  br i1 %arraydestroy.done516, label %arraydestroy.done517, label %arraydestroy.body513

arraydestroy.done517:                             ; preds = %arraydestroy.body513, %cleanup.action
  br label %cleanup.done

cleanup.done:                                     ; preds = %arraydestroy.done517, %ehcleanup510
  br label %ehcleanup593

lpad521:                                          ; preds = %if.then551, %do.body546, %do.body518
  %282 = landingpad { ptr, i32 }
          cleanup
  %283 = extractvalue { ptr, i32 } %282, 0
  store ptr %283, ptr %exn.slot, align 8
  %284 = extractvalue { ptr, i32 } %282, 1
  store i32 %284, ptr %ehselector.slot, align 4
  br label %ehcleanup591

lpad523:                                          ; preds = %invoke.cont522
  %285 = landingpad { ptr, i32 }
          cleanup
  %286 = extractvalue { ptr, i32 } %285, 0
  store ptr %286, ptr %exn.slot, align 8
  %287 = extractvalue { ptr, i32 } %285, 1
  store i32 %287, ptr %ehselector.slot, align 4
  call void @_ZN7doctest6StringD1Ev(ptr noundef nonnull align 8 dereferenceable(24) %ref.tmp520) #14
  br label %ehcleanup591

lpad527:                                          ; preds = %invoke.cont524
  %288 = landingpad { ptr, i32 }
          catch ptr null
  %289 = extractvalue { ptr, i32 } %288, 0
  store ptr %289, ptr %exn.slot, align 8
  %290 = extractvalue { ptr, i32 } %288, 1
  store i32 %290, ptr %ehselector.slot, align 4
  br label %catch529

catch529:                                         ; preds = %lpad527
  %exn530 = load ptr, ptr %exn.slot, align 8
  %291 = call ptr @__cxa_begin_catch(ptr %exn530) #14
  invoke void @_ZN7doctest6detail13ResultBuilder18translateExceptionEv(ptr noundef nonnull align 8 dereferenceable(144) %DOCTEST_RB519)
          to label %invoke.cont532 unwind label %lpad531

invoke.cont532:                                   ; preds = %catch529
  invoke void @__cxa_end_catch()
          to label %invoke.cont534 unwind label %lpad533

invoke.cont534:                                   ; preds = %invoke.cont532
  br label %try.cont537

try.cont537:                                      ; preds = %invoke.cont534, %invoke.cont528
  %call539 = invoke noundef zeroext i1 @_ZN7doctest6detail13ResultBuilder3logEv(ptr noundef nonnull align 8 dereferenceable(144) %DOCTEST_RB519)
          to label %invoke.cont538 unwind label %lpad533

invoke.cont538:                                   ; preds = %try.cont537
  br i1 %call539, label %if.then540, label %if.end541

if.then540:                                       ; preds = %invoke.cont538
  call void asm sideeffect "int $$3\0A", "~{dirflag},~{fpsr},~{flags}"() #14, !srcloc !16
  br label %if.end541

lpad531:                                          ; preds = %catch529
  %292 = landingpad { ptr, i32 }
          cleanup
  %293 = extractvalue { ptr, i32 } %292, 0
  store ptr %293, ptr %exn.slot, align 8
  %294 = extractvalue { ptr, i32 } %292, 1
  store i32 %294, ptr %ehselector.slot, align 4
  invoke void @__cxa_end_catch()
          to label %invoke.cont536 unwind label %terminate.lpad

lpad533:                                          ; preds = %if.end541, %try.cont537, %invoke.cont532
  %295 = landingpad { ptr, i32 }
          cleanup
  %296 = extractvalue { ptr, i32 } %295, 0
  store ptr %296, ptr %exn.slot, align 8
  %297 = extractvalue { ptr, i32 } %295, 1
  store i32 %297, ptr %ehselector.slot, align 4
  br label %ehcleanup543

invoke.cont536:                                   ; preds = %lpad531
  br label %ehcleanup543

if.end541:                                        ; preds = %if.then540, %invoke.cont538
  invoke void @_ZNK7doctest6detail13ResultBuilder5reactEv(ptr noundef nonnull align 8 dereferenceable(144) %DOCTEST_RB519)
          to label %invoke.cont542 unwind label %lpad533

invoke.cont542:                                   ; preds = %if.end541
  call void @_ZN7doctest6detail13ResultBuilderD2Ev(ptr noundef nonnull align 8 dereferenceable(144) %DOCTEST_RB519) #14
  br label %do.cond544

do.cond544:                                       ; preds = %invoke.cont542
  br label %do.end545

do.end545:                                        ; preds = %do.cond544
  store i8 1, ptr @_ZN12_GLOBAL__N_120next_construct_failsE, align 1
  br label %do.body546

do.body546:                                       ; preds = %do.end545
  %call548 = invoke noundef ptr @_ZN7doctest17getContextOptionsEv()
          to label %invoke.cont547 unwind label %lpad521

invoke.cont547:                                   ; preds = %do.body546
  %no_throw549 = getelementptr inbounds %"struct.doctest::ContextOptions", ptr %call548, i32 0, i32 16
  %298 = load i8, ptr %no_throw549, align 2
  %tobool550 = trunc i8 %298 to i1
  br i1 %tobool550, label %if.else587, label %if.then551

if.then551:                                       ; preds = %invoke.cont547
  invoke void @_ZN7doctest6StringC1EPKc(ptr noundef nonnull align 8 dereferenceable(24) %ref.tmp553, ptr noundef @.str)
          to label %invoke.cont554 unwind label %lpad521

invoke.cont554:                                   ; preds = %if.then551
  invoke void @_ZN7doctest6detail13ResultBuilderC1ENS_10assertType4EnumEPKciS5_S5_RKNS_6StringE(ptr noundef nonnull align 8 dereferenceable(144) %DOCTEST_RB552, i32 noundef 34, ptr noundef @.str.2, i32 noundef 197, ptr noundef @.str.32, ptr noundef @.str.9, ptr noundef nonnull align 8 dereferenceable(24) %ref.tmp553)
          to label %invoke.cont556 unwind label %lpad555

invoke.cont556:                                   ; preds = %invoke.cont554
  call void @_ZN7doctest6StringD1Ev(ptr noundef nonnull align 8 dereferenceable(24) %ref.tmp553) #14
  invoke void @_ZN8nlohmann16json_abi_v3_11_310basic_jsonISt3mapSt6vectorNSt7__cxx1112basic_stringIcSt11char_traitsIcESaIcEEEblmdN12_GLOBAL__N_112my_allocatorENS0_14adl_serializerES3_IhSaIhEEvEC2IRKS3_IS9_SaIS9_EESI_TnNSt9enable_ifIXaantsr6detail13is_basic_jsonIT0_EE5valuesr6detail18is_compatible_typeISF_SM_EE5valueEiE4typeELi0EEEOT_(ptr noundef nonnull align 8 dereferenceable(16) %agg.tmp.ensured558, ptr noundef nonnull align 8 dereferenceable(24) %v473)
          to label %invoke.cont560 unwind label %lpad559

invoke.cont560:                                   ; preds = %invoke.cont556
  call void @_ZN8nlohmann16json_abi_v3_11_310basic_jsonISt3mapSt6vectorNSt7__cxx1112basic_stringIcSt11char_traitsIcESaIcEEEblmdN12_GLOBAL__N_112my_allocatorENS0_14adl_serializerES3_IhSaIhEEvED2Ev(ptr noundef nonnull align 8 dereferenceable(16) %agg.tmp.ensured558) #14
  br label %try.cont580

ehcleanup543:                                     ; preds = %invoke.cont536, %lpad533
  call void @_ZN7doctest6detail13ResultBuilderD2Ev(ptr noundef nonnull align 8 dereferenceable(144) %DOCTEST_RB519) #14
  br label %ehcleanup591

lpad555:                                          ; preds = %invoke.cont554
  %299 = landingpad { ptr, i32 }
          cleanup
  %300 = extractvalue { ptr, i32 } %299, 0
  store ptr %300, ptr %exn.slot, align 8
  %301 = extractvalue { ptr, i32 } %299, 1
  store i32 %301, ptr %ehselector.slot, align 4
  call void @_ZN7doctest6StringD1Ev(ptr noundef nonnull align 8 dereferenceable(24) %ref.tmp553) #14
  br label %ehcleanup591

lpad559:                                          ; preds = %invoke.cont556
  %302 = landingpad { ptr, i32 }
          catch ptr @_ZTISt9bad_alloc
          catch ptr null
  %303 = extractvalue { ptr, i32 } %302, 0
  store ptr %303, ptr %exn.slot, align 8
  %304 = extractvalue { ptr, i32 } %302, 1
  store i32 %304, ptr %ehselector.slot, align 4
  br label %catch.dispatch561

catch.dispatch561:                                ; preds = %lpad559
  %sel562 = load i32, ptr %ehselector.slot, align 4
  %305 = call i32 @llvm.eh.typeid.for(ptr @_ZTISt9bad_alloc) #14
  %matches563 = icmp eq i32 %sel562, %305
  br i1 %matches563, label %catch572, label %catch564

catch572:                                         ; preds = %catch.dispatch561
  %exn573 = load ptr, ptr %exn.slot, align 8
  %306 = call ptr @__cxa_begin_catch(ptr %exn573) #14
  store ptr %306, ptr %5, align 8
  invoke void @_ZN7doctest6detail13ResultBuilder18translateExceptionEv(ptr noundef nonnull align 8 dereferenceable(144) %DOCTEST_RB552)
          to label %invoke.cont575 unwind label %lpad574

invoke.cont575:                                   ; preds = %catch572
  %m_threw_as576 = getelementptr inbounds %"struct.doctest::AssertData", ptr %DOCTEST_RB552, i32 0, i32 9
  store i8 1, ptr %m_threw_as576, align 8
  invoke void @__cxa_end_catch()
          to label %invoke.cont577 unwind label %lpad568

invoke.cont577:                                   ; preds = %invoke.cont575
  br label %try.cont580

try.cont580:                                      ; preds = %invoke.cont569, %invoke.cont577, %invoke.cont560
  %call582 = invoke noundef zeroext i1 @_ZN7doctest6detail13ResultBuilder3logEv(ptr noundef nonnull align 8 dereferenceable(144) %DOCTEST_RB552)
          to label %invoke.cont581 unwind label %lpad568

invoke.cont581:                                   ; preds = %try.cont580
  br i1 %call582, label %if.then583, label %if.end584

if.then583:                                       ; preds = %invoke.cont581
  call void asm sideeffect "int $$3\0A", "~{dirflag},~{fpsr},~{flags}"() #14, !srcloc !17
  br label %if.end584

catch564:                                         ; preds = %catch.dispatch561
  %exn565 = load ptr, ptr %exn.slot, align 8
  %307 = call ptr @__cxa_begin_catch(ptr %exn565) #14
  invoke void @_ZN7doctest6detail13ResultBuilder18translateExceptionEv(ptr noundef nonnull align 8 dereferenceable(144) %DOCTEST_RB552)
          to label %invoke.cont567 unwind label %lpad566

invoke.cont567:                                   ; preds = %catch564
  invoke void @__cxa_end_catch()
          to label %invoke.cont569 unwind label %lpad568

invoke.cont569:                                   ; preds = %invoke.cont567
  br label %try.cont580

lpad566:                                          ; preds = %catch564
  %308 = landingpad { ptr, i32 }
          cleanup
  %309 = extractvalue { ptr, i32 } %308, 0
  store ptr %309, ptr %exn.slot, align 8
  %310 = extractvalue { ptr, i32 } %308, 1
  store i32 %310, ptr %ehselector.slot, align 4
  invoke void @__cxa_end_catch()
          to label %invoke.cont571 unwind label %terminate.lpad

lpad568:                                          ; preds = %if.end584, %invoke.cont567, %try.cont580, %invoke.cont575
  %311 = landingpad { ptr, i32 }
          cleanup
  %312 = extractvalue { ptr, i32 } %311, 0
  store ptr %312, ptr %exn.slot, align 8
  %313 = extractvalue { ptr, i32 } %311, 1
  store i32 %313, ptr %ehselector.slot, align 4
  br label %ehcleanup586

invoke.cont571:                                   ; preds = %lpad566
  br label %ehcleanup586

lpad574:                                          ; preds = %catch572
  %314 = landingpad { ptr, i32 }
          cleanup
  %315 = extractvalue { ptr, i32 } %314, 0
  store ptr %315, ptr %exn.slot, align 8
  %316 = extractvalue { ptr, i32 } %314, 1
  store i32 %316, ptr %ehselector.slot, align 4
  invoke void @__cxa_end_catch()
          to label %invoke.cont579 unwind label %terminate.lpad

invoke.cont579:                                   ; preds = %lpad574
  br label %ehcleanup586

if.end584:                                        ; preds = %if.then583, %invoke.cont581
  invoke void @_ZNK7doctest6detail13ResultBuilder5reactEv(ptr noundef nonnull align 8 dereferenceable(144) %DOCTEST_RB552)
          to label %invoke.cont585 unwind label %lpad568

invoke.cont585:                                   ; preds = %if.end584
  call void @_ZN7doctest6detail13ResultBuilderD2Ev(ptr noundef nonnull align 8 dereferenceable(144) %DOCTEST_RB552) #14
  br label %if.end588

ehcleanup586:                                     ; preds = %invoke.cont579, %invoke.cont571, %lpad568
  call void @_ZN7doctest6detail13ResultBuilderD2Ev(ptr noundef nonnull align 8 dereferenceable(144) %DOCTEST_RB552) #14
  br label %ehcleanup591

if.else587:                                       ; preds = %invoke.cont547
  br label %if.end588

if.end588:                                        ; preds = %if.else587, %invoke.cont585
  br label %do.cond589

do.cond589:                                       ; preds = %if.end588
  br label %do.end590

do.end590:                                        ; preds = %do.cond589
  store i8 0, ptr @_ZN12_GLOBAL__N_120next_construct_failsE, align 1
  call void @_ZNSt6vectorINSt7__cxx1112basic_stringIcSt11char_traitsIcESaIcEEESaIS5_EED2Ev(ptr noundef nonnull align 8 dereferenceable(24) %v473) #14
  br label %if.end592

ehcleanup591:                                     ; preds = %ehcleanup586, %lpad555, %ehcleanup543, %lpad523, %lpad521
  call void @_ZNSt6vectorINSt7__cxx1112basic_stringIcSt11char_traitsIcESaIcEEESaIS5_EED2Ev(ptr noundef nonnull align 8 dereferenceable(24) %v473) #14
  br label %ehcleanup593

if.end592:                                        ; preds = %do.end590, %invoke.cont470
  call void @_ZN7doctest6detail7SubcaseD1Ev(ptr noundef nonnull align 8 dereferenceable(41) %ref.tmp463) #14
  invoke void @_ZN7doctest6StringC1EPKc(ptr noundef nonnull align 8 dereferenceable(24) %ref.tmp595, ptr noundef @.str.35)
          to label %invoke.cont596 unwind label %lpad350

invoke.cont596:                                   ; preds = %if.end592
  invoke void @_ZN7doctest6detail7SubcaseC1ERKNS_6StringEPKci(ptr noundef nonnull align 8 dereferenceable(41) %ref.tmp594, ptr noundef nonnull align 8 dereferenceable(24) %ref.tmp595, ptr noundef @.str.2, i32 noundef 201)
          to label %invoke.cont598 unwind label %lpad597

invoke.cont598:                                   ; preds = %invoke.cont596
  call void @_ZN7doctest6StringD1Ev(ptr noundef nonnull align 8 dereferenceable(24) %ref.tmp595) #14
  store ptr %ref.tmp594, ptr %DOCTEST_ANON_SUBCASE_16, align 8
  %317 = load ptr, ptr %DOCTEST_ANON_SUBCASE_16, align 8
  %call602 = invoke noundef zeroext i1 @_ZNK7doctest6detail7SubcasecvbEv(ptr noundef nonnull align 8 dereferenceable(41) %317)
          to label %invoke.cont601 unwind label %lpad600

invoke.cont601:                                   ; preds = %invoke.cont598
  br i1 %call602, label %if.then603, label %if.end676

if.then603:                                       ; preds = %invoke.cont601
  store i8 0, ptr @_ZN12_GLOBAL__N_120next_construct_failsE, align 1
  br label %do.body604

do.body604:                                       ; preds = %if.then603
  invoke void @_ZN7doctest6StringC1EPKc(ptr noundef nonnull align 8 dereferenceable(24) %ref.tmp606, ptr noundef @.str)
          to label %invoke.cont607 unwind label %lpad600

invoke.cont607:                                   ; preds = %do.body604
  invoke void @_ZN7doctest6detail13ResultBuilderC1ENS_10assertType4EnumEPKciS5_S5_RKNS_6StringE(ptr noundef nonnull align 8 dereferenceable(144) %DOCTEST_RB605, i32 noundef 130, ptr noundef @.str.2, i32 noundef 204, ptr noundef @.str.36, ptr noundef @.str, ptr noundef nonnull align 8 dereferenceable(24) %ref.tmp606)
          to label %invoke.cont609 unwind label %lpad608

invoke.cont609:                                   ; preds = %invoke.cont607
  call void @_ZN7doctest6StringD1Ev(ptr noundef nonnull align 8 dereferenceable(24) %ref.tmp606) #14
  invoke void @_ZN8nlohmann16json_abi_v3_11_310basic_jsonISt3mapSt6vectorNSt7__cxx1112basic_stringIcSt11char_traitsIcESaIcEEEblmdN12_GLOBAL__N_112my_allocatorENS0_14adl_serializerES3_IhSaIhEEvEC2IRA4_KcA4_cTnNSt9enable_ifIXaantsr6detail13is_basic_jsonIT0_EE5valuesr6detail18is_compatible_typeISF_SM_EE5valueEiE4typeELi0EEEOT_(ptr noundef nonnull align 8 dereferenceable(16) %agg.tmp.ensured611, ptr noundef nonnull align 1 dereferenceable(4) @.str.26)
          to label %invoke.cont613 unwind label %lpad612

invoke.cont613:                                   ; preds = %invoke.cont609
  call void @_ZN8nlohmann16json_abi_v3_11_310basic_jsonISt3mapSt6vectorNSt7__cxx1112basic_stringIcSt11char_traitsIcESaIcEEEblmdN12_GLOBAL__N_112my_allocatorENS0_14adl_serializerES3_IhSaIhEEvED2Ev(ptr noundef nonnull align 8 dereferenceable(16) %agg.tmp.ensured611) #14
  br label %try.cont622

ehcleanup593:                                     ; preds = %ehcleanup591, %cleanup.done, %lpad469
  call void @_ZN7doctest6detail7SubcaseD1Ev(ptr noundef nonnull align 8 dereferenceable(41) %ref.tmp463) #14
  br label %ehcleanup769

lpad597:                                          ; preds = %invoke.cont596
  %318 = landingpad { ptr, i32 }
          cleanup
  %319 = extractvalue { ptr, i32 } %318, 0
  store ptr %319, ptr %exn.slot, align 8
  %320 = extractvalue { ptr, i32 } %318, 1
  store i32 %320, ptr %ehselector.slot, align 4
  call void @_ZN7doctest6StringD1Ev(ptr noundef nonnull align 8 dereferenceable(24) %ref.tmp595) #14
  br label %ehcleanup769

lpad600:                                          ; preds = %if.then636, %do.body631, %do.body604, %invoke.cont598
  %321 = landingpad { ptr, i32 }
          cleanup
  %322 = extractvalue { ptr, i32 } %321, 0
  store ptr %322, ptr %exn.slot, align 8
  %323 = extractvalue { ptr, i32 } %321, 1
  store i32 %323, ptr %ehselector.slot, align 4
  br label %ehcleanup677

lpad608:                                          ; preds = %invoke.cont607
  %324 = landingpad { ptr, i32 }
          cleanup
  %325 = extractvalue { ptr, i32 } %324, 0
  store ptr %325, ptr %exn.slot, align 8
  %326 = extractvalue { ptr, i32 } %324, 1
  store i32 %326, ptr %ehselector.slot, align 4
  call void @_ZN7doctest6StringD1Ev(ptr noundef nonnull align 8 dereferenceable(24) %ref.tmp606) #14
  br label %ehcleanup677

lpad612:                                          ; preds = %invoke.cont609
  %327 = landingpad { ptr, i32 }
          catch ptr null
  %328 = extractvalue { ptr, i32 } %327, 0
  store ptr %328, ptr %exn.slot, align 8
  %329 = extractvalue { ptr, i32 } %327, 1
  store i32 %329, ptr %ehselector.slot, align 4
  br label %catch614

catch614:                                         ; preds = %lpad612
  %exn615 = load ptr, ptr %exn.slot, align 8
  %330 = call ptr @__cxa_begin_catch(ptr %exn615) #14
  invoke void @_ZN7doctest6detail13ResultBuilder18translateExceptionEv(ptr noundef nonnull align 8 dereferenceable(144) %DOCTEST_RB605)
          to label %invoke.cont617 unwind label %lpad616

invoke.cont617:                                   ; preds = %catch614
  invoke void @__cxa_end_catch()
          to label %invoke.cont619 unwind label %lpad618

invoke.cont619:                                   ; preds = %invoke.cont617
  br label %try.cont622

try.cont622:                                      ; preds = %invoke.cont619, %invoke.cont613
  %call624 = invoke noundef zeroext i1 @_ZN7doctest6detail13ResultBuilder3logEv(ptr noundef nonnull align 8 dereferenceable(144) %DOCTEST_RB605)
          to label %invoke.cont623 unwind label %lpad618

invoke.cont623:                                   ; preds = %try.cont622
  br i1 %call624, label %if.then625, label %if.end626

if.then625:                                       ; preds = %invoke.cont623
  call void asm sideeffect "int $$3\0A", "~{dirflag},~{fpsr},~{flags}"() #14, !srcloc !18
  br label %if.end626

lpad616:                                          ; preds = %catch614
  %331 = landingpad { ptr, i32 }
          cleanup
  %332 = extractvalue { ptr, i32 } %331, 0
  store ptr %332, ptr %exn.slot, align 8
  %333 = extractvalue { ptr, i32 } %331, 1
  store i32 %333, ptr %ehselector.slot, align 4
  invoke void @__cxa_end_catch()
          to label %invoke.cont621 unwind label %terminate.lpad

lpad618:                                          ; preds = %if.end626, %try.cont622, %invoke.cont617
  %334 = landingpad { ptr, i32 }
          cleanup
  %335 = extractvalue { ptr, i32 } %334, 0
  store ptr %335, ptr %exn.slot, align 8
  %336 = extractvalue { ptr, i32 } %334, 1
  store i32 %336, ptr %ehselector.slot, align 4
  br label %ehcleanup628

invoke.cont621:                                   ; preds = %lpad616
  br label %ehcleanup628

if.end626:                                        ; preds = %if.then625, %invoke.cont623
  invoke void @_ZNK7doctest6detail13ResultBuilder5reactEv(ptr noundef nonnull align 8 dereferenceable(144) %DOCTEST_RB605)
          to label %invoke.cont627 unwind label %lpad618

invoke.cont627:                                   ; preds = %if.end626
  call void @_ZN7doctest6detail13ResultBuilderD2Ev(ptr noundef nonnull align 8 dereferenceable(144) %DOCTEST_RB605) #14
  br label %do.cond629

do.cond629:                                       ; preds = %invoke.cont627
  br label %do.end630

do.end630:                                        ; preds = %do.cond629
  store i8 1, ptr @_ZN12_GLOBAL__N_120next_construct_failsE, align 1
  br label %do.body631

do.body631:                                       ; preds = %do.end630
  %call633 = invoke noundef ptr @_ZN7doctest17getContextOptionsEv()
          to label %invoke.cont632 unwind label %lpad600

invoke.cont632:                                   ; preds = %do.body631
  %no_throw634 = getelementptr inbounds %"struct.doctest::ContextOptions", ptr %call633, i32 0, i32 16
  %337 = load i8, ptr %no_throw634, align 2
  %tobool635 = trunc i8 %337 to i1
  br i1 %tobool635, label %if.else672, label %if.then636

if.then636:                                       ; preds = %invoke.cont632
  invoke void @_ZN7doctest6StringC1EPKc(ptr noundef nonnull align 8 dereferenceable(24) %ref.tmp638, ptr noundef @.str)
          to label %invoke.cont639 unwind label %lpad600

invoke.cont639:                                   ; preds = %if.then636
  invoke void @_ZN7doctest6detail13ResultBuilderC1ENS_10assertType4EnumEPKciS5_S5_RKNS_6StringE(ptr noundef nonnull align 8 dereferenceable(144) %DOCTEST_RB637, i32 noundef 34, ptr noundef @.str.2, i32 noundef 206, ptr noundef @.str.36, ptr noundef @.str.9, ptr noundef nonnull align 8 dereferenceable(24) %ref.tmp638)
          to label %invoke.cont641 unwind label %lpad640

invoke.cont641:                                   ; preds = %invoke.cont639
  call void @_ZN7doctest6StringD1Ev(ptr noundef nonnull align 8 dereferenceable(24) %ref.tmp638) #14
  invoke void @_ZN8nlohmann16json_abi_v3_11_310basic_jsonISt3mapSt6vectorNSt7__cxx1112basic_stringIcSt11char_traitsIcESaIcEEEblmdN12_GLOBAL__N_112my_allocatorENS0_14adl_serializerES3_IhSaIhEEvEC2IRA4_KcA4_cTnNSt9enable_ifIXaantsr6detail13is_basic_jsonIT0_EE5valuesr6detail18is_compatible_typeISF_SM_EE5valueEiE4typeELi0EEEOT_(ptr noundef nonnull align 8 dereferenceable(16) %agg.tmp.ensured643, ptr noundef nonnull align 1 dereferenceable(4) @.str.26)
          to label %invoke.cont645 unwind label %lpad644

invoke.cont645:                                   ; preds = %invoke.cont641
  call void @_ZN8nlohmann16json_abi_v3_11_310basic_jsonISt3mapSt6vectorNSt7__cxx1112basic_stringIcSt11char_traitsIcESaIcEEEblmdN12_GLOBAL__N_112my_allocatorENS0_14adl_serializerES3_IhSaIhEEvED2Ev(ptr noundef nonnull align 8 dereferenceable(16) %agg.tmp.ensured643) #14
  br label %try.cont665

ehcleanup628:                                     ; preds = %invoke.cont621, %lpad618
  call void @_ZN7doctest6detail13ResultBuilderD2Ev(ptr noundef nonnull align 8 dereferenceable(144) %DOCTEST_RB605) #14
  br label %ehcleanup677

lpad640:                                          ; preds = %invoke.cont639
  %338 = landingpad { ptr, i32 }
          cleanup
  %339 = extractvalue { ptr, i32 } %338, 0
  store ptr %339, ptr %exn.slot, align 8
  %340 = extractvalue { ptr, i32 } %338, 1
  store i32 %340, ptr %ehselector.slot, align 4
  call void @_ZN7doctest6StringD1Ev(ptr noundef nonnull align 8 dereferenceable(24) %ref.tmp638) #14
  br label %ehcleanup677

lpad644:                                          ; preds = %invoke.cont641
  %341 = landingpad { ptr, i32 }
          catch ptr @_ZTISt9bad_alloc
          catch ptr null
  %342 = extractvalue { ptr, i32 } %341, 0
  store ptr %342, ptr %exn.slot, align 8
  %343 = extractvalue { ptr, i32 } %341, 1
  store i32 %343, ptr %ehselector.slot, align 4
  br label %catch.dispatch646

catch.dispatch646:                                ; preds = %lpad644
  %sel647 = load i32, ptr %ehselector.slot, align 4
  %344 = call i32 @llvm.eh.typeid.for(ptr @_ZTISt9bad_alloc) #14
  %matches648 = icmp eq i32 %sel647, %344
  br i1 %matches648, label %catch657, label %catch649

catch657:                                         ; preds = %catch.dispatch646
  %exn658 = load ptr, ptr %exn.slot, align 8
  %345 = call ptr @__cxa_begin_catch(ptr %exn658) #14
  store ptr %345, ptr %6, align 8
  invoke void @_ZN7doctest6detail13ResultBuilder18translateExceptionEv(ptr noundef nonnull align 8 dereferenceable(144) %DOCTEST_RB637)
          to label %invoke.cont660 unwind label %lpad659

invoke.cont660:                                   ; preds = %catch657
  %m_threw_as661 = getelementptr inbounds %"struct.doctest::AssertData", ptr %DOCTEST_RB637, i32 0, i32 9
  store i8 1, ptr %m_threw_as661, align 8
  invoke void @__cxa_end_catch()
          to label %invoke.cont662 unwind label %lpad653

invoke.cont662:                                   ; preds = %invoke.cont660
  br label %try.cont665

try.cont665:                                      ; preds = %invoke.cont654, %invoke.cont662, %invoke.cont645
  %call667 = invoke noundef zeroext i1 @_ZN7doctest6detail13ResultBuilder3logEv(ptr noundef nonnull align 8 dereferenceable(144) %DOCTEST_RB637)
          to label %invoke.cont666 unwind label %lpad653

invoke.cont666:                                   ; preds = %try.cont665
  br i1 %call667, label %if.then668, label %if.end669

if.then668:                                       ; preds = %invoke.cont666
  call void asm sideeffect "int $$3\0A", "~{dirflag},~{fpsr},~{flags}"() #14, !srcloc !19
  br label %if.end669

catch649:                                         ; preds = %catch.dispatch646
  %exn650 = load ptr, ptr %exn.slot, align 8
  %346 = call ptr @__cxa_begin_catch(ptr %exn650) #14
  invoke void @_ZN7doctest6detail13ResultBuilder18translateExceptionEv(ptr noundef nonnull align 8 dereferenceable(144) %DOCTEST_RB637)
          to label %invoke.cont652 unwind label %lpad651

invoke.cont652:                                   ; preds = %catch649
  invoke void @__cxa_end_catch()
          to label %invoke.cont654 unwind label %lpad653

invoke.cont654:                                   ; preds = %invoke.cont652
  br label %try.cont665

lpad651:                                          ; preds = %catch649
  %347 = landingpad { ptr, i32 }
          cleanup
  %348 = extractvalue { ptr, i32 } %347, 0
  store ptr %348, ptr %exn.slot, align 8
  %349 = extractvalue { ptr, i32 } %347, 1
  store i32 %349, ptr %ehselector.slot, align 4
  invoke void @__cxa_end_catch()
          to label %invoke.cont656 unwind label %terminate.lpad

lpad653:                                          ; preds = %if.end669, %invoke.cont652, %try.cont665, %invoke.cont660
  %350 = landingpad { ptr, i32 }
          cleanup
  %351 = extractvalue { ptr, i32 } %350, 0
  store ptr %351, ptr %exn.slot, align 8
  %352 = extractvalue { ptr, i32 } %350, 1
  store i32 %352, ptr %ehselector.slot, align 4
  br label %ehcleanup671

invoke.cont656:                                   ; preds = %lpad651
  br label %ehcleanup671

lpad659:                                          ; preds = %catch657
  %353 = landingpad { ptr, i32 }
          cleanup
  %354 = extractvalue { ptr, i32 } %353, 0
  store ptr %354, ptr %exn.slot, align 8
  %355 = extractvalue { ptr, i32 } %353, 1
  store i32 %355, ptr %ehselector.slot, align 4
  invoke void @__cxa_end_catch()
          to label %invoke.cont664 unwind label %terminate.lpad

invoke.cont664:                                   ; preds = %lpad659
  br label %ehcleanup671

if.end669:                                        ; preds = %if.then668, %invoke.cont666
  invoke void @_ZNK7doctest6detail13ResultBuilder5reactEv(ptr noundef nonnull align 8 dereferenceable(144) %DOCTEST_RB637)
          to label %invoke.cont670 unwind label %lpad653

invoke.cont670:                                   ; preds = %if.end669
  call void @_ZN7doctest6detail13ResultBuilderD2Ev(ptr noundef nonnull align 8 dereferenceable(144) %DOCTEST_RB637) #14
  br label %if.end673

ehcleanup671:                                     ; preds = %invoke.cont664, %invoke.cont656, %lpad653
  call void @_ZN7doctest6detail13ResultBuilderD2Ev(ptr noundef nonnull align 8 dereferenceable(144) %DOCTEST_RB637) #14
  br label %ehcleanup677

if.else672:                                       ; preds = %invoke.cont632
  br label %if.end673

if.end673:                                        ; preds = %if.else672, %invoke.cont670
  br label %do.cond674

do.cond674:                                       ; preds = %if.end673
  br label %do.end675

do.end675:                                        ; preds = %do.cond674
  store i8 0, ptr @_ZN12_GLOBAL__N_120next_construct_failsE, align 1
  br label %if.end676

if.end676:                                        ; preds = %do.end675, %invoke.cont601
  call void @_ZN7doctest6detail7SubcaseD1Ev(ptr noundef nonnull align 8 dereferenceable(41) %ref.tmp594) #14
  invoke void @_ZN7doctest6StringC1EPKc(ptr noundef nonnull align 8 dereferenceable(24) %ref.tmp679, ptr noundef @.str.35)
          to label %invoke.cont680 unwind label %lpad350

invoke.cont680:                                   ; preds = %if.end676
  invoke void @_ZN7doctest6detail7SubcaseC1ERKNS_6StringEPKci(ptr noundef nonnull align 8 dereferenceable(41) %ref.tmp678, ptr noundef nonnull align 8 dereferenceable(24) %ref.tmp679, ptr noundef @.str.2, i32 noundef 210)
          to label %invoke.cont682 unwind label %lpad681

invoke.cont682:                                   ; preds = %invoke.cont680
  call void @_ZN7doctest6StringD1Ev(ptr noundef nonnull align 8 dereferenceable(24) %ref.tmp679) #14
  store ptr %ref.tmp678, ptr %DOCTEST_ANON_SUBCASE_17, align 8
  %356 = load ptr, ptr %DOCTEST_ANON_SUBCASE_17, align 8
