target datalayout = "e-m:e-p270:32:32-p271:32:32-p272:64:64-i64:64-i128:128-f80:128-n8:16:32:64-S128"
target triple = "x86_64-unknown-linux-gnu"

%"struct.std::array" = type { [4 x i8] }
%"struct.std::array.2" = type { [5 x i8] }
%"struct.doctest::detail::TestSuite" = type { ptr, ptr, i8, i8, i8, i8, i8, i32, double }
%"class.std::__cxx11::basic_string" = type { %"struct.std::__cxx11::basic_string<char>::_Alloc_hider", i64, %union.anon }
%"struct.std::__cxx11::basic_string<char>::_Alloc_hider" = type { ptr }
%union.anon = type { i64, [8 x i8] }
%"class.nlohmann::json_abi_v3_11_3::detail::iterator_input_adapter" = type { ptr, ptr }
%"class.nlohmann::json_abi_v3_11_3::detail::lexer" = type <{ %"class.nlohmann::json_abi_v3_11_3::detail::iterator_input_adapter", i8, [3 x i8], i32, i8, [7 x i8], %"struct.nlohmann::json_abi_v3_11_3::detail::position_t", %"class.std::vector", %"class.std::__cxx11::basic_string", ptr, i64, i64, double, i32, [4 x i8] }>
%"struct.nlohmann::json_abi_v3_11_3::detail::position_t" = type { i64, i64, i64 }
%"class.std::vector" = type { %"struct.std::_Vector_base" }
%"struct.std::_Vector_base" = type { %"struct.std::_Vector_base<char, std::allocator<char>>::_Vector_impl" }
%"struct.std::_Vector_base<char, std::allocator<char>>::_Vector_impl" = type { %"struct.std::_Vector_base<char, std::allocator<char>>::_Vector_impl_data" }
%"struct.std::_Vector_base<char, std::allocator<char>>::_Vector_impl_data" = type { ptr, ptr, ptr }
%"class.std::allocator" = type { i8 }
%"struct.doctest::detail::TestCase" = type { %"struct.doctest::TestCaseData", ptr, %"class.doctest::String", i32, %"class.doctest::String" }
%"struct.doctest::TestCaseData" = type { %"class.doctest::String", i32, ptr, ptr, ptr, i8, i8, i8, i8, i8, i32, double }
%"class.doctest::String" = type { %union.anon.0 }
%union.anon.0 = type { %"struct.doctest::String::view", [8 x i8] }
%"struct.doctest::String::view" = type { ptr, i32, i32 }
%"struct.doctest::detail::Subcase" = type { %"struct.doctest::SubcaseSignature", i8, [7 x i8] }
%"struct.doctest::SubcaseSignature" = type <{ %"class.doctest::String", ptr, i32, [4 x i8] }>
%"struct.doctest::detail::Result" = type { i8, %"class.doctest::String" }
%"struct.doctest::detail::Expression_lhs" = type { i8, i32 }
%"struct.doctest::detail::ExpressionDecomposer" = type { i32 }
%"class.doctest::detail::ContextScope" = type { %"struct.doctest::detail::ContextScopeBase.base", %class.anon }
%"struct.doctest::detail::ContextScopeBase.base" = type <{ %"struct.doctest::IContextScope", i8 }>
%"struct.doctest::IContextScope" = type { ptr }
%class.anon = type { ptr }
%"struct.doctest::detail::Expression_lhs.1" = type <{ %"class.std::__cxx11::basic_string", i32, [4 x i8] }>
%"struct.doctest::ContextOptions" = type <{ ptr, %"class.doctest::String", ptr, %"class.doctest::String", %"class.doctest::String", i32, i32, i32, i32, i32, i8, i8, i8, i8, i8, i8, i8, i8, i8, i8, i8, i8, i8, i8, i8, i8, i8, i8, i8, i8, i8, i8, i8, i8, i8, i8, i8, i8 }>
%"struct.doctest::detail::ContextScopeBase" = type <{ %"struct.doctest::IContextScope", i8, [7 x i8] }>
%"struct.doctest::detail::MessageBuilder" = type <{ %"struct.doctest::MessageData", ptr, i8, [7 x i8] }>
%"struct.doctest::MessageData" = type { %"class.doctest::String", ptr, i32, i32 }
%struct.lconv = type { ptr, ptr, ptr, ptr, ptr, ptr, ptr, ptr, ptr, ptr, i8, i8, i8, i8, i8, i8, i8, i8, i8, i8, i8, i8, i8, i8 }
%"class.std::initializer_list" = type { ptr, i64 }
%"class.__gnu_cxx::__normal_iterator" = type { ptr }
%"class.std::initializer_list.3" = type { ptr, i64 }

$_ZN7doctest6detail9TestSuiteC2Ev = comdat any

$_ZN8nlohmann16json_abi_v3_11_36detail13input_adapterIPKcTnNSt9enable_ifIXaaaaaasr3std10is_pointerIT_EE5valuentsr3std8is_arrayIS6_EE5valuesr3std11is_integralINSt14remove_pointerIS6_E4typeEEE5valueeqstS9_Li1EEiE4typeELi0EEENS1_22iterator_input_adapterIS4_EES6_ = comdat any

$_ZN8nlohmann16json_abi_v3_11_36detail5lexerINS0_10basic_jsonISt3mapSt6vectorNSt7__cxx1112basic_stringIcSt11char_traitsIcESaIcEEEblmdSaNS0_14adl_serializerES5_IhSaIhEEvEENS1_22iterator_input_adapterIPKcEEEC2EOSJ_b = comdat any

$_ZN8nlohmann16json_abi_v3_11_36detail5lexerINS0_10basic_jsonISt3mapSt6vectorNSt7__cxx1112basic_stringIcSt11char_traitsIcESaIcEEEblmdSaNS0_14adl_serializerES5_IhSaIhEEvEENS1_22iterator_input_adapterIPKcEEE4scanEv = comdat any

$_ZNK8nlohmann16json_abi_v3_11_36detail5lexerINS0_10basic_jsonISt3mapSt6vectorNSt7__cxx1112basic_stringIcSt11char_traitsIcESaIcEEEblmdSaNS0_14adl_serializerES5_IhSaIhEEvEENS1_22iterator_input_adapterIPKcEEE17get_error_messageEv = comdat any

$_ZN8nlohmann16json_abi_v3_11_36detail5lexerINS0_10basic_jsonISt3mapSt6vectorNSt7__cxx1112basic_stringIcSt11char_traitsIcESaIcEEEblmdSaNS0_14adl_serializerES5_IhSaIhEEvEENS1_22iterator_input_adapterIPKcEEED2Ev = comdat any

$_ZN7doctest6detail8TestCaseD2Ev = comdat any

$_ZNSt6vectorIcSaIcEED2Ev = comdat any

$_ZSt8_DestroyIPccEvT_S1_RSaIT0_E = comdat any

$_ZNSt12_Vector_baseIcSaIcEE19_M_get_Tp_allocatorEv = comdat any

$__clang_call_terminate = comdat any

$_ZNSt12_Vector_baseIcSaIcEED2Ev = comdat any

$_ZSt8_DestroyIPcEvT_S1_ = comdat any

$_ZNSt12_Destroy_auxILb1EE9__destroyIPcEEvT_S3_ = comdat any

$_ZNSt12_Vector_baseIcSaIcEE13_M_deallocateEPcm = comdat any

$_ZNSt12_Vector_baseIcSaIcEE12_Vector_implD2Ev = comdat any

$_ZNSt16allocator_traitsISaIcEE10deallocateERS0_Pcm = comdat any

$_ZNSt15__new_allocatorIcE10deallocateEPcm = comdat any

$_ZN7doctest12TestCaseDataD2Ev = comdat any

$_ZN7doctest6detail20ExpressionDecomposerlsIbEENS0_14Expression_lhsIT_EEOS4_ = comdat any

$_ZN7doctest6detail14Expression_lhsIbEcvNS0_6ResultEEv = comdat any

$_ZN7doctest6detail6ResultD2Ev = comdat any

$_ZSteqIcSt11char_traitsIcESaIcEEbRKNSt7__cxx1112basic_stringIT_T0_T1_EEPKS5_ = comdat any

$_ZN8nlohmann16json_abi_v3_11_36detail10lexer_baseINS0_10basic_jsonISt3mapSt6vectorNSt7__cxx1112basic_stringIcSt11char_traitsIcESaIcEEEblmdSaNS0_14adl_serializerES5_IhSaIhEEvEEE15token_type_nameENSG_10token_typeE = comdat any

$_ZN7doctest6detail20ExpressionDecomposerlsINSt7__cxx1112basic_stringIcSt11char_traitsIcESaIcEEEEENS0_14Expression_lhsIT_EEOSA_ = comdat any

$_ZN7doctest6detail14Expression_lhsINSt7__cxx1112basic_stringIcSt11char_traitsIcESaIcEEEEeqIRA16_KcEEDTcmcvveqclL_ZNS0_7declvalIS7_EEOT_vEEclsr7doctest6detailE7declvalISE_EEtlNS0_6ResultEEESF_ = comdat any

$_ZN7doctest6detail14Expression_lhsINSt7__cxx1112basic_stringIcSt11char_traitsIcESaIcEEEED2Ev = comdat any

$_ZN7doctest6detail14Expression_lhsINSt7__cxx1112basic_stringIcSt11char_traitsIcESaIcEEEEeqIRA48_KcEEDTcmcvveqclL_ZNS0_7declvalIS7_EEOT_vEEclsr7doctest6detailE7declvalISE_EEtlNS0_6ResultEEESF_ = comdat any

$_ZN7doctest6detail14Expression_lhsINSt7__cxx1112basic_stringIcSt11char_traitsIcESaIcEEEEeqIRA38_KcEEDTcmcvveqclL_ZNS0_7declvalIS7_EEOT_vEEclsr7doctest6detailE7declvalISE_EEtlNS0_6ResultEEESF_ = comdat any

$_ZN7doctest6detail14Expression_lhsIbEC2EObNS_10assertType4EnumE = comdat any

$_ZN7doctest6detail14MessageBuildermlIA6_cEERS1_RKT_ = comdat any

$_ZN7doctest6detail14MessageBuildercmINSt7__cxx1112basic_stringIcSt11char_traitsIcESaIcEEEEERS1_RKT_ = comdat any

$_ZN7doctest6detail14MessageBuildercmIA6_cEERS1_RKT_ = comdat any

$_ZN7doctest8toStringIA6_cTnNS_6detail5types9enable_ifIXntsr6detail35should_stringify_as_underlying_typeIT_EE5valueEbE4typeELb1EEENS_6StringERKS5_ = comdat any

$_ZN7doctest6detail15StringMakerBaseILb1EE7convertIA6_cEENS_6StringERKT_ = comdat any

$_ZN7doctest6detail8toStreamIA6_cEENS_6StringERKT_ = comdat any

$_ZN7doctest6detail7fillossIcLm6EEEvPSoRAT0__KT_ = comdat any

$_ZN7doctest6detail7fillossIA6_KcEEvPSoRKT_ = comdat any

$_ZN7doctest6detail8filldataIA6_KcE4fillEPSoRS3_ = comdat any

$_ZN7doctest8toStringINSt7__cxx1112basic_stringIcSt11char_traitsIcESaIcEEETnNS_6detail5types9enable_ifIXntsr6detail35should_stringify_as_underlying_typeIT_EE5valueEbE4typeELb1EEENS_6StringERKSA_ = comdat any

$_ZN7doctest6detail15StringMakerBaseILb1EE7convertINSt7__cxx1112basic_stringIcSt11char_traitsIcESaIcEEEEENS_6StringERKT_ = comdat any

$_ZN7doctest6detail8toStreamINSt7__cxx1112basic_stringIcSt11char_traitsIcESaIcEEEEENS_6StringERKT_ = comdat any

$_ZN7doctest6detail7fillossINSt7__cxx1112basic_stringIcSt11char_traitsIcESaIcEEEEEvPSoRKT_ = comdat any

$_ZN7doctest6detail8filldataINSt7__cxx1112basic_stringIcSt11char_traitsIcESaIcEEEE4fillEPSoRKS7_ = comdat any

$_ZN7doctest6detail16ContextScopeBaseD2Ev = comdat any

$_ZN7doctest6detail14Expression_lhsINSt7__cxx1112basic_stringIcSt11char_traitsIcESaIcEEEEC2EOS7_NS_10assertType4EnumE = comdat any

$_ZN7doctest6detail7forwardIKNSt7__cxx1112basic_stringIcSt11char_traitsIcESaIcEEEEEOT_RNS0_5types16remove_referenceIS9_E4typeE = comdat any

$_ZN7doctest6detail7forwardIRA16_KcEEOT_RNS0_5types16remove_referenceIS5_E4typeE = comdat any

$_ZN7doctest6detail19stringifyBinaryExprINSt7__cxx1112basic_stringIcSt11char_traitsIcESaIcEEEA16_cEENS_6StringERKT_PKcRKT0_ = comdat any

$_ZN7doctest8toStringIA16_cTnNS_6detail5types9enable_ifIXntsr6detail35should_stringify_as_underlying_typeIT_EE5valueEbE4typeELb1EEENS_6StringERKS5_ = comdat any

$_ZN7doctest6detail15StringMakerBaseILb1EE7convertIA16_cEENS_6StringERKT_ = comdat any

$_ZN7doctest6detail8toStreamIA16_cEENS_6StringERKT_ = comdat any

$_ZN7doctest6detail7fillossIcLm16EEEvPSoRAT0__KT_ = comdat any

$_ZN7doctest6detail7fillossIA16_KcEEvPSoRKT_ = comdat any

$_ZN7doctest6detail8filldataIA16_KcE4fillEPSoRS3_ = comdat any

$_ZN7doctest6detail7forwardIRA48_KcEEOT_RNS0_5types16remove_referenceIS5_E4typeE = comdat any

$_ZN7doctest6detail19stringifyBinaryExprINSt7__cxx1112basic_stringIcSt11char_traitsIcESaIcEEEA48_cEENS_6StringERKT_PKcRKT0_ = comdat any

$_ZN7doctest8toStringIA48_cTnNS_6detail5types9enable_ifIXntsr6detail35should_stringify_as_underlying_typeIT_EE5valueEbE4typeELb1EEENS_6StringERKS5_ = comdat any

$_ZN7doctest6detail15StringMakerBaseILb1EE7convertIA48_cEENS_6StringERKT_ = comdat any

$_ZN7doctest6detail8toStreamIA48_cEENS_6StringERKT_ = comdat any

$_ZN7doctest6detail7fillossIcLm48EEEvPSoRAT0__KT_ = comdat any

$_ZN7doctest6detail7fillossIA48_KcEEvPSoRKT_ = comdat any

$_ZN7doctest6detail8filldataIA48_KcE4fillEPSoRS3_ = comdat any

$_ZN7doctest6detail7forwardIRA38_KcEEOT_RNS0_5types16remove_referenceIS5_E4typeE = comdat any

$_ZN7doctest6detail19stringifyBinaryExprINSt7__cxx1112basic_stringIcSt11char_traitsIcESaIcEEEA38_cEENS_6StringERKT_PKcRKT0_ = comdat any

$_ZN7doctest8toStringIA38_cTnNS_6detail5types9enable_ifIXntsr6detail35should_stringify_as_underlying_typeIT_EE5valueEbE4typeELb1EEENS_6StringERKS5_ = comdat any

$_ZN7doctest6detail15StringMakerBaseILb1EE7convertIA38_cEENS_6StringERKT_ = comdat any

$_ZN7doctest6detail8toStreamIA38_cEENS_6StringERKT_ = comdat any

$_ZN7doctest6detail7fillossIcLm38EEEvPSoRAT0__KT_ = comdat any

$_ZN7doctest6detail7fillossIA38_KcEEvPSoRKT_ = comdat any

$_ZN7doctest6detail8filldataIA38_KcE4fillEPSoRS3_ = comdat any

$_ZN8nlohmann16json_abi_v3_11_36detail13input_adapterIPKcEENS1_30iterator_input_adapter_factoryIT_vE12adapter_typeES6_S6_ = comdat any

$_ZN8nlohmann16json_abi_v3_11_36detail30iterator_input_adapter_factoryIPKcvE6createES4_S4_ = comdat any

$_ZN8nlohmann16json_abi_v3_11_36detail22iterator_input_adapterIPKcEC2ES4_S4_ = comdat any

$_ZNSt11char_traitsIcE3eofEv = comdat any

$_ZN8nlohmann16json_abi_v3_11_36detail10position_tC2Ev = comdat any

$_ZNSt6vectorIcSaIcEEC2Ev = comdat any

$_ZN8nlohmann16json_abi_v3_11_36detail5lexerINS0_10basic_jsonISt3mapSt6vectorNSt7__cxx1112basic_stringIcSt11char_traitsIcESaIcEEEblmdSaNS0_14adl_serializerES5_IhSaIhEEvEENS1_22iterator_input_adapterIPKcEEE17get_decimal_pointEv = comdat any

$_ZNSt12_Vector_baseIcSaIcEEC2Ev = comdat any

$_ZNSt12_Vector_baseIcSaIcEE12_Vector_implC2Ev = comdat any

$_ZNSt12_Vector_baseIcSaIcEE17_Vector_impl_dataC2Ev = comdat any

$_ZN8nlohmann16json_abi_v3_11_36detail5lexerINS0_10basic_jsonISt3mapSt6vectorNSt7__cxx1112basic_stringIcSt11char_traitsIcESaIcEEEblmdSaNS0_14adl_serializerES5_IhSaIhEEvEENS1_22iterator_input_adapterIPKcEEE8skip_bomEv = comdat any

$_ZN8nlohmann16json_abi_v3_11_36detail5lexerINS0_10basic_jsonISt3mapSt6vectorNSt7__cxx1112basic_stringIcSt11char_traitsIcESaIcEEEblmdSaNS0_14adl_serializerES5_IhSaIhEEvEENS1_22iterator_input_adapterIPKcEEE15skip_whitespaceEv = comdat any

$_ZN8nlohmann16json_abi_v3_11_36detail5lexerINS0_10basic_jsonISt3mapSt6vectorNSt7__cxx1112basic_stringIcSt11char_traitsIcESaIcEEEblmdSaNS0_14adl_serializerES5_IhSaIhEEvEENS1_22iterator_input_adapterIPKcEEE12scan_commentEv = comdat any

$_ZN8nlohmann16json_abi_v3_11_36detail5lexerINS0_10basic_jsonISt3mapSt6vectorNSt7__cxx1112basic_stringIcSt11char_traitsIcESaIcEEEblmdSaNS0_14adl_serializerES5_IhSaIhEEvEENS1_22iterator_input_adapterIPKcEEE12scan_literalESI_mNS1_10lexer_baseISF_E10token_typeE = comdat any

$_ZNSt5arrayIcLm4EE4dataEv = comdat any

$_ZNKSt5arrayIcLm4EE4sizeEv = comdat any

$_ZNSt5arrayIcLm5EE4dataEv = comdat any

$_ZNKSt5arrayIcLm5EE4sizeEv = comdat any

$_ZN8nlohmann16json_abi_v3_11_36detail5lexerINS0_10basic_jsonISt3mapSt6vectorNSt7__cxx1112basic_stringIcSt11char_traitsIcESaIcEEEblmdSaNS0_14adl_serializerES5_IhSaIhEEvEENS1_22iterator_input_adapterIPKcEEE11scan_stringEv = comdat any

$_ZN8nlohmann16json_abi_v3_11_36detail5lexerINS0_10basic_jsonISt3mapSt6vectorNSt7__cxx1112basic_stringIcSt11char_traitsIcESaIcEEEblmdSaNS0_14adl_serializerES5_IhSaIhEEvEENS1_22iterator_input_adapterIPKcEEE11scan_numberEv = comdat any

$_ZN8nlohmann16json_abi_v3_11_36detail5lexerINS0_10basic_jsonISt3mapSt6vectorNSt7__cxx1112basic_stringIcSt11char_traitsIcESaIcEEEblmdSaNS0_14adl_serializerES5_IhSaIhEEvEENS1_22iterator_input_adapterIPKcEEE3getEv = comdat any

$_ZN8nlohmann16json_abi_v3_11_36detail5lexerINS0_10basic_jsonISt3mapSt6vectorNSt7__cxx1112basic_stringIcSt11char_traitsIcESaIcEEEblmdSaNS0_14adl_serializerES5_IhSaIhEEvEENS1_22iterator_input_adapterIPKcEEE5ungetEv = comdat any

$_ZN8nlohmann16json_abi_v3_11_36detail22iterator_input_adapterIPKcE13get_characterEv = comdat any

$_ZNSt6vectorIcSaIcEE9push_backEOc = comdat any

$_ZNSt11char_traitsIcE12to_char_typeERKi = comdat any

$_ZNSt11char_traitsIcE11to_int_typeERKc = comdat any

$_ZSt7advanceIPKciEvRT_T0_ = comdat any

$_ZSt9__advanceIPKclEvRT_T0_St26random_access_iterator_tag = comdat any

$_ZSt19__iterator_categoryIPKcENSt15iterator_traitsIT_E17iterator_categoryERKS3_ = comdat any

$_ZNSt6vectorIcSaIcEE12emplace_backIJcEEEvDpOT_ = comdat any

$_ZNSt16allocator_traitsISaIcEE9constructIcJcEEEvRS0_PT_DpOT0_ = comdat any

$_ZNSt6vectorIcSaIcEE17_M_realloc_insertIJcEEEvN9__gnu_cxx17__normal_iteratorIPcS1_EEDpOT_ = comdat any

$_ZNSt6vectorIcSaIcEE3endEv = comdat any

$_ZNSt15__new_allocatorIcE9constructIcJcEEEvPT_DpOT0_ = comdat any

$_ZNKSt6vectorIcSaIcEE12_M_check_lenEmPKc = comdat any

$_ZN9__gnu_cxxmiIPcSt6vectorIcSaIcEEEENS_17__normal_iteratorIT_T0_E15difference_typeERKS8_SB_ = comdat any

$_ZNSt6vectorIcSaIcEE5beginEv = comdat any

$_ZNSt12_Vector_baseIcSaIcEE11_M_allocateEm = comdat any

$_ZNSt6vectorIcSaIcEE11_S_relocateEPcS2_S2_RS0_ = comdat any

$_ZNK9__gnu_cxx17__normal_iteratorIPcSt6vectorIcSaIcEEE4baseEv = comdat any

$_ZNKSt6vectorIcSaIcEE8max_sizeEv = comdat any

$_ZNKSt6vectorIcSaIcEE4sizeEv = comdat any

$_ZSt3maxImERKT_S2_S2_ = comdat any

$_ZNSt6vectorIcSaIcEE11_S_max_sizeERKS0_ = comdat any

$_ZNKSt12_Vector_baseIcSaIcEE19_M_get_Tp_allocatorEv = comdat any

$_ZNSt16allocator_traitsISaIcEE8max_sizeERKS0_ = comdat any

$_ZSt3minImERKT_S2_S2_ = comdat any

$_ZNKSt15__new_allocatorIcE8max_sizeEv = comdat any

$_ZNKSt15__new_allocatorIcE11_M_max_sizeEv = comdat any

$_ZN9__gnu_cxx17__normal_iteratorIPcSt6vectorIcSaIcEEEC2ERKS1_ = comdat any

$_ZNSt16allocator_traitsISaIcEE8allocateERS0_m = comdat any

$_ZNSt15__new_allocatorIcE8allocateEmPKv = comdat any

$_ZNSt6vectorIcSaIcEE14_S_do_relocateEPcS2_S2_RS0_St17integral_constantIbLb1EE = comdat any

$_ZSt12__relocate_aIPcS0_SaIcEET0_T_S3_S2_RT1_ = comdat any

$_ZSt14__relocate_a_1IccENSt9enable_ifIXsr3std24__is_bitwise_relocatableIT_EE5valueEPS1_E4typeES2_S2_S2_RSaIT0_E = comdat any

$_ZSt12__niter_baseIPcET_S1_ = comdat any

$_ZNSt6vectorIcSaIcEE8pop_backEv = comdat any

$_ZNSt16allocator_traitsISaIcEE7destroyIcEEvRS0_PT_ = comdat any

$_ZNSt15__new_allocatorIcE7destroyIcEEvPT_ = comdat any

$_ZNSt14__array_traitsIcLm4EE6_S_ptrERA4_Kc = comdat any

$_ZNSt14__array_traitsIcLm5EE6_S_ptrERA5_Kc = comdat any

$_ZN8nlohmann16json_abi_v3_11_36detail5lexerINS0_10basic_jsonISt3mapSt6vectorNSt7__cxx1112basic_stringIcSt11char_traitsIcESaIcEEEblmdSaNS0_14adl_serializerES5_IhSaIhEEvEENS1_22iterator_input_adapterIPKcEEE5resetEv = comdat any

$_ZN8nlohmann16json_abi_v3_11_36detail5lexerINS0_10basic_jsonISt3mapSt6vectorNSt7__cxx1112basic_stringIcSt11char_traitsIcESaIcEEEblmdSaNS0_14adl_serializerES5_IhSaIhEEvEENS1_22iterator_input_adapterIPKcEEE3addEi = comdat any

$_ZN8nlohmann16json_abi_v3_11_36detail5lexerINS0_10basic_jsonISt3mapSt6vectorNSt7__cxx1112basic_stringIcSt11char_traitsIcESaIcEEEblmdSaNS0_14adl_serializerES5_IhSaIhEEvEENS1_22iterator_input_adapterIPKcEEE13get_codepointEv = comdat any

$_ZN8nlohmann16json_abi_v3_11_36detail5lexerINS0_10basic_jsonISt3mapSt6vectorNSt7__cxx1112basic_stringIcSt11char_traitsIcESaIcEEEblmdSaNS0_14adl_serializerES5_IhSaIhEEvEENS1_22iterator_input_adapterIPKcEEE18next_byte_in_rangeESt16initializer_listIiE = comdat any

$_ZNSt6vectorIcSaIcEE5clearEv = comdat any

$_ZNSt6vectorIcSaIcEE15_M_erase_at_endEPc = comdat any

$_ZNKSt16initializer_listIjE5beginEv = comdat any

$_ZNKSt16initializer_listIjE3endEv = comdat any

$_ZNKSt16initializer_listIjE4sizeEv = comdat any

$_ZNKSt16initializer_listIiE5beginEv = comdat any

$_ZNKSt16initializer_listIiE3endEv = comdat any

$_ZNKSt16initializer_listIiE4sizeEv = comdat any

$_ZN8nlohmann16json_abi_v3_11_36detail5lexerINS0_10basic_jsonISt3mapSt6vectorNSt7__cxx1112basic_stringIcSt11char_traitsIcESaIcEEEblmdSaNS0_14adl_serializerES5_IhSaIhEEvEENS1_22iterator_input_adapterIPKcEEE6strtofERdSI_PPc = comdat any

$_ZTSN7doctest6detail16ContextScopeBaseE = comdat any

$_ZTIN7doctest6detail16ContextScopeBaseE = comdat any

@_ZL18DOCTEST_ANON_VAR_0 = internal global i32 0, align 4
@.str = private unnamed_addr constant [1 x i8] zeroinitializer, align 1
@_ZL18DOCTEST_ANON_VAR_3 = internal global i32 0, align 4
@.str.2 = private unnamed_addr constant [127 x i8] c"generated/home/dtcxzyw/WorkSpace/Projects/compilers/llvm-opt-benchmark/bench/nlohmann_json/json/tests/src/unit-class_lexer.cpp\00", align 1
@.str.3 = private unnamed_addr constant [12 x i8] c"lexer class\00", align 1
@.str.4 = private unnamed_addr constant [5 x i8] c"scan\00", align 1
@.str.5 = private unnamed_addr constant [22 x i8] c"structural characters\00", align 1
@.str.6 = private unnamed_addr constant [59 x i8] c"(scan_string(\22[\22) == json::lexer::token_type::begin_array)\00", align 1
@.str.7 = private unnamed_addr constant [2 x i8] c"[\00", align 1
@.str.8 = private unnamed_addr constant [57 x i8] c"(scan_string(\22]\22) == json::lexer::token_type::end_array)\00", align 1
@.str.9 = private unnamed_addr constant [2 x i8] c"]\00", align 1
@.str.10 = private unnamed_addr constant [60 x i8] c"(scan_string(\22{\22) == json::lexer::token_type::begin_object)\00", align 1
@.str.11 = private unnamed_addr constant [2 x i8] c"{\00", align 1
@.str.12 = private unnamed_addr constant [58 x i8] c"(scan_string(\22}\22) == json::lexer::token_type::end_object)\00", align 1
@.str.13 = private unnamed_addr constant [2 x i8] c"}\00", align 1
@.str.14 = private unnamed_addr constant [63 x i8] c"(scan_string(\22,\22) == json::lexer::token_type::value_separator)\00", align 1
@.str.15 = private unnamed_addr constant [2 x i8] c",\00", align 1
@.str.16 = private unnamed_addr constant [62 x i8] c"(scan_string(\22:\22) == json::lexer::token_type::name_separator)\00", align 1
@.str.17 = private unnamed_addr constant [2 x i8] c":\00", align 1
@.str.18 = private unnamed_addr constant [14 x i8] c"literal names\00", align 1
@.str.19 = private unnamed_addr constant [63 x i8] c"(scan_string(\22null\22) == json::lexer::token_type::literal_null)\00", align 1
@.str.20 = private unnamed_addr constant [5 x i8] c"null\00", align 1
@.str.21 = private unnamed_addr constant [63 x i8] c"(scan_string(\22true\22) == json::lexer::token_type::literal_true)\00", align 1
@.str.22 = private unnamed_addr constant [5 x i8] c"true\00", align 1
@.str.23 = private unnamed_addr constant [65 x i8] c"(scan_string(\22false\22) == json::lexer::token_type::literal_false)\00", align 1
@.str.24 = private unnamed_addr constant [6 x i8] c"false\00", align 1
@.str.25 = private unnamed_addr constant [8 x i8] c"numbers\00", align 1
@.str.26 = private unnamed_addr constant [62 x i8] c"(scan_string(\220\22) == json::lexer::token_type::value_unsigned)\00", align 1
@.str.27 = private unnamed_addr constant [2 x i8] c"0\00", align 1
@.str.28 = private unnamed_addr constant [62 x i8] c"(scan_string(\221\22) == json::lexer::token_type::value_unsigned)\00", align 1
@.str.29 = private unnamed_addr constant [2 x i8] c"1\00", align 1
@.str.30 = private unnamed_addr constant [62 x i8] c"(scan_string(\222\22) == json::lexer::token_type::value_unsigned)\00", align 1
@.str.31 = private unnamed_addr constant [2 x i8] c"2\00", align 1
@.str.32 = private unnamed_addr constant [62 x i8] c"(scan_string(\223\22) == json::lexer::token_type::value_unsigned)\00", align 1
@.str.33 = private unnamed_addr constant [2 x i8] c"3\00", align 1
@.str.34 = private unnamed_addr constant [62 x i8] c"(scan_string(\224\22) == json::lexer::token_type::value_unsigned)\00", align 1
@.str.35 = private unnamed_addr constant [2 x i8] c"4\00", align 1
@.str.36 = private unnamed_addr constant [62 x i8] c"(scan_string(\225\22) == json::lexer::token_type::value_unsigned)\00", align 1
@.str.37 = private unnamed_addr constant [2 x i8] c"5\00", align 1
@.str.38 = private unnamed_addr constant [62 x i8] c"(scan_string(\226\22) == json::lexer::token_type::value_unsigned)\00", align 1
@.str.39 = private unnamed_addr constant [2 x i8] c"6\00", align 1
@.str.40 = private unnamed_addr constant [62 x i8] c"(scan_string(\227\22) == json::lexer::token_type::value_unsigned)\00", align 1
@.str.41 = private unnamed_addr constant [2 x i8] c"7\00", align 1
@.str.42 = private unnamed_addr constant [62 x i8] c"(scan_string(\228\22) == json::lexer::token_type::value_unsigned)\00", align 1
@.str.43 = private unnamed_addr constant [2 x i8] c"8\00", align 1
@.str.44 = private unnamed_addr constant [62 x i8] c"(scan_string(\229\22) == json::lexer::token_type::value_unsigned)\00", align 1
@.str.45 = private unnamed_addr constant [2 x i8] c"9\00", align 1
@.str.46 = private unnamed_addr constant [62 x i8] c"(scan_string(\22-0\22) == json::lexer::token_type::value_integer)\00", align 1
@.str.47 = private unnamed_addr constant [3 x i8] c"-0\00", align 1
@.str.48 = private unnamed_addr constant [62 x i8] c"(scan_string(\22-1\22) == json::lexer::token_type::value_integer)\00", align 1
@.str.49 = private unnamed_addr constant [3 x i8] c"-1\00", align 1
@.str.50 = private unnamed_addr constant [61 x i8] c"(scan_string(\221.1\22) == json::lexer::token_type::value_float)\00", align 1
@.str.51 = private unnamed_addr constant [4 x i8] c"1.1\00", align 1
@.str.52 = private unnamed_addr constant [62 x i8] c"(scan_string(\22-1.1\22) == json::lexer::token_type::value_float)\00", align 1
@.str.53 = private unnamed_addr constant [5 x i8] c"-1.1\00", align 1
@.str.54 = private unnamed_addr constant [62 x i8] c"(scan_string(\221E10\22) == json::lexer::token_type::value_float)\00", align 1
@.str.55 = private unnamed_addr constant [5 x i8] c"1E10\00", align 1
@.str.56 = private unnamed_addr constant [11 x i8] c"whitespace\00", align 1
@.str.57 = private unnamed_addr constant [60 x i8] c"(scan_string(\22 \22) == json::lexer::token_type::end_of_input)\00", align 1
@.str.58 = private unnamed_addr constant [2 x i8] c" \00", align 1
@.str.59 = private unnamed_addr constant [61 x i8] c"(scan_string(\22\\t\22) == json::lexer::token_type::end_of_input)\00", align 1
@.str.60 = private unnamed_addr constant [2 x i8] c"\09\00", align 1
@.str.61 = private unnamed_addr constant [61 x i8] c"(scan_string(\22\\n\22) == json::lexer::token_type::end_of_input)\00", align 1
@.str.62 = private unnamed_addr constant [2 x i8] c"\0A\00", align 1
@.str.63 = private unnamed_addr constant [61 x i8] c"(scan_string(\22\\r\22) == json::lexer::token_type::end_of_input)\00", align 1
@.str.64 = private unnamed_addr constant [2 x i8] c"\0D\00", align 1
@.str.65 = private unnamed_addr constant [71 x i8] c"(scan_string(\22 \\t\\n\\r\\n\\t \22) == json::lexer::token_type::end_of_input)\00", align 1
@.str.66 = private unnamed_addr constant [8 x i8] c" \09\0A\0D\0A\09 \00", align 1
@.str.67 = private unnamed_addr constant [16 x i8] c"token_type_name\00", align 1
@.str.68 = private unnamed_addr constant [105 x i8] c"(std::string(json::lexer::token_type_name(json::lexer::token_type::uninitialized)) == \22<uninitialized>\22)\00", align 1
@.str.69 = private unnamed_addr constant [16 x i8] c"<uninitialized>\00", align 1
@.str.70 = private unnamed_addr constant [101 x i8] c"(std::string(json::lexer::token_type_name(json::lexer::token_type::literal_true)) == \22true literal\22)\00", align 1
@.str.71 = private unnamed_addr constant [13 x i8] c"true literal\00", align 1
@.str.72 = private unnamed_addr constant [103 x i8] c"(std::string(json::lexer::token_type_name(json::lexer::token_type::literal_false)) == \22false literal\22)\00", align 1
@.str.73 = private unnamed_addr constant [14 x i8] c"false literal\00", align 1
@.str.74 = private unnamed_addr constant [101 x i8] c"(std::string(json::lexer::token_type_name(json::lexer::token_type::literal_null)) == \22null literal\22)\00", align 1
@.str.75 = private unnamed_addr constant [13 x i8] c"null literal\00", align 1
@.str.76 = private unnamed_addr constant [103 x i8] c"(std::string(json::lexer::token_type_name(json::lexer::token_type::value_string)) == \22string literal\22)\00", align 1
@.str.77 = private unnamed_addr constant [15 x i8] c"string literal\00", align 1
@.str.78 = private unnamed_addr constant [105 x i8] c"(std::string(json::lexer::token_type_name(json::lexer::token_type::value_unsigned)) == \22number literal\22)\00", align 1
@.str.79 = private unnamed_addr constant [15 x i8] c"number literal\00", align 1
@.str.80 = private unnamed_addr constant [104 x i8] c"(std::string(json::lexer::token_type_name(json::lexer::token_type::value_integer)) == \22number literal\22)\00", align 1
@.str.81 = private unnamed_addr constant [102 x i8] c"(std::string(json::lexer::token_type_name(json::lexer::token_type::value_float)) == \22number literal\22)\00", align 1
@.str.82 = private unnamed_addr constant [91 x i8] c"(std::string(json::lexer::token_type_name(json::lexer::token_type::begin_array)) == \22'['\22)\00", align 1
@.str.83 = private unnamed_addr constant [4 x i8] c"'['\00", align 1
@.str.84 = private unnamed_addr constant [92 x i8] c"(std::string(json::lexer::token_type_name(json::lexer::token_type::begin_object)) == \22'{'\22)\00", align 1
@.str.85 = private unnamed_addr constant [4 x i8] c"'{'\00", align 1
@.str.86 = private unnamed_addr constant [89 x i8] c"(std::string(json::lexer::token_type_name(json::lexer::token_type::end_array)) == \22']'\22)\00", align 1
@.str.87 = private unnamed_addr constant [4 x i8] c"']'\00", align 1
@.str.88 = private unnamed_addr constant [90 x i8] c"(std::string(json::lexer::token_type_name(json::lexer::token_type::end_object)) == \22'}'\22)\00", align 1
@.str.89 = private unnamed_addr constant [4 x i8] c"'}'\00", align 1
@.str.90 = private unnamed_addr constant [94 x i8] c"(std::string(json::lexer::token_type_name(json::lexer::token_type::name_separator)) == \22':'\22)\00", align 1
@.str.91 = private unnamed_addr constant [4 x i8] c"':'\00", align 1
@.str.92 = private unnamed_addr constant [95 x i8] c"(std::string(json::lexer::token_type_name(json::lexer::token_type::value_separator)) == \22','\22)\00", align 1
@.str.93 = private unnamed_addr constant [4 x i8] c"','\00", align 1
@.str.94 = private unnamed_addr constant [101 x i8] c"(std::string(json::lexer::token_type_name(json::lexer::token_type::parse_error)) == \22<parse error>\22)\00", align 1
@.str.95 = private unnamed_addr constant [14 x i8] c"<parse error>\00", align 1
@.str.96 = private unnamed_addr constant [101 x i8] c"(std::string(json::lexer::token_type_name(json::lexer::token_type::end_of_input)) == \22end of input\22)\00", align 1
@.str.97 = private unnamed_addr constant [13 x i8] c"end of input\00", align 1
@.str.98 = private unnamed_addr constant [32 x i8] c"parse errors on first character\00", align 1
@.str.99 = private unnamed_addr constant [46 x i8] c"(res != json::lexer::token_type::parse_error)\00", align 1
@.str.100 = private unnamed_addr constant [47 x i8] c"(res == json::lexer::token_type::end_of_input)\00", align 1
@.str.101 = private unnamed_addr constant [46 x i8] c"(res == json::lexer::token_type::parse_error)\00", align 1
@.str.102 = private unnamed_addr constant [18 x i8] c"very large string\00", align 1
@.str.103 = private unnamed_addr constant [2 x i8] c"\22\00", align 1
@.str.104 = private unnamed_addr constant [66 x i8] c"(scan_string(s.c_str()) == json::lexer::token_type::value_string)\00", align 1
@.str.105 = private unnamed_addr constant [17 x i8] c"fail on comments\00", align 1
@.str.106 = private unnamed_addr constant [66 x i8] c"(scan_string(\22/\22, false) == json::lexer::token_type::parse_error)\00", align 1
@.str.107 = private unnamed_addr constant [2 x i8] c"/\00", align 1
@.str.108 = private unnamed_addr constant [51 x i8] c"get_error_message(\22/\22, false) == \22invalid literal\22\00", align 1
@.str.109 = private unnamed_addr constant [16 x i8] c"invalid literal\00", align 1
@.str.110 = private unnamed_addr constant [67 x i8] c"(scan_string(\22/!\22, false) == json::lexer::token_type::parse_error)\00", align 1
@.str.111 = private unnamed_addr constant [3 x i8] c"/!\00", align 1
@.str.112 = private unnamed_addr constant [52 x i8] c"get_error_message(\22/!\22, false) == \22invalid literal\22\00", align 1
@.str.113 = private unnamed_addr constant [67 x i8] c"(scan_string(\22/*\22, false) == json::lexer::token_type::parse_error)\00", align 1
@.str.114 = private unnamed_addr constant [3 x i8] c"/*\00", align 1
@.str.115 = private unnamed_addr constant [52 x i8] c"get_error_message(\22/*\22, false) == \22invalid literal\22\00", align 1
@.str.116 = private unnamed_addr constant [68 x i8] c"(scan_string(\22/**\22, false) == json::lexer::token_type::parse_error)\00", align 1
@.str.117 = private unnamed_addr constant [4 x i8] c"/**\00", align 1
@.str.118 = private unnamed_addr constant [53 x i8] c"get_error_message(\22/**\22, false) == \22invalid literal\22\00", align 1
@.str.119 = private unnamed_addr constant [67 x i8] c"(scan_string(\22//\22, false) == json::lexer::token_type::parse_error)\00", align 1
@.str.120 = private unnamed_addr constant [3 x i8] c"//\00", align 1
@.str.121 = private unnamed_addr constant [52 x i8] c"get_error_message(\22//\22, false) == \22invalid literal\22\00", align 1
@.str.122 = private unnamed_addr constant [69 x i8] c"(scan_string(\22/**/\22, false) == json::lexer::token_type::parse_error)\00", align 1
@.str.123 = private unnamed_addr constant [5 x i8] c"/**/\00", align 1
@.str.124 = private unnamed_addr constant [54 x i8] c"get_error_message(\22/**/\22, false) == \22invalid literal\22\00", align 1
@.str.125 = private unnamed_addr constant [70 x i8] c"(scan_string(\22/** /\22, false) == json::lexer::token_type::parse_error)\00", align 1
@.str.126 = private unnamed_addr constant [6 x i8] c"/** /\00", align 1
@.str.127 = private unnamed_addr constant [55 x i8] c"get_error_message(\22/** /\22, false) == \22invalid literal\22\00", align 1
@.str.128 = private unnamed_addr constant [70 x i8] c"(scan_string(\22/***/\22, false) == json::lexer::token_type::parse_error)\00", align 1
@.str.129 = private unnamed_addr constant [6 x i8] c"/***/\00", align 1
@.str.130 = private unnamed_addr constant [55 x i8] c"get_error_message(\22/***/\22, false) == \22invalid literal\22\00", align 1
@.str.131 = private unnamed_addr constant [75 x i8] c"(scan_string(\22/* true */\22, false) == json::lexer::token_type::parse_error)\00", align 1
@.str.132 = private unnamed_addr constant [11 x i8] c"/* true */\00", align 1
@.str.133 = private unnamed_addr constant [60 x i8] c"get_error_message(\22/* true */\22, false) == \22invalid literal\22\00", align 1
@.str.134 = private unnamed_addr constant [71 x i8] c"(scan_string(\22/*/**/\22, false) == json::lexer::token_type::parse_error)\00", align 1
@.str.135 = private unnamed_addr constant [7 x i8] c"/*/**/\00", align 1
@.str.136 = private unnamed_addr constant [56 x i8] c"get_error_message(\22/*/**/\22, false) == \22invalid literal\22\00", align 1
@.str.137 = private unnamed_addr constant [72 x i8] c"(scan_string(\22/*/* */\22, false) == json::lexer::token_type::parse_error)\00", align 1
@.str.138 = private unnamed_addr constant [8 x i8] c"/*/* */\00", align 1
@.str.139 = private unnamed_addr constant [57 x i8] c"get_error_message(\22/*/* */\22, false) == \22invalid literal\22\00", align 1
@.str.140 = private unnamed_addr constant [16 x i8] c"ignore comments\00", align 1
@.str.141 = private unnamed_addr constant [65 x i8] c"(scan_string(\22/\22, true) == json::lexer::token_type::parse_error)\00", align 1
@.str.142 = private unnamed_addr constant [82 x i8] c"get_error_message(\22/\22, true) == \22invalid comment; expecting '/' or '*' after '/'\22\00", align 1
@.str.143 = private unnamed_addr constant [48 x i8] c"invalid comment; expecting '/' or '*' after '/'\00", align 1
@.str.144 = private unnamed_addr constant [66 x i8] c"(scan_string(\22/!\22, true) == json::lexer::token_type::parse_error)\00", align 1
@.str.145 = private unnamed_addr constant [83 x i8] c"get_error_message(\22/!\22, true) == \22invalid comment; expecting '/' or '*' after '/'\22\00", align 1
@.str.146 = private unnamed_addr constant [66 x i8] c"(scan_string(\22/*\22, true) == json::lexer::token_type::parse_error)\00", align 1
@.str.147 = private unnamed_addr constant [73 x i8] c"get_error_message(\22/*\22, true) == \22invalid comment; missing closing '*/'\22\00", align 1
@.str.148 = private unnamed_addr constant [38 x i8] c"invalid comment; missing closing '*/'\00", align 1
@.str.149 = private unnamed_addr constant [67 x i8] c"(scan_string(\22/**\22, true) == json::lexer::token_type::parse_error)\00", align 1
@.str.150 = private unnamed_addr constant [74 x i8] c"get_error_message(\22/**\22, true) == \22invalid comment; missing closing '*/'\22\00", align 1
@.str.151 = private unnamed_addr constant [67 x i8] c"(scan_string(\22//\22, true) == json::lexer::token_type::end_of_input)\00", align 1
@.str.152 = private unnamed_addr constant [69 x i8] c"(scan_string(\22/**/\22, true) == json::lexer::token_type::end_of_input)\00", align 1
@.str.153 = private unnamed_addr constant [69 x i8] c"(scan_string(\22/** /\22, true) == json::lexer::token_type::parse_error)\00", align 1
@.str.154 = private unnamed_addr constant [76 x i8] c"get_error_message(\22/** /\22, true) == \22invalid comment; missing closing '*/'\22\00", align 1
@.str.155 = private unnamed_addr constant [70 x i8] c"(scan_string(\22/***/\22, true) == json::lexer::token_type::end_of_input)\00", align 1
@.str.156 = private unnamed_addr constant [75 x i8] c"(scan_string(\22/* true */\22, true) == json::lexer::token_type::end_of_input)\00", align 1
@.str.157 = private unnamed_addr constant [71 x i8] c"(scan_string(\22/*/**/\22, true) == json::lexer::token_type::end_of_input)\00", align 1
@.str.158 = private unnamed_addr constant [72 x i8] c"(scan_string(\22/*/* */\22, true) == json::lexer::token_type::end_of_input)\00", align 1
@.str.159 = private unnamed_addr constant [73 x i8] c"(scan_string(\22//\\n//\\n\22, true) == json::lexer::token_type::end_of_input)\00", align 1
@.str.160 = private unnamed_addr constant [7 x i8] c"//\0A//\0A\00", align 1
@.str.161 = private unnamed_addr constant [77 x i8] c"(scan_string(\22/**//**//**/\22, true) == json::lexer::token_type::end_of_input)\00", align 1
@.str.162 = private unnamed_addr constant [13 x i8] c"/**//**//**/\00", align 1
@.str.163 = private unnamed_addr constant [23 x i8] c"'[', '{', or a literal\00", align 1
@.str.164 = private unnamed_addr constant [14 x i8] c"unknown token\00", align 1
@"_ZTVN7doctest6detail12ContextScopeIZL19DOCTEST_ANON_FUNC_2vE3$_0EE" = internal unnamed_addr constant { [5 x ptr] } { [5 x ptr] [ptr null, ptr @"_ZTIN7doctest6detail12ContextScopeIZL19DOCTEST_ANON_FUNC_2vE3$_0EE", ptr @"_ZN7doctest6detail12ContextScopeIZL19DOCTEST_ANON_FUNC_2vE3$_0ED2Ev", ptr @"_ZN7doctest6detail12ContextScopeIZL19DOCTEST_ANON_FUNC_2vE3$_0ED0Ev", ptr @"_ZNK7doctest6detail12ContextScopeIZL19DOCTEST_ANON_FUNC_2vE3$_0E9stringifyEPSo"] }, align 8
@_ZTVN10__cxxabiv120__si_class_type_infoE = external global [0 x ptr]
@"_ZTSN7doctest6detail12ContextScopeIZL19DOCTEST_ANON_FUNC_2vE3$_0EE" = internal constant [63 x i8] c"N7doctest6detail12ContextScopeIZL19DOCTEST_ANON_FUNC_2vE3$_0EE\00", align 1
@_ZTSN7doctest6detail16ContextScopeBaseE = linkonce_odr dso_local constant [36 x i8] c"N7doctest6detail16ContextScopeBaseE\00", comdat, align 1
@_ZTIN7doctest13IContextScopeE = external constant ptr
@_ZTIN7doctest6detail16ContextScopeBaseE = linkonce_odr dso_local constant { ptr, ptr, ptr } { ptr getelementptr inbounds (ptr, ptr @_ZTVN10__cxxabiv120__si_class_type_infoE, i64 2), ptr @_ZTSN7doctest6detail16ContextScopeBaseE, ptr @_ZTIN7doctest13IContextScopeE }, comdat, align 8
@"_ZTIN7doctest6detail12ContextScopeIZL19DOCTEST_ANON_FUNC_2vE3$_0EE" = internal constant { ptr, ptr, ptr } { ptr getelementptr inbounds (ptr, ptr @_ZTVN10__cxxabiv120__si_class_type_infoE, i64 2), ptr @"_ZTSN7doctest6detail12ContextScopeIZL19DOCTEST_ANON_FUNC_2vE3$_0EE", ptr @_ZTIN7doctest6detail16ContextScopeBaseE }, align 8
@.str.165 = private unnamed_addr constant [6 x i8] c"s := \00", align 1
@.str.166 = private unnamed_addr constant [5 x i8] c" == \00", align 1
@.str.167 = private unnamed_addr constant [45 x i8] c"invalid BOM; must be 0xEF 0xBB 0xBF if given\00", align 1
@__const._ZN8nlohmann16json_abi_v3_11_36detail5lexerINS0_10basic_jsonISt3mapSt6vectorNSt7__cxx1112basic_stringIcSt11char_traitsIcESaIcEEEblmdSaNS0_14adl_serializerES5_IhSaIhEEvEENS1_22iterator_input_adapterIPKcEEE4scanEv.true_literal = private unnamed_addr constant %"struct.std::array" { [4 x i8] c"true" }, align 1
@__const._ZN8nlohmann16json_abi_v3_11_36detail5lexerINS0_10basic_jsonISt3mapSt6vectorNSt7__cxx1112basic_stringIcSt11char_traitsIcESaIcEEEblmdSaNS0_14adl_serializerES5_IhSaIhEEvEENS1_22iterator_input_adapterIPKcEEE4scanEv.false_literal = private unnamed_addr constant %"struct.std::array.2" { [5 x i8] c"false" }, align 1
@__const._ZN8nlohmann16json_abi_v3_11_36detail5lexerINS0_10basic_jsonISt3mapSt6vectorNSt7__cxx1112basic_stringIcSt11char_traitsIcESaIcEEEblmdSaNS0_14adl_serializerES5_IhSaIhEEvEENS1_22iterator_input_adapterIPKcEEE4scanEv.null_literal = private unnamed_addr constant %"struct.std::array" { [4 x i8] c"null" }, align 1
@.str.168 = private unnamed_addr constant [26 x i8] c"vector::_M_realloc_insert\00", align 1
@.str.169 = private unnamed_addr constant [38 x i8] c"invalid string: missing closing quote\00", align 1
@.str.170 = private unnamed_addr constant [54 x i8] c"invalid string: '\\u' must be followed by 4 hex digits\00", align 1
@.str.171 = private unnamed_addr constant [76 x i8] c"invalid string: surrogate U+D800..U+DBFF must be followed by U+DC00..U+DFFF\00", align 1
@.str.172 = private unnamed_addr constant [68 x i8] c"invalid string: surrogate U+DC00..U+DFFF must follow U+D800..U+DBFF\00", align 1
@.str.173 = private unnamed_addr constant [52 x i8] c"invalid string: forbidden character after backslash\00", align 1
@.str.174 = private unnamed_addr constant [73 x i8] c"invalid string: control character U+0000 (NUL) must be escaped to \\u0000\00", align 1
@.str.175 = private unnamed_addr constant [73 x i8] c"invalid string: control character U+0001 (SOH) must be escaped to \\u0001\00", align 1
@.str.176 = private unnamed_addr constant [73 x i8] c"invalid string: control character U+0002 (STX) must be escaped to \\u0002\00", align 1
@.str.177 = private unnamed_addr constant [73 x i8] c"invalid string: control character U+0003 (ETX) must be escaped to \\u0003\00", align 1
@.str.178 = private unnamed_addr constant [73 x i8] c"invalid string: control character U+0004 (EOT) must be escaped to \\u0004\00", align 1
@.str.179 = private unnamed_addr constant [73 x i8] c"invalid string: control character U+0005 (ENQ) must be escaped to \\u0005\00", align 1
@.str.180 = private unnamed_addr constant [73 x i8] c"invalid string: control character U+0006 (ACK) must be escaped to \\u0006\00", align 1
@.str.181 = private unnamed_addr constant [73 x i8] c"invalid string: control character U+0007 (BEL) must be escaped to \\u0007\00", align 1
@.str.182 = private unnamed_addr constant [78 x i8] c"invalid string: control character U+0008 (BS) must be escaped to \\u0008 or \\b\00", align 1
@.str.183 = private unnamed_addr constant [78 x i8] c"invalid string: control character U+0009 (HT) must be escaped to \\u0009 or \\t\00", align 1
@.str.184 = private unnamed_addr constant [78 x i8] c"invalid string: control character U+000A (LF) must be escaped to \\u000A or \\n\00", align 1
@.str.185 = private unnamed_addr constant [72 x i8] c"invalid string: control character U+000B (VT) must be escaped to \\u000B\00", align 1
@.str.186 = private unnamed_addr constant [78 x i8] c"invalid string: control character U+000C (FF) must be escaped to \\u000C or \\f\00", align 1
@.str.187 = private unnamed_addr constant [78 x i8] c"invalid string: control character U+000D (CR) must be escaped to \\u000D or \\r\00", align 1
@.str.188 = private unnamed_addr constant [72 x i8] c"invalid string: control character U+000E (SO) must be escaped to \\u000E\00", align 1
@.str.189 = private unnamed_addr constant [72 x i8] c"invalid string: control character U+000F (SI) must be escaped to \\u000F\00", align 1
@.str.190 = private unnamed_addr constant [73 x i8] c"invalid string: control character U+0010 (DLE) must be escaped to \\u0010\00", align 1
@.str.191 = private unnamed_addr constant [73 x i8] c"invalid string: control character U+0011 (DC1) must be escaped to \\u0011\00", align 1
@.str.192 = private unnamed_addr constant [73 x i8] c"invalid string: control character U+0012 (DC2) must be escaped to \\u0012\00", align 1
@.str.193 = private unnamed_addr constant [73 x i8] c"invalid string: control character U+0013 (DC3) must be escaped to \\u0013\00", align 1
@.str.194 = private unnamed_addr constant [73 x i8] c"invalid string: control character U+0014 (DC4) must be escaped to \\u0014\00", align 1
@.str.195 = private unnamed_addr constant [73 x i8] c"invalid string: control character U+0015 (NAK) must be escaped to \\u0015\00", align 1
@.str.196 = private unnamed_addr constant [73 x i8] c"invalid string: control character U+0016 (SYN) must be escaped to \\u0016\00", align 1
@.str.197 = private unnamed_addr constant [73 x i8] c"invalid string: control character U+0017 (ETB) must be escaped to \\u0017\00", align 1
@.str.198 = private unnamed_addr constant [73 x i8] c"invalid string: control character U+0018 (CAN) must be escaped to \\u0018\00", align 1
@.str.199 = private unnamed_addr constant [72 x i8] c"invalid string: control character U+0019 (EM) must be escaped to \\u0019\00", align 1
@.str.200 = private unnamed_addr constant [73 x i8] c"invalid string: control character U+001A (SUB) must be escaped to \\u001A\00", align 1
@.str.201 = private unnamed_addr constant [73 x i8] c"invalid string: control character U+001B (ESC) must be escaped to \\u001B\00", align 1
@.str.202 = private unnamed_addr constant [72 x i8] c"invalid string: control character U+001C (FS) must be escaped to \\u001C\00", align 1
@.str.203 = private unnamed_addr constant [72 x i8] c"invalid string: control character U+001D (GS) must be escaped to \\u001D\00", align 1
@.str.204 = private unnamed_addr constant [72 x i8] c"invalid string: control character U+001E (RS) must be escaped to \\u001E\00", align 1
@.str.205 = private unnamed_addr constant [72 x i8] c"invalid string: control character U+001F (US) must be escaped to \\u001F\00", align 1
@constinit = private constant [6 x i32] [i32 144, i32 191, i32 128, i32 191, i32 128, i32 191], align 4
@constinit.206 = private constant [6 x i32] [i32 128, i32 191, i32 128, i32 191, i32 128, i32 191], align 4
@constinit.207 = private constant [6 x i32] [i32 128, i32 143, i32 128, i32 191, i32 128, i32 191], align 4
@.str.208 = private unnamed_addr constant [38 x i8] c"invalid string: ill-formed UTF-8 byte\00", align 1
@.str.209 = private unnamed_addr constant [41 x i8] c"invalid number; expected digit after '-'\00", align 1
@.str.210 = private unnamed_addr constant [41 x i8] c"invalid number; expected digit after '.'\00", align 1
@.str.211 = private unnamed_addr constant [59 x i8] c"invalid number; expected '+', '-', or digit after exponent\00", align 1
@.str.212 = private unnamed_addr constant [51 x i8] c"invalid number; expected digit after exponent sign\00", align 1
@llvm.global_ctors = appending global [1 x { i32, ptr, ptr }] [{ i32, ptr, ptr } { i32 65535, ptr @_GLOBAL__sub_I_unit_class_lexer.cpp, ptr null }]

; Function Attrs: uwtable
define internal void @__cxx_global_var_init() #0 section ".text.startup" {
entry:
  %ref.tmp = alloca %"struct.doctest::detail::TestSuite", align 8
  call void @llvm.memset.p0.i64(ptr align 8 %ref.tmp, i8 0, i64 40, i1 false)
  call void @_ZN7doctest6detail9TestSuiteC2Ev(ptr noundef nonnull align 8 dereferenceable(40) %ref.tmp) #16
  %call = call noundef nonnull align 8 dereferenceable(40) ptr @_ZN7doctest6detail9TestSuitemlEPKc(ptr noundef nonnull align 8 dereferenceable(40) %ref.tmp, ptr noundef @.str)
  %call1 = call noundef i32 @_ZN7doctest6detail12setTestSuiteERKNS0_9TestSuiteE(ptr noundef nonnull align 8 dereferenceable(40) %call)
  %call2 = call noundef i32 @_ZN7doctest6detailL7consumeEPKii(ptr noundef @_ZL18DOCTEST_ANON_VAR_0, i32 noundef %call1) #16
  store i32 %call2, ptr @_ZL18DOCTEST_ANON_VAR_0, align 4
  ret void
}

; Function Attrs: mustprogress nounwind uwtable
define internal noundef i32 @_ZN7doctest6detailL7consumeEPKii(ptr noundef %0, i32 noundef %1) #1 {
entry:
  %.addr = alloca ptr, align 8
  %.addr1 = alloca i32, align 4
  store ptr %0, ptr %.addr, align 8
  store i32 %1, ptr %.addr1, align 4
  ret i32 0
}

declare noundef i32 @_ZN7doctest6detail12setTestSuiteERKNS0_9TestSuiteE(ptr noundef nonnull align 8 dereferenceable(40)) #2

; Function Attrs: nocallback nofree nounwind willreturn memory(argmem: write)
declare void @llvm.memset.p0.i64(ptr nocapture writeonly, i8, i64, i1 immarg) #3

; Function Attrs: mustprogress nounwind uwtable
define linkonce_odr dso_local void @_ZN7doctest6detail9TestSuiteC2Ev(ptr noundef nonnull align 8 dereferenceable(40) %this) unnamed_addr #1 comdat align 2 {
entry:
  %this.addr = alloca ptr, align 8
  store ptr %this, ptr %this.addr, align 8
  %this1 = load ptr, ptr %this.addr, align 8
  %m_test_suite = getelementptr inbounds %"struct.doctest::detail::TestSuite", ptr %this1, i32 0, i32 0
  store ptr null, ptr %m_test_suite, align 8
  %m_description = getelementptr inbounds %"struct.doctest::detail::TestSuite", ptr %this1, i32 0, i32 1
  store ptr null, ptr %m_description, align 8
  %m_skip = getelementptr inbounds %"struct.doctest::detail::TestSuite", ptr %this1, i32 0, i32 2
  store i8 0, ptr %m_skip, align 8
  %m_no_breaks = getelementptr inbounds %"struct.doctest::detail::TestSuite", ptr %this1, i32 0, i32 3
  store i8 0, ptr %m_no_breaks, align 1
  %m_no_output = getelementptr inbounds %"struct.doctest::detail::TestSuite", ptr %this1, i32 0, i32 4
  store i8 0, ptr %m_no_output, align 2
  %m_may_fail = getelementptr inbounds %"struct.doctest::detail::TestSuite", ptr %this1, i32 0, i32 5
  store i8 0, ptr %m_may_fail, align 1
  %m_should_fail = getelementptr inbounds %"struct.doctest::detail::TestSuite", ptr %this1, i32 0, i32 6
  store i8 0, ptr %m_should_fail, align 4
  %m_expected_failures = getelementptr inbounds %"struct.doctest::detail::TestSuite", ptr %this1, i32 0, i32 7
  store i32 0, ptr %m_expected_failures, align 8
  %m_timeout = getelementptr inbounds %"struct.doctest::detail::TestSuite", ptr %this1, i32 0, i32 8
  store double 0.000000e+00, ptr %m_timeout, align 8
  ret void
}

declare noundef nonnull align 8 dereferenceable(40) ptr @_ZN7doctest6detail9TestSuitemlEPKc(ptr noundef nonnull align 8 dereferenceable(40), ptr noundef) #2

; Function Attrs: mustprogress uwtable
define dso_local void @_Z17get_error_messageB5cxx11PKcb(ptr noalias sret(%"class.std::__cxx11::basic_string") align 8 %agg.result, ptr noundef %s, i1 noundef zeroext %ignore_comments) #4 personality ptr @__gxx_personality_v0 {
entry:
  %result.ptr = alloca ptr, align 8
  %s.addr = alloca ptr, align 8
  %ignore_comments.addr = alloca i8, align 1
  %ia = alloca %"class.nlohmann::json_abi_v3_11_3::detail::iterator_input_adapter", align 8
  %lexer = alloca %"class.nlohmann::json_abi_v3_11_3::detail::lexer", align 8
  %exn.slot = alloca ptr, align 8
  %ehselector.slot = alloca i32, align 4
  %ref.tmp = alloca %"class.std::allocator", align 1
  store ptr %agg.result, ptr %result.ptr, align 8
  store ptr %s, ptr %s.addr, align 8
  %frombool = zext i1 %ignore_comments to i8
  store i8 %frombool, ptr %ignore_comments.addr, align 1
  %0 = load ptr, ptr %s.addr, align 8
  %call = call { ptr, ptr } @_ZN8nlohmann16json_abi_v3_11_36detail13input_adapterIPKcTnNSt9enable_ifIXaaaaaasr3std10is_pointerIT_EE5valuentsr3std8is_arrayIS6_EE5valuesr3std11is_integralINSt14remove_pointerIS6_E4typeEEE5valueeqstS9_Li1EEiE4typeELi0EEENS1_22iterator_input_adapterIS4_EES6_(ptr noundef %0)
  %1 = getelementptr inbounds { ptr, ptr }, ptr %ia, i32 0, i32 0
  %2 = extractvalue { ptr, ptr } %call, 0
  store ptr %2, ptr %1, align 8
  %3 = getelementptr inbounds { ptr, ptr }, ptr %ia, i32 0, i32 1
  %4 = extractvalue { ptr, ptr } %call, 1
  store ptr %4, ptr %3, align 8
  %5 = load i8, ptr %ignore_comments.addr, align 1
  %tobool = trunc i8 %5 to i1
  call void @_ZN8nlohmann16json_abi_v3_11_36detail5lexerINS0_10basic_jsonISt3mapSt6vectorNSt7__cxx1112basic_stringIcSt11char_traitsIcESaIcEEEblmdSaNS0_14adl_serializerES5_IhSaIhEEvEENS1_22iterator_input_adapterIPKcEEEC2EOSJ_b(ptr noundef nonnull align 8 dereferenceable(148) %lexer, ptr noundef nonnull align 8 dereferenceable(16) %ia, i1 noundef zeroext %tobool) #16
  %call1 = invoke noundef i32 @_ZN8nlohmann16json_abi_v3_11_36detail5lexerINS0_10basic_jsonISt3mapSt6vectorNSt7__cxx1112basic_stringIcSt11char_traitsIcESaIcEEEblmdSaNS0_14adl_serializerES5_IhSaIhEEvEENS1_22iterator_input_adapterIPKcEEE4scanEv(ptr noundef nonnull align 8 dereferenceable(148) %lexer)
          to label %invoke.cont unwind label %lpad

invoke.cont:                                      ; preds = %entry
  %call2 = call noundef nonnull ptr @_ZNK8nlohmann16json_abi_v3_11_36detail5lexerINS0_10basic_jsonISt3mapSt6vectorNSt7__cxx1112basic_stringIcSt11char_traitsIcESaIcEEEblmdSaNS0_14adl_serializerES5_IhSaIhEEvEENS1_22iterator_input_adapterIPKcEEE17get_error_messageEv(ptr noundef nonnull align 8 dereferenceable(148) %lexer) #16
  call void @_ZNSaIcEC1Ev(ptr noundef nonnull align 1 dereferenceable(1) %ref.tmp) #16
  invoke void @_ZNSt7__cxx1112basic_stringIcSt11char_traitsIcESaIcEEC1EPKcRKS3_(ptr noundef nonnull align 8 dereferenceable(32) %agg.result, ptr noundef %call2, ptr noundef nonnull align 1 dereferenceable(1) %ref.tmp)
          to label %invoke.cont4 unwind label %lpad3

invoke.cont4:                                     ; preds = %invoke.cont
  call void @_ZNSaIcED1Ev(ptr noundef nonnull align 1 dereferenceable(1) %ref.tmp) #16
  call void @_ZN8nlohmann16json_abi_v3_11_36detail5lexerINS0_10basic_jsonISt3mapSt6vectorNSt7__cxx1112basic_stringIcSt11char_traitsIcESaIcEEEblmdSaNS0_14adl_serializerES5_IhSaIhEEvEENS1_22iterator_input_adapterIPKcEEED2Ev(ptr noundef nonnull align 8 dereferenceable(148) %lexer) #16
  ret void

lpad:                                             ; preds = %entry
  %6 = landingpad { ptr, i32 }
          cleanup
  %7 = extractvalue { ptr, i32 } %6, 0
  store ptr %7, ptr %exn.slot, align 8
  %8 = extractvalue { ptr, i32 } %6, 1
  store i32 %8, ptr %ehselector.slot, align 4
  br label %ehcleanup

lpad3:                                            ; preds = %invoke.cont
  %9 = landingpad { ptr, i32 }
          cleanup
  %10 = extractvalue { ptr, i32 } %9, 0
  store ptr %10, ptr %exn.slot, align 8
  %11 = extractvalue { ptr, i32 } %9, 1
  store i32 %11, ptr %ehselector.slot, align 4
  call void @_ZNSaIcED1Ev(ptr noundef nonnull align 1 dereferenceable(1) %ref.tmp) #16
  br label %ehcleanup

ehcleanup:                                        ; preds = %lpad3, %lpad
  call void @_ZN8nlohmann16json_abi_v3_11_36detail5lexerINS0_10basic_jsonISt3mapSt6vectorNSt7__cxx1112basic_stringIcSt11char_traitsIcESaIcEEEblmdSaNS0_14adl_serializerES5_IhSaIhEEvEENS1_22iterator_input_adapterIPKcEEED2Ev(ptr noundef nonnull align 8 dereferenceable(148) %lexer) #16
  br label %eh.resume

eh.resume:                                        ; preds = %ehcleanup
  %exn = load ptr, ptr %exn.slot, align 8
  %sel = load i32, ptr %ehselector.slot, align 4
  %lpad.val = insertvalue { ptr, i32 } poison, ptr %exn, 0
  %lpad.val5 = insertvalue { ptr, i32 } %lpad.val, i32 %sel, 1
  resume { ptr, i32 } %lpad.val5
}

; Function Attrs: mustprogress uwtable
define linkonce_odr dso_local { ptr, ptr } @_ZN8nlohmann16json_abi_v3_11_36detail13input_adapterIPKcTnNSt9enable_ifIXaaaaaasr3std10is_pointerIT_EE5valuentsr3std8is_arrayIS6_EE5valuesr3std11is_integralINSt14remove_pointerIS6_E4typeEEE5valueeqstS9_Li1EEiE4typeELi0EEENS1_22iterator_input_adapterIS4_EES6_(ptr noundef %b) #4 comdat {
entry:
  %retval = alloca %"class.nlohmann::json_abi_v3_11_3::detail::iterator_input_adapter", align 8
  %b.addr = alloca ptr, align 8
  %length = alloca i64, align 8
  %ptr = alloca ptr, align 8
  store ptr %b, ptr %b.addr, align 8
  %0 = load ptr, ptr %b.addr, align 8
  %call = call i64 @strlen(ptr noundef %0) #17
  store i64 %call, ptr %length, align 8
  %1 = load ptr, ptr %b.addr, align 8
  store ptr %1, ptr %ptr, align 8
  %2 = load ptr, ptr %ptr, align 8
  %3 = load ptr, ptr %ptr, align 8
  %4 = load i64, ptr %length, align 8
  %add.ptr = getelementptr inbounds i8, ptr %3, i64 %4
  %call1 = call { ptr, ptr } @_ZN8nlohmann16json_abi_v3_11_36detail13input_adapterIPKcEENS1_30iterator_input_adapter_factoryIT_vE12adapter_typeES6_S6_(ptr noundef %2, ptr noundef %add.ptr)
  %5 = getelementptr inbounds { ptr, ptr }, ptr %retval, i32 0, i32 0
  %6 = extractvalue { ptr, ptr } %call1, 0
  store ptr %6, ptr %5, align 8
  %7 = getelementptr inbounds { ptr, ptr }, ptr %retval, i32 0, i32 1
  %8 = extractvalue { ptr, ptr } %call1, 1
  store ptr %8, ptr %7, align 8
  %9 = load { ptr, ptr }, ptr %retval, align 8
  ret { ptr, ptr } %9
}

; Function Attrs: mustprogress nounwind uwtable
define linkonce_odr dso_local void @_ZN8nlohmann16json_abi_v3_11_36detail5lexerINS0_10basic_jsonISt3mapSt6vectorNSt7__cxx1112basic_stringIcSt11char_traitsIcESaIcEEEblmdSaNS0_14adl_serializerES5_IhSaIhEEvEENS1_22iterator_input_adapterIPKcEEEC2EOSJ_b(ptr noundef nonnull align 8 dereferenceable(148) %this, ptr noundef nonnull align 8 dereferenceable(16) %adapter, i1 noundef zeroext %ignore_comments_) unnamed_addr #1 comdat align 2 {
entry:
  %this.addr = alloca ptr, align 8
  %adapter.addr = alloca ptr, align 8
  %ignore_comments_.addr = alloca i8, align 1
  store ptr %this, ptr %this.addr, align 8
  store ptr %adapter, ptr %adapter.addr, align 8
  %frombool = zext i1 %ignore_comments_ to i8
  store i8 %frombool, ptr %ignore_comments_.addr, align 1
  %this1 = load ptr, ptr %this.addr, align 8
  %ia = getelementptr inbounds %"class.nlohmann::json_abi_v3_11_3::detail::lexer", ptr %this1, i32 0, i32 0
  %0 = load ptr, ptr %adapter.addr, align 8
  call void @llvm.memcpy.p0.p0.i64(ptr align 8 %ia, ptr align 8 %0, i64 16, i1 false)
  %ignore_comments = getelementptr inbounds %"class.nlohmann::json_abi_v3_11_3::detail::lexer", ptr %this1, i32 0, i32 1
  %1 = load i8, ptr %ignore_comments_.addr, align 1
  %tobool = trunc i8 %1 to i1
  %frombool2 = zext i1 %tobool to i8
  store i8 %frombool2, ptr %ignore_comments, align 8
  %current = getelementptr inbounds %"class.nlohmann::json_abi_v3_11_3::detail::lexer", ptr %this1, i32 0, i32 3
  %call = call noundef i32 @_ZNSt11char_traitsIcE3eofEv() #16
  store i32 %call, ptr %current, align 4
  %next_unget = getelementptr inbounds %"class.nlohmann::json_abi_v3_11_3::detail::lexer", ptr %this1, i32 0, i32 4
  store i8 0, ptr %next_unget, align 8
  %position = getelementptr inbounds %"class.nlohmann::json_abi_v3_11_3::detail::lexer", ptr %this1, i32 0, i32 6
  call void @llvm.memset.p0.i64(ptr align 8 %position, i8 0, i64 24, i1 false)
  call void @_ZN8nlohmann16json_abi_v3_11_36detail10position_tC2Ev(ptr noundef nonnull align 8 dereferenceable(24) %position) #16
  %token_string = getelementptr inbounds %"class.nlohmann::json_abi_v3_11_3::detail::lexer", ptr %this1, i32 0, i32 7
  call void @llvm.memset.p0.i64(ptr align 8 %token_string, i8 0, i64 24, i1 false)
  call void @_ZNSt6vectorIcSaIcEEC2Ev(ptr noundef nonnull align 8 dereferenceable(24) %token_string) #16
  %token_buffer = getelementptr inbounds %"class.nlohmann::json_abi_v3_11_3::detail::lexer", ptr %this1, i32 0, i32 8
  call void @_ZNSt7__cxx1112basic_stringIcSt11char_traitsIcESaIcEEC1Ev(ptr noundef nonnull align 8 dereferenceable(32) %token_buffer) #16
  %error_message = getelementptr inbounds %"class.nlohmann::json_abi_v3_11_3::detail::lexer", ptr %this1, i32 0, i32 9
  store ptr @.str, ptr %error_message, align 8
  %value_integer = getelementptr inbounds %"class.nlohmann::json_abi_v3_11_3::detail::lexer", ptr %this1, i32 0, i32 10
  store i64 0, ptr %value_integer, align 8
  %value_unsigned = getelementptr inbounds %"class.nlohmann::json_abi_v3_11_3::detail::lexer", ptr %this1, i32 0, i32 11
  store i64 0, ptr %value_unsigned, align 8
  %value_float = getelementptr inbounds %"class.nlohmann::json_abi_v3_11_3::detail::lexer", ptr %this1, i32 0, i32 12
  store double 0.000000e+00, ptr %value_float, align 8
  %decimal_point_char = getelementptr inbounds %"class.nlohmann::json_abi_v3_11_3::detail::lexer", ptr %this1, i32 0, i32 13
  %call3 = call noundef signext i8 @_ZN8nlohmann16json_abi_v3_11_36detail5lexerINS0_10basic_jsonISt3mapSt6vectorNSt7__cxx1112basic_stringIcSt11char_traitsIcESaIcEEEblmdSaNS0_14adl_serializerES5_IhSaIhEEvEENS1_22iterator_input_adapterIPKcEEE17get_decimal_pointEv() #17
  %conv = sext i8 %call3 to i32
  store i32 %conv, ptr %decimal_point_char, align 8
  ret void
}

; Function Attrs: mustprogress uwtable
define linkonce_odr dso_local noundef i32 @_ZN8nlohmann16json_abi_v3_11_36detail5lexerINS0_10basic_jsonISt3mapSt6vectorNSt7__cxx1112basic_stringIcSt11char_traitsIcESaIcEEEblmdSaNS0_14adl_serializerES5_IhSaIhEEvEENS1_22iterator_input_adapterIPKcEEE4scanEv(ptr noundef nonnull align 8 dereferenceable(148) %this) #4 comdat align 2 {
entry:
  %retval = alloca i32, align 4
  %this.addr = alloca ptr, align 8
  %true_literal = alloca %"struct.std::array", align 1
  %false_literal = alloca %"struct.std::array.2", align 1
  %null_literal = alloca %"struct.std::array", align 1
  store ptr %this, ptr %this.addr, align 8
  %this1 = load ptr, ptr %this.addr, align 8
  %position = getelementptr inbounds %"class.nlohmann::json_abi_v3_11_3::detail::lexer", ptr %this1, i32 0, i32 6
  %chars_read_total = getelementptr inbounds %"struct.nlohmann::json_abi_v3_11_3::detail::position_t", ptr %position, i32 0, i32 0
  %0 = load i64, ptr %chars_read_total, align 8
  %cmp = icmp eq i64 %0, 0
  br i1 %cmp, label %land.lhs.true, label %if.end

land.lhs.true:                                    ; preds = %entry
  %call = call noundef zeroext i1 @_ZN8nlohmann16json_abi_v3_11_36detail5lexerINS0_10basic_jsonISt3mapSt6vectorNSt7__cxx1112basic_stringIcSt11char_traitsIcESaIcEEEblmdSaNS0_14adl_serializerES5_IhSaIhEEvEENS1_22iterator_input_adapterIPKcEEE8skip_bomEv(ptr noundef nonnull align 8 dereferenceable(148) %this1)
  br i1 %call, label %if.end, label %if.then

if.then:                                          ; preds = %land.lhs.true
  %error_message = getelementptr inbounds %"class.nlohmann::json_abi_v3_11_3::detail::lexer", ptr %this1, i32 0, i32 9
  store ptr @.str.167, ptr %error_message, align 8
  store i32 14, ptr %retval, align 4
  br label %return

if.end:                                           ; preds = %land.lhs.true, %entry
  call void @_ZN8nlohmann16json_abi_v3_11_36detail5lexerINS0_10basic_jsonISt3mapSt6vectorNSt7__cxx1112basic_stringIcSt11char_traitsIcESaIcEEEblmdSaNS0_14adl_serializerES5_IhSaIhEEvEENS1_22iterator_input_adapterIPKcEEE15skip_whitespaceEv(ptr noundef nonnull align 8 dereferenceable(148) %this1)
  br label %while.cond

while.cond:                                       ; preds = %if.end5, %if.end
  %ignore_comments = getelementptr inbounds %"class.nlohmann::json_abi_v3_11_3::detail::lexer", ptr %this1, i32 0, i32 1
  %1 = load i8, ptr %ignore_comments, align 8
  %tobool = trunc i8 %1 to i1
  br i1 %tobool, label %land.rhs, label %land.end

land.rhs:                                         ; preds = %while.cond
  %current = getelementptr inbounds %"class.nlohmann::json_abi_v3_11_3::detail::lexer", ptr %this1, i32 0, i32 3
  %2 = load i32, ptr %current, align 4
  %cmp2 = icmp eq i32 %2, 47
  br label %land.end

land.end:                                         ; preds = %land.rhs, %while.cond
  %3 = phi i1 [ false, %while.cond ], [ %cmp2, %land.rhs ]
  br i1 %3, label %while.body, label %while.end

while.body:                                       ; preds = %land.end
  %call3 = call noundef zeroext i1 @_ZN8nlohmann16json_abi_v3_11_36detail5lexerINS0_10basic_jsonISt3mapSt6vectorNSt7__cxx1112basic_stringIcSt11char_traitsIcESaIcEEEblmdSaNS0_14adl_serializerES5_IhSaIhEEvEENS1_22iterator_input_adapterIPKcEEE12scan_commentEv(ptr noundef nonnull align 8 dereferenceable(148) %this1)
  br i1 %call3, label %if.end5, label %if.then4

if.then4:                                         ; preds = %while.body
  store i32 14, ptr %retval, align 4
  br label %return

if.end5:                                          ; preds = %while.body
  call void @_ZN8nlohmann16json_abi_v3_11_36detail5lexerINS0_10basic_jsonISt3mapSt6vectorNSt7__cxx1112basic_stringIcSt11char_traitsIcESaIcEEEblmdSaNS0_14adl_serializerES5_IhSaIhEEvEENS1_22iterator_input_adapterIPKcEEE15skip_whitespaceEv(ptr noundef nonnull align 8 dereferenceable(148) %this1)
  br label %while.cond, !llvm.loop !5

while.end:                                        ; preds = %land.end
  %current6 = getelementptr inbounds %"class.nlohmann::json_abi_v3_11_3::detail::lexer", ptr %this1, i32 0, i32 3
  %4 = load i32, ptr %current6, align 4
  switch i32 %4, label %sw.default [
    i32 91, label %sw.bb
    i32 93, label %sw.bb7
    i32 123, label %sw.bb8
    i32 125, label %sw.bb9
    i32 58, label %sw.bb10
    i32 44, label %sw.bb11
    i32 116, label %sw.bb12
    i32 102, label %sw.bb16
    i32 110, label %sw.bb20
    i32 34, label %sw.bb24
    i32 45, label %sw.bb26
    i32 48, label %sw.bb26
    i32 49, label %sw.bb26
    i32 50, label %sw.bb26
    i32 51, label %sw.bb26
    i32 52, label %sw.bb26
    i32 53, label %sw.bb26
    i32 54, label %sw.bb26
    i32 55, label %sw.bb26
    i32 56, label %sw.bb26
    i32 57, label %sw.bb26
    i32 0, label %sw.bb28
    i32 -1, label %sw.bb28
  ]

sw.bb:                                            ; preds = %while.end
  store i32 8, ptr %retval, align 4
  br label %return

sw.bb7:                                           ; preds = %while.end
  store i32 10, ptr %retval, align 4
  br label %return

sw.bb8:                                           ; preds = %while.end
  store i32 9, ptr %retval, align 4
  br label %return

sw.bb9:                                           ; preds = %while.end
  store i32 11, ptr %retval, align 4
  br label %return

sw.bb10:                                          ; preds = %while.end
  store i32 12, ptr %retval, align 4
  br label %return

sw.bb11:                                          ; preds = %while.end
  store i32 13, ptr %retval, align 4
  br label %return

sw.bb12:                                          ; preds = %while.end
  call void @llvm.memcpy.p0.p0.i64(ptr align 1 %true_literal, ptr align 1 @__const._ZN8nlohmann16json_abi_v3_11_36detail5lexerINS0_10basic_jsonISt3mapSt6vectorNSt7__cxx1112basic_stringIcSt11char_traitsIcESaIcEEEblmdSaNS0_14adl_serializerES5_IhSaIhEEvEENS1_22iterator_input_adapterIPKcEEE4scanEv.true_literal, i64 4, i1 false)
  %call13 = call noundef ptr @_ZNSt5arrayIcLm4EE4dataEv(ptr noundef nonnull align 1 dereferenceable(4) %true_literal) #18
  %call14 = call noundef i64 @_ZNKSt5arrayIcLm4EE4sizeEv(ptr noundef nonnull align 1 dereferenceable(4) %true_literal) #18
  %call15 = call noundef i32 @_ZN8nlohmann16json_abi_v3_11_36detail5lexerINS0_10basic_jsonISt3mapSt6vectorNSt7__cxx1112basic_stringIcSt11char_traitsIcESaIcEEEblmdSaNS0_14adl_serializerES5_IhSaIhEEvEENS1_22iterator_input_adapterIPKcEEE12scan_literalESI_mNS1_10lexer_baseISF_E10token_typeE(ptr noundef nonnull align 8 dereferenceable(148) %this1, ptr noundef %call13, i64 noundef %call14, i32 noundef 1)
  store i32 %call15, ptr %retval, align 4
  br label %return

sw.bb16:                                          ; preds = %while.end
  call void @llvm.memcpy.p0.p0.i64(ptr align 1 %false_literal, ptr align 1 @__const._ZN8nlohmann16json_abi_v3_11_36detail5lexerINS0_10basic_jsonISt3mapSt6vectorNSt7__cxx1112basic_stringIcSt11char_traitsIcESaIcEEEblmdSaNS0_14adl_serializerES5_IhSaIhEEvEENS1_22iterator_input_adapterIPKcEEE4scanEv.false_literal, i64 5, i1 false)
  %call17 = call noundef ptr @_ZNSt5arrayIcLm5EE4dataEv(ptr noundef nonnull align 1 dereferenceable(5) %false_literal) #18
  %call18 = call noundef i64 @_ZNKSt5arrayIcLm5EE4sizeEv(ptr noundef nonnull align 1 dereferenceable(5) %false_literal) #18
  %call19 = call noundef i32 @_ZN8nlohmann16json_abi_v3_11_36detail5lexerINS0_10basic_jsonISt3mapSt6vectorNSt7__cxx1112basic_stringIcSt11char_traitsIcESaIcEEEblmdSaNS0_14adl_serializerES5_IhSaIhEEvEENS1_22iterator_input_adapterIPKcEEE12scan_literalESI_mNS1_10lexer_baseISF_E10token_typeE(ptr noundef nonnull align 8 dereferenceable(148) %this1, ptr noundef %call17, i64 noundef %call18, i32 noundef 2)
  store i32 %call19, ptr %retval, align 4
  br label %return

sw.bb20:                                          ; preds = %while.end
  call void @llvm.memcpy.p0.p0.i64(ptr align 1 %null_literal, ptr align 1 @__const._ZN8nlohmann16json_abi_v3_11_36detail5lexerINS0_10basic_jsonISt3mapSt6vectorNSt7__cxx1112basic_stringIcSt11char_traitsIcESaIcEEEblmdSaNS0_14adl_serializerES5_IhSaIhEEvEENS1_22iterator_input_adapterIPKcEEE4scanEv.null_literal, i64 4, i1 false)
  %call21 = call noundef ptr @_ZNSt5arrayIcLm4EE4dataEv(ptr noundef nonnull align 1 dereferenceable(4) %null_literal) #18
  %call22 = call noundef i64 @_ZNKSt5arrayIcLm4EE4sizeEv(ptr noundef nonnull align 1 dereferenceable(4) %null_literal) #18
  %call23 = call noundef i32 @_ZN8nlohmann16json_abi_v3_11_36detail5lexerINS0_10basic_jsonISt3mapSt6vectorNSt7__cxx1112basic_stringIcSt11char_traitsIcESaIcEEEblmdSaNS0_14adl_serializerES5_IhSaIhEEvEENS1_22iterator_input_adapterIPKcEEE12scan_literalESI_mNS1_10lexer_baseISF_E10token_typeE(ptr noundef nonnull align 8 dereferenceable(148) %this1, ptr noundef %call21, i64 noundef %call22, i32 noundef 3)
  store i32 %call23, ptr %retval, align 4
  br label %return

sw.bb24:                                          ; preds = %while.end
  %call25 = call noundef i32 @_ZN8nlohmann16json_abi_v3_11_36detail5lexerINS0_10basic_jsonISt3mapSt6vectorNSt7__cxx1112basic_stringIcSt11char_traitsIcESaIcEEEblmdSaNS0_14adl_serializerES5_IhSaIhEEvEENS1_22iterator_input_adapterIPKcEEE11scan_stringEv(ptr noundef nonnull align 8 dereferenceable(148) %this1)
  store i32 %call25, ptr %retval, align 4
  br label %return

sw.bb26:                                          ; preds = %while.end, %while.end, %while.end, %while.end, %while.end, %while.end, %while.end, %while.end, %while.end, %while.end, %while.end
  %call27 = call noundef i32 @_ZN8nlohmann16json_abi_v3_11_36detail5lexerINS0_10basic_jsonISt3mapSt6vectorNSt7__cxx1112basic_stringIcSt11char_traitsIcESaIcEEEblmdSaNS0_14adl_serializerES5_IhSaIhEEvEENS1_22iterator_input_adapterIPKcEEE11scan_numberEv(ptr noundef nonnull align 8 dereferenceable(148) %this1)
  store i32 %call27, ptr %retval, align 4
  br label %return

sw.bb28:                                          ; preds = %while.end, %while.end
  store i32 15, ptr %retval, align 4
  br label %return

sw.default:                                       ; preds = %while.end
  %error_message29 = getelementptr inbounds %"class.nlohmann::json_abi_v3_11_3::detail::lexer", ptr %this1, i32 0, i32 9
  store ptr @.str.109, ptr %error_message29, align 8
  store i32 14, ptr %retval, align 4
  br label %return

return:                                           ; preds = %sw.default, %sw.bb28, %sw.bb26, %sw.bb24, %sw.bb20, %sw.bb16, %sw.bb12, %sw.bb11, %sw.bb10, %sw.bb9, %sw.bb8, %sw.bb7, %sw.bb, %if.then4, %if.then
  %5 = load i32, ptr %retval, align 4
  ret i32 %5
}

declare i32 @__gxx_personality_v0(...)

; Function Attrs: mustprogress nounwind uwtable
define linkonce_odr dso_local noundef nonnull ptr @_ZNK8nlohmann16json_abi_v3_11_36detail5lexerINS0_10basic_jsonISt3mapSt6vectorNSt7__cxx1112basic_stringIcSt11char_traitsIcESaIcEEEblmdSaNS0_14adl_serializerES5_IhSaIhEEvEENS1_22iterator_input_adapterIPKcEEE17get_error_messageEv(ptr noundef nonnull align 8 dereferenceable(148) %this) #1 comdat align 2 {
entry:
  %this.addr = alloca ptr, align 8
  store ptr %this, ptr %this.addr, align 8
  %this1 = load ptr, ptr %this.addr, align 8
  %error_message = getelementptr inbounds %"class.nlohmann::json_abi_v3_11_3::detail::lexer", ptr %this1, i32 0, i32 9
  %0 = load ptr, ptr %error_message, align 8
  ret ptr %0
}

; Function Attrs: nounwind
declare void @_ZNSaIcEC1Ev(ptr noundef nonnull align 1 dereferenceable(1)) unnamed_addr #5

declare void @_ZNSt7__cxx1112basic_stringIcSt11char_traitsIcESaIcEEC1EPKcRKS3_(ptr noundef nonnull align 8 dereferenceable(32), ptr noundef, ptr noundef nonnull align 1 dereferenceable(1)) unnamed_addr #2

; Function Attrs: nounwind
declare void @_ZNSaIcED1Ev(ptr noundef nonnull align 1 dereferenceable(1)) unnamed_addr #5

; Function Attrs: mustprogress nounwind uwtable
define linkonce_odr dso_local void @_ZN8nlohmann16json_abi_v3_11_36detail5lexerINS0_10basic_jsonISt3mapSt6vectorNSt7__cxx1112basic_stringIcSt11char_traitsIcESaIcEEEblmdSaNS0_14adl_serializerES5_IhSaIhEEvEENS1_22iterator_input_adapterIPKcEEED2Ev(ptr noundef nonnull align 8 dereferenceable(148) %this) unnamed_addr #1 comdat align 2 {
entry:
  %this.addr = alloca ptr, align 8
  store ptr %this, ptr %this.addr, align 8
  %this1 = load ptr, ptr %this.addr, align 8
  %token_buffer = getelementptr inbounds %"class.nlohmann::json_abi_v3_11_3::detail::lexer", ptr %this1, i32 0, i32 8
  call void @_ZNSt7__cxx1112basic_stringIcSt11char_traitsIcESaIcEED1Ev(ptr noundef nonnull align 8 dereferenceable(32) %token_buffer) #16
  %token_string = getelementptr inbounds %"class.nlohmann::json_abi_v3_11_3::detail::lexer", ptr %this1, i32 0, i32 7
  call void @_ZNSt6vectorIcSaIcEED2Ev(ptr noundef nonnull align 8 dereferenceable(24) %token_string) #16
  ret void
}

; Function Attrs: uwtable
define internal void @__cxx_global_var_init.1() #0 section ".text.startup" personality ptr @__gxx_personality_v0 {
entry:
  %ref.tmp = alloca %"struct.doctest::detail::TestCase", align 8
  %ref.tmp1 = alloca %"class.doctest::String", align 8
  %exn.slot = alloca ptr, align 8
  %ehselector.slot = alloca i32, align 4
  %call = call noundef nonnull align 8 dereferenceable(40) ptr @_ZN28doctest_detail_test_suite_ns19getCurrentTestSuiteEv()
  call void @_ZN7doctest6StringC1Ev(ptr noundef nonnull align 8 dereferenceable(24) %ref.tmp1) #16
  invoke void @_ZN7doctest6detail8TestCaseC1EPFvvEPKcjRKNS0_9TestSuiteERKNS_6StringEi(ptr noundef nonnull align 8 dereferenceable(144) %ref.tmp, ptr noundef @_ZL19DOCTEST_ANON_FUNC_2v, ptr noundef @.str.2, i32 noundef 35, ptr noundef nonnull align 8 dereferenceable(40) %call, ptr noundef nonnull align 8 dereferenceable(24) %ref.tmp1, i32 noundef -1)
          to label %invoke.cont unwind label %lpad

invoke.cont:                                      ; preds = %entry
  %call4 = invoke noundef nonnull align 8 dereferenceable(144) ptr @_ZN7doctest6detail8TestCasemlEPKc(ptr noundef nonnull align 8 dereferenceable(144) %ref.tmp, ptr noundef @.str.3)
          to label %invoke.cont3 unwind label %lpad2

invoke.cont3:                                     ; preds = %invoke.cont
  %call6 = invoke noundef i32 @_ZN7doctest6detail7regTestERKNS0_8TestCaseE(ptr noundef nonnull align 8 dereferenceable(144) %call4)
          to label %invoke.cont5 unwind label %lpad2

invoke.cont5:                                     ; preds = %invoke.cont3
  %call7 = call noundef i32 @_ZN7doctest6detailL7consumeEPKii(ptr noundef @_ZL18DOCTEST_ANON_VAR_3, i32 noundef %call6) #16
  call void @_ZN7doctest6detail8TestCaseD2Ev(ptr noundef nonnull align 8 dereferenceable(144) %ref.tmp) #16
  call void @_ZN7doctest6StringD1Ev(ptr noundef nonnull align 8 dereferenceable(24) %ref.tmp1) #16
  store i32 %call7, ptr @_ZL18DOCTEST_ANON_VAR_3, align 4
  ret void

lpad:                                             ; preds = %entry
  %0 = landingpad { ptr, i32 }
          cleanup
  %1 = extractvalue { ptr, i32 } %0, 0
  store ptr %1, ptr %exn.slot, align 8
  %2 = extractvalue { ptr, i32 } %0, 1
  store i32 %2, ptr %ehselector.slot, align 4
  br label %ehcleanup

lpad2:                                            ; preds = %invoke.cont3, %invoke.cont
  %3 = landingpad { ptr, i32 }
          cleanup
  %4 = extractvalue { ptr, i32 } %3, 0
  store ptr %4, ptr %exn.slot, align 8
  %5 = extractvalue { ptr, i32 } %3, 1
  store i32 %5, ptr %ehselector.slot, align 4
  call void @_ZN7doctest6detail8TestCaseD2Ev(ptr noundef nonnull align 8 dereferenceable(144) %ref.tmp) #16
  br label %ehcleanup

ehcleanup:                                        ; preds = %lpad2, %lpad
  call void @_ZN7doctest6StringD1Ev(ptr noundef nonnull align 8 dereferenceable(24) %ref.tmp1) #16
  br label %eh.resume

eh.resume:                                        ; preds = %ehcleanup
  %exn = load ptr, ptr %exn.slot, align 8
  %sel = load i32, ptr %ehselector.slot, align 4
  %lpad.val = insertvalue { ptr, i32 } poison, ptr %exn, 0
  %lpad.val8 = insertvalue { ptr, i32 } %lpad.val, i32 %sel, 1
  resume { ptr, i32 } %lpad.val8
}

declare noundef i32 @_ZN7doctest6detail7regTestERKNS0_8TestCaseE(ptr noundef nonnull align 8 dereferenceable(144)) #2

; Function Attrs: mustprogress uwtable
define internal void @_ZL19DOCTEST_ANON_FUNC_2v() #4 personality ptr @__gxx_personality_v0 {
entry:
  %DOCTEST_ANON_SUBCASE_4 = alloca ptr, align 8
  %ref.tmp = alloca %"struct.doctest::detail::Subcase", align 8
  %ref.tmp1 = alloca %"class.doctest::String", align 8
  %exn.slot = alloca ptr, align 8
  %ehselector.slot = alloca i32, align 4
  %DOCTEST_ANON_SUBCASE_5 = alloca ptr, align 8
  %ref.tmp4 = alloca %"struct.doctest::detail::Subcase", align 8
  %ref.tmp5 = alloca %"class.doctest::String", align 8
  %ref.tmp13 = alloca %"struct.doctest::detail::Result", align 8
  %ref.tmp14 = alloca %"struct.doctest::detail::Expression_lhs", align 4
  %ref.tmp15 = alloca %"struct.doctest::detail::ExpressionDecomposer", align 4
  %ref.tmp17 = alloca i8, align 1
  %ref.tmp26 = alloca %"struct.doctest::detail::Result", align 8
  %ref.tmp27 = alloca %"struct.doctest::detail::Expression_lhs", align 4
  %ref.tmp28 = alloca %"struct.doctest::detail::ExpressionDecomposer", align 4
  %ref.tmp30 = alloca i8, align 1
  %ref.tmp41 = alloca %"struct.doctest::detail::Result", align 8
  %ref.tmp42 = alloca %"struct.doctest::detail::Expression_lhs", align 4
  %ref.tmp43 = alloca %"struct.doctest::detail::ExpressionDecomposer", align 4
  %ref.tmp45 = alloca i8, align 1
  %ref.tmp56 = alloca %"struct.doctest::detail::Result", align 8
  %ref.tmp57 = alloca %"struct.doctest::detail::Expression_lhs", align 4
  %ref.tmp58 = alloca %"struct.doctest::detail::ExpressionDecomposer", align 4
  %ref.tmp60 = alloca i8, align 1
  %ref.tmp71 = alloca %"struct.doctest::detail::Result", align 8
  %ref.tmp72 = alloca %"struct.doctest::detail::Expression_lhs", align 4
  %ref.tmp73 = alloca %"struct.doctest::detail::ExpressionDecomposer", align 4
  %ref.tmp75 = alloca i8, align 1
  %ref.tmp86 = alloca %"struct.doctest::detail::Result", align 8
  %ref.tmp87 = alloca %"struct.doctest::detail::Expression_lhs", align 4
  %ref.tmp88 = alloca %"struct.doctest::detail::ExpressionDecomposer", align 4
  %ref.tmp90 = alloca i8, align 1
  %DOCTEST_ANON_SUBCASE_6 = alloca ptr, align 8
  %ref.tmp101 = alloca %"struct.doctest::detail::Subcase", align 8
  %ref.tmp102 = alloca %"class.doctest::String", align 8
  %ref.tmp111 = alloca %"struct.doctest::detail::Result", align 8
  %ref.tmp112 = alloca %"struct.doctest::detail::Expression_lhs", align 4
  %ref.tmp113 = alloca %"struct.doctest::detail::ExpressionDecomposer", align 4
  %ref.tmp115 = alloca i8, align 1
  %ref.tmp127 = alloca %"struct.doctest::detail::Result", align 8
  %ref.tmp128 = alloca %"struct.doctest::detail::Expression_lhs", align 4
  %ref.tmp129 = alloca %"struct.doctest::detail::ExpressionDecomposer", align 4
  %ref.tmp131 = alloca i8, align 1
  %ref.tmp143 = alloca %"struct.doctest::detail::Result", align 8
  %ref.tmp144 = alloca %"struct.doctest::detail::Expression_lhs", align 4
  %ref.tmp145 = alloca %"struct.doctest::detail::ExpressionDecomposer", align 4
  %ref.tmp147 = alloca i8, align 1
  %DOCTEST_ANON_SUBCASE_7 = alloca ptr, align 8
  %ref.tmp161 = alloca %"struct.doctest::detail::Subcase", align 8
  %ref.tmp162 = alloca %"class.doctest::String", align 8
  %ref.tmp171 = alloca %"struct.doctest::detail::Result", align 8
  %ref.tmp172 = alloca %"struct.doctest::detail::Expression_lhs", align 4
  %ref.tmp173 = alloca %"struct.doctest::detail::ExpressionDecomposer", align 4
  %ref.tmp175 = alloca i8, align 1
  %ref.tmp187 = alloca %"struct.doctest::detail::Result", align 8
  %ref.tmp188 = alloca %"struct.doctest::detail::Expression_lhs", align 4
  %ref.tmp189 = alloca %"struct.doctest::detail::ExpressionDecomposer", align 4
  %ref.tmp191 = alloca i8, align 1
  %ref.tmp203 = alloca %"struct.doctest::detail::Result", align 8
  %ref.tmp204 = alloca %"struct.doctest::detail::Expression_lhs", align 4
  %ref.tmp205 = alloca %"struct.doctest::detail::ExpressionDecomposer", align 4
  %ref.tmp207 = alloca i8, align 1
  %ref.tmp219 = alloca %"struct.doctest::detail::Result", align 8
  %ref.tmp220 = alloca %"struct.doctest::detail::Expression_lhs", align 4
  %ref.tmp221 = alloca %"struct.doctest::detail::ExpressionDecomposer", align 4
  %ref.tmp223 = alloca i8, align 1
  %ref.tmp235 = alloca %"struct.doctest::detail::Result", align 8
  %ref.tmp236 = alloca %"struct.doctest::detail::Expression_lhs", align 4
  %ref.tmp237 = alloca %"struct.doctest::detail::ExpressionDecomposer", align 4
  %ref.tmp239 = alloca i8, align 1
  %ref.tmp251 = alloca %"struct.doctest::detail::Result", align 8
  %ref.tmp252 = alloca %"struct.doctest::detail::Expression_lhs", align 4
  %ref.tmp253 = alloca %"struct.doctest::detail::ExpressionDecomposer", align 4
  %ref.tmp255 = alloca i8, align 1
  %ref.tmp267 = alloca %"struct.doctest::detail::Result", align 8
  %ref.tmp268 = alloca %"struct.doctest::detail::Expression_lhs", align 4
  %ref.tmp269 = alloca %"struct.doctest::detail::ExpressionDecomposer", align 4
  %ref.tmp271 = alloca i8, align 1
  %ref.tmp283 = alloca %"struct.doctest::detail::Result", align 8
  %ref.tmp284 = alloca %"struct.doctest::detail::Expression_lhs", align 4
  %ref.tmp285 = alloca %"struct.doctest::detail::ExpressionDecomposer", align 4
  %ref.tmp287 = alloca i8, align 1
  %ref.tmp299 = alloca %"struct.doctest::detail::Result", align 8
  %ref.tmp300 = alloca %"struct.doctest::detail::Expression_lhs", align 4
  %ref.tmp301 = alloca %"struct.doctest::detail::ExpressionDecomposer", align 4
  %ref.tmp303 = alloca i8, align 1
  %ref.tmp315 = alloca %"struct.doctest::detail::Result", align 8
  %ref.tmp316 = alloca %"struct.doctest::detail::Expression_lhs", align 4
  %ref.tmp317 = alloca %"struct.doctest::detail::ExpressionDecomposer", align 4
  %ref.tmp319 = alloca i8, align 1
  %ref.tmp331 = alloca %"struct.doctest::detail::Result", align 8
  %ref.tmp332 = alloca %"struct.doctest::detail::Expression_lhs", align 4
  %ref.tmp333 = alloca %"struct.doctest::detail::ExpressionDecomposer", align 4
  %ref.tmp335 = alloca i8, align 1
  %ref.tmp347 = alloca %"struct.doctest::detail::Result", align 8
  %ref.tmp348 = alloca %"struct.doctest::detail::Expression_lhs", align 4
  %ref.tmp349 = alloca %"struct.doctest::detail::ExpressionDecomposer", align 4
  %ref.tmp351 = alloca i8, align 1
  %ref.tmp363 = alloca %"struct.doctest::detail::Result", align 8
  %ref.tmp364 = alloca %"struct.doctest::detail::Expression_lhs", align 4
  %ref.tmp365 = alloca %"struct.doctest::detail::ExpressionDecomposer", align 4
  %ref.tmp367 = alloca i8, align 1
  %ref.tmp379 = alloca %"struct.doctest::detail::Result", align 8
  %ref.tmp380 = alloca %"struct.doctest::detail::Expression_lhs", align 4
  %ref.tmp381 = alloca %"struct.doctest::detail::ExpressionDecomposer", align 4
  %ref.tmp383 = alloca i8, align 1
  %ref.tmp395 = alloca %"struct.doctest::detail::Result", align 8
  %ref.tmp396 = alloca %"struct.doctest::detail::Expression_lhs", align 4
  %ref.tmp397 = alloca %"struct.doctest::detail::ExpressionDecomposer", align 4
  %ref.tmp399 = alloca i8, align 1
  %DOCTEST_ANON_SUBCASE_8 = alloca ptr, align 8
  %ref.tmp413 = alloca %"struct.doctest::detail::Subcase", align 8
  %ref.tmp414 = alloca %"class.doctest::String", align 8
  %ref.tmp423 = alloca %"struct.doctest::detail::Result", align 8
  %ref.tmp424 = alloca %"struct.doctest::detail::Expression_lhs", align 4
  %ref.tmp425 = alloca %"struct.doctest::detail::ExpressionDecomposer", align 4
  %ref.tmp427 = alloca i8, align 1
  %ref.tmp439 = alloca %"struct.doctest::detail::Result", align 8
  %ref.tmp440 = alloca %"struct.doctest::detail::Expression_lhs", align 4
  %ref.tmp441 = alloca %"struct.doctest::detail::ExpressionDecomposer", align 4
  %ref.tmp443 = alloca i8, align 1
  %ref.tmp455 = alloca %"struct.doctest::detail::Result", align 8
  %ref.tmp456 = alloca %"struct.doctest::detail::Expression_lhs", align 4
  %ref.tmp457 = alloca %"struct.doctest::detail::ExpressionDecomposer", align 4
  %ref.tmp459 = alloca i8, align 1
  %ref.tmp471 = alloca %"struct.doctest::detail::Result", align 8
  %ref.tmp472 = alloca %"struct.doctest::detail::Expression_lhs", align 4
  %ref.tmp473 = alloca %"struct.doctest::detail::ExpressionDecomposer", align 4
  %ref.tmp475 = alloca i8, align 1
  %ref.tmp487 = alloca %"struct.doctest::detail::Result", align 8
  %ref.tmp488 = alloca %"struct.doctest::detail::Expression_lhs", align 4
  %ref.tmp489 = alloca %"struct.doctest::detail::ExpressionDecomposer", align 4
  %ref.tmp491 = alloca i8, align 1
  %DOCTEST_ANON_SUBCASE_9 = alloca ptr, align 8
  %ref.tmp507 = alloca %"struct.doctest::detail::Subcase", align 8
  %ref.tmp508 = alloca %"class.doctest::String", align 8
  %ref.tmp516 = alloca %"struct.doctest::detail::Result", align 8
  %ref.tmp517 = alloca %"struct.doctest::detail::Expression_lhs", align 4
  %ref.tmp518 = alloca %"struct.doctest::detail::ExpressionDecomposer", align 4
  %ref.tmp520 = alloca i8, align 1
  %ref.tmp521 = alloca %"class.std::__cxx11::basic_string", align 8
  %ref.tmp523 = alloca %"class.std::allocator", align 1
  %ref.tmp539 = alloca %"struct.doctest::detail::Result", align 8
  %ref.tmp540 = alloca %"struct.doctest::detail::Expression_lhs", align 4
  %ref.tmp541 = alloca %"struct.doctest::detail::ExpressionDecomposer", align 4
  %ref.tmp543 = alloca i8, align 1
  %ref.tmp544 = alloca %"class.std::__cxx11::basic_string", align 8
  %ref.tmp546 = alloca %"class.std::allocator", align 1
  %ref.tmp562 = alloca %"struct.doctest::detail::Result", align 8
  %ref.tmp563 = alloca %"struct.doctest::detail::Expression_lhs", align 4
  %ref.tmp564 = alloca %"struct.doctest::detail::ExpressionDecomposer", align 4
  %ref.tmp566 = alloca i8, align 1
  %ref.tmp567 = alloca %"class.std::__cxx11::basic_string", align 8
  %ref.tmp569 = alloca %"class.std::allocator", align 1
  %ref.tmp585 = alloca %"struct.doctest::detail::Result", align 8
  %ref.tmp586 = alloca %"struct.doctest::detail::Expression_lhs", align 4
  %ref.tmp587 = alloca %"struct.doctest::detail::ExpressionDecomposer", align 4
  %ref.tmp589 = alloca i8, align 1
  %ref.tmp590 = alloca %"class.std::__cxx11::basic_string", align 8
  %ref.tmp592 = alloca %"class.std::allocator", align 1
  %ref.tmp608 = alloca %"struct.doctest::detail::Result", align 8
  %ref.tmp609 = alloca %"struct.doctest::detail::Expression_lhs", align 4
  %ref.tmp610 = alloca %"struct.doctest::detail::ExpressionDecomposer", align 4
  %ref.tmp612 = alloca i8, align 1
  %ref.tmp613 = alloca %"class.std::__cxx11::basic_string", align 8
  %ref.tmp615 = alloca %"class.std::allocator", align 1
  %ref.tmp631 = alloca %"struct.doctest::detail::Result", align 8
  %ref.tmp632 = alloca %"struct.doctest::detail::Expression_lhs", align 4
  %ref.tmp633 = alloca %"struct.doctest::detail::ExpressionDecomposer", align 4
  %ref.tmp635 = alloca i8, align 1
  %ref.tmp636 = alloca %"class.std::__cxx11::basic_string", align 8
  %ref.tmp638 = alloca %"class.std::allocator", align 1
  %ref.tmp654 = alloca %"struct.doctest::detail::Result", align 8
  %ref.tmp655 = alloca %"struct.doctest::detail::Expression_lhs", align 4
  %ref.tmp656 = alloca %"struct.doctest::detail::ExpressionDecomposer", align 4
  %ref.tmp658 = alloca i8, align 1
  %ref.tmp659 = alloca %"class.std::__cxx11::basic_string", align 8
  %ref.tmp661 = alloca %"class.std::allocator", align 1
  %ref.tmp677 = alloca %"struct.doctest::detail::Result", align 8
  %ref.tmp678 = alloca %"struct.doctest::detail::Expression_lhs", align 4
  %ref.tmp679 = alloca %"struct.doctest::detail::ExpressionDecomposer", align 4
  %ref.tmp681 = alloca i8, align 1
  %ref.tmp682 = alloca %"class.std::__cxx11::basic_string", align 8
  %ref.tmp684 = alloca %"class.std::allocator", align 1
  %ref.tmp700 = alloca %"struct.doctest::detail::Result", align 8
  %ref.tmp701 = alloca %"struct.doctest::detail::Expression_lhs", align 4
  %ref.tmp702 = alloca %"struct.doctest::detail::ExpressionDecomposer", align 4
  %ref.tmp704 = alloca i8, align 1
  %ref.tmp705 = alloca %"class.std::__cxx11::basic_string", align 8
  %ref.tmp707 = alloca %"class.std::allocator", align 1
  %ref.tmp723 = alloca %"struct.doctest::detail::Result", align 8
  %ref.tmp724 = alloca %"struct.doctest::detail::Expression_lhs", align 4
  %ref.tmp725 = alloca %"struct.doctest::detail::ExpressionDecomposer", align 4
  %ref.tmp727 = alloca i8, align 1
  %ref.tmp728 = alloca %"class.std::__cxx11::basic_string", align 8
  %ref.tmp730 = alloca %"class.std::allocator", align 1
  %ref.tmp746 = alloca %"struct.doctest::detail::Result", align 8
  %ref.tmp747 = alloca %"struct.doctest::detail::Expression_lhs", align 4
  %ref.tmp748 = alloca %"struct.doctest::detail::ExpressionDecomposer", align 4
  %ref.tmp750 = alloca i8, align 1
  %ref.tmp751 = alloca %"class.std::__cxx11::basic_string", align 8
  %ref.tmp753 = alloca %"class.std::allocator", align 1
  %ref.tmp769 = alloca %"struct.doctest::detail::Result", align 8
  %ref.tmp770 = alloca %"struct.doctest::detail::Expression_lhs", align 4
  %ref.tmp771 = alloca %"struct.doctest::detail::ExpressionDecomposer", align 4
  %ref.tmp773 = alloca i8, align 1
  %ref.tmp774 = alloca %"class.std::__cxx11::basic_string", align 8
  %ref.tmp776 = alloca %"class.std::allocator", align 1
  %ref.tmp792 = alloca %"struct.doctest::detail::Result", align 8
  %ref.tmp793 = alloca %"struct.doctest::detail::Expression_lhs", align 4
  %ref.tmp794 = alloca %"struct.doctest::detail::ExpressionDecomposer", align 4
  %ref.tmp796 = alloca i8, align 1
  %ref.tmp797 = alloca %"class.std::__cxx11::basic_string", align 8
  %ref.tmp799 = alloca %"class.std::allocator", align 1
  %ref.tmp815 = alloca %"struct.doctest::detail::Result", align 8
  %ref.tmp816 = alloca %"struct.doctest::detail::Expression_lhs", align 4
  %ref.tmp817 = alloca %"struct.doctest::detail::ExpressionDecomposer", align 4
  %ref.tmp819 = alloca i8, align 1
  %ref.tmp820 = alloca %"class.std::__cxx11::basic_string", align 8
  %ref.tmp822 = alloca %"class.std::allocator", align 1
  %ref.tmp838 = alloca %"struct.doctest::detail::Result", align 8
  %ref.tmp839 = alloca %"struct.doctest::detail::Expression_lhs", align 4
  %ref.tmp840 = alloca %"struct.doctest::detail::ExpressionDecomposer", align 4
  %ref.tmp842 = alloca i8, align 1
  %ref.tmp843 = alloca %"class.std::__cxx11::basic_string", align 8
  %ref.tmp845 = alloca %"class.std::allocator", align 1
  %ref.tmp861 = alloca %"struct.doctest::detail::Result", align 8
  %ref.tmp862 = alloca %"struct.doctest::detail::Expression_lhs", align 4
  %ref.tmp863 = alloca %"struct.doctest::detail::ExpressionDecomposer", align 4
  %ref.tmp865 = alloca i8, align 1
  %ref.tmp866 = alloca %"class.std::__cxx11::basic_string", align 8
  %ref.tmp868 = alloca %"class.std::allocator", align 1
  %DOCTEST_ANON_SUBCASE_10 = alloca ptr, align 8
  %ref.tmp886 = alloca %"struct.doctest::detail::Subcase", align 8
  %ref.tmp887 = alloca %"class.doctest::String", align 8
  %c = alloca i32, align 4
  %s = alloca %"class.std::__cxx11::basic_string", align 8
  %ref.tmp896 = alloca %"class.std::allocator", align 1
  %res = alloca i32, align 4
  %DOCTEST_CAPTURE_13 = alloca %"class.doctest::detail::ContextScope", align 8
  %ref.tmp904 = alloca %class.anon, align 8
  %ref.tmp906 = alloca %"struct.doctest::detail::Result", align 8
  %ref.tmp907 = alloca %"struct.doctest::detail::Expression_lhs", align 4
  %ref.tmp908 = alloca %"struct.doctest::detail::ExpressionDecomposer", align 4
  %ref.tmp911 = alloca i8, align 1
  %ref.tmp922 = alloca %"struct.doctest::detail::Result", align 8
  %ref.tmp923 = alloca %"struct.doctest::detail::Expression_lhs", align 4
  %ref.tmp924 = alloca %"struct.doctest::detail::ExpressionDecomposer", align 4
  %ref.tmp926 = alloca i8, align 1
  %ref.tmp936 = alloca %"struct.doctest::detail::Result", align 8
  %ref.tmp937 = alloca %"struct.doctest::detail::Expression_lhs", align 4
  %ref.tmp938 = alloca %"struct.doctest::detail::ExpressionDecomposer", align 4
  %ref.tmp940 = alloca i8, align 1
  %DOCTEST_ANON_SUBCASE_14 = alloca ptr, align 8
  %ref.tmp954 = alloca %"struct.doctest::detail::Subcase", align 8
  %ref.tmp955 = alloca %"class.doctest::String", align 8
  %s963 = alloca %"class.std::__cxx11::basic_string", align 8
  %ref.tmp964 = alloca %"class.std::allocator", align 1
  %ref.tmp968 = alloca %"class.std::__cxx11::basic_string", align 8
  %ref.tmp969 = alloca %"class.std::allocator", align 1
  %ref.tmp980 = alloca %"struct.doctest::detail::Result", align 8
  %ref.tmp981 = alloca %"struct.doctest::detail::Expression_lhs", align 4
  %ref.tmp982 = alloca %"struct.doctest::detail::ExpressionDecomposer", align 4
  %ref.tmp984 = alloca i8, align 1
  %DOCTEST_ANON_SUBCASE_15 = alloca ptr, align 8
  %ref.tmp1000 = alloca %"struct.doctest::detail::Subcase", align 8
  %ref.tmp1001 = alloca %"class.doctest::String", align 8
  %ref.tmp1009 = alloca %"struct.doctest::detail::Result", align 8
  %ref.tmp1010 = alloca %"struct.doctest::detail::Expression_lhs", align 4
  %ref.tmp1011 = alloca %"struct.doctest::detail::ExpressionDecomposer", align 4
  %ref.tmp1013 = alloca i8, align 1
  %ref.tmp1025 = alloca %"struct.doctest::detail::Result", align 8
  %ref.tmp1026 = alloca %"struct.doctest::detail::Expression_lhs.1", align 8
  %ref.tmp1027 = alloca %"struct.doctest::detail::ExpressionDecomposer", align 4
  %ref.tmp1029 = alloca %"class.std::__cxx11::basic_string", align 8
  %ref.tmp1041 = alloca %"struct.doctest::detail::Result", align 8
  %ref.tmp1042 = alloca %"struct.doctest::detail::Expression_lhs", align 4
  %ref.tmp1043 = alloca %"struct.doctest::detail::ExpressionDecomposer", align 4
  %ref.tmp1045 = alloca i8, align 1
  %ref.tmp1057 = alloca %"struct.doctest::detail::Result", align 8
  %ref.tmp1058 = alloca %"struct.doctest::detail::Expression_lhs.1", align 8
  %ref.tmp1059 = alloca %"struct.doctest::detail::ExpressionDecomposer", align 4
  %ref.tmp1061 = alloca %"class.std::__cxx11::basic_string", align 8
  %ref.tmp1073 = alloca %"struct.doctest::detail::Result", align 8
  %ref.tmp1074 = alloca %"struct.doctest::detail::Expression_lhs", align 4
  %ref.tmp1075 = alloca %"struct.doctest::detail::ExpressionDecomposer", align 4
  %ref.tmp1077 = alloca i8, align 1
  %ref.tmp1089 = alloca %"struct.doctest::detail::Result", align 8
  %ref.tmp1090 = alloca %"struct.doctest::detail::Expression_lhs.1", align 8
  %ref.tmp1091 = alloca %"struct.doctest::detail::ExpressionDecomposer", align 4
  %ref.tmp1093 = alloca %"class.std::__cxx11::basic_string", align 8
  %ref.tmp1105 = alloca %"struct.doctest::detail::Result", align 8
  %ref.tmp1106 = alloca %"struct.doctest::detail::Expression_lhs", align 4
  %ref.tmp1107 = alloca %"struct.doctest::detail::ExpressionDecomposer", align 4
  %ref.tmp1109 = alloca i8, align 1
  %ref.tmp1121 = alloca %"struct.doctest::detail::Result", align 8
  %ref.tmp1122 = alloca %"struct.doctest::detail::Expression_lhs.1", align 8
  %ref.tmp1123 = alloca %"struct.doctest::detail::ExpressionDecomposer", align 4
  %ref.tmp1125 = alloca %"class.std::__cxx11::basic_string", align 8
  %ref.tmp1137 = alloca %"struct.doctest::detail::Result", align 8
  %ref.tmp1138 = alloca %"struct.doctest::detail::Expression_lhs", align 4
  %ref.tmp1139 = alloca %"struct.doctest::detail::ExpressionDecomposer", align 4
  %ref.tmp1141 = alloca i8, align 1
  %ref.tmp1153 = alloca %"struct.doctest::detail::Result", align 8
  %ref.tmp1154 = alloca %"struct.doctest::detail::Expression_lhs.1", align 8
  %ref.tmp1155 = alloca %"struct.doctest::detail::ExpressionDecomposer", align 4
  %ref.tmp1157 = alloca %"class.std::__cxx11::basic_string", align 8
  %ref.tmp1169 = alloca %"struct.doctest::detail::Result", align 8
  %ref.tmp1170 = alloca %"struct.doctest::detail::Expression_lhs", align 4
  %ref.tmp1171 = alloca %"struct.doctest::detail::ExpressionDecomposer", align 4
  %ref.tmp1173 = alloca i8, align 1
  %ref.tmp1185 = alloca %"struct.doctest::detail::Result", align 8
  %ref.tmp1186 = alloca %"struct.doctest::detail::Expression_lhs.1", align 8
  %ref.tmp1187 = alloca %"struct.doctest::detail::ExpressionDecomposer", align 4
  %ref.tmp1189 = alloca %"class.std::__cxx11::basic_string", align 8
  %ref.tmp1201 = alloca %"struct.doctest::detail::Result", align 8
  %ref.tmp1202 = alloca %"struct.doctest::detail::Expression_lhs", align 4
  %ref.tmp1203 = alloca %"struct.doctest::detail::ExpressionDecomposer", align 4
  %ref.tmp1205 = alloca i8, align 1
  %ref.tmp1217 = alloca %"struct.doctest::detail::Result", align 8
  %ref.tmp1218 = alloca %"struct.doctest::detail::Expression_lhs.1", align 8
  %ref.tmp1219 = alloca %"struct.doctest::detail::ExpressionDecomposer", align 4
  %ref.tmp1221 = alloca %"class.std::__cxx11::basic_string", align 8
  %ref.tmp1233 = alloca %"struct.doctest::detail::Result", align 8
  %ref.tmp1234 = alloca %"struct.doctest::detail::Expression_lhs", align 4
  %ref.tmp1235 = alloca %"struct.doctest::detail::ExpressionDecomposer", align 4
  %ref.tmp1237 = alloca i8, align 1
  %ref.tmp1249 = alloca %"struct.doctest::detail::Result", align 8
  %ref.tmp1250 = alloca %"struct.doctest::detail::Expression_lhs.1", align 8
  %ref.tmp1251 = alloca %"struct.doctest::detail::ExpressionDecomposer", align 4
  %ref.tmp1253 = alloca %"class.std::__cxx11::basic_string", align 8
  %ref.tmp1265 = alloca %"struct.doctest::detail::Result", align 8
  %ref.tmp1266 = alloca %"struct.doctest::detail::Expression_lhs", align 4
  %ref.tmp1267 = alloca %"struct.doctest::detail::ExpressionDecomposer", align 4
  %ref.tmp1269 = alloca i8, align 1
  %ref.tmp1281 = alloca %"struct.doctest::detail::Result", align 8
  %ref.tmp1282 = alloca %"struct.doctest::detail::Expression_lhs.1", align 8
  %ref.tmp1283 = alloca %"struct.doctest::detail::ExpressionDecomposer", align 4
  %ref.tmp1285 = alloca %"class.std::__cxx11::basic_string", align 8
  %ref.tmp1297 = alloca %"struct.doctest::detail::Result", align 8
  %ref.tmp1298 = alloca %"struct.doctest::detail::Expression_lhs", align 4
  %ref.tmp1299 = alloca %"struct.doctest::detail::ExpressionDecomposer", align 4
  %ref.tmp1301 = alloca i8, align 1
  %ref.tmp1313 = alloca %"struct.doctest::detail::Result", align 8
  %ref.tmp1314 = alloca %"struct.doctest::detail::Expression_lhs.1", align 8
  %ref.tmp1315 = alloca %"struct.doctest::detail::ExpressionDecomposer", align 4
  %ref.tmp1317 = alloca %"class.std::__cxx11::basic_string", align 8
  %ref.tmp1329 = alloca %"struct.doctest::detail::Result", align 8
  %ref.tmp1330 = alloca %"struct.doctest::detail::Expression_lhs", align 4
  %ref.tmp1331 = alloca %"struct.doctest::detail::ExpressionDecomposer", align 4
  %ref.tmp1333 = alloca i8, align 1
  %ref.tmp1345 = alloca %"struct.doctest::detail::Result", align 8
  %ref.tmp1346 = alloca %"struct.doctest::detail::Expression_lhs.1", align 8
  %ref.tmp1347 = alloca %"struct.doctest::detail::ExpressionDecomposer", align 4
  %ref.tmp1349 = alloca %"class.std::__cxx11::basic_string", align 8
  %DOCTEST_ANON_SUBCASE_16 = alloca ptr, align 8
  %ref.tmp1363 = alloca %"struct.doctest::detail::Subcase", align 8
  %ref.tmp1364 = alloca %"class.doctest::String", align 8
  %ref.tmp1372 = alloca %"struct.doctest::detail::Result", align 8
  %ref.tmp1373 = alloca %"struct.doctest::detail::Expression_lhs", align 4
  %ref.tmp1374 = alloca %"struct.doctest::detail::ExpressionDecomposer", align 4
  %ref.tmp1376 = alloca i8, align 1
  %ref.tmp1388 = alloca %"struct.doctest::detail::Result", align 8
  %ref.tmp1389 = alloca %"struct.doctest::detail::Expression_lhs.1", align 8
  %ref.tmp1390 = alloca %"struct.doctest::detail::ExpressionDecomposer", align 4
  %ref.tmp1392 = alloca %"class.std::__cxx11::basic_string", align 8
  %ref.tmp1404 = alloca %"struct.doctest::detail::Result", align 8
  %ref.tmp1405 = alloca %"struct.doctest::detail::Expression_lhs", align 4
  %ref.tmp1406 = alloca %"struct.doctest::detail::ExpressionDecomposer", align 4
  %ref.tmp1408 = alloca i8, align 1
  %ref.tmp1420 = alloca %"struct.doctest::detail::Result", align 8
  %ref.tmp1421 = alloca %"struct.doctest::detail::Expression_lhs.1", align 8
  %ref.tmp1422 = alloca %"struct.doctest::detail::ExpressionDecomposer", align 4
  %ref.tmp1424 = alloca %"class.std::__cxx11::basic_string", align 8
  %ref.tmp1436 = alloca %"struct.doctest::detail::Result", align 8
  %ref.tmp1437 = alloca %"struct.doctest::detail::Expression_lhs", align 4
  %ref.tmp1438 = alloca %"struct.doctest::detail::ExpressionDecomposer", align 4
  %ref.tmp1440 = alloca i8, align 1
  %ref.tmp1452 = alloca %"struct.doctest::detail::Result", align 8
  %ref.tmp1453 = alloca %"struct.doctest::detail::Expression_lhs.1", align 8
  %ref.tmp1454 = alloca %"struct.doctest::detail::ExpressionDecomposer", align 4
  %ref.tmp1456 = alloca %"class.std::__cxx11::basic_string", align 8
  %ref.tmp1468 = alloca %"struct.doctest::detail::Result", align 8
  %ref.tmp1469 = alloca %"struct.doctest::detail::Expression_lhs", align 4
  %ref.tmp1470 = alloca %"struct.doctest::detail::ExpressionDecomposer", align 4
  %ref.tmp1472 = alloca i8, align 1
  %ref.tmp1484 = alloca %"struct.doctest::detail::Result", align 8
  %ref.tmp1485 = alloca %"struct.doctest::detail::Expression_lhs.1", align 8
  %ref.tmp1486 = alloca %"struct.doctest::detail::ExpressionDecomposer", align 4
  %ref.tmp1488 = alloca %"class.std::__cxx11::basic_string", align 8
  %ref.tmp1500 = alloca %"struct.doctest::detail::Result", align 8
  %ref.tmp1501 = alloca %"struct.doctest::detail::Expression_lhs", align 4
  %ref.tmp1502 = alloca %"struct.doctest::detail::ExpressionDecomposer", align 4
  %ref.tmp1504 = alloca i8, align 1
  %ref.tmp1516 = alloca %"struct.doctest::detail::Result", align 8
  %ref.tmp1517 = alloca %"struct.doctest::detail::Expression_lhs", align 4
  %ref.tmp1518 = alloca %"struct.doctest::detail::ExpressionDecomposer", align 4
  %ref.tmp1520 = alloca i8, align 1
  %ref.tmp1532 = alloca %"struct.doctest::detail::Result", align 8
  %ref.tmp1533 = alloca %"struct.doctest::detail::Expression_lhs", align 4
  %ref.tmp1534 = alloca %"struct.doctest::detail::ExpressionDecomposer", align 4
  %ref.tmp1536 = alloca i8, align 1
  %ref.tmp1548 = alloca %"struct.doctest::detail::Result", align 8
  %ref.tmp1549 = alloca %"struct.doctest::detail::Expression_lhs.1", align 8
  %ref.tmp1550 = alloca %"struct.doctest::detail::ExpressionDecomposer", align 4
  %ref.tmp1552 = alloca %"class.std::__cxx11::basic_string", align 8
  %ref.tmp1564 = alloca %"struct.doctest::detail::Result", align 8
  %ref.tmp1565 = alloca %"struct.doctest::detail::Expression_lhs", align 4
  %ref.tmp1566 = alloca %"struct.doctest::detail::ExpressionDecomposer", align 4
  %ref.tmp1568 = alloca i8, align 1
  %ref.tmp1580 = alloca %"struct.doctest::detail::Result", align 8
  %ref.tmp1581 = alloca %"struct.doctest::detail::Expression_lhs", align 4
  %ref.tmp1582 = alloca %"struct.doctest::detail::ExpressionDecomposer", align 4
  %ref.tmp1584 = alloca i8, align 1
  %ref.tmp1596 = alloca %"struct.doctest::detail::Result", align 8
  %ref.tmp1597 = alloca %"struct.doctest::detail::Expression_lhs", align 4
  %ref.tmp1598 = alloca %"struct.doctest::detail::ExpressionDecomposer", align 4
  %ref.tmp1600 = alloca i8, align 1
  %ref.tmp1612 = alloca %"struct.doctest::detail::Result", align 8
  %ref.tmp1613 = alloca %"struct.doctest::detail::Expression_lhs", align 4
  %ref.tmp1614 = alloca %"struct.doctest::detail::ExpressionDecomposer", align 4
  %ref.tmp1616 = alloca i8, align 1
  %ref.tmp1628 = alloca %"struct.doctest::detail::Result", align 8
  %ref.tmp1629 = alloca %"struct.doctest::detail::Expression_lhs", align 4
  %ref.tmp1630 = alloca %"struct.doctest::detail::ExpressionDecomposer", align 4
  %ref.tmp1632 = alloca i8, align 1
  %ref.tmp1644 = alloca %"struct.doctest::detail::Result", align 8
  %ref.tmp1645 = alloca %"struct.doctest::detail::Expression_lhs", align 4
  %ref.tmp1646 = alloca %"struct.doctest::detail::ExpressionDecomposer", align 4
  %ref.tmp1648 = alloca i8, align 1
  call void @_ZN7doctest6StringC1EPKc(ptr noundef nonnull align 8 dereferenceable(24) %ref.tmp1, ptr noundef @.str.4)
  invoke void @_ZN7doctest6detail7SubcaseC1ERKNS_6StringEPKci(ptr noundef nonnull align 8 dereferenceable(41) %ref.tmp, ptr noundef nonnull align 8 dereferenceable(24) %ref.tmp1, ptr noundef @.str.2, i32 noundef 37)
          to label %invoke.cont unwind label %lpad

invoke.cont:                                      ; preds = %entry
  call void @_ZN7doctest6StringD1Ev(ptr noundef nonnull align 8 dereferenceable(24) %ref.tmp1) #16
  store ptr %ref.tmp, ptr %DOCTEST_ANON_SUBCASE_4, align 8
  %0 = load ptr, ptr %DOCTEST_ANON_SUBCASE_4, align 8
  %call = invoke noundef zeroext i1 @_ZNK7doctest6detail7SubcasecvbEv(ptr noundef nonnull align 8 dereferenceable(41) %0)
          to label %invoke.cont3 unwind label %lpad2

invoke.cont3:                                     ; preds = %invoke.cont
  br i1 %call, label %if.then, label %if.end505

if.then:                                          ; preds = %invoke.cont3
  invoke void @_ZN7doctest6StringC1EPKc(ptr noundef nonnull align 8 dereferenceable(24) %ref.tmp5, ptr noundef @.str.5)
          to label %invoke.cont6 unwind label %lpad2

invoke.cont6:                                     ; preds = %if.then
  invoke void @_ZN7doctest6detail7SubcaseC1ERKNS_6StringEPKci(ptr noundef nonnull align 8 dereferenceable(41) %ref.tmp4, ptr noundef nonnull align 8 dereferenceable(24) %ref.tmp5, ptr noundef @.str.2, i32 noundef 39)
          to label %invoke.cont8 unwind label %lpad7

invoke.cont8:                                     ; preds = %invoke.cont6
  call void @_ZN7doctest6StringD1Ev(ptr noundef nonnull align 8 dereferenceable(24) %ref.tmp5) #16
  store ptr %ref.tmp4, ptr %DOCTEST_ANON_SUBCASE_5, align 8
  %1 = load ptr, ptr %DOCTEST_ANON_SUBCASE_5, align 8
  %call11 = invoke noundef zeroext i1 @_ZNK7doctest6detail7SubcasecvbEv(ptr noundef nonnull align 8 dereferenceable(41) %1)
          to label %invoke.cont10 unwind label %lpad9

invoke.cont10:                                    ; preds = %invoke.cont8
  br i1 %call11, label %if.then12, label %if.end

if.then12:                                        ; preds = %invoke.cont10
  invoke void @_ZN7doctest6detail20ExpressionDecomposerC1ENS_10assertType4EnumE(ptr noundef nonnull align 4 dereferenceable(4) %ref.tmp15, i32 noundef 10)
          to label %invoke.cont16 unwind label %lpad9

invoke.cont16:                                    ; preds = %if.then12
  %call19 = invoke noundef i32 @_ZN12_GLOBAL__N_111scan_stringB5cxx11EPKcb(ptr noundef @.str.7, i1 noundef zeroext false)
          to label %invoke.cont18 unwind label %lpad9

invoke.cont18:                                    ; preds = %invoke.cont16
  %cmp = icmp eq i32 %call19, 8
  %frombool = zext i1 %cmp to i8
  store i8 %frombool, ptr %ref.tmp17, align 1
  %call21 = invoke i64 @_ZN7doctest6detail20ExpressionDecomposerlsIbEENS0_14Expression_lhsIT_EEOS4_(ptr noundef nonnull align 4 dereferenceable(4) %ref.tmp15, ptr noundef nonnull align 1 dereferenceable(1) %ref.tmp17)
          to label %invoke.cont20 unwind label %lpad9

invoke.cont20:                                    ; preds = %invoke.cont18
  store i64 %call21, ptr %ref.tmp14, align 4
  invoke void @_ZN7doctest6detail14Expression_lhsIbEcvNS0_6ResultEEv(ptr sret(%"struct.doctest::detail::Result") align 8 %ref.tmp13, ptr noundef nonnull align 4 dereferenceable(8) %ref.tmp14)
          to label %invoke.cont22 unwind label %lpad9

invoke.cont22:                                    ; preds = %invoke.cont20
  %call25 = invoke noundef zeroext i1 @_ZN7doctest6detail13decomp_assertENS_10assertType4EnumEPKciS4_RKNS0_6ResultE(i32 noundef 10, ptr noundef @.str.2, i32 noundef 41, ptr noundef @.str.6, ptr noundef nonnull align 8 dereferenceable(32) %ref.tmp13)
          to label %invoke.cont24 unwind label %lpad23

invoke.cont24:                                    ; preds = %invoke.cont22
  call void @_ZN7doctest6detail6ResultD2Ev(ptr noundef nonnull align 8 dereferenceable(32) %ref.tmp13) #16
  invoke void @_ZN7doctest6detail20ExpressionDecomposerC1ENS_10assertType4EnumE(ptr noundef nonnull align 4 dereferenceable(4) %ref.tmp28, i32 noundef 10)
          to label %invoke.cont29 unwind label %lpad9

invoke.cont29:                                    ; preds = %invoke.cont24
  %call32 = invoke noundef i32 @_ZN12_GLOBAL__N_111scan_stringB5cxx11EPKcb(ptr noundef @.str.9, i1 noundef zeroext false)
          to label %invoke.cont31 unwind label %lpad9

invoke.cont31:                                    ; preds = %invoke.cont29
  %cmp33 = icmp eq i32 %call32, 10
  %frombool34 = zext i1 %cmp33 to i8
  store i8 %frombool34, ptr %ref.tmp30, align 1
  %call36 = invoke i64 @_ZN7doctest6detail20ExpressionDecomposerlsIbEENS0_14Expression_lhsIT_EEOS4_(ptr noundef nonnull align 4 dereferenceable(4) %ref.tmp28, ptr noundef nonnull align 1 dereferenceable(1) %ref.tmp30)
          to label %invoke.cont35 unwind label %lpad9

invoke.cont35:                                    ; preds = %invoke.cont31
  store i64 %call36, ptr %ref.tmp27, align 4
  invoke void @_ZN7doctest6detail14Expression_lhsIbEcvNS0_6ResultEEv(ptr sret(%"struct.doctest::detail::Result") align 8 %ref.tmp26, ptr noundef nonnull align 4 dereferenceable(8) %ref.tmp27)
          to label %invoke.cont37 unwind label %lpad9

invoke.cont37:                                    ; preds = %invoke.cont35
  %call40 = invoke noundef zeroext i1 @_ZN7doctest6detail13decomp_assertENS_10assertType4EnumEPKciS4_RKNS0_6ResultE(i32 noundef 10, ptr noundef @.str.2, i32 noundef 42, ptr noundef @.str.8, ptr noundef nonnull align 8 dereferenceable(32) %ref.tmp26)
          to label %invoke.cont39 unwind label %lpad38

invoke.cont39:                                    ; preds = %invoke.cont37
  call void @_ZN7doctest6detail6ResultD2Ev(ptr noundef nonnull align 8 dereferenceable(32) %ref.tmp26) #16
  invoke void @_ZN7doctest6detail20ExpressionDecomposerC1ENS_10assertType4EnumE(ptr noundef nonnull align 4 dereferenceable(4) %ref.tmp43, i32 noundef 10)
          to label %invoke.cont44 unwind label %lpad9

invoke.cont44:                                    ; preds = %invoke.cont39
  %call47 = invoke noundef i32 @_ZN12_GLOBAL__N_111scan_stringB5cxx11EPKcb(ptr noundef @.str.11, i1 noundef zeroext false)
          to label %invoke.cont46 unwind label %lpad9

invoke.cont46:                                    ; preds = %invoke.cont44
  %cmp48 = icmp eq i32 %call47, 9
  %frombool49 = zext i1 %cmp48 to i8
  store i8 %frombool49, ptr %ref.tmp45, align 1
  %call51 = invoke i64 @_ZN7doctest6detail20ExpressionDecomposerlsIbEENS0_14Expression_lhsIT_EEOS4_(ptr noundef nonnull align 4 dereferenceable(4) %ref.tmp43, ptr noundef nonnull align 1 dereferenceable(1) %ref.tmp45)
          to label %invoke.cont50 unwind label %lpad9

invoke.cont50:                                    ; preds = %invoke.cont46
  store i64 %call51, ptr %ref.tmp42, align 4
  invoke void @_ZN7doctest6detail14Expression_lhsIbEcvNS0_6ResultEEv(ptr sret(%"struct.doctest::detail::Result") align 8 %ref.tmp41, ptr noundef nonnull align 4 dereferenceable(8) %ref.tmp42)
          to label %invoke.cont52 unwind label %lpad9

invoke.cont52:                                    ; preds = %invoke.cont50
  %call55 = invoke noundef zeroext i1 @_ZN7doctest6detail13decomp_assertENS_10assertType4EnumEPKciS4_RKNS0_6ResultE(i32 noundef 10, ptr noundef @.str.2, i32 noundef 43, ptr noundef @.str.10, ptr noundef nonnull align 8 dereferenceable(32) %ref.tmp41)
          to label %invoke.cont54 unwind label %lpad53

invoke.cont54:                                    ; preds = %invoke.cont52
  call void @_ZN7doctest6detail6ResultD2Ev(ptr noundef nonnull align 8 dereferenceable(32) %ref.tmp41) #16
  invoke void @_ZN7doctest6detail20ExpressionDecomposerC1ENS_10assertType4EnumE(ptr noundef nonnull align 4 dereferenceable(4) %ref.tmp58, i32 noundef 10)
          to label %invoke.cont59 unwind label %lpad9

invoke.cont59:                                    ; preds = %invoke.cont54
  %call62 = invoke noundef i32 @_ZN12_GLOBAL__N_111scan_stringB5cxx11EPKcb(ptr noundef @.str.13, i1 noundef zeroext false)
          to label %invoke.cont61 unwind label %lpad9

invoke.cont61:                                    ; preds = %invoke.cont59
  %cmp63 = icmp eq i32 %call62, 11
  %frombool64 = zext i1 %cmp63 to i8
  store i8 %frombool64, ptr %ref.tmp60, align 1
  %call66 = invoke i64 @_ZN7doctest6detail20ExpressionDecomposerlsIbEENS0_14Expression_lhsIT_EEOS4_(ptr noundef nonnull align 4 dereferenceable(4) %ref.tmp58, ptr noundef nonnull align 1 dereferenceable(1) %ref.tmp60)
          to label %invoke.cont65 unwind label %lpad9

invoke.cont65:                                    ; preds = %invoke.cont61
  store i64 %call66, ptr %ref.tmp57, align 4
  invoke void @_ZN7doctest6detail14Expression_lhsIbEcvNS0_6ResultEEv(ptr sret(%"struct.doctest::detail::Result") align 8 %ref.tmp56, ptr noundef nonnull align 4 dereferenceable(8) %ref.tmp57)
          to label %invoke.cont67 unwind label %lpad9

invoke.cont67:                                    ; preds = %invoke.cont65
  %call70 = invoke noundef zeroext i1 @_ZN7doctest6detail13decomp_assertENS_10assertType4EnumEPKciS4_RKNS0_6ResultE(i32 noundef 10, ptr noundef @.str.2, i32 noundef 44, ptr noundef @.str.12, ptr noundef nonnull align 8 dereferenceable(32) %ref.tmp56)
          to label %invoke.cont69 unwind label %lpad68

invoke.cont69:                                    ; preds = %invoke.cont67
  call void @_ZN7doctest6detail6ResultD2Ev(ptr noundef nonnull align 8 dereferenceable(32) %ref.tmp56) #16
  invoke void @_ZN7doctest6detail20ExpressionDecomposerC1ENS_10assertType4EnumE(ptr noundef nonnull align 4 dereferenceable(4) %ref.tmp73, i32 noundef 10)
          to label %invoke.cont74 unwind label %lpad9

invoke.cont74:                                    ; preds = %invoke.cont69
  %call77 = invoke noundef i32 @_ZN12_GLOBAL__N_111scan_stringB5cxx11EPKcb(ptr noundef @.str.15, i1 noundef zeroext false)
          to label %invoke.cont76 unwind label %lpad9

invoke.cont76:                                    ; preds = %invoke.cont74
  %cmp78 = icmp eq i32 %call77, 13
  %frombool79 = zext i1 %cmp78 to i8
  store i8 %frombool79, ptr %ref.tmp75, align 1
  %call81 = invoke i64 @_ZN7doctest6detail20ExpressionDecomposerlsIbEENS0_14Expression_lhsIT_EEOS4_(ptr noundef nonnull align 4 dereferenceable(4) %ref.tmp73, ptr noundef nonnull align 1 dereferenceable(1) %ref.tmp75)
          to label %invoke.cont80 unwind label %lpad9

invoke.cont80:                                    ; preds = %invoke.cont76
  store i64 %call81, ptr %ref.tmp72, align 4
  invoke void @_ZN7doctest6detail14Expression_lhsIbEcvNS0_6ResultEEv(ptr sret(%"struct.doctest::detail::Result") align 8 %ref.tmp71, ptr noundef nonnull align 4 dereferenceable(8) %ref.tmp72)
          to label %invoke.cont82 unwind label %lpad9

invoke.cont82:                                    ; preds = %invoke.cont80
  %call85 = invoke noundef zeroext i1 @_ZN7doctest6detail13decomp_assertENS_10assertType4EnumEPKciS4_RKNS0_6ResultE(i32 noundef 10, ptr noundef @.str.2, i32 noundef 45, ptr noundef @.str.14, ptr noundef nonnull align 8 dereferenceable(32) %ref.tmp71)
          to label %invoke.cont84 unwind label %lpad83

invoke.cont84:                                    ; preds = %invoke.cont82
  call void @_ZN7doctest6detail6ResultD2Ev(ptr noundef nonnull align 8 dereferenceable(32) %ref.tmp71) #16
  invoke void @_ZN7doctest6detail20ExpressionDecomposerC1ENS_10assertType4EnumE(ptr noundef nonnull align 4 dereferenceable(4) %ref.tmp88, i32 noundef 10)
          to label %invoke.cont89 unwind label %lpad9

invoke.cont89:                                    ; preds = %invoke.cont84
  %call92 = invoke noundef i32 @_ZN12_GLOBAL__N_111scan_stringB5cxx11EPKcb(ptr noundef @.str.17, i1 noundef zeroext false)
          to label %invoke.cont91 unwind label %lpad9

invoke.cont91:                                    ; preds = %invoke.cont89
  %cmp93 = icmp eq i32 %call92, 12
  %frombool94 = zext i1 %cmp93 to i8
  store i8 %frombool94, ptr %ref.tmp90, align 1
  %call96 = invoke i64 @_ZN7doctest6detail20ExpressionDecomposerlsIbEENS0_14Expression_lhsIT_EEOS4_(ptr noundef nonnull align 4 dereferenceable(4) %ref.tmp88, ptr noundef nonnull align 1 dereferenceable(1) %ref.tmp90)
          to label %invoke.cont95 unwind label %lpad9

invoke.cont95:                                    ; preds = %invoke.cont91
  store i64 %call96, ptr %ref.tmp87, align 4
  invoke void @_ZN7doctest6detail14Expression_lhsIbEcvNS0_6ResultEEv(ptr sret(%"struct.doctest::detail::Result") align 8 %ref.tmp86, ptr noundef nonnull align 4 dereferenceable(8) %ref.tmp87)
          to label %invoke.cont97 unwind label %lpad9

invoke.cont97:                                    ; preds = %invoke.cont95
  %call100 = invoke noundef zeroext i1 @_ZN7doctest6detail13decomp_assertENS_10assertType4EnumEPKciS4_RKNS0_6ResultE(i32 noundef 10, ptr noundef @.str.2, i32 noundef 46, ptr noundef @.str.16, ptr noundef nonnull align 8 dereferenceable(32) %ref.tmp86)
          to label %invoke.cont99 unwind label %lpad98

invoke.cont99:                                    ; preds = %invoke.cont97
  call void @_ZN7doctest6detail6ResultD2Ev(ptr noundef nonnull align 8 dereferenceable(32) %ref.tmp86) #16
  br label %if.end

lpad:                                             ; preds = %entry
  %2 = landingpad { ptr, i32 }
          cleanup
  %3 = extractvalue { ptr, i32 } %2, 0
  store ptr %3, ptr %exn.slot, align 8
  %4 = extractvalue { ptr, i32 } %2, 1
  store i32 %4, ptr %ehselector.slot, align 4
  call void @_ZN7doctest6StringD1Ev(ptr noundef nonnull align 8 dereferenceable(24) %ref.tmp1) #16
  br label %eh.resume

lpad2:                                            ; preds = %if.end411, %if.end159, %if.end, %if.then, %invoke.cont
  %5 = landingpad { ptr, i32 }
          cleanup
  %6 = extractvalue { ptr, i32 } %5, 0
  store ptr %6, ptr %exn.slot, align 8
  %7 = extractvalue { ptr, i32 } %5, 1
  store i32 %7, ptr %ehselector.slot, align 4
  br label %ehcleanup506

lpad7:                                            ; preds = %invoke.cont6
  %8 = landingpad { ptr, i32 }
          cleanup
  %9 = extractvalue { ptr, i32 } %8, 0
  store ptr %9, ptr %exn.slot, align 8
  %10 = extractvalue { ptr, i32 } %8, 1
  store i32 %10, ptr %ehselector.slot, align 4
  call void @_ZN7doctest6StringD1Ev(ptr noundef nonnull align 8 dereferenceable(24) %ref.tmp5) #16
  br label %ehcleanup506

lpad9:                                            ; preds = %invoke.cont95, %invoke.cont91, %invoke.cont89, %invoke.cont84, %invoke.cont80, %invoke.cont76, %invoke.cont74, %invoke.cont69, %invoke.cont65, %invoke.cont61, %invoke.cont59, %invoke.cont54, %invoke.cont50, %invoke.cont46, %invoke.cont44, %invoke.cont39, %invoke.cont35, %invoke.cont31, %invoke.cont29, %invoke.cont24, %invoke.cont20, %invoke.cont18, %invoke.cont16, %if.then12, %invoke.cont8
  %11 = landingpad { ptr, i32 }
          cleanup
  %12 = extractvalue { ptr, i32 } %11, 0
  store ptr %12, ptr %exn.slot, align 8
  %13 = extractvalue { ptr, i32 } %11, 1
  store i32 %13, ptr %ehselector.slot, align 4
  br label %ehcleanup

lpad23:                                           ; preds = %invoke.cont22
  %14 = landingpad { ptr, i32 }
          cleanup
  %15 = extractvalue { ptr, i32 } %14, 0
  store ptr %15, ptr %exn.slot, align 8
  %16 = extractvalue { ptr, i32 } %14, 1
  store i32 %16, ptr %ehselector.slot, align 4
  call void @_ZN7doctest6detail6ResultD2Ev(ptr noundef nonnull align 8 dereferenceable(32) %ref.tmp13) #16
  br label %ehcleanup

lpad38:                                           ; preds = %invoke.cont37
  %17 = landingpad { ptr, i32 }
          cleanup
  %18 = extractvalue { ptr, i32 } %17, 0
  store ptr %18, ptr %exn.slot, align 8
  %19 = extractvalue { ptr, i32 } %17, 1
  store i32 %19, ptr %ehselector.slot, align 4
  call void @_ZN7doctest6detail6ResultD2Ev(ptr noundef nonnull align 8 dereferenceable(32) %ref.tmp26) #16
  br label %ehcleanup

lpad53:                                           ; preds = %invoke.cont52
  %20 = landingpad { ptr, i32 }
          cleanup
  %21 = extractvalue { ptr, i32 } %20, 0
  store ptr %21, ptr %exn.slot, align 8
  %22 = extractvalue { ptr, i32 } %20, 1
  store i32 %22, ptr %ehselector.slot, align 4
  call void @_ZN7doctest6detail6ResultD2Ev(ptr noundef nonnull align 8 dereferenceable(32) %ref.tmp41) #16
  br label %ehcleanup

lpad68:                                           ; preds = %invoke.cont67
  %23 = landingpad { ptr, i32 }
          cleanup
  %24 = extractvalue { ptr, i32 } %23, 0
  store ptr %24, ptr %exn.slot, align 8
  %25 = extractvalue { ptr, i32 } %23, 1
  store i32 %25, ptr %ehselector.slot, align 4
  call void @_ZN7doctest6detail6ResultD2Ev(ptr noundef nonnull align 8 dereferenceable(32) %ref.tmp56) #16
  br label %ehcleanup

lpad83:                                           ; preds = %invoke.cont82
  %26 = landingpad { ptr, i32 }
          cleanup
  %27 = extractvalue { ptr, i32 } %26, 0
  store ptr %27, ptr %exn.slot, align 8
  %28 = extractvalue { ptr, i32 } %26, 1
  store i32 %28, ptr %ehselector.slot, align 4
  call void @_ZN7doctest6detail6ResultD2Ev(ptr noundef nonnull align 8 dereferenceable(32) %ref.tmp71) #16
  br label %ehcleanup

lpad98:                                           ; preds = %invoke.cont97
  %29 = landingpad { ptr, i32 }
          cleanup
  %30 = extractvalue { ptr, i32 } %29, 0
  store ptr %30, ptr %exn.slot, align 8
  %31 = extractvalue { ptr, i32 } %29, 1
  store i32 %31, ptr %ehselector.slot, align 4
  call void @_ZN7doctest6detail6ResultD2Ev(ptr noundef nonnull align 8 dereferenceable(32) %ref.tmp86) #16
  br label %ehcleanup

if.end:                                           ; preds = %invoke.cont99, %invoke.cont10
  call void @_ZN7doctest6detail7SubcaseD1Ev(ptr noundef nonnull align 8 dereferenceable(41) %ref.tmp4) #16
  invoke void @_ZN7doctest6StringC1EPKc(ptr noundef nonnull align 8 dereferenceable(24) %ref.tmp102, ptr noundef @.str.18)
          to label %invoke.cont103 unwind label %lpad2

invoke.cont103:                                   ; preds = %if.end
  invoke void @_ZN7doctest6detail7SubcaseC1ERKNS_6StringEPKci(ptr noundef nonnull align 8 dereferenceable(41) %ref.tmp101, ptr noundef nonnull align 8 dereferenceable(24) %ref.tmp102, ptr noundef @.str.2, i32 noundef 49)
          to label %invoke.cont105 unwind label %lpad104

invoke.cont105:                                   ; preds = %invoke.cont103
  call void @_ZN7doctest6StringD1Ev(ptr noundef nonnull align 8 dereferenceable(24) %ref.tmp102) #16
  store ptr %ref.tmp101, ptr %DOCTEST_ANON_SUBCASE_6, align 8
  %32 = load ptr, ptr %DOCTEST_ANON_SUBCASE_6, align 8
  %call109 = invoke noundef zeroext i1 @_ZNK7doctest6detail7SubcasecvbEv(ptr noundef nonnull align 8 dereferenceable(41) %32)
          to label %invoke.cont108 unwind label %lpad107

invoke.cont108:                                   ; preds = %invoke.cont105
  br i1 %call109, label %if.then110, label %if.end159

if.then110:                                       ; preds = %invoke.cont108
  invoke void @_ZN7doctest6detail20ExpressionDecomposerC1ENS_10assertType4EnumE(ptr noundef nonnull align 4 dereferenceable(4) %ref.tmp113, i32 noundef 10)
          to label %invoke.cont114 unwind label %lpad107

invoke.cont114:                                   ; preds = %if.then110
  %call117 = invoke noundef i32 @_ZN12_GLOBAL__N_111scan_stringB5cxx11EPKcb(ptr noundef @.str.20, i1 noundef zeroext false)
          to label %invoke.cont116 unwind label %lpad107

invoke.cont116:                                   ; preds = %invoke.cont114
  %cmp118 = icmp eq i32 %call117, 3
  %frombool119 = zext i1 %cmp118 to i8
  store i8 %frombool119, ptr %ref.tmp115, align 1
  %call121 = invoke i64 @_ZN7doctest6detail20ExpressionDecomposerlsIbEENS0_14Expression_lhsIT_EEOS4_(ptr noundef nonnull align 4 dereferenceable(4) %ref.tmp113, ptr noundef nonnull align 1 dereferenceable(1) %ref.tmp115)
          to label %invoke.cont120 unwind label %lpad107

invoke.cont120:                                   ; preds = %invoke.cont116
  store i64 %call121, ptr %ref.tmp112, align 4
  invoke void @_ZN7doctest6detail14Expression_lhsIbEcvNS0_6ResultEEv(ptr sret(%"struct.doctest::detail::Result") align 8 %ref.tmp111, ptr noundef nonnull align 4 dereferenceable(8) %ref.tmp112)
          to label %invoke.cont122 unwind label %lpad107

invoke.cont122:                                   ; preds = %invoke.cont120
  %call125 = invoke noundef zeroext i1 @_ZN7doctest6detail13decomp_assertENS_10assertType4EnumEPKciS4_RKNS0_6ResultE(i32 noundef 10, ptr noundef @.str.2, i32 noundef 51, ptr noundef @.str.19, ptr noundef nonnull align 8 dereferenceable(32) %ref.tmp111)
          to label %invoke.cont124 unwind label %lpad123

invoke.cont124:                                   ; preds = %invoke.cont122
  call void @_ZN7doctest6detail6ResultD2Ev(ptr noundef nonnull align 8 dereferenceable(32) %ref.tmp111) #16
  invoke void @_ZN7doctest6detail20ExpressionDecomposerC1ENS_10assertType4EnumE(ptr noundef nonnull align 4 dereferenceable(4) %ref.tmp129, i32 noundef 10)
          to label %invoke.cont130 unwind label %lpad107

invoke.cont130:                                   ; preds = %invoke.cont124
  %call133 = invoke noundef i32 @_ZN12_GLOBAL__N_111scan_stringB5cxx11EPKcb(ptr noundef @.str.22, i1 noundef zeroext false)
          to label %invoke.cont132 unwind label %lpad107

invoke.cont132:                                   ; preds = %invoke.cont130
  %cmp134 = icmp eq i32 %call133, 1
  %frombool135 = zext i1 %cmp134 to i8
  store i8 %frombool135, ptr %ref.tmp131, align 1
  %call137 = invoke i64 @_ZN7doctest6detail20ExpressionDecomposerlsIbEENS0_14Expression_lhsIT_EEOS4_(ptr noundef nonnull align 4 dereferenceable(4) %ref.tmp129, ptr noundef nonnull align 1 dereferenceable(1) %ref.tmp131)
          to label %invoke.cont136 unwind label %lpad107

invoke.cont136:                                   ; preds = %invoke.cont132
  store i64 %call137, ptr %ref.tmp128, align 4
  invoke void @_ZN7doctest6detail14Expression_lhsIbEcvNS0_6ResultEEv(ptr sret(%"struct.doctest::detail::Result") align 8 %ref.tmp127, ptr noundef nonnull align 4 dereferenceable(8) %ref.tmp128)
          to label %invoke.cont138 unwind label %lpad107

invoke.cont138:                                   ; preds = %invoke.cont136
  %call141 = invoke noundef zeroext i1 @_ZN7doctest6detail13decomp_assertENS_10assertType4EnumEPKciS4_RKNS0_6ResultE(i32 noundef 10, ptr noundef @.str.2, i32 noundef 52, ptr noundef @.str.21, ptr noundef nonnull align 8 dereferenceable(32) %ref.tmp127)
          to label %invoke.cont140 unwind label %lpad139

invoke.cont140:                                   ; preds = %invoke.cont138
  call void @_ZN7doctest6detail6ResultD2Ev(ptr noundef nonnull align 8 dereferenceable(32) %ref.tmp127) #16
  invoke void @_ZN7doctest6detail20ExpressionDecomposerC1ENS_10assertType4EnumE(ptr noundef nonnull align 4 dereferenceable(4) %ref.tmp145, i32 noundef 10)
          to label %invoke.cont146 unwind label %lpad107

invoke.cont146:                                   ; preds = %invoke.cont140
  %call149 = invoke noundef i32 @_ZN12_GLOBAL__N_111scan_stringB5cxx11EPKcb(ptr noundef @.str.24, i1 noundef zeroext false)
          to label %invoke.cont148 unwind label %lpad107

invoke.cont148:                                   ; preds = %invoke.cont146
  %cmp150 = icmp eq i32 %call149, 2
  %frombool151 = zext i1 %cmp150 to i8
  store i8 %frombool151, ptr %ref.tmp147, align 1
  %call153 = invoke i64 @_ZN7doctest6detail20ExpressionDecomposerlsIbEENS0_14Expression_lhsIT_EEOS4_(ptr noundef nonnull align 4 dereferenceable(4) %ref.tmp145, ptr noundef nonnull align 1 dereferenceable(1) %ref.tmp147)
          to label %invoke.cont152 unwind label %lpad107

invoke.cont152:                                   ; preds = %invoke.cont148
  store i64 %call153, ptr %ref.tmp144, align 4
  invoke void @_ZN7doctest6detail14Expression_lhsIbEcvNS0_6ResultEEv(ptr sret(%"struct.doctest::detail::Result") align 8 %ref.tmp143, ptr noundef nonnull align 4 dereferenceable(8) %ref.tmp144)
          to label %invoke.cont154 unwind label %lpad107

invoke.cont154:                                   ; preds = %invoke.cont152
  %call157 = invoke noundef zeroext i1 @_ZN7doctest6detail13decomp_assertENS_10assertType4EnumEPKciS4_RKNS0_6ResultE(i32 noundef 10, ptr noundef @.str.2, i32 noundef 53, ptr noundef @.str.23, ptr noundef nonnull align 8 dereferenceable(32) %ref.tmp143)
          to label %invoke.cont156 unwind label %lpad155

invoke.cont156:                                   ; preds = %invoke.cont154
  call void @_ZN7doctest6detail6ResultD2Ev(ptr noundef nonnull align 8 dereferenceable(32) %ref.tmp143) #16
  br label %if.end159

ehcleanup:                                        ; preds = %lpad98, %lpad83, %lpad68, %lpad53, %lpad38, %lpad23, %lpad9
  call void @_ZN7doctest6detail7SubcaseD1Ev(ptr noundef nonnull align 8 dereferenceable(41) %ref.tmp4) #16
  br label %ehcleanup506

lpad104:                                          ; preds = %invoke.cont103
  %33 = landingpad { ptr, i32 }
          cleanup
  %34 = extractvalue { ptr, i32 } %33, 0
  store ptr %34, ptr %exn.slot, align 8
  %35 = extractvalue { ptr, i32 } %33, 1
  store i32 %35, ptr %ehselector.slot, align 4
  call void @_ZN7doctest6StringD1Ev(ptr noundef nonnull align 8 dereferenceable(24) %ref.tmp102) #16
  br label %ehcleanup506

lpad107:                                          ; preds = %invoke.cont152, %invoke.cont148, %invoke.cont146, %invoke.cont140, %invoke.cont136, %invoke.cont132, %invoke.cont130, %invoke.cont124, %invoke.cont120, %invoke.cont116, %invoke.cont114, %if.then110, %invoke.cont105
  %36 = landingpad { ptr, i32 }
          cleanup
  %37 = extractvalue { ptr, i32 } %36, 0
  store ptr %37, ptr %exn.slot, align 8
  %38 = extractvalue { ptr, i32 } %36, 1
  store i32 %38, ptr %ehselector.slot, align 4
  br label %ehcleanup160

lpad123:                                          ; preds = %invoke.cont122
  %39 = landingpad { ptr, i32 }
          cleanup
  %40 = extractvalue { ptr, i32 } %39, 0
  store ptr %40, ptr %exn.slot, align 8
  %41 = extractvalue { ptr, i32 } %39, 1
  store i32 %41, ptr %ehselector.slot, align 4
  call void @_ZN7doctest6detail6ResultD2Ev(ptr noundef nonnull align 8 dereferenceable(32) %ref.tmp111) #16
  br label %ehcleanup160

lpad139:                                          ; preds = %invoke.cont138
  %42 = landingpad { ptr, i32 }
          cleanup
  %43 = extractvalue { ptr, i32 } %42, 0
  store ptr %43, ptr %exn.slot, align 8
  %44 = extractvalue { ptr, i32 } %42, 1
  store i32 %44, ptr %ehselector.slot, align 4
  call void @_ZN7doctest6detail6ResultD2Ev(ptr noundef nonnull align 8 dereferenceable(32) %ref.tmp127) #16
  br label %ehcleanup160

lpad155:                                          ; preds = %invoke.cont154
  %45 = landingpad { ptr, i32 }
          cleanup
  %46 = extractvalue { ptr, i32 } %45, 0
  store ptr %46, ptr %exn.slot, align 8
  %47 = extractvalue { ptr, i32 } %45, 1
  store i32 %47, ptr %ehselector.slot, align 4
  call void @_ZN7doctest6detail6ResultD2Ev(ptr noundef nonnull align 8 dereferenceable(32) %ref.tmp143) #16
  br label %ehcleanup160

if.end159:                                        ; preds = %invoke.cont156, %invoke.cont108
  call void @_ZN7doctest6detail7SubcaseD1Ev(ptr noundef nonnull align 8 dereferenceable(41) %ref.tmp101) #16
  invoke void @_ZN7doctest6StringC1EPKc(ptr noundef nonnull align 8 dereferenceable(24) %ref.tmp162, ptr noundef @.str.25)
          to label %invoke.cont163 unwind label %lpad2

invoke.cont163:                                   ; preds = %if.end159
  invoke void @_ZN7doctest6detail7SubcaseC1ERKNS_6StringEPKci(ptr noundef nonnull align 8 dereferenceable(41) %ref.tmp161, ptr noundef nonnull align 8 dereferenceable(24) %ref.tmp162, ptr noundef @.str.2, i32 noundef 56)
          to label %invoke.cont165 unwind label %lpad164

invoke.cont165:                                   ; preds = %invoke.cont163
  call void @_ZN7doctest6StringD1Ev(ptr noundef nonnull align 8 dereferenceable(24) %ref.tmp162) #16
  store ptr %ref.tmp161, ptr %DOCTEST_ANON_SUBCASE_7, align 8
  %48 = load ptr, ptr %DOCTEST_ANON_SUBCASE_7, align 8
  %call169 = invoke noundef zeroext i1 @_ZNK7doctest6detail7SubcasecvbEv(ptr noundef nonnull align 8 dereferenceable(41) %48)
          to label %invoke.cont168 unwind label %lpad167

invoke.cont168:                                   ; preds = %invoke.cont165
  br i1 %call169, label %if.then170, label %if.end411

if.then170:                                       ; preds = %invoke.cont168
  invoke void @_ZN7doctest6detail20ExpressionDecomposerC1ENS_10assertType4EnumE(ptr noundef nonnull align 4 dereferenceable(4) %ref.tmp173, i32 noundef 10)
          to label %invoke.cont174 unwind label %lpad167

invoke.cont174:                                   ; preds = %if.then170
  %call177 = invoke noundef i32 @_ZN12_GLOBAL__N_111scan_stringB5cxx11EPKcb(ptr noundef @.str.27, i1 noundef zeroext false)
          to label %invoke.cont176 unwind label %lpad167

invoke.cont176:                                   ; preds = %invoke.cont174
  %cmp178 = icmp eq i32 %call177, 5
  %frombool179 = zext i1 %cmp178 to i8
  store i8 %frombool179, ptr %ref.tmp175, align 1
  %call181 = invoke i64 @_ZN7doctest6detail20ExpressionDecomposerlsIbEENS0_14Expression_lhsIT_EEOS4_(ptr noundef nonnull align 4 dereferenceable(4) %ref.tmp173, ptr noundef nonnull align 1 dereferenceable(1) %ref.tmp175)
          to label %invoke.cont180 unwind label %lpad167

invoke.cont180:                                   ; preds = %invoke.cont176
  store i64 %call181, ptr %ref.tmp172, align 4
  invoke void @_ZN7doctest6detail14Expression_lhsIbEcvNS0_6ResultEEv(ptr sret(%"struct.doctest::detail::Result") align 8 %ref.tmp171, ptr noundef nonnull align 4 dereferenceable(8) %ref.tmp172)
          to label %invoke.cont182 unwind label %lpad167

invoke.cont182:                                   ; preds = %invoke.cont180
  %call185 = invoke noundef zeroext i1 @_ZN7doctest6detail13decomp_assertENS_10assertType4EnumEPKciS4_RKNS0_6ResultE(i32 noundef 10, ptr noundef @.str.2, i32 noundef 58, ptr noundef @.str.26, ptr noundef nonnull align 8 dereferenceable(32) %ref.tmp171)
          to label %invoke.cont184 unwind label %lpad183

invoke.cont184:                                   ; preds = %invoke.cont182
  call void @_ZN7doctest6detail6ResultD2Ev(ptr noundef nonnull align 8 dereferenceable(32) %ref.tmp171) #16
  invoke void @_ZN7doctest6detail20ExpressionDecomposerC1ENS_10assertType4EnumE(ptr noundef nonnull align 4 dereferenceable(4) %ref.tmp189, i32 noundef 10)
          to label %invoke.cont190 unwind label %lpad167

invoke.cont190:                                   ; preds = %invoke.cont184
  %call193 = invoke noundef i32 @_ZN12_GLOBAL__N_111scan_stringB5cxx11EPKcb(ptr noundef @.str.29, i1 noundef zeroext false)
          to label %invoke.cont192 unwind label %lpad167

invoke.cont192:                                   ; preds = %invoke.cont190
  %cmp194 = icmp eq i32 %call193, 5
  %frombool195 = zext i1 %cmp194 to i8
  store i8 %frombool195, ptr %ref.tmp191, align 1
  %call197 = invoke i64 @_ZN7doctest6detail20ExpressionDecomposerlsIbEENS0_14Expression_lhsIT_EEOS4_(ptr noundef nonnull align 4 dereferenceable(4) %ref.tmp189, ptr noundef nonnull align 1 dereferenceable(1) %ref.tmp191)
          to label %invoke.cont196 unwind label %lpad167

invoke.cont196:                                   ; preds = %invoke.cont192
  store i64 %call197, ptr %ref.tmp188, align 4
  invoke void @_ZN7doctest6detail14Expression_lhsIbEcvNS0_6ResultEEv(ptr sret(%"struct.doctest::detail::Result") align 8 %ref.tmp187, ptr noundef nonnull align 4 dereferenceable(8) %ref.tmp188)
          to label %invoke.cont198 unwind label %lpad167

invoke.cont198:                                   ; preds = %invoke.cont196
  %call201 = invoke noundef zeroext i1 @_ZN7doctest6detail13decomp_assertENS_10assertType4EnumEPKciS4_RKNS0_6ResultE(i32 noundef 10, ptr noundef @.str.2, i32 noundef 59, ptr noundef @.str.28, ptr noundef nonnull align 8 dereferenceable(32) %ref.tmp187)
          to label %invoke.cont200 unwind label %lpad199

invoke.cont200:                                   ; preds = %invoke.cont198
  call void @_ZN7doctest6detail6ResultD2Ev(ptr noundef nonnull align 8 dereferenceable(32) %ref.tmp187) #16
  invoke void @_ZN7doctest6detail20ExpressionDecomposerC1ENS_10assertType4EnumE(ptr noundef nonnull align 4 dereferenceable(4) %ref.tmp205, i32 noundef 10)
          to label %invoke.cont206 unwind label %lpad167

invoke.cont206:                                   ; preds = %invoke.cont200
  %call209 = invoke noundef i32 @_ZN12_GLOBAL__N_111scan_stringB5cxx11EPKcb(ptr noundef @.str.31, i1 noundef zeroext false)
          to label %invoke.cont208 unwind label %lpad167

invoke.cont208:                                   ; preds = %invoke.cont206
  %cmp210 = icmp eq i32 %call209, 5
  %frombool211 = zext i1 %cmp210 to i8
  store i8 %frombool211, ptr %ref.tmp207, align 1
  %call213 = invoke i64 @_ZN7doctest6detail20ExpressionDecomposerlsIbEENS0_14Expression_lhsIT_EEOS4_(ptr noundef nonnull align 4 dereferenceable(4) %ref.tmp205, ptr noundef nonnull align 1 dereferenceable(1) %ref.tmp207)
          to label %invoke.cont212 unwind label %lpad167

invoke.cont212:                                   ; preds = %invoke.cont208
  store i64 %call213, ptr %ref.tmp204, align 4
  invoke void @_ZN7doctest6detail14Expression_lhsIbEcvNS0_6ResultEEv(ptr sret(%"struct.doctest::detail::Result") align 8 %ref.tmp203, ptr noundef nonnull align 4 dereferenceable(8) %ref.tmp204)
          to label %invoke.cont214 unwind label %lpad167

invoke.cont214:                                   ; preds = %invoke.cont212
  %call217 = invoke noundef zeroext i1 @_ZN7doctest6detail13decomp_assertENS_10assertType4EnumEPKciS4_RKNS0_6ResultE(i32 noundef 10, ptr noundef @.str.2, i32 noundef 60, ptr noundef @.str.30, ptr noundef nonnull align 8 dereferenceable(32) %ref.tmp203)
          to label %invoke.cont216 unwind label %lpad215

invoke.cont216:                                   ; preds = %invoke.cont214
  call void @_ZN7doctest6detail6ResultD2Ev(ptr noundef nonnull align 8 dereferenceable(32) %ref.tmp203) #16
  invoke void @_ZN7doctest6detail20ExpressionDecomposerC1ENS_10assertType4EnumE(ptr noundef nonnull align 4 dereferenceable(4) %ref.tmp221, i32 noundef 10)
          to label %invoke.cont222 unwind label %lpad167

invoke.cont222:                                   ; preds = %invoke.cont216
  %call225 = invoke noundef i32 @_ZN12_GLOBAL__N_111scan_stringB5cxx11EPKcb(ptr noundef @.str.33, i1 noundef zeroext false)
          to label %invoke.cont224 unwind label %lpad167

invoke.cont224:                                   ; preds = %invoke.cont222
  %cmp226 = icmp eq i32 %call225, 5
  %frombool227 = zext i1 %cmp226 to i8
  store i8 %frombool227, ptr %ref.tmp223, align 1
  %call229 = invoke i64 @_ZN7doctest6detail20ExpressionDecomposerlsIbEENS0_14Expression_lhsIT_EEOS4_(ptr noundef nonnull align 4 dereferenceable(4) %ref.tmp221, ptr noundef nonnull align 1 dereferenceable(1) %ref.tmp223)
          to label %invoke.cont228 unwind label %lpad167

invoke.cont228:                                   ; preds = %invoke.cont224
  store i64 %call229, ptr %ref.tmp220, align 4
  invoke void @_ZN7doctest6detail14Expression_lhsIbEcvNS0_6ResultEEv(ptr sret(%"struct.doctest::detail::Result") align 8 %ref.tmp219, ptr noundef nonnull align 4 dereferenceable(8) %ref.tmp220)
          to label %invoke.cont230 unwind label %lpad167

invoke.cont230:                                   ; preds = %invoke.cont228
  %call233 = invoke noundef zeroext i1 @_ZN7doctest6detail13decomp_assertENS_10assertType4EnumEPKciS4_RKNS0_6ResultE(i32 noundef 10, ptr noundef @.str.2, i32 noundef 61, ptr noundef @.str.32, ptr noundef nonnull align 8 dereferenceable(32) %ref.tmp219)
          to label %invoke.cont232 unwind label %lpad231

invoke.cont232:                                   ; preds = %invoke.cont230
  call void @_ZN7doctest6detail6ResultD2Ev(ptr noundef nonnull align 8 dereferenceable(32) %ref.tmp219) #16
  invoke void @_ZN7doctest6detail20ExpressionDecomposerC1ENS_10assertType4EnumE(ptr noundef nonnull align 4 dereferenceable(4) %ref.tmp237, i32 noundef 10)
          to label %invoke.cont238 unwind label %lpad167

invoke.cont238:                                   ; preds = %invoke.cont232
  %call241 = invoke noundef i32 @_ZN12_GLOBAL__N_111scan_stringB5cxx11EPKcb(ptr noundef @.str.35, i1 noundef zeroext false)
          to label %invoke.cont240 unwind label %lpad167

invoke.cont240:                                   ; preds = %invoke.cont238
  %cmp242 = icmp eq i32 %call241, 5
  %frombool243 = zext i1 %cmp242 to i8
  store i8 %frombool243, ptr %ref.tmp239, align 1
  %call245 = invoke i64 @_ZN7doctest6detail20ExpressionDecomposerlsIbEENS0_14Expression_lhsIT_EEOS4_(ptr noundef nonnull align 4 dereferenceable(4) %ref.tmp237, ptr noundef nonnull align 1 dereferenceable(1) %ref.tmp239)
          to label %invoke.cont244 unwind label %lpad167

invoke.cont244:                                   ; preds = %invoke.cont240
  store i64 %call245, ptr %ref.tmp236, align 4
  invoke void @_ZN7doctest6detail14Expression_lhsIbEcvNS0_6ResultEEv(ptr sret(%"struct.doctest::detail::Result") align 8 %ref.tmp235, ptr noundef nonnull align 4 dereferenceable(8) %ref.tmp236)
          to label %invoke.cont246 unwind label %lpad167

invoke.cont246:                                   ; preds = %invoke.cont244
  %call249 = invoke noundef zeroext i1 @_ZN7doctest6detail13decomp_assertENS_10assertType4EnumEPKciS4_RKNS0_6ResultE(i32 noundef 10, ptr noundef @.str.2, i32 noundef 62, ptr noundef @.str.34, ptr noundef nonnull align 8 dereferenceable(32) %ref.tmp235)
          to label %invoke.cont248 unwind label %lpad247

invoke.cont248:                                   ; preds = %invoke.cont246
  call void @_ZN7doctest6detail6ResultD2Ev(ptr noundef nonnull align 8 dereferenceable(32) %ref.tmp235) #16
  invoke void @_ZN7doctest6detail20ExpressionDecomposerC1ENS_10assertType4EnumE(ptr noundef nonnull align 4 dereferenceable(4) %ref.tmp253, i32 noundef 10)
          to label %invoke.cont254 unwind label %lpad167

invoke.cont254:                                   ; preds = %invoke.cont248
  %call257 = invoke noundef i32 @_ZN12_GLOBAL__N_111scan_stringB5cxx11EPKcb(ptr noundef @.str.37, i1 noundef zeroext false)
          to label %invoke.cont256 unwind label %lpad167

invoke.cont256:                                   ; preds = %invoke.cont254
  %cmp258 = icmp eq i32 %call257, 5
  %frombool259 = zext i1 %cmp258 to i8
  store i8 %frombool259, ptr %ref.tmp255, align 1
  %call261 = invoke i64 @_ZN7doctest6detail20ExpressionDecomposerlsIbEENS0_14Expression_lhsIT_EEOS4_(ptr noundef nonnull align 4 dereferenceable(4) %ref.tmp253, ptr noundef nonnull align 1 dereferenceable(1) %ref.tmp255)
          to label %invoke.cont260 unwind label %lpad167

invoke.cont260:                                   ; preds = %invoke.cont256
  store i64 %call261, ptr %ref.tmp252, align 4
  invoke void @_ZN7doctest6detail14Expression_lhsIbEcvNS0_6ResultEEv(ptr sret(%"struct.doctest::detail::Result") align 8 %ref.tmp251, ptr noundef nonnull align 4 dereferenceable(8) %ref.tmp252)
          to label %invoke.cont262 unwind label %lpad167

invoke.cont262:                                   ; preds = %invoke.cont260
  %call265 = invoke noundef zeroext i1 @_ZN7doctest6detail13decomp_assertENS_10assertType4EnumEPKciS4_RKNS0_6ResultE(i32 noundef 10, ptr noundef @.str.2, i32 noundef 63, ptr noundef @.str.36, ptr noundef nonnull align 8 dereferenceable(32) %ref.tmp251)
          to label %invoke.cont264 unwind label %lpad263

invoke.cont264:                                   ; preds = %invoke.cont262
  call void @_ZN7doctest6detail6ResultD2Ev(ptr noundef nonnull align 8 dereferenceable(32) %ref.tmp251) #16
  invoke void @_ZN7doctest6detail20ExpressionDecomposerC1ENS_10assertType4EnumE(ptr noundef nonnull align 4 dereferenceable(4) %ref.tmp269, i32 noundef 10)
          to label %invoke.cont270 unwind label %lpad167

invoke.cont270:                                   ; preds = %invoke.cont264
  %call273 = invoke noundef i32 @_ZN12_GLOBAL__N_111scan_stringB5cxx11EPKcb(ptr noundef @.str.39, i1 noundef zeroext false)
          to label %invoke.cont272 unwind label %lpad167

invoke.cont272:                                   ; preds = %invoke.cont270
  %cmp274 = icmp eq i32 %call273, 5
  %frombool275 = zext i1 %cmp274 to i8
  store i8 %frombool275, ptr %ref.tmp271, align 1
  %call277 = invoke i64 @_ZN7doctest6detail20ExpressionDecomposerlsIbEENS0_14Expression_lhsIT_EEOS4_(ptr noundef nonnull align 4 dereferenceable(4) %ref.tmp269, ptr noundef nonnull align 1 dereferenceable(1) %ref.tmp271)
          to label %invoke.cont276 unwind label %lpad167

invoke.cont276:                                   ; preds = %invoke.cont272
  store i64 %call277, ptr %ref.tmp268, align 4
  invoke void @_ZN7doctest6detail14Expression_lhsIbEcvNS0_6ResultEEv(ptr sret(%"struct.doctest::detail::Result") align 8 %ref.tmp267, ptr noundef nonnull align 4 dereferenceable(8) %ref.tmp268)
          to label %invoke.cont278 unwind label %lpad167

invoke.cont278:                                   ; preds = %invoke.cont276
  %call281 = invoke noundef zeroext i1 @_ZN7doctest6detail13decomp_assertENS_10assertType4EnumEPKciS4_RKNS0_6ResultE(i32 noundef 10, ptr noundef @.str.2, i32 noundef 64, ptr noundef @.str.38, ptr noundef nonnull align 8 dereferenceable(32) %ref.tmp267)
          to label %invoke.cont280 unwind label %lpad279

invoke.cont280:                                   ; preds = %invoke.cont278
  call void @_ZN7doctest6detail6ResultD2Ev(ptr noundef nonnull align 8 dereferenceable(32) %ref.tmp267) #16
  invoke void @_ZN7doctest6detail20ExpressionDecomposerC1ENS_10assertType4EnumE(ptr noundef nonnull align 4 dereferenceable(4) %ref.tmp285, i32 noundef 10)
          to label %invoke.cont286 unwind label %lpad167

invoke.cont286:                                   ; preds = %invoke.cont280
  %call289 = invoke noundef i32 @_ZN12_GLOBAL__N_111scan_stringB5cxx11EPKcb(ptr noundef @.str.41, i1 noundef zeroext false)
          to label %invoke.cont288 unwind label %lpad167

invoke.cont288:                                   ; preds = %invoke.cont286
  %cmp290 = icmp eq i32 %call289, 5
  %frombool291 = zext i1 %cmp290 to i8
  store i8 %frombool291, ptr %ref.tmp287, align 1
  %call293 = invoke i64 @_ZN7doctest6detail20ExpressionDecomposerlsIbEENS0_14Expression_lhsIT_EEOS4_(ptr noundef nonnull align 4 dereferenceable(4) %ref.tmp285, ptr noundef nonnull align 1 dereferenceable(1) %ref.tmp287)
          to label %invoke.cont292 unwind label %lpad167

invoke.cont292:                                   ; preds = %invoke.cont288
  store i64 %call293, ptr %ref.tmp284, align 4
  invoke void @_ZN7doctest6detail14Expression_lhsIbEcvNS0_6ResultEEv(ptr sret(%"struct.doctest::detail::Result") align 8 %ref.tmp283, ptr noundef nonnull align 4 dereferenceable(8) %ref.tmp284)
          to label %invoke.cont294 unwind label %lpad167

invoke.cont294:                                   ; preds = %invoke.cont292
  %call297 = invoke noundef zeroext i1 @_ZN7doctest6detail13decomp_assertENS_10assertType4EnumEPKciS4_RKNS0_6ResultE(i32 noundef 10, ptr noundef @.str.2, i32 noundef 65, ptr noundef @.str.40, ptr noundef nonnull align 8 dereferenceable(32) %ref.tmp283)
          to label %invoke.cont296 unwind label %lpad295

invoke.cont296:                                   ; preds = %invoke.cont294
  call void @_ZN7doctest6detail6ResultD2Ev(ptr noundef nonnull align 8 dereferenceable(32) %ref.tmp283) #16
  invoke void @_ZN7doctest6detail20ExpressionDecomposerC1ENS_10assertType4EnumE(ptr noundef nonnull align 4 dereferenceable(4) %ref.tmp301, i32 noundef 10)
          to label %invoke.cont302 unwind label %lpad167

invoke.cont302:                                   ; preds = %invoke.cont296
  %call305 = invoke noundef i32 @_ZN12_GLOBAL__N_111scan_stringB5cxx11EPKcb(ptr noundef @.str.43, i1 noundef zeroext false)
          to label %invoke.cont304 unwind label %lpad167

invoke.cont304:                                   ; preds = %invoke.cont302
  %cmp306 = icmp eq i32 %call305, 5
  %frombool307 = zext i1 %cmp306 to i8
  store i8 %frombool307, ptr %ref.tmp303, align 1
  %call309 = invoke i64 @_ZN7doctest6detail20ExpressionDecomposerlsIbEENS0_14Expression_lhsIT_EEOS4_(ptr noundef nonnull align 4 dereferenceable(4) %ref.tmp301, ptr noundef nonnull align 1 dereferenceable(1) %ref.tmp303)
          to label %invoke.cont308 unwind label %lpad167

invoke.cont308:                                   ; preds = %invoke.cont304
  store i64 %call309, ptr %ref.tmp300, align 4
  invoke void @_ZN7doctest6detail14Expression_lhsIbEcvNS0_6ResultEEv(ptr sret(%"struct.doctest::detail::Result") align 8 %ref.tmp299, ptr noundef nonnull align 4 dereferenceable(8) %ref.tmp300)
          to label %invoke.cont310 unwind label %lpad167

invoke.cont310:                                   ; preds = %invoke.cont308
  %call313 = invoke noundef zeroext i1 @_ZN7doctest6detail13decomp_assertENS_10assertType4EnumEPKciS4_RKNS0_6ResultE(i32 noundef 10, ptr noundef @.str.2, i32 noundef 66, ptr noundef @.str.42, ptr noundef nonnull align 8 dereferenceable(32) %ref.tmp299)
          to label %invoke.cont312 unwind label %lpad311

invoke.cont312:                                   ; preds = %invoke.cont310
  call void @_ZN7doctest6detail6ResultD2Ev(ptr noundef nonnull align 8 dereferenceable(32) %ref.tmp299) #16
  invoke void @_ZN7doctest6detail20ExpressionDecomposerC1ENS_10assertType4EnumE(ptr noundef nonnull align 4 dereferenceable(4) %ref.tmp317, i32 noundef 10)
          to label %invoke.cont318 unwind label %lpad167

invoke.cont318:                                   ; preds = %invoke.cont312
  %call321 = invoke noundef i32 @_ZN12_GLOBAL__N_111scan_stringB5cxx11EPKcb(ptr noundef @.str.45, i1 noundef zeroext false)
          to label %invoke.cont320 unwind label %lpad167

invoke.cont320:                                   ; preds = %invoke.cont318
  %cmp322 = icmp eq i32 %call321, 5
  %frombool323 = zext i1 %cmp322 to i8
  store i8 %frombool323, ptr %ref.tmp319, align 1
  %call325 = invoke i64 @_ZN7doctest6detail20ExpressionDecomposerlsIbEENS0_14Expression_lhsIT_EEOS4_(ptr noundef nonnull align 4 dereferenceable(4) %ref.tmp317, ptr noundef nonnull align 1 dereferenceable(1) %ref.tmp319)
          to label %invoke.cont324 unwind label %lpad167

invoke.cont324:                                   ; preds = %invoke.cont320
  store i64 %call325, ptr %ref.tmp316, align 4
  invoke void @_ZN7doctest6detail14Expression_lhsIbEcvNS0_6ResultEEv(ptr sret(%"struct.doctest::detail::Result") align 8 %ref.tmp315, ptr noundef nonnull align 4 dereferenceable(8) %ref.tmp316)
          to label %invoke.cont326 unwind label %lpad167

invoke.cont326:                                   ; preds = %invoke.cont324
  %call329 = invoke noundef zeroext i1 @_ZN7doctest6detail13decomp_assertENS_10assertType4EnumEPKciS4_RKNS0_6ResultE(i32 noundef 10, ptr noundef @.str.2, i32 noundef 67, ptr noundef @.str.44, ptr noundef nonnull align 8 dereferenceable(32) %ref.tmp315)
          to label %invoke.cont328 unwind label %lpad327

invoke.cont328:                                   ; preds = %invoke.cont326
  call void @_ZN7doctest6detail6ResultD2Ev(ptr noundef nonnull align 8 dereferenceable(32) %ref.tmp315) #16
  invoke void @_ZN7doctest6detail20ExpressionDecomposerC1ENS_10assertType4EnumE(ptr noundef nonnull align 4 dereferenceable(4) %ref.tmp333, i32 noundef 10)
          to label %invoke.cont334 unwind label %lpad167

invoke.cont334:                                   ; preds = %invoke.cont328
  %call337 = invoke noundef i32 @_ZN12_GLOBAL__N_111scan_stringB5cxx11EPKcb(ptr noundef @.str.47, i1 noundef zeroext false)
          to label %invoke.cont336 unwind label %lpad167

invoke.cont336:                                   ; preds = %invoke.cont334
  %cmp338 = icmp eq i32 %call337, 6
  %frombool339 = zext i1 %cmp338 to i8
  store i8 %frombool339, ptr %ref.tmp335, align 1
  %call341 = invoke i64 @_ZN7doctest6detail20ExpressionDecomposerlsIbEENS0_14Expression_lhsIT_EEOS4_(ptr noundef nonnull align 4 dereferenceable(4) %ref.tmp333, ptr noundef nonnull align 1 dereferenceable(1) %ref.tmp335)
          to label %invoke.cont340 unwind label %lpad167

invoke.cont340:                                   ; preds = %invoke.cont336
  store i64 %call341, ptr %ref.tmp332, align 4
  invoke void @_ZN7doctest6detail14Expression_lhsIbEcvNS0_6ResultEEv(ptr sret(%"struct.doctest::detail::Result") align 8 %ref.tmp331, ptr noundef nonnull align 4 dereferenceable(8) %ref.tmp332)
          to label %invoke.cont342 unwind label %lpad167

invoke.cont342:                                   ; preds = %invoke.cont340
  %call345 = invoke noundef zeroext i1 @_ZN7doctest6detail13decomp_assertENS_10assertType4EnumEPKciS4_RKNS0_6ResultE(i32 noundef 10, ptr noundef @.str.2, i32 noundef 69, ptr noundef @.str.46, ptr noundef nonnull align 8 dereferenceable(32) %ref.tmp331)
          to label %invoke.cont344 unwind label %lpad343

invoke.cont344:                                   ; preds = %invoke.cont342
  call void @_ZN7doctest6detail6ResultD2Ev(ptr noundef nonnull align 8 dereferenceable(32) %ref.tmp331) #16
  invoke void @_ZN7doctest6detail20ExpressionDecomposerC1ENS_10assertType4EnumE(ptr noundef nonnull align 4 dereferenceable(4) %ref.tmp349, i32 noundef 10)
          to label %invoke.cont350 unwind label %lpad167

invoke.cont350:                                   ; preds = %invoke.cont344
  %call353 = invoke noundef i32 @_ZN12_GLOBAL__N_111scan_stringB5cxx11EPKcb(ptr noundef @.str.49, i1 noundef zeroext false)
          to label %invoke.cont352 unwind label %lpad167

invoke.cont352:                                   ; preds = %invoke.cont350
  %cmp354 = icmp eq i32 %call353, 6
  %frombool355 = zext i1 %cmp354 to i8
  store i8 %frombool355, ptr %ref.tmp351, align 1
  %call357 = invoke i64 @_ZN7doctest6detail20ExpressionDecomposerlsIbEENS0_14Expression_lhsIT_EEOS4_(ptr noundef nonnull align 4 dereferenceable(4) %ref.tmp349, ptr noundef nonnull align 1 dereferenceable(1) %ref.tmp351)
          to label %invoke.cont356 unwind label %lpad167

invoke.cont356:                                   ; preds = %invoke.cont352
  store i64 %call357, ptr %ref.tmp348, align 4
  invoke void @_ZN7doctest6detail14Expression_lhsIbEcvNS0_6ResultEEv(ptr sret(%"struct.doctest::detail::Result") align 8 %ref.tmp347, ptr noundef nonnull align 4 dereferenceable(8) %ref.tmp348)
          to label %invoke.cont358 unwind label %lpad167

invoke.cont358:                                   ; preds = %invoke.cont356
  %call361 = invoke noundef zeroext i1 @_ZN7doctest6detail13decomp_assertENS_10assertType4EnumEPKciS4_RKNS0_6ResultE(i32 noundef 10, ptr noundef @.str.2, i32 noundef 70, ptr noundef @.str.48, ptr noundef nonnull align 8 dereferenceable(32) %ref.tmp347)
          to label %invoke.cont360 unwind label %lpad359

invoke.cont360:                                   ; preds = %invoke.cont358
  call void @_ZN7doctest6detail6ResultD2Ev(ptr noundef nonnull align 8 dereferenceable(32) %ref.tmp347) #16
  invoke void @_ZN7doctest6detail20ExpressionDecomposerC1ENS_10assertType4EnumE(ptr noundef nonnull align 4 dereferenceable(4) %ref.tmp365, i32 noundef 10)
          to label %invoke.cont366 unwind label %lpad167

invoke.cont366:                                   ; preds = %invoke.cont360
  %call369 = invoke noundef i32 @_ZN12_GLOBAL__N_111scan_stringB5cxx11EPKcb(ptr noundef @.str.51, i1 noundef zeroext false)
          to label %invoke.cont368 unwind label %lpad167

invoke.cont368:                                   ; preds = %invoke.cont366
  %cmp370 = icmp eq i32 %call369, 7
  %frombool371 = zext i1 %cmp370 to i8
  store i8 %frombool371, ptr %ref.tmp367, align 1
  %call373 = invoke i64 @_ZN7doctest6detail20ExpressionDecomposerlsIbEENS0_14Expression_lhsIT_EEOS4_(ptr noundef nonnull align 4 dereferenceable(4) %ref.tmp365, ptr noundef nonnull align 1 dereferenceable(1) %ref.tmp367)
          to label %invoke.cont372 unwind label %lpad167

invoke.cont372:                                   ; preds = %invoke.cont368
  store i64 %call373, ptr %ref.tmp364, align 4
  invoke void @_ZN7doctest6detail14Expression_lhsIbEcvNS0_6ResultEEv(ptr sret(%"struct.doctest::detail::Result") align 8 %ref.tmp363, ptr noundef nonnull align 4 dereferenceable(8) %ref.tmp364)
          to label %invoke.cont374 unwind label %lpad167

invoke.cont374:                                   ; preds = %invoke.cont372
  %call377 = invoke noundef zeroext i1 @_ZN7doctest6detail13decomp_assertENS_10assertType4EnumEPKciS4_RKNS0_6ResultE(i32 noundef 10, ptr noundef @.str.2, i32 noundef 72, ptr noundef @.str.50, ptr noundef nonnull align 8 dereferenceable(32) %ref.tmp363)
          to label %invoke.cont376 unwind label %lpad375

invoke.cont376:                                   ; preds = %invoke.cont374
  call void @_ZN7doctest6detail6ResultD2Ev(ptr noundef nonnull align 8 dereferenceable(32) %ref.tmp363) #16
  invoke void @_ZN7doctest6detail20ExpressionDecomposerC1ENS_10assertType4EnumE(ptr noundef nonnull align 4 dereferenceable(4) %ref.tmp381, i32 noundef 10)
          to label %invoke.cont382 unwind label %lpad167

invoke.cont382:                                   ; preds = %invoke.cont376
  %call385 = invoke noundef i32 @_ZN12_GLOBAL__N_111scan_stringB5cxx11EPKcb(ptr noundef @.str.53, i1 noundef zeroext false)
          to label %invoke.cont384 unwind label %lpad167

invoke.cont384:                                   ; preds = %invoke.cont382
  %cmp386 = icmp eq i32 %call385, 7
  %frombool387 = zext i1 %cmp386 to i8
  store i8 %frombool387, ptr %ref.tmp383, align 1
  %call389 = invoke i64 @_ZN7doctest6detail20ExpressionDecomposerlsIbEENS0_14Expression_lhsIT_EEOS4_(ptr noundef nonnull align 4 dereferenceable(4) %ref.tmp381, ptr noundef nonnull align 1 dereferenceable(1) %ref.tmp383)
          to label %invoke.cont388 unwind label %lpad167

invoke.cont388:                                   ; preds = %invoke.cont384
  store i64 %call389, ptr %ref.tmp380, align 4
  invoke void @_ZN7doctest6detail14Expression_lhsIbEcvNS0_6ResultEEv(ptr sret(%"struct.doctest::detail::Result") align 8 %ref.tmp379, ptr noundef nonnull align 4 dereferenceable(8) %ref.tmp380)
          to label %invoke.cont390 unwind label %lpad167

invoke.cont390:                                   ; preds = %invoke.cont388
  %call393 = invoke noundef zeroext i1 @_ZN7doctest6detail13decomp_assertENS_10assertType4EnumEPKciS4_RKNS0_6ResultE(i32 noundef 10, ptr noundef @.str.2, i32 noundef 73, ptr noundef @.str.52, ptr noundef nonnull align 8 dereferenceable(32) %ref.tmp379)
          to label %invoke.cont392 unwind label %lpad391

invoke.cont392:                                   ; preds = %invoke.cont390
  call void @_ZN7doctest6detail6ResultD2Ev(ptr noundef nonnull align 8 dereferenceable(32) %ref.tmp379) #16
  invoke void @_ZN7doctest6detail20ExpressionDecomposerC1ENS_10assertType4EnumE(ptr noundef nonnull align 4 dereferenceable(4) %ref.tmp397, i32 noundef 10)
          to label %invoke.cont398 unwind label %lpad167

invoke.cont398:                                   ; preds = %invoke.cont392
  %call401 = invoke noundef i32 @_ZN12_GLOBAL__N_111scan_stringB5cxx11EPKcb(ptr noundef @.str.55, i1 noundef zeroext false)
          to label %invoke.cont400 unwind label %lpad167

invoke.cont400:                                   ; preds = %invoke.cont398
  %cmp402 = icmp eq i32 %call401, 7
  %frombool403 = zext i1 %cmp402 to i8
  store i8 %frombool403, ptr %ref.tmp399, align 1
  %call405 = invoke i64 @_ZN7doctest6detail20ExpressionDecomposerlsIbEENS0_14Expression_lhsIT_EEOS4_(ptr noundef nonnull align 4 dereferenceable(4) %ref.tmp397, ptr noundef nonnull align 1 dereferenceable(1) %ref.tmp399)
          to label %invoke.cont404 unwind label %lpad167

invoke.cont404:                                   ; preds = %invoke.cont400
  store i64 %call405, ptr %ref.tmp396, align 4
  invoke void @_ZN7doctest6detail14Expression_lhsIbEcvNS0_6ResultEEv(ptr sret(%"struct.doctest::detail::Result") align 8 %ref.tmp395, ptr noundef nonnull align 4 dereferenceable(8) %ref.tmp396)
          to label %invoke.cont406 unwind label %lpad167

invoke.cont406:                                   ; preds = %invoke.cont404
  %call409 = invoke noundef zeroext i1 @_ZN7doctest6detail13decomp_assertENS_10assertType4EnumEPKciS4_RKNS0_6ResultE(i32 noundef 10, ptr noundef @.str.2, i32 noundef 74, ptr noundef @.str.54, ptr noundef nonnull align 8 dereferenceable(32) %ref.tmp395)
          to label %invoke.cont408 unwind label %lpad407

invoke.cont408:                                   ; preds = %invoke.cont406
  call void @_ZN7doctest6detail6ResultD2Ev(ptr noundef nonnull align 8 dereferenceable(32) %ref.tmp395) #16
  br label %if.end411

ehcleanup160:                                     ; preds = %lpad155, %lpad139, %lpad123, %lpad107
  call void @_ZN7doctest6detail7SubcaseD1Ev(ptr noundef nonnull align 8 dereferenceable(41) %ref.tmp101) #16
  br label %ehcleanup506

lpad164:                                          ; preds = %invoke.cont163
  %49 = landingpad { ptr, i32 }
          cleanup
  %50 = extractvalue { ptr, i32 } %49, 0
  store ptr %50, ptr %exn.slot, align 8
  %51 = extractvalue { ptr, i32 } %49, 1
  store i32 %51, ptr %ehselector.slot, align 4
  call void @_ZN7doctest6StringD1Ev(ptr noundef nonnull align 8 dereferenceable(24) %ref.tmp162) #16
  br label %ehcleanup506

lpad167:                                          ; preds = %invoke.cont404, %invoke.cont400, %invoke.cont398, %invoke.cont392, %invoke.cont388, %invoke.cont384, %invoke.cont382, %invoke.cont376, %invoke.cont372, %invoke.cont368, %invoke.cont366, %invoke.cont360, %invoke.cont356, %invoke.cont352, %invoke.cont350, %invoke.cont344, %invoke.cont340, %invoke.cont336, %invoke.cont334, %invoke.cont328, %invoke.cont324, %invoke.cont320, %invoke.cont318, %invoke.cont312, %invoke.cont308, %invoke.cont304, %invoke.cont302, %invoke.cont296, %invoke.cont292, %invoke.cont288, %invoke.cont286, %invoke.cont280, %invoke.cont276, %invoke.cont272, %invoke.cont270, %invoke.cont264, %invoke.cont260, %invoke.cont256, %invoke.cont254, %invoke.cont248, %invoke.cont244, %invoke.cont240, %invoke.cont238, %invoke.cont232, %invoke.cont228, %invoke.cont224, %invoke.cont222, %invoke.cont216, %invoke.cont212, %invoke.cont208, %invoke.cont206, %invoke.cont200, %invoke.cont196, %invoke.cont192, %invoke.cont190, %invoke.cont184, %invoke.cont180, %invoke.cont176, %invoke.cont174, %if.then170, %invoke.cont165
  %52 = landingpad { ptr, i32 }
          cleanup
  %53 = extractvalue { ptr, i32 } %52, 0
  store ptr %53, ptr %exn.slot, align 8
  %54 = extractvalue { ptr, i32 } %52, 1
  store i32 %54, ptr %ehselector.slot, align 4
  br label %ehcleanup412

lpad183:                                          ; preds = %invoke.cont182
  %55 = landingpad { ptr, i32 }
          cleanup
  %56 = extractvalue { ptr, i32 } %55, 0
  store ptr %56, ptr %exn.slot, align 8
  %57 = extractvalue { ptr, i32 } %55, 1
  store i32 %57, ptr %ehselector.slot, align 4
  call void @_ZN7doctest6detail6ResultD2Ev(ptr noundef nonnull align 8 dereferenceable(32) %ref.tmp171) #16
  br label %ehcleanup412

lpad199:                                          ; preds = %invoke.cont198
  %58 = landingpad { ptr, i32 }
          cleanup
  %59 = extractvalue { ptr, i32 } %58, 0
  store ptr %59, ptr %exn.slot, align 8
  %60 = extractvalue { ptr, i32 } %58, 1
  store i32 %60, ptr %ehselector.slot, align 4
  call void @_ZN7doctest6detail6ResultD2Ev(ptr noundef nonnull align 8 dereferenceable(32) %ref.tmp187) #16
  br label %ehcleanup412

lpad215:                                          ; preds = %invoke.cont214
  %61 = landingpad { ptr, i32 }
          cleanup
  %62 = extractvalue { ptr, i32 } %61, 0
  store ptr %62, ptr %exn.slot, align 8
  %63 = extractvalue { ptr, i32 } %61, 1
  store i32 %63, ptr %ehselector.slot, align 4
  call void @_ZN7doctest6detail6ResultD2Ev(ptr noundef nonnull align 8 dereferenceable(32) %ref.tmp203) #16
  br label %ehcleanup412

lpad231:                                          ; preds = %invoke.cont230
  %64 = landingpad { ptr, i32 }
          cleanup
  %65 = extractvalue { ptr, i32 } %64, 0
  store ptr %65, ptr %exn.slot, align 8
  %66 = extractvalue { ptr, i32 } %64, 1
  store i32 %66, ptr %ehselector.slot, align 4
  call void @_ZN7doctest6detail6ResultD2Ev(ptr noundef nonnull align 8 dereferenceable(32) %ref.tmp219) #16
  br label %ehcleanup412

lpad247:                                          ; preds = %invoke.cont246
  %67 = landingpad { ptr, i32 }
          cleanup
  %68 = extractvalue { ptr, i32 } %67, 0
  store ptr %68, ptr %exn.slot, align 8
  %69 = extractvalue { ptr, i32 } %67, 1
  store i32 %69, ptr %ehselector.slot, align 4
  call void @_ZN7doctest6detail6ResultD2Ev(ptr noundef nonnull align 8 dereferenceable(32) %ref.tmp235) #16
  br label %ehcleanup412

lpad263:                                          ; preds = %invoke.cont262
  %70 = landingpad { ptr, i32 }
          cleanup
  %71 = extractvalue { ptr, i32 } %70, 0
  store ptr %71, ptr %exn.slot, align 8
  %72 = extractvalue { ptr, i32 } %70, 1
  store i32 %72, ptr %ehselector.slot, align 4
  call void @_ZN7doctest6detail6ResultD2Ev(ptr noundef nonnull align 8 dereferenceable(32) %ref.tmp251) #16
  br label %ehcleanup412

lpad279:                                          ; preds = %invoke.cont278
  %73 = landingpad { ptr, i32 }
          cleanup
  %74 = extractvalue { ptr, i32 } %73, 0
  store ptr %74, ptr %exn.slot, align 8
  %75 = extractvalue { ptr, i32 } %73, 1
  store i32 %75, ptr %ehselector.slot, align 4
  call void @_ZN7doctest6detail6ResultD2Ev(ptr noundef nonnull align 8 dereferenceable(32) %ref.tmp267) #16
  br label %ehcleanup412

lpad295:                                          ; preds = %invoke.cont294
  %76 = landingpad { ptr, i32 }
          cleanup
  %77 = extractvalue { ptr, i32 } %76, 0
  store ptr %77, ptr %exn.slot, align 8
  %78 = extractvalue { ptr, i32 } %76, 1
  store i32 %78, ptr %ehselector.slot, align 4
  call void @_ZN7doctest6detail6ResultD2Ev(ptr noundef nonnull align 8 dereferenceable(32) %ref.tmp283) #16
  br label %ehcleanup412

lpad311:                                          ; preds = %invoke.cont310
  %79 = landingpad { ptr, i32 }
          cleanup
  %80 = extractvalue { ptr, i32 } %79, 0
  store ptr %80, ptr %exn.slot, align 8
  %81 = extractvalue { ptr, i32 } %79, 1
  store i32 %81, ptr %ehselector.slot, align 4
  call void @_ZN7doctest6detail6ResultD2Ev(ptr noundef nonnull align 8 dereferenceable(32) %ref.tmp299) #16
  br label %ehcleanup412

lpad327:                                          ; preds = %invoke.cont326
  %82 = landingpad { ptr, i32 }
          cleanup
  %83 = extractvalue { ptr, i32 } %82, 0
  store ptr %83, ptr %exn.slot, align 8
  %84 = extractvalue { ptr, i32 } %82, 1
  store i32 %84, ptr %ehselector.slot, align 4
  call void @_ZN7doctest6detail6ResultD2Ev(ptr noundef nonnull align 8 dereferenceable(32) %ref.tmp315) #16
  br label %ehcleanup412

lpad343:                                          ; preds = %invoke.cont342
  %85 = landingpad { ptr, i32 }
          cleanup
  %86 = extractvalue { ptr, i32 } %85, 0
  store ptr %86, ptr %exn.slot, align 8
  %87 = extractvalue { ptr, i32 } %85, 1
  store i32 %87, ptr %ehselector.slot, align 4
  call void @_ZN7doctest6detail6ResultD2Ev(ptr noundef nonnull align 8 dereferenceable(32) %ref.tmp331) #16
  br label %ehcleanup412

lpad359:                                          ; preds = %invoke.cont358
  %88 = landingpad { ptr, i32 }
          cleanup
  %89 = extractvalue { ptr, i32 } %88, 0
  store ptr %89, ptr %exn.slot, align 8
  %90 = extractvalue { ptr, i32 } %88, 1
  store i32 %90, ptr %ehselector.slot, align 4
  call void @_ZN7doctest6detail6ResultD2Ev(ptr noundef nonnull align 8 dereferenceable(32) %ref.tmp347) #16
  br label %ehcleanup412

lpad375:                                          ; preds = %invoke.cont374
  %91 = landingpad { ptr, i32 }
          cleanup
  %92 = extractvalue { ptr, i32 } %91, 0
  store ptr %92, ptr %exn.slot, align 8
  %93 = extractvalue { ptr, i32 } %91, 1
  store i32 %93, ptr %ehselector.slot, align 4
  call void @_ZN7doctest6detail6ResultD2Ev(ptr noundef nonnull align 8 dereferenceable(32) %ref.tmp363) #16
  br label %ehcleanup412

lpad391:                                          ; preds = %invoke.cont390
  %94 = landingpad { ptr, i32 }
          cleanup
  %95 = extractvalue { ptr, i32 } %94, 0
  store ptr %95, ptr %exn.slot, align 8
  %96 = extractvalue { ptr, i32 } %94, 1
  store i32 %96, ptr %ehselector.slot, align 4
  call void @_ZN7doctest6detail6ResultD2Ev(ptr noundef nonnull align 8 dereferenceable(32) %ref.tmp379) #16
  br label %ehcleanup412

lpad407:                                          ; preds = %invoke.cont406
  %97 = landingpad { ptr, i32 }
          cleanup
  %98 = extractvalue { ptr, i32 } %97, 0
  store ptr %98, ptr %exn.slot, align 8
  %99 = extractvalue { ptr, i32 } %97, 1
  store i32 %99, ptr %ehselector.slot, align 4
  call void @_ZN7doctest6detail6ResultD2Ev(ptr noundef nonnull align 8 dereferenceable(32) %ref.tmp395) #16
  br label %ehcleanup412

if.end411:                                        ; preds = %invoke.cont408, %invoke.cont168
  call void @_ZN7doctest6detail7SubcaseD1Ev(ptr noundef nonnull align 8 dereferenceable(41) %ref.tmp161) #16
  invoke void @_ZN7doctest6StringC1EPKc(ptr noundef nonnull align 8 dereferenceable(24) %ref.tmp414, ptr noundef @.str.56)
          to label %invoke.cont415 unwind label %lpad2

invoke.cont415:                                   ; preds = %if.end411
  invoke void @_ZN7doctest6detail7SubcaseC1ERKNS_6StringEPKci(ptr noundef nonnull align 8 dereferenceable(41) %ref.tmp413, ptr noundef nonnull align 8 dereferenceable(24) %ref.tmp414, ptr noundef @.str.2, i32 noundef 77)
          to label %invoke.cont417 unwind label %lpad416

invoke.cont417:                                   ; preds = %invoke.cont415
  call void @_ZN7doctest6StringD1Ev(ptr noundef nonnull align 8 dereferenceable(24) %ref.tmp414) #16
  store ptr %ref.tmp413, ptr %DOCTEST_ANON_SUBCASE_8, align 8
  %100 = load ptr, ptr %DOCTEST_ANON_SUBCASE_8, align 8
  %call421 = invoke noundef zeroext i1 @_ZNK7doctest6detail7SubcasecvbEv(ptr noundef nonnull align 8 dereferenceable(41) %100)
          to label %invoke.cont420 unwind label %lpad419

invoke.cont420:                                   ; preds = %invoke.cont417
  br i1 %call421, label %if.then422, label %if.end503

if.then422:                                       ; preds = %invoke.cont420
  invoke void @_ZN7doctest6detail20ExpressionDecomposerC1ENS_10assertType4EnumE(ptr noundef nonnull align 4 dereferenceable(4) %ref.tmp425, i32 noundef 10)
          to label %invoke.cont426 unwind label %lpad419

invoke.cont426:                                   ; preds = %if.then422
  %call429 = invoke noundef i32 @_ZN12_GLOBAL__N_111scan_stringB5cxx11EPKcb(ptr noundef @.str.58, i1 noundef zeroext false)
          to label %invoke.cont428 unwind label %lpad419

invoke.cont428:                                   ; preds = %invoke.cont426
  %cmp430 = icmp eq i32 %call429, 15
  %frombool431 = zext i1 %cmp430 to i8
  store i8 %frombool431, ptr %ref.tmp427, align 1
  %call433 = invoke i64 @_ZN7doctest6detail20ExpressionDecomposerlsIbEENS0_14Expression_lhsIT_EEOS4_(ptr noundef nonnull align 4 dereferenceable(4) %ref.tmp425, ptr noundef nonnull align 1 dereferenceable(1) %ref.tmp427)
          to label %invoke.cont432 unwind label %lpad419

invoke.cont432:                                   ; preds = %invoke.cont428
  store i64 %call433, ptr %ref.tmp424, align 4
  invoke void @_ZN7doctest6detail14Expression_lhsIbEcvNS0_6ResultEEv(ptr sret(%"struct.doctest::detail::Result") align 8 %ref.tmp423, ptr noundef nonnull align 4 dereferenceable(8) %ref.tmp424)
          to label %invoke.cont434 unwind label %lpad419

invoke.cont434:                                   ; preds = %invoke.cont432
  %call437 = invoke noundef zeroext i1 @_ZN7doctest6detail13decomp_assertENS_10assertType4EnumEPKciS4_RKNS0_6ResultE(i32 noundef 10, ptr noundef @.str.2, i32 noundef 80, ptr noundef @.str.57, ptr noundef nonnull align 8 dereferenceable(32) %ref.tmp423)
          to label %invoke.cont436 unwind label %lpad435

invoke.cont436:                                   ; preds = %invoke.cont434
  call void @_ZN7doctest6detail6ResultD2Ev(ptr noundef nonnull align 8 dereferenceable(32) %ref.tmp423) #16
  invoke void @_ZN7doctest6detail20ExpressionDecomposerC1ENS_10assertType4EnumE(ptr noundef nonnull align 4 dereferenceable(4) %ref.tmp441, i32 noundef 10)
          to label %invoke.cont442 unwind label %lpad419

invoke.cont442:                                   ; preds = %invoke.cont436
  %call445 = invoke noundef i32 @_ZN12_GLOBAL__N_111scan_stringB5cxx11EPKcb(ptr noundef @.str.60, i1 noundef zeroext false)
          to label %invoke.cont444 unwind label %lpad419

invoke.cont444:                                   ; preds = %invoke.cont442
  %cmp446 = icmp eq i32 %call445, 15
  %frombool447 = zext i1 %cmp446 to i8
  store i8 %frombool447, ptr %ref.tmp443, align 1
  %call449 = invoke i64 @_ZN7doctest6detail20ExpressionDecomposerlsIbEENS0_14Expression_lhsIT_EEOS4_(ptr noundef nonnull align 4 dereferenceable(4) %ref.tmp441, ptr noundef nonnull align 1 dereferenceable(1) %ref.tmp443)
          to label %invoke.cont448 unwind label %lpad419

invoke.cont448:                                   ; preds = %invoke.cont444
  store i64 %call449, ptr %ref.tmp440, align 4
  invoke void @_ZN7doctest6detail14Expression_lhsIbEcvNS0_6ResultEEv(ptr sret(%"struct.doctest::detail::Result") align 8 %ref.tmp439, ptr noundef nonnull align 4 dereferenceable(8) %ref.tmp440)
          to label %invoke.cont450 unwind label %lpad419

invoke.cont450:                                   ; preds = %invoke.cont448
  %call453 = invoke noundef zeroext i1 @_ZN7doctest6detail13decomp_assertENS_10assertType4EnumEPKciS4_RKNS0_6ResultE(i32 noundef 10, ptr noundef @.str.2, i32 noundef 81, ptr noundef @.str.59, ptr noundef nonnull align 8 dereferenceable(32) %ref.tmp439)
          to label %invoke.cont452 unwind label %lpad451

invoke.cont452:                                   ; preds = %invoke.cont450
  call void @_ZN7doctest6detail6ResultD2Ev(ptr noundef nonnull align 8 dereferenceable(32) %ref.tmp439) #16
  invoke void @_ZN7doctest6detail20ExpressionDecomposerC1ENS_10assertType4EnumE(ptr noundef nonnull align 4 dereferenceable(4) %ref.tmp457, i32 noundef 10)
          to label %invoke.cont458 unwind label %lpad419

invoke.cont458:                                   ; preds = %invoke.cont452
  %call461 = invoke noundef i32 @_ZN12_GLOBAL__N_111scan_stringB5cxx11EPKcb(ptr noundef @.str.62, i1 noundef zeroext false)
          to label %invoke.cont460 unwind label %lpad419

invoke.cont460:                                   ; preds = %invoke.cont458
  %cmp462 = icmp eq i32 %call461, 15
  %frombool463 = zext i1 %cmp462 to i8
  store i8 %frombool463, ptr %ref.tmp459, align 1
  %call465 = invoke i64 @_ZN7doctest6detail20ExpressionDecomposerlsIbEENS0_14Expression_lhsIT_EEOS4_(ptr noundef nonnull align 4 dereferenceable(4) %ref.tmp457, ptr noundef nonnull align 1 dereferenceable(1) %ref.tmp459)
          to label %invoke.cont464 unwind label %lpad419

invoke.cont464:                                   ; preds = %invoke.cont460
  store i64 %call465, ptr %ref.tmp456, align 4
  invoke void @_ZN7doctest6detail14Expression_lhsIbEcvNS0_6ResultEEv(ptr sret(%"struct.doctest::detail::Result") align 8 %ref.tmp455, ptr noundef nonnull align 4 dereferenceable(8) %ref.tmp456)
          to label %invoke.cont466 unwind label %lpad419

invoke.cont466:                                   ; preds = %invoke.cont464
  %call469 = invoke noundef zeroext i1 @_ZN7doctest6detail13decomp_assertENS_10assertType4EnumEPKciS4_RKNS0_6ResultE(i32 noundef 10, ptr noundef @.str.2, i32 noundef 82, ptr noundef @.str.61, ptr noundef nonnull align 8 dereferenceable(32) %ref.tmp455)
          to label %invoke.cont468 unwind label %lpad467

invoke.cont468:                                   ; preds = %invoke.cont466
  call void @_ZN7doctest6detail6ResultD2Ev(ptr noundef nonnull align 8 dereferenceable(32) %ref.tmp455) #16
  invoke void @_ZN7doctest6detail20ExpressionDecomposerC1ENS_10assertType4EnumE(ptr noundef nonnull align 4 dereferenceable(4) %ref.tmp473, i32 noundef 10)
          to label %invoke.cont474 unwind label %lpad419

invoke.cont474:                                   ; preds = %invoke.cont468
  %call477 = invoke noundef i32 @_ZN12_GLOBAL__N_111scan_stringB5cxx11EPKcb(ptr noundef @.str.64, i1 noundef zeroext false)
          to label %invoke.cont476 unwind label %lpad419

invoke.cont476:                                   ; preds = %invoke.cont474
  %cmp478 = icmp eq i32 %call477, 15
  %frombool479 = zext i1 %cmp478 to i8
  store i8 %frombool479, ptr %ref.tmp475, align 1
  %call481 = invoke i64 @_ZN7doctest6detail20ExpressionDecomposerlsIbEENS0_14Expression_lhsIT_EEOS4_(ptr noundef nonnull align 4 dereferenceable(4) %ref.tmp473, ptr noundef nonnull align 1 dereferenceable(1) %ref.tmp475)
          to label %invoke.cont480 unwind label %lpad419

invoke.cont480:                                   ; preds = %invoke.cont476
  store i64 %call481, ptr %ref.tmp472, align 4
  invoke void @_ZN7doctest6detail14Expression_lhsIbEcvNS0_6ResultEEv(ptr sret(%"struct.doctest::detail::Result") align 8 %ref.tmp471, ptr noundef nonnull align 4 dereferenceable(8) %ref.tmp472)
          to label %invoke.cont482 unwind label %lpad419

invoke.cont482:                                   ; preds = %invoke.cont480
  %call485 = invoke noundef zeroext i1 @_ZN7doctest6detail13decomp_assertENS_10assertType4EnumEPKciS4_RKNS0_6ResultE(i32 noundef 10, ptr noundef @.str.2, i32 noundef 83, ptr noundef @.str.63, ptr noundef nonnull align 8 dereferenceable(32) %ref.tmp471)
          to label %invoke.cont484 unwind label %lpad483

invoke.cont484:                                   ; preds = %invoke.cont482
  call void @_ZN7doctest6detail6ResultD2Ev(ptr noundef nonnull align 8 dereferenceable(32) %ref.tmp471) #16
  invoke void @_ZN7doctest6detail20ExpressionDecomposerC1ENS_10assertType4EnumE(ptr noundef nonnull align 4 dereferenceable(4) %ref.tmp489, i32 noundef 10)
          to label %invoke.cont490 unwind label %lpad419

invoke.cont490:                                   ; preds = %invoke.cont484
  %call493 = invoke noundef i32 @_ZN12_GLOBAL__N_111scan_stringB5cxx11EPKcb(ptr noundef @.str.66, i1 noundef zeroext false)
          to label %invoke.cont492 unwind label %lpad419

invoke.cont492:                                   ; preds = %invoke.cont490
  %cmp494 = icmp eq i32 %call493, 15
  %frombool495 = zext i1 %cmp494 to i8
  store i8 %frombool495, ptr %ref.tmp491, align 1
  %call497 = invoke i64 @_ZN7doctest6detail20ExpressionDecomposerlsIbEENS0_14Expression_lhsIT_EEOS4_(ptr noundef nonnull align 4 dereferenceable(4) %ref.tmp489, ptr noundef nonnull align 1 dereferenceable(1) %ref.tmp491)
          to label %invoke.cont496 unwind label %lpad419

invoke.cont496:                                   ; preds = %invoke.cont492
  store i64 %call497, ptr %ref.tmp488, align 4
  invoke void @_ZN7doctest6detail14Expression_lhsIbEcvNS0_6ResultEEv(ptr sret(%"struct.doctest::detail::Result") align 8 %ref.tmp487, ptr noundef nonnull align 4 dereferenceable(8) %ref.tmp488)
          to label %invoke.cont498 unwind label %lpad419

invoke.cont498:                                   ; preds = %invoke.cont496
  %call501 = invoke noundef zeroext i1 @_ZN7doctest6detail13decomp_assertENS_10assertType4EnumEPKciS4_RKNS0_6ResultE(i32 noundef 10, ptr noundef @.str.2, i32 noundef 84, ptr noundef @.str.65, ptr noundef nonnull align 8 dereferenceable(32) %ref.tmp487)
          to label %invoke.cont500 unwind label %lpad499

invoke.cont500:                                   ; preds = %invoke.cont498
  call void @_ZN7doctest6detail6ResultD2Ev(ptr noundef nonnull align 8 dereferenceable(32) %ref.tmp487) #16
  br label %if.end503

ehcleanup412:                                     ; preds = %lpad407, %lpad391, %lpad375, %lpad359, %lpad343, %lpad327, %lpad311, %lpad295, %lpad279, %lpad263, %lpad247, %lpad231, %lpad215, %lpad199, %lpad183, %lpad167
  call void @_ZN7doctest6detail7SubcaseD1Ev(ptr noundef nonnull align 8 dereferenceable(41) %ref.tmp161) #16
  br label %ehcleanup506

lpad416:                                          ; preds = %invoke.cont415
  %101 = landingpad { ptr, i32 }
          cleanup
  %102 = extractvalue { ptr, i32 } %101, 0
  store ptr %102, ptr %exn.slot, align 8
  %103 = extractvalue { ptr, i32 } %101, 1
  store i32 %103, ptr %ehselector.slot, align 4
  call void @_ZN7doctest6StringD1Ev(ptr noundef nonnull align 8 dereferenceable(24) %ref.tmp414) #16
  br label %ehcleanup506

lpad419:                                          ; preds = %invoke.cont496, %invoke.cont492, %invoke.cont490, %invoke.cont484, %invoke.cont480, %invoke.cont476, %invoke.cont474, %invoke.cont468, %invoke.cont464, %invoke.cont460, %invoke.cont458, %invoke.cont452, %invoke.cont448, %invoke.cont444, %invoke.cont442, %invoke.cont436, %invoke.cont432, %invoke.cont428, %invoke.cont426, %if.then422, %invoke.cont417
  %104 = landingpad { ptr, i32 }
          cleanup
  %105 = extractvalue { ptr, i32 } %104, 0
  store ptr %105, ptr %exn.slot, align 8
  %106 = extractvalue { ptr, i32 } %104, 1
  store i32 %106, ptr %ehselector.slot, align 4
  br label %ehcleanup504

lpad435:                                          ; preds = %invoke.cont434
  %107 = landingpad { ptr, i32 }
          cleanup
  %108 = extractvalue { ptr, i32 } %107, 0
  store ptr %108, ptr %exn.slot, align 8
  %109 = extractvalue { ptr, i32 } %107, 1
  store i32 %109, ptr %ehselector.slot, align 4
  call void @_ZN7doctest6detail6ResultD2Ev(ptr noundef nonnull align 8 dereferenceable(32) %ref.tmp423) #16
  br label %ehcleanup504

lpad451:                                          ; preds = %invoke.cont450
  %110 = landingpad { ptr, i32 }
          cleanup
  %111 = extractvalue { ptr, i32 } %110, 0
  store ptr %111, ptr %exn.slot, align 8
  %112 = extractvalue { ptr, i32 } %110, 1
  store i32 %112, ptr %ehselector.slot, align 4
  call void @_ZN7doctest6detail6ResultD2Ev(ptr noundef nonnull align 8 dereferenceable(32) %ref.tmp439) #16
  br label %ehcleanup504

lpad467:                                          ; preds = %invoke.cont466
  %113 = landingpad { ptr, i32 }
          cleanup
  %114 = extractvalue { ptr, i32 } %113, 0
  store ptr %114, ptr %exn.slot, align 8
  %115 = extractvalue { ptr, i32 } %113, 1
  store i32 %115, ptr %ehselector.slot, align 4
  call void @_ZN7doctest6detail6ResultD2Ev(ptr noundef nonnull align 8 dereferenceable(32) %ref.tmp455) #16
  br label %ehcleanup504

lpad483:                                          ; preds = %invoke.cont482
  %116 = landingpad { ptr, i32 }
          cleanup
  %117 = extractvalue { ptr, i32 } %116, 0
  store ptr %117, ptr %exn.slot, align 8
  %118 = extractvalue { ptr, i32 } %116, 1
  store i32 %118, ptr %ehselector.slot, align 4
  call void @_ZN7doctest6detail6ResultD2Ev(ptr noundef nonnull align 8 dereferenceable(32) %ref.tmp471) #16
  br label %ehcleanup504

lpad499:                                          ; preds = %invoke.cont498
  %119 = landingpad { ptr, i32 }
          cleanup
  %120 = extractvalue { ptr, i32 } %119, 0
  store ptr %120, ptr %exn.slot, align 8
  %121 = extractvalue { ptr, i32 } %119, 1
  store i32 %121, ptr %ehselector.slot, align 4
  call void @_ZN7doctest6detail6ResultD2Ev(ptr noundef nonnull align 8 dereferenceable(32) %ref.tmp487) #16
  br label %ehcleanup504

if.end503:                                        ; preds = %invoke.cont500, %invoke.cont420
  call void @_ZN7doctest6detail7SubcaseD1Ev(ptr noundef nonnull align 8 dereferenceable(41) %ref.tmp413) #16
  br label %if.end505

ehcleanup504:                                     ; preds = %lpad499, %lpad483, %lpad467, %lpad451, %lpad435, %lpad419
  call void @_ZN7doctest6detail7SubcaseD1Ev(ptr noundef nonnull align 8 dereferenceable(41) %ref.tmp413) #16
  br label %ehcleanup506

if.end505:                                        ; preds = %if.end503, %invoke.cont3
  call void @_ZN7doctest6detail7SubcaseD1Ev(ptr noundef nonnull align 8 dereferenceable(41) %ref.tmp) #16
  call void @_ZN7doctest6StringC1EPKc(ptr noundef nonnull align 8 dereferenceable(24) %ref.tmp508, ptr noundef @.str.67)
  invoke void @_ZN7doctest6detail7SubcaseC1ERKNS_6StringEPKci(ptr noundef nonnull align 8 dereferenceable(41) %ref.tmp507, ptr noundef nonnull align 8 dereferenceable(24) %ref.tmp508, ptr noundef @.str.2, i32 noundef 88)
          to label %invoke.cont510 unwind label %lpad509

invoke.cont510:                                   ; preds = %if.end505
  call void @_ZN7doctest6StringD1Ev(ptr noundef nonnull align 8 dereferenceable(24) %ref.tmp508) #16
  store ptr %ref.tmp507, ptr %DOCTEST_ANON_SUBCASE_9, align 8
  %122 = load ptr, ptr %DOCTEST_ANON_SUBCASE_9, align 8
  %call514 = invoke noundef zeroext i1 @_ZNK7doctest6detail7SubcasecvbEv(ptr noundef nonnull align 8 dereferenceable(41) %122)
          to label %invoke.cont513 unwind label %lpad512

invoke.cont513:                                   ; preds = %invoke.cont510
  br i1 %call514, label %if.then515, label %if.end884

if.then515:                                       ; preds = %invoke.cont513
  invoke void @_ZN7doctest6detail20ExpressionDecomposerC1ENS_10assertType4EnumE(ptr noundef nonnull align 4 dereferenceable(4) %ref.tmp518, i32 noundef 10)
          to label %invoke.cont519 unwind label %lpad512

invoke.cont519:                                   ; preds = %if.then515
  %call522 = call noundef nonnull ptr @_ZN8nlohmann16json_abi_v3_11_36detail10lexer_baseINS0_10basic_jsonISt3mapSt6vectorNSt7__cxx1112basic_stringIcSt11char_traitsIcESaIcEEEblmdSaNS0_14adl_serializerES5_IhSaIhEEvEEE15token_type_nameENSG_10token_typeE(i32 noundef 0) #18
  call void @_ZNSaIcEC1Ev(ptr noundef nonnull align 1 dereferenceable(1) %ref.tmp523) #16
  invoke void @_ZNSt7__cxx1112basic_stringIcSt11char_traitsIcESaIcEEC1EPKcRKS3_(ptr noundef nonnull align 8 dereferenceable(32) %ref.tmp521, ptr noundef %call522, ptr noundef nonnull align 1 dereferenceable(1) %ref.tmp523)
          to label %invoke.cont525 unwind label %lpad524

invoke.cont525:                                   ; preds = %invoke.cont519
  %call528 = invoke noundef zeroext i1 @_ZSteqIcSt11char_traitsIcESaIcEEbRKNSt7__cxx1112basic_stringIT_T0_T1_EEPKS5_(ptr noundef nonnull align 8 dereferenceable(32) %ref.tmp521, ptr noundef @.str.69)
          to label %invoke.cont527 unwind label %lpad526

invoke.cont527:                                   ; preds = %invoke.cont525
  %frombool529 = zext i1 %call528 to i8
  store i8 %frombool529, ptr %ref.tmp520, align 1
  %call531 = invoke i64 @_ZN7doctest6detail20ExpressionDecomposerlsIbEENS0_14Expression_lhsIT_EEOS4_(ptr noundef nonnull align 4 dereferenceable(4) %ref.tmp518, ptr noundef nonnull align 1 dereferenceable(1) %ref.tmp520)
          to label %invoke.cont530 unwind label %lpad526

invoke.cont530:                                   ; preds = %invoke.cont527
  store i64 %call531, ptr %ref.tmp517, align 4
  invoke void @_ZN7doctest6detail14Expression_lhsIbEcvNS0_6ResultEEv(ptr sret(%"struct.doctest::detail::Result") align 8 %ref.tmp516, ptr noundef nonnull align 4 dereferenceable(8) %ref.tmp517)
          to label %invoke.cont532 unwind label %lpad526

invoke.cont532:                                   ; preds = %invoke.cont530
  %call535 = invoke noundef zeroext i1 @_ZN7doctest6detail13decomp_assertENS_10assertType4EnumEPKciS4_RKNS0_6ResultE(i32 noundef 10, ptr noundef @.str.2, i32 noundef 90, ptr noundef @.str.68, ptr noundef nonnull align 8 dereferenceable(32) %ref.tmp516)
          to label %invoke.cont534 unwind label %lpad533

invoke.cont534:                                   ; preds = %invoke.cont532
  call void @_ZN7doctest6detail6ResultD2Ev(ptr noundef nonnull align 8 dereferenceable(32) %ref.tmp516) #16
  call void @_ZNSt7__cxx1112basic_stringIcSt11char_traitsIcESaIcEED1Ev(ptr noundef nonnull align 8 dereferenceable(32) %ref.tmp521) #16
  call void @_ZNSaIcED1Ev(ptr noundef nonnull align 1 dereferenceable(1) %ref.tmp523) #16
  invoke void @_ZN7doctest6detail20ExpressionDecomposerC1ENS_10assertType4EnumE(ptr noundef nonnull align 4 dereferenceable(4) %ref.tmp541, i32 noundef 10)
          to label %invoke.cont542 unwind label %lpad512

invoke.cont542:                                   ; preds = %invoke.cont534
  %call545 = call noundef nonnull ptr @_ZN8nlohmann16json_abi_v3_11_36detail10lexer_baseINS0_10basic_jsonISt3mapSt6vectorNSt7__cxx1112basic_stringIcSt11char_traitsIcESaIcEEEblmdSaNS0_14adl_serializerES5_IhSaIhEEvEEE15token_type_nameENSG_10token_typeE(i32 noundef 1) #18
  call void @_ZNSaIcEC1Ev(ptr noundef nonnull align 1 dereferenceable(1) %ref.tmp546) #16
  invoke void @_ZNSt7__cxx1112basic_stringIcSt11char_traitsIcESaIcEEC1EPKcRKS3_(ptr noundef nonnull align 8 dereferenceable(32) %ref.tmp544, ptr noundef %call545, ptr noundef nonnull align 1 dereferenceable(1) %ref.tmp546)
          to label %invoke.cont548 unwind label %lpad547

invoke.cont548:                                   ; preds = %invoke.cont542
  %call551 = invoke noundef zeroext i1 @_ZSteqIcSt11char_traitsIcESaIcEEbRKNSt7__cxx1112basic_stringIT_T0_T1_EEPKS5_(ptr noundef nonnull align 8 dereferenceable(32) %ref.tmp544, ptr noundef @.str.71)
          to label %invoke.cont550 unwind label %lpad549

invoke.cont550:                                   ; preds = %invoke.cont548
  %frombool552 = zext i1 %call551 to i8
  store i8 %frombool552, ptr %ref.tmp543, align 1
  %call554 = invoke i64 @_ZN7doctest6detail20ExpressionDecomposerlsIbEENS0_14Expression_lhsIT_EEOS4_(ptr noundef nonnull align 4 dereferenceable(4) %ref.tmp541, ptr noundef nonnull align 1 dereferenceable(1) %ref.tmp543)
          to label %invoke.cont553 unwind label %lpad549

invoke.cont553:                                   ; preds = %invoke.cont550
  store i64 %call554, ptr %ref.tmp540, align 4
  invoke void @_ZN7doctest6detail14Expression_lhsIbEcvNS0_6ResultEEv(ptr sret(%"struct.doctest::detail::Result") align 8 %ref.tmp539, ptr noundef nonnull align 4 dereferenceable(8) %ref.tmp540)
          to label %invoke.cont555 unwind label %lpad549

invoke.cont555:                                   ; preds = %invoke.cont553
  %call558 = invoke noundef zeroext i1 @_ZN7doctest6detail13decomp_assertENS_10assertType4EnumEPKciS4_RKNS0_6ResultE(i32 noundef 10, ptr noundef @.str.2, i32 noundef 91, ptr noundef @.str.70, ptr noundef nonnull align 8 dereferenceable(32) %ref.tmp539)
          to label %invoke.cont557 unwind label %lpad556

invoke.cont557:                                   ; preds = %invoke.cont555
  call void @_ZN7doctest6detail6ResultD2Ev(ptr noundef nonnull align 8 dereferenceable(32) %ref.tmp539) #16
  call void @_ZNSt7__cxx1112basic_stringIcSt11char_traitsIcESaIcEED1Ev(ptr noundef nonnull align 8 dereferenceable(32) %ref.tmp544) #16
  call void @_ZNSaIcED1Ev(ptr noundef nonnull align 1 dereferenceable(1) %ref.tmp546) #16
  invoke void @_ZN7doctest6detail20ExpressionDecomposerC1ENS_10assertType4EnumE(ptr noundef nonnull align 4 dereferenceable(4) %ref.tmp564, i32 noundef 10)
          to label %invoke.cont565 unwind label %lpad512

invoke.cont565:                                   ; preds = %invoke.cont557
  %call568 = call noundef nonnull ptr @_ZN8nlohmann16json_abi_v3_11_36detail10lexer_baseINS0_10basic_jsonISt3mapSt6vectorNSt7__cxx1112basic_stringIcSt11char_traitsIcESaIcEEEblmdSaNS0_14adl_serializerES5_IhSaIhEEvEEE15token_type_nameENSG_10token_typeE(i32 noundef 2) #18
  call void @_ZNSaIcEC1Ev(ptr noundef nonnull align 1 dereferenceable(1) %ref.tmp569) #16
  invoke void @_ZNSt7__cxx1112basic_stringIcSt11char_traitsIcESaIcEEC1EPKcRKS3_(ptr noundef nonnull align 8 dereferenceable(32) %ref.tmp567, ptr noundef %call568, ptr noundef nonnull align 1 dereferenceable(1) %ref.tmp569)
          to label %invoke.cont571 unwind label %lpad570

invoke.cont571:                                   ; preds = %invoke.cont565
  %call574 = invoke noundef zeroext i1 @_ZSteqIcSt11char_traitsIcESaIcEEbRKNSt7__cxx1112basic_stringIT_T0_T1_EEPKS5_(ptr noundef nonnull align 8 dereferenceable(32) %ref.tmp567, ptr noundef @.str.73)
          to label %invoke.cont573 unwind label %lpad572

invoke.cont573:                                   ; preds = %invoke.cont571
  %frombool575 = zext i1 %call574 to i8
  store i8 %frombool575, ptr %ref.tmp566, align 1
  %call577 = invoke i64 @_ZN7doctest6detail20ExpressionDecomposerlsIbEENS0_14Expression_lhsIT_EEOS4_(ptr noundef nonnull align 4 dereferenceable(4) %ref.tmp564, ptr noundef nonnull align 1 dereferenceable(1) %ref.tmp566)
          to label %invoke.cont576 unwind label %lpad572

invoke.cont576:                                   ; preds = %invoke.cont573
  store i64 %call577, ptr %ref.tmp563, align 4
  invoke void @_ZN7doctest6detail14Expression_lhsIbEcvNS0_6ResultEEv(ptr sret(%"struct.doctest::detail::Result") align 8 %ref.tmp562, ptr noundef nonnull align 4 dereferenceable(8) %ref.tmp563)
          to label %invoke.cont578 unwind label %lpad572

invoke.cont578:                                   ; preds = %invoke.cont576
  %call581 = invoke noundef zeroext i1 @_ZN7doctest6detail13decomp_assertENS_10assertType4EnumEPKciS4_RKNS0_6ResultE(i32 noundef 10, ptr noundef @.str.2, i32 noundef 92, ptr noundef @.str.72, ptr noundef nonnull align 8 dereferenceable(32) %ref.tmp562)
          to label %invoke.cont580 unwind label %lpad579

invoke.cont580:                                   ; preds = %invoke.cont578
  call void @_ZN7doctest6detail6ResultD2Ev(ptr noundef nonnull align 8 dereferenceable(32) %ref.tmp562) #16
  call void @_ZNSt7__cxx1112basic_stringIcSt11char_traitsIcESaIcEED1Ev(ptr noundef nonnull align 8 dereferenceable(32) %ref.tmp567) #16
  call void @_ZNSaIcED1Ev(ptr noundef nonnull align 1 dereferenceable(1) %ref.tmp569) #16
  invoke void @_ZN7doctest6detail20ExpressionDecomposerC1ENS_10assertType4EnumE(ptr noundef nonnull align 4 dereferenceable(4) %ref.tmp587, i32 noundef 10)
          to label %invoke.cont588 unwind label %lpad512

invoke.cont588:                                   ; preds = %invoke.cont580
  %call591 = call noundef nonnull ptr @_ZN8nlohmann16json_abi_v3_11_36detail10lexer_baseINS0_10basic_jsonISt3mapSt6vectorNSt7__cxx1112basic_stringIcSt11char_traitsIcESaIcEEEblmdSaNS0_14adl_serializerES5_IhSaIhEEvEEE15token_type_nameENSG_10token_typeE(i32 noundef 3) #18
  call void @_ZNSaIcEC1Ev(ptr noundef nonnull align 1 dereferenceable(1) %ref.tmp592) #16
  invoke void @_ZNSt7__cxx1112basic_stringIcSt11char_traitsIcESaIcEEC1EPKcRKS3_(ptr noundef nonnull align 8 dereferenceable(32) %ref.tmp590, ptr noundef %call591, ptr noundef nonnull align 1 dereferenceable(1) %ref.tmp592)
          to label %invoke.cont594 unwind label %lpad593

invoke.cont594:                                   ; preds = %invoke.cont588
  %call597 = invoke noundef zeroext i1 @_ZSteqIcSt11char_traitsIcESaIcEEbRKNSt7__cxx1112basic_stringIT_T0_T1_EEPKS5_(ptr noundef nonnull align 8 dereferenceable(32) %ref.tmp590, ptr noundef @.str.75)
          to label %invoke.cont596 unwind label %lpad595

invoke.cont596:                                   ; preds = %invoke.cont594
  %frombool598 = zext i1 %call597 to i8
  store i8 %frombool598, ptr %ref.tmp589, align 1
  %call600 = invoke i64 @_ZN7doctest6detail20ExpressionDecomposerlsIbEENS0_14Expression_lhsIT_EEOS4_(ptr noundef nonnull align 4 dereferenceable(4) %ref.tmp587, ptr noundef nonnull align 1 dereferenceable(1) %ref.tmp589)
          to label %invoke.cont599 unwind label %lpad595

invoke.cont599:                                   ; preds = %invoke.cont596
  store i64 %call600, ptr %ref.tmp586, align 4
  invoke void @_ZN7doctest6detail14Expression_lhsIbEcvNS0_6ResultEEv(ptr sret(%"struct.doctest::detail::Result") align 8 %ref.tmp585, ptr noundef nonnull align 4 dereferenceable(8) %ref.tmp586)
          to label %invoke.cont601 unwind label %lpad595

invoke.cont601:                                   ; preds = %invoke.cont599
  %call604 = invoke noundef zeroext i1 @_ZN7doctest6detail13decomp_assertENS_10assertType4EnumEPKciS4_RKNS0_6ResultE(i32 noundef 10, ptr noundef @.str.2, i32 noundef 93, ptr noundef @.str.74, ptr noundef nonnull align 8 dereferenceable(32) %ref.tmp585)
          to label %invoke.cont603 unwind label %lpad602

invoke.cont603:                                   ; preds = %invoke.cont601
  call void @_ZN7doctest6detail6ResultD2Ev(ptr noundef nonnull align 8 dereferenceable(32) %ref.tmp585) #16
  call void @_ZNSt7__cxx1112basic_stringIcSt11char_traitsIcESaIcEED1Ev(ptr noundef nonnull align 8 dereferenceable(32) %ref.tmp590) #16
  call void @_ZNSaIcED1Ev(ptr noundef nonnull align 1 dereferenceable(1) %ref.tmp592) #16
  invoke void @_ZN7doctest6detail20ExpressionDecomposerC1ENS_10assertType4EnumE(ptr noundef nonnull align 4 dereferenceable(4) %ref.tmp610, i32 noundef 10)
          to label %invoke.cont611 unwind label %lpad512

invoke.cont611:                                   ; preds = %invoke.cont603
  %call614 = call noundef nonnull ptr @_ZN8nlohmann16json_abi_v3_11_36detail10lexer_baseINS0_10basic_jsonISt3mapSt6vectorNSt7__cxx1112basic_stringIcSt11char_traitsIcESaIcEEEblmdSaNS0_14adl_serializerES5_IhSaIhEEvEEE15token_type_nameENSG_10token_typeE(i32 noundef 4) #18
  call void @_ZNSaIcEC1Ev(ptr noundef nonnull align 1 dereferenceable(1) %ref.tmp615) #16
  invoke void @_ZNSt7__cxx1112basic_stringIcSt11char_traitsIcESaIcEEC1EPKcRKS3_(ptr noundef nonnull align 8 dereferenceable(32) %ref.tmp613, ptr noundef %call614, ptr noundef nonnull align 1 dereferenceable(1) %ref.tmp615)
          to label %invoke.cont617 unwind label %lpad616

invoke.cont617:                                   ; preds = %invoke.cont611
  %call620 = invoke noundef zeroext i1 @_ZSteqIcSt11char_traitsIcESaIcEEbRKNSt7__cxx1112basic_stringIT_T0_T1_EEPKS5_(ptr noundef nonnull align 8 dereferenceable(32) %ref.tmp613, ptr noundef @.str.77)
          to label %invoke.cont619 unwind label %lpad618

invoke.cont619:                                   ; preds = %invoke.cont617
  %frombool621 = zext i1 %call620 to i8
  store i8 %frombool621, ptr %ref.tmp612, align 1
  %call623 = invoke i64 @_ZN7doctest6detail20ExpressionDecomposerlsIbEENS0_14Expression_lhsIT_EEOS4_(ptr noundef nonnull align 4 dereferenceable(4) %ref.tmp610, ptr noundef nonnull align 1 dereferenceable(1) %ref.tmp612)
          to label %invoke.cont622 unwind label %lpad618

invoke.cont622:                                   ; preds = %invoke.cont619
  store i64 %call623, ptr %ref.tmp609, align 4
  invoke void @_ZN7doctest6detail14Expression_lhsIbEcvNS0_6ResultEEv(ptr sret(%"struct.doctest::detail::Result") align 8 %ref.tmp608, ptr noundef nonnull align 4 dereferenceable(8) %ref.tmp609)
          to label %invoke.cont624 unwind label %lpad618

invoke.cont624:                                   ; preds = %invoke.cont622
  %call627 = invoke noundef zeroext i1 @_ZN7doctest6detail13decomp_assertENS_10assertType4EnumEPKciS4_RKNS0_6ResultE(i32 noundef 10, ptr noundef @.str.2, i32 noundef 94, ptr noundef @.str.76, ptr noundef nonnull align 8 dereferenceable(32) %ref.tmp608)
          to label %invoke.cont626 unwind label %lpad625

invoke.cont626:                                   ; preds = %invoke.cont624
  call void @_ZN7doctest6detail6ResultD2Ev(ptr noundef nonnull align 8 dereferenceable(32) %ref.tmp608) #16
  call void @_ZNSt7__cxx1112basic_stringIcSt11char_traitsIcESaIcEED1Ev(ptr noundef nonnull align 8 dereferenceable(32) %ref.tmp613) #16
  call void @_ZNSaIcED1Ev(ptr noundef nonnull align 1 dereferenceable(1) %ref.tmp615) #16
  invoke void @_ZN7doctest6detail20ExpressionDecomposerC1ENS_10assertType4EnumE(ptr noundef nonnull align 4 dereferenceable(4) %ref.tmp633, i32 noundef 10)
          to label %invoke.cont634 unwind label %lpad512

invoke.cont634:                                   ; preds = %invoke.cont626
  %call637 = call noundef nonnull ptr @_ZN8nlohmann16json_abi_v3_11_36detail10lexer_baseINS0_10basic_jsonISt3mapSt6vectorNSt7__cxx1112basic_stringIcSt11char_traitsIcESaIcEEEblmdSaNS0_14adl_serializerES5_IhSaIhEEvEEE15token_type_nameENSG_10token_typeE(i32 noundef 5) #18
  call void @_ZNSaIcEC1Ev(ptr noundef nonnull align 1 dereferenceable(1) %ref.tmp638) #16
  invoke void @_ZNSt7__cxx1112basic_stringIcSt11char_traitsIcESaIcEEC1EPKcRKS3_(ptr noundef nonnull align 8 dereferenceable(32) %ref.tmp636, ptr noundef %call637, ptr noundef nonnull align 1 dereferenceable(1) %ref.tmp638)
          to label %invoke.cont640 unwind label %lpad639

invoke.cont640:                                   ; preds = %invoke.cont634
  %call643 = invoke noundef zeroext i1 @_ZSteqIcSt11char_traitsIcESaIcEEbRKNSt7__cxx1112basic_stringIT_T0_T1_EEPKS5_(ptr noundef nonnull align 8 dereferenceable(32) %ref.tmp636, ptr noundef @.str.79)
          to label %invoke.cont642 unwind label %lpad641

invoke.cont642:                                   ; preds = %invoke.cont640
  %frombool644 = zext i1 %call643 to i8
  store i8 %frombool644, ptr %ref.tmp635, align 1
  %call646 = invoke i64 @_ZN7doctest6detail20ExpressionDecomposerlsIbEENS0_14Expression_lhsIT_EEOS4_(ptr noundef nonnull align 4 dereferenceable(4) %ref.tmp633, ptr noundef nonnull align 1 dereferenceable(1) %ref.tmp635)
          to label %invoke.cont645 unwind label %lpad641

invoke.cont645:                                   ; preds = %invoke.cont642
  store i64 %call646, ptr %ref.tmp632, align 4
  invoke void @_ZN7doctest6detail14Expression_lhsIbEcvNS0_6ResultEEv(ptr sret(%"struct.doctest::detail::Result") align 8 %ref.tmp631, ptr noundef nonnull align 4 dereferenceable(8) %ref.tmp632)
          to label %invoke.cont647 unwind label %lpad641

invoke.cont647:                                   ; preds = %invoke.cont645
  %call650 = invoke noundef zeroext i1 @_ZN7doctest6detail13decomp_assertENS_10assertType4EnumEPKciS4_RKNS0_6ResultE(i32 noundef 10, ptr noundef @.str.2, i32 noundef 95, ptr noundef @.str.78, ptr noundef nonnull align 8 dereferenceable(32) %ref.tmp631)
          to label %invoke.cont649 unwind label %lpad648

invoke.cont649:                                   ; preds = %invoke.cont647
  call void @_ZN7doctest6detail6ResultD2Ev(ptr noundef nonnull align 8 dereferenceable(32) %ref.tmp631) #16
  call void @_ZNSt7__cxx1112basic_stringIcSt11char_traitsIcESaIcEED1Ev(ptr noundef nonnull align 8 dereferenceable(32) %ref.tmp636) #16
  call void @_ZNSaIcED1Ev(ptr noundef nonnull align 1 dereferenceable(1) %ref.tmp638) #16
  invoke void @_ZN7doctest6detail20ExpressionDecomposerC1ENS_10assertType4EnumE(ptr noundef nonnull align 4 dereferenceable(4) %ref.tmp656, i32 noundef 10)
          to label %invoke.cont657 unwind label %lpad512

invoke.cont657:                                   ; preds = %invoke.cont649
  %call660 = call noundef nonnull ptr @_ZN8nlohmann16json_abi_v3_11_36detail10lexer_baseINS0_10basic_jsonISt3mapSt6vectorNSt7__cxx1112basic_stringIcSt11char_traitsIcESaIcEEEblmdSaNS0_14adl_serializerES5_IhSaIhEEvEEE15token_type_nameENSG_10token_typeE(i32 noundef 6) #18
  call void @_ZNSaIcEC1Ev(ptr noundef nonnull align 1 dereferenceable(1) %ref.tmp661) #16
  invoke void @_ZNSt7__cxx1112basic_stringIcSt11char_traitsIcESaIcEEC1EPKcRKS3_(ptr noundef nonnull align 8 dereferenceable(32) %ref.tmp659, ptr noundef %call660, ptr noundef nonnull align 1 dereferenceable(1) %ref.tmp661)
          to label %invoke.cont663 unwind label %lpad662

invoke.cont663:                                   ; preds = %invoke.cont657
  %call666 = invoke noundef zeroext i1 @_ZSteqIcSt11char_traitsIcESaIcEEbRKNSt7__cxx1112basic_stringIT_T0_T1_EEPKS5_(ptr noundef nonnull align 8 dereferenceable(32) %ref.tmp659, ptr noundef @.str.79)
          to label %invoke.cont665 unwind label %lpad664

invoke.cont665:                                   ; preds = %invoke.cont663
  %frombool667 = zext i1 %call666 to i8
  store i8 %frombool667, ptr %ref.tmp658, align 1
  %call669 = invoke i64 @_ZN7doctest6detail20ExpressionDecomposerlsIbEENS0_14Expression_lhsIT_EEOS4_(ptr noundef nonnull align 4 dereferenceable(4) %ref.tmp656, ptr noundef nonnull align 1 dereferenceable(1) %ref.tmp658)
          to label %invoke.cont668 unwind label %lpad664

invoke.cont668:                                   ; preds = %invoke.cont665
  store i64 %call669, ptr %ref.tmp655, align 4
  invoke void @_ZN7doctest6detail14Expression_lhsIbEcvNS0_6ResultEEv(ptr sret(%"struct.doctest::detail::Result") align 8 %ref.tmp654, ptr noundef nonnull align 4 dereferenceable(8) %ref.tmp655)
          to label %invoke.cont670 unwind label %lpad664

invoke.cont670:                                   ; preds = %invoke.cont668
  %call673 = invoke noundef zeroext i1 @_ZN7doctest6detail13decomp_assertENS_10assertType4EnumEPKciS4_RKNS0_6ResultE(i32 noundef 10, ptr noundef @.str.2, i32 noundef 96, ptr noundef @.str.80, ptr noundef nonnull align 8 dereferenceable(32) %ref.tmp654)
          to label %invoke.cont672 unwind label %lpad671

invoke.cont672:                                   ; preds = %invoke.cont670
  call void @_ZN7doctest6detail6ResultD2Ev(ptr noundef nonnull align 8 dereferenceable(32) %ref.tmp654) #16
  call void @_ZNSt7__cxx1112basic_stringIcSt11char_traitsIcESaIcEED1Ev(ptr noundef nonnull align 8 dereferenceable(32) %ref.tmp659) #16
  call void @_ZNSaIcED1Ev(ptr noundef nonnull align 1 dereferenceable(1) %ref.tmp661) #16
  invoke void @_ZN7doctest6detail20ExpressionDecomposerC1ENS_10assertType4EnumE(ptr noundef nonnull align 4 dereferenceable(4) %ref.tmp679, i32 noundef 10)
          to label %invoke.cont680 unwind label %lpad512

invoke.cont680:                                   ; preds = %invoke.cont672
  %call683 = call noundef nonnull ptr @_ZN8nlohmann16json_abi_v3_11_36detail10lexer_baseINS0_10basic_jsonISt3mapSt6vectorNSt7__cxx1112basic_stringIcSt11char_traitsIcESaIcEEEblmdSaNS0_14adl_serializerES5_IhSaIhEEvEEE15token_type_nameENSG_10token_typeE(i32 noundef 7) #18
  call void @_ZNSaIcEC1Ev(ptr noundef nonnull align 1 dereferenceable(1) %ref.tmp684) #16
  invoke void @_ZNSt7__cxx1112basic_stringIcSt11char_traitsIcESaIcEEC1EPKcRKS3_(ptr noundef nonnull align 8 dereferenceable(32) %ref.tmp682, ptr noundef %call683, ptr noundef nonnull align 1 dereferenceable(1) %ref.tmp684)
          to label %invoke.cont686 unwind label %lpad685

invoke.cont686:                                   ; preds = %invoke.cont680
  %call689 = invoke noundef zeroext i1 @_ZSteqIcSt11char_traitsIcESaIcEEbRKNSt7__cxx1112basic_stringIT_T0_T1_EEPKS5_(ptr noundef nonnull align 8 dereferenceable(32) %ref.tmp682, ptr noundef @.str.79)
          to label %invoke.cont688 unwind label %lpad687

invoke.cont688:                                   ; preds = %invoke.cont686
  %frombool690 = zext i1 %call689 to i8
  store i8 %frombool690, ptr %ref.tmp681, align 1
  %call692 = invoke i64 @_ZN7doctest6detail20ExpressionDecomposerlsIbEENS0_14Expression_lhsIT_EEOS4_(ptr noundef nonnull align 4 dereferenceable(4) %ref.tmp679, ptr noundef nonnull align 1 dereferenceable(1) %ref.tmp681)
          to label %invoke.cont691 unwind label %lpad687

invoke.cont691:                                   ; preds = %invoke.cont688
  store i64 %call692, ptr %ref.tmp678, align 4
  invoke void @_ZN7doctest6detail14Expression_lhsIbEcvNS0_6ResultEEv(ptr sret(%"struct.doctest::detail::Result") align 8 %ref.tmp677, ptr noundef nonnull align 4 dereferenceable(8) %ref.tmp678)
          to label %invoke.cont693 unwind label %lpad687

invoke.cont693:                                   ; preds = %invoke.cont691
  %call696 = invoke noundef zeroext i1 @_ZN7doctest6detail13decomp_assertENS_10assertType4EnumEPKciS4_RKNS0_6ResultE(i32 noundef 10, ptr noundef @.str.2, i32 noundef 97, ptr noundef @.str.81, ptr noundef nonnull align 8 dereferenceable(32) %ref.tmp677)
          to label %invoke.cont695 unwind label %lpad694

invoke.cont695:                                   ; preds = %invoke.cont693
  call void @_ZN7doctest6detail6ResultD2Ev(ptr noundef nonnull align 8 dereferenceable(32) %ref.tmp677) #16
  call void @_ZNSt7__cxx1112basic_stringIcSt11char_traitsIcESaIcEED1Ev(ptr noundef nonnull align 8 dereferenceable(32) %ref.tmp682) #16
  call void @_ZNSaIcED1Ev(ptr noundef nonnull align 1 dereferenceable(1) %ref.tmp684) #16
  invoke void @_ZN7doctest6detail20ExpressionDecomposerC1ENS_10assertType4EnumE(ptr noundef nonnull align 4 dereferenceable(4) %ref.tmp702, i32 noundef 10)
          to label %invoke.cont703 unwind label %lpad512

invoke.cont703:                                   ; preds = %invoke.cont695
  %call706 = call noundef nonnull ptr @_ZN8nlohmann16json_abi_v3_11_36detail10lexer_baseINS0_10basic_jsonISt3mapSt6vectorNSt7__cxx1112basic_stringIcSt11char_traitsIcESaIcEEEblmdSaNS0_14adl_serializerES5_IhSaIhEEvEEE15token_type_nameENSG_10token_typeE(i32 noundef 8) #18
  call void @_ZNSaIcEC1Ev(ptr noundef nonnull align 1 dereferenceable(1) %ref.tmp707) #16
  invoke void @_ZNSt7__cxx1112basic_stringIcSt11char_traitsIcESaIcEEC1EPKcRKS3_(ptr noundef nonnull align 8 dereferenceable(32) %ref.tmp705, ptr noundef %call706, ptr noundef nonnull align 1 dereferenceable(1) %ref.tmp707)
          to label %invoke.cont709 unwind label %lpad708

invoke.cont709:                                   ; preds = %invoke.cont703
  %call712 = invoke noundef zeroext i1 @_ZSteqIcSt11char_traitsIcESaIcEEbRKNSt7__cxx1112basic_stringIT_T0_T1_EEPKS5_(ptr noundef nonnull align 8 dereferenceable(32) %ref.tmp705, ptr noundef @.str.83)
          to label %invoke.cont711 unwind label %lpad710

invoke.cont711:                                   ; preds = %invoke.cont709
  %frombool713 = zext i1 %call712 to i8
  store i8 %frombool713, ptr %ref.tmp704, align 1
  %call715 = invoke i64 @_ZN7doctest6detail20ExpressionDecomposerlsIbEENS0_14Expression_lhsIT_EEOS4_(ptr noundef nonnull align 4 dereferenceable(4) %ref.tmp702, ptr noundef nonnull align 1 dereferenceable(1) %ref.tmp704)
          to label %invoke.cont714 unwind label %lpad710

invoke.cont714:                                   ; preds = %invoke.cont711
  store i64 %call715, ptr %ref.tmp701, align 4
  invoke void @_ZN7doctest6detail14Expression_lhsIbEcvNS0_6ResultEEv(ptr sret(%"struct.doctest::detail::Result") align 8 %ref.tmp700, ptr noundef nonnull align 4 dereferenceable(8) %ref.tmp701)
          to label %invoke.cont716 unwind label %lpad710

invoke.cont716:                                   ; preds = %invoke.cont714
  %call719 = invoke noundef zeroext i1 @_ZN7doctest6detail13decomp_assertENS_10assertType4EnumEPKciS4_RKNS0_6ResultE(i32 noundef 10, ptr noundef @.str.2, i32 noundef 98, ptr noundef @.str.82, ptr noundef nonnull align 8 dereferenceable(32) %ref.tmp700)
          to label %invoke.cont718 unwind label %lpad717

invoke.cont718:                                   ; preds = %invoke.cont716
  call void @_ZN7doctest6detail6ResultD2Ev(ptr noundef nonnull align 8 dereferenceable(32) %ref.tmp700) #16
  call void @_ZNSt7__cxx1112basic_stringIcSt11char_traitsIcESaIcEED1Ev(ptr noundef nonnull align 8 dereferenceable(32) %ref.tmp705) #16
  call void @_ZNSaIcED1Ev(ptr noundef nonnull align 1 dereferenceable(1) %ref.tmp707) #16
  invoke void @_ZN7doctest6detail20ExpressionDecomposerC1ENS_10assertType4EnumE(ptr noundef nonnull align 4 dereferenceable(4) %ref.tmp725, i32 noundef 10)
          to label %invoke.cont726 unwind label %lpad512

invoke.cont726:                                   ; preds = %invoke.cont718
  %call729 = call noundef nonnull ptr @_ZN8nlohmann16json_abi_v3_11_36detail10lexer_baseINS0_10basic_jsonISt3mapSt6vectorNSt7__cxx1112basic_stringIcSt11char_traitsIcESaIcEEEblmdSaNS0_14adl_serializerES5_IhSaIhEEvEEE15token_type_nameENSG_10token_typeE(i32 noundef 9) #18
  call void @_ZNSaIcEC1Ev(ptr noundef nonnull align 1 dereferenceable(1) %ref.tmp730) #16
  invoke void @_ZNSt7__cxx1112basic_stringIcSt11char_traitsIcESaIcEEC1EPKcRKS3_(ptr noundef nonnull align 8 dereferenceable(32) %ref.tmp728, ptr noundef %call729, ptr noundef nonnull align 1 dereferenceable(1) %ref.tmp730)
          to label %invoke.cont732 unwind label %lpad731

invoke.cont732:                                   ; preds = %invoke.cont726
  %call735 = invoke noundef zeroext i1 @_ZSteqIcSt11char_traitsIcESaIcEEbRKNSt7__cxx1112basic_stringIT_T0_T1_EEPKS5_(ptr noundef nonnull align 8 dereferenceable(32) %ref.tmp728, ptr noundef @.str.85)
          to label %invoke.cont734 unwind label %lpad733

invoke.cont734:                                   ; preds = %invoke.cont732
  %frombool736 = zext i1 %call735 to i8
  store i8 %frombool736, ptr %ref.tmp727, align 1
  %call738 = invoke i64 @_ZN7doctest6detail20ExpressionDecomposerlsIbEENS0_14Expression_lhsIT_EEOS4_(ptr noundef nonnull align 4 dereferenceable(4) %ref.tmp725, ptr noundef nonnull align 1 dereferenceable(1) %ref.tmp727)
          to label %invoke.cont737 unwind label %lpad733

invoke.cont737:                                   ; preds = %invoke.cont734
  store i64 %call738, ptr %ref.tmp724, align 4
  invoke void @_ZN7doctest6detail14Expression_lhsIbEcvNS0_6ResultEEv(ptr sret(%"struct.doctest::detail::Result") align 8 %ref.tmp723, ptr noundef nonnull align 4 dereferenceable(8) %ref.tmp724)
          to label %invoke.cont739 unwind label %lpad733

invoke.cont739:                                   ; preds = %invoke.cont737
  %call742 = invoke noundef zeroext i1 @_ZN7doctest6detail13decomp_assertENS_10assertType4EnumEPKciS4_RKNS0_6ResultE(i32 noundef 10, ptr noundef @.str.2, i32 noundef 99, ptr noundef @.str.84, ptr noundef nonnull align 8 dereferenceable(32) %ref.tmp723)
          to label %invoke.cont741 unwind label %lpad740

invoke.cont741:                                   ; preds = %invoke.cont739
  call void @_ZN7doctest6detail6ResultD2Ev(ptr noundef nonnull align 8 dereferenceable(32) %ref.tmp723) #16
  call void @_ZNSt7__cxx1112basic_stringIcSt11char_traitsIcESaIcEED1Ev(ptr noundef nonnull align 8 dereferenceable(32) %ref.tmp728) #16
  call void @_ZNSaIcED1Ev(ptr noundef nonnull align 1 dereferenceable(1) %ref.tmp730) #16
  invoke void @_ZN7doctest6detail20ExpressionDecomposerC1ENS_10assertType4EnumE(ptr noundef nonnull align 4 dereferenceable(4) %ref.tmp748, i32 noundef 10)
          to label %invoke.cont749 unwind label %lpad512

invoke.cont749:                                   ; preds = %invoke.cont741
  %call752 = call noundef nonnull ptr @_ZN8nlohmann16json_abi_v3_11_36detail10lexer_baseINS0_10basic_jsonISt3mapSt6vectorNSt7__cxx1112basic_stringIcSt11char_traitsIcESaIcEEEblmdSaNS0_14adl_serializerES5_IhSaIhEEvEEE15token_type_nameENSG_10token_typeE(i32 noundef 10) #18
  call void @_ZNSaIcEC1Ev(ptr noundef nonnull align 1 dereferenceable(1) %ref.tmp753) #16
  invoke void @_ZNSt7__cxx1112basic_stringIcSt11char_traitsIcESaIcEEC1EPKcRKS3_(ptr noundef nonnull align 8 dereferenceable(32) %ref.tmp751, ptr noundef %call752, ptr noundef nonnull align 1 dereferenceable(1) %ref.tmp753)
          to label %invoke.cont755 unwind label %lpad754

invoke.cont755:                                   ; preds = %invoke.cont749
  %call758 = invoke noundef zeroext i1 @_ZSteqIcSt11char_traitsIcESaIcEEbRKNSt7__cxx1112basic_stringIT_T0_T1_EEPKS5_(ptr noundef nonnull align 8 dereferenceable(32) %ref.tmp751, ptr noundef @.str.87)
          to label %invoke.cont757 unwind label %lpad756

invoke.cont757:                                   ; preds = %invoke.cont755
  %frombool759 = zext i1 %call758 to i8
  store i8 %frombool759, ptr %ref.tmp750, align 1
  %call761 = invoke i64 @_ZN7doctest6detail20ExpressionDecomposerlsIbEENS0_14Expression_lhsIT_EEOS4_(ptr noundef nonnull align 4 dereferenceable(4) %ref.tmp748, ptr noundef nonnull align 1 dereferenceable(1) %ref.tmp750)
          to label %invoke.cont760 unwind label %lpad756

invoke.cont760:                                   ; preds = %invoke.cont757
  store i64 %call761, ptr %ref.tmp747, align 4
  invoke void @_ZN7doctest6detail14Expression_lhsIbEcvNS0_6ResultEEv(ptr sret(%"struct.doctest::detail::Result") align 8 %ref.tmp746, ptr noundef nonnull align 4 dereferenceable(8) %ref.tmp747)
          to label %invoke.cont762 unwind label %lpad756

invoke.cont762:                                   ; preds = %invoke.cont760
  %call765 = invoke noundef zeroext i1 @_ZN7doctest6detail13decomp_assertENS_10assertType4EnumEPKciS4_RKNS0_6ResultE(i32 noundef 10, ptr noundef @.str.2, i32 noundef 100, ptr noundef @.str.86, ptr noundef nonnull align 8 dereferenceable(32) %ref.tmp746)
          to label %invoke.cont764 unwind label %lpad763

invoke.cont764:                                   ; preds = %invoke.cont762
  call void @_ZN7doctest6detail6ResultD2Ev(ptr noundef nonnull align 8 dereferenceable(32) %ref.tmp746) #16
  call void @_ZNSt7__cxx1112basic_stringIcSt11char_traitsIcESaIcEED1Ev(ptr noundef nonnull align 8 dereferenceable(32) %ref.tmp751) #16
  call void @_ZNSaIcED1Ev(ptr noundef nonnull align 1 dereferenceable(1) %ref.tmp753) #16
  invoke void @_ZN7doctest6detail20ExpressionDecomposerC1ENS_10assertType4EnumE(ptr noundef nonnull align 4 dereferenceable(4) %ref.tmp771, i32 noundef 10)
          to label %invoke.cont772 unwind label %lpad512

invoke.cont772:                                   ; preds = %invoke.cont764
  %call775 = call noundef nonnull ptr @_ZN8nlohmann16json_abi_v3_11_36detail10lexer_baseINS0_10basic_jsonISt3mapSt6vectorNSt7__cxx1112basic_stringIcSt11char_traitsIcESaIcEEEblmdSaNS0_14adl_serializerES5_IhSaIhEEvEEE15token_type_nameENSG_10token_typeE(i32 noundef 11) #18
  call void @_ZNSaIcEC1Ev(ptr noundef nonnull align 1 dereferenceable(1) %ref.tmp776) #16
  invoke void @_ZNSt7__cxx1112basic_stringIcSt11char_traitsIcESaIcEEC1EPKcRKS3_(ptr noundef nonnull align 8 dereferenceable(32) %ref.tmp774, ptr noundef %call775, ptr noundef nonnull align 1 dereferenceable(1) %ref.tmp776)
          to label %invoke.cont778 unwind label %lpad777

invoke.cont778:                                   ; preds = %invoke.cont772
  %call781 = invoke noundef zeroext i1 @_ZSteqIcSt11char_traitsIcESaIcEEbRKNSt7__cxx1112basic_stringIT_T0_T1_EEPKS5_(ptr noundef nonnull align 8 dereferenceable(32) %ref.tmp774, ptr noundef @.str.89)
          to label %invoke.cont780 unwind label %lpad779

invoke.cont780:                                   ; preds = %invoke.cont778
  %frombool782 = zext i1 %call781 to i8
  store i8 %frombool782, ptr %ref.tmp773, align 1
  %call784 = invoke i64 @_ZN7doctest6detail20ExpressionDecomposerlsIbEENS0_14Expression_lhsIT_EEOS4_(ptr noundef nonnull align 4 dereferenceable(4) %ref.tmp771, ptr noundef nonnull align 1 dereferenceable(1) %ref.tmp773)
          to label %invoke.cont783 unwind label %lpad779

invoke.cont783:                                   ; preds = %invoke.cont780
  store i64 %call784, ptr %ref.tmp770, align 4
  invoke void @_ZN7doctest6detail14Expression_lhsIbEcvNS0_6ResultEEv(ptr sret(%"struct.doctest::detail::Result") align 8 %ref.tmp769, ptr noundef nonnull align 4 dereferenceable(8) %ref.tmp770)
          to label %invoke.cont785 unwind label %lpad779

invoke.cont785:                                   ; preds = %invoke.cont783
  %call788 = invoke noundef zeroext i1 @_ZN7doctest6detail13decomp_assertENS_10assertType4EnumEPKciS4_RKNS0_6ResultE(i32 noundef 10, ptr noundef @.str.2, i32 noundef 101, ptr noundef @.str.88, ptr noundef nonnull align 8 dereferenceable(32) %ref.tmp769)
          to label %invoke.cont787 unwind label %lpad786

invoke.cont787:                                   ; preds = %invoke.cont785
  call void @_ZN7doctest6detail6ResultD2Ev(ptr noundef nonnull align 8 dereferenceable(32) %ref.tmp769) #16
  call void @_ZNSt7__cxx1112basic_stringIcSt11char_traitsIcESaIcEED1Ev(ptr noundef nonnull align 8 dereferenceable(32) %ref.tmp774) #16
  call void @_ZNSaIcED1Ev(ptr noundef nonnull align 1 dereferenceable(1) %ref.tmp776) #16
  invoke void @_ZN7doctest6detail20ExpressionDecomposerC1ENS_10assertType4EnumE(ptr noundef nonnull align 4 dereferenceable(4) %ref.tmp794, i32 noundef 10)
          to label %invoke.cont795 unwind label %lpad512

invoke.cont795:                                   ; preds = %invoke.cont787
  %call798 = call noundef nonnull ptr @_ZN8nlohmann16json_abi_v3_11_36detail10lexer_baseINS0_10basic_jsonISt3mapSt6vectorNSt7__cxx1112basic_stringIcSt11char_traitsIcESaIcEEEblmdSaNS0_14adl_serializerES5_IhSaIhEEvEEE15token_type_nameENSG_10token_typeE(i32 noundef 12) #18
  call void @_ZNSaIcEC1Ev(ptr noundef nonnull align 1 dereferenceable(1) %ref.tmp799) #16
  invoke void @_ZNSt7__cxx1112basic_stringIcSt11char_traitsIcESaIcEEC1EPKcRKS3_(ptr noundef nonnull align 8 dereferenceable(32) %ref.tmp797, ptr noundef %call798, ptr noundef nonnull align 1 dereferenceable(1) %ref.tmp799)
          to label %invoke.cont801 unwind label %lpad800

invoke.cont801:                                   ; preds = %invoke.cont795
  %call804 = invoke noundef zeroext i1 @_ZSteqIcSt11char_traitsIcESaIcEEbRKNSt7__cxx1112basic_stringIT_T0_T1_EEPKS5_(ptr noundef nonnull align 8 dereferenceable(32) %ref.tmp797, ptr noundef @.str.91)
          to label %invoke.cont803 unwind label %lpad802

invoke.cont803:                                   ; preds = %invoke.cont801
  %frombool805 = zext i1 %call804 to i8
  store i8 %frombool805, ptr %ref.tmp796, align 1
  %call807 = invoke i64 @_ZN7doctest6detail20ExpressionDecomposerlsIbEENS0_14Expression_lhsIT_EEOS4_(ptr noundef nonnull align 4 dereferenceable(4) %ref.tmp794, ptr noundef nonnull align 1 dereferenceable(1) %ref.tmp796)
          to label %invoke.cont806 unwind label %lpad802

invoke.cont806:                                   ; preds = %invoke.cont803
  store i64 %call807, ptr %ref.tmp793, align 4
  invoke void @_ZN7doctest6detail14Expression_lhsIbEcvNS0_6ResultEEv(ptr sret(%"struct.doctest::detail::Result") align 8 %ref.tmp792, ptr noundef nonnull align 4 dereferenceable(8) %ref.tmp793)
          to label %invoke.cont808 unwind label %lpad802

invoke.cont808:                                   ; preds = %invoke.cont806
  %call811 = invoke noundef zeroext i1 @_ZN7doctest6detail13decomp_assertENS_10assertType4EnumEPKciS4_RKNS0_6ResultE(i32 noundef 10, ptr noundef @.str.2, i32 noundef 102, ptr noundef @.str.90, ptr noundef nonnull align 8 dereferenceable(32) %ref.tmp792)
          to label %invoke.cont810 unwind label %lpad809

invoke.cont810:                                   ; preds = %invoke.cont808
  call void @_ZN7doctest6detail6ResultD2Ev(ptr noundef nonnull align 8 dereferenceable(32) %ref.tmp792) #16
  call void @_ZNSt7__cxx1112basic_stringIcSt11char_traitsIcESaIcEED1Ev(ptr noundef nonnull align 8 dereferenceable(32) %ref.tmp797) #16
  call void @_ZNSaIcED1Ev(ptr noundef nonnull align 1 dereferenceable(1) %ref.tmp799) #16
  invoke void @_ZN7doctest6detail20ExpressionDecomposerC1ENS_10assertType4EnumE(ptr noundef nonnull align 4 dereferenceable(4) %ref.tmp817, i32 noundef 10)
          to label %invoke.cont818 unwind label %lpad512

invoke.cont818:                                   ; preds = %invoke.cont810
  %call821 = call noundef nonnull ptr @_ZN8nlohmann16json_abi_v3_11_36detail10lexer_baseINS0_10basic_jsonISt3mapSt6vectorNSt7__cxx1112basic_stringIcSt11char_traitsIcESaIcEEEblmdSaNS0_14adl_serializerES5_IhSaIhEEvEEE15token_type_nameENSG_10token_typeE(i32 noundef 13) #18
  call void @_ZNSaIcEC1Ev(ptr noundef nonnull align 1 dereferenceable(1) %ref.tmp822) #16
  invoke void @_ZNSt7__cxx1112basic_stringIcSt11char_traitsIcESaIcEEC1EPKcRKS3_(ptr noundef nonnull align 8 dereferenceable(32) %ref.tmp820, ptr noundef %call821, ptr noundef nonnull align 1 dereferenceable(1) %ref.tmp822)
          to label %invoke.cont824 unwind label %lpad823

invoke.cont824:                                   ; preds = %invoke.cont818
  %call827 = invoke noundef zeroext i1 @_ZSteqIcSt11char_traitsIcESaIcEEbRKNSt7__cxx1112basic_stringIT_T0_T1_EEPKS5_(ptr noundef nonnull align 8 dereferenceable(32) %ref.tmp820, ptr noundef @.str.93)
          to label %invoke.cont826 unwind label %lpad825

invoke.cont826:                                   ; preds = %invoke.cont824
  %frombool828 = zext i1 %call827 to i8
  store i8 %frombool828, ptr %ref.tmp819, align 1
  %call830 = invoke i64 @_ZN7doctest6detail20ExpressionDecomposerlsIbEENS0_14Expression_lhsIT_EEOS4_(ptr noundef nonnull align 4 dereferenceable(4) %ref.tmp817, ptr noundef nonnull align 1 dereferenceable(1) %ref.tmp819)
          to label %invoke.cont829 unwind label %lpad825

invoke.cont829:                                   ; preds = %invoke.cont826
  store i64 %call830, ptr %ref.tmp816, align 4
  invoke void @_ZN7doctest6detail14Expression_lhsIbEcvNS0_6ResultEEv(ptr sret(%"struct.doctest::detail::Result") align 8 %ref.tmp815, ptr noundef nonnull align 4 dereferenceable(8) %ref.tmp816)
          to label %invoke.cont831 unwind label %lpad825

invoke.cont831:                                   ; preds = %invoke.cont829
  %call834 = invoke noundef zeroext i1 @_ZN7doctest6detail13decomp_assertENS_10assertType4EnumEPKciS4_RKNS0_6ResultE(i32 noundef 10, ptr noundef @.str.2, i32 noundef 103, ptr noundef @.str.92, ptr noundef nonnull align 8 dereferenceable(32) %ref.tmp815)
          to label %invoke.cont833 unwind label %lpad832

invoke.cont833:                                   ; preds = %invoke.cont831
  call void @_ZN7doctest6detail6ResultD2Ev(ptr noundef nonnull align 8 dereferenceable(32) %ref.tmp815) #16
  call void @_ZNSt7__cxx1112basic_stringIcSt11char_traitsIcESaIcEED1Ev(ptr noundef nonnull align 8 dereferenceable(32) %ref.tmp820) #16
  call void @_ZNSaIcED1Ev(ptr noundef nonnull align 1 dereferenceable(1) %ref.tmp822) #16
  invoke void @_ZN7doctest6detail20ExpressionDecomposerC1ENS_10assertType4EnumE(ptr noundef nonnull align 4 dereferenceable(4) %ref.tmp840, i32 noundef 10)
          to label %invoke.cont841 unwind label %lpad512

invoke.cont841:                                   ; preds = %invoke.cont833
  %call844 = call noundef nonnull ptr @_ZN8nlohmann16json_abi_v3_11_36detail10lexer_baseINS0_10basic_jsonISt3mapSt6vectorNSt7__cxx1112basic_stringIcSt11char_traitsIcESaIcEEEblmdSaNS0_14adl_serializerES5_IhSaIhEEvEEE15token_type_nameENSG_10token_typeE(i32 noundef 14) #18
  call void @_ZNSaIcEC1Ev(ptr noundef nonnull align 1 dereferenceable(1) %ref.tmp845) #16
  invoke void @_ZNSt7__cxx1112basic_stringIcSt11char_traitsIcESaIcEEC1EPKcRKS3_(ptr noundef nonnull align 8 dereferenceable(32) %ref.tmp843, ptr noundef %call844, ptr noundef nonnull align 1 dereferenceable(1) %ref.tmp845)
          to label %invoke.cont847 unwind label %lpad846

invoke.cont847:                                   ; preds = %invoke.cont841
  %call850 = invoke noundef zeroext i1 @_ZSteqIcSt11char_traitsIcESaIcEEbRKNSt7__cxx1112basic_stringIT_T0_T1_EEPKS5_(ptr noundef nonnull align 8 dereferenceable(32) %ref.tmp843, ptr noundef @.str.95)
          to label %invoke.cont849 unwind label %lpad848

invoke.cont849:                                   ; preds = %invoke.cont847
  %frombool851 = zext i1 %call850 to i8
  store i8 %frombool851, ptr %ref.tmp842, align 1
  %call853 = invoke i64 @_ZN7doctest6detail20ExpressionDecomposerlsIbEENS0_14Expression_lhsIT_EEOS4_(ptr noundef nonnull align 4 dereferenceable(4) %ref.tmp840, ptr noundef nonnull align 1 dereferenceable(1) %ref.tmp842)
          to label %invoke.cont852 unwind label %lpad848

invoke.cont852:                                   ; preds = %invoke.cont849
  store i64 %call853, ptr %ref.tmp839, align 4
  invoke void @_ZN7doctest6detail14Expression_lhsIbEcvNS0_6ResultEEv(ptr sret(%"struct.doctest::detail::Result") align 8 %ref.tmp838, ptr noundef nonnull align 4 dereferenceable(8) %ref.tmp839)
          to label %invoke.cont854 unwind label %lpad848

invoke.cont854:                                   ; preds = %invoke.cont852
  %call857 = invoke noundef zeroext i1 @_ZN7doctest6detail13decomp_assertENS_10assertType4EnumEPKciS4_RKNS0_6ResultE(i32 noundef 10, ptr noundef @.str.2, i32 noundef 104, ptr noundef @.str.94, ptr noundef nonnull align 8 dereferenceable(32) %ref.tmp838)
          to label %invoke.cont856 unwind label %lpad855

invoke.cont856:                                   ; preds = %invoke.cont854
  call void @_ZN7doctest6detail6ResultD2Ev(ptr noundef nonnull align 8 dereferenceable(32) %ref.tmp838) #16
  call void @_ZNSt7__cxx1112basic_stringIcSt11char_traitsIcESaIcEED1Ev(ptr noundef nonnull align 8 dereferenceable(32) %ref.tmp843) #16
  call void @_ZNSaIcED1Ev(ptr noundef nonnull align 1 dereferenceable(1) %ref.tmp845) #16
  invoke void @_ZN7doctest6detail20ExpressionDecomposerC1ENS_10assertType4EnumE(ptr noundef nonnull align 4 dereferenceable(4) %ref.tmp863, i32 noundef 10)
          to label %invoke.cont864 unwind label %lpad512

invoke.cont864:                                   ; preds = %invoke.cont856
  %call867 = call noundef nonnull ptr @_ZN8nlohmann16json_abi_v3_11_36detail10lexer_baseINS0_10basic_jsonISt3mapSt6vectorNSt7__cxx1112basic_stringIcSt11char_traitsIcESaIcEEEblmdSaNS0_14adl_serializerES5_IhSaIhEEvEEE15token_type_nameENSG_10token_typeE(i32 noundef 15) #18
  call void @_ZNSaIcEC1Ev(ptr noundef nonnull align 1 dereferenceable(1) %ref.tmp868) #16
  invoke void @_ZNSt7__cxx1112basic_stringIcSt11char_traitsIcESaIcEEC1EPKcRKS3_(ptr noundef nonnull align 8 dereferenceable(32) %ref.tmp866, ptr noundef %call867, ptr noundef nonnull align 1 dereferenceable(1) %ref.tmp868)
          to label %invoke.cont870 unwind label %lpad869

invoke.cont870:                                   ; preds = %invoke.cont864
  %call873 = invoke noundef zeroext i1 @_ZSteqIcSt11char_traitsIcESaIcEEbRKNSt7__cxx1112basic_stringIT_T0_T1_EEPKS5_(ptr noundef nonnull align 8 dereferenceable(32) %ref.tmp866, ptr noundef @.str.97)
          to label %invoke.cont872 unwind label %lpad871

invoke.cont872:                                   ; preds = %invoke.cont870
  %frombool874 = zext i1 %call873 to i8
  store i8 %frombool874, ptr %ref.tmp865, align 1
  %call876 = invoke i64 @_ZN7doctest6detail20ExpressionDecomposerlsIbEENS0_14Expression_lhsIT_EEOS4_(ptr noundef nonnull align 4 dereferenceable(4) %ref.tmp863, ptr noundef nonnull align 1 dereferenceable(1) %ref.tmp865)
          to label %invoke.cont875 unwind label %lpad871

invoke.cont875:                                   ; preds = %invoke.cont872
  store i64 %call876, ptr %ref.tmp862, align 4
  invoke void @_ZN7doctest6detail14Expression_lhsIbEcvNS0_6ResultEEv(ptr sret(%"struct.doctest::detail::Result") align 8 %ref.tmp861, ptr noundef nonnull align 4 dereferenceable(8) %ref.tmp862)
          to label %invoke.cont877 unwind label %lpad871

invoke.cont877:                                   ; preds = %invoke.cont875
  %call880 = invoke noundef zeroext i1 @_ZN7doctest6detail13decomp_assertENS_10assertType4EnumEPKciS4_RKNS0_6ResultE(i32 noundef 10, ptr noundef @.str.2, i32 noundef 105, ptr noundef @.str.96, ptr noundef nonnull align 8 dereferenceable(32) %ref.tmp861)
          to label %invoke.cont879 unwind label %lpad878

invoke.cont879:                                   ; preds = %invoke.cont877
  call void @_ZN7doctest6detail6ResultD2Ev(ptr noundef nonnull align 8 dereferenceable(32) %ref.tmp861) #16
  call void @_ZNSt7__cxx1112basic_stringIcSt11char_traitsIcESaIcEED1Ev(ptr noundef nonnull align 8 dereferenceable(32) %ref.tmp866) #16
  call void @_ZNSaIcED1Ev(ptr noundef nonnull align 1 dereferenceable(1) %ref.tmp868) #16
  br label %if.end884

ehcleanup506:                                     ; preds = %ehcleanup504, %lpad416, %ehcleanup412, %lpad164, %ehcleanup160, %lpad104, %ehcleanup, %lpad7, %lpad2
  call void @_ZN7doctest6detail7SubcaseD1Ev(ptr noundef nonnull align 8 dereferenceable(41) %ref.tmp) #16
  br label %eh.resume

lpad509:                                          ; preds = %if.end505
  %123 = landingpad { ptr, i32 }
          cleanup
  %124 = extractvalue { ptr, i32 } %123, 0
  store ptr %124, ptr %exn.slot, align 8
  %125 = extractvalue { ptr, i32 } %123, 1
  store i32 %125, ptr %ehselector.slot, align 4
  call void @_ZN7doctest6StringD1Ev(ptr noundef nonnull align 8 dereferenceable(24) %ref.tmp508) #16
  br label %eh.resume

lpad512:                                          ; preds = %invoke.cont856, %invoke.cont833, %invoke.cont810, %invoke.cont787, %invoke.cont764, %invoke.cont741, %invoke.cont718, %invoke.cont695, %invoke.cont672, %invoke.cont649, %invoke.cont626, %invoke.cont603, %invoke.cont580, %invoke.cont557, %invoke.cont534, %if.then515, %invoke.cont510
  %126 = landingpad { ptr, i32 }
          cleanup
  %127 = extractvalue { ptr, i32 } %126, 0
  store ptr %127, ptr %exn.slot, align 8
  %128 = extractvalue { ptr, i32 } %126, 1
  store i32 %128, ptr %ehselector.slot, align 4
  br label %ehcleanup885

lpad524:                                          ; preds = %invoke.cont519
  %129 = landingpad { ptr, i32 }
          cleanup
  %130 = extractvalue { ptr, i32 } %129, 0
  store ptr %130, ptr %exn.slot, align 8
  %131 = extractvalue { ptr, i32 } %129, 1
  store i32 %131, ptr %ehselector.slot, align 4
  br label %ehcleanup538

lpad526:                                          ; preds = %invoke.cont530, %invoke.cont527, %invoke.cont525
  %132 = landingpad { ptr, i32 }
          cleanup
  %133 = extractvalue { ptr, i32 } %132, 0
  store ptr %133, ptr %exn.slot, align 8
  %134 = extractvalue { ptr, i32 } %132, 1
  store i32 %134, ptr %ehselector.slot, align 4
  br label %ehcleanup537

lpad533:                                          ; preds = %invoke.cont532
  %135 = landingpad { ptr, i32 }
          cleanup
  %136 = extractvalue { ptr, i32 } %135, 0
  store ptr %136, ptr %exn.slot, align 8
  %137 = extractvalue { ptr, i32 } %135, 1
  store i32 %137, ptr %ehselector.slot, align 4
  call void @_ZN7doctest6detail6ResultD2Ev(ptr noundef nonnull align 8 dereferenceable(32) %ref.tmp516) #16
  br label %ehcleanup537

ehcleanup537:                                     ; preds = %lpad533, %lpad526
  call void @_ZNSt7__cxx1112basic_stringIcSt11char_traitsIcESaIcEED1Ev(ptr noundef nonnull align 8 dereferenceable(32) %ref.tmp521) #16
  br label %ehcleanup538

ehcleanup538:                                     ; preds = %ehcleanup537, %lpad524
  call void @_ZNSaIcED1Ev(ptr noundef nonnull align 1 dereferenceable(1) %ref.tmp523) #16
  br label %ehcleanup885

lpad547:                                          ; preds = %invoke.cont542
  %138 = landingpad { ptr, i32 }
          cleanup
  %139 = extractvalue { ptr, i32 } %138, 0
  store ptr %139, ptr %exn.slot, align 8
  %140 = extractvalue { ptr, i32 } %138, 1
  store i32 %140, ptr %ehselector.slot, align 4
  br label %ehcleanup561

lpad549:                                          ; preds = %invoke.cont553, %invoke.cont550, %invoke.cont548
  %141 = landingpad { ptr, i32 }
          cleanup
  %142 = extractvalue { ptr, i32 } %141, 0
  store ptr %142, ptr %exn.slot, align 8
  %143 = extractvalue { ptr, i32 } %141, 1
  store i32 %143, ptr %ehselector.slot, align 4
  br label %ehcleanup560

lpad556:                                          ; preds = %invoke.cont555
  %144 = landingpad { ptr, i32 }
          cleanup
  %145 = extractvalue { ptr, i32 } %144, 0
  store ptr %145, ptr %exn.slot, align 8
  %146 = extractvalue { ptr, i32 } %144, 1
  store i32 %146, ptr %ehselector.slot, align 4
  call void @_ZN7doctest6detail6ResultD2Ev(ptr noundef nonnull align 8 dereferenceable(32) %ref.tmp539) #16
  br label %ehcleanup560

ehcleanup560:                                     ; preds = %lpad556, %lpad549
  call void @_ZNSt7__cxx1112basic_stringIcSt11char_traitsIcESaIcEED1Ev(ptr noundef nonnull align 8 dereferenceable(32) %ref.tmp544) #16
  br label %ehcleanup561

ehcleanup561:                                     ; preds = %ehcleanup560, %lpad547
  call void @_ZNSaIcED1Ev(ptr noundef nonnull align 1 dereferenceable(1) %ref.tmp546) #16
  br label %ehcleanup885

lpad570:                                          ; preds = %invoke.cont565
  %147 = landingpad { ptr, i32 }
          cleanup
  %148 = extractvalue { ptr, i32 } %147, 0
  store ptr %148, ptr %exn.slot, align 8
  %149 = extractvalue { ptr, i32 } %147, 1
  store i32 %149, ptr %ehselector.slot, align 4
  br label %ehcleanup584

lpad572:                                          ; preds = %invoke.cont576, %invoke.cont573, %invoke.cont571
  %150 = landingpad { ptr, i32 }
          cleanup
  %151 = extractvalue { ptr, i32 } %150, 0
  store ptr %151, ptr %exn.slot, align 8
  %152 = extractvalue { ptr, i32 } %150, 1
  store i32 %152, ptr %ehselector.slot, align 4
  br label %ehcleanup583

lpad579:                                          ; preds = %invoke.cont578
  %153 = landingpad { ptr, i32 }
          cleanup
  %154 = extractvalue { ptr, i32 } %153, 0
  store ptr %154, ptr %exn.slot, align 8
  %155 = extractvalue { ptr, i32 } %153, 1
  store i32 %155, ptr %ehselector.slot, align 4
  call void @_ZN7doctest6detail6ResultD2Ev(ptr noundef nonnull align 8 dereferenceable(32) %ref.tmp562) #16
  br label %ehcleanup583

ehcleanup583:                                     ; preds = %lpad579, %lpad572
  call void @_ZNSt7__cxx1112basic_stringIcSt11char_traitsIcESaIcEED1Ev(ptr noundef nonnull align 8 dereferenceable(32) %ref.tmp567) #16
  br label %ehcleanup584

ehcleanup584:                                     ; preds = %ehcleanup583, %lpad570
  call void @_ZNSaIcED1Ev(ptr noundef nonnull align 1 dereferenceable(1) %ref.tmp569) #16
  br label %ehcleanup885

lpad593:                                          ; preds = %invoke.cont588
  %156 = landingpad { ptr, i32 }
          cleanup
  %157 = extractvalue { ptr, i32 } %156, 0
  store ptr %157, ptr %exn.slot, align 8
  %158 = extractvalue { ptr, i32 } %156, 1
  store i32 %158, ptr %ehselector.slot, align 4
  br label %ehcleanup607

lpad595:                                          ; preds = %invoke.cont599, %invoke.cont596, %invoke.cont594
  %159 = landingpad { ptr, i32 }
          cleanup
  %160 = extractvalue { ptr, i32 } %159, 0
  store ptr %160, ptr %exn.slot, align 8
  %161 = extractvalue { ptr, i32 } %159, 1
  store i32 %161, ptr %ehselector.slot, align 4
  br label %ehcleanup606

lpad602:                                          ; preds = %invoke.cont601
  %162 = landingpad { ptr, i32 }
          cleanup
  %163 = extractvalue { ptr, i32 } %162, 0
  store ptr %163, ptr %exn.slot, align 8
  %164 = extractvalue { ptr, i32 } %162, 1
  store i32 %164, ptr %ehselector.slot, align 4
  call void @_ZN7doctest6detail6ResultD2Ev(ptr noundef nonnull align 8 dereferenceable(32) %ref.tmp585) #16
  br label %ehcleanup606

ehcleanup606:                                     ; preds = %lpad602, %lpad595
  call void @_ZNSt7__cxx1112basic_stringIcSt11char_traitsIcESaIcEED1Ev(ptr noundef nonnull align 8 dereferenceable(32) %ref.tmp590) #16
  br label %ehcleanup607

ehcleanup607:                                     ; preds = %ehcleanup606, %lpad593
  call void @_ZNSaIcED1Ev(ptr noundef nonnull align 1 dereferenceable(1) %ref.tmp592) #16
  br label %ehcleanup885

lpad616:                                          ; preds = %invoke.cont611
  %165 = landingpad { ptr, i32 }
          cleanup
  %166 = extractvalue { ptr, i32 } %165, 0
  store ptr %166, ptr %exn.slot, align 8
  %167 = extractvalue { ptr, i32 } %165, 1
  store i32 %167, ptr %ehselector.slot, align 4
  br label %ehcleanup630

lpad618:                                          ; preds = %invoke.cont622, %invoke.cont619, %invoke.cont617
  %168 = landingpad { ptr, i32 }
          cleanup
  %169 = extractvalue { ptr, i32 } %168, 0
  store ptr %169, ptr %exn.slot, align 8
  %170 = extractvalue { ptr, i32 } %168, 1
  store i32 %170, ptr %ehselector.slot, align 4
  br label %ehcleanup629

lpad625:                                          ; preds = %invoke.cont624
  %171 = landingpad { ptr, i32 }
          cleanup
  %172 = extractvalue { ptr, i32 } %171, 0
  store ptr %172, ptr %exn.slot, align 8
  %173 = extractvalue { ptr, i32 } %171, 1
  store i32 %173, ptr %ehselector.slot, align 4
  call void @_ZN7doctest6detail6ResultD2Ev(ptr noundef nonnull align 8 dereferenceable(32) %ref.tmp608) #16
  br label %ehcleanup629

ehcleanup629:                                     ; preds = %lpad625, %lpad618
  call void @_ZNSt7__cxx1112basic_stringIcSt11char_traitsIcESaIcEED1Ev(ptr noundef nonnull align 8 dereferenceable(32) %ref.tmp613) #16
  br label %ehcleanup630

ehcleanup630:                                     ; preds = %ehcleanup629, %lpad616
  call void @_ZNSaIcED1Ev(ptr noundef nonnull align 1 dereferenceable(1) %ref.tmp615) #16
  br label %ehcleanup885

lpad639:                                          ; preds = %invoke.cont634
  %174 = landingpad { ptr, i32 }
          cleanup
  %175 = extractvalue { ptr, i32 } %174, 0
  store ptr %175, ptr %exn.slot, align 8
  %176 = extractvalue { ptr, i32 } %174, 1
  store i32 %176, ptr %ehselector.slot, align 4
  br label %ehcleanup653

lpad641:                                          ; preds = %invoke.cont645, %invoke.cont642, %invoke.cont640
  %177 = landingpad { ptr, i32 }
          cleanup
  %178 = extractvalue { ptr, i32 } %177, 0
  store ptr %178, ptr %exn.slot, align 8
  %179 = extractvalue { ptr, i32 } %177, 1
  store i32 %179, ptr %ehselector.slot, align 4
  br label %ehcleanup652

lpad648:                                          ; preds = %invoke.cont647
  %180 = landingpad { ptr, i32 }
          cleanup
  %181 = extractvalue { ptr, i32 } %180, 0
  store ptr %181, ptr %exn.slot, align 8
  %182 = extractvalue { ptr, i32 } %180, 1
  store i32 %182, ptr %ehselector.slot, align 4
  call void @_ZN7doctest6detail6ResultD2Ev(ptr noundef nonnull align 8 dereferenceable(32) %ref.tmp631) #16
  br label %ehcleanup652

ehcleanup652:                                     ; preds = %lpad648, %lpad641
  call void @_ZNSt7__cxx1112basic_stringIcSt11char_traitsIcESaIcEED1Ev(ptr noundef nonnull align 8 dereferenceable(32) %ref.tmp636) #16
  br label %ehcleanup653

ehcleanup653:                                     ; preds = %ehcleanup652, %lpad639
  call void @_ZNSaIcED1Ev(ptr noundef nonnull align 1 dereferenceable(1) %ref.tmp638) #16
  br label %ehcleanup885

lpad662:                                          ; preds = %invoke.cont657
  %183 = landingpad { ptr, i32 }
          cleanup
  %184 = extractvalue { ptr, i32 } %183, 0
  store ptr %184, ptr %exn.slot, align 8
  %185 = extractvalue { ptr, i32 } %183, 1
  store i32 %185, ptr %ehselector.slot, align 4
  br label %ehcleanup676

lpad664:                                          ; preds = %invoke.cont668, %invoke.cont665, %invoke.cont663
  %186 = landingpad { ptr, i32 }
          cleanup
  %187 = extractvalue { ptr, i32 } %186, 0
  store ptr %187, ptr %exn.slot, align 8
  %188 = extractvalue { ptr, i32 } %186, 1
  store i32 %188, ptr %ehselector.slot, align 4
  br label %ehcleanup675

lpad671:                                          ; preds = %invoke.cont670
  %189 = landingpad { ptr, i32 }
          cleanup
  %190 = extractvalue { ptr, i32 } %189, 0
  store ptr %190, ptr %exn.slot, align 8
  %191 = extractvalue { ptr, i32 } %189, 1
  store i32 %191, ptr %ehselector.slot, align 4
  call void @_ZN7doctest6detail6ResultD2Ev(ptr noundef nonnull align 8 dereferenceable(32) %ref.tmp654) #16
  br label %ehcleanup675

ehcleanup675:                                     ; preds = %lpad671, %lpad664
  call void @_ZNSt7__cxx1112basic_stringIcSt11char_traitsIcESaIcEED1Ev(ptr noundef nonnull align 8 dereferenceable(32) %ref.tmp659) #16
  br label %ehcleanup676

ehcleanup676:                                     ; preds = %ehcleanup675, %lpad662
  call void @_ZNSaIcED1Ev(ptr noundef nonnull align 1 dereferenceable(1) %ref.tmp661) #16
  br label %ehcleanup885

lpad685:                                          ; preds = %invoke.cont680
  %192 = landingpad { ptr, i32 }
          cleanup
  %193 = extractvalue { ptr, i32 } %192, 0
  store ptr %193, ptr %exn.slot, align 8
  %194 = extractvalue { ptr, i32 } %192, 1
  store i32 %194, ptr %ehselector.slot, align 4
  br label %ehcleanup699

lpad687:                                          ; preds = %invoke.cont691, %invoke.cont688, %invoke.cont686
  %195 = landingpad { ptr, i32 }
          cleanup
  %196 = extractvalue { ptr, i32 } %195, 0
  store ptr %196, ptr %exn.slot, align 8
  %197 = extractvalue { ptr, i32 } %195, 1
  store i32 %197, ptr %ehselector.slot, align 4
  br label %ehcleanup698

lpad694:                                          ; preds = %invoke.cont693
  %198 = landingpad { ptr, i32 }
          cleanup
  %199 = extractvalue { ptr, i32 } %198, 0
  store ptr %199, ptr %exn.slot, align 8
  %200 = extractvalue { ptr, i32 } %198, 1
  store i32 %200, ptr %ehselector.slot, align 4
  call void @_ZN7doctest6detail6ResultD2Ev(ptr noundef nonnull align 8 dereferenceable(32) %ref.tmp677) #16
  br label %ehcleanup698

ehcleanup698:                                     ; preds = %lpad694, %lpad687
  call void @_ZNSt7__cxx1112basic_stringIcSt11char_traitsIcESaIcEED1Ev(ptr noundef nonnull align 8 dereferenceable(32) %ref.tmp682) #16
  br label %ehcleanup699

ehcleanup699:                                     ; preds = %ehcleanup698, %lpad685
  call void @_ZNSaIcED1Ev(ptr noundef nonnull align 1 dereferenceable(1) %ref.tmp684) #16
  br label %ehcleanup885

lpad708:                                          ; preds = %invoke.cont703
  %201 = landingpad { ptr, i32 }
          cleanup
  %202 = extractvalue { ptr, i32 } %201, 0
  store ptr %202, ptr %exn.slot, align 8
  %203 = extractvalue { ptr, i32 } %201, 1
  store i32 %203, ptr %ehselector.slot, align 4
  br label %ehcleanup722

lpad710:                                          ; preds = %invoke.cont714, %invoke.cont711, %invoke.cont709
  %204 = landingpad { ptr, i32 }
          cleanup
  %205 = extractvalue { ptr, i32 } %204, 0
  store ptr %205, ptr %exn.slot, align 8
  %206 = extractvalue { ptr, i32 } %204, 1
  store i32 %206, ptr %ehselector.slot, align 4
  br label %ehcleanup721

lpad717:                                          ; preds = %invoke.cont716
  %207 = landingpad { ptr, i32 }
          cleanup
  %208 = extractvalue { ptr, i32 } %207, 0
  store ptr %208, ptr %exn.slot, align 8
  %209 = extractvalue { ptr, i32 } %207, 1
  store i32 %209, ptr %ehselector.slot, align 4
  call void @_ZN7doctest6detail6ResultD2Ev(ptr noundef nonnull align 8 dereferenceable(32) %ref.tmp700) #16
  br label %ehcleanup721

ehcleanup721:                                     ; preds = %lpad717, %lpad710
  call void @_ZNSt7__cxx1112basic_stringIcSt11char_traitsIcESaIcEED1Ev(ptr noundef nonnull align 8 dereferenceable(32) %ref.tmp705) #16
  br label %ehcleanup722

ehcleanup722:                                     ; preds = %ehcleanup721, %lpad708
  call void @_ZNSaIcED1Ev(ptr noundef nonnull align 1 dereferenceable(1) %ref.tmp707) #16
  br label %ehcleanup885

lpad731:                                          ; preds = %invoke.cont726
  %210 = landingpad { ptr, i32 }
          cleanup
  %211 = extractvalue { ptr, i32 } %210, 0
  store ptr %211, ptr %exn.slot, align 8
  %212 = extractvalue { ptr, i32 } %210, 1
  store i32 %212, ptr %ehselector.slot, align 4
  br label %ehcleanup745

lpad733:                                          ; preds = %invoke.cont737, %invoke.cont734, %invoke.cont732
  %213 = landingpad { ptr, i32 }
          cleanup
  %214 = extractvalue { ptr, i32 } %213, 0
  store ptr %214, ptr %exn.slot, align 8
  %215 = extractvalue { ptr, i32 } %213, 1
  store i32 %215, ptr %ehselector.slot, align 4
  br label %ehcleanup744

lpad740:                                          ; preds = %invoke.cont739
  %216 = landingpad { ptr, i32 }
          cleanup
  %217 = extractvalue { ptr, i32 } %216, 0
  store ptr %217, ptr %exn.slot, align 8
  %218 = extractvalue { ptr, i32 } %216, 1
  store i32 %218, ptr %ehselector.slot, align 4
  call void @_ZN7doctest6detail6ResultD2Ev(ptr noundef nonnull align 8 dereferenceable(32) %ref.tmp723) #16
  br label %ehcleanup744

ehcleanup744:                                     ; preds = %lpad740, %lpad733
  call void @_ZNSt7__cxx1112basic_stringIcSt11char_traitsIcESaIcEED1Ev(ptr noundef nonnull align 8 dereferenceable(32) %ref.tmp728) #16
  br label %ehcleanup745

ehcleanup745:                                     ; preds = %ehcleanup744, %lpad731
  call void @_ZNSaIcED1Ev(ptr noundef nonnull align 1 dereferenceable(1) %ref.tmp730) #16
  br label %ehcleanup885

lpad754:                                          ; preds = %invoke.cont749
  %219 = landingpad { ptr, i32 }
          cleanup
  %220 = extractvalue { ptr, i32 } %219, 0
  store ptr %220, ptr %exn.slot, align 8
  %221 = extractvalue { ptr, i32 } %219, 1
  store i32 %221, ptr %ehselector.slot, align 4
  br label %ehcleanup768

lpad756:                                          ; preds = %invoke.cont760, %invoke.cont757, %invoke.cont755
  %222 = landingpad { ptr, i32 }
          cleanup
  %223 = extractvalue { ptr, i32 } %222, 0
  store ptr %223, ptr %exn.slot, align 8
  %224 = extractvalue { ptr, i32 } %222, 1
  store i32 %224, ptr %ehselector.slot, align 4
  br label %ehcleanup767

lpad763:                                          ; preds = %invoke.cont762
  %225 = landingpad { ptr, i32 }
          cleanup
  %226 = extractvalue { ptr, i32 } %225, 0
  store ptr %226, ptr %exn.slot, align 8
  %227 = extractvalue { ptr, i32 } %225, 1
  store i32 %227, ptr %ehselector.slot, align 4
  call void @_ZN7doctest6detail6ResultD2Ev(ptr noundef nonnull align 8 dereferenceable(32) %ref.tmp746) #16
  br label %ehcleanup767

ehcleanup767:                                     ; preds = %lpad763, %lpad756
  call void @_ZNSt7__cxx1112basic_stringIcSt11char_traitsIcESaIcEED1Ev(ptr noundef nonnull align 8 dereferenceable(32) %ref.tmp751) #16
  br label %ehcleanup768

ehcleanup768:                                     ; preds = %ehcleanup767, %lpad754
  call void @_ZNSaIcED1Ev(ptr noundef nonnull align 1 dereferenceable(1) %ref.tmp753) #16
  br label %ehcleanup885

lpad777:                                          ; preds = %invoke.cont772
  %228 = landingpad { ptr, i32 }
          cleanup
  %229 = extractvalue { ptr, i32 } %228, 0
  store ptr %229, ptr %exn.slot, align 8
