; ModuleID = 'bench/icu/original/vtzone.ll'
source_filename = "bench/icu/original/vtzone.ll"
target datalayout = "e-m:e-p270:32:32-p271:32:32-p272:64:64-i64:64-i128:128-f80:128-n8:16:32:64-S128"
target triple = "x86_64-unknown-linux-gnu"

%"class.icu_75::UnicodeString" = type { %"class.icu_75::Replaceable", %"union.icu_75::UnicodeString::StackBufferOrFields" }
%"class.icu_75::Replaceable" = type { %"class.icu_75::UObject" }
%"class.icu_75::UObject" = type { ptr }
%"union.icu_75::UnicodeString::StackBufferOrFields" = type { %struct.anon.0, [32 x i8] }
%struct.anon.0 = type { i16, i32, i32, ptr }
%"class.icu_75::VTZReader" = type <{ ptr, i32, [4 x i8] }>
%"class.icu_75::VTimeZone" = type { %"class.icu_75::BasicTimeZone", ptr, ptr, %"class.icu_75::UnicodeString", double, %"class.icu_75::UnicodeString", %"class.icu_75::UnicodeString" }
%"class.icu_75::BasicTimeZone" = type { %"class.icu_75::TimeZone" }
%"class.icu_75::TimeZone" = type { %"class.icu_75::UObject", %"class.icu_75::UnicodeString" }
%"class.icu_75::UVector" = type { %"class.icu_75::UObject", i32, i32, ptr, ptr, ptr }
%"class.std::type_info" = type { ptr, ptr }
%"class.icu_75::VTZWriter" = type { ptr }
%"class.icu_75::RuleBasedTimeZone" = type <{ %"class.icu_75::BasicTimeZone", ptr, ptr, ptr, ptr, i8, [7 x i8] }>
%"class.icu_75::ConstChar16Ptr" = type { ptr }
%"class.icu_75::LocalPointer.3" = type { %"class.icu_75::LocalPointerBase.4" }
%"class.icu_75::LocalPointerBase.4" = type { ptr }
%"class.icu_75::TimeZoneTransition" = type { %"class.icu_75::UObject", double, ptr, ptr }

$_ZNK6icu_7513UnicodeString7compareENS_14ConstChar16PtrEi = comdat any

$_ZN6icu_7512LocalPointerINS_12TimeZoneRuleEE29adoptInsteadAndCheckErrorCodeEPS1_R10UErrorCode = comdat any

@_ZZN6icu_759VTimeZone16getStaticClassIDEvE7classID = internal global i8 0, align 1
@_ZTVN6icu_759VTimeZoneE = unnamed_addr constant { [24 x ptr] } { [24 x ptr] [ptr null, ptr @_ZTIN6icu_759VTimeZoneE, ptr @_ZN6icu_759VTimeZoneD1Ev, ptr @_ZN6icu_759VTimeZoneD0Ev, ptr @_ZNK6icu_759VTimeZone17getDynamicClassIDEv, ptr @_ZNK6icu_759VTimeZoneeqERKNS_8TimeZoneE, ptr @_ZNK6icu_759VTimeZone9getOffsetEhiiihiR10UErrorCode, ptr @_ZNK6icu_759VTimeZone9getOffsetEhiiihiiR10UErrorCode, ptr @_ZNK6icu_759VTimeZone9getOffsetEdaRiS1_R10UErrorCode, ptr @_ZN6icu_759VTimeZone12setRawOffsetEi, ptr @_ZNK6icu_759VTimeZone12getRawOffsetEv, ptr @_ZNK6icu_759VTimeZone15useDaylightTimeEv, ptr @_ZNK6icu_759VTimeZone14inDaylightTimeEdR10UErrorCode, ptr @_ZNK6icu_759VTimeZone12hasSameRulesERKNS_8TimeZoneE, ptr @_ZNK6icu_759VTimeZone5cloneEv, ptr @_ZNK6icu_758TimeZone13getDSTSavingsEv, ptr @_ZNK6icu_759VTimeZone17getNextTransitionEdaRNS_18TimeZoneTransitionE, ptr @_ZNK6icu_759VTimeZone21getPreviousTransitionEdaRNS_18TimeZoneTransitionE, ptr @_ZNK6icu_7513BasicTimeZone24hasEquivalentTransitionsERKS0_ddaR10UErrorCode, ptr @_ZNK6icu_759VTimeZone20countTransitionRulesER10UErrorCode, ptr @_ZNK6icu_759VTimeZone16getTimeZoneRulesERPKNS_19InitialTimeZoneRuleEPPKNS_12TimeZoneRuleERiR10UErrorCode, ptr @_ZNK6icu_7513BasicTimeZone18getSimpleRulesNearEdRPNS_19InitialTimeZoneRuleERPNS_18AnnualTimeZoneRuleES6_R10UErrorCode, ptr @_ZNK6icu_759VTimeZone18getOffsetFromLocalEd20UTimeZoneLocalOptionS1_RiS2_R10UErrorCode, ptr @_ZNK6icu_759VTimeZoneneERKNS_8TimeZoneE] }, align 8
@.str = private unnamed_addr constant [11 x i8] c"zoneinfo64\00", align 1
@.str.1 = private unnamed_addr constant [10 x i8] c"TZVersion\00", align 1
@_ZN6icu_75L18ICAL_END_VTIMEZONEE = internal constant [14 x i16] [i16 69, i16 78, i16 68, i16 58, i16 86, i16 84, i16 73, i16 77, i16 69, i16 90, i16 79, i16 78, i16 69, i16 0], align 16
@_ZN6icu_75L20ICAL_BEGIN_VTIMEZONEE = internal constant [16 x i16] [i16 66, i16 69, i16 71, i16 73, i16 78, i16 58, i16 86, i16 84, i16 73, i16 77, i16 69, i16 90, i16 79, i16 78, i16 69, i16 0], align 16
@_ZN6icu_75L10ICAL_BEGINE = internal constant [6 x i16] [i16 66, i16 69, i16 71, i16 73, i16 78, i16 0], align 2
@_ZN6icu_75L14ICAL_VTIMEZONEE = internal constant [10 x i16] [i16 86, i16 84, i16 73, i16 77, i16 69, i16 90, i16 79, i16 78, i16 69, i16 0], align 16
@_ZN6icu_75L9ICAL_TZIDE = internal constant [5 x i16] [i16 84, i16 90, i16 73, i16 68, i16 0], align 2
@_ZN6icu_75L10ICAL_TZURLE = internal constant [6 x i16] [i16 84, i16 90, i16 85, i16 82, i16 76, i16 0], align 2
@_ZN6icu_75L12ICAL_LASTMODE = internal constant [14 x i16] [i16 76, i16 65, i16 83, i16 84, i16 45, i16 77, i16 79, i16 68, i16 73, i16 70, i16 73, i16 69, i16 68, i16 0], align 16
@_ZN6icu_75L13ICAL_DAYLIGHTE = internal constant [9 x i16] [i16 68, i16 65, i16 89, i16 76, i16 73, i16 71, i16 72, i16 84, i16 0], align 16
@_ZN6icu_75L13ICAL_STANDARDE = internal constant [9 x i16] [i16 83, i16 84, i16 65, i16 78, i16 68, i16 65, i16 82, i16 68, i16 0], align 16
@_ZN6icu_75L8ICAL_ENDE = internal constant [4 x i16] [i16 69, i16 78, i16 68, i16 0], align 2
@_ZN6icu_75L12ICAL_DTSTARTE = internal constant [8 x i16] [i16 68, i16 84, i16 83, i16 84, i16 65, i16 82, i16 84, i16 0], align 16
@_ZN6icu_75L11ICAL_TZNAMEE = internal constant [7 x i16] [i16 84, i16 90, i16 78, i16 65, i16 77, i16 69, i16 0], align 2
@_ZN6icu_75L17ICAL_TZOFFSETFROME = internal constant [13 x i16] [i16 84, i16 90, i16 79, i16 70, i16 70, i16 83, i16 69, i16 84, i16 70, i16 82, i16 79, i16 77, i16 0], align 16
@_ZN6icu_75L15ICAL_TZOFFSETTOE = internal constant [11 x i16] [i16 84, i16 90, i16 79, i16 70, i16 70, i16 83, i16 69, i16 84, i16 84, i16 79, i16 0], align 16
@_ZN6icu_75L10ICAL_RDATEE = internal constant [6 x i16] [i16 82, i16 68, i16 65, i16 84, i16 69, i16 0], align 2
@_ZN6icu_75L10ICAL_RRULEE = internal constant [6 x i16] [i16 82, i16 82, i16 85, i16 76, i16 69, i16 0], align 2
@_ZTIN6icu_7512TimeZoneRuleE = external constant ptr
@_ZTIN6icu_7518AnnualTimeZoneRuleE = external constant ptr
@_ZN6icu_7518AnnualTimeZoneRule8MAX_YEARE = external local_unnamed_addr constant i32, align 4
@_ZN6icu_75L12ICAL_NEWLINEE = internal constant [3 x i16] [i16 13, i16 10, i16 0], align 2
@_ZN6icu_75L15ICU_TZINFO_PROPE = internal constant [10 x i16] [i16 88, i16 45, i16 84, i16 90, i16 73, i16 78, i16 70, i16 79, i16 58, i16 0], align 16
@_ZN6icu_75L18ICU_TZINFO_PARTIALE = internal constant [10 x i16] [i16 47, i16 80, i16 97, i16 114, i16 116, i16 105, i16 97, i16 108, i16 64, i16 0], align 16
@_ZN6icu_75L17ICU_TZINFO_SIMPLEE = internal constant [9 x i16] [i16 47, i16 83, i16 105, i16 109, i16 112, i16 108, i16 101, i16 64, i16 0], align 16
@_ZN6icu_75L15ICAL_BYMONTHDAYE = internal constant [11 x i16] [i16 66, i16 89, i16 77, i16 79, i16 78, i16 84, i16 72, i16 68, i16 65, i16 89, i16 0], align 16
@_ZN6icu_75L10ICAL_BYDAYE = internal constant [6 x i16] [i16 66, i16 89, i16 68, i16 65, i16 89, i16 0], align 2
@_ZN6icu_75L14ICAL_DOW_NAMESE = internal constant [7 x [3 x i16]] [[3 x i16] [i16 83, i16 85, i16 0], [3 x i16] [i16 77, i16 79, i16 0], [3 x i16] [i16 84, i16 85, i16 0], [3 x i16] [i16 87, i16 69, i16 0], [3 x i16] [i16 84, i16 72, i16 0], [3 x i16] [i16 70, i16 82, i16 0], [3 x i16] [i16 83, i16 65, i16 0]], align 16
@_ZN6icu_75L11MONTHLENGTHE = internal unnamed_addr constant [12 x i32] [i32 31, i32 28, i32 31, i32 30, i32 31, i32 30, i32 31, i32 31, i32 30, i32 31, i32 30, i32 31], align 16
@_ZN6icu_75L9ICAL_FREQE = internal constant [5 x i16] [i16 70, i16 82, i16 69, i16 81, i16 0], align 2
@_ZN6icu_75L11ICAL_YEARLYE = internal constant [7 x i16] [i16 89, i16 69, i16 65, i16 82, i16 76, i16 89, i16 0], align 2
@_ZN6icu_75L12ICAL_BYMONTHE = internal constant [8 x i16] [i16 66, i16 89, i16 77, i16 79, i16 78, i16 84, i16 72, i16 0], align 16
@_ZN6icu_75L10ICAL_UNTILE = internal constant [6 x i16] [i16 85, i16 78, i16 84, i16 73, i16 76, i16 0], align 2
@_ZTVN10__cxxabiv120__si_class_type_infoE = external global [0 x ptr]
@_ZTSN6icu_759VTimeZoneE = constant [20 x i8] c"N6icu_759VTimeZoneE\00", align 1
@_ZTIN6icu_7513BasicTimeZoneE = external constant ptr
@_ZTIN6icu_759VTimeZoneE = constant { ptr, ptr, ptr } { ptr getelementptr inbounds (ptr, ptr @_ZTVN10__cxxabiv120__si_class_type_infoE, i64 2), ptr @_ZTSN6icu_759VTimeZoneE, ptr @_ZTIN6icu_7513BasicTimeZoneE }, align 8
@_ZTVN6icu_7513UnicodeStringE = external unnamed_addr constant { [13 x ptr] }, align 8
@_ZN6icu_755Grego12MONTH_LENGTHE = external local_unnamed_addr constant [24 x i8], align 16
@.str.2 = private unnamed_addr constant [6 x i16] [i16 40, i16 68, i16 83, i16 84, i16 41, i16 0], align 2
@.str.3 = private unnamed_addr constant [6 x i16] [i16 40, i16 83, i16 84, i16 68, i16 41, i16 0], align 2

@_ZN6icu_759VTZWriterC1ERNS_13UnicodeStringE = unnamed_addr alias void (ptr, ptr), ptr @_ZN6icu_759VTZWriterC2ERNS_13UnicodeStringE
@_ZN6icu_759VTZWriterD1Ev = unnamed_addr alias void (ptr), ptr @_ZN6icu_759VTZWriterD2Ev
@_ZN6icu_759VTZReaderC1ERKNS_13UnicodeStringE = unnamed_addr alias void (ptr, ptr), ptr @_ZN6icu_759VTZReaderC2ERKNS_13UnicodeStringE
@_ZN6icu_759VTZReaderD1Ev = unnamed_addr alias void (ptr), ptr @_ZN6icu_759VTZReaderD2Ev
@_ZN6icu_759VTimeZoneC1Ev = unnamed_addr alias void (ptr), ptr @_ZN6icu_759VTimeZoneC2Ev
@_ZN6icu_759VTimeZoneC1ERKS0_ = unnamed_addr alias void (ptr, ptr), ptr @_ZN6icu_759VTimeZoneC2ERKS0_
@_ZN6icu_759VTimeZoneD1Ev = unnamed_addr alias void (ptr), ptr @_ZN6icu_759VTimeZoneD2Ev

; Function Attrs: mustprogress nofree norecurse nosync nounwind willreturn memory(argmem: write) uwtable
define void @_ZN6icu_759VTZWriterC2ERNS_13UnicodeStringE(ptr nocapture noundef nonnull writeonly align 8 dereferenceable(8) %this, ptr noundef nonnull align 8 dereferenceable(64) %output) unnamed_addr #0 align 2 {
entry:
  store ptr %output, ptr %this, align 8
  ret void
}

; Function Attrs: mustprogress nofree norecurse nosync nounwind willreturn memory(none) uwtable
define void @_ZN6icu_759VTZWriterD2Ev(ptr nocapture nonnull readnone align 8 %this) unnamed_addr #1 align 2 {
entry:
  ret void
}

; Function Attrs: mustprogress uwtable
define void @_ZN6icu_759VTZWriter5writeERKNS_13UnicodeStringE(ptr nocapture noundef nonnull readonly align 8 dereferenceable(8) %this, ptr noundef nonnull align 8 dereferenceable(64) %str) local_unnamed_addr #2 align 2 {
entry:
  %0 = load ptr, ptr %this, align 8
  %fUnion.i.i.i = getelementptr inbounds %"class.icu_75::UnicodeString", ptr %str, i64 0, i32 1
  %1 = load i16, ptr %fUnion.i.i.i, align 8
  %cmp.i.i.i = icmp slt i16 %1, 0
  %2 = ashr i16 %1, 5
  %shr.i.i.i = sext i16 %2 to i32
  %fLength.i.i = getelementptr inbounds %"class.icu_75::UnicodeString", ptr %str, i64 0, i32 1, i32 0, i32 1
  %3 = load i32, ptr %fLength.i.i, align 4
  %cond.i.i = select i1 %cmp.i.i.i, i32 %3, i32 %shr.i.i.i
  %call2.i = tail call noundef nonnull align 8 dereferenceable(64) ptr @_ZN6icu_7513UnicodeString8doAppendERKS0_ii(ptr noundef nonnull align 8 dereferenceable(64) %0, ptr noundef nonnull align 8 dereferenceable(64) %str, i32 noundef 0, i32 noundef %cond.i.i)
  ret void
}

; Function Attrs: mustprogress uwtable
define void @_ZN6icu_759VTZWriter5writeEDs(ptr nocapture noundef nonnull readonly align 8 dereferenceable(8) %this, i16 noundef zeroext %ch) local_unnamed_addr #2 align 2 {
entry:
  %srcChar.addr.i = alloca i16, align 2
  %0 = load ptr, ptr %this, align 8
  call void @llvm.lifetime.start.p0(i64 2, ptr nonnull %srcChar.addr.i)
  store i16 %ch, ptr %srcChar.addr.i, align 2
  %call.i = call noundef nonnull align 8 dereferenceable(64) ptr @_ZN6icu_7513UnicodeString8doAppendEPKDsii(ptr noundef nonnull align 8 dereferenceable(64) %0, ptr noundef nonnull %srcChar.addr.i, i32 noundef 0, i32 noundef 1)
  call void @llvm.lifetime.end.p0(i64 2, ptr nonnull %srcChar.addr.i)
  ret void
}

; Function Attrs: mustprogress uwtable
define void @_ZN6icu_759VTZWriter5writeEPKDs(ptr nocapture noundef nonnull readonly align 8 dereferenceable(8) %this, ptr noundef %str) local_unnamed_addr #2 align 2 personality ptr @__gxx_personality_v0 {
entry:
  %0 = load ptr, ptr %this, align 8
  %call2.i1 = invoke noundef nonnull align 8 dereferenceable(64) ptr @_ZN6icu_7513UnicodeString8doAppendEPKDsii(ptr noundef nonnull align 8 dereferenceable(64) %0, ptr noundef %str, i32 noundef 0, i32 noundef -1)
          to label %invoke.cont unwind label %lpad

invoke.cont:                                      ; preds = %entry
  tail call void asm sideeffect "", "rm,~{memory},~{dirflag},~{fpsr},~{flags}"(ptr %str) #15, !srcloc !4
  ret void

lpad:                                             ; preds = %entry
  %1 = landingpad { ptr, i32 }
          cleanup
  tail call void asm sideeffect "", "rm,~{memory},~{dirflag},~{fpsr},~{flags}"(ptr %str) #15, !srcloc !4
  resume { ptr, i32 } %1
}

declare i32 @__gxx_personality_v0(...)

; Function Attrs: mustprogress nofree norecurse nosync nounwind willreturn memory(argmem: write) uwtable
define void @_ZN6icu_759VTZReaderC2ERKNS_13UnicodeStringE(ptr nocapture noundef nonnull writeonly align 8 dereferenceable(12) %this, ptr noundef nonnull align 8 dereferenceable(64) %input) unnamed_addr #0 align 2 {
entry:
  store ptr %input, ptr %this, align 8
  %index = getelementptr inbounds %"class.icu_75::VTZReader", ptr %this, i64 0, i32 1
  store i32 0, ptr %index, align 8
  ret void
}

; Function Attrs: mustprogress nofree norecurse nosync nounwind willreturn memory(none) uwtable
define void @_ZN6icu_759VTZReaderD2Ev(ptr nocapture nonnull readnone align 8 %this) unnamed_addr #1 align 2 {
entry:
  ret void
}

; Function Attrs: mustprogress nofree norecurse nosync nounwind willreturn memory(read, argmem: readwrite, inaccessiblemem: none) uwtable
define noundef zeroext i16 @_ZN6icu_759VTZReader4readEv(ptr nocapture noundef nonnull align 8 dereferenceable(12) %this) local_unnamed_addr #3 align 2 {
entry:
  %index = getelementptr inbounds %"class.icu_75::VTZReader", ptr %this, i64 0, i32 1
  %0 = load i32, ptr %index, align 8
  %1 = load ptr, ptr %this, align 8
  %fUnion.i.i = getelementptr inbounds %"class.icu_75::UnicodeString", ptr %1, i64 0, i32 1
  %2 = load i16, ptr %fUnion.i.i, align 8
  %cmp.i.i = icmp slt i16 %2, 0
  %3 = ashr i16 %2, 5
  %shr.i.i = sext i16 %3 to i32
  %fLength.i = getelementptr inbounds %"class.icu_75::UnicodeString", ptr %1, i64 0, i32 1, i32 0, i32 1
  %4 = load i32, ptr %fLength.i, align 4
  %cond.i = select i1 %cmp.i.i, i32 %4, i32 %shr.i.i
  %cmp = icmp slt i32 %0, %cond.i
  %cmp.i.i1 = icmp ugt i32 %cond.i, %0
  %or.cond = and i1 %cmp, %cmp.i.i1
  br i1 %or.cond, label %if.then.i.i, label %if.end

if.then.i.i:                                      ; preds = %entry
  %5 = and i16 %2, 2
  %tobool.not.i.i.i = icmp eq i16 %5, 0
  %fBuffer.i.i.i = getelementptr inbounds i8, ptr %1, i64 10
  %fArray.i.i.i = getelementptr inbounds %"class.icu_75::UnicodeString", ptr %1, i64 0, i32 1, i32 0, i32 3
  %6 = load ptr, ptr %fArray.i.i.i, align 8
  %cond.i2.i.i = select i1 %tobool.not.i.i.i, ptr %6, ptr %fBuffer.i.i.i
  %idxprom.i.i = sext i32 %0 to i64
  %arrayidx.i.i = getelementptr inbounds i16, ptr %cond.i2.i.i, i64 %idxprom.i.i
  %7 = load i16, ptr %arrayidx.i.i, align 2
  br label %if.end

if.end:                                           ; preds = %if.then.i.i, %entry
  %ch.0 = phi i16 [ -1, %entry ], [ %7, %if.then.i.i ]
  %inc = add nsw i32 %0, 1
  store i32 %inc, ptr %index, align 8
  ret i16 %ch.0
}

; Function Attrs: mustprogress nofree norecurse nosync nounwind willreturn memory(none) uwtable
define noundef nonnull ptr @_ZN6icu_759VTimeZone16getStaticClassIDEv() local_unnamed_addr #1 align 2 {
entry:
  ret ptr @_ZZN6icu_759VTimeZone16getStaticClassIDEvE7classID
}

; Function Attrs: mustprogress nofree norecurse nosync nounwind willreturn memory(none) uwtable
define noundef nonnull ptr @_ZNK6icu_759VTimeZone17getDynamicClassIDEv(ptr nocapture nonnull readnone align 8 %this) unnamed_addr #1 align 2 {
entry:
  ret ptr @_ZZN6icu_759VTimeZone16getStaticClassIDEvE7classID
}

; Function Attrs: mustprogress uwtable
define void @_ZN6icu_759VTimeZoneC2Ev(ptr noundef nonnull align 8 dereferenceable(288) %this) unnamed_addr #2 align 2 personality ptr @__gxx_personality_v0 {
invoke.cont5:
  tail call void @_ZN6icu_7513BasicTimeZoneC2Ev(ptr noundef nonnull align 8 dereferenceable(72) %this)
  store ptr getelementptr inbounds ({ [24 x ptr] }, ptr @_ZTVN6icu_759VTimeZoneE, i64 0, inrange i32 0, i64 2), ptr %this, align 8
  %tz = getelementptr inbounds %"class.icu_75::VTimeZone", ptr %this, i64 0, i32 1
  %tzurl = getelementptr inbounds %"class.icu_75::VTimeZone", ptr %this, i64 0, i32 3
  tail call void @llvm.memset.p0.i64(ptr noundef nonnull align 8 dereferenceable(16) %tz, i8 0, i64 16, i1 false)
  store ptr getelementptr inbounds ({ [13 x ptr] }, ptr @_ZTVN6icu_7513UnicodeStringE, i64 0, inrange i32 0, i64 2), ptr %tzurl, align 8
  %fUnion2.i = getelementptr inbounds %"class.icu_75::VTimeZone", ptr %this, i64 0, i32 3, i32 1
  store i16 2, ptr %fUnion2.i, align 8
  %lastmod = getelementptr inbounds %"class.icu_75::VTimeZone", ptr %this, i64 0, i32 4
  store double 0x43846A3EDDF8CD80, ptr %lastmod, align 8
  %olsonzid = getelementptr inbounds %"class.icu_75::VTimeZone", ptr %this, i64 0, i32 5
  store ptr getelementptr inbounds ({ [13 x ptr] }, ptr @_ZTVN6icu_7513UnicodeStringE, i64 0, inrange i32 0, i64 2), ptr %olsonzid, align 8
  %fUnion2.i3 = getelementptr inbounds %"class.icu_75::VTimeZone", ptr %this, i64 0, i32 5, i32 1
  store i16 2, ptr %fUnion2.i3, align 8
  %icutzver = getelementptr inbounds %"class.icu_75::VTimeZone", ptr %this, i64 0, i32 6
  store ptr getelementptr inbounds ({ [13 x ptr] }, ptr @_ZTVN6icu_7513UnicodeStringE, i64 0, inrange i32 0, i64 2), ptr %icutzver, align 8
  %fUnion2.i4 = getelementptr inbounds %"class.icu_75::VTimeZone", ptr %this, i64 0, i32 6, i32 1
  store i16 2, ptr %fUnion2.i4, align 8
  ret void
}

declare void @_ZN6icu_7513BasicTimeZoneC2Ev(ptr noundef nonnull align 8 dereferenceable(72)) unnamed_addr #4

; Function Attrs: nounwind
declare void @_ZN6icu_7513UnicodeStringD1Ev(ptr noundef nonnull align 8 dereferenceable(64)) unnamed_addr #5

; Function Attrs: nounwind
declare void @_ZN6icu_7513BasicTimeZoneD2Ev(ptr noundef nonnull align 8 dereferenceable(72)) unnamed_addr #5

; Function Attrs: mustprogress uwtable
define void @_ZN6icu_759VTimeZoneC2ERKS0_(ptr noundef nonnull align 8 dereferenceable(288) %this, ptr noundef nonnull align 8 dereferenceable(288) %source) unnamed_addr #2 align 2 personality ptr @__gxx_personality_v0 {
entry:
  %status = alloca i32, align 4
  tail call void @_ZN6icu_7513BasicTimeZoneC2ERKS0_(ptr noundef nonnull align 8 dereferenceable(72) %this, ptr noundef nonnull align 8 dereferenceable(72) %source)
  store ptr getelementptr inbounds ({ [24 x ptr] }, ptr @_ZTVN6icu_759VTimeZoneE, i64 0, inrange i32 0, i64 2), ptr %this, align 8
  %tz = getelementptr inbounds %"class.icu_75::VTimeZone", ptr %this, i64 0, i32 1
  %vtzlines = getelementptr inbounds %"class.icu_75::VTimeZone", ptr %this, i64 0, i32 2
  %tzurl = getelementptr inbounds %"class.icu_75::VTimeZone", ptr %this, i64 0, i32 3
  %tzurl2 = getelementptr inbounds %"class.icu_75::VTimeZone", ptr %source, i64 0, i32 3
  tail call void @llvm.memset.p0.i64(ptr noundef nonnull align 8 dereferenceable(16) %tz, i8 0, i64 16, i1 false)
  invoke void @_ZN6icu_7513UnicodeStringC1ERKS0_(ptr noundef nonnull align 8 dereferenceable(64) %tzurl, ptr noundef nonnull align 8 dereferenceable(64) %tzurl2)
          to label %invoke.cont unwind label %lpad

invoke.cont:                                      ; preds = %entry
  %lastmod = getelementptr inbounds %"class.icu_75::VTimeZone", ptr %this, i64 0, i32 4
  %lastmod3 = getelementptr inbounds %"class.icu_75::VTimeZone", ptr %source, i64 0, i32 4
  %0 = load double, ptr %lastmod3, align 8
  store double %0, ptr %lastmod, align 8
  %olsonzid = getelementptr inbounds %"class.icu_75::VTimeZone", ptr %this, i64 0, i32 5
  %olsonzid4 = getelementptr inbounds %"class.icu_75::VTimeZone", ptr %source, i64 0, i32 5
  invoke void @_ZN6icu_7513UnicodeStringC1ERKS0_(ptr noundef nonnull align 8 dereferenceable(64) %olsonzid, ptr noundef nonnull align 8 dereferenceable(64) %olsonzid4)
          to label %invoke.cont6 unwind label %lpad5

invoke.cont6:                                     ; preds = %invoke.cont
  %icutzver = getelementptr inbounds %"class.icu_75::VTimeZone", ptr %this, i64 0, i32 6
  %icutzver7 = getelementptr inbounds %"class.icu_75::VTimeZone", ptr %source, i64 0, i32 6
  invoke void @_ZN6icu_7513UnicodeStringC1ERKS0_(ptr noundef nonnull align 8 dereferenceable(64) %icutzver, ptr noundef nonnull align 8 dereferenceable(64) %icutzver7)
          to label %invoke.cont9 unwind label %lpad8

invoke.cont9:                                     ; preds = %invoke.cont6
  %tz10 = getelementptr inbounds %"class.icu_75::VTimeZone", ptr %source, i64 0, i32 1
  %1 = load ptr, ptr %tz10, align 8
  %cmp.not = icmp eq ptr %1, null
  br i1 %cmp.not, label %if.end, label %if.then

if.then:                                          ; preds = %invoke.cont9
  %vtable = load ptr, ptr %1, align 8
  %vfn = getelementptr inbounds ptr, ptr %vtable, i64 12
  %2 = load ptr, ptr %vfn, align 8
  %call = invoke noundef ptr %2(ptr noundef nonnull align 8 dereferenceable(72) %1)
          to label %invoke.cont13 unwind label %lpad12

invoke.cont13:                                    ; preds = %if.then
  store ptr %call, ptr %tz, align 8
  br label %if.end

lpad:                                             ; preds = %entry
  %3 = landingpad { ptr, i32 }
          cleanup
  br label %ehcleanup53

lpad5:                                            ; preds = %invoke.cont
  %4 = landingpad { ptr, i32 }
          cleanup
  br label %ehcleanup52

lpad8:                                            ; preds = %invoke.cont6
  %5 = landingpad { ptr, i32 }
          cleanup
  br label %ehcleanup51

lpad12:                                           ; preds = %if.then
  %6 = landingpad { ptr, i32 }
          cleanup
  br label %ehcleanup

if.end:                                           ; preds = %invoke.cont13, %invoke.cont9
  %vtzlines15 = getelementptr inbounds %"class.icu_75::VTimeZone", ptr %source, i64 0, i32 2
  %7 = load ptr, ptr %vtzlines15, align 8
  %cmp16.not = icmp eq ptr %7, null
  br i1 %cmp16.not, label %if.end50, label %if.then17

if.then17:                                        ; preds = %if.end
  store i32 0, ptr %status, align 4
  %count.i = getelementptr inbounds %"class.icu_75::UVector", ptr %7, i64 0, i32 1
  %8 = load i32, ptr %count.i, align 8
  %call21 = tail call noundef ptr @_ZN6icu_757UMemorynwEm(i64 noundef 40) #15
  %new.isnull = icmp eq ptr %call21, null
  br i1 %new.isnull, label %if.end50, label %new.notnull

new.notnull:                                      ; preds = %if.then17
  invoke void @_ZN6icu_757UVectorC1EPFvPvEPFa8UElementS4_EiR10UErrorCode(ptr noundef nonnull align 8 dereferenceable(40) %call21, ptr noundef nonnull @uprv_deleteUObject_75, ptr noundef nonnull @uhash_compareUnicodeString_75, i32 noundef %8, ptr noundef nonnull align 4 dereferenceable(4) %status)
          to label %invoke.cont24 unwind label %lpad22

invoke.cont24:                                    ; preds = %new.notnull
  %.pre = load i32, ptr %status, align 4
  %9 = icmp slt i32 %.pre, 1
  br i1 %9, label %for.cond.preheader, label %delete.notnull.i22

for.cond.preheader:                               ; preds = %invoke.cont24
  %cmp3034 = icmp sgt i32 %8, 0
  br i1 %cmp3034, label %for.body, label %cleanup.thread

lpad22:                                           ; preds = %new.notnull
  %10 = landingpad { ptr, i32 }
          cleanup
  call void @_ZN6icu_757UMemorydlEPv(ptr noundef nonnull %call21) #15
  br label %ehcleanup

lpad25:                                           ; preds = %invoke.cont36, %invoke.cont32, %for.body
  %11 = landingpad { ptr, i32 }
          cleanup
  br i1 %new.isnull, label %ehcleanup, label %delete.notnull.i

delete.notnull.i:                                 ; preds = %lpad25
  %vtable.i = load ptr, ptr %call21, align 8
  %vfn.i = getelementptr inbounds ptr, ptr %vtable.i, i64 1
  %12 = load ptr, ptr %vfn.i, align 8
  call void %12(ptr noundef nonnull align 8 dereferenceable(40) %call21) #15
  br label %ehcleanup

for.cond:                                         ; preds = %invoke.cont40
  %inc = add nuw nsw i32 %i.035, 1
  %exitcond.not = icmp eq i32 %inc, %8
  br i1 %exitcond.not, label %cleanup.thread, label %for.body, !llvm.loop !5

for.body:                                         ; preds = %for.cond.preheader, %for.cond
  %i.035 = phi i32 [ %inc, %for.cond ], [ 0, %for.cond.preheader ]
  %13 = load ptr, ptr %vtzlines15, align 8
  %call33 = invoke noundef ptr @_ZNK6icu_757UVector9elementAtEi(ptr noundef nonnull align 8 dereferenceable(40) %13, i32 noundef %i.035)
          to label %invoke.cont32 unwind label %lpad25

invoke.cont32:                                    ; preds = %for.body
  %vtable34 = load ptr, ptr %call33, align 8
  %vfn35 = getelementptr inbounds ptr, ptr %vtable34, i64 7
  %14 = load ptr, ptr %vfn35, align 8
  %call37 = invoke noundef ptr %14(ptr noundef nonnull align 8 dereferenceable(64) %call33)
          to label %invoke.cont36 unwind label %lpad25

invoke.cont36:                                    ; preds = %invoke.cont32
  invoke void @_ZN6icu_757UVector12adoptElementEPvR10UErrorCode(ptr noundef nonnull align 8 dereferenceable(40) %call21, ptr noundef %call37, ptr noundef nonnull align 4 dereferenceable(4) %status)
          to label %invoke.cont40 unwind label %lpad25

invoke.cont40:                                    ; preds = %invoke.cont36
  %15 = load i32, ptr %status, align 4
  %cmp.i19 = icmp sgt i32 %15, 0
  %cmp44 = icmp eq ptr %call37, null
  %or.cond = or i1 %cmp44, %cmp.i19
  br i1 %or.cond, label %cleanup, label %for.cond

cleanup.thread:                                   ; preds = %for.cond, %for.cond.preheader
  store ptr %call21, ptr %vtzlines, align 8
  br label %if.end50

cleanup:                                          ; preds = %invoke.cont40
  br i1 %new.isnull, label %if.end50, label %delete.notnull.i22

delete.notnull.i22:                               ; preds = %invoke.cont24, %cleanup
  %vtable.i23 = load ptr, ptr %call21, align 8
  %vfn.i24 = getelementptr inbounds ptr, ptr %vtable.i23, i64 1
  %16 = load ptr, ptr %vfn.i24, align 8
  call void %16(ptr noundef nonnull align 8 dereferenceable(40) %call21) #15
  br label %if.end50

if.end50:                                         ; preds = %if.then17, %delete.notnull.i22, %cleanup, %cleanup.thread, %if.end
  ret void

ehcleanup:                                        ; preds = %delete.notnull.i, %lpad25, %lpad22, %lpad12
  %.pn = phi { ptr, i32 } [ %6, %lpad12 ], [ %10, %lpad22 ], [ %11, %lpad25 ], [ %11, %delete.notnull.i ]
  call void @_ZN6icu_7513UnicodeStringD1Ev(ptr noundef nonnull align 8 dereferenceable(64) %icutzver) #15
  br label %ehcleanup51

ehcleanup51:                                      ; preds = %ehcleanup, %lpad8
  %.pn.pn = phi { ptr, i32 } [ %.pn, %ehcleanup ], [ %5, %lpad8 ]
  call void @_ZN6icu_7513UnicodeStringD1Ev(ptr noundef nonnull align 8 dereferenceable(64) %olsonzid) #15
  br label %ehcleanup52

ehcleanup52:                                      ; preds = %ehcleanup51, %lpad5
  %.pn.pn.pn = phi { ptr, i32 } [ %.pn.pn, %ehcleanup51 ], [ %4, %lpad5 ]
  call void @_ZN6icu_7513UnicodeStringD1Ev(ptr noundef nonnull align 8 dereferenceable(64) %tzurl) #15
  br label %ehcleanup53

ehcleanup53:                                      ; preds = %ehcleanup52, %lpad
  %.pn.pn.pn.pn = phi { ptr, i32 } [ %.pn.pn.pn, %ehcleanup52 ], [ %3, %lpad ]
  call void @_ZN6icu_7513BasicTimeZoneD2Ev(ptr noundef nonnull align 8 dereferenceable(72) %this) #15
  resume { ptr, i32 } %.pn.pn.pn.pn
}

declare void @_ZN6icu_7513BasicTimeZoneC2ERKS0_(ptr noundef nonnull align 8 dereferenceable(72), ptr noundef nonnull align 8 dereferenceable(72)) unnamed_addr #4

declare void @_ZN6icu_7513UnicodeStringC1ERKS0_(ptr noundef nonnull align 8 dereferenceable(64), ptr noundef nonnull align 8 dereferenceable(64)) unnamed_addr #4

; Function Attrs: nounwind
declare noundef ptr @_ZN6icu_757UMemorynwEm(i64 noundef) local_unnamed_addr #5

declare void @uprv_deleteUObject_75(ptr noundef) #4

declare signext i8 @uhash_compareUnicodeString_75(ptr, ptr) #4

declare void @_ZN6icu_757UVectorC1EPFvPvEPFa8UElementS4_EiR10UErrorCode(ptr noundef nonnull align 8 dereferenceable(40), ptr noundef, ptr noundef, i32 noundef, ptr noundef nonnull align 4 dereferenceable(4)) unnamed_addr #4

; Function Attrs: nounwind
declare void @_ZN6icu_757UMemorydlEPv(ptr noundef) local_unnamed_addr #5

declare noundef ptr @_ZNK6icu_757UVector9elementAtEi(ptr noundef nonnull align 8 dereferenceable(40), i32 noundef) local_unnamed_addr #4

declare void @_ZN6icu_757UVector12adoptElementEPvR10UErrorCode(ptr noundef nonnull align 8 dereferenceable(40), ptr noundef, ptr noundef nonnull align 4 dereferenceable(4)) local_unnamed_addr #4

; Function Attrs: mustprogress nounwind uwtable
define void @_ZN6icu_759VTimeZoneD2Ev(ptr noundef nonnull align 8 dereferenceable(288) %this) unnamed_addr #6 align 2 {
entry:
  store ptr getelementptr inbounds ({ [24 x ptr] }, ptr @_ZTVN6icu_759VTimeZoneE, i64 0, inrange i32 0, i64 2), ptr %this, align 8
  %tz = getelementptr inbounds %"class.icu_75::VTimeZone", ptr %this, i64 0, i32 1
  %0 = load ptr, ptr %tz, align 8
  %cmp.not = icmp eq ptr %0, null
  br i1 %cmp.not, label %if.end, label %delete.notnull

delete.notnull:                                   ; preds = %entry
  %vtable = load ptr, ptr %0, align 8
  %vfn = getelementptr inbounds ptr, ptr %vtable, i64 1
  %1 = load ptr, ptr %vfn, align 8
  tail call void %1(ptr noundef nonnull align 8 dereferenceable(72) %0) #15
  br label %if.end

if.end:                                           ; preds = %delete.notnull, %entry
  %vtzlines = getelementptr inbounds %"class.icu_75::VTimeZone", ptr %this, i64 0, i32 2
  %2 = load ptr, ptr %vtzlines, align 8
  %cmp3.not = icmp eq ptr %2, null
  br i1 %cmp3.not, label %if.end11, label %delete.notnull7

delete.notnull7:                                  ; preds = %if.end
  %vtable8 = load ptr, ptr %2, align 8
  %vfn9 = getelementptr inbounds ptr, ptr %vtable8, i64 1
  %3 = load ptr, ptr %vfn9, align 8
  tail call void %3(ptr noundef nonnull align 8 dereferenceable(40) %2) #15
  br label %if.end11

if.end11:                                         ; preds = %delete.notnull7, %if.end
  %icutzver = getelementptr inbounds %"class.icu_75::VTimeZone", ptr %this, i64 0, i32 6
  tail call void @_ZN6icu_7513UnicodeStringD1Ev(ptr noundef nonnull align 8 dereferenceable(64) %icutzver) #15
  %olsonzid = getelementptr inbounds %"class.icu_75::VTimeZone", ptr %this, i64 0, i32 5
  tail call void @_ZN6icu_7513UnicodeStringD1Ev(ptr noundef nonnull align 8 dereferenceable(64) %olsonzid) #15
  %tzurl = getelementptr inbounds %"class.icu_75::VTimeZone", ptr %this, i64 0, i32 3
  tail call void @_ZN6icu_7513UnicodeStringD1Ev(ptr noundef nonnull align 8 dereferenceable(64) %tzurl) #15
  tail call void @_ZN6icu_7513BasicTimeZoneD2Ev(ptr noundef nonnull align 8 dereferenceable(72) %this) #15
  ret void
}

; Function Attrs: mustprogress nounwind uwtable
define void @_ZN6icu_759VTimeZoneD0Ev(ptr noundef nonnull align 8 dereferenceable(288) %this) unnamed_addr #6 align 2 {
entry:
  tail call void @_ZN6icu_759VTimeZoneD1Ev(ptr noundef nonnull align 8 dereferenceable(288) %this) #15
  tail call void @_ZN6icu_757UMemorydlEPv(ptr noundef nonnull %this) #15
  ret void
}

; Function Attrs: mustprogress uwtable
define noundef nonnull align 8 dereferenceable(288) ptr @_ZN6icu_759VTimeZoneaSERKS0_(ptr noundef nonnull returned align 8 dereferenceable(288) %this, ptr noundef nonnull align 8 dereferenceable(288) %right) local_unnamed_addr #2 align 2 personality ptr @__gxx_personality_v0 {
entry:
  %status = alloca i32, align 4
  %cmp = icmp eq ptr %this, %right
  br i1 %cmp, label %return, label %if.end

if.end:                                           ; preds = %entry
  %vtable = load ptr, ptr %this, align 8
  %vfn = getelementptr inbounds ptr, ptr %vtable, i64 21
  %0 = load ptr, ptr %vfn, align 8
  %call = tail call noundef zeroext i1 %0(ptr noundef nonnull align 8 dereferenceable(288) %this, ptr noundef nonnull align 8 dereferenceable(72) %right)
  br i1 %call, label %if.then2, label %return

if.then2:                                         ; preds = %if.end
  %call.i = tail call noundef nonnull align 8 dereferenceable(72) ptr @_ZN6icu_758TimeZoneaSERKS0_(ptr noundef nonnull align 8 dereferenceable(72) %this, ptr noundef nonnull align 8 dereferenceable(72) %right)
  %tz = getelementptr inbounds %"class.icu_75::VTimeZone", ptr %this, i64 0, i32 1
  %1 = load ptr, ptr %tz, align 8
  %cmp4.not = icmp eq ptr %1, null
  br i1 %cmp4.not, label %if.end10, label %delete.notnull

delete.notnull:                                   ; preds = %if.then2
  %vtable7 = load ptr, ptr %1, align 8
  %vfn8 = getelementptr inbounds ptr, ptr %vtable7, i64 1
  %2 = load ptr, ptr %vfn8, align 8
  tail call void %2(ptr noundef nonnull align 8 dereferenceable(72) %1) #15
  store ptr null, ptr %tz, align 8
  br label %if.end10

if.end10:                                         ; preds = %delete.notnull, %if.then2
  %tz11 = getelementptr inbounds %"class.icu_75::VTimeZone", ptr %right, i64 0, i32 1
  %3 = load ptr, ptr %tz11, align 8
  %cmp12.not = icmp eq ptr %3, null
  br i1 %cmp12.not, label %if.end19, label %if.then13

if.then13:                                        ; preds = %if.end10
  %vtable15 = load ptr, ptr %3, align 8
  %vfn16 = getelementptr inbounds ptr, ptr %vtable15, i64 12
  %4 = load ptr, ptr %vfn16, align 8
  %call17 = tail call noundef ptr %4(ptr noundef nonnull align 8 dereferenceable(72) %3)
  store ptr %call17, ptr %tz, align 8
  br label %if.end19

if.end19:                                         ; preds = %if.then13, %if.end10
  %vtzlines = getelementptr inbounds %"class.icu_75::VTimeZone", ptr %this, i64 0, i32 2
  %5 = load ptr, ptr %vtzlines, align 8
  %cmp20.not = icmp eq ptr %5, null
  br i1 %cmp20.not, label %if.end29, label %delete.notnull24

delete.notnull24:                                 ; preds = %if.end19
  %vtable25 = load ptr, ptr %5, align 8
  %vfn26 = getelementptr inbounds ptr, ptr %vtable25, i64 1
  %6 = load ptr, ptr %vfn26, align 8
  tail call void %6(ptr noundef nonnull align 8 dereferenceable(40) %5) #15
  store ptr null, ptr %vtzlines, align 8
  br label %if.end29

if.end29:                                         ; preds = %delete.notnull24, %if.end19
  %vtzlines30 = getelementptr inbounds %"class.icu_75::VTimeZone", ptr %right, i64 0, i32 2
  %7 = load ptr, ptr %vtzlines30, align 8
  %cmp31.not = icmp eq ptr %7, null
  br i1 %cmp31.not, label %if.end69, label %if.then32

if.then32:                                        ; preds = %if.end29
  store i32 0, ptr %status, align 4
  %count.i = getelementptr inbounds %"class.icu_75::UVector", ptr %7, i64 0, i32 1
  %8 = load i32, ptr %count.i, align 8
  %call35 = tail call noundef ptr @_ZN6icu_757UMemorynwEm(i64 noundef 40) #15
  %new.isnull = icmp eq ptr %call35, null
  br i1 %new.isnull, label %if.end68.thread57, label %new.notnull

new.notnull:                                      ; preds = %if.then32
  invoke void @_ZN6icu_757UVectorC1EPFvPvEPFa8UElementS4_EiR10UErrorCode(ptr noundef nonnull align 8 dereferenceable(40) %call35, ptr noundef nonnull @uprv_deleteUObject_75, ptr noundef nonnull @uhash_compareUnicodeString_75, i32 noundef %8, ptr noundef nonnull align 4 dereferenceable(4) %status)
          to label %_ZN6icu_7512LocalPointerINS_7UVectorEEC2EPS1_R10UErrorCode.exit unwind label %lpad

if.end68.thread57:                                ; preds = %if.then32
  store i32 7, ptr %status, align 4
  br label %if.end69

_ZN6icu_7512LocalPointerINS_7UVectorEEC2EPS1_R10UErrorCode.exit: ; preds = %new.notnull
  %.pre = load i32, ptr %status, align 4
  %9 = icmp sgt i32 %.pre, 0
  br i1 %9, label %delete.notnull.i34, label %for.cond.preheader

for.cond.preheader:                               ; preds = %_ZN6icu_7512LocalPointerINS_7UVectorEEC2EPS1_R10UErrorCode.exit
  %cmp4052 = icmp sgt i32 %8, 0
  br i1 %cmp4052, label %for.body, label %if.end68.thread

for.cond:                                         ; preds = %_ZN6icu_7512LocalPointerINS_13UnicodeStringEED2Ev.exit
  %inc = add nuw nsw i32 %i.053, 1
  %exitcond.not = icmp eq i32 %inc, %8
  br i1 %exitcond.not, label %if.end68.thread, label %for.body, !llvm.loop !7

for.body:                                         ; preds = %for.cond.preheader, %for.cond
  %i.053 = phi i32 [ %inc, %for.cond ], [ 0, %for.cond.preheader ]
  %10 = load ptr, ptr %vtzlines30, align 8
  %call43 = invoke noundef ptr @_ZNK6icu_757UVector9elementAtEi(ptr noundef nonnull align 8 dereferenceable(40) %10, i32 noundef %i.053)
          to label %invoke.cont42 unwind label %lpad36

invoke.cont42:                                    ; preds = %for.body
  %vtable44 = load ptr, ptr %call43, align 8
  %vfn45 = getelementptr inbounds ptr, ptr %vtable44, i64 7
  %11 = load ptr, ptr %vfn45, align 8
  %call47 = invoke noundef ptr %11(ptr noundef nonnull align 8 dereferenceable(64) %call43)
          to label %invoke.cont46 unwind label %lpad36

invoke.cont46:                                    ; preds = %invoke.cont42
  %cmp.i20 = icmp ne ptr %call47, null
  %12 = load i32, ptr %status, align 4
  %cmp.i.i21 = icmp sgt i32 %12, 0
  %or.cond.i22 = select i1 %cmp.i20, i1 true, i1 %cmp.i.i21
  br i1 %or.cond.i22, label %invoke.cont48, label %if.then.i23

if.then.i23:                                      ; preds = %invoke.cont46
  store i32 7, ptr %status, align 4
  br label %invoke.cont48

invoke.cont48:                                    ; preds = %if.then.i23, %invoke.cont46
  invoke void @_ZN6icu_757UVector12adoptElementEPvR10UErrorCode(ptr noundef nonnull align 8 dereferenceable(40) %call35, ptr noundef %call47, ptr noundef nonnull align 4 dereferenceable(4) %status)
          to label %_ZN6icu_7512LocalPointerINS_13UnicodeStringEED2Ev.exit unwind label %_ZN6icu_7512LocalPointerINS_13UnicodeStringEED2Ev.exit30

_ZN6icu_7512LocalPointerINS_13UnicodeStringEED2Ev.exit: ; preds = %invoke.cont48
  %13 = load i32, ptr %status, align 4
  %cmp.i24 = icmp slt i32 %13, 1
  br i1 %cmp.i24, label %for.cond, label %if.end68

lpad:                                             ; preds = %new.notnull
  %14 = landingpad { ptr, i32 }
          cleanup
  call void @_ZN6icu_757UMemorydlEPv(ptr noundef nonnull %call35) #15
  br label %eh.resume

lpad36:                                           ; preds = %invoke.cont42, %for.body
  %15 = landingpad { ptr, i32 }
          cleanup
  br label %ehcleanup

_ZN6icu_7512LocalPointerINS_13UnicodeStringEED2Ev.exit30: ; preds = %invoke.cont48
  %16 = landingpad { ptr, i32 }
          cleanup
  br label %ehcleanup

if.end68.thread:                                  ; preds = %for.cond, %for.cond.preheader
  store ptr %call35, ptr %vtzlines, align 8
  br label %if.end69

if.end68:                                         ; preds = %_ZN6icu_7512LocalPointerINS_13UnicodeStringEED2Ev.exit
  br i1 %new.isnull, label %if.end69, label %delete.notnull.i34

delete.notnull.i34:                               ; preds = %_ZN6icu_7512LocalPointerINS_7UVectorEEC2EPS1_R10UErrorCode.exit, %if.end68
  %vtable.i35 = load ptr, ptr %call35, align 8
  %vfn.i36 = getelementptr inbounds ptr, ptr %vtable.i35, i64 1
  %17 = load ptr, ptr %vfn.i36, align 8
  call void %17(ptr noundef nonnull align 8 dereferenceable(40) %call35) #15
  br label %if.end69

ehcleanup:                                        ; preds = %_ZN6icu_7512LocalPointerINS_13UnicodeStringEED2Ev.exit30, %lpad36
  %.pn = phi { ptr, i32 } [ %16, %_ZN6icu_7512LocalPointerINS_13UnicodeStringEED2Ev.exit30 ], [ %15, %lpad36 ]
  br i1 %new.isnull, label %eh.resume, label %delete.notnull.i38

delete.notnull.i38:                               ; preds = %ehcleanup
  %vtable.i39 = load ptr, ptr %call35, align 8
  %vfn.i40 = getelementptr inbounds ptr, ptr %vtable.i39, i64 1
  %18 = load ptr, ptr %vfn.i40, align 8
  call void %18(ptr noundef nonnull align 8 dereferenceable(40) %call35) #15
  br label %eh.resume

if.end69:                                         ; preds = %if.end68.thread57, %delete.notnull.i34, %if.end68, %if.end68.thread, %if.end29
  %tzurl = getelementptr inbounds %"class.icu_75::VTimeZone", ptr %right, i64 0, i32 3
  %tzurl70 = getelementptr inbounds %"class.icu_75::VTimeZone", ptr %this, i64 0, i32 3
  %call71 = call noundef nonnull align 8 dereferenceable(64) ptr @_ZN6icu_7513UnicodeStringaSERKS0_(ptr noundef nonnull align 8 dereferenceable(64) %tzurl70, ptr noundef nonnull align 8 dereferenceable(64) %tzurl)
  %lastmod = getelementptr inbounds %"class.icu_75::VTimeZone", ptr %right, i64 0, i32 4
  %19 = load double, ptr %lastmod, align 8
  %lastmod72 = getelementptr inbounds %"class.icu_75::VTimeZone", ptr %this, i64 0, i32 4
  store double %19, ptr %lastmod72, align 8
  %olsonzid = getelementptr inbounds %"class.icu_75::VTimeZone", ptr %right, i64 0, i32 5
  %olsonzid73 = getelementptr inbounds %"class.icu_75::VTimeZone", ptr %this, i64 0, i32 5
  %call74 = call noundef nonnull align 8 dereferenceable(64) ptr @_ZN6icu_7513UnicodeStringaSERKS0_(ptr noundef nonnull align 8 dereferenceable(64) %olsonzid73, ptr noundef nonnull align 8 dereferenceable(64) %olsonzid)
  %icutzver = getelementptr inbounds %"class.icu_75::VTimeZone", ptr %right, i64 0, i32 6
  %icutzver75 = getelementptr inbounds %"class.icu_75::VTimeZone", ptr %this, i64 0, i32 6
  %call76 = call noundef nonnull align 8 dereferenceable(64) ptr @_ZN6icu_7513UnicodeStringaSERKS0_(ptr noundef nonnull align 8 dereferenceable(64) %icutzver75, ptr noundef nonnull align 8 dereferenceable(64) %icutzver)
  br label %return

return:                                           ; preds = %if.end, %if.end69, %entry
  ret ptr %this

eh.resume:                                        ; preds = %delete.notnull.i38, %ehcleanup, %lpad
  %.pn.pn = phi { ptr, i32 } [ %14, %lpad ], [ %.pn, %ehcleanup ], [ %.pn, %delete.notnull.i38 ]
  resume { ptr, i32 } %.pn.pn
}

declare noundef nonnull align 8 dereferenceable(64) ptr @_ZN6icu_7513UnicodeStringaSERKS0_(ptr noundef nonnull align 8 dereferenceable(64), ptr noundef nonnull align 8 dereferenceable(64)) local_unnamed_addr #4

; Function Attrs: mustprogress uwtable
define noundef zeroext i1 @_ZNK6icu_759VTimeZoneeqERKNS_8TimeZoneE(ptr noundef nonnull align 8 dereferenceable(288) %this, ptr noundef nonnull align 8 dereferenceable(72) %that) unnamed_addr #2 align 2 {
entry:
  %cmp = icmp eq ptr %this, %that
  br i1 %cmp, label %return, label %typeid.end

typeid.end:                                       ; preds = %entry
  %vtable = load ptr, ptr %this, align 8
  %0 = getelementptr inbounds ptr, ptr %vtable, i64 -1
  %1 = load ptr, ptr %0, align 8
  %vtable2 = load ptr, ptr %that, align 8
  %2 = getelementptr inbounds ptr, ptr %vtable2, i64 -1
  %3 = load ptr, ptr %2, align 8
  %__name.i.i = getelementptr inbounds %"class.std::type_info", ptr %1, i64 0, i32 1
  %4 = load ptr, ptr %__name.i.i, align 8
  %__name2.i.i = getelementptr inbounds %"class.std::type_info", ptr %3, i64 0, i32 1
  %5 = load ptr, ptr %__name2.i.i, align 8
  %cmp.i.i = icmp eq ptr %4, %5
  br i1 %cmp.i.i, label %lor.lhs.false, label %if.end.i.i

if.end.i.i:                                       ; preds = %typeid.end
  %6 = load i8, ptr %4, align 1
  %cmp4.not.i.i = icmp eq i8 %6, 42
  br i1 %cmp4.not.i.i, label %return, label %_ZNKSt9type_infoneERKS_.exit

_ZNKSt9type_infoneERKS_.exit:                     ; preds = %if.end.i.i
  %7 = load i8, ptr %5, align 1
  %cmp.i.i.i = icmp eq i8 %7, 42
  %cond.idx.i.i.i = zext i1 %cmp.i.i.i to i64
  %cond.i.i.i = getelementptr inbounds i8, ptr %5, i64 %cond.idx.i.i.i
  %call6.i.i = tail call i32 @strcmp(ptr noundef nonnull dereferenceable(1) %4, ptr noundef nonnull dereferenceable(1) %cond.i.i.i) #15
  %cmp7.i.i.not = icmp eq i32 %call6.i.i, 0
  br i1 %cmp7.i.i.not, label %lor.lhs.false, label %return

lor.lhs.false:                                    ; preds = %typeid.end, %_ZNKSt9type_infoneERKS_.exit
  %call3 = tail call noundef zeroext i1 @_ZNK6icu_758TimeZoneeqERKS0_(ptr noundef nonnull align 8 dereferenceable(72) %this, ptr noundef nonnull align 8 dereferenceable(72) %that)
  br i1 %call3, label %if.end5, label %return

if.end5:                                          ; preds = %lor.lhs.false
  %tz = getelementptr inbounds %"class.icu_75::VTimeZone", ptr %this, i64 0, i32 1
  %8 = load ptr, ptr %tz, align 8
  %tz6 = getelementptr inbounds %"class.icu_75::VTimeZone", ptr %that, i64 0, i32 1
  %9 = load ptr, ptr %tz6, align 8
  %vtable7 = load ptr, ptr %8, align 8
  %vfn = getelementptr inbounds ptr, ptr %vtable7, i64 3
  %10 = load ptr, ptr %vfn, align 8
  %call8 = tail call noundef zeroext i1 %10(ptr noundef nonnull align 8 dereferenceable(72) %8, ptr noundef nonnull align 8 dereferenceable(72) %9)
  br i1 %call8, label %land.lhs.true, label %if.end15

land.lhs.true:                                    ; preds = %if.end5
  %tzurl = getelementptr inbounds %"class.icu_75::VTimeZone", ptr %this, i64 0, i32 3
  %tzurl9 = getelementptr inbounds %"class.icu_75::VTimeZone", ptr %that, i64 0, i32 3
  %fUnion.i.i = getelementptr inbounds %"class.icu_75::VTimeZone", ptr %this, i64 0, i32 3, i32 1
  %11 = load i16, ptr %fUnion.i.i, align 8
  %conv2.i14.i = and i16 %11, 1
  %tobool.not.i = icmp eq i16 %conv2.i14.i, 0
  br i1 %tobool.not.i, label %if.else.i, label %if.then.i

if.then.i:                                        ; preds = %land.lhs.true
  %fUnion.i5.i = getelementptr inbounds %"class.icu_75::VTimeZone", ptr %that, i64 0, i32 3, i32 1
  %12 = load i16, ptr %fUnion.i5.i, align 8
  %conv2.i615.i = and i16 %12, 1
  %tobool3.i.not = icmp eq i16 %conv2.i615.i, 0
  br i1 %tobool3.i.not, label %if.end15, label %land.lhs.true11

if.else.i:                                        ; preds = %land.lhs.true
  %cmp.i.i.i6 = icmp slt i16 %11, 0
  %13 = ashr i16 %11, 5
  %shr.i.i.i = sext i16 %13 to i32
  %fLength.i.i = getelementptr inbounds %"class.icu_75::VTimeZone", ptr %this, i64 0, i32 3, i32 1, i32 0, i32 1
  %14 = load i32, ptr %fLength.i.i, align 4
  %cond.i.i = select i1 %cmp.i.i.i6, i32 %14, i32 %shr.i.i.i
  %fUnion.i.i7.i = getelementptr inbounds %"class.icu_75::VTimeZone", ptr %that, i64 0, i32 3, i32 1
  %15 = load i16, ptr %fUnion.i.i7.i, align 8
  %cmp.i.i8.i = icmp slt i16 %15, 0
  %16 = ashr i16 %15, 5
  %shr.i.i9.i = sext i16 %16 to i32
  %fLength.i10.i = getelementptr inbounds %"class.icu_75::VTimeZone", ptr %that, i64 0, i32 3, i32 1, i32 0, i32 1
  %17 = load i32, ptr %fLength.i10.i, align 4
  %cond.i11.i = select i1 %cmp.i.i8.i, i32 %17, i32 %shr.i.i9.i
  %conv2.i1316.i = and i16 %15, 1
  %tobool7.not.i = icmp eq i16 %conv2.i1316.i, 0
  %cmp.i = icmp eq i32 %cond.i.i, %cond.i11.i
  %or.cond.i = and i1 %tobool7.not.i, %cmp.i
  br i1 %or.cond.i, label %_ZNK6icu_7513UnicodeStringeqERKS0_.exit, label %if.end15

_ZNK6icu_7513UnicodeStringeqERKS0_.exit:          ; preds = %if.else.i
  %call8.i = tail call noundef signext i8 @_ZNK6icu_7513UnicodeString8doEqualsERKS0_i(ptr noundef nonnull align 8 dereferenceable(64) %tzurl, ptr noundef nonnull align 8 dereferenceable(64) %tzurl9, i32 noundef %cond.i.i)
  %tobool9.i.not = icmp eq i8 %call8.i, 0
  br i1 %tobool9.i.not, label %if.end15, label %land.lhs.true11

land.lhs.true11:                                  ; preds = %if.then.i, %_ZNK6icu_7513UnicodeStringeqERKS0_.exit
  %lastmod = getelementptr inbounds %"class.icu_75::VTimeZone", ptr %this, i64 0, i32 4
  %18 = load double, ptr %lastmod, align 8
  %lastmod12 = getelementptr inbounds %"class.icu_75::VTimeZone", ptr %that, i64 0, i32 4
  %19 = load double, ptr %lastmod12, align 8
  %cmp13 = fcmp oeq double %18, %19
  br i1 %cmp13, label %return, label %if.end15

if.end15:                                         ; preds = %if.else.i, %if.then.i, %land.lhs.true11, %_ZNK6icu_7513UnicodeStringeqERKS0_.exit, %if.end5
  br label %return

return:                                           ; preds = %if.end.i.i, %land.lhs.true11, %_ZNKSt9type_infoneERKS_.exit, %lor.lhs.false, %entry, %if.end15
  %retval.0 = phi i1 [ false, %if.end15 ], [ true, %entry ], [ false, %lor.lhs.false ], [ false, %_ZNKSt9type_infoneERKS_.exit ], [ true, %land.lhs.true11 ], [ false, %if.end.i.i ]
  ret i1 %retval.0
}

declare noundef zeroext i1 @_ZNK6icu_758TimeZoneeqERKS0_(ptr noundef nonnull align 8 dereferenceable(72), ptr noundef nonnull align 8 dereferenceable(72)) unnamed_addr #4

; Function Attrs: mustprogress uwtable
define noundef zeroext i1 @_ZNK6icu_759VTimeZoneneERKNS_8TimeZoneE(ptr noundef nonnull align 8 dereferenceable(288) %this, ptr noundef nonnull align 8 dereferenceable(72) %that) unnamed_addr #2 align 2 {
entry:
  %vtable = load ptr, ptr %this, align 8
  %vfn = getelementptr inbounds ptr, ptr %vtable, i64 3
  %0 = load ptr, ptr %vfn, align 8
  %call = tail call noundef zeroext i1 %0(ptr noundef nonnull align 8 dereferenceable(288) %this, ptr noundef nonnull align 8 dereferenceable(72) %that)
  %lnot = xor i1 %call, true
  ret i1 %lnot
}

; Function Attrs: mustprogress uwtable
define noundef ptr @_ZN6icu_759VTimeZone19createVTimeZoneByIDERKNS_13UnicodeStringE(ptr noundef nonnull align 8 dereferenceable(64) %ID) local_unnamed_addr #2 align 2 personality ptr @__gxx_personality_v0 {
entry:
  %status = alloca i32, align 4
  %len = alloca i32, align 4
  %call = tail call noundef ptr @_ZN6icu_757UMemorynwEm(i64 noundef 288) #15
  %new.isnull = icmp eq ptr %call, null
  br i1 %new.isnull, label %return, label %new.notnull

new.notnull:                                      ; preds = %entry
  invoke void @_ZN6icu_759VTimeZoneC1Ev(ptr noundef nonnull align 8 dereferenceable(288) %call)
          to label %if.end unwind label %lpad

lpad:                                             ; preds = %new.notnull
  %0 = landingpad { ptr, i32 }
          cleanup
  tail call void @_ZN6icu_757UMemorydlEPv(ptr noundef nonnull %call) #15
  resume { ptr, i32 } %0

if.end:                                           ; preds = %new.notnull
  %call1 = tail call noundef ptr @_ZN6icu_758TimeZone14createTimeZoneERKNS_13UnicodeStringE(ptr noundef nonnull align 8 dereferenceable(64) %ID)
  %tz = getelementptr inbounds %"class.icu_75::VTimeZone", ptr %call, i64 0, i32 1
  store ptr %call1, ptr %tz, align 8
  %olsonzid = getelementptr inbounds %"class.icu_75::VTimeZone", ptr %call, i64 0, i32 5
  %fID.i = getelementptr inbounds %"class.icu_75::TimeZone", ptr %call1, i64 0, i32 1
  %call.i = tail call noundef nonnull align 8 dereferenceable(64) ptr @_ZN6icu_7513UnicodeStringaSERKS0_(ptr noundef nonnull align 8 dereferenceable(64) %olsonzid, ptr noundef nonnull align 8 dereferenceable(64) %fID.i)
  store i32 0, ptr %status, align 4
  store i32 0, ptr %len, align 4
  %call4 = call ptr @ures_openDirect_75(ptr noundef null, ptr noundef nonnull @.str, ptr noundef nonnull %status)
  %call5 = call ptr @ures_getStringByKey_75(ptr noundef %call4, ptr noundef nonnull @.str.1, ptr noundef nonnull %len, ptr noundef nonnull %status)
  %1 = load i32, ptr %status, align 4
  %cmp.i = icmp sgt i32 %1, 0
  br i1 %cmp.i, label %if.end9, label %if.then7

if.then7:                                         ; preds = %if.end
  %icutzver = getelementptr inbounds %"class.icu_75::VTimeZone", ptr %call, i64 0, i32 6
  %2 = load i32, ptr %len, align 4
  call void @_ZN6icu_7513UnicodeString7unBogusEv(ptr noundef nonnull align 8 dereferenceable(64) %icutzver)
  %fUnion.i.i.i = getelementptr inbounds %"class.icu_75::VTimeZone", ptr %call, i64 0, i32 6, i32 1
  %3 = load i16, ptr %fUnion.i.i.i, align 8
  %cmp.i.i.i = icmp slt i16 %3, 0
  %4 = ashr i16 %3, 5
  %shr.i.i.i = sext i16 %4 to i32
  %fLength.i.i = getelementptr inbounds %"class.icu_75::VTimeZone", ptr %call, i64 0, i32 6, i32 1, i32 0, i32 1
  %5 = load i32, ptr %fLength.i.i, align 4
  %cond.i.i = select i1 %cmp.i.i.i, i32 %5, i32 %shr.i.i.i
  %call2.i = call noundef nonnull align 8 dereferenceable(64) ptr @_ZN6icu_7513UnicodeString9doReplaceEiiPKDsii(ptr noundef nonnull align 8 dereferenceable(64) %icutzver, i32 noundef 0, i32 noundef %cond.i.i, ptr noundef %call5, i32 noundef 0, i32 noundef %2)
  br label %if.end9

if.end9:                                          ; preds = %if.then7, %if.end
  call void @ures_close_75(ptr noundef %call4)
  br label %return

return:                                           ; preds = %entry, %if.end9
  ret ptr %call
}

declare noundef ptr @_ZN6icu_758TimeZone14createTimeZoneERKNS_13UnicodeStringE(ptr noundef nonnull align 8 dereferenceable(64)) local_unnamed_addr #4

declare ptr @ures_openDirect_75(ptr noundef, ptr noundef, ptr noundef) local_unnamed_addr #4

declare ptr @ures_getStringByKey_75(ptr noundef, ptr noundef, ptr noundef, ptr noundef) local_unnamed_addr #4

declare void @ures_close_75(ptr noundef) local_unnamed_addr #4

; Function Attrs: mustprogress uwtable
define noundef ptr @_ZN6icu_759VTimeZone32createVTimeZoneFromBasicTimeZoneERKNS_13BasicTimeZoneER10UErrorCode(ptr noundef nonnull align 8 dereferenceable(72) %basic_time_zone, ptr noundef nonnull align 4 dereferenceable(4) %status) local_unnamed_addr #2 align 2 personality ptr @__gxx_personality_v0 {
entry:
  %len = alloca i32, align 4
  %0 = load i32, ptr %status, align 4
  %cmp.i = icmp slt i32 %0, 1
  br i1 %cmp.i, label %if.end, label %return

if.end:                                           ; preds = %entry
  %call1 = tail call noundef ptr @_ZN6icu_757UMemorynwEm(i64 noundef 288) #15
  %new.isnull = icmp eq ptr %call1, null
  br i1 %new.isnull, label %if.then2, label %new.notnull

new.notnull:                                      ; preds = %if.end
  invoke void @_ZN6icu_759VTimeZoneC1Ev(ptr noundef nonnull align 8 dereferenceable(288) %call1)
          to label %if.end3 unwind label %lpad

if.then2:                                         ; preds = %if.end
  store i32 7, ptr %status, align 4
  br label %return

lpad:                                             ; preds = %new.notnull
  %1 = landingpad { ptr, i32 }
          cleanup
  tail call void @_ZN6icu_757UMemorydlEPv(ptr noundef nonnull %call1) #15
  resume { ptr, i32 } %1

if.end3:                                          ; preds = %new.notnull
  %vtable = load ptr, ptr %basic_time_zone, align 8
  %vfn = getelementptr inbounds ptr, ptr %vtable, i64 12
  %2 = load ptr, ptr %vfn, align 8
  %call4 = tail call noundef ptr %2(ptr noundef nonnull align 8 dereferenceable(72) %basic_time_zone)
  %tz = getelementptr inbounds %"class.icu_75::VTimeZone", ptr %call1, i64 0, i32 1
  store ptr %call4, ptr %tz, align 8
  %cmp6 = icmp eq ptr %call4, null
  br i1 %cmp6, label %if.then7, label %if.end10

if.then7:                                         ; preds = %if.end3
  store i32 7, ptr %status, align 4
  %vtable8 = load ptr, ptr %call1, align 8
  %vfn9 = getelementptr inbounds ptr, ptr %vtable8, i64 1
  %3 = load ptr, ptr %vfn9, align 8
  tail call void %3(ptr noundef nonnull align 8 dereferenceable(288) %call1) #15
  br label %return

if.end10:                                         ; preds = %if.end3
  %olsonzid = getelementptr inbounds %"class.icu_75::VTimeZone", ptr %call1, i64 0, i32 5
  %fID.i = getelementptr inbounds %"class.icu_75::TimeZone", ptr %call4, i64 0, i32 1
  %call.i = tail call noundef nonnull align 8 dereferenceable(64) ptr @_ZN6icu_7513UnicodeStringaSERKS0_(ptr noundef nonnull align 8 dereferenceable(64) %olsonzid, ptr noundef nonnull align 8 dereferenceable(64) %fID.i)
  store i32 0, ptr %len, align 4
  %call13 = tail call ptr @ures_openDirect_75(ptr noundef null, ptr noundef nonnull @.str, ptr noundef nonnull %status)
  %call14 = call ptr @ures_getStringByKey_75(ptr noundef %call13, ptr noundef nonnull @.str.1, ptr noundef nonnull %len, ptr noundef nonnull %status)
  %4 = load i32, ptr %status, align 4
  %cmp.i14 = icmp sgt i32 %4, 0
  br i1 %cmp.i14, label %if.end19, label %if.then17

if.then17:                                        ; preds = %if.end10
  %icutzver = getelementptr inbounds %"class.icu_75::VTimeZone", ptr %call1, i64 0, i32 6
  %5 = load i32, ptr %len, align 4
  call void @_ZN6icu_7513UnicodeString7unBogusEv(ptr noundef nonnull align 8 dereferenceable(64) %icutzver)
  %fUnion.i.i.i = getelementptr inbounds %"class.icu_75::VTimeZone", ptr %call1, i64 0, i32 6, i32 1
  %6 = load i16, ptr %fUnion.i.i.i, align 8
  %cmp.i.i.i = icmp slt i16 %6, 0
  %7 = ashr i16 %6, 5
  %shr.i.i.i = sext i16 %7 to i32
  %fLength.i.i = getelementptr inbounds %"class.icu_75::VTimeZone", ptr %call1, i64 0, i32 6, i32 1, i32 0, i32 1
  %8 = load i32, ptr %fLength.i.i, align 4
  %cond.i.i = select i1 %cmp.i.i.i, i32 %8, i32 %shr.i.i.i
  %call2.i = call noundef nonnull align 8 dereferenceable(64) ptr @_ZN6icu_7513UnicodeString9doReplaceEiiPKDsii(ptr noundef nonnull align 8 dereferenceable(64) %icutzver, i32 noundef 0, i32 noundef %cond.i.i, ptr noundef %call14, i32 noundef 0, i32 noundef %5)
  br label %if.end19

if.end19:                                         ; preds = %if.then17, %if.end10
  call void @ures_close_75(ptr noundef %call13)
  br label %return

return:                                           ; preds = %entry, %if.end19, %if.then7, %if.then2
  %retval.0 = phi ptr [ null, %if.then2 ], [ null, %if.then7 ], [ %call1, %if.end19 ], [ null, %entry ]
  ret ptr %retval.0
}

; Function Attrs: mustprogress uwtable
define noundef ptr @_ZN6icu_759VTimeZone15createVTimeZoneERKNS_13UnicodeStringER10UErrorCode(ptr noundef nonnull align 8 dereferenceable(64) %vtzdata, ptr noundef nonnull align 4 dereferenceable(4) %status) local_unnamed_addr #2 align 2 personality ptr @__gxx_personality_v0 {
entry:
  %reader = alloca %"class.icu_75::VTZReader", align 8
  %0 = load i32, ptr %status, align 4
  %cmp.i = icmp slt i32 %0, 1
  br i1 %cmp.i, label %if.end, label %return

if.end:                                           ; preds = %entry
  call void @_ZN6icu_759VTZReaderC1ERKNS_13UnicodeStringE(ptr noundef nonnull align 8 dereferenceable(12) %reader, ptr noundef nonnull align 8 dereferenceable(64) %vtzdata)
  %call1 = call noundef ptr @_ZN6icu_757UMemorynwEm(i64 noundef 288) #15
  %new.isnull = icmp eq ptr %call1, null
  br i1 %new.isnull, label %if.then2, label %new.notnull

new.notnull:                                      ; preds = %if.end
  invoke void @_ZN6icu_759VTimeZoneC1Ev(ptr noundef nonnull align 8 dereferenceable(288) %call1)
          to label %if.end3 unwind label %lpad

if.then2:                                         ; preds = %if.end
  store i32 7, ptr %status, align 4
  br label %cleanup

lpad:                                             ; preds = %new.notnull
  %1 = landingpad { ptr, i32 }
          cleanup
  call void @_ZN6icu_757UMemorydlEPv(ptr noundef nonnull %call1) #15
  br label %ehcleanup

if.end3:                                          ; preds = %new.notnull
  invoke void @_ZN6icu_759VTimeZone4loadERNS_9VTZReaderER10UErrorCode(ptr noundef nonnull align 8 dereferenceable(288) %call1, ptr noundef nonnull align 8 dereferenceable(12) %reader, ptr noundef nonnull align 4 dereferenceable(4) %status)
          to label %invoke.cont5 unwind label %lpad4

invoke.cont5:                                     ; preds = %if.end3
  %2 = load i32, ptr %status, align 4
  %cmp.i8 = icmp slt i32 %2, 1
  br i1 %cmp.i8, label %cleanup, label %delete.notnull

delete.notnull:                                   ; preds = %invoke.cont5
  %vtable = load ptr, ptr %call1, align 8
  %vfn = getelementptr inbounds ptr, ptr %vtable, i64 1
  %3 = load ptr, ptr %vfn, align 8
  call void %3(ptr noundef nonnull align 8 dereferenceable(288) %call1) #15
  br label %cleanup

lpad4:                                            ; preds = %if.end3
  %4 = landingpad { ptr, i32 }
          cleanup
  br label %ehcleanup

cleanup:                                          ; preds = %invoke.cont5, %delete.notnull, %if.then2
  %retval.0 = phi ptr [ null, %if.then2 ], [ null, %delete.notnull ], [ %call1, %invoke.cont5 ]
  call void @_ZN6icu_759VTZReaderD1Ev(ptr noundef nonnull align 8 dereferenceable(12) %reader) #15
  br label %return

ehcleanup:                                        ; preds = %lpad, %lpad4
  %.pn = phi { ptr, i32 } [ %4, %lpad4 ], [ %1, %lpad ]
  call void @_ZN6icu_759VTZReaderD1Ev(ptr noundef nonnull align 8 dereferenceable(12) %reader) #15
  resume { ptr, i32 } %.pn

return:                                           ; preds = %entry, %cleanup
  %retval.1 = phi ptr [ %retval.0, %cleanup ], [ null, %entry ]
  ret ptr %retval.1
}

; Function Attrs: mustprogress uwtable
define void @_ZN6icu_759VTimeZone4loadERNS_9VTZReaderER10UErrorCode(ptr noundef nonnull align 8 dereferenceable(288) %this, ptr nocapture noundef nonnull align 8 dereferenceable(12) %reader, ptr noundef nonnull align 4 dereferenceable(4) %status) local_unnamed_addr #2 align 2 personality ptr @__gxx_personality_v0 {
entry:
  %srcChar.addr.i122 = alloca i16, align 2
  %srcChar.addr.i = alloca i16, align 2
  %line = alloca %"class.icu_75::UnicodeString", align 8
  %call = tail call noundef ptr @_ZN6icu_757UMemorynwEm(i64 noundef 40) #15
  %new.isnull = icmp eq ptr %call, null
  br i1 %new.isnull, label %new.cont, label %new.notnull

new.notnull:                                      ; preds = %entry
  invoke void @_ZN6icu_757UVectorC1EPFvPvEPFa8UElementS4_EiR10UErrorCode(ptr noundef nonnull align 8 dereferenceable(40) %call, ptr noundef nonnull @uprv_deleteUObject_75, ptr noundef nonnull @uhash_compareUnicodeString_75, i32 noundef 100, ptr noundef nonnull align 4 dereferenceable(4) %status)
          to label %_ZN6icu_7512LocalPointerINS_7UVectorEEC2EPS1_R10UErrorCode.exit unwind label %lpad

new.cont:                                         ; preds = %entry
  %0 = load i32, ptr %status, align 4
  %cmp.i.i = icmp sgt i32 %0, 0
  br i1 %cmp.i.i, label %_ZN6icu_7512LocalPointerINS_7UVectorEED2Ev.exit, label %if.then.i

if.then.i:                                        ; preds = %new.cont
  store i32 7, ptr %status, align 4
  br label %_ZN6icu_7512LocalPointerINS_7UVectorEED2Ev.exit

_ZN6icu_7512LocalPointerINS_7UVectorEEC2EPS1_R10UErrorCode.exit: ; preds = %new.notnull
  %.pre = load i32, ptr %status, align 4
  %cmp.i37 = icmp slt i32 %.pre, 1
  br i1 %cmp.i37, label %if.end, label %delete.notnull.i128

lpad:                                             ; preds = %new.notnull
  %1 = landingpad { ptr, i32 }
          cleanup
  tail call void @_ZN6icu_757UMemorydlEPv(ptr noundef nonnull %call) #15
  br label %eh.resume

if.end:                                           ; preds = %_ZN6icu_7512LocalPointerINS_7UVectorEEC2EPS1_R10UErrorCode.exit
  store ptr getelementptr inbounds ({ [13 x ptr] }, ptr @_ZTVN6icu_7513UnicodeStringE, i64 0, inrange i32 0, i64 2), ptr %line, align 8
  %fUnion2.i = getelementptr inbounds %"class.icu_75::UnicodeString", ptr %line, i64 0, i32 1
  store i16 2, ptr %fUnion2.i, align 8
  %index.i = getelementptr inbounds %"class.icu_75::VTZReader", ptr %reader, i64 0, i32 1
  %fLength.i = getelementptr inbounds %"class.icu_75::UnicodeString", ptr %line, i64 0, i32 1, i32 0, i32 1
  br label %while.cond.outer

while.cond.outer:                                 ; preds = %while.cond.outer.backedge, %if.end
  %start.0.ph = phi i8 [ 0, %if.end ], [ %start.0.ph.be, %while.cond.outer.backedge ]
  %tobool52.not = phi i1 [ true, %if.end ], [ %tobool52.not.be, %while.cond.outer.backedge ]
  %2 = load ptr, ptr %reader, align 8
  %fUnion.i.i.i = getelementptr inbounds %"class.icu_75::UnicodeString", ptr %2, i64 0, i32 1
  %fLength.i.i = getelementptr inbounds %"class.icu_75::UnicodeString", ptr %2, i64 0, i32 1, i32 0, i32 1
  %fBuffer.i.i.i.i = getelementptr inbounds i8, ptr %2, i64 10
  %fArray.i.i.i.i = getelementptr inbounds %"class.icu_75::UnicodeString", ptr %2, i64 0, i32 1, i32 0, i32 3
  %.pre216 = load i32, ptr %index.i, align 8
  br label %while.cond

while.cond:                                       ; preds = %while.cond.outer, %invoke.cont7
  %3 = phi i32 [ %.pre216, %while.cond.outer ], [ %inc.i, %invoke.cont7 ]
  %4 = load i16, ptr %fUnion.i.i.i, align 8
  %cmp.i.i.i = icmp slt i16 %4, 0
  %5 = ashr i16 %4, 5
  %shr.i.i.i = sext i16 %5 to i32
  %6 = load i32, ptr %fLength.i.i, align 4
  %cond.i.i = select i1 %cmp.i.i.i, i32 %6, i32 %shr.i.i.i
  %cmp.i38 = icmp slt i32 %3, %cond.i.i
  %cmp.i.i1.i = icmp ugt i32 %cond.i.i, %3
  %or.cond.i39 = and i1 %cmp.i38, %cmp.i.i1.i
  br i1 %or.cond.i39, label %invoke.cont7, label %invoke.cont7.thread

invoke.cont7.thread:                              ; preds = %while.cond
  %inc.i163 = add nsw i32 %3, 1
  store i32 %inc.i163, ptr %index.i, align 8
  br label %if.then9

invoke.cont7:                                     ; preds = %while.cond
  %7 = and i16 %4, 2
  %tobool.not.i.i.i.i = icmp eq i16 %7, 0
  %8 = load ptr, ptr %fArray.i.i.i.i, align 8
  %cond.i2.i.i.i = select i1 %tobool.not.i.i.i.i, ptr %8, ptr %fBuffer.i.i.i.i
  %idxprom.i.i.i = sext i32 %3 to i64
  %arrayidx.i.i.i = getelementptr inbounds i16, ptr %cond.i2.i.i.i, i64 %idxprom.i.i.i
  %9 = load i16, ptr %arrayidx.i.i.i, align 2
  %inc.i = add nuw nsw i32 %3, 1
  store i32 %inc.i, ptr %index.i, align 8
  switch i16 %9, label %if.end51 [
    i16 -1, label %if.then9
    i16 13, label %while.cond
  ]

if.then9:                                         ; preds = %invoke.cont7, %invoke.cont7.thread
  %tobool10.not.not = icmp eq i8 %start.0.ph, 0
  br i1 %tobool10.not.not, label %if.then187, label %land.rhs

land.rhs:                                         ; preds = %if.then9
  call void asm sideeffect "", "rm,~{memory},~{dirflag},~{fpsr},~{flags}"(ptr nonnull @_ZN6icu_75L18ICAL_END_VTIMEZONEE) #15, !srcloc !8
  %call3.i41 = invoke i32 @u_strlen_75(ptr noundef nonnull @_ZN6icu_75L18ICAL_END_VTIMEZONEE)
          to label %call3.i.noexc unwind label %lpad13

call3.i.noexc:                                    ; preds = %land.rhs
  %call5.i42 = invoke noundef signext i8 @_ZNK6icu_7513UnicodeString17doEqualsSubstringEiiPKDsii(ptr noundef nonnull align 8 dereferenceable(64) %line, i32 noundef 0, i32 noundef %call3.i41, ptr noundef nonnull @_ZN6icu_75L18ICAL_END_VTIMEZONEE, i32 noundef 0, i32 noundef %call3.i41)
          to label %cleanup.done19 unwind label %lpad13

cleanup.done19:                                   ; preds = %call3.i.noexc
  %tobool16.not = icmp eq i8 %call5.i42, 0
  call void asm sideeffect "", "rm,~{memory},~{dirflag},~{fpsr},~{flags}"(ptr nonnull @_ZN6icu_75L18ICAL_END_VTIMEZONEE) #15, !srcloc !4
  br i1 %tobool16.not, label %if.then187, label %if.then23

if.then23:                                        ; preds = %cleanup.done19
  %call24 = call noundef ptr @_ZN6icu_757UMemorynwEm(i64 noundef 64) #15
  %new.isnull25 = icmp eq ptr %call24, null
  br i1 %new.isnull25, label %new.cont33, label %new.notnull26

new.notnull26:                                    ; preds = %if.then23
  invoke void @_ZN6icu_7513UnicodeStringC1ERKS0_(ptr noundef nonnull align 8 dereferenceable(64) %call24, ptr noundef nonnull align 8 dereferenceable(64) %line)
          to label %invoke.cont34 unwind label %lpad28

new.cont33:                                       ; preds = %if.then23
  %10 = load i32, ptr %status, align 4
  %cmp.i.i44 = icmp sgt i32 %10, 0
  br i1 %cmp.i.i44, label %invoke.cont34, label %if.then.i46

if.then.i46:                                      ; preds = %new.cont33
  store i32 7, ptr %status, align 4
  br label %invoke.cont34

invoke.cont34:                                    ; preds = %new.notnull26, %if.then.i46, %new.cont33
  invoke void @_ZN6icu_757UVector12adoptElementEPvR10UErrorCode(ptr noundef nonnull align 8 dereferenceable(40) %call, ptr noundef %call24, ptr noundef nonnull align 4 dereferenceable(4) %status)
          to label %_ZN6icu_7512LocalPointerINS_13UnicodeStringEED2Ev.exit unwind label %_ZN6icu_7512LocalPointerINS_13UnicodeStringEED2Ev.exit53

_ZN6icu_7512LocalPointerINS_13UnicodeStringEED2Ev.exit: ; preds = %invoke.cont34
  %11 = load i32, ptr %status, align 4
  %cmp.i47 = icmp slt i32 %11, 1
  br i1 %cmp.i47, label %if.end193, label %cleanup198

lpad6.loopexit:                                   ; preds = %if.then98, %if.else181
  %lpad.loopexit = landingpad { ptr, i32 }
          cleanup
  br label %ehcleanup

ehcleanup.thread:                                 ; preds = %if.end193
  %lpad.loopexit.split-lp = landingpad { ptr, i32 }
          cleanup
  call void @_ZN6icu_7513UnicodeStringD1Ev(ptr noundef nonnull align 8 dereferenceable(64) %line) #15
  br label %eh.resume

lpad13:                                           ; preds = %call3.i.noexc, %land.rhs
  %12 = landingpad { ptr, i32 }
          cleanup
  call void asm sideeffect "", "rm,~{memory},~{dirflag},~{fpsr},~{flags}"(ptr nonnull @_ZN6icu_75L18ICAL_END_VTIMEZONEE) #15, !srcloc !4
  br label %ehcleanup

lpad28:                                           ; preds = %new.notnull26
  %13 = landingpad { ptr, i32 }
          cleanup
  call void @_ZN6icu_757UMemorydlEPv(ptr noundef nonnull %call24) #15
  br label %ehcleanup

_ZN6icu_7512LocalPointerINS_13UnicodeStringEED2Ev.exit53: ; preds = %invoke.cont34
  %14 = landingpad { ptr, i32 }
          cleanup
  br label %ehcleanup

if.end51:                                         ; preds = %invoke.cont7
  br i1 %tobool52.not, label %if.else, label %if.then53

if.then53:                                        ; preds = %if.end51
  switch i16 %9, label %if.then58 [
    i16 32, label %while.cond.outer.backedge
    i16 9, label %while.cond.outer.backedge
  ]

if.then58:                                        ; preds = %if.then53
  %tobool59.not = icmp eq i8 %start.0.ph, 0
  %.pre218 = load i16, ptr %fUnion2.i, align 8
  br i1 %tobool59.not, label %invoke.cont94, label %invoke.cont61

invoke.cont61:                                    ; preds = %if.then58
  %cmp.i.i54 = icmp slt i16 %.pre218, 0
  %15 = ashr i16 %.pre218, 5
  %shr.i.i = sext i16 %15 to i32
  %16 = load i32, ptr %fLength.i, align 4
  %cond.i = select i1 %cmp.i.i54, i32 %16, i32 %shr.i.i
  %cmp63 = icmp sgt i32 %cond.i, 0
  br i1 %cmp63, label %if.then64, label %invoke.cont94

if.then64:                                        ; preds = %invoke.cont61
  %call66 = call noundef ptr @_ZN6icu_757UMemorynwEm(i64 noundef 64) #15
  %new.isnull67 = icmp eq ptr %call66, null
  br i1 %new.isnull67, label %new.cont76, label %new.notnull68

new.notnull68:                                    ; preds = %if.then64
  invoke void @_ZN6icu_7513UnicodeStringC1ERKS0_(ptr noundef nonnull align 8 dereferenceable(64) %call66, ptr noundef nonnull align 8 dereferenceable(64) %line)
          to label %invoke.cont77 unwind label %lpad71

new.cont76:                                       ; preds = %if.then64
  %17 = load i32, ptr %status, align 4
  %cmp.i.i56 = icmp sgt i32 %17, 0
  br i1 %cmp.i.i56, label %invoke.cont77, label %if.then.i58

if.then.i58:                                      ; preds = %new.cont76
  store i32 7, ptr %status, align 4
  br label %invoke.cont77

invoke.cont77:                                    ; preds = %new.notnull68, %if.then.i58, %new.cont76
  invoke void @_ZN6icu_757UVector12adoptElementEPvR10UErrorCode(ptr noundef nonnull align 8 dereferenceable(40) %call, ptr noundef %call66, ptr noundef nonnull align 4 dereferenceable(4) %status)
          to label %_ZN6icu_7512LocalPointerINS_13UnicodeStringEED2Ev.exit66 unwind label %_ZN6icu_7512LocalPointerINS_13UnicodeStringEED2Ev.exit71

_ZN6icu_7512LocalPointerINS_13UnicodeStringEED2Ev.exit66: ; preds = %invoke.cont77
  %18 = load i32, ptr %status, align 4
  %cmp.i60 = icmp slt i32 %18, 1
  br i1 %cmp.i60, label %_ZN6icu_7512LocalPointerINS_13UnicodeStringEED2Ev.exit66.invoke.cont94_crit_edge, label %cleanup198

_ZN6icu_7512LocalPointerINS_13UnicodeStringEED2Ev.exit66.invoke.cont94_crit_edge: ; preds = %_ZN6icu_7512LocalPointerINS_13UnicodeStringEED2Ev.exit66
  %.pre217 = load i16, ptr %fUnion2.i, align 8
  br label %invoke.cont94

lpad71:                                           ; preds = %new.notnull68
  %19 = landingpad { ptr, i32 }
          cleanup
  call void @_ZN6icu_757UMemorydlEPv(ptr noundef nonnull %call66) #15
  br label %ehcleanup

_ZN6icu_7512LocalPointerINS_13UnicodeStringEED2Ev.exit71: ; preds = %invoke.cont77
  %20 = landingpad { ptr, i32 }
          cleanup
  br label %ehcleanup

invoke.cont94:                                    ; preds = %_ZN6icu_7512LocalPointerINS_13UnicodeStringEED2Ev.exit66.invoke.cont94_crit_edge, %if.then58, %invoke.cont61
  %21 = phi i16 [ %.pre217, %_ZN6icu_7512LocalPointerINS_13UnicodeStringEED2Ev.exit66.invoke.cont94_crit_edge ], [ %.pre218, %if.then58 ], [ %.pre218, %invoke.cont61 ]
  %conv2.i3.i = and i16 %21, 1
  %tobool.not.i = icmp eq i16 %conv2.i3.i, 0
  %22 = and i16 %21, 30
  %storemerge.i = select i1 %tobool.not.i, i16 %22, i16 2
  store i16 %storemerge.i, ptr %fUnion2.i, align 8
  %cmp97.not = icmp eq i16 %9, 10
  br i1 %cmp97.not, label %while.cond.outer.backedge, label %if.then98

if.then98:                                        ; preds = %invoke.cont94
  call void @llvm.lifetime.start.p0(i64 2, ptr nonnull %srcChar.addr.i)
  store i16 %9, ptr %srcChar.addr.i, align 2
  %call.i73 = invoke noundef nonnull align 8 dereferenceable(64) ptr @_ZN6icu_7513UnicodeString8doAppendEPKDsii(ptr noundef nonnull align 8 dereferenceable(64) %line, ptr noundef nonnull %srcChar.addr.i, i32 noundef 0, i32 noundef 1)
          to label %_ZN6icu_7513UnicodeString6appendEDs.exit unwind label %lpad6.loopexit

_ZN6icu_7513UnicodeString6appendEDs.exit:         ; preds = %if.then98
  call void @llvm.lifetime.end.p0(i64 2, ptr nonnull %srcChar.addr.i)
  br label %while.cond.outer.backedge

if.else:                                          ; preds = %if.end51
  %cmp104 = icmp eq i16 %9, 10
  br i1 %cmp104, label %if.then105, label %if.else181

if.then105:                                       ; preds = %if.else
  %tobool106.not = icmp eq i8 %start.0.ph, 0
  br i1 %tobool106.not, label %if.else142, label %if.then107

if.then107:                                       ; preds = %if.then105
  call void asm sideeffect "", "rm,~{memory},~{dirflag},~{fpsr},~{flags}"(ptr nonnull @_ZN6icu_75L18ICAL_END_VTIMEZONEE) #15, !srcloc !8
  %call3.i76 = invoke i32 @u_strlen_75(ptr noundef nonnull @_ZN6icu_75L18ICAL_END_VTIMEZONEE)
          to label %call3.i.noexc75 unwind label %lpad110

call3.i.noexc75:                                  ; preds = %if.then107
  %call5.i77 = invoke noundef signext i8 @_ZNK6icu_7513UnicodeString17doEqualsSubstringEiiPKDsii(ptr noundef nonnull align 8 dereferenceable(64) %line, i32 noundef 0, i32 noundef %call3.i76, ptr noundef nonnull @_ZN6icu_75L18ICAL_END_VTIMEZONEE, i32 noundef 0, i32 noundef %call3.i76)
          to label %invoke.cont111 unwind label %lpad110

invoke.cont111:                                   ; preds = %call3.i.noexc75
  %tobool113.not = icmp eq i8 %call5.i77, 0
  call void asm sideeffect "", "rm,~{memory},~{dirflag},~{fpsr},~{flags}"(ptr nonnull @_ZN6icu_75L18ICAL_END_VTIMEZONEE) #15, !srcloc !4
  br i1 %tobool113.not, label %while.cond.outer.backedge, label %if.then114

if.then114:                                       ; preds = %invoke.cont111
  %call116 = call noundef ptr @_ZN6icu_757UMemorynwEm(i64 noundef 64) #15
  %new.isnull117 = icmp eq ptr %call116, null
  br i1 %new.isnull117, label %new.cont126, label %new.notnull118

new.notnull118:                                   ; preds = %if.then114
  invoke void @_ZN6icu_7513UnicodeStringC1ERKS0_(ptr noundef nonnull align 8 dereferenceable(64) %call116, ptr noundef nonnull align 8 dereferenceable(64) %line)
          to label %invoke.cont127 unwind label %lpad121

new.cont126:                                      ; preds = %if.then114
  %23 = load i32, ptr %status, align 4
  %cmp.i.i80 = icmp sgt i32 %23, 0
  br i1 %cmp.i.i80, label %invoke.cont127, label %if.then.i82

if.then.i82:                                      ; preds = %new.cont126
  store i32 7, ptr %status, align 4
  br label %invoke.cont127

invoke.cont127:                                   ; preds = %new.notnull118, %if.then.i82, %new.cont126
  invoke void @_ZN6icu_757UVector12adoptElementEPvR10UErrorCode(ptr noundef nonnull align 8 dereferenceable(40) %call, ptr noundef %call116, ptr noundef nonnull align 4 dereferenceable(4) %status)
          to label %_ZN6icu_7512LocalPointerINS_13UnicodeStringEED2Ev.exit90 unwind label %_ZN6icu_7512LocalPointerINS_13UnicodeStringEED2Ev.exit95

_ZN6icu_7512LocalPointerINS_13UnicodeStringEED2Ev.exit90: ; preds = %invoke.cont127
  %24 = load i32, ptr %status, align 4
  %cmp.i84 = icmp slt i32 %24, 1
  br i1 %cmp.i84, label %if.end193, label %cleanup198

lpad110:                                          ; preds = %call3.i.noexc75, %if.then107
  %25 = landingpad { ptr, i32 }
          cleanup
  call void asm sideeffect "", "rm,~{memory},~{dirflag},~{fpsr},~{flags}"(ptr nonnull @_ZN6icu_75L18ICAL_END_VTIMEZONEE) #15, !srcloc !4
  br label %ehcleanup

lpad121:                                          ; preds = %new.notnull118
  %26 = landingpad { ptr, i32 }
          cleanup
  call void @_ZN6icu_757UMemorydlEPv(ptr noundef nonnull %call116) #15
  br label %ehcleanup

_ZN6icu_7512LocalPointerINS_13UnicodeStringEED2Ev.exit95: ; preds = %invoke.cont127
  %27 = landingpad { ptr, i32 }
          cleanup
  br label %ehcleanup

if.else142:                                       ; preds = %if.then105
  call void asm sideeffect "", "rm,~{memory},~{dirflag},~{fpsr},~{flags}"(ptr nonnull @_ZN6icu_75L20ICAL_BEGIN_VTIMEZONEE) #15, !srcloc !8
  %call3.i98 = invoke i32 @u_strlen_75(ptr noundef nonnull @_ZN6icu_75L20ICAL_BEGIN_VTIMEZONEE)
          to label %call3.i.noexc97 unwind label %lpad145

call3.i.noexc97:                                  ; preds = %if.else142
  %call5.i99 = invoke noundef signext i8 @_ZNK6icu_7513UnicodeString17doEqualsSubstringEiiPKDsii(ptr noundef nonnull align 8 dereferenceable(64) %line, i32 noundef 0, i32 noundef %call3.i98, ptr noundef nonnull @_ZN6icu_75L20ICAL_BEGIN_VTIMEZONEE, i32 noundef 0, i32 noundef %call3.i98)
          to label %invoke.cont146 unwind label %lpad145

invoke.cont146:                                   ; preds = %call3.i.noexc97
  %tobool148.not = icmp eq i8 %call5.i99, 0
  call void asm sideeffect "", "rm,~{memory},~{dirflag},~{fpsr},~{flags}"(ptr nonnull @_ZN6icu_75L20ICAL_BEGIN_VTIMEZONEE) #15, !srcloc !4
  br i1 %tobool148.not, label %while.cond.outer.backedge, label %if.then149

if.then149:                                       ; preds = %invoke.cont146
  %call151 = call noundef ptr @_ZN6icu_757UMemorynwEm(i64 noundef 64) #15
  %new.isnull152 = icmp eq ptr %call151, null
  br i1 %new.isnull152, label %new.cont161, label %new.notnull153

new.notnull153:                                   ; preds = %if.then149
  invoke void @_ZN6icu_7513UnicodeStringC1ERKS0_(ptr noundef nonnull align 8 dereferenceable(64) %call151, ptr noundef nonnull align 8 dereferenceable(64) %line)
          to label %invoke.cont162 unwind label %lpad156

new.cont161:                                      ; preds = %if.then149
  %28 = load i32, ptr %status, align 4
  %cmp.i.i102 = icmp sgt i32 %28, 0
  br i1 %cmp.i.i102, label %invoke.cont162, label %if.then.i104

if.then.i104:                                     ; preds = %new.cont161
  store i32 7, ptr %status, align 4
  br label %invoke.cont162

invoke.cont162:                                   ; preds = %new.notnull153, %if.then.i104, %new.cont161
  invoke void @_ZN6icu_757UVector12adoptElementEPvR10UErrorCode(ptr noundef nonnull align 8 dereferenceable(40) %call, ptr noundef %call151, ptr noundef nonnull align 4 dereferenceable(4) %status)
          to label %invoke.cont168 unwind label %_ZN6icu_7512LocalPointerINS_13UnicodeStringEED2Ev.exit112

invoke.cont168:                                   ; preds = %invoke.cont162
  %29 = load i32, ptr %status, align 4
  %cmp.i106 = icmp slt i32 %29, 1
  br i1 %cmp.i106, label %_ZN6icu_7512LocalPointerINS_13UnicodeStringEED2Ev.exit121.thread, label %cleanup198

lpad145:                                          ; preds = %call3.i.noexc97, %if.else142
  %30 = landingpad { ptr, i32 }
          cleanup
  call void asm sideeffect "", "rm,~{memory},~{dirflag},~{fpsr},~{flags}"(ptr nonnull @_ZN6icu_75L20ICAL_BEGIN_VTIMEZONEE) #15, !srcloc !4
  br label %ehcleanup

lpad156:                                          ; preds = %new.notnull153
  %31 = landingpad { ptr, i32 }
          cleanup
  call void @_ZN6icu_757UMemorydlEPv(ptr noundef nonnull %call151) #15
  br label %ehcleanup

_ZN6icu_7512LocalPointerINS_13UnicodeStringEED2Ev.exit112: ; preds = %invoke.cont162
  %32 = landingpad { ptr, i32 }
          cleanup
  br label %ehcleanup

_ZN6icu_7512LocalPointerINS_13UnicodeStringEED2Ev.exit121.thread: ; preds = %invoke.cont168
  %33 = load i16, ptr %fUnion2.i, align 8
  %conv2.i3.i114 = and i16 %33, 1
  %tobool.not.i115 = icmp eq i16 %conv2.i3.i114, 0
  %34 = and i16 %33, 30
  %storemerge.i116 = select i1 %tobool.not.i115, i16 %34, i16 2
  store i16 %storemerge.i116, ptr %fUnion2.i, align 8
  br label %while.cond.outer.backedge

while.cond.outer.backedge:                        ; preds = %_ZN6icu_7512LocalPointerINS_13UnicodeStringEED2Ev.exit121.thread, %_ZN6icu_7513UnicodeString6appendEDs.exit124, %_ZN6icu_7513UnicodeString6appendEDs.exit, %invoke.cont94, %if.then53, %if.then53, %invoke.cont146, %invoke.cont111
  %start.0.ph.be = phi i8 [ 1, %invoke.cont111 ], [ 0, %invoke.cont146 ], [ %start.0.ph, %_ZN6icu_7513UnicodeString6appendEDs.exit124 ], [ %start.0.ph, %if.then53 ], [ %start.0.ph, %if.then53 ], [ %start.0.ph, %invoke.cont94 ], [ %start.0.ph, %_ZN6icu_7513UnicodeString6appendEDs.exit ], [ 1, %_ZN6icu_7512LocalPointerINS_13UnicodeStringEED2Ev.exit121.thread ]
  %tobool52.not.be = phi i1 [ false, %invoke.cont111 ], [ false, %invoke.cont146 ], [ true, %_ZN6icu_7513UnicodeString6appendEDs.exit124 ], [ true, %if.then53 ], [ true, %if.then53 ], [ true, %invoke.cont94 ], [ true, %_ZN6icu_7513UnicodeString6appendEDs.exit ], [ true, %_ZN6icu_7512LocalPointerINS_13UnicodeStringEED2Ev.exit121.thread ]
  br label %while.cond.outer, !llvm.loop !9

if.else181:                                       ; preds = %if.else
  call void @llvm.lifetime.start.p0(i64 2, ptr nonnull %srcChar.addr.i122)
  store i16 %9, ptr %srcChar.addr.i122, align 2
  %call.i123 = invoke noundef nonnull align 8 dereferenceable(64) ptr @_ZN6icu_7513UnicodeString8doAppendEPKDsii(ptr noundef nonnull align 8 dereferenceable(64) %line, ptr noundef nonnull %srcChar.addr.i122, i32 noundef 0, i32 noundef 1)
          to label %_ZN6icu_7513UnicodeString6appendEDs.exit124 unwind label %lpad6.loopexit

_ZN6icu_7513UnicodeString6appendEDs.exit124:      ; preds = %if.else181
  call void @llvm.lifetime.end.p0(i64 2, ptr nonnull %srcChar.addr.i122)
  br label %while.cond.outer.backedge

if.then187:                                       ; preds = %if.then9, %cleanup.done19
  %35 = load i32, ptr %status, align 4
  %cmp.i125 = icmp sgt i32 %35, 0
  br i1 %cmp.i125, label %cleanup198, label %if.then191

if.then191:                                       ; preds = %if.then187
  store i32 27, ptr %status, align 4
  br label %cleanup198

if.end193:                                        ; preds = %_ZN6icu_7512LocalPointerINS_13UnicodeStringEED2Ev.exit90, %_ZN6icu_7512LocalPointerINS_13UnicodeStringEED2Ev.exit
  %vtzlines = getelementptr inbounds %"class.icu_75::VTimeZone", ptr %this, i64 0, i32 2
  store ptr %call, ptr %vtzlines, align 8
  invoke void @_ZN6icu_759VTimeZone5parseER10UErrorCode(ptr noundef nonnull align 8 dereferenceable(288) %this, ptr noundef nonnull align 4 dereferenceable(4) %status)
          to label %cleanup198.thread226 unwind label %ehcleanup.thread

cleanup198.thread226:                             ; preds = %if.end193
  call void @_ZN6icu_7513UnicodeStringD1Ev(ptr noundef nonnull align 8 dereferenceable(64) %line) #15
  br label %_ZN6icu_7512LocalPointerINS_7UVectorEED2Ev.exit

cleanup198:                                       ; preds = %_ZN6icu_7512LocalPointerINS_13UnicodeStringEED2Ev.exit66, %invoke.cont168, %_ZN6icu_7512LocalPointerINS_13UnicodeStringEED2Ev.exit90, %_ZN6icu_7512LocalPointerINS_13UnicodeStringEED2Ev.exit, %if.then191, %if.then187
  call void @_ZN6icu_7513UnicodeStringD1Ev(ptr noundef nonnull align 8 dereferenceable(64) %line) #15
  br label %delete.notnull.i128

delete.notnull.i128:                              ; preds = %cleanup198, %_ZN6icu_7512LocalPointerINS_7UVectorEEC2EPS1_R10UErrorCode.exit
  %vtable.i129 = load ptr, ptr %call, align 8
  %vfn.i130 = getelementptr inbounds ptr, ptr %vtable.i129, i64 1
  %36 = load ptr, ptr %vfn.i130, align 8
  call void %36(ptr noundef nonnull align 8 dereferenceable(40) %call) #15
  br label %_ZN6icu_7512LocalPointerINS_7UVectorEED2Ev.exit

_ZN6icu_7512LocalPointerINS_7UVectorEED2Ev.exit:  ; preds = %new.cont, %if.then.i, %cleanup198.thread226, %delete.notnull.i128
  ret void

ehcleanup:                                        ; preds = %lpad6.loopexit, %lpad156, %lpad121, %lpad71, %lpad28, %lpad13, %_ZN6icu_7512LocalPointerINS_13UnicodeStringEED2Ev.exit112, %lpad145, %_ZN6icu_7512LocalPointerINS_13UnicodeStringEED2Ev.exit95, %lpad110, %_ZN6icu_7512LocalPointerINS_13UnicodeStringEED2Ev.exit71, %_ZN6icu_7512LocalPointerINS_13UnicodeStringEED2Ev.exit53
  %.pn = phi { ptr, i32 } [ %32, %_ZN6icu_7512LocalPointerINS_13UnicodeStringEED2Ev.exit112 ], [ %31, %lpad156 ], [ %30, %lpad145 ], [ %27, %_ZN6icu_7512LocalPointerINS_13UnicodeStringEED2Ev.exit95 ], [ %26, %lpad121 ], [ %25, %lpad110 ], [ %20, %_ZN6icu_7512LocalPointerINS_13UnicodeStringEED2Ev.exit71 ], [ %19, %lpad71 ], [ %14, %_ZN6icu_7512LocalPointerINS_13UnicodeStringEED2Ev.exit53 ], [ %13, %lpad28 ], [ %12, %lpad13 ], [ %lpad.loopexit, %lpad6.loopexit ]
  call void @_ZN6icu_7513UnicodeStringD1Ev(ptr noundef nonnull align 8 dereferenceable(64) %line) #15
  %vtable.i133 = load ptr, ptr %call, align 8
  %vfn.i134 = getelementptr inbounds ptr, ptr %vtable.i133, i64 1
  %37 = load ptr, ptr %vfn.i134, align 8
  call void %37(ptr noundef nonnull align 8 dereferenceable(40) %call) #15
  br label %eh.resume

eh.resume:                                        ; preds = %ehcleanup.thread, %ehcleanup, %lpad
  %.pn.pn.pn = phi { ptr, i32 } [ %1, %lpad ], [ %.pn, %ehcleanup ], [ %lpad.loopexit.split-lp, %ehcleanup.thread ]
  resume { ptr, i32 } %.pn.pn.pn
}

; Function Attrs: mustprogress uwtable
define noundef signext i8 @_ZNK6icu_759VTimeZone8getTZURLERNS_13UnicodeStringE(ptr noundef nonnull align 8 dereferenceable(288) %this, ptr noundef nonnull align 8 dereferenceable(64) %url) local_unnamed_addr #2 align 2 {
entry:
  %fUnion.i.i = getelementptr inbounds %"class.icu_75::VTimeZone", ptr %this, i64 0, i32 3, i32 1
  %0 = load i16, ptr %fUnion.i.i, align 8
  %cmp.i.i = icmp slt i16 %0, 0
  %1 = ashr i16 %0, 5
  %shr.i.i = sext i16 %1 to i32
  %fLength.i = getelementptr inbounds %"class.icu_75::VTimeZone", ptr %this, i64 0, i32 3, i32 1, i32 0, i32 1
  %2 = load i32, ptr %fLength.i, align 4
  %cond.i = select i1 %cmp.i.i, i32 %2, i32 %shr.i.i
  %cmp = icmp sgt i32 %cond.i, 0
  br i1 %cmp, label %if.then, label %return

if.then:                                          ; preds = %entry
  %tzurl = getelementptr inbounds %"class.icu_75::VTimeZone", ptr %this, i64 0, i32 3
  %call3 = tail call noundef nonnull align 8 dereferenceable(64) ptr @_ZN6icu_7513UnicodeStringaSERKS0_(ptr noundef nonnull align 8 dereferenceable(64) %url, ptr noundef nonnull align 8 dereferenceable(64) %tzurl)
  br label %return

return:                                           ; preds = %entry, %if.then
  %retval.0 = phi i8 [ 1, %if.then ], [ 0, %entry ]
  ret i8 %retval.0
}

; Function Attrs: mustprogress uwtable
define void @_ZN6icu_759VTimeZone8setTZURLERKNS_13UnicodeStringE(ptr noundef nonnull align 8 dereferenceable(288) %this, ptr noundef nonnull align 8 dereferenceable(64) %url) local_unnamed_addr #2 align 2 {
entry:
  %tzurl = getelementptr inbounds %"class.icu_75::VTimeZone", ptr %this, i64 0, i32 3
  %call = tail call noundef nonnull align 8 dereferenceable(64) ptr @_ZN6icu_7513UnicodeStringaSERKS0_(ptr noundef nonnull align 8 dereferenceable(64) %tzurl, ptr noundef nonnull align 8 dereferenceable(64) %url)
  ret void
}

; Function Attrs: mustprogress nofree norecurse nosync nounwind willreturn memory(argmem: readwrite) uwtable
define noundef signext i8 @_ZNK6icu_759VTimeZone15getLastModifiedERd(ptr nocapture noundef nonnull readonly align 8 dereferenceable(288) %this, ptr nocapture noundef nonnull writeonly align 8 dereferenceable(8) %lastModified) local_unnamed_addr #7 align 2 {
entry:
  %lastmod = getelementptr inbounds %"class.icu_75::VTimeZone", ptr %this, i64 0, i32 4
  %0 = load double, ptr %lastmod, align 8
  %cmp = fcmp une double %0, 0x43846A3EDDF8CD80
  br i1 %cmp, label %if.then, label %return

if.then:                                          ; preds = %entry
  store double %0, ptr %lastModified, align 8
  br label %return

return:                                           ; preds = %entry, %if.then
  %retval.0 = phi i8 [ 1, %if.then ], [ 0, %entry ]
  ret i8 %retval.0
}

; Function Attrs: mustprogress nofree norecurse nosync nounwind willreturn memory(argmem: write) uwtable
define void @_ZN6icu_759VTimeZone15setLastModifiedEd(ptr nocapture noundef nonnull writeonly align 8 dereferenceable(288) %this, double noundef %lastModified) local_unnamed_addr #0 align 2 {
entry:
  %lastmod = getelementptr inbounds %"class.icu_75::VTimeZone", ptr %this, i64 0, i32 4
  store double %lastModified, ptr %lastmod, align 8
  ret void
}

; Function Attrs: mustprogress uwtable
define void @_ZNK6icu_759VTimeZone5writeERNS_13UnicodeStringER10UErrorCode(ptr noundef nonnull align 8 dereferenceable(288) %this, ptr noundef nonnull align 8 dereferenceable(64) %result, ptr noundef nonnull align 4 dereferenceable(4) %status) local_unnamed_addr #2 align 2 personality ptr @__gxx_personality_v0 {
entry:
  %writer = alloca %"class.icu_75::VTZWriter", align 8
  %fUnion.i.i = getelementptr inbounds %"class.icu_75::UnicodeString", ptr %result, i64 0, i32 1
  %0 = load i16, ptr %fUnion.i.i, align 8
  %conv2.i3.i = and i16 %0, 1
  %tobool.not.i = icmp eq i16 %conv2.i3.i, 0
  %1 = and i16 %0, 30
  %storemerge.i = select i1 %tobool.not.i, i16 %1, i16 2
  store i16 %storemerge.i, ptr %fUnion.i.i, align 8
  call void @_ZN6icu_759VTZWriterC1ERNS_13UnicodeStringE(ptr noundef nonnull align 8 dereferenceable(8) %writer, ptr noundef nonnull align 8 dereferenceable(64) %result)
  invoke void @_ZNK6icu_759VTimeZone5writeERNS_9VTZWriterER10UErrorCode(ptr noundef nonnull align 8 dereferenceable(288) %this, ptr noundef nonnull align 8 dereferenceable(8) %writer, ptr noundef nonnull align 4 dereferenceable(4) %status)
          to label %invoke.cont unwind label %lpad

invoke.cont:                                      ; preds = %entry
  call void @_ZN6icu_759VTZWriterD1Ev(ptr noundef nonnull align 8 dereferenceable(8) %writer) #15
  ret void

lpad:                                             ; preds = %entry
  %2 = landingpad { ptr, i32 }
          cleanup
  call void @_ZN6icu_759VTZWriterD1Ev(ptr noundef nonnull align 8 dereferenceable(8) %writer) #15
  resume { ptr, i32 } %2
}

; Function Attrs: mustprogress uwtable
define void @_ZNK6icu_759VTimeZone5writeERNS_9VTZWriterER10UErrorCode(ptr noundef nonnull align 8 dereferenceable(288) %this, ptr nocapture noundef nonnull readonly align 8 dereferenceable(8) %writer, ptr noundef nonnull align 4 dereferenceable(4) %status) local_unnamed_addr #2 align 2 personality ptr @__gxx_personality_v0 {
entry:
  %srcChar.addr.i99 = alloca i16, align 2
  %srcChar.addr.i = alloca i16, align 2
  %srcChar.addr.i.i57 = alloca i16, align 2
  %srcChar.addr.i.i54 = alloca i16, align 2
  %srcChar.addr.i.i = alloca i16, align 2
  %utcString = alloca %"class.icu_75::UnicodeString", align 8
  %icutzprop = alloca %"class.icu_75::UnicodeString", align 8
  %customProps = alloca %"class.icu_75::UVector", align 8
  %vtzlines = getelementptr inbounds %"class.icu_75::VTimeZone", ptr %this, i64 0, i32 2
  %0 = load ptr, ptr %vtzlines, align 8
  %cmp.not = icmp eq ptr %0, null
  br i1 %cmp.not, label %if.else36, label %for.cond.preheader

for.cond.preheader:                               ; preds = %entry
  %count.i115 = getelementptr inbounds %"class.icu_75::UVector", ptr %0, i64 0, i32 1
  %1 = load i32, ptr %count.i115, align 8
  %cmp3116 = icmp sgt i32 %1, 0
  br i1 %cmp3116, label %for.body.lr.ph, label %if.end60

for.body.lr.ph:                                   ; preds = %for.cond.preheader
  %tzurl = getelementptr inbounds %"class.icu_75::VTimeZone", ptr %this, i64 0, i32 3
  %fUnion.i.i.i.i24 = getelementptr inbounds %"class.icu_75::VTimeZone", ptr %this, i64 0, i32 3, i32 1
  %fLength.i.i.i27 = getelementptr inbounds %"class.icu_75::VTimeZone", ptr %this, i64 0, i32 3, i32 1, i32 0, i32 1
  %fUnion2.i = getelementptr inbounds %"class.icu_75::UnicodeString", ptr %utcString, i64 0, i32 1
  %lastmod = getelementptr inbounds %"class.icu_75::VTimeZone", ptr %this, i64 0, i32 4
  %fLength.i.i.i64 = getelementptr inbounds %"class.icu_75::UnicodeString", ptr %utcString, i64 0, i32 1, i32 0, i32 1
  br label %for.body

for.body:                                         ; preds = %for.body.lr.ph, %for.inc
  %2 = phi ptr [ %0, %for.body.lr.ph ], [ %43, %for.inc ]
  %i.0117 = phi i32 [ 0, %for.body.lr.ph ], [ %inc, %for.inc ]
  %call5 = call noundef ptr @_ZNK6icu_757UVector9elementAtEi(ptr noundef nonnull align 8 dereferenceable(40) %2, i32 noundef %i.0117)
  call void asm sideeffect "", "rm,~{memory},~{dirflag},~{fpsr},~{flags}"(ptr nonnull @_ZN6icu_75L10ICAL_TZURLE) #15, !srcloc !8
  %call3.i22 = invoke i32 @u_strlen_75(ptr noundef nonnull @_ZN6icu_75L10ICAL_TZURLE)
          to label %call3.i.noexc unwind label %lpad

call3.i.noexc:                                    ; preds = %for.body
  %call5.i23 = invoke noundef signext i8 @_ZNK6icu_7513UnicodeString17doEqualsSubstringEiiPKDsii(ptr noundef nonnull align 8 dereferenceable(64) %call5, i32 noundef 0, i32 noundef %call3.i22, ptr noundef nonnull @_ZN6icu_75L10ICAL_TZURLE, i32 noundef 0, i32 noundef %call3.i22)
          to label %invoke.cont unwind label %lpad

invoke.cont:                                      ; preds = %call3.i.noexc
  %tobool.not = icmp eq i8 %call5.i23, 0
  br i1 %tobool.not, label %if.else.critedge, label %land.rhs

land.rhs:                                         ; preds = %invoke.cont
  %call8 = invoke i32 @u_strlen_75(ptr noundef nonnull @_ZN6icu_75L10ICAL_TZURLE)
          to label %invoke.cont7 unwind label %lpad

invoke.cont7:                                     ; preds = %land.rhs
  %fUnion.i.i.i.i = getelementptr inbounds %"class.icu_75::UnicodeString", ptr %call5, i64 0, i32 1
  %3 = load i16, ptr %fUnion.i.i.i.i, align 8
  %cmp.i.i.i.i = icmp slt i16 %3, 0
  %4 = ashr i16 %3, 5
  %shr.i.i.i.i = sext i16 %4 to i32
  %fLength.i.i.i = getelementptr inbounds %"class.icu_75::UnicodeString", ptr %call5, i64 0, i32 1, i32 0, i32 1
  %5 = load i32, ptr %fLength.i.i.i, align 4
  %cond.i.i.i = select i1 %cmp.i.i.i.i, i32 %5, i32 %shr.i.i.i.i
  %cmp.i.i = icmp ugt i32 %cond.i.i.i, %call8
  br i1 %cmp.i.i, label %invoke.cont9, label %invoke.cont9.thread

invoke.cont9.thread:                              ; preds = %invoke.cont7
  call void asm sideeffect "", "rm,~{memory},~{dirflag},~{fpsr},~{flags}"(ptr nonnull @_ZN6icu_75L10ICAL_TZURLE) #15, !srcloc !4
  br label %if.else

invoke.cont9:                                     ; preds = %invoke.cont7
  %6 = and i16 %3, 2
  %tobool.not.i.i.i = icmp eq i16 %6, 0
  %fBuffer.i.i.i = getelementptr inbounds i8, ptr %call5, i64 10
  %fArray.i.i.i = getelementptr inbounds %"class.icu_75::UnicodeString", ptr %call5, i64 0, i32 1, i32 0, i32 3
  %7 = load ptr, ptr %fArray.i.i.i, align 8
  %cond.i2.i.i = select i1 %tobool.not.i.i.i, ptr %7, ptr %fBuffer.i.i.i
  %idxprom.i.i = sext i32 %call8 to i64
  %arrayidx.i.i = getelementptr inbounds i16, ptr %cond.i2.i.i, i64 %idxprom.i.i
  %8 = load i16, ptr %arrayidx.i.i, align 2
  %cmp11 = icmp eq i16 %8, 58
  call void asm sideeffect "", "rm,~{memory},~{dirflag},~{fpsr},~{flags}"(ptr nonnull @_ZN6icu_75L10ICAL_TZURLE) #15, !srcloc !4
  br i1 %cmp11, label %if.then12, label %if.else

if.then12:                                        ; preds = %invoke.cont9
  %9 = load ptr, ptr %writer, align 8
  %call2.i1.i = invoke noundef nonnull align 8 dereferenceable(64) ptr @_ZN6icu_7513UnicodeString8doAppendEPKDsii(ptr noundef nonnull align 8 dereferenceable(64) %9, ptr noundef nonnull @_ZN6icu_75L10ICAL_TZURLE, i32 noundef 0, i32 noundef -1)
          to label %_ZN6icu_759VTZWriter5writeEPKDs.exit unwind label %lpad.i

common.resume:                                    ; preds = %lpad, %lpad14, %lpad27.body, %ehcleanup, %lpad.i80, %lpad.i30, %lpad.i
  %common.resume.op = phi { ptr, i32 } [ %10, %lpad.i ], [ %17, %lpad.i30 ], [ %42, %lpad.i80 ], [ %eh.lpad-body, %lpad27.body ], [ %35, %lpad14 ], [ %18, %lpad ], [ %.pn, %ehcleanup ]
  resume { ptr, i32 } %common.resume.op

lpad.i:                                           ; preds = %if.then12
  %10 = landingpad { ptr, i32 }
          cleanup
  call void asm sideeffect "", "rm,~{memory},~{dirflag},~{fpsr},~{flags}"(ptr nonnull @_ZN6icu_75L10ICAL_TZURLE) #15, !srcloc !4
  br label %common.resume

_ZN6icu_759VTZWriter5writeEPKDs.exit:             ; preds = %if.then12
  call void asm sideeffect "", "rm,~{memory},~{dirflag},~{fpsr},~{flags}"(ptr nonnull @_ZN6icu_75L10ICAL_TZURLE) #15, !srcloc !4
  %11 = load ptr, ptr %writer, align 8
  call void @llvm.lifetime.start.p0(i64 2, ptr nonnull %srcChar.addr.i.i)
  store i16 58, ptr %srcChar.addr.i.i, align 2
  %call.i.i = call noundef nonnull align 8 dereferenceable(64) ptr @_ZN6icu_7513UnicodeString8doAppendEPKDsii(ptr noundef nonnull align 8 dereferenceable(64) %11, ptr noundef nonnull %srcChar.addr.i.i, i32 noundef 0, i32 noundef 1)
  call void @llvm.lifetime.end.p0(i64 2, ptr nonnull %srcChar.addr.i.i)
  %12 = load ptr, ptr %writer, align 8
  %13 = load i16, ptr %fUnion.i.i.i.i24, align 8
  %cmp.i.i.i.i25 = icmp slt i16 %13, 0
  %14 = ashr i16 %13, 5
  %shr.i.i.i.i26 = sext i16 %14 to i32
  %15 = load i32, ptr %fLength.i.i.i27, align 4
  %cond.i.i.i28 = select i1 %cmp.i.i.i.i25, i32 %15, i32 %shr.i.i.i.i26
  %call2.i.i = call noundef nonnull align 8 dereferenceable(64) ptr @_ZN6icu_7513UnicodeString8doAppendERKS0_ii(ptr noundef nonnull align 8 dereferenceable(64) %12, ptr noundef nonnull align 8 dereferenceable(64) %tzurl, i32 noundef 0, i32 noundef %cond.i.i.i28)
  %16 = load ptr, ptr %writer, align 8
  %call2.i1.i29 = invoke noundef nonnull align 8 dereferenceable(64) ptr @_ZN6icu_7513UnicodeString8doAppendEPKDsii(ptr noundef nonnull align 8 dereferenceable(64) %16, ptr noundef nonnull @_ZN6icu_75L12ICAL_NEWLINEE, i32 noundef 0, i32 noundef -1)
          to label %_ZN6icu_759VTZWriter5writeEPKDs.exit31 unwind label %lpad.i30

lpad.i30:                                         ; preds = %_ZN6icu_759VTZWriter5writeEPKDs.exit
  %17 = landingpad { ptr, i32 }
          cleanup
  call void asm sideeffect "", "rm,~{memory},~{dirflag},~{fpsr},~{flags}"(ptr nonnull @_ZN6icu_75L12ICAL_NEWLINEE) #15, !srcloc !4
  br label %common.resume

_ZN6icu_759VTZWriter5writeEPKDs.exit31:           ; preds = %_ZN6icu_759VTZWriter5writeEPKDs.exit
  call void asm sideeffect "", "rm,~{memory},~{dirflag},~{fpsr},~{flags}"(ptr nonnull @_ZN6icu_75L12ICAL_NEWLINEE) #15, !srcloc !4
  br label %for.inc

lpad:                                             ; preds = %call3.i.noexc, %for.body, %land.rhs
  %18 = landingpad { ptr, i32 }
          cleanup
  call void asm sideeffect "", "rm,~{memory},~{dirflag},~{fpsr},~{flags}"(ptr nonnull @_ZN6icu_75L10ICAL_TZURLE) #15, !srcloc !4
  br label %common.resume

if.else.critedge:                                 ; preds = %invoke.cont
  call void asm sideeffect "", "rm,~{memory},~{dirflag},~{fpsr},~{flags}"(ptr nonnull @_ZN6icu_75L10ICAL_TZURLE) #15, !srcloc !4
  br label %if.else

if.else:                                          ; preds = %invoke.cont9.thread, %if.else.critedge, %invoke.cont9
  call void asm sideeffect "", "rm,~{memory},~{dirflag},~{fpsr},~{flags}"(ptr nonnull @_ZN6icu_75L12ICAL_LASTMODE) #15, !srcloc !8
  %call3.i33 = invoke i32 @u_strlen_75(ptr noundef nonnull @_ZN6icu_75L12ICAL_LASTMODE)
          to label %call3.i.noexc32 unwind label %lpad14

call3.i.noexc32:                                  ; preds = %if.else
  %call5.i34 = invoke noundef signext i8 @_ZNK6icu_7513UnicodeString17doEqualsSubstringEiiPKDsii(ptr noundef nonnull align 8 dereferenceable(64) %call5, i32 noundef 0, i32 noundef %call3.i33, ptr noundef nonnull @_ZN6icu_75L12ICAL_LASTMODE, i32 noundef 0, i32 noundef %call3.i33)
          to label %invoke.cont15 unwind label %lpad14

invoke.cont15:                                    ; preds = %call3.i.noexc32
  %tobool17.not = icmp eq i8 %call5.i34, 0
  br i1 %tobool17.not, label %if.else34.critedge, label %land.rhs18

land.rhs18:                                       ; preds = %invoke.cont15
  %call20 = invoke i32 @u_strlen_75(ptr noundef nonnull @_ZN6icu_75L12ICAL_LASTMODE)
          to label %invoke.cont19 unwind label %lpad14

invoke.cont19:                                    ; preds = %land.rhs18
  %fUnion.i.i.i.i36 = getelementptr inbounds %"class.icu_75::UnicodeString", ptr %call5, i64 0, i32 1
  %19 = load i16, ptr %fUnion.i.i.i.i36, align 8
  %cmp.i.i.i.i37 = icmp slt i16 %19, 0
  %20 = ashr i16 %19, 5
  %shr.i.i.i.i38 = sext i16 %20 to i32
  %fLength.i.i.i39 = getelementptr inbounds %"class.icu_75::UnicodeString", ptr %call5, i64 0, i32 1, i32 0, i32 1
  %21 = load i32, ptr %fLength.i.i.i39, align 4
  %cond.i.i.i40 = select i1 %cmp.i.i.i.i37, i32 %21, i32 %shr.i.i.i.i38
  %cmp.i.i41 = icmp ugt i32 %cond.i.i.i40, %call20
  br i1 %cmp.i.i41, label %invoke.cont21, label %invoke.cont21.thread

invoke.cont21.thread:                             ; preds = %invoke.cont19
  call void asm sideeffect "", "rm,~{memory},~{dirflag},~{fpsr},~{flags}"(ptr nonnull @_ZN6icu_75L12ICAL_LASTMODE) #15, !srcloc !4
  br label %if.else34

invoke.cont21:                                    ; preds = %invoke.cont19
  %22 = and i16 %19, 2
  %tobool.not.i.i.i44 = icmp eq i16 %22, 0
  %fBuffer.i.i.i45 = getelementptr inbounds i8, ptr %call5, i64 10
  %fArray.i.i.i46 = getelementptr inbounds %"class.icu_75::UnicodeString", ptr %call5, i64 0, i32 1, i32 0, i32 3
  %23 = load ptr, ptr %fArray.i.i.i46, align 8
  %cond.i2.i.i47 = select i1 %tobool.not.i.i.i44, ptr %23, ptr %fBuffer.i.i.i45
  %idxprom.i.i48 = sext i32 %call20 to i64
  %arrayidx.i.i49 = getelementptr inbounds i16, ptr %cond.i2.i.i47, i64 %idxprom.i.i48
  %24 = load i16, ptr %arrayidx.i.i49, align 2
  %cmp24 = icmp eq i16 %24, 58
  call void asm sideeffect "", "rm,~{memory},~{dirflag},~{fpsr},~{flags}"(ptr nonnull @_ZN6icu_75L12ICAL_LASTMODE) #15, !srcloc !4
  br i1 %cmp24, label %if.then26, label %if.else34

if.then26:                                        ; preds = %invoke.cont21
  store ptr getelementptr inbounds ({ [13 x ptr] }, ptr @_ZTVN6icu_7513UnicodeStringE, i64 0, inrange i32 0, i64 2), ptr %utcString, align 8
  store i16 2, ptr %fUnion2.i, align 8
  %25 = load ptr, ptr %writer, align 8
  %call2.i1.i51 = invoke noundef nonnull align 8 dereferenceable(64) ptr @_ZN6icu_7513UnicodeString8doAppendEPKDsii(ptr noundef nonnull align 8 dereferenceable(64) %25, ptr noundef nonnull @_ZN6icu_75L12ICAL_LASTMODE, i32 noundef 0, i32 noundef -1)
          to label %invoke.cont28 unwind label %lpad.i52

lpad.i52:                                         ; preds = %if.then26
  %26 = landingpad { ptr, i32 }
          cleanup
  call void asm sideeffect "", "rm,~{memory},~{dirflag},~{fpsr},~{flags}"(ptr nonnull @_ZN6icu_75L12ICAL_LASTMODE) #15, !srcloc !4
  br label %lpad27.body

invoke.cont28:                                    ; preds = %if.then26
  call void asm sideeffect "", "rm,~{memory},~{dirflag},~{fpsr},~{flags}"(ptr nonnull @_ZN6icu_75L12ICAL_LASTMODE) #15, !srcloc !4
  %27 = load ptr, ptr %writer, align 8
  call void @llvm.lifetime.start.p0(i64 2, ptr nonnull %srcChar.addr.i.i54)
  store i16 58, ptr %srcChar.addr.i.i54, align 2
  %call.i.i5556 = invoke noundef nonnull align 8 dereferenceable(64) ptr @_ZN6icu_7513UnicodeString8doAppendEPKDsii(ptr noundef nonnull align 8 dereferenceable(64) %27, ptr noundef nonnull %srcChar.addr.i.i54, i32 noundef 0, i32 noundef 1)
          to label %invoke.cont29 unwind label %lpad27

invoke.cont29:                                    ; preds = %invoke.cont28
  call void @llvm.lifetime.end.p0(i64 2, ptr nonnull %srcChar.addr.i.i54)
  %28 = load double, ptr %lastmod, align 8
  %call.i59 = invoke fastcc noundef nonnull align 8 dereferenceable(64) ptr @_ZN6icu_75L17getDateTimeStringEdRNS_13UnicodeStringE(double noundef %28, ptr noundef nonnull align 8 dereferenceable(64) %utcString)
          to label %call.i.noexc unwind label %lpad27

call.i.noexc:                                     ; preds = %invoke.cont29
  call void @llvm.lifetime.start.p0(i64 2, ptr nonnull %srcChar.addr.i.i57)
  store i16 90, ptr %srcChar.addr.i.i57, align 2
  %call.i.i5860 = invoke noundef nonnull align 8 dereferenceable(64) ptr @_ZN6icu_7513UnicodeString8doAppendEPKDsii(ptr noundef nonnull align 8 dereferenceable(64) %utcString, ptr noundef nonnull %srcChar.addr.i.i57, i32 noundef 0, i32 noundef 1)
          to label %invoke.cont30 unwind label %lpad27

invoke.cont30:                                    ; preds = %call.i.noexc
  call void @llvm.lifetime.end.p0(i64 2, ptr nonnull %srcChar.addr.i.i57)
  %29 = load ptr, ptr %writer, align 8
  %30 = load i16, ptr %fUnion2.i, align 8
  %cmp.i.i.i.i62 = icmp slt i16 %30, 0
  %31 = ashr i16 %30, 5
  %shr.i.i.i.i63 = sext i16 %31 to i32
  %32 = load i32, ptr %fLength.i.i.i64, align 4
  %cond.i.i.i65 = select i1 %cmp.i.i.i.i62, i32 %32, i32 %shr.i.i.i.i63
  %call2.i.i6667 = invoke noundef nonnull align 8 dereferenceable(64) ptr @_ZN6icu_7513UnicodeString8doAppendERKS0_ii(ptr noundef nonnull align 8 dereferenceable(64) %29, ptr noundef nonnull align 8 dereferenceable(64) %utcString, i32 noundef 0, i32 noundef %cond.i.i.i65)
          to label %invoke.cont32 unwind label %lpad27

invoke.cont32:                                    ; preds = %invoke.cont30
  %33 = load ptr, ptr %writer, align 8
  %call2.i1.i68 = invoke noundef nonnull align 8 dereferenceable(64) ptr @_ZN6icu_7513UnicodeString8doAppendEPKDsii(ptr noundef nonnull align 8 dereferenceable(64) %33, ptr noundef nonnull @_ZN6icu_75L12ICAL_NEWLINEE, i32 noundef 0, i32 noundef -1)
          to label %invoke.cont33 unwind label %lpad.i69

lpad.i69:                                         ; preds = %invoke.cont32
  %34 = landingpad { ptr, i32 }
          cleanup
  call void asm sideeffect "", "rm,~{memory},~{dirflag},~{fpsr},~{flags}"(ptr nonnull @_ZN6icu_75L12ICAL_NEWLINEE) #15, !srcloc !4
  br label %lpad27.body

invoke.cont33:                                    ; preds = %invoke.cont32
  call void asm sideeffect "", "rm,~{memory},~{dirflag},~{fpsr},~{flags}"(ptr nonnull @_ZN6icu_75L12ICAL_NEWLINEE) #15, !srcloc !4
  call void @_ZN6icu_7513UnicodeStringD1Ev(ptr noundef nonnull align 8 dereferenceable(64) %utcString) #15
  br label %for.inc

lpad14:                                           ; preds = %call3.i.noexc32, %if.else, %land.rhs18
  %35 = landingpad { ptr, i32 }
          cleanup
  call void asm sideeffect "", "rm,~{memory},~{dirflag},~{fpsr},~{flags}"(ptr nonnull @_ZN6icu_75L12ICAL_LASTMODE) #15, !srcloc !4
  br label %common.resume

lpad27:                                           ; preds = %invoke.cont30, %call.i.noexc, %invoke.cont29, %invoke.cont28
  %36 = landingpad { ptr, i32 }
          cleanup
  br label %lpad27.body

lpad27.body:                                      ; preds = %lpad27, %lpad.i69, %lpad.i52
  %eh.lpad-body = phi { ptr, i32 } [ %26, %lpad.i52 ], [ %36, %lpad27 ], [ %34, %lpad.i69 ]
  call void @_ZN6icu_7513UnicodeStringD1Ev(ptr noundef nonnull align 8 dereferenceable(64) %utcString) #15
  br label %common.resume

if.else34.critedge:                               ; preds = %invoke.cont15
  call void asm sideeffect "", "rm,~{memory},~{dirflag},~{fpsr},~{flags}"(ptr nonnull @_ZN6icu_75L12ICAL_LASTMODE) #15, !srcloc !4
  br label %if.else34

if.else34:                                        ; preds = %invoke.cont21.thread, %if.else34.critedge, %invoke.cont21
  %37 = load ptr, ptr %writer, align 8
  %fUnion.i.i.i.i73 = getelementptr inbounds %"class.icu_75::UnicodeString", ptr %call5, i64 0, i32 1
  %38 = load i16, ptr %fUnion.i.i.i.i73, align 8
  %cmp.i.i.i.i74 = icmp slt i16 %38, 0
  %39 = ashr i16 %38, 5
  %shr.i.i.i.i75 = sext i16 %39 to i32
  %fLength.i.i.i76 = getelementptr inbounds %"class.icu_75::UnicodeString", ptr %call5, i64 0, i32 1, i32 0, i32 1
  %40 = load i32, ptr %fLength.i.i.i76, align 4
  %cond.i.i.i77 = select i1 %cmp.i.i.i.i74, i32 %40, i32 %shr.i.i.i.i75
  %call2.i.i78 = call noundef nonnull align 8 dereferenceable(64) ptr @_ZN6icu_7513UnicodeString8doAppendERKS0_ii(ptr noundef nonnull align 8 dereferenceable(64) %37, ptr noundef nonnull align 8 dereferenceable(64) %call5, i32 noundef 0, i32 noundef %cond.i.i.i77)
  %41 = load ptr, ptr %writer, align 8
  %call2.i1.i79 = invoke noundef nonnull align 8 dereferenceable(64) ptr @_ZN6icu_7513UnicodeString8doAppendEPKDsii(ptr noundef nonnull align 8 dereferenceable(64) %41, ptr noundef nonnull @_ZN6icu_75L12ICAL_NEWLINEE, i32 noundef 0, i32 noundef -1)
          to label %_ZN6icu_759VTZWriter5writeEPKDs.exit81 unwind label %lpad.i80

lpad.i80:                                         ; preds = %if.else34
  %42 = landingpad { ptr, i32 }
          cleanup
  call void asm sideeffect "", "rm,~{memory},~{dirflag},~{fpsr},~{flags}"(ptr nonnull @_ZN6icu_75L12ICAL_NEWLINEE) #15, !srcloc !4
  br label %common.resume

_ZN6icu_759VTZWriter5writeEPKDs.exit81:           ; preds = %if.else34
  call void asm sideeffect "", "rm,~{memory},~{dirflag},~{fpsr},~{flags}"(ptr nonnull @_ZN6icu_75L12ICAL_NEWLINEE) #15, !srcloc !4
  br label %for.inc

for.inc:                                          ; preds = %_ZN6icu_759VTZWriter5writeEPKDs.exit31, %_ZN6icu_759VTZWriter5writeEPKDs.exit81, %invoke.cont33
  %inc = add nuw nsw i32 %i.0117, 1
  %43 = load ptr, ptr %vtzlines, align 8
  %count.i = getelementptr inbounds %"class.icu_75::UVector", ptr %43, i64 0, i32 1
  %44 = load i32, ptr %count.i, align 8
  %cmp3 = icmp slt i32 %inc, %44
  br i1 %cmp3, label %for.body, label %if.end60, !llvm.loop !10

if.else36:                                        ; preds = %entry
  store ptr getelementptr inbounds ({ [13 x ptr] }, ptr @_ZTVN6icu_7513UnicodeStringE, i64 0, inrange i32 0, i64 2), ptr %icutzprop, align 8
  %fUnion2.i82 = getelementptr inbounds %"class.icu_75::UnicodeString", ptr %icutzprop, i64 0, i32 1
  store i16 2, ptr %fUnion2.i82, align 8
  invoke void @_ZN6icu_757UVectorC1EPFvPvEPFa8UElementS4_ER10UErrorCode(ptr noundef nonnull align 8 dereferenceable(40) %customProps, ptr noundef null, ptr noundef nonnull @uhash_compareUnicodeString_75, ptr noundef nonnull align 4 dereferenceable(4) %status)
          to label %invoke.cont40 unwind label %lpad37

invoke.cont40:                                    ; preds = %if.else36
  %olsonzid = getelementptr inbounds %"class.icu_75::VTimeZone", ptr %this, i64 0, i32 5
  %fUnion.i.i = getelementptr inbounds %"class.icu_75::VTimeZone", ptr %this, i64 0, i32 5, i32 1
  %45 = load i16, ptr %fUnion.i.i, align 8
  %cmp.i.i83 = icmp slt i16 %45, 0
  %46 = ashr i16 %45, 5
  %shr.i.i = sext i16 %46 to i32
  %fLength.i = getelementptr inbounds %"class.icu_75::VTimeZone", ptr %this, i64 0, i32 5, i32 1, i32 0, i32 1
  %47 = load i32, ptr %fLength.i, align 4
  %cond.i = select i1 %cmp.i.i83, i32 %47, i32 %shr.i.i
  %cmp42 = icmp sgt i32 %cond.i, 0
  br i1 %cmp42, label %invoke.cont43, label %if.end58

invoke.cont43:                                    ; preds = %invoke.cont40
  %icutzver = getelementptr inbounds %"class.icu_75::VTimeZone", ptr %this, i64 0, i32 6
  %fUnion.i.i84 = getelementptr inbounds %"class.icu_75::VTimeZone", ptr %this, i64 0, i32 6, i32 1
  %48 = load i16, ptr %fUnion.i.i84, align 8
  %cmp.i.i85 = icmp slt i16 %48, 0
  %49 = ashr i16 %48, 5
  %shr.i.i86 = sext i16 %49 to i32
  %fLength.i87 = getelementptr inbounds %"class.icu_75::VTimeZone", ptr %this, i64 0, i32 6, i32 1, i32 0, i32 1
  %50 = load i32, ptr %fLength.i87, align 4
  %cond.i88 = select i1 %cmp.i.i85, i32 %50, i32 %shr.i.i86
  %cmp45 = icmp sgt i32 %cond.i88, 0
  br i1 %cmp45, label %if.then46, label %if.end58

if.then46:                                        ; preds = %invoke.cont43
  %call2.i89 = invoke noundef nonnull align 8 dereferenceable(64) ptr @_ZN6icu_7513UnicodeString8doAppendERKS0_ii(ptr noundef nonnull align 8 dereferenceable(64) %icutzprop, ptr noundef nonnull align 8 dereferenceable(64) %olsonzid, i32 noundef 0, i32 noundef %cond.i)
          to label %invoke.cont48 unwind label %lpad39

invoke.cont48:                                    ; preds = %if.then46
  call void @llvm.lifetime.start.p0(i64 2, ptr nonnull %srcChar.addr.i)
  store i16 91, ptr %srcChar.addr.i, align 2
  %call.i91 = invoke noundef nonnull align 8 dereferenceable(64) ptr @_ZN6icu_7513UnicodeString8doAppendEPKDsii(ptr noundef nonnull align 8 dereferenceable(64) %icutzprop, ptr noundef nonnull %srcChar.addr.i, i32 noundef 0, i32 noundef 1)
          to label %invoke.cont50 unwind label %lpad39

invoke.cont50:                                    ; preds = %invoke.cont48
  call void @llvm.lifetime.end.p0(i64 2, ptr nonnull %srcChar.addr.i)
  %51 = load i16, ptr %fUnion.i.i84, align 8
  %cmp.i.i.i93 = icmp slt i16 %51, 0
  %52 = ashr i16 %51, 5
  %shr.i.i.i94 = sext i16 %52 to i32
  %53 = load i32, ptr %fLength.i87, align 4
  %cond.i.i96 = select i1 %cmp.i.i.i93, i32 %53, i32 %shr.i.i.i94
  %call2.i97 = invoke noundef nonnull align 8 dereferenceable(64) ptr @_ZN6icu_7513UnicodeString8doAppendERKS0_ii(ptr noundef nonnull align 8 dereferenceable(64) %icutzprop, ptr noundef nonnull align 8 dereferenceable(64) %icutzver, i32 noundef 0, i32 noundef %cond.i.i96)
          to label %invoke.cont53 unwind label %lpad39

invoke.cont53:                                    ; preds = %invoke.cont50
  call void @llvm.lifetime.start.p0(i64 2, ptr nonnull %srcChar.addr.i99)
  store i16 93, ptr %srcChar.addr.i99, align 2
  %call.i101 = invoke noundef nonnull align 8 dereferenceable(64) ptr @_ZN6icu_7513UnicodeString8doAppendEPKDsii(ptr noundef nonnull align 8 dereferenceable(64) %icutzprop, ptr noundef nonnull %srcChar.addr.i99, i32 noundef 0, i32 noundef 1)
          to label %invoke.cont55 unwind label %lpad39

invoke.cont55:                                    ; preds = %invoke.cont53
  call void @llvm.lifetime.end.p0(i64 2, ptr nonnull %srcChar.addr.i99)
  invoke void @_ZN6icu_757UVector10addElementEPvR10UErrorCode(ptr noundef nonnull align 8 dereferenceable(40) %customProps, ptr noundef nonnull %icutzprop, ptr noundef nonnull align 4 dereferenceable(4) %status)
          to label %if.end58 unwind label %lpad39

lpad37:                                           ; preds = %if.else36
  %54 = landingpad { ptr, i32 }
          cleanup
  br label %ehcleanup

lpad39:                                           ; preds = %invoke.cont53, %invoke.cont50, %invoke.cont48, %if.then46, %if.end58, %invoke.cont55
  %55 = landingpad { ptr, i32 }
          cleanup
  call void @_ZN6icu_757UVectorD1Ev(ptr noundef nonnull align 8 dereferenceable(40) %customProps) #15
  br label %ehcleanup

if.end58:                                         ; preds = %invoke.cont55, %invoke.cont43, %invoke.cont40
  %tz = getelementptr inbounds %"class.icu_75::VTimeZone", ptr %this, i64 0, i32 1
  %56 = load ptr, ptr %tz, align 8
  invoke void @_ZNK6icu_759VTimeZone9writeZoneERNS_9VTZWriterERNS_13BasicTimeZoneEPNS_7UVectorER10UErrorCode(ptr noundef nonnull align 8 dereferenceable(288) %this, ptr noundef nonnull align 8 dereferenceable(8) %writer, ptr noundef nonnull align 8 dereferenceable(72) %56, ptr noundef nonnull %customProps, ptr noundef nonnull align 4 dereferenceable(4) %status)
          to label %invoke.cont59 unwind label %lpad39

invoke.cont59:                                    ; preds = %if.end58
  call void @_ZN6icu_757UVectorD1Ev(ptr noundef nonnull align 8 dereferenceable(40) %customProps) #15
  call void @_ZN6icu_7513UnicodeStringD1Ev(ptr noundef nonnull align 8 dereferenceable(64) %icutzprop) #15
  br label %if.end60

ehcleanup:                                        ; preds = %lpad39, %lpad37
  %.pn = phi { ptr, i32 } [ %55, %lpad39 ], [ %54, %lpad37 ]
  call void @_ZN6icu_7513UnicodeStringD1Ev(ptr noundef nonnull align 8 dereferenceable(64) %icutzprop) #15
  br label %common.resume

if.end60:                                         ; preds = %for.inc, %for.cond.preheader, %invoke.cont59
  ret void
}

; Function Attrs: mustprogress uwtable
define void @_ZNK6icu_759VTimeZone5writeEdRNS_13UnicodeStringER10UErrorCode(ptr noundef nonnull align 8 dereferenceable(288) %this, double noundef %start, ptr noundef nonnull align 8 dereferenceable(64) %result, ptr noundef nonnull align 4 dereferenceable(4) %status) local_unnamed_addr #2 align 2 personality ptr @__gxx_personality_v0 {
entry:
  %writer = alloca %"class.icu_75::VTZWriter", align 8
  %fUnion.i.i = getelementptr inbounds %"class.icu_75::UnicodeString", ptr %result, i64 0, i32 1
  %0 = load i16, ptr %fUnion.i.i, align 8
  %conv2.i3.i = and i16 %0, 1
  %tobool.not.i = icmp eq i16 %conv2.i3.i, 0
  %1 = and i16 %0, 30
  %storemerge.i = select i1 %tobool.not.i, i16 %1, i16 2
  store i16 %storemerge.i, ptr %fUnion.i.i, align 8
  call void @_ZN6icu_759VTZWriterC1ERNS_13UnicodeStringE(ptr noundef nonnull align 8 dereferenceable(8) %writer, ptr noundef nonnull align 8 dereferenceable(64) %result)
  invoke void @_ZNK6icu_759VTimeZone5writeEdRNS_9VTZWriterER10UErrorCode(ptr noundef nonnull align 8 dereferenceable(288) %this, double noundef %start, ptr noundef nonnull align 8 dereferenceable(8) %writer, ptr noundef nonnull align 4 dereferenceable(4) %status)
          to label %invoke.cont unwind label %lpad

invoke.cont:                                      ; preds = %entry
  call void @_ZN6icu_759VTZWriterD1Ev(ptr noundef nonnull align 8 dereferenceable(8) %writer) #15
  ret void

lpad:                                             ; preds = %entry
  %2 = landingpad { ptr, i32 }
          cleanup
  call void @_ZN6icu_759VTZWriterD1Ev(ptr noundef nonnull align 8 dereferenceable(8) %writer) #15
  resume { ptr, i32 } %2
}

; Function Attrs: mustprogress uwtable
define void @_ZNK6icu_759VTimeZone5writeEdRNS_9VTZWriterER10UErrorCode(ptr noundef nonnull align 8 dereferenceable(288) %this, double noundef %start, ptr nocapture noundef nonnull readonly align 8 dereferenceable(8) %writer, ptr noundef nonnull align 4 dereferenceable(4) %status) local_unnamed_addr #2 align 2 personality ptr @__gxx_personality_v0 {
entry:
  %srcChar.addr.i50 = alloca i16, align 2
  %srcChar.addr.i = alloca i16, align 2
  %initial = alloca ptr, align 8
  %transitionRules = alloca ptr, align 8
  %customProps = alloca %"class.icu_75::UVector", align 8
  %tzid = alloca %"class.icu_75::UnicodeString", align 8
  %rbtz = alloca %"class.icu_75::RuleBasedTimeZone", align 8
  %0 = load i32, ptr %status, align 4
  %cmp.i = icmp slt i32 %0, 1
  br i1 %cmp.i, label %invoke.cont, label %cleanup.cont

invoke.cont:                                      ; preds = %entry
  store ptr null, ptr %initial, align 8
  store ptr null, ptr %transitionRules, align 8
  call void @_ZN6icu_757UVectorC1EPFvPvEPFa8UElementS4_ER10UErrorCode(ptr noundef nonnull align 8 dereferenceable(40) %customProps, ptr noundef nonnull @uprv_deleteUObject_75, ptr noundef nonnull @uhash_compareUnicodeString_75, ptr noundef nonnull align 4 dereferenceable(4) %status)
  store ptr getelementptr inbounds ({ [13 x ptr] }, ptr @_ZTVN6icu_7513UnicodeStringE, i64 0, inrange i32 0, i64 2), ptr %tzid, align 8
  %fUnion2.i = getelementptr inbounds %"class.icu_75::UnicodeString", ptr %tzid, i64 0, i32 1
  store i16 2, ptr %fUnion2.i, align 8
  invoke void @_ZNK6icu_7513BasicTimeZone21getTimeZoneRulesAfterEdRPNS_19InitialTimeZoneRuleERPNS_7UVectorER10UErrorCode(ptr noundef nonnull align 8 dereferenceable(72) %this, double noundef %start, ptr noundef nonnull align 8 dereferenceable(8) %initial, ptr noundef nonnull align 8 dereferenceable(8) %transitionRules, ptr noundef nonnull align 4 dereferenceable(4) %status)
          to label %invoke.cont3 unwind label %lpad2

invoke.cont3:                                     ; preds = %invoke.cont
  %1 = load ptr, ptr %initial, align 8
  %2 = load ptr, ptr %transitionRules, align 8
  %3 = load i32, ptr %status, align 4
  %cmp.i24 = icmp slt i32 %3, 1
  br i1 %cmp.i24, label %if.end12, label %cleanup81

lpad2:                                            ; preds = %invoke.cont
  %4 = landingpad { ptr, i32 }
          cleanup
  br label %ehcleanup86

lpad7:                                            ; preds = %if.end12, %invoke.cont13
  %lpInitial.sroa.0.0 = phi ptr [ null, %invoke.cont13 ], [ %1, %if.end12 ]
  %5 = landingpad { ptr, i32 }
          cleanup
  br label %ehcleanup82

if.end12:                                         ; preds = %invoke.cont3
  %fID.i = getelementptr inbounds %"class.icu_75::TimeZone", ptr %this, i64 0, i32 1
  %call.i26 = invoke noundef nonnull align 8 dereferenceable(64) ptr @_ZN6icu_7513UnicodeStringaSERKS0_(ptr noundef nonnull align 8 dereferenceable(64) %tzid, ptr noundef nonnull align 8 dereferenceable(64) %fID.i)
          to label %invoke.cont13 unwind label %lpad7

invoke.cont13:                                    ; preds = %if.end12
  invoke void @_ZN6icu_7517RuleBasedTimeZoneC1ERKNS_13UnicodeStringEPNS_19InitialTimeZoneRuleE(ptr noundef nonnull align 8 dereferenceable(105) %rbtz, ptr noundef nonnull align 8 dereferenceable(64) %tzid, ptr noundef %1)
          to label %invoke.cont17 unwind label %lpad7

invoke.cont17:                                    ; preds = %invoke.cont13
  %cmp.i27.not = icmp eq ptr %2, null
  br i1 %cmp.i27.not, label %if.end38, label %while.cond.preheader

while.cond.preheader:                             ; preds = %invoke.cont17
  %count.i = getelementptr inbounds %"class.icu_75::UVector", ptr %2, i64 0, i32 1
  br label %while.cond

while.cond:                                       ; preds = %while.cond.preheader, %invoke.cont32
  %6 = load i32, ptr %count.i, align 8
  %cmp.i29.not = icmp eq i32 %6, 0
  br i1 %cmp.i29.not, label %if.end38, label %while.body

while.body:                                       ; preds = %while.cond
  %call31 = invoke noundef ptr @_ZN6icu_757UVector15orphanElementAtEi(ptr noundef nonnull align 8 dereferenceable(40) %2, i32 noundef 0)
          to label %invoke.cont30 unwind label %lpad18.loopexit

invoke.cont30:                                    ; preds = %while.body
  invoke void @_ZN6icu_7517RuleBasedTimeZone17addTransitionRuleEPNS_12TimeZoneRuleER10UErrorCode(ptr noundef nonnull align 8 dereferenceable(105) %rbtz, ptr noundef %call31, ptr noundef nonnull align 4 dereferenceable(4) %status)
          to label %invoke.cont32 unwind label %lpad18.loopexit

invoke.cont32:                                    ; preds = %invoke.cont30
  %7 = load i32, ptr %status, align 4
  %cmp.i31 = icmp slt i32 %7, 1
  br i1 %cmp.i31, label %while.cond, label %cleanup, !llvm.loop !11

lpad18.loopexit:                                  ; preds = %while.body, %invoke.cont30
  %lpad.loopexit = landingpad { ptr, i32 }
          cleanup
  br label %ehcleanup

lpad18.loopexit.split-lp:                         ; preds = %if.end38, %invoke.cont67, %invoke.cont71, %if.end79, %if.end56, %invoke.cont58, %invoke.cont60, %invoke.cont69
  %lpad.loopexit.split-lp = landingpad { ptr, i32 }
          cleanup
  br label %ehcleanup

if.end38:                                         ; preds = %while.cond, %invoke.cont17
  invoke void @_ZN6icu_7517RuleBasedTimeZone8completeER10UErrorCode(ptr noundef nonnull align 8 dereferenceable(105) %rbtz, ptr noundef nonnull align 4 dereferenceable(4) %status)
          to label %invoke.cont39 unwind label %lpad18.loopexit.split-lp

invoke.cont39:                                    ; preds = %if.end38
  %8 = load i32, ptr %status, align 4
  %cmp.i33 = icmp slt i32 %8, 1
  br i1 %cmp.i33, label %invoke.cont45, label %cleanup

invoke.cont45:                                    ; preds = %invoke.cont39
  %olsonzid = getelementptr inbounds %"class.icu_75::VTimeZone", ptr %this, i64 0, i32 5
  %fUnion.i.i = getelementptr inbounds %"class.icu_75::VTimeZone", ptr %this, i64 0, i32 5, i32 1
  %9 = load i16, ptr %fUnion.i.i, align 8
  %cmp.i.i = icmp slt i16 %9, 0
  %10 = ashr i16 %9, 5
  %shr.i.i = sext i16 %10 to i32
  %fLength.i = getelementptr inbounds %"class.icu_75::VTimeZone", ptr %this, i64 0, i32 5, i32 1, i32 0, i32 1
  %11 = load i32, ptr %fLength.i, align 4
  %cond.i = select i1 %cmp.i.i, i32 %11, i32 %shr.i.i
  %cmp = icmp sgt i32 %cond.i, 0
  br i1 %cmp, label %invoke.cont47, label %if.end79

invoke.cont47:                                    ; preds = %invoke.cont45
  %icutzver = getelementptr inbounds %"class.icu_75::VTimeZone", ptr %this, i64 0, i32 6
  %fUnion.i.i35 = getelementptr inbounds %"class.icu_75::VTimeZone", ptr %this, i64 0, i32 6, i32 1
  %12 = load i16, ptr %fUnion.i.i35, align 8
  %cmp.i.i36 = icmp slt i16 %12, 0
  %13 = ashr i16 %12, 5
  %shr.i.i37 = sext i16 %13 to i32
  %fLength.i38 = getelementptr inbounds %"class.icu_75::VTimeZone", ptr %this, i64 0, i32 6, i32 1, i32 0, i32 1
  %14 = load i32, ptr %fLength.i38, align 4
  %cond.i39 = select i1 %cmp.i.i36, i32 %14, i32 %shr.i.i37
  %cmp49 = icmp sgt i32 %cond.i39, 0
  br i1 %cmp49, label %if.then50, label %if.end79

if.then50:                                        ; preds = %invoke.cont47
  %call51 = call noundef ptr @_ZN6icu_757UMemorynwEm(i64 noundef 64) #15
  %new.isnull = icmp eq ptr %call51, null
  br i1 %new.isnull, label %if.then55, label %new.notnull

new.notnull:                                      ; preds = %if.then50
  invoke void @_ZN6icu_7513UnicodeStringC1EPKDs(ptr noundef nonnull align 8 dereferenceable(64) %call51, ptr noundef nonnull @_ZN6icu_75L15ICU_TZINFO_PROPE)
          to label %if.end56 unwind label %lpad52

if.then55:                                        ; preds = %if.then50
  store i32 7, ptr %status, align 4
  br label %cleanup

lpad52:                                           ; preds = %new.notnull
  %15 = landingpad { ptr, i32 }
          cleanup
  call void @_ZN6icu_757UMemorydlEPv(ptr noundef nonnull %call51) #15
  br label %ehcleanup

if.end56:                                         ; preds = %new.notnull
  %16 = load i16, ptr %fUnion.i.i, align 8
  %cmp.i.i.i = icmp slt i16 %16, 0
  %17 = ashr i16 %16, 5
  %shr.i.i.i = sext i16 %17 to i32
  %18 = load i32, ptr %fLength.i, align 4
  %cond.i.i = select i1 %cmp.i.i.i, i32 %18, i32 %shr.i.i.i
  %call2.i40 = invoke noundef nonnull align 8 dereferenceable(64) ptr @_ZN6icu_7513UnicodeString8doAppendERKS0_ii(ptr noundef nonnull align 8 dereferenceable(64) %call51, ptr noundef nonnull align 8 dereferenceable(64) %olsonzid, i32 noundef 0, i32 noundef %cond.i.i)
          to label %invoke.cont58 unwind label %lpad18.loopexit.split-lp

invoke.cont58:                                    ; preds = %if.end56
  call void @llvm.lifetime.start.p0(i64 2, ptr nonnull %srcChar.addr.i)
  store i16 91, ptr %srcChar.addr.i, align 2
  %call.i41 = invoke noundef nonnull align 8 dereferenceable(64) ptr @_ZN6icu_7513UnicodeString8doAppendEPKDsii(ptr noundef nonnull align 8 dereferenceable(64) %call51, ptr noundef nonnull %srcChar.addr.i, i32 noundef 0, i32 noundef 1)
          to label %invoke.cont60 unwind label %lpad18.loopexit.split-lp

invoke.cont60:                                    ; preds = %invoke.cont58
  call void @llvm.lifetime.end.p0(i64 2, ptr nonnull %srcChar.addr.i)
  %19 = load i16, ptr %fUnion.i.i35, align 8
  %cmp.i.i.i43 = icmp slt i16 %19, 0
  %20 = ashr i16 %19, 5
  %shr.i.i.i44 = sext i16 %20 to i32
  %21 = load i32, ptr %fLength.i38, align 4
  %cond.i.i46 = select i1 %cmp.i.i.i43, i32 %21, i32 %shr.i.i.i44
  %call2.i47 = invoke noundef nonnull align 8 dereferenceable(64) ptr @_ZN6icu_7513UnicodeString8doAppendERKS0_ii(ptr noundef nonnull align 8 dereferenceable(64) %call51, ptr noundef nonnull align 8 dereferenceable(64) %icutzver, i32 noundef 0, i32 noundef %cond.i.i46)
          to label %invoke.cont63 unwind label %lpad18.loopexit.split-lp

invoke.cont63:                                    ; preds = %invoke.cont60
  %call2.i49 = invoke noundef nonnull align 8 dereferenceable(64) ptr @_ZN6icu_7513UnicodeString8doAppendEPKDsii(ptr noundef nonnull align 8 dereferenceable(64) %call51, ptr noundef nonnull @_ZN6icu_75L18ICU_TZINFO_PARTIALE, i32 noundef 0, i32 noundef -1)
          to label %invoke.cont67 unwind label %lpad66

invoke.cont67:                                    ; preds = %invoke.cont63
  call void asm sideeffect "", "rm,~{memory},~{dirflag},~{fpsr},~{flags}"(ptr nonnull @_ZN6icu_75L18ICU_TZINFO_PARTIALE) #15, !srcloc !4
  %call70 = invoke fastcc noundef nonnull align 8 dereferenceable(64) ptr @_ZN6icu_75L12appendMillisEdRNS_13UnicodeStringE(double noundef %start, ptr noundef nonnull align 8 dereferenceable(64) %call51)
          to label %invoke.cont69 unwind label %lpad18.loopexit.split-lp

invoke.cont69:                                    ; preds = %invoke.cont67
  call void @llvm.lifetime.start.p0(i64 2, ptr nonnull %srcChar.addr.i50)
  store i16 93, ptr %srcChar.addr.i50, align 2
  %call.i51 = invoke noundef nonnull align 8 dereferenceable(64) ptr @_ZN6icu_7513UnicodeString8doAppendEPKDsii(ptr noundef nonnull align 8 dereferenceable(64) %call51, ptr noundef nonnull %srcChar.addr.i50, i32 noundef 0, i32 noundef 1)
          to label %invoke.cont71 unwind label %lpad18.loopexit.split-lp

invoke.cont71:                                    ; preds = %invoke.cont69
  call void @llvm.lifetime.end.p0(i64 2, ptr nonnull %srcChar.addr.i50)
  invoke void @_ZN6icu_757UVector12adoptElementEPvR10UErrorCode(ptr noundef nonnull align 8 dereferenceable(40) %customProps, ptr noundef nonnull %call51, ptr noundef nonnull align 4 dereferenceable(4) %status)
          to label %invoke.cont73 unwind label %lpad18.loopexit.split-lp

invoke.cont73:                                    ; preds = %invoke.cont71
  %22 = load i32, ptr %status, align 4
  %cmp.i53 = icmp slt i32 %22, 1
  br i1 %cmp.i53, label %if.end79, label %cleanup

lpad66:                                           ; preds = %invoke.cont63
  %23 = landingpad { ptr, i32 }
          cleanup
  call void asm sideeffect "", "rm,~{memory},~{dirflag},~{fpsr},~{flags}"(ptr nonnull @_ZN6icu_75L18ICU_TZINFO_PARTIALE) #15, !srcloc !4
  br label %ehcleanup

if.end79:                                         ; preds = %invoke.cont73, %invoke.cont47, %invoke.cont45
  invoke void @_ZNK6icu_759VTimeZone9writeZoneERNS_9VTZWriterERNS_13BasicTimeZoneEPNS_7UVectorER10UErrorCode(ptr noundef nonnull align 8 dereferenceable(288) %this, ptr noundef nonnull align 8 dereferenceable(8) %writer, ptr noundef nonnull align 8 dereferenceable(72) %rbtz, ptr noundef nonnull %customProps, ptr noundef nonnull align 4 dereferenceable(4) %status)
          to label %cleanup unwind label %lpad18.loopexit.split-lp

cleanup:                                          ; preds = %invoke.cont32, %if.end79, %invoke.cont73, %invoke.cont39, %if.then55
  call void @_ZN6icu_7517RuleBasedTimeZoneD1Ev(ptr noundef nonnull align 8 dereferenceable(105) %rbtz) #15
  br label %cleanup81

cleanup81:                                        ; preds = %invoke.cont3, %cleanup
  %lpInitial.sroa.0.1 = phi ptr [ null, %cleanup ], [ %1, %invoke.cont3 ]
  %isnull.i = icmp eq ptr %2, null
  br i1 %isnull.i, label %_ZN6icu_7512LocalPointerINS_7UVectorEED2Ev.exit, label %delete.notnull.i

delete.notnull.i:                                 ; preds = %cleanup81
  %vtable.i = load ptr, ptr %2, align 8
  %vfn.i = getelementptr inbounds ptr, ptr %vtable.i, i64 1
  %24 = load ptr, ptr %vfn.i, align 8
  call void %24(ptr noundef nonnull align 8 dereferenceable(40) %2) #15
  br label %_ZN6icu_7512LocalPointerINS_7UVectorEED2Ev.exit

_ZN6icu_7512LocalPointerINS_7UVectorEED2Ev.exit:  ; preds = %cleanup81, %delete.notnull.i
  %isnull.i55 = icmp eq ptr %lpInitial.sroa.0.1, null
  br i1 %isnull.i55, label %_ZN6icu_7512LocalPointerINS_19InitialTimeZoneRuleEED2Ev.exit, label %delete.notnull.i56

delete.notnull.i56:                               ; preds = %_ZN6icu_7512LocalPointerINS_7UVectorEED2Ev.exit
  %vtable.i57 = load ptr, ptr %lpInitial.sroa.0.1, align 8
  %vfn.i58 = getelementptr inbounds ptr, ptr %vtable.i57, i64 1
  %25 = load ptr, ptr %vfn.i58, align 8
  call void %25(ptr noundef nonnull align 8 dereferenceable(80) %lpInitial.sroa.0.1) #15
  br label %_ZN6icu_7512LocalPointerINS_19InitialTimeZoneRuleEED2Ev.exit

_ZN6icu_7512LocalPointerINS_19InitialTimeZoneRuleEED2Ev.exit: ; preds = %_ZN6icu_7512LocalPointerINS_7UVectorEED2Ev.exit, %delete.notnull.i56
  call void @_ZN6icu_7513UnicodeStringD1Ev(ptr noundef nonnull align 8 dereferenceable(64) %tzid) #15
  call void @_ZN6icu_757UVectorD1Ev(ptr noundef nonnull align 8 dereferenceable(40) %customProps) #15
  br label %cleanup.cont

cleanup.cont:                                     ; preds = %entry, %_ZN6icu_7512LocalPointerINS_19InitialTimeZoneRuleEED2Ev.exit
  ret void

ehcleanup:                                        ; preds = %lpad18.loopexit, %lpad18.loopexit.split-lp, %lpad52, %lpad66
  %.pn = phi { ptr, i32 } [ %23, %lpad66 ], [ %15, %lpad52 ], [ %lpad.loopexit, %lpad18.loopexit ], [ %lpad.loopexit.split-lp, %lpad18.loopexit.split-lp ]
  call void @_ZN6icu_7517RuleBasedTimeZoneD1Ev(ptr noundef nonnull align 8 dereferenceable(105) %rbtz) #15
  br label %ehcleanup82

ehcleanup82:                                      ; preds = %ehcleanup, %lpad7
  %lpInitial.sroa.0.2 = phi ptr [ null, %ehcleanup ], [ %lpInitial.sroa.0.0, %lpad7 ]
  %.pn.pn = phi { ptr, i32 } [ %.pn, %ehcleanup ], [ %5, %lpad7 ]
  %isnull.i59 = icmp eq ptr %2, null
  br i1 %isnull.i59, label %_ZN6icu_7512LocalPointerINS_7UVectorEED2Ev.exit63, label %delete.notnull.i60

delete.notnull.i60:                               ; preds = %ehcleanup82
  %vtable.i61 = load ptr, ptr %2, align 8
  %vfn.i62 = getelementptr inbounds ptr, ptr %vtable.i61, i64 1
  %26 = load ptr, ptr %vfn.i62, align 8
  call void %26(ptr noundef nonnull align 8 dereferenceable(40) %2) #15
  br label %_ZN6icu_7512LocalPointerINS_7UVectorEED2Ev.exit63

_ZN6icu_7512LocalPointerINS_7UVectorEED2Ev.exit63: ; preds = %ehcleanup82, %delete.notnull.i60
  %isnull.i64 = icmp eq ptr %lpInitial.sroa.0.2, null
  br i1 %isnull.i64, label %ehcleanup86, label %delete.notnull.i65

delete.notnull.i65:                               ; preds = %_ZN6icu_7512LocalPointerINS_7UVectorEED2Ev.exit63
  %vtable.i66 = load ptr, ptr %lpInitial.sroa.0.2, align 8
  %vfn.i67 = getelementptr inbounds ptr, ptr %vtable.i66, i64 1
  %27 = load ptr, ptr %vfn.i67, align 8
  call void %27(ptr noundef nonnull align 8 dereferenceable(80) %lpInitial.sroa.0.2) #15
  br label %ehcleanup86

ehcleanup86:                                      ; preds = %delete.notnull.i65, %_ZN6icu_7512LocalPointerINS_7UVectorEED2Ev.exit63, %lpad2
  %.pn.pn.pn = phi { ptr, i32 } [ %4, %lpad2 ], [ %.pn.pn, %_ZN6icu_7512LocalPointerINS_7UVectorEED2Ev.exit63 ], [ %.pn.pn, %delete.notnull.i65 ]
  call void @_ZN6icu_7513UnicodeStringD1Ev(ptr noundef nonnull align 8 dereferenceable(64) %tzid) #15
  call void @_ZN6icu_757UVectorD1Ev(ptr noundef nonnull align 8 dereferenceable(40) %customProps) #15
  resume { ptr, i32 } %.pn.pn.pn
}

; Function Attrs: mustprogress uwtable
define void @_ZNK6icu_759VTimeZone11writeSimpleEdRNS_13UnicodeStringER10UErrorCode(ptr noundef nonnull align 8 dereferenceable(288) %this, double noundef %time, ptr noundef nonnull align 8 dereferenceable(64) %result, ptr noundef nonnull align 4 dereferenceable(4) %status) local_unnamed_addr #2 align 2 personality ptr @__gxx_personality_v0 {
entry:
  %writer = alloca %"class.icu_75::VTZWriter", align 8
  %fUnion.i.i = getelementptr inbounds %"class.icu_75::UnicodeString", ptr %result, i64 0, i32 1
  %0 = load i16, ptr %fUnion.i.i, align 8
  %conv2.i3.i = and i16 %0, 1
  %tobool.not.i = icmp eq i16 %conv2.i3.i, 0
  %1 = and i16 %0, 30
  %storemerge.i = select i1 %tobool.not.i, i16 %1, i16 2
  store i16 %storemerge.i, ptr %fUnion.i.i, align 8
  call void @_ZN6icu_759VTZWriterC1ERNS_13UnicodeStringE(ptr noundef nonnull align 8 dereferenceable(8) %writer, ptr noundef nonnull align 8 dereferenceable(64) %result)
  invoke void @_ZNK6icu_759VTimeZone11writeSimpleEdRNS_9VTZWriterER10UErrorCode(ptr noundef nonnull align 8 dereferenceable(288) %this, double noundef %time, ptr noundef nonnull align 8 dereferenceable(8) %writer, ptr noundef nonnull align 4 dereferenceable(4) %status)
          to label %invoke.cont unwind label %lpad

invoke.cont:                                      ; preds = %entry
  call void @_ZN6icu_759VTZWriterD1Ev(ptr noundef nonnull align 8 dereferenceable(8) %writer) #15
  ret void

lpad:                                             ; preds = %entry
  %2 = landingpad { ptr, i32 }
          cleanup
  call void @_ZN6icu_759VTZWriterD1Ev(ptr noundef nonnull align 8 dereferenceable(8) %writer) #15
  resume { ptr, i32 } %2
}

; Function Attrs: mustprogress uwtable
define void @_ZNK6icu_759VTimeZone11writeSimpleEdRNS_9VTZWriterER10UErrorCode(ptr noundef nonnull align 8 dereferenceable(288) %this, double noundef %time, ptr nocapture noundef nonnull readonly align 8 dereferenceable(8) %writer, ptr noundef nonnull align 4 dereferenceable(4) %status) local_unnamed_addr #2 align 2 personality ptr @__gxx_personality_v0 {
entry:
  %srcChar.addr.i51 = alloca i16, align 2
  %srcChar.addr.i = alloca i16, align 2
  %customProps = alloca %"class.icu_75::UVector", align 8
  %tzid = alloca %"class.icu_75::UnicodeString", align 8
  %initial = alloca ptr, align 8
  %std = alloca ptr, align 8
  %dst = alloca ptr, align 8
  %rbtz = alloca %"class.icu_75::RuleBasedTimeZone", align 8
  %0 = load i32, ptr %status, align 4
  %cmp.i = icmp slt i32 %0, 1
  br i1 %cmp.i, label %invoke.cont, label %cleanup.cont104

invoke.cont:                                      ; preds = %entry
  call void @_ZN6icu_757UVectorC1EPFvPvEPFa8UElementS4_ER10UErrorCode(ptr noundef nonnull align 8 dereferenceable(40) %customProps, ptr noundef nonnull @uprv_deleteUObject_75, ptr noundef nonnull @uhash_compareUnicodeString_75, ptr noundef nonnull align 4 dereferenceable(4) %status)
  store ptr getelementptr inbounds ({ [13 x ptr] }, ptr @_ZTVN6icu_7513UnicodeStringE, i64 0, inrange i32 0, i64 2), ptr %tzid, align 8
  %fUnion2.i = getelementptr inbounds %"class.icu_75::UnicodeString", ptr %tzid, i64 0, i32 1
  store i16 2, ptr %fUnion2.i, align 8
  store ptr null, ptr %initial, align 8
  store ptr null, ptr %std, align 8
  store ptr null, ptr %dst, align 8
  %vtable = load ptr, ptr %this, align 8
  %vfn = getelementptr inbounds ptr, ptr %vtable, i64 19
  %1 = load ptr, ptr %vfn, align 8
  invoke void %1(ptr noundef nonnull align 8 dereferenceable(72) %this, double noundef %time, ptr noundef nonnull align 8 dereferenceable(8) %initial, ptr noundef nonnull align 8 dereferenceable(8) %std, ptr noundef nonnull align 8 dereferenceable(8) %dst, ptr noundef nonnull align 4 dereferenceable(4) %status)
          to label %invoke.cont8 unwind label %lpad2

invoke.cont8:                                     ; preds = %invoke.cont
  %2 = load ptr, ptr %initial, align 8
  %3 = load ptr, ptr %std, align 8
  %4 = load ptr, ptr %dst, align 8
  %5 = load i32, ptr %status, align 4
  %cmp.i23 = icmp sgt i32 %5, 0
  br i1 %cmp.i23, label %cleanup94, label %if.then13

if.then13:                                        ; preds = %invoke.cont8
  %fID.i = getelementptr inbounds %"class.icu_75::TimeZone", ptr %this, i64 0, i32 1
  %call.i25 = invoke noundef nonnull align 8 dereferenceable(64) ptr @_ZN6icu_7513UnicodeStringaSERKS0_(ptr noundef nonnull align 8 dereferenceable(64) %tzid, ptr noundef nonnull align 8 dereferenceable(64) %fID.i)
          to label %invoke.cont14 unwind label %lpad9

invoke.cont14:                                    ; preds = %if.then13
  invoke void @_ZN6icu_7517RuleBasedTimeZoneC1ERKNS_13UnicodeStringEPNS_19InitialTimeZoneRuleE(ptr noundef nonnull align 8 dereferenceable(105) %rbtz, ptr noundef nonnull align 8 dereferenceable(64) %tzid, ptr noundef %2)
          to label %invoke.cont18 unwind label %lpad9

invoke.cont18:                                    ; preds = %invoke.cont14
  %cmp.i26.not = icmp eq ptr %3, null
  %cmp.i28.not = icmp eq ptr %4, null
  %or.cond = select i1 %cmp.i26.not, i1 true, i1 %cmp.i28.not
  br i1 %or.cond, label %if.end33, label %if.then26

if.then26:                                        ; preds = %invoke.cont18
  invoke void @_ZN6icu_7517RuleBasedTimeZone17addTransitionRuleEPNS_12TimeZoneRuleER10UErrorCode(ptr noundef nonnull align 8 dereferenceable(105) %rbtz, ptr noundef nonnull %3, ptr noundef nonnull align 4 dereferenceable(4) %status)
          to label %invoke.cont29 unwind label %lpad19

invoke.cont29:                                    ; preds = %if.then26
  invoke void @_ZN6icu_7517RuleBasedTimeZone17addTransitionRuleEPNS_12TimeZoneRuleER10UErrorCode(ptr noundef nonnull align 8 dereferenceable(105) %rbtz, ptr noundef nonnull %4, ptr noundef nonnull align 4 dereferenceable(4) %status)
          to label %if.end33 unwind label %lpad19

lpad2:                                            ; preds = %invoke.cont
  %6 = landingpad { ptr, i32 }
          cleanup
  br label %ehcleanup101

lpad9:                                            ; preds = %if.then13, %invoke.cont14
  %lpInitial.sroa.0.0 = phi ptr [ null, %invoke.cont14 ], [ %2, %if.then13 ]
  %7 = landingpad { ptr, i32 }
          cleanup
  br label %ehcleanup95

lpad19:                                           ; preds = %if.end87, %invoke.cont29, %if.then26
  %lpStd.sroa.0.0 = phi ptr [ %lpStd.sroa.0.1, %if.end87 ], [ null, %invoke.cont29 ], [ null, %if.then26 ]
  %lpDst.sroa.0.0 = phi ptr [ %lpDst.sroa.0.1, %if.end87 ], [ null, %invoke.cont29 ], [ %4, %if.then26 ]
  %8 = landingpad { ptr, i32 }
          cleanup
  br label %ehcleanup92

if.end33:                                         ; preds = %invoke.cont29, %invoke.cont18
  %lpStd.sroa.0.1 = phi ptr [ %3, %invoke.cont18 ], [ null, %invoke.cont29 ]
  %lpDst.sroa.0.1 = phi ptr [ %4, %invoke.cont18 ], [ null, %invoke.cont29 ]
  %9 = load i32, ptr %status, align 4
  %cmp.i30 = icmp slt i32 %9, 1
  br i1 %cmp.i30, label %invoke.cont39, label %cleanup94.sink.split

invoke.cont39:                                    ; preds = %if.end33
  %olsonzid = getelementptr inbounds %"class.icu_75::VTimeZone", ptr %this, i64 0, i32 5
  %fUnion.i.i = getelementptr inbounds %"class.icu_75::VTimeZone", ptr %this, i64 0, i32 5, i32 1
  %10 = load i16, ptr %fUnion.i.i, align 8
  %cmp.i.i = icmp slt i16 %10, 0
  %11 = ashr i16 %10, 5
  %shr.i.i = sext i16 %11 to i32
  %fLength.i = getelementptr inbounds %"class.icu_75::VTimeZone", ptr %this, i64 0, i32 5, i32 1, i32 0, i32 1
  %12 = load i32, ptr %fLength.i, align 4
  %cond.i = select i1 %cmp.i.i, i32 %12, i32 %shr.i.i
  %cmp = icmp sgt i32 %cond.i, 0
  br i1 %cmp, label %invoke.cont42, label %if.end87

invoke.cont42:                                    ; preds = %invoke.cont39
  %icutzver = getelementptr inbounds %"class.icu_75::VTimeZone", ptr %this, i64 0, i32 6
  %fUnion.i.i32 = getelementptr inbounds %"class.icu_75::VTimeZone", ptr %this, i64 0, i32 6, i32 1
  %13 = load i16, ptr %fUnion.i.i32, align 8
  %cmp.i.i33 = icmp slt i16 %13, 0
  %14 = ashr i16 %13, 5
  %shr.i.i34 = sext i16 %14 to i32
  %fLength.i35 = getelementptr inbounds %"class.icu_75::VTimeZone", ptr %this, i64 0, i32 6, i32 1, i32 0, i32 1
  %15 = load i32, ptr %fLength.i35, align 4
  %cond.i36 = select i1 %cmp.i.i33, i32 %15, i32 %shr.i.i34
  %cmp44 = icmp sgt i32 %cond.i36, 0
  br i1 %cmp44, label %if.then45, label %if.end87

if.then45:                                        ; preds = %invoke.cont42
  %call46 = call noundef ptr @_ZN6icu_757UMemorynwEm(i64 noundef 64) #15
  %new.isnull = icmp eq ptr %call46, null
  br i1 %new.isnull, label %new.cont, label %new.notnull

new.notnull:                                      ; preds = %if.then45
  invoke void @_ZN6icu_7513UnicodeStringC1EPKDs(ptr noundef nonnull align 8 dereferenceable(64) %call46, ptr noundef nonnull @_ZN6icu_75L15ICU_TZINFO_PROPE)
          to label %invoke.cont49 unwind label %lpad47

new.cont:                                         ; preds = %if.then45
  %16 = load i32, ptr %status, align 4
  %cmp.i.i38 = icmp sgt i32 %16, 0
  br i1 %cmp.i.i38, label %cleanup94.sink.split, label %if.then.i

if.then.i:                                        ; preds = %new.cont
  store i32 7, ptr %status, align 4
  br label %cleanup94.sink.split

invoke.cont49:                                    ; preds = %new.notnull
  %.pre = load i32, ptr %status, align 4
  %cmp.i39 = icmp slt i32 %.pre, 1
  br i1 %cmp.i39, label %if.end55, label %delete.notnull.i60

lpad47:                                           ; preds = %new.notnull
  %17 = landingpad { ptr, i32 }
          cleanup
  call void @_ZN6icu_757UMemorydlEPv(ptr noundef nonnull %call46) #15
  br label %ehcleanup92

if.end55:                                         ; preds = %invoke.cont49
  %18 = load i16, ptr %fUnion.i.i, align 8
  %cmp.i.i.i = icmp slt i16 %18, 0
  %19 = ashr i16 %18, 5
  %shr.i.i.i = sext i16 %19 to i32
  %20 = load i32, ptr %fLength.i, align 4
  %cond.i.i = select i1 %cmp.i.i.i, i32 %20, i32 %shr.i.i.i
  %call2.i41 = invoke noundef nonnull align 8 dereferenceable(64) ptr @_ZN6icu_7513UnicodeString8doAppendERKS0_ii(ptr noundef nonnull align 8 dereferenceable(64) %call46, ptr noundef nonnull align 8 dereferenceable(64) %olsonzid, i32 noundef 0, i32 noundef %cond.i.i)
          to label %invoke.cont59 unwind label %ehcleanup.thread120

invoke.cont59:                                    ; preds = %if.end55
  call void @llvm.lifetime.start.p0(i64 2, ptr nonnull %srcChar.addr.i)
  store i16 91, ptr %srcChar.addr.i, align 2
  %call.i42 = invoke noundef nonnull align 8 dereferenceable(64) ptr @_ZN6icu_7513UnicodeString8doAppendEPKDsii(ptr noundef nonnull align 8 dereferenceable(64) %call46, ptr noundef nonnull %srcChar.addr.i, i32 noundef 0, i32 noundef 1)
          to label %invoke.cont63 unwind label %ehcleanup.thread120

invoke.cont63:                                    ; preds = %invoke.cont59
  call void @llvm.lifetime.end.p0(i64 2, ptr nonnull %srcChar.addr.i)
  %21 = load i16, ptr %fUnion.i.i32, align 8
  %cmp.i.i.i44 = icmp slt i16 %21, 0
  %22 = ashr i16 %21, 5
  %shr.i.i.i45 = sext i16 %22 to i32
  %23 = load i32, ptr %fLength.i35, align 4
  %cond.i.i47 = select i1 %cmp.i.i.i44, i32 %23, i32 %shr.i.i.i45
  %call2.i48 = invoke noundef nonnull align 8 dereferenceable(64) ptr @_ZN6icu_7513UnicodeString8doAppendERKS0_ii(ptr noundef nonnull align 8 dereferenceable(64) %call46, ptr noundef nonnull align 8 dereferenceable(64) %icutzver, i32 noundef 0, i32 noundef %cond.i.i47)
          to label %invoke.cont68 unwind label %ehcleanup.thread120

invoke.cont68:                                    ; preds = %invoke.cont63
  %call2.i50 = invoke noundef nonnull align 8 dereferenceable(64) ptr @_ZN6icu_7513UnicodeString8doAppendEPKDsii(ptr noundef nonnull align 8 dereferenceable(64) %call46, ptr noundef nonnull @_ZN6icu_75L17ICU_TZINFO_SIMPLEE, i32 noundef 0, i32 noundef -1)
          to label %invoke.cont74 unwind label %ehcleanup.thread

invoke.cont74:                                    ; preds = %invoke.cont68
  call void asm sideeffect "", "rm,~{memory},~{dirflag},~{fpsr},~{flags}"(ptr nonnull @_ZN6icu_75L17ICU_TZINFO_SIMPLEE) #15, !srcloc !4
  %call79 = invoke fastcc noundef nonnull align 8 dereferenceable(64) ptr @_ZN6icu_75L12appendMillisEdRNS_13UnicodeStringE(double noundef %time, ptr noundef nonnull align 8 dereferenceable(64) %call46)
          to label %invoke.cont78 unwind label %ehcleanup.thread120

invoke.cont78:                                    ; preds = %invoke.cont74
  call void @llvm.lifetime.start.p0(i64 2, ptr nonnull %srcChar.addr.i51)
  store i16 93, ptr %srcChar.addr.i51, align 2
  %call.i52 = invoke noundef nonnull align 8 dereferenceable(64) ptr @_ZN6icu_7513UnicodeString8doAppendEPKDsii(ptr noundef nonnull align 8 dereferenceable(64) %call46, ptr noundef nonnull %srcChar.addr.i51, i32 noundef 0, i32 noundef 1)
          to label %invoke.cont82 unwind label %ehcleanup.thread120

invoke.cont82:                                    ; preds = %invoke.cont78
  call void @llvm.lifetime.end.p0(i64 2, ptr nonnull %srcChar.addr.i51)
  invoke void @_ZN6icu_757UVector12adoptElementEPvR10UErrorCode(ptr noundef nonnull align 8 dereferenceable(40) %customProps, ptr noundef nonnull %call46, ptr noundef nonnull align 4 dereferenceable(4) %status)
          to label %if.end87 unwind label %ehcleanup

ehcleanup.thread:                                 ; preds = %invoke.cont68
  %24 = landingpad { ptr, i32 }
          cleanup
  call void asm sideeffect "", "rm,~{memory},~{dirflag},~{fpsr},~{flags}"(ptr nonnull @_ZN6icu_75L17ICU_TZINFO_SIMPLEE) #15, !srcloc !4
  br label %delete.notnull.i55

ehcleanup.thread120:                              ; preds = %invoke.cont78, %invoke.cont74, %invoke.cont63, %invoke.cont59, %if.end55
  %lpad.thr_comm = landingpad { ptr, i32 }
          cleanup
  br label %delete.notnull.i55

ehcleanup:                                        ; preds = %invoke.cont82
  %lpad.thr_comm.split-lp = landingpad { ptr, i32 }
          cleanup
  br label %ehcleanup92

delete.notnull.i55:                               ; preds = %ehcleanup.thread120, %ehcleanup.thread
  %.pn119 = phi { ptr, i32 } [ %24, %ehcleanup.thread ], [ %lpad.thr_comm, %ehcleanup.thread120 ]
  %vtable.i56 = load ptr, ptr %call46, align 8
  %vfn.i57 = getelementptr inbounds ptr, ptr %vtable.i56, i64 1
  %25 = load ptr, ptr %vfn.i57, align 8
  call void %25(ptr noundef nonnull align 8 dereferenceable(64) %call46) #15
  br label %ehcleanup92

if.end87:                                         ; preds = %invoke.cont82, %invoke.cont42, %invoke.cont39
  invoke void @_ZNK6icu_759VTimeZone9writeZoneERNS_9VTZWriterERNS_13BasicTimeZoneEPNS_7UVectorER10UErrorCode(ptr noundef nonnull align 8 dereferenceable(288) %this, ptr noundef nonnull align 8 dereferenceable(8) %writer, ptr noundef nonnull align 8 dereferenceable(72) %rbtz, ptr noundef nonnull %customProps, ptr noundef nonnull align 4 dereferenceable(4) %status)
          to label %cleanup94.sink.split unwind label %lpad19

delete.notnull.i60:                               ; preds = %invoke.cont49
  %vtable.i61 = load ptr, ptr %call46, align 8
  %vfn.i62 = getelementptr inbounds ptr, ptr %vtable.i61, i64 1
  %26 = load ptr, ptr %vfn.i62, align 8
  call void %26(ptr noundef nonnull align 8 dereferenceable(64) %call46) #15
  br label %cleanup94.sink.split

ehcleanup92:                                      ; preds = %ehcleanup, %delete.notnull.i55, %lpad47, %lpad19
  %lpStd.sroa.0.2 = phi ptr [ %lpStd.sroa.0.0, %lpad19 ], [ %lpStd.sroa.0.1, %lpad47 ], [ %lpStd.sroa.0.1, %ehcleanup ], [ %lpStd.sroa.0.1, %delete.notnull.i55 ]
  %lpDst.sroa.0.2 = phi ptr [ %lpDst.sroa.0.0, %lpad19 ], [ %lpDst.sroa.0.1, %lpad47 ], [ %lpDst.sroa.0.1, %ehcleanup ], [ %lpDst.sroa.0.1, %delete.notnull.i55 ]
  %.pn15 = phi { ptr, i32 } [ %8, %lpad19 ], [ %17, %lpad47 ], [ %lpad.thr_comm.split-lp, %ehcleanup ], [ %.pn119, %delete.notnull.i55 ]
  call void @_ZN6icu_7517RuleBasedTimeZoneD1Ev(ptr noundef nonnull align 8 dereferenceable(105) %rbtz) #15
  br label %ehcleanup95

cleanup94.sink.split:                             ; preds = %if.end33, %delete.notnull.i60, %new.cont, %if.then.i, %if.end87
  call void @_ZN6icu_7517RuleBasedTimeZoneD1Ev(ptr noundef nonnull align 8 dereferenceable(105) %rbtz) #15
  br label %cleanup94

cleanup94:                                        ; preds = %cleanup94.sink.split, %invoke.cont8
  %lpStd.sroa.0.3 = phi ptr [ %3, %invoke.cont8 ], [ %lpStd.sroa.0.1, %cleanup94.sink.split ]
  %lpDst.sroa.0.3 = phi ptr [ %4, %invoke.cont8 ], [ %lpDst.sroa.0.1, %cleanup94.sink.split ]
  %lpInitial.sroa.0.1 = phi ptr [ %2, %invoke.cont8 ], [ null, %cleanup94.sink.split ]
  %isnull.i64 = icmp eq ptr %lpDst.sroa.0.3, null
  br i1 %isnull.i64, label %_ZN6icu_7512LocalPointerINS_18AnnualTimeZoneRuleEED2Ev.exit, label %delete.notnull.i65

delete.notnull.i65:                               ; preds = %cleanup94
  %vtable.i66 = load ptr, ptr %lpDst.sroa.0.3, align 8
  %vfn.i67 = getelementptr inbounds ptr, ptr %vtable.i66, i64 1
  %27 = load ptr, ptr %vfn.i67, align 8
  call void %27(ptr noundef nonnull align 8 dereferenceable(96) %lpDst.sroa.0.3) #15
  br label %_ZN6icu_7512LocalPointerINS_18AnnualTimeZoneRuleEED2Ev.exit

_ZN6icu_7512LocalPointerINS_18AnnualTimeZoneRuleEED2Ev.exit: ; preds = %cleanup94, %delete.notnull.i65
  %isnull.i68 = icmp eq ptr %lpStd.sroa.0.3, null
  br i1 %isnull.i68, label %_ZN6icu_7512LocalPointerINS_18AnnualTimeZoneRuleEED2Ev.exit72, label %delete.notnull.i69

delete.notnull.i69:                               ; preds = %_ZN6icu_7512LocalPointerINS_18AnnualTimeZoneRuleEED2Ev.exit
  %vtable.i70 = load ptr, ptr %lpStd.sroa.0.3, align 8
  %vfn.i71 = getelementptr inbounds ptr, ptr %vtable.i70, i64 1
  %28 = load ptr, ptr %vfn.i71, align 8
  call void %28(ptr noundef nonnull align 8 dereferenceable(96) %lpStd.sroa.0.3) #15
  br label %_ZN6icu_7512LocalPointerINS_18AnnualTimeZoneRuleEED2Ev.exit72

_ZN6icu_7512LocalPointerINS_18AnnualTimeZoneRuleEED2Ev.exit72: ; preds = %_ZN6icu_7512LocalPointerINS_18AnnualTimeZoneRuleEED2Ev.exit, %delete.notnull.i69
  %isnull.i73 = icmp eq ptr %lpInitial.sroa.0.1, null
  br i1 %isnull.i73, label %_ZN6icu_7512LocalPointerINS_19InitialTimeZoneRuleEED2Ev.exit, label %delete.notnull.i74

delete.notnull.i74:                               ; preds = %_ZN6icu_7512LocalPointerINS_18AnnualTimeZoneRuleEED2Ev.exit72
  %vtable.i75 = load ptr, ptr %lpInitial.sroa.0.1, align 8
  %vfn.i76 = getelementptr inbounds ptr, ptr %vtable.i75, i64 1
  %29 = load ptr, ptr %vfn.i76, align 8
  call void %29(ptr noundef nonnull align 8 dereferenceable(80) %lpInitial.sroa.0.1) #15
  br label %_ZN6icu_7512LocalPointerINS_19InitialTimeZoneRuleEED2Ev.exit

_ZN6icu_7512LocalPointerINS_19InitialTimeZoneRuleEED2Ev.exit: ; preds = %_ZN6icu_7512LocalPointerINS_18AnnualTimeZoneRuleEED2Ev.exit72, %delete.notnull.i74
  call void @_ZN6icu_7513UnicodeStringD1Ev(ptr noundef nonnull align 8 dereferenceable(64) %tzid) #15
  call void @_ZN6icu_757UVectorD1Ev(ptr noundef nonnull align 8 dereferenceable(40) %customProps) #15
  br label %cleanup.cont104

cleanup.cont104:                                  ; preds = %entry, %_ZN6icu_7512LocalPointerINS_19InitialTimeZoneRuleEED2Ev.exit
  ret void

ehcleanup95:                                      ; preds = %ehcleanup92, %lpad9
  %lpStd.sroa.0.4 = phi ptr [ %lpStd.sroa.0.2, %ehcleanup92 ], [ %3, %lpad9 ]
  %lpDst.sroa.0.4 = phi ptr [ %lpDst.sroa.0.2, %ehcleanup92 ], [ %4, %lpad9 ]
  %lpInitial.sroa.0.2 = phi ptr [ null, %ehcleanup92 ], [ %lpInitial.sroa.0.0, %lpad9 ]
  %.pn15.pn = phi { ptr, i32 } [ %.pn15, %ehcleanup92 ], [ %7, %lpad9 ]
  %isnull.i77 = icmp eq ptr %lpDst.sroa.0.4, null
  br i1 %isnull.i77, label %ehcleanup97, label %delete.notnull.i78

delete.notnull.i78:                               ; preds = %ehcleanup95
  %vtable.i79 = load ptr, ptr %lpDst.sroa.0.4, align 8
  %vfn.i80 = getelementptr inbounds ptr, ptr %vtable.i79, i64 1
  %30 = load ptr, ptr %vfn.i80, align 8
  call void %30(ptr noundef nonnull align 8 dereferenceable(96) %lpDst.sroa.0.4) #15
  br label %ehcleanup97

ehcleanup97:                                      ; preds = %delete.notnull.i78, %ehcleanup95
  %isnull.i82 = icmp eq ptr %lpStd.sroa.0.4, null
  br i1 %isnull.i82, label %ehcleanup99, label %delete.notnull.i83

delete.notnull.i83:                               ; preds = %ehcleanup97
  %vtable.i84 = load ptr, ptr %lpStd.sroa.0.4, align 8
  %vfn.i85 = getelementptr inbounds ptr, ptr %vtable.i84, i64 1
  %31 = load ptr, ptr %vfn.i85, align 8
  call void %31(ptr noundef nonnull align 8 dereferenceable(96) %lpStd.sroa.0.4) #15
  br label %ehcleanup99

ehcleanup99:                                      ; preds = %delete.notnull.i83, %ehcleanup97
  %isnull.i87 = icmp eq ptr %lpInitial.sroa.0.2, null
  br i1 %isnull.i87, label %ehcleanup101, label %delete.notnull.i88

delete.notnull.i88:                               ; preds = %ehcleanup99
  %vtable.i89 = load ptr, ptr %lpInitial.sroa.0.2, align 8
  %vfn.i90 = getelementptr inbounds ptr, ptr %vtable.i89, i64 1
  %32 = load ptr, ptr %vfn.i90, align 8
  call void %32(ptr noundef nonnull align 8 dereferenceable(80) %lpInitial.sroa.0.2) #15
  br label %ehcleanup101

ehcleanup101:                                     ; preds = %delete.notnull.i88, %ehcleanup99, %lpad2
  %.pn15.pn.pn.pn.pn = phi { ptr, i32 } [ %6, %lpad2 ], [ %.pn15.pn, %ehcleanup99 ], [ %.pn15.pn, %delete.notnull.i88 ]
  call void @_ZN6icu_7513UnicodeStringD1Ev(ptr noundef nonnull align 8 dereferenceable(64) %tzid) #15
  call void @_ZN6icu_757UVectorD1Ev(ptr noundef nonnull align 8 dereferenceable(40) %customProps) #15
  resume { ptr, i32 } %.pn15.pn.pn.pn.pn
}

; Function Attrs: mustprogress uwtable
define noundef ptr @_ZNK6icu_759VTimeZone5cloneEv(ptr noundef nonnull align 8 dereferenceable(288) %this) unnamed_addr #2 align 2 personality ptr @__gxx_personality_v0 {
entry:
  %call = tail call noundef ptr @_ZN6icu_757UMemorynwEm(i64 noundef 288) #15
  %new.isnull = icmp eq ptr %call, null
  br i1 %new.isnull, label %new.cont, label %new.notnull

new.notnull:                                      ; preds = %entry
  invoke void @_ZN6icu_759VTimeZoneC1ERKS0_(ptr noundef nonnull align 8 dereferenceable(288) %call, ptr noundef nonnull align 8 dereferenceable(288) %this)
          to label %new.cont unwind label %lpad

new.cont:                                         ; preds = %new.notnull, %entry
  ret ptr %call

lpad:                                             ; preds = %new.notnull
  %0 = landingpad { ptr, i32 }
          cleanup
  tail call void @_ZN6icu_757UMemorydlEPv(ptr noundef nonnull %call) #15
  resume { ptr, i32 } %0
}

; Function Attrs: mustprogress uwtable
define noundef i32 @_ZNK6icu_759VTimeZone9getOffsetEhiiihiR10UErrorCode(ptr nocapture noundef nonnull readonly align 8 dereferenceable(288) %this, i8 noundef zeroext %era, i32 noundef %year, i32 noundef %month, i32 noundef %day, i8 noundef zeroext %dayOfWeek, i32 noundef %millis, ptr noundef nonnull align 4 dereferenceable(4) %status) unnamed_addr #2 align 2 {
entry:
  %tz = getelementptr inbounds %"class.icu_75::VTimeZone", ptr %this, i64 0, i32 1
  %0 = load ptr, ptr %tz, align 8
  %vtable = load ptr, ptr %0, align 8
  %vfn = getelementptr inbounds ptr, ptr %vtable, i64 4
  %1 = load ptr, ptr %vfn, align 8
  %call = tail call noundef i32 %1(ptr noundef nonnull align 8 dereferenceable(72) %0, i8 noundef zeroext %era, i32 noundef %year, i32 noundef %month, i32 noundef %day, i8 noundef zeroext %dayOfWeek, i32 noundef %millis, ptr noundef nonnull align 4 dereferenceable(4) %status)
  ret i32 %call
}

; Function Attrs: mustprogress uwtable
define noundef i32 @_ZNK6icu_759VTimeZone9getOffsetEhiiihiiR10UErrorCode(ptr nocapture noundef nonnull readonly align 8 dereferenceable(288) %this, i8 noundef zeroext %era, i32 noundef %year, i32 noundef %month, i32 noundef %day, i8 noundef zeroext %dayOfWeek, i32 noundef %millis, i32 noundef %monthLength, ptr noundef nonnull align 4 dereferenceable(4) %status) unnamed_addr #2 align 2 {
entry:
  %tz = getelementptr inbounds %"class.icu_75::VTimeZone", ptr %this, i64 0, i32 1
  %0 = load ptr, ptr %tz, align 8
  %vtable = load ptr, ptr %0, align 8
  %vfn = getelementptr inbounds ptr, ptr %vtable, i64 5
  %1 = load ptr, ptr %vfn, align 8
  %call = tail call noundef i32 %1(ptr noundef nonnull align 8 dereferenceable(72) %0, i8 noundef zeroext %era, i32 noundef %year, i32 noundef %month, i32 noundef %day, i8 noundef zeroext %dayOfWeek, i32 noundef %millis, i32 noundef %monthLength, ptr noundef nonnull align 4 dereferenceable(4) %status)
  ret i32 %call
}

; Function Attrs: mustprogress uwtable
define void @_ZNK6icu_759VTimeZone9getOffsetEdaRiS1_R10UErrorCode(ptr nocapture noundef nonnull readonly align 8 dereferenceable(288) %this, double noundef %date, i8 noundef signext %local, ptr noundef nonnull align 4 dereferenceable(4) %rawOffset, ptr noundef nonnull align 4 dereferenceable(4) %dstOffset, ptr noundef nonnull align 4 dereferenceable(4) %status) unnamed_addr #2 align 2 {
entry:
  %tz = getelementptr inbounds %"class.icu_75::VTimeZone", ptr %this, i64 0, i32 1
  %0 = load ptr, ptr %tz, align 8
  %vtable = load ptr, ptr %0, align 8
  %vfn = getelementptr inbounds ptr, ptr %vtable, i64 6
  %1 = load ptr, ptr %vfn, align 8
  tail call void %1(ptr noundef nonnull align 8 dereferenceable(72) %0, double noundef %date, i8 noundef signext %local, ptr noundef nonnull align 4 dereferenceable(4) %rawOffset, ptr noundef nonnull align 4 dereferenceable(4) %dstOffset, ptr noundef nonnull align 4 dereferenceable(4) %status)
  ret void
}

; Function Attrs: mustprogress uwtable
define void @_ZNK6icu_759VTimeZone18getOffsetFromLocalEd20UTimeZoneLocalOptionS1_RiS2_R10UErrorCode(ptr nocapture noundef nonnull readonly align 8 dereferenceable(288) %this, double noundef %date, i32 noundef %nonExistingTimeOpt, i32 noundef %duplicatedTimeOpt, ptr noundef nonnull align 4 dereferenceable(4) %rawOffset, ptr noundef nonnull align 4 dereferenceable(4) %dstOffset, ptr noundef nonnull align 4 dereferenceable(4) %status) unnamed_addr #2 align 2 {
entry:
  %tz = getelementptr inbounds %"class.icu_75::VTimeZone", ptr %this, i64 0, i32 1
  %0 = load ptr, ptr %tz, align 8
  %vtable = load ptr, ptr %0, align 8
  %vfn = getelementptr inbounds ptr, ptr %vtable, i64 20
  %1 = load ptr, ptr %vfn, align 8
  tail call void %1(ptr noundef nonnull align 8 dereferenceable(72) %0, double noundef %date, i32 noundef %nonExistingTimeOpt, i32 noundef %duplicatedTimeOpt, ptr noundef nonnull align 4 dereferenceable(4) %rawOffset, ptr noundef nonnull align 4 dereferenceable(4) %dstOffset, ptr noundef nonnull align 4 dereferenceable(4) %status)
  ret void
}

; Function Attrs: mustprogress uwtable
define void @_ZN6icu_759VTimeZone12setRawOffsetEi(ptr nocapture noundef nonnull readonly align 8 dereferenceable(288) %this, i32 noundef %offsetMillis) unnamed_addr #2 align 2 {
entry:
  %tz = getelementptr inbounds %"class.icu_75::VTimeZone", ptr %this, i64 0, i32 1
  %0 = load ptr, ptr %tz, align 8
  %vtable = load ptr, ptr %0, align 8
  %vfn = getelementptr inbounds ptr, ptr %vtable, i64 7
  %1 = load ptr, ptr %vfn, align 8
  tail call void %1(ptr noundef nonnull align 8 dereferenceable(72) %0, i32 noundef %offsetMillis)
  ret void
}

; Function Attrs: mustprogress uwtable
define noundef i32 @_ZNK6icu_759VTimeZone12getRawOffsetEv(ptr nocapture noundef nonnull readonly align 8 dereferenceable(288) %this) unnamed_addr #2 align 2 {
entry:
  %tz = getelementptr inbounds %"class.icu_75::VTimeZone", ptr %this, i64 0, i32 1
  %0 = load ptr, ptr %tz, align 8
  %vtable = load ptr, ptr %0, align 8
  %vfn = getelementptr inbounds ptr, ptr %vtable, i64 8
  %1 = load ptr, ptr %vfn, align 8
  %call = tail call noundef i32 %1(ptr noundef nonnull align 8 dereferenceable(72) %0)
  ret i32 %call
}

; Function Attrs: mustprogress uwtable
define noundef signext i8 @_ZNK6icu_759VTimeZone15useDaylightTimeEv(ptr nocapture noundef nonnull readonly align 8 dereferenceable(288) %this) unnamed_addr #2 align 2 {
entry:
  %tz = getelementptr inbounds %"class.icu_75::VTimeZone", ptr %this, i64 0, i32 1
  %0 = load ptr, ptr %tz, align 8
  %vtable = load ptr, ptr %0, align 8
  %vfn = getelementptr inbounds ptr, ptr %vtable, i64 9
  %1 = load ptr, ptr %vfn, align 8
  %call = tail call noundef signext i8 %1(ptr noundef nonnull align 8 dereferenceable(72) %0)
  ret i8 %call
}

; Function Attrs: mustprogress uwtable
define noundef signext i8 @_ZNK6icu_759VTimeZone14inDaylightTimeEdR10UErrorCode(ptr nocapture noundef nonnull readonly align 8 dereferenceable(288) %this, double noundef %date, ptr noundef nonnull align 4 dereferenceable(4) %status) unnamed_addr #2 align 2 {
entry:
  %tz = getelementptr inbounds %"class.icu_75::VTimeZone", ptr %this, i64 0, i32 1
  %0 = load ptr, ptr %tz, align 8
  %vtable = load ptr, ptr %0, align 8
  %vfn = getelementptr inbounds ptr, ptr %vtable, i64 10
  %1 = load ptr, ptr %vfn, align 8
  %call = tail call noundef signext i8 %1(ptr noundef nonnull align 8 dereferenceable(72) %0, double noundef %date, ptr noundef nonnull align 4 dereferenceable(4) %status)
  ret i8 %call
}

; Function Attrs: mustprogress uwtable
define noundef signext i8 @_ZNK6icu_759VTimeZone12hasSameRulesERKNS_8TimeZoneE(ptr nocapture noundef nonnull readonly align 8 dereferenceable(288) %this, ptr noundef nonnull align 8 dereferenceable(72) %other) unnamed_addr #2 align 2 {
entry:
  %tz = getelementptr inbounds %"class.icu_75::VTimeZone", ptr %this, i64 0, i32 1
  %0 = load ptr, ptr %tz, align 8
  %vtable = load ptr, ptr %0, align 8
  %vfn = getelementptr inbounds ptr, ptr %vtable, i64 11
  %1 = load ptr, ptr %vfn, align 8
  %call = tail call noundef signext i8 %1(ptr noundef nonnull align 8 dereferenceable(72) %0, ptr noundef nonnull align 8 dereferenceable(72) %other)
  ret i8 %call
}

; Function Attrs: mustprogress uwtable
define noundef signext i8 @_ZNK6icu_759VTimeZone17getNextTransitionEdaRNS_18TimeZoneTransitionE(ptr nocapture noundef nonnull readonly align 8 dereferenceable(288) %this, double noundef %base, i8 noundef signext %inclusive, ptr noundef nonnull align 8 dereferenceable(32) %result) unnamed_addr #2 align 2 {
entry:
  %tz = getelementptr inbounds %"class.icu_75::VTimeZone", ptr %this, i64 0, i32 1
  %0 = load ptr, ptr %tz, align 8
  %vtable = load ptr, ptr %0, align 8
  %vfn = getelementptr inbounds ptr, ptr %vtable, i64 14
  %1 = load ptr, ptr %vfn, align 8
  %call = tail call noundef signext i8 %1(ptr noundef nonnull align 8 dereferenceable(72) %0, double noundef %base, i8 noundef signext %inclusive, ptr noundef nonnull align 8 dereferenceable(32) %result)
  ret i8 %call
}

; Function Attrs: mustprogress uwtable
define noundef signext i8 @_ZNK6icu_759VTimeZone21getPreviousTransitionEdaRNS_18TimeZoneTransitionE(ptr nocapture noundef nonnull readonly align 8 dereferenceable(288) %this, double noundef %base, i8 noundef signext %inclusive, ptr noundef nonnull align 8 dereferenceable(32) %result) unnamed_addr #2 align 2 {
entry:
  %tz = getelementptr inbounds %"class.icu_75::VTimeZone", ptr %this, i64 0, i32 1
  %0 = load ptr, ptr %tz, align 8
  %vtable = load ptr, ptr %0, align 8
  %vfn = getelementptr inbounds ptr, ptr %vtable, i64 15
  %1 = load ptr, ptr %vfn, align 8
  %call = tail call noundef signext i8 %1(ptr noundef nonnull align 8 dereferenceable(72) %0, double noundef %base, i8 noundef signext %inclusive, ptr noundef nonnull align 8 dereferenceable(32) %result)
  ret i8 %call
}

; Function Attrs: mustprogress uwtable
define noundef i32 @_ZNK6icu_759VTimeZone20countTransitionRulesER10UErrorCode(ptr nocapture noundef nonnull readonly align 8 dereferenceable(288) %this, ptr noundef nonnull align 4 dereferenceable(4) %status) unnamed_addr #2 align 2 {
entry:
  %tz = getelementptr inbounds %"class.icu_75::VTimeZone", ptr %this, i64 0, i32 1
  %0 = load ptr, ptr %tz, align 8
  %vtable = load ptr, ptr %0, align 8
  %vfn = getelementptr inbounds ptr, ptr %vtable, i64 17
  %1 = load ptr, ptr %vfn, align 8
  %call = tail call noundef i32 %1(ptr noundef nonnull align 8 dereferenceable(72) %0, ptr noundef nonnull align 4 dereferenceable(4) %status)
  ret i32 %call
}

; Function Attrs: mustprogress uwtable
define void @_ZNK6icu_759VTimeZone16getTimeZoneRulesERPKNS_19InitialTimeZoneRuleEPPKNS_12TimeZoneRuleERiR10UErrorCode(ptr nocapture noundef nonnull readonly align 8 dereferenceable(288) %this, ptr noundef nonnull align 8 dereferenceable(8) %initial, ptr noundef %trsrules, ptr noundef nonnull align 4 dereferenceable(4) %trscount, ptr noundef nonnull align 4 dereferenceable(4) %status) unnamed_addr #2 align 2 {
entry:
  %tz = getelementptr inbounds %"class.icu_75::VTimeZone", ptr %this, i64 0, i32 1
  %0 = load ptr, ptr %tz, align 8
  %vtable = load ptr, ptr %0, align 8
  %vfn = getelementptr inbounds ptr, ptr %vtable, i64 18
  %1 = load ptr, ptr %vfn, align 8
  tail call void %1(ptr noundef nonnull align 8 dereferenceable(72) %0, ptr noundef nonnull align 8 dereferenceable(8) %initial, ptr noundef %trsrules, ptr noundef nonnull align 4 dereferenceable(4) %trscount, ptr noundef nonnull align 4 dereferenceable(4) %status)
  ret void
}

; Function Attrs: mustprogress uwtable
define void @_ZN6icu_759VTimeZone5parseER10UErrorCode(ptr noundef nonnull align 8 dereferenceable(288) %this, ptr noundef nonnull align 4 dereferenceable(4) %status) local_unnamed_addr #2 align 2 personality ptr @__gxx_personality_v0 {
entry:
  %tzid = alloca %"class.icu_75::UnicodeString", align 8
  %from = alloca %"class.icu_75::UnicodeString", align 8
  %to = alloca %"class.icu_75::UnicodeString", align 8
  %zonename = alloca %"class.icu_75::UnicodeString", align 8
  %dtstart = alloca %"class.icu_75::UnicodeString", align 8
  %name = alloca %"class.icu_75::UnicodeString", align 8
  %value = alloca %"class.icu_75::UnicodeString", align 8
  %rules = alloca %"class.icu_75::UVector", align 8
  %dates = alloca %"class.icu_75::UVector", align 8
  %agg.tmp308 = alloca %"class.icu_75::ConstChar16Ptr", align 8
  %rule = alloca %"class.icu_75::LocalPointer.3", align 8
  %actualStart = alloca double, align 8
  %finalStart = alloca double, align 8
  %start504 = alloca double, align 8
  %lastStart = alloca double, align 8
  %newRule = alloca %"class.icu_75::LocalPointer.3", align 8
  %tznam = alloca %"class.icu_75::UnicodeString", align 8
  %y = alloca i32, align 4
  %m = alloca i32, align 4
  %d = alloca i32, align 4
  %dow = alloca i32, align 4
  %doy = alloca i32, align 4
  %mid = alloca i32, align 4
  %0 = load i32, ptr %status, align 4
  %cmp.i = icmp slt i32 %0, 1
  br i1 %cmp.i, label %if.end, label %cleanup.cont660

if.end:                                           ; preds = %entry
  %vtzlines = getelementptr inbounds %"class.icu_75::VTimeZone", ptr %this, i64 0, i32 2
  %1 = load ptr, ptr %vtzlines, align 8
  %cmp = icmp eq ptr %1, null
  br i1 %cmp, label %if.then5, label %lor.lhs.false

lor.lhs.false:                                    ; preds = %if.end
  %count.i = getelementptr inbounds %"class.icu_75::UVector", ptr %1, i64 0, i32 1
  %2 = load i32, ptr %count.i, align 8
  %cmp4 = icmp eq i32 %2, 0
  br i1 %cmp4, label %if.then5, label %invoke.cont16

if.then5:                                         ; preds = %lor.lhs.false, %if.end
  store i32 27, ptr %status, align 4
  br label %cleanup.cont660

invoke.cont16:                                    ; preds = %lor.lhs.false
  store ptr getelementptr inbounds ({ [13 x ptr] }, ptr @_ZTVN6icu_7513UnicodeStringE, i64 0, inrange i32 0, i64 2), ptr %tzid, align 8
  %fUnion2.i = getelementptr inbounds %"class.icu_75::UnicodeString", ptr %tzid, i64 0, i32 1
  store i16 2, ptr %fUnion2.i, align 8
  store ptr getelementptr inbounds ({ [13 x ptr] }, ptr @_ZTVN6icu_7513UnicodeStringE, i64 0, inrange i32 0, i64 2), ptr %from, align 8
  %fUnion2.i138 = getelementptr inbounds %"class.icu_75::UnicodeString", ptr %from, i64 0, i32 1
  store i16 2, ptr %fUnion2.i138, align 8
  store ptr getelementptr inbounds ({ [13 x ptr] }, ptr @_ZTVN6icu_7513UnicodeStringE, i64 0, inrange i32 0, i64 2), ptr %to, align 8
  %fUnion2.i139 = getelementptr inbounds %"class.icu_75::UnicodeString", ptr %to, i64 0, i32 1
  store i16 2, ptr %fUnion2.i139, align 8
  store ptr getelementptr inbounds ({ [13 x ptr] }, ptr @_ZTVN6icu_7513UnicodeStringE, i64 0, inrange i32 0, i64 2), ptr %zonename, align 8
  %fUnion2.i140 = getelementptr inbounds %"class.icu_75::UnicodeString", ptr %zonename, i64 0, i32 1
  store i16 2, ptr %fUnion2.i140, align 8
  store ptr getelementptr inbounds ({ [13 x ptr] }, ptr @_ZTVN6icu_7513UnicodeStringE, i64 0, inrange i32 0, i64 2), ptr %dtstart, align 8
  %fUnion2.i141 = getelementptr inbounds %"class.icu_75::UnicodeString", ptr %dtstart, i64 0, i32 1
  store i16 2, ptr %fUnion2.i141, align 8
  store ptr getelementptr inbounds ({ [13 x ptr] }, ptr @_ZTVN6icu_7513UnicodeStringE, i64 0, inrange i32 0, i64 2), ptr %name, align 8
  %fUnion2.i142 = getelementptr inbounds %"class.icu_75::UnicodeString", ptr %name, i64 0, i32 1
  store i16 2, ptr %fUnion2.i142, align 8
  store ptr getelementptr inbounds ({ [13 x ptr] }, ptr @_ZTVN6icu_7513UnicodeStringE, i64 0, inrange i32 0, i64 2), ptr %value, align 8
  %fUnion2.i143 = getelementptr inbounds %"class.icu_75::UnicodeString", ptr %value, i64 0, i32 1
  store i16 2, ptr %fUnion2.i143, align 8
  invoke void @_ZN6icu_757UVectorC1EPFvPvEPFa8UElementS4_ER10UErrorCode(ptr noundef nonnull align 8 dereferenceable(40) %rules, ptr noundef nonnull @uprv_deleteUObject_75, ptr noundef null, ptr noundef nonnull align 4 dereferenceable(4) %status)
          to label %invoke.cont18 unwind label %lpad17

invoke.cont18:                                    ; preds = %invoke.cont16
  invoke void @_ZN6icu_757UVectorC1EPFvPvEPFa8UElementS4_ER10UErrorCode(ptr noundef nonnull align 8 dereferenceable(40) %dates, ptr noundef nonnull @uprv_deleteUObject_75, ptr noundef nonnull @uhash_compareUnicodeString_75, ptr noundef nonnull align 4 dereferenceable(4) %status)
          to label %invoke.cont20 unwind label %lpad19

invoke.cont20:                                    ; preds = %invoke.cont18
  %3 = load i32, ptr %status, align 4
  %cmp.i144 = icmp slt i32 %3, 1
  br i1 %cmp.i144, label %for.cond.preheader, label %cleanup642

for.cond.preheader:                               ; preds = %invoke.cont20
  %4 = load ptr, ptr %vtzlines, align 8
  %count.i146595 = getelementptr inbounds %"class.icu_75::UVector", ptr %4, i64 0, i32 1
  %5 = load i32, ptr %count.i146595, align 8
  %cmp30596 = icmp sgt i32 %5, 0
  br i1 %cmp30596, label %for.body.lr.ph, label %for.end

for.body.lr.ph:                                   ; preds = %for.cond.preheader
  %fLength.i.i151 = getelementptr inbounds %"class.icu_75::UnicodeString", ptr %name, i64 0, i32 1, i32 0, i32 1
  %fLength.i.i157 = getelementptr inbounds %"class.icu_75::UnicodeString", ptr %value, i64 0, i32 1, i32 0, i32 1
  %fLength.i343 = getelementptr inbounds %"class.icu_75::UnicodeString", ptr %dtstart, i64 0, i32 1, i32 0, i32 1
  %fLength.i348 = getelementptr inbounds %"class.icu_75::UnicodeString", ptr %from, i64 0, i32 1, i32 0, i32 1
  %fLength.i353 = getelementptr inbounds %"class.icu_75::UnicodeString", ptr %to, i64 0, i32 1, i32 0, i32 1
  %fLength.i358 = getelementptr inbounds %"class.icu_75::UnicodeString", ptr %zonename, i64 0, i32 1, i32 0, i32 1
  %count.i322 = getelementptr inbounds %"class.icu_75::UVector", ptr %dates, i64 0, i32 1
  %fLength.i = getelementptr inbounds %"class.icu_75::UnicodeString", ptr %tzid, i64 0, i32 1, i32 0, i32 1
  %lastmod = getelementptr inbounds %"class.icu_75::VTimeZone", ptr %this, i64 0, i32 4
  %tzurl = getelementptr inbounds %"class.icu_75::VTimeZone", ptr %this, i64 0, i32 3
  br label %for.body

lpad17:                                           ; preds = %invoke.cont16
  %6 = landingpad { ptr, i32 }
          cleanup
  br label %ehcleanup647

lpad19:                                           ; preds = %invoke.cont18
  %7 = landingpad { ptr, i32 }
          cleanup
  br label %ehcleanup645

lpad21.loopexit:                                  ; preds = %if.then172.invoke, %if.then69.invoke, %for.body, %if.then92, %if.then137, %if.then333, %invoke.cont32, %if.end38, %.noexc, %invoke.cont39, %_ZNK6icu_7513UnicodeString8pinIndexERi.exit.i
  %lpad.loopexit536 = landingpad { ptr, i32 }
          cleanup
  br label %ehcleanup643

lpad21.loopexit.split-lp:                         ; preds = %if.end423
  %lpad.loopexit.split-lp537 = landingpad { ptr, i32 }
          cleanup
  br label %ehcleanup643

for.body:                                         ; preds = %for.body.lr.ph, %for.inc
  %8 = phi ptr [ %4, %for.body.lr.ph ], [ %140, %for.inc ]
  %state.0603 = phi i32 [ 0, %for.body.lr.ph ], [ %state.2, %for.inc ]
  %n.0602 = phi i32 [ 0, %for.body.lr.ph ], [ %inc, %for.inc ]
  %dst.0601 = phi i8 [ 0, %for.body.lr.ph ], [ %dst.1, %for.inc ]
  %isRRULE.0600 = phi i8 [ 0, %for.body.lr.ph ], [ %isRRULE.1, %for.inc ]
  %initialRawOffset.0599 = phi i32 [ 0, %for.body.lr.ph ], [ %initialRawOffset.3, %for.inc ]
  %initialDSTSavings.0598 = phi i32 [ 0, %for.body.lr.ph ], [ %initialDSTSavings.3, %for.inc ]
  %firstStart.0597 = phi double [ 0x43846A3EDDF8CD80, %for.body.lr.ph ], [ %firstStart.3, %for.inc ]
  %call33 = invoke noundef ptr @_ZNK6icu_757UVector9elementAtEi(ptr noundef nonnull align 8 dereferenceable(40) %8, i32 noundef %n.0602)
          to label %invoke.cont32 unwind label %lpad21.loopexit

invoke.cont32:                                    ; preds = %for.body
  %fUnion.i.i.i = getelementptr inbounds %"class.icu_75::UnicodeString", ptr %call33, i64 0, i32 1
  %9 = load i16, ptr %fUnion.i.i.i, align 8
  %cmp.i.i.i = icmp slt i16 %9, 0
  %10 = ashr i16 %9, 5
  %shr.i.i.i = sext i16 %10 to i32
  %fLength.i.i = getelementptr inbounds %"class.icu_75::UnicodeString", ptr %call33, i64 0, i32 1, i32 0, i32 1
  %11 = load i32, ptr %fLength.i.i, align 4
  %cond.i.i = select i1 %cmp.i.i.i, i32 %11, i32 %shr.i.i.i
  %call2.i147 = invoke noundef i32 @_ZNK6icu_7513UnicodeString9doIndexOfEDsii(ptr noundef nonnull align 8 dereferenceable(64) %call33, i16 noundef zeroext 58, i32 noundef 0, i32 noundef %cond.i.i)
          to label %invoke.cont34 unwind label %lpad21.loopexit

invoke.cont34:                                    ; preds = %invoke.cont32
  %cmp36 = icmp slt i32 %call2.i147, 0
  br i1 %cmp36, label %for.inc, label %if.end38

if.end38:                                         ; preds = %invoke.cont34
  invoke void @_ZN6icu_7513UnicodeString7unBogusEv(ptr noundef nonnull align 8 dereferenceable(64) %name)
          to label %.noexc unwind label %lpad21.loopexit

.noexc:                                           ; preds = %if.end38
  %12 = load i16, ptr %fUnion2.i142, align 8
  %cmp.i.i.i149 = icmp slt i16 %12, 0
  %13 = ashr i16 %12, 5
  %shr.i.i.i150 = sext i16 %13 to i32
  %14 = load i32, ptr %fLength.i.i151, align 4
  %cond.i.i152 = select i1 %cmp.i.i.i149, i32 %14, i32 %shr.i.i.i150
  %call2.i153 = invoke noundef nonnull align 8 dereferenceable(64) ptr @_ZN6icu_7513UnicodeString9doReplaceEiiRKS0_ii(ptr noundef nonnull align 8 dereferenceable(64) %name, i32 noundef 0, i32 noundef %cond.i.i152, ptr noundef nonnull align 8 dereferenceable(64) %call33, i32 noundef 0, i32 noundef %call2.i147)
          to label %invoke.cont39 unwind label %lpad21.loopexit

invoke.cont39:                                    ; preds = %.noexc
  invoke void @_ZN6icu_7513UnicodeString7unBogusEv(ptr noundef nonnull align 8 dereferenceable(64) %value)
          to label %_ZNK6icu_7513UnicodeString8pinIndexERi.exit.i unwind label %lpad21.loopexit

_ZNK6icu_7513UnicodeString8pinIndexERi.exit.i:    ; preds = %invoke.cont39
  %add = add nuw nsw i32 %call2.i147, 1
  %.pre.i = load i16, ptr %fUnion.i.i.i, align 8
  %cmp.i.i.i.i = icmp slt i16 %.pre.i, 0
  %15 = ashr i16 %.pre.i, 5
  %shr.i.i.i.i = sext i16 %15 to i32
  %16 = load i32, ptr %fLength.i.i, align 4
  %cond.i.i.i = select i1 %cmp.i.i.i.i, i32 %16, i32 %shr.i.i.i.i
  %spec.select.i = call i32 @llvm.smin.i32(i32 %cond.i.i.i, i32 %add)
  %17 = load i16, ptr %fUnion2.i143, align 8
  %cmp.i.i.i155 = icmp slt i16 %17, 0
  %18 = ashr i16 %17, 5
  %shr.i.i.i156 = sext i16 %18 to i32
  %19 = load i32, ptr %fLength.i.i157, align 4
  %cond.i.i158 = select i1 %cmp.i.i.i155, i32 %19, i32 %shr.i.i.i156
  %sub.i = sub nsw i32 %cond.i.i.i, %spec.select.i
  %call3.i160 = invoke noundef nonnull align 8 dereferenceable(64) ptr @_ZN6icu_7513UnicodeString9doReplaceEiiRKS0_ii(ptr noundef nonnull align 8 dereferenceable(64) %value, i32 noundef 0, i32 noundef %cond.i.i158, ptr noundef nonnull align 8 dereferenceable(64) %call33, i32 noundef %spec.select.i, i32 noundef %sub.i)
          to label %invoke.cont41 unwind label %lpad21.loopexit

invoke.cont41:                                    ; preds = %_ZNK6icu_7513UnicodeString8pinIndexERi.exit.i
  switch i32 %state.0603, label %for.inc [
    i32 0, label %sw.bb
    i32 1, label %sw.bb60
    i32 2, label %sw.bb163
  ]

sw.bb:                                            ; preds = %invoke.cont41
  %20 = load i16, ptr %fUnion2.i142, align 8
  %cmp.i.i.i162 = icmp slt i16 %20, 0
  %21 = ashr i16 %20, 5
  %shr.i.i.i163 = sext i16 %21 to i32
  %22 = load i32, ptr %fLength.i.i151, align 4
  %cond.i.i165 = select i1 %cmp.i.i.i162, i32 %22, i32 %shr.i.i.i163
  %call3.i166 = invoke noundef signext i8 @_ZNK6icu_7513UnicodeString9doCompareEiiPKDsii(ptr noundef nonnull align 8 dereferenceable(64) %name, i32 noundef 0, i32 noundef %cond.i.i165, ptr noundef nonnull @_ZN6icu_75L10ICAL_BEGINE, i32 noundef 0, i32 noundef -1)
          to label %invoke.cont45 unwind label %lpad44

invoke.cont45:                                    ; preds = %sw.bb
  %cmp47 = icmp eq i8 %call3.i166, 0
  br i1 %cmp47, label %land.rhs, label %cleanup.done.thread

cleanup.done.thread:                              ; preds = %invoke.cont45
  call void asm sideeffect "", "rm,~{memory},~{dirflag},~{fpsr},~{flags}"(ptr nonnull @_ZN6icu_75L10ICAL_BEGINE) #15, !srcloc !4
  br label %for.inc

land.rhs:                                         ; preds = %invoke.cont45
  %23 = load i16, ptr %fUnion2.i143, align 8
  %cmp.i.i.i168 = icmp slt i16 %23, 0
  %24 = ashr i16 %23, 5
  %shr.i.i.i169 = sext i16 %24 to i32
  %25 = load i32, ptr %fLength.i.i157, align 4
  %cond.i.i171 = select i1 %cmp.i.i.i168, i32 %25, i32 %shr.i.i.i169
  %call3.i172 = invoke noundef signext i8 @_ZNK6icu_7513UnicodeString9doCompareEiiPKDsii(ptr noundef nonnull align 8 dereferenceable(64) %value, i32 noundef 0, i32 noundef %cond.i.i171, ptr noundef nonnull @_ZN6icu_75L14ICAL_VTIMEZONEE, i32 noundef 0, i32 noundef -1)
          to label %cleanup.done unwind label %lpad50

cleanup.done:                                     ; preds = %land.rhs
  %cmp54 = icmp eq i8 %call3.i172, 0
  call void asm sideeffect "", "rm,~{memory},~{dirflag},~{fpsr},~{flags}"(ptr nonnull @_ZN6icu_75L14ICAL_VTIMEZONEE) #15, !srcloc !4
  call void asm sideeffect "", "rm,~{memory},~{dirflag},~{fpsr},~{flags}"(ptr nonnull @_ZN6icu_75L10ICAL_BEGINE) #15, !srcloc !4
  %spec.select = zext i1 %cmp54 to i32
  br label %for.inc

lpad44:                                           ; preds = %sw.bb
  %26 = landingpad { ptr, i32 }
          cleanup
  br label %ehcleanup

lpad50:                                           ; preds = %land.rhs
  %27 = landingpad { ptr, i32 }
          cleanup
  call void asm sideeffect "", "rm,~{memory},~{dirflag},~{fpsr},~{flags}"(ptr nonnull @_ZN6icu_75L14ICAL_VTIMEZONEE) #15, !srcloc !4
  br label %ehcleanup

ehcleanup:                                        ; preds = %lpad50, %lpad44
  %.pn118 = phi { ptr, i32 } [ %27, %lpad50 ], [ %26, %lpad44 ]
  call void asm sideeffect "", "rm,~{memory},~{dirflag},~{fpsr},~{flags}"(ptr nonnull @_ZN6icu_75L10ICAL_BEGINE) #15, !srcloc !4
  br label %ehcleanup643

sw.bb60:                                          ; preds = %invoke.cont41
  %28 = load i16, ptr %fUnion2.i142, align 8
  %cmp.i.i.i175 = icmp slt i16 %28, 0
  %29 = ashr i16 %28, 5
  %shr.i.i.i176 = sext i16 %29 to i32
  %30 = load i32, ptr %fLength.i.i151, align 4
  %cond.i.i178 = select i1 %cmp.i.i.i175, i32 %30, i32 %shr.i.i.i176
  %call3.i179 = invoke noundef signext i8 @_ZNK6icu_7513UnicodeString9doCompareEiiPKDsii(ptr noundef nonnull align 8 dereferenceable(64) %name, i32 noundef 0, i32 noundef %cond.i.i178, ptr noundef nonnull @_ZN6icu_75L9ICAL_TZIDE, i32 noundef 0, i32 noundef -1)
          to label %invoke.cont64 unwind label %lpad63

invoke.cont64:                                    ; preds = %sw.bb60
  %cmp67 = icmp eq i8 %call3.i179, 0
  call void asm sideeffect "", "rm,~{memory},~{dirflag},~{fpsr},~{flags}"(ptr nonnull @_ZN6icu_75L9ICAL_TZIDE) #15, !srcloc !4
  br i1 %cmp67, label %if.then69.invoke, label %if.else

if.then69.invoke:                                 ; preds = %invoke.cont75, %invoke.cont64
  %31 = phi ptr [ %tzid, %invoke.cont64 ], [ %tzurl, %invoke.cont75 ]
  %32 = invoke noundef nonnull align 8 dereferenceable(64) ptr @_ZN6icu_7513UnicodeStringaSERKS0_(ptr noundef nonnull align 8 dereferenceable(64) %31, ptr noundef nonnull align 8 dereferenceable(64) %value)
          to label %for.inc unwind label %lpad21.loopexit

lpad63:                                           ; preds = %sw.bb60
  %33 = landingpad { ptr, i32 }
          cleanup
  call void asm sideeffect "", "rm,~{memory},~{dirflag},~{fpsr},~{flags}"(ptr nonnull @_ZN6icu_75L9ICAL_TZIDE) #15, !srcloc !4
  br label %ehcleanup643

if.else:                                          ; preds = %invoke.cont64
  %34 = load i16, ptr %fUnion2.i142, align 8
  %cmp.i.i.i182 = icmp slt i16 %34, 0
  %35 = ashr i16 %34, 5
  %shr.i.i.i183 = sext i16 %35 to i32
  %36 = load i32, ptr %fLength.i.i151, align 4
  %cond.i.i185 = select i1 %cmp.i.i.i182, i32 %36, i32 %shr.i.i.i183
  %call3.i186 = invoke noundef signext i8 @_ZNK6icu_7513UnicodeString9doCompareEiiPKDsii(ptr noundef nonnull align 8 dereferenceable(64) %name, i32 noundef 0, i32 noundef %cond.i.i185, ptr noundef nonnull @_ZN6icu_75L10ICAL_TZURLE, i32 noundef 0, i32 noundef -1)
          to label %invoke.cont75 unwind label %lpad74

invoke.cont75:                                    ; preds = %if.else
  %cmp78 = icmp eq i8 %call3.i186, 0
  call void asm sideeffect "", "rm,~{memory},~{dirflag},~{fpsr},~{flags}"(ptr nonnull @_ZN6icu_75L10ICAL_TZURLE) #15, !srcloc !4
  br i1 %cmp78, label %if.then69.invoke, label %if.else83

lpad74:                                           ; preds = %if.else
  %37 = landingpad { ptr, i32 }
          cleanup
  call void asm sideeffect "", "rm,~{memory},~{dirflag},~{fpsr},~{flags}"(ptr nonnull @_ZN6icu_75L10ICAL_TZURLE) #15, !srcloc !4
  br label %ehcleanup643

if.else83:                                        ; preds = %invoke.cont75
  %38 = load i16, ptr %fUnion2.i142, align 8
  %cmp.i.i.i189 = icmp slt i16 %38, 0
  %39 = ashr i16 %38, 5
  %shr.i.i.i190 = sext i16 %39 to i32
  %40 = load i32, ptr %fLength.i.i151, align 4
  %cond.i.i192 = select i1 %cmp.i.i.i189, i32 %40, i32 %shr.i.i.i190
  %call3.i193 = invoke noundef signext i8 @_ZNK6icu_7513UnicodeString9doCompareEiiPKDsii(ptr noundef nonnull align 8 dereferenceable(64) %name, i32 noundef 0, i32 noundef %cond.i.i192, ptr noundef nonnull @_ZN6icu_75L12ICAL_LASTMODE, i32 noundef 0, i32 noundef -1)
          to label %invoke.cont87 unwind label %lpad86

invoke.cont87:                                    ; preds = %if.else83
  %cmp90 = icmp eq i8 %call3.i193, 0
  call void asm sideeffect "", "rm,~{memory},~{dirflag},~{fpsr},~{flags}"(ptr nonnull @_ZN6icu_75L12ICAL_LASTMODE) #15, !srcloc !4
  br i1 %cmp90, label %if.then92, label %if.else100

if.then92:                                        ; preds = %invoke.cont87
  %call94 = invoke fastcc noundef double @_ZN6icu_75L19parseDateTimeStringERKNS_13UnicodeStringEiR10UErrorCode(ptr noundef nonnull align 8 dereferenceable(64) %value, i32 noundef 0, ptr noundef nonnull align 4 dereferenceable(4) %status)
          to label %invoke.cont93 unwind label %lpad21.loopexit

invoke.cont93:                                    ; preds = %if.then92
  store double %call94, ptr %lastmod, align 8
  %41 = load i32, ptr %status, align 4
  %cmp.i195 = icmp slt i32 %41, 1
  br i1 %cmp.i195, label %for.inc, label %cleanup642

lpad86:                                           ; preds = %if.else83
  %42 = landingpad { ptr, i32 }
          cleanup
  call void asm sideeffect "", "rm,~{memory},~{dirflag},~{fpsr},~{flags}"(ptr nonnull @_ZN6icu_75L12ICAL_LASTMODE) #15, !srcloc !4
  br label %ehcleanup643

if.else100:                                       ; preds = %invoke.cont87
  %43 = load i16, ptr %fUnion2.i142, align 8
  %cmp.i.i.i198 = icmp slt i16 %43, 0
  %44 = ashr i16 %43, 5
  %shr.i.i.i199 = sext i16 %44 to i32
  %45 = load i32, ptr %fLength.i.i151, align 4
  %cond.i.i201 = select i1 %cmp.i.i.i198, i32 %45, i32 %shr.i.i.i199
  %call3.i202 = invoke noundef signext i8 @_ZNK6icu_7513UnicodeString9doCompareEiiPKDsii(ptr noundef nonnull align 8 dereferenceable(64) %name, i32 noundef 0, i32 noundef %cond.i.i201, ptr noundef nonnull @_ZN6icu_75L10ICAL_BEGINE, i32 noundef 0, i32 noundef -1)
          to label %invoke.cont104 unwind label %lpad103

invoke.cont104:                                   ; preds = %if.else100
  %cmp107 = icmp eq i8 %call3.i202, 0
  call void asm sideeffect "", "rm,~{memory},~{dirflag},~{fpsr},~{flags}"(ptr nonnull @_ZN6icu_75L10ICAL_BEGINE) #15, !srcloc !4
  br i1 %cmp107, label %if.then109, label %if.else148

if.then109:                                       ; preds = %invoke.cont104
  %46 = load i16, ptr %fUnion2.i143, align 8
  %cmp.i.i.i205 = icmp slt i16 %46, 0
  %47 = ashr i16 %46, 5
  %shr.i.i.i206 = sext i16 %47 to i32
  %48 = load i32, ptr %fLength.i.i157, align 4
  %cond.i.i208 = select i1 %cmp.i.i.i205, i32 %48, i32 %shr.i.i.i206
  %call3.i209 = invoke noundef signext i8 @_ZNK6icu_7513UnicodeString9doCompareEiiPKDsii(ptr noundef nonnull align 8 dereferenceable(64) %value, i32 noundef 0, i32 noundef %cond.i.i208, ptr noundef nonnull @_ZN6icu_75L13ICAL_DAYLIGHTE, i32 noundef 0, i32 noundef -1)
          to label %invoke.cont113 unwind label %lpad112

invoke.cont113:                                   ; preds = %if.then109
  %cmp116 = icmp eq i8 %call3.i209, 0
  %conv117 = zext i1 %cmp116 to i8
  call void asm sideeffect "", "rm,~{memory},~{dirflag},~{fpsr},~{flags}"(ptr nonnull @_ZN6icu_75L13ICAL_DAYLIGHTE) #15, !srcloc !4
  %49 = load i16, ptr %fUnion2.i143, align 8
  %cmp.i.i.i212 = icmp slt i16 %49, 0
  %50 = ashr i16 %49, 5
  %shr.i.i.i213 = sext i16 %50 to i32
  %51 = load i32, ptr %fLength.i.i157, align 4
  %cond.i.i215 = select i1 %cmp.i.i.i212, i32 %51, i32 %shr.i.i.i213
  %call3.i216 = invoke noundef signext i8 @_ZNK6icu_7513UnicodeString9doCompareEiiPKDsii(ptr noundef nonnull align 8 dereferenceable(64) %value, i32 noundef 0, i32 noundef %cond.i.i215, ptr noundef nonnull @_ZN6icu_75L13ICAL_STANDARDE, i32 noundef 0, i32 noundef -1)
          to label %invoke.cont122 unwind label %lpad121

invoke.cont122:                                   ; preds = %invoke.cont113
  %cmp125 = icmp eq i8 %call3.i216, 0
  %52 = or i1 %cmp116, %cmp125
  call void asm sideeffect "", "rm,~{memory},~{dirflag},~{fpsr},~{flags}"(ptr nonnull @_ZN6icu_75L13ICAL_STANDARDE) #15, !srcloc !4
  br i1 %52, label %invoke.cont129, label %cleanup642

invoke.cont129:                                   ; preds = %invoke.cont122
  %53 = load i16, ptr %fUnion2.i, align 8
  %cmp.i.i218 = icmp slt i16 %53, 0
  %54 = ashr i16 %53, 5
  %shr.i.i = sext i16 %54 to i32
  %55 = load i32, ptr %fLength.i, align 4
  %cond.i = select i1 %cmp.i.i218, i32 %55, i32 %shr.i.i
  %cmp131 = icmp eq i32 %cond.i, 0
  br i1 %cmp131, label %cleanup642, label %if.end133

lpad103:                                          ; preds = %if.else100
  %56 = landingpad { ptr, i32 }
          cleanup
  call void asm sideeffect "", "rm,~{memory},~{dirflag},~{fpsr},~{flags}"(ptr nonnull @_ZN6icu_75L10ICAL_BEGINE) #15, !srcloc !4
  br label %ehcleanup643

lpad112:                                          ; preds = %if.then109
  %57 = landingpad { ptr, i32 }
          cleanup
  call void asm sideeffect "", "rm,~{memory},~{dirflag},~{fpsr},~{flags}"(ptr nonnull @_ZN6icu_75L13ICAL_DAYLIGHTE) #15, !srcloc !4
  br label %ehcleanup643

lpad121:                                          ; preds = %invoke.cont113
  %58 = landingpad { ptr, i32 }
          cleanup
  call void asm sideeffect "", "rm,~{memory},~{dirflag},~{fpsr},~{flags}"(ptr nonnull @_ZN6icu_75L13ICAL_STANDARDE) #15, !srcloc !4
  br label %ehcleanup643

if.end133:                                        ; preds = %invoke.cont129
  %59 = load i32, ptr %count.i322, align 8
  %cmp136.not = icmp eq i32 %59, 0
  br i1 %cmp136.not, label %invoke.cont142, label %if.then137

if.then137:                                       ; preds = %if.end133
  invoke void @_ZN6icu_757UVector17removeAllElementsEv(ptr noundef nonnull align 8 dereferenceable(40) %dates)
          to label %invoke.cont142 unwind label %lpad21.loopexit

invoke.cont142:                                   ; preds = %if.then137, %if.end133
  %60 = load i16, ptr %fUnion2.i138, align 8
  %conv2.i3.i = and i16 %60, 1
  %tobool.not.i = icmp eq i16 %conv2.i3.i, 0
  %61 = and i16 %60, 30
  %storemerge.i = select i1 %tobool.not.i, i16 %61, i16 2
  store i16 %storemerge.i, ptr %fUnion2.i138, align 8
  %62 = load i16, ptr %fUnion2.i139, align 8
  %conv2.i3.i222 = and i16 %62, 1
  %tobool.not.i223 = icmp eq i16 %conv2.i3.i222, 0
  %63 = and i16 %62, 30
  %storemerge.i224 = select i1 %tobool.not.i223, i16 %63, i16 2
  store i16 %storemerge.i224, ptr %fUnion2.i139, align 8
  %64 = load i16, ptr %fUnion2.i140, align 8
  %conv2.i3.i226 = and i16 %64, 1
  %tobool.not.i227 = icmp eq i16 %conv2.i3.i226, 0
  %65 = and i16 %64, 30
  %storemerge.i228 = select i1 %tobool.not.i227, i16 %65, i16 2
  store i16 %storemerge.i228, ptr %fUnion2.i140, align 8
  br label %for.inc

if.else148:                                       ; preds = %invoke.cont104
  %66 = load i16, ptr %fUnion2.i142, align 8
  %cmp.i.i.i230 = icmp slt i16 %66, 0
  %67 = ashr i16 %66, 5
  %shr.i.i.i231 = sext i16 %67 to i32
  %68 = load i32, ptr %fLength.i.i151, align 4
  %cond.i.i233 = select i1 %cmp.i.i.i230, i32 %68, i32 %shr.i.i.i231
  %call3.i234 = invoke noundef signext i8 @_ZNK6icu_7513UnicodeString9doCompareEiiPKDsii(ptr noundef nonnull align 8 dereferenceable(64) %name, i32 noundef 0, i32 noundef %cond.i.i233, ptr noundef nonnull @_ZN6icu_75L8ICAL_ENDE, i32 noundef 0, i32 noundef -1)
          to label %invoke.cont152 unwind label %lpad151

invoke.cont152:                                   ; preds = %if.else148
  call void asm sideeffect "", "rm,~{memory},~{dirflag},~{fpsr},~{flags}"(ptr nonnull @_ZN6icu_75L8ICAL_ENDE) #15, !srcloc !4
  br label %for.inc

lpad151:                                          ; preds = %if.else148
  %69 = landingpad { ptr, i32 }
          cleanup
  call void asm sideeffect "", "rm,~{memory},~{dirflag},~{fpsr},~{flags}"(ptr nonnull @_ZN6icu_75L8ICAL_ENDE) #15, !srcloc !4
  br label %ehcleanup643

sw.bb163:                                         ; preds = %invoke.cont41
  %70 = load i16, ptr %fUnion2.i142, align 8
  %cmp.i.i.i237 = icmp slt i16 %70, 0
  %71 = ashr i16 %70, 5
  %shr.i.i.i238 = sext i16 %71 to i32
  %72 = load i32, ptr %fLength.i.i151, align 4
  %cond.i.i240 = select i1 %cmp.i.i.i237, i32 %72, i32 %shr.i.i.i238
  %call3.i241 = invoke noundef signext i8 @_ZNK6icu_7513UnicodeString9doCompareEiiPKDsii(ptr noundef nonnull align 8 dereferenceable(64) %name, i32 noundef 0, i32 noundef %cond.i.i240, ptr noundef nonnull @_ZN6icu_75L12ICAL_DTSTARTE, i32 noundef 0, i32 noundef -1)
          to label %invoke.cont167 unwind label %lpad166

invoke.cont167:                                   ; preds = %sw.bb163
  %cmp170 = icmp eq i8 %call3.i241, 0
  call void asm sideeffect "", "rm,~{memory},~{dirflag},~{fpsr},~{flags}"(ptr nonnull @_ZN6icu_75L12ICAL_DTSTARTE) #15, !srcloc !4
  br i1 %cmp170, label %if.then172.invoke, label %if.else175

if.then172.invoke:                                ; preds = %invoke.cont203, %invoke.cont191, %invoke.cont179, %invoke.cont167
  %73 = phi ptr [ %dtstart, %invoke.cont167 ], [ %zonename, %invoke.cont179 ], [ %from, %invoke.cont191 ], [ %to, %invoke.cont203 ]
  %74 = invoke noundef nonnull align 8 dereferenceable(64) ptr @_ZN6icu_7513UnicodeStringaSERKS0_(ptr noundef nonnull align 8 dereferenceable(64) %73, ptr noundef nonnull align 8 dereferenceable(64) %value)
          to label %for.inc unwind label %lpad21.loopexit

lpad166:                                          ; preds = %sw.bb163
  %75 = landingpad { ptr, i32 }
          cleanup
  call void asm sideeffect "", "rm,~{memory},~{dirflag},~{fpsr},~{flags}"(ptr nonnull @_ZN6icu_75L12ICAL_DTSTARTE) #15, !srcloc !4
  br label %ehcleanup643

if.else175:                                       ; preds = %invoke.cont167
  %76 = load i16, ptr %fUnion2.i142, align 8
  %cmp.i.i.i244 = icmp slt i16 %76, 0
  %77 = ashr i16 %76, 5
  %shr.i.i.i245 = sext i16 %77 to i32
  %78 = load i32, ptr %fLength.i.i151, align 4
  %cond.i.i247 = select i1 %cmp.i.i.i244, i32 %78, i32 %shr.i.i.i245
  %call3.i248 = invoke noundef signext i8 @_ZNK6icu_7513UnicodeString9doCompareEiiPKDsii(ptr noundef nonnull align 8 dereferenceable(64) %name, i32 noundef 0, i32 noundef %cond.i.i247, ptr noundef nonnull @_ZN6icu_75L11ICAL_TZNAMEE, i32 noundef 0, i32 noundef -1)
          to label %invoke.cont179 unwind label %lpad178

invoke.cont179:                                   ; preds = %if.else175
  %cmp182 = icmp eq i8 %call3.i248, 0
  call void asm sideeffect "", "rm,~{memory},~{dirflag},~{fpsr},~{flags}"(ptr nonnull @_ZN6icu_75L11ICAL_TZNAMEE) #15, !srcloc !4
  br i1 %cmp182, label %if.then172.invoke, label %if.else187

lpad178:                                          ; preds = %if.else175
  %79 = landingpad { ptr, i32 }
          cleanup
  call void asm sideeffect "", "rm,~{memory},~{dirflag},~{fpsr},~{flags}"(ptr nonnull @_ZN6icu_75L11ICAL_TZNAMEE) #15, !srcloc !4
  br label %ehcleanup643

if.else187:                                       ; preds = %invoke.cont179
  %80 = load i16, ptr %fUnion2.i142, align 8
  %cmp.i.i.i251 = icmp slt i16 %80, 0
  %81 = ashr i16 %80, 5
  %shr.i.i.i252 = sext i16 %81 to i32
  %82 = load i32, ptr %fLength.i.i151, align 4
  %cond.i.i254 = select i1 %cmp.i.i.i251, i32 %82, i32 %shr.i.i.i252
  %call3.i255 = invoke noundef signext i8 @_ZNK6icu_7513UnicodeString9doCompareEiiPKDsii(ptr noundef nonnull align 8 dereferenceable(64) %name, i32 noundef 0, i32 noundef %cond.i.i254, ptr noundef nonnull @_ZN6icu_75L17ICAL_TZOFFSETFROME, i32 noundef 0, i32 noundef -1)
          to label %invoke.cont191 unwind label %lpad190

invoke.cont191:                                   ; preds = %if.else187
  %cmp194 = icmp eq i8 %call3.i255, 0
  call void asm sideeffect "", "rm,~{memory},~{dirflag},~{fpsr},~{flags}"(ptr nonnull @_ZN6icu_75L17ICAL_TZOFFSETFROME) #15, !srcloc !4
  br i1 %cmp194, label %if.then172.invoke, label %if.else199

lpad190:                                          ; preds = %if.else187
  %83 = landingpad { ptr, i32 }
          cleanup
  call void asm sideeffect "", "rm,~{memory},~{dirflag},~{fpsr},~{flags}"(ptr nonnull @_ZN6icu_75L17ICAL_TZOFFSETFROME) #15, !srcloc !4
  br label %ehcleanup643

if.else199:                                       ; preds = %invoke.cont191
  %84 = load i16, ptr %fUnion2.i142, align 8
  %cmp.i.i.i258 = icmp slt i16 %84, 0
  %85 = ashr i16 %84, 5
  %shr.i.i.i259 = sext i16 %85 to i32
  %86 = load i32, ptr %fLength.i.i151, align 4
  %cond.i.i261 = select i1 %cmp.i.i.i258, i32 %86, i32 %shr.i.i.i259
  %call3.i262 = invoke noundef signext i8 @_ZNK6icu_7513UnicodeString9doCompareEiiPKDsii(ptr noundef nonnull align 8 dereferenceable(64) %name, i32 noundef 0, i32 noundef %cond.i.i261, ptr noundef nonnull @_ZN6icu_75L15ICAL_TZOFFSETTOE, i32 noundef 0, i32 noundef -1)
          to label %invoke.cont203 unwind label %lpad202

invoke.cont203:                                   ; preds = %if.else199
  %cmp206 = icmp eq i8 %call3.i262, 0
  call void asm sideeffect "", "rm,~{memory},~{dirflag},~{fpsr},~{flags}"(ptr nonnull @_ZN6icu_75L15ICAL_TZOFFSETTOE) #15, !srcloc !4
  br i1 %cmp206, label %if.then172.invoke, label %if.else211

lpad202:                                          ; preds = %if.else199
  %87 = landingpad { ptr, i32 }
          cleanup
  call void asm sideeffect "", "rm,~{memory},~{dirflag},~{fpsr},~{flags}"(ptr nonnull @_ZN6icu_75L15ICAL_TZOFFSETTOE) #15, !srcloc !4
  br label %ehcleanup643

if.else211:                                       ; preds = %invoke.cont203
  %88 = load i16, ptr %fUnion2.i142, align 8
  %cmp.i.i.i265 = icmp slt i16 %88, 0
  %89 = ashr i16 %88, 5
  %shr.i.i.i266 = sext i16 %89 to i32
  %90 = load i32, ptr %fLength.i.i151, align 4
  %cond.i.i268 = select i1 %cmp.i.i.i265, i32 %90, i32 %shr.i.i.i266
  %call3.i269 = invoke noundef signext i8 @_ZNK6icu_7513UnicodeString9doCompareEiiPKDsii(ptr noundef nonnull align 8 dereferenceable(64) %name, i32 noundef 0, i32 noundef %cond.i.i268, ptr noundef nonnull @_ZN6icu_75L10ICAL_RDATEE, i32 noundef 0, i32 noundef -1)
          to label %invoke.cont215 unwind label %lpad214

invoke.cont215:                                   ; preds = %if.else211
  %cmp218 = icmp eq i8 %call3.i269, 0
  call void asm sideeffect "", "rm,~{memory},~{dirflag},~{fpsr},~{flags}"(ptr nonnull @_ZN6icu_75L10ICAL_RDATEE) #15, !srcloc !4
  br i1 %cmp218, label %if.then220, label %if.else265

if.then220:                                       ; preds = %invoke.cont215
  %tobool221.not = icmp eq i8 %isRRULE.0600, 0
  br i1 %tobool221.not, label %while.body, label %cleanup642

lpad214:                                          ; preds = %if.else211
  %91 = landingpad { ptr, i32 }
          cleanup
  call void asm sideeffect "", "rm,~{memory},~{dirflag},~{fpsr},~{flags}"(ptr nonnull @_ZN6icu_75L10ICAL_RDATEE) #15, !srcloc !4
  br label %ehcleanup643

while.cond:                                       ; preds = %invoke.cont257
  %add263 = add nsw i32 %call2.i284, 1
  br i1 %cmp229, label %for.inc, label %while.body, !llvm.loop !12

while.body:                                       ; preds = %if.then220, %while.cond
  %dstart.0594 = phi i32 [ %add263, %while.cond ], [ 0, %if.then220 ]
  %cmp.i.i271 = icmp slt i32 %dstart.0594, 0
  %.pre.i272 = load i16, ptr %fUnion2.i143, align 8
  %.pre4.i = ashr i16 %.pre.i272, 5
  %.pre5.i = sext i16 %.pre4.i to i32
  br i1 %cmp.i.i271, label %entry._ZNK6icu_7513UnicodeString8pinIndexERi.exit_crit_edge.i283, label %if.else.i.i273

entry._ZNK6icu_7513UnicodeString8pinIndexERi.exit_crit_edge.i283: ; preds = %while.body
  %.pre3.i = load i32, ptr %fLength.i.i157, align 4
  br label %_ZNK6icu_7513UnicodeString8pinIndexERi.exit.i279

if.else.i.i273:                                   ; preds = %while.body
  %cmp.i.i.i.i274 = icmp slt i16 %.pre.i272, 0
  %92 = load i32, ptr %fLength.i.i157, align 4
  %cond.i.i.i277 = select i1 %cmp.i.i.i.i274, i32 %92, i32 %.pre5.i
  %spec.select.i278 = call i32 @llvm.smin.i32(i32 %cond.i.i.i277, i32 %dstart.0594)
  br label %_ZNK6icu_7513UnicodeString8pinIndexERi.exit.i279

_ZNK6icu_7513UnicodeString8pinIndexERi.exit.i279: ; preds = %if.else.i.i273, %entry._ZNK6icu_7513UnicodeString8pinIndexERi.exit_crit_edge.i283
  %93 = phi i32 [ %.pre3.i, %entry._ZNK6icu_7513UnicodeString8pinIndexERi.exit_crit_edge.i283 ], [ %92, %if.else.i.i273 ]
  %start.addr.0.i = phi i32 [ 0, %entry._ZNK6icu_7513UnicodeString8pinIndexERi.exit_crit_edge.i283 ], [ %spec.select.i278, %if.else.i.i273 ]
  %cmp.i.i.i280 = icmp slt i16 %.pre.i272, 0
  %cond.i.i281 = select i1 %cmp.i.i.i280, i32 %93, i32 %.pre5.i
  %sub.i282 = sub nsw i32 %cond.i.i281, %start.addr.0.i
  %call2.i284 = invoke noundef i32 @_ZNK6icu_7513UnicodeString9doIndexOfEDsii(ptr noundef nonnull align 8 dereferenceable(64) %value, i16 noundef zeroext 44, i32 noundef %start.addr.0.i, i32 noundef %sub.i282)
          to label %invoke.cont227 unwind label %lpad226

invoke.cont227:                                   ; preds = %_ZNK6icu_7513UnicodeString8pinIndexERi.exit.i279
  %cmp229 = icmp eq i32 %call2.i284, -1
  %call231 = call noundef ptr @_ZN6icu_757UMemorynwEm(i64 noundef 64) #15
  %new.isnull = icmp eq ptr %call231, null
  br i1 %cmp229, label %if.then230, label %if.else240

if.then230:                                       ; preds = %invoke.cont227
  br i1 %new.isnull, label %new.cont.thread, label %new.notnull

new.notnull:                                      ; preds = %if.then230
  invoke void @_ZN6icu_7513UnicodeStringC1ERKS0_i(ptr noundef nonnull align 8 dereferenceable(64) %call231, ptr noundef nonnull align 8 dereferenceable(64) %value, i32 noundef %dstart.0594)
          to label %new.cont unwind label %lpad233

new.cont:                                         ; preds = %new.notnull
  %94 = load i32, ptr %status, align 4
  %cmp.i.i285 = icmp sgt i32 %94, 0
  br i1 %cmp.i.i285, label %delete.notnull5.i, label %if.end254

new.cont.thread:                                  ; preds = %if.then230
  %95 = load i32, ptr %status, align 4
  %cmp.i.i285498 = icmp sgt i32 %95, 0
  br i1 %cmp.i.i285498, label %if.end254, label %if.then3.i

if.then3.i:                                       ; preds = %new.cont.thread
  store i32 7, ptr %status, align 4
  br label %if.end254

delete.notnull5.i:                                ; preds = %new.cont
  %vtable6.i = load ptr, ptr %call231, align 8
  %vfn7.i = getelementptr inbounds ptr, ptr %vtable6.i, i64 1
  %96 = load ptr, ptr %vfn7.i, align 8
  call void %96(ptr noundef nonnull align 8 dereferenceable(64) %call231) #15
  br label %if.end254

lpad226:                                          ; preds = %_ZNK6icu_7513UnicodeString8pinIndexERi.exit.i279, %if.end254
  %97 = landingpad { ptr, i32 }
          cleanup
  br label %ehcleanup643

lpad233:                                          ; preds = %new.notnull
  %98 = landingpad { ptr, i32 }
          cleanup
  call void @_ZN6icu_757UMemorydlEPv(ptr noundef nonnull %call231) #15
  br label %ehcleanup643

if.else240:                                       ; preds = %invoke.cont227
  br i1 %new.isnull, label %new.cont252.thread, label %new.notnull243

new.notnull243:                                   ; preds = %if.else240
  %sub = sub nsw i32 %call2.i284, %dstart.0594
  invoke void @_ZN6icu_7513UnicodeStringC1ERKS0_ii(ptr noundef nonnull align 8 dereferenceable(64) %call231, ptr noundef nonnull align 8 dereferenceable(64) %value, i32 noundef %dstart.0594, i32 noundef %sub)
          to label %new.cont252 unwind label %lpad246

new.cont252:                                      ; preds = %new.notnull243
  %99 = load i32, ptr %status, align 4
  %cmp.i.i287 = icmp sgt i32 %99, 0
  br i1 %cmp.i.i287, label %delete.notnull5.i298, label %if.end254

new.cont252.thread:                               ; preds = %if.else240
  %100 = load i32, ptr %status, align 4
  %cmp.i.i287501 = icmp sgt i32 %100, 0
  br i1 %cmp.i.i287501, label %if.end254, label %if.then3.i295

if.then3.i295:                                    ; preds = %new.cont252.thread
  store i32 7, ptr %status, align 4
  br label %if.end254

delete.notnull5.i298:                             ; preds = %new.cont252
  %vtable6.i299 = load ptr, ptr %call231, align 8
  %vfn7.i300 = getelementptr inbounds ptr, ptr %vtable6.i299, i64 1
  %101 = load ptr, ptr %vfn7.i300, align 8
  call void %101(ptr noundef nonnull align 8 dereferenceable(64) %call231) #15
  br label %if.end254

lpad246:                                          ; preds = %new.notnull243
  %102 = landingpad { ptr, i32 }
          cleanup
  call void @_ZN6icu_757UMemorydlEPv(ptr noundef nonnull %call231) #15
  br label %ehcleanup643

if.end254:                                        ; preds = %new.cont252.thread, %new.cont.thread, %delete.notnull5.i298, %if.then3.i295, %new.cont252, %delete.notnull5.i, %if.then3.i, %new.cont
  %dstr.sroa.0.4 = phi ptr [ null, %delete.notnull5.i ], [ null, %if.then3.i ], [ %call231, %new.cont ], [ null, %delete.notnull5.i298 ], [ null, %if.then3.i295 ], [ %call231, %new.cont252 ], [ null, %new.cont.thread ], [ null, %new.cont252.thread ]
  invoke void @_ZN6icu_757UVector12adoptElementEPvR10UErrorCode(ptr noundef nonnull align 8 dereferenceable(40) %dates, ptr noundef %dstr.sroa.0.4, ptr noundef nonnull align 4 dereferenceable(4) %status)
          to label %invoke.cont257 unwind label %lpad226

invoke.cont257:                                   ; preds = %if.end254
  %103 = load i32, ptr %status, align 4
  %cmp.i302 = icmp slt i32 %103, 1
  br i1 %cmp.i302, label %while.cond, label %cleanup642

if.else265:                                       ; preds = %invoke.cont215
  %104 = load i16, ptr %fUnion2.i142, align 8
  %cmp.i.i.i316 = icmp slt i16 %104, 0
  %105 = ashr i16 %104, 5
  %shr.i.i.i317 = sext i16 %105 to i32
  %106 = load i32, ptr %fLength.i.i151, align 4
  %cond.i.i319 = select i1 %cmp.i.i.i316, i32 %106, i32 %shr.i.i.i317
  %call3.i320 = invoke noundef signext i8 @_ZNK6icu_7513UnicodeString9doCompareEiiPKDsii(ptr noundef nonnull align 8 dereferenceable(64) %name, i32 noundef 0, i32 noundef %cond.i.i319, ptr noundef nonnull @_ZN6icu_75L10ICAL_RRULEE, i32 noundef 0, i32 noundef -1)
          to label %invoke.cont269 unwind label %lpad268

invoke.cont269:                                   ; preds = %if.else265
  %cmp272 = icmp eq i8 %call3.i320, 0
  call void asm sideeffect "", "rm,~{memory},~{dirflag},~{fpsr},~{flags}"(ptr nonnull @_ZN6icu_75L10ICAL_RRULEE) #15, !srcloc !4
  br i1 %cmp272, label %if.then274, label %if.else307

if.then274:                                       ; preds = %invoke.cont269
  %tobool275.not = icmp ne i8 %isRRULE.0600, 0
  %107 = load i32, ptr %count.i322, align 8
  %cmp278.not = icmp eq i32 %107, 0
  %or.cond530 = select i1 %tobool275.not, i1 true, i1 %cmp278.not
  br i1 %or.cond530, label %if.end280, label %cleanup642

lpad268:                                          ; preds = %if.else265
  %108 = landingpad { ptr, i32 }
          cleanup
  call void asm sideeffect "", "rm,~{memory},~{dirflag},~{fpsr},~{flags}"(ptr nonnull @_ZN6icu_75L10ICAL_RRULEE) #15, !srcloc !4
  br label %ehcleanup643

if.end280:                                        ; preds = %if.then274
  %call281 = call noundef ptr @_ZN6icu_757UMemorynwEm(i64 noundef 64) #15
  %new.isnull282 = icmp eq ptr %call281, null
  br i1 %new.isnull282, label %new.cont292, label %new.notnull283

new.notnull283:                                   ; preds = %if.end280
  invoke void @_ZN6icu_7513UnicodeStringC1ERKS0_(ptr noundef nonnull align 8 dereferenceable(64) %call281, ptr noundef nonnull align 8 dereferenceable(64) %value)
          to label %invoke.cont293 unwind label %lpad286

new.cont292:                                      ; preds = %if.end280
  %109 = load i32, ptr %status, align 4
  %cmp.i.i324 = icmp sgt i32 %109, 0
  br i1 %cmp.i.i324, label %invoke.cont293, label %if.then.i325

if.then.i325:                                     ; preds = %new.cont292
  store i32 7, ptr %status, align 4
  br label %invoke.cont293

invoke.cont293:                                   ; preds = %new.notnull283, %if.then.i325, %new.cont292
  invoke void @_ZN6icu_757UVector12adoptElementEPvR10UErrorCode(ptr noundef nonnull align 8 dereferenceable(40) %dates, ptr noundef %call281, ptr noundef nonnull align 4 dereferenceable(4) %status)
          to label %_ZN6icu_7512LocalPointerINS_13UnicodeStringEED2Ev.exit333 unwind label %_ZN6icu_7512LocalPointerINS_13UnicodeStringEED2Ev.exit339

_ZN6icu_7512LocalPointerINS_13UnicodeStringEED2Ev.exit333: ; preds = %invoke.cont293
  %110 = load i32, ptr %status, align 4
  %cmp.i326 = icmp slt i32 %110, 1
  br i1 %cmp.i326, label %for.inc, label %cleanup642

lpad286:                                          ; preds = %new.notnull283
  %111 = landingpad { ptr, i32 }
          cleanup
  call void @_ZN6icu_757UMemorydlEPv(ptr noundef nonnull %call281) #15
  br label %ehcleanup643

_ZN6icu_7512LocalPointerINS_13UnicodeStringEED2Ev.exit339: ; preds = %invoke.cont293
  %112 = landingpad { ptr, i32 }
          cleanup
  br label %ehcleanup643

if.else307:                                       ; preds = %invoke.cont269
  store ptr @_ZN6icu_75L8ICAL_ENDE, ptr %agg.tmp308, align 8
  %call312 = invoke noundef signext i8 @_ZNK6icu_7513UnicodeString7compareENS_14ConstChar16PtrEi(ptr noundef nonnull align 8 dereferenceable(64) %name, ptr noundef nonnull %agg.tmp308, i32 noundef -1)
          to label %invoke.cont311 unwind label %lpad310

invoke.cont311:                                   ; preds = %if.else307
  %cmp314 = icmp eq i8 %call312, 0
  %113 = load ptr, ptr %agg.tmp308, align 8
  call void asm sideeffect "", "rm,~{memory},~{dirflag},~{fpsr},~{flags}"(ptr %113) #15, !srcloc !4
  br i1 %cmp314, label %invoke.cont317, label %for.inc

invoke.cont317:                                   ; preds = %invoke.cont311
  %114 = load i16, ptr %fUnion2.i141, align 8
  %cmp.i.i341 = icmp slt i16 %114, 0
  %115 = ashr i16 %114, 5
  %shr.i.i342 = sext i16 %115 to i32
  %116 = load i32, ptr %fLength.i343, align 4
  %cond.i344 = select i1 %cmp.i.i341, i32 %116, i32 %shr.i.i342
  %cmp319 = icmp eq i32 %cond.i344, 0
  br i1 %cmp319, label %cleanup642, label %invoke.cont321

invoke.cont321:                                   ; preds = %invoke.cont317
  %117 = load i16, ptr %fUnion2.i138, align 8
  %cmp.i.i346 = icmp slt i16 %117, 0
  %118 = ashr i16 %117, 5
  %shr.i.i347 = sext i16 %118 to i32
  %119 = load i32, ptr %fLength.i348, align 4
  %cond.i349 = select i1 %cmp.i.i346, i32 %119, i32 %shr.i.i347
  %cmp323 = icmp eq i32 %cond.i349, 0
  br i1 %cmp323, label %cleanup642, label %invoke.cont325

invoke.cont325:                                   ; preds = %invoke.cont321
  %120 = load i16, ptr %fUnion2.i139, align 8
  %cmp.i.i351 = icmp slt i16 %120, 0
  %121 = ashr i16 %120, 5
  %shr.i.i352 = sext i16 %121 to i32
  %122 = load i32, ptr %fLength.i353, align 4
  %cond.i354 = select i1 %cmp.i.i351, i32 %122, i32 %shr.i.i352
  %cmp327 = icmp eq i32 %cond.i354, 0
  br i1 %cmp327, label %cleanup642, label %invoke.cont330

lpad310:                                          ; preds = %if.else307
  %123 = landingpad { ptr, i32 }
          cleanup
  %124 = load ptr, ptr %agg.tmp308, align 8
  call void asm sideeffect "", "rm,~{memory},~{dirflag},~{fpsr},~{flags}"(ptr %124) #15, !srcloc !4
  br label %ehcleanup643

invoke.cont330:                                   ; preds = %invoke.cont325
  %125 = load i16, ptr %fUnion2.i140, align 8
  %cmp.i.i356 = icmp slt i16 %125, 0
  %126 = ashr i16 %125, 5
  %shr.i.i357 = sext i16 %126 to i32
  %127 = load i32, ptr %fLength.i358, align 4
  %cond.i359 = select i1 %cmp.i.i356, i32 %127, i32 %shr.i.i357
  %cmp332 = icmp eq i32 %cond.i359, 0
  br i1 %cmp332, label %if.then333, label %invoke.cont336

if.then333:                                       ; preds = %invoke.cont330
  invoke fastcc void @_ZN6icu_75L16getDefaultTZNameERKNS_13UnicodeStringEaRS0_(ptr noundef nonnull align 8 dereferenceable(64) %tzid, i8 noundef signext %dst.0601, ptr noundef nonnull align 8 dereferenceable(64) %zonename)
          to label %invoke.cont336 unwind label %lpad21.loopexit

invoke.cont336:                                   ; preds = %invoke.cont330, %if.then333
  store ptr null, ptr %rule, align 8
  %call339 = call fastcc noundef i32 @_ZN6icu_75L17offsetStrToMillisERKNS_13UnicodeStringER10UErrorCode(ptr noundef nonnull align 8 dereferenceable(64) %from, ptr noundef nonnull align 4 dereferenceable(4) %status)
  %call341 = call fastcc noundef i32 @_ZN6icu_75L17offsetStrToMillisERKNS_13UnicodeStringER10UErrorCode(ptr noundef nonnull align 8 dereferenceable(64) %to, ptr noundef nonnull align 4 dereferenceable(4) %status)
  %128 = load i32, ptr %status, align 4
  %cmp.i360 = icmp slt i32 %128, 1
  br i1 %cmp.i360, label %if.end346, label %cleanup642

lpad337:                                          ; preds = %if.end399, %if.else379, %if.else370, %if.then366, %if.end357
  %129 = landingpad { ptr, i32 }
          cleanup
  %130 = load ptr, ptr %rule, align 8
  %isnull.i362 = icmp eq ptr %130, null
  br i1 %isnull.i362, label %ehcleanup643, label %delete.notnull.i363

delete.notnull.i363:                              ; preds = %lpad337
  %vtable.i364 = load ptr, ptr %130, align 8
  %vfn.i365 = getelementptr inbounds ptr, ptr %vtable.i364, i64 1
  %131 = load ptr, ptr %vfn.i365, align 8
  call void %131(ptr noundef nonnull align 8 dereferenceable(80) %130) #15
  br label %ehcleanup643

if.end346:                                        ; preds = %invoke.cont336
  %tobool347.not = icmp eq i8 %dst.0601, 0
  br i1 %tobool347.not, label %if.end357, label %if.then348

if.then348:                                       ; preds = %if.end346
  %sub349 = sub nsw i32 %call341, %call339
  %cmp350 = icmp sgt i32 %sub349, 0
  %sub354 = add nsw i32 %call341, -3600000
  %spec.select134 = select i1 %cmp350, i32 %call339, i32 %sub354
  %spec.select135 = select i1 %cmp350, i32 %sub349, i32 3600000
  br label %if.end357

if.end357:                                        ; preds = %if.then348, %if.end346
  %rawOffset.0 = phi i32 [ %call341, %if.end346 ], [ %spec.select134, %if.then348 ]
  %dstSavings.0 = phi i32 [ 0, %if.end346 ], [ %spec.select135, %if.then348 ]
  %call359 = invoke fastcc noundef double @_ZN6icu_75L19parseDateTimeStringERKNS_13UnicodeStringEiR10UErrorCode(ptr noundef nonnull align 8 dereferenceable(64) %dtstart, i32 noundef %call339, ptr noundef nonnull align 4 dereferenceable(4) %status)
          to label %invoke.cont358 unwind label %lpad337

invoke.cont358:                                   ; preds = %if.end357
  %132 = load i32, ptr %status, align 4
  %cmp.i367 = icmp slt i32 %132, 1
  br i1 %cmp.i367, label %if.end364, label %cleanup408

if.end364:                                        ; preds = %invoke.cont358
  store double 0x43846A3EDDF8CD80, ptr %actualStart, align 8
  %tobool365.not = icmp eq i8 %isRRULE.0600, 0
  br i1 %tobool365.not, label %if.else370, label %if.then366

if.then366:                                       ; preds = %if.end364
  %call368 = invoke fastcc noundef ptr @_ZN6icu_75L17createRuleByRRULEERKNS_13UnicodeStringEiidPNS_7UVectorEiR10UErrorCode(ptr noundef nonnull align 8 dereferenceable(64) %zonename, i32 noundef %rawOffset.0, i32 noundef %dstSavings.0, double noundef %call359, ptr noundef nonnull %dates, i32 noundef %call339, ptr noundef nonnull align 4 dereferenceable(4) %status)
          to label %if.end374 unwind label %lpad337

if.else370:                                       ; preds = %if.end364
  %call372 = invoke fastcc noundef ptr @_ZN6icu_75L17createRuleByRDATEERKNS_13UnicodeStringEiidPNS_7UVectorEiR10UErrorCode(ptr noundef nonnull align 8 dereferenceable(64) %zonename, i32 noundef %rawOffset.0, i32 noundef %dstSavings.0, double noundef %call359, ptr noundef nonnull %dates, i32 noundef %call339, ptr noundef nonnull align 4 dereferenceable(4) %status)
          to label %if.end374 unwind label %lpad337

if.end374:                                        ; preds = %if.else370, %if.then366
  %call372.sink = phi ptr [ %call368, %if.then366 ], [ %call372, %if.else370 ]
  call void @_ZN6icu_7512LocalPointerINS_12TimeZoneRuleEE29adoptInsteadAndCheckErrorCodeEPS1_R10UErrorCode(ptr noundef nonnull align 8 dereferenceable(8) %rule, ptr noundef %call372.sink, ptr noundef nonnull align 4 dereferenceable(4) %status)
  %133 = load i32, ptr %status, align 4
  %cmp.i369 = icmp slt i32 %133, 1
  br i1 %cmp.i369, label %if.else379, label %cleanup408

if.else379:                                       ; preds = %if.end374
  %134 = load ptr, ptr %rule, align 8
  %vtable = load ptr, ptr %134, align 8
  %vfn = getelementptr inbounds ptr, ptr %vtable, i64 7
  %135 = load ptr, ptr %vfn, align 8
  %call383 = invoke noundef signext i8 %135(ptr noundef nonnull align 8 dereferenceable(80) %134, i32 noundef %call339, i32 noundef 0, ptr noundef nonnull align 8 dereferenceable(8) %actualStart)
          to label %invoke.cont382 unwind label %lpad337

invoke.cont382:                                   ; preds = %if.else379
  %tobool384.not = icmp eq i8 %call383, 0
  br i1 %tobool384.not, label %if.end399, label %land.lhs.true385

land.lhs.true385:                                 ; preds = %invoke.cont382
  %136 = load double, ptr %actualStart, align 8
  %cmp386 = fcmp olt double %136, %firstStart.0597
  br i1 %cmp386, label %if.then387, label %if.end399

if.then387:                                       ; preds = %land.lhs.true385
  %cmp388 = icmp eq i32 %dstSavings.0, 0
  %sub391 = sub nsw i32 %call339, %call341
  %cmp392 = icmp eq i32 %sub391, 3600000
  %or.cond = select i1 %cmp388, i1 %cmp392, i1 false
  %sub394 = add nsw i32 %call339, -3600000
  %spec.select136 = select i1 %or.cond, i32 3600000, i32 0
  %spec.select137 = select i1 %or.cond, i32 %sub394, i32 %call339
  br label %if.end399

if.end399:                                        ; preds = %if.then387, %invoke.cont382, %land.lhs.true385
  %firstStart.1 = phi double [ %firstStart.0597, %land.lhs.true385 ], [ %firstStart.0597, %invoke.cont382 ], [ %136, %if.then387 ]
  %initialDSTSavings.1 = phi i32 [ %initialDSTSavings.0598, %land.lhs.true385 ], [ %initialDSTSavings.0598, %invoke.cont382 ], [ %spec.select136, %if.then387 ]
  %initialRawOffset.1 = phi i32 [ %initialRawOffset.0599, %land.lhs.true385 ], [ %initialRawOffset.0599, %invoke.cont382 ], [ %spec.select137, %if.then387 ]
  %137 = load ptr, ptr %rule, align 8
  store ptr null, ptr %rule, align 8
  invoke void @_ZN6icu_757UVector12adoptElementEPvR10UErrorCode(ptr noundef nonnull align 8 dereferenceable(40) %rules, ptr noundef %137, ptr noundef nonnull align 4 dereferenceable(4) %status)
          to label %invoke.cont402 unwind label %lpad337

invoke.cont402:                                   ; preds = %if.end399
  %138 = load i32, ptr %status, align 4
  %cmp.i371 = icmp slt i32 %138, 1
  %.130 = select i1 %cmp.i371, i32 1, i32 2
  br label %cleanup408

cleanup408:                                       ; preds = %invoke.cont402, %if.end374, %invoke.cont358
  %cond1.ph = phi i1 [ %cmp.i371, %invoke.cont402 ], [ false, %if.end374 ], [ false, %invoke.cont358 ]
  %firstStart.2.ph = phi double [ %firstStart.1, %invoke.cont402 ], [ %firstStart.0597, %if.end374 ], [ %firstStart.0597, %invoke.cont358 ]
  %initialDSTSavings.2.ph = phi i32 [ %initialDSTSavings.1, %invoke.cont402 ], [ %initialDSTSavings.0598, %if.end374 ], [ %initialDSTSavings.0598, %invoke.cont358 ]
  %initialRawOffset.2.ph = phi i32 [ %initialRawOffset.1, %invoke.cont402 ], [ %initialRawOffset.0599, %if.end374 ], [ %initialRawOffset.0599, %invoke.cont358 ]
  %state.1.ph = phi i32 [ %.130, %invoke.cont402 ], [ 2, %if.end374 ], [ 2, %invoke.cont358 ]
  %.pr = load ptr, ptr %rule, align 8
  %isnull.i373 = icmp eq ptr %.pr, null
  br i1 %isnull.i373, label %_ZN6icu_7512LocalPointerINS_12TimeZoneRuleEED2Ev.exit378, label %delete.notnull.i374

delete.notnull.i374:                              ; preds = %cleanup408
  %vtable.i375 = load ptr, ptr %.pr, align 8
  %vfn.i376 = getelementptr inbounds ptr, ptr %vtable.i375, i64 1
  %139 = load ptr, ptr %vfn.i376, align 8
  call void %139(ptr noundef nonnull align 8 dereferenceable(80) %.pr) #15
  br i1 %cond1.ph, label %for.inc, label %cleanup642

_ZN6icu_7512LocalPointerINS_12TimeZoneRuleEED2Ev.exit378: ; preds = %cleanup408
  br i1 %cond1.ph, label %for.inc, label %cleanup642

for.inc:                                          ; preds = %while.cond, %if.then172.invoke, %if.then69.invoke, %delete.notnull.i374, %cleanup.done, %cleanup.done.thread, %invoke.cont142, %invoke.cont152, %invoke.cont41, %invoke.cont93, %_ZN6icu_7512LocalPointerINS_13UnicodeStringEED2Ev.exit333, %_ZN6icu_7512LocalPointerINS_12TimeZoneRuleEED2Ev.exit378, %invoke.cont311, %invoke.cont34
  %firstStart.3 = phi double [ %firstStart.0597, %invoke.cont34 ], [ %firstStart.0597, %invoke.cont41 ], [ %firstStart.0597, %_ZN6icu_7512LocalPointerINS_13UnicodeStringEED2Ev.exit333 ], [ %firstStart.2.ph, %_ZN6icu_7512LocalPointerINS_12TimeZoneRuleEED2Ev.exit378 ], [ %firstStart.0597, %invoke.cont311 ], [ %firstStart.0597, %invoke.cont93 ], [ %firstStart.0597, %invoke.cont152 ], [ %firstStart.0597, %invoke.cont142 ], [ %firstStart.0597, %cleanup.done.thread ], [ %firstStart.0597, %cleanup.done ], [ %firstStart.2.ph, %delete.notnull.i374 ], [ %firstStart.0597, %if.then69.invoke ], [ %firstStart.0597, %if.then172.invoke ], [ %firstStart.0597, %while.cond ]
  %initialDSTSavings.3 = phi i32 [ %initialDSTSavings.0598, %invoke.cont34 ], [ %initialDSTSavings.0598, %invoke.cont41 ], [ %initialDSTSavings.0598, %_ZN6icu_7512LocalPointerINS_13UnicodeStringEED2Ev.exit333 ], [ %initialDSTSavings.2.ph, %_ZN6icu_7512LocalPointerINS_12TimeZoneRuleEED2Ev.exit378 ], [ %initialDSTSavings.0598, %invoke.cont311 ], [ %initialDSTSavings.0598, %invoke.cont93 ], [ %initialDSTSavings.0598, %invoke.cont152 ], [ %initialDSTSavings.0598, %invoke.cont142 ], [ %initialDSTSavings.0598, %cleanup.done.thread ], [ %initialDSTSavings.0598, %cleanup.done ], [ %initialDSTSavings.2.ph, %delete.notnull.i374 ], [ %initialDSTSavings.0598, %if.then69.invoke ], [ %initialDSTSavings.0598, %if.then172.invoke ], [ %initialDSTSavings.0598, %while.cond ]
  %initialRawOffset.3 = phi i32 [ %initialRawOffset.0599, %invoke.cont34 ], [ %initialRawOffset.0599, %invoke.cont41 ], [ %initialRawOffset.0599, %_ZN6icu_7512LocalPointerINS_13UnicodeStringEED2Ev.exit333 ], [ %initialRawOffset.2.ph, %_ZN6icu_7512LocalPointerINS_12TimeZoneRuleEED2Ev.exit378 ], [ %initialRawOffset.0599, %invoke.cont311 ], [ %initialRawOffset.0599, %invoke.cont93 ], [ %initialRawOffset.0599, %invoke.cont152 ], [ %initialRawOffset.0599, %invoke.cont142 ], [ %initialRawOffset.0599, %cleanup.done.thread ], [ %initialRawOffset.0599, %cleanup.done ], [ %initialRawOffset.2.ph, %delete.notnull.i374 ], [ %initialRawOffset.0599, %if.then69.invoke ], [ %initialRawOffset.0599, %if.then172.invoke ], [ %initialRawOffset.0599, %while.cond ]
  %isRRULE.1 = phi i8 [ %isRRULE.0600, %invoke.cont34 ], [ %isRRULE.0600, %invoke.cont41 ], [ 1, %_ZN6icu_7512LocalPointerINS_13UnicodeStringEED2Ev.exit333 ], [ %isRRULE.0600, %_ZN6icu_7512LocalPointerINS_12TimeZoneRuleEED2Ev.exit378 ], [ %isRRULE.0600, %invoke.cont311 ], [ %isRRULE.0600, %invoke.cont93 ], [ %isRRULE.0600, %invoke.cont152 ], [ 0, %invoke.cont142 ], [ %isRRULE.0600, %cleanup.done.thread ], [ %isRRULE.0600, %cleanup.done ], [ %isRRULE.0600, %delete.notnull.i374 ], [ %isRRULE.0600, %if.then69.invoke ], [ %isRRULE.0600, %if.then172.invoke ], [ 0, %while.cond ]
  %dst.1 = phi i8 [ %dst.0601, %invoke.cont34 ], [ %dst.0601, %invoke.cont41 ], [ %dst.0601, %_ZN6icu_7512LocalPointerINS_13UnicodeStringEED2Ev.exit333 ], [ %dst.0601, %_ZN6icu_7512LocalPointerINS_12TimeZoneRuleEED2Ev.exit378 ], [ %dst.0601, %invoke.cont311 ], [ %dst.0601, %invoke.cont93 ], [ %dst.0601, %invoke.cont152 ], [ %conv117, %invoke.cont142 ], [ %dst.0601, %cleanup.done.thread ], [ %dst.0601, %cleanup.done ], [ %dst.0601, %delete.notnull.i374 ], [ %dst.0601, %if.then69.invoke ], [ %dst.0601, %if.then172.invoke ], [ %dst.0601, %while.cond ]
  %state.2 = phi i32 [ %state.0603, %invoke.cont34 ], [ %state.0603, %invoke.cont41 ], [ 2, %_ZN6icu_7512LocalPointerINS_13UnicodeStringEED2Ev.exit333 ], [ %state.1.ph, %_ZN6icu_7512LocalPointerINS_12TimeZoneRuleEED2Ev.exit378 ], [ 2, %invoke.cont311 ], [ 1, %invoke.cont93 ], [ 1, %invoke.cont152 ], [ 2, %invoke.cont142 ], [ 0, %cleanup.done.thread ], [ %spec.select, %cleanup.done ], [ %state.1.ph, %delete.notnull.i374 ], [ 1, %if.then69.invoke ], [ 2, %if.then172.invoke ], [ 2, %while.cond ]
  %inc = add nuw nsw i32 %n.0602, 1
  %140 = load ptr, ptr %vtzlines, align 8
  %count.i146 = getelementptr inbounds %"class.icu_75::UVector", ptr %140, i64 0, i32 1
  %141 = load i32, ptr %count.i146, align 8
  %cmp30 = icmp slt i32 %inc, %141
  br i1 %cmp30, label %for.body, label %for.end, !llvm.loop !13

for.end:                                          ; preds = %for.inc, %for.cond.preheader
  %initialDSTSavings.0.lcssa = phi i32 [ 0, %for.cond.preheader ], [ %initialDSTSavings.3, %for.inc ]
  %initialRawOffset.0.lcssa = phi i32 [ 0, %for.cond.preheader ], [ %initialRawOffset.3, %for.inc ]
  %count.i385 = getelementptr inbounds %"class.icu_75::UVector", ptr %rules, i64 0, i32 1
  %142 = load i32, ptr %count.i385, align 8
  %cmp421 = icmp eq i32 %142, 0
  br i1 %cmp421, label %cleanup642, label %if.end423

if.end423:                                        ; preds = %for.end
  invoke fastcc void @_ZN6icu_75L16getDefaultTZNameERKNS_13UnicodeStringEaRS0_(ptr noundef nonnull align 8 dereferenceable(64) %tzid, i8 noundef signext 0, ptr noundef nonnull align 8 dereferenceable(64) %zonename)
          to label %invoke.cont424 unwind label %lpad21.loopexit.split-lp

invoke.cont424:                                   ; preds = %if.end423
  %call425 = call noundef ptr @_ZN6icu_757UMemorynwEm(i64 noundef 80) #15
  %new.isnull426 = icmp eq ptr %call425, null
  br i1 %new.isnull426, label %new.cont436, label %new.notnull427

new.notnull427:                                   ; preds = %invoke.cont424
  invoke void @_ZN6icu_7519InitialTimeZoneRuleC1ERKNS_13UnicodeStringEii(ptr noundef nonnull align 8 dereferenceable(80) %call425, ptr noundef nonnull align 8 dereferenceable(64) %zonename, i32 noundef %initialRawOffset.0.lcssa, i32 noundef %initialDSTSavings.0.lcssa)
          to label %invoke.cont437 unwind label %lpad430

new.cont436:                                      ; preds = %invoke.cont424
  %143 = load i32, ptr %status, align 4
  %cmp.i.i387 = icmp sgt i32 %143, 0
  br i1 %cmp.i.i387, label %cleanup642, label %if.then.i389

if.then.i389:                                     ; preds = %new.cont436
  store i32 7, ptr %status, align 4
  br label %cleanup642

invoke.cont437:                                   ; preds = %new.notnull427
  %.pre = load i32, ptr %status, align 4
  %cmp.i390 = icmp slt i32 %.pre, 1
  br i1 %cmp.i390, label %if.end443, label %delete.notnull.i438

lpad430:                                          ; preds = %new.notnull427
  %144 = landingpad { ptr, i32 }
          cleanup
  call void @_ZN6icu_757UMemorydlEPv(ptr noundef nonnull %call425) #15
  br label %ehcleanup643

if.end443:                                        ; preds = %invoke.cont437
  %call444 = call noundef ptr @_ZN6icu_757UMemorynwEm(i64 noundef 112) #15
  %new.isnull445 = icmp eq ptr %call444, null
  br i1 %new.isnull445, label %new.cont457, label %new.notnull446

new.notnull446:                                   ; preds = %if.end443
  invoke void @_ZN6icu_7517RuleBasedTimeZoneC1ERKNS_13UnicodeStringEPNS_19InitialTimeZoneRuleE(ptr noundef nonnull align 8 dereferenceable(105) %call444, ptr noundef nonnull align 8 dereferenceable(64) %tzid, ptr noundef nonnull %call425)
          to label %invoke.cont458 unwind label %delete.notnull.i449

new.cont457:                                      ; preds = %if.end443
  %145 = load i32, ptr %status, align 4
  %cmp.i.i393 = icmp sgt i32 %145, 0
  br i1 %cmp.i.i393, label %delete.notnull.i438, label %if.then.i395

if.then.i395:                                     ; preds = %new.cont457
  store i32 7, ptr %status, align 4
  br label %delete.notnull.i438

invoke.cont458:                                   ; preds = %new.notnull446
  %.pre617 = load i32, ptr %status, align 4
  %cmp.i396 = icmp sgt i32 %.pre617, 0
  br i1 %cmp.i396, label %cleanup640, label %for.cond468.preheader

for.cond468.preheader:                            ; preds = %invoke.cont458
  %146 = load i32, ptr %count.i385, align 8
  %cmp471605 = icmp sgt i32 %146, 0
  br i1 %cmp471605, label %for.body472.lr.ph, label %while.cond611.preheader

for.body472.lr.ph:                                ; preds = %for.cond468.preheader
  %147 = load i32, ptr @_ZN6icu_7518AnnualTimeZoneRule8MAX_YEARE, align 4
  br label %for.body472

lpad459.loopexit:                                 ; preds = %while.body615, %invoke.cont616
  %lpad.loopexit = landingpad { ptr, i32 }
          cleanup
  br label %ehcleanup639

lpad459.loopexit.split-lp.loopexit:               ; preds = %invoke.cont528, %invoke.cont526, %if.then525, %invoke.cont518, %if.end516
  %lpad.loopexit531 = landingpad { ptr, i32 }
          cleanup
  br label %ehcleanup639

lpad459.loopexit.split-lp.loopexit.split-lp.loopexit: ; preds = %for.body472, %if.then476
  %lpad.loopexit534 = landingpad { ptr, i32 }
          cleanup
  br label %ehcleanup639

lpad459.loopexit.split-lp.loopexit.split-lp.loopexit.split-lp: ; preds = %if.then495, %if.else497, %invoke.cont498, %invoke.cont500, %invoke.cont502, %while.end626, %if.end634
  %rbtz.sroa.0.0.ph.ph.ph = phi ptr [ %call444, %if.else497 ], [ %call444, %invoke.cont498 ], [ %call444, %invoke.cont500 ], [ %call444, %invoke.cont502 ], [ %call444, %if.then495 ], [ %call444, %while.end626 ], [ null, %if.end634 ]
  %lpad.loopexit.split-lp = landingpad { ptr, i32 }
          cleanup
  br label %ehcleanup639

for.body472:                                      ; preds = %for.body472.lr.ph, %for.inc484
  %n.1608 = phi i32 [ 0, %for.body472.lr.ph ], [ %inc485, %for.inc484 ]
  %finalRuleIdx.0607 = phi i32 [ -1, %for.body472.lr.ph ], [ %finalRuleIdx.1, %for.inc484 ]
  %finalRuleCount.0606 = phi i32 [ 0, %for.body472.lr.ph ], [ %finalRuleCount.1, %for.inc484 ]
  %call474 = invoke noundef ptr @_ZNK6icu_757UVector9elementAtEi(ptr noundef nonnull align 8 dereferenceable(40) %rules, i32 noundef %n.1608)
          to label %invoke.cont473 unwind label %lpad459.loopexit.split-lp.loopexit.split-lp.loopexit

invoke.cont473:                                   ; preds = %for.body472
  %148 = icmp eq ptr %call474, null
  br i1 %148, label %for.inc484, label %dynamic_cast.end

dynamic_cast.end:                                 ; preds = %invoke.cont473
  %149 = call ptr @__dynamic_cast(ptr nonnull %call474, ptr nonnull @_ZTIN6icu_7512TimeZoneRuleE, ptr nonnull @_ZTIN6icu_7518AnnualTimeZoneRuleE, i64 0) #15
  %cmp475.not = icmp eq ptr %149, null
  br i1 %cmp475.not, label %for.inc484, label %if.then476

if.then476:                                       ; preds = %dynamic_cast.end
  %call478 = invoke noundef i32 @_ZNK6icu_7518AnnualTimeZoneRule10getEndYearEv(ptr noundef nonnull align 8 dereferenceable(96) %149)
          to label %invoke.cont477 unwind label %lpad459.loopexit.split-lp.loopexit.split-lp.loopexit

invoke.cont477:                                   ; preds = %if.then476
  %cmp479 = icmp eq i32 %call478, %147
  %inc481 = zext i1 %cmp479 to i32
  %spec.select131 = add nsw i32 %finalRuleCount.0606, %inc481
  %spec.select132 = select i1 %cmp479, i32 %n.1608, i32 %finalRuleIdx.0607
  br label %for.inc484

for.inc484:                                       ; preds = %invoke.cont473, %invoke.cont477, %dynamic_cast.end
  %finalRuleCount.1 = phi i32 [ %finalRuleCount.0606, %dynamic_cast.end ], [ %spec.select131, %invoke.cont477 ], [ %finalRuleCount.0606, %invoke.cont473 ]
  %finalRuleIdx.1 = phi i32 [ %finalRuleIdx.0607, %dynamic_cast.end ], [ %spec.select132, %invoke.cont477 ], [ %finalRuleIdx.0607, %invoke.cont473 ]
  %inc485 = add nuw nsw i32 %n.1608, 1
  %150 = load i32, ptr %count.i385, align 8
  %cmp471 = icmp slt i32 %inc485, %150
  br i1 %cmp471, label %for.body472, label %for.end486, !llvm.loop !14

for.end486:                                       ; preds = %for.inc484
  %cmp487 = icmp sgt i32 %finalRuleCount.1, 2
  br i1 %cmp487, label %if.then488, label %if.end489

if.then488:                                       ; preds = %for.end486
  store i32 1, ptr %status, align 4
  br label %cleanup638

if.end489:                                        ; preds = %for.end486
  %cmp490 = icmp eq i32 %finalRuleCount.1, 1
  br i1 %cmp490, label %if.then491, label %while.cond611.preheader

while.cond611.preheader:                          ; preds = %for.cond468.preheader, %if.then495, %_ZN6icu_7512LocalPointerINS_12TimeZoneRuleEED2Ev.exit411, %if.end489
  br label %while.cond611

if.then491:                                       ; preds = %if.end489
  %cmp494 = icmp eq i32 %150, 1
  br i1 %cmp494, label %if.then495, label %if.else497

if.then495:                                       ; preds = %if.then491
  invoke void @_ZN6icu_757UVector17removeAllElementsEv(ptr noundef nonnull align 8 dereferenceable(40) %rules)
          to label %while.cond611.preheader unwind label %lpad459.loopexit.split-lp.loopexit.split-lp.loopexit.split-lp

if.else497:                                       ; preds = %if.then491
  %call499 = invoke noundef ptr @_ZNK6icu_757UVector9elementAtEi(ptr noundef nonnull align 8 dereferenceable(40) %rules, i32 noundef %finalRuleIdx.1)
          to label %invoke.cont498 unwind label %lpad459.loopexit.split-lp.loopexit.split-lp.loopexit.split-lp

invoke.cont498:                                   ; preds = %if.else497
  %call501 = invoke noundef i32 @_ZNK6icu_7512TimeZoneRule12getRawOffsetEv(ptr noundef nonnull align 8 dereferenceable(80) %call499)
          to label %invoke.cont500 unwind label %lpad459.loopexit.split-lp.loopexit.split-lp.loopexit.split-lp

invoke.cont500:                                   ; preds = %invoke.cont498
  %call503 = invoke noundef i32 @_ZNK6icu_7512TimeZoneRule13getDSTSavingsEv(ptr noundef nonnull align 8 dereferenceable(80) %call499)
          to label %invoke.cont502 unwind label %lpad459.loopexit.split-lp.loopexit.split-lp.loopexit.split-lp

invoke.cont502:                                   ; preds = %invoke.cont500
  %vtable505 = load ptr, ptr %call499, align 8
  %vfn506 = getelementptr inbounds ptr, ptr %vtable505, i64 7
  %151 = load ptr, ptr %vfn506, align 8
  %call508 = invoke noundef signext i8 %151(ptr noundef nonnull align 8 dereferenceable(96) %call499, i32 noundef %initialRawOffset.0.lcssa, i32 noundef %initialDSTSavings.0.lcssa, ptr noundef nonnull align 8 dereferenceable(8) %finalStart)
          to label %invoke.cont507 unwind label %lpad459.loopexit.split-lp.loopexit.split-lp.loopexit.split-lp

invoke.cont507:                                   ; preds = %invoke.cont502
  %152 = load double, ptr %finalStart, align 8
  store double %152, ptr %start504, align 8
  %153 = load i32, ptr %count.i385, align 8
  %cmp512612 = icmp sgt i32 %153, 0
  br i1 %cmp512612, label %for.body513, label %invoke.cont540

for.body513:                                      ; preds = %invoke.cont507, %for.inc535
  %n.2613 = phi i32 [ %inc536, %for.inc535 ], [ 0, %invoke.cont507 ]
  %cmp514 = icmp eq i32 %finalRuleIdx.1, %n.2613
  br i1 %cmp514, label %for.inc535, label %if.end516

if.end516:                                        ; preds = %for.body513
  %call519 = invoke noundef ptr @_ZNK6icu_757UVector9elementAtEi(ptr noundef nonnull align 8 dereferenceable(40) %rules, i32 noundef %n.2613)
          to label %invoke.cont518 unwind label %lpad459.loopexit.split-lp.loopexit

invoke.cont518:                                   ; preds = %if.end516
  %vtable520 = load ptr, ptr %call519, align 8
  %vfn521 = getelementptr inbounds ptr, ptr %vtable520, i64 8
  %154 = load ptr, ptr %vfn521, align 8
  %call523 = invoke noundef signext i8 %154(ptr noundef nonnull align 8 dereferenceable(80) %call519, i32 noundef %call501, i32 noundef %call503, ptr noundef nonnull align 8 dereferenceable(8) %lastStart)
          to label %invoke.cont522 unwind label %lpad459.loopexit.split-lp.loopexit

invoke.cont522:                                   ; preds = %invoke.cont518
  %155 = load double, ptr %lastStart, align 8
  %156 = load double, ptr %start504, align 8
  %cmp524 = fcmp ogt double %155, %156
  br i1 %cmp524, label %if.then525, label %for.inc535

if.then525:                                       ; preds = %invoke.cont522
  %call527 = invoke noundef i32 @_ZNK6icu_7512TimeZoneRule12getRawOffsetEv(ptr noundef nonnull align 8 dereferenceable(80) %call519)
          to label %invoke.cont526 unwind label %lpad459.loopexit.split-lp.loopexit

invoke.cont526:                                   ; preds = %if.then525
  %call529 = invoke noundef i32 @_ZNK6icu_7512TimeZoneRule13getDSTSavingsEv(ptr noundef nonnull align 8 dereferenceable(80) %call519)
          to label %invoke.cont528 unwind label %lpad459.loopexit.split-lp.loopexit

invoke.cont528:                                   ; preds = %invoke.cont526
  %vtable530 = load ptr, ptr %call499, align 8
  %vfn531 = getelementptr inbounds ptr, ptr %vtable530, i64 9
  %157 = load ptr, ptr %vfn531, align 8
  %call533 = invoke noundef signext i8 %157(ptr noundef nonnull align 8 dereferenceable(96) %call499, double noundef %155, i32 noundef %call527, i32 noundef %call529, i8 noundef signext 0, ptr noundef nonnull align 8 dereferenceable(8) %start504)
          to label %for.inc535 unwind label %lpad459.loopexit.split-lp.loopexit

for.inc535:                                       ; preds = %invoke.cont522, %invoke.cont528, %for.body513
  %inc536 = add nuw nsw i32 %n.2613, 1
  %158 = load i32, ptr %count.i385, align 8
  %cmp512 = icmp slt i32 %inc536, %158
  br i1 %cmp512, label %for.body513, label %invoke.cont540.loopexit, !llvm.loop !15

invoke.cont540.loopexit:                          ; preds = %for.inc535
  %.pre618 = load double, ptr %start504, align 8
  %.pre619 = load double, ptr %finalStart, align 8
  br label %invoke.cont540

invoke.cont540:                                   ; preds = %invoke.cont540.loopexit, %invoke.cont507
  %159 = phi double [ %.pre619, %invoke.cont540.loopexit ], [ %152, %invoke.cont507 ]
  %160 = phi double [ %.pre618, %invoke.cont540.loopexit ], [ %152, %invoke.cont507 ]
  store ptr null, ptr %newRule, align 8
  store ptr getelementptr inbounds ({ [13 x ptr] }, ptr @_ZTVN6icu_7513UnicodeStringE, i64 0, inrange i32 0, i64 2), ptr %tznam, align 8
  %fUnion2.i401 = getelementptr inbounds %"class.icu_75::UnicodeString", ptr %tznam, i64 0, i32 1
  store i16 2, ptr %fUnion2.i401, align 8
  %cmp541 = fcmp oeq double %160, %159
  br i1 %cmp541, label %if.then542, label %if.else563

if.then542:                                       ; preds = %invoke.cont540
  %call543 = call noundef ptr @_ZN6icu_757UMemorynwEm(i64 noundef 352) #15
  %new.isnull544 = icmp eq ptr %call543, null
  br i1 %new.isnull544, label %if.end588, label %new.notnull545

new.notnull545:                                   ; preds = %if.then542
  %call550 = invoke noundef nonnull align 8 dereferenceable(64) ptr @_ZNK6icu_7512TimeZoneRule7getNameERNS_13UnicodeStringE(ptr noundef nonnull align 8 dereferenceable(80) %call499, ptr noundef nonnull align 8 dereferenceable(64) %tznam)
          to label %invoke.cont549 unwind label %lpad548

invoke.cont549:                                   ; preds = %new.notnull545
  %call552 = invoke noundef i32 @_ZNK6icu_7512TimeZoneRule12getRawOffsetEv(ptr noundef nonnull align 8 dereferenceable(80) %call499)
          to label %invoke.cont551 unwind label %lpad548

invoke.cont551:                                   ; preds = %invoke.cont549
  %call554 = invoke noundef i32 @_ZNK6icu_7512TimeZoneRule13getDSTSavingsEv(ptr noundef nonnull align 8 dereferenceable(80) %call499)
          to label %invoke.cont553 unwind label %lpad548

invoke.cont553:                                   ; preds = %invoke.cont551
  invoke void @_ZN6icu_7521TimeArrayTimeZoneRuleC1ERKNS_13UnicodeStringEiiPKdiNS_12DateTimeRule12TimeRuleTypeE(ptr noundef nonnull align 8 dereferenceable(352) %call543, ptr noundef nonnull align 8 dereferenceable(64) %call550, i32 noundef %call552, i32 noundef %call554, ptr noundef nonnull %finalStart, i32 noundef 1, i32 noundef 2)
          to label %if.end588 unwind label %lpad548

lpad548:                                          ; preds = %invoke.cont553, %invoke.cont551, %invoke.cont549, %new.notnull545
  %161 = landingpad { ptr, i32 }
          cleanup
  call void @_ZN6icu_757UMemorydlEPv(ptr noundef nonnull %call543) #15
  br label %ehcleanup604

lpad561:                                          ; preds = %invoke.cont594, %if.end593, %if.else563
  %162 = landingpad { ptr, i32 }
          cleanup
  br label %ehcleanup604

if.else563:                                       ; preds = %invoke.cont540
  invoke void @_ZN6icu_755Grego12timeToFieldsEdRiS1_S1_S1_S1_S1_(double noundef %160, ptr noundef nonnull align 4 dereferenceable(4) %y, ptr noundef nonnull align 4 dereferenceable(4) %m, ptr noundef nonnull align 4 dereferenceable(4) %d, ptr noundef nonnull align 4 dereferenceable(4) %dow, ptr noundef nonnull align 4 dereferenceable(4) %doy, ptr noundef nonnull align 4 dereferenceable(4) %mid)
          to label %invoke.cont564 unwind label %lpad561

invoke.cont564:                                   ; preds = %if.else563
  %call565 = call noundef ptr @_ZN6icu_757UMemorynwEm(i64 noundef 96) #15
  %new.isnull566 = icmp eq ptr %call565, null
  br i1 %new.isnull566, label %if.end588, label %new.notnull567

new.notnull567:                                   ; preds = %invoke.cont564
  %call572 = invoke noundef nonnull align 8 dereferenceable(64) ptr @_ZNK6icu_7512TimeZoneRule7getNameERNS_13UnicodeStringE(ptr noundef nonnull align 8 dereferenceable(80) %call499, ptr noundef nonnull align 8 dereferenceable(64) %tznam)
          to label %invoke.cont571 unwind label %lpad570

invoke.cont571:                                   ; preds = %new.notnull567
  %call574 = invoke noundef i32 @_ZNK6icu_7512TimeZoneRule12getRawOffsetEv(ptr noundef nonnull align 8 dereferenceable(80) %call499)
          to label %invoke.cont573 unwind label %lpad570

invoke.cont573:                                   ; preds = %invoke.cont571
  %call576 = invoke noundef i32 @_ZNK6icu_7512TimeZoneRule13getDSTSavingsEv(ptr noundef nonnull align 8 dereferenceable(80) %call499)
          to label %invoke.cont575 unwind label %lpad570

invoke.cont575:                                   ; preds = %invoke.cont573
  %call578 = invoke noundef ptr @_ZNK6icu_7518AnnualTimeZoneRule7getRuleEv(ptr noundef nonnull align 8 dereferenceable(96) %call499)
          to label %invoke.cont577 unwind label %lpad570

invoke.cont577:                                   ; preds = %invoke.cont575
  %call580 = invoke noundef i32 @_ZNK6icu_7518AnnualTimeZoneRule12getStartYearEv(ptr noundef nonnull align 8 dereferenceable(96) %call499)
          to label %invoke.cont579 unwind label %lpad570

invoke.cont579:                                   ; preds = %invoke.cont577
  %163 = load i32, ptr %y, align 4
  invoke void @_ZN6icu_7518AnnualTimeZoneRuleC1ERKNS_13UnicodeStringEiiRKNS_12DateTimeRuleEii(ptr noundef nonnull align 8 dereferenceable(96) %call565, ptr noundef nonnull align 8 dereferenceable(64) %call572, i32 noundef %call574, i32 noundef %call576, ptr noundef nonnull align 8 dereferenceable(36) %call578, i32 noundef %call580, i32 noundef %163)
          to label %if.end588 unwind label %lpad570

lpad570:                                          ; preds = %invoke.cont579, %invoke.cont577, %invoke.cont575, %invoke.cont573, %invoke.cont571, %new.notnull567
  %164 = landingpad { ptr, i32 }
          cleanup
  call void @_ZN6icu_757UMemorydlEPv(ptr noundef nonnull %call565) #15
  br label %ehcleanup604

if.end588:                                        ; preds = %invoke.cont564, %invoke.cont579, %if.then542, %invoke.cont553
  %call565.sink = phi ptr [ %call543, %invoke.cont553 ], [ %call543, %if.then542 ], [ %call565, %invoke.cont579 ], [ %call565, %invoke.cont564 ]
  call void @_ZN6icu_7512LocalPointerINS_12TimeZoneRuleEE29adoptInsteadAndCheckErrorCodeEPS1_R10UErrorCode(ptr noundef nonnull align 8 dereferenceable(8) %newRule, ptr noundef %call565.sink, ptr noundef nonnull align 4 dereferenceable(4) %status)
  %165 = load i32, ptr %status, align 4
  %cmp.i402 = icmp slt i32 %165, 1
  br i1 %cmp.i402, label %if.end593, label %cleanup638.critedge

if.end593:                                        ; preds = %if.end588
  invoke void @_ZN6icu_757UVector15removeElementAtEi(ptr noundef nonnull align 8 dereferenceable(40) %rules, i32 noundef %finalRuleIdx.1)
          to label %invoke.cont594 unwind label %lpad561

invoke.cont594:                                   ; preds = %if.end593
  %166 = load ptr, ptr %newRule, align 8
  store ptr null, ptr %newRule, align 8
  invoke void @_ZN6icu_757UVector12adoptElementEPvR10UErrorCode(ptr noundef nonnull align 8 dereferenceable(40) %rules, ptr noundef %166, ptr noundef nonnull align 4 dereferenceable(4) %status)
          to label %invoke.cont597 unwind label %lpad561

invoke.cont597:                                   ; preds = %invoke.cont594
  %167 = load i32, ptr %status, align 4
  %cmp.i404 = icmp slt i32 %167, 1
  call void @_ZN6icu_7513UnicodeStringD1Ev(ptr noundef nonnull align 8 dereferenceable(64) %tznam) #15
  %168 = load ptr, ptr %newRule, align 8
  %isnull.i406 = icmp eq ptr %168, null
  br i1 %isnull.i406, label %_ZN6icu_7512LocalPointerINS_12TimeZoneRuleEED2Ev.exit411, label %delete.notnull.i407

delete.notnull.i407:                              ; preds = %invoke.cont597
  %vtable.i408 = load ptr, ptr %168, align 8
  %vfn.i409 = getelementptr inbounds ptr, ptr %vtable.i408, i64 1
  %169 = load ptr, ptr %vfn.i409, align 8
  call void %169(ptr noundef nonnull align 8 dereferenceable(80) %168) #15
  br label %_ZN6icu_7512LocalPointerINS_12TimeZoneRuleEED2Ev.exit411

_ZN6icu_7512LocalPointerINS_12TimeZoneRuleEED2Ev.exit411: ; preds = %invoke.cont597, %delete.notnull.i407
  br i1 %cmp.i404, label %while.cond611.preheader, label %cleanup638

ehcleanup604:                                     ; preds = %lpad570, %lpad548, %lpad561
