target datalayout = "e-m:e-p270:32:32-p271:32:32-p272:64:64-i64:64-i128:128-f80:128-n8:16:32:64-S128"
target triple = "x86_64-unknown-linux-gnu"

%"class.std::unordered_map" = type { %"class.std::_Hashtable" }
%"class.std::_Hashtable" = type { ptr, i64, %"struct.std::__detail::_Hash_node_base", i64, %"struct.std::__detail::_Prime_rehash_policy", ptr }
%"struct.std::__detail::_Hash_node_base" = type { ptr }
%"struct.std::__detail::_Prime_rehash_policy" = type { float, i64 }
%"struct.arrow::compute::FunctionDoc" = type <{ %"class.std::__cxx11::basic_string", %"class.std::__cxx11::basic_string", %"class.std::vector", %"class.std::__cxx11::basic_string", i8, [7 x i8] }>
%"class.std::vector" = type { %"struct.std::_Vector_base" }
%"struct.std::_Vector_base" = type { %"struct.std::_Vector_base<std::__cxx11::basic_string<char>, std::allocator<std::__cxx11::basic_string<char>>>::_Vector_impl" }
%"struct.std::_Vector_base<std::__cxx11::basic_string<char>, std::allocator<std::__cxx11::basic_string<char>>>::_Vector_impl" = type { %"struct.std::_Vector_base<std::__cxx11::basic_string<char>, std::allocator<std::__cxx11::basic_string<char>>>::_Vector_impl_data" }
%"struct.std::_Vector_base<std::__cxx11::basic_string<char>, std::allocator<std::__cxx11::basic_string<char>>>::_Vector_impl_data" = type { ptr, ptr, ptr }
%"class.std::__cxx11::basic_string" = type { %"struct.std::__cxx11::basic_string<char>::_Alloc_hider", i64, %union.anon }
%"struct.std::__cxx11::basic_string<char>::_Alloc_hider" = type { ptr }
%union.anon = type { i64, [8 x i8] }
%"struct.std::once_flag" = type { i32 }
%"struct.std::piecewise_construct_t" = type { i8 }
%"struct.std::in_place_index_t" = type { i8 }
%"struct.std::in_place_index_t.147" = type { i8 }
%"struct.std::in_place_index_t.149" = type { i8 }
%"struct.std::in_place_index_t.154" = type { i8 }
%"struct.std::in_place_index_t.159" = type { i8 }
%"struct.std::in_place_index_t.164" = type { i8 }
%class.OptionsType = type { %"class.arrow::compute::internal::GenericOptionsType", %"struct.arrow::internal::PropertyTuple" }
%"class.arrow::compute::internal::GenericOptionsType" = type { %"class.arrow::compute::FunctionOptionsType" }
%"class.arrow::compute::FunctionOptionsType" = type { ptr }
%"struct.arrow::internal::PropertyTuple" = type { %"class.std::tuple.170" }
%"class.std::tuple.170" = type { %"struct.std::_Tuple_impl.171" }
%"struct.std::_Tuple_impl.171" = type { %"struct.std::_Tuple_impl.172", %"struct.std::_Head_base.184" }
%"struct.std::_Tuple_impl.172" = type { %"struct.std::_Tuple_impl.173", %"struct.std::_Head_base.183" }
%"struct.std::_Tuple_impl.173" = type { %"struct.std::_Tuple_impl.174", %"struct.std::_Head_base.182" }
%"struct.std::_Tuple_impl.174" = type { %"struct.std::_Tuple_impl.175", %"struct.std::_Head_base.181" }
%"struct.std::_Tuple_impl.175" = type { %"struct.std::_Tuple_impl.176", %"struct.std::_Head_base.180" }
%"struct.std::_Tuple_impl.176" = type { %"struct.std::_Tuple_impl.177", %"struct.std::_Head_base.179" }
%"struct.std::_Tuple_impl.177" = type { %"struct.std::_Head_base.178" }
%"struct.std::_Head_base.178" = type { %"struct.arrow::internal::DataMemberProperty.8" }
%"struct.arrow::internal::DataMemberProperty.8" = type { %"class.std::basic_string_view", i64 }
%"class.std::basic_string_view" = type { i64, ptr }
%"struct.std::_Head_base.179" = type { %"struct.arrow::internal::DataMemberProperty.8" }
%"struct.std::_Head_base.180" = type { %"struct.arrow::internal::DataMemberProperty.8" }
%"struct.std::_Head_base.181" = type { %"struct.arrow::internal::DataMemberProperty.8" }
%"struct.std::_Head_base.182" = type { %"struct.arrow::internal::DataMemberProperty.8" }
%"struct.std::_Head_base.183" = type { %"struct.arrow::internal::DataMemberProperty.8" }
%"struct.std::_Head_base.184" = type { %"struct.arrow::internal::DataMemberProperty" }
%"struct.arrow::internal::DataMemberProperty" = type { %"class.std::basic_string_view", i64 }
%"class.std::__shared_count" = type { ptr }
%"class.std::allocator.2" = type { i8 }
%"class.std::initializer_list" = type { ptr, i64 }
%"class.std::allocator.5" = type { i8 }
%"class.arrow::Status" = type { ptr }
%"class.std::shared_ptr" = type { %"class.std::__shared_ptr" }
%"class.std::__shared_ptr" = type { ptr, %"class.std::__shared_count" }
%"class.std::shared_ptr.11" = type { %"class.std::__shared_ptr.12" }
%"class.std::__shared_ptr.12" = type { ptr, %"class.std::__shared_count" }
%"class.std::allocator.233" = type { i8 }
%"struct.std::_Sp_alloc_shared_tag" = type { ptr }
%"struct.arrow::compute::Arity" = type <{ i32, i8, [3 x i8] }>
%"class.arrow::compute::internal::CastFunction" = type <{ %"class.arrow::compute::ScalarFunction", %"class.std::vector.19", i32, [4 x i8] }>
%"class.arrow::compute::ScalarFunction" = type { %"class.arrow::compute::detail::FunctionImpl" }
%"class.arrow::compute::detail::FunctionImpl" = type { %"class.arrow::compute::Function", %"class.std::vector.14" }
%"class.arrow::compute::Function" = type { ptr, %"class.std::__cxx11::basic_string", i32, %"struct.arrow::compute::Arity", [4 x i8], %"struct.arrow::compute::FunctionDoc", ptr }
%"class.std::vector.14" = type { %"struct.std::_Vector_base.15" }
%"struct.std::_Vector_base.15" = type { %"struct.std::_Vector_base<arrow::compute::ScalarKernel, std::allocator<arrow::compute::ScalarKernel>>::_Vector_impl" }
%"struct.std::_Vector_base<arrow::compute::ScalarKernel, std::allocator<arrow::compute::ScalarKernel>>::_Vector_impl" = type { %"struct.std::_Vector_base<arrow::compute::ScalarKernel, std::allocator<arrow::compute::ScalarKernel>>::_Vector_impl_data" }
%"struct.std::_Vector_base<arrow::compute::ScalarKernel, std::allocator<arrow::compute::ScalarKernel>>::_Vector_impl_data" = type { ptr, ptr, ptr }
%"class.std::vector.19" = type { %"struct.std::_Vector_base.20" }
%"struct.std::_Vector_base.20" = type { %"struct.std::_Vector_base<arrow::Type::type, std::allocator<arrow::Type::type>>::_Vector_impl" }
%"struct.std::_Vector_base<arrow::Type::type, std::allocator<arrow::Type::type>>::_Vector_impl" = type { %"struct.std::_Vector_base<arrow::Type::type, std::allocator<arrow::Type::type>>::_Vector_impl_data" }
%"struct.std::_Vector_base<arrow::Type::type, std::allocator<arrow::Type::type>>::_Vector_impl_data" = type { ptr, ptr, ptr }
%"struct.arrow::compute::ScalarKernel" = type <{ %"struct.arrow::compute::Kernel", ptr, i8, [3 x i8], i32, i32, [4 x i8] }>
%"struct.arrow::compute::Kernel" = type { %"class.std::shared_ptr.24", %"class.std::function", i8, i32, %"class.std::shared_ptr.28" }
%"class.std::shared_ptr.24" = type { %"class.std::__shared_ptr.25" }
%"class.std::__shared_ptr.25" = type { ptr, %"class.std::__shared_count" }
%"class.std::function" = type { %"class.std::_Function_base", ptr }
%"class.std::_Function_base" = type { %"union.std::_Any_data", ptr }
%"union.std::_Any_data" = type { %"union.std::_Nocopy_types" }
%"union.std::_Nocopy_types" = type { { i64, i64 } }
%"class.std::shared_ptr.28" = type { %"class.std::__shared_ptr.29" }
%"class.std::__shared_ptr.29" = type { ptr, %"class.std::__shared_count" }
%"class.arrow::Result" = type { %"class.arrow::Status", %"class.arrow::internal::AlignedStorage" }
%"class.arrow::internal::AlignedStorage" = type { %"union.std::aligned_storage<8, 8>::type" }
%"union.std::aligned_storage<8, 8>::type" = type { [8 x i8] }
%"class.std::unique_ptr.331" = type { %"struct.std::__uniq_ptr_data.332" }
%"struct.std::__uniq_ptr_data.332" = type { %"class.std::__uniq_ptr_impl.333" }
%"class.std::__uniq_ptr_impl.333" = type { %"class.std::tuple.334" }
%"class.std::tuple.334" = type { %"struct.std::_Tuple_impl.335" }
%"struct.std::_Tuple_impl.335" = type { %"struct.std::_Head_base.338" }
%"struct.std::_Head_base.338" = type { ptr }
%"struct.arrow::compute::KernelInitArgs" = type { ptr, ptr, ptr }
%"class.__gnu_cxx::__normal_iterator.351" = type { ptr }
%"class.std::vector.33" = type { %"struct.std::_Vector_base.34" }
%"struct.std::_Vector_base.34" = type { %"struct.std::_Vector_base<arrow::compute::InputType, std::allocator<arrow::compute::InputType>>::_Vector_impl" }
%"struct.std::_Vector_base<arrow::compute::InputType, std::allocator<arrow::compute::InputType>>::_Vector_impl" = type { %"struct.std::_Vector_base<arrow::compute::InputType, std::allocator<arrow::compute::InputType>>::_Vector_impl_data" }
%"struct.std::_Vector_base<arrow::compute::InputType, std::allocator<arrow::compute::InputType>>::_Vector_impl_data" = type { ptr, ptr, ptr }
%"class.arrow::compute::OutputType" = type { i32, %"class.std::shared_ptr.38", %"class.std::function.41" }
%"class.std::shared_ptr.38" = type { %"class.std::__shared_ptr.39" }
%"class.std::__shared_ptr.39" = type { ptr, %"class.std::__shared_count" }
%"class.std::function.41" = type { %"class.std::_Function_base", ptr }
%"class.arrow::Result.44" = type { %"class.arrow::Status", %"class.arrow::internal::AlignedStorage.47" }
%"class.arrow::internal::AlignedStorage.47" = type { %"union.std::aligned_storage<8, 8>::type" }
%"class.std::vector.53" = type { %"struct.std::_Vector_base.54" }
%"struct.std::_Vector_base.54" = type { %"struct.std::_Vector_base<const arrow::compute::ScalarKernel *, std::allocator<const arrow::compute::ScalarKernel *>>::_Vector_impl" }
%"struct.std::_Vector_base<const arrow::compute::ScalarKernel *, std::allocator<const arrow::compute::ScalarKernel *>>::_Vector_impl" = type { %"struct.std::_Vector_base<const arrow::compute::ScalarKernel *, std::allocator<const arrow::compute::ScalarKernel *>>::_Vector_impl_data" }
%"struct.std::_Vector_base<const arrow::compute::ScalarKernel *, std::allocator<const arrow::compute::ScalarKernel *>>::_Vector_impl_data" = type { ptr, ptr, ptr }
%"class.__gnu_cxx::__normal_iterator" = type { ptr }
%"class.__gnu_cxx::__normal_iterator.65" = type { ptr }
%"struct.arrow::TypeHolder" = type { ptr, %"class.std::shared_ptr.38" }
%"struct.std::_Vector_base.49" = type { %"struct.std::_Vector_base<arrow::TypeHolder, std::allocator<arrow::TypeHolder>>::_Vector_impl" }
%"struct.std::_Vector_base<arrow::TypeHolder, std::allocator<arrow::TypeHolder>>::_Vector_impl" = type { %"struct.std::_Vector_base<arrow::TypeHolder, std::allocator<arrow::TypeHolder>>::_Vector_impl_data" }
%"struct.std::_Vector_base<arrow::TypeHolder, std::allocator<arrow::TypeHolder>>::_Vector_impl_data" = type { ptr, ptr, ptr }
%"class.arrow::compute::KernelSignature" = type { %"class.std::vector.33", %"class.arrow::compute::OutputType", i8, i64 }
%"class.arrow::compute::InputType" = type { i32, %"class.std::shared_ptr.38", %"class.std::shared_ptr.66" }
%"class.std::shared_ptr.66" = type { %"class.std::__shared_ptr.67" }
%"class.std::__shared_ptr.67" = type { ptr, %"class.std::__shared_count" }
%"class.arrow::Result.69" = type { %"class.arrow::Status", %"class.arrow::internal::AlignedStorage.72" }
%"class.arrow::internal::AlignedStorage.72" = type { %"union.std::aligned_storage<16, 8>::type" }
%"union.std::aligned_storage<16, 8>::type" = type { [16 x i8] }
%"struct.std::__detail::_Node_iterator" = type { %"struct.std::__detail::_Node_iterator_base" }
%"struct.std::__detail::_Node_iterator_base" = type { ptr }
%"struct.std::pair" = type { i32, %"class.std::shared_ptr.74" }
%"class.std::shared_ptr.74" = type { %"class.std::__shared_ptr.75" }
%"class.std::__shared_ptr.75" = type { ptr, %"class.std::__shared_count" }
%"class.arrow::DataType" = type { %"class.arrow::detail::Fingerprintable", %"class.std::enable_shared_from_this", i32, %"class.std::vector.60" }
%"class.arrow::detail::Fingerprintable" = type { ptr, %"struct.std::atomic", %"struct.std::atomic" }
%"struct.std::atomic" = type { %"struct.std::__atomic_base" }
%"struct.std::__atomic_base" = type { ptr }
%"class.std::enable_shared_from_this" = type { %"class.std::weak_ptr" }
%"class.std::weak_ptr" = type { %"class.std::__weak_ptr" }
%"class.std::__weak_ptr" = type { ptr, %"class.std::__weak_count" }
%"class.std::__weak_count" = type { ptr }
%"class.std::vector.60" = type { %"struct.std::_Vector_base.61" }
%"struct.std::_Vector_base.61" = type { %"struct.std::_Vector_base<std::shared_ptr<arrow::Field>, std::allocator<std::shared_ptr<arrow::Field>>>::_Vector_impl" }
%"struct.std::_Vector_base<std::shared_ptr<arrow::Field>, std::allocator<std::shared_ptr<arrow::Field>>>::_Vector_impl" = type { %"struct.std::_Vector_base<std::shared_ptr<arrow::Field>, std::allocator<std::shared_ptr<arrow::Field>>>::_Vector_impl_data" }
%"struct.std::_Vector_base<std::shared_ptr<arrow::Field>, std::allocator<std::shared_ptr<arrow::Field>>>::_Vector_impl_data" = type { ptr, ptr, ptr }
%"class.arrow::compute::CastOptions" = type <{ %"class.arrow::compute::FunctionOptions", %"struct.arrow::TypeHolder", i8, i8, i8, i8, i8, i8, [2 x i8] }>
%"class.arrow::compute::FunctionOptions" = type { ptr, ptr }
%"class.arrow::Result.79" = type { %"class.arrow::Status", %"class.arrow::internal::AlignedStorage.82" }
%"class.arrow::internal::AlignedStorage.82" = type { %"union.std::aligned_storage<24, 8>::type" }
%"union.std::aligned_storage<24, 8>::type" = type { [24 x i8] }
%"class.std::vector.84" = type { %"struct.std::_Vector_base.85" }
%"struct.std::_Vector_base.85" = type { %"struct.std::_Vector_base<arrow::Datum, std::allocator<arrow::Datum>>::_Vector_impl" }
%"struct.std::_Vector_base<arrow::Datum, std::allocator<arrow::Datum>>::_Vector_impl" = type { %"struct.std::_Vector_base<arrow::Datum, std::allocator<arrow::Datum>>::_Vector_impl_data" }
%"struct.std::_Vector_base<arrow::Datum, std::allocator<arrow::Datum>>::_Vector_impl_data" = type { ptr, ptr, ptr }
%"class.std::initializer_list.89" = type { ptr, i64 }
%"struct.arrow::Datum" = type { %"class.std::variant" }
%"class.std::variant" = type { %"struct.std::__detail::__variant::_Variant_base.base", [7 x i8] }
%"struct.std::__detail::__variant::_Variant_base.base" = type { %"struct.std::__detail::__variant::_Move_assign_base.base" }
%"struct.std::__detail::__variant::_Move_assign_base.base" = type { %"struct.std::__detail::__variant::_Copy_assign_base.base" }
%"struct.std::__detail::__variant::_Copy_assign_base.base" = type { %"struct.std::__detail::__variant::_Move_ctor_base.base" }
%"struct.std::__detail::__variant::_Move_ctor_base.base" = type { %"struct.std::__detail::__variant::_Copy_ctor_base.base" }
%"struct.std::__detail::__variant::_Copy_ctor_base.base" = type { %"struct.std::__detail::__variant::_Variant_storage.base" }
%"struct.std::__detail::__variant::_Variant_storage.base" = type { %"union.std::__detail::__variant::_Variadic_union", i8 }
%"union.std::__detail::__variant::_Variadic_union" = type { %"union.std::__detail::__variant::_Variadic_union.90" }
%"union.std::__detail::__variant::_Variadic_union.90" = type { %"struct.std::__detail::__variant::_Uninitialized.91" }
%"struct.std::__detail::__variant::_Uninitialized.91" = type { %"struct.__gnu_cxx::__aligned_membuf" }
%"struct.__gnu_cxx::__aligned_membuf" = type { [16 x i8] }
%"class.std::allocator.86" = type { i8 }
%"class.arrow::Result.107" = type { %"class.arrow::Status", %"class.arrow::internal::AlignedStorage.110" }
%"class.arrow::internal::AlignedStorage.110" = type { %"union.std::aligned_storage<16, 8>::type" }
%"class.std::shared_ptr.114" = type { %"class.std::__shared_ptr.115" }
%"class.std::__shared_ptr.115" = type { ptr, %"class.std::__shared_count" }
%"class.__gnu_cxx::__normal_iterator.117" = type { ptr }
%"struct.std::__detail::_Hash_node_value_base" = type { %"struct.__gnu_cxx::__aligned_buffer" }
%"struct.__gnu_cxx::__aligned_buffer" = type { %"union.std::aligned_storage<24, 8>::type" }
%"class.std::_Sp_counted_base" = type { ptr, i32, i32 }
%"class.std::allocator.118" = type { i8 }
%"struct.arrow::Status::State" = type { i8, %"class.std::__cxx11::basic_string", %"class.std::shared_ptr.121" }
%"class.std::shared_ptr.121" = type { %"class.std::__shared_ptr.122" }
%"class.std::__shared_ptr.122" = type { ptr, %"class.std::__shared_count" }
%"class.__gnu_cxx::__normal_iterator.124" = type { ptr }
%class.anon = type { ptr }
%"struct.std::once_flag::_Prepare_execution" = type { i8 }
%"class.std::vector.126" = type { %"struct.std::_Vector_base.127" }
%"struct.std::_Vector_base.127" = type { %"struct.std::_Vector_base<std::shared_ptr<arrow::compute::internal::CastFunction>, std::allocator<std::shared_ptr<arrow::compute::internal::CastFunction>>>::_Vector_impl" }
%"struct.std::_Vector_base<std::shared_ptr<arrow::compute::internal::CastFunction>, std::allocator<std::shared_ptr<arrow::compute::internal::CastFunction>>>::_Vector_impl" = type { %"struct.std::_Vector_base<std::shared_ptr<arrow::compute::internal::CastFunction>, std::allocator<std::shared_ptr<arrow::compute::internal::CastFunction>>>::_Vector_impl_data" }
%"struct.std::_Vector_base<std::shared_ptr<arrow::compute::internal::CastFunction>, std::allocator<std::shared_ptr<arrow::compute::internal::CastFunction>>>::_Vector_impl_data" = type { ptr, ptr, ptr }
%class.anon.125 = type { i8 }
%"class.__gnu_cxx::__normal_iterator.131" = type { ptr }
%"struct.std::_Hashtable<int, std::pair<const int, std::shared_ptr<arrow::compute::internal::CastFunction>>, std::allocator<std::pair<const int, std::shared_ptr<arrow::compute::internal::CastFunction>>>, std::__detail::_Select1st, std::equal_to<int>, std::hash<int>, std::__detail::_Mod_range_hashing, std::__detail::_Default_ranged_hash, std::__detail::_Prime_rehash_policy, std::__detail::_Hashtable_traits<false, false, true>>::_Scoped_node" = type { ptr, ptr }
%"class.std::tuple.132" = type { %"struct.std::_Tuple_impl.133" }
%"struct.std::_Tuple_impl.133" = type { %"struct.std::_Head_base.134" }
%"struct.std::_Head_base.134" = type { ptr }
%"class.std::tuple.135" = type { i8 }
%"struct.std::pair.137" = type { i8, i64 }
%"struct.std::__detail::_Mod_range_hashing" = type { i8 }
%"struct.std::__detail::_Select1st" = type { i8 }
%class.anon.139 = type { ptr }
%"struct.std::__detail::__variant::_Variant_storage" = type { %"union.std::__detail::__variant::_Variadic_union", i8, [7 x i8] }
%class.anon.140 = type { i8 }
%"struct.std::integral_constant.142" = type { i8 }
%"struct.std::integral_constant.146" = type { i8 }
%"struct.std::integral_constant.148" = type { i8 }
%"struct.std::integral_constant.153" = type { i8 }
%"struct.std::integral_constant.158" = type { i8 }
%"struct.std::integral_constant.163" = type { i8 }
%"struct.std::__detail::__variant::__variant_cookie" = type { i8 }
%"struct.std::integral_constant.165" = type { i8 }
%"struct.std::__detail::__variant::_Uninitialized" = type { %"struct.arrow::Datum::Empty" }
%"struct.arrow::Datum::Empty" = type { i8 }
%"class.std::__shared_ptr.144" = type { ptr, %"class.std::__shared_count" }
%"struct.std::__detail::__variant::_Uninitialized.93" = type { %"struct.__gnu_cxx::__aligned_membuf.94" }
%"struct.__gnu_cxx::__aligned_membuf.94" = type { [16 x i8] }
%"class.std::__shared_ptr.112" = type { ptr, %"class.std::__shared_count" }
%"struct.std::__detail::__variant::_Uninitialized.96" = type { %"struct.__gnu_cxx::__aligned_membuf.97" }
%"struct.__gnu_cxx::__aligned_membuf.97" = type { [16 x i8] }
%"class.std::__shared_ptr.151" = type { ptr, %"class.std::__shared_count" }
%"struct.std::__detail::__variant::_Uninitialized.99" = type { %"struct.__gnu_cxx::__aligned_membuf.100" }
%"struct.__gnu_cxx::__aligned_membuf.100" = type { [16 x i8] }
%"class.std::__shared_ptr.156" = type { ptr, %"class.std::__shared_count" }
%"struct.std::__detail::__variant::_Uninitialized.102" = type { %"struct.__gnu_cxx::__aligned_membuf.103" }
%"struct.__gnu_cxx::__aligned_membuf.103" = type { [16 x i8] }
%"class.std::__shared_ptr.161" = type { ptr, %"class.std::__shared_count" }
%class.anon.166 = type { i8 }
%class.anon.168 = type { i8 }
%struct._Guard = type { ptr }
%"struct.arrow::compute::internal::StringifyImpl" = type { ptr, %"class.std::vector" }
%"struct.arrow::compute::internal::CompareImpl" = type <{ ptr, ptr, i8, [7 x i8] }>
%"class.arrow::Result.185" = type { %"class.arrow::Status", %"class.arrow::internal::AlignedStorage.188" }
%"class.arrow::internal::AlignedStorage.188" = type { %"union.std::aligned_storage<16, 8>::type" }
%"class.arrow::Result.189" = type { %"class.arrow::Status", %"class.arrow::internal::AlignedStorage.192" }
%"class.arrow::internal::AlignedStorage.192" = type { %"union.std::aligned_storage<8, 8>::type" }
%"class.std::unique_ptr.193" = type { %"struct.std::__uniq_ptr_data.194" }
%"struct.std::__uniq_ptr_data.194" = type { %"class.std::__uniq_ptr_impl.195" }
%"class.std::__uniq_ptr_impl.195" = type { %"class.std::tuple.196" }
%"class.std::tuple.196" = type { %"struct.std::_Tuple_impl.197" }
%"struct.std::_Tuple_impl.197" = type { %"struct.std::_Head_base.200" }
%"struct.std::_Head_base.200" = type { ptr }
%"class.std::unique_ptr.201" = type { %"struct.std::__uniq_ptr_data.202" }
%"struct.std::__uniq_ptr_data.202" = type { %"class.std::__uniq_ptr_impl.203" }
%"class.std::__uniq_ptr_impl.203" = type { %"class.std::tuple.204" }
%"class.std::tuple.204" = type { %"struct.std::_Tuple_impl.205" }
%"struct.std::_Tuple_impl.205" = type { %"struct.std::_Head_base.208" }
%"struct.std::_Head_base.208" = type { ptr }
%"struct.arrow::compute::internal::CopyImpl" = type { ptr, ptr }
%"struct.arrow::compute::internal::ToStructScalarImpl" = type { ptr, %"class.arrow::Status", ptr, ptr }
%"struct.arrow::compute::internal::FromStructScalarImpl" = type { ptr, %"class.arrow::Status", ptr }
%"class.std::__cxx11::basic_stringstream" = type { %"class.std::basic_iostream.base", %"class.std::__cxx11::basic_stringbuf", %"class.std::basic_ios" }
%"class.std::basic_iostream.base" = type { %"class.std::basic_istream.base", %"class.std::basic_ostream.base" }
%"class.std::basic_istream.base" = type { ptr, i64 }
%"class.std::basic_ostream.base" = type { ptr }
%"class.std::__cxx11::basic_stringbuf" = type { %"class.std::basic_streambuf", i32, %"class.std::__cxx11::basic_string" }
%"class.std::basic_streambuf" = type { ptr, ptr, ptr, ptr, ptr, ptr, ptr, %"class.std::locale" }
%"class.std::locale" = type { ptr }
%"class.std::basic_ios" = type { %"class.std::ios_base", ptr, i8, i8, ptr, ptr, ptr, ptr }
%"class.std::ios_base" = type { ptr, i64, i64, i32, i32, i32, ptr, %"struct.std::ios_base::_Words", [8 x %"struct.std::ios_base::_Words"], i32, ptr, %"class.std::locale" }
%"struct.std::ios_base::_Words" = type { ptr, i64 }
%"class.arrow::Result.211" = type { %"class.arrow::Status", %"class.arrow::internal::AlignedStorage.214" }
%"class.arrow::internal::AlignedStorage.214" = type { %"union.std::aligned_storage<16, 8>::type" }
%"class.std::shared_ptr.143" = type { %"class.std::__shared_ptr.144" }
%"class.__gnu_cxx::__normal_iterator.228" = type { ptr }
%"class.arrow::util::detail::StringStreamWrapper" = type { %"class.std::unique_ptr.220", ptr }
%"class.std::unique_ptr.220" = type { %"struct.std::__uniq_ptr_data.221" }
%"struct.std::__uniq_ptr_data.221" = type { %"class.std::__uniq_ptr_impl.222" }
%"class.std::__uniq_ptr_impl.222" = type { %"class.std::tuple.223" }
%"class.std::tuple.223" = type { %"struct.std::_Tuple_impl.224" }
%"struct.std::_Tuple_impl.224" = type { %"struct.std::_Head_base.227" }
%"struct.std::_Head_base.227" = type { ptr }
%"struct.std::__cxx11::basic_string<char>::__sv_wrapper" = type { %"class.std::basic_string_view" }
%"class.__gnu_cxx::__normal_iterator.229" = type { ptr }
%"struct.std::_Vector_base.216" = type { %"struct.std::_Vector_base<std::shared_ptr<arrow::Scalar>, std::allocator<std::shared_ptr<arrow::Scalar>>>::_Vector_impl" }
%"struct.std::_Vector_base<std::shared_ptr<arrow::Scalar>, std::allocator<std::shared_ptr<arrow::Scalar>>>::_Vector_impl" = type { %"struct.std::_Vector_base<std::shared_ptr<arrow::Scalar>, std::allocator<std::shared_ptr<arrow::Scalar>>>::_Vector_impl_data" }
%"struct.std::_Vector_base<std::shared_ptr<arrow::Scalar>, std::allocator<std::shared_ptr<arrow::Scalar>>>::_Vector_impl_data" = type { ptr, ptr, ptr }
%"class.std::shared_ptr.230" = type { %"class.std::__shared_ptr.231" }
%"class.std::__shared_ptr.231" = type { ptr, %"class.std::__shared_count" }
%"class.std::allocator.234" = type { i8 }
%"struct.std::__allocated_ptr" = type { ptr, ptr }
%"class.std::_Sp_counted_ptr_inplace" = type { %"class.std::_Sp_counted_base", %"class.std::_Sp_counted_ptr_inplace<arrow::BooleanScalar, std::allocator<void>, __gnu_cxx::_S_atomic>::_Impl" }
%"class.std::_Sp_counted_ptr_inplace<arrow::BooleanScalar, std::allocator<void>, __gnu_cxx::_S_atomic>::_Impl" = type { %"struct.__gnu_cxx::__aligned_buffer.237" }
%"struct.__gnu_cxx::__aligned_buffer.237" = type { %"union.std::aligned_storage<48, 8>::type" }
%"union.std::aligned_storage<48, 8>::type" = type { [48 x i8] }
%"struct.arrow::internal::PrimitiveScalar" = type { %"struct.arrow::internal::PrimitiveScalarBase.base", i8, [6 x i8] }
%"struct.arrow::internal::PrimitiveScalarBase.base" = type { %"struct.arrow::Scalar.base" }
%"struct.arrow::Scalar.base" = type <{ ptr, %"class.std::enable_shared_from_this.240", %"class.std::shared_ptr.38", i8 }>
%"class.std::enable_shared_from_this.240" = type { %"class.std::weak_ptr.241" }
%"class.std::weak_ptr.241" = type { %"class.std::__weak_ptr.242" }
%"class.std::__weak_ptr.242" = type { ptr, %"class.std::__weak_count" }
%"struct.arrow::Scalar" = type <{ ptr, %"class.std::enable_shared_from_this.240", %"class.std::shared_ptr.38", i8, [7 x i8] }>
%"class.std::type_info" = type { ptr, ptr }
%"class.arrow::FieldRef" = type { %"class.std::variant.247" }
%"class.std::variant.247" = type { %"struct.std::__detail::__variant::_Variant_base.base.268", [7 x i8] }
%"struct.std::__detail::__variant::_Variant_base.base.268" = type { %"struct.std::__detail::__variant::_Move_assign_base.base.267" }
%"struct.std::__detail::__variant::_Move_assign_base.base.267" = type { %"struct.std::__detail::__variant::_Copy_assign_base.base.266" }
%"struct.std::__detail::__variant::_Copy_assign_base.base.266" = type { %"struct.std::__detail::__variant::_Move_ctor_base.base.265" }
%"struct.std::__detail::__variant::_Move_ctor_base.base.265" = type { %"struct.std::__detail::__variant::_Copy_ctor_base.base.264" }
%"struct.std::__detail::__variant::_Copy_ctor_base.base.264" = type { %"struct.std::__detail::__variant::_Variant_storage.base.263" }
%"struct.std::__detail::__variant::_Variant_storage.base.263" = type { %"union.std::__detail::__variant::_Variadic_union.254", i8 }
%"union.std::__detail::__variant::_Variadic_union.254" = type { %"union.std::__detail::__variant::_Variadic_union.257" }
%"union.std::__detail::__variant::_Variadic_union.257" = type { %"struct.std::__detail::__variant::_Uninitialized.258" }
%"struct.std::__detail::__variant::_Uninitialized.258" = type { %"struct.__gnu_cxx::__aligned_membuf.259" }
%"struct.__gnu_cxx::__aligned_membuf.259" = type { [32 x i8] }
%"class.arrow::Result.273" = type { %"class.arrow::Status", %"class.arrow::internal::AlignedStorage.276" }
%"class.arrow::internal::AlignedStorage.276" = type { %"union.std::aligned_storage<24, 8>::type" }
%"class.arrow::Result.291" = type <{ %"class.arrow::Status", %"class.arrow::internal::AlignedStorage.294", [7 x i8] }>
%"class.arrow::internal::AlignedStorage.294" = type { %"union.std::aligned_storage<1, 1>::type" }
%"union.std::aligned_storage<1, 1>::type" = type { [1 x i8] }
%"struct.std::__detail::__variant::_Variant_storage.253" = type { %"union.std::__detail::__variant::_Variadic_union.254", i8, [7 x i8] }
%class.anon.277 = type { i8 }
%class.anon.279 = type { i8 }
%"class.arrow::FieldPath" = type { %"class.std::vector.281" }
%"class.std::vector.281" = type { %"struct.std::_Vector_base.282" }
%"struct.std::_Vector_base.282" = type { %"struct.std::_Vector_base<int, std::allocator<int>>::_Vector_impl" }
%"struct.std::_Vector_base<int, std::allocator<int>>::_Vector_impl" = type { %"struct.std::_Vector_base<int, std::allocator<int>>::_Vector_impl_data" }
%"struct.std::_Vector_base<int, std::allocator<int>>::_Vector_impl_data" = type { ptr, ptr, ptr }
%"struct.std::__detail::__variant::_Uninitialized.255" = type { %"struct.__gnu_cxx::__aligned_membuf.256" }
%"struct.__gnu_cxx::__aligned_membuf.256" = type { [24 x i8] }
%"struct.std::_Vector_base.287" = type { %"struct.std::_Vector_base<arrow::FieldRef, std::allocator<arrow::FieldRef>>::_Vector_impl" }
%"struct.std::_Vector_base<arrow::FieldRef, std::allocator<arrow::FieldRef>>::_Vector_impl" = type { %"struct.std::_Vector_base<arrow::FieldRef, std::allocator<arrow::FieldRef>>::_Vector_impl_data" }
%"struct.std::_Vector_base<arrow::FieldRef, std::allocator<arrow::FieldRef>>::_Vector_impl_data" = type { ptr, ptr, ptr }
%"struct.std::__detail::__variant::_Uninitialized.261" = type { %"struct.__gnu_cxx::__aligned_membuf.262" }
%"struct.__gnu_cxx::__aligned_membuf.262" = type { [24 x i8] }
%"class.std::allocator.296" = type { i8 }
%"struct.std::__allocated_ptr.299" = type { ptr, ptr }
%"class.std::_Sp_counted_ptr_inplace.300" = type { %"class.std::_Sp_counted_base", %"class.std::_Sp_counted_ptr_inplace<arrow::compute::internal::(anonymous namespace)::CastMetaFunction, std::allocator<void>, __gnu_cxx::_S_atomic>::_Impl" }
%"class.std::_Sp_counted_ptr_inplace<arrow::compute::internal::(anonymous namespace)::CastMetaFunction, std::allocator<void>, __gnu_cxx::_S_atomic>::_Impl" = type { %"struct.__gnu_cxx::__aligned_buffer.301" }
%"struct.__gnu_cxx::__aligned_buffer.301" = type { %"union.std::aligned_storage<192, 8>::type" }
%"union.std::aligned_storage<192, 8>::type" = type { [192 x i8] }
%"class.arrow::Result.304" = type { %"class.arrow::Status", %"class.arrow::internal::AlignedStorage.307" }
%"class.arrow::internal::AlignedStorage.307" = type { %"union.std::aligned_storage<8, 8>::type" }
%"class.arrow::Result.308" = type { %"class.arrow::Status", %"class.arrow::internal::AlignedStorage.311" }
%"class.arrow::internal::AlignedStorage.311" = type { %"union.std::aligned_storage<16, 8>::type" }
%"class.std::shared_ptr.111" = type { %"class.std::__shared_ptr.112" }
%"class.arrow::Result.312" = type { %"class.arrow::Status", %"class.arrow::internal::AlignedStorage.315" }
%"class.arrow::internal::AlignedStorage.315" = type { %"union.std::aligned_storage<16, 8>::type" }
%"class.std::shared_ptr.150" = type { %"class.std::__shared_ptr.151" }
%"class.std::bad_variant_access" = type { %"class.std::exception", ptr }
%"class.std::exception" = type { ptr }
%class.anon.328 = type { ptr }
%class.anon.329 = type { i8 }
%"struct.arrow::compute::internal::OptionsWrapper" = type { %"struct.arrow::compute::KernelState", %"class.arrow::compute::CastOptions" }
%"struct.arrow::compute::KernelState" = type { ptr }
%"class.std::unique_ptr.341" = type { %"struct.std::__uniq_ptr_data.342" }
%"struct.std::__uniq_ptr_data.342" = type { %"class.std::__uniq_ptr_impl.343" }
%"class.std::__uniq_ptr_impl.343" = type { %"class.std::tuple.344" }
%"class.std::tuple.344" = type { %"struct.std::_Tuple_impl.345" }
%"struct.std::_Tuple_impl.345" = type { %"struct.std::_Head_base.348" }
%"struct.std::_Head_base.348" = type { ptr }

$_ZNSt13unordered_mapIiSt10shared_ptrIN5arrow7compute8internal12CastFunctionEESt4hashIiESt8equal_toIiESaISt4pairIKiS5_EEEC2Ev = comdat any

$_ZNSt13unordered_mapIiSt10shared_ptrIN5arrow7compute8internal12CastFunctionEESt4hashIiESt8equal_toIiESaISt4pairIKiS5_EEED2Ev = comdat any

$_ZNSt7__cxx1112basic_stringIcSt11char_traitsIcESaIcEEC2IS3_EEPKcRKS3_ = comdat any

$_ZNSaINSt7__cxx1112basic_stringIcSt11char_traitsIcESaIcEEEEC2Ev = comdat any

$_ZNSt6vectorINSt7__cxx1112basic_stringIcSt11char_traitsIcESaIcEEESaIS5_EEC2ESt16initializer_listIS5_ERKS6_ = comdat any

$_ZN5arrow7compute11FunctionDocC2ENSt7__cxx1112basic_stringIcSt11char_traitsIcESaIcEEES7_St6vectorIS7_SaIS7_EES7_b = comdat any

$_ZNSt6vectorINSt7__cxx1112basic_stringIcSt11char_traitsIcESaIcEEESaIS5_EED2Ev = comdat any

$_ZNSaINSt7__cxx1112basic_stringIcSt11char_traitsIcESaIcEEEED2Ev = comdat any

$_ZN5arrow7compute11FunctionDocD2Ev = comdat any

$_ZN5arrow7compute8internal22GetFunctionOptionsTypeINS0_11CastOptionsEJNS_8internal18DataMemberPropertyIS3_NS_10TypeHolderEEENS5_IS3_bEES8_S8_S8_S8_S8_EEEPKNS0_19FunctionOptionsTypeEDpRKT0_ = comdat any

$_ZN5arrow8internal10DataMemberINS_7compute11CastOptionsENS_10TypeHolderEEENS0_18DataMemberPropertyIT_T0_EESt17basic_string_viewIcSt11char_traitsIcEEMS6_S7_ = comdat any

$_ZNSt17basic_string_viewIcSt11char_traitsIcEEC2EPKc = comdat any

$_ZN5arrow8internal10DataMemberINS_7compute11CastOptionsEbEENS0_18DataMemberPropertyIT_T0_EESt17basic_string_viewIcSt11char_traitsIcEEMS5_S6_ = comdat any

$_ZN5arrow6StatusD2Ev = comdat any

$_ZNSt10shared_ptrIN5arrow7compute8FunctionEED2Ev = comdat any

$_ZN5arrow7compute5Arity5UnaryEv = comdat any

$_ZN5arrow7compute11FunctionDocC2ERKS1_ = comdat any

$_ZN5arrow7compute14ScalarFunctionC2ENSt7__cxx1112basic_stringIcSt11char_traitsIcESaIcEEERKNS0_5ArityENS0_11FunctionDocEPKNS0_15FunctionOptionsE = comdat any

$_ZNSt6vectorIN5arrow4Type4typeESaIS2_EEC2Ev = comdat any

$_ZN5arrow7compute8internal14OptionsWrapperINS0_11CastOptionsEE4InitEPNS0_13KernelContextERKNS0_14KernelInitArgsE = comdat any

$_ZNSt8functionIFN5arrow6ResultISt10unique_ptrINS0_7compute11KernelStateESt14default_deleteIS4_EEEEPNS3_13KernelContextERKNS3_14KernelInitArgsEEEaSIRSE_EENSt9enable_ifIXsrNSF_9_CallableIT_NSI_IXntsr7is_sameINSt9remove_cvINSt16remove_referenceISK_E4typeEE4typeESF_EE5valueESt5decayISK_EE4type4typeESt15__invoke_resultIRSV_JSA_SD_EEEE5valueERSF_E4typeEOSK_ = comdat any

$_ZN5arrow8internal15GenericToStatusEONS_6StatusE = comdat any

$_ZN5arrow7compute12ScalarKernelC2ERKS1_ = comdat any

$_ZN5arrow7compute12ScalarKernelD2Ev = comdat any

$_ZNK5arrow6Status2okEv = comdat any

$_ZNSt6vectorIN5arrow4Type4typeESaIS2_EE9push_backERKS2_ = comdat any

$_ZN5arrow6Status2OKEv = comdat any

$_ZN5arrow7compute12ScalarKernelC2Ev = comdat any

$_ZNSt6vectorIN5arrow7compute9InputTypeESaIS2_EEC2EOS4_ = comdat any

$_ZN5arrow7compute10OutputTypeC2EOS1_ = comdat any

$_ZNSt10shared_ptrIN5arrow7compute15KernelSignatureEEaSEOS3_ = comdat any

$_ZNSt10shared_ptrIN5arrow7compute15KernelSignatureEED2Ev = comdat any

$_ZN5arrow7compute10OutputTypeD2Ev = comdat any

$_ZNSt6vectorIN5arrow7compute9InputTypeESaIS2_EED2Ev = comdat any

$_ZN5arrow7compute12ScalarKernelC2EOS1_ = comdat any

$_ZNKSt6vectorIN5arrow10TypeHolderESaIS1_EE4sizeEv = comdat any

$_ZN5arrow6ResultIPKNS_7compute6KernelEEC2ERKNS_6StatusE = comdat any

$_ZNSt6vectorIPKN5arrow7compute12ScalarKernelESaIS4_EEC2Ev = comdat any

$_ZNKSt6vectorIN5arrow7compute12ScalarKernelESaIS2_EE5beginEv = comdat any

$_ZNKSt6vectorIN5arrow7compute12ScalarKernelESaIS2_EE3endEv = comdat any

$_ZN9__gnu_cxxneIPKN5arrow7compute12ScalarKernelESt6vectorIS3_SaIS3_EEEEbRKNS_17__normal_iteratorIT_T0_EESE_ = comdat any

$_ZNK9__gnu_cxx17__normal_iteratorIPKN5arrow7compute12ScalarKernelESt6vectorIS3_SaIS3_EEEdeEv = comdat any

$_ZNKSt19__shared_ptr_accessIN5arrow7compute15KernelSignatureELN9__gnu_cxx12_Lock_policyE2ELb0ELb0EEptEv = comdat any

$_ZNSt6vectorIPKN5arrow7compute12ScalarKernelESaIS4_EE9push_backEOS4_ = comdat any

$_ZN9__gnu_cxx17__normal_iteratorIPKN5arrow7compute12ScalarKernelESt6vectorIS3_SaIS3_EEEppEv = comdat any

$_ZNKSt6vectorIPKN5arrow7compute12ScalarKernelESaIS4_EE4sizeEv = comdat any

$_ZN5arrow6Status14NotImplementedIJRA23_KcNSt7__cxx1112basic_stringIcSt11char_traitsIcESaIcEEERA5_S2_SA_RA17_S2_RKSA_EEES0_DpOT_ = comdat any

$_ZNKSt6vectorIN5arrow10TypeHolderESaIS1_EEixEm = comdat any

$_ZNK5arrow7compute8Function4nameB5cxx11Ev = comdat any

$_ZNSt6vectorIPKN5arrow7compute12ScalarKernelESaIS4_EEixEm = comdat any

$_ZN5arrow6ResultIPKNS_7compute6KernelEEC2IRPKNS1_12ScalarKernelEvEEOT_ = comdat any

$_ZNSt6vectorIPKN5arrow7compute12ScalarKernelESaIS4_EE5beginEv = comdat any

$_ZNSt6vectorIPKN5arrow7compute12ScalarKernelESaIS4_EE3endEv = comdat any

$_ZN9__gnu_cxxneIPPKN5arrow7compute12ScalarKernelESt6vectorIS5_SaIS5_EEEEbRKNS_17__normal_iteratorIT_T0_EESF_ = comdat any

$_ZNK9__gnu_cxx17__normal_iteratorIPPKN5arrow7compute12ScalarKernelESt6vectorIS5_SaIS5_EEEdeEv = comdat any

$_ZNK5arrow7compute15KernelSignature8in_typesEv = comdat any

$_ZNKSt6vectorIN5arrow7compute9InputTypeESaIS2_EEixEm = comdat any

$_ZNK5arrow7compute9InputType4kindEv = comdat any

$_ZN5arrow6ResultIPKNS_7compute6KernelEEC2IPKNS1_12ScalarKernelEvEEOT_ = comdat any

$_ZN9__gnu_cxx17__normal_iteratorIPPKN5arrow7compute12ScalarKernelESt6vectorIS5_SaIS5_EEEppEv = comdat any

$_ZNSt6vectorIPKN5arrow7compute12ScalarKernelESaIS4_EED2Ev = comdat any

$_ZNSt13unordered_mapIiSt10shared_ptrIN5arrow7compute8internal12CastFunctionEESt4hashIiESt8equal_toIiESaISt4pairIKiS5_EEE4findERSB_ = comdat any

$_ZNK5arrow8DataType2idEv = comdat any

$_ZNSt8__detaileqERKNS_19_Node_iterator_baseISt4pairIKiSt10shared_ptrIN5arrow7compute8internal12CastFunctionEEELb0EEESC_ = comdat any

$_ZNSt13unordered_mapIiSt10shared_ptrIN5arrow7compute8internal12CastFunctionEESt4hashIiESt8equal_toIiESaISt4pairIKiS5_EEE3endEv = comdat any

$_ZN5arrow6Status14NotImplementedIJRA21_KcRKNS_8DataTypeEEEES0_DpOT_ = comdat any

$_ZN5arrow6ResultISt10shared_ptrINS_7compute8internal12CastFunctionEEEC2ERKNS_6StatusE = comdat any

$_ZNKSt8__detail14_Node_iteratorISt4pairIKiSt10shared_ptrIN5arrow7compute8internal12CastFunctionEEELb0ELb0EEptEv = comdat any

$_ZN5arrow6ResultISt10shared_ptrINS_7compute8internal12CastFunctionEEEC2IRS5_vEEOT_ = comdat any

$_ZN5arrow7compute15FunctionOptionsC2EPKNS0_19FunctionOptionsTypeE = comdat any

$_ZN5arrow10TypeHolderC2Ev = comdat any

$_ZN5arrow5DatumC2ERKS0_ = comdat any

$_ZN5arrow5DatumD2Ev = comdat any

$_ZNSaIN5arrow5DatumEEC2Ev = comdat any

$_ZNSt6vectorIN5arrow5DatumESaIS1_EEC2ESt16initializer_listIS1_ERKS2_ = comdat any

$_ZNSt6vectorIN5arrow5DatumESaIS1_EED2Ev = comdat any

$_ZNSaIN5arrow5DatumEED2Ev = comdat any

$_ZN5arrow7compute11CastOptionsC2ERKS1_ = comdat any

$_ZN5arrow10TypeHolderaSERKS0_ = comdat any

$_ZN5arrow7compute11CastOptionsD2Ev = comdat any

$_ZNK5arrow6ResultINS_5DatumEE2okEv = comdat any

$_ZNK5arrow6ResultINS_5DatumEE6statusEv = comdat any

$_ZN5arrow6ResultISt10shared_ptrINS_5ArrayEEEC2ERKNS_6StatusE = comdat any

$_ZNO5arrow6ResultINS_5DatumEE11ValueUnsafeEv = comdat any

$_ZN5arrow6ResultISt10shared_ptrINS_5ArrayEEEC2EOS3_ = comdat any

$_ZNSt10shared_ptrIN5arrow5ArrayEED2Ev = comdat any

$_ZN5arrow6ResultINS_5DatumEED2Ev = comdat any

$_ZNKSt12__shared_ptrIN5arrow7compute8internal12CastFunctionELN9__gnu_cxx12_Lock_policyE2EE3getEv = comdat any

$_ZNK5arrow7compute8internal12CastFunction11out_type_idEv = comdat any

$_ZNK5arrow7compute8internal12CastFunction11in_type_idsEv = comdat any

$_ZNKSt6vectorIN5arrow4Type4typeESaIS2_EE5beginEv = comdat any

$_ZNKSt6vectorIN5arrow4Type4typeESaIS2_EE3endEv = comdat any

$_ZN9__gnu_cxxneIPKN5arrow4Type4typeESt6vectorIS3_SaIS3_EEEEbRKNS_17__normal_iteratorIT_T0_EESE_ = comdat any

$_ZNK9__gnu_cxx17__normal_iteratorIPKN5arrow4Type4typeESt6vectorIS3_SaIS3_EEEdeEv = comdat any

$_ZN9__gnu_cxx17__normal_iteratorIPKN5arrow4Type4typeESt6vectorIS3_SaIS3_EEEppEv = comdat any

$_ZN5arrow7compute8internal12CastFunctionD2Ev = comdat any

$_ZN5arrow7compute8internal12CastFunctionD0Ev = comdat any

$_ZNK5arrow7compute6detail12FunctionImplINS0_12ScalarKernelEE11num_kernelsEv = comdat any

$_ZN5arrow7compute11CastOptionsD0Ev = comdat any

$_ZNSt10_HashtableIiSt4pairIKiSt10shared_ptrIN5arrow7compute8internal12CastFunctionEEESaIS8_ENSt8__detail10_Select1stESt8equal_toIiESt4hashIiENSA_18_Mod_range_hashingENSA_20_Default_ranged_hashENSA_20_Prime_rehash_policyENSA_17_Hashtable_traitsILb0ELb0ELb1EEEEC2Ev = comdat any

$_ZNSt8__detail15_Hashtable_baseIiSt4pairIKiSt10shared_ptrIN5arrow7compute8internal12CastFunctionEEENS_10_Select1stESt8equal_toIiESt4hashIiENS_18_Mod_range_hashingENS_20_Default_ranged_hashENS_17_Hashtable_traitsILb0ELb0ELb1EEEEC2Ev = comdat any

$_ZNSt8__detail16_Hashtable_allocISaINS_10_Hash_nodeISt4pairIKiSt10shared_ptrIN5arrow7compute8internal12CastFunctionEEELb0EEEEEC2Ev = comdat any

$_ZNSt8__detail15_Hash_node_baseC2Ev = comdat any

$_ZNSt8__detail20_Prime_rehash_policyC2Ef = comdat any

$_ZNSt8__detail15_Hash_code_baseIiSt4pairIKiSt10shared_ptrIN5arrow7compute8internal12CastFunctionEEENS_10_Select1stESt4hashIiENS_18_Mod_range_hashingENS_20_Default_ranged_hashELb0EEC2Ev = comdat any

$_ZNSt8__detail21_Hashtable_ebo_helperILi0ESt8equal_toIiELb1EEC2Ev = comdat any

$_ZNSt8__detail21_Hashtable_ebo_helperILi1ESt4hashIiELb1EEC2Ev = comdat any

$_ZNSt8__detail21_Hashtable_ebo_helperILi0ESaINS_10_Hash_nodeISt4pairIKiSt10shared_ptrIN5arrow7compute8internal12CastFunctionEEELb0EEEELb1EEC2Ev = comdat any

$_ZNSaINSt8__detail10_Hash_nodeISt4pairIKiSt10shared_ptrIN5arrow7compute8internal12CastFunctionEEELb0EEEEC2Ev = comdat any

$_ZNSt15__new_allocatorINSt8__detail10_Hash_nodeISt4pairIKiSt10shared_ptrIN5arrow7compute8internal12CastFunctionEEELb0EEEEC2Ev = comdat any

$_ZNSt10_HashtableIiSt4pairIKiSt10shared_ptrIN5arrow7compute8internal12CastFunctionEEESaIS8_ENSt8__detail10_Select1stESt8equal_toIiESt4hashIiENSA_18_Mod_range_hashingENSA_20_Default_ranged_hashENSA_20_Prime_rehash_policyENSA_17_Hashtable_traitsILb0ELb0ELb1EEEED2Ev = comdat any

$_ZNSt10_HashtableIiSt4pairIKiSt10shared_ptrIN5arrow7compute8internal12CastFunctionEEESaIS8_ENSt8__detail10_Select1stESt8equal_toIiESt4hashIiENSA_18_Mod_range_hashingENSA_20_Default_ranged_hashENSA_20_Prime_rehash_policyENSA_17_Hashtable_traitsILb0ELb0ELb1EEEE5clearEv = comdat any

$_ZNSt10_HashtableIiSt4pairIKiSt10shared_ptrIN5arrow7compute8internal12CastFunctionEEESaIS8_ENSt8__detail10_Select1stESt8equal_toIiESt4hashIiENSA_18_Mod_range_hashingENSA_20_Default_ranged_hashENSA_20_Prime_rehash_policyENSA_17_Hashtable_traitsILb0ELb0ELb1EEEE21_M_deallocate_bucketsEv = comdat any

$__clang_call_terminate = comdat any

$_ZNSt8__detail16_Hashtable_allocISaINS_10_Hash_nodeISt4pairIKiSt10shared_ptrIN5arrow7compute8internal12CastFunctionEEELb0EEEEED2Ev = comdat any

$_ZNSt8__detail16_Hashtable_allocISaINS_10_Hash_nodeISt4pairIKiSt10shared_ptrIN5arrow7compute8internal12CastFunctionEEELb0EEEEE19_M_deallocate_nodesEPSB_ = comdat any

$_ZNKSt10_HashtableIiSt4pairIKiSt10shared_ptrIN5arrow7compute8internal12CastFunctionEEESaIS8_ENSt8__detail10_Select1stESt8equal_toIiESt4hashIiENSA_18_Mod_range_hashingENSA_20_Default_ranged_hashENSA_20_Prime_rehash_policyENSA_17_Hashtable_traitsILb0ELb0ELb1EEEE8_M_beginEv = comdat any

$_ZNKSt8__detail10_Hash_nodeISt4pairIKiSt10shared_ptrIN5arrow7compute8internal12CastFunctionEEELb0EE7_M_nextEv = comdat any

$_ZNSt8__detail16_Hashtable_allocISaINS_10_Hash_nodeISt4pairIKiSt10shared_ptrIN5arrow7compute8internal12CastFunctionEEELb0EEEEE18_M_deallocate_nodeEPSB_ = comdat any

$_ZNSt16allocator_traitsISaINSt8__detail10_Hash_nodeISt4pairIKiSt10shared_ptrIN5arrow7compute8internal12CastFunctionEEELb0EEEEE7destroyISA_EEvRSC_PT_ = comdat any

$_ZNSt8__detail16_Hashtable_allocISaINS_10_Hash_nodeISt4pairIKiSt10shared_ptrIN5arrow7compute8internal12CastFunctionEEELb0EEEEE17_M_node_allocatorEv = comdat any

$_ZNSt8__detail21_Hash_node_value_baseISt4pairIKiSt10shared_ptrIN5arrow7compute8internal12CastFunctionEEEE9_M_valptrEv = comdat any

$_ZNSt8__detail16_Hashtable_allocISaINS_10_Hash_nodeISt4pairIKiSt10shared_ptrIN5arrow7compute8internal12CastFunctionEEELb0EEEEE22_M_deallocate_node_ptrEPSB_ = comdat any

$_ZNSt15__new_allocatorINSt8__detail10_Hash_nodeISt4pairIKiSt10shared_ptrIN5arrow7compute8internal12CastFunctionEEELb0EEEE7destroyISA_EEvPT_ = comdat any

$_ZNSt4pairIKiSt10shared_ptrIN5arrow7compute8internal12CastFunctionEEED2Ev = comdat any

$_ZNSt10shared_ptrIN5arrow7compute8internal12CastFunctionEED2Ev = comdat any

$_ZNSt12__shared_ptrIN5arrow7compute8internal12CastFunctionELN9__gnu_cxx12_Lock_policyE2EED2Ev = comdat any

$_ZNSt14__shared_countILN9__gnu_cxx12_Lock_policyE2EED2Ev = comdat any

$_ZNSt16_Sp_counted_baseILN9__gnu_cxx12_Lock_policyE2EE10_M_releaseEv = comdat any

$_ZNSt16_Sp_counted_baseILN9__gnu_cxx12_Lock_policyE2EE24_M_release_last_use_coldEv = comdat any

$_ZNSt16_Sp_counted_baseILN9__gnu_cxx12_Lock_policyE2EE19_M_release_last_useEv = comdat any

$_ZNSt8__detail21_Hashtable_ebo_helperILi0ESaINS_10_Hash_nodeISt4pairIKiSt10shared_ptrIN5arrow7compute8internal12CastFunctionEEELb0EEEELb1EE6_M_getEv = comdat any

$_ZN9__gnu_cxx16__aligned_bufferISt4pairIKiSt10shared_ptrIN5arrow7compute8internal12CastFunctionEEEE6_M_ptrEv = comdat any

$_ZN9__gnu_cxx16__aligned_bufferISt4pairIKiSt10shared_ptrIN5arrow7compute8internal12CastFunctionEEEE7_M_addrEv = comdat any

$_ZNSt19__ptr_traits_ptr_toIPNSt8__detail10_Hash_nodeISt4pairIKiSt10shared_ptrIN5arrow7compute8internal12CastFunctionEEELb0EEESB_Lb0EE10pointer_toERSB_ = comdat any

$_ZNSt16allocator_traitsISaINSt8__detail10_Hash_nodeISt4pairIKiSt10shared_ptrIN5arrow7compute8internal12CastFunctionEEELb0EEEEE10deallocateERSC_PSB_m = comdat any

$_ZNSt15__new_allocatorINSt8__detail10_Hash_nodeISt4pairIKiSt10shared_ptrIN5arrow7compute8internal12CastFunctionEEELb0EEEE10deallocateEPSB_m = comdat any

$_ZNSt10_HashtableIiSt4pairIKiSt10shared_ptrIN5arrow7compute8internal12CastFunctionEEESaIS8_ENSt8__detail10_Select1stESt8equal_toIiESt4hashIiENSA_18_Mod_range_hashingENSA_20_Default_ranged_hashENSA_20_Prime_rehash_policyENSA_17_Hashtable_traitsILb0ELb0ELb1EEEE21_M_deallocate_bucketsEPPNSA_15_Hash_node_baseEm = comdat any

$_ZNKSt10_HashtableIiSt4pairIKiSt10shared_ptrIN5arrow7compute8internal12CastFunctionEEESaIS8_ENSt8__detail10_Select1stESt8equal_toIiESt4hashIiENSA_18_Mod_range_hashingENSA_20_Default_ranged_hashENSA_20_Prime_rehash_policyENSA_17_Hashtable_traitsILb0ELb0ELb1EEEE21_M_uses_single_bucketEPPNSA_15_Hash_node_baseE = comdat any

$_ZNSt8__detail16_Hashtable_allocISaINS_10_Hash_nodeISt4pairIKiSt10shared_ptrIN5arrow7compute8internal12CastFunctionEEELb0EEEEE21_M_deallocate_bucketsEPPNS_15_Hash_node_baseEm = comdat any

$_ZNSt19__ptr_traits_ptr_toIPPNSt8__detail15_Hash_node_baseES2_Lb0EE10pointer_toERS2_ = comdat any

$_ZNSaIPNSt8__detail15_Hash_node_baseEEC2INS_10_Hash_nodeISt4pairIKiSt10shared_ptrIN5arrow7compute8internal12CastFunctionEEELb0EEEEERKSaIT_E = comdat any

$_ZNSt16allocator_traitsISaIPNSt8__detail15_Hash_node_baseEEE10deallocateERS3_PS2_m = comdat any

$_ZNSaIPNSt8__detail15_Hash_node_baseEED2Ev = comdat any

$_ZNSt15__new_allocatorIPNSt8__detail15_Hash_node_baseEEC2Ev = comdat any

$_ZNSt15__new_allocatorIPNSt8__detail15_Hash_node_baseEE10deallocateEPS2_m = comdat any

$_ZNSt15__new_allocatorIPNSt8__detail15_Hash_node_baseEED2Ev = comdat any

$_ZNSt8__detail21_Hashtable_ebo_helperILi0ESaINS_10_Hash_nodeISt4pairIKiSt10shared_ptrIN5arrow7compute8internal12CastFunctionEEELb0EEEELb1EED2Ev = comdat any

$_ZNSaINSt8__detail10_Hash_nodeISt4pairIKiSt10shared_ptrIN5arrow7compute8internal12CastFunctionEEELb0EEEED2Ev = comdat any

$_ZNSt15__new_allocatorINSt8__detail10_Hash_nodeISt4pairIKiSt10shared_ptrIN5arrow7compute8internal12CastFunctionEEELb0EEEED2Ev = comdat any

$_ZNSt6vectorINSt7__cxx1112basic_stringIcSt11char_traitsIcESaIcEEESaIS5_EEC2EOS7_ = comdat any

$_ZNSt12_Vector_baseINSt7__cxx1112basic_stringIcSt11char_traitsIcESaIcEEESaIS5_EEC2EOS7_ = comdat any

$_ZNSt12_Vector_baseINSt7__cxx1112basic_stringIcSt11char_traitsIcESaIcEEESaIS5_EE12_Vector_implC2EOS8_ = comdat any

$_ZNSt12_Vector_baseINSt7__cxx1112basic_stringIcSt11char_traitsIcESaIcEEESaIS5_EE17_Vector_impl_dataC2EOS8_ = comdat any

$_ZNSt15__new_allocatorINSt7__cxx1112basic_stringIcSt11char_traitsIcESaIcEEEEC2ERKS6_ = comdat any

$_ZNSt11char_traitsIcE6lengthEPKc = comdat any

$_ZN5arrow6Status11DeleteStateEv = comdat any

$_ZN5arrow4util19ToStringOstreamableINS_6StatusEED2Ev = comdat any

$_ZN5arrow4util18EqualityComparableINS_6StatusEED2Ev = comdat any

$_ZN5arrow6Status5StateD2Ev = comdat any

$_ZNSt10shared_ptrIN5arrow12StatusDetailEED2Ev = comdat any

$_ZNSt12__shared_ptrIN5arrow12StatusDetailELN9__gnu_cxx12_Lock_policyE2EED2Ev = comdat any

$_ZNSt12__shared_ptrIN5arrow7compute8FunctionELN9__gnu_cxx12_Lock_policyE2EED2Ev = comdat any

$_ZN5arrow7compute5ArityC2Eib = comdat any

$_ZNSt6vectorINSt7__cxx1112basic_stringIcSt11char_traitsIcESaIcEEESaIS5_EEC2ERKS7_ = comdat any

$_ZNKSt6vectorINSt7__cxx1112basic_stringIcSt11char_traitsIcESaIcEEESaIS5_EE4sizeEv = comdat any

$_ZN9__gnu_cxx14__alloc_traitsISaINSt7__cxx1112basic_stringIcSt11char_traitsIcESaIcEEEES6_E17_S_select_on_copyERKS7_ = comdat any

$_ZNKSt12_Vector_baseINSt7__cxx1112basic_stringIcSt11char_traitsIcESaIcEEESaIS5_EE19_M_get_Tp_allocatorEv = comdat any

$_ZNSt12_Vector_baseINSt7__cxx1112basic_stringIcSt11char_traitsIcESaIcEEESaIS5_EEC2EmRKS6_ = comdat any

$_ZSt22__uninitialized_copy_aIN9__gnu_cxx17__normal_iteratorIPKNSt7__cxx1112basic_stringIcSt11char_traitsIcESaIcEEESt6vectorIS7_SaIS7_EEEEPS7_S7_ET0_T_SG_SF_RSaIT1_E = comdat any

$_ZNKSt6vectorINSt7__cxx1112basic_stringIcSt11char_traitsIcESaIcEEESaIS5_EE5beginEv = comdat any

$_ZNKSt6vectorINSt7__cxx1112basic_stringIcSt11char_traitsIcESaIcEEESaIS5_EE3endEv = comdat any

$_ZNSt12_Vector_baseINSt7__cxx1112basic_stringIcSt11char_traitsIcESaIcEEESaIS5_EE19_M_get_Tp_allocatorEv = comdat any

$_ZNSt12_Vector_baseINSt7__cxx1112basic_stringIcSt11char_traitsIcESaIcEEESaIS5_EED2Ev = comdat any

$_ZNSt16allocator_traitsISaINSt7__cxx1112basic_stringIcSt11char_traitsIcESaIcEEEEE37select_on_container_copy_constructionERKS6_ = comdat any

$_ZNSaINSt7__cxx1112basic_stringIcSt11char_traitsIcESaIcEEEEC2ERKS5_ = comdat any

$_ZNSt12_Vector_baseINSt7__cxx1112basic_stringIcSt11char_traitsIcESaIcEEESaIS5_EE12_Vector_implC2ERKS6_ = comdat any

$_ZNSt12_Vector_baseINSt7__cxx1112basic_stringIcSt11char_traitsIcESaIcEEESaIS5_EE17_M_create_storageEm = comdat any

$_ZNSt12_Vector_baseINSt7__cxx1112basic_stringIcSt11char_traitsIcESaIcEEESaIS5_EE12_Vector_implD2Ev = comdat any

$_ZNSt12_Vector_baseINSt7__cxx1112basic_stringIcSt11char_traitsIcESaIcEEESaIS5_EE17_Vector_impl_dataC2Ev = comdat any

$_ZNSt12_Vector_baseINSt7__cxx1112basic_stringIcSt11char_traitsIcESaIcEEESaIS5_EE11_M_allocateEm = comdat any

$_ZNSt16allocator_traitsISaINSt7__cxx1112basic_stringIcSt11char_traitsIcESaIcEEEEE8allocateERS6_m = comdat any

$_ZNSt15__new_allocatorINSt7__cxx1112basic_stringIcSt11char_traitsIcESaIcEEEE8allocateEmPKv = comdat any

$_ZNKSt15__new_allocatorINSt7__cxx1112basic_stringIcSt11char_traitsIcESaIcEEEE11_M_max_sizeEv = comdat any

$_ZNSt15__new_allocatorINSt7__cxx1112basic_stringIcSt11char_traitsIcESaIcEEEED2Ev = comdat any

$_ZSt18uninitialized_copyIN9__gnu_cxx17__normal_iteratorIPKNSt7__cxx1112basic_stringIcSt11char_traitsIcESaIcEEESt6vectorIS7_SaIS7_EEEEPS7_ET0_T_SG_SF_ = comdat any

$_ZNSt20__uninitialized_copyILb0EE13__uninit_copyIN9__gnu_cxx17__normal_iteratorIPKNSt7__cxx1112basic_stringIcSt11char_traitsIcESaIcEEESt6vectorIS9_SaIS9_EEEEPS9_EET0_T_SI_SH_ = comdat any

$_ZSt16__do_uninit_copyIN9__gnu_cxx17__normal_iteratorIPKNSt7__cxx1112basic_stringIcSt11char_traitsIcESaIcEEESt6vectorIS7_SaIS7_EEEEPS7_ET0_T_SG_SF_ = comdat any

$_ZN9__gnu_cxxneIPKNSt7__cxx1112basic_stringIcSt11char_traitsIcESaIcEEESt6vectorIS6_SaIS6_EEEEbRKNS_17__normal_iteratorIT_T0_EESH_ = comdat any

$_ZSt10_ConstructINSt7__cxx1112basic_stringIcSt11char_traitsIcESaIcEEEJRKS5_EEvPT_DpOT0_ = comdat any

$_ZNK9__gnu_cxx17__normal_iteratorIPKNSt7__cxx1112basic_stringIcSt11char_traitsIcESaIcEEESt6vectorIS6_SaIS6_EEEdeEv = comdat any

$_ZN9__gnu_cxx17__normal_iteratorIPKNSt7__cxx1112basic_stringIcSt11char_traitsIcESaIcEEESt6vectorIS6_SaIS6_EEEppEv = comdat any

$_ZSt8_DestroyIPNSt7__cxx1112basic_stringIcSt11char_traitsIcESaIcEEEEvT_S7_ = comdat any

$_ZNK9__gnu_cxx17__normal_iteratorIPKNSt7__cxx1112basic_stringIcSt11char_traitsIcESaIcEEESt6vectorIS6_SaIS6_EEE4baseEv = comdat any

$_ZNSt12_Destroy_auxILb0EE9__destroyIPNSt7__cxx1112basic_stringIcSt11char_traitsIcESaIcEEEEEvT_S9_ = comdat any

$_ZSt8_DestroyINSt7__cxx1112basic_stringIcSt11char_traitsIcESaIcEEEEvPT_ = comdat any

$_ZN9__gnu_cxx17__normal_iteratorIPKNSt7__cxx1112basic_stringIcSt11char_traitsIcESaIcEEESt6vectorIS6_SaIS6_EEEC2ERKS8_ = comdat any

$_ZNSt12_Vector_baseINSt7__cxx1112basic_stringIcSt11char_traitsIcESaIcEEESaIS5_EE13_M_deallocateEPS5_m = comdat any

$_ZNSt16allocator_traitsISaINSt7__cxx1112basic_stringIcSt11char_traitsIcESaIcEEEEE10deallocateERS6_PS5_m = comdat any

$_ZNSt15__new_allocatorINSt7__cxx1112basic_stringIcSt11char_traitsIcESaIcEEEE10deallocateEPS5_m = comdat any

$_ZN5arrow7compute11FunctionDocC2EOS1_ = comdat any

$_ZN5arrow7compute6detail12FunctionImplINS0_12ScalarKernelEEC2ENSt7__cxx1112basic_stringIcSt11char_traitsIcESaIcEEENS0_8Function4KindERKNS0_5ArityENS0_11FunctionDocEPKNS0_15FunctionOptionsE = comdat any

$_ZN5arrow7compute14ScalarFunctionD2Ev = comdat any

$_ZN5arrow7compute14ScalarFunctionD0Ev = comdat any

$_ZN5arrow7compute8FunctionC2ENSt7__cxx1112basic_stringIcSt11char_traitsIcESaIcEEENS1_4KindERKNS0_5ArityENS0_11FunctionDocEPKNS0_15FunctionOptionsE = comdat any

$_ZNSt6vectorIN5arrow7compute12ScalarKernelESaIS2_EEC2Ev = comdat any

$_ZN5arrow7compute6detail12FunctionImplINS0_12ScalarKernelEED2Ev = comdat any

$_ZN5arrow7compute6detail12FunctionImplINS0_12ScalarKernelEED0Ev = comdat any

$_ZNSt12_Vector_baseIN5arrow7compute12ScalarKernelESaIS2_EEC2Ev = comdat any

$_ZNSt12_Vector_baseIN5arrow7compute12ScalarKernelESaIS2_EE12_Vector_implC2Ev = comdat any

$_ZNSaIN5arrow7compute12ScalarKernelEEC2Ev = comdat any

$_ZNSt12_Vector_baseIN5arrow7compute12ScalarKernelESaIS2_EE17_Vector_impl_dataC2Ev = comdat any

$_ZNSt15__new_allocatorIN5arrow7compute12ScalarKernelEEC2Ev = comdat any

$_ZNSt6vectorIN5arrow7compute12ScalarKernelESaIS2_EED2Ev = comdat any

$_ZN5arrow7compute8FunctionD2Ev = comdat any

$_ZSt8_DestroyIPN5arrow7compute12ScalarKernelES2_EvT_S4_RSaIT0_E = comdat any

$_ZNSt12_Vector_baseIN5arrow7compute12ScalarKernelESaIS2_EE19_M_get_Tp_allocatorEv = comdat any

$_ZNSt12_Vector_baseIN5arrow7compute12ScalarKernelESaIS2_EED2Ev = comdat any

$_ZSt8_DestroyIPN5arrow7compute12ScalarKernelEEvT_S4_ = comdat any

$_ZNSt12_Destroy_auxILb0EE9__destroyIPN5arrow7compute12ScalarKernelEEEvT_S6_ = comdat any

$_ZSt8_DestroyIN5arrow7compute12ScalarKernelEEvPT_ = comdat any

$_ZNSt12_Vector_baseIN5arrow7compute12ScalarKernelESaIS2_EE13_M_deallocateEPS2_m = comdat any

$_ZNSt12_Vector_baseIN5arrow7compute12ScalarKernelESaIS2_EE12_Vector_implD2Ev = comdat any

$_ZNSt16allocator_traitsISaIN5arrow7compute12ScalarKernelEEE10deallocateERS3_PS2_m = comdat any

$_ZNSt15__new_allocatorIN5arrow7compute12ScalarKernelEE10deallocateEPS2_m = comdat any

$_ZNSaIN5arrow7compute12ScalarKernelEED2Ev = comdat any

$_ZNSt15__new_allocatorIN5arrow7compute12ScalarKernelEED2Ev = comdat any

$_ZNSt12_Vector_baseIN5arrow4Type4typeESaIS2_EEC2Ev = comdat any

$_ZNSt12_Vector_baseIN5arrow4Type4typeESaIS2_EE12_Vector_implC2Ev = comdat any

$_ZNSaIN5arrow4Type4typeEEC2Ev = comdat any

$_ZNSt12_Vector_baseIN5arrow4Type4typeESaIS2_EE17_Vector_impl_dataC2Ev = comdat any

$_ZNSt15__new_allocatorIN5arrow4Type4typeEEC2Ev = comdat any

$_ZN5arrow6StatusC2EOS0_ = comdat any

$_ZN5arrow7compute6KernelC2ERKS1_ = comdat any

$_ZNSt10shared_ptrIN5arrow7compute15KernelSignatureEEC2ERKS3_ = comdat any

$_ZNSt8functionIFN5arrow6ResultISt10unique_ptrINS0_7compute11KernelStateESt14default_deleteIS4_EEEEPNS3_13KernelContextERKNS3_14KernelInitArgsEEEC2ERKSF_ = comdat any

$_ZNSt10shared_ptrIN5arrow7compute11KernelStateEEC2ERKS3_ = comdat any

$_ZNSt12__shared_ptrIN5arrow7compute15KernelSignatureELN9__gnu_cxx12_Lock_policyE2EEC2ERKS5_ = comdat any

$_ZNSt14__shared_countILN9__gnu_cxx12_Lock_policyE2EEC2ERKS2_ = comdat any

$_ZNSt16_Sp_counted_baseILN9__gnu_cxx12_Lock_policyE2EE15_M_add_ref_copyEv = comdat any

$_ZNSt14_Function_baseC2Ev = comdat any

$_ZNKSt8functionIFN5arrow6ResultISt10unique_ptrINS0_7compute11KernelStateESt14default_deleteIS4_EEEEPNS3_13KernelContextERKNS3_14KernelInitArgsEEEcvbEv = comdat any

$_ZNSt14_Function_baseD2Ev = comdat any

$_ZNKSt14_Function_base8_M_emptyEv = comdat any

$_ZNSt12__shared_ptrIN5arrow7compute11KernelStateELN9__gnu_cxx12_Lock_policyE2EEC2ERKS5_ = comdat any

$_ZN5arrow7compute6KernelD2Ev = comdat any

$_ZNSt10shared_ptrIN5arrow7compute11KernelStateEED2Ev = comdat any

$_ZNSt8functionIFN5arrow6ResultISt10unique_ptrINS0_7compute11KernelStateESt14default_deleteIS4_EEEEPNS3_13KernelContextERKNS3_14KernelInitArgsEEED2Ev = comdat any

$_ZNSt12__shared_ptrIN5arrow7compute11KernelStateELN9__gnu_cxx12_Lock_policyE2EED2Ev = comdat any

$_ZN5arrow6StatusC2Ev = comdat any

$_ZN5arrow7compute6KernelC2Ev = comdat any

$_ZNSt10shared_ptrIN5arrow7compute15KernelSignatureEEC2Ev = comdat any

$_ZNSt8functionIFN5arrow6ResultISt10unique_ptrINS0_7compute11KernelStateESt14default_deleteIS4_EEEEPNS3_13KernelContextERKNS3_14KernelInitArgsEEEC2Ev = comdat any

$_ZNSt10shared_ptrIN5arrow7compute11KernelStateEEC2Ev = comdat any

$_ZNSt12__shared_ptrIN5arrow7compute15KernelSignatureELN9__gnu_cxx12_Lock_policyE2EEC2Ev = comdat any

$_ZNSt14__shared_countILN9__gnu_cxx12_Lock_policyE2EEC2Ev = comdat any

$_ZNSt12__shared_ptrIN5arrow7compute11KernelStateELN9__gnu_cxx12_Lock_policyE2EEC2Ev = comdat any

$_ZNSt12_Vector_baseIN5arrow7compute9InputTypeESaIS2_EEC2EOS4_ = comdat any

$_ZNSt12_Vector_baseIN5arrow7compute9InputTypeESaIS2_EE12_Vector_implC2EOS5_ = comdat any

$_ZNSaIN5arrow7compute9InputTypeEEC2ERKS2_ = comdat any

$_ZNSt12_Vector_baseIN5arrow7compute9InputTypeESaIS2_EE17_Vector_impl_dataC2EOS5_ = comdat any

$_ZNSt15__new_allocatorIN5arrow7compute9InputTypeEEC2ERKS3_ = comdat any

$_ZNSt10shared_ptrIN5arrow8DataTypeEEC2Ev = comdat any

$_ZNSt8functionIFN5arrow6ResultINS0_10TypeHolderEEEPNS0_7compute13KernelContextERKSt6vectorIS2_SaIS2_EEEEC2EDn = comdat any

$_ZNSt10shared_ptrIN5arrow8DataTypeEEaSEOS2_ = comdat any

$_ZNSt8functionIFN5arrow6ResultINS0_10TypeHolderEEEPNS0_7compute13KernelContextERKSt6vectorIS2_SaIS2_EEEEaSERKSD_ = comdat any

$_ZNSt8functionIFN5arrow6ResultINS0_10TypeHolderEEEPNS0_7compute13KernelContextERKSt6vectorIS2_SaIS2_EEEED2Ev = comdat any

$_ZNSt10shared_ptrIN5arrow8DataTypeEED2Ev = comdat any

$_ZNSt12__shared_ptrIN5arrow8DataTypeELN9__gnu_cxx12_Lock_policyE2EEC2Ev = comdat any

$_ZNSt12__shared_ptrIN5arrow8DataTypeELN9__gnu_cxx12_Lock_policyE2EEaSEOS4_ = comdat any

$_ZNSt12__shared_ptrIN5arrow8DataTypeELN9__gnu_cxx12_Lock_policyE2EEC2EOS4_ = comdat any

$_ZNSt12__shared_ptrIN5arrow8DataTypeELN9__gnu_cxx12_Lock_policyE2EE4swapERS4_ = comdat any

$_ZNSt12__shared_ptrIN5arrow8DataTypeELN9__gnu_cxx12_Lock_policyE2EED2Ev = comdat any

$_ZNSt14__shared_countILN9__gnu_cxx12_Lock_policyE2EE7_M_swapERS2_ = comdat any

$_ZSt4swapIPN5arrow8DataTypeEENSt9enable_ifIXsr6__and_ISt6__not_ISt15__is_tuple_likeIT_EESt21is_move_constructibleIS6_ESt18is_move_assignableIS6_EEE5valueEvE4typeERS6_SF_ = comdat any

$_ZNSt8functionIFN5arrow6ResultINS0_10TypeHolderEEEPNS0_7compute13KernelContextERKSt6vectorIS2_SaIS2_EEEEC2ERKSD_ = comdat any

$_ZNSt8functionIFN5arrow6ResultINS0_10TypeHolderEEEPNS0_7compute13KernelContextERKSt6vectorIS2_SaIS2_EEEE4swapERSD_ = comdat any

$_ZNKSt8functionIFN5arrow6ResultINS0_10TypeHolderEEEPNS0_7compute13KernelContextERKSt6vectorIS2_SaIS2_EEEEcvbEv = comdat any

$_ZSt4swapISt9_Any_dataENSt9enable_ifIXsr6__and_ISt6__not_ISt15__is_tuple_likeIT_EESt21is_move_constructibleIS4_ESt18is_move_assignableIS4_EEE5valueEvE4typeERS4_SD_ = comdat any

$_ZSt4swapIPFbRSt9_Any_dataRKS0_St18_Manager_operationEENSt9enable_ifIXsr6__and_ISt6__not_ISt15__is_tuple_likeIT_EESt21is_move_constructibleISA_ESt18is_move_assignableISA_EEE5valueEvE4typeERSA_SJ_ = comdat any

$_ZSt4swapIPFN5arrow6ResultINS0_10TypeHolderEEERKSt9_Any_dataOPNS0_7compute13KernelContextERKSt6vectorIS2_SaIS2_EEEENSt9enable_ifIXsr6__and_ISt6__not_ISt15__is_tuple_likeIT_EESt21is_move_constructibleISL_ESt18is_move_assignableISL_EEE5valueEvE4typeERSL_SU_ = comdat any

$_ZN5arrow7compute6KernelC2EOS1_ = comdat any

$_ZNSt10shared_ptrIN5arrow7compute15KernelSignatureEEC2EOS3_ = comdat any

$_ZNSt8functionIFN5arrow6ResultISt10unique_ptrINS0_7compute11KernelStateESt14default_deleteIS4_EEEEPNS3_13KernelContextERKNS3_14KernelInitArgsEEEC2EOSF_ = comdat any

$_ZNSt10shared_ptrIN5arrow7compute11KernelStateEEC2EOS3_ = comdat any

$_ZNSt12__shared_ptrIN5arrow7compute11KernelStateELN9__gnu_cxx12_Lock_policyE2EEC2EOS5_ = comdat any

$_ZNSt12_Vector_baseIPKN5arrow7compute12ScalarKernelESaIS4_EEC2Ev = comdat any

$_ZNSt12_Vector_baseIPKN5arrow7compute12ScalarKernelESaIS4_EE12_Vector_implC2Ev = comdat any

$_ZNSaIPKN5arrow7compute12ScalarKernelEEC2Ev = comdat any

$_ZNSt12_Vector_baseIPKN5arrow7compute12ScalarKernelESaIS4_EE17_Vector_impl_dataC2Ev = comdat any

$_ZNSt15__new_allocatorIPKN5arrow7compute12ScalarKernelEEC2Ev = comdat any

$_ZSt9call_onceIRFvvEJEEvRSt9once_flagOT_DpOT0_ = comdat any

$_ZNSt9once_flag18_Prepare_executionC2IZSt9call_onceIRFvvEJEEvRS_OT_DpOT0_EUlvE_EERS6_ = comdat any

$_ZNSt9once_flag18_Prepare_executionD2Ev = comdat any

$_ZZNSt9once_flag18_Prepare_executionC1IZSt9call_onceIRFvvEJEEvRS_OT_DpOT0_EUlvE_EERS6_ENKUlvE_cvPS3_Ev = comdat any

$_ZZNSt9once_flag18_Prepare_executionC1IZSt9call_onceIRFvvEJEEvRS_OT_DpOT0_EUlvE_EERS6_ENUlvE_8__invokeEv = comdat any

$_ZZNSt9once_flag18_Prepare_executionC1IZSt9call_onceIRFvvEJEEvRS_OT_DpOT0_EUlvE_EERS6_ENKUlvE_clEv = comdat any

$_ZZSt9call_onceIRFvvEJEEvRSt9once_flagOT_DpOT0_ENKUlvE_clEv = comdat any

$_ZSt8__invokeIRFvvEJEENSt15__invoke_resultIT_JDpT0_EE4typeEOS3_DpOS4_ = comdat any

$_ZSt13__invoke_implIvRFvvEJEET_St14__invoke_otherOT0_DpOT1_ = comdat any

$_ZNSt6vectorISt10shared_ptrIN5arrow7compute8internal12CastFunctionEESaIS5_EED2Ev = comdat any

$_ZNKSt6vectorISt10shared_ptrIN5arrow7compute8internal12CastFunctionEESaIS5_EE5beginEv = comdat any

$_ZNKSt6vectorISt10shared_ptrIN5arrow7compute8internal12CastFunctionEESaIS5_EE3endEv = comdat any

$_ZN9__gnu_cxxneIPKSt10shared_ptrIN5arrow7compute8internal12CastFunctionEESt6vectorIS6_SaIS6_EEEEbRKNS_17__normal_iteratorIT_T0_EESH_ = comdat any

$_ZNK9__gnu_cxx17__normal_iteratorIPKSt10shared_ptrIN5arrow7compute8internal12CastFunctionEESt6vectorIS6_SaIS6_EEEdeEv = comdat any

$_ZNSt13unordered_mapIiSt10shared_ptrIN5arrow7compute8internal12CastFunctionEESt4hashIiESt8equal_toIiESaISt4pairIKiS5_EEEixEOi = comdat any

$_ZNKSt19__shared_ptr_accessIN5arrow7compute8internal12CastFunctionELN9__gnu_cxx12_Lock_policyE2ELb0ELb0EEptEv = comdat any

$_ZNSt10shared_ptrIN5arrow7compute8internal12CastFunctionEEaSERKS4_ = comdat any

$_ZN9__gnu_cxx17__normal_iteratorIPKSt10shared_ptrIN5arrow7compute8internal12CastFunctionEESt6vectorIS6_SaIS6_EEEppEv = comdat any

$_ZN9__gnu_cxx17__normal_iteratorIPKSt10shared_ptrIN5arrow7compute8internal12CastFunctionEESt6vectorIS6_SaIS6_EEEC2ERKS8_ = comdat any

$_ZNK9__gnu_cxx17__normal_iteratorIPKSt10shared_ptrIN5arrow7compute8internal12CastFunctionEESt6vectorIS6_SaIS6_EEE4baseEv = comdat any

$_ZNSt8__detail9_Map_baseIiSt4pairIKiSt10shared_ptrIN5arrow7compute8internal12CastFunctionEEESaIS9_ENS_10_Select1stESt8equal_toIiESt4hashIiENS_18_Mod_range_hashingENS_20_Default_ranged_hashENS_20_Prime_rehash_policyENS_17_Hashtable_traitsILb0ELb0ELb1EEELb1EEixEOi = comdat any

$_ZNKSt8__detail15_Hash_code_baseIiSt4pairIKiSt10shared_ptrIN5arrow7compute8internal12CastFunctionEEENS_10_Select1stESt4hashIiENS_18_Mod_range_hashingENS_20_Default_ranged_hashELb0EE12_M_hash_codeERS2_ = comdat any

$_ZNKSt10_HashtableIiSt4pairIKiSt10shared_ptrIN5arrow7compute8internal12CastFunctionEEESaIS8_ENSt8__detail10_Select1stESt8equal_toIiESt4hashIiENSA_18_Mod_range_hashingENSA_20_Default_ranged_hashENSA_20_Prime_rehash_policyENSA_17_Hashtable_traitsILb0ELb0ELb1EEEE15_M_bucket_indexEm = comdat any

$_ZNKSt10_HashtableIiSt4pairIKiSt10shared_ptrIN5arrow7compute8internal12CastFunctionEEESaIS8_ENSt8__detail10_Select1stESt8equal_toIiESt4hashIiENSA_18_Mod_range_hashingENSA_20_Default_ranged_hashENSA_20_Prime_rehash_policyENSA_17_Hashtable_traitsILb0ELb0ELb1EEEE12_M_find_nodeEmRS1_m = comdat any

$_ZNSt8__detail21_Hash_node_value_baseISt4pairIKiSt10shared_ptrIN5arrow7compute8internal12CastFunctionEEEE4_M_vEv = comdat any

$_ZSt16forward_as_tupleIJiEESt5tupleIJDpOT_EES3_ = comdat any

$_ZNSt10_HashtableIiSt4pairIKiSt10shared_ptrIN5arrow7compute8internal12CastFunctionEEESaIS8_ENSt8__detail10_Select1stESt8equal_toIiESt4hashIiENSA_18_Mod_range_hashingENSA_20_Default_ranged_hashENSA_20_Prime_rehash_policyENSA_17_Hashtable_traitsILb0ELb0ELb1EEEE12_Scoped_nodeC2IJRKSt21piecewise_construct_tSt5tupleIJOiEESR_IJEEEEEPNSA_16_Hashtable_allocISaINSA_10_Hash_nodeIS8_Lb0EEEEEEDpOT_ = comdat any

$_ZNSt10_HashtableIiSt4pairIKiSt10shared_ptrIN5arrow7compute8internal12CastFunctionEEESaIS8_ENSt8__detail10_Select1stESt8equal_toIiESt4hashIiENSA_18_Mod_range_hashingENSA_20_Default_ranged_hashENSA_20_Prime_rehash_policyENSA_17_Hashtable_traitsILb0ELb0ELb1EEEE21_M_insert_unique_nodeEmmPNSA_10_Hash_nodeIS8_Lb0EEEm = comdat any

$_ZNSt10_HashtableIiSt4pairIKiSt10shared_ptrIN5arrow7compute8internal12CastFunctionEEESaIS8_ENSt8__detail10_Select1stESt8equal_toIiESt4hashIiENSA_18_Mod_range_hashingENSA_20_Default_ranged_hashENSA_20_Prime_rehash_policyENSA_17_Hashtable_traitsILb0ELb0ELb1EEEE12_Scoped_nodeD2Ev = comdat any

$_ZNKSt8__detail15_Hash_code_baseIiSt4pairIKiSt10shared_ptrIN5arrow7compute8internal12CastFunctionEEENS_10_Select1stESt4hashIiENS_18_Mod_range_hashingENS_20_Default_ranged_hashELb0EE7_M_hashEv = comdat any

$_ZNKSt4hashIiEclEi = comdat any

$_ZNKSt8__detail21_Hashtable_ebo_helperILi1ESt4hashIiELb1EE7_M_cgetEv = comdat any

$_ZNKSt8__detail15_Hash_code_baseIiSt4pairIKiSt10shared_ptrIN5arrow7compute8internal12CastFunctionEEENS_10_Select1stESt4hashIiENS_18_Mod_range_hashingENS_20_Default_ranged_hashELb0EE15_M_bucket_indexEmm = comdat any

$_ZNKSt8__detail18_Mod_range_hashingclEmm = comdat any

$_ZNKSt10_HashtableIiSt4pairIKiSt10shared_ptrIN5arrow7compute8internal12CastFunctionEEESaIS8_ENSt8__detail10_Select1stESt8equal_toIiESt4hashIiENSA_18_Mod_range_hashingENSA_20_Default_ranged_hashENSA_20_Prime_rehash_policyENSA_17_Hashtable_traitsILb0ELb0ELb1EEEE19_M_find_before_nodeEmRS1_m = comdat any

$_ZNKSt8__detail15_Hashtable_baseIiSt4pairIKiSt10shared_ptrIN5arrow7compute8internal12CastFunctionEEENS_10_Select1stESt8equal_toIiESt4hashIiENS_18_Mod_range_hashingENS_20_Default_ranged_hashENS_17_Hashtable_traitsILb0ELb0ELb1EEEE9_M_equalsERS2_mRKNS_16_Hash_node_valueIS9_Lb0EEE = comdat any

$_ZNKSt10_HashtableIiSt4pairIKiSt10shared_ptrIN5arrow7compute8internal12CastFunctionEEESaIS8_ENSt8__detail10_Select1stESt8equal_toIiESt4hashIiENSA_18_Mod_range_hashingENSA_20_Default_ranged_hashENSA_20_Prime_rehash_policyENSA_17_Hashtable_traitsILb0ELb0ELb1EEEE15_M_bucket_indexERKNSA_16_Hash_node_valueIS8_Lb0EEE = comdat any

$_ZNSt8__detail15_Hashtable_baseIiSt4pairIKiSt10shared_ptrIN5arrow7compute8internal12CastFunctionEEENS_10_Select1stESt8equal_toIiESt4hashIiENS_18_Mod_range_hashingENS_20_Default_ranged_hashENS_17_Hashtable_traitsILb0ELb0ELb1EEEE9_S_equalsEmRKNS_21_Hash_node_code_cacheILb0EEE = comdat any

$_ZNKSt8__detail15_Hashtable_baseIiSt4pairIKiSt10shared_ptrIN5arrow7compute8internal12CastFunctionEEENS_10_Select1stESt8equal_toIiESt4hashIiENS_18_Mod_range_hashingENS_20_Default_ranged_hashENS_17_Hashtable_traitsILb0ELb0ELb1EEEE13_M_key_equalsERS2_RKNS_16_Hash_node_valueIS9_Lb0EEE = comdat any

$_ZNKSt8__detail15_Hashtable_baseIiSt4pairIKiSt10shared_ptrIN5arrow7compute8internal12CastFunctionEEENS_10_Select1stESt8equal_toIiESt4hashIiENS_18_Mod_range_hashingENS_20_Default_ranged_hashENS_17_Hashtable_traitsILb0ELb0ELb1EEEE5_M_eqEv = comdat any

$_ZNKSt8equal_toIiEclERKiS2_ = comdat any

$_ZNKSt8__detail10_Select1stclIRKSt4pairIKiSt10shared_ptrIN5arrow7compute8internal12CastFunctionEEEEEONS0_10__1st_typeIT_E4typeEOSE_ = comdat any

$_ZNKSt8__detail21_Hash_node_value_baseISt4pairIKiSt10shared_ptrIN5arrow7compute8internal12CastFunctionEEEE4_M_vEv = comdat any

$_ZNKSt8__detail21_Hashtable_ebo_helperILi0ESt8equal_toIiELb1EE7_M_cgetEv = comdat any

$_ZNKSt8__detail21_Hash_node_value_baseISt4pairIKiSt10shared_ptrIN5arrow7compute8internal12CastFunctionEEEE9_M_valptrEv = comdat any

$_ZNK9__gnu_cxx16__aligned_bufferISt4pairIKiSt10shared_ptrIN5arrow7compute8internal12CastFunctionEEEE6_M_ptrEv = comdat any

$_ZNK9__gnu_cxx16__aligned_bufferISt4pairIKiSt10shared_ptrIN5arrow7compute8internal12CastFunctionEEEE7_M_addrEv = comdat any

$_ZNKSt8__detail15_Hash_code_baseIiSt4pairIKiSt10shared_ptrIN5arrow7compute8internal12CastFunctionEEENS_10_Select1stESt4hashIiENS_18_Mod_range_hashingENS_20_Default_ranged_hashELb0EE15_M_bucket_indexERKNS_16_Hash_node_valueIS9_Lb0EEEm = comdat any

$_ZNSt5tupleIJOiEEC2IJiELb1ETnNSt9enable_ifIXclsr4_TCCIXT0_EEE29__is_implicitly_constructibleIDpT_EEEbE4typeELb1EEEDpOS4_ = comdat any

$_ZNSt11_Tuple_implILm0EJOiEEC2IiEEOT_ = comdat any

$_ZNSt10_Head_baseILm0EOiLb0EEC2IiEEOT_ = comdat any

$_ZNSt8__detail16_Hashtable_allocISaINS_10_Hash_nodeISt4pairIKiSt10shared_ptrIN5arrow7compute8internal12CastFunctionEEELb0EEEEE16_M_allocate_nodeIJRKSt21piecewise_construct_tSt5tupleIJOiEESI_IJEEEEEPSB_DpOT_ = comdat any

$_ZNSt16allocator_traitsISaINSt8__detail10_Hash_nodeISt4pairIKiSt10shared_ptrIN5arrow7compute8internal12CastFunctionEEELb0EEEEE8allocateERSC_m = comdat any

$_ZSt12__to_addressINSt8__detail10_Hash_nodeISt4pairIKiSt10shared_ptrIN5arrow7compute8internal12CastFunctionEEELb0EEEEPT_SD_ = comdat any

$_ZNSt8__detail10_Hash_nodeISt4pairIKiSt10shared_ptrIN5arrow7compute8internal12CastFunctionEEELb0EEC2Ev = comdat any

$_ZNSt16allocator_traitsISaINSt8__detail10_Hash_nodeISt4pairIKiSt10shared_ptrIN5arrow7compute8internal12CastFunctionEEELb0EEEEE9constructISA_JRKSt21piecewise_construct_tSt5tupleIJOiEESI_IJEEEEEvRSC_PT_DpOT0_ = comdat any

$_ZNSt15__new_allocatorINSt8__detail10_Hash_nodeISt4pairIKiSt10shared_ptrIN5arrow7compute8internal12CastFunctionEEELb0EEEE8allocateEmPKv = comdat any

$_ZNKSt15__new_allocatorINSt8__detail10_Hash_nodeISt4pairIKiSt10shared_ptrIN5arrow7compute8internal12CastFunctionEEELb0EEEE11_M_max_sizeEv = comdat any

$_ZNSt15__new_allocatorINSt8__detail10_Hash_nodeISt4pairIKiSt10shared_ptrIN5arrow7compute8internal12CastFunctionEEELb0EEEE9constructISA_JRKSt21piecewise_construct_tSt5tupleIJOiEESH_IJEEEEEvPT_DpOT0_ = comdat any

$_ZNSt5tupleIJOiEEC2EOS1_ = comdat any

$_ZNSt4pairIKiSt10shared_ptrIN5arrow7compute8internal12CastFunctionEEEC2IJOiEJEEESt21piecewise_construct_tSt5tupleIJDpT_EESB_IJDpT0_EE = comdat any

$_ZNSt11_Tuple_implILm0EJOiEEC2EOS1_ = comdat any

$_ZNSt4pairIKiSt10shared_ptrIN5arrow7compute8internal12CastFunctionEEEC2IJOiEJLm0EEJETpTnmJEEERSt5tupleIJDpT_EERSA_IJDpT1_EESt12_Index_tupleIJXspT0_EEESJ_IJXspT2_EEE = comdat any

$_ZSt3getILm0EJOiEERNSt13tuple_elementIXT_ESt5tupleIJDpT0_EEE4typeERS5_ = comdat any

$_ZNSt10shared_ptrIN5arrow7compute8internal12CastFunctionEEC2Ev = comdat any

$_ZSt12__get_helperILm0EOiJEERT0_RSt11_Tuple_implIXT_EJS1_DpT1_EE = comdat any

$_ZNSt11_Tuple_implILm0EJOiEE7_M_headERS1_ = comdat any

$_ZNSt10_Head_baseILm0EOiLb0EE7_M_headERS1_ = comdat any

$_ZNSt12__shared_ptrIN5arrow7compute8internal12CastFunctionELN9__gnu_cxx12_Lock_policyE2EEC2Ev = comdat any

$_ZNKSt8__detail20_Prime_rehash_policy8_M_stateEv = comdat any

$_ZNSt10_HashtableIiSt4pairIKiSt10shared_ptrIN5arrow7compute8internal12CastFunctionEEESaIS8_ENSt8__detail10_Select1stESt8equal_toIiESt4hashIiENSA_18_Mod_range_hashingENSA_20_Default_ranged_hashENSA_20_Prime_rehash_policyENSA_17_Hashtable_traitsILb0ELb0ELb1EEEE9_M_rehashEmRKm = comdat any

$_ZNKSt8__detail15_Hash_code_baseIiSt4pairIKiSt10shared_ptrIN5arrow7compute8internal12CastFunctionEEENS_10_Select1stESt4hashIiENS_18_Mod_range_hashingENS_20_Default_ranged_hashELb0EE13_M_store_codeERNS_21_Hash_node_code_cacheILb0EEEm = comdat any

$_ZNSt10_HashtableIiSt4pairIKiSt10shared_ptrIN5arrow7compute8internal12CastFunctionEEESaIS8_ENSt8__detail10_Select1stESt8equal_toIiESt4hashIiENSA_18_Mod_range_hashingENSA_20_Default_ranged_hashENSA_20_Prime_rehash_policyENSA_17_Hashtable_traitsILb0ELb0ELb1EEEE22_M_insert_bucket_beginEmPNSA_10_Hash_nodeIS8_Lb0EEE = comdat any

$_ZNSt8__detail14_Node_iteratorISt4pairIKiSt10shared_ptrIN5arrow7compute8internal12CastFunctionEEELb0ELb0EEC2EPNS_10_Hash_nodeIS9_Lb0EEE = comdat any

$_ZNSt10_HashtableIiSt4pairIKiSt10shared_ptrIN5arrow7compute8internal12CastFunctionEEESaIS8_ENSt8__detail10_Select1stESt8equal_toIiESt4hashIiENSA_18_Mod_range_hashingENSA_20_Default_ranged_hashENSA_20_Prime_rehash_policyENSA_17_Hashtable_traitsILb0ELb0ELb1EEEE13_M_rehash_auxEmSt17integral_constantIbLb1EE = comdat any

$_ZNSt8__detail20_Prime_rehash_policy8_M_resetEm = comdat any

$_ZNSt10_HashtableIiSt4pairIKiSt10shared_ptrIN5arrow7compute8internal12CastFunctionEEESaIS8_ENSt8__detail10_Select1stESt8equal_toIiESt4hashIiENSA_18_Mod_range_hashingENSA_20_Default_ranged_hashENSA_20_Prime_rehash_policyENSA_17_Hashtable_traitsILb0ELb0ELb1EEEE19_M_allocate_bucketsEm = comdat any

$_ZNSt8__detail16_Hashtable_allocISaINS_10_Hash_nodeISt4pairIKiSt10shared_ptrIN5arrow7compute8internal12CastFunctionEEELb0EEEEE19_M_allocate_bucketsEm = comdat any

$_ZNSt16allocator_traitsISaIPNSt8__detail15_Hash_node_baseEEE8allocateERS3_m = comdat any

$_ZSt12__to_addressIPNSt8__detail15_Hash_node_baseEEPT_S4_ = comdat any

$_ZNSt15__new_allocatorIPNSt8__detail15_Hash_node_baseEE8allocateEmPKv = comdat any

$_ZNKSt15__new_allocatorIPNSt8__detail15_Hash_node_baseEE11_M_max_sizeEv = comdat any

$_ZNSt8__detail19_Node_iterator_baseISt4pairIKiSt10shared_ptrIN5arrow7compute8internal12CastFunctionEEELb0EEC2EPNS_10_Hash_nodeIS9_Lb0EEE = comdat any

$_ZNKSt19__shared_ptr_accessIN5arrow7compute8internal12CastFunctionELN9__gnu_cxx12_Lock_policyE2ELb0ELb0EE6_M_getEv = comdat any

$_ZNSt12__shared_ptrIN5arrow7compute8internal12CastFunctionELN9__gnu_cxx12_Lock_policyE2EEaSERKS6_ = comdat any

$_ZNSt14__shared_countILN9__gnu_cxx12_Lock_policyE2EEaSERKS2_ = comdat any

$_ZSt8_DestroyIPSt10shared_ptrIN5arrow7compute8internal12CastFunctionEES5_EvT_S7_RSaIT0_E = comdat any

$_ZNSt12_Vector_baseISt10shared_ptrIN5arrow7compute8internal12CastFunctionEESaIS5_EE19_M_get_Tp_allocatorEv = comdat any

$_ZNSt12_Vector_baseISt10shared_ptrIN5arrow7compute8internal12CastFunctionEESaIS5_EED2Ev = comdat any

$_ZSt8_DestroyIPSt10shared_ptrIN5arrow7compute8internal12CastFunctionEEEvT_S7_ = comdat any

$_ZNSt12_Destroy_auxILb0EE9__destroyIPSt10shared_ptrIN5arrow7compute8internal12CastFunctionEEEEvT_S9_ = comdat any

$_ZSt8_DestroyISt10shared_ptrIN5arrow7compute8internal12CastFunctionEEEvPT_ = comdat any

$_ZNSt12_Vector_baseISt10shared_ptrIN5arrow7compute8internal12CastFunctionEESaIS5_EE13_M_deallocateEPS5_m = comdat any

$_ZNSt12_Vector_baseISt10shared_ptrIN5arrow7compute8internal12CastFunctionEESaIS5_EE12_Vector_implD2Ev = comdat any

$_ZNSt16allocator_traitsISaISt10shared_ptrIN5arrow7compute8internal12CastFunctionEEEE10deallocateERS6_PS5_m = comdat any

$_ZNSt15__new_allocatorISt10shared_ptrIN5arrow7compute8internal12CastFunctionEEE10deallocateEPS5_m = comdat any

$_ZNSaISt10shared_ptrIN5arrow7compute8internal12CastFunctionEEED2Ev = comdat any

$_ZNSt15__new_allocatorISt10shared_ptrIN5arrow7compute8internal12CastFunctionEEED2Ev = comdat any

$_ZN5arrow7compute15FunctionOptionsD2Ev = comdat any

$_ZN5arrow7compute15FunctionOptionsD0Ev = comdat any

$_ZN5arrow4util18EqualityComparableINS_7compute15FunctionOptionsEED2Ev = comdat any

$_ZNSt7variantIJN5arrow5Datum5EmptyESt10shared_ptrINS0_6ScalarEES3_INS0_9ArrayDataEES3_INS0_12ChunkedArrayEES3_INS0_11RecordBatchEES3_INS0_5TableEEEEC2ERKSE_ = comdat any

$_ZNSt8__detail9__variant13_Variant_baseIJN5arrow5Datum5EmptyESt10shared_ptrINS2_6ScalarEES5_INS2_9ArrayDataEES5_INS2_12ChunkedArrayEES5_INS2_11RecordBatchEES5_INS2_5TableEEEEC2ERKSG_ = comdat any

$_ZNSt8__detail9__variant17_Move_assign_baseILb0EJN5arrow5Datum5EmptyESt10shared_ptrINS2_6ScalarEES5_INS2_9ArrayDataEES5_INS2_12ChunkedArrayEES5_INS2_11RecordBatchEES5_INS2_5TableEEEEC2ERKSG_ = comdat any

$_ZNSt8__detail9__variant17_Copy_assign_baseILb0EJN5arrow5Datum5EmptyESt10shared_ptrINS2_6ScalarEES5_INS2_9ArrayDataEES5_INS2_12ChunkedArrayEES5_INS2_11RecordBatchEES5_INS2_5TableEEEEC2ERKSG_ = comdat any

$_ZNSt8__detail9__variant15_Move_ctor_baseILb0EJN5arrow5Datum5EmptyESt10shared_ptrINS2_6ScalarEES5_INS2_9ArrayDataEES5_INS2_12ChunkedArrayEES5_INS2_11RecordBatchEES5_INS2_5TableEEEEC2ERKSG_ = comdat any

$_ZNSt8__detail9__variant15_Copy_ctor_baseILb0EJN5arrow5Datum5EmptyESt10shared_ptrINS2_6ScalarEES5_INS2_9ArrayDataEES5_INS2_12ChunkedArrayEES5_INS2_11RecordBatchEES5_INS2_5TableEEEEC2ERKSG_ = comdat any

$_ZNSt8__detail9__variant16_Variant_storageILb0EJN5arrow5Datum5EmptyESt10shared_ptrINS2_6ScalarEES5_INS2_9ArrayDataEES5_INS2_12ChunkedArrayEES5_INS2_11RecordBatchEES5_INS2_5TableEEEEC2Ev = comdat any

$_ZNSt8__detail9__variant15__raw_idx_visitIZNS0_15_Copy_ctor_baseILb0EJN5arrow5Datum5EmptyESt10shared_ptrINS3_6ScalarEES6_INS3_9ArrayDataEES6_INS3_12ChunkedArrayEES6_INS3_11RecordBatchEES6_INS3_5TableEEEEC1ERKSH_EUlOT_T0_E_JRKSt7variantIJS5_S8_SA_SC_SE_SG_EEEEEvSL_DpOT0_ = comdat any

$_ZSt14__variant_castIJN5arrow5Datum5EmptyESt10shared_ptrINS0_6ScalarEES3_INS0_9ArrayDataEES3_INS0_12ChunkedArrayEES3_INS0_11RecordBatchEES3_INS0_5TableEEERKNSt8__detail9__variant15_Copy_ctor_baseILb0EJS2_S5_S7_S9_SB_SD_EEEEDcOT0_ = comdat any

$_ZNSt8__detail9__variant16_Variant_storageILb0EJN5arrow5Datum5EmptyESt10shared_ptrINS2_6ScalarEES5_INS2_9ArrayDataEES5_INS2_12ChunkedArrayEES5_INS2_11RecordBatchEES5_INS2_5TableEEEED2Ev = comdat any

$_ZNSt8__detail9__variant15_Variadic_unionIJN5arrow5Datum5EmptyESt10shared_ptrINS2_6ScalarEES5_INS2_9ArrayDataEES5_INS2_12ChunkedArrayEES5_INS2_11RecordBatchEES5_INS2_5TableEEEEC2Ev = comdat any

$_ZNSt8__detail9__variant15_Variadic_unionIJSt10shared_ptrIN5arrow6ScalarEES2_INS3_9ArrayDataEES2_INS3_12ChunkedArrayEES2_INS3_11RecordBatchEES2_INS3_5TableEEEEC2Ev = comdat any

$_ZNSt8__detail9__variant15_Variadic_unionIJSt10shared_ptrIN5arrow9ArrayDataEES2_INS3_12ChunkedArrayEES2_INS3_11RecordBatchEES2_INS3_5TableEEEEC2Ev = comdat any

$_ZNSt8__detail9__variant15_Variadic_unionIJSt10shared_ptrIN5arrow12ChunkedArrayEES2_INS3_11RecordBatchEES2_INS3_5TableEEEEC2Ev = comdat any

$_ZNSt8__detail9__variant15_Variadic_unionIJSt10shared_ptrIN5arrow11RecordBatchEES2_INS3_5TableEEEEC2Ev = comdat any

$_ZNSt8__detail9__variant15_Variadic_unionIJSt10shared_ptrIN5arrow5TableEEEEC2Ev = comdat any

$_ZSt10__do_visitINSt8__detail9__variant20__variant_idx_cookieEZNS1_15_Copy_ctor_baseILb0EJN5arrow5Datum5EmptyESt10shared_ptrINS4_6ScalarEES7_INS4_9ArrayDataEES7_INS4_12ChunkedArrayEES7_INS4_11RecordBatchEES7_INS4_5TableEEEEC1ERKSI_EUlOT_T0_E_JRKSt7variantIJS6_S9_SB_SD_SF_SH_EEEEDcOSN_DpOT1_ = comdat any

$_ZZSt10__do_visitINSt8__detail9__variant20__variant_idx_cookieEZNS1_15_Copy_ctor_baseILb0EJN5arrow5Datum5EmptyESt10shared_ptrINS4_6ScalarEES7_INS4_9ArrayDataEES7_INS4_12ChunkedArrayEES7_INS4_11RecordBatchEES7_INS4_5TableEEEEC1ERKSI_EUlOT_T0_E_JRKSt7variantIJS6_S9_SB_SD_SF_SH_EEEEDcOSN_DpOT1_ENKUlSS_zE_clESS_z = comdat any

$_ZNKSt7variantIJN5arrow5Datum5EmptyESt10shared_ptrINS0_6ScalarEES3_INS0_9ArrayDataEES3_INS0_12ChunkedArrayEES3_INS0_11RecordBatchEES3_INS0_5TableEEEE5indexEv = comdat any

$_ZNSt8__detail9__variant17__gen_vtable_implINS0_12_Multi_arrayIPFNS0_20__variant_idx_cookieEOZNS0_15_Copy_ctor_baseILb0EJN5arrow5Datum5EmptyESt10shared_ptrINS5_6ScalarEES8_INS5_9ArrayDataEES8_INS5_12ChunkedArrayEES8_INS5_11RecordBatchEES8_INS5_5TableEEEEC1ERKSJ_EUlOT_T0_E_RKSt7variantIJS7_SA_SC_SE_SG_SI_EEEJEEESt16integer_sequenceImJLm0EEEE14__visit_invokeESQ_SU_ = comdat any

$_ZNSt8__detail9__variant17__gen_vtable_implINS0_12_Multi_arrayIPFNS0_20__variant_idx_cookieEOZNS0_15_Copy_ctor_baseILb0EJN5arrow5Datum5EmptyESt10shared_ptrINS5_6ScalarEES8_INS5_9ArrayDataEES8_INS5_12ChunkedArrayEES8_INS5_11RecordBatchEES8_INS5_5TableEEEEC1ERKSJ_EUlOT_T0_E_RKSt7variantIJS7_SA_SC_SE_SG_SI_EEEJEEESt16integer_sequenceImJLm1EEEE14__visit_invokeESQ_SU_ = comdat any

$_ZNSt8__detail9__variant17__gen_vtable_implINS0_12_Multi_arrayIPFNS0_20__variant_idx_cookieEOZNS0_15_Copy_ctor_baseILb0EJN5arrow5Datum5EmptyESt10shared_ptrINS5_6ScalarEES8_INS5_9ArrayDataEES8_INS5_12ChunkedArrayEES8_INS5_11RecordBatchEES8_INS5_5TableEEEEC1ERKSJ_EUlOT_T0_E_RKSt7variantIJS7_SA_SC_SE_SG_SI_EEEJEEESt16integer_sequenceImJLm2EEEE14__visit_invokeESQ_SU_ = comdat any

$_ZNSt8__detail9__variant17__gen_vtable_implINS0_12_Multi_arrayIPFNS0_20__variant_idx_cookieEOZNS0_15_Copy_ctor_baseILb0EJN5arrow5Datum5EmptyESt10shared_ptrINS5_6ScalarEES8_INS5_9ArrayDataEES8_INS5_12ChunkedArrayEES8_INS5_11RecordBatchEES8_INS5_5TableEEEEC1ERKSJ_EUlOT_T0_E_RKSt7variantIJS7_SA_SC_SE_SG_SI_EEEJEEESt16integer_sequenceImJLm3EEEE14__visit_invokeESQ_SU_ = comdat any

$_ZNSt8__detail9__variant17__gen_vtable_implINS0_12_Multi_arrayIPFNS0_20__variant_idx_cookieEOZNS0_15_Copy_ctor_baseILb0EJN5arrow5Datum5EmptyESt10shared_ptrINS5_6ScalarEES8_INS5_9ArrayDataEES8_INS5_12ChunkedArrayEES8_INS5_11RecordBatchEES8_INS5_5TableEEEEC1ERKSJ_EUlOT_T0_E_RKSt7variantIJS7_SA_SC_SE_SG_SI_EEEJEEESt16integer_sequenceImJLm4EEEE14__visit_invokeESQ_SU_ = comdat any

$_ZNSt8__detail9__variant17__gen_vtable_implINS0_12_Multi_arrayIPFNS0_20__variant_idx_cookieEOZNS0_15_Copy_ctor_baseILb0EJN5arrow5Datum5EmptyESt10shared_ptrINS5_6ScalarEES8_INS5_9ArrayDataEES8_INS5_12ChunkedArrayEES8_INS5_11RecordBatchEES8_INS5_5TableEEEEC1ERKSJ_EUlOT_T0_E_RKSt7variantIJS7_SA_SC_SE_SG_SI_EEEJEEESt16integer_sequenceImJLm5EEEE14__visit_invokeESQ_SU_ = comdat any

$_ZNSt8__detail9__variant17__gen_vtable_implINS0_12_Multi_arrayIPFNS0_20__variant_idx_cookieEOZNS0_15_Copy_ctor_baseILb0EJN5arrow5Datum5EmptyESt10shared_ptrINS5_6ScalarEES8_INS5_9ArrayDataEES8_INS5_12ChunkedArrayEES8_INS5_11RecordBatchEES8_INS5_5TableEEEEC1ERKSJ_EUlOT_T0_E_RKSt7variantIJS7_SA_SC_SE_SG_SI_EEEJEEESt16integer_sequenceImJLm18446744073709551615EEEE14__visit_invokeESQ_SU_ = comdat any

$_ZSt8__invokeIZNSt8__detail9__variant15_Copy_ctor_baseILb0EJN5arrow5Datum5EmptyESt10shared_ptrINS3_6ScalarEES6_INS3_9ArrayDataEES6_INS3_12ChunkedArrayEES6_INS3_11RecordBatchEES6_INS3_5TableEEEEC1ERKSH_EUlOT_T0_E_JRKS5_St17integral_constantImLm0EEEENSt15__invoke_resultISK_JDpT0_EE4typeESL_DpOST_ = comdat any

$_ZNSt8__detail9__variant17__gen_vtable_implINS0_12_Multi_arrayIPFNS0_20__variant_idx_cookieEOZNS0_15_Copy_ctor_baseILb0EJN5arrow5Datum5EmptyESt10shared_ptrINS5_6ScalarEES8_INS5_9ArrayDataEES8_INS5_12ChunkedArrayEES8_INS5_11RecordBatchEES8_INS5_5TableEEEEC1ERKSJ_EUlOT_T0_E_RKSt7variantIJS7_SA_SC_SE_SG_SI_EEEJEEESt16integer_sequenceImJLm0EEEE28__element_by_index_or_cookieILm0ESU_EEDcOSO_ = comdat any

$_ZSt13__invoke_implIvZNSt8__detail9__variant15_Copy_ctor_baseILb0EJN5arrow5Datum5EmptyESt10shared_ptrINS3_6ScalarEES6_INS3_9ArrayDataEES6_INS3_12ChunkedArrayEES6_INS3_11RecordBatchEES6_INS3_5TableEEEEC1ERKSH_EUlOT_T0_E_JRKS5_St17integral_constantImLm0EEEESK_St14__invoke_otherOSM_DpOT1_ = comdat any

$_ZZNSt8__detail9__variant15_Copy_ctor_baseILb0EJN5arrow5Datum5EmptyESt10shared_ptrINS2_6ScalarEES5_INS2_9ArrayDataEES5_INS2_12ChunkedArrayEES5_INS2_11RecordBatchEES5_INS2_5TableEEEEC1ERKSG_ENUlOT_T0_E_clIRKS4_St17integral_constantImLm0EEEEDaSK_SL_ = comdat any

$_ZSt10_ConstructINSt8__detail9__variant15_Variadic_unionIJN5arrow5Datum5EmptyESt10shared_ptrINS3_6ScalarEES6_INS3_9ArrayDataEES6_INS3_12ChunkedArrayEES6_INS3_11RecordBatchEES6_INS3_5TableEEEEEJRKSt16in_place_index_tILm0EERKS5_EEvPT_DpOT0_ = comdat any

$_ZNSt8__detail9__variant15_Variadic_unionIJN5arrow5Datum5EmptyESt10shared_ptrINS2_6ScalarEES5_INS2_9ArrayDataEES5_INS2_12ChunkedArrayEES5_INS2_11RecordBatchEES5_INS2_5TableEEEEC2IJRKS4_EEESt16in_place_index_tILm0EEDpOT_ = comdat any

$_ZNSt8__detail9__variant14_UninitializedIN5arrow5Datum5EmptyELb1EEC2IJRKS4_EEESt16in_place_index_tILm0EEDpOT_ = comdat any

$_ZNSt8__detail9__variant5__getILm0ERKSt7variantIJN5arrow5Datum5EmptyESt10shared_ptrINS3_6ScalarEES6_INS3_9ArrayDataEES6_INS3_12ChunkedArrayEES6_INS3_11RecordBatchEES6_INS3_5TableEEEEEEDcOT0_ = comdat any

$_ZNSt8__detail9__variant7__get_nILm0ERKNS0_15_Variadic_unionIJN5arrow5Datum5EmptyESt10shared_ptrINS3_6ScalarEES6_INS3_9ArrayDataEES6_INS3_12ChunkedArrayEES6_INS3_11RecordBatchEES6_INS3_5TableEEEEEEEDcOT0_ = comdat any

$_ZNKRSt8__detail9__variant14_UninitializedIN5arrow5Datum5EmptyELb1EE6_M_getEv = comdat any

$_ZSt8__invokeIZNSt8__detail9__variant15_Copy_ctor_baseILb0EJN5arrow5Datum5EmptyESt10shared_ptrINS3_6ScalarEES6_INS3_9ArrayDataEES6_INS3_12ChunkedArrayEES6_INS3_11RecordBatchEES6_INS3_5TableEEEEC1ERKSH_EUlOT_T0_E_JRKS8_St17integral_constantImLm1EEEENSt15__invoke_resultISK_JDpT0_EE4typeESL_DpOST_ = comdat any

$_ZNSt8__detail9__variant17__gen_vtable_implINS0_12_Multi_arrayIPFNS0_20__variant_idx_cookieEOZNS0_15_Copy_ctor_baseILb0EJN5arrow5Datum5EmptyESt10shared_ptrINS5_6ScalarEES8_INS5_9ArrayDataEES8_INS5_12ChunkedArrayEES8_INS5_11RecordBatchEES8_INS5_5TableEEEEC1ERKSJ_EUlOT_T0_E_RKSt7variantIJS7_SA_SC_SE_SG_SI_EEEJEEESt16integer_sequenceImJLm1EEEE28__element_by_index_or_cookieILm1ESU_EEDcOSO_ = comdat any

$_ZSt13__invoke_implIvZNSt8__detail9__variant15_Copy_ctor_baseILb0EJN5arrow5Datum5EmptyESt10shared_ptrINS3_6ScalarEES6_INS3_9ArrayDataEES6_INS3_12ChunkedArrayEES6_INS3_11RecordBatchEES6_INS3_5TableEEEEC1ERKSH_EUlOT_T0_E_JRKS8_St17integral_constantImLm1EEEESK_St14__invoke_otherOSM_DpOT1_ = comdat any

$_ZZNSt8__detail9__variant15_Copy_ctor_baseILb0EJN5arrow5Datum5EmptyESt10shared_ptrINS2_6ScalarEES5_INS2_9ArrayDataEES5_INS2_12ChunkedArrayEES5_INS2_11RecordBatchEES5_INS2_5TableEEEEC1ERKSG_ENUlOT_T0_E_clIRKS7_St17integral_constantImLm1EEEEDaSK_SL_ = comdat any

$_ZSt10_ConstructINSt8__detail9__variant15_Variadic_unionIJN5arrow5Datum5EmptyESt10shared_ptrINS3_6ScalarEES6_INS3_9ArrayDataEES6_INS3_12ChunkedArrayEES6_INS3_11RecordBatchEES6_INS3_5TableEEEEEJRKSt16in_place_index_tILm1EERKS8_EEvPT_DpOT0_ = comdat any

$_ZNSt8__detail9__variant15_Variadic_unionIJN5arrow5Datum5EmptyESt10shared_ptrINS2_6ScalarEES5_INS2_9ArrayDataEES5_INS2_12ChunkedArrayEES5_INS2_11RecordBatchEES5_INS2_5TableEEEEC2ILm1EJRKS7_EEESt16in_place_index_tIXT_EEDpOT0_ = comdat any

$_ZNSt8__detail9__variant15_Variadic_unionIJSt10shared_ptrIN5arrow6ScalarEES2_INS3_9ArrayDataEES2_INS3_12ChunkedArrayEES2_INS3_11RecordBatchEES2_INS3_5TableEEEEC2IJRKS5_EEESt16in_place_index_tILm0EEDpOT_ = comdat any

$_ZNSt8__detail9__variant14_UninitializedISt10shared_ptrIN5arrow6ScalarEELb0EEC2IJRKS5_EEESt16in_place_index_tILm0EEDpOT_ = comdat any

$_ZNSt10shared_ptrIN5arrow6ScalarEEC2ERKS2_ = comdat any

$_ZNSt12__shared_ptrIN5arrow6ScalarELN9__gnu_cxx12_Lock_policyE2EEC2ERKS4_ = comdat any

$_ZNSt8__detail9__variant5__getILm1ERKSt7variantIJN5arrow5Datum5EmptyESt10shared_ptrINS3_6ScalarEES6_INS3_9ArrayDataEES6_INS3_12ChunkedArrayEES6_INS3_11RecordBatchEES6_INS3_5TableEEEEEEDcOT0_ = comdat any

$_ZNSt8__detail9__variant7__get_nILm1ERKNS0_15_Variadic_unionIJN5arrow5Datum5EmptyESt10shared_ptrINS3_6ScalarEES6_INS3_9ArrayDataEES6_INS3_12ChunkedArrayEES6_INS3_11RecordBatchEES6_INS3_5TableEEEEEEEDcOT0_ = comdat any

$_ZNKRSt8__detail9__variant14_UninitializedISt10shared_ptrIN5arrow6ScalarEELb0EE6_M_getEv = comdat any

$_ZNK9__gnu_cxx16__aligned_membufISt10shared_ptrIN5arrow6ScalarEEE6_M_ptrEv = comdat any

$_ZNK9__gnu_cxx16__aligned_membufISt10shared_ptrIN5arrow6ScalarEEE7_M_addrEv = comdat any

$_ZSt8__invokeIZNSt8__detail9__variant15_Copy_ctor_baseILb0EJN5arrow5Datum5EmptyESt10shared_ptrINS3_6ScalarEES6_INS3_9ArrayDataEES6_INS3_12ChunkedArrayEES6_INS3_11RecordBatchEES6_INS3_5TableEEEEC1ERKSH_EUlOT_T0_E_JRKSA_St17integral_constantImLm2EEEENSt15__invoke_resultISK_JDpT0_EE4typeESL_DpOST_ = comdat any

$_ZNSt8__detail9__variant17__gen_vtable_implINS0_12_Multi_arrayIPFNS0_20__variant_idx_cookieEOZNS0_15_Copy_ctor_baseILb0EJN5arrow5Datum5EmptyESt10shared_ptrINS5_6ScalarEES8_INS5_9ArrayDataEES8_INS5_12ChunkedArrayEES8_INS5_11RecordBatchEES8_INS5_5TableEEEEC1ERKSJ_EUlOT_T0_E_RKSt7variantIJS7_SA_SC_SE_SG_SI_EEEJEEESt16integer_sequenceImJLm2EEEE28__element_by_index_or_cookieILm2ESU_EEDcOSO_ = comdat any

$_ZSt13__invoke_implIvZNSt8__detail9__variant15_Copy_ctor_baseILb0EJN5arrow5Datum5EmptyESt10shared_ptrINS3_6ScalarEES6_INS3_9ArrayDataEES6_INS3_12ChunkedArrayEES6_INS3_11RecordBatchEES6_INS3_5TableEEEEC1ERKSH_EUlOT_T0_E_JRKSA_St17integral_constantImLm2EEEESK_St14__invoke_otherOSM_DpOT1_ = comdat any

$_ZZNSt8__detail9__variant15_Copy_ctor_baseILb0EJN5arrow5Datum5EmptyESt10shared_ptrINS2_6ScalarEES5_INS2_9ArrayDataEES5_INS2_12ChunkedArrayEES5_INS2_11RecordBatchEES5_INS2_5TableEEEEC1ERKSG_ENUlOT_T0_E_clIRKS9_St17integral_constantImLm2EEEEDaSK_SL_ = comdat any

$_ZSt10_ConstructINSt8__detail9__variant15_Variadic_unionIJN5arrow5Datum5EmptyESt10shared_ptrINS3_6ScalarEES6_INS3_9ArrayDataEES6_INS3_12ChunkedArrayEES6_INS3_11RecordBatchEES6_INS3_5TableEEEEEJRKSt16in_place_index_tILm2EERKSA_EEvPT_DpOT0_ = comdat any

$_ZNSt8__detail9__variant15_Variadic_unionIJN5arrow5Datum5EmptyESt10shared_ptrINS2_6ScalarEES5_INS2_9ArrayDataEES5_INS2_12ChunkedArrayEES5_INS2_11RecordBatchEES5_INS2_5TableEEEEC2ILm2EJRKS9_EEESt16in_place_index_tIXT_EEDpOT0_ = comdat any

$_ZNSt8__detail9__variant15_Variadic_unionIJSt10shared_ptrIN5arrow6ScalarEES2_INS3_9ArrayDataEES2_INS3_12ChunkedArrayEES2_INS3_11RecordBatchEES2_INS3_5TableEEEEC2ILm1EJRKS7_EEESt16in_place_index_tIXT_EEDpOT0_ = comdat any

$_ZNSt8__detail9__variant15_Variadic_unionIJSt10shared_ptrIN5arrow9ArrayDataEES2_INS3_12ChunkedArrayEES2_INS3_11RecordBatchEES2_INS3_5TableEEEEC2IJRKS5_EEESt16in_place_index_tILm0EEDpOT_ = comdat any

$_ZNSt8__detail9__variant14_UninitializedISt10shared_ptrIN5arrow9ArrayDataEELb0EEC2IJRKS5_EEESt16in_place_index_tILm0EEDpOT_ = comdat any

$_ZNSt10shared_ptrIN5arrow9ArrayDataEEC2ERKS2_ = comdat any

$_ZNSt12__shared_ptrIN5arrow9ArrayDataELN9__gnu_cxx12_Lock_policyE2EEC2ERKS4_ = comdat any

$_ZNSt8__detail9__variant5__getILm2ERKSt7variantIJN5arrow5Datum5EmptyESt10shared_ptrINS3_6ScalarEES6_INS3_9ArrayDataEES6_INS3_12ChunkedArrayEES6_INS3_11RecordBatchEES6_INS3_5TableEEEEEEDcOT0_ = comdat any

$_ZNSt8__detail9__variant7__get_nILm2ERKNS0_15_Variadic_unionIJN5arrow5Datum5EmptyESt10shared_ptrINS3_6ScalarEES6_INS3_9ArrayDataEES6_INS3_12ChunkedArrayEES6_INS3_11RecordBatchEES6_INS3_5TableEEEEEEEDcOT0_ = comdat any

$_ZNKRSt8__detail9__variant14_UninitializedISt10shared_ptrIN5arrow9ArrayDataEELb0EE6_M_getEv = comdat any

$_ZNK9__gnu_cxx16__aligned_membufISt10shared_ptrIN5arrow9ArrayDataEEE6_M_ptrEv = comdat any

$_ZNK9__gnu_cxx16__aligned_membufISt10shared_ptrIN5arrow9ArrayDataEEE7_M_addrEv = comdat any

$_ZSt8__invokeIZNSt8__detail9__variant15_Copy_ctor_baseILb0EJN5arrow5Datum5EmptyESt10shared_ptrINS3_6ScalarEES6_INS3_9ArrayDataEES6_INS3_12ChunkedArrayEES6_INS3_11RecordBatchEES6_INS3_5TableEEEEC1ERKSH_EUlOT_T0_E_JRKSC_St17integral_constantImLm3EEEENSt15__invoke_resultISK_JDpT0_EE4typeESL_DpOST_ = comdat any

$_ZNSt8__detail9__variant17__gen_vtable_implINS0_12_Multi_arrayIPFNS0_20__variant_idx_cookieEOZNS0_15_Copy_ctor_baseILb0EJN5arrow5Datum5EmptyESt10shared_ptrINS5_6ScalarEES8_INS5_9ArrayDataEES8_INS5_12ChunkedArrayEES8_INS5_11RecordBatchEES8_INS5_5TableEEEEC1ERKSJ_EUlOT_T0_E_RKSt7variantIJS7_SA_SC_SE_SG_SI_EEEJEEESt16integer_sequenceImJLm3EEEE28__element_by_index_or_cookieILm3ESU_EEDcOSO_ = comdat any

$_ZSt13__invoke_implIvZNSt8__detail9__variant15_Copy_ctor_baseILb0EJN5arrow5Datum5EmptyESt10shared_ptrINS3_6ScalarEES6_INS3_9ArrayDataEES6_INS3_12ChunkedArrayEES6_INS3_11RecordBatchEES6_INS3_5TableEEEEC1ERKSH_EUlOT_T0_E_JRKSC_St17integral_constantImLm3EEEESK_St14__invoke_otherOSM_DpOT1_ = comdat any

$_ZZNSt8__detail9__variant15_Copy_ctor_baseILb0EJN5arrow5Datum5EmptyESt10shared_ptrINS2_6ScalarEES5_INS2_9ArrayDataEES5_INS2_12ChunkedArrayEES5_INS2_11RecordBatchEES5_INS2_5TableEEEEC1ERKSG_ENUlOT_T0_E_clIRKSB_St17integral_constantImLm3EEEEDaSK_SL_ = comdat any

$_ZSt10_ConstructINSt8__detail9__variant15_Variadic_unionIJN5arrow5Datum5EmptyESt10shared_ptrINS3_6ScalarEES6_INS3_9ArrayDataEES6_INS3_12ChunkedArrayEES6_INS3_11RecordBatchEES6_INS3_5TableEEEEEJRKSt16in_place_index_tILm3EERKSC_EEvPT_DpOT0_ = comdat any

$_ZNSt8__detail9__variant15_Variadic_unionIJN5arrow5Datum5EmptyESt10shared_ptrINS2_6ScalarEES5_INS2_9ArrayDataEES5_INS2_12ChunkedArrayEES5_INS2_11RecordBatchEES5_INS2_5TableEEEEC2ILm3EJRKSB_EEESt16in_place_index_tIXT_EEDpOT0_ = comdat any

$_ZNSt8__detail9__variant15_Variadic_unionIJSt10shared_ptrIN5arrow6ScalarEES2_INS3_9ArrayDataEES2_INS3_12ChunkedArrayEES2_INS3_11RecordBatchEES2_INS3_5TableEEEEC2ILm2EJRKS9_EEESt16in_place_index_tIXT_EEDpOT0_ = comdat any

$_ZNSt8__detail9__variant15_Variadic_unionIJSt10shared_ptrIN5arrow9ArrayDataEES2_INS3_12ChunkedArrayEES2_INS3_11RecordBatchEES2_INS3_5TableEEEEC2ILm1EJRKS7_EEESt16in_place_index_tIXT_EEDpOT0_ = comdat any

$_ZNSt8__detail9__variant15_Variadic_unionIJSt10shared_ptrIN5arrow12ChunkedArrayEES2_INS3_11RecordBatchEES2_INS3_5TableEEEEC2IJRKS5_EEESt16in_place_index_tILm0EEDpOT_ = comdat any

$_ZNSt8__detail9__variant14_UninitializedISt10shared_ptrIN5arrow12ChunkedArrayEELb0EEC2IJRKS5_EEESt16in_place_index_tILm0EEDpOT_ = comdat any

$_ZNSt10shared_ptrIN5arrow12ChunkedArrayEEC2ERKS2_ = comdat any

$_ZNSt12__shared_ptrIN5arrow12ChunkedArrayELN9__gnu_cxx12_Lock_policyE2EEC2ERKS4_ = comdat any

$_ZNSt8__detail9__variant5__getILm3ERKSt7variantIJN5arrow5Datum5EmptyESt10shared_ptrINS3_6ScalarEES6_INS3_9ArrayDataEES6_INS3_12ChunkedArrayEES6_INS3_11RecordBatchEES6_INS3_5TableEEEEEEDcOT0_ = comdat any

$_ZNSt8__detail9__variant7__get_nILm3ERKNS0_15_Variadic_unionIJN5arrow5Datum5EmptyESt10shared_ptrINS3_6ScalarEES6_INS3_9ArrayDataEES6_INS3_12ChunkedArrayEES6_INS3_11RecordBatchEES6_INS3_5TableEEEEEEEDcOT0_ = comdat any

$_ZNSt8__detail9__variant7__get_nILm0ERKNS0_15_Variadic_unionIJSt10shared_ptrIN5arrow12ChunkedArrayEES3_INS4_11RecordBatchEES3_INS4_5TableEEEEEEEDcOT0_ = comdat any

$_ZNKRSt8__detail9__variant14_UninitializedISt10shared_ptrIN5arrow12ChunkedArrayEELb0EE6_M_getEv = comdat any

$_ZNK9__gnu_cxx16__aligned_membufISt10shared_ptrIN5arrow12ChunkedArrayEEE6_M_ptrEv = comdat any

$_ZNK9__gnu_cxx16__aligned_membufISt10shared_ptrIN5arrow12ChunkedArrayEEE7_M_addrEv = comdat any

$_ZSt8__invokeIZNSt8__detail9__variant15_Copy_ctor_baseILb0EJN5arrow5Datum5EmptyESt10shared_ptrINS3_6ScalarEES6_INS3_9ArrayDataEES6_INS3_12ChunkedArrayEES6_INS3_11RecordBatchEES6_INS3_5TableEEEEC1ERKSH_EUlOT_T0_E_JRKSE_St17integral_constantImLm4EEEENSt15__invoke_resultISK_JDpT0_EE4typeESL_DpOST_ = comdat any

$_ZNSt8__detail9__variant17__gen_vtable_implINS0_12_Multi_arrayIPFNS0_20__variant_idx_cookieEOZNS0_15_Copy_ctor_baseILb0EJN5arrow5Datum5EmptyESt10shared_ptrINS5_6ScalarEES8_INS5_9ArrayDataEES8_INS5_12ChunkedArrayEES8_INS5_11RecordBatchEES8_INS5_5TableEEEEC1ERKSJ_EUlOT_T0_E_RKSt7variantIJS7_SA_SC_SE_SG_SI_EEEJEEESt16integer_sequenceImJLm4EEEE28__element_by_index_or_cookieILm4ESU_EEDcOSO_ = comdat any

$_ZSt13__invoke_implIvZNSt8__detail9__variant15_Copy_ctor_baseILb0EJN5arrow5Datum5EmptyESt10shared_ptrINS3_6ScalarEES6_INS3_9ArrayDataEES6_INS3_12ChunkedArrayEES6_INS3_11RecordBatchEES6_INS3_5TableEEEEC1ERKSH_EUlOT_T0_E_JRKSE_St17integral_constantImLm4EEEESK_St14__invoke_otherOSM_DpOT1_ = comdat any

$_ZZNSt8__detail9__variant15_Copy_ctor_baseILb0EJN5arrow5Datum5EmptyESt10shared_ptrINS2_6ScalarEES5_INS2_9ArrayDataEES5_INS2_12ChunkedArrayEES5_INS2_11RecordBatchEES5_INS2_5TableEEEEC1ERKSG_ENUlOT_T0_E_clIRKSD_St17integral_constantImLm4EEEEDaSK_SL_ = comdat any

$_ZSt10_ConstructINSt8__detail9__variant15_Variadic_unionIJN5arrow5Datum5EmptyESt10shared_ptrINS3_6ScalarEES6_INS3_9ArrayDataEES6_INS3_12ChunkedArrayEES6_INS3_11RecordBatchEES6_INS3_5TableEEEEEJRKSt16in_place_index_tILm4EERKSE_EEvPT_DpOT0_ = comdat any

$_ZNSt8__detail9__variant15_Variadic_unionIJN5arrow5Datum5EmptyESt10shared_ptrINS2_6ScalarEES5_INS2_9ArrayDataEES5_INS2_12ChunkedArrayEES5_INS2_11RecordBatchEES5_INS2_5TableEEEEC2ILm4EJRKSD_EEESt16in_place_index_tIXT_EEDpOT0_ = comdat any

$_ZNSt8__detail9__variant15_Variadic_unionIJSt10shared_ptrIN5arrow6ScalarEES2_INS3_9ArrayDataEES2_INS3_12ChunkedArrayEES2_INS3_11RecordBatchEES2_INS3_5TableEEEEC2ILm3EJRKSB_EEESt16in_place_index_tIXT_EEDpOT0_ = comdat any

$_ZNSt8__detail9__variant15_Variadic_unionIJSt10shared_ptrIN5arrow9ArrayDataEES2_INS3_12ChunkedArrayEES2_INS3_11RecordBatchEES2_INS3_5TableEEEEC2ILm2EJRKS9_EEESt16in_place_index_tIXT_EEDpOT0_ = comdat any

$_ZNSt8__detail9__variant15_Variadic_unionIJSt10shared_ptrIN5arrow12ChunkedArrayEES2_INS3_11RecordBatchEES2_INS3_5TableEEEEC2ILm1EJRKS7_EEESt16in_place_index_tIXT_EEDpOT0_ = comdat any

$_ZNSt8__detail9__variant15_Variadic_unionIJSt10shared_ptrIN5arrow11RecordBatchEES2_INS3_5TableEEEEC2IJRKS5_EEESt16in_place_index_tILm0EEDpOT_ = comdat any

$_ZNSt8__detail9__variant14_UninitializedISt10shared_ptrIN5arrow11RecordBatchEELb0EEC2IJRKS5_EEESt16in_place_index_tILm0EEDpOT_ = comdat any

$_ZNSt10shared_ptrIN5arrow11RecordBatchEEC2ERKS2_ = comdat any

$_ZNSt12__shared_ptrIN5arrow11RecordBatchELN9__gnu_cxx12_Lock_policyE2EEC2ERKS4_ = comdat any

$_ZNSt8__detail9__variant5__getILm4ERKSt7variantIJN5arrow5Datum5EmptyESt10shared_ptrINS3_6ScalarEES6_INS3_9ArrayDataEES6_INS3_12ChunkedArrayEES6_INS3_11RecordBatchEES6_INS3_5TableEEEEEEDcOT0_ = comdat any

$_ZNSt8__detail9__variant7__get_nILm4ERKNS0_15_Variadic_unionIJN5arrow5Datum5EmptyESt10shared_ptrINS3_6ScalarEES6_INS3_9ArrayDataEES6_INS3_12ChunkedArrayEES6_INS3_11RecordBatchEES6_INS3_5TableEEEEEEEDcOT0_ = comdat any

$_ZNSt8__detail9__variant7__get_nILm1ERKNS0_15_Variadic_unionIJSt10shared_ptrIN5arrow12ChunkedArrayEES3_INS4_11RecordBatchEES3_INS4_5TableEEEEEEEDcOT0_ = comdat any

$_ZNKRSt8__detail9__variant14_UninitializedISt10shared_ptrIN5arrow11RecordBatchEELb0EE6_M_getEv = comdat any

$_ZNK9__gnu_cxx16__aligned_membufISt10shared_ptrIN5arrow11RecordBatchEEE6_M_ptrEv = comdat any

$_ZNK9__gnu_cxx16__aligned_membufISt10shared_ptrIN5arrow11RecordBatchEEE7_M_addrEv = comdat any

$_ZSt8__invokeIZNSt8__detail9__variant15_Copy_ctor_baseILb0EJN5arrow5Datum5EmptyESt10shared_ptrINS3_6ScalarEES6_INS3_9ArrayDataEES6_INS3_12ChunkedArrayEES6_INS3_11RecordBatchEES6_INS3_5TableEEEEC1ERKSH_EUlOT_T0_E_JRKSG_St17integral_constantImLm5EEEENSt15__invoke_resultISK_JDpT0_EE4typeESL_DpOST_ = comdat any

$_ZNSt8__detail9__variant17__gen_vtable_implINS0_12_Multi_arrayIPFNS0_20__variant_idx_cookieEOZNS0_15_Copy_ctor_baseILb0EJN5arrow5Datum5EmptyESt10shared_ptrINS5_6ScalarEES8_INS5_9ArrayDataEES8_INS5_12ChunkedArrayEES8_INS5_11RecordBatchEES8_INS5_5TableEEEEC1ERKSJ_EUlOT_T0_E_RKSt7variantIJS7_SA_SC_SE_SG_SI_EEEJEEESt16integer_sequenceImJLm5EEEE28__element_by_index_or_cookieILm5ESU_EEDcOSO_ = comdat any

$_ZSt13__invoke_implIvZNSt8__detail9__variant15_Copy_ctor_baseILb0EJN5arrow5Datum5EmptyESt10shared_ptrINS3_6ScalarEES6_INS3_9ArrayDataEES6_INS3_12ChunkedArrayEES6_INS3_11RecordBatchEES6_INS3_5TableEEEEC1ERKSH_EUlOT_T0_E_JRKSG_St17integral_constantImLm5EEEESK_St14__invoke_otherOSM_DpOT1_ = comdat any

$_ZZNSt8__detail9__variant15_Copy_ctor_baseILb0EJN5arrow5Datum5EmptyESt10shared_ptrINS2_6ScalarEES5_INS2_9ArrayDataEES5_INS2_12ChunkedArrayEES5_INS2_11RecordBatchEES5_INS2_5TableEEEEC1ERKSG_ENUlOT_T0_E_clIRKSF_St17integral_constantImLm5EEEEDaSK_SL_ = comdat any

$_ZSt10_ConstructINSt8__detail9__variant15_Variadic_unionIJN5arrow5Datum5EmptyESt10shared_ptrINS3_6ScalarEES6_INS3_9ArrayDataEES6_INS3_12ChunkedArrayEES6_INS3_11RecordBatchEES6_INS3_5TableEEEEEJRKSt16in_place_index_tILm5EERKSG_EEvPT_DpOT0_ = comdat any

$_ZNSt8__detail9__variant15_Variadic_unionIJN5arrow5Datum5EmptyESt10shared_ptrINS2_6ScalarEES5_INS2_9ArrayDataEES5_INS2_12ChunkedArrayEES5_INS2_11RecordBatchEES5_INS2_5TableEEEEC2ILm5EJRKSF_EEESt16in_place_index_tIXT_EEDpOT0_ = comdat any

$_ZNSt8__detail9__variant15_Variadic_unionIJSt10shared_ptrIN5arrow6ScalarEES2_INS3_9ArrayDataEES2_INS3_12ChunkedArrayEES2_INS3_11RecordBatchEES2_INS3_5TableEEEEC2ILm4EJRKSD_EEESt16in_place_index_tIXT_EEDpOT0_ = comdat any

$_ZNSt8__detail9__variant15_Variadic_unionIJSt10shared_ptrIN5arrow9ArrayDataEES2_INS3_12ChunkedArrayEES2_INS3_11RecordBatchEES2_INS3_5TableEEEEC2ILm3EJRKSB_EEESt16in_place_index_tIXT_EEDpOT0_ = comdat any

$_ZNSt8__detail9__variant15_Variadic_unionIJSt10shared_ptrIN5arrow12ChunkedArrayEES2_INS3_11RecordBatchEES2_INS3_5TableEEEEC2ILm2EJRKS9_EEESt16in_place_index_tIXT_EEDpOT0_ = comdat any

$_ZNSt8__detail9__variant15_Variadic_unionIJSt10shared_ptrIN5arrow11RecordBatchEES2_INS3_5TableEEEEC2ILm1EJRKS7_EEESt16in_place_index_tIXT_EEDpOT0_ = comdat any

$_ZNSt8__detail9__variant15_Variadic_unionIJSt10shared_ptrIN5arrow5TableEEEEC2IJRKS5_EEESt16in_place_index_tILm0EEDpOT_ = comdat any

$_ZNSt8__detail9__variant14_UninitializedISt10shared_ptrIN5arrow5TableEELb0EEC2IJRKS5_EEESt16in_place_index_tILm0EEDpOT_ = comdat any

$_ZNSt10shared_ptrIN5arrow5TableEEC2ERKS2_ = comdat any

$_ZNSt12__shared_ptrIN5arrow5TableELN9__gnu_cxx12_Lock_policyE2EEC2ERKS4_ = comdat any

$_ZNSt8__detail9__variant5__getILm5ERKSt7variantIJN5arrow5Datum5EmptyESt10shared_ptrINS3_6ScalarEES6_INS3_9ArrayDataEES6_INS3_12ChunkedArrayEES6_INS3_11RecordBatchEES6_INS3_5TableEEEEEEDcOT0_ = comdat any

$_ZNSt8__detail9__variant7__get_nILm5ERKNS0_15_Variadic_unionIJN5arrow5Datum5EmptyESt10shared_ptrINS3_6ScalarEES6_INS3_9ArrayDataEES6_INS3_12ChunkedArrayEES6_INS3_11RecordBatchEES6_INS3_5TableEEEEEEEDcOT0_ = comdat any

$_ZNSt8__detail9__variant7__get_nILm2ERKNS0_15_Variadic_unionIJSt10shared_ptrIN5arrow12ChunkedArrayEES3_INS4_11RecordBatchEES3_INS4_5TableEEEEEEEDcOT0_ = comdat any

$_ZNKRSt8__detail9__variant14_UninitializedISt10shared_ptrIN5arrow5TableEELb0EE6_M_getEv = comdat any

$_ZNK9__gnu_cxx16__aligned_membufISt10shared_ptrIN5arrow5TableEEE6_M_ptrEv = comdat any

$_ZNK9__gnu_cxx16__aligned_membufISt10shared_ptrIN5arrow5TableEEE7_M_addrEv = comdat any

$_ZSt8__invokeIZNSt8__detail9__variant15_Copy_ctor_baseILb0EJN5arrow5Datum5EmptyESt10shared_ptrINS3_6ScalarEES6_INS3_9ArrayDataEES6_INS3_12ChunkedArrayEES6_INS3_11RecordBatchEES6_INS3_5TableEEEEC1ERKSH_EUlOT_T0_E_JNS1_16__variant_cookieESt17integral_constantImLm18446744073709551615EEEENSt15__invoke_resultISK_JDpT0_EE4typeESL_DpOSS_ = comdat any

$_ZNSt8__detail9__variant17__gen_vtable_implINS0_12_Multi_arrayIPFNS0_20__variant_idx_cookieEOZNS0_15_Copy_ctor_baseILb0EJN5arrow5Datum5EmptyESt10shared_ptrINS5_6ScalarEES8_INS5_9ArrayDataEES8_INS5_12ChunkedArrayEES8_INS5_11RecordBatchEES8_INS5_5TableEEEEC1ERKSJ_EUlOT_T0_E_RKSt7variantIJS7_SA_SC_SE_SG_SI_EEEJEEESt16integer_sequenceImJLm18446744073709551615EEEE28__element_by_index_or_cookieILm18446744073709551615ESU_EEDcOSO_ = comdat any

$_ZSt13__invoke_implIvZNSt8__detail9__variant15_Copy_ctor_baseILb0EJN5arrow5Datum5EmptyESt10shared_ptrINS3_6ScalarEES6_INS3_9ArrayDataEES6_INS3_12ChunkedArrayEES6_INS3_11RecordBatchEES6_INS3_5TableEEEEC1ERKSH_EUlOT_T0_E_JNS1_16__variant_cookieESt17integral_constantImLm18446744073709551615EEEESK_St14__invoke_otherOSM_DpOT1_ = comdat any

$_ZZNSt8__detail9__variant15_Copy_ctor_baseILb0EJN5arrow5Datum5EmptyESt10shared_ptrINS2_6ScalarEES5_INS2_9ArrayDataEES5_INS2_12ChunkedArrayEES5_INS2_11RecordBatchEES5_INS2_5TableEEEEC1ERKSG_ENUlOT_T0_E_clINS0_16__variant_cookieESt17integral_constantImLm18446744073709551615EEEEDaSK_SL_ = comdat any

$_ZNSt8__detail9__variant16_Variant_storageILb0EJN5arrow5Datum5EmptyESt10shared_ptrINS2_6ScalarEES5_INS2_9ArrayDataEES5_INS2_12ChunkedArrayEES5_INS2_11RecordBatchEES5_INS2_5TableEEEE8_M_resetEv = comdat any

$_ZNKSt8__detail9__variant16_Variant_storageILb0EJN5arrow5Datum5EmptyESt10shared_ptrINS2_6ScalarEES5_INS2_9ArrayDataEES5_INS2_12ChunkedArrayEES5_INS2_11RecordBatchEES5_INS2_5TableEEEE8_M_validEv = comdat any

$_ZSt10__do_visitIvZNSt8__detail9__variant16_Variant_storageILb0EJN5arrow5Datum5EmptyESt10shared_ptrINS3_6ScalarEES6_INS3_9ArrayDataEES6_INS3_12ChunkedArrayEES6_INS3_11RecordBatchEES6_INS3_5TableEEEE8_M_resetEvEUlOT_E_JRSt7variantIJS5_S8_SA_SC_SE_SG_EEEEDcOT0_DpOT1_ = comdat any

$_ZSt14__variant_castIJN5arrow5Datum5EmptyESt10shared_ptrINS0_6ScalarEES3_INS0_9ArrayDataEES3_INS0_12ChunkedArrayEES3_INS0_11RecordBatchEES3_INS0_5TableEEERNSt8__detail9__variant16_Variant_storageILb0EJS2_S5_S7_S9_SB_SD_EEEEDcOT0_ = comdat any

$_ZZSt10__do_visitIvZNSt8__detail9__variant16_Variant_storageILb0EJN5arrow5Datum5EmptyESt10shared_ptrINS3_6ScalarEES6_INS3_9ArrayDataEES6_INS3_12ChunkedArrayEES6_INS3_11RecordBatchEES6_INS3_5TableEEEE8_M_resetEvEUlOT_E_JRSt7variantIJS5_S8_SA_SC_SE_SG_EEEEDcOT0_DpOT1_ENKUlSN_zE_clESN_z = comdat any

$_ZNSt8__detail9__variant17__gen_vtable_implINS0_12_Multi_arrayIPFvOZNS0_16_Variant_storageILb0EJN5arrow5Datum5EmptyESt10shared_ptrINS4_6ScalarEES7_INS4_9ArrayDataEES7_INS4_12ChunkedArrayEES7_INS4_11RecordBatchEES7_INS4_5TableEEEE8_M_resetEvEUlOT_E_RSt7variantIJS6_S9_SB_SD_SF_SH_EEEJEEESt16integer_sequenceImJLm0EEEE14__visit_invokeESM_SP_ = comdat any

$_ZNSt8__detail9__variant17__gen_vtable_implINS0_12_Multi_arrayIPFvOZNS0_16_Variant_storageILb0EJN5arrow5Datum5EmptyESt10shared_ptrINS4_6ScalarEES7_INS4_9ArrayDataEES7_INS4_12ChunkedArrayEES7_INS4_11RecordBatchEES7_INS4_5TableEEEE8_M_resetEvEUlOT_E_RSt7variantIJS6_S9_SB_SD_SF_SH_EEEJEEESt16integer_sequenceImJLm1EEEE14__visit_invokeESM_SP_ = comdat any

$_ZNSt8__detail9__variant17__gen_vtable_implINS0_12_Multi_arrayIPFvOZNS0_16_Variant_storageILb0EJN5arrow5Datum5EmptyESt10shared_ptrINS4_6ScalarEES7_INS4_9ArrayDataEES7_INS4_12ChunkedArrayEES7_INS4_11RecordBatchEES7_INS4_5TableEEEE8_M_resetEvEUlOT_E_RSt7variantIJS6_S9_SB_SD_SF_SH_EEEJEEESt16integer_sequenceImJLm2EEEE14__visit_invokeESM_SP_ = comdat any

$_ZNSt8__detail9__variant17__gen_vtable_implINS0_12_Multi_arrayIPFvOZNS0_16_Variant_storageILb0EJN5arrow5Datum5EmptyESt10shared_ptrINS4_6ScalarEES7_INS4_9ArrayDataEES7_INS4_12ChunkedArrayEES7_INS4_11RecordBatchEES7_INS4_5TableEEEE8_M_resetEvEUlOT_E_RSt7variantIJS6_S9_SB_SD_SF_SH_EEEJEEESt16integer_sequenceImJLm3EEEE14__visit_invokeESM_SP_ = comdat any

$_ZNSt8__detail9__variant17__gen_vtable_implINS0_12_Multi_arrayIPFvOZNS0_16_Variant_storageILb0EJN5arrow5Datum5EmptyESt10shared_ptrINS4_6ScalarEES7_INS4_9ArrayDataEES7_INS4_12ChunkedArrayEES7_INS4_11RecordBatchEES7_INS4_5TableEEEE8_M_resetEvEUlOT_E_RSt7variantIJS6_S9_SB_SD_SF_SH_EEEJEEESt16integer_sequenceImJLm4EEEE14__visit_invokeESM_SP_ = comdat any

$_ZNSt8__detail9__variant17__gen_vtable_implINS0_12_Multi_arrayIPFvOZNS0_16_Variant_storageILb0EJN5arrow5Datum5EmptyESt10shared_ptrINS4_6ScalarEES7_INS4_9ArrayDataEES7_INS4_12ChunkedArrayEES7_INS4_11RecordBatchEES7_INS4_5TableEEEE8_M_resetEvEUlOT_E_RSt7variantIJS6_S9_SB_SD_SF_SH_EEEJEEESt16integer_sequenceImJLm5EEEE14__visit_invokeESM_SP_ = comdat any

$_ZSt10__invoke_rIvZNSt8__detail9__variant16_Variant_storageILb0EJN5arrow5Datum5EmptyESt10shared_ptrINS3_6ScalarEES6_INS3_9ArrayDataEES6_INS3_12ChunkedArrayEES6_INS3_11RecordBatchEES6_INS3_5TableEEEE8_M_resetEvEUlOT_E_JRS5_EENSt9enable_ifIX16is_invocable_r_vISI_T0_DpT1_EESI_E4typeEOSN_DpOSO_ = comdat any

$_ZNSt8__detail9__variant5__getILm0ERSt7variantIJN5arrow5Datum5EmptyESt10shared_ptrINS3_6ScalarEES6_INS3_9ArrayDataEES6_INS3_12ChunkedArrayEES6_INS3_11RecordBatchEES6_INS3_5TableEEEEEEDcOT0_ = comdat any

$_ZSt13__invoke_implIvZNSt8__detail9__variant16_Variant_storageILb0EJN5arrow5Datum5EmptyESt10shared_ptrINS3_6ScalarEES6_INS3_9ArrayDataEES6_INS3_12ChunkedArrayEES6_INS3_11RecordBatchEES6_INS3_5TableEEEE8_M_resetEvEUlOT_E_JRS5_EESI_St14__invoke_otherOT0_DpOT1_ = comdat any

$_ZZNSt8__detail9__variant16_Variant_storageILb0EJN5arrow5Datum5EmptyESt10shared_ptrINS2_6ScalarEES5_INS2_9ArrayDataEES5_INS2_12ChunkedArrayEES5_INS2_11RecordBatchEES5_INS2_5TableEEEE8_M_resetEvENUlOT_E_clIRS4_EEDaSI_ = comdat any

$_ZSt8_DestroyIN5arrow5Datum5EmptyEEvPT_ = comdat any

$_ZNSt8__detail9__variant7__get_nILm0ERNS0_15_Variadic_unionIJN5arrow5Datum5EmptyESt10shared_ptrINS3_6ScalarEES6_INS3_9ArrayDataEES6_INS3_12ChunkedArrayEES6_INS3_11RecordBatchEES6_INS3_5TableEEEEEEEDcOT0_ = comdat any

$_ZNRSt8__detail9__variant14_UninitializedIN5arrow5Datum5EmptyELb1EE6_M_getEv = comdat any

$_ZSt10__invoke_rIvZNSt8__detail9__variant16_Variant_storageILb0EJN5arrow5Datum5EmptyESt10shared_ptrINS3_6ScalarEES6_INS3_9ArrayDataEES6_INS3_12ChunkedArrayEES6_INS3_11RecordBatchEES6_INS3_5TableEEEE8_M_resetEvEUlOT_E_JRS8_EENSt9enable_ifIX16is_invocable_r_vISI_T0_DpT1_EESI_E4typeEOSN_DpOSO_ = comdat any

$_ZNSt8__detail9__variant5__getILm1ERSt7variantIJN5arrow5Datum5EmptyESt10shared_ptrINS3_6ScalarEES6_INS3_9ArrayDataEES6_INS3_12ChunkedArrayEES6_INS3_11RecordBatchEES6_INS3_5TableEEEEEEDcOT0_ = comdat any

$_ZSt13__invoke_implIvZNSt8__detail9__variant16_Variant_storageILb0EJN5arrow5Datum5EmptyESt10shared_ptrINS3_6ScalarEES6_INS3_9ArrayDataEES6_INS3_12ChunkedArrayEES6_INS3_11RecordBatchEES6_INS3_5TableEEEE8_M_resetEvEUlOT_E_JRS8_EESI_St14__invoke_otherOT0_DpOT1_ = comdat any

$_ZZNSt8__detail9__variant16_Variant_storageILb0EJN5arrow5Datum5EmptyESt10shared_ptrINS2_6ScalarEES5_INS2_9ArrayDataEES5_INS2_12ChunkedArrayEES5_INS2_11RecordBatchEES5_INS2_5TableEEEE8_M_resetEvENUlOT_E_clIRS7_EEDaSI_ = comdat any

$_ZSt8_DestroyISt10shared_ptrIN5arrow6ScalarEEEvPT_ = comdat any

$_ZNSt10shared_ptrIN5arrow6ScalarEED2Ev = comdat any

$_ZNSt12__shared_ptrIN5arrow6ScalarELN9__gnu_cxx12_Lock_policyE2EED2Ev = comdat any

$_ZNSt8__detail9__variant7__get_nILm1ERNS0_15_Variadic_unionIJN5arrow5Datum5EmptyESt10shared_ptrINS3_6ScalarEES6_INS3_9ArrayDataEES6_INS3_12ChunkedArrayEES6_INS3_11RecordBatchEES6_INS3_5TableEEEEEEEDcOT0_ = comdat any

$_ZNRSt8__detail9__variant14_UninitializedISt10shared_ptrIN5arrow6ScalarEELb0EE6_M_getEv = comdat any

$_ZN9__gnu_cxx16__aligned_membufISt10shared_ptrIN5arrow6ScalarEEE6_M_ptrEv = comdat any

$_ZN9__gnu_cxx16__aligned_membufISt10shared_ptrIN5arrow6ScalarEEE7_M_addrEv = comdat any

$_ZSt10__invoke_rIvZNSt8__detail9__variant16_Variant_storageILb0EJN5arrow5Datum5EmptyESt10shared_ptrINS3_6ScalarEES6_INS3_9ArrayDataEES6_INS3_12ChunkedArrayEES6_INS3_11RecordBatchEES6_INS3_5TableEEEE8_M_resetEvEUlOT_E_JRSA_EENSt9enable_ifIX16is_invocable_r_vISI_T0_DpT1_EESI_E4typeEOSN_DpOSO_ = comdat any

$_ZNSt8__detail9__variant5__getILm2ERSt7variantIJN5arrow5Datum5EmptyESt10shared_ptrINS3_6ScalarEES6_INS3_9ArrayDataEES6_INS3_12ChunkedArrayEES6_INS3_11RecordBatchEES6_INS3_5TableEEEEEEDcOT0_ = comdat any

$_ZSt13__invoke_implIvZNSt8__detail9__variant16_Variant_storageILb0EJN5arrow5Datum5EmptyESt10shared_ptrINS3_6ScalarEES6_INS3_9ArrayDataEES6_INS3_12ChunkedArrayEES6_INS3_11RecordBatchEES6_INS3_5TableEEEE8_M_resetEvEUlOT_E_JRSA_EESI_St14__invoke_otherOT0_DpOT1_ = comdat any

$_ZZNSt8__detail9__variant16_Variant_storageILb0EJN5arrow5Datum5EmptyESt10shared_ptrINS2_6ScalarEES5_INS2_9ArrayDataEES5_INS2_12ChunkedArrayEES5_INS2_11RecordBatchEES5_INS2_5TableEEEE8_M_resetEvENUlOT_E_clIRS9_EEDaSI_ = comdat any

$_ZSt8_DestroyISt10shared_ptrIN5arrow9ArrayDataEEEvPT_ = comdat any

$_ZNSt10shared_ptrIN5arrow9ArrayDataEED2Ev = comdat any

$_ZNSt12__shared_ptrIN5arrow9ArrayDataELN9__gnu_cxx12_Lock_policyE2EED2Ev = comdat any

$_ZNSt8__detail9__variant7__get_nILm2ERNS0_15_Variadic_unionIJN5arrow5Datum5EmptyESt10shared_ptrINS3_6ScalarEES6_INS3_9ArrayDataEES6_INS3_12ChunkedArrayEES6_INS3_11RecordBatchEES6_INS3_5TableEEEEEEEDcOT0_ = comdat any

$_ZNRSt8__detail9__variant14_UninitializedISt10shared_ptrIN5arrow9ArrayDataEELb0EE6_M_getEv = comdat any

$_ZN9__gnu_cxx16__aligned_membufISt10shared_ptrIN5arrow9ArrayDataEEE6_M_ptrEv = comdat any

$_ZN9__gnu_cxx16__aligned_membufISt10shared_ptrIN5arrow9ArrayDataEEE7_M_addrEv = comdat any

$_ZSt10__invoke_rIvZNSt8__detail9__variant16_Variant_storageILb0EJN5arrow5Datum5EmptyESt10shared_ptrINS3_6ScalarEES6_INS3_9ArrayDataEES6_INS3_12ChunkedArrayEES6_INS3_11RecordBatchEES6_INS3_5TableEEEE8_M_resetEvEUlOT_E_JRSC_EENSt9enable_ifIX16is_invocable_r_vISI_T0_DpT1_EESI_E4typeEOSN_DpOSO_ = comdat any

$_ZNSt8__detail9__variant5__getILm3ERSt7variantIJN5arrow5Datum5EmptyESt10shared_ptrINS3_6ScalarEES6_INS3_9ArrayDataEES6_INS3_12ChunkedArrayEES6_INS3_11RecordBatchEES6_INS3_5TableEEEEEEDcOT0_ = comdat any

$_ZSt13__invoke_implIvZNSt8__detail9__variant16_Variant_storageILb0EJN5arrow5Datum5EmptyESt10shared_ptrINS3_6ScalarEES6_INS3_9ArrayDataEES6_INS3_12ChunkedArrayEES6_INS3_11RecordBatchEES6_INS3_5TableEEEE8_M_resetEvEUlOT_E_JRSC_EESI_St14__invoke_otherOT0_DpOT1_ = comdat any

$_ZZNSt8__detail9__variant16_Variant_storageILb0EJN5arrow5Datum5EmptyESt10shared_ptrINS2_6ScalarEES5_INS2_9ArrayDataEES5_INS2_12ChunkedArrayEES5_INS2_11RecordBatchEES5_INS2_5TableEEEE8_M_resetEvENUlOT_E_clIRSB_EEDaSI_ = comdat any

$_ZSt8_DestroyISt10shared_ptrIN5arrow12ChunkedArrayEEEvPT_ = comdat any

$_ZNSt10shared_ptrIN5arrow12ChunkedArrayEED2Ev = comdat any

$_ZNSt12__shared_ptrIN5arrow12ChunkedArrayELN9__gnu_cxx12_Lock_policyE2EED2Ev = comdat any

$_ZNSt8__detail9__variant7__get_nILm3ERNS0_15_Variadic_unionIJN5arrow5Datum5EmptyESt10shared_ptrINS3_6ScalarEES6_INS3_9ArrayDataEES6_INS3_12ChunkedArrayEES6_INS3_11RecordBatchEES6_INS3_5TableEEEEEEEDcOT0_ = comdat any

$_ZNSt8__detail9__variant7__get_nILm0ERNS0_15_Variadic_unionIJSt10shared_ptrIN5arrow12ChunkedArrayEES3_INS4_11RecordBatchEES3_INS4_5TableEEEEEEEDcOT0_ = comdat any

$_ZNRSt8__detail9__variant14_UninitializedISt10shared_ptrIN5arrow12ChunkedArrayEELb0EE6_M_getEv = comdat any

$_ZN9__gnu_cxx16__aligned_membufISt10shared_ptrIN5arrow12ChunkedArrayEEE6_M_ptrEv = comdat any

$_ZN9__gnu_cxx16__aligned_membufISt10shared_ptrIN5arrow12ChunkedArrayEEE7_M_addrEv = comdat any

$_ZSt10__invoke_rIvZNSt8__detail9__variant16_Variant_storageILb0EJN5arrow5Datum5EmptyESt10shared_ptrINS3_6ScalarEES6_INS3_9ArrayDataEES6_INS3_12ChunkedArrayEES6_INS3_11RecordBatchEES6_INS3_5TableEEEE8_M_resetEvEUlOT_E_JRSE_EENSt9enable_ifIX16is_invocable_r_vISI_T0_DpT1_EESI_E4typeEOSN_DpOSO_ = comdat any

$_ZNSt8__detail9__variant5__getILm4ERSt7variantIJN5arrow5Datum5EmptyESt10shared_ptrINS3_6ScalarEES6_INS3_9ArrayDataEES6_INS3_12ChunkedArrayEES6_INS3_11RecordBatchEES6_INS3_5TableEEEEEEDcOT0_ = comdat any

$_ZSt13__invoke_implIvZNSt8__detail9__variant16_Variant_storageILb0EJN5arrow5Datum5EmptyESt10shared_ptrINS3_6ScalarEES6_INS3_9ArrayDataEES6_INS3_12ChunkedArrayEES6_INS3_11RecordBatchEES6_INS3_5TableEEEE8_M_resetEvEUlOT_E_JRSE_EESI_St14__invoke_otherOT0_DpOT1_ = comdat any

$_ZZNSt8__detail9__variant16_Variant_storageILb0EJN5arrow5Datum5EmptyESt10shared_ptrINS2_6ScalarEES5_INS2_9ArrayDataEES5_INS2_12ChunkedArrayEES5_INS2_11RecordBatchEES5_INS2_5TableEEEE8_M_resetEvENUlOT_E_clIRSD_EEDaSI_ = comdat any

$_ZSt8_DestroyISt10shared_ptrIN5arrow11RecordBatchEEEvPT_ = comdat any

$_ZNSt10shared_ptrIN5arrow11RecordBatchEED2Ev = comdat any

$_ZNSt12__shared_ptrIN5arrow11RecordBatchELN9__gnu_cxx12_Lock_policyE2EED2Ev = comdat any

$_ZNSt8__detail9__variant7__get_nILm4ERNS0_15_Variadic_unionIJN5arrow5Datum5EmptyESt10shared_ptrINS3_6ScalarEES6_INS3_9ArrayDataEES6_INS3_12ChunkedArrayEES6_INS3_11RecordBatchEES6_INS3_5TableEEEEEEEDcOT0_ = comdat any

$_ZNSt8__detail9__variant7__get_nILm1ERNS0_15_Variadic_unionIJSt10shared_ptrIN5arrow12ChunkedArrayEES3_INS4_11RecordBatchEES3_INS4_5TableEEEEEEEDcOT0_ = comdat any

$_ZNRSt8__detail9__variant14_UninitializedISt10shared_ptrIN5arrow11RecordBatchEELb0EE6_M_getEv = comdat any

$_ZN9__gnu_cxx16__aligned_membufISt10shared_ptrIN5arrow11RecordBatchEEE6_M_ptrEv = comdat any

$_ZN9__gnu_cxx16__aligned_membufISt10shared_ptrIN5arrow11RecordBatchEEE7_M_addrEv = comdat any

$_ZSt10__invoke_rIvZNSt8__detail9__variant16_Variant_storageILb0EJN5arrow5Datum5EmptyESt10shared_ptrINS3_6ScalarEES6_INS3_9ArrayDataEES6_INS3_12ChunkedArrayEES6_INS3_11RecordBatchEES6_INS3_5TableEEEE8_M_resetEvEUlOT_E_JRSG_EENSt9enable_ifIX16is_invocable_r_vISI_T0_DpT1_EESI_E4typeEOSN_DpOSO_ = comdat any

$_ZNSt8__detail9__variant5__getILm5ERSt7variantIJN5arrow5Datum5EmptyESt10shared_ptrINS3_6ScalarEES6_INS3_9ArrayDataEES6_INS3_12ChunkedArrayEES6_INS3_11RecordBatchEES6_INS3_5TableEEEEEEDcOT0_ = comdat any

$_ZSt13__invoke_implIvZNSt8__detail9__variant16_Variant_storageILb0EJN5arrow5Datum5EmptyESt10shared_ptrINS3_6ScalarEES6_INS3_9ArrayDataEES6_INS3_12ChunkedArrayEES6_INS3_11RecordBatchEES6_INS3_5TableEEEE8_M_resetEvEUlOT_E_JRSG_EESI_St14__invoke_otherOT0_DpOT1_ = comdat any

$_ZZNSt8__detail9__variant16_Variant_storageILb0EJN5arrow5Datum5EmptyESt10shared_ptrINS2_6ScalarEES5_INS2_9ArrayDataEES5_INS2_12ChunkedArrayEES5_INS2_11RecordBatchEES5_INS2_5TableEEEE8_M_resetEvENUlOT_E_clIRSF_EEDaSI_ = comdat any

$_ZSt8_DestroyISt10shared_ptrIN5arrow5TableEEEvPT_ = comdat any

$_ZNSt10shared_ptrIN5arrow5TableEED2Ev = comdat any

$_ZNSt12__shared_ptrIN5arrow5TableELN9__gnu_cxx12_Lock_policyE2EED2Ev = comdat any

$_ZNSt8__detail9__variant7__get_nILm5ERNS0_15_Variadic_unionIJN5arrow5Datum5EmptyESt10shared_ptrINS3_6ScalarEES6_INS3_9ArrayDataEES6_INS3_12ChunkedArrayEES6_INS3_11RecordBatchEES6_INS3_5TableEEEEEEEDcOT0_ = comdat any

$_ZNSt8__detail9__variant7__get_nILm2ERNS0_15_Variadic_unionIJSt10shared_ptrIN5arrow12ChunkedArrayEES3_INS4_11RecordBatchEES3_INS4_5TableEEEEEEEDcOT0_ = comdat any

$_ZNRSt8__detail9__variant14_UninitializedISt10shared_ptrIN5arrow5TableEELb0EE6_M_getEv = comdat any

$_ZN9__gnu_cxx16__aligned_membufISt10shared_ptrIN5arrow5TableEEE6_M_ptrEv = comdat any

$_ZN9__gnu_cxx16__aligned_membufISt10shared_ptrIN5arrow5TableEEE7_M_addrEv = comdat any

$_ZNSt7variantIJN5arrow5Datum5EmptyESt10shared_ptrINS0_6ScalarEES3_INS0_9ArrayDataEES3_INS0_12ChunkedArrayEES3_INS0_11RecordBatchEES3_INS0_5TableEEEED2Ev = comdat any

$_ZNSt8__detail9__variant13_Variant_baseIJN5arrow5Datum5EmptyESt10shared_ptrINS2_6ScalarEES5_INS2_9ArrayDataEES5_INS2_12ChunkedArrayEES5_INS2_11RecordBatchEES5_INS2_5TableEEEED2Ev = comdat any

$_ZNSt8__detail9__variant17_Move_assign_baseILb0EJN5arrow5Datum5EmptyESt10shared_ptrINS2_6ScalarEES5_INS2_9ArrayDataEES5_INS2_12ChunkedArrayEES5_INS2_11RecordBatchEES5_INS2_5TableEEEED2Ev = comdat any

$_ZNSt8__detail9__variant17_Copy_assign_baseILb0EJN5arrow5Datum5EmptyESt10shared_ptrINS2_6ScalarEES5_INS2_9ArrayDataEES5_INS2_12ChunkedArrayEES5_INS2_11RecordBatchEES5_INS2_5TableEEEED2Ev = comdat any

$_ZNSt8__detail9__variant15_Move_ctor_baseILb0EJN5arrow5Datum5EmptyESt10shared_ptrINS2_6ScalarEES5_INS2_9ArrayDataEES5_INS2_12ChunkedArrayEES5_INS2_11RecordBatchEES5_INS2_5TableEEEED2Ev = comdat any

$_ZNSt8__detail9__variant15_Copy_ctor_baseILb0EJN5arrow5Datum5EmptyESt10shared_ptrINS2_6ScalarEES5_INS2_9ArrayDataEES5_INS2_12ChunkedArrayEES5_INS2_11RecordBatchEES5_INS2_5TableEEEED2Ev = comdat any

$_ZN5arrow7compute15FunctionOptionsC2ERKS1_ = comdat any

$_ZN5arrow10TypeHolderC2ERKS0_ = comdat any

$_ZNSt10shared_ptrIN5arrow8DataTypeEEC2ERKS2_ = comdat any

$_ZNSt12__shared_ptrIN5arrow8DataTypeELN9__gnu_cxx12_Lock_policyE2EEC2ERKS4_ = comdat any

$_ZNSt10shared_ptrIN5arrow8DataTypeEEaSERKS2_ = comdat any

$_ZNSt12__shared_ptrIN5arrow8DataTypeELN9__gnu_cxx12_Lock_policyE2EEaSERKS4_ = comdat any

$_ZN5arrow10TypeHolderD2Ev = comdat any

$_ZNSt12__shared_ptrIN5arrow5ArrayELN9__gnu_cxx12_Lock_policyE2EED2Ev = comdat any

$_ZNSt6vectorIN5arrow4Type4typeESaIS2_EED2Ev = comdat any

$_ZSt8_DestroyIPN5arrow4Type4typeES2_EvT_S4_RSaIT0_E = comdat any

$_ZNSt12_Vector_baseIN5arrow4Type4typeESaIS2_EE19_M_get_Tp_allocatorEv = comdat any

$_ZNSt12_Vector_baseIN5arrow4Type4typeESaIS2_EED2Ev = comdat any

$_ZSt8_DestroyIPN5arrow4Type4typeEEvT_S4_ = comdat any

$_ZNSt12_Destroy_auxILb1EE9__destroyIPN5arrow4Type4typeEEEvT_S6_ = comdat any

$_ZNSt12_Vector_baseIN5arrow4Type4typeESaIS2_EE13_M_deallocateEPS2_m = comdat any

$_ZNSt12_Vector_baseIN5arrow4Type4typeESaIS2_EE12_Vector_implD2Ev = comdat any

$_ZNSt16allocator_traitsISaIN5arrow4Type4typeEEE10deallocateERS3_PS2_m = comdat any

$_ZNSt15__new_allocatorIN5arrow4Type4typeEE10deallocateEPS2_m = comdat any

$_ZNSaIN5arrow4Type4typeEED2Ev = comdat any

$_ZNSt15__new_allocatorIN5arrow4Type4typeEED2Ev = comdat any

$_ZNSt7__cxx1112basic_stringIcSt11char_traitsIcESaIcEE12_M_constructIPKcEEvT_S8_St20forward_iterator_tag = comdat any

$_ZNSt7__cxx1112basic_stringIcSt11char_traitsIcESaIcEE12_Alloc_hiderD2Ev = comdat any

$_ZSt8distanceIPKcENSt15iterator_traitsIT_E15difference_typeES3_S3_ = comdat any

$_ZZNSt7__cxx1112basic_stringIcSt11char_traitsIcESaIcEE12_M_constructIPKcEEvT_S8_St20forward_iterator_tagEN6_GuardC2EPS4_ = comdat any

$_ZZNSt7__cxx1112basic_stringIcSt11char_traitsIcESaIcEE12_M_constructIPKcEEvT_S8_St20forward_iterator_tagEN6_GuardD2Ev = comdat any

$_ZSt10__distanceIPKcENSt15iterator_traitsIT_E15difference_typeES3_S3_St26random_access_iterator_tag = comdat any

$_ZSt19__iterator_categoryIPKcENSt15iterator_traitsIT_E17iterator_categoryERKS3_ = comdat any

$_ZNSt15__new_allocatorIN5arrow5DatumEED2Ev = comdat any

$_ZSt8_DestroyIPN5arrow5DatumES1_EvT_S3_RSaIT0_E = comdat any

$_ZNSt12_Vector_baseIN5arrow5DatumESaIS1_EE19_M_get_Tp_allocatorEv = comdat any

$_ZNSt12_Vector_baseIN5arrow5DatumESaIS1_EED2Ev = comdat any

$_ZSt8_DestroyIPN5arrow5DatumEEvT_S3_ = comdat any

$_ZNSt12_Destroy_auxILb0EE9__destroyIPN5arrow5DatumEEEvT_S5_ = comdat any

$_ZSt8_DestroyIN5arrow5DatumEEvPT_ = comdat any

$_ZNSt12_Vector_baseIN5arrow5DatumESaIS1_EE13_M_deallocateEPS1_m = comdat any

$_ZNSt12_Vector_baseIN5arrow5DatumESaIS1_EE12_Vector_implD2Ev = comdat any

$_ZNSt16allocator_traitsISaIN5arrow5DatumEEE10deallocateERS2_PS1_m = comdat any

$_ZNSt15__new_allocatorIN5arrow5DatumEE10deallocateEPS1_m = comdat any

$_ZSt8_DestroyIPN5arrow7compute9InputTypeES2_EvT_S4_RSaIT0_E = comdat any

$_ZNSt12_Vector_baseIN5arrow7compute9InputTypeESaIS2_EE19_M_get_Tp_allocatorEv = comdat any

$_ZNSt12_Vector_baseIN5arrow7compute9InputTypeESaIS2_EED2Ev = comdat any

$_ZSt8_DestroyIPN5arrow7compute9InputTypeEEvT_S4_ = comdat any

$_ZNSt12_Destroy_auxILb0EE9__destroyIPN5arrow7compute9InputTypeEEEvT_S6_ = comdat any

$_ZSt8_DestroyIN5arrow7compute9InputTypeEEvPT_ = comdat any

$_ZN5arrow7compute9InputTypeD2Ev = comdat any

$_ZNSt10shared_ptrIN5arrow7compute11TypeMatcherEED2Ev = comdat any

$_ZNSt12__shared_ptrIN5arrow7compute11TypeMatcherELN9__gnu_cxx12_Lock_policyE2EED2Ev = comdat any

$_ZNSt12_Vector_baseIN5arrow7compute9InputTypeESaIS2_EE13_M_deallocateEPS2_m = comdat any

$_ZNSt12_Vector_baseIN5arrow7compute9InputTypeESaIS2_EE12_Vector_implD2Ev = comdat any

$_ZNSt16allocator_traitsISaIN5arrow7compute9InputTypeEEE10deallocateERS3_PS2_m = comdat any

$_ZNSt15__new_allocatorIN5arrow7compute9InputTypeEE10deallocateEPS2_m = comdat any

$_ZNSaIN5arrow7compute9InputTypeEED2Ev = comdat any

$_ZNSt15__new_allocatorIN5arrow7compute9InputTypeEED2Ev = comdat any

$_ZSt8_DestroyIPNSt7__cxx1112basic_stringIcSt11char_traitsIcESaIcEEES5_EvT_S7_RSaIT0_E = comdat any

$_ZNSt15__new_allocatorINSt7__cxx1112basic_stringIcSt11char_traitsIcESaIcEEEEC2Ev = comdat any

$_ZNSt12_Vector_baseINSt7__cxx1112basic_stringIcSt11char_traitsIcESaIcEEESaIS5_EEC2ERKS6_ = comdat any

$_ZNSt6vectorINSt7__cxx1112basic_stringIcSt11char_traitsIcESaIcEEESaIS5_EE19_M_range_initializeIPKS5_EEvT_SB_St20forward_iterator_tag = comdat any

$_ZNKSt16initializer_listINSt7__cxx1112basic_stringIcSt11char_traitsIcESaIcEEEE5beginEv = comdat any

$_ZNKSt16initializer_listINSt7__cxx1112basic_stringIcSt11char_traitsIcESaIcEEEE3endEv = comdat any

$_ZSt8distanceIPKNSt7__cxx1112basic_stringIcSt11char_traitsIcESaIcEEEENSt15iterator_traitsIT_E15difference_typeES9_S9_ = comdat any

$_ZNSt6vectorINSt7__cxx1112basic_stringIcSt11char_traitsIcESaIcEEESaIS5_EE17_S_check_init_lenEmRKS6_ = comdat any

$_ZSt22__uninitialized_copy_aIPKNSt7__cxx1112basic_stringIcSt11char_traitsIcESaIcEEEPS5_S5_ET0_T_SA_S9_RSaIT1_E = comdat any

$_ZSt10__distanceIPKNSt7__cxx1112basic_stringIcSt11char_traitsIcESaIcEEEENSt15iterator_traitsIT_E15difference_typeES9_S9_St26random_access_iterator_tag = comdat any

$_ZSt19__iterator_categoryIPKNSt7__cxx1112basic_stringIcSt11char_traitsIcESaIcEEEENSt15iterator_traitsIT_E17iterator_categoryERKS9_ = comdat any

$_ZNSt6vectorINSt7__cxx1112basic_stringIcSt11char_traitsIcESaIcEEESaIS5_EE11_S_max_sizeERKS6_ = comdat any

$_ZNSt16allocator_traitsISaINSt7__cxx1112basic_stringIcSt11char_traitsIcESaIcEEEEE8max_sizeERKS6_ = comdat any

$_ZSt3minImERKT_S2_S2_ = comdat any

$_ZNKSt15__new_allocatorINSt7__cxx1112basic_stringIcSt11char_traitsIcESaIcEEEE8max_sizeEv = comdat any

$_ZSt18uninitialized_copyIPKNSt7__cxx1112basic_stringIcSt11char_traitsIcESaIcEEEPS5_ET0_T_SA_S9_ = comdat any

$_ZNSt20__uninitialized_copyILb0EE13__uninit_copyIPKNSt7__cxx1112basic_stringIcSt11char_traitsIcESaIcEEEPS7_EET0_T_SC_SB_ = comdat any

$_ZSt16__do_uninit_copyIPKNSt7__cxx1112basic_stringIcSt11char_traitsIcESaIcEEEPS5_ET0_T_SA_S9_ = comdat any

$_ZNKSt16initializer_listINSt7__cxx1112basic_stringIcSt11char_traitsIcESaIcEEEE4sizeEv = comdat any

$_ZN5arrow6ResultINS_5DatumEE7DestroyEv = comdat any

$_ZN5arrow4util18EqualityComparableINS_6ResultINS_5DatumEEEED2Ev = comdat any

$_ZN5arrow8internal14AlignedStorageINS_5DatumEE7destroyEv = comdat any

$_ZN5arrow8internal14AlignedStorageINS_5DatumEE3getEv = comdat any

$_ZSt7launderIN5arrow5DatumEEPT_S3_ = comdat any

$_ZN5arrow8internal14MakePropertiesIJNS0_18DataMemberPropertyINS_7compute11CastOptionsENS_10TypeHolderEEENS2_IS4_bEES7_S7_S7_S7_S7_EEENS0_13PropertyTupleIJDpT_EEESA_ = comdat any

$_ZZN5arrow7compute8internal22GetFunctionOptionsTypeINS0_11CastOptionsEJNS_8internal18DataMemberPropertyIS3_NS_10TypeHolderEEENS5_IS3_bEES8_S8_S8_S8_S8_EEEPKNS0_19FunctionOptionsTypeEDpRKT0_EN11OptionsTypeC2ENS4_13PropertyTupleIJS7_S8_S8_S8_S8_S8_S8_EEE = comdat any

$_ZZN5arrow7compute8internal22GetFunctionOptionsTypeINS0_11CastOptionsEJNS_8internal18DataMemberPropertyIS3_NS_10TypeHolderEEENS5_IS3_bEES8_S8_S8_S8_S8_EEEPKNS0_19FunctionOptionsTypeEDpRKT0_EN11OptionsTypeD2Ev = comdat any

$_ZSt10make_tupleIJRN5arrow8internal18DataMemberPropertyINS0_7compute11CastOptionsENS0_10TypeHolderEEERNS2_IS4_bEES9_S9_S9_S9_S9_EESt5tupleIJDpNSt25__strip_reference_wrapperINSt5decayIT_E4typeEE6__typeEEEDpOSD_ = comdat any

$_ZNSt5tupleIJN5arrow8internal18DataMemberPropertyINS0_7compute11CastOptionsENS0_10TypeHolderEEENS2_IS4_bEES7_S7_S7_S7_S7_EEC2IJRS6_RS7_SB_SB_SB_SB_SB_ELb1ETnNSt9enable_ifIXclsr4_TCCIXT0_EEE29__is_implicitly_constructibleIDpT_EEEbE4typeELb1EEEDpOSD_ = comdat any

$_ZNSt11_Tuple_implILm0EJN5arrow8internal18DataMemberPropertyINS0_7compute11CastOptionsENS0_10TypeHolderEEENS2_IS4_bEES7_S7_S7_S7_S7_EEC2IRS6_JRS7_SB_SB_SB_SB_SB_EvEEOT_DpOT0_ = comdat any

$_ZNSt11_Tuple_implILm1EJN5arrow8internal18DataMemberPropertyINS0_7compute11CastOptionsEbEES5_S5_S5_S5_S5_EEC2IRS5_JS8_S8_S8_S8_S8_EvEEOT_DpOT0_ = comdat any

$_ZNSt10_Head_baseILm0EN5arrow8internal18DataMemberPropertyINS0_7compute11CastOptionsENS0_10TypeHolderEEELb0EEC2IRS6_EEOT_ = comdat any

$_ZNSt11_Tuple_implILm2EJN5arrow8internal18DataMemberPropertyINS0_7compute11CastOptionsEbEES5_S5_S5_S5_EEC2IRS5_JS8_S8_S8_S8_EvEEOT_DpOT0_ = comdat any

$_ZNSt10_Head_baseILm1EN5arrow8internal18DataMemberPropertyINS0_7compute11CastOptionsEbEELb0EEC2IRS5_EEOT_ = comdat any

$_ZNSt11_Tuple_implILm3EJN5arrow8internal18DataMemberPropertyINS0_7compute11CastOptionsEbEES5_S5_S5_EEC2IRS5_JS8_S8_S8_EvEEOT_DpOT0_ = comdat any

$_ZNSt10_Head_baseILm2EN5arrow8internal18DataMemberPropertyINS0_7compute11CastOptionsEbEELb0EEC2IRS5_EEOT_ = comdat any

$_ZNSt11_Tuple_implILm4EJN5arrow8internal18DataMemberPropertyINS0_7compute11CastOptionsEbEES5_S5_EEC2IRS5_JS8_S8_EvEEOT_DpOT0_ = comdat any

$_ZNSt10_Head_baseILm3EN5arrow8internal18DataMemberPropertyINS0_7compute11CastOptionsEbEELb0EEC2IRS5_EEOT_ = comdat any

$_ZNSt11_Tuple_implILm5EJN5arrow8internal18DataMemberPropertyINS0_7compute11CastOptionsEbEES5_EEC2IRS5_JS8_EvEEOT_DpOT0_ = comdat any

$_ZNSt10_Head_baseILm4EN5arrow8internal18DataMemberPropertyINS0_7compute11CastOptionsEbEELb0EEC2IRS5_EEOT_ = comdat any

$_ZNSt11_Tuple_implILm6EJN5arrow8internal18DataMemberPropertyINS0_7compute11CastOptionsEbEEEEC2IRS5_EEOT_ = comdat any

$_ZNSt10_Head_baseILm5EN5arrow8internal18DataMemberPropertyINS0_7compute11CastOptionsEbEELb0EEC2IRS5_EEOT_ = comdat any

$_ZNSt10_Head_baseILm6EN5arrow8internal18DataMemberPropertyINS0_7compute11CastOptionsEbEELb0EEC2IRS5_EEOT_ = comdat any

$_ZN5arrow7compute8internal18GenericOptionsTypeC2Ev = comdat any

$_ZZN5arrow7compute8internal22GetFunctionOptionsTypeINS0_11CastOptionsEJNS_8internal18DataMemberPropertyIS3_NS_10TypeHolderEEENS5_IS3_bEES8_S8_S8_S8_S8_EEEPKNS0_19FunctionOptionsTypeEDpRKT0_EN11OptionsTypeD0Ev = comdat any

$_ZZN5arrow7compute8internal22GetFunctionOptionsTypeINS0_11CastOptionsEJNS_8internal18DataMemberPropertyIS3_NS_10TypeHolderEEENS5_IS3_bEES8_S8_S8_S8_S8_EEEPKNS0_19FunctionOptionsTypeEDpRKT0_ENK11OptionsType9type_nameEv = comdat any

$_ZZN5arrow7compute8internal22GetFunctionOptionsTypeINS0_11CastOptionsEJNS_8internal18DataMemberPropertyIS3_NS_10TypeHolderEEENS5_IS3_bEES8_S8_S8_S8_S8_EEEPKNS0_19FunctionOptionsTypeEDpRKT0_ENK11OptionsType9StringifyB5cxx11ERKNS0_15FunctionOptionsE = comdat any

$_ZZN5arrow7compute8internal22GetFunctionOptionsTypeINS0_11CastOptionsEJNS_8internal18DataMemberPropertyIS3_NS_10TypeHolderEEENS5_IS3_bEES8_S8_S8_S8_S8_EEEPKNS0_19FunctionOptionsTypeEDpRKT0_ENK11OptionsType7CompareERKNS0_15FunctionOptionsESJ_ = comdat any

$_ZZN5arrow7compute8internal22GetFunctionOptionsTypeINS0_11CastOptionsEJNS_8internal18DataMemberPropertyIS3_NS_10TypeHolderEEENS5_IS3_bEES8_S8_S8_S8_S8_EEEPKNS0_19FunctionOptionsTypeEDpRKT0_ENK11OptionsType4CopyERKNS0_15FunctionOptionsE = comdat any

$_ZZN5arrow7compute8internal22GetFunctionOptionsTypeINS0_11CastOptionsEJNS_8internal18DataMemberPropertyIS3_NS_10TypeHolderEEENS5_IS3_bEES8_S8_S8_S8_S8_EEEPKNS0_19FunctionOptionsTypeEDpRKT0_ENK11OptionsType14ToStructScalarERKNS0_15FunctionOptionsEPSt6vectorINSt7__cxx1112basic_stringIcSt11char_traitsIcESaIcEEESaISQ_EEPSK_ISt10shared_ptrINS_6ScalarEESaISW_EE = comdat any

$_ZZN5arrow7compute8internal22GetFunctionOptionsTypeINS0_11CastOptionsEJNS_8internal18DataMemberPropertyIS3_NS_10TypeHolderEEENS5_IS3_bEES8_S8_S8_S8_S8_EEEPKNS0_19FunctionOptionsTypeEDpRKT0_ENK11OptionsType16FromStructScalarERKNS_12StructScalarE = comdat any

$_ZN5arrow7compute19FunctionOptionsTypeC2Ev = comdat any

$_ZN5arrow8internal12checked_castIRKNS_7compute11CastOptionsERKNS2_15FunctionOptionsEEET_OT0_ = comdat any

$_ZN5arrow7compute8internal13StringifyImplINS0_11CastOptionsEEC2INS_8internal13PropertyTupleIJNS6_18DataMemberPropertyIS3_NS_10TypeHolderEEENS8_IS3_bEESB_SB_SB_SB_SB_EEEEERKS3_RKT_ = comdat any

$_ZN5arrow7compute8internal13StringifyImplINS0_11CastOptionsEE6FinishB5cxx11Ev = comdat any

$_ZN5arrow7compute8internal13StringifyImplINS0_11CastOptionsEED2Ev = comdat any

$_ZNK5arrow8internal13PropertyTupleIJNS0_18DataMemberPropertyINS_7compute11CastOptionsENS_10TypeHolderEEENS2_IS4_bEES7_S7_S7_S7_S7_EE4sizeEv = comdat any

$_ZNSt6vectorINSt7__cxx1112basic_stringIcSt11char_traitsIcESaIcEEESaIS5_EEC2EmRKS6_ = comdat any

$_ZNK5arrow8internal13PropertyTupleIJNS0_18DataMemberPropertyINS_7compute11CastOptionsENS_10TypeHolderEEENS2_IS4_bEES7_S7_S7_S7_S7_EE7ForEachIRNS3_8internal13StringifyImplIS4_EEEEvOT_ = comdat any

$_ZNSt6vectorINSt7__cxx1112basic_stringIcSt11char_traitsIcESaIcEEESaIS5_EE21_M_default_initializeEm = comdat any

$_ZSt27__uninitialized_default_n_aIPNSt7__cxx1112basic_stringIcSt11char_traitsIcESaIcEEEmS5_ET_S7_T0_RSaIT1_E = comdat any

$_ZSt25__uninitialized_default_nIPNSt7__cxx1112basic_stringIcSt11char_traitsIcESaIcEEEmET_S7_T0_ = comdat any

$_ZNSt27__uninitialized_default_n_1ILb0EE18__uninit_default_nIPNSt7__cxx1112basic_stringIcSt11char_traitsIcESaIcEEEmEET_S9_T0_ = comdat any

$_ZSt10_ConstructINSt7__cxx1112basic_stringIcSt11char_traitsIcESaIcEEEJEEvPT_DpOT0_ = comdat any

$_ZN5arrow8internal18ForEachTupleMemberIJNS0_18DataMemberPropertyINS_7compute11CastOptionsENS_10TypeHolderEEENS2_IS4_bEES7_S7_S7_S7_S7_ERNS3_8internal13StringifyImplIS4_EEEEvRKSt5tupleIJDpT_EEOT0_ = comdat any

$_ZN5arrow8internal22ForEachTupleMemberImplIJLm0ELm1ELm2ELm3ELm4ELm5ELm6EEJNS0_18DataMemberPropertyINS_7compute11CastOptionsENS_10TypeHolderEEENS2_IS4_bEES7_S7_S7_S7_S7_ERNS3_8internal13StringifyImplIS4_EEEEvRKSt5tupleIJDpT0_EEOT1_St16integer_sequenceImJXspT_EEE = comdat any

$_ZN5arrow7compute8internal13StringifyImplINS0_11CastOptionsEEclINS_8internal18DataMemberPropertyIS3_NS_10TypeHolderEEEEEvRKT_m = comdat any

$_ZSt3getILm0EJN5arrow8internal18DataMemberPropertyINS0_7compute11CastOptionsENS0_10TypeHolderEEENS2_IS4_bEES7_S7_S7_S7_S7_EERKNSt13tuple_elementIXT_ESt5tupleIJDpT0_EEE4typeERKSC_ = comdat any

$_ZN5arrow7compute8internal13StringifyImplINS0_11CastOptionsEEclINS_8internal18DataMemberPropertyIS3_bEEEEvRKT_m = comdat any

$_ZSt3getILm1EJN5arrow8internal18DataMemberPropertyINS0_7compute11CastOptionsENS0_10TypeHolderEEENS2_IS4_bEES7_S7_S7_S7_S7_EERKNSt13tuple_elementIXT_ESt5tupleIJDpT0_EEE4typeERKSC_ = comdat any

$_ZSt3getILm2EJN5arrow8internal18DataMemberPropertyINS0_7compute11CastOptionsENS0_10TypeHolderEEENS2_IS4_bEES7_S7_S7_S7_S7_EERKNSt13tuple_elementIXT_ESt5tupleIJDpT0_EEE4typeERKSC_ = comdat any

$_ZSt3getILm3EJN5arrow8internal18DataMemberPropertyINS0_7compute11CastOptionsENS0_10TypeHolderEEENS2_IS4_bEES7_S7_S7_S7_S7_EERKNSt13tuple_elementIXT_ESt5tupleIJDpT0_EEE4typeERKSC_ = comdat any

$_ZSt3getILm4EJN5arrow8internal18DataMemberPropertyINS0_7compute11CastOptionsENS0_10TypeHolderEEENS2_IS4_bEES7_S7_S7_S7_S7_EERKNSt13tuple_elementIXT_ESt5tupleIJDpT0_EEE4typeERKSC_ = comdat any

$_ZSt3getILm5EJN5arrow8internal18DataMemberPropertyINS0_7compute11CastOptionsENS0_10TypeHolderEEENS2_IS4_bEES7_S7_S7_S7_S7_EERKNSt13tuple_elementIXT_ESt5tupleIJDpT0_EEE4typeERKSC_ = comdat any

$_ZSt3getILm6EJN5arrow8internal18DataMemberPropertyINS0_7compute11CastOptionsENS0_10TypeHolderEEENS2_IS4_bEES7_S7_S7_S7_S7_EERKNSt13tuple_elementIXT_ESt5tupleIJDpT0_EEE4typeERKSC_ = comdat any

$_ZStlsIcSt11char_traitsIcEERSt13basic_ostreamIT_T0_ES6_St17basic_string_viewIS3_S4_E = comdat any

$_ZNK5arrow8internal18DataMemberPropertyINS_7compute11CastOptionsENS_10TypeHolderEE4nameEv = comdat any

$_ZNK5arrow8internal18DataMemberPropertyINS_7compute11CastOptionsENS_10TypeHolderEE3getERKS3_ = comdat any

$_ZNSt6vectorINSt7__cxx1112basic_stringIcSt11char_traitsIcESaIcEEESaIS5_EEixEm = comdat any

$_ZNKSt17basic_string_viewIcSt11char_traitsIcEE4dataEv = comdat any

$_ZNKSt17basic_string_viewIcSt11char_traitsIcEE4sizeEv = comdat any

$_ZSt12__get_helperILm0EN5arrow8internal18DataMemberPropertyINS0_7compute11CastOptionsENS0_10TypeHolderEEEJNS2_IS4_bEES7_S7_S7_S7_S7_EERKT0_RKSt11_Tuple_implIXT_EJS8_DpT1_EE = comdat any

$_ZNSt11_Tuple_implILm0EJN5arrow8internal18DataMemberPropertyINS0_7compute11CastOptionsENS0_10TypeHolderEEENS2_IS4_bEES7_S7_S7_S7_S7_EE7_M_headERKS8_ = comdat any

$_ZNSt10_Head_baseILm0EN5arrow8internal18DataMemberPropertyINS0_7compute11CastOptionsENS0_10TypeHolderEEELb0EE7_M_headERKS7_ = comdat any

$_ZNK5arrow8internal18DataMemberPropertyINS_7compute11CastOptionsEbE4nameEv = comdat any

$_ZNK5arrow8internal18DataMemberPropertyINS_7compute11CastOptionsEbE3getERKS3_ = comdat any

$_ZSt12__get_helperILm1EN5arrow8internal18DataMemberPropertyINS0_7compute11CastOptionsEbEEJS5_S5_S5_S5_S5_EERKT0_RKSt11_Tuple_implIXT_EJS6_DpT1_EE = comdat any

$_ZNSt11_Tuple_implILm1EJN5arrow8internal18DataMemberPropertyINS0_7compute11CastOptionsEbEES5_S5_S5_S5_S5_EE7_M_headERKS6_ = comdat any

$_ZNSt10_Head_baseILm1EN5arrow8internal18DataMemberPropertyINS0_7compute11CastOptionsEbEELb0EE7_M_headERKS6_ = comdat any

$_ZSt12__get_helperILm2EN5arrow8internal18DataMemberPropertyINS0_7compute11CastOptionsEbEEJS5_S5_S5_S5_EERKT0_RKSt11_Tuple_implIXT_EJS6_DpT1_EE = comdat any

$_ZNSt11_Tuple_implILm2EJN5arrow8internal18DataMemberPropertyINS0_7compute11CastOptionsEbEES5_S5_S5_S5_EE7_M_headERKS6_ = comdat any

$_ZNSt10_Head_baseILm2EN5arrow8internal18DataMemberPropertyINS0_7compute11CastOptionsEbEELb0EE7_M_headERKS6_ = comdat any

$_ZSt12__get_helperILm3EN5arrow8internal18DataMemberPropertyINS0_7compute11CastOptionsEbEEJS5_S5_S5_EERKT0_RKSt11_Tuple_implIXT_EJS6_DpT1_EE = comdat any

$_ZNSt11_Tuple_implILm3EJN5arrow8internal18DataMemberPropertyINS0_7compute11CastOptionsEbEES5_S5_S5_EE7_M_headERKS6_ = comdat any

$_ZNSt10_Head_baseILm3EN5arrow8internal18DataMemberPropertyINS0_7compute11CastOptionsEbEELb0EE7_M_headERKS6_ = comdat any

$_ZSt12__get_helperILm4EN5arrow8internal18DataMemberPropertyINS0_7compute11CastOptionsEbEEJS5_S5_EERKT0_RKSt11_Tuple_implIXT_EJS6_DpT1_EE = comdat any

$_ZNSt11_Tuple_implILm4EJN5arrow8internal18DataMemberPropertyINS0_7compute11CastOptionsEbEES5_S5_EE7_M_headERKS6_ = comdat any

$_ZNSt10_Head_baseILm4EN5arrow8internal18DataMemberPropertyINS0_7compute11CastOptionsEbEELb0EE7_M_headERKS6_ = comdat any

$_ZSt12__get_helperILm5EN5arrow8internal18DataMemberPropertyINS0_7compute11CastOptionsEbEEJS5_EERKT0_RKSt11_Tuple_implIXT_EJS6_DpT1_EE = comdat any

$_ZNSt11_Tuple_implILm5EJN5arrow8internal18DataMemberPropertyINS0_7compute11CastOptionsEbEES5_EE7_M_headERKS6_ = comdat any

$_ZNSt10_Head_baseILm5EN5arrow8internal18DataMemberPropertyINS0_7compute11CastOptionsEbEELb0EE7_M_headERKS6_ = comdat any

$_ZSt12__get_helperILm6EN5arrow8internal18DataMemberPropertyINS0_7compute11CastOptionsEbEEJEERKT0_RKSt11_Tuple_implIXT_EJS6_DpT1_EE = comdat any

$_ZNSt11_Tuple_implILm6EJN5arrow8internal18DataMemberPropertyINS0_7compute11CastOptionsEbEEEE7_M_headERKS6_ = comdat any

$_ZNSt10_Head_baseILm6EN5arrow8internal18DataMemberPropertyINS0_7compute11CastOptionsEbEELb0EE7_M_headERKS6_ = comdat any

$_ZStplIcSt11char_traitsIcESaIcEENSt7__cxx1112basic_stringIT_T0_T1_EEOS8_PKS5_ = comdat any

$_ZStplIcSt11char_traitsIcESaIcEENSt7__cxx1112basic_stringIT_T0_T1_EEPKS5_OS8_ = comdat any

$_ZN5arrow7compute8internal11CompareImplINS0_11CastOptionsEEC2INS_8internal13PropertyTupleIJNS6_18DataMemberPropertyIS3_NS_10TypeHolderEEENS8_IS3_bEESB_SB_SB_SB_SB_EEEEERKS3_SE_RKT_ = comdat any

$_ZNK5arrow8internal13PropertyTupleIJNS0_18DataMemberPropertyINS_7compute11CastOptionsENS_10TypeHolderEEENS2_IS4_bEES7_S7_S7_S7_S7_EE7ForEachIRNS3_8internal11CompareImplIS4_EEEEvOT_ = comdat any

$_ZN5arrow8internal18ForEachTupleMemberIJNS0_18DataMemberPropertyINS_7compute11CastOptionsENS_10TypeHolderEEENS2_IS4_bEES7_S7_S7_S7_S7_ERNS3_8internal11CompareImplIS4_EEEEvRKSt5tupleIJDpT_EEOT0_ = comdat any

$_ZN5arrow8internal22ForEachTupleMemberImplIJLm0ELm1ELm2ELm3ELm4ELm5ELm6EEJNS0_18DataMemberPropertyINS_7compute11CastOptionsENS_10TypeHolderEEENS2_IS4_bEES7_S7_S7_S7_S7_ERNS3_8internal11CompareImplIS4_EEEEvRKSt5tupleIJDpT0_EEOT1_St16integer_sequenceImJXspT_EEE = comdat any

$_ZN5arrow7compute8internal11CompareImplINS0_11CastOptionsEEclINS_8internal18DataMemberPropertyIS3_NS_10TypeHolderEEEEEvRKT_m = comdat any

$_ZN5arrow7compute8internal11CompareImplINS0_11CastOptionsEEclINS_8internal18DataMemberPropertyIS3_bEEEEvRKT_m = comdat any

$_ZNK5arrow10TypeHoldereqERKS0_ = comdat any

$_ZSt11make_uniqueIN5arrow7compute11CastOptionsEJEENSt8__detail9_MakeUniqIT_E15__single_objectEDpOT0_ = comdat any

$_ZNKSt10unique_ptrIN5arrow7compute11CastOptionsESt14default_deleteIS2_EE3getEv = comdat any

$_ZN5arrow7compute8internal8CopyImplINS0_11CastOptionsEEC2INS_8internal13PropertyTupleIJNS6_18DataMemberPropertyIS3_NS_10TypeHolderEEENS8_IS3_bEESB_SB_SB_SB_SB_EEEEEPS3_RKS3_RKT_ = comdat any

$_ZNSt10unique_ptrIN5arrow7compute15FunctionOptionsESt14default_deleteIS2_EEC2INS1_11CastOptionsES3_IS7_EvEEOS_IT_T0_E = comdat any

$_ZNSt10unique_ptrIN5arrow7compute11CastOptionsESt14default_deleteIS2_EED2Ev = comdat any

$_ZNSt10unique_ptrIN5arrow7compute11CastOptionsESt14default_deleteIS2_EEC2IS4_vEEPS2_ = comdat any

$_ZNSt15__uniq_ptr_dataIN5arrow7compute11CastOptionsESt14default_deleteIS2_ELb1ELb1EECI2St15__uniq_ptr_implIS2_S4_EEPS2_ = comdat any

$_ZNSt15__uniq_ptr_implIN5arrow7compute11CastOptionsESt14default_deleteIS2_EEC2EPS2_ = comdat any

$_ZNSt5tupleIJPN5arrow7compute11CastOptionsESt14default_deleteIS2_EEEC2ILb1ETnNSt9enable_ifIXclsr17_TupleConstraintsIXT_ES3_S5_EE37__is_implicitly_default_constructibleEEbE4typeELb1EEEv = comdat any

$_ZNSt15__uniq_ptr_implIN5arrow7compute11CastOptionsESt14default_deleteIS2_EE6_M_ptrEv = comdat any

$_ZNSt11_Tuple_implILm0EJPN5arrow7compute11CastOptionsESt14default_deleteIS2_EEEC2Ev = comdat any

$_ZNSt11_Tuple_implILm1EJSt14default_deleteIN5arrow7compute11CastOptionsEEEEC2Ev = comdat any

$_ZNSt10_Head_baseILm0EPN5arrow7compute11CastOptionsELb0EEC2Ev = comdat any

$_ZNSt10_Head_baseILm1ESt14default_deleteIN5arrow7compute11CastOptionsEELb1EEC2Ev = comdat any

$_ZSt3getILm0EJPN5arrow7compute11CastOptionsESt14default_deleteIS2_EEERNSt13tuple_elementIXT_ESt5tupleIJDpT0_EEE4typeERSA_ = comdat any

$_ZSt12__get_helperILm0EPN5arrow7compute11CastOptionsEJSt14default_deleteIS2_EEERT0_RSt11_Tuple_implIXT_EJS6_DpT1_EE = comdat any

$_ZNSt11_Tuple_implILm0EJPN5arrow7compute11CastOptionsESt14default_deleteIS2_EEE7_M_headERS6_ = comdat any

$_ZNSt10_Head_baseILm0EPN5arrow7compute11CastOptionsELb0EE7_M_headERS4_ = comdat any

$_ZNKSt15__uniq_ptr_implIN5arrow7compute11CastOptionsESt14default_deleteIS2_EE6_M_ptrEv = comdat any

$_ZSt3getILm0EJPN5arrow7compute11CastOptionsESt14default_deleteIS2_EEERKNSt13tuple_elementIXT_ESt5tupleIJDpT0_EEE4typeERKSA_ = comdat any

$_ZSt12__get_helperILm0EPN5arrow7compute11CastOptionsEJSt14default_deleteIS2_EEERKT0_RKSt11_Tuple_implIXT_EJS6_DpT1_EE = comdat any

$_ZNSt11_Tuple_implILm0EJPN5arrow7compute11CastOptionsESt14default_deleteIS2_EEE7_M_headERKS6_ = comdat any

$_ZNSt10_Head_baseILm0EPN5arrow7compute11CastOptionsELb0EE7_M_headERKS4_ = comdat any

$_ZNK5arrow8internal13PropertyTupleIJNS0_18DataMemberPropertyINS_7compute11CastOptionsENS_10TypeHolderEEENS2_IS4_bEES7_S7_S7_S7_S7_EE7ForEachIRNS3_8internal8CopyImplIS4_EEEEvOT_ = comdat any

$_ZN5arrow8internal18ForEachTupleMemberIJNS0_18DataMemberPropertyINS_7compute11CastOptionsENS_10TypeHolderEEENS2_IS4_bEES7_S7_S7_S7_S7_ERNS3_8internal8CopyImplIS4_EEEEvRKSt5tupleIJDpT_EEOT0_ = comdat any

$_ZN5arrow8internal22ForEachTupleMemberImplIJLm0ELm1ELm2ELm3ELm4ELm5ELm6EEJNS0_18DataMemberPropertyINS_7compute11CastOptionsENS_10TypeHolderEEENS2_IS4_bEES7_S7_S7_S7_S7_ERNS3_8internal8CopyImplIS4_EEEEvRKSt5tupleIJDpT0_EEOT1_St16integer_sequenceImJXspT_EEE = comdat any

$_ZN5arrow7compute8internal8CopyImplINS0_11CastOptionsEEclINS_8internal18DataMemberPropertyIS3_NS_10TypeHolderEEEEEvRKT_m = comdat any

$_ZN5arrow7compute8internal8CopyImplINS0_11CastOptionsEEclINS_8internal18DataMemberPropertyIS3_bEEEEvRKT_m = comdat any

$_ZNK5arrow8internal18DataMemberPropertyINS_7compute11CastOptionsENS_10TypeHolderEE3setEPS3_S4_ = comdat any

$_ZN5arrow10TypeHolderaSEOS0_ = comdat any

$_ZNK5arrow8internal18DataMemberPropertyINS_7compute11CastOptionsEbE3setEPS3_b = comdat any

$_ZNSt10unique_ptrIN5arrow7compute11CastOptionsESt14default_deleteIS2_EE7releaseEv = comdat any

$_ZNSt10unique_ptrIN5arrow7compute11CastOptionsESt14default_deleteIS2_EE11get_deleterEv = comdat any

$_ZNSt15__uniq_ptr_dataIN5arrow7compute15FunctionOptionsESt14default_deleteIS2_ELb1ELb1EECI2St15__uniq_ptr_implIS2_S4_EIS3_INS1_11CastOptionsEEEEPS2_OT_ = comdat any

$_ZNSt15__uniq_ptr_implIN5arrow7compute11CastOptionsESt14default_deleteIS2_EE7releaseEv = comdat any

$_ZNSt15__uniq_ptr_implIN5arrow7compute11CastOptionsESt14default_deleteIS2_EE10_M_deleterEv = comdat any

$_ZSt3getILm1EJPN5arrow7compute11CastOptionsESt14default_deleteIS2_EEERNSt13tuple_elementIXT_ESt5tupleIJDpT0_EEE4typeERSA_ = comdat any

$_ZSt12__get_helperILm1ESt14default_deleteIN5arrow7compute11CastOptionsEEJEERT0_RSt11_Tuple_implIXT_EJS5_DpT1_EE = comdat any

$_ZNSt11_Tuple_implILm1EJSt14default_deleteIN5arrow7compute11CastOptionsEEEE7_M_headERS5_ = comdat any

$_ZNSt10_Head_baseILm1ESt14default_deleteIN5arrow7compute11CastOptionsEELb1EE7_M_headERS5_ = comdat any

$_ZNSt15__uniq_ptr_implIN5arrow7compute15FunctionOptionsESt14default_deleteIS2_EEC2IS3_INS1_11CastOptionsEEEEPS2_OT_ = comdat any

$_ZNSt5tupleIJPN5arrow7compute15FunctionOptionsESt14default_deleteIS2_EEEC2IRS3_S4_INS1_11CastOptionsEETnNSt9enable_ifIXclsr4_TCCIXntcl14__is_alloc_argIT_EEEEE29__is_implicitly_constructibleISC_T0_EEEbE4typeELb1EEEOSC_OSD_ = comdat any

$_ZNSt11_Tuple_implILm0EJPN5arrow7compute15FunctionOptionsESt14default_deleteIS2_EEEC2IRS3_JS4_INS1_11CastOptionsEEEvEEOT_DpOT0_ = comdat any

$_ZNSt11_Tuple_implILm1EJSt14default_deleteIN5arrow7compute15FunctionOptionsEEEEC2IS0_INS2_11CastOptionsEEEEOT_ = comdat any

$_ZNSt10_Head_baseILm0EPN5arrow7compute15FunctionOptionsELb0EEC2IRS3_EEOT_ = comdat any

$_ZNSt10_Head_baseILm1ESt14default_deleteIN5arrow7compute15FunctionOptionsEELb1EEC2IS0_INS2_11CastOptionsEEEEOT_ = comdat any

$_ZNSt14default_deleteIN5arrow7compute15FunctionOptionsEEC2INS1_11CastOptionsEvEERKS_IT_E = comdat any

$_ZNKSt14default_deleteIN5arrow7compute11CastOptionsEEclEPS2_ = comdat any

$_ZN5arrow7compute8internal18ToStructScalarImplINS0_11CastOptionsEEC2INS_8internal13PropertyTupleIJNS6_18DataMemberPropertyIS3_NS_10TypeHolderEEENS8_IS3_bEESB_SB_SB_SB_SB_EEEEERKS3_RKT_PSt6vectorINSt7__cxx1112basic_stringIcSt11char_traitsIcESaIcEEESaISO_EEPSI_ISt10shared_ptrINS_6ScalarEESaISU_EE = comdat any

$_ZN5arrow7compute8internal18ToStructScalarImplINS0_11CastOptionsEED2Ev = comdat any

$_ZNK5arrow8internal13PropertyTupleIJNS0_18DataMemberPropertyINS_7compute11CastOptionsENS_10TypeHolderEEENS2_IS4_bEES7_S7_S7_S7_S7_EE7ForEachIRNS3_8internal18ToStructScalarImplIS4_EEEEvOT_ = comdat any

$_ZN5arrow8internal18ForEachTupleMemberIJNS0_18DataMemberPropertyINS_7compute11CastOptionsENS_10TypeHolderEEENS2_IS4_bEES7_S7_S7_S7_S7_ERNS3_8internal18ToStructScalarImplIS4_EEEEvRKSt5tupleIJDpT_EEOT0_ = comdat any

$_ZN5arrow8internal22ForEachTupleMemberImplIJLm0ELm1ELm2ELm3ELm4ELm5ELm6EEJNS0_18DataMemberPropertyINS_7compute11CastOptionsENS_10TypeHolderEEENS2_IS4_bEES7_S7_S7_S7_S7_ERNS3_8internal18ToStructScalarImplIS4_EEEEvRKSt5tupleIJDpT0_EEOT1_St16integer_sequenceImJXspT_EEE = comdat any

$_ZN5arrow7compute8internal18ToStructScalarImplINS0_11CastOptionsEEclINS_8internal18DataMemberPropertyIS3_NS_10TypeHolderEEEEEvRKT_m = comdat any

$_ZN5arrow7compute8internal18ToStructScalarImplINS0_11CastOptionsEEclINS_8internal18DataMemberPropertyIS3_bEEEEvRKT_m = comdat any

$_ZNK5arrow6ResultISt10shared_ptrINS_6ScalarEEE2okEv = comdat any

$_ZNK5arrow6ResultISt10shared_ptrINS_6ScalarEEE6statusEv = comdat any

$_ZNK5arrow6Status11WithMessageIJRA27_KcSt17basic_string_viewIcSt11char_traitsIcEERA18_S2_RA12_S2_RA3_S2_RKNSt7__cxx1112basic_stringIcS7_SaIcEEEEEES0_DpOT_ = comdat any

$_ZNK5arrow6Status7messageB5cxx11Ev = comdat any

$_ZN5arrow6StatusaSEOS0_ = comdat any

$_ZNSt6vectorINSt7__cxx1112basic_stringIcSt11char_traitsIcESaIcEEESaIS5_EE12emplace_backIJSt17basic_string_viewIcS3_EEEERS5_DpOT_ = comdat any

$_ZNSt6vectorISt10shared_ptrIN5arrow6ScalarEESaIS3_EE9push_backEOS3_ = comdat any

$_ZN5arrow6ResultISt10shared_ptrINS_6ScalarEEE15MoveValueUnsafeEv = comdat any

$_ZN5arrow6ResultISt10shared_ptrINS_6ScalarEEED2Ev = comdat any

$_ZNK5arrow10TypeHolder12GetSharedPtrEv = comdat any

$_ZNKSt12__shared_ptrIN5arrow8DataTypeELN9__gnu_cxx12_Lock_policyE2EEcvbEv = comdat any

$_ZN5arrow6Status7InvalidIJRA32_KcEEES0_DpOT_ = comdat any

$_ZN5arrow6ResultISt10shared_ptrINS_6ScalarEEEC2ERKNS_6StatusE = comdat any

$_ZN5arrow6ResultISt10shared_ptrINS_6ScalarEEEC2EOS3_ = comdat any

$_ZN5arrow6Status8FromArgsIJRA32_KcEEES0_NS_10StatusCodeEDpOT_ = comdat any

$_ZN5arrow4util13StringBuilderIJRA32_KcEEENSt7__cxx1112basic_stringIcSt11char_traitsIcESaIcEEEDpOT_ = comdat any

$_ZN5arrow4util22StringBuilderRecursiveIRA32_KcEEvRSoOT_ = comdat any

$_ZN5arrow4util6detail19StringStreamWrapper6streamEv = comdat any

$_ZN5arrow6StatusC2ERKS0_ = comdat any

$_ZStplIcSt11char_traitsIcESaIcEENSt7__cxx1112basic_stringIT_T0_T1_EEOS8_S9_ = comdat any

$_ZN5arrow6Status5StateC2ERKS1_ = comdat any

$_ZNSt10shared_ptrIN5arrow12StatusDetailEEC2ERKS2_ = comdat any

$_ZNSt12__shared_ptrIN5arrow12StatusDetailELN9__gnu_cxx12_Lock_policyE2EEC2ERKS4_ = comdat any

$_ZN5arrow6ResultISt10shared_ptrINS_6ScalarEEE14ConstructValueIS3_EEvOT_ = comdat any

$_ZN5arrow8internal14AlignedStorageISt10shared_ptrINS_6ScalarEEE9constructIJS4_EEEvDpOT_ = comdat any

$_ZNSt10shared_ptrIN5arrow6ScalarEEC2EOS2_ = comdat any

$_ZNSt12__shared_ptrIN5arrow6ScalarELN9__gnu_cxx12_Lock_policyE2EEC2EOS4_ = comdat any

$_ZNK5arrow8DataType12GetSharedPtrEv = comdat any

$_ZNSt10shared_ptrIN5arrow8DataTypeEEC2EDn = comdat any

$_ZNSt23enable_shared_from_thisIN5arrow8DataTypeEE16shared_from_thisEv = comdat any

$_ZNSt10shared_ptrIN5arrow8DataTypeEEC2IS1_vEERKSt8weak_ptrIT_E = comdat any

$_ZNSt12__shared_ptrIN5arrow8DataTypeELN9__gnu_cxx12_Lock_policyE2EEC2IS1_vEERKSt10__weak_ptrIT_LS3_2EE = comdat any

$_ZNSt14__shared_countILN9__gnu_cxx12_Lock_policyE2EEC2ERKSt12__weak_countILS1_2EE = comdat any

$_ZNSt16_Sp_counted_baseILN9__gnu_cxx12_Lock_policyE2EE23_M_add_ref_lock_nothrowEv = comdat any

$_ZSt20__throw_bad_weak_ptrv = comdat any

$_ZNKSt16_Sp_counted_baseILN9__gnu_cxx12_Lock_policyE2EE16_M_get_use_countEv = comdat any

$_ZNSt12bad_weak_ptrC2Ev = comdat any

$_ZNSt9exceptionC2Ev = comdat any

$_ZN5arrow6Status8FromArgsIJRA27_KcSt17basic_string_viewIcSt11char_traitsIcEERA18_S2_RA12_S2_RA3_S2_RKNSt7__cxx1112basic_stringIcS7_SaIcEEEEEES0_NS_10StatusCodeEDpOT_ = comdat any

$_ZNK5arrow6Status4codeEv = comdat any

$_ZNK5arrow6Status10WithDetailESt10shared_ptrINS_12StatusDetailEE = comdat any

$_ZNK5arrow6Status6detailEv = comdat any

$_ZN5arrow4util13StringBuilderIJRA27_KcSt17basic_string_viewIcSt11char_traitsIcEERA18_S2_RA12_S2_RA3_S2_RKNSt7__cxx1112basic_stringIcS7_SaIcEEEEEESI_DpOT_ = comdat any

$_ZN5arrow4util22StringBuilderRecursiveIRA27_KcJSt17basic_string_viewIcSt11char_traitsIcEERA18_S2_RA12_S2_RA3_S2_RKNSt7__cxx1112basic_stringIcS7_SaIcEEEEEEvRSoOT_DpOT0_ = comdat any

$_ZN5arrow4util22StringBuilderRecursiveIRA27_KcEEvRSoOT_ = comdat any

$_ZN5arrow4util22StringBuilderRecursiveISt17basic_string_viewIcSt11char_traitsIcEEJRA18_KcRA12_S6_RA3_S6_RKNSt7__cxx1112basic_stringIcS4_SaIcEEEEEEvRSoOT_DpOT0_ = comdat any

$_ZN5arrow4util22StringBuilderRecursiveISt17basic_string_viewIcSt11char_traitsIcEEEEvRSoOT_ = comdat any

$_ZN5arrow4util22StringBuilderRecursiveIRA18_KcJRA12_S2_RA3_S2_RKNSt7__cxx1112basic_stringIcSt11char_traitsIcESaIcEEEEEEvRSoOT_DpOT0_ = comdat any

$_ZN5arrow4util22StringBuilderRecursiveIRA18_KcEEvRSoOT_ = comdat any

$_ZN5arrow4util22StringBuilderRecursiveIRA12_KcJRA3_S2_RKNSt7__cxx1112basic_stringIcSt11char_traitsIcESaIcEEEEEEvRSoOT_DpOT0_ = comdat any

$_ZN5arrow4util22StringBuilderRecursiveIRA12_KcEEvRSoOT_ = comdat any

$_ZN5arrow4util22StringBuilderRecursiveIRA3_KcJRKNSt7__cxx1112basic_stringIcSt11char_traitsIcESaIcEEEEEEvRSoOT_DpOT0_ = comdat any

$_ZN5arrow4util22StringBuilderRecursiveIRA3_KcEEvRSoOT_ = comdat any

$_ZN5arrow4util22StringBuilderRecursiveIRKNSt7__cxx1112basic_stringIcSt11char_traitsIcESaIcEEEEEvRSoOT_ = comdat any

$_ZNSt10shared_ptrIN5arrow12StatusDetailEEC2EOS2_ = comdat any

$_ZNSt12__shared_ptrIN5arrow12StatusDetailELN9__gnu_cxx12_Lock_policyE2EEC2EOS4_ = comdat any

$_ZN5arrow6Status8MoveFromERS0_ = comdat any

$_ZNSt16allocator_traitsISaINSt7__cxx1112basic_stringIcSt11char_traitsIcESaIcEEEEE9constructIS5_JSt17basic_string_viewIcS3_EEEEvRS6_PT_DpOT0_ = comdat any

$_ZNSt6vectorINSt7__cxx1112basic_stringIcSt11char_traitsIcESaIcEEESaIS5_EE17_M_realloc_insertIJSt17basic_string_viewIcS3_EEEEvN9__gnu_cxx17__normal_iteratorIPS5_S7_EEDpOT_ = comdat any

$_ZNSt6vectorINSt7__cxx1112basic_stringIcSt11char_traitsIcESaIcEEESaIS5_EE3endEv = comdat any

$_ZNSt6vectorINSt7__cxx1112basic_stringIcSt11char_traitsIcESaIcEEESaIS5_EE4backEv = comdat any

$_ZNSt15__new_allocatorINSt7__cxx1112basic_stringIcSt11char_traitsIcESaIcEEEE9constructIS5_JSt17basic_string_viewIcS3_EEEEvPT_DpOT0_ = comdat any

$_ZNSt7__cxx1112basic_stringIcSt11char_traitsIcESaIcEEC2ISt17basic_string_viewIcS2_EvEERKT_RKS3_ = comdat any

$_ZNKSt6vectorINSt7__cxx1112basic_stringIcSt11char_traitsIcESaIcEEESaIS5_EE12_M_check_lenEmPKc = comdat any

$_ZN9__gnu_cxxmiIPNSt7__cxx1112basic_stringIcSt11char_traitsIcESaIcEEESt6vectorIS6_SaIS6_EEEENS_17__normal_iteratorIT_T0_E15difference_typeERKSE_SH_ = comdat any

$_ZNSt6vectorINSt7__cxx1112basic_stringIcSt11char_traitsIcESaIcEEESaIS5_EE5beginEv = comdat any

$_ZNSt6vectorINSt7__cxx1112basic_stringIcSt11char_traitsIcESaIcEEESaIS5_EE11_S_relocateEPS5_S8_S8_RS6_ = comdat any

$_ZNK9__gnu_cxx17__normal_iteratorIPNSt7__cxx1112basic_stringIcSt11char_traitsIcESaIcEEESt6vectorIS6_SaIS6_EEE4baseEv = comdat any

$_ZNSt16allocator_traitsISaINSt7__cxx1112basic_stringIcSt11char_traitsIcESaIcEEEEE7destroyIS5_EEvRS6_PT_ = comdat any

$_ZNKSt6vectorINSt7__cxx1112basic_stringIcSt11char_traitsIcESaIcEEESaIS5_EE8max_sizeEv = comdat any

$_ZSt3maxImERKT_S2_S2_ = comdat any

$_ZN9__gnu_cxx17__normal_iteratorIPNSt7__cxx1112basic_stringIcSt11char_traitsIcESaIcEEESt6vectorIS6_SaIS6_EEEC2ERKS7_ = comdat any

$_ZSt12__relocate_aIPNSt7__cxx1112basic_stringIcSt11char_traitsIcESaIcEEES6_SaIS5_EET0_T_S9_S8_RT1_ = comdat any

$_ZSt14__relocate_a_1IPNSt7__cxx1112basic_stringIcSt11char_traitsIcESaIcEEES6_SaIS5_EET0_T_S9_S8_RT1_ = comdat any

$_ZSt12__niter_baseIPNSt7__cxx1112basic_stringIcSt11char_traitsIcESaIcEEEET_S7_ = comdat any

$_ZSt19__relocate_object_aINSt7__cxx1112basic_stringIcSt11char_traitsIcESaIcEEES5_SaIS5_EEvPT_PT0_RT1_ = comdat any

$_ZNSt16allocator_traitsISaINSt7__cxx1112basic_stringIcSt11char_traitsIcESaIcEEEEE9constructIS5_JS5_EEEvRS6_PT_DpOT0_ = comdat any

$_ZNSt15__new_allocatorINSt7__cxx1112basic_stringIcSt11char_traitsIcESaIcEEEE9constructIS5_JS5_EEEvPT_DpOT0_ = comdat any

$_ZNSt15__new_allocatorINSt7__cxx1112basic_stringIcSt11char_traitsIcESaIcEEEE7destroyIS5_EEvPT_ = comdat any

$_ZNK9__gnu_cxx17__normal_iteratorIPNSt7__cxx1112basic_stringIcSt11char_traitsIcESaIcEEESt6vectorIS6_SaIS6_EEEmiEl = comdat any

$_ZNK9__gnu_cxx17__normal_iteratorIPNSt7__cxx1112basic_stringIcSt11char_traitsIcESaIcEEESt6vectorIS6_SaIS6_EEEdeEv = comdat any

$_ZNSt6vectorISt10shared_ptrIN5arrow6ScalarEESaIS3_EE12emplace_backIJS3_EEERS3_DpOT_ = comdat any

$_ZNSt16allocator_traitsISaISt10shared_ptrIN5arrow6ScalarEEEE9constructIS3_JS3_EEEvRS4_PT_DpOT0_ = comdat any

$_ZNSt6vectorISt10shared_ptrIN5arrow6ScalarEESaIS3_EE17_M_realloc_insertIJS3_EEEvN9__gnu_cxx17__normal_iteratorIPS3_S5_EEDpOT_ = comdat any

$_ZNSt6vectorISt10shared_ptrIN5arrow6ScalarEESaIS3_EE3endEv = comdat any

$_ZNSt6vectorISt10shared_ptrIN5arrow6ScalarEESaIS3_EE4backEv = comdat any

$_ZNSt15__new_allocatorISt10shared_ptrIN5arrow6ScalarEEE9constructIS3_JS3_EEEvPT_DpOT0_ = comdat any

$_ZNKSt6vectorISt10shared_ptrIN5arrow6ScalarEESaIS3_EE12_M_check_lenEmPKc = comdat any

$_ZN9__gnu_cxxmiIPSt10shared_ptrIN5arrow6ScalarEESt6vectorIS4_SaIS4_EEEENS_17__normal_iteratorIT_T0_E15difference_typeERKSC_SF_ = comdat any

$_ZNSt6vectorISt10shared_ptrIN5arrow6ScalarEESaIS3_EE5beginEv = comdat any

$_ZNSt12_Vector_baseISt10shared_ptrIN5arrow6ScalarEESaIS3_EE11_M_allocateEm = comdat any

$_ZNSt6vectorISt10shared_ptrIN5arrow6ScalarEESaIS3_EE11_S_relocateEPS3_S6_S6_RS4_ = comdat any

$_ZNK9__gnu_cxx17__normal_iteratorIPSt10shared_ptrIN5arrow6ScalarEESt6vectorIS4_SaIS4_EEE4baseEv = comdat any

$_ZNSt12_Vector_baseISt10shared_ptrIN5arrow6ScalarEESaIS3_EE19_M_get_Tp_allocatorEv = comdat any

$_ZNSt12_Vector_baseISt10shared_ptrIN5arrow6ScalarEESaIS3_EE13_M_deallocateEPS3_m = comdat any

$_ZNKSt6vectorISt10shared_ptrIN5arrow6ScalarEESaIS3_EE8max_sizeEv = comdat any

$_ZNKSt6vectorISt10shared_ptrIN5arrow6ScalarEESaIS3_EE4sizeEv = comdat any

$_ZNSt6vectorISt10shared_ptrIN5arrow6ScalarEESaIS3_EE11_S_max_sizeERKS4_ = comdat any

$_ZNKSt12_Vector_baseISt10shared_ptrIN5arrow6ScalarEESaIS3_EE19_M_get_Tp_allocatorEv = comdat any

$_ZNSt16allocator_traitsISaISt10shared_ptrIN5arrow6ScalarEEEE8max_sizeERKS4_ = comdat any

$_ZNKSt15__new_allocatorISt10shared_ptrIN5arrow6ScalarEEE8max_sizeEv = comdat any

$_ZNKSt15__new_allocatorISt10shared_ptrIN5arrow6ScalarEEE11_M_max_sizeEv = comdat any

$_ZN9__gnu_cxx17__normal_iteratorIPSt10shared_ptrIN5arrow6ScalarEESt6vectorIS4_SaIS4_EEEC2ERKS5_ = comdat any

$_ZNSt16allocator_traitsISaISt10shared_ptrIN5arrow6ScalarEEEE8allocateERS4_m = comdat any

$_ZNSt15__new_allocatorISt10shared_ptrIN5arrow6ScalarEEE8allocateEmPKv = comdat any

$_ZSt12__relocate_aIPSt10shared_ptrIN5arrow6ScalarEES4_SaIS3_EET0_T_S7_S6_RT1_ = comdat any

$_ZSt14__relocate_a_1IPSt10shared_ptrIN5arrow6ScalarEES4_SaIS3_EET0_T_S7_S6_RT1_ = comdat any

$_ZSt12__niter_baseIPSt10shared_ptrIN5arrow6ScalarEEET_S5_ = comdat any

$_ZSt19__relocate_object_aISt10shared_ptrIN5arrow6ScalarEES3_SaIS3_EEvPT_PT0_RT1_ = comdat any

$_ZNSt16allocator_traitsISaISt10shared_ptrIN5arrow6ScalarEEEE7destroyIS3_EEvRS4_PT_ = comdat any

$_ZNSt15__new_allocatorISt10shared_ptrIN5arrow6ScalarEEE7destroyIS3_EEvPT_ = comdat any

$_ZNSt16allocator_traitsISaISt10shared_ptrIN5arrow6ScalarEEEE10deallocateERS4_PS3_m = comdat any

$_ZNSt15__new_allocatorISt10shared_ptrIN5arrow6ScalarEEE10deallocateEPS3_m = comdat any

$_ZNK9__gnu_cxx17__normal_iteratorIPSt10shared_ptrIN5arrow6ScalarEESt6vectorIS4_SaIS4_EEEmiEl = comdat any

$_ZNK9__gnu_cxx17__normal_iteratorIPSt10shared_ptrIN5arrow6ScalarEESt6vectorIS4_SaIS4_EEEdeEv = comdat any

$_ZN5arrow8internal14AlignedStorageISt10shared_ptrINS_6ScalarEEE3getEv = comdat any

$_ZSt7launderISt10shared_ptrIN5arrow6ScalarEEEPT_S5_ = comdat any

$_ZN5arrow6ResultISt10shared_ptrINS_6ScalarEEE7DestroyEv = comdat any

$_ZN5arrow4util18EqualityComparableINS_6ResultISt10shared_ptrINS_6ScalarEEEEED2Ev = comdat any

$_ZN5arrow8internal14AlignedStorageISt10shared_ptrINS_6ScalarEEE7destroyEv = comdat any

$_ZN5arrow10MakeScalarIbNS_11CTypeTraitsIbEENS_13BooleanScalarES3_EESt10shared_ptrINS_6ScalarEET_ = comdat any

$_ZSt11make_sharedIN5arrow13BooleanScalarEJbSt10shared_ptrINS0_8DataTypeEEEES2_INSt9enable_ifIXntsr8is_arrayIT_EE5valueES6_E4typeEEDpOT0_ = comdat any

$_ZN5arrow10TypeTraitsINS_11BooleanTypeEE14type_singletonEv = comdat any

$_ZNSt10shared_ptrIN5arrow6ScalarEEC2INS0_13BooleanScalarEvEEOS_IT_E = comdat any

$_ZNSt10shared_ptrIN5arrow13BooleanScalarEED2Ev = comdat any

$_ZNSt10shared_ptrIN5arrow13BooleanScalarEEC2ISaIvEJbS_INS0_8DataTypeEEEEESt20_Sp_alloc_shared_tagIT_EDpOT0_ = comdat any

$_ZNSt12__shared_ptrIN5arrow13BooleanScalarELN9__gnu_cxx12_Lock_policyE2EEC2ISaIvEJbSt10shared_ptrINS0_8DataTypeEEEEESt20_Sp_alloc_shared_tagIT_EDpOT0_ = comdat any

$_ZNSt14__shared_countILN9__gnu_cxx12_Lock_policyE2EEC2IN5arrow13BooleanScalarESaIvEJbSt10shared_ptrINS4_8DataTypeEEEEERPT_St20_Sp_alloc_shared_tagIT0_EDpOT1_ = comdat any

$_ZNSt12__shared_ptrIN5arrow13BooleanScalarELN9__gnu_cxx12_Lock_policyE2EE31_M_enable_shared_from_this_withIS1_S1_EENSt9enable_ifIXsr15__has_esft_baseIT0_EE5valueEvE4typeEPT_ = comdat any

$_ZNSaISt23_Sp_counted_ptr_inplaceIN5arrow13BooleanScalarESaIvELN9__gnu_cxx12_Lock_policyE2EEEC2IvEERKSaIT_E = comdat any

$_ZSt18__allocate_guardedISaISt23_Sp_counted_ptr_inplaceIN5arrow13BooleanScalarESaIvELN9__gnu_cxx12_Lock_policyE2EEEESt15__allocated_ptrIT_ERS9_ = comdat any

$_ZNSt15__allocated_ptrISaISt23_Sp_counted_ptr_inplaceIN5arrow13BooleanScalarESaIvELN9__gnu_cxx12_Lock_policyE2EEEE3getEv = comdat any

$_ZNSt23_Sp_counted_ptr_inplaceIN5arrow13BooleanScalarESaIvELN9__gnu_cxx12_Lock_policyE2EEC2IJbSt10shared_ptrINS0_8DataTypeEEEEES2_DpOT_ = comdat any

$_ZNSt15__allocated_ptrISaISt23_Sp_counted_ptr_inplaceIN5arrow13BooleanScalarESaIvELN9__gnu_cxx12_Lock_policyE2EEEEaSEDn = comdat any

$_ZNSt23_Sp_counted_ptr_inplaceIN5arrow13BooleanScalarESaIvELN9__gnu_cxx12_Lock_policyE2EE6_M_ptrEv = comdat any

$_ZNSt15__allocated_ptrISaISt23_Sp_counted_ptr_inplaceIN5arrow13BooleanScalarESaIvELN9__gnu_cxx12_Lock_policyE2EEEED2Ev = comdat any

$_ZNSaISt23_Sp_counted_ptr_inplaceIN5arrow13BooleanScalarESaIvELN9__gnu_cxx12_Lock_policyE2EEED2Ev = comdat any

$_ZNSt15__new_allocatorISt23_Sp_counted_ptr_inplaceIN5arrow13BooleanScalarESaIvELN9__gnu_cxx12_Lock_policyE2EEEC2Ev = comdat any

$_ZNSt16allocator_traitsISaISt23_Sp_counted_ptr_inplaceIN5arrow13BooleanScalarESaIvELN9__gnu_cxx12_Lock_policyE2EEEE8allocateERS7_m = comdat any

$_ZNSt15__allocated_ptrISaISt23_Sp_counted_ptr_inplaceIN5arrow13BooleanScalarESaIvELN9__gnu_cxx12_Lock_policyE2EEEEC2ERS7_PS6_ = comdat any

$_ZNSt15__new_allocatorISt23_Sp_counted_ptr_inplaceIN5arrow13BooleanScalarESaIvELN9__gnu_cxx12_Lock_policyE2EEE8allocateEmPKv = comdat any

$_ZNKSt15__new_allocatorISt23_Sp_counted_ptr_inplaceIN5arrow13BooleanScalarESaIvELN9__gnu_cxx12_Lock_policyE2EEE11_M_max_sizeEv = comdat any

$_ZSt12__to_addressISt23_Sp_counted_ptr_inplaceIN5arrow13BooleanScalarESaIvELN9__gnu_cxx12_Lock_policyE2EEEPT_S8_ = comdat any

$_ZNSt16_Sp_counted_baseILN9__gnu_cxx12_Lock_policyE2EEC2Ev = comdat any

$_ZNSt23_Sp_counted_ptr_inplaceIN5arrow13BooleanScalarESaIvELN9__gnu_cxx12_Lock_policyE2EE5_ImplC2ES2_ = comdat any

$_ZNSt16allocator_traitsISaIvEE9constructIN5arrow13BooleanScalarEJbSt10shared_ptrINS3_8DataTypeEEEEEvRS0_PT_DpOT0_ = comdat any

$_ZNSt23_Sp_counted_ptr_inplaceIN5arrow13BooleanScalarESaIvELN9__gnu_cxx12_Lock_policyE2EED2Ev = comdat any

$_ZNSt23_Sp_counted_ptr_inplaceIN5arrow13BooleanScalarESaIvELN9__gnu_cxx12_Lock_policyE2EED0Ev = comdat any

$_ZNSt23_Sp_counted_ptr_inplaceIN5arrow13BooleanScalarESaIvELN9__gnu_cxx12_Lock_policyE2EE10_M_disposeEv = comdat any

$_ZNSt23_Sp_counted_ptr_inplaceIN5arrow13BooleanScalarESaIvELN9__gnu_cxx12_Lock_policyE2EE10_M_destroyEv = comdat any

$_ZNSt23_Sp_counted_ptr_inplaceIN5arrow13BooleanScalarESaIvELN9__gnu_cxx12_Lock_policyE2EE14_M_get_deleterERKSt9type_info = comdat any

$_ZNSt16_Sp_counted_baseILN9__gnu_cxx12_Lock_policyE2EED2Ev = comdat any

$_ZNSt16_Sp_counted_baseILN9__gnu_cxx12_Lock_policyE2EED0Ev = comdat any

$_ZNSt16_Sp_counted_baseILN9__gnu_cxx12_Lock_policyE2EE10_M_destroyEv = comdat any

$_ZNSt14_Sp_ebo_helperILi0ESaIvELb1EEC2ERKS0_ = comdat any

$_ZSt10_ConstructIN5arrow13BooleanScalarEJbSt10shared_ptrINS0_8DataTypeEEEEvPT_DpOT0_ = comdat any

$_ZNSt10shared_ptrIN5arrow8DataTypeEEC2EOS2_ = comdat any

$_ZN5arrow13BooleanScalarCI2NS_8internal15PrimitiveScalarINS_11BooleanTypeEbEEEbSt10shared_ptrINS_8DataTypeEE = comdat any

$_ZN5arrow8internal15PrimitiveScalarINS_11BooleanTypeEbEC2EbSt10shared_ptrINS_8DataTypeEE = comdat any

$_ZN5arrow13BooleanScalarD2Ev = comdat any

$_ZN5arrow13BooleanScalarD0Ev = comdat any

$_ZNK5arrow8internal15PrimitiveScalarINS_11BooleanTypeEbE4dataEv = comdat any

$_ZN5arrow8internal15PrimitiveScalarINS_11BooleanTypeEbE12mutable_dataEv = comdat any

$_ZNK5arrow8internal15PrimitiveScalarINS_11BooleanTypeEbE4viewEv = comdat any

$_ZN5arrow8internal19PrimitiveScalarBaseCI2NS_6ScalarEESt10shared_ptrINS_8DataTypeEEb = comdat any

$_ZN5arrow8internal15PrimitiveScalarINS_11BooleanTypeEbED2Ev = comdat any

$_ZN5arrow8internal15PrimitiveScalarINS_11BooleanTypeEbED0Ev = comdat any

$_ZN5arrow6ScalarC2ESt10shared_ptrINS_8DataTypeEEb = comdat any

$_ZN5arrow8internal19PrimitiveScalarBaseD2Ev = comdat any

$_ZN5arrow8internal19PrimitiveScalarBaseD0Ev = comdat any

$_ZNSt23enable_shared_from_thisIN5arrow6ScalarEEC2Ev = comdat any

$_ZN5arrow6ScalarD2Ev = comdat any

$_ZN5arrow6ScalarD0Ev = comdat any

$_ZNSt8weak_ptrIN5arrow6ScalarEEC2Ev = comdat any

$_ZNSt10__weak_ptrIN5arrow6ScalarELN9__gnu_cxx12_Lock_policyE2EEC2Ev = comdat any

$_ZNSt12__weak_countILN9__gnu_cxx12_Lock_policyE2EEC2Ev = comdat any

$_ZN5arrow4util18EqualityComparableINS_6ScalarEED2Ev = comdat any

$_ZNSt23enable_shared_from_thisIN5arrow6ScalarEED2Ev = comdat any

$_ZNSt8weak_ptrIN5arrow6ScalarEED2Ev = comdat any

$_ZNSt10__weak_ptrIN5arrow6ScalarELN9__gnu_cxx12_Lock_policyE2EED2Ev = comdat any

$_ZNSt12__weak_countILN9__gnu_cxx12_Lock_policyE2EED2Ev = comdat any

$_ZNSt16_Sp_counted_baseILN9__gnu_cxx12_Lock_policyE2EE15_M_weak_releaseEv = comdat any

$_ZNSt17basic_string_viewIcSt11char_traitsIcEEC2EPKcm = comdat any

$_ZNSt16allocator_traitsISaIvEE7destroyIN5arrow13BooleanScalarEEEvRS0_PT_ = comdat any

$_ZNSt23_Sp_counted_ptr_inplaceIN5arrow13BooleanScalarESaIvELN9__gnu_cxx12_Lock_policyE2EE5_Impl8_M_allocEv = comdat any

$_ZSt8_DestroyIN5arrow13BooleanScalarEEvPT_ = comdat any

$_ZNSt14_Sp_ebo_helperILi0ESaIvELb1EE6_S_getERS1_ = comdat any

$_ZNSt19_Sp_make_shared_tag5_S_tiEv = comdat any

$_ZNKSt9type_infoeqERKS_ = comdat any

$_ZNKSt9type_info4nameEv = comdat any

$_ZN9__gnu_cxx16__aligned_bufferIN5arrow13BooleanScalarEE6_M_ptrEv = comdat any

$_ZN9__gnu_cxx16__aligned_bufferIN5arrow13BooleanScalarEE7_M_addrEv = comdat any

$_ZNSt16allocator_traitsISaISt23_Sp_counted_ptr_inplaceIN5arrow13BooleanScalarESaIvELN9__gnu_cxx12_Lock_policyE2EEEE10deallocateERS7_PS6_m = comdat any

$_ZNSt15__new_allocatorISt23_Sp_counted_ptr_inplaceIN5arrow13BooleanScalarESaIvELN9__gnu_cxx12_Lock_policyE2EEE10deallocateEPS6_m = comdat any

$_ZNSt15__new_allocatorISt23_Sp_counted_ptr_inplaceIN5arrow13BooleanScalarESaIvELN9__gnu_cxx12_Lock_policyE2EEED2Ev = comdat any

$_ZSt30__enable_shared_from_this_baseRKSt14__shared_countILN9__gnu_cxx12_Lock_policyE2EEPKSt23enable_shared_from_thisIN5arrow6ScalarEE = comdat any

$_ZNKSt23enable_shared_from_thisIN5arrow6ScalarEE14_M_weak_assignINS0_13BooleanScalarEEEvPT_RKSt14__shared_countILN9__gnu_cxx12_Lock_policyE2EE = comdat any

$_ZNSt10__weak_ptrIN5arrow6ScalarELN9__gnu_cxx12_Lock_policyE2EE9_M_assignEPS1_RKSt14__shared_countILS3_2EE = comdat any

$_ZNKSt10__weak_ptrIN5arrow6ScalarELN9__gnu_cxx12_Lock_policyE2EE9use_countEv = comdat any

$_ZNSt12__weak_countILN9__gnu_cxx12_Lock_policyE2EEaSERKSt14__shared_countILS1_2EE = comdat any

$_ZNKSt12__weak_countILN9__gnu_cxx12_Lock_policyE2EE16_M_get_use_countEv = comdat any

$_ZNSt16_Sp_counted_baseILN9__gnu_cxx12_Lock_policyE2EE15_M_weak_add_refEv = comdat any

$_ZNSt12__shared_ptrIN5arrow6ScalarELN9__gnu_cxx12_Lock_policyE2EEC2INS0_13BooleanScalarEvEEOS_IT_LS3_2EE = comdat any

$_ZNSt12__shared_ptrIN5arrow13BooleanScalarELN9__gnu_cxx12_Lock_policyE2EED2Ev = comdat any

$_ZN5arrow7compute8internal20FromStructScalarImplINS0_11CastOptionsEEC2INS_8internal13PropertyTupleIJNS6_18DataMemberPropertyIS3_NS_10TypeHolderEEENS8_IS3_bEESB_SB_SB_SB_SB_EEEEEPS3_RKNS_12StructScalarERKT_ = comdat any

$_ZN5arrow7compute8internal20FromStructScalarImplINS0_11CastOptionsEED2Ev = comdat any

$_ZN5arrow6ResultISt10unique_ptrINS_7compute15FunctionOptionsESt14default_deleteIS3_EEEC2ERKNS_6StatusE = comdat any

$_ZN5arrow6ResultISt10unique_ptrINS_7compute15FunctionOptionsESt14default_deleteIS3_EEEC2IS1_INS2_11CastOptionsES4_IS9_EEvEEOT_ = comdat any

$_ZNK5arrow8internal13PropertyTupleIJNS0_18DataMemberPropertyINS_7compute11CastOptionsENS_10TypeHolderEEENS2_IS4_bEES7_S7_S7_S7_S7_EE7ForEachIRNS3_8internal20FromStructScalarImplIS4_EEEEvOT_ = comdat any

$_ZN5arrow8internal18ForEachTupleMemberIJNS0_18DataMemberPropertyINS_7compute11CastOptionsENS_10TypeHolderEEENS2_IS4_bEES7_S7_S7_S7_S7_ERNS3_8internal20FromStructScalarImplIS4_EEEEvRKSt5tupleIJDpT_EEOT0_ = comdat any

$_ZN5arrow8internal22ForEachTupleMemberImplIJLm0ELm1ELm2ELm3ELm4ELm5ELm6EEJNS0_18DataMemberPropertyINS_7compute11CastOptionsENS_10TypeHolderEEENS2_IS4_bEES7_S7_S7_S7_S7_ERNS3_8internal20FromStructScalarImplIS4_EEEEvRKSt5tupleIJDpT0_EEOT1_St16integer_sequenceImJXspT_EEE = comdat any

$_ZN5arrow7compute8internal20FromStructScalarImplINS0_11CastOptionsEEclINS_8internal18DataMemberPropertyIS3_NS_10TypeHolderEEEEEvRKT_m = comdat any

$_ZN5arrow7compute8internal20FromStructScalarImplINS0_11CastOptionsEEclINS_8internal18DataMemberPropertyIS3_bEEEEvRKT_m = comdat any

$_ZN5arrow8FieldRefC2ENSt7__cxx1112basic_stringIcSt11char_traitsIcESaIcEEE = comdat any

$_ZN5arrow8FieldRefD2Ev = comdat any

$_ZNK5arrow6Status11WithMessageIJRA26_KcSt17basic_string_viewIcSt11char_traitsIcEERA18_S2_RA12_S2_RA3_S2_RKNSt7__cxx1112basic_stringIcS7_SaIcEEEEEES0_DpOT_ = comdat any

$_ZNK5arrow6ResultINS_10TypeHolderEE2okEv = comdat any

$_ZNK5arrow6ResultINS_10TypeHolderEE6statusEv = comdat any

$_ZN5arrow6ResultINS_10TypeHolderEE15MoveValueUnsafeEv = comdat any

$_ZN5arrow6ResultINS_10TypeHolderEED2Ev = comdat any

$_ZNSt7variantIJN5arrow9FieldPathENSt7__cxx1112basic_stringIcSt11char_traitsIcESaIcEEESt6vectorINS0_8FieldRefESaIS9_EEEEC2IS7_vvS7_vEEOT_ = comdat any

$_ZNSt7variantIJN5arrow9FieldPathENSt7__cxx1112basic_stringIcSt11char_traitsIcESaIcEEESt6vectorINS0_8FieldRefESaIS9_EEEEC2ILm1EJS7_ES7_vEESt16in_place_index_tIXT_EEDpOT0_ = comdat any

$_ZNSt8__detail9__variant13_Variant_baseIJN5arrow9FieldPathENSt7__cxx1112basic_stringIcSt11char_traitsIcESaIcEEESt6vectorINS2_8FieldRefESaISB_EEEEC2ILm1EJS9_EEESt16in_place_index_tIXT_EEDpOT0_ = comdat any

$_ZNSt27_Enable_default_constructorILb1ESt7variantIJN5arrow9FieldPathENSt7__cxx1112basic_stringIcSt11char_traitsIcESaIcEEESt6vectorINS1_8FieldRefESaISA_EEEEEC2ESt31_Enable_default_constructor_tag = comdat any

$_ZNSt8__detail9__variant13_Variant_baseIJN5arrow9FieldPathENSt7__cxx1112basic_stringIcSt11char_traitsIcESaIcEEESt6vectorINS2_8FieldRefESaISB_EEEED2Ev = comdat any

$_ZNSt8__detail9__variant17_Move_assign_baseILb0EJN5arrow9FieldPathENSt7__cxx1112basic_stringIcSt11char_traitsIcESaIcEEESt6vectorINS2_8FieldRefESaISB_EEEECI2NS0_16_Variant_storageILb0EJS3_S9_SD_EEEILm1EJS9_EEESt16in_place_index_tIXT_EEDpOT0_ = comdat any

$_ZNSt8__detail9__variant17_Copy_assign_baseILb0EJN5arrow9FieldPathENSt7__cxx1112basic_stringIcSt11char_traitsIcESaIcEEESt6vectorINS2_8FieldRefESaISB_EEEECI2NS0_16_Variant_storageILb0EJS3_S9_SD_EEEILm1EJS9_EEESt16in_place_index_tIXT_EEDpOT0_ = comdat any

$_ZNSt8__detail9__variant15_Move_ctor_baseILb0EJN5arrow9FieldPathENSt7__cxx1112basic_stringIcSt11char_traitsIcESaIcEEESt6vectorINS2_8FieldRefESaISB_EEEECI2NS0_16_Variant_storageILb0EJS3_S9_SD_EEEILm1EJS9_EEESt16in_place_index_tIXT_EEDpOT0_ = comdat any

$_ZNSt8__detail9__variant15_Copy_ctor_baseILb0EJN5arrow9FieldPathENSt7__cxx1112basic_stringIcSt11char_traitsIcESaIcEEESt6vectorINS2_8FieldRefESaISB_EEEECI2NS0_16_Variant_storageILb0EJS3_S9_SD_EEEILm1EJS9_EEESt16in_place_index_tIXT_EEDpOT0_ = comdat any

$_ZNSt8__detail9__variant16_Variant_storageILb0EJN5arrow9FieldPathENSt7__cxx1112basic_stringIcSt11char_traitsIcESaIcEEESt6vectorINS2_8FieldRefESaISB_EEEEC2ILm1EJS9_EEESt16in_place_index_tIXT_EEDpOT0_ = comdat any

$_ZNSt8__detail9__variant15_Variadic_unionIJN5arrow9FieldPathENSt7__cxx1112basic_stringIcSt11char_traitsIcESaIcEEESt6vectorINS2_8FieldRefESaISB_EEEEC2ILm1EJS9_EEESt16in_place_index_tIXT_EEDpOT0_ = comdat any

$_ZNSt8__detail9__variant15_Variadic_unionIJNSt7__cxx1112basic_stringIcSt11char_traitsIcESaIcEEESt6vectorIN5arrow8FieldRefESaISA_EEEEC2IJS7_EEESt16in_place_index_tILm0EEDpOT_ = comdat any

$_ZNSt8__detail9__variant14_UninitializedINSt7__cxx1112basic_stringIcSt11char_traitsIcESaIcEEELb0EEC2IJS7_EEESt16in_place_index_tILm0EEDpOT_ = comdat any

$_ZNSt8__detail9__variant17_Move_assign_baseILb0EJN5arrow9FieldPathENSt7__cxx1112basic_stringIcSt11char_traitsIcESaIcEEESt6vectorINS2_8FieldRefESaISB_EEEED2Ev = comdat any

$_ZNSt8__detail9__variant17_Copy_assign_baseILb0EJN5arrow9FieldPathENSt7__cxx1112basic_stringIcSt11char_traitsIcESaIcEEESt6vectorINS2_8FieldRefESaISB_EEEED2Ev = comdat any

$_ZNSt8__detail9__variant15_Move_ctor_baseILb0EJN5arrow9FieldPathENSt7__cxx1112basic_stringIcSt11char_traitsIcESaIcEEESt6vectorINS2_8FieldRefESaISB_EEEED2Ev = comdat any

$_ZNSt8__detail9__variant15_Copy_ctor_baseILb0EJN5arrow9FieldPathENSt7__cxx1112basic_stringIcSt11char_traitsIcESaIcEEESt6vectorINS2_8FieldRefESaISB_EEEED2Ev = comdat any

$_ZNSt8__detail9__variant16_Variant_storageILb0EJN5arrow9FieldPathENSt7__cxx1112basic_stringIcSt11char_traitsIcESaIcEEESt6vectorINS2_8FieldRefESaISB_EEEED2Ev = comdat any

$_ZNSt8__detail9__variant16_Variant_storageILb0EJN5arrow9FieldPathENSt7__cxx1112basic_stringIcSt11char_traitsIcESaIcEEESt6vectorINS2_8FieldRefESaISB_EEEE8_M_resetEv = comdat any

$_ZNKSt8__detail9__variant16_Variant_storageILb0EJN5arrow9FieldPathENSt7__cxx1112basic_stringIcSt11char_traitsIcESaIcEEESt6vectorINS2_8FieldRefESaISB_EEEE8_M_validEv = comdat any

$_ZSt10__do_visitIvZNSt8__detail9__variant16_Variant_storageILb0EJN5arrow9FieldPathENSt7__cxx1112basic_stringIcSt11char_traitsIcESaIcEEESt6vectorINS3_8FieldRefESaISC_EEEE8_M_resetEvEUlOT_E_JRSt7variantIJS4_SA_SE_EEEEDcOT0_DpOT1_ = comdat any

$_ZSt14__variant_castIJN5arrow9FieldPathENSt7__cxx1112basic_stringIcSt11char_traitsIcESaIcEEESt6vectorINS0_8FieldRefESaIS9_EEERNSt8__detail9__variant16_Variant_storageILb0EJS1_S7_SB_EEEEDcOT0_ = comdat any

$_ZZSt10__do_visitIvZNSt8__detail9__variant16_Variant_storageILb0EJN5arrow9FieldPathENSt7__cxx1112basic_stringIcSt11char_traitsIcESaIcEEESt6vectorINS3_8FieldRefESaISC_EEEE8_M_resetEvEUlOT_E_JRSt7variantIJS4_SA_SE_EEEEDcOT0_DpOT1_ENKUlSL_zE_clB5cxx11ESL_z = comdat any

$_ZNKSt7variantIJN5arrow9FieldPathENSt7__cxx1112basic_stringIcSt11char_traitsIcESaIcEEESt6vectorINS0_8FieldRefESaIS9_EEEE5indexEv = comdat any

$_ZNSt8__detail9__variant17__gen_vtable_implINS0_12_Multi_arrayIPFvOZNS0_16_Variant_storageILb0EJN5arrow9FieldPathENSt7__cxx1112basic_stringIcSt11char_traitsIcESaIcEEESt6vectorINS4_8FieldRefESaISD_EEEE8_M_resetEvEUlOT_E_RSt7variantIJS5_SB_SF_EEEJEEESt16integer_sequenceImJLm0EEEE14__visit_invokeESK_SN_ = comdat any

$_ZNSt8__detail9__variant17__gen_vtable_implINS0_12_Multi_arrayIPFvOZNS0_16_Variant_storageILb0EJN5arrow9FieldPathENSt7__cxx1112basic_stringIcSt11char_traitsIcESaIcEEESt6vectorINS4_8FieldRefESaISD_EEEE8_M_resetEvEUlOT_E_RSt7variantIJS5_SB_SF_EEEJEEESt16integer_sequenceImJLm1EEEE14__visit_invokeESK_SN_ = comdat any

$_ZNSt8__detail9__variant17__gen_vtable_implINS0_12_Multi_arrayIPFvOZNS0_16_Variant_storageILb0EJN5arrow9FieldPathENSt7__cxx1112basic_stringIcSt11char_traitsIcESaIcEEESt6vectorINS4_8FieldRefESaISD_EEEE8_M_resetEvEUlOT_E_RSt7variantIJS5_SB_SF_EEEJEEESt16integer_sequenceImJLm2EEEE14__visit_invokeESK_SN_ = comdat any

$_ZSt10__invoke_rIvZNSt8__detail9__variant16_Variant_storageILb0EJN5arrow9FieldPathENSt7__cxx1112basic_stringIcSt11char_traitsIcESaIcEEESt6vectorINS3_8FieldRefESaISC_EEEE8_M_resetEvEUlOT_E_JRS4_EENSt9enable_ifIX16is_invocable_r_vISG_T0_DpT1_EESG_E4typeEOSL_DpOSM_ = comdat any

$_ZNSt8__detail9__variant5__getILm0ERSt7variantIJN5arrow9FieldPathENSt7__cxx1112basic_stringIcSt11char_traitsIcESaIcEEESt6vectorINS3_8FieldRefESaISC_EEEEEEDcOT0_ = comdat any

$_ZSt13__invoke_implIvZNSt8__detail9__variant16_Variant_storageILb0EJN5arrow9FieldPathENSt7__cxx1112basic_stringIcSt11char_traitsIcESaIcEEESt6vectorINS3_8FieldRefESaISC_EEEE8_M_resetEvEUlOT_E_JRS4_EESG_St14__invoke_otherOT0_DpOT1_ = comdat any

$_ZZNSt8__detail9__variant16_Variant_storageILb0EJN5arrow9FieldPathENSt7__cxx1112basic_stringIcSt11char_traitsIcESaIcEEESt6vectorINS2_8FieldRefESaISB_EEEE8_M_resetEvENUlOT_E_clIRS3_EEDaSG_ = comdat any

$_ZSt8_DestroyIN5arrow9FieldPathEEvPT_ = comdat any

$_ZN5arrow9FieldPathD2Ev = comdat any

$_ZNSt6vectorIiSaIiEED2Ev = comdat any

$_ZSt8_DestroyIPiiEvT_S1_RSaIT0_E = comdat any

$_ZNSt12_Vector_baseIiSaIiEE19_M_get_Tp_allocatorEv = comdat any

$_ZNSt12_Vector_baseIiSaIiEED2Ev = comdat any

$_ZSt8_DestroyIPiEvT_S1_ = comdat any

$_ZNSt12_Destroy_auxILb1EE9__destroyIPiEEvT_S3_ = comdat any

$_ZNSt12_Vector_baseIiSaIiEE13_M_deallocateEPim = comdat any

$_ZNSt12_Vector_baseIiSaIiEE12_Vector_implD2Ev = comdat any

$_ZNSt16allocator_traitsISaIiEE10deallocateERS0_Pim = comdat any

$_ZNSt15__new_allocatorIiE10deallocateEPim = comdat any

$_ZNSaIiED2Ev = comdat any

$_ZNSt15__new_allocatorIiED2Ev = comdat any

$_ZNSt8__detail9__variant7__get_nILm0ERNS0_15_Variadic_unionIJN5arrow9FieldPathENSt7__cxx1112basic_stringIcSt11char_traitsIcESaIcEEESt6vectorINS3_8FieldRefESaISC_EEEEEEEDcOT0_ = comdat any

$_ZNRSt8__detail9__variant14_UninitializedIN5arrow9FieldPathELb0EE6_M_getEv = comdat any

$_ZN9__gnu_cxx16__aligned_membufIN5arrow9FieldPathEE6_M_ptrEv = comdat any

$_ZN9__gnu_cxx16__aligned_membufIN5arrow9FieldPathEE7_M_addrEv = comdat any

$_ZSt10__invoke_rIvZNSt8__detail9__variant16_Variant_storageILb0EJN5arrow9FieldPathENSt7__cxx1112basic_stringIcSt11char_traitsIcESaIcEEESt6vectorINS3_8FieldRefESaISC_EEEE8_M_resetEvEUlOT_E_JRSA_EENSt9enable_ifIX16is_invocable_r_vISG_T0_DpT1_EESG_E4typeEOSL_DpOSM_ = comdat any

$_ZNSt8__detail9__variant5__getILm1ERSt7variantIJN5arrow9FieldPathENSt7__cxx1112basic_stringIcSt11char_traitsIcESaIcEEESt6vectorINS3_8FieldRefESaISC_EEEEEEDcOT0_ = comdat any

$_ZSt13__invoke_implIvZNSt8__detail9__variant16_Variant_storageILb0EJN5arrow9FieldPathENSt7__cxx1112basic_stringIcSt11char_traitsIcESaIcEEESt6vectorINS3_8FieldRefESaISC_EEEE8_M_resetEvEUlOT_E_JRSA_EESG_St14__invoke_otherOT0_DpOT1_ = comdat any

$_ZZNSt8__detail9__variant16_Variant_storageILb0EJN5arrow9FieldPathENSt7__cxx1112basic_stringIcSt11char_traitsIcESaIcEEESt6vectorINS2_8FieldRefESaISB_EEEE8_M_resetEvENUlOT_E_clIRS9_EEDaSG_ = comdat any

$_ZNSt8__detail9__variant7__get_nILm1ERNS0_15_Variadic_unionIJN5arrow9FieldPathENSt7__cxx1112basic_stringIcSt11char_traitsIcESaIcEEESt6vectorINS3_8FieldRefESaISC_EEEEEEEDcOT0_ = comdat any

$_ZNRSt8__detail9__variant14_UninitializedINSt7__cxx1112basic_stringIcSt11char_traitsIcESaIcEEELb0EE6_M_getEv = comdat any

$_ZN9__gnu_cxx16__aligned_membufINSt7__cxx1112basic_stringIcSt11char_traitsIcESaIcEEEE6_M_ptrEv = comdat any

$_ZN9__gnu_cxx16__aligned_membufINSt7__cxx1112basic_stringIcSt11char_traitsIcESaIcEEEE7_M_addrEv = comdat any

$_ZSt10__invoke_rIvZNSt8__detail9__variant16_Variant_storageILb0EJN5arrow9FieldPathENSt7__cxx1112basic_stringIcSt11char_traitsIcESaIcEEESt6vectorINS3_8FieldRefESaISC_EEEE8_M_resetEvEUlOT_E_JRSE_EENSt9enable_ifIX16is_invocable_r_vISG_T0_DpT1_EESG_E4typeEOSL_DpOSM_ = comdat any

$_ZNSt8__detail9__variant5__getILm2ERSt7variantIJN5arrow9FieldPathENSt7__cxx1112basic_stringIcSt11char_traitsIcESaIcEEESt6vectorINS3_8FieldRefESaISC_EEEEEEDcOT0_ = comdat any

$_ZSt13__invoke_implIvZNSt8__detail9__variant16_Variant_storageILb0EJN5arrow9FieldPathENSt7__cxx1112basic_stringIcSt11char_traitsIcESaIcEEESt6vectorINS3_8FieldRefESaISC_EEEE8_M_resetEvEUlOT_E_JRSE_EESG_St14__invoke_otherOT0_DpOT1_ = comdat any

$_ZZNSt8__detail9__variant16_Variant_storageILb0EJN5arrow9FieldPathENSt7__cxx1112basic_stringIcSt11char_traitsIcESaIcEEESt6vectorINS2_8FieldRefESaISB_EEEE8_M_resetEvENUlOT_E_clIRSD_EEDaSG_ = comdat any

$_ZSt8_DestroyISt6vectorIN5arrow8FieldRefESaIS2_EEEvPT_ = comdat any

$_ZNSt6vectorIN5arrow8FieldRefESaIS1_EED2Ev = comdat any

$_ZSt8_DestroyIPN5arrow8FieldRefES1_EvT_S3_RSaIT0_E = comdat any

$_ZNSt12_Vector_baseIN5arrow8FieldRefESaIS1_EE19_M_get_Tp_allocatorEv = comdat any

$_ZNSt12_Vector_baseIN5arrow8FieldRefESaIS1_EED2Ev = comdat any

$_ZSt8_DestroyIPN5arrow8FieldRefEEvT_S3_ = comdat any

$_ZNSt12_Destroy_auxILb0EE9__destroyIPN5arrow8FieldRefEEEvT_S5_ = comdat any

$_ZSt8_DestroyIN5arrow8FieldRefEEvPT_ = comdat any

$_ZNSt12_Vector_baseIN5arrow8FieldRefESaIS1_EE13_M_deallocateEPS1_m = comdat any

$_ZNSt12_Vector_baseIN5arrow8FieldRefESaIS1_EE12_Vector_implD2Ev = comdat any

$_ZNSt16allocator_traitsISaIN5arrow8FieldRefEEE10deallocateERS2_PS1_m = comdat any

$_ZNSt15__new_allocatorIN5arrow8FieldRefEE10deallocateEPS1_m = comdat any

$_ZNSaIN5arrow8FieldRefEED2Ev = comdat any

$_ZNSt15__new_allocatorIN5arrow8FieldRefEED2Ev = comdat any

$_ZNSt8__detail9__variant7__get_nILm2ERNS0_15_Variadic_unionIJN5arrow9FieldPathENSt7__cxx1112basic_stringIcSt11char_traitsIcESaIcEEESt6vectorINS3_8FieldRefESaISC_EEEEEEEDcOT0_ = comdat any

$_ZNRSt8__detail9__variant14_UninitializedISt6vectorIN5arrow8FieldRefESaIS4_EELb0EE6_M_getEv = comdat any

$_ZN9__gnu_cxx16__aligned_membufISt6vectorIN5arrow8FieldRefESaIS3_EEE6_M_ptrEv = comdat any

$_ZN9__gnu_cxx16__aligned_membufISt6vectorIN5arrow8FieldRefESaIS3_EEE7_M_addrEv = comdat any

$_ZNSt7variantIJN5arrow9FieldPathENSt7__cxx1112basic_stringIcSt11char_traitsIcESaIcEEESt6vectorINS0_8FieldRefESaIS9_EEEED2Ev = comdat any

$_ZN5arrow4util18EqualityComparableINS_8FieldRefEED2Ev = comdat any

$_ZN5arrow6Status8FromArgsIJRA26_KcSt17basic_string_viewIcSt11char_traitsIcEERA18_S2_RA12_S2_RA3_S2_RKNSt7__cxx1112basic_stringIcS7_SaIcEEEEEES0_NS_10StatusCodeEDpOT_ = comdat any

$_ZN5arrow4util13StringBuilderIJRA26_KcSt17basic_string_viewIcSt11char_traitsIcEERA18_S2_RA12_S2_RA3_S2_RKNSt7__cxx1112basic_stringIcS7_SaIcEEEEEESI_DpOT_ = comdat any

$_ZN5arrow4util22StringBuilderRecursiveIRA26_KcJSt17basic_string_viewIcSt11char_traitsIcEERA18_S2_RA12_S2_RA3_S2_RKNSt7__cxx1112basic_stringIcS7_SaIcEEEEEEvRSoOT_DpOT0_ = comdat any

$_ZN5arrow4util22StringBuilderRecursiveIRA26_KcEEvRSoOT_ = comdat any

$_ZNKSt19__shared_ptr_accessIN5arrow6ScalarELN9__gnu_cxx12_Lock_policyE2ELb0ELb0EEptEv = comdat any

$_ZN5arrow6ResultINS_10TypeHolderEEC2IRSt10shared_ptrINS_8DataTypeEEvEEOT_ = comdat any

$_ZNKSt19__shared_ptr_accessIN5arrow6ScalarELN9__gnu_cxx12_Lock_policyE2ELb0ELb0EE6_M_getEv = comdat any

$_ZNKSt12__shared_ptrIN5arrow6ScalarELN9__gnu_cxx12_Lock_policyE2EE3getEv = comdat any

$_ZN5arrow6ResultINS_10TypeHolderEE14ConstructValueIRSt10shared_ptrINS_8DataTypeEEEEvOT_ = comdat any

$_ZN5arrow8internal14AlignedStorageINS_10TypeHolderEE9constructIJRSt10shared_ptrINS_8DataTypeEEEEEvDpOT_ = comdat any

$_ZN5arrow10TypeHolderC2ESt10shared_ptrINS_8DataTypeEE = comdat any

$_ZNKSt12__shared_ptrIN5arrow8DataTypeELN9__gnu_cxx12_Lock_policyE2EE3getEv = comdat any

$_ZN5arrow8internal14AlignedStorageINS_10TypeHolderEE3getEv = comdat any

$_ZN5arrow10TypeHolderC2EOS0_ = comdat any

$_ZSt7launderIN5arrow10TypeHolderEEPT_S3_ = comdat any

$_ZN5arrow6ResultINS_10TypeHolderEE7DestroyEv = comdat any

$_ZN5arrow4util18EqualityComparableINS_6ResultINS_10TypeHolderEEEED2Ev = comdat any

$_ZN5arrow8internal14AlignedStorageINS_10TypeHolderEE7destroyEv = comdat any

$_ZNK5arrow6ResultIbE2okEv = comdat any

$_ZNK5arrow6ResultIbE6statusEv = comdat any

$_ZN5arrow6ResultIbE15MoveValueUnsafeEv = comdat any

$_ZN5arrow6ResultIbED2Ev = comdat any

$_ZNKSt19__shared_ptr_accessIN5arrow8DataTypeELN9__gnu_cxx12_Lock_policyE2ELb0ELb0EEptEv = comdat any

$_ZN5arrow6Status7InvalidIJRA15_KcRKNS_4Type4typeERA10_S2_NSt7__cxx1112basic_stringIcSt11char_traitsIcESaIcEEEEEES0_DpOT_ = comdat any

$_ZN5arrow6ResultIbEC2ERKNS_6StatusE = comdat any

$_ZN5arrow8internal12checked_castIRKNS_13BooleanScalarERNS_6ScalarEEET_OT0_ = comdat any

$_ZNKSt19__shared_ptr_accessIN5arrow6ScalarELN9__gnu_cxx12_Lock_policyE2ELb0ELb0EEdeEv = comdat any

$_ZN5arrow6Status7InvalidIJRA16_KcEEES0_DpOT_ = comdat any

$_ZN5arrow6ResultIbEC2IRKbvEEOT_ = comdat any

$_ZNKSt19__shared_ptr_accessIN5arrow8DataTypeELN9__gnu_cxx12_Lock_policyE2ELb0ELb0EE6_M_getEv = comdat any

$_ZN5arrow6Status8FromArgsIJRA15_KcRKNS_4Type4typeERA10_S2_NSt7__cxx1112basic_stringIcSt11char_traitsIcESaIcEEEEEES0_NS_10StatusCodeEDpOT_ = comdat any

$_ZN5arrow4util13StringBuilderIJRA15_KcRKNS_4Type4typeERA10_S2_NSt7__cxx1112basic_stringIcSt11char_traitsIcESaIcEEEEEESG_DpOT_ = comdat any

$_ZN5arrow4util22StringBuilderRecursiveIRA15_KcJRKNS_4Type4typeERA10_S2_NSt7__cxx1112basic_stringIcSt11char_traitsIcESaIcEEEEEEvRSoOT_DpOT0_ = comdat any

$_ZN5arrow4util22StringBuilderRecursiveIRA15_KcEEvRSoOT_ = comdat any

$_ZN5arrow4util22StringBuilderRecursiveIRKNS_4Type4typeEJRA10_KcNSt7__cxx1112basic_stringIcSt11char_traitsIcESaIcEEEEEEvRSoOT_DpOT0_ = comdat any

$_ZN5arrow4util22StringBuilderRecursiveIRKNS_4Type4typeEEEvRSoOT_ = comdat any

$_ZN5arrow4util22StringBuilderRecursiveIRA10_KcJNSt7__cxx1112basic_stringIcSt11char_traitsIcESaIcEEEEEEvRSoOT_DpOT0_ = comdat any

$_ZN5arrow4util22StringBuilderRecursiveIRA10_KcEEvRSoOT_ = comdat any

$_ZN5arrow4util22StringBuilderRecursiveINSt7__cxx1112basic_stringIcSt11char_traitsIcESaIcEEEEEvRSoOT_ = comdat any

$_ZN5arrow6Status8FromArgsIJRA16_KcEEES0_NS_10StatusCodeEDpOT_ = comdat any

$_ZN5arrow4util13StringBuilderIJRA16_KcEEENSt7__cxx1112basic_stringIcSt11char_traitsIcESaIcEEEDpOT_ = comdat any

$_ZN5arrow4util22StringBuilderRecursiveIRA16_KcEEvRSoOT_ = comdat any

$_ZN5arrow6ResultIbE14ConstructValueIRKbEEvOT_ = comdat any

$_ZN5arrow8internal14AlignedStorageIbE9constructIJRKbEEEvDpOT_ = comdat any

$_ZN5arrow8internal14AlignedStorageIbE3getEv = comdat any

$_ZSt7launderIbEPT_S1_ = comdat any

$_ZN5arrow6ResultIbE7DestroyEv = comdat any

$_ZN5arrow4util18EqualityComparableINS_6ResultIbEEED2Ev = comdat any

$_ZN5arrow8internal14AlignedStorageIbE7destroyEv = comdat any

$_ZN5arrow6ResultISt10unique_ptrINS_7compute15FunctionOptionsESt14default_deleteIS3_EEE14ConstructValueIS1_INS2_11CastOptionsES4_IS9_EEEEvOT_ = comdat any

$_ZN5arrow8internal14AlignedStorageISt10unique_ptrINS_7compute15FunctionOptionsESt14default_deleteIS4_EEE9constructIJS2_INS3_11CastOptionsES5_ISA_EEEEEvDpOT_ = comdat any

$_ZN5arrow7compute8internal18GenericOptionsTypeD2Ev = comdat any

$_ZN5arrow7compute19FunctionOptionsTypeD2Ev = comdat any

$_ZN5arrow7compute12MetaFunctionC2ENSt7__cxx1112basic_stringIcSt11char_traitsIcESaIcEEERKNS0_5ArityENS0_11FunctionDocEPKNS0_15FunctionOptionsE = comdat any

$_ZNK5arrow7compute12MetaFunction11num_kernelsEv = comdat any

$_ZN5arrow7compute12MetaFunctionD2Ev = comdat any

$_ZNK5arrow6ResultIPKNS_7compute11CastOptionsEE2okEv = comdat any

$_ZNK5arrow6ResultIPKNS_7compute11CastOptionsEE6statusEv = comdat any

$_ZN5arrow6ResultINS_5DatumEEC2ERKNS_6StatusE = comdat any

$_ZNO5arrow6ResultIPKNS_7compute11CastOptionsEE11ValueUnsafeEv = comdat any

$_ZNKSt6vectorIN5arrow5DatumESaIS1_EEixEm = comdat any

$_ZNK5arrow10TypeHolderdeEv = comdat any

$_ZN5arrow9is_nestedENS_4Type4typeE = comdat any

$_ZN5arrow6ResultINS_5DatumEEC2IRKS1_vEEOT_ = comdat any

$_ZNK5arrow5Datum8is_arrayEv = comdat any

$_ZNK5arrow5Datum5arrayEv = comdat any

$_ZNK5arrow6ResultISt10shared_ptrINS_9ArrayDataEEE2okEv = comdat any

$_ZNK5arrow6ResultISt10shared_ptrINS_9ArrayDataEEE6statusEv = comdat any

$_ZNO5arrow6ResultISt10shared_ptrINS_9ArrayDataEEE11ValueUnsafeEv = comdat any

$_ZN5arrow5DatumC2ESt10shared_ptrINS_9ArrayDataEE = comdat any

$_ZN5arrow6ResultINS_5DatumEEC2EOS1_ = comdat any

$_ZN5arrow6ResultISt10shared_ptrINS_9ArrayDataEEED2Ev = comdat any

$_ZNK5arrow5Datum16is_chunked_arrayEv = comdat any

$_ZNK5arrow5Datum13chunked_arrayEv = comdat any

$_ZNKSt19__shared_ptr_accessIN5arrow12ChunkedArrayELN9__gnu_cxx12_Lock_policyE2ELb0ELb0EEptEv = comdat any

$_ZNK5arrow6ResultISt10shared_ptrINS_12ChunkedArrayEEE2okEv = comdat any

$_ZNK5arrow6ResultISt10shared_ptrINS_12ChunkedArrayEEE6statusEv = comdat any

$_ZNO5arrow6ResultISt10shared_ptrINS_12ChunkedArrayEEE11ValueUnsafeEv = comdat any

$_ZN5arrow6ResultISt10shared_ptrINS_12ChunkedArrayEEED2Ev = comdat any

$_ZNK5arrow6ResultISt10shared_ptrINS_7compute8internal12CastFunctionEEE2okEv = comdat any

$_ZNK5arrow6ResultISt10shared_ptrINS_7compute8internal12CastFunctionEEE6statusEv = comdat any

$_ZNK5arrow6Status11WithMessageIJRKNSt7__cxx1112basic_stringIcSt11char_traitsIcESaIcEEERA7_KcRNS_8DataTypeEEEES0_DpOT_ = comdat any

$_ZNKSt19__shared_ptr_accessIN5arrow8DataTypeELN9__gnu_cxx12_Lock_policyE2ELb0ELb0EEdeEv = comdat any

$_ZNR5arrow6ResultISt10shared_ptrINS_7compute8internal12CastFunctionEEEdeEv = comdat any

$_ZN5arrow6ResultISt10shared_ptrINS_7compute8internal12CastFunctionEEED2Ev = comdat any

$_ZN5arrow6ResultIPKNS_7compute11CastOptionsEED2Ev = comdat any

$_ZNK5arrow10TypeHoldereqEDn = comdat any

$_ZN5arrow6Status7InvalidIJRA64_KcEEES0_DpOT_ = comdat any

$_ZN5arrow6ResultIPKNS_7compute11CastOptionsEEC2ERKNS_6StatusE = comdat any

$_ZN5arrow6ResultIPKNS_7compute11CastOptionsEEC2EOS4_ = comdat any

$_ZN5arrow6Status8FromArgsIJRA64_KcEEES0_NS_10StatusCodeEDpOT_ = comdat any

$_ZN5arrow4util13StringBuilderIJRA64_KcEEENSt7__cxx1112basic_stringIcSt11char_traitsIcESaIcEEEDpOT_ = comdat any

$_ZN5arrow4util22StringBuilderRecursiveIRA64_KcEEvRSoOT_ = comdat any

$_ZN5arrow6ResultIPKNS_7compute11CastOptionsEE14ConstructValueIS4_EEvOT_ = comdat any

$_ZN5arrow8internal14AlignedStorageIPKNS_7compute11CastOptionsEE9constructIJS5_EEEvDpOT_ = comdat any

$_ZN5arrow6ResultIPKNS_7compute11CastOptionsEE15MoveValueUnsafeEv = comdat any

$_ZN5arrow8internal14AlignedStorageIPKNS_7compute11CastOptionsEE3getEv = comdat any

$_ZSt7launderIPKN5arrow7compute11CastOptionsEEPT_S6_ = comdat any

$_ZN5arrow6ResultINS_5DatumEE14ConstructValueIRKS1_EEvOT_ = comdat any

$_ZN5arrow8internal14AlignedStorageINS_5DatumEE9constructIJRKS2_EEEvDpOT_ = comdat any

$_ZNK5arrow5Datum4kindEv = comdat any

$_ZSt3getISt10shared_ptrIN5arrow9ArrayDataEEJNS1_5Datum5EmptyES0_INS1_6ScalarEES3_S0_INS1_12ChunkedArrayEES0_INS1_11RecordBatchEES0_INS1_5TableEEEERKT_RKSt7variantIJDpT0_EE = comdat any

$_ZSt3getILm2EJN5arrow5Datum5EmptyESt10shared_ptrINS0_6ScalarEES3_INS0_9ArrayDataEES3_INS0_12ChunkedArrayEES3_INS0_11RecordBatchEES3_INS0_5TableEEEERKNSt19variant_alternativeIXT_ESt7variantIJDpT0_EEE4typeERKSI_ = comdat any

$_ZSt26__throw_bad_variant_accessb = comdat any

$_ZNKSt7variantIJN5arrow5Datum5EmptyESt10shared_ptrINS0_6ScalarEES3_INS0_9ArrayDataEES3_INS0_12ChunkedArrayEES3_INS0_11RecordBatchEES3_INS0_5TableEEEE22valueless_by_exceptionEv = comdat any

$_ZSt26__throw_bad_variant_accessPKc = comdat any

$_ZNSt18bad_variant_accessC2EPKc = comdat any

$_ZNSt18bad_variant_accessD2Ev = comdat any

$_ZNSt18bad_variant_accessD0Ev = comdat any

$_ZNKSt18bad_variant_access4whatEv = comdat any

$_ZN5arrow6ResultISt10shared_ptrINS_9ArrayDataEEE15MoveValueUnsafeEv = comdat any

$_ZN5arrow8internal14AlignedStorageISt10shared_ptrINS_9ArrayDataEEE3getEv = comdat any

$_ZNSt10shared_ptrIN5arrow9ArrayDataEEC2EOS2_ = comdat any

$_ZSt7launderISt10shared_ptrIN5arrow9ArrayDataEEEPT_S5_ = comdat any

$_ZNSt12__shared_ptrIN5arrow9ArrayDataELN9__gnu_cxx12_Lock_policyE2EEC2EOS4_ = comdat any

$_ZNSt7variantIJN5arrow5Datum5EmptyESt10shared_ptrINS0_6ScalarEES3_INS0_9ArrayDataEES3_INS0_12ChunkedArrayEES3_INS0_11RecordBatchEES3_INS0_5TableEEEEC2IS7_vvS7_vEEOT_ = comdat any

$_ZNSt7variantIJN5arrow5Datum5EmptyESt10shared_ptrINS0_6ScalarEES3_INS0_9ArrayDataEES3_INS0_12ChunkedArrayEES3_INS0_11RecordBatchEES3_INS0_5TableEEEEC2ILm2EJS7_ES7_vEESt16in_place_index_tIXT_EEDpOT0_ = comdat any

$_ZNSt8__detail9__variant13_Variant_baseIJN5arrow5Datum5EmptyESt10shared_ptrINS2_6ScalarEES5_INS2_9ArrayDataEES5_INS2_12ChunkedArrayEES5_INS2_11RecordBatchEES5_INS2_5TableEEEEC2ILm2EJS9_EEESt16in_place_index_tIXT_EEDpOT0_ = comdat any

$_ZNSt27_Enable_default_constructorILb1ESt7variantIJN5arrow5Datum5EmptyESt10shared_ptrINS1_6ScalarEES4_INS1_9ArrayDataEES4_INS1_12ChunkedArrayEES4_INS1_11RecordBatchEES4_INS1_5TableEEEEEC2ESt31_Enable_default_constructor_tag = comdat any

$_ZNSt8__detail9__variant17_Move_assign_baseILb0EJN5arrow5Datum5EmptyESt10shared_ptrINS2_6ScalarEES5_INS2_9ArrayDataEES5_INS2_12ChunkedArrayEES5_INS2_11RecordBatchEES5_INS2_5TableEEEECI2NS0_16_Variant_storageILb0EJS4_S7_S9_SB_SD_SF_EEEILm2EJS9_EEESt16in_place_index_tIXT_EEDpOT0_ = comdat any

$_ZNSt8__detail9__variant17_Copy_assign_baseILb0EJN5arrow5Datum5EmptyESt10shared_ptrINS2_6ScalarEES5_INS2_9ArrayDataEES5_INS2_12ChunkedArrayEES5_INS2_11RecordBatchEES5_INS2_5TableEEEECI2NS0_16_Variant_storageILb0EJS4_S7_S9_SB_SD_SF_EEEILm2EJS9_EEESt16in_place_index_tIXT_EEDpOT0_ = comdat any

$_ZNSt8__detail9__variant15_Move_ctor_baseILb0EJN5arrow5Datum5EmptyESt10shared_ptrINS2_6ScalarEES5_INS2_9ArrayDataEES5_INS2_12ChunkedArrayEES5_INS2_11RecordBatchEES5_INS2_5TableEEEECI2NS0_16_Variant_storageILb0EJS4_S7_S9_SB_SD_SF_EEEILm2EJS9_EEESt16in_place_index_tIXT_EEDpOT0_ = comdat any

$_ZNSt8__detail9__variant15_Copy_ctor_baseILb0EJN5arrow5Datum5EmptyESt10shared_ptrINS2_6ScalarEES5_INS2_9ArrayDataEES5_INS2_12ChunkedArrayEES5_INS2_11RecordBatchEES5_INS2_5TableEEEECI2NS0_16_Variant_storageILb0EJS4_S7_S9_SB_SD_SF_EEEILm2EJS9_EEESt16in_place_index_tIXT_EEDpOT0_ = comdat any

$_ZNSt8__detail9__variant16_Variant_storageILb0EJN5arrow5Datum5EmptyESt10shared_ptrINS2_6ScalarEES5_INS2_9ArrayDataEES5_INS2_12ChunkedArrayEES5_INS2_11RecordBatchEES5_INS2_5TableEEEEC2ILm2EJS9_EEESt16in_place_index_tIXT_EEDpOT0_ = comdat any

$_ZNSt8__detail9__variant15_Variadic_unionIJN5arrow5Datum5EmptyESt10shared_ptrINS2_6ScalarEES5_INS2_9ArrayDataEES5_INS2_12ChunkedArrayEES5_INS2_11RecordBatchEES5_INS2_5TableEEEEC2ILm2EJS9_EEESt16in_place_index_tIXT_EEDpOT0_ = comdat any

$_ZNSt8__detail9__variant15_Variadic_unionIJSt10shared_ptrIN5arrow6ScalarEES2_INS3_9ArrayDataEES2_INS3_12ChunkedArrayEES2_INS3_11RecordBatchEES2_INS3_5TableEEEEC2ILm1EJS7_EEESt16in_place_index_tIXT_EEDpOT0_ = comdat any

$_ZNSt8__detail9__variant15_Variadic_unionIJSt10shared_ptrIN5arrow9ArrayDataEES2_INS3_12ChunkedArrayEES2_INS3_11RecordBatchEES2_INS3_5TableEEEEC2IJS5_EEESt16in_place_index_tILm0EEDpOT_ = comdat any

$_ZNSt8__detail9__variant14_UninitializedISt10shared_ptrIN5arrow9ArrayDataEELb0EEC2IJS5_EEESt16in_place_index_tILm0EEDpOT_ = comdat any

$_ZN5arrow6ResultINS_5DatumEE14ConstructValueIS1_EEvOT_ = comdat any

$_ZN5arrow8internal14AlignedStorageINS_5DatumEE9constructIJS2_EEEvDpOT_ = comdat any

$_ZN5arrow5DatumC2EOS0_ = comdat any

$_ZNSt7variantIJN5arrow5Datum5EmptyESt10shared_ptrINS0_6ScalarEES3_INS0_9ArrayDataEES3_INS0_12ChunkedArrayEES3_INS0_11RecordBatchEES3_INS0_5TableEEEEC2EOSE_ = comdat any

$_ZNSt8__detail9__variant13_Variant_baseIJN5arrow5Datum5EmptyESt10shared_ptrINS2_6ScalarEES5_INS2_9ArrayDataEES5_INS2_12ChunkedArrayEES5_INS2_11RecordBatchEES5_INS2_5TableEEEEC2EOSG_ = comdat any

$_ZNSt8__detail9__variant17_Move_assign_baseILb0EJN5arrow5Datum5EmptyESt10shared_ptrINS2_6ScalarEES5_INS2_9ArrayDataEES5_INS2_12ChunkedArrayEES5_INS2_11RecordBatchEES5_INS2_5TableEEEEC2EOSG_ = comdat any

$_ZNSt8__detail9__variant17_Copy_assign_baseILb0EJN5arrow5Datum5EmptyESt10shared_ptrINS2_6ScalarEES5_INS2_9ArrayDataEES5_INS2_12ChunkedArrayEES5_INS2_11RecordBatchEES5_INS2_5TableEEEEC2EOSG_ = comdat any

$_ZNSt8__detail9__variant15_Move_ctor_baseILb0EJN5arrow5Datum5EmptyESt10shared_ptrINS2_6ScalarEES5_INS2_9ArrayDataEES5_INS2_12ChunkedArrayEES5_INS2_11RecordBatchEES5_INS2_5TableEEEEC2EOSG_ = comdat any

$_ZNSt8__detail9__variant15_Copy_ctor_baseILb0EJN5arrow5Datum5EmptyESt10shared_ptrINS2_6ScalarEES5_INS2_9ArrayDataEES5_INS2_12ChunkedArrayEES5_INS2_11RecordBatchEES5_INS2_5TableEEEEC2Ev = comdat any

$_ZNSt8__detail9__variant15__raw_idx_visitIZNS0_15_Move_ctor_baseILb0EJN5arrow5Datum5EmptyESt10shared_ptrINS3_6ScalarEES6_INS3_9ArrayDataEES6_INS3_12ChunkedArrayEES6_INS3_11RecordBatchEES6_INS3_5TableEEEEC1EOSH_EUlOT_T0_E_JSt7variantIJS5_S8_SA_SC_SE_SG_EEEEEvSK_DpOT0_ = comdat any

$_ZSt14__variant_castIJN5arrow5Datum5EmptyESt10shared_ptrINS0_6ScalarEES3_INS0_9ArrayDataEES3_INS0_12ChunkedArrayEES3_INS0_11RecordBatchEES3_INS0_5TableEEENSt8__detail9__variant15_Move_ctor_baseILb0EJS2_S5_S7_S9_SB_SD_EEEEDcOT0_ = comdat any

$_ZSt10__do_visitINSt8__detail9__variant20__variant_idx_cookieEZNS1_15_Move_ctor_baseILb0EJN5arrow5Datum5EmptyESt10shared_ptrINS4_6ScalarEES7_INS4_9ArrayDataEES7_INS4_12ChunkedArrayEES7_INS4_11RecordBatchEES7_INS4_5TableEEEEC1EOSI_EUlOT_T0_E_JSt7variantIJS6_S9_SB_SD_SF_SH_EEEEDcOSM_DpOT1_ = comdat any

$_ZZSt10__do_visitINSt8__detail9__variant20__variant_idx_cookieEZNS1_15_Move_ctor_baseILb0EJN5arrow5Datum5EmptyESt10shared_ptrINS4_6ScalarEES7_INS4_9ArrayDataEES7_INS4_12ChunkedArrayEES7_INS4_11RecordBatchEES7_INS4_5TableEEEEC1EOSI_EUlOT_T0_E_JSt7variantIJS6_S9_SB_SD_SF_SH_EEEEDcOSM_DpOT1_ENKUlRSP_zE_clESU_z = comdat any

$_ZNSt8__detail9__variant17__gen_vtable_implINS0_12_Multi_arrayIPFNS0_20__variant_idx_cookieEOZNS0_15_Move_ctor_baseILb0EJN5arrow5Datum5EmptyESt10shared_ptrINS5_6ScalarEES8_INS5_9ArrayDataEES8_INS5_12ChunkedArrayEES8_INS5_11RecordBatchEES8_INS5_5TableEEEEC1EOSJ_EUlOT_T0_E_OSt7variantIJS7_SA_SC_SE_SG_SI_EEEJEEESt16integer_sequenceImJLm0EEEE14__visit_invokeESP_SS_ = comdat any

$_ZNSt8__detail9__variant17__gen_vtable_implINS0_12_Multi_arrayIPFNS0_20__variant_idx_cookieEOZNS0_15_Move_ctor_baseILb0EJN5arrow5Datum5EmptyESt10shared_ptrINS5_6ScalarEES8_INS5_9ArrayDataEES8_INS5_12ChunkedArrayEES8_INS5_11RecordBatchEES8_INS5_5TableEEEEC1EOSJ_EUlOT_T0_E_OSt7variantIJS7_SA_SC_SE_SG_SI_EEEJEEESt16integer_sequenceImJLm1EEEE14__visit_invokeESP_SS_ = comdat any

$_ZNSt8__detail9__variant17__gen_vtable_implINS0_12_Multi_arrayIPFNS0_20__variant_idx_cookieEOZNS0_15_Move_ctor_baseILb0EJN5arrow5Datum5EmptyESt10shared_ptrINS5_6ScalarEES8_INS5_9ArrayDataEES8_INS5_12ChunkedArrayEES8_INS5_11RecordBatchEES8_INS5_5TableEEEEC1EOSJ_EUlOT_T0_E_OSt7variantIJS7_SA_SC_SE_SG_SI_EEEJEEESt16integer_sequenceImJLm2EEEE14__visit_invokeESP_SS_ = comdat any

$_ZNSt8__detail9__variant17__gen_vtable_implINS0_12_Multi_arrayIPFNS0_20__variant_idx_cookieEOZNS0_15_Move_ctor_baseILb0EJN5arrow5Datum5EmptyESt10shared_ptrINS5_6ScalarEES8_INS5_9ArrayDataEES8_INS5_12ChunkedArrayEES8_INS5_11RecordBatchEES8_INS5_5TableEEEEC1EOSJ_EUlOT_T0_E_OSt7variantIJS7_SA_SC_SE_SG_SI_EEEJEEESt16integer_sequenceImJLm3EEEE14__visit_invokeESP_SS_ = comdat any

$_ZNSt8__detail9__variant17__gen_vtable_implINS0_12_Multi_arrayIPFNS0_20__variant_idx_cookieEOZNS0_15_Move_ctor_baseILb0EJN5arrow5Datum5EmptyESt10shared_ptrINS5_6ScalarEES8_INS5_9ArrayDataEES8_INS5_12ChunkedArrayEES8_INS5_11RecordBatchEES8_INS5_5TableEEEEC1EOSJ_EUlOT_T0_E_OSt7variantIJS7_SA_SC_SE_SG_SI_EEEJEEESt16integer_sequenceImJLm4EEEE14__visit_invokeESP_SS_ = comdat any

$_ZNSt8__detail9__variant17__gen_vtable_implINS0_12_Multi_arrayIPFNS0_20__variant_idx_cookieEOZNS0_15_Move_ctor_baseILb0EJN5arrow5Datum5EmptyESt10shared_ptrINS5_6ScalarEES8_INS5_9ArrayDataEES8_INS5_12ChunkedArrayEES8_INS5_11RecordBatchEES8_INS5_5TableEEEEC1EOSJ_EUlOT_T0_E_OSt7variantIJS7_SA_SC_SE_SG_SI_EEEJEEESt16integer_sequenceImJLm5EEEE14__visit_invokeESP_SS_ = comdat any

$_ZNSt8__detail9__variant17__gen_vtable_implINS0_12_Multi_arrayIPFNS0_20__variant_idx_cookieEOZNS0_15_Move_ctor_baseILb0EJN5arrow5Datum5EmptyESt10shared_ptrINS5_6ScalarEES8_INS5_9ArrayDataEES8_INS5_12ChunkedArrayEES8_INS5_11RecordBatchEES8_INS5_5TableEEEEC1EOSJ_EUlOT_T0_E_OSt7variantIJS7_SA_SC_SE_SG_SI_EEEJEEESt16integer_sequenceImJLm18446744073709551615EEEE14__visit_invokeESP_SS_ = comdat any

$_ZSt8__invokeIZNSt8__detail9__variant15_Move_ctor_baseILb0EJN5arrow5Datum5EmptyESt10shared_ptrINS3_6ScalarEES6_INS3_9ArrayDataEES6_INS3_12ChunkedArrayEES6_INS3_11RecordBatchEES6_INS3_5TableEEEEC1EOSH_EUlOT_T0_E_JS5_St17integral_constantImLm0EEEENSt15__invoke_resultISJ_JDpT0_EE4typeESK_DpOSQ_ = comdat any

$_ZNSt8__detail9__variant17__gen_vtable_implINS0_12_Multi_arrayIPFNS0_20__variant_idx_cookieEOZNS0_15_Move_ctor_baseILb0EJN5arrow5Datum5EmptyESt10shared_ptrINS5_6ScalarEES8_INS5_9ArrayDataEES8_INS5_12ChunkedArrayEES8_INS5_11RecordBatchEES8_INS5_5TableEEEEC1EOSJ_EUlOT_T0_E_OSt7variantIJS7_SA_SC_SE_SG_SI_EEEJEEESt16integer_sequenceImJLm0EEEE28__element_by_index_or_cookieILm0ESR_EEDcOSN_ = comdat any

$_ZSt13__invoke_implIvZNSt8__detail9__variant15_Move_ctor_baseILb0EJN5arrow5Datum5EmptyESt10shared_ptrINS3_6ScalarEES6_INS3_9ArrayDataEES6_INS3_12ChunkedArrayEES6_INS3_11RecordBatchEES6_INS3_5TableEEEEC1EOSH_EUlOT_T0_E_JS5_St17integral_constantImLm0EEEESJ_St14__invoke_otherOSL_DpOT1_ = comdat any

$_ZZNSt8__detail9__variant15_Move_ctor_baseILb0EJN5arrow5Datum5EmptyESt10shared_ptrINS2_6ScalarEES5_INS2_9ArrayDataEES5_INS2_12ChunkedArrayEES5_INS2_11RecordBatchEES5_INS2_5TableEEEEC1EOSG_ENUlOT_T0_E_clIS4_St17integral_constantImLm0EEEEDaSJ_SK_ = comdat any

$_ZSt10_ConstructINSt8__detail9__variant15_Variadic_unionIJN5arrow5Datum5EmptyESt10shared_ptrINS3_6ScalarEES6_INS3_9ArrayDataEES6_INS3_12ChunkedArrayEES6_INS3_11RecordBatchEES6_INS3_5TableEEEEEJRKSt16in_place_index_tILm0EES5_EEvPT_DpOT0_ = comdat any

$_ZNSt8__detail9__variant15_Variadic_unionIJN5arrow5Datum5EmptyESt10shared_ptrINS2_6ScalarEES5_INS2_9ArrayDataEES5_INS2_12ChunkedArrayEES5_INS2_11RecordBatchEES5_INS2_5TableEEEEC2IJS4_EEESt16in_place_index_tILm0EEDpOT_ = comdat any

$_ZNSt8__detail9__variant14_UninitializedIN5arrow5Datum5EmptyELb1EEC2IJS4_EEESt16in_place_index_tILm0EEDpOT_ = comdat any

$_ZNSt8__detail9__variant5__getILm0ESt7variantIJN5arrow5Datum5EmptyESt10shared_ptrINS3_6ScalarEES6_INS3_9ArrayDataEES6_INS3_12ChunkedArrayEES6_INS3_11RecordBatchEES6_INS3_5TableEEEEEEDcOT0_ = comdat any

$_ZNSt8__detail9__variant7__get_nILm0ENS0_15_Variadic_unionIJN5arrow5Datum5EmptyESt10shared_ptrINS3_6ScalarEES6_INS3_9ArrayDataEES6_INS3_12ChunkedArrayEES6_INS3_11RecordBatchEES6_INS3_5TableEEEEEEEDcOT0_ = comdat any

$_ZNOSt8__detail9__variant14_UninitializedIN5arrow5Datum5EmptyELb1EE6_M_getEv = comdat any

$_ZSt8__invokeIZNSt8__detail9__variant15_Move_ctor_baseILb0EJN5arrow5Datum5EmptyESt10shared_ptrINS3_6ScalarEES6_INS3_9ArrayDataEES6_INS3_12ChunkedArrayEES6_INS3_11RecordBatchEES6_INS3_5TableEEEEC1EOSH_EUlOT_T0_E_JS8_St17integral_constantImLm1EEEENSt15__invoke_resultISJ_JDpT0_EE4typeESK_DpOSQ_ = comdat any

$_ZNSt8__detail9__variant17__gen_vtable_implINS0_12_Multi_arrayIPFNS0_20__variant_idx_cookieEOZNS0_15_Move_ctor_baseILb0EJN5arrow5Datum5EmptyESt10shared_ptrINS5_6ScalarEES8_INS5_9ArrayDataEES8_INS5_12ChunkedArrayEES8_INS5_11RecordBatchEES8_INS5_5TableEEEEC1EOSJ_EUlOT_T0_E_OSt7variantIJS7_SA_SC_SE_SG_SI_EEEJEEESt16integer_sequenceImJLm1EEEE28__element_by_index_or_cookieILm1ESR_EEDcOSN_ = comdat any

$_ZSt13__invoke_implIvZNSt8__detail9__variant15_Move_ctor_baseILb0EJN5arrow5Datum5EmptyESt10shared_ptrINS3_6ScalarEES6_INS3_9ArrayDataEES6_INS3_12ChunkedArrayEES6_INS3_11RecordBatchEES6_INS3_5TableEEEEC1EOSH_EUlOT_T0_E_JS8_St17integral_constantImLm1EEEESJ_St14__invoke_otherOSL_DpOT1_ = comdat any

$_ZZNSt8__detail9__variant15_Move_ctor_baseILb0EJN5arrow5Datum5EmptyESt10shared_ptrINS2_6ScalarEES5_INS2_9ArrayDataEES5_INS2_12ChunkedArrayEES5_INS2_11RecordBatchEES5_INS2_5TableEEEEC1EOSG_ENUlOT_T0_E_clIS7_St17integral_constantImLm1EEEEDaSJ_SK_ = comdat any

$_ZSt10_ConstructINSt8__detail9__variant15_Variadic_unionIJN5arrow5Datum5EmptyESt10shared_ptrINS3_6ScalarEES6_INS3_9ArrayDataEES6_INS3_12ChunkedArrayEES6_INS3_11RecordBatchEES6_INS3_5TableEEEEEJRKSt16in_place_index_tILm1EES8_EEvPT_DpOT0_ = comdat any

$_ZNSt8__detail9__variant15_Variadic_unionIJN5arrow5Datum5EmptyESt10shared_ptrINS2_6ScalarEES5_INS2_9ArrayDataEES5_INS2_12ChunkedArrayEES5_INS2_11RecordBatchEES5_INS2_5TableEEEEC2ILm1EJS7_EEESt16in_place_index_tIXT_EEDpOT0_ = comdat any

$_ZNSt8__detail9__variant15_Variadic_unionIJSt10shared_ptrIN5arrow6ScalarEES2_INS3_9ArrayDataEES2_INS3_12ChunkedArrayEES2_INS3_11RecordBatchEES2_INS3_5TableEEEEC2IJS5_EEESt16in_place_index_tILm0EEDpOT_ = comdat any

$_ZNSt8__detail9__variant14_UninitializedISt10shared_ptrIN5arrow6ScalarEELb0EEC2IJS5_EEESt16in_place_index_tILm0EEDpOT_ = comdat any

$_ZNSt8__detail9__variant5__getILm1ESt7variantIJN5arrow5Datum5EmptyESt10shared_ptrINS3_6ScalarEES6_INS3_9ArrayDataEES6_INS3_12ChunkedArrayEES6_INS3_11RecordBatchEES6_INS3_5TableEEEEEEDcOT0_ = comdat any

$_ZNSt8__detail9__variant7__get_nILm1ENS0_15_Variadic_unionIJN5arrow5Datum5EmptyESt10shared_ptrINS3_6ScalarEES6_INS3_9ArrayDataEES6_INS3_12ChunkedArrayEES6_INS3_11RecordBatchEES6_INS3_5TableEEEEEEEDcOT0_ = comdat any

$_ZNOSt8__detail9__variant14_UninitializedISt10shared_ptrIN5arrow6ScalarEELb0EE6_M_getEv = comdat any

$_ZSt8__invokeIZNSt8__detail9__variant15_Move_ctor_baseILb0EJN5arrow5Datum5EmptyESt10shared_ptrINS3_6ScalarEES6_INS3_9ArrayDataEES6_INS3_12ChunkedArrayEES6_INS3_11RecordBatchEES6_INS3_5TableEEEEC1EOSH_EUlOT_T0_E_JSA_St17integral_constantImLm2EEEENSt15__invoke_resultISJ_JDpT0_EE4typeESK_DpOSQ_ = comdat any

$_ZNSt8__detail9__variant17__gen_vtable_implINS0_12_Multi_arrayIPFNS0_20__variant_idx_cookieEOZNS0_15_Move_ctor_baseILb0EJN5arrow5Datum5EmptyESt10shared_ptrINS5_6ScalarEES8_INS5_9ArrayDataEES8_INS5_12ChunkedArrayEES8_INS5_11RecordBatchEES8_INS5_5TableEEEEC1EOSJ_EUlOT_T0_E_OSt7variantIJS7_SA_SC_SE_SG_SI_EEEJEEESt16integer_sequenceImJLm2EEEE28__element_by_index_or_cookieILm2ESR_EEDcOSN_ = comdat any

$_ZSt13__invoke_implIvZNSt8__detail9__variant15_Move_ctor_baseILb0EJN5arrow5Datum5EmptyESt10shared_ptrINS3_6ScalarEES6_INS3_9ArrayDataEES6_INS3_12ChunkedArrayEES6_INS3_11RecordBatchEES6_INS3_5TableEEEEC1EOSH_EUlOT_T0_E_JSA_St17integral_constantImLm2EEEESJ_St14__invoke_otherOSL_DpOT1_ = comdat any

$_ZZNSt8__detail9__variant15_Move_ctor_baseILb0EJN5arrow5Datum5EmptyESt10shared_ptrINS2_6ScalarEES5_INS2_9ArrayDataEES5_INS2_12ChunkedArrayEES5_INS2_11RecordBatchEES5_INS2_5TableEEEEC1EOSG_ENUlOT_T0_E_clIS9_St17integral_constantImLm2EEEEDaSJ_SK_ = comdat any

$_ZSt10_ConstructINSt8__detail9__variant15_Variadic_unionIJN5arrow5Datum5EmptyESt10shared_ptrINS3_6ScalarEES6_INS3_9ArrayDataEES6_INS3_12ChunkedArrayEES6_INS3_11RecordBatchEES6_INS3_5TableEEEEEJRKSt16in_place_index_tILm2EESA_EEvPT_DpOT0_ = comdat any

$_ZNSt8__detail9__variant5__getILm2ESt7variantIJN5arrow5Datum5EmptyESt10shared_ptrINS3_6ScalarEES6_INS3_9ArrayDataEES6_INS3_12ChunkedArrayEES6_INS3_11RecordBatchEES6_INS3_5TableEEEEEEDcOT0_ = comdat any

$_ZNSt8__detail9__variant7__get_nILm2ENS0_15_Variadic_unionIJN5arrow5Datum5EmptyESt10shared_ptrINS3_6ScalarEES6_INS3_9ArrayDataEES6_INS3_12ChunkedArrayEES6_INS3_11RecordBatchEES6_INS3_5TableEEEEEEEDcOT0_ = comdat any

$_ZNOSt8__detail9__variant14_UninitializedISt10shared_ptrIN5arrow9ArrayDataEELb0EE6_M_getEv = comdat any

$_ZSt8__invokeIZNSt8__detail9__variant15_Move_ctor_baseILb0EJN5arrow5Datum5EmptyESt10shared_ptrINS3_6ScalarEES6_INS3_9ArrayDataEES6_INS3_12ChunkedArrayEES6_INS3_11RecordBatchEES6_INS3_5TableEEEEC1EOSH_EUlOT_T0_E_JSC_St17integral_constantImLm3EEEENSt15__invoke_resultISJ_JDpT0_EE4typeESK_DpOSQ_ = comdat any

$_ZNSt8__detail9__variant17__gen_vtable_implINS0_12_Multi_arrayIPFNS0_20__variant_idx_cookieEOZNS0_15_Move_ctor_baseILb0EJN5arrow5Datum5EmptyESt10shared_ptrINS5_6ScalarEES8_INS5_9ArrayDataEES8_INS5_12ChunkedArrayEES8_INS5_11RecordBatchEES8_INS5_5TableEEEEC1EOSJ_EUlOT_T0_E_OSt7variantIJS7_SA_SC_SE_SG_SI_EEEJEEESt16integer_sequenceImJLm3EEEE28__element_by_index_or_cookieILm3ESR_EEDcOSN_ = comdat any

$_ZSt13__invoke_implIvZNSt8__detail9__variant15_Move_ctor_baseILb0EJN5arrow5Datum5EmptyESt10shared_ptrINS3_6ScalarEES6_INS3_9ArrayDataEES6_INS3_12ChunkedArrayEES6_INS3_11RecordBatchEES6_INS3_5TableEEEEC1EOSH_EUlOT_T0_E_JSC_St17integral_constantImLm3EEEESJ_St14__invoke_otherOSL_DpOT1_ = comdat any

$_ZZNSt8__detail9__variant15_Move_ctor_baseILb0EJN5arrow5Datum5EmptyESt10shared_ptrINS2_6ScalarEES5_INS2_9ArrayDataEES5_INS2_12ChunkedArrayEES5_INS2_11RecordBatchEES5_INS2_5TableEEEEC1EOSG_ENUlOT_T0_E_clISB_St17integral_constantImLm3EEEEDaSJ_SK_ = comdat any

$_ZSt10_ConstructINSt8__detail9__variant15_Variadic_unionIJN5arrow5Datum5EmptyESt10shared_ptrINS3_6ScalarEES6_INS3_9ArrayDataEES6_INS3_12ChunkedArrayEES6_INS3_11RecordBatchEES6_INS3_5TableEEEEEJRKSt16in_place_index_tILm3EESC_EEvPT_DpOT0_ = comdat any

$_ZNSt8__detail9__variant15_Variadic_unionIJN5arrow5Datum5EmptyESt10shared_ptrINS2_6ScalarEES5_INS2_9ArrayDataEES5_INS2_12ChunkedArrayEES5_INS2_11RecordBatchEES5_INS2_5TableEEEEC2ILm3EJSB_EEESt16in_place_index_tIXT_EEDpOT0_ = comdat any

$_ZNSt8__detail9__variant15_Variadic_unionIJSt10shared_ptrIN5arrow6ScalarEES2_INS3_9ArrayDataEES2_INS3_12ChunkedArrayEES2_INS3_11RecordBatchEES2_INS3_5TableEEEEC2ILm2EJS9_EEESt16in_place_index_tIXT_EEDpOT0_ = comdat any

$_ZNSt8__detail9__variant15_Variadic_unionIJSt10shared_ptrIN5arrow9ArrayDataEES2_INS3_12ChunkedArrayEES2_INS3_11RecordBatchEES2_INS3_5TableEEEEC2ILm1EJS7_EEESt16in_place_index_tIXT_EEDpOT0_ = comdat any

$_ZNSt8__detail9__variant15_Variadic_unionIJSt10shared_ptrIN5arrow12ChunkedArrayEES2_INS3_11RecordBatchEES2_INS3_5TableEEEEC2IJS5_EEESt16in_place_index_tILm0EEDpOT_ = comdat any

$_ZNSt8__detail9__variant14_UninitializedISt10shared_ptrIN5arrow12ChunkedArrayEELb0EEC2IJS5_EEESt16in_place_index_tILm0EEDpOT_ = comdat any

$_ZNSt10shared_ptrIN5arrow12ChunkedArrayEEC2EOS2_ = comdat any

$_ZNSt12__shared_ptrIN5arrow12ChunkedArrayELN9__gnu_cxx12_Lock_policyE2EEC2EOS4_ = comdat any

$_ZNSt8__detail9__variant5__getILm3ESt7variantIJN5arrow5Datum5EmptyESt10shared_ptrINS3_6ScalarEES6_INS3_9ArrayDataEES6_INS3_12ChunkedArrayEES6_INS3_11RecordBatchEES6_INS3_5TableEEEEEEDcOT0_ = comdat any

$_ZNSt8__detail9__variant7__get_nILm3ENS0_15_Variadic_unionIJN5arrow5Datum5EmptyESt10shared_ptrINS3_6ScalarEES6_INS3_9ArrayDataEES6_INS3_12ChunkedArrayEES6_INS3_11RecordBatchEES6_INS3_5TableEEEEEEEDcOT0_ = comdat any

$_ZNSt8__detail9__variant7__get_nILm0ENS0_15_Variadic_unionIJSt10shared_ptrIN5arrow12ChunkedArrayEES3_INS4_11RecordBatchEES3_INS4_5TableEEEEEEEDcOT0_ = comdat any

$_ZNOSt8__detail9__variant14_UninitializedISt10shared_ptrIN5arrow12ChunkedArrayEELb0EE6_M_getEv = comdat any

$_ZSt8__invokeIZNSt8__detail9__variant15_Move_ctor_baseILb0EJN5arrow5Datum5EmptyESt10shared_ptrINS3_6ScalarEES6_INS3_9ArrayDataEES6_INS3_12ChunkedArrayEES6_INS3_11RecordBatchEES6_INS3_5TableEEEEC1EOSH_EUlOT_T0_E_JSE_St17integral_constantImLm4EEEENSt15__invoke_resultISJ_JDpT0_EE4typeESK_DpOSQ_ = comdat any

$_ZNSt8__detail9__variant17__gen_vtable_implINS0_12_Multi_arrayIPFNS0_20__variant_idx_cookieEOZNS0_15_Move_ctor_baseILb0EJN5arrow5Datum5EmptyESt10shared_ptrINS5_6ScalarEES8_INS5_9ArrayDataEES8_INS5_12ChunkedArrayEES8_INS5_11RecordBatchEES8_INS5_5TableEEEEC1EOSJ_EUlOT_T0_E_OSt7variantIJS7_SA_SC_SE_SG_SI_EEEJEEESt16integer_sequenceImJLm4EEEE28__element_by_index_or_cookieILm4ESR_EEDcOSN_ = comdat any

$_ZSt13__invoke_implIvZNSt8__detail9__variant15_Move_ctor_baseILb0EJN5arrow5Datum5EmptyESt10shared_ptrINS3_6ScalarEES6_INS3_9ArrayDataEES6_INS3_12ChunkedArrayEES6_INS3_11RecordBatchEES6_INS3_5TableEEEEC1EOSH_EUlOT_T0_E_JSE_St17integral_constantImLm4EEEESJ_St14__invoke_otherOSL_DpOT1_ = comdat any

$_ZZNSt8__detail9__variant15_Move_ctor_baseILb0EJN5arrow5Datum5EmptyESt10shared_ptrINS2_6ScalarEES5_INS2_9ArrayDataEES5_INS2_12ChunkedArrayEES5_INS2_11RecordBatchEES5_INS2_5TableEEEEC1EOSG_ENUlOT_T0_E_clISD_St17integral_constantImLm4EEEEDaSJ_SK_ = comdat any

$_ZSt10_ConstructINSt8__detail9__variant15_Variadic_unionIJN5arrow5Datum5EmptyESt10shared_ptrINS3_6ScalarEES6_INS3_9ArrayDataEES6_INS3_12ChunkedArrayEES6_INS3_11RecordBatchEES6_INS3_5TableEEEEEJRKSt16in_place_index_tILm4EESE_EEvPT_DpOT0_ = comdat any

$_ZNSt8__detail9__variant15_Variadic_unionIJN5arrow5Datum5EmptyESt10shared_ptrINS2_6ScalarEES5_INS2_9ArrayDataEES5_INS2_12ChunkedArrayEES5_INS2_11RecordBatchEES5_INS2_5TableEEEEC2ILm4EJSD_EEESt16in_place_index_tIXT_EEDpOT0_ = comdat any

$_ZNSt8__detail9__variant15_Variadic_unionIJSt10shared_ptrIN5arrow6ScalarEES2_INS3_9ArrayDataEES2_INS3_12ChunkedArrayEES2_INS3_11RecordBatchEES2_INS3_5TableEEEEC2ILm3EJSB_EEESt16in_place_index_tIXT_EEDpOT0_ = comdat any

$_ZNSt8__detail9__variant15_Variadic_unionIJSt10shared_ptrIN5arrow9ArrayDataEES2_INS3_12ChunkedArrayEES2_INS3_11RecordBatchEES2_INS3_5TableEEEEC2ILm2EJS9_EEESt16in_place_index_tIXT_EEDpOT0_ = comdat any

$_ZNSt8__detail9__variant15_Variadic_unionIJSt10shared_ptrIN5arrow12ChunkedArrayEES2_INS3_11RecordBatchEES2_INS3_5TableEEEEC2ILm1EJS7_EEESt16in_place_index_tIXT_EEDpOT0_ = comdat any

$_ZNSt8__detail9__variant15_Variadic_unionIJSt10shared_ptrIN5arrow11RecordBatchEES2_INS3_5TableEEEEC2IJS5_EEESt16in_place_index_tILm0EEDpOT_ = comdat any

$_ZNSt8__detail9__variant14_UninitializedISt10shared_ptrIN5arrow11RecordBatchEELb0EEC2IJS5_EEESt16in_place_index_tILm0EEDpOT_ = comdat any

$_ZNSt10shared_ptrIN5arrow11RecordBatchEEC2EOS2_ = comdat any

$_ZNSt12__shared_ptrIN5arrow11RecordBatchELN9__gnu_cxx12_Lock_policyE2EEC2EOS4_ = comdat any

$_ZNSt8__detail9__variant5__getILm4ESt7variantIJN5arrow5Datum5EmptyESt10shared_ptrINS3_6ScalarEES6_INS3_9ArrayDataEES6_INS3_12ChunkedArrayEES6_INS3_11RecordBatchEES6_INS3_5TableEEEEEEDcOT0_ = comdat any

$_ZNSt8__detail9__variant7__get_nILm4ENS0_15_Variadic_unionIJN5arrow5Datum5EmptyESt10shared_ptrINS3_6ScalarEES6_INS3_9ArrayDataEES6_INS3_12ChunkedArrayEES6_INS3_11RecordBatchEES6_INS3_5TableEEEEEEEDcOT0_ = comdat any

$_ZNSt8__detail9__variant7__get_nILm1ENS0_15_Variadic_unionIJSt10shared_ptrIN5arrow12ChunkedArrayEES3_INS4_11RecordBatchEES3_INS4_5TableEEEEEEEDcOT0_ = comdat any

$_ZNOSt8__detail9__variant14_UninitializedISt10shared_ptrIN5arrow11RecordBatchEELb0EE6_M_getEv = comdat any

$_ZSt8__invokeIZNSt8__detail9__variant15_Move_ctor_baseILb0EJN5arrow5Datum5EmptyESt10shared_ptrINS3_6ScalarEES6_INS3_9ArrayDataEES6_INS3_12ChunkedArrayEES6_INS3_11RecordBatchEES6_INS3_5TableEEEEC1EOSH_EUlOT_T0_E_JSG_St17integral_constantImLm5EEEENSt15__invoke_resultISJ_JDpT0_EE4typeESK_DpOSQ_ = comdat any

$_ZNSt8__detail9__variant17__gen_vtable_implINS0_12_Multi_arrayIPFNS0_20__variant_idx_cookieEOZNS0_15_Move_ctor_baseILb0EJN5arrow5Datum5EmptyESt10shared_ptrINS5_6ScalarEES8_INS5_9ArrayDataEES8_INS5_12ChunkedArrayEES8_INS5_11RecordBatchEES8_INS5_5TableEEEEC1EOSJ_EUlOT_T0_E_OSt7variantIJS7_SA_SC_SE_SG_SI_EEEJEEESt16integer_sequenceImJLm5EEEE28__element_by_index_or_cookieILm5ESR_EEDcOSN_ = comdat any

$_ZSt13__invoke_implIvZNSt8__detail9__variant15_Move_ctor_baseILb0EJN5arrow5Datum5EmptyESt10shared_ptrINS3_6ScalarEES6_INS3_9ArrayDataEES6_INS3_12ChunkedArrayEES6_INS3_11RecordBatchEES6_INS3_5TableEEEEC1EOSH_EUlOT_T0_E_JSG_St17integral_constantImLm5EEEESJ_St14__invoke_otherOSL_DpOT1_ = comdat any

$_ZZNSt8__detail9__variant15_Move_ctor_baseILb0EJN5arrow5Datum5EmptyESt10shared_ptrINS2_6ScalarEES5_INS2_9ArrayDataEES5_INS2_12ChunkedArrayEES5_INS2_11RecordBatchEES5_INS2_5TableEEEEC1EOSG_ENUlOT_T0_E_clISF_St17integral_constantImLm5EEEEDaSJ_SK_ = comdat any

$_ZSt10_ConstructINSt8__detail9__variant15_Variadic_unionIJN5arrow5Datum5EmptyESt10shared_ptrINS3_6ScalarEES6_INS3_9ArrayDataEES6_INS3_12ChunkedArrayEES6_INS3_11RecordBatchEES6_INS3_5TableEEEEEJRKSt16in_place_index_tILm5EESG_EEvPT_DpOT0_ = comdat any

$_ZNSt8__detail9__variant15_Variadic_unionIJN5arrow5Datum5EmptyESt10shared_ptrINS2_6ScalarEES5_INS2_9ArrayDataEES5_INS2_12ChunkedArrayEES5_INS2_11RecordBatchEES5_INS2_5TableEEEEC2ILm5EJSF_EEESt16in_place_index_tIXT_EEDpOT0_ = comdat any

$_ZNSt8__detail9__variant15_Variadic_unionIJSt10shared_ptrIN5arrow6ScalarEES2_INS3_9ArrayDataEES2_INS3_12ChunkedArrayEES2_INS3_11RecordBatchEES2_INS3_5TableEEEEC2ILm4EJSD_EEESt16in_place_index_tIXT_EEDpOT0_ = comdat any

$_ZNSt8__detail9__variant15_Variadic_unionIJSt10shared_ptrIN5arrow9ArrayDataEES2_INS3_12ChunkedArrayEES2_INS3_11RecordBatchEES2_INS3_5TableEEEEC2ILm3EJSB_EEESt16in_place_index_tIXT_EEDpOT0_ = comdat any

$_ZNSt8__detail9__variant15_Variadic_unionIJSt10shared_ptrIN5arrow12ChunkedArrayEES2_INS3_11RecordBatchEES2_INS3_5TableEEEEC2ILm2EJS9_EEESt16in_place_index_tIXT_EEDpOT0_ = comdat any

$_ZNSt8__detail9__variant15_Variadic_unionIJSt10shared_ptrIN5arrow11RecordBatchEES2_INS3_5TableEEEEC2ILm1EJS7_EEESt16in_place_index_tIXT_EEDpOT0_ = comdat any

$_ZNSt8__detail9__variant15_Variadic_unionIJSt10shared_ptrIN5arrow5TableEEEEC2IJS5_EEESt16in_place_index_tILm0EEDpOT_ = comdat any

$_ZNSt8__detail9__variant14_UninitializedISt10shared_ptrIN5arrow5TableEELb0EEC2IJS5_EEESt16in_place_index_tILm0EEDpOT_ = comdat any

$_ZNSt10shared_ptrIN5arrow5TableEEC2EOS2_ = comdat any

$_ZNSt12__shared_ptrIN5arrow5TableELN9__gnu_cxx12_Lock_policyE2EEC2EOS4_ = comdat any

$_ZNSt8__detail9__variant5__getILm5ESt7variantIJN5arrow5Datum5EmptyESt10shared_ptrINS3_6ScalarEES6_INS3_9ArrayDataEES6_INS3_12ChunkedArrayEES6_INS3_11RecordBatchEES6_INS3_5TableEEEEEEDcOT0_ = comdat any

$_ZNSt8__detail9__variant7__get_nILm5ENS0_15_Variadic_unionIJN5arrow5Datum5EmptyESt10shared_ptrINS3_6ScalarEES6_INS3_9ArrayDataEES6_INS3_12ChunkedArrayEES6_INS3_11RecordBatchEES6_INS3_5TableEEEEEEEDcOT0_ = comdat any

$_ZNSt8__detail9__variant7__get_nILm2ENS0_15_Variadic_unionIJSt10shared_ptrIN5arrow12ChunkedArrayEES3_INS4_11RecordBatchEES3_INS4_5TableEEEEEEEDcOT0_ = comdat any

$_ZNOSt8__detail9__variant14_UninitializedISt10shared_ptrIN5arrow5TableEELb0EE6_M_getEv = comdat any

$_ZSt8__invokeIZNSt8__detail9__variant15_Move_ctor_baseILb0EJN5arrow5Datum5EmptyESt10shared_ptrINS3_6ScalarEES6_INS3_9ArrayDataEES6_INS3_12ChunkedArrayEES6_INS3_11RecordBatchEES6_INS3_5TableEEEEC1EOSH_EUlOT_T0_E_JNS1_16__variant_cookieESt17integral_constantImLm18446744073709551615EEEENSt15__invoke_resultISJ_JDpT0_EE4typeESK_DpOSR_ = comdat any

$_ZNSt8__detail9__variant17__gen_vtable_implINS0_12_Multi_arrayIPFNS0_20__variant_idx_cookieEOZNS0_15_Move_ctor_baseILb0EJN5arrow5Datum5EmptyESt10shared_ptrINS5_6ScalarEES8_INS5_9ArrayDataEES8_INS5_12ChunkedArrayEES8_INS5_11RecordBatchEES8_INS5_5TableEEEEC1EOSJ_EUlOT_T0_E_OSt7variantIJS7_SA_SC_SE_SG_SI_EEEJEEESt16integer_sequenceImJLm18446744073709551615EEEE28__element_by_index_or_cookieILm18446744073709551615ESR_EEDcOSN_ = comdat any

$_ZSt13__invoke_implIvZNSt8__detail9__variant15_Move_ctor_baseILb0EJN5arrow5Datum5EmptyESt10shared_ptrINS3_6ScalarEES6_INS3_9ArrayDataEES6_INS3_12ChunkedArrayEES6_INS3_11RecordBatchEES6_INS3_5TableEEEEC1EOSH_EUlOT_T0_E_JNS1_16__variant_cookieESt17integral_constantImLm18446744073709551615EEEESJ_St14__invoke_otherOSL_DpOT1_ = comdat any

$_ZZNSt8__detail9__variant15_Move_ctor_baseILb0EJN5arrow5Datum5EmptyESt10shared_ptrINS2_6ScalarEES5_INS2_9ArrayDataEES5_INS2_12ChunkedArrayEES5_INS2_11RecordBatchEES5_INS2_5TableEEEEC1EOSG_ENUlOT_T0_E_clINS0_16__variant_cookieESt17integral_constantImLm18446744073709551615EEEEDaSJ_SK_ = comdat any

$_ZN5arrow6ResultISt10shared_ptrINS_9ArrayDataEEE7DestroyEv = comdat any

$_ZN5arrow4util18EqualityComparableINS_6ResultISt10shared_ptrINS_9ArrayDataEEEEED2Ev = comdat any

$_ZN5arrow8internal14AlignedStorageISt10shared_ptrINS_9ArrayDataEEE7destroyEv = comdat any

$_ZSt3getISt10shared_ptrIN5arrow12ChunkedArrayEEJNS1_5Datum5EmptyES0_INS1_6ScalarEES0_INS1_9ArrayDataEES3_S0_INS1_11RecordBatchEES0_INS1_5TableEEEERKT_RKSt7variantIJDpT0_EE = comdat any

$_ZSt3getILm3EJN5arrow5Datum5EmptyESt10shared_ptrINS0_6ScalarEES3_INS0_9ArrayDataEES3_INS0_12ChunkedArrayEES3_INS0_11RecordBatchEES3_INS0_5TableEEEERKNSt19variant_alternativeIXT_ESt7variantIJDpT0_EEE4typeERKSI_ = comdat any

$_ZNKSt19__shared_ptr_accessIN5arrow12ChunkedArrayELN9__gnu_cxx12_Lock_policyE2ELb0ELb0EE6_M_getEv = comdat any

$_ZNKSt12__shared_ptrIN5arrow12ChunkedArrayELN9__gnu_cxx12_Lock_policyE2EE3getEv = comdat any

$_ZN5arrow6ResultISt10shared_ptrINS_12ChunkedArrayEEE15MoveValueUnsafeEv = comdat any

$_ZN5arrow8internal14AlignedStorageISt10shared_ptrINS_12ChunkedArrayEEE3getEv = comdat any

$_ZSt7launderISt10shared_ptrIN5arrow12ChunkedArrayEEEPT_S5_ = comdat any

$_ZN5arrow6ResultISt10shared_ptrINS_12ChunkedArrayEEE7DestroyEv = comdat any

$_ZN5arrow4util18EqualityComparableINS_6ResultISt10shared_ptrINS_12ChunkedArrayEEEEED2Ev = comdat any

$_ZN5arrow8internal14AlignedStorageISt10shared_ptrINS_12ChunkedArrayEEE7destroyEv = comdat any

$_ZN5arrow6Status8FromArgsIJRKNSt7__cxx1112basic_stringIcSt11char_traitsIcESaIcEEERA7_KcRNS_8DataTypeEEEES0_NS_10StatusCodeEDpOT_ = comdat any

$_ZN5arrow4util13StringBuilderIJRKNSt7__cxx1112basic_stringIcSt11char_traitsIcESaIcEEERA7_KcRNS_8DataTypeEEEES7_DpOT_ = comdat any

$_ZN5arrow4util22StringBuilderRecursiveIRKNSt7__cxx1112basic_stringIcSt11char_traitsIcESaIcEEEJRA7_KcRNS_8DataTypeEEEEvRSoOT_DpOT0_ = comdat any

$_ZN5arrow4util22StringBuilderRecursiveIRA7_KcJRNS_8DataTypeEEEEvRSoOT_DpOT0_ = comdat any

$_ZN5arrow4util22StringBuilderRecursiveIRA7_KcEEvRSoOT_ = comdat any

$_ZN5arrow4util22StringBuilderRecursiveIRNS_8DataTypeEEEvRSoOT_ = comdat any

$_ZNR5arrow6ResultISt10shared_ptrINS_7compute8internal12CastFunctionEEE10ValueOrDieEv = comdat any

$_ZNR5arrow6ResultISt10shared_ptrINS_7compute8internal12CastFunctionEEE11ValueUnsafeEv = comdat any

$_ZN5arrow8internal14AlignedStorageISt10shared_ptrINS_7compute8internal12CastFunctionEEE3getEv = comdat any

$_ZSt7launderISt10shared_ptrIN5arrow7compute8internal12CastFunctionEEEPT_S7_ = comdat any

$_ZN5arrow6ResultISt10shared_ptrINS_7compute8internal12CastFunctionEEE7DestroyEv = comdat any

$_ZN5arrow4util18EqualityComparableINS_6ResultISt10shared_ptrINS_7compute8internal12CastFunctionEEEEED2Ev = comdat any

$_ZN5arrow8internal14AlignedStorageISt10shared_ptrINS_7compute8internal12CastFunctionEEE7destroyEv = comdat any

$_ZN5arrow6ResultIPKNS_7compute11CastOptionsEE7DestroyEv = comdat any

$_ZN5arrow4util18EqualityComparableINS_6ResultIPKNS_7compute11CastOptionsEEEED2Ev = comdat any

$_ZN5arrow8internal14AlignedStorageIPKNS_7compute11CastOptionsEE7destroyEv = comdat any

$_ZSt11make_uniqueIN5arrow7compute8internal14OptionsWrapperINS1_11CastOptionsEEEJRKS4_EENSt8__detail9_MakeUniqIT_E15__single_objectEDpOT0_ = comdat any

$_ZN5arrow6ResultISt10unique_ptrINS_7compute11KernelStateESt14default_deleteIS3_EEEC2IS1_INS2_8internal14OptionsWrapperINS2_11CastOptionsEEES4_ISC_EEvEEOT_ = comdat any

$_ZNSt10unique_ptrIN5arrow7compute8internal14OptionsWrapperINS1_11CastOptionsEEESt14default_deleteIS5_EED2Ev = comdat any

$_ZN5arrow6Status7InvalidIJRA62_KcEEES0_DpOT_ = comdat any

$_ZN5arrow6ResultISt10unique_ptrINS_7compute11KernelStateESt14default_deleteIS3_EEEC2ERKNS_6StatusE = comdat any

$_ZN5arrow7compute8internal14OptionsWrapperINS0_11CastOptionsEEC2ES3_ = comdat any

$_ZNSt10unique_ptrIN5arrow7compute8internal14OptionsWrapperINS1_11CastOptionsEEESt14default_deleteIS5_EEC2IS7_vEEPS5_ = comdat any

$_ZN5arrow7compute11KernelStateC2Ev = comdat any

$_ZN5arrow7compute11CastOptionsC2EOS1_ = comdat any

$_ZN5arrow7compute8internal14OptionsWrapperINS0_11CastOptionsEED2Ev = comdat any

$_ZN5arrow7compute8internal14OptionsWrapperINS0_11CastOptionsEED0Ev = comdat any

$_ZN5arrow7compute11KernelStateD2Ev = comdat any

$_ZN5arrow7compute11KernelStateD0Ev = comdat any

$_ZNSt15__uniq_ptr_dataIN5arrow7compute8internal14OptionsWrapperINS1_11CastOptionsEEESt14default_deleteIS5_ELb1ELb1EECI2St15__uniq_ptr_implIS5_S7_EEPS5_ = comdat any

$_ZNSt15__uniq_ptr_implIN5arrow7compute8internal14OptionsWrapperINS1_11CastOptionsEEESt14default_deleteIS5_EEC2EPS5_ = comdat any

$_ZNSt5tupleIJPN5arrow7compute8internal14OptionsWrapperINS1_11CastOptionsEEESt14default_deleteIS5_EEEC2ILb1ETnNSt9enable_ifIXclsr17_TupleConstraintsIXT_ES6_S8_EE37__is_implicitly_default_constructibleEEbE4typeELb1EEEv = comdat any

$_ZNSt15__uniq_ptr_implIN5arrow7compute8internal14OptionsWrapperINS1_11CastOptionsEEESt14default_deleteIS5_EE6_M_ptrEv = comdat any

$_ZNSt11_Tuple_implILm0EJPN5arrow7compute8internal14OptionsWrapperINS1_11CastOptionsEEESt14default_deleteIS5_EEEC2Ev = comdat any

$_ZNSt11_Tuple_implILm1EJSt14default_deleteIN5arrow7compute8internal14OptionsWrapperINS2_11CastOptionsEEEEEEC2Ev = comdat any

$_ZNSt10_Head_baseILm0EPN5arrow7compute8internal14OptionsWrapperINS1_11CastOptionsEEELb0EEC2Ev = comdat any

$_ZNSt10_Head_baseILm1ESt14default_deleteIN5arrow7compute8internal14OptionsWrapperINS2_11CastOptionsEEEELb1EEC2Ev = comdat any

$_ZSt3getILm0EJPN5arrow7compute8internal14OptionsWrapperINS1_11CastOptionsEEESt14default_deleteIS5_EEERNSt13tuple_elementIXT_ESt5tupleIJDpT0_EEE4typeERSD_ = comdat any

$_ZSt12__get_helperILm0EPN5arrow7compute8internal14OptionsWrapperINS1_11CastOptionsEEEJSt14default_deleteIS5_EEERT0_RSt11_Tuple_implIXT_EJS9_DpT1_EE = comdat any

$_ZNSt11_Tuple_implILm0EJPN5arrow7compute8internal14OptionsWrapperINS1_11CastOptionsEEESt14default_deleteIS5_EEE7_M_headERS9_ = comdat any

$_ZNSt10_Head_baseILm0EPN5arrow7compute8internal14OptionsWrapperINS1_11CastOptionsEEELb0EE7_M_headERS7_ = comdat any

$_ZN5arrow6ResultISt10unique_ptrINS_7compute11KernelStateESt14default_deleteIS3_EEE14ConstructValueIS1_INS2_8internal14OptionsWrapperINS2_11CastOptionsEEES4_ISC_EEEEvOT_ = comdat any

$_ZN5arrow8internal14AlignedStorageISt10unique_ptrINS_7compute11KernelStateESt14default_deleteIS4_EEE9constructIJS2_INS3_8internal14OptionsWrapperINS3_11CastOptionsEEES5_ISD_EEEEEvDpOT_ = comdat any

$_ZNSt10unique_ptrIN5arrow7compute11KernelStateESt14default_deleteIS2_EEC2INS1_8internal14OptionsWrapperINS1_11CastOptionsEEES3_ISA_EvEEOS_IT_T0_E = comdat any

$_ZNSt10unique_ptrIN5arrow7compute8internal14OptionsWrapperINS1_11CastOptionsEEESt14default_deleteIS5_EE7releaseEv = comdat any

$_ZNSt10unique_ptrIN5arrow7compute8internal14OptionsWrapperINS1_11CastOptionsEEESt14default_deleteIS5_EE11get_deleterEv = comdat any

$_ZNSt15__uniq_ptr_dataIN5arrow7compute11KernelStateESt14default_deleteIS2_ELb1ELb1EECI2St15__uniq_ptr_implIS2_S4_EIS3_INS1_8internal14OptionsWrapperINS1_11CastOptionsEEEEEEPS2_OT_ = comdat any

$_ZNSt15__uniq_ptr_implIN5arrow7compute8internal14OptionsWrapperINS1_11CastOptionsEEESt14default_deleteIS5_EE7releaseEv = comdat any

$_ZNSt15__uniq_ptr_implIN5arrow7compute8internal14OptionsWrapperINS1_11CastOptionsEEESt14default_deleteIS5_EE10_M_deleterEv = comdat any

$_ZSt3getILm1EJPN5arrow7compute8internal14OptionsWrapperINS1_11CastOptionsEEESt14default_deleteIS5_EEERNSt13tuple_elementIXT_ESt5tupleIJDpT0_EEE4typeERSD_ = comdat any

$_ZSt12__get_helperILm1ESt14default_deleteIN5arrow7compute8internal14OptionsWrapperINS2_11CastOptionsEEEEJEERT0_RSt11_Tuple_implIXT_EJS8_DpT1_EE = comdat any

$_ZNSt11_Tuple_implILm1EJSt14default_deleteIN5arrow7compute8internal14OptionsWrapperINS2_11CastOptionsEEEEEE7_M_headERS8_ = comdat any

$_ZNSt10_Head_baseILm1ESt14default_deleteIN5arrow7compute8internal14OptionsWrapperINS2_11CastOptionsEEEELb1EE7_M_headERS8_ = comdat any

$_ZNSt15__uniq_ptr_implIN5arrow7compute11KernelStateESt14default_deleteIS2_EEC2IS3_INS1_8internal14OptionsWrapperINS1_11CastOptionsEEEEEEPS2_OT_ = comdat any

$_ZNSt5tupleIJPN5arrow7compute11KernelStateESt14default_deleteIS2_EEEC2IRS3_S4_INS1_8internal14OptionsWrapperINS1_11CastOptionsEEEETnNSt9enable_ifIXclsr4_TCCIXntcl14__is_alloc_argIT_EEEEE29__is_implicitly_constructibleISF_T0_EEEbE4typeELb1EEEOSF_OSG_ = comdat any

$_ZNSt11_Tuple_implILm0EJPN5arrow7compute11KernelStateESt14default_deleteIS2_EEEC2IRS3_JS4_INS1_8internal14OptionsWrapperINS1_11CastOptionsEEEEEvEEOT_DpOT0_ = comdat any

$_ZNSt11_Tuple_implILm1EJSt14default_deleteIN5arrow7compute11KernelStateEEEEC2IS0_INS2_8internal14OptionsWrapperINS2_11CastOptionsEEEEEEOT_ = comdat any

$_ZNSt10_Head_baseILm0EPN5arrow7compute11KernelStateELb0EEC2IRS3_EEOT_ = comdat any

$_ZNSt10_Head_baseILm1ESt14default_deleteIN5arrow7compute11KernelStateEELb1EEC2IS0_INS2_8internal14OptionsWrapperINS2_11CastOptionsEEEEEEOT_ = comdat any

$_ZNSt14default_deleteIN5arrow7compute11KernelStateEEC2INS1_8internal14OptionsWrapperINS1_11CastOptionsEEEvEERKS_IT_E = comdat any

$_ZNKSt14default_deleteIN5arrow7compute8internal14OptionsWrapperINS1_11CastOptionsEEEEclEPS5_ = comdat any

$_ZN5arrow6Status8FromArgsIJRA62_KcEEES0_NS_10StatusCodeEDpOT_ = comdat any

$_ZN5arrow4util13StringBuilderIJRA62_KcEEENSt7__cxx1112basic_stringIcSt11char_traitsIcESaIcEEEDpOT_ = comdat any

$_ZN5arrow4util22StringBuilderRecursiveIRA62_KcEEvRSoOT_ = comdat any

$_ZNSt8functionIFN5arrow6ResultISt10unique_ptrINS0_7compute11KernelStateESt14default_deleteIS4_EEEEPNS3_13KernelContextERKNS3_14KernelInitArgsEEEC2IRSE_vEEOT_ = comdat any

$_ZNSt8functionIFN5arrow6ResultISt10unique_ptrINS0_7compute11KernelStateESt14default_deleteIS4_EEEEPNS3_13KernelContextERKNS3_14KernelInitArgsEEE4swapERSF_ = comdat any

$_ZNSt14_Function_base13_Base_managerIPFN5arrow6ResultISt10unique_ptrINS1_7compute11KernelStateESt14default_deleteIS5_EEEEPNS4_13KernelContextERKNS4_14KernelInitArgsEEE21_M_not_empty_functionISF_EEbPT_ = comdat any

$_ZNSt14_Function_base13_Base_managerIPFN5arrow6ResultISt10unique_ptrINS1_7compute11KernelStateESt14default_deleteIS5_EEEEPNS4_13KernelContextERKNS4_14KernelInitArgsEEE15_M_init_functorIRSF_EEvRSt9_Any_dataOT_ = comdat any

$_ZNSt17_Function_handlerIFN5arrow6ResultISt10unique_ptrINS0_7compute11KernelStateESt14default_deleteIS4_EEEEPNS3_13KernelContextERKNS3_14KernelInitArgsEEPSE_E9_M_invokeERKSt9_Any_dataOSA_SD_ = comdat any

$_ZNSt17_Function_handlerIFN5arrow6ResultISt10unique_ptrINS0_7compute11KernelStateESt14default_deleteIS4_EEEEPNS3_13KernelContextERKNS3_14KernelInitArgsEEPSE_E10_M_managerERSt9_Any_dataRKSH_St18_Manager_operation = comdat any

$_ZNSt14_Function_base13_Base_managerIPFN5arrow6ResultISt10unique_ptrINS1_7compute11KernelStateESt14default_deleteIS5_EEEEPNS4_13KernelContextERKNS4_14KernelInitArgsEEE9_M_createIRSF_EEvRSt9_Any_dataOT_St17integral_constantIbLb1EE = comdat any

$_ZNSt9_Any_data9_M_accessEv = comdat any

$_ZSt10__invoke_rIN5arrow6ResultISt10unique_ptrINS0_7compute11KernelStateESt14default_deleteIS4_EEEERPFS8_PNS3_13KernelContextERKNS3_14KernelInitArgsEEJSA_SD_EENSt9enable_ifIX16is_invocable_r_vIT_T0_DpT1_EESI_E4typeEOSJ_DpOSK_ = comdat any

$_ZNSt14_Function_base13_Base_managerIPFN5arrow6ResultISt10unique_ptrINS1_7compute11KernelStateESt14default_deleteIS5_EEEEPNS4_13KernelContextERKNS4_14KernelInitArgsEEE14_M_get_pointerERKSt9_Any_data = comdat any

$_ZSt13__invoke_implIN5arrow6ResultISt10unique_ptrINS0_7compute11KernelStateESt14default_deleteIS4_EEEERPFS8_PNS3_13KernelContextERKNS3_14KernelInitArgsEEJSA_SD_EET_St14__invoke_otherOT0_DpOT1_ = comdat any

$_ZNKSt9_Any_data9_M_accessIPFN5arrow6ResultISt10unique_ptrINS1_7compute11KernelStateESt14default_deleteIS5_EEEEPNS4_13KernelContextERKNS4_14KernelInitArgsEEEERKT_v = comdat any

$_ZNKSt9_Any_data9_M_accessEv = comdat any

$_ZNSt9_Any_data9_M_accessIPKSt9type_infoEERT_v = comdat any

$_ZNSt9_Any_data9_M_accessIPPFN5arrow6ResultISt10unique_ptrINS1_7compute11KernelStateESt14default_deleteIS5_EEEEPNS4_13KernelContextERKNS4_14KernelInitArgsEEEERT_v = comdat any

$_ZNSt14_Function_base13_Base_managerIPFN5arrow6ResultISt10unique_ptrINS1_7compute11KernelStateESt14default_deleteIS5_EEEEPNS4_13KernelContextERKNS4_14KernelInitArgsEEE10_M_managerERSt9_Any_dataRKSI_St18_Manager_operation = comdat any

$_ZNSt14_Function_base13_Base_managerIPFN5arrow6ResultISt10unique_ptrINS1_7compute11KernelStateESt14default_deleteIS5_EEEEPNS4_13KernelContextERKNS4_14KernelInitArgsEEE15_M_init_functorIRKSG_EEvRSt9_Any_dataOT_ = comdat any

$_ZNSt14_Function_base13_Base_managerIPFN5arrow6ResultISt10unique_ptrINS1_7compute11KernelStateESt14default_deleteIS5_EEEEPNS4_13KernelContextERKNS4_14KernelInitArgsEEE10_M_destroyERSt9_Any_dataSt17integral_constantIbLb1EE = comdat any

$_ZNSt14_Function_base13_Base_managerIPFN5arrow6ResultISt10unique_ptrINS1_7compute11KernelStateESt14default_deleteIS5_EEEEPNS4_13KernelContextERKNS4_14KernelInitArgsEEE9_M_createIRKSG_EEvRSt9_Any_dataOT_St17integral_constantIbLb1EE = comdat any

$_ZNSt9_Any_data9_M_accessIPFN5arrow6ResultISt10unique_ptrINS1_7compute11KernelStateESt14default_deleteIS5_EEEEPNS4_13KernelContextERKNS4_14KernelInitArgsEEEERT_v = comdat any

$_ZSt4swapIPFN5arrow6ResultISt10unique_ptrINS0_7compute11KernelStateESt14default_deleteIS4_EEEERKSt9_Any_dataOPNS3_13KernelContextERKNS3_14KernelInitArgsEEENSt9enable_ifIXsr6__and_ISt6__not_ISt15__is_tuple_likeIT_EESt21is_move_constructibleISN_ESt18is_move_assignableISN_EEE5valueEvE4typeERSN_SW_ = comdat any

$_ZNSt16allocator_traitsISaIN5arrow4Type4typeEEE9constructIS2_JRKS2_EEEvRS3_PT_DpOT0_ = comdat any

$_ZNSt6vectorIN5arrow4Type4typeESaIS2_EE17_M_realloc_insertIJRKS2_EEEvN9__gnu_cxx17__normal_iteratorIPS2_S4_EEDpOT_ = comdat any

$_ZNSt6vectorIN5arrow4Type4typeESaIS2_EE3endEv = comdat any

$_ZNSt15__new_allocatorIN5arrow4Type4typeEE9constructIS2_JRKS2_EEEvPT_DpOT0_ = comdat any

$_ZNKSt6vectorIN5arrow4Type4typeESaIS2_EE12_M_check_lenEmPKc = comdat any

$_ZN9__gnu_cxxmiIPN5arrow4Type4typeESt6vectorIS3_SaIS3_EEEENS_17__normal_iteratorIT_T0_E15difference_typeERKSB_SE_ = comdat any

$_ZNSt6vectorIN5arrow4Type4typeESaIS2_EE5beginEv = comdat any

$_ZNSt12_Vector_baseIN5arrow4Type4typeESaIS2_EE11_M_allocateEm = comdat any

$_ZNSt6vectorIN5arrow4Type4typeESaIS2_EE11_S_relocateEPS2_S5_S5_RS3_ = comdat any

$_ZNK9__gnu_cxx17__normal_iteratorIPN5arrow4Type4typeESt6vectorIS3_SaIS3_EEE4baseEv = comdat any

$_ZNKSt6vectorIN5arrow4Type4typeESaIS2_EE8max_sizeEv = comdat any

$_ZNKSt6vectorIN5arrow4Type4typeESaIS2_EE4sizeEv = comdat any

$_ZNSt6vectorIN5arrow4Type4typeESaIS2_EE11_S_max_sizeERKS3_ = comdat any

$_ZNKSt12_Vector_baseIN5arrow4Type4typeESaIS2_EE19_M_get_Tp_allocatorEv = comdat any

$_ZNSt16allocator_traitsISaIN5arrow4Type4typeEEE8max_sizeERKS3_ = comdat any

$_ZNKSt15__new_allocatorIN5arrow4Type4typeEE8max_sizeEv = comdat any

$_ZNKSt15__new_allocatorIN5arrow4Type4typeEE11_M_max_sizeEv = comdat any

$_ZN9__gnu_cxx17__normal_iteratorIPN5arrow4Type4typeESt6vectorIS3_SaIS3_EEEC2ERKS4_ = comdat any

$_ZNSt16allocator_traitsISaIN5arrow4Type4typeEEE8allocateERS3_m = comdat any

$_ZNSt15__new_allocatorIN5arrow4Type4typeEE8allocateEmPKv = comdat any

$_ZSt12__relocate_aIPN5arrow4Type4typeES3_SaIS2_EET0_T_S6_S5_RT1_ = comdat any

$_ZSt14__relocate_a_1IN5arrow4Type4typeES2_ENSt9enable_ifIXsr3std24__is_bitwise_relocatableIT_EE5valueEPS4_E4typeES5_S5_S5_RSaIT0_E = comdat any

$_ZSt12__niter_baseIPN5arrow4Type4typeEET_S4_ = comdat any

$_ZNSt12__shared_ptrIN5arrow7compute15KernelSignatureELN9__gnu_cxx12_Lock_policyE2EEaSEOS5_ = comdat any

$_ZNSt12__shared_ptrIN5arrow7compute15KernelSignatureELN9__gnu_cxx12_Lock_policyE2EEC2EOS5_ = comdat any

$_ZNSt12__shared_ptrIN5arrow7compute15KernelSignatureELN9__gnu_cxx12_Lock_policyE2EE4swapERS5_ = comdat any

$_ZNSt12__shared_ptrIN5arrow7compute15KernelSignatureELN9__gnu_cxx12_Lock_policyE2EED2Ev = comdat any

$_ZSt4swapIPN5arrow7compute15KernelSignatureEENSt9enable_ifIXsr6__and_ISt6__not_ISt15__is_tuple_likeIT_EESt21is_move_constructibleIS7_ESt18is_move_assignableIS7_EEE5valueEvE4typeERS7_SG_ = comdat any

$_ZSt8_DestroyIPPKN5arrow7compute12ScalarKernelES4_EvT_S6_RSaIT0_E = comdat any

$_ZNSt12_Vector_baseIPKN5arrow7compute12ScalarKernelESaIS4_EE19_M_get_Tp_allocatorEv = comdat any

$_ZNSt12_Vector_baseIPKN5arrow7compute12ScalarKernelESaIS4_EED2Ev = comdat any

$_ZSt8_DestroyIPPKN5arrow7compute12ScalarKernelEEvT_S6_ = comdat any

$_ZNSt12_Destroy_auxILb1EE9__destroyIPPKN5arrow7compute12ScalarKernelEEEvT_S8_ = comdat any

$_ZNSt12_Vector_baseIPKN5arrow7compute12ScalarKernelESaIS4_EE13_M_deallocateEPS4_m = comdat any

$_ZNSt12_Vector_baseIPKN5arrow7compute12ScalarKernelESaIS4_EE12_Vector_implD2Ev = comdat any

$_ZNSt16allocator_traitsISaIPKN5arrow7compute12ScalarKernelEEE10deallocateERS5_PS4_m = comdat any

$_ZNSt15__new_allocatorIPKN5arrow7compute12ScalarKernelEE10deallocateEPS4_m = comdat any

$_ZNSaIPKN5arrow7compute12ScalarKernelEED2Ev = comdat any

$_ZNSt15__new_allocatorIPKN5arrow7compute12ScalarKernelEED2Ev = comdat any

$_ZN9__gnu_cxx17__normal_iteratorIPKN5arrow7compute12ScalarKernelESt6vectorIS3_SaIS3_EEEC2ERKS5_ = comdat any

$_ZNK9__gnu_cxx17__normal_iteratorIPKN5arrow7compute12ScalarKernelESt6vectorIS3_SaIS3_EEE4baseEv = comdat any

$_ZNKSt19__shared_ptr_accessIN5arrow7compute15KernelSignatureELN9__gnu_cxx12_Lock_policyE2ELb0ELb0EE6_M_getEv = comdat any

$_ZNKSt12__shared_ptrIN5arrow7compute15KernelSignatureELN9__gnu_cxx12_Lock_policyE2EE3getEv = comdat any

$_ZNSt6vectorIPKN5arrow7compute12ScalarKernelESaIS4_EE12emplace_backIJS4_EEERS4_DpOT_ = comdat any

$_ZNSt16allocator_traitsISaIPKN5arrow7compute12ScalarKernelEEE9constructIS4_JS4_EEEvRS5_PT_DpOT0_ = comdat any

$_ZNSt6vectorIPKN5arrow7compute12ScalarKernelESaIS4_EE17_M_realloc_insertIJS4_EEEvN9__gnu_cxx17__normal_iteratorIPS4_S6_EEDpOT_ = comdat any

$_ZNSt6vectorIPKN5arrow7compute12ScalarKernelESaIS4_EE4backEv = comdat any

$_ZNSt15__new_allocatorIPKN5arrow7compute12ScalarKernelEE9constructIS4_JS4_EEEvPT_DpOT0_ = comdat any

$_ZNKSt6vectorIPKN5arrow7compute12ScalarKernelESaIS4_EE12_M_check_lenEmPKc = comdat any

$_ZN9__gnu_cxxmiIPPKN5arrow7compute12ScalarKernelESt6vectorIS5_SaIS5_EEEENS_17__normal_iteratorIT_T0_E15difference_typeERKSD_SG_ = comdat any

$_ZNSt12_Vector_baseIPKN5arrow7compute12ScalarKernelESaIS4_EE11_M_allocateEm = comdat any

$_ZNSt6vectorIPKN5arrow7compute12ScalarKernelESaIS4_EE11_S_relocateEPS4_S7_S7_RS5_ = comdat any

$_ZNK9__gnu_cxx17__normal_iteratorIPPKN5arrow7compute12ScalarKernelESt6vectorIS5_SaIS5_EEE4baseEv = comdat any

$_ZNKSt6vectorIPKN5arrow7compute12ScalarKernelESaIS4_EE8max_sizeEv = comdat any

$_ZNSt6vectorIPKN5arrow7compute12ScalarKernelESaIS4_EE11_S_max_sizeERKS5_ = comdat any

$_ZNKSt12_Vector_baseIPKN5arrow7compute12ScalarKernelESaIS4_EE19_M_get_Tp_allocatorEv = comdat any

$_ZNSt16allocator_traitsISaIPKN5arrow7compute12ScalarKernelEEE8max_sizeERKS5_ = comdat any

$_ZNKSt15__new_allocatorIPKN5arrow7compute12ScalarKernelEE8max_sizeEv = comdat any

$_ZNKSt15__new_allocatorIPKN5arrow7compute12ScalarKernelEE11_M_max_sizeEv = comdat any

$_ZNSt16allocator_traitsISaIPKN5arrow7compute12ScalarKernelEEE8allocateERS5_m = comdat any

$_ZNSt15__new_allocatorIPKN5arrow7compute12ScalarKernelEE8allocateEmPKv = comdat any

$_ZSt12__relocate_aIPPKN5arrow7compute12ScalarKernelES5_SaIS4_EET0_T_S8_S7_RT1_ = comdat any

$_ZSt14__relocate_a_1IPKN5arrow7compute12ScalarKernelES4_ENSt9enable_ifIXsr3std24__is_bitwise_relocatableIT_EE5valueEPS6_E4typeES7_S7_S7_RSaIT0_E = comdat any

$_ZSt12__niter_baseIPPKN5arrow7compute12ScalarKernelEET_S6_ = comdat any

$_ZNK9__gnu_cxx17__normal_iteratorIPPKN5arrow7compute12ScalarKernelESt6vectorIS5_SaIS5_EEEmiEl = comdat any

$_ZN9__gnu_cxx17__normal_iteratorIPPKN5arrow7compute12ScalarKernelESt6vectorIS5_SaIS5_EEEC2ERKS6_ = comdat any

$_ZN5arrow6Status8FromArgsIJRA23_KcNSt7__cxx1112basic_stringIcSt11char_traitsIcESaIcEEERA5_S2_SA_RA17_S2_RKSA_EEES0_NS_10StatusCodeEDpOT_ = comdat any

$_ZN5arrow4util13StringBuilderIJRA23_KcNSt7__cxx1112basic_stringIcSt11char_traitsIcESaIcEEERA5_S2_SA_RA17_S2_RKSA_EEESA_DpOT_ = comdat any

$_ZN5arrow4util22StringBuilderRecursiveIRA23_KcJNSt7__cxx1112basic_stringIcSt11char_traitsIcESaIcEEERA5_S2_SA_RA17_S2_RKSA_EEEvRSoOT_DpOT0_ = comdat any

$_ZN5arrow4util22StringBuilderRecursiveIRA23_KcEEvRSoOT_ = comdat any

$_ZN5arrow4util22StringBuilderRecursiveINSt7__cxx1112basic_stringIcSt11char_traitsIcESaIcEEEJRA5_KcS7_RA17_S8_RKS7_EEEvRSoOT_DpOT0_ = comdat any

$_ZN5arrow4util22StringBuilderRecursiveIRA5_KcJNSt7__cxx1112basic_stringIcSt11char_traitsIcESaIcEEERA17_S2_RKSA_EEEvRSoOT_DpOT0_ = comdat any

$_ZN5arrow4util22StringBuilderRecursiveIRA5_KcEEvRSoOT_ = comdat any

$_ZN5arrow4util22StringBuilderRecursiveINSt7__cxx1112basic_stringIcSt11char_traitsIcESaIcEEEJRA17_KcRKS7_EEEvRSoOT_DpOT0_ = comdat any

$_ZN5arrow4util22StringBuilderRecursiveIRA17_KcJRKNSt7__cxx1112basic_stringIcSt11char_traitsIcESaIcEEEEEEvRSoOT_DpOT0_ = comdat any

$_ZN5arrow4util22StringBuilderRecursiveIRA17_KcEEvRSoOT_ = comdat any

$_ZN5arrow6ResultIPKNS_7compute6KernelEE14ConstructValueIRPKNS1_12ScalarKernelEEEvOT_ = comdat any

$_ZN5arrow8internal14AlignedStorageIPKNS_7compute6KernelEE9constructIJRPKNS2_12ScalarKernelEEEEvDpOT_ = comdat any

$_ZN5arrow6ResultIPKNS_7compute6KernelEE14ConstructValueIPKNS1_12ScalarKernelEEEvOT_ = comdat any

$_ZN5arrow8internal14AlignedStorageIPKNS_7compute6KernelEE9constructIJPKNS2_12ScalarKernelEEEEvDpOT_ = comdat any

$_ZNSt10_HashtableIiSt4pairIKiSt10shared_ptrIN5arrow7compute8internal12CastFunctionEEESaIS8_ENSt8__detail10_Select1stESt8equal_toIiESt4hashIiENSA_18_Mod_range_hashingENSA_20_Default_ranged_hashENSA_20_Prime_rehash_policyENSA_17_Hashtable_traitsILb0ELb0ELb1EEEE4findERS1_ = comdat any

$_ZNKSt10_HashtableIiSt4pairIKiSt10shared_ptrIN5arrow7compute8internal12CastFunctionEEESaIS8_ENSt8__detail10_Select1stESt8equal_toIiESt4hashIiENSA_18_Mod_range_hashingENSA_20_Default_ranged_hashENSA_20_Prime_rehash_policyENSA_17_Hashtable_traitsILb0ELb0ELb1EEEE4sizeEv = comdat any

$_ZNSt10_HashtableIiSt4pairIKiSt10shared_ptrIN5arrow7compute8internal12CastFunctionEEESaIS8_ENSt8__detail10_Select1stESt8equal_toIiESt4hashIiENSA_18_Mod_range_hashingENSA_20_Default_ranged_hashENSA_20_Prime_rehash_policyENSA_17_Hashtable_traitsILb0ELb0ELb1EEEE22__small_size_thresholdEv = comdat any

$_ZNSt10_HashtableIiSt4pairIKiSt10shared_ptrIN5arrow7compute8internal12CastFunctionEEESaIS8_ENSt8__detail10_Select1stESt8equal_toIiESt4hashIiENSA_18_Mod_range_hashingENSA_20_Default_ranged_hashENSA_20_Prime_rehash_policyENSA_17_Hashtable_traitsILb0ELb0ELb1EEEE5beginEv = comdat any

$_ZNSt8__detailneERKNS_19_Node_iterator_baseISt4pairIKiSt10shared_ptrIN5arrow7compute8internal12CastFunctionEEELb0EEESC_ = comdat any

$_ZNSt10_HashtableIiSt4pairIKiSt10shared_ptrIN5arrow7compute8internal12CastFunctionEEESaIS8_ENSt8__detail10_Select1stESt8equal_toIiESt4hashIiENSA_18_Mod_range_hashingENSA_20_Default_ranged_hashENSA_20_Prime_rehash_policyENSA_17_Hashtable_traitsILb0ELb0ELb1EEEE3endEv = comdat any

$_ZNSt8__detail14_Node_iteratorISt4pairIKiSt10shared_ptrIN5arrow7compute8internal12CastFunctionEEELb0ELb0EEppEv = comdat any

$_ZNSt8__detail22_Hashtable_hash_traitsISt4hashIiEE22__small_size_thresholdEv = comdat any

$_ZNSt8__detail19_Node_iterator_baseISt4pairIKiSt10shared_ptrIN5arrow7compute8internal12CastFunctionEEELb0EE7_M_incrEv = comdat any

$_ZN5arrow6Status8FromArgsIJRA21_KcRKNS_8DataTypeEEEES0_NS_10StatusCodeEDpOT_ = comdat any

$_ZN5arrow4util13StringBuilderIJRA21_KcRKNS_8DataTypeEEEENSt7__cxx1112basic_stringIcSt11char_traitsIcESaIcEEEDpOT_ = comdat any

$_ZN5arrow4util22StringBuilderRecursiveIRA21_KcJRKNS_8DataTypeEEEEvRSoOT_DpOT0_ = comdat any

$_ZN5arrow4util22StringBuilderRecursiveIRA21_KcEEvRSoOT_ = comdat any

$_ZN5arrow4util22StringBuilderRecursiveIRKNS_8DataTypeEEEvRSoOT_ = comdat any

$_ZN5arrow6ResultISt10shared_ptrINS_7compute8internal12CastFunctionEEE14ConstructValueIRS5_EEvOT_ = comdat any

$_ZN5arrow8internal14AlignedStorageISt10shared_ptrINS_7compute8internal12CastFunctionEEE9constructIJRS6_EEEvDpOT_ = comdat any

$_ZNSt10shared_ptrIN5arrow7compute8internal12CastFunctionEEC2ERKS4_ = comdat any

$_ZNSt12__shared_ptrIN5arrow7compute8internal12CastFunctionELN9__gnu_cxx12_Lock_policyE2EEC2ERKS6_ = comdat any

$_ZNSt15__new_allocatorIN5arrow5DatumEEC2Ev = comdat any

$_ZNSt12_Vector_baseIN5arrow5DatumESaIS1_EEC2ERKS2_ = comdat any

$_ZNSt6vectorIN5arrow5DatumESaIS1_EE19_M_range_initializeIPKS1_EEvT_S7_St20forward_iterator_tag = comdat any

$_ZNKSt16initializer_listIN5arrow5DatumEE5beginEv = comdat any

$_ZNKSt16initializer_listIN5arrow5DatumEE3endEv = comdat any

$_ZNSt12_Vector_baseIN5arrow5DatumESaIS1_EE12_Vector_implC2ERKS2_ = comdat any

$_ZNSt12_Vector_baseIN5arrow5DatumESaIS1_EE17_Vector_impl_dataC2Ev = comdat any

$_ZNSt15__new_allocatorIN5arrow5DatumEEC2ERKS2_ = comdat any

$_ZSt8distanceIPKN5arrow5DatumEENSt15iterator_traitsIT_E15difference_typeES5_S5_ = comdat any

$_ZNSt12_Vector_baseIN5arrow5DatumESaIS1_EE11_M_allocateEm = comdat any

$_ZNSt6vectorIN5arrow5DatumESaIS1_EE17_S_check_init_lenEmRKS2_ = comdat any

$_ZSt22__uninitialized_copy_aIPKN5arrow5DatumEPS1_S1_ET0_T_S6_S5_RSaIT1_E = comdat any

$_ZSt10__distanceIPKN5arrow5DatumEENSt15iterator_traitsIT_E15difference_typeES5_S5_St26random_access_iterator_tag = comdat any

$_ZSt19__iterator_categoryIPKN5arrow5DatumEENSt15iterator_traitsIT_E17iterator_categoryERKS5_ = comdat any

$_ZNSt16allocator_traitsISaIN5arrow5DatumEEE8allocateERS2_m = comdat any

$_ZNSt15__new_allocatorIN5arrow5DatumEE8allocateEmPKv = comdat any

$_ZNKSt15__new_allocatorIN5arrow5DatumEE11_M_max_sizeEv = comdat any

$_ZNSt6vectorIN5arrow5DatumESaIS1_EE11_S_max_sizeERKS2_ = comdat any

$_ZNSaIN5arrow5DatumEEC2ERKS1_ = comdat any

$_ZNSt16allocator_traitsISaIN5arrow5DatumEEE8max_sizeERKS2_ = comdat any

$_ZNKSt15__new_allocatorIN5arrow5DatumEE8max_sizeEv = comdat any

$_ZSt18uninitialized_copyIPKN5arrow5DatumEPS1_ET0_T_S6_S5_ = comdat any

$_ZNSt20__uninitialized_copyILb0EE13__uninit_copyIPKN5arrow5DatumEPS3_EET0_T_S8_S7_ = comdat any

$_ZSt16__do_uninit_copyIPKN5arrow5DatumEPS1_ET0_T_S6_S5_ = comdat any

$_ZSt10_ConstructIN5arrow5DatumEJRKS1_EEvPT_DpOT0_ = comdat any

$_ZNKSt16initializer_listIN5arrow5DatumEE4sizeEv = comdat any

$_ZN5arrow6ResultINS_5DatumEE15MoveValueUnsafeEv = comdat any

$_ZN5arrow6ResultISt10shared_ptrINS_5ArrayEEE14ConstructValueIS3_EEvOT_ = comdat any

$_ZN5arrow8internal14AlignedStorageISt10shared_ptrINS_5ArrayEEE9constructIJS4_EEEvDpOT_ = comdat any

$_ZNSt10shared_ptrIN5arrow5ArrayEEC2EOS2_ = comdat any

$_ZNSt12__shared_ptrIN5arrow5ArrayELN9__gnu_cxx12_Lock_policyE2EEC2EOS4_ = comdat any

$_ZN9__gnu_cxx17__normal_iteratorIPKN5arrow4Type4typeESt6vectorIS3_SaIS3_EEEC2ERKS5_ = comdat any

$_ZNK9__gnu_cxx17__normal_iteratorIPKN5arrow4Type4typeESt6vectorIS3_SaIS3_EEE4baseEv = comdat any

$_ZNKSt6vectorIN5arrow7compute12ScalarKernelESaIS2_EE4sizeEv = comdat any

$_ZTVN5arrow7compute11CastOptionsE = comdat any

$_ZN5arrow7compute11CastOptions9kTypeNameE = comdat any

$_ZTSN5arrow7compute14ScalarFunctionE = comdat any

$_ZTSN5arrow7compute6detail12FunctionImplINS0_12ScalarKernelEEE = comdat any

$_ZTIN5arrow7compute6detail12FunctionImplINS0_12ScalarKernelEEE = comdat any

$_ZTIN5arrow7compute14ScalarFunctionE = comdat any

$_ZTSN5arrow7compute11CastOptionsE = comdat any

$_ZTSN5arrow7compute15FunctionOptionsE = comdat any

$_ZTSN5arrow4util18EqualityComparableINS_7compute15FunctionOptionsEEE = comdat any

$_ZTIN5arrow4util18EqualityComparableINS_7compute15FunctionOptionsEEE = comdat any

$_ZTIN5arrow7compute15FunctionOptionsE = comdat any

$_ZTIN5arrow7compute11CastOptionsE = comdat any

$_ZTVN5arrow7compute14ScalarFunctionE = comdat any

$_ZTVN5arrow7compute6detail12FunctionImplINS0_12ScalarKernelEEE = comdat any

$_ZSt19piecewise_construct = comdat any

$_ZTVN5arrow7compute15FunctionOptionsE = comdat any

$_ZSt14in_place_indexILm0EE = comdat any

$_ZSt14in_place_indexILm1EE = comdat any

$_ZSt14in_place_indexILm2EE = comdat any

$_ZSt14in_place_indexILm3EE = comdat any

$_ZSt14in_place_indexILm4EE = comdat any

$_ZSt14in_place_indexILm5EE = comdat any

$_ZZN5arrow7compute8internal22GetFunctionOptionsTypeINS0_11CastOptionsEJNS_8internal18DataMemberPropertyIS3_NS_10TypeHolderEEENS5_IS3_bEES8_S8_S8_S8_S8_EEEPKNS0_19FunctionOptionsTypeEDpRKT0_E8instance = comdat any

$_ZGVZN5arrow7compute8internal22GetFunctionOptionsTypeINS0_11CastOptionsEJNS_8internal18DataMemberPropertyIS3_NS_10TypeHolderEEENS5_IS3_bEES8_S8_S8_S8_S8_EEEPKNS0_19FunctionOptionsTypeEDpRKT0_E8instance = comdat any

$_ZTVZN5arrow7compute8internal22GetFunctionOptionsTypeINS0_11CastOptionsEJNS_8internal18DataMemberPropertyIS3_NS_10TypeHolderEEENS5_IS3_bEES8_S8_S8_S8_S8_EEEPKNS0_19FunctionOptionsTypeEDpRKT0_E11OptionsType = comdat any

$_ZTSZN5arrow7compute8internal22GetFunctionOptionsTypeINS0_11CastOptionsEJNS_8internal18DataMemberPropertyIS3_NS_10TypeHolderEEENS5_IS3_bEES8_S8_S8_S8_S8_EEEPKNS0_19FunctionOptionsTypeEDpRKT0_E11OptionsType = comdat any

$_ZTIZN5arrow7compute8internal22GetFunctionOptionsTypeINS0_11CastOptionsEJNS_8internal18DataMemberPropertyIS3_NS_10TypeHolderEEENS5_IS3_bEES8_S8_S8_S8_S8_EEEPKNS0_19FunctionOptionsTypeEDpRKT0_E11OptionsType = comdat any

$_ZZNK5arrow6Status6detailEvE9no_detail = comdat any

$_ZGVZNK5arrow6Status6detailEvE9no_detail = comdat any

$_ZZNK5arrow6Status7messageB5cxx11EvE10no_messageB5cxx11 = comdat any

$_ZGVZNK5arrow6Status7messageB5cxx11EvE10no_messageB5cxx11 = comdat any

$_ZTVSt23_Sp_counted_ptr_inplaceIN5arrow13BooleanScalarESaIvELN9__gnu_cxx12_Lock_policyE2EE = comdat any

$_ZTSSt23_Sp_counted_ptr_inplaceIN5arrow13BooleanScalarESaIvELN9__gnu_cxx12_Lock_policyE2EE = comdat any

$_ZTSSt16_Sp_counted_baseILN9__gnu_cxx12_Lock_policyE2EE = comdat any

$_ZTSSt11_Mutex_baseILN9__gnu_cxx12_Lock_policyE2EE = comdat any

$_ZTISt11_Mutex_baseILN9__gnu_cxx12_Lock_policyE2EE = comdat any

$_ZTISt16_Sp_counted_baseILN9__gnu_cxx12_Lock_policyE2EE = comdat any

$_ZTISt23_Sp_counted_ptr_inplaceIN5arrow13BooleanScalarESaIvELN9__gnu_cxx12_Lock_policyE2EE = comdat any

$_ZTVSt16_Sp_counted_baseILN9__gnu_cxx12_Lock_policyE2EE = comdat any

$_ZTVN5arrow13BooleanScalarE = comdat any

$_ZTSN5arrow13BooleanScalarE = comdat any

$_ZTSN5arrow8internal15PrimitiveScalarINS_11BooleanTypeEbEE = comdat any

$_ZTSN5arrow8internal19PrimitiveScalarBaseE = comdat any

$_ZTSN5arrow6ScalarE = comdat any

$_ZTSSt23enable_shared_from_thisIN5arrow6ScalarEE = comdat any

$_ZTISt23enable_shared_from_thisIN5arrow6ScalarEE = comdat any

$_ZTSN5arrow4util18EqualityComparableINS_6ScalarEEE = comdat any

$_ZTIN5arrow4util18EqualityComparableINS_6ScalarEEE = comdat any

$_ZTIN5arrow6ScalarE = comdat any

$_ZTIN5arrow8internal19PrimitiveScalarBaseE = comdat any

$_ZTIN5arrow8internal15PrimitiveScalarINS_11BooleanTypeEbEE = comdat any

$_ZTIN5arrow13BooleanScalarE = comdat any

$_ZTVN5arrow8internal15PrimitiveScalarINS_11BooleanTypeEbEE = comdat any

$_ZTVN5arrow8internal19PrimitiveScalarBaseE = comdat any

$_ZTVN5arrow6ScalarE = comdat any

$_ZTSSt19_Sp_make_shared_tag = comdat any

$_ZTISt19_Sp_make_shared_tag = comdat any

$_ZZNSt19_Sp_make_shared_tag5_S_tiEvE5__tag = comdat any

$_ZN5arrow6detail9CTypeImplINS_11BooleanTypeENS_14PrimitiveCTypeELNS_4Type4typeE1EbE7type_idE = comdat any

$_ZTSSt18bad_variant_access = comdat any

$_ZTISt18bad_variant_access = comdat any

$_ZTVSt18bad_variant_access = comdat any

$_ZTVN5arrow7compute8internal14OptionsWrapperINS0_11CastOptionsEEE = comdat any

$_ZTSN5arrow7compute8internal14OptionsWrapperINS0_11CastOptionsEEE = comdat any

$_ZTSN5arrow7compute11KernelStateE = comdat any

$_ZTIN5arrow7compute11KernelStateE = comdat any

$_ZTIN5arrow7compute8internal14OptionsWrapperINS0_11CastOptionsEEE = comdat any

$_ZTVN5arrow7compute11KernelStateE = comdat any

$_ZTSPFN5arrow6ResultISt10unique_ptrINS_7compute11KernelStateESt14default_deleteIS3_EEEEPNS2_13KernelContextERKNS2_14KernelInitArgsEE = comdat any

$_ZTSFN5arrow6ResultISt10unique_ptrINS_7compute11KernelStateESt14default_deleteIS3_EEEEPNS2_13KernelContextERKNS2_14KernelInitArgsEE = comdat any

$_ZTIFN5arrow6ResultISt10unique_ptrINS_7compute11KernelStateESt14default_deleteIS3_EEEEPNS2_13KernelContextERKNS2_14KernelInitArgsEE = comdat any

$_ZTIPFN5arrow6ResultISt10unique_ptrINS_7compute11KernelStateESt14default_deleteIS3_EEEEPNS2_13KernelContextERKNS2_14KernelInitArgsEE = comdat any

@_ZN5arrow7compute8internal12_GLOBAL__N_112g_cast_tableE = internal global %"class.std::unordered_map" zeroinitializer, align 8
@__dso_handle = external hidden global i8
@_ZN5arrow7compute8internal12_GLOBAL__N_18cast_docE = internal global %"struct.arrow::compute::FunctionDoc" zeroinitializer, align 8
@.str = private unnamed_addr constant [33 x i8] c"Cast values to another data type\00", align 1
@.str.2 = private unnamed_addr constant [92 x i8] c"Behavior when values wouldn't fit in the target type\0Acan be controlled through CastOptions.\00", align 1
@.str.3 = private unnamed_addr constant [6 x i8] c"input\00", align 1
@.str.4 = private unnamed_addr constant [12 x i8] c"CastOptions\00", align 1
@_ZN5arrow7compute8internal12_GLOBAL__N_116kCastOptionsTypeE = internal global ptr null, align 8
@.str.6 = private unnamed_addr constant [8 x i8] c"to_type\00", align 1
@.str.7 = private unnamed_addr constant [19 x i8] c"allow_int_overflow\00", align 1
@.str.8 = private unnamed_addr constant [20 x i8] c"allow_time_truncate\00", align 1
@.str.9 = private unnamed_addr constant [20 x i8] c"allow_time_overflow\00", align 1
@.str.10 = private unnamed_addr constant [23 x i8] c"allow_decimal_truncate\00", align 1
@.str.11 = private unnamed_addr constant [21 x i8] c"allow_float_truncate\00", align 1
@.str.12 = private unnamed_addr constant [19 x i8] c"allow_invalid_utf8\00", align 1
@_ZTVN5arrow7compute8internal12CastFunctionE = unnamed_addr constant { [11 x ptr] } { [11 x ptr] [ptr null, ptr @_ZTIN5arrow7compute8internal12CastFunctionE, ptr @_ZN5arrow7compute8internal12CastFunctionD2Ev, ptr @_ZN5arrow7compute8internal12CastFunctionD0Ev, ptr @_ZNK5arrow7compute6detail12FunctionImplINS0_12ScalarKernelEE11num_kernelsEv, ptr @_ZNK5arrow7compute8internal12CastFunction13DispatchExactERKSt6vectorINS_10TypeHolderESaIS4_EE, ptr @_ZNK5arrow7compute8Function12DispatchBestEPSt6vectorINS_10TypeHolderESaIS3_EE, ptr @_ZNK5arrow7compute8Function15GetBestExecutorESt6vectorINS_10TypeHolderESaIS3_EE, ptr @_ZNK5arrow7compute8Function7ExecuteERKSt6vectorINS_5DatumESaIS3_EEPKNS0_15FunctionOptionsEPNS0_11ExecContextE, ptr @_ZNK5arrow7compute8Function7ExecuteERKNS0_9ExecBatchEPKNS0_15FunctionOptionsEPNS0_11ExecContextE, ptr @_ZNK5arrow7compute8Function8ValidateEv] }, align 8
@.str.13 = private unnamed_addr constant [23 x i8] c"Unsupported cast from \00", align 1
@.str.14 = private unnamed_addr constant [5 x i8] c" to \00", align 1
@.str.15 = private unnamed_addr constant [17 x i8] c" using function \00", align 1
@.str.16 = private unnamed_addr constant [21 x i8] c"Unsupported cast to \00", align 1
@_ZTVN5arrow7compute11CastOptionsE = linkonce_odr unnamed_addr constant { [4 x ptr] } { [4 x ptr] [ptr null, ptr @_ZTIN5arrow7compute11CastOptionsE, ptr @_ZN5arrow7compute11CastOptionsD2Ev, ptr @_ZN5arrow7compute11CastOptionsD0Ev] }, comdat, align 8
@_ZN5arrow7compute11CastOptions9kTypeNameE = weak_odr constant [12 x i8] c"CastOptions\00", comdat, align 1
@.str.17 = private unnamed_addr constant [5 x i8] c"cast\00", align 1
@_ZTVN10__cxxabiv120__si_class_type_infoE = external global [0 x ptr]
@_ZTSN5arrow7compute8internal12CastFunctionE = constant [40 x i8] c"N5arrow7compute8internal12CastFunctionE\00", align 1
@_ZTSN5arrow7compute14ScalarFunctionE = linkonce_odr constant [33 x i8] c"N5arrow7compute14ScalarFunctionE\00", comdat, align 1
@_ZTSN5arrow7compute6detail12FunctionImplINS0_12ScalarKernelEEE = linkonce_odr constant [59 x i8] c"N5arrow7compute6detail12FunctionImplINS0_12ScalarKernelEEE\00", comdat, align 1
@_ZTIN5arrow7compute8FunctionE = external constant ptr
@_ZTIN5arrow7compute6detail12FunctionImplINS0_12ScalarKernelEEE = linkonce_odr constant { ptr, ptr, ptr } { ptr getelementptr inbounds (ptr, ptr @_ZTVN10__cxxabiv120__si_class_type_infoE, i64 2), ptr @_ZTSN5arrow7compute6detail12FunctionImplINS0_12ScalarKernelEEE, ptr @_ZTIN5arrow7compute8FunctionE }, comdat, align 8
@_ZTIN5arrow7compute14ScalarFunctionE = linkonce_odr constant { ptr, ptr, ptr } { ptr getelementptr inbounds (ptr, ptr @_ZTVN10__cxxabiv120__si_class_type_infoE, i64 2), ptr @_ZTSN5arrow7compute14ScalarFunctionE, ptr @_ZTIN5arrow7compute6detail12FunctionImplINS0_12ScalarKernelEEE }, comdat, align 8
@_ZTIN5arrow7compute8internal12CastFunctionE = constant { ptr, ptr, ptr } { ptr getelementptr inbounds (ptr, ptr @_ZTVN10__cxxabiv120__si_class_type_infoE, i64 2), ptr @_ZTSN5arrow7compute8internal12CastFunctionE, ptr @_ZTIN5arrow7compute14ScalarFunctionE }, align 8
@_ZTSN5arrow7compute11CastOptionsE = linkonce_odr constant [30 x i8] c"N5arrow7compute11CastOptionsE\00", comdat, align 1
@_ZTSN5arrow7compute15FunctionOptionsE = linkonce_odr constant [34 x i8] c"N5arrow7compute15FunctionOptionsE\00", comdat, align 1
@_ZTVN10__cxxabiv117__class_type_infoE = external global [0 x ptr]
@_ZTSN5arrow4util18EqualityComparableINS_7compute15FunctionOptionsEEE = linkonce_odr constant [65 x i8] c"N5arrow4util18EqualityComparableINS_7compute15FunctionOptionsEEE\00", comdat, align 1
@_ZTIN5arrow4util18EqualityComparableINS_7compute15FunctionOptionsEEE = linkonce_odr constant { ptr, ptr } { ptr getelementptr inbounds (ptr, ptr @_ZTVN10__cxxabiv117__class_type_infoE, i64 2), ptr @_ZTSN5arrow4util18EqualityComparableINS_7compute15FunctionOptionsEEE }, comdat, align 8
@_ZTIN5arrow7compute15FunctionOptionsE = linkonce_odr constant { ptr, ptr, ptr } { ptr getelementptr inbounds (ptr, ptr @_ZTVN10__cxxabiv120__si_class_type_infoE, i64 2), ptr @_ZTSN5arrow7compute15FunctionOptionsE, ptr @_ZTIN5arrow4util18EqualityComparableINS_7compute15FunctionOptionsEEE }, comdat, align 8
@_ZTIN5arrow7compute11CastOptionsE = linkonce_odr constant { ptr, ptr, ptr } { ptr getelementptr inbounds (ptr, ptr @_ZTVN10__cxxabiv120__si_class_type_infoE, i64 2), ptr @_ZTSN5arrow7compute11CastOptionsE, ptr @_ZTIN5arrow7compute15FunctionOptionsE }, comdat, align 8
@__libc_single_threaded = external global i8, align 1
@_ZTVN5arrow7compute14ScalarFunctionE = linkonce_odr unnamed_addr constant { [11 x ptr] } { [11 x ptr] [ptr null, ptr @_ZTIN5arrow7compute14ScalarFunctionE, ptr @_ZN5arrow7compute14ScalarFunctionD2Ev, ptr @_ZN5arrow7compute14ScalarFunctionD0Ev, ptr @_ZNK5arrow7compute6detail12FunctionImplINS0_12ScalarKernelEE11num_kernelsEv, ptr @_ZNK5arrow7compute8Function13DispatchExactERKSt6vectorINS_10TypeHolderESaIS3_EE, ptr @_ZNK5arrow7compute8Function12DispatchBestEPSt6vectorINS_10TypeHolderESaIS3_EE, ptr @_ZNK5arrow7compute8Function15GetBestExecutorESt6vectorINS_10TypeHolderESaIS3_EE, ptr @_ZNK5arrow7compute8Function7ExecuteERKSt6vectorINS_5DatumESaIS3_EEPKNS0_15FunctionOptionsEPNS0_11ExecContextE, ptr @_ZNK5arrow7compute8Function7ExecuteERKNS0_9ExecBatchEPKNS0_15FunctionOptionsEPNS0_11ExecContextE, ptr @_ZNK5arrow7compute8Function8ValidateEv] }, comdat, align 8
@_ZTVN5arrow7compute6detail12FunctionImplINS0_12ScalarKernelEEE = linkonce_odr unnamed_addr constant { [11 x ptr] } { [11 x ptr] [ptr null, ptr @_ZTIN5arrow7compute6detail12FunctionImplINS0_12ScalarKernelEEE, ptr @_ZN5arrow7compute6detail12FunctionImplINS0_12ScalarKernelEED2Ev, ptr @_ZN5arrow7compute6detail12FunctionImplINS0_12ScalarKernelEED0Ev, ptr @_ZNK5arrow7compute6detail12FunctionImplINS0_12ScalarKernelEE11num_kernelsEv, ptr @_ZNK5arrow7compute8Function13DispatchExactERKSt6vectorINS_10TypeHolderESaIS3_EE, ptr @_ZNK5arrow7compute8Function12DispatchBestEPSt6vectorINS_10TypeHolderESaIS3_EE, ptr @_ZNK5arrow7compute8Function15GetBestExecutorESt6vectorINS_10TypeHolderESaIS3_EE, ptr @_ZNK5arrow7compute8Function7ExecuteERKSt6vectorINS_5DatumESaIS3_EEPKNS0_15FunctionOptionsEPNS0_11ExecContextE, ptr @_ZNK5arrow7compute8Function7ExecuteERKNS0_9ExecBatchEPKNS0_15FunctionOptionsEPNS0_11ExecContextE, ptr @_ZNK5arrow7compute8Function8ValidateEv] }, comdat, align 8
@_ZTVN5arrow7compute8FunctionE = external unnamed_addr constant { [11 x ptr] }, align 8
@_ZN5arrow7compute8internal12_GLOBAL__N_122cast_table_initializedE = internal global %"struct.std::once_flag" zeroinitializer, align 4
@_ZSt15__once_callable = external thread_local global ptr, align 8
@_ZSt11__once_call = external thread_local global ptr, align 8
@_ZSt19piecewise_construct = linkonce_odr constant %"struct.std::piecewise_construct_t" zeroinitializer, comdat, align 1
@_ZTVN5arrow7compute15FunctionOptionsE = linkonce_odr unnamed_addr constant { [4 x ptr] } { [4 x ptr] [ptr null, ptr @_ZTIN5arrow7compute15FunctionOptionsE, ptr @_ZN5arrow7compute15FunctionOptionsD2Ev, ptr @_ZN5arrow7compute15FunctionOptionsD0Ev] }, comdat, align 8
@_ZSt14in_place_indexILm0EE = linkonce_odr constant %"struct.std::in_place_index_t" zeroinitializer, comdat, align 1
@_ZSt14in_place_indexILm1EE = linkonce_odr constant %"struct.std::in_place_index_t.147" zeroinitializer, comdat, align 1
@_ZSt14in_place_indexILm2EE = linkonce_odr constant %"struct.std::in_place_index_t.149" zeroinitializer, comdat, align 1
@_ZSt14in_place_indexILm3EE = linkonce_odr constant %"struct.std::in_place_index_t.154" zeroinitializer, comdat, align 1
@_ZSt14in_place_indexILm4EE = linkonce_odr constant %"struct.std::in_place_index_t.159" zeroinitializer, comdat, align 1
@_ZSt14in_place_indexILm5EE = linkonce_odr constant %"struct.std::in_place_index_t.164" zeroinitializer, comdat, align 1
@.str.18 = private unnamed_addr constant [50 x i8] c"basic_string: construction from null is not valid\00", align 1
@.str.19 = private unnamed_addr constant [49 x i8] c"cannot create std::vector larger than max_size()\00", align 1
@_ZZN5arrow7compute8internal22GetFunctionOptionsTypeINS0_11CastOptionsEJNS_8internal18DataMemberPropertyIS3_NS_10TypeHolderEEENS5_IS3_bEES8_S8_S8_S8_S8_EEEPKNS0_19FunctionOptionsTypeEDpRKT0_E8instance = linkonce_odr global %class.OptionsType { %"class.arrow::compute::internal::GenericOptionsType" zeroinitializer, %"struct.arrow::internal::PropertyTuple" { %"class.std::tuple.170" { %"struct.std::_Tuple_impl.171" { %"struct.std::_Tuple_impl.172" { %"struct.std::_Tuple_impl.173" { %"struct.std::_Tuple_impl.174" { %"struct.std::_Tuple_impl.175" { %"struct.std::_Tuple_impl.176" { %"struct.std::_Tuple_impl.177" { %"struct.std::_Head_base.178" { %"struct.arrow::internal::DataMemberProperty.8" { %"class.std::basic_string_view" zeroinitializer, i64 -1 } } }, %"struct.std::_Head_base.179" { %"struct.arrow::internal::DataMemberProperty.8" { %"class.std::basic_string_view" zeroinitializer, i64 -1 } } }, %"struct.std::_Head_base.180" { %"struct.arrow::internal::DataMemberProperty.8" { %"class.std::basic_string_view" zeroinitializer, i64 -1 } } }, %"struct.std::_Head_base.181" { %"struct.arrow::internal::DataMemberProperty.8" { %"class.std::basic_string_view" zeroinitializer, i64 -1 } } }, %"struct.std::_Head_base.182" { %"struct.arrow::internal::DataMemberProperty.8" { %"class.std::basic_string_view" zeroinitializer, i64 -1 } } }, %"struct.std::_Head_base.183" { %"struct.arrow::internal::DataMemberProperty.8" { %"class.std::basic_string_view" zeroinitializer, i64 -1 } } }, %"struct.std::_Head_base.184" { %"struct.arrow::internal::DataMemberProperty" { %"class.std::basic_string_view" zeroinitializer, i64 -1 } } } } } }, comdat, align 8
@_ZGVZN5arrow7compute8internal22GetFunctionOptionsTypeINS0_11CastOptionsEJNS_8internal18DataMemberPropertyIS3_NS_10TypeHolderEEENS5_IS3_bEES8_S8_S8_S8_S8_EEEPKNS0_19FunctionOptionsTypeEDpRKT0_E8instance = linkonce_odr global i64 0, comdat, align 8
@_ZTVZN5arrow7compute8internal22GetFunctionOptionsTypeINS0_11CastOptionsEJNS_8internal18DataMemberPropertyIS3_NS_10TypeHolderEEENS5_IS3_bEES8_S8_S8_S8_S8_EEEPKNS0_19FunctionOptionsTypeEDpRKT0_E11OptionsType = linkonce_odr unnamed_addr constant { [12 x ptr] } { [12 x ptr] [ptr null, ptr @_ZTIZN5arrow7compute8internal22GetFunctionOptionsTypeINS0_11CastOptionsEJNS_8internal18DataMemberPropertyIS3_NS_10TypeHolderEEENS5_IS3_bEES8_S8_S8_S8_S8_EEEPKNS0_19FunctionOptionsTypeEDpRKT0_E11OptionsType, ptr @_ZZN5arrow7compute8internal22GetFunctionOptionsTypeINS0_11CastOptionsEJNS_8internal18DataMemberPropertyIS3_NS_10TypeHolderEEENS5_IS3_bEES8_S8_S8_S8_S8_EEEPKNS0_19FunctionOptionsTypeEDpRKT0_EN11OptionsTypeD2Ev, ptr @_ZZN5arrow7compute8internal22GetFunctionOptionsTypeINS0_11CastOptionsEJNS_8internal18DataMemberPropertyIS3_NS_10TypeHolderEEENS5_IS3_bEES8_S8_S8_S8_S8_EEEPKNS0_19FunctionOptionsTypeEDpRKT0_EN11OptionsTypeD0Ev, ptr @_ZZN5arrow7compute8internal22GetFunctionOptionsTypeINS0_11CastOptionsEJNS_8internal18DataMemberPropertyIS3_NS_10TypeHolderEEENS5_IS3_bEES8_S8_S8_S8_S8_EEEPKNS0_19FunctionOptionsTypeEDpRKT0_ENK11OptionsType9type_nameEv, ptr @_ZZN5arrow7compute8internal22GetFunctionOptionsTypeINS0_11CastOptionsEJNS_8internal18DataMemberPropertyIS3_NS_10TypeHolderEEENS5_IS3_bEES8_S8_S8_S8_S8_EEEPKNS0_19FunctionOptionsTypeEDpRKT0_ENK11OptionsType9StringifyB5cxx11ERKNS0_15FunctionOptionsE, ptr @_ZZN5arrow7compute8internal22GetFunctionOptionsTypeINS0_11CastOptionsEJNS_8internal18DataMemberPropertyIS3_NS_10TypeHolderEEENS5_IS3_bEES8_S8_S8_S8_S8_EEEPKNS0_19FunctionOptionsTypeEDpRKT0_ENK11OptionsType7CompareERKNS0_15FunctionOptionsESJ_, ptr @_ZNK5arrow7compute8internal18GenericOptionsType9SerializeERKNS0_15FunctionOptionsE, ptr @_ZNK5arrow7compute8internal18GenericOptionsType11DeserializeERKNS_6BufferE, ptr @_ZZN5arrow7compute8internal22GetFunctionOptionsTypeINS0_11CastOptionsEJNS_8internal18DataMemberPropertyIS3_NS_10TypeHolderEEENS5_IS3_bEES8_S8_S8_S8_S8_EEEPKNS0_19FunctionOptionsTypeEDpRKT0_ENK11OptionsType4CopyERKNS0_15FunctionOptionsE, ptr @_ZZN5arrow7compute8internal22GetFunctionOptionsTypeINS0_11CastOptionsEJNS_8internal18DataMemberPropertyIS3_NS_10TypeHolderEEENS5_IS3_bEES8_S8_S8_S8_S8_EEEPKNS0_19FunctionOptionsTypeEDpRKT0_ENK11OptionsType14ToStructScalarERKNS0_15FunctionOptionsEPSt6vectorINSt7__cxx1112basic_stringIcSt11char_traitsIcESaIcEEESaISQ_EEPSK_ISt10shared_ptrINS_6ScalarEESaISW_EE, ptr @_ZZN5arrow7compute8internal22GetFunctionOptionsTypeINS0_11CastOptionsEJNS_8internal18DataMemberPropertyIS3_NS_10TypeHolderEEENS5_IS3_bEES8_S8_S8_S8_S8_EEEPKNS0_19FunctionOptionsTypeEDpRKT0_ENK11OptionsType16FromStructScalarERKNS_12StructScalarE] }, comdat, align 8
@_ZTSZN5arrow7compute8internal22GetFunctionOptionsTypeINS0_11CastOptionsEJNS_8internal18DataMemberPropertyIS3_NS_10TypeHolderEEENS5_IS3_bEES8_S8_S8_S8_S8_EEEPKNS0_19FunctionOptionsTypeEDpRKT0_E11OptionsType = linkonce_odr constant [202 x i8] c"ZN5arrow7compute8internal22GetFunctionOptionsTypeINS0_11CastOptionsEJNS_8internal18DataMemberPropertyIS3_NS_10TypeHolderEEENS5_IS3_bEES8_S8_S8_S8_S8_EEEPKNS0_19FunctionOptionsTypeEDpRKT0_E11OptionsType\00", comdat, align 1
@_ZTIN5arrow7compute8internal18GenericOptionsTypeE = external constant ptr
@_ZTIZN5arrow7compute8internal22GetFunctionOptionsTypeINS0_11CastOptionsEJNS_8internal18DataMemberPropertyIS3_NS_10TypeHolderEEENS5_IS3_bEES8_S8_S8_S8_S8_EEEPKNS0_19FunctionOptionsTypeEDpRKT0_E11OptionsType = linkonce_odr constant { ptr, ptr, ptr } { ptr getelementptr inbounds (ptr, ptr @_ZTVN10__cxxabiv120__si_class_type_infoE, i64 2), ptr @_ZTSZN5arrow7compute8internal22GetFunctionOptionsTypeINS0_11CastOptionsEJNS_8internal18DataMemberPropertyIS3_NS_10TypeHolderEEENS5_IS3_bEES8_S8_S8_S8_S8_EEEPKNS0_19FunctionOptionsTypeEDpRKT0_E11OptionsType, ptr @_ZTIN5arrow7compute8internal18GenericOptionsTypeE }, comdat, align 8
@_ZTVN5arrow7compute8internal18GenericOptionsTypeE = external unnamed_addr constant { [12 x ptr] }, align 8
@_ZTVN5arrow7compute19FunctionOptionsTypeE = external unnamed_addr constant { [10 x ptr] }, align 8
@.str.20 = private unnamed_addr constant [5 x i8] c"true\00", align 1
@.str.21 = private unnamed_addr constant [6 x i8] c"false\00", align 1
@.str.22 = private unnamed_addr constant [2 x i8] c"{\00", align 1
@.str.23 = private unnamed_addr constant [3 x i8] c", \00", align 1
@.str.24 = private unnamed_addr constant [2 x i8] c"}\00", align 1
@.str.25 = private unnamed_addr constant [27 x i8] c"Could not serialize field \00", align 1
@.str.26 = private unnamed_addr constant [18 x i8] c" of options type \00", align 1
@.str.27 = private unnamed_addr constant [3 x i8] c": \00", align 1
@.str.28 = private unnamed_addr constant [32 x i8] c"shared_ptr<DataType> is nullptr\00", align 1
@.str.29 = private unnamed_addr constant [38 x i8] c"Constructed with a non-error status: \00", align 1
@_ZTISt12bad_weak_ptr = external constant ptr
@_ZTVSt12bad_weak_ptr = external unnamed_addr constant { [5 x ptr] }, align 8
@_ZTVSt9exception = external unnamed_addr constant { [5 x ptr] }, align 8
@_ZZNK5arrow6Status6detailEvE9no_detail = linkonce_odr global { ptr, %"class.std::__shared_count" } zeroinitializer, comdat, align 8
@_ZGVZNK5arrow6Status6detailEvE9no_detail = linkonce_odr global i64 0, comdat, align 8
@_ZZNK5arrow6Status7messageB5cxx11EvE10no_messageB5cxx11 = linkonce_odr global %"class.std::__cxx11::basic_string" zeroinitializer, comdat, align 8
@_ZGVZNK5arrow6Status7messageB5cxx11EvE10no_messageB5cxx11 = linkonce_odr global i64 0, comdat, align 8
@.str.30 = private unnamed_addr constant [1 x i8] zeroinitializer, align 1
@.str.31 = private unnamed_addr constant [26 x i8] c"vector::_M_realloc_insert\00", align 1
@_ZTVSt23_Sp_counted_ptr_inplaceIN5arrow13BooleanScalarESaIvELN9__gnu_cxx12_Lock_policyE2EE = linkonce_odr unnamed_addr constant { [7 x ptr] } { [7 x ptr] [ptr null, ptr @_ZTISt23_Sp_counted_ptr_inplaceIN5arrow13BooleanScalarESaIvELN9__gnu_cxx12_Lock_policyE2EE, ptr @_ZNSt23_Sp_counted_ptr_inplaceIN5arrow13BooleanScalarESaIvELN9__gnu_cxx12_Lock_policyE2EED2Ev, ptr @_ZNSt23_Sp_counted_ptr_inplaceIN5arrow13BooleanScalarESaIvELN9__gnu_cxx12_Lock_policyE2EED0Ev, ptr @_ZNSt23_Sp_counted_ptr_inplaceIN5arrow13BooleanScalarESaIvELN9__gnu_cxx12_Lock_policyE2EE10_M_disposeEv, ptr @_ZNSt23_Sp_counted_ptr_inplaceIN5arrow13BooleanScalarESaIvELN9__gnu_cxx12_Lock_policyE2EE10_M_destroyEv, ptr @_ZNSt23_Sp_counted_ptr_inplaceIN5arrow13BooleanScalarESaIvELN9__gnu_cxx12_Lock_policyE2EE14_M_get_deleterERKSt9type_info] }, comdat, align 8
@_ZTSSt23_Sp_counted_ptr_inplaceIN5arrow13BooleanScalarESaIvELN9__gnu_cxx12_Lock_policyE2EE = linkonce_odr constant [87 x i8] c"St23_Sp_counted_ptr_inplaceIN5arrow13BooleanScalarESaIvELN9__gnu_cxx12_Lock_policyE2EE\00", comdat, align 1
@_ZTSSt16_Sp_counted_baseILN9__gnu_cxx12_Lock_policyE2EE = linkonce_odr constant [52 x i8] c"St16_Sp_counted_baseILN9__gnu_cxx12_Lock_policyE2EE\00", comdat, align 1
@_ZTSSt11_Mutex_baseILN9__gnu_cxx12_Lock_policyE2EE = linkonce_odr constant [47 x i8] c"St11_Mutex_baseILN9__gnu_cxx12_Lock_policyE2EE\00", comdat, align 1
@_ZTISt11_Mutex_baseILN9__gnu_cxx12_Lock_policyE2EE = linkonce_odr constant { ptr, ptr } { ptr getelementptr inbounds (ptr, ptr @_ZTVN10__cxxabiv117__class_type_infoE, i64 2), ptr @_ZTSSt11_Mutex_baseILN9__gnu_cxx12_Lock_policyE2EE }, comdat, align 8
@_ZTISt16_Sp_counted_baseILN9__gnu_cxx12_Lock_policyE2EE = linkonce_odr constant { ptr, ptr, ptr } { ptr getelementptr inbounds (ptr, ptr @_ZTVN10__cxxabiv120__si_class_type_infoE, i64 2), ptr @_ZTSSt16_Sp_counted_baseILN9__gnu_cxx12_Lock_policyE2EE, ptr @_ZTISt11_Mutex_baseILN9__gnu_cxx12_Lock_policyE2EE }, comdat, align 8
@_ZTISt23_Sp_counted_ptr_inplaceIN5arrow13BooleanScalarESaIvELN9__gnu_cxx12_Lock_policyE2EE = linkonce_odr constant { ptr, ptr, ptr } { ptr getelementptr inbounds (ptr, ptr @_ZTVN10__cxxabiv120__si_class_type_infoE, i64 2), ptr @_ZTSSt23_Sp_counted_ptr_inplaceIN5arrow13BooleanScalarESaIvELN9__gnu_cxx12_Lock_policyE2EE, ptr @_ZTISt16_Sp_counted_baseILN9__gnu_cxx12_Lock_policyE2EE }, comdat, align 8
@_ZTVSt16_Sp_counted_baseILN9__gnu_cxx12_Lock_policyE2EE = linkonce_odr unnamed_addr constant { [7 x ptr] } { [7 x ptr] [ptr null, ptr @_ZTISt16_Sp_counted_baseILN9__gnu_cxx12_Lock_policyE2EE, ptr @_ZNSt16_Sp_counted_baseILN9__gnu_cxx12_Lock_policyE2EED2Ev, ptr @_ZNSt16_Sp_counted_baseILN9__gnu_cxx12_Lock_policyE2EED0Ev, ptr @__cxa_pure_virtual, ptr @_ZNSt16_Sp_counted_baseILN9__gnu_cxx12_Lock_policyE2EE10_M_destroyEv, ptr @__cxa_pure_virtual] }, comdat, align 8
@_ZTVN5arrow13BooleanScalarE = linkonce_odr unnamed_addr constant { [7 x ptr] } { [7 x ptr] [ptr null, ptr @_ZTIN5arrow13BooleanScalarE, ptr @_ZN5arrow13BooleanScalarD2Ev, ptr @_ZN5arrow13BooleanScalarD0Ev, ptr @_ZNK5arrow8internal15PrimitiveScalarINS_11BooleanTypeEbE4dataEv, ptr @_ZN5arrow8internal15PrimitiveScalarINS_11BooleanTypeEbE12mutable_dataEv, ptr @_ZNK5arrow8internal15PrimitiveScalarINS_11BooleanTypeEbE4viewEv] }, comdat, align 8
@_ZTSN5arrow13BooleanScalarE = linkonce_odr constant [24 x i8] c"N5arrow13BooleanScalarE\00", comdat, align 1
@_ZTSN5arrow8internal15PrimitiveScalarINS_11BooleanTypeEbEE = linkonce_odr constant [55 x i8] c"N5arrow8internal15PrimitiveScalarINS_11BooleanTypeEbEE\00", comdat, align 1
@_ZTSN5arrow8internal19PrimitiveScalarBaseE = linkonce_odr constant [39 x i8] c"N5arrow8internal19PrimitiveScalarBaseE\00", comdat, align 1
@_ZTVN10__cxxabiv121__vmi_class_type_infoE = external global [0 x ptr]
@_ZTSN5arrow6ScalarE = linkonce_odr constant [16 x i8] c"N5arrow6ScalarE\00", comdat, align 1
@_ZTSSt23enable_shared_from_thisIN5arrow6ScalarEE = linkonce_odr constant [45 x i8] c"St23enable_shared_from_thisIN5arrow6ScalarEE\00", comdat, align 1
@_ZTISt23enable_shared_from_thisIN5arrow6ScalarEE = linkonce_odr constant { ptr, ptr } { ptr getelementptr inbounds (ptr, ptr @_ZTVN10__cxxabiv117__class_type_infoE, i64 2), ptr @_ZTSSt23enable_shared_from_thisIN5arrow6ScalarEE }, comdat, align 8
@_ZTSN5arrow4util18EqualityComparableINS_6ScalarEEE = linkonce_odr constant [47 x i8] c"N5arrow4util18EqualityComparableINS_6ScalarEEE\00", comdat, align 1
@_ZTIN5arrow4util18EqualityComparableINS_6ScalarEEE = linkonce_odr constant { ptr, ptr } { ptr getelementptr inbounds (ptr, ptr @_ZTVN10__cxxabiv117__class_type_infoE, i64 2), ptr @_ZTSN5arrow4util18EqualityComparableINS_6ScalarEEE }, comdat, align 8
@_ZTIN5arrow6ScalarE = linkonce_odr constant { ptr, ptr, i32, i32, ptr, i64, ptr, i64 } { ptr getelementptr inbounds (ptr, ptr @_ZTVN10__cxxabiv121__vmi_class_type_infoE, i64 2), ptr @_ZTSN5arrow6ScalarE, i32 0, i32 2, ptr @_ZTISt23enable_shared_from_thisIN5arrow6ScalarEE, i64 2050, ptr @_ZTIN5arrow4util18EqualityComparableINS_6ScalarEEE, i64 2 }, comdat, align 8
@_ZTIN5arrow8internal19PrimitiveScalarBaseE = linkonce_odr constant { ptr, ptr, ptr } { ptr getelementptr inbounds (ptr, ptr @_ZTVN10__cxxabiv120__si_class_type_infoE, i64 2), ptr @_ZTSN5arrow8internal19PrimitiveScalarBaseE, ptr @_ZTIN5arrow6ScalarE }, comdat, align 8
@_ZTIN5arrow8internal15PrimitiveScalarINS_11BooleanTypeEbEE = linkonce_odr constant { ptr, ptr, ptr } { ptr getelementptr inbounds (ptr, ptr @_ZTVN10__cxxabiv120__si_class_type_infoE, i64 2), ptr @_ZTSN5arrow8internal15PrimitiveScalarINS_11BooleanTypeEbEE, ptr @_ZTIN5arrow8internal19PrimitiveScalarBaseE }, comdat, align 8
@_ZTIN5arrow13BooleanScalarE = linkonce_odr constant { ptr, ptr, ptr } { ptr getelementptr inbounds (ptr, ptr @_ZTVN10__cxxabiv120__si_class_type_infoE, i64 2), ptr @_ZTSN5arrow13BooleanScalarE, ptr @_ZTIN5arrow8internal15PrimitiveScalarINS_11BooleanTypeEbEE }, comdat, align 8
@_ZTVN5arrow8internal15PrimitiveScalarINS_11BooleanTypeEbEE = linkonce_odr unnamed_addr constant { [7 x ptr] } { [7 x ptr] [ptr null, ptr @_ZTIN5arrow8internal15PrimitiveScalarINS_11BooleanTypeEbEE, ptr @_ZN5arrow8internal15PrimitiveScalarINS_11BooleanTypeEbED2Ev, ptr @_ZN5arrow8internal15PrimitiveScalarINS_11BooleanTypeEbED0Ev, ptr @_ZNK5arrow8internal15PrimitiveScalarINS_11BooleanTypeEbE4dataEv, ptr @_ZN5arrow8internal15PrimitiveScalarINS_11BooleanTypeEbE12mutable_dataEv, ptr @_ZNK5arrow8internal15PrimitiveScalarINS_11BooleanTypeEbE4viewEv] }, comdat, align 8
@_ZTVN5arrow8internal19PrimitiveScalarBaseE = linkonce_odr unnamed_addr constant { [7 x ptr] } { [7 x ptr] [ptr null, ptr @_ZTIN5arrow8internal19PrimitiveScalarBaseE, ptr @_ZN5arrow8internal19PrimitiveScalarBaseD2Ev, ptr @_ZN5arrow8internal19PrimitiveScalarBaseD0Ev, ptr @__cxa_pure_virtual, ptr @__cxa_pure_virtual, ptr @__cxa_pure_virtual] }, comdat, align 8
@_ZTVN5arrow6ScalarE = linkonce_odr unnamed_addr constant { [4 x ptr] } { [4 x ptr] [ptr null, ptr @_ZTIN5arrow6ScalarE, ptr @_ZN5arrow6ScalarD2Ev, ptr @_ZN5arrow6ScalarD0Ev] }, comdat, align 8
@_ZTSSt19_Sp_make_shared_tag = linkonce_odr constant [24 x i8] c"St19_Sp_make_shared_tag\00", comdat, align 1
@_ZTISt19_Sp_make_shared_tag = linkonce_odr constant { ptr, ptr } { ptr getelementptr inbounds (ptr, ptr @_ZTVN10__cxxabiv117__class_type_infoE, i64 2), ptr @_ZTSSt19_Sp_make_shared_tag }, comdat, align 8
@_ZZNSt19_Sp_make_shared_tag5_S_tiEvE5__tag = linkonce_odr constant [16 x i8] zeroinitializer, comdat, align 8
@.str.32 = private unnamed_addr constant [26 x i8] c"Cannot deserialize field \00", align 1
@.str.33 = private unnamed_addr constant [15 x i8] c"Expected type \00", align 1
@_ZN5arrow6detail9CTypeImplINS_11BooleanTypeENS_14PrimitiveCTypeELNS_4Type4typeE1EbE7type_idE = linkonce_odr constant i32 1, comdat, align 4
@.str.34 = private unnamed_addr constant [10 x i8] c" but got \00", align 1
@.str.35 = private unnamed_addr constant [16 x i8] c"Got null scalar\00", align 1
@_ZTVSt23_Sp_counted_ptr_inplaceIN5arrow7compute8internal12_GLOBAL__N_116CastMetaFunctionESaIvELN9__gnu_cxx12_Lock_policyE2EE = internal unnamed_addr constant { [7 x ptr] } { [7 x ptr] [ptr null, ptr @_ZTISt23_Sp_counted_ptr_inplaceIN5arrow7compute8internal12_GLOBAL__N_116CastMetaFunctionESaIvELN9__gnu_cxx12_Lock_policyE2EE, ptr @_ZNSt23_Sp_counted_ptr_inplaceIN5arrow7compute8internal12_GLOBAL__N_116CastMetaFunctionESaIvELN9__gnu_cxx12_Lock_policyE2EED2Ev, ptr @_ZNSt23_Sp_counted_ptr_inplaceIN5arrow7compute8internal12_GLOBAL__N_116CastMetaFunctionESaIvELN9__gnu_cxx12_Lock_policyE2EED0Ev, ptr @_ZNSt23_Sp_counted_ptr_inplaceIN5arrow7compute8internal12_GLOBAL__N_116CastMetaFunctionESaIvELN9__gnu_cxx12_Lock_policyE2EE10_M_disposeEv, ptr @_ZNSt23_Sp_counted_ptr_inplaceIN5arrow7compute8internal12_GLOBAL__N_116CastMetaFunctionESaIvELN9__gnu_cxx12_Lock_policyE2EE10_M_destroyEv, ptr @_ZNSt23_Sp_counted_ptr_inplaceIN5arrow7compute8internal12_GLOBAL__N_116CastMetaFunctionESaIvELN9__gnu_cxx12_Lock_policyE2EE14_M_get_deleterERKSt9type_info] }, align 8
@_ZTSSt23_Sp_counted_ptr_inplaceIN5arrow7compute8internal12_GLOBAL__N_116CastMetaFunctionESaIvELN9__gnu_cxx12_Lock_policyE2EE = internal constant [121 x i8] c"St23_Sp_counted_ptr_inplaceIN5arrow7compute8internal12_GLOBAL__N_116CastMetaFunctionESaIvELN9__gnu_cxx12_Lock_policyE2EE\00", align 1
@_ZTISt23_Sp_counted_ptr_inplaceIN5arrow7compute8internal12_GLOBAL__N_116CastMetaFunctionESaIvELN9__gnu_cxx12_Lock_policyE2EE = internal constant { ptr, ptr, ptr } { ptr getelementptr inbounds (ptr, ptr @_ZTVN10__cxxabiv120__si_class_type_infoE, i64 2), ptr @_ZTSSt23_Sp_counted_ptr_inplaceIN5arrow7compute8internal12_GLOBAL__N_116CastMetaFunctionESaIvELN9__gnu_cxx12_Lock_policyE2EE, ptr @_ZTISt16_Sp_counted_baseILN9__gnu_cxx12_Lock_policyE2EE }, align 8
@_ZTVN5arrow7compute8internal12_GLOBAL__N_116CastMetaFunctionE = internal unnamed_addr constant { [12 x ptr] } { [12 x ptr] [ptr null, ptr @_ZTIN5arrow7compute8internal12_GLOBAL__N_116CastMetaFunctionE, ptr @_ZN5arrow7compute8internal12_GLOBAL__N_116CastMetaFunctionD2Ev, ptr @_ZN5arrow7compute8internal12_GLOBAL__N_116CastMetaFunctionD0Ev, ptr @_ZNK5arrow7compute12MetaFunction11num_kernelsEv, ptr @_ZNK5arrow7compute8Function13DispatchExactERKSt6vectorINS_10TypeHolderESaIS3_EE, ptr @_ZNK5arrow7compute8Function12DispatchBestEPSt6vectorINS_10TypeHolderESaIS3_EE, ptr @_ZNK5arrow7compute8Function15GetBestExecutorESt6vectorINS_10TypeHolderESaIS3_EE, ptr @_ZNK5arrow7compute12MetaFunction7ExecuteERKSt6vectorINS_5DatumESaIS3_EEPKNS0_15FunctionOptionsEPNS0_11ExecContextE, ptr @_ZNK5arrow7compute12MetaFunction7ExecuteERKNS0_9ExecBatchEPKNS0_15FunctionOptionsEPNS0_11ExecContextE, ptr @_ZNK5arrow7compute8Function8ValidateEv, ptr @_ZNK5arrow7compute8internal12_GLOBAL__N_116CastMetaFunction11ExecuteImplERKSt6vectorINS_5DatumESaIS5_EEPKNS0_15FunctionOptionsEPNS0_11ExecContextE] }, align 8
@_ZTSN5arrow7compute8internal12_GLOBAL__N_116CastMetaFunctionE = internal constant [58 x i8] c"N5arrow7compute8internal12_GLOBAL__N_116CastMetaFunctionE\00", align 1
@_ZTIN5arrow7compute12MetaFunctionE = external constant ptr
@_ZTIN5arrow7compute8internal12_GLOBAL__N_116CastMetaFunctionE = internal constant { ptr, ptr, ptr } { ptr getelementptr inbounds (ptr, ptr @_ZTVN10__cxxabiv120__si_class_type_infoE, i64 2), ptr @_ZTSN5arrow7compute8internal12_GLOBAL__N_116CastMetaFunctionE, ptr @_ZTIN5arrow7compute12MetaFunctionE }, align 8
@_ZTVN5arrow7compute12MetaFunctionE = external unnamed_addr constant { [12 x ptr] }, align 8
@.str.36 = private unnamed_addr constant [7 x i8] c" from \00", align 1
@.str.37 = private unnamed_addr constant [64 x i8] c"Cast requires that options be passed with the to_type populated\00", align 1
@.str.38 = private unnamed_addr constant [31 x i8] c"std::get: variant is valueless\00", align 1
@.str.39 = private unnamed_addr constant [34 x i8] c"std::get: wrong index for variant\00", align 1
@_ZTSSt18bad_variant_access = linkonce_odr constant [23 x i8] c"St18bad_variant_access\00", comdat, align 1
@_ZTISt9exception = external constant ptr
@_ZTISt18bad_variant_access = linkonce_odr constant { ptr, ptr, ptr } { ptr getelementptr inbounds (ptr, ptr @_ZTVN10__cxxabiv120__si_class_type_infoE, i64 2), ptr @_ZTSSt18bad_variant_access, ptr @_ZTISt9exception }, comdat, align 8
@_ZTVSt18bad_variant_access = linkonce_odr unnamed_addr constant { [5 x ptr] } { [5 x ptr] [ptr null, ptr @_ZTISt18bad_variant_access, ptr @_ZNSt18bad_variant_accessD2Ev, ptr @_ZNSt18bad_variant_accessD0Ev, ptr @_ZNKSt18bad_variant_access4whatEv] }, comdat, align 8
@.str.40 = private unnamed_addr constant [62 x i8] c"Attempted to initialize KernelState from null FunctionOptions\00", align 1
@_ZTVN5arrow7compute8internal14OptionsWrapperINS0_11CastOptionsEEE = linkonce_odr unnamed_addr constant { [4 x ptr] } { [4 x ptr] [ptr null, ptr @_ZTIN5arrow7compute8internal14OptionsWrapperINS0_11CastOptionsEEE, ptr @_ZN5arrow7compute8internal14OptionsWrapperINS0_11CastOptionsEED2Ev, ptr @_ZN5arrow7compute8internal14OptionsWrapperINS0_11CastOptionsEED0Ev] }, comdat, align 8
@_ZTSN5arrow7compute8internal14OptionsWrapperINS0_11CastOptionsEEE = linkonce_odr constant [62 x i8] c"N5arrow7compute8internal14OptionsWrapperINS0_11CastOptionsEEE\00", comdat, align 1
@_ZTSN5arrow7compute11KernelStateE = linkonce_odr constant [30 x i8] c"N5arrow7compute11KernelStateE\00", comdat, align 1
@_ZTIN5arrow7compute11KernelStateE = linkonce_odr constant { ptr, ptr } { ptr getelementptr inbounds (ptr, ptr @_ZTVN10__cxxabiv117__class_type_infoE, i64 2), ptr @_ZTSN5arrow7compute11KernelStateE }, comdat, align 8
@_ZTIN5arrow7compute8internal14OptionsWrapperINS0_11CastOptionsEEE = linkonce_odr constant { ptr, ptr, ptr } { ptr getelementptr inbounds (ptr, ptr @_ZTVN10__cxxabiv120__si_class_type_infoE, i64 2), ptr @_ZTSN5arrow7compute8internal14OptionsWrapperINS0_11CastOptionsEEE, ptr @_ZTIN5arrow7compute11KernelStateE }, comdat, align 8
@_ZTVN5arrow7compute11KernelStateE = linkonce_odr unnamed_addr constant { [4 x ptr] } { [4 x ptr] [ptr null, ptr @_ZTIN5arrow7compute11KernelStateE, ptr @_ZN5arrow7compute11KernelStateD2Ev, ptr @_ZN5arrow7compute11KernelStateD0Ev] }, comdat, align 8
@_ZTVN10__cxxabiv119__pointer_type_infoE = external global [0 x ptr]
@_ZTSPFN5arrow6ResultISt10unique_ptrINS_7compute11KernelStateESt14default_deleteIS3_EEEEPNS2_13KernelContextERKNS2_14KernelInitArgsEE = linkonce_odr constant [129 x i8] c"PFN5arrow6ResultISt10unique_ptrINS_7compute11KernelStateESt14default_deleteIS3_EEEEPNS2_13KernelContextERKNS2_14KernelInitArgsEE\00", comdat, align 1
@_ZTVN10__cxxabiv120__function_type_infoE = external global [0 x ptr]
@_ZTSFN5arrow6ResultISt10unique_ptrINS_7compute11KernelStateESt14default_deleteIS3_EEEEPNS2_13KernelContextERKNS2_14KernelInitArgsEE = linkonce_odr constant [128 x i8] c"FN5arrow6ResultISt10unique_ptrINS_7compute11KernelStateESt14default_deleteIS3_EEEEPNS2_13KernelContextERKNS2_14KernelInitArgsEE\00", comdat, align 1
@_ZTIFN5arrow6ResultISt10unique_ptrINS_7compute11KernelStateESt14default_deleteIS3_EEEEPNS2_13KernelContextERKNS2_14KernelInitArgsEE = linkonce_odr constant { ptr, ptr } { ptr getelementptr inbounds (ptr, ptr @_ZTVN10__cxxabiv120__function_type_infoE, i64 2), ptr @_ZTSFN5arrow6ResultISt10unique_ptrINS_7compute11KernelStateESt14default_deleteIS3_EEEEPNS2_13KernelContextERKNS2_14KernelInitArgsEE }, comdat, align 8
@_ZTIPFN5arrow6ResultISt10unique_ptrINS_7compute11KernelStateESt14default_deleteIS3_EEEEPNS2_13KernelContextERKNS2_14KernelInitArgsEE = linkonce_odr constant { ptr, ptr, i32, ptr } { ptr getelementptr inbounds (ptr, ptr @_ZTVN10__cxxabiv119__pointer_type_infoE, i64 2), ptr @_ZTSPFN5arrow6ResultISt10unique_ptrINS_7compute11KernelStateESt14default_deleteIS3_EEEEPNS2_13KernelContextERKNS2_14KernelInitArgsEE, i32 0, ptr @_ZTIFN5arrow6ResultISt10unique_ptrINS_7compute11KernelStateESt14default_deleteIS3_EEEEPNS2_13KernelContextERKNS2_14KernelInitArgsEE }, comdat, align 8
@llvm.global_ctors = appending global [1 x { i32, ptr, ptr }] [{ i32, ptr, ptr } { i32 65535, ptr @_GLOBAL__sub_I_cast.cc, ptr null }]

@_ZN5arrow7compute8internal12CastFunctionC1ENSt7__cxx1112basic_stringIcSt11char_traitsIcESaIcEEENS_4Type4typeE = unnamed_addr alias void (ptr, ptr, i32), ptr @_ZN5arrow7compute8internal12CastFunctionC2ENSt7__cxx1112basic_stringIcSt11char_traitsIcESaIcEEENS_4Type4typeE
@_ZN5arrow7compute11CastOptionsC1Eb = unnamed_addr alias void (ptr, i1), ptr @_ZN5arrow7compute11CastOptionsC2Eb

; Function Attrs: uwtable
define internal void @__cxx_global_var_init() #0 section ".text.startup" {
entry:
  call void @_ZNSt13unordered_mapIiSt10shared_ptrIN5arrow7compute8internal12CastFunctionEESt4hashIiESt8equal_toIiESaISt4pairIKiS5_EEEC2Ev(ptr noundef nonnull align 8 dereferenceable(56) @_ZN5arrow7compute8internal12_GLOBAL__N_112g_cast_tableE) #2
  %0 = call i32 @__cxa_atexit(ptr @_ZNSt13unordered_mapIiSt10shared_ptrIN5arrow7compute8internal12CastFunctionEESt4hashIiESt8equal_toIiESaISt4pairIKiS5_EEED2Ev, ptr @_ZN5arrow7compute8internal12_GLOBAL__N_112g_cast_tableE, ptr @__dso_handle) #2
  ret void
}

; Function Attrs: mustprogress nounwind uwtable
define linkonce_odr void @_ZNSt13unordered_mapIiSt10shared_ptrIN5arrow7compute8internal12CastFunctionEESt4hashIiESt8equal_toIiESaISt4pairIKiS5_EEEC2Ev(ptr noundef nonnull align 8 dereferenceable(56) %this) unnamed_addr #1 comdat align 2 {
entry:
  %this.addr = alloca ptr, align 8
  store ptr %this, ptr %this.addr, align 8
  %this1 = load ptr, ptr %this.addr, align 8
  %_M_h = getelementptr inbounds %"class.std::unordered_map", ptr %this1, i32 0, i32 0
  call void @_ZNSt10_HashtableIiSt4pairIKiSt10shared_ptrIN5arrow7compute8internal12CastFunctionEEESaIS8_ENSt8__detail10_Select1stESt8equal_toIiESt4hashIiENSA_18_Mod_range_hashingENSA_20_Default_ranged_hashENSA_20_Prime_rehash_policyENSA_17_Hashtable_traitsILb0ELb0ELb1EEEEC2Ev(ptr noundef nonnull align 8 dereferenceable(56) %_M_h) #2
  ret void
}

; Function Attrs: mustprogress nounwind uwtable
define linkonce_odr void @_ZNSt13unordered_mapIiSt10shared_ptrIN5arrow7compute8internal12CastFunctionEESt4hashIiESt8equal_toIiESaISt4pairIKiS5_EEED2Ev(ptr noundef nonnull align 8 dereferenceable(56) %this) unnamed_addr #1 comdat align 2 {
entry:
  %this.addr = alloca ptr, align 8
  store ptr %this, ptr %this.addr, align 8
  %this1 = load ptr, ptr %this.addr, align 8
  %_M_h = getelementptr inbounds %"class.std::unordered_map", ptr %this1, i32 0, i32 0
  call void @_ZNSt10_HashtableIiSt4pairIKiSt10shared_ptrIN5arrow7compute8internal12CastFunctionEEESaIS8_ENSt8__detail10_Select1stESt8equal_toIiESt4hashIiENSA_18_Mod_range_hashingENSA_20_Default_ranged_hashENSA_20_Prime_rehash_policyENSA_17_Hashtable_traitsILb0ELb0ELb1EEEED2Ev(ptr noundef nonnull align 8 dereferenceable(56) %_M_h) #2
  ret void
}

; Function Attrs: nounwind
declare i32 @__cxa_atexit(ptr, ptr, ptr) #2

; Function Attrs: uwtable
define internal void @__cxx_global_var_init.1() #0 section ".text.startup" personality ptr @__gxx_personality_v0 {
entry:
  %agg.tmp = alloca %"class.std::__cxx11::basic_string", align 8
  %ref.tmp = alloca %"class.std::allocator.2", align 1
  %exn.slot = alloca ptr, align 8
  %ehselector.slot = alloca i32, align 4
  %agg.tmp1 = alloca %"class.std::__cxx11::basic_string", align 8
  %ref.tmp2 = alloca %"class.std::allocator.2", align 1
  %agg.tmp5 = alloca %"class.std::vector", align 8
  %agg.tmp6 = alloca %"class.std::initializer_list", align 8
  %ref.tmp7 = alloca [1 x %"class.std::__cxx11::basic_string"], align 8
  %arrayinit.endOfInit = alloca ptr, align 8
  %ref.tmp8 = alloca %"class.std::allocator.2", align 1
  %cleanup.isactive = alloca i1, align 1
  %ref.tmp11 = alloca %"class.std::allocator.5", align 1
  %agg.tmp14 = alloca %"class.std::__cxx11::basic_string", align 8
  %ref.tmp15 = alloca %"class.std::allocator.2", align 1
  call void @_ZNSaIcEC1Ev(ptr noundef nonnull align 1 dereferenceable(1) %ref.tmp) #2
  invoke void @_ZNSt7__cxx1112basic_stringIcSt11char_traitsIcESaIcEEC2IS3_EEPKcRKS3_(ptr noundef nonnull align 8 dereferenceable(32) %agg.tmp, ptr noundef @.str, ptr noundef nonnull align 1 dereferenceable(1) %ref.tmp)
          to label %invoke.cont unwind label %lpad

invoke.cont:                                      ; preds = %entry
  call void @_ZNSaIcEC1Ev(ptr noundef nonnull align 1 dereferenceable(1) %ref.tmp2) #2
  invoke void @_ZNSt7__cxx1112basic_stringIcSt11char_traitsIcESaIcEEC2IS3_EEPKcRKS3_(ptr noundef nonnull align 8 dereferenceable(32) %agg.tmp1, ptr noundef @.str.2, ptr noundef nonnull align 1 dereferenceable(1) %ref.tmp2)
          to label %invoke.cont4 unwind label %lpad3

invoke.cont4:                                     ; preds = %invoke.cont
  %arrayinit.begin = getelementptr inbounds [1 x %"class.std::__cxx11::basic_string"], ptr %ref.tmp7, i64 0, i64 0
  store i1 true, ptr %cleanup.isactive, align 1
  store ptr %arrayinit.begin, ptr %arrayinit.endOfInit, align 8
  call void @_ZNSaIcEC1Ev(ptr noundef nonnull align 1 dereferenceable(1) %ref.tmp8) #2
  invoke void @_ZNSt7__cxx1112basic_stringIcSt11char_traitsIcESaIcEEC2IS3_EEPKcRKS3_(ptr noundef nonnull align 8 dereferenceable(32) %arrayinit.begin, ptr noundef @.str.3, ptr noundef nonnull align 1 dereferenceable(1) %ref.tmp8)
          to label %invoke.cont10 unwind label %lpad9

invoke.cont10:                                    ; preds = %invoke.cont4
  store i1 false, ptr %cleanup.isactive, align 1
  %_M_array = getelementptr inbounds %"class.std::initializer_list", ptr %agg.tmp6, i32 0, i32 0
  %arraystart = getelementptr inbounds [1 x %"class.std::__cxx11::basic_string"], ptr %ref.tmp7, i64 0, i64 0
  store ptr %arraystart, ptr %_M_array, align 8
  %_M_len = getelementptr inbounds %"class.std::initializer_list", ptr %agg.tmp6, i32 0, i32 1
  store i64 1, ptr %_M_len, align 8
  call void @_ZNSaINSt7__cxx1112basic_stringIcSt11char_traitsIcESaIcEEEEC2Ev(ptr noundef nonnull align 1 dereferenceable(1) %ref.tmp11) #2
  %0 = getelementptr inbounds { ptr, i64 }, ptr %agg.tmp6, i32 0, i32 0
  %1 = load ptr, ptr %0, align 8
  %2 = getelementptr inbounds { ptr, i64 }, ptr %agg.tmp6, i32 0, i32 1
  %3 = load i64, ptr %2, align 8
  invoke void @_ZNSt6vectorINSt7__cxx1112basic_stringIcSt11char_traitsIcESaIcEEESaIS5_EEC2ESt16initializer_listIS5_ERKS6_(ptr noundef nonnull align 8 dereferenceable(24) %agg.tmp5, ptr %1, i64 %3, ptr noundef nonnull align 1 dereferenceable(1) %ref.tmp11)
          to label %invoke.cont13 unwind label %lpad12

invoke.cont13:                                    ; preds = %invoke.cont10
  call void @_ZNSaIcEC1Ev(ptr noundef nonnull align 1 dereferenceable(1) %ref.tmp15) #2
  invoke void @_ZNSt7__cxx1112basic_stringIcSt11char_traitsIcESaIcEEC2IS3_EEPKcRKS3_(ptr noundef nonnull align 8 dereferenceable(32) %agg.tmp14, ptr noundef @.str.4, ptr noundef nonnull align 1 dereferenceable(1) %ref.tmp15)
          to label %invoke.cont17 unwind label %lpad16

invoke.cont17:                                    ; preds = %invoke.cont13
  invoke void @_ZN5arrow7compute11FunctionDocC2ENSt7__cxx1112basic_stringIcSt11char_traitsIcESaIcEEES7_St6vectorIS7_SaIS7_EES7_b(ptr noundef nonnull align 8 dereferenceable(121) @_ZN5arrow7compute8internal12_GLOBAL__N_18cast_docE, ptr noundef %agg.tmp, ptr noundef %agg.tmp1, ptr noundef %agg.tmp5, ptr noundef %agg.tmp14, i1 noundef zeroext false)
          to label %invoke.cont19 unwind label %lpad18

invoke.cont19:                                    ; preds = %invoke.cont17
  call void @_ZNSt7__cxx1112basic_stringIcSt11char_traitsIcESaIcEED1Ev(ptr noundef nonnull align 8 dereferenceable(32) %agg.tmp14) #2
  call void @_ZNSaIcED1Ev(ptr noundef nonnull align 1 dereferenceable(1) %ref.tmp15) #2
  call void @_ZNSt6vectorINSt7__cxx1112basic_stringIcSt11char_traitsIcESaIcEEESaIS5_EED2Ev(ptr noundef nonnull align 8 dereferenceable(24) %agg.tmp5) #2
  call void @_ZNSaINSt7__cxx1112basic_stringIcSt11char_traitsIcESaIcEEEED2Ev(ptr noundef nonnull align 1 dereferenceable(1) %ref.tmp11) #2
  %array.begin = getelementptr inbounds [1 x %"class.std::__cxx11::basic_string"], ptr %ref.tmp7, i32 0, i32 0
  %4 = getelementptr inbounds %"class.std::__cxx11::basic_string", ptr %array.begin, i64 1
  br label %arraydestroy.body

arraydestroy.body:                                ; preds = %arraydestroy.body, %invoke.cont19
  %arraydestroy.elementPast = phi ptr [ %4, %invoke.cont19 ], [ %arraydestroy.element, %arraydestroy.body ]
  %arraydestroy.element = getelementptr inbounds %"class.std::__cxx11::basic_string", ptr %arraydestroy.elementPast, i64 -1
  call void @_ZNSt7__cxx1112basic_stringIcSt11char_traitsIcESaIcEED1Ev(ptr noundef nonnull align 8 dereferenceable(32) %arraydestroy.element) #2
  %arraydestroy.done = icmp eq ptr %arraydestroy.element, %array.begin
  br i1 %arraydestroy.done, label %arraydestroy.done22, label %arraydestroy.body

arraydestroy.done22:                              ; preds = %arraydestroy.body
  call void @_ZNSaIcED1Ev(ptr noundef nonnull align 1 dereferenceable(1) %ref.tmp8) #2
  call void @_ZNSt7__cxx1112basic_stringIcSt11char_traitsIcESaIcEED1Ev(ptr noundef nonnull align 8 dereferenceable(32) %agg.tmp1) #2
  call void @_ZNSaIcED1Ev(ptr noundef nonnull align 1 dereferenceable(1) %ref.tmp2) #2
  call void @_ZNSt7__cxx1112basic_stringIcSt11char_traitsIcESaIcEED1Ev(ptr noundef nonnull align 8 dereferenceable(32) %agg.tmp) #2
  call void @_ZNSaIcED1Ev(ptr noundef nonnull align 1 dereferenceable(1) %ref.tmp) #2
  %5 = call i32 @__cxa_atexit(ptr @_ZN5arrow7compute11FunctionDocD2Ev, ptr @_ZN5arrow7compute8internal12_GLOBAL__N_18cast_docE, ptr @__dso_handle) #2
  ret void

lpad:                                             ; preds = %entry
  %6 = landingpad { ptr, i32 }
          cleanup
  %7 = extractvalue { ptr, i32 } %6, 0
  store ptr %7, ptr %exn.slot, align 8
  %8 = extractvalue { ptr, i32 } %6, 1
  store i32 %8, ptr %ehselector.slot, align 4
  br label %ehcleanup40

lpad3:                                            ; preds = %invoke.cont
  %9 = landingpad { ptr, i32 }
          cleanup
  %10 = extractvalue { ptr, i32 } %9, 0
  store ptr %10, ptr %exn.slot, align 8
  %11 = extractvalue { ptr, i32 } %9, 1
  store i32 %11, ptr %ehselector.slot, align 4
  br label %ehcleanup38

lpad9:                                            ; preds = %invoke.cont4
  %12 = landingpad { ptr, i32 }
          cleanup
  %13 = extractvalue { ptr, i32 } %12, 0
  store ptr %13, ptr %exn.slot, align 8
  %14 = extractvalue { ptr, i32 } %12, 1
  store i32 %14, ptr %ehselector.slot, align 4
  br label %ehcleanup30

lpad12:                                           ; preds = %invoke.cont10
  %15 = landingpad { ptr, i32 }
          cleanup
  %16 = extractvalue { ptr, i32 } %15, 0
  store ptr %16, ptr %exn.slot, align 8
  %17 = extractvalue { ptr, i32 } %15, 1
  store i32 %17, ptr %ehselector.slot, align 4
  br label %ehcleanup21

lpad16:                                           ; preds = %invoke.cont13
  %18 = landingpad { ptr, i32 }
          cleanup
  %19 = extractvalue { ptr, i32 } %18, 0
  store ptr %19, ptr %exn.slot, align 8
  %20 = extractvalue { ptr, i32 } %18, 1
  store i32 %20, ptr %ehselector.slot, align 4
  br label %ehcleanup

lpad18:                                           ; preds = %invoke.cont17
  %21 = landingpad { ptr, i32 }
          cleanup
  %22 = extractvalue { ptr, i32 } %21, 0
  store ptr %22, ptr %exn.slot, align 8
  %23 = extractvalue { ptr, i32 } %21, 1
  store i32 %23, ptr %ehselector.slot, align 4
  call void @_ZNSt7__cxx1112basic_stringIcSt11char_traitsIcESaIcEED1Ev(ptr noundef nonnull align 8 dereferenceable(32) %agg.tmp14) #2
  br label %ehcleanup

ehcleanup:                                        ; preds = %lpad18, %lpad16
  call void @_ZNSaIcED1Ev(ptr noundef nonnull align 1 dereferenceable(1) %ref.tmp15) #2
  call void @_ZNSt6vectorINSt7__cxx1112basic_stringIcSt11char_traitsIcESaIcEEESaIS5_EED2Ev(ptr noundef nonnull align 8 dereferenceable(24) %agg.tmp5) #2
  br label %ehcleanup21

ehcleanup21:                                      ; preds = %ehcleanup, %lpad12
  call void @_ZNSaINSt7__cxx1112basic_stringIcSt11char_traitsIcESaIcEEEED2Ev(ptr noundef nonnull align 1 dereferenceable(1) %ref.tmp11) #2
  %array.begin24 = getelementptr inbounds [1 x %"class.std::__cxx11::basic_string"], ptr %ref.tmp7, i32 0, i32 0
  %24 = getelementptr inbounds %"class.std::__cxx11::basic_string", ptr %array.begin24, i64 1
  br label %arraydestroy.body25

arraydestroy.body25:                              ; preds = %arraydestroy.body25, %ehcleanup21
  %arraydestroy.elementPast26 = phi ptr [ %24, %ehcleanup21 ], [ %arraydestroy.element27, %arraydestroy.body25 ]
  %arraydestroy.element27 = getelementptr inbounds %"class.std::__cxx11::basic_string", ptr %arraydestroy.elementPast26, i64 -1
  call void @_ZNSt7__cxx1112basic_stringIcSt11char_traitsIcESaIcEED1Ev(ptr noundef nonnull align 8 dereferenceable(32) %arraydestroy.element27) #2
  %arraydestroy.done28 = icmp eq ptr %arraydestroy.element27, %array.begin24
  br i1 %arraydestroy.done28, label %arraydestroy.done29, label %arraydestroy.body25

arraydestroy.done29:                              ; preds = %arraydestroy.body25
  br label %ehcleanup30

ehcleanup30:                                      ; preds = %arraydestroy.done29, %lpad9
  call void @_ZNSaIcED1Ev(ptr noundef nonnull align 1 dereferenceable(1) %ref.tmp8) #2
  %cleanup.is_active = load i1, ptr %cleanup.isactive, align 1
  br i1 %cleanup.is_active, label %cleanup.action, label %cleanup.done

cleanup.action:                                   ; preds = %ehcleanup30
  %25 = load ptr, ptr %arrayinit.endOfInit, align 8
  %arraydestroy.isempty = icmp eq ptr %arrayinit.begin, %25
  br i1 %arraydestroy.isempty, label %arraydestroy.done36, label %arraydestroy.body32

arraydestroy.body32:                              ; preds = %arraydestroy.body32, %cleanup.action
  %arraydestroy.elementPast33 = phi ptr [ %25, %cleanup.action ], [ %arraydestroy.element34, %arraydestroy.body32 ]
  %arraydestroy.element34 = getelementptr inbounds %"class.std::__cxx11::basic_string", ptr %arraydestroy.elementPast33, i64 -1
  call void @_ZNSt7__cxx1112basic_stringIcSt11char_traitsIcESaIcEED1Ev(ptr noundef nonnull align 8 dereferenceable(32) %arraydestroy.element34) #2
  %arraydestroy.done35 = icmp eq ptr %arraydestroy.element34, %arrayinit.begin
  br i1 %arraydestroy.done35, label %arraydestroy.done36, label %arraydestroy.body32

arraydestroy.done36:                              ; preds = %arraydestroy.body32, %cleanup.action
  br label %cleanup.done

cleanup.done:                                     ; preds = %arraydestroy.done36, %ehcleanup30
  call void @_ZNSt7__cxx1112basic_stringIcSt11char_traitsIcESaIcEED1Ev(ptr noundef nonnull align 8 dereferenceable(32) %agg.tmp1) #2
  br label %ehcleanup38

ehcleanup38:                                      ; preds = %cleanup.done, %lpad3
  call void @_ZNSaIcED1Ev(ptr noundef nonnull align 1 dereferenceable(1) %ref.tmp2) #2
  call void @_ZNSt7__cxx1112basic_stringIcSt11char_traitsIcESaIcEED1Ev(ptr noundef nonnull align 8 dereferenceable(32) %agg.tmp) #2
  br label %ehcleanup40

ehcleanup40:                                      ; preds = %ehcleanup38, %lpad
  call void @_ZNSaIcED1Ev(ptr noundef nonnull align 1 dereferenceable(1) %ref.tmp) #2
  br label %eh.resume

eh.resume:                                        ; preds = %ehcleanup40
  %exn = load ptr, ptr %exn.slot, align 8
  %sel = load i32, ptr %ehselector.slot, align 4
  %lpad.val = insertvalue { ptr, i32 } poison, ptr %exn, 0
  %lpad.val41 = insertvalue { ptr, i32 } %lpad.val, i32 %sel, 1
  resume { ptr, i32 } %lpad.val41
}

; Function Attrs: nounwind
declare void @_ZNSaIcEC1Ev(ptr noundef nonnull align 1 dereferenceable(1)) unnamed_addr #3

; Function Attrs: mustprogress uwtable
define linkonce_odr void @_ZNSt7__cxx1112basic_stringIcSt11char_traitsIcESaIcEEC2IS3_EEPKcRKS3_(ptr noundef nonnull align 8 dereferenceable(32) %this, ptr noundef %__s, ptr noundef nonnull align 1 dereferenceable(1) %__a) unnamed_addr #4 comdat align 2 personality ptr @__gxx_personality_v0 {
entry:
  %this.addr = alloca ptr, align 8
  %__s.addr = alloca ptr, align 8
  %__a.addr = alloca ptr, align 8
  %exn.slot = alloca ptr, align 8
  %ehselector.slot = alloca i32, align 4
  %__end = alloca ptr, align 8
  store ptr %this, ptr %this.addr, align 8
  store ptr %__s, ptr %__s.addr, align 8
  store ptr %__a, ptr %__a.addr, align 8
  %this1 = load ptr, ptr %this.addr, align 8
  %_M_dataplus = getelementptr inbounds %"class.std::__cxx11::basic_string", ptr %this1, i32 0, i32 0
  %call = call noundef ptr @_ZNSt7__cxx1112basic_stringIcSt11char_traitsIcESaIcEE13_M_local_dataEv(ptr noundef nonnull align 8 dereferenceable(32) %this1)
  %0 = load ptr, ptr %__a.addr, align 8
  call void @_ZNSt7__cxx1112basic_stringIcSt11char_traitsIcESaIcEE12_Alloc_hiderC1EPcRKS3_(ptr noundef nonnull align 8 dereferenceable(8) %_M_dataplus, ptr noundef %call, ptr noundef nonnull align 1 dereferenceable(1) %0)
  %1 = load ptr, ptr %__s.addr, align 8
  %cmp = icmp eq ptr %1, null
  br i1 %cmp, label %if.then, label %if.end

if.then:                                          ; preds = %entry
  invoke void @_ZSt19__throw_logic_errorPKc(ptr noundef @.str.18) #14
          to label %invoke.cont unwind label %lpad

invoke.cont:                                      ; preds = %if.then
  unreachable

lpad:                                             ; preds = %if.end, %if.then
  %2 = landingpad { ptr, i32 }
          cleanup
  %3 = extractvalue { ptr, i32 } %2, 0
  store ptr %3, ptr %exn.slot, align 8
  %4 = extractvalue { ptr, i32 } %2, 1
  store i32 %4, ptr %ehselector.slot, align 4
  call void @_ZNSt7__cxx1112basic_stringIcSt11char_traitsIcESaIcEE12_Alloc_hiderD2Ev(ptr noundef nonnull align 8 dereferenceable(8) %_M_dataplus) #2
  br label %eh.resume

if.end:                                           ; preds = %entry
  %5 = load ptr, ptr %__s.addr, align 8
  %6 = load ptr, ptr %__s.addr, align 8
  %call2 = call noundef i64 @_ZNSt11char_traitsIcE6lengthEPKc(ptr noundef %6)
  %add.ptr = getelementptr inbounds i8, ptr %5, i64 %call2
  store ptr %add.ptr, ptr %__end, align 8
  %7 = load ptr, ptr %__s.addr, align 8
  %8 = load ptr, ptr %__end, align 8
  invoke void @_ZNSt7__cxx1112basic_stringIcSt11char_traitsIcESaIcEE12_M_constructIPKcEEvT_S8_St20forward_iterator_tag(ptr noundef nonnull align 8 dereferenceable(32) %this1, ptr noundef %7, ptr noundef %8)
          to label %invoke.cont3 unwind label %lpad

invoke.cont3:                                     ; preds = %if.end
  ret void

eh.resume:                                        ; preds = %lpad
  %exn = load ptr, ptr %exn.slot, align 8
  %sel = load i32, ptr %ehselector.slot, align 4
  %lpad.val = insertvalue { ptr, i32 } poison, ptr %exn, 0
  %lpad.val4 = insertvalue { ptr, i32 } %lpad.val, i32 %sel, 1
  resume { ptr, i32 } %lpad.val4
}

declare i32 @__gxx_personality_v0(...)

; Function Attrs: mustprogress nounwind uwtable
define linkonce_odr void @_ZNSaINSt7__cxx1112basic_stringIcSt11char_traitsIcESaIcEEEEC2Ev(ptr noundef nonnull align 1 dereferenceable(1) %this) unnamed_addr #1 comdat align 2 {
entry:
  %this.addr = alloca ptr, align 8
  store ptr %this, ptr %this.addr, align 8
  %this1 = load ptr, ptr %this.addr, align 8
  call void @_ZNSt15__new_allocatorINSt7__cxx1112basic_stringIcSt11char_traitsIcESaIcEEEEC2Ev(ptr noundef nonnull align 1 dereferenceable(1) %this1) #2
  ret void
}

; Function Attrs: mustprogress uwtable
define linkonce_odr void @_ZNSt6vectorINSt7__cxx1112basic_stringIcSt11char_traitsIcESaIcEEESaIS5_EEC2ESt16initializer_listIS5_ERKS6_(ptr noundef nonnull align 8 dereferenceable(24) %this, ptr %__l.coerce0, i64 %__l.coerce1, ptr noundef nonnull align 1 dereferenceable(1) %__a) unnamed_addr #4 comdat align 2 personality ptr @__gxx_personality_v0 {
entry:
  %__l = alloca %"class.std::initializer_list", align 8
  %this.addr = alloca ptr, align 8
  %__a.addr = alloca ptr, align 8
  %exn.slot = alloca ptr, align 8
  %ehselector.slot = alloca i32, align 4
  %0 = getelementptr inbounds { ptr, i64 }, ptr %__l, i32 0, i32 0
  store ptr %__l.coerce0, ptr %0, align 8
  %1 = getelementptr inbounds { ptr, i64 }, ptr %__l, i32 0, i32 1
  store i64 %__l.coerce1, ptr %1, align 8
  store ptr %this, ptr %this.addr, align 8
  store ptr %__a, ptr %__a.addr, align 8
  %this1 = load ptr, ptr %this.addr, align 8
  %2 = load ptr, ptr %__a.addr, align 8
  call void @_ZNSt12_Vector_baseINSt7__cxx1112basic_stringIcSt11char_traitsIcESaIcEEESaIS5_EEC2ERKS6_(ptr noundef nonnull align 8 dereferenceable(24) %this1, ptr noundef nonnull align 1 dereferenceable(1) %2) #2
  %call = call noundef ptr @_ZNKSt16initializer_listINSt7__cxx1112basic_stringIcSt11char_traitsIcESaIcEEEE5beginEv(ptr noundef nonnull align 8 dereferenceable(16) %__l) #2
  %call2 = call noundef ptr @_ZNKSt16initializer_listINSt7__cxx1112basic_stringIcSt11char_traitsIcESaIcEEEE3endEv(ptr noundef nonnull align 8 dereferenceable(16) %__l) #2
  invoke void @_ZNSt6vectorINSt7__cxx1112basic_stringIcSt11char_traitsIcESaIcEEESaIS5_EE19_M_range_initializeIPKS5_EEvT_SB_St20forward_iterator_tag(ptr noundef nonnull align 8 dereferenceable(24) %this1, ptr noundef %call, ptr noundef %call2)
          to label %invoke.cont unwind label %lpad

invoke.cont:                                      ; preds = %entry
  ret void

lpad:                                             ; preds = %entry
  %3 = landingpad { ptr, i32 }
          cleanup
  %4 = extractvalue { ptr, i32 } %3, 0
  store ptr %4, ptr %exn.slot, align 8
  %5 = extractvalue { ptr, i32 } %3, 1
  store i32 %5, ptr %ehselector.slot, align 4
  call void @_ZNSt12_Vector_baseINSt7__cxx1112basic_stringIcSt11char_traitsIcESaIcEEESaIS5_EED2Ev(ptr noundef nonnull align 8 dereferenceable(24) %this1) #2
  br label %eh.resume

eh.resume:                                        ; preds = %lpad
  %exn = load ptr, ptr %exn.slot, align 8
  %sel = load i32, ptr %ehselector.slot, align 4
  %lpad.val = insertvalue { ptr, i32 } poison, ptr %exn, 0
  %lpad.val3 = insertvalue { ptr, i32 } %lpad.val, i32 %sel, 1
  resume { ptr, i32 } %lpad.val3
}

; Function Attrs: mustprogress nounwind uwtable
define linkonce_odr void @_ZN5arrow7compute11FunctionDocC2ENSt7__cxx1112basic_stringIcSt11char_traitsIcESaIcEEES7_St6vectorIS7_SaIS7_EES7_b(ptr noundef nonnull align 8 dereferenceable(121) %this, ptr noundef %summary, ptr noundef %description, ptr noundef %arg_names, ptr noundef %options_class, i1 noundef zeroext %options_required) unnamed_addr #1 comdat align 2 {
entry:
  %this.addr = alloca ptr, align 8
  %summary.indirect_addr = alloca ptr, align 8
  %description.indirect_addr = alloca ptr, align 8
  %arg_names.indirect_addr = alloca ptr, align 8
  %options_class.indirect_addr = alloca ptr, align 8
  %options_required.addr = alloca i8, align 1
  store ptr %this, ptr %this.addr, align 8
  store ptr %summary, ptr %summary.indirect_addr, align 8
  store ptr %description, ptr %description.indirect_addr, align 8
  store ptr %arg_names, ptr %arg_names.indirect_addr, align 8
  store ptr %options_class, ptr %options_class.indirect_addr, align 8
  %frombool = zext i1 %options_required to i8
  store i8 %frombool, ptr %options_required.addr, align 1
  %this1 = load ptr, ptr %this.addr, align 8
  %summary2 = getelementptr inbounds %"struct.arrow::compute::FunctionDoc", ptr %this1, i32 0, i32 0
  call void @_ZNSt7__cxx1112basic_stringIcSt11char_traitsIcESaIcEEC1EOS4_(ptr noundef nonnull align 8 dereferenceable(32) %summary2, ptr noundef nonnull align 8 dereferenceable(32) %summary) #2
  %description3 = getelementptr inbounds %"struct.arrow::compute::FunctionDoc", ptr %this1, i32 0, i32 1
  call void @_ZNSt7__cxx1112basic_stringIcSt11char_traitsIcESaIcEEC1EOS4_(ptr noundef nonnull align 8 dereferenceable(32) %description3, ptr noundef nonnull align 8 dereferenceable(32) %description) #2
  %arg_names4 = getelementptr inbounds %"struct.arrow::compute::FunctionDoc", ptr %this1, i32 0, i32 2
  call void @_ZNSt6vectorINSt7__cxx1112basic_stringIcSt11char_traitsIcESaIcEEESaIS5_EEC2EOS7_(ptr noundef nonnull align 8 dereferenceable(24) %arg_names4, ptr noundef nonnull align 8 dereferenceable(24) %arg_names) #2
  %options_class5 = getelementptr inbounds %"struct.arrow::compute::FunctionDoc", ptr %this1, i32 0, i32 3
  call void @_ZNSt7__cxx1112basic_stringIcSt11char_traitsIcESaIcEEC1EOS4_(ptr noundef nonnull align 8 dereferenceable(32) %options_class5, ptr noundef nonnull align 8 dereferenceable(32) %options_class) #2
  %options_required6 = getelementptr inbounds %"struct.arrow::compute::FunctionDoc", ptr %this1, i32 0, i32 4
  %0 = load i8, ptr %options_required.addr, align 1
  %tobool = trunc i8 %0 to i1
  %frombool7 = zext i1 %tobool to i8
  store i8 %frombool7, ptr %options_required6, align 8
  ret void
}

; Function Attrs: nounwind
declare void @_ZNSt7__cxx1112basic_stringIcSt11char_traitsIcESaIcEED1Ev(ptr noundef nonnull align 8 dereferenceable(32)) unnamed_addr #3

; Function Attrs: nounwind
declare void @_ZNSaIcED1Ev(ptr noundef nonnull align 1 dereferenceable(1)) unnamed_addr #3

; Function Attrs: mustprogress nounwind uwtable
define linkonce_odr void @_ZNSt6vectorINSt7__cxx1112basic_stringIcSt11char_traitsIcESaIcEEESaIS5_EED2Ev(ptr noundef nonnull align 8 dereferenceable(24) %this) unnamed_addr #1 comdat align 2 personality ptr @__gxx_personality_v0 {
entry:
  %this.addr = alloca ptr, align 8
  store ptr %this, ptr %this.addr, align 8
  %this1 = load ptr, ptr %this.addr, align 8
  %_M_impl = getelementptr inbounds %"struct.std::_Vector_base", ptr %this1, i32 0, i32 0
  %_M_start = getelementptr inbounds %"struct.std::_Vector_base<std::__cxx11::basic_string<char>, std::allocator<std::__cxx11::basic_string<char>>>::_Vector_impl_data", ptr %_M_impl, i32 0, i32 0
  %0 = load ptr, ptr %_M_start, align 8
  %_M_impl2 = getelementptr inbounds %"struct.std::_Vector_base", ptr %this1, i32 0, i32 0
  %_M_finish = getelementptr inbounds %"struct.std::_Vector_base<std::__cxx11::basic_string<char>, std::allocator<std::__cxx11::basic_string<char>>>::_Vector_impl_data", ptr %_M_impl2, i32 0, i32 1
  %1 = load ptr, ptr %_M_finish, align 8
  %call = call noundef nonnull align 1 dereferenceable(1) ptr @_ZNSt12_Vector_baseINSt7__cxx1112basic_stringIcSt11char_traitsIcESaIcEEESaIS5_EE19_M_get_Tp_allocatorEv(ptr noundef nonnull align 8 dereferenceable(24) %this1) #2
  invoke void @_ZSt8_DestroyIPNSt7__cxx1112basic_stringIcSt11char_traitsIcESaIcEEES5_EvT_S7_RSaIT0_E(ptr noundef %0, ptr noundef %1, ptr noundef nonnull align 1 dereferenceable(1) %call)
          to label %invoke.cont unwind label %terminate.lpad

invoke.cont:                                      ; preds = %entry
  call void @_ZNSt12_Vector_baseINSt7__cxx1112basic_stringIcSt11char_traitsIcESaIcEEESaIS5_EED2Ev(ptr noundef nonnull align 8 dereferenceable(24) %this1) #2
  ret void

terminate.lpad:                                   ; preds = %entry
  %2 = landingpad { ptr, i32 }
          catch ptr null
  %3 = extractvalue { ptr, i32 } %2, 0
  call void @__clang_call_terminate(ptr %3) #15
  unreachable
}

; Function Attrs: mustprogress nounwind uwtable
define linkonce_odr void @_ZNSaINSt7__cxx1112basic_stringIcSt11char_traitsIcESaIcEEEED2Ev(ptr noundef nonnull align 1 dereferenceable(1) %this) unnamed_addr #1 comdat align 2 {
entry:
  %this.addr = alloca ptr, align 8
  store ptr %this, ptr %this.addr, align 8
  %this1 = load ptr, ptr %this.addr, align 8
  call void @_ZNSt15__new_allocatorINSt7__cxx1112basic_stringIcSt11char_traitsIcESaIcEEEED2Ev(ptr noundef nonnull align 1 dereferenceable(1) %this1) #2
  ret void
}

; Function Attrs: mustprogress nounwind uwtable
define linkonce_odr void @_ZN5arrow7compute11FunctionDocD2Ev(ptr noundef nonnull align 8 dereferenceable(121) %this) unnamed_addr #1 comdat align 2 {
entry:
  %this.addr = alloca ptr, align 8
  store ptr %this, ptr %this.addr, align 8
  %this1 = load ptr, ptr %this.addr, align 8
  %options_class = getelementptr inbounds %"struct.arrow::compute::FunctionDoc", ptr %this1, i32 0, i32 3
  call void @_ZNSt7__cxx1112basic_stringIcSt11char_traitsIcESaIcEED1Ev(ptr noundef nonnull align 8 dereferenceable(32) %options_class) #2
  %arg_names = getelementptr inbounds %"struct.arrow::compute::FunctionDoc", ptr %this1, i32 0, i32 2
  call void @_ZNSt6vectorINSt7__cxx1112basic_stringIcSt11char_traitsIcESaIcEEESaIS5_EED2Ev(ptr noundef nonnull align 8 dereferenceable(24) %arg_names) #2
  %description = getelementptr inbounds %"struct.arrow::compute::FunctionDoc", ptr %this1, i32 0, i32 1
  call void @_ZNSt7__cxx1112basic_stringIcSt11char_traitsIcESaIcEED1Ev(ptr noundef nonnull align 8 dereferenceable(32) %description) #2
  %summary = getelementptr inbounds %"struct.arrow::compute::FunctionDoc", ptr %this1, i32 0, i32 0
  call void @_ZNSt7__cxx1112basic_stringIcSt11char_traitsIcESaIcEED1Ev(ptr noundef nonnull align 8 dereferenceable(32) %summary) #2
  ret void
}

; Function Attrs: uwtable
define internal void @__cxx_global_var_init.5() #0 section ".text.startup" {
entry:
  %ref.tmp = alloca %"struct.arrow::internal::DataMemberProperty", align 8
  %agg.tmp = alloca %"class.std::basic_string_view", align 8
  %ref.tmp1 = alloca %"struct.arrow::internal::DataMemberProperty.8", align 8
  %agg.tmp2 = alloca %"class.std::basic_string_view", align 8
  %ref.tmp3 = alloca %"struct.arrow::internal::DataMemberProperty.8", align 8
  %agg.tmp4 = alloca %"class.std::basic_string_view", align 8
  %ref.tmp5 = alloca %"struct.arrow::internal::DataMemberProperty.8", align 8
  %agg.tmp6 = alloca %"class.std::basic_string_view", align 8
  %ref.tmp7 = alloca %"struct.arrow::internal::DataMemberProperty.8", align 8
  %agg.tmp8 = alloca %"class.std::basic_string_view", align 8
  %ref.tmp9 = alloca %"struct.arrow::internal::DataMemberProperty.8", align 8
  %agg.tmp10 = alloca %"class.std::basic_string_view", align 8
  %ref.tmp11 = alloca %"struct.arrow::internal::DataMemberProperty.8", align 8
  %agg.tmp12 = alloca %"class.std::basic_string_view", align 8
  call void @_ZNSt17basic_string_viewIcSt11char_traitsIcEEC2EPKc(ptr noundef nonnull align 8 dereferenceable(16) %agg.tmp, ptr noundef @.str.6) #2
  %0 = getelementptr inbounds { i64, ptr }, ptr %agg.tmp, i32 0, i32 0
  %1 = load i64, ptr %0, align 8
  %2 = getelementptr inbounds { i64, ptr }, ptr %agg.tmp, i32 0, i32 1
  %3 = load ptr, ptr %2, align 8
  call void @_ZN5arrow8internal10DataMemberINS_7compute11CastOptionsENS_10TypeHolderEEENS0_18DataMemberPropertyIT_T0_EESt17basic_string_viewIcSt11char_traitsIcEEMS6_S7_(ptr sret(%"struct.arrow::internal::DataMemberProperty") align 8 %ref.tmp, i64 %1, ptr %3, i64 16)
  call void @_ZNSt17basic_string_viewIcSt11char_traitsIcEEC2EPKc(ptr noundef nonnull align 8 dereferenceable(16) %agg.tmp2, ptr noundef @.str.7) #2
  %4 = getelementptr inbounds { i64, ptr }, ptr %agg.tmp2, i32 0, i32 0
  %5 = load i64, ptr %4, align 8
  %6 = getelementptr inbounds { i64, ptr }, ptr %agg.tmp2, i32 0, i32 1
  %7 = load ptr, ptr %6, align 8
  call void @_ZN5arrow8internal10DataMemberINS_7compute11CastOptionsEbEENS0_18DataMemberPropertyIT_T0_EESt17basic_string_viewIcSt11char_traitsIcEEMS5_S6_(ptr sret(%"struct.arrow::internal::DataMemberProperty.8") align 8 %ref.tmp1, i64 %5, ptr %7, i64 40)
  call void @_ZNSt17basic_string_viewIcSt11char_traitsIcEEC2EPKc(ptr noundef nonnull align 8 dereferenceable(16) %agg.tmp4, ptr noundef @.str.8) #2
  %8 = getelementptr inbounds { i64, ptr }, ptr %agg.tmp4, i32 0, i32 0
  %9 = load i64, ptr %8, align 8
  %10 = getelementptr inbounds { i64, ptr }, ptr %agg.tmp4, i32 0, i32 1
  %11 = load ptr, ptr %10, align 8
  call void @_ZN5arrow8internal10DataMemberINS_7compute11CastOptionsEbEENS0_18DataMemberPropertyIT_T0_EESt17basic_string_viewIcSt11char_traitsIcEEMS5_S6_(ptr sret(%"struct.arrow::internal::DataMemberProperty.8") align 8 %ref.tmp3, i64 %9, ptr %11, i64 41)
  call void @_ZNSt17basic_string_viewIcSt11char_traitsIcEEC2EPKc(ptr noundef nonnull align 8 dereferenceable(16) %agg.tmp6, ptr noundef @.str.9) #2
  %12 = getelementptr inbounds { i64, ptr }, ptr %agg.tmp6, i32 0, i32 0
  %13 = load i64, ptr %12, align 8
  %14 = getelementptr inbounds { i64, ptr }, ptr %agg.tmp6, i32 0, i32 1
  %15 = load ptr, ptr %14, align 8
  call void @_ZN5arrow8internal10DataMemberINS_7compute11CastOptionsEbEENS0_18DataMemberPropertyIT_T0_EESt17basic_string_viewIcSt11char_traitsIcEEMS5_S6_(ptr sret(%"struct.arrow::internal::DataMemberProperty.8") align 8 %ref.tmp5, i64 %13, ptr %15, i64 42)
  call void @_ZNSt17basic_string_viewIcSt11char_traitsIcEEC2EPKc(ptr noundef nonnull align 8 dereferenceable(16) %agg.tmp8, ptr noundef @.str.10) #2
  %16 = getelementptr inbounds { i64, ptr }, ptr %agg.tmp8, i32 0, i32 0
  %17 = load i64, ptr %16, align 8
  %18 = getelementptr inbounds { i64, ptr }, ptr %agg.tmp8, i32 0, i32 1
  %19 = load ptr, ptr %18, align 8
  call void @_ZN5arrow8internal10DataMemberINS_7compute11CastOptionsEbEENS0_18DataMemberPropertyIT_T0_EESt17basic_string_viewIcSt11char_traitsIcEEMS5_S6_(ptr sret(%"struct.arrow::internal::DataMemberProperty.8") align 8 %ref.tmp7, i64 %17, ptr %19, i64 43)
  call void @_ZNSt17basic_string_viewIcSt11char_traitsIcEEC2EPKc(ptr noundef nonnull align 8 dereferenceable(16) %agg.tmp10, ptr noundef @.str.11) #2
  %20 = getelementptr inbounds { i64, ptr }, ptr %agg.tmp10, i32 0, i32 0
  %21 = load i64, ptr %20, align 8
  %22 = getelementptr inbounds { i64, ptr }, ptr %agg.tmp10, i32 0, i32 1
  %23 = load ptr, ptr %22, align 8
  call void @_ZN5arrow8internal10DataMemberINS_7compute11CastOptionsEbEENS0_18DataMemberPropertyIT_T0_EESt17basic_string_viewIcSt11char_traitsIcEEMS5_S6_(ptr sret(%"struct.arrow::internal::DataMemberProperty.8") align 8 %ref.tmp9, i64 %21, ptr %23, i64 44)
  call void @_ZNSt17basic_string_viewIcSt11char_traitsIcEEC2EPKc(ptr noundef nonnull align 8 dereferenceable(16) %agg.tmp12, ptr noundef @.str.12) #2
  %24 = getelementptr inbounds { i64, ptr }, ptr %agg.tmp12, i32 0, i32 0
  %25 = load i64, ptr %24, align 8
  %26 = getelementptr inbounds { i64, ptr }, ptr %agg.tmp12, i32 0, i32 1
  %27 = load ptr, ptr %26, align 8
  call void @_ZN5arrow8internal10DataMemberINS_7compute11CastOptionsEbEENS0_18DataMemberPropertyIT_T0_EESt17basic_string_viewIcSt11char_traitsIcEEMS5_S6_(ptr sret(%"struct.arrow::internal::DataMemberProperty.8") align 8 %ref.tmp11, i64 %25, ptr %27, i64 45)
  %call = call noundef ptr @_ZN5arrow7compute8internal22GetFunctionOptionsTypeINS0_11CastOptionsEJNS_8internal18DataMemberPropertyIS3_NS_10TypeHolderEEENS5_IS3_bEES8_S8_S8_S8_S8_EEEPKNS0_19FunctionOptionsTypeEDpRKT0_(ptr noundef nonnull align 8 dereferenceable(24) %ref.tmp, ptr noundef nonnull align 8 dereferenceable(24) %ref.tmp1, ptr noundef nonnull align 8 dereferenceable(24) %ref.tmp3, ptr noundef nonnull align 8 dereferenceable(24) %ref.tmp5, ptr noundef nonnull align 8 dereferenceable(24) %ref.tmp7, ptr noundef nonnull align 8 dereferenceable(24) %ref.tmp9, ptr noundef nonnull align 8 dereferenceable(24) %ref.tmp11)
  store ptr %call, ptr @_ZN5arrow7compute8internal12_GLOBAL__N_116kCastOptionsTypeE, align 8
  ret void
}

; Function Attrs: mustprogress uwtable
define linkonce_odr noundef ptr @_ZN5arrow7compute8internal22GetFunctionOptionsTypeINS0_11CastOptionsEJNS_8internal18DataMemberPropertyIS3_NS_10TypeHolderEEENS5_IS3_bEES8_S8_S8_S8_S8_EEEPKNS0_19FunctionOptionsTypeEDpRKT0_(ptr noundef nonnull align 8 dereferenceable(24) %properties, ptr noundef nonnull align 8 dereferenceable(24) %properties1, ptr noundef nonnull align 8 dereferenceable(24) %properties3, ptr noundef nonnull align 8 dereferenceable(24) %properties5, ptr noundef nonnull align 8 dereferenceable(24) %properties7, ptr noundef nonnull align 8 dereferenceable(24) %properties9, ptr noundef nonnull align 8 dereferenceable(24) %properties11) #4 comdat personality ptr @__gxx_personality_v0 {
entry:
  %properties.addr = alloca ptr, align 8
  %properties.addr2 = alloca ptr, align 8
  %properties.addr4 = alloca ptr, align 8
  %properties.addr6 = alloca ptr, align 8
  %properties.addr8 = alloca ptr, align 8
  %properties.addr10 = alloca ptr, align 8
  %properties.addr12 = alloca ptr, align 8
  %agg.tmp = alloca %"struct.arrow::internal::PropertyTuple", align 8
  %agg.tmp13 = alloca %"struct.arrow::internal::DataMemberProperty", align 8
  %agg.tmp14 = alloca %"struct.arrow::internal::DataMemberProperty.8", align 8
  %agg.tmp15 = alloca %"struct.arrow::internal::DataMemberProperty.8", align 8
  %agg.tmp16 = alloca %"struct.arrow::internal::DataMemberProperty.8", align 8
  %agg.tmp17 = alloca %"struct.arrow::internal::DataMemberProperty.8", align 8
  %agg.tmp18 = alloca %"struct.arrow::internal::DataMemberProperty.8", align 8
  %agg.tmp19 = alloca %"struct.arrow::internal::DataMemberProperty.8", align 8
  %exn.slot = alloca ptr, align 8
  %ehselector.slot = alloca i32, align 4
  store ptr %properties, ptr %properties.addr, align 8
  store ptr %properties1, ptr %properties.addr2, align 8
  store ptr %properties3, ptr %properties.addr4, align 8
  store ptr %properties5, ptr %properties.addr6, align 8
  store ptr %properties7, ptr %properties.addr8, align 8
  store ptr %properties9, ptr %properties.addr10, align 8
  store ptr %properties11, ptr %properties.addr12, align 8
  %0 = load atomic i8, ptr @_ZGVZN5arrow7compute8internal22GetFunctionOptionsTypeINS0_11CastOptionsEJNS_8internal18DataMemberPropertyIS3_NS_10TypeHolderEEENS5_IS3_bEES8_S8_S8_S8_S8_EEEPKNS0_19FunctionOptionsTypeEDpRKT0_E8instance acquire, align 8
  %guard.uninitialized = icmp eq i8 %0, 0
  br i1 %guard.uninitialized, label %init.check, label %init.end, !prof !4

init.check:                                       ; preds = %entry
  %1 = call i32 @__cxa_guard_acquire(ptr @_ZGVZN5arrow7compute8internal22GetFunctionOptionsTypeINS0_11CastOptionsEJNS_8internal18DataMemberPropertyIS3_NS_10TypeHolderEEENS5_IS3_bEES8_S8_S8_S8_S8_EEEPKNS0_19FunctionOptionsTypeEDpRKT0_E8instance) #2
  %tobool = icmp ne i32 %1, 0
  br i1 %tobool, label %init, label %init.end

init:                                             ; preds = %init.check
  %2 = load ptr, ptr %properties.addr, align 8
  call void @llvm.memcpy.p0.p0.i64(ptr align 8 %agg.tmp13, ptr align 8 %2, i64 24, i1 false)
  %3 = load ptr, ptr %properties.addr2, align 8
  call void @llvm.memcpy.p0.p0.i64(ptr align 8 %agg.tmp14, ptr align 8 %3, i64 24, i1 false)
  %4 = load ptr, ptr %properties.addr4, align 8
  call void @llvm.memcpy.p0.p0.i64(ptr align 8 %agg.tmp15, ptr align 8 %4, i64 24, i1 false)
  %5 = load ptr, ptr %properties.addr6, align 8
  call void @llvm.memcpy.p0.p0.i64(ptr align 8 %agg.tmp16, ptr align 8 %5, i64 24, i1 false)
  %6 = load ptr, ptr %properties.addr8, align 8
  call void @llvm.memcpy.p0.p0.i64(ptr align 8 %agg.tmp17, ptr align 8 %6, i64 24, i1 false)
  %7 = load ptr, ptr %properties.addr10, align 8
  call void @llvm.memcpy.p0.p0.i64(ptr align 8 %agg.tmp18, ptr align 8 %7, i64 24, i1 false)
  %8 = load ptr, ptr %properties.addr12, align 8
  call void @llvm.memcpy.p0.p0.i64(ptr align 8 %agg.tmp19, ptr align 8 %8, i64 24, i1 false)
  invoke void @_ZN5arrow8internal14MakePropertiesIJNS0_18DataMemberPropertyINS_7compute11CastOptionsENS_10TypeHolderEEENS2_IS4_bEES7_S7_S7_S7_S7_EEENS0_13PropertyTupleIJDpT_EEESA_(ptr sret(%"struct.arrow::internal::PropertyTuple") align 8 %agg.tmp, ptr noundef byval(%"struct.arrow::internal::DataMemberProperty") align 8 %agg.tmp13, ptr noundef byval(%"struct.arrow::internal::DataMemberProperty.8") align 8 %agg.tmp14, ptr noundef byval(%"struct.arrow::internal::DataMemberProperty.8") align 8 %agg.tmp15, ptr noundef byval(%"struct.arrow::internal::DataMemberProperty.8") align 8 %agg.tmp16, ptr noundef byval(%"struct.arrow::internal::DataMemberProperty.8") align 8 %agg.tmp17, ptr noundef byval(%"struct.arrow::internal::DataMemberProperty.8") align 8 %agg.tmp18, ptr noundef byval(%"struct.arrow::internal::DataMemberProperty.8") align 8 %agg.tmp19)
          to label %invoke.cont unwind label %lpad

invoke.cont:                                      ; preds = %init
  invoke void @_ZZN5arrow7compute8internal22GetFunctionOptionsTypeINS0_11CastOptionsEJNS_8internal18DataMemberPropertyIS3_NS_10TypeHolderEEENS5_IS3_bEES8_S8_S8_S8_S8_EEEPKNS0_19FunctionOptionsTypeEDpRKT0_EN11OptionsTypeC2ENS4_13PropertyTupleIJS7_S8_S8_S8_S8_S8_S8_EEE(ptr noundef nonnull align 8 dereferenceable(176) @_ZZN5arrow7compute8internal22GetFunctionOptionsTypeINS0_11CastOptionsEJNS_8internal18DataMemberPropertyIS3_NS_10TypeHolderEEENS5_IS3_bEES8_S8_S8_S8_S8_EEEPKNS0_19FunctionOptionsTypeEDpRKT0_E8instance, ptr noundef %agg.tmp)
          to label %invoke.cont20 unwind label %lpad

invoke.cont20:                                    ; preds = %invoke.cont
  %9 = call i32 @__cxa_atexit(ptr @_ZZN5arrow7compute8internal22GetFunctionOptionsTypeINS0_11CastOptionsEJNS_8internal18DataMemberPropertyIS3_NS_10TypeHolderEEENS5_IS3_bEES8_S8_S8_S8_S8_EEEPKNS0_19FunctionOptionsTypeEDpRKT0_EN11OptionsTypeD2Ev, ptr @_ZZN5arrow7compute8internal22GetFunctionOptionsTypeINS0_11CastOptionsEJNS_8internal18DataMemberPropertyIS3_NS_10TypeHolderEEENS5_IS3_bEES8_S8_S8_S8_S8_EEEPKNS0_19FunctionOptionsTypeEDpRKT0_E8instance, ptr @__dso_handle) #2
  call void @__cxa_guard_release(ptr @_ZGVZN5arrow7compute8internal22GetFunctionOptionsTypeINS0_11CastOptionsEJNS_8internal18DataMemberPropertyIS3_NS_10TypeHolderEEENS5_IS3_bEES8_S8_S8_S8_S8_EEEPKNS0_19FunctionOptionsTypeEDpRKT0_E8instance) #2
  br label %init.end

init.end:                                         ; preds = %invoke.cont20, %init.check, %entry
  ret ptr @_ZZN5arrow7compute8internal22GetFunctionOptionsTypeINS0_11CastOptionsEJNS_8internal18DataMemberPropertyIS3_NS_10TypeHolderEEENS5_IS3_bEES8_S8_S8_S8_S8_EEEPKNS0_19FunctionOptionsTypeEDpRKT0_E8instance

lpad:                                             ; preds = %invoke.cont, %init
  %10 = landingpad { ptr, i32 }
          cleanup
  %11 = extractvalue { ptr, i32 } %10, 0
  store ptr %11, ptr %exn.slot, align 8
  %12 = extractvalue { ptr, i32 } %10, 1
  store i32 %12, ptr %ehselector.slot, align 4
  call void @__cxa_guard_abort(ptr @_ZGVZN5arrow7compute8internal22GetFunctionOptionsTypeINS0_11CastOptionsEJNS_8internal18DataMemberPropertyIS3_NS_10TypeHolderEEENS5_IS3_bEES8_S8_S8_S8_S8_EEEPKNS0_19FunctionOptionsTypeEDpRKT0_E8instance) #2
  br label %eh.resume

eh.resume:                                        ; preds = %lpad
  %exn = load ptr, ptr %exn.slot, align 8
  %sel = load i32, ptr %ehselector.slot, align 4
  %lpad.val = insertvalue { ptr, i32 } poison, ptr %exn, 0
  %lpad.val21 = insertvalue { ptr, i32 } %lpad.val, i32 %sel, 1
  resume { ptr, i32 } %lpad.val21
}

; Function Attrs: mustprogress nounwind uwtable
define linkonce_odr void @_ZN5arrow8internal10DataMemberINS_7compute11CastOptionsENS_10TypeHolderEEENS0_18DataMemberPropertyIT_T0_EESt17basic_string_viewIcSt11char_traitsIcEEMS6_S7_(ptr noalias sret(%"struct.arrow::internal::DataMemberProperty") align 8 %agg.result, i64 %name.coerce0, ptr %name.coerce1, i64 %ptr) #1 comdat {
entry:
  %name = alloca %"class.std::basic_string_view", align 8
  %ptr.addr = alloca i64, align 8
  %0 = getelementptr inbounds { i64, ptr }, ptr %name, i32 0, i32 0
  store i64 %name.coerce0, ptr %0, align 8
  %1 = getelementptr inbounds { i64, ptr }, ptr %name, i32 0, i32 1
  store ptr %name.coerce1, ptr %1, align 8
  store i64 %ptr, ptr %ptr.addr, align 8
  %name_ = getelementptr inbounds %"struct.arrow::internal::DataMemberProperty", ptr %agg.result, i32 0, i32 0
  call void @llvm.memcpy.p0.p0.i64(ptr align 8 %name_, ptr align 8 %name, i64 16, i1 false)
  %ptr_ = getelementptr inbounds %"struct.arrow::internal::DataMemberProperty", ptr %agg.result, i32 0, i32 1
  %2 = load i64, ptr %ptr.addr, align 8
  store i64 %2, ptr %ptr_, align 8
  ret void
}

; Function Attrs: mustprogress nounwind uwtable
define linkonce_odr void @_ZNSt17basic_string_viewIcSt11char_traitsIcEEC2EPKc(ptr noundef nonnull align 8 dereferenceable(16) %this, ptr noundef nonnull %__str) unnamed_addr #1 comdat align 2 personality ptr @__gxx_personality_v0 {
entry:
  %this.addr = alloca ptr, align 8
  %__str.addr = alloca ptr, align 8
  store ptr %this, ptr %this.addr, align 8
  store ptr %__str, ptr %__str.addr, align 8
  %this1 = load ptr, ptr %this.addr, align 8
  %_M_len = getelementptr inbounds %"class.std::basic_string_view", ptr %this1, i32 0, i32 0
  %0 = load ptr, ptr %__str.addr, align 8
  %call = invoke noundef i64 @_ZNSt11char_traitsIcE6lengthEPKc(ptr noundef %0)
          to label %invoke.cont unwind label %terminate.lpad

invoke.cont:                                      ; preds = %entry
  store i64 %call, ptr %_M_len, align 8
  %_M_str = getelementptr inbounds %"class.std::basic_string_view", ptr %this1, i32 0, i32 1
  %1 = load ptr, ptr %__str.addr, align 8
  store ptr %1, ptr %_M_str, align 8
  ret void

terminate.lpad:                                   ; preds = %entry
  %2 = landingpad { ptr, i32 }
          catch ptr null
  %3 = extractvalue { ptr, i32 } %2, 0
  call void @__clang_call_terminate(ptr %3) #15
  unreachable
}

; Function Attrs: mustprogress nounwind uwtable
define linkonce_odr void @_ZN5arrow8internal10DataMemberINS_7compute11CastOptionsEbEENS0_18DataMemberPropertyIT_T0_EESt17basic_string_viewIcSt11char_traitsIcEEMS5_S6_(ptr noalias sret(%"struct.arrow::internal::DataMemberProperty.8") align 8 %agg.result, i64 %name.coerce0, ptr %name.coerce1, i64 %ptr) #1 comdat {
entry:
  %name = alloca %"class.std::basic_string_view", align 8
  %ptr.addr = alloca i64, align 8
  %0 = getelementptr inbounds { i64, ptr }, ptr %name, i32 0, i32 0
  store i64 %name.coerce0, ptr %0, align 8
  %1 = getelementptr inbounds { i64, ptr }, ptr %name, i32 0, i32 1
  store ptr %name.coerce1, ptr %1, align 8
  store i64 %ptr, ptr %ptr.addr, align 8
  %name_ = getelementptr inbounds %"struct.arrow::internal::DataMemberProperty.8", ptr %agg.result, i32 0, i32 0
  call void @llvm.memcpy.p0.p0.i64(ptr align 8 %name_, ptr align 8 %name, i64 16, i1 false)
  %ptr_ = getelementptr inbounds %"struct.arrow::internal::DataMemberProperty.8", ptr %agg.result, i32 0, i32 1
  %2 = load i64, ptr %ptr.addr, align 8
  store i64 %2, ptr %ptr_, align 8
  ret void
}

; Function Attrs: mustprogress uwtable
define void @_ZN5arrow7compute8internal18RegisterScalarCastEPNS0_16FunctionRegistryE(ptr noundef %registry) #4 personality ptr @__gxx_personality_v0 {
entry:
  %registry.addr = alloca ptr, align 8
  %agg.tmp.ensured = alloca %"class.arrow::Status", align 8
  %agg.tmp = alloca %"class.std::shared_ptr", align 8
  %ref.tmp = alloca %"class.std::shared_ptr.11", align 8
  %exn.slot = alloca ptr, align 8
  %ehselector.slot = alloca i32, align 4
  %agg.tmp.ensured2 = alloca %"class.arrow::Status", align 8
  store ptr %registry, ptr %registry.addr, align 8
  %0 = load ptr, ptr %registry.addr, align 8
  call void @_ZSt11make_sharedIN5arrow7compute8internal12_GLOBAL__N_116CastMetaFunctionEJEESt10shared_ptrINSt9enable_ifIXntsr8is_arrayIT_EE5valueES7_E4typeEEDpOT0_(ptr sret(%"class.std::shared_ptr.11") align 8 %ref.tmp)
  call void @_ZNSt10shared_ptrIN5arrow7compute8FunctionEEC2INS1_8internal12_GLOBAL__N_116CastMetaFunctionEvEEOS_IT_E(ptr noundef nonnull align 8 dereferenceable(16) %agg.tmp, ptr noundef nonnull align 8 dereferenceable(16) %ref.tmp) #2
  invoke void @_ZN5arrow7compute16FunctionRegistry11AddFunctionESt10shared_ptrINS0_8FunctionEEb(ptr sret(%"class.arrow::Status") align 8 %agg.tmp.ensured, ptr noundef nonnull align 8 dereferenceable(8) %0, ptr noundef %agg.tmp, i1 noundef zeroext false)
          to label %invoke.cont unwind label %lpad

invoke.cont:                                      ; preds = %entry
  call void @_ZN5arrow6StatusD2Ev(ptr noundef nonnull align 8 dereferenceable(8) %agg.tmp.ensured) #2
  call void @_ZNSt10shared_ptrIN5arrow7compute8FunctionEED2Ev(ptr noundef nonnull align 8 dereferenceable(16) %agg.tmp) #2
  call void @_ZNSt10shared_ptrIN5arrow7compute8internal12_GLOBAL__N_116CastMetaFunctionEED2Ev(ptr noundef nonnull align 8 dereferenceable(16) %ref.tmp) #2
  br label %while.cond

while.cond:                                       ; preds = %while.body, %invoke.cont
  br i1 false, label %while.body, label %while.end

while.body:                                       ; preds = %while.cond
  br label %while.cond, !llvm.loop !5

lpad:                                             ; preds = %entry
  %1 = landingpad { ptr, i32 }
          cleanup
  %2 = extractvalue { ptr, i32 } %1, 0
  store ptr %2, ptr %exn.slot, align 8
  %3 = extractvalue { ptr, i32 } %1, 1
  store i32 %3, ptr %ehselector.slot, align 4
  call void @_ZNSt10shared_ptrIN5arrow7compute8FunctionEED2Ev(ptr noundef nonnull align 8 dereferenceable(16) %agg.tmp) #2
  call void @_ZNSt10shared_ptrIN5arrow7compute8internal12_GLOBAL__N_116CastMetaFunctionEED2Ev(ptr noundef nonnull align 8 dereferenceable(16) %ref.tmp) #2
  br label %eh.resume

while.end:                                        ; preds = %while.cond
  %4 = load ptr, ptr %registry.addr, align 8
  %5 = load ptr, ptr @_ZN5arrow7compute8internal12_GLOBAL__N_116kCastOptionsTypeE, align 8
  call void @_ZN5arrow7compute16FunctionRegistry22AddFunctionOptionsTypeEPKNS0_19FunctionOptionsTypeEb(ptr sret(%"class.arrow::Status") align 8 %agg.tmp.ensured2, ptr noundef nonnull align 8 dereferenceable(8) %4, ptr noundef %5, i1 noundef zeroext false)
  call void @_ZN5arrow6StatusD2Ev(ptr noundef nonnull align 8 dereferenceable(8) %agg.tmp.ensured2) #2
  br label %while.cond3

while.cond3:                                      ; preds = %while.body4, %while.end
  br i1 false, label %while.body4, label %while.end6

while.body4:                                      ; preds = %while.cond3
  br label %while.cond3, !llvm.loop !7

while.end6:                                       ; preds = %while.cond3
  ret void

eh.resume:                                        ; preds = %lpad
  %exn = load ptr, ptr %exn.slot, align 8
  %sel = load i32, ptr %ehselector.slot, align 4
  %lpad.val = insertvalue { ptr, i32 } poison, ptr %exn, 0
  %lpad.val7 = insertvalue { ptr, i32 } %lpad.val, i32 %sel, 1
  resume { ptr, i32 } %lpad.val7
}

declare void @_ZN5arrow7compute16FunctionRegistry11AddFunctionESt10shared_ptrINS0_8FunctionEEb(ptr sret(%"class.arrow::Status") align 8, ptr noundef nonnull align 8 dereferenceable(8), ptr noundef, i1 noundef zeroext) #5

; Function Attrs: mustprogress uwtable
define internal void @_ZSt11make_sharedIN5arrow7compute8internal12_GLOBAL__N_116CastMetaFunctionEJEESt10shared_ptrINSt9enable_ifIXntsr8is_arrayIT_EE5valueES7_E4typeEEDpOT0_(ptr noalias sret(%"class.std::shared_ptr.11") align 8 %agg.result) #4 {
entry:
  %result.ptr = alloca ptr, align 8
  %__a = alloca %"class.std::allocator.233", align 1
  %agg.tmp = alloca %"struct.std::_Sp_alloc_shared_tag", align 8
  store ptr %agg.result, ptr %result.ptr, align 8
  %_M_a = getelementptr inbounds %"struct.std::_Sp_alloc_shared_tag", ptr %agg.tmp, i32 0, i32 0
  store ptr %__a, ptr %_M_a, align 8
  %coerce.dive = getelementptr inbounds %"struct.std::_Sp_alloc_shared_tag", ptr %agg.tmp, i32 0, i32 0
  %0 = load ptr, ptr %coerce.dive, align 8
  call void @_ZNSt10shared_ptrIN5arrow7compute8internal12_GLOBAL__N_116CastMetaFunctionEEC2ISaIvEJEEESt20_Sp_alloc_shared_tagIT_EDpOT0_(ptr noundef nonnull align 8 dereferenceable(16) %agg.result, ptr %0)
  ret void
}

; Function Attrs: mustprogress nounwind uwtable
define internal void @_ZNSt10shared_ptrIN5arrow7compute8FunctionEEC2INS1_8internal12_GLOBAL__N_116CastMetaFunctionEvEEOS_IT_E(ptr noundef nonnull align 8 dereferenceable(16) %this, ptr noundef nonnull align 8 dereferenceable(16) %__r) unnamed_addr #1 align 2 {
entry:
  %this.addr = alloca ptr, align 8
  %__r.addr = alloca ptr, align 8
  store ptr %this, ptr %this.addr, align 8
  store ptr %__r, ptr %__r.addr, align 8
  %this1 = load ptr, ptr %this.addr, align 8
  %0 = load ptr, ptr %__r.addr, align 8
  call void @_ZNSt12__shared_ptrIN5arrow7compute8FunctionELN9__gnu_cxx12_Lock_policyE2EEC2INS1_8internal12_GLOBAL__N_116CastMetaFunctionEvEEOS_IT_LS4_2EE(ptr noundef nonnull align 8 dereferenceable(16) %this1, ptr noundef nonnull align 8 dereferenceable(16) %0) #2
  ret void
}

; Function Attrs: mustprogress nounwind uwtable
define linkonce_odr void @_ZN5arrow6StatusD2Ev(ptr noundef nonnull align 8 dereferenceable(8) %this) unnamed_addr #1 comdat align 2 personality ptr @__gxx_personality_v0 {
entry:
  %this.addr = alloca ptr, align 8
  store ptr %this, ptr %this.addr, align 8
  %this1 = load ptr, ptr %this.addr, align 8
  %state_ = getelementptr inbounds %"class.arrow::Status", ptr %this1, i32 0, i32 0
  %0 = load ptr, ptr %state_, align 8
  %cmp = icmp ne ptr %0, null
  %lnot = xor i1 %cmp, true
  %lnot2 = xor i1 %lnot, true
  br i1 %lnot2, label %if.then, label %if.end

if.then:                                          ; preds = %entry
  invoke void @_ZN5arrow6Status11DeleteStateEv(ptr noundef nonnull align 8 dereferenceable(8) %this1)
          to label %invoke.cont unwind label %terminate.lpad

invoke.cont:                                      ; preds = %if.then
  br label %if.end

if.end:                                           ; preds = %invoke.cont, %entry
  call void @_ZN5arrow4util19ToStringOstreamableINS_6StatusEED2Ev(ptr noundef nonnull align 1 dereferenceable(1) %this1) #2
  call void @_ZN5arrow4util18EqualityComparableINS_6StatusEED2Ev(ptr noundef nonnull align 1 dereferenceable(1) %this1) #2
  ret void

terminate.lpad:                                   ; preds = %if.then
  %1 = landingpad { ptr, i32 }
          catch ptr null
  %2 = extractvalue { ptr, i32 } %1, 0
  call void @__clang_call_terminate(ptr %2) #15
  unreachable
}

; Function Attrs: mustprogress nounwind uwtable
define linkonce_odr void @_ZNSt10shared_ptrIN5arrow7compute8FunctionEED2Ev(ptr noundef nonnull align 8 dereferenceable(16) %this) unnamed_addr #1 comdat align 2 {
entry:
  %this.addr = alloca ptr, align 8
  store ptr %this, ptr %this.addr, align 8
  %this1 = load ptr, ptr %this.addr, align 8
  call void @_ZNSt12__shared_ptrIN5arrow7compute8FunctionELN9__gnu_cxx12_Lock_policyE2EED2Ev(ptr noundef nonnull align 8 dereferenceable(16) %this1) #2
  ret void
}

; Function Attrs: mustprogress nounwind uwtable
define internal void @_ZNSt10shared_ptrIN5arrow7compute8internal12_GLOBAL__N_116CastMetaFunctionEED2Ev(ptr noundef nonnull align 8 dereferenceable(16) %this) unnamed_addr #1 align 2 {
entry:
  %this.addr = alloca ptr, align 8
  store ptr %this, ptr %this.addr, align 8
  %this1 = load ptr, ptr %this.addr, align 8
  call void @_ZNSt12__shared_ptrIN5arrow7compute8internal12_GLOBAL__N_116CastMetaFunctionELN9__gnu_cxx12_Lock_policyE2EED2Ev(ptr noundef nonnull align 8 dereferenceable(16) %this1) #2
  ret void
}

declare void @_ZN5arrow7compute16FunctionRegistry22AddFunctionOptionsTypeEPKNS0_19FunctionOptionsTypeEb(ptr sret(%"class.arrow::Status") align 8, ptr noundef nonnull align 8 dereferenceable(8), ptr noundef, i1 noundef zeroext) #5

; Function Attrs: mustprogress uwtable
define void @_ZN5arrow7compute8internal12CastFunctionC2ENSt7__cxx1112basic_stringIcSt11char_traitsIcESaIcEEENS_4Type4typeE(ptr noundef nonnull align 8 dereferenceable(244) %this, ptr noundef %name, i32 noundef %out_type_id) unnamed_addr #4 align 2 personality ptr @__gxx_personality_v0 {
entry:
  %this.addr = alloca ptr, align 8
  %name.indirect_addr = alloca ptr, align 8
  %out_type_id.addr = alloca i32, align 4
  %agg.tmp = alloca %"class.std::__cxx11::basic_string", align 8
  %ref.tmp = alloca %"struct.arrow::compute::Arity", align 4
  %exn.slot = alloca ptr, align 8
  %ehselector.slot = alloca i32, align 4
  %agg.tmp2 = alloca %"struct.arrow::compute::FunctionDoc", align 8
  store ptr %this, ptr %this.addr, align 8
  store ptr %name, ptr %name.indirect_addr, align 8
  store i32 %out_type_id, ptr %out_type_id.addr, align 4
  %this1 = load ptr, ptr %this.addr, align 8
  call void @_ZNSt7__cxx1112basic_stringIcSt11char_traitsIcESaIcEEC1EOS4_(ptr noundef nonnull align 8 dereferenceable(32) %agg.tmp, ptr noundef nonnull align 8 dereferenceable(32) %name) #2
  %call = invoke i64 @_ZN5arrow7compute5Arity5UnaryEv()
          to label %invoke.cont unwind label %lpad

invoke.cont:                                      ; preds = %entry
  store i64 %call, ptr %ref.tmp, align 4
  %call4 = invoke noundef nonnull align 8 dereferenceable(121) ptr @_ZN5arrow7compute11FunctionDoc5EmptyEv()
          to label %invoke.cont3 unwind label %lpad

invoke.cont3:                                     ; preds = %invoke.cont
  invoke void @_ZN5arrow7compute11FunctionDocC2ERKS1_(ptr noundef nonnull align 8 dereferenceable(121) %agg.tmp2, ptr noundef nonnull align 8 dereferenceable(121) %call4)
          to label %invoke.cont5 unwind label %lpad

invoke.cont5:                                     ; preds = %invoke.cont3
  invoke void @_ZN5arrow7compute14ScalarFunctionC2ENSt7__cxx1112basic_stringIcSt11char_traitsIcESaIcEEERKNS0_5ArityENS0_11FunctionDocEPKNS0_15FunctionOptionsE(ptr noundef nonnull align 8 dereferenceable(216) %this1, ptr noundef %agg.tmp, ptr noundef nonnull align 4 dereferenceable(5) %ref.tmp, ptr noundef %agg.tmp2, ptr noundef null)
          to label %invoke.cont7 unwind label %lpad6

invoke.cont7:                                     ; preds = %invoke.cont5
  call void @_ZN5arrow7compute11FunctionDocD2Ev(ptr noundef nonnull align 8 dereferenceable(121) %agg.tmp2) #2
  call void @_ZNSt7__cxx1112basic_stringIcSt11char_traitsIcESaIcEED1Ev(ptr noundef nonnull align 8 dereferenceable(32) %agg.tmp) #2
  store ptr getelementptr inbounds ({ [11 x ptr] }, ptr @_ZTVN5arrow7compute8internal12CastFunctionE, i32 0, inrange i32 0, i32 2), ptr %this1, align 8
  %in_type_ids_ = getelementptr inbounds %"class.arrow::compute::internal::CastFunction", ptr %this1, i32 0, i32 1
  call void @_ZNSt6vectorIN5arrow4Type4typeESaIS2_EEC2Ev(ptr noundef nonnull align 8 dereferenceable(24) %in_type_ids_) #2
  %out_type_id_ = getelementptr inbounds %"class.arrow::compute::internal::CastFunction", ptr %this1, i32 0, i32 2
  %0 = load i32, ptr %out_type_id.addr, align 4
  store i32 %0, ptr %out_type_id_, align 8
  ret void

lpad:                                             ; preds = %invoke.cont3, %invoke.cont, %entry
  %1 = landingpad { ptr, i32 }
          cleanup
  %2 = extractvalue { ptr, i32 } %1, 0
  store ptr %2, ptr %exn.slot, align 8
  %3 = extractvalue { ptr, i32 } %1, 1
  store i32 %3, ptr %ehselector.slot, align 4
  br label %ehcleanup

lpad6:                                            ; preds = %invoke.cont5
  %4 = landingpad { ptr, i32 }
          cleanup
  %5 = extractvalue { ptr, i32 } %4, 0
  store ptr %5, ptr %exn.slot, align 8
  %6 = extractvalue { ptr, i32 } %4, 1
  store i32 %6, ptr %ehselector.slot, align 4
  call void @_ZN5arrow7compute11FunctionDocD2Ev(ptr noundef nonnull align 8 dereferenceable(121) %agg.tmp2) #2
  br label %ehcleanup

ehcleanup:                                        ; preds = %lpad6, %lpad
  call void @_ZNSt7__cxx1112basic_stringIcSt11char_traitsIcESaIcEED1Ev(ptr noundef nonnull align 8 dereferenceable(32) %agg.tmp) #2
  br label %eh.resume

eh.resume:                                        ; preds = %ehcleanup
  %exn = load ptr, ptr %exn.slot, align 8
  %sel = load i32, ptr %ehselector.slot, align 4
  %lpad.val = insertvalue { ptr, i32 } poison, ptr %exn, 0
  %lpad.val8 = insertvalue { ptr, i32 } %lpad.val, i32 %sel, 1
  resume { ptr, i32 } %lpad.val8
}

; Function Attrs: nounwind
declare void @_ZNSt7__cxx1112basic_stringIcSt11char_traitsIcESaIcEEC1EOS4_(ptr noundef nonnull align 8 dereferenceable(32), ptr noundef nonnull align 8 dereferenceable(32)) unnamed_addr #3

; Function Attrs: mustprogress uwtable
define linkonce_odr i64 @_ZN5arrow7compute5Arity5UnaryEv() #4 comdat align 2 {
entry:
  %retval = alloca %"struct.arrow::compute::Arity", align 4
  call void @_ZN5arrow7compute5ArityC2Eib(ptr noundef nonnull align 4 dereferenceable(5) %retval, i32 noundef 1, i1 noundef zeroext false)
  %0 = load i64, ptr %retval, align 4
  ret i64 %0
}

declare noundef nonnull align 8 dereferenceable(121) ptr @_ZN5arrow7compute11FunctionDoc5EmptyEv() #5

; Function Attrs: mustprogress uwtable
define linkonce_odr void @_ZN5arrow7compute11FunctionDocC2ERKS1_(ptr noundef nonnull align 8 dereferenceable(121) %this, ptr noundef nonnull align 8 dereferenceable(121) %0) unnamed_addr #4 comdat align 2 personality ptr @__gxx_personality_v0 {
entry:
  %this.addr = alloca ptr, align 8
  %.addr = alloca ptr, align 8
  %exn.slot = alloca ptr, align 8
  %ehselector.slot = alloca i32, align 4
  store ptr %this, ptr %this.addr, align 8
  store ptr %0, ptr %.addr, align 8
  %this1 = load ptr, ptr %this.addr, align 8
  %summary = getelementptr inbounds %"struct.arrow::compute::FunctionDoc", ptr %this1, i32 0, i32 0
  %1 = load ptr, ptr %.addr, align 8
  %summary2 = getelementptr inbounds %"struct.arrow::compute::FunctionDoc", ptr %1, i32 0, i32 0
  call void @_ZNSt7__cxx1112basic_stringIcSt11char_traitsIcESaIcEEC1ERKS4_(ptr noundef nonnull align 8 dereferenceable(32) %summary, ptr noundef nonnull align 8 dereferenceable(32) %summary2)
  %description = getelementptr inbounds %"struct.arrow::compute::FunctionDoc", ptr %this1, i32 0, i32 1
  %2 = load ptr, ptr %.addr, align 8
  %description3 = getelementptr inbounds %"struct.arrow::compute::FunctionDoc", ptr %2, i32 0, i32 1
  invoke void @_ZNSt7__cxx1112basic_stringIcSt11char_traitsIcESaIcEEC1ERKS4_(ptr noundef nonnull align 8 dereferenceable(32) %description, ptr noundef nonnull align 8 dereferenceable(32) %description3)
          to label %invoke.cont unwind label %lpad

invoke.cont:                                      ; preds = %entry
  %arg_names = getelementptr inbounds %"struct.arrow::compute::FunctionDoc", ptr %this1, i32 0, i32 2
  %3 = load ptr, ptr %.addr, align 8
  %arg_names4 = getelementptr inbounds %"struct.arrow::compute::FunctionDoc", ptr %3, i32 0, i32 2
  invoke void @_ZNSt6vectorINSt7__cxx1112basic_stringIcSt11char_traitsIcESaIcEEESaIS5_EEC2ERKS7_(ptr noundef nonnull align 8 dereferenceable(24) %arg_names, ptr noundef nonnull align 8 dereferenceable(24) %arg_names4)
          to label %invoke.cont6 unwind label %lpad5

invoke.cont6:                                     ; preds = %invoke.cont
  %options_class = getelementptr inbounds %"struct.arrow::compute::FunctionDoc", ptr %this1, i32 0, i32 3
  %4 = load ptr, ptr %.addr, align 8
  %options_class7 = getelementptr inbounds %"struct.arrow::compute::FunctionDoc", ptr %4, i32 0, i32 3
  invoke void @_ZNSt7__cxx1112basic_stringIcSt11char_traitsIcESaIcEEC1ERKS4_(ptr noundef nonnull align 8 dereferenceable(32) %options_class, ptr noundef nonnull align 8 dereferenceable(32) %options_class7)
          to label %invoke.cont9 unwind label %lpad8

invoke.cont9:                                     ; preds = %invoke.cont6
  %options_required = getelementptr inbounds %"struct.arrow::compute::FunctionDoc", ptr %this1, i32 0, i32 4
  %5 = load ptr, ptr %.addr, align 8
  %options_required10 = getelementptr inbounds %"struct.arrow::compute::FunctionDoc", ptr %5, i32 0, i32 4
  %6 = load i8, ptr %options_required10, align 8
  %tobool = trunc i8 %6 to i1
  %frombool = zext i1 %tobool to i8
  store i8 %frombool, ptr %options_required, align 8
  ret void

lpad:                                             ; preds = %entry
  %7 = landingpad { ptr, i32 }
          cleanup
  %8 = extractvalue { ptr, i32 } %7, 0
  store ptr %8, ptr %exn.slot, align 8
  %9 = extractvalue { ptr, i32 } %7, 1
  store i32 %9, ptr %ehselector.slot, align 4
  br label %ehcleanup11

lpad5:                                            ; preds = %invoke.cont
  %10 = landingpad { ptr, i32 }
          cleanup
  %11 = extractvalue { ptr, i32 } %10, 0
  store ptr %11, ptr %exn.slot, align 8
  %12 = extractvalue { ptr, i32 } %10, 1
  store i32 %12, ptr %ehselector.slot, align 4
  br label %ehcleanup

lpad8:                                            ; preds = %invoke.cont6
  %13 = landingpad { ptr, i32 }
          cleanup
  %14 = extractvalue { ptr, i32 } %13, 0
  store ptr %14, ptr %exn.slot, align 8
  %15 = extractvalue { ptr, i32 } %13, 1
  store i32 %15, ptr %ehselector.slot, align 4
  call void @_ZNSt6vectorINSt7__cxx1112basic_stringIcSt11char_traitsIcESaIcEEESaIS5_EED2Ev(ptr noundef nonnull align 8 dereferenceable(24) %arg_names) #2
  br label %ehcleanup

ehcleanup:                                        ; preds = %lpad8, %lpad5
  call void @_ZNSt7__cxx1112basic_stringIcSt11char_traitsIcESaIcEED1Ev(ptr noundef nonnull align 8 dereferenceable(32) %description) #2
  br label %ehcleanup11

ehcleanup11:                                      ; preds = %ehcleanup, %lpad
  call void @_ZNSt7__cxx1112basic_stringIcSt11char_traitsIcESaIcEED1Ev(ptr noundef nonnull align 8 dereferenceable(32) %summary) #2
  br label %eh.resume

eh.resume:                                        ; preds = %ehcleanup11
  %exn = load ptr, ptr %exn.slot, align 8
  %sel = load i32, ptr %ehselector.slot, align 4
  %lpad.val = insertvalue { ptr, i32 } poison, ptr %exn, 0
  %lpad.val12 = insertvalue { ptr, i32 } %lpad.val, i32 %sel, 1
  resume { ptr, i32 } %lpad.val12
}

; Function Attrs: mustprogress uwtable
define linkonce_odr void @_ZN5arrow7compute14ScalarFunctionC2ENSt7__cxx1112basic_stringIcSt11char_traitsIcESaIcEEERKNS0_5ArityENS0_11FunctionDocEPKNS0_15FunctionOptionsE(ptr noundef nonnull align 8 dereferenceable(216) %this, ptr noundef %name, ptr noundef nonnull align 4 dereferenceable(5) %arity, ptr noundef %doc, ptr noundef %default_options) unnamed_addr #4 comdat align 2 personality ptr @__gxx_personality_v0 {
entry:
  %this.addr = alloca ptr, align 8
  %name.indirect_addr = alloca ptr, align 8
  %arity.addr = alloca ptr, align 8
  %doc.indirect_addr = alloca ptr, align 8
  %default_options.addr = alloca ptr, align 8
  %agg.tmp = alloca %"class.std::__cxx11::basic_string", align 8
  %agg.tmp2 = alloca %"struct.arrow::compute::FunctionDoc", align 8
  %exn.slot = alloca ptr, align 8
  %ehselector.slot = alloca i32, align 4
  store ptr %this, ptr %this.addr, align 8
  store ptr %name, ptr %name.indirect_addr, align 8
  store ptr %arity, ptr %arity.addr, align 8
  store ptr %doc, ptr %doc.indirect_addr, align 8
  store ptr %default_options, ptr %default_options.addr, align 8
  %this1 = load ptr, ptr %this.addr, align 8
  call void @_ZNSt7__cxx1112basic_stringIcSt11char_traitsIcESaIcEEC1EOS4_(ptr noundef nonnull align 8 dereferenceable(32) %agg.tmp, ptr noundef nonnull align 8 dereferenceable(32) %name) #2
  %0 = load ptr, ptr %arity.addr, align 8
  call void @_ZN5arrow7compute11FunctionDocC2EOS1_(ptr noundef nonnull align 8 dereferenceable(121) %agg.tmp2, ptr noundef nonnull align 8 dereferenceable(121) %doc) #2
  %1 = load ptr, ptr %default_options.addr, align 8
  invoke void @_ZN5arrow7compute6detail12FunctionImplINS0_12ScalarKernelEEC2ENSt7__cxx1112basic_stringIcSt11char_traitsIcESaIcEEENS0_8Function4KindERKNS0_5ArityENS0_11FunctionDocEPKNS0_15FunctionOptionsE(ptr noundef nonnull align 8 dereferenceable(216) %this1, ptr noundef %agg.tmp, i32 noundef 0, ptr noundef nonnull align 4 dereferenceable(5) %0, ptr noundef %agg.tmp2, ptr noundef %1)
          to label %invoke.cont unwind label %lpad

invoke.cont:                                      ; preds = %entry
  call void @_ZN5arrow7compute11FunctionDocD2Ev(ptr noundef nonnull align 8 dereferenceable(121) %agg.tmp2) #2
  call void @_ZNSt7__cxx1112basic_stringIcSt11char_traitsIcESaIcEED1Ev(ptr noundef nonnull align 8 dereferenceable(32) %agg.tmp) #2
  store ptr getelementptr inbounds ({ [11 x ptr] }, ptr @_ZTVN5arrow7compute14ScalarFunctionE, i32 0, inrange i32 0, i32 2), ptr %this1, align 8
  ret void

lpad:                                             ; preds = %entry
  %2 = landingpad { ptr, i32 }
          cleanup
  %3 = extractvalue { ptr, i32 } %2, 0
  store ptr %3, ptr %exn.slot, align 8
  %4 = extractvalue { ptr, i32 } %2, 1
  store i32 %4, ptr %ehselector.slot, align 4
  call void @_ZN5arrow7compute11FunctionDocD2Ev(ptr noundef nonnull align 8 dereferenceable(121) %agg.tmp2) #2
  call void @_ZNSt7__cxx1112basic_stringIcSt11char_traitsIcESaIcEED1Ev(ptr noundef nonnull align 8 dereferenceable(32) %agg.tmp) #2
  br label %eh.resume

eh.resume:                                        ; preds = %lpad
  %exn = load ptr, ptr %exn.slot, align 8
  %sel = load i32, ptr %ehselector.slot, align 4
  %lpad.val = insertvalue { ptr, i32 } poison, ptr %exn, 0
  %lpad.val3 = insertvalue { ptr, i32 } %lpad.val, i32 %sel, 1
  resume { ptr, i32 } %lpad.val3
}

; Function Attrs: mustprogress nounwind uwtable
define linkonce_odr void @_ZNSt6vectorIN5arrow4Type4typeESaIS2_EEC2Ev(ptr noundef nonnull align 8 dereferenceable(24) %this) unnamed_addr #1 comdat align 2 {
entry:
  %this.addr = alloca ptr, align 8
  store ptr %this, ptr %this.addr, align 8
  %this1 = load ptr, ptr %this.addr, align 8
  call void @_ZNSt12_Vector_baseIN5arrow4Type4typeESaIS2_EEC2Ev(ptr noundef nonnull align 8 dereferenceable(24) %this1) #2
  ret void
}

; Function Attrs: mustprogress uwtable
define void @_ZN5arrow7compute8internal12CastFunction9AddKernelENS_4Type4typeENS0_12ScalarKernelE(ptr noalias sret(%"class.arrow::Status") align 8 %agg.result, ptr noundef nonnull align 8 dereferenceable(244) %this, i32 noundef %in_type_id, ptr noundef %kernel) #4 align 2 personality ptr @__gxx_personality_v0 {
entry:
  %result.ptr = alloca ptr, align 8
  %this.addr = alloca ptr, align 8
  %in_type_id.addr = alloca i32, align 4
  %kernel.indirect_addr = alloca ptr, align 8
  %nrvo = alloca i1, align 1
  %ref.tmp = alloca %"class.arrow::Status", align 8
  %agg.tmp = alloca %"struct.arrow::compute::ScalarKernel", align 8
  %exn.slot = alloca ptr, align 8
  %ehselector.slot = alloca i32, align 4
  %cleanup.dest.slot = alloca i32, align 4
  store ptr %agg.result, ptr %result.ptr, align 8
  store ptr %this, ptr %this.addr, align 8
  store i32 %in_type_id, ptr %in_type_id.addr, align 4
  store ptr %kernel, ptr %kernel.indirect_addr, align 8
  %this1 = load ptr, ptr %this.addr, align 8
  %init = getelementptr inbounds %"struct.arrow::compute::Kernel", ptr %kernel, i32 0, i32 1
  %call = call noundef nonnull align 8 dereferenceable(32) ptr @_ZNSt8functionIFN5arrow6ResultISt10unique_ptrINS0_7compute11KernelStateESt14default_deleteIS4_EEEEPNS3_13KernelContextERKNS3_14KernelInitArgsEEEaSIRSE_EENSt9enable_ifIXsrNSF_9_CallableIT_NSI_IXntsr7is_sameINSt9remove_cvINSt16remove_referenceISK_E4typeEE4typeESF_EE5valueESt5decayISK_EE4type4typeESt15__invoke_resultIRSV_JSA_SD_EEEE5valueERSF_E4typeEOSK_(ptr noundef nonnull align 8 dereferenceable(32) %init, ptr noundef nonnull @_ZN5arrow7compute8internal14OptionsWrapperINS0_11CastOptionsEE4InitEPNS0_13KernelContextERKNS0_14KernelInitArgsE) #2
  br label %do.body

do.body:                                          ; preds = %entry
  store i1 false, ptr %nrvo, align 1
  call void @_ZN5arrow7compute12ScalarKernelC2ERKS1_(ptr noundef nonnull align 8 dereferenceable(92) %agg.tmp, ptr noundef nonnull align 8 dereferenceable(92) %kernel)
  invoke void @_ZN5arrow7compute14ScalarFunction9AddKernelENS0_12ScalarKernelE(ptr sret(%"class.arrow::Status") align 8 %ref.tmp, ptr noundef nonnull align 8 dereferenceable(216) %this1, ptr noundef %agg.tmp)
          to label %invoke.cont unwind label %lpad

invoke.cont:                                      ; preds = %do.body
  invoke void @_ZN5arrow8internal15GenericToStatusEONS_6StatusE(ptr sret(%"class.arrow::Status") align 8 %agg.result, ptr noundef nonnull align 8 dereferenceable(8) %ref.tmp)
          to label %invoke.cont3 unwind label %lpad2

invoke.cont3:                                     ; preds = %invoke.cont
  call void @_ZN5arrow6StatusD2Ev(ptr noundef nonnull align 8 dereferenceable(8) %ref.tmp) #2
  call void @_ZN5arrow7compute12ScalarKernelD2Ev(ptr noundef nonnull align 8 dereferenceable(92) %agg.tmp) #2
  br label %do.body4

do.body4:                                         ; preds = %invoke.cont3
  %call7 = invoke noundef zeroext i1 @_ZNK5arrow6Status2okEv(ptr noundef nonnull align 8 dereferenceable(8) %agg.result)
          to label %invoke.cont6 unwind label %lpad5

invoke.cont6:                                     ; preds = %do.body4
  %lnot = xor i1 %call7, true
  %lnot8 = xor i1 %lnot, true
  %lnot9 = xor i1 %lnot8, true
  br i1 %lnot9, label %if.then, label %if.end

if.then:                                          ; preds = %invoke.cont6
  store i1 true, ptr %nrvo, align 1
  store i32 1, ptr %cleanup.dest.slot, align 4
  br label %cleanup

lpad:                                             ; preds = %do.body
  %0 = landingpad { ptr, i32 }
          cleanup
  %1 = extractvalue { ptr, i32 } %0, 0
  store ptr %1, ptr %exn.slot, align 8
  %2 = extractvalue { ptr, i32 } %0, 1
  store i32 %2, ptr %ehselector.slot, align 4
  br label %ehcleanup

lpad2:                                            ; preds = %invoke.cont
  %3 = landingpad { ptr, i32 }
          cleanup
  %4 = extractvalue { ptr, i32 } %3, 0
  store ptr %4, ptr %exn.slot, align 8
  %5 = extractvalue { ptr, i32 } %3, 1
  store i32 %5, ptr %ehselector.slot, align 4
  call void @_ZN5arrow6StatusD2Ev(ptr noundef nonnull align 8 dereferenceable(8) %ref.tmp) #2
  br label %ehcleanup

ehcleanup:                                        ; preds = %lpad2, %lpad
  call void @_ZN5arrow7compute12ScalarKernelD2Ev(ptr noundef nonnull align 8 dereferenceable(92) %agg.tmp) #2
  br label %eh.resume

lpad5:                                            ; preds = %do.body4
  %6 = landingpad { ptr, i32 }
          cleanup
  %7 = extractvalue { ptr, i32 } %6, 0
  store ptr %7, ptr %exn.slot, align 8
  %8 = extractvalue { ptr, i32 } %6, 1
  store i32 %8, ptr %ehselector.slot, align 4
  call void @_ZN5arrow6StatusD2Ev(ptr noundef nonnull align 8 dereferenceable(8) %agg.result) #2
  br label %eh.resume

if.end:                                           ; preds = %invoke.cont6
  br label %do.cond

do.cond:                                          ; preds = %if.end
  br label %do.end

do.end:                                           ; preds = %do.cond
  store i32 0, ptr %cleanup.dest.slot, align 4
  br label %cleanup

cleanup:                                          ; preds = %do.end, %if.then
  %nrvo.val = load i1, ptr %nrvo, align 1
  br i1 %nrvo.val, label %nrvo.skipdtor, label %nrvo.unused

nrvo.unused:                                      ; preds = %cleanup
  call void @_ZN5arrow6StatusD2Ev(ptr noundef nonnull align 8 dereferenceable(8) %agg.result) #2
  br label %nrvo.skipdtor

nrvo.skipdtor:                                    ; preds = %nrvo.unused, %cleanup
  %cleanup.dest = load i32, ptr %cleanup.dest.slot, align 4
  switch i32 %cleanup.dest, label %unreachable [
    i32 0, label %cleanup.cont
    i32 1, label %return
  ]

cleanup.cont:                                     ; preds = %nrvo.skipdtor
  br label %do.end12

do.end12:                                         ; preds = %cleanup.cont
  %in_type_ids_ = getelementptr inbounds %"class.arrow::compute::internal::CastFunction", ptr %this1, i32 0, i32 1
  call void @_ZNSt6vectorIN5arrow4Type4typeESaIS2_EE9push_backERKS2_(ptr noundef nonnull align 8 dereferenceable(24) %in_type_ids_, ptr noundef nonnull align 4 dereferenceable(4) %in_type_id.addr)
  call void @_ZN5arrow6Status2OKEv(ptr sret(%"class.arrow::Status") align 8 %agg.result)
  br label %return

return:                                           ; preds = %do.end12, %nrvo.skipdtor
  ret void

eh.resume:                                        ; preds = %lpad5, %ehcleanup
  %exn = load ptr, ptr %exn.slot, align 8
  %sel = load i32, ptr %ehselector.slot, align 4
  %lpad.val = insertvalue { ptr, i32 } poison, ptr %exn, 0
  %lpad.val13 = insertvalue { ptr, i32 } %lpad.val, i32 %sel, 1
  resume { ptr, i32 } %lpad.val13

unreachable:                                      ; preds = %nrvo.skipdtor
  unreachable
}

; Function Attrs: mustprogress uwtable
define linkonce_odr void @_ZN5arrow7compute8internal14OptionsWrapperINS0_11CastOptionsEE4InitEPNS0_13KernelContextERKNS0_14KernelInitArgsE(ptr noalias sret(%"class.arrow::Result") align 8 %agg.result, ptr noundef %ctx, ptr noundef nonnull align 8 dereferenceable(24) %args) #4 comdat align 2 {
entry:
  %result.ptr = alloca ptr, align 8
  %ctx.addr = alloca ptr, align 8
  %args.addr = alloca ptr, align 8
  %options = alloca ptr, align 8
  %ref.tmp = alloca %"class.std::unique_ptr.331", align 8
  %ref.tmp2 = alloca %"class.arrow::Status", align 8
  store ptr %agg.result, ptr %result.ptr, align 8
  store ptr %ctx, ptr %ctx.addr, align 8
  store ptr %args, ptr %args.addr, align 8
  %0 = load ptr, ptr %args.addr, align 8
  %options1 = getelementptr inbounds %"struct.arrow::compute::KernelInitArgs", ptr %0, i32 0, i32 2
  %1 = load ptr, ptr %options1, align 8
  store ptr %1, ptr %options, align 8
  %2 = load ptr, ptr %options, align 8
  %tobool = icmp ne ptr %2, null
  br i1 %tobool, label %if.then, label %if.end

if.then:                                          ; preds = %entry
  %3 = load ptr, ptr %options, align 8
  call void @_ZSt11make_uniqueIN5arrow7compute8internal14OptionsWrapperINS1_11CastOptionsEEEJRKS4_EENSt8__detail9_MakeUniqIT_E15__single_objectEDpOT0_(ptr sret(%"class.std::unique_ptr.331") align 8 %ref.tmp, ptr noundef nonnull align 8 dereferenceable(46) %3)
  call void @_ZN5arrow6ResultISt10unique_ptrINS_7compute11KernelStateESt14default_deleteIS3_EEEC2IS1_INS2_8internal14OptionsWrapperINS2_11CastOptionsEEES4_ISC_EEvEEOT_(ptr noundef nonnull align 8 dereferenceable(16) %agg.result, ptr noundef nonnull align 8 dereferenceable(8) %ref.tmp) #2
  call void @_ZNSt10unique_ptrIN5arrow7compute8internal14OptionsWrapperINS1_11CastOptionsEEESt14default_deleteIS5_EED2Ev(ptr noundef nonnull align 8 dereferenceable(8) %ref.tmp) #2
  br label %return

if.end:                                           ; preds = %entry
  call void @_ZN5arrow6Status7InvalidIJRA62_KcEEES0_DpOT_(ptr sret(%"class.arrow::Status") align 8 %ref.tmp2, ptr noundef nonnull align 1 dereferenceable(62) @.str.40)
  call void @_ZN5arrow6ResultISt10unique_ptrINS_7compute11KernelStateESt14default_deleteIS3_EEEC2ERKNS_6StatusE(ptr noundef nonnull align 8 dereferenceable(16) %agg.result, ptr noundef nonnull align 8 dereferenceable(8) %ref.tmp2) #2
  call void @_ZN5arrow6StatusD2Ev(ptr noundef nonnull align 8 dereferenceable(8) %ref.tmp2) #2
  br label %return

return:                                           ; preds = %if.end, %if.then
  ret void
}

; Function Attrs: mustprogress nounwind uwtable
define linkonce_odr noundef nonnull align 8 dereferenceable(32) ptr @_ZNSt8functionIFN5arrow6ResultISt10unique_ptrINS0_7compute11KernelStateESt14default_deleteIS4_EEEEPNS3_13KernelContextERKNS3_14KernelInitArgsEEEaSIRSE_EENSt9enable_ifIXsrNSF_9_CallableIT_NSI_IXntsr7is_sameINSt9remove_cvINSt16remove_referenceISK_E4typeEE4typeESF_EE5valueESt5decayISK_EE4type4typeESt15__invoke_resultIRSV_JSA_SD_EEEE5valueERSF_E4typeEOSK_(ptr noundef nonnull align 8 dereferenceable(32) %this, ptr noundef nonnull %__f) #1 comdat align 2 {
entry:
  %this.addr = alloca ptr, align 8
  %__f.addr = alloca ptr, align 8
  %ref.tmp = alloca %"class.std::function", align 8
  store ptr %this, ptr %this.addr, align 8
  store ptr %__f, ptr %__f.addr, align 8
  %this1 = load ptr, ptr %this.addr, align 8
  %0 = load ptr, ptr %__f.addr, align 8
  call void @_ZNSt8functionIFN5arrow6ResultISt10unique_ptrINS0_7compute11KernelStateESt14default_deleteIS4_EEEEPNS3_13KernelContextERKNS3_14KernelInitArgsEEEC2IRSE_vEEOT_(ptr noundef nonnull align 8 dereferenceable(32) %ref.tmp, ptr noundef nonnull %0) #2
  call void @_ZNSt8functionIFN5arrow6ResultISt10unique_ptrINS0_7compute11KernelStateESt14default_deleteIS4_EEEEPNS3_13KernelContextERKNS3_14KernelInitArgsEEE4swapERSF_(ptr noundef nonnull align 8 dereferenceable(32) %ref.tmp, ptr noundef nonnull align 8 dereferenceable(32) %this1) #2
  call void @_ZNSt8functionIFN5arrow6ResultISt10unique_ptrINS0_7compute11KernelStateESt14default_deleteIS4_EEEEPNS3_13KernelContextERKNS3_14KernelInitArgsEEED2Ev(ptr noundef nonnull align 8 dereferenceable(32) %ref.tmp) #2
  ret ptr %this1
}

; Function Attrs: mustprogress nounwind uwtable
define linkonce_odr void @_ZN5arrow8internal15GenericToStatusEONS_6StatusE(ptr noalias sret(%"class.arrow::Status") align 8 %agg.result, ptr noundef nonnull align 8 dereferenceable(8) %st) #1 comdat {
entry:
  %result.ptr = alloca ptr, align 8
  %st.addr = alloca ptr, align 8
  store ptr %agg.result, ptr %result.ptr, align 8
  store ptr %st, ptr %st.addr, align 8
  %0 = load ptr, ptr %st.addr, align 8
  call void @_ZN5arrow6StatusC2EOS0_(ptr noundef nonnull align 8 dereferenceable(8) %agg.result, ptr noundef nonnull align 8 dereferenceable(8) %0) #2
  ret void
}

declare void @_ZN5arrow7compute14ScalarFunction9AddKernelENS0_12ScalarKernelE(ptr sret(%"class.arrow::Status") align 8, ptr noundef nonnull align 8 dereferenceable(216), ptr noundef) #5

; Function Attrs: mustprogress uwtable
define linkonce_odr void @_ZN5arrow7compute12ScalarKernelC2ERKS1_(ptr noundef nonnull align 8 dereferenceable(92) %this, ptr noundef nonnull align 8 dereferenceable(92) %0) unnamed_addr #4 comdat align 2 {
entry:
  %this.addr = alloca ptr, align 8
  %.addr = alloca ptr, align 8
  store ptr %this, ptr %this.addr, align 8
  store ptr %0, ptr %.addr, align 8
  %this1 = load ptr, ptr %this.addr, align 8
  %1 = load ptr, ptr %.addr, align 8
  call void @_ZN5arrow7compute6KernelC2ERKS1_(ptr noundef nonnull align 8 dereferenceable(72) %this1, ptr noundef nonnull align 8 dereferenceable(72) %1)
  %exec = getelementptr inbounds %"struct.arrow::compute::ScalarKernel", ptr %this1, i32 0, i32 1
  %2 = load ptr, ptr %.addr, align 8
  %exec2 = getelementptr inbounds %"struct.arrow::compute::ScalarKernel", ptr %2, i32 0, i32 1
  call void @llvm.memcpy.p0.p0.i64(ptr align 8 %exec, ptr align 8 %exec2, i64 20, i1 false)
  ret void
}

; Function Attrs: mustprogress nounwind uwtable
define linkonce_odr void @_ZN5arrow7compute12ScalarKernelD2Ev(ptr noundef nonnull align 8 dereferenceable(92) %this) unnamed_addr #1 comdat align 2 {
entry:
  %this.addr = alloca ptr, align 8
  store ptr %this, ptr %this.addr, align 8
  %this1 = load ptr, ptr %this.addr, align 8
  call void @_ZN5arrow7compute6KernelD2Ev(ptr noundef nonnull align 8 dereferenceable(72) %this1) #2
  ret void
}

; Function Attrs: mustprogress nounwind uwtable
define linkonce_odr noundef zeroext i1 @_ZNK5arrow6Status2okEv(ptr noundef nonnull align 8 dereferenceable(8) %this) #1 comdat align 2 {
entry:
  %this.addr = alloca ptr, align 8
  store ptr %this, ptr %this.addr, align 8
  %this1 = load ptr, ptr %this.addr, align 8
  %state_ = getelementptr inbounds %"class.arrow::Status", ptr %this1, i32 0, i32 0
  %0 = load ptr, ptr %state_, align 8
  %cmp = icmp eq ptr %0, null
  ret i1 %cmp
}

; Function Attrs: mustprogress uwtable
define linkonce_odr void @_ZNSt6vectorIN5arrow4Type4typeESaIS2_EE9push_backERKS2_(ptr noundef nonnull align 8 dereferenceable(24) %this, ptr noundef nonnull align 4 dereferenceable(4) %__x) #4 comdat align 2 {
entry:
  %this.addr = alloca ptr, align 8
  %__x.addr = alloca ptr, align 8
  %agg.tmp = alloca %"class.__gnu_cxx::__normal_iterator.351", align 8
  store ptr %this, ptr %this.addr, align 8
  store ptr %__x, ptr %__x.addr, align 8
  %this1 = load ptr, ptr %this.addr, align 8
  %_M_impl = getelementptr inbounds %"struct.std::_Vector_base.20", ptr %this1, i32 0, i32 0
  %_M_finish = getelementptr inbounds %"struct.std::_Vector_base<arrow::Type::type, std::allocator<arrow::Type::type>>::_Vector_impl_data", ptr %_M_impl, i32 0, i32 1
  %0 = load ptr, ptr %_M_finish, align 8
  %_M_impl2 = getelementptr inbounds %"struct.std::_Vector_base.20", ptr %this1, i32 0, i32 0
  %_M_end_of_storage = getelementptr inbounds %"struct.std::_Vector_base<arrow::Type::type, std::allocator<arrow::Type::type>>::_Vector_impl_data", ptr %_M_impl2, i32 0, i32 2
  %1 = load ptr, ptr %_M_end_of_storage, align 8
  %cmp = icmp ne ptr %0, %1
  br i1 %cmp, label %if.then, label %if.else

if.then:                                          ; preds = %entry
  %_M_impl3 = getelementptr inbounds %"struct.std::_Vector_base.20", ptr %this1, i32 0, i32 0
  %_M_impl4 = getelementptr inbounds %"struct.std::_Vector_base.20", ptr %this1, i32 0, i32 0
  %_M_finish5 = getelementptr inbounds %"struct.std::_Vector_base<arrow::Type::type, std::allocator<arrow::Type::type>>::_Vector_impl_data", ptr %_M_impl4, i32 0, i32 1
  %2 = load ptr, ptr %_M_finish5, align 8
  %3 = load ptr, ptr %__x.addr, align 8
  call void @_ZNSt16allocator_traitsISaIN5arrow4Type4typeEEE9constructIS2_JRKS2_EEEvRS3_PT_DpOT0_(ptr noundef nonnull align 1 dereferenceable(1) %_M_impl3, ptr noundef %2, ptr noundef nonnull align 4 dereferenceable(4) %3) #2
  %_M_impl6 = getelementptr inbounds %"struct.std::_Vector_base.20", ptr %this1, i32 0, i32 0
  %_M_finish7 = getelementptr inbounds %"struct.std::_Vector_base<arrow::Type::type, std::allocator<arrow::Type::type>>::_Vector_impl_data", ptr %_M_impl6, i32 0, i32 1
  %4 = load ptr, ptr %_M_finish7, align 8
  %incdec.ptr = getelementptr inbounds i32, ptr %4, i32 1
  store ptr %incdec.ptr, ptr %_M_finish7, align 8
  br label %if.end

if.else:                                          ; preds = %entry
  %call = call ptr @_ZNSt6vectorIN5arrow4Type4typeESaIS2_EE3endEv(ptr noundef nonnull align 8 dereferenceable(24) %this1) #2
  %coerce.dive = getelementptr inbounds %"class.__gnu_cxx::__normal_iterator.351", ptr %agg.tmp, i32 0, i32 0
  store ptr %call, ptr %coerce.dive, align 8
  %5 = load ptr, ptr %__x.addr, align 8
  %coerce.dive8 = getelementptr inbounds %"class.__gnu_cxx::__normal_iterator.351", ptr %agg.tmp, i32 0, i32 0
  %6 = load ptr, ptr %coerce.dive8, align 8
  call void @_ZNSt6vectorIN5arrow4Type4typeESaIS2_EE17_M_realloc_insertIJRKS2_EEEvN9__gnu_cxx17__normal_iteratorIPS2_S4_EEDpOT_(ptr noundef nonnull align 8 dereferenceable(24) %this1, ptr %6, ptr noundef nonnull align 4 dereferenceable(4) %5)
  br label %if.end

if.end:                                           ; preds = %if.else, %if.then
  ret void
}

; Function Attrs: mustprogress nounwind uwtable
define linkonce_odr void @_ZN5arrow6Status2OKEv(ptr noalias sret(%"class.arrow::Status") align 8 %agg.result) #1 comdat align 2 {
entry:
  %result.ptr = alloca ptr, align 8
  store ptr %agg.result, ptr %result.ptr, align 8
  call void @_ZN5arrow6StatusC2Ev(ptr noundef nonnull align 8 dereferenceable(8) %agg.result) #2
  ret void
}

; Function Attrs: mustprogress uwtable
define void @_ZN5arrow7compute8internal12CastFunction9AddKernelENS_4Type4typeESt6vectorINS0_9InputTypeESaIS6_EENS0_10OutputTypeEPFNS_6StatusEPNS0_13KernelContextERKNS0_8ExecSpanEPNS0_10ExecResultEENS0_12NullHandling4typeENS0_13MemAllocation4typeE(ptr noalias sret(%"class.arrow::Status") align 8 %agg.result, ptr noundef nonnull align 8 dereferenceable(244) %this, i32 noundef %in_type_id, ptr noundef %in_types, ptr noundef %out_type, ptr noundef %exec, i32 noundef %null_handling, i32 noundef %mem_allocation) #4 align 2 personality ptr @__gxx_personality_v0 {
entry:
  %result.ptr = alloca ptr, align 8
  %this.addr = alloca ptr, align 8
  %in_type_id.addr = alloca i32, align 4
  %in_types.indirect_addr = alloca ptr, align 8
  %out_type.indirect_addr = alloca ptr, align 8
  %exec.addr = alloca ptr, align 8
  %null_handling.addr = alloca i32, align 4
  %mem_allocation.addr = alloca i32, align 4
  %kernel = alloca %"struct.arrow::compute::ScalarKernel", align 8
  %ref.tmp = alloca %"class.std::shared_ptr.24", align 8
  %agg.tmp = alloca %"class.std::vector.33", align 8
  %agg.tmp2 = alloca %"class.arrow::compute::OutputType", align 8
  %exn.slot = alloca ptr, align 8
  %ehselector.slot = alloca i32, align 4
  %agg.tmp8 = alloca %"struct.arrow::compute::ScalarKernel", align 8
  store ptr %agg.result, ptr %result.ptr, align 8
  store ptr %this, ptr %this.addr, align 8
  store i32 %in_type_id, ptr %in_type_id.addr, align 4
  store ptr %in_types, ptr %in_types.indirect_addr, align 8
  store ptr %out_type, ptr %out_type.indirect_addr, align 8
  store ptr %exec, ptr %exec.addr, align 8
  store i32 %null_handling, ptr %null_handling.addr, align 4
  store i32 %mem_allocation, ptr %mem_allocation.addr, align 4
  %this1 = load ptr, ptr %this.addr, align 8
  call void @_ZN5arrow7compute12ScalarKernelC2Ev(ptr noundef nonnull align 8 dereferenceable(92) %kernel) #2
  call void @_ZNSt6vectorIN5arrow7compute9InputTypeESaIS2_EEC2EOS4_(ptr noundef nonnull align 8 dereferenceable(24) %agg.tmp, ptr noundef nonnull align 8 dereferenceable(24) %in_types) #2
  invoke void @_ZN5arrow7compute10OutputTypeC2EOS1_(ptr noundef nonnull align 8 dereferenceable(56) %agg.tmp2, ptr noundef nonnull align 8 dereferenceable(56) %out_type)
          to label %invoke.cont unwind label %lpad

invoke.cont:                                      ; preds = %entry
  invoke void @_ZN5arrow7compute15KernelSignature4MakeESt6vectorINS0_9InputTypeESaIS3_EENS0_10OutputTypeEb(ptr sret(%"class.std::shared_ptr.24") align 8 %ref.tmp, ptr noundef %agg.tmp, ptr noundef %agg.tmp2, i1 noundef zeroext false)
          to label %invoke.cont4 unwind label %lpad3

invoke.cont4:                                     ; preds = %invoke.cont
  %signature = getelementptr inbounds %"struct.arrow::compute::Kernel", ptr %kernel, i32 0, i32 0
  %call = call noundef nonnull align 8 dereferenceable(16) ptr @_ZNSt10shared_ptrIN5arrow7compute15KernelSignatureEEaSEOS3_(ptr noundef nonnull align 8 dereferenceable(16) %signature, ptr noundef nonnull align 8 dereferenceable(16) %ref.tmp) #2
  call void @_ZNSt10shared_ptrIN5arrow7compute15KernelSignatureEED2Ev(ptr noundef nonnull align 8 dereferenceable(16) %ref.tmp) #2
  call void @_ZN5arrow7compute10OutputTypeD2Ev(ptr noundef nonnull align 8 dereferenceable(56) %agg.tmp2) #2
  call void @_ZNSt6vectorIN5arrow7compute9InputTypeESaIS2_EED2Ev(ptr noundef nonnull align 8 dereferenceable(24) %agg.tmp) #2
  %0 = load ptr, ptr %exec.addr, align 8
  %exec5 = getelementptr inbounds %"struct.arrow::compute::ScalarKernel", ptr %kernel, i32 0, i32 1
  store ptr %0, ptr %exec5, align 8
  %1 = load i32, ptr %null_handling.addr, align 4
  %null_handling6 = getelementptr inbounds %"struct.arrow::compute::ScalarKernel", ptr %kernel, i32 0, i32 4
  store i32 %1, ptr %null_handling6, align 4
  %2 = load i32, ptr %mem_allocation.addr, align 4
  %mem_allocation7 = getelementptr inbounds %"struct.arrow::compute::ScalarKernel", ptr %kernel, i32 0, i32 5
  store i32 %2, ptr %mem_allocation7, align 8
  %3 = load i32, ptr %in_type_id.addr, align 4
  call void @_ZN5arrow7compute12ScalarKernelC2EOS1_(ptr noundef nonnull align 8 dereferenceable(92) %agg.tmp8, ptr noundef nonnull align 8 dereferenceable(92) %kernel) #2
  invoke void @_ZN5arrow7compute8internal12CastFunction9AddKernelENS_4Type4typeENS0_12ScalarKernelE(ptr sret(%"class.arrow::Status") align 8 %agg.result, ptr noundef nonnull align 8 dereferenceable(244) %this1, i32 noundef %3, ptr noundef %agg.tmp8)
          to label %invoke.cont10 unwind label %lpad9

invoke.cont10:                                    ; preds = %invoke.cont4
  call void @_ZN5arrow7compute12ScalarKernelD2Ev(ptr noundef nonnull align 8 dereferenceable(92) %agg.tmp8) #2
  call void @_ZN5arrow7compute12ScalarKernelD2Ev(ptr noundef nonnull align 8 dereferenceable(92) %kernel) #2
  ret void

lpad:                                             ; preds = %entry
  %4 = landingpad { ptr, i32 }
          cleanup
  %5 = extractvalue { ptr, i32 } %4, 0
  store ptr %5, ptr %exn.slot, align 8
  %6 = extractvalue { ptr, i32 } %4, 1
  store i32 %6, ptr %ehselector.slot, align 4
  br label %ehcleanup

lpad3:                                            ; preds = %invoke.cont
  %7 = landingpad { ptr, i32 }
          cleanup
  %8 = extractvalue { ptr, i32 } %7, 0
  store ptr %8, ptr %exn.slot, align 8
  %9 = extractvalue { ptr, i32 } %7, 1
  store i32 %9, ptr %ehselector.slot, align 4
  call void @_ZN5arrow7compute10OutputTypeD2Ev(ptr noundef nonnull align 8 dereferenceable(56) %agg.tmp2) #2
  br label %ehcleanup

ehcleanup:                                        ; preds = %lpad3, %lpad
  call void @_ZNSt6vectorIN5arrow7compute9InputTypeESaIS2_EED2Ev(ptr noundef nonnull align 8 dereferenceable(24) %agg.tmp) #2
  br label %ehcleanup12

lpad9:                                            ; preds = %invoke.cont4
  %10 = landingpad { ptr, i32 }
          cleanup
  %11 = extractvalue { ptr, i32 } %10, 0
  store ptr %11, ptr %exn.slot, align 8
  %12 = extractvalue { ptr, i32 } %10, 1
  store i32 %12, ptr %ehselector.slot, align 4
  call void @_ZN5arrow7compute12ScalarKernelD2Ev(ptr noundef nonnull align 8 dereferenceable(92) %agg.tmp8) #2
  br label %ehcleanup12

ehcleanup12:                                      ; preds = %lpad9, %ehcleanup
  call void @_ZN5arrow7compute12ScalarKernelD2Ev(ptr noundef nonnull align 8 dereferenceable(92) %kernel) #2
  br label %eh.resume

eh.resume:                                        ; preds = %ehcleanup12
  %exn = load ptr, ptr %exn.slot, align 8
  %sel = load i32, ptr %ehselector.slot, align 4
  %lpad.val = insertvalue { ptr, i32 } poison, ptr %exn, 0
  %lpad.val13 = insertvalue { ptr, i32 } %lpad.val, i32 %sel, 1
  resume { ptr, i32 } %lpad.val13
}

; Function Attrs: mustprogress nounwind uwtable
define linkonce_odr void @_ZN5arrow7compute12ScalarKernelC2Ev(ptr noundef nonnull align 8 dereferenceable(92) %this) unnamed_addr #1 comdat align 2 {
entry:
  %this.addr = alloca ptr, align 8
  store ptr %this, ptr %this.addr, align 8
  %this1 = load ptr, ptr %this.addr, align 8
  call void @_ZN5arrow7compute6KernelC2Ev(ptr noundef nonnull align 8 dereferenceable(72) %this1) #2
  %can_write_into_slices = getelementptr inbounds %"struct.arrow::compute::ScalarKernel", ptr %this1, i32 0, i32 2
  store i8 1, ptr %can_write_into_slices, align 8
  %null_handling = getelementptr inbounds %"struct.arrow::compute::ScalarKernel", ptr %this1, i32 0, i32 4
  store i32 0, ptr %null_handling, align 4
  %mem_allocation = getelementptr inbounds %"struct.arrow::compute::ScalarKernel", ptr %this1, i32 0, i32 5
  store i32 0, ptr %mem_allocation, align 8
  ret void
}

declare void @_ZN5arrow7compute15KernelSignature4MakeESt6vectorINS0_9InputTypeESaIS3_EENS0_10OutputTypeEb(ptr sret(%"class.std::shared_ptr.24") align 8, ptr noundef, ptr noundef, i1 noundef zeroext) #5

; Function Attrs: mustprogress nounwind uwtable
define linkonce_odr void @_ZNSt6vectorIN5arrow7compute9InputTypeESaIS2_EEC2EOS4_(ptr noundef nonnull align 8 dereferenceable(24) %this, ptr noundef nonnull align 8 dereferenceable(24) %0) unnamed_addr #1 comdat align 2 {
entry:
  %this.addr = alloca ptr, align 8
  %.addr = alloca ptr, align 8
  store ptr %this, ptr %this.addr, align 8
  store ptr %0, ptr %.addr, align 8
  %this1 = load ptr, ptr %this.addr, align 8
  %1 = load ptr, ptr %.addr, align 8
  call void @_ZNSt12_Vector_baseIN5arrow7compute9InputTypeESaIS2_EEC2EOS4_(ptr noundef nonnull align 8 dereferenceable(24) %this1, ptr noundef nonnull align 8 dereferenceable(24) %1) #2
  ret void
}

; Function Attrs: mustprogress uwtable
define linkonce_odr void @_ZN5arrow7compute10OutputTypeC2EOS1_(ptr noundef nonnull align 8 dereferenceable(56) %this, ptr noundef nonnull align 8 dereferenceable(56) %other) unnamed_addr #4 comdat align 2 personality ptr @__gxx_personality_v0 {
entry:
  %this.addr = alloca ptr, align 8
  %other.addr = alloca ptr, align 8
  %exn.slot = alloca ptr, align 8
  %ehselector.slot = alloca i32, align 4
  store ptr %this, ptr %this.addr, align 8
  store ptr %other, ptr %other.addr, align 8
  %this1 = load ptr, ptr %this.addr, align 8
  %type_ = getelementptr inbounds %"class.arrow::compute::OutputType", ptr %this1, i32 0, i32 1
  call void @_ZNSt10shared_ptrIN5arrow8DataTypeEEC2Ev(ptr noundef nonnull align 8 dereferenceable(16) %type_) #2
  %resolver_ = getelementptr inbounds %"class.arrow::compute::OutputType", ptr %this1, i32 0, i32 2
  call void @_ZNSt8functionIFN5arrow6ResultINS0_10TypeHolderEEEPNS0_7compute13KernelContextERKSt6vectorIS2_SaIS2_EEEEC2EDn(ptr noundef nonnull align 8 dereferenceable(32) %resolver_, ptr null) #2
  %0 = load ptr, ptr %other.addr, align 8
  %kind_ = getelementptr inbounds %"class.arrow::compute::OutputType", ptr %0, i32 0, i32 0
  %1 = load i32, ptr %kind_, align 8
  %kind_2 = getelementptr inbounds %"class.arrow::compute::OutputType", ptr %this1, i32 0, i32 0
  store i32 %1, ptr %kind_2, align 8
  %2 = load ptr, ptr %other.addr, align 8
  %type_3 = getelementptr inbounds %"class.arrow::compute::OutputType", ptr %2, i32 0, i32 1
  %type_4 = getelementptr inbounds %"class.arrow::compute::OutputType", ptr %this1, i32 0, i32 1
  %call = call noundef nonnull align 8 dereferenceable(16) ptr @_ZNSt10shared_ptrIN5arrow8DataTypeEEaSEOS2_(ptr noundef nonnull align 8 dereferenceable(16) %type_4, ptr noundef nonnull align 8 dereferenceable(16) %type_3) #2
  %3 = load ptr, ptr %other.addr, align 8
  %resolver_5 = getelementptr inbounds %"class.arrow::compute::OutputType", ptr %3, i32 0, i32 2
  %resolver_6 = getelementptr inbounds %"class.arrow::compute::OutputType", ptr %this1, i32 0, i32 2
  %call7 = invoke noundef nonnull align 8 dereferenceable(32) ptr @_ZNSt8functionIFN5arrow6ResultINS0_10TypeHolderEEEPNS0_7compute13KernelContextERKSt6vectorIS2_SaIS2_EEEEaSERKSD_(ptr noundef nonnull align 8 dereferenceable(32) %resolver_6, ptr noundef nonnull align 8 dereferenceable(32) %resolver_5)
          to label %invoke.cont unwind label %lpad

invoke.cont:                                      ; preds = %entry
  ret void

lpad:                                             ; preds = %entry
  %4 = landingpad { ptr, i32 }
          cleanup
  %5 = extractvalue { ptr, i32 } %4, 0
  store ptr %5, ptr %exn.slot, align 8
  %6 = extractvalue { ptr, i32 } %4, 1
  store i32 %6, ptr %ehselector.slot, align 4
  call void @_ZNSt8functionIFN5arrow6ResultINS0_10TypeHolderEEEPNS0_7compute13KernelContextERKSt6vectorIS2_SaIS2_EEEED2Ev(ptr noundef nonnull align 8 dereferenceable(32) %resolver_) #2
  call void @_ZNSt10shared_ptrIN5arrow8DataTypeEED2Ev(ptr noundef nonnull align 8 dereferenceable(16) %type_) #2
  br label %eh.resume

eh.resume:                                        ; preds = %lpad
  %exn = load ptr, ptr %exn.slot, align 8
  %sel = load i32, ptr %ehselector.slot, align 4
  %lpad.val = insertvalue { ptr, i32 } poison, ptr %exn, 0
  %lpad.val8 = insertvalue { ptr, i32 } %lpad.val, i32 %sel, 1
  resume { ptr, i32 } %lpad.val8
}

; Function Attrs: mustprogress nounwind uwtable
define linkonce_odr noundef nonnull align 8 dereferenceable(16) ptr @_ZNSt10shared_ptrIN5arrow7compute15KernelSignatureEEaSEOS3_(ptr noundef nonnull align 8 dereferenceable(16) %this, ptr noundef nonnull align 8 dereferenceable(16) %__r) #1 comdat align 2 {
entry:
  %this.addr = alloca ptr, align 8
  %__r.addr = alloca ptr, align 8
  store ptr %this, ptr %this.addr, align 8
  store ptr %__r, ptr %__r.addr, align 8
  %this1 = load ptr, ptr %this.addr, align 8
  %0 = load ptr, ptr %__r.addr, align 8
  %call = call noundef nonnull align 8 dereferenceable(16) ptr @_ZNSt12__shared_ptrIN5arrow7compute15KernelSignatureELN9__gnu_cxx12_Lock_policyE2EEaSEOS5_(ptr noundef nonnull align 8 dereferenceable(16) %this1, ptr noundef nonnull align 8 dereferenceable(16) %0) #2
  ret ptr %this1
}

; Function Attrs: mustprogress nounwind uwtable
define linkonce_odr void @_ZNSt10shared_ptrIN5arrow7compute15KernelSignatureEED2Ev(ptr noundef nonnull align 8 dereferenceable(16) %this) unnamed_addr #1 comdat align 2 {
entry:
  %this.addr = alloca ptr, align 8
  store ptr %this, ptr %this.addr, align 8
  %this1 = load ptr, ptr %this.addr, align 8
  call void @_ZNSt12__shared_ptrIN5arrow7compute15KernelSignatureELN9__gnu_cxx12_Lock_policyE2EED2Ev(ptr noundef nonnull align 8 dereferenceable(16) %this1) #2
  ret void
}

; Function Attrs: mustprogress nounwind uwtable
define linkonce_odr void @_ZN5arrow7compute10OutputTypeD2Ev(ptr noundef nonnull align 8 dereferenceable(56) %this) unnamed_addr #1 comdat align 2 {
entry:
  %this.addr = alloca ptr, align 8
  store ptr %this, ptr %this.addr, align 8
  %this1 = load ptr, ptr %this.addr, align 8
  %resolver_ = getelementptr inbounds %"class.arrow::compute::OutputType", ptr %this1, i32 0, i32 2
  call void @_ZNSt8functionIFN5arrow6ResultINS0_10TypeHolderEEEPNS0_7compute13KernelContextERKSt6vectorIS2_SaIS2_EEEED2Ev(ptr noundef nonnull align 8 dereferenceable(32) %resolver_) #2
  %type_ = getelementptr inbounds %"class.arrow::compute::OutputType", ptr %this1, i32 0, i32 1
  call void @_ZNSt10shared_ptrIN5arrow8DataTypeEED2Ev(ptr noundef nonnull align 8 dereferenceable(16) %type_) #2
  ret void
}

; Function Attrs: mustprogress nounwind uwtable
define linkonce_odr void @_ZNSt6vectorIN5arrow7compute9InputTypeESaIS2_EED2Ev(ptr noundef nonnull align 8 dereferenceable(24) %this) unnamed_addr #1 comdat align 2 personality ptr @__gxx_personality_v0 {
entry:
  %this.addr = alloca ptr, align 8
  store ptr %this, ptr %this.addr, align 8
  %this1 = load ptr, ptr %this.addr, align 8
  %_M_impl = getelementptr inbounds %"struct.std::_Vector_base.34", ptr %this1, i32 0, i32 0
  %_M_start = getelementptr inbounds %"struct.std::_Vector_base<arrow::compute::InputType, std::allocator<arrow::compute::InputType>>::_Vector_impl_data", ptr %_M_impl, i32 0, i32 0
  %0 = load ptr, ptr %_M_start, align 8
  %_M_impl2 = getelementptr inbounds %"struct.std::_Vector_base.34", ptr %this1, i32 0, i32 0
  %_M_finish = getelementptr inbounds %"struct.std::_Vector_base<arrow::compute::InputType, std::allocator<arrow::compute::InputType>>::_Vector_impl_data", ptr %_M_impl2, i32 0, i32 1
  %1 = load ptr, ptr %_M_finish, align 8
  %call = call noundef nonnull align 1 dereferenceable(1) ptr @_ZNSt12_Vector_baseIN5arrow7compute9InputTypeESaIS2_EE19_M_get_Tp_allocatorEv(ptr noundef nonnull align 8 dereferenceable(24) %this1) #2
  invoke void @_ZSt8_DestroyIPN5arrow7compute9InputTypeES2_EvT_S4_RSaIT0_E(ptr noundef %0, ptr noundef %1, ptr noundef nonnull align 1 dereferenceable(1) %call)
          to label %invoke.cont unwind label %terminate.lpad

invoke.cont:                                      ; preds = %entry
  call void @_ZNSt12_Vector_baseIN5arrow7compute9InputTypeESaIS2_EED2Ev(ptr noundef nonnull align 8 dereferenceable(24) %this1) #2
  ret void

terminate.lpad:                                   ; preds = %entry
  %2 = landingpad { ptr, i32 }
          catch ptr null
  %3 = extractvalue { ptr, i32 } %2, 0
  call void @__clang_call_terminate(ptr %3) #15
  unreachable
}

; Function Attrs: mustprogress nounwind uwtable
define linkonce_odr void @_ZN5arrow7compute12ScalarKernelC2EOS1_(ptr noundef nonnull align 8 dereferenceable(92) %this, ptr noundef nonnull align 8 dereferenceable(92) %0) unnamed_addr #1 comdat align 2 {
entry:
  %this.addr = alloca ptr, align 8
  %.addr = alloca ptr, align 8
  store ptr %this, ptr %this.addr, align 8
  store ptr %0, ptr %.addr, align 8
  %this1 = load ptr, ptr %this.addr, align 8
  %1 = load ptr, ptr %.addr, align 8
  call void @_ZN5arrow7compute6KernelC2EOS1_(ptr noundef nonnull align 8 dereferenceable(72) %this1, ptr noundef nonnull align 8 dereferenceable(72) %1) #2
  %exec = getelementptr inbounds %"struct.arrow::compute::ScalarKernel", ptr %this1, i32 0, i32 1
  %2 = load ptr, ptr %.addr, align 8
  %exec2 = getelementptr inbounds %"struct.arrow::compute::ScalarKernel", ptr %2, i32 0, i32 1
  call void @llvm.memcpy.p0.p0.i64(ptr align 8 %exec, ptr align 8 %exec2, i64 20, i1 false)
  ret void
}

; Function Attrs: mustprogress uwtable
define void @_ZNK5arrow7compute8internal12CastFunction13DispatchExactERKSt6vectorINS_10TypeHolderESaIS4_EE(ptr noalias sret(%"class.arrow::Result.44") align 8 %agg.result, ptr noundef nonnull align 8 dereferenceable(244) %this, ptr noundef nonnull align 8 dereferenceable(24) %types) unnamed_addr #4 align 2 personality ptr @__gxx_personality_v0 {
entry:
  %result.ptr = alloca ptr, align 8
  %this.addr = alloca ptr, align 8
  %types.addr = alloca ptr, align 8
  %__s = alloca %"class.arrow::Status", align 8
  %ref.tmp = alloca %"class.arrow::Status", align 8
  %exn.slot = alloca ptr, align 8
  %ehselector.slot = alloca i32, align 4
  %cleanup.dest.slot = alloca i32, align 4
  %candidate_kernels = alloca %"class.std::vector.53", align 8
  %__range2 = alloca ptr, align 8
  %__begin2 = alloca %"class.__gnu_cxx::__normal_iterator", align 8
  %__end2 = alloca %"class.__gnu_cxx::__normal_iterator", align 8
  %kernel = alloca ptr, align 8
  %ref.tmp20 = alloca ptr, align 8
  %ref.tmp26 = alloca %"class.arrow::Status", align 8
  %ref.tmp27 = alloca %"class.std::__cxx11::basic_string", align 8
  %ref.tmp30 = alloca %"class.std::__cxx11::basic_string", align 8
  %__range243 = alloca ptr, align 8
  %__begin244 = alloca %"class.__gnu_cxx::__normal_iterator.65", align 8
  %__end247 = alloca %"class.__gnu_cxx::__normal_iterator.65", align 8
  %kernel53 = alloca ptr, align 8
  %arg0 = alloca ptr, align 8
  store ptr %agg.result, ptr %result.ptr, align 8
  store ptr %this, ptr %this.addr, align 8
  store ptr %types, ptr %types.addr, align 8
  %this1 = load ptr, ptr %this.addr, align 8
  br label %do.body

do.body:                                          ; preds = %entry
  %0 = load ptr, ptr %types.addr, align 8
  %call = call noundef i64 @_ZNKSt6vectorIN5arrow10TypeHolderESaIS1_EE4sizeEv(ptr noundef nonnull align 8 dereferenceable(24) %0) #2
  call void @_ZNK5arrow7compute8Function10CheckArityEm(ptr sret(%"class.arrow::Status") align 8 %ref.tmp, ptr noundef nonnull align 8 dereferenceable(192) %this1, i64 noundef %call)
  invoke void @_ZN5arrow8internal15GenericToStatusEONS_6StatusE(ptr sret(%"class.arrow::Status") align 8 %__s, ptr noundef nonnull align 8 dereferenceable(8) %ref.tmp)
          to label %invoke.cont unwind label %lpad

invoke.cont:                                      ; preds = %do.body
  call void @_ZN5arrow6StatusD2Ev(ptr noundef nonnull align 8 dereferenceable(8) %ref.tmp) #2
  br label %do.body2

do.body2:                                         ; preds = %invoke.cont
  %call5 = invoke noundef zeroext i1 @_ZNK5arrow6Status2okEv(ptr noundef nonnull align 8 dereferenceable(8) %__s)
          to label %invoke.cont4 unwind label %lpad3

invoke.cont4:                                     ; preds = %do.body2
  %lnot = xor i1 %call5, true
  %lnot6 = xor i1 %lnot, true
  %lnot7 = xor i1 %lnot6, true
  br i1 %lnot7, label %if.then, label %if.end

if.then:                                          ; preds = %invoke.cont4
  call void @_ZN5arrow6ResultIPKNS_7compute6KernelEEC2ERKNS_6StatusE(ptr noundef nonnull align 8 dereferenceable(16) %agg.result, ptr noundef nonnull align 8 dereferenceable(8) %__s) #2
  store i32 1, ptr %cleanup.dest.slot, align 4
  br label %cleanup

lpad:                                             ; preds = %do.body
  %1 = landingpad { ptr, i32 }
          cleanup
  %2 = extractvalue { ptr, i32 } %1, 0
  store ptr %2, ptr %exn.slot, align 8
  %3 = extractvalue { ptr, i32 } %1, 1
  store i32 %3, ptr %ehselector.slot, align 4
  call void @_ZN5arrow6StatusD2Ev(ptr noundef nonnull align 8 dereferenceable(8) %ref.tmp) #2
  br label %eh.resume

lpad3:                                            ; preds = %do.body2
  %4 = landingpad { ptr, i32 }
          cleanup
  %5 = extractvalue { ptr, i32 } %4, 0
  store ptr %5, ptr %exn.slot, align 8
  %6 = extractvalue { ptr, i32 } %4, 1
  store i32 %6, ptr %ehselector.slot, align 4
  call void @_ZN5arrow6StatusD2Ev(ptr noundef nonnull align 8 dereferenceable(8) %__s) #2
  br label %eh.resume

if.end:                                           ; preds = %invoke.cont4
  br label %do.cond

do.cond:                                          ; preds = %if.end
  br label %do.end

do.end:                                           ; preds = %do.cond
  store i32 0, ptr %cleanup.dest.slot, align 4
  br label %cleanup

cleanup:                                          ; preds = %do.end, %if.then
  call void @_ZN5arrow6StatusD2Ev(ptr noundef nonnull align 8 dereferenceable(8) %__s) #2
  %cleanup.dest = load i32, ptr %cleanup.dest.slot, align 4
  switch i32 %cleanup.dest, label %unreachable [
    i32 0, label %cleanup.cont
    i32 1, label %return
  ]

cleanup.cont:                                     ; preds = %cleanup
  br label %do.end9

do.end9:                                          ; preds = %cleanup.cont
  call void @_ZNSt6vectorIPKN5arrow7compute12ScalarKernelESaIS4_EEC2Ev(ptr noundef nonnull align 8 dereferenceable(24) %candidate_kernels) #2
  %kernels_ = getelementptr inbounds %"class.arrow::compute::detail::FunctionImpl", ptr %this1, i32 0, i32 1
  store ptr %kernels_, ptr %__range2, align 8
  %7 = load ptr, ptr %__range2, align 8
  %call10 = call ptr @_ZNKSt6vectorIN5arrow7compute12ScalarKernelESaIS2_EE5beginEv(ptr noundef nonnull align 8 dereferenceable(24) %7) #2
  %coerce.dive = getelementptr inbounds %"class.__gnu_cxx::__normal_iterator", ptr %__begin2, i32 0, i32 0
  store ptr %call10, ptr %coerce.dive, align 8
  %8 = load ptr, ptr %__range2, align 8
  %call11 = call ptr @_ZNKSt6vectorIN5arrow7compute12ScalarKernelESaIS2_EE3endEv(ptr noundef nonnull align 8 dereferenceable(24) %8) #2
  %coerce.dive12 = getelementptr inbounds %"class.__gnu_cxx::__normal_iterator", ptr %__end2, i32 0, i32 0
  store ptr %call11, ptr %coerce.dive12, align 8
  br label %for.cond

for.cond:                                         ; preds = %for.inc, %do.end9
  %call13 = call noundef zeroext i1 @_ZN9__gnu_cxxneIPKN5arrow7compute12ScalarKernelESt6vectorIS3_SaIS3_EEEEbRKNS_17__normal_iteratorIT_T0_EESE_(ptr noundef nonnull align 8 dereferenceable(8) %__begin2, ptr noundef nonnull align 8 dereferenceable(8) %__end2) #2
  br i1 %call13, label %for.body, label %for.end

for.body:                                         ; preds = %for.cond
  %call14 = call noundef nonnull align 8 dereferenceable(92) ptr @_ZNK9__gnu_cxx17__normal_iteratorIPKN5arrow7compute12ScalarKernelESt6vectorIS3_SaIS3_EEEdeEv(ptr noundef nonnull align 8 dereferenceable(8) %__begin2) #2
  store ptr %call14, ptr %kernel, align 8
  %9 = load ptr, ptr %kernel, align 8
  %signature = getelementptr inbounds %"struct.arrow::compute::Kernel", ptr %9, i32 0, i32 0
  %call15 = call noundef ptr @_ZNKSt19__shared_ptr_accessIN5arrow7compute15KernelSignatureELN9__gnu_cxx12_Lock_policyE2ELb0ELb0EEptEv(ptr noundef nonnull align 1 dereferenceable(1) %signature) #2
  %10 = load ptr, ptr %types.addr, align 8
  %call18 = invoke noundef zeroext i1 @_ZNK5arrow7compute15KernelSignature13MatchesInputsERKSt6vectorINS_10TypeHolderESaIS3_EE(ptr noundef nonnull align 8 dereferenceable(96) %call15, ptr noundef nonnull align 8 dereferenceable(24) %10)
          to label %invoke.cont17 unwind label %lpad16

invoke.cont17:                                    ; preds = %for.body
  br i1 %call18, label %if.then19, label %if.end22

if.then19:                                        ; preds = %invoke.cont17
  %11 = load ptr, ptr %kernel, align 8
  store ptr %11, ptr %ref.tmp20, align 8
  invoke void @_ZNSt6vectorIPKN5arrow7compute12ScalarKernelESaIS4_EE9push_backEOS4_(ptr noundef nonnull align 8 dereferenceable(24) %candidate_kernels, ptr noundef nonnull align 8 dereferenceable(8) %ref.tmp20)
          to label %invoke.cont21 unwind label %lpad16

invoke.cont21:                                    ; preds = %if.then19
  br label %if.end22

lpad16:                                           ; preds = %invoke.cont57, %for.body52, %if.then25, %if.then19, %for.body
  %12 = landingpad { ptr, i32 }
          cleanup
  %13 = extractvalue { ptr, i32 } %12, 0
  store ptr %13, ptr %exn.slot, align 8
  %14 = extractvalue { ptr, i32 } %12, 1
  store i32 %14, ptr %ehselector.slot, align 4
  br label %ehcleanup70

if.end22:                                         ; preds = %invoke.cont21, %invoke.cont17
  br label %for.inc

for.inc:                                          ; preds = %if.end22
  %call23 = call noundef nonnull align 8 dereferenceable(8) ptr @_ZN9__gnu_cxx17__normal_iteratorIPKN5arrow7compute12ScalarKernelESt6vectorIS3_SaIS3_EEEppEv(ptr noundef nonnull align 8 dereferenceable(8) %__begin2) #2
  br label %for.cond

for.end:                                          ; preds = %for.cond
  %call24 = call noundef i64 @_ZNKSt6vectorIPKN5arrow7compute12ScalarKernelESaIS4_EE4sizeEv(ptr noundef nonnull align 8 dereferenceable(24) %candidate_kernels) #2
  %cmp = icmp eq i64 %call24, 0
  br i1 %cmp, label %if.then25, label %if.end37

if.then25:                                        ; preds = %for.end
  %15 = load ptr, ptr %types.addr, align 8
  %call28 = call noundef nonnull align 8 dereferenceable(24) ptr @_ZNKSt6vectorIN5arrow10TypeHolderESaIS1_EEixEm(ptr noundef nonnull align 8 dereferenceable(24) %15, i64 noundef 0) #2
  %type = getelementptr inbounds %"struct.arrow::TypeHolder", ptr %call28, i32 0, i32 0
  %16 = load ptr, ptr %type, align 8
  %vtable = load ptr, ptr %16, align 8
  %vfn = getelementptr inbounds ptr, ptr %vtable, i64 4
  %17 = load ptr, ptr %vfn, align 8
  invoke void %17(ptr sret(%"class.std::__cxx11::basic_string") align 8 %ref.tmp27, ptr noundef nonnull align 8 dereferenceable(72) %16)
          to label %invoke.cont29 unwind label %lpad16

invoke.cont29:                                    ; preds = %if.then25
  %out_type_id_ = getelementptr inbounds %"class.arrow::compute::internal::CastFunction", ptr %this1, i32 0, i32 2
  %18 = load i32, ptr %out_type_id_, align 8
  invoke void @_ZN5arrow8internal10ToTypeNameB5cxx11ENS_4Type4typeE(ptr sret(%"class.std::__cxx11::basic_string") align 8 %ref.tmp30, i32 noundef %18)
          to label %invoke.cont32 unwind label %lpad31

invoke.cont32:                                    ; preds = %invoke.cont29
  %call35 = invoke noundef nonnull align 8 dereferenceable(32) ptr @_ZNK5arrow7compute8Function4nameB5cxx11Ev(ptr noundef nonnull align 8 dereferenceable(192) %this1)
          to label %invoke.cont34 unwind label %lpad33

invoke.cont34:                                    ; preds = %invoke.cont32
  invoke void @_ZN5arrow6Status14NotImplementedIJRA23_KcNSt7__cxx1112basic_stringIcSt11char_traitsIcESaIcEEERA5_S2_SA_RA17_S2_RKSA_EEES0_DpOT_(ptr sret(%"class.arrow::Status") align 8 %ref.tmp26, ptr noundef nonnull align 1 dereferenceable(23) @.str.13, ptr noundef nonnull align 8 dereferenceable(32) %ref.tmp27, ptr noundef nonnull align 1 dereferenceable(5) @.str.14, ptr noundef nonnull align 8 dereferenceable(32) %ref.tmp30, ptr noundef nonnull align 1 dereferenceable(17) @.str.15, ptr noundef nonnull align 8 dereferenceable(32) %call35)
          to label %invoke.cont36 unwind label %lpad33

invoke.cont36:                                    ; preds = %invoke.cont34
  call void @_ZN5arrow6ResultIPKNS_7compute6KernelEEC2ERKNS_6StatusE(ptr noundef nonnull align 8 dereferenceable(16) %agg.result, ptr noundef nonnull align 8 dereferenceable(8) %ref.tmp26) #2
  call void @_ZN5arrow6StatusD2Ev(ptr noundef nonnull align 8 dereferenceable(8) %ref.tmp26) #2
  call void @_ZNSt7__cxx1112basic_stringIcSt11char_traitsIcESaIcEED1Ev(ptr noundef nonnull align 8 dereferenceable(32) %ref.tmp30) #2
  call void @_ZNSt7__cxx1112basic_stringIcSt11char_traitsIcESaIcEED1Ev(ptr noundef nonnull align 8 dereferenceable(32) %ref.tmp27) #2
  store i32 1, ptr %cleanup.dest.slot, align 4
  br label %cleanup69

lpad31:                                           ; preds = %invoke.cont29
  %19 = landingpad { ptr, i32 }
          cleanup
  %20 = extractvalue { ptr, i32 } %19, 0
  store ptr %20, ptr %exn.slot, align 8
  %21 = extractvalue { ptr, i32 } %19, 1
  store i32 %21, ptr %ehselector.slot, align 4
  br label %ehcleanup

lpad33:                                           ; preds = %invoke.cont34, %invoke.cont32
  %22 = landingpad { ptr, i32 }
          cleanup
  %23 = extractvalue { ptr, i32 } %22, 0
  store ptr %23, ptr %exn.slot, align 8
  %24 = extractvalue { ptr, i32 } %22, 1
  store i32 %24, ptr %ehselector.slot, align 4
  call void @_ZNSt7__cxx1112basic_stringIcSt11char_traitsIcESaIcEED1Ev(ptr noundef nonnull align 8 dereferenceable(32) %ref.tmp30) #2
  br label %ehcleanup

ehcleanup:                                        ; preds = %lpad33, %lpad31
  call void @_ZNSt7__cxx1112basic_stringIcSt11char_traitsIcESaIcEED1Ev(ptr noundef nonnull align 8 dereferenceable(32) %ref.tmp27) #2
  br label %ehcleanup70

if.end37:                                         ; preds = %for.end
  %call38 = call noundef i64 @_ZNKSt6vectorIPKN5arrow7compute12ScalarKernelESaIS4_EE4sizeEv(ptr noundef nonnull align 8 dereferenceable(24) %candidate_kernels) #2
  %cmp39 = icmp eq i64 %call38, 1
  br i1 %cmp39, label %if.then40, label %if.end42

if.then40:                                        ; preds = %if.end37
  %call41 = call noundef nonnull align 8 dereferenceable(8) ptr @_ZNSt6vectorIPKN5arrow7compute12ScalarKernelESaIS4_EEixEm(ptr noundef nonnull align 8 dereferenceable(24) %candidate_kernels, i64 noundef 0) #2
  call void @_ZN5arrow6ResultIPKNS_7compute6KernelEEC2IRPKNS1_12ScalarKernelEvEEOT_(ptr noundef nonnull align 8 dereferenceable(16) %agg.result, ptr noundef nonnull align 8 dereferenceable(8) %call41) #2
  store i32 1, ptr %cleanup.dest.slot, align 4
  br label %cleanup69

if.end42:                                         ; preds = %if.end37
  store ptr %candidate_kernels, ptr %__range243, align 8
  %25 = load ptr, ptr %__range243, align 8
  %call45 = call ptr @_ZNSt6vectorIPKN5arrow7compute12ScalarKernelESaIS4_EE5beginEv(ptr noundef nonnull align 8 dereferenceable(24) %25) #2
  %coerce.dive46 = getelementptr inbounds %"class.__gnu_cxx::__normal_iterator.65", ptr %__begin244, i32 0, i32 0
  store ptr %call45, ptr %coerce.dive46, align 8
  %26 = load ptr, ptr %__range243, align 8
  %call48 = call ptr @_ZNSt6vectorIPKN5arrow7compute12ScalarKernelESaIS4_EE3endEv(ptr noundef nonnull align 8 dereferenceable(24) %26) #2
  %coerce.dive49 = getelementptr inbounds %"class.__gnu_cxx::__normal_iterator.65", ptr %__end247, i32 0, i32 0
  store ptr %call48, ptr %coerce.dive49, align 8
  br label %for.cond50

for.cond50:                                       ; preds = %for.inc65, %if.end42
  %call51 = call noundef zeroext i1 @_ZN9__gnu_cxxneIPPKN5arrow7compute12ScalarKernelESt6vectorIS5_SaIS5_EEEEbRKNS_17__normal_iteratorIT_T0_EESF_(ptr noundef nonnull align 8 dereferenceable(8) %__begin244, ptr noundef nonnull align 8 dereferenceable(8) %__end247) #2
  br i1 %call51, label %for.body52, label %for.end67

for.body52:                                       ; preds = %for.cond50
  %call54 = call noundef nonnull align 8 dereferenceable(8) ptr @_ZNK9__gnu_cxx17__normal_iteratorIPPKN5arrow7compute12ScalarKernelESt6vectorIS5_SaIS5_EEEdeEv(ptr noundef nonnull align 8 dereferenceable(8) %__begin244) #2
  %27 = load ptr, ptr %call54, align 8
  store ptr %27, ptr %kernel53, align 8
  %28 = load ptr, ptr %kernel53, align 8
  %signature55 = getelementptr inbounds %"struct.arrow::compute::Kernel", ptr %28, i32 0, i32 0
  %call56 = call noundef ptr @_ZNKSt19__shared_ptr_accessIN5arrow7compute15KernelSignatureELN9__gnu_cxx12_Lock_policyE2ELb0ELb0EEptEv(ptr noundef nonnull align 1 dereferenceable(1) %signature55) #2
  %call58 = invoke noundef nonnull align 8 dereferenceable(24) ptr @_ZNK5arrow7compute15KernelSignature8in_typesEv(ptr noundef nonnull align 8 dereferenceable(96) %call56)
          to label %invoke.cont57 unwind label %lpad16

invoke.cont57:                                    ; preds = %for.body52
  %call59 = call noundef nonnull align 8 dereferenceable(40) ptr @_ZNKSt6vectorIN5arrow7compute9InputTypeESaIS2_EEixEm(ptr noundef nonnull align 8 dereferenceable(24) %call58, i64 noundef 0) #2
  store ptr %call59, ptr %arg0, align 8
  %29 = load ptr, ptr %arg0, align 8
  %call61 = invoke noundef i32 @_ZNK5arrow7compute9InputType4kindEv(ptr noundef nonnull align 8 dereferenceable(40) %29)
          to label %invoke.cont60 unwind label %lpad16

invoke.cont60:                                    ; preds = %invoke.cont57
  %cmp62 = icmp eq i32 %call61, 1
  br i1 %cmp62, label %if.then63, label %if.end64

if.then63:                                        ; preds = %invoke.cont60
  call void @_ZN5arrow6ResultIPKNS_7compute6KernelEEC2IPKNS1_12ScalarKernelEvEEOT_(ptr noundef nonnull align 8 dereferenceable(16) %agg.result, ptr noundef nonnull align 8 dereferenceable(8) %kernel53) #2
  store i32 1, ptr %cleanup.dest.slot, align 4
  br label %cleanup69

if.end64:                                         ; preds = %invoke.cont60
  br label %for.inc65

for.inc65:                                        ; preds = %if.end64
  %call66 = call noundef nonnull align 8 dereferenceable(8) ptr @_ZN9__gnu_cxx17__normal_iteratorIPPKN5arrow7compute12ScalarKernelESt6vectorIS5_SaIS5_EEEppEv(ptr noundef nonnull align 8 dereferenceable(8) %__begin244) #2
  br label %for.cond50

for.end67:                                        ; preds = %for.cond50
  %call68 = call noundef nonnull align 8 dereferenceable(8) ptr @_ZNSt6vectorIPKN5arrow7compute12ScalarKernelESaIS4_EEixEm(ptr noundef nonnull align 8 dereferenceable(24) %candidate_kernels, i64 noundef 0) #2
  call void @_ZN5arrow6ResultIPKNS_7compute6KernelEEC2IRPKNS1_12ScalarKernelEvEEOT_(ptr noundef nonnull align 8 dereferenceable(16) %agg.result, ptr noundef nonnull align 8 dereferenceable(8) %call68) #2
  store i32 1, ptr %cleanup.dest.slot, align 4
  br label %cleanup69

cleanup69:                                        ; preds = %for.end67, %if.then63, %if.then40, %invoke.cont36
  call void @_ZNSt6vectorIPKN5arrow7compute12ScalarKernelESaIS4_EED2Ev(ptr noundef nonnull align 8 dereferenceable(24) %candidate_kernels) #2
  br label %return

ehcleanup70:                                      ; preds = %ehcleanup, %lpad16
  call void @_ZNSt6vectorIPKN5arrow7compute12ScalarKernelESaIS4_EED2Ev(ptr noundef nonnull align 8 dereferenceable(24) %candidate_kernels) #2
  br label %eh.resume

return:                                           ; preds = %cleanup69, %cleanup
  ret void

eh.resume:                                        ; preds = %ehcleanup70, %lpad3, %lpad
  %exn = load ptr, ptr %exn.slot, align 8
  %sel = load i32, ptr %ehselector.slot, align 4
  %lpad.val = insertvalue { ptr, i32 } poison, ptr %exn, 0
  %lpad.val71 = insertvalue { ptr, i32 } %lpad.val, i32 %sel, 1
  resume { ptr, i32 } %lpad.val71

unreachable:                                      ; preds = %cleanup
  unreachable
}

declare void @_ZNK5arrow7compute8Function10CheckArityEm(ptr sret(%"class.arrow::Status") align 8, ptr noundef nonnull align 8 dereferenceable(192), i64 noundef) #5

; Function Attrs: mustprogress nounwind uwtable
define linkonce_odr noundef i64 @_ZNKSt6vectorIN5arrow10TypeHolderESaIS1_EE4sizeEv(ptr noundef nonnull align 8 dereferenceable(24) %this) #1 comdat align 2 {
entry:
  %this.addr = alloca ptr, align 8
  store ptr %this, ptr %this.addr, align 8
  %this1 = load ptr, ptr %this.addr, align 8
  %_M_impl = getelementptr inbounds %"struct.std::_Vector_base.49", ptr %this1, i32 0, i32 0
  %_M_finish = getelementptr inbounds %"struct.std::_Vector_base<arrow::TypeHolder, std::allocator<arrow::TypeHolder>>::_Vector_impl_data", ptr %_M_impl, i32 0, i32 1
  %0 = load ptr, ptr %_M_finish, align 8
  %_M_impl2 = getelementptr inbounds %"struct.std::_Vector_base.49", ptr %this1, i32 0, i32 0
  %_M_start = getelementptr inbounds %"struct.std::_Vector_base<arrow::TypeHolder, std::allocator<arrow::TypeHolder>>::_Vector_impl_data", ptr %_M_impl2, i32 0, i32 0
  %1 = load ptr, ptr %_M_start, align 8
  %sub.ptr.lhs.cast = ptrtoint ptr %0 to i64
  %sub.ptr.rhs.cast = ptrtoint ptr %1 to i64
  %sub.ptr.sub = sub i64 %sub.ptr.lhs.cast, %sub.ptr.rhs.cast
  %sub.ptr.div = sdiv exact i64 %sub.ptr.sub, 24
  ret i64 %sub.ptr.div
}

; Function Attrs: mustprogress nounwind uwtable
define linkonce_odr void @_ZN5arrow6ResultIPKNS_7compute6KernelEEC2ERKNS_6StatusE(ptr noundef nonnull align 8 dereferenceable(16) %this, ptr noundef nonnull align 8 dereferenceable(8) %status) unnamed_addr #1 comdat align 2 personality ptr @__gxx_personality_v0 {
entry:
  %this.addr = alloca ptr, align 8
  %status.addr = alloca ptr, align 8
  %ref.tmp = alloca %"class.std::__cxx11::basic_string", align 8
  %ref.tmp3 = alloca %"class.std::__cxx11::basic_string", align 8
  %ref.tmp4 = alloca %"class.std::allocator.2", align 1
  %ref.tmp6 = alloca %"class.std::__cxx11::basic_string", align 8
  store ptr %this, ptr %this.addr, align 8
  store ptr %status, ptr %status.addr, align 8
  %this1 = load ptr, ptr %this.addr, align 8
  %status_ = getelementptr inbounds %"class.arrow::Result.44", ptr %this1, i32 0, i32 0
  %0 = load ptr, ptr %status.addr, align 8
  invoke void @_ZN5arrow6StatusC2ERKS0_(ptr noundef nonnull align 8 dereferenceable(8) %status_, ptr noundef nonnull align 8 dereferenceable(8) %0)
          to label %invoke.cont unwind label %terminate.lpad

invoke.cont:                                      ; preds = %entry
  %1 = load ptr, ptr %status.addr, align 8
  %call = call noundef zeroext i1 @_ZNK5arrow6Status2okEv(ptr noundef nonnull align 8 dereferenceable(8) %1)
  %lnot = xor i1 %call, true
  %lnot2 = xor i1 %lnot, true
  br i1 %lnot2, label %if.then, label %if.end

if.then:                                          ; preds = %invoke.cont
  call void @_ZNSaIcEC1Ev(ptr noundef nonnull align 1 dereferenceable(1) %ref.tmp4) #2
  invoke void @_ZNSt7__cxx1112basic_stringIcSt11char_traitsIcESaIcEEC2IS3_EEPKcRKS3_(ptr noundef nonnull align 8 dereferenceable(32) %ref.tmp3, ptr noundef @.str.29, ptr noundef nonnull align 1 dereferenceable(1) %ref.tmp4)
          to label %invoke.cont5 unwind label %terminate.lpad

invoke.cont5:                                     ; preds = %if.then
  %2 = load ptr, ptr %status.addr, align 8
  invoke void @_ZNK5arrow6Status8ToStringB5cxx11Ev(ptr sret(%"class.std::__cxx11::basic_string") align 8 %ref.tmp6, ptr noundef nonnull align 8 dereferenceable(8) %2)
          to label %invoke.cont7 unwind label %terminate.lpad

invoke.cont7:                                     ; preds = %invoke.cont5
  invoke void @_ZStplIcSt11char_traitsIcESaIcEENSt7__cxx1112basic_stringIT_T0_T1_EEOS8_S9_(ptr sret(%"class.std::__cxx11::basic_string") align 8 %ref.tmp, ptr noundef nonnull align 8 dereferenceable(32) %ref.tmp3, ptr noundef nonnull align 8 dereferenceable(32) %ref.tmp6)
          to label %invoke.cont8 unwind label %terminate.lpad

invoke.cont8:                                     ; preds = %invoke.cont7
  invoke void @_ZN5arrow8internal14DieWithMessageERKNSt7__cxx1112basic_stringIcSt11char_traitsIcESaIcEEE(ptr noundef nonnull align 8 dereferenceable(32) %ref.tmp)
          to label %invoke.cont9 unwind label %terminate.lpad

invoke.cont9:                                     ; preds = %invoke.cont8
  call void @_ZNSt7__cxx1112basic_stringIcSt11char_traitsIcESaIcEED1Ev(ptr noundef nonnull align 8 dereferenceable(32) %ref.tmp) #2
  call void @_ZNSt7__cxx1112basic_stringIcSt11char_traitsIcESaIcEED1Ev(ptr noundef nonnull align 8 dereferenceable(32) %ref.tmp6) #2
  call void @_ZNSt7__cxx1112basic_stringIcSt11char_traitsIcESaIcEED1Ev(ptr noundef nonnull align 8 dereferenceable(32) %ref.tmp3) #2
  call void @_ZNSaIcED1Ev(ptr noundef nonnull align 1 dereferenceable(1) %ref.tmp4) #2
  br label %if.end

if.end:                                           ; preds = %invoke.cont9, %invoke.cont
  ret void

terminate.lpad:                                   ; preds = %invoke.cont8, %invoke.cont7, %invoke.cont5, %if.then, %entry
  %3 = landingpad { ptr, i32 }
          catch ptr null
  %4 = extractvalue { ptr, i32 } %3, 0
  call void @__clang_call_terminate(ptr %4) #15
  unreachable
}

; Function Attrs: mustprogress nounwind uwtable
define linkonce_odr void @_ZNSt6vectorIPKN5arrow7compute12ScalarKernelESaIS4_EEC2Ev(ptr noundef nonnull align 8 dereferenceable(24) %this) unnamed_addr #1 comdat align 2 {
entry:
  %this.addr = alloca ptr, align 8
  store ptr %this, ptr %this.addr, align 8
  %this1 = load ptr, ptr %this.addr, align 8
  call void @_ZNSt12_Vector_baseIPKN5arrow7compute12ScalarKernelESaIS4_EEC2Ev(ptr noundef nonnull align 8 dereferenceable(24) %this1) #2
  ret void
}

; Function Attrs: mustprogress nounwind uwtable
define linkonce_odr ptr @_ZNKSt6vectorIN5arrow7compute12ScalarKernelESaIS2_EE5beginEv(ptr noundef nonnull align 8 dereferenceable(24) %this) #1 comdat align 2 {
entry:
  %retval = alloca %"class.__gnu_cxx::__normal_iterator", align 8
  %this.addr = alloca ptr, align 8
  store ptr %this, ptr %this.addr, align 8
  %this1 = load ptr, ptr %this.addr, align 8
  %_M_impl = getelementptr inbounds %"struct.std::_Vector_base.15", ptr %this1, i32 0, i32 0
  %_M_start = getelementptr inbounds %"struct.std::_Vector_base<arrow::compute::ScalarKernel, std::allocator<arrow::compute::ScalarKernel>>::_Vector_impl_data", ptr %_M_impl, i32 0, i32 0
  call void @_ZN9__gnu_cxx17__normal_iteratorIPKN5arrow7compute12ScalarKernelESt6vectorIS3_SaIS3_EEEC2ERKS5_(ptr noundef nonnull align 8 dereferenceable(8) %retval, ptr noundef nonnull align 8 dereferenceable(8) %_M_start) #2
  %coerce.dive = getelementptr inbounds %"class.__gnu_cxx::__normal_iterator", ptr %retval, i32 0, i32 0
  %0 = load ptr, ptr %coerce.dive, align 8
  ret ptr %0
}

; Function Attrs: mustprogress nounwind uwtable
define linkonce_odr ptr @_ZNKSt6vectorIN5arrow7compute12ScalarKernelESaIS2_EE3endEv(ptr noundef nonnull align 8 dereferenceable(24) %this) #1 comdat align 2 {
entry:
  %retval = alloca %"class.__gnu_cxx::__normal_iterator", align 8
  %this.addr = alloca ptr, align 8
  store ptr %this, ptr %this.addr, align 8
  %this1 = load ptr, ptr %this.addr, align 8
  %_M_impl = getelementptr inbounds %"struct.std::_Vector_base.15", ptr %this1, i32 0, i32 0
  %_M_finish = getelementptr inbounds %"struct.std::_Vector_base<arrow::compute::ScalarKernel, std::allocator<arrow::compute::ScalarKernel>>::_Vector_impl_data", ptr %_M_impl, i32 0, i32 1
  call void @_ZN9__gnu_cxx17__normal_iteratorIPKN5arrow7compute12ScalarKernelESt6vectorIS3_SaIS3_EEEC2ERKS5_(ptr noundef nonnull align 8 dereferenceable(8) %retval, ptr noundef nonnull align 8 dereferenceable(8) %_M_finish) #2
  %coerce.dive = getelementptr inbounds %"class.__gnu_cxx::__normal_iterator", ptr %retval, i32 0, i32 0
  %0 = load ptr, ptr %coerce.dive, align 8
  ret ptr %0
}

; Function Attrs: mustprogress nounwind uwtable
define linkonce_odr noundef zeroext i1 @_ZN9__gnu_cxxneIPKN5arrow7compute12ScalarKernelESt6vectorIS3_SaIS3_EEEEbRKNS_17__normal_iteratorIT_T0_EESE_(ptr noundef nonnull align 8 dereferenceable(8) %__lhs, ptr noundef nonnull align 8 dereferenceable(8) %__rhs) #1 comdat {
entry:
  %__lhs.addr = alloca ptr, align 8
  %__rhs.addr = alloca ptr, align 8
  store ptr %__lhs, ptr %__lhs.addr, align 8
  store ptr %__rhs, ptr %__rhs.addr, align 8
  %0 = load ptr, ptr %__lhs.addr, align 8
  %call = call noundef nonnull align 8 dereferenceable(8) ptr @_ZNK9__gnu_cxx17__normal_iteratorIPKN5arrow7compute12ScalarKernelESt6vectorIS3_SaIS3_EEE4baseEv(ptr noundef nonnull align 8 dereferenceable(8) %0) #2
  %1 = load ptr, ptr %call, align 8
  %2 = load ptr, ptr %__rhs.addr, align 8
  %call1 = call noundef nonnull align 8 dereferenceable(8) ptr @_ZNK9__gnu_cxx17__normal_iteratorIPKN5arrow7compute12ScalarKernelESt6vectorIS3_SaIS3_EEE4baseEv(ptr noundef nonnull align 8 dereferenceable(8) %2) #2
  %3 = load ptr, ptr %call1, align 8
  %cmp = icmp ne ptr %1, %3
  ret i1 %cmp
}

; Function Attrs: mustprogress nounwind uwtable
define linkonce_odr noundef nonnull align 8 dereferenceable(92) ptr @_ZNK9__gnu_cxx17__normal_iteratorIPKN5arrow7compute12ScalarKernelESt6vectorIS3_SaIS3_EEEdeEv(ptr noundef nonnull align 8 dereferenceable(8) %this) #1 comdat align 2 {
entry:
  %this.addr = alloca ptr, align 8
  store ptr %this, ptr %this.addr, align 8
  %this1 = load ptr, ptr %this.addr, align 8
  %_M_current = getelementptr inbounds %"class.__gnu_cxx::__normal_iterator", ptr %this1, i32 0, i32 0
  %0 = load ptr, ptr %_M_current, align 8
  ret ptr %0
}

; Function Attrs: mustprogress nounwind uwtable
define linkonce_odr noundef ptr @_ZNKSt19__shared_ptr_accessIN5arrow7compute15KernelSignatureELN9__gnu_cxx12_Lock_policyE2ELb0ELb0EEptEv(ptr noundef nonnull align 1 dereferenceable(1) %this) #1 comdat align 2 {
entry:
  %this.addr = alloca ptr, align 8
  store ptr %this, ptr %this.addr, align 8
  %this1 = load ptr, ptr %this.addr, align 8
  %call = call noundef ptr @_ZNKSt19__shared_ptr_accessIN5arrow7compute15KernelSignatureELN9__gnu_cxx12_Lock_policyE2ELb0ELb0EE6_M_getEv(ptr noundef nonnull align 1 dereferenceable(1) %this1) #2
  ret ptr %call
}

declare noundef zeroext i1 @_ZNK5arrow7compute15KernelSignature13MatchesInputsERKSt6vectorINS_10TypeHolderESaIS3_EE(ptr noundef nonnull align 8 dereferenceable(96), ptr noundef nonnull align 8 dereferenceable(24)) #5

; Function Attrs: mustprogress uwtable
define linkonce_odr void @_ZNSt6vectorIPKN5arrow7compute12ScalarKernelESaIS4_EE9push_backEOS4_(ptr noundef nonnull align 8 dereferenceable(24) %this, ptr noundef nonnull align 8 dereferenceable(8) %__x) #4 comdat align 2 {
entry:
  %this.addr = alloca ptr, align 8
  %__x.addr = alloca ptr, align 8
  store ptr %this, ptr %this.addr, align 8
  store ptr %__x, ptr %__x.addr, align 8
  %this1 = load ptr, ptr %this.addr, align 8
  %0 = load ptr, ptr %__x.addr, align 8
  %call = call noundef nonnull align 8 dereferenceable(8) ptr @_ZNSt6vectorIPKN5arrow7compute12ScalarKernelESaIS4_EE12emplace_backIJS4_EEERS4_DpOT_(ptr noundef nonnull align 8 dereferenceable(24) %this1, ptr noundef nonnull align 8 dereferenceable(8) %0)
  ret void
}

; Function Attrs: mustprogress nounwind uwtable
define linkonce_odr noundef nonnull align 8 dereferenceable(8) ptr @_ZN9__gnu_cxx17__normal_iteratorIPKN5arrow7compute12ScalarKernelESt6vectorIS3_SaIS3_EEEppEv(ptr noundef nonnull align 8 dereferenceable(8) %this) #1 comdat align 2 {
entry:
  %this.addr = alloca ptr, align 8
  store ptr %this, ptr %this.addr, align 8
  %this1 = load ptr, ptr %this.addr, align 8
  %_M_current = getelementptr inbounds %"class.__gnu_cxx::__normal_iterator", ptr %this1, i32 0, i32 0
  %0 = load ptr, ptr %_M_current, align 8
  %incdec.ptr = getelementptr inbounds %"struct.arrow::compute::ScalarKernel", ptr %0, i32 1
  store ptr %incdec.ptr, ptr %_M_current, align 8
  ret ptr %this1
}

; Function Attrs: mustprogress nounwind uwtable
define linkonce_odr noundef i64 @_ZNKSt6vectorIPKN5arrow7compute12ScalarKernelESaIS4_EE4sizeEv(ptr noundef nonnull align 8 dereferenceable(24) %this) #1 comdat align 2 {
entry:
  %this.addr = alloca ptr, align 8
  store ptr %this, ptr %this.addr, align 8
  %this1 = load ptr, ptr %this.addr, align 8
  %_M_impl = getelementptr inbounds %"struct.std::_Vector_base.54", ptr %this1, i32 0, i32 0
  %_M_finish = getelementptr inbounds %"struct.std::_Vector_base<const arrow::compute::ScalarKernel *, std::allocator<const arrow::compute::ScalarKernel *>>::_Vector_impl_data", ptr %_M_impl, i32 0, i32 1
  %0 = load ptr, ptr %_M_finish, align 8
  %_M_impl2 = getelementptr inbounds %"struct.std::_Vector_base.54", ptr %this1, i32 0, i32 0
  %_M_start = getelementptr inbounds %"struct.std::_Vector_base<const arrow::compute::ScalarKernel *, std::allocator<const arrow::compute::ScalarKernel *>>::_Vector_impl_data", ptr %_M_impl2, i32 0, i32 0
  %1 = load ptr, ptr %_M_start, align 8
  %sub.ptr.lhs.cast = ptrtoint ptr %0 to i64
  %sub.ptr.rhs.cast = ptrtoint ptr %1 to i64
  %sub.ptr.sub = sub i64 %sub.ptr.lhs.cast, %sub.ptr.rhs.cast
  %sub.ptr.div = sdiv exact i64 %sub.ptr.sub, 8
  ret i64 %sub.ptr.div
}

; Function Attrs: mustprogress uwtable
define linkonce_odr void @_ZN5arrow6Status14NotImplementedIJRA23_KcNSt7__cxx1112basic_stringIcSt11char_traitsIcESaIcEEERA5_S2_SA_RA17_S2_RKSA_EEES0_DpOT_(ptr noalias sret(%"class.arrow::Status") align 8 %agg.result, ptr noundef nonnull align 1 dereferenceable(23) %args, ptr noundef nonnull align 8 dereferenceable(32) %args1, ptr noundef nonnull align 1 dereferenceable(5) %args3, ptr noundef nonnull align 8 dereferenceable(32) %args5, ptr noundef nonnull align 1 dereferenceable(17) %args7, ptr noundef nonnull align 8 dereferenceable(32) %args9) #4 comdat align 2 {
entry:
  %result.ptr = alloca ptr, align 8
  %args.addr = alloca ptr, align 8
  %args.addr2 = alloca ptr, align 8
  %args.addr4 = alloca ptr, align 8
  %args.addr6 = alloca ptr, align 8
  %args.addr8 = alloca ptr, align 8
  %args.addr10 = alloca ptr, align 8
  store ptr %agg.result, ptr %result.ptr, align 8
  store ptr %args, ptr %args.addr, align 8
  store ptr %args1, ptr %args.addr2, align 8
  store ptr %args3, ptr %args.addr4, align 8
  store ptr %args5, ptr %args.addr6, align 8
  store ptr %args7, ptr %args.addr8, align 8
  store ptr %args9, ptr %args.addr10, align 8
  %0 = load ptr, ptr %args.addr, align 8
  %1 = load ptr, ptr %args.addr2, align 8
  %2 = load ptr, ptr %args.addr4, align 8
  %3 = load ptr, ptr %args.addr6, align 8
  %4 = load ptr, ptr %args.addr8, align 8
  %5 = load ptr, ptr %args.addr10, align 8
  call void @_ZN5arrow6Status8FromArgsIJRA23_KcNSt7__cxx1112basic_stringIcSt11char_traitsIcESaIcEEERA5_S2_SA_RA17_S2_RKSA_EEES0_NS_10StatusCodeEDpOT_(ptr sret(%"class.arrow::Status") align 8 %agg.result, i8 noundef signext 10, ptr noundef nonnull align 1 dereferenceable(23) %0, ptr noundef nonnull align 8 dereferenceable(32) %1, ptr noundef nonnull align 1 dereferenceable(5) %2, ptr noundef nonnull align 8 dereferenceable(32) %3, ptr noundef nonnull align 1 dereferenceable(17) %4, ptr noundef nonnull align 8 dereferenceable(32) %5)
  ret void
}

; Function Attrs: mustprogress nounwind uwtable
define linkonce_odr noundef nonnull align 8 dereferenceable(24) ptr @_ZNKSt6vectorIN5arrow10TypeHolderESaIS1_EEixEm(ptr noundef nonnull align 8 dereferenceable(24) %this, i64 noundef %__n) #1 comdat align 2 {
entry:
  %this.addr = alloca ptr, align 8
  %__n.addr = alloca i64, align 8
  store ptr %this, ptr %this.addr, align 8
  store i64 %__n, ptr %__n.addr, align 8
  %this1 = load ptr, ptr %this.addr, align 8
  %_M_impl = getelementptr inbounds %"struct.std::_Vector_base.49", ptr %this1, i32 0, i32 0
  %_M_start = getelementptr inbounds %"struct.std::_Vector_base<arrow::TypeHolder, std::allocator<arrow::TypeHolder>>::_Vector_impl_data", ptr %_M_impl, i32 0, i32 0
  %0 = load ptr, ptr %_M_start, align 8
  %1 = load i64, ptr %__n.addr, align 8
  %add.ptr = getelementptr inbounds %"struct.arrow::TypeHolder", ptr %0, i64 %1
  ret ptr %add.ptr
}

declare void @_ZN5arrow8internal10ToTypeNameB5cxx11ENS_4Type4typeE(ptr sret(%"class.std::__cxx11::basic_string") align 8, i32 noundef) #5

; Function Attrs: mustprogress nounwind uwtable
define linkonce_odr noundef nonnull align 8 dereferenceable(32) ptr @_ZNK5arrow7compute8Function4nameB5cxx11Ev(ptr noundef nonnull align 8 dereferenceable(192) %this) #1 comdat align 2 {
entry:
  %this.addr = alloca ptr, align 8
  store ptr %this, ptr %this.addr, align 8
  %this1 = load ptr, ptr %this.addr, align 8
  %name_ = getelementptr inbounds %"class.arrow::compute::Function", ptr %this1, i32 0, i32 1
  ret ptr %name_
}

; Function Attrs: mustprogress nounwind uwtable
define linkonce_odr noundef nonnull align 8 dereferenceable(8) ptr @_ZNSt6vectorIPKN5arrow7compute12ScalarKernelESaIS4_EEixEm(ptr noundef nonnull align 8 dereferenceable(24) %this, i64 noundef %__n) #1 comdat align 2 {
entry:
  %this.addr = alloca ptr, align 8
  %__n.addr = alloca i64, align 8
  store ptr %this, ptr %this.addr, align 8
  store i64 %__n, ptr %__n.addr, align 8
  %this1 = load ptr, ptr %this.addr, align 8
  %_M_impl = getelementptr inbounds %"struct.std::_Vector_base.54", ptr %this1, i32 0, i32 0
  %_M_start = getelementptr inbounds %"struct.std::_Vector_base<const arrow::compute::ScalarKernel *, std::allocator<const arrow::compute::ScalarKernel *>>::_Vector_impl_data", ptr %_M_impl, i32 0, i32 0
  %0 = load ptr, ptr %_M_start, align 8
  %1 = load i64, ptr %__n.addr, align 8
  %add.ptr = getelementptr inbounds ptr, ptr %0, i64 %1
  ret ptr %add.ptr
}

; Function Attrs: mustprogress nounwind uwtable
define linkonce_odr void @_ZN5arrow6ResultIPKNS_7compute6KernelEEC2IRPKNS1_12ScalarKernelEvEEOT_(ptr noundef nonnull align 8 dereferenceable(16) %this, ptr noundef nonnull align 8 dereferenceable(8) %value) unnamed_addr #1 comdat align 2 {
entry:
  %this.addr = alloca ptr, align 8
  %value.addr = alloca ptr, align 8
  store ptr %this, ptr %this.addr, align 8
  store ptr %value, ptr %value.addr, align 8
  %this1 = load ptr, ptr %this.addr, align 8
  %status_ = getelementptr inbounds %"class.arrow::Result.44", ptr %this1, i32 0, i32 0
  call void @_ZN5arrow6StatusC2Ev(ptr noundef nonnull align 8 dereferenceable(8) %status_) #2
  %0 = load ptr, ptr %value.addr, align 8
  call void @_ZN5arrow6ResultIPKNS_7compute6KernelEE14ConstructValueIRPKNS1_12ScalarKernelEEEvOT_(ptr noundef nonnull align 8 dereferenceable(16) %this1, ptr noundef nonnull align 8 dereferenceable(8) %0) #2
  ret void
}

; Function Attrs: mustprogress nounwind uwtable
define linkonce_odr ptr @_ZNSt6vectorIPKN5arrow7compute12ScalarKernelESaIS4_EE5beginEv(ptr noundef nonnull align 8 dereferenceable(24) %this) #1 comdat align 2 {
entry:
  %retval = alloca %"class.__gnu_cxx::__normal_iterator.65", align 8
  %this.addr = alloca ptr, align 8
  store ptr %this, ptr %this.addr, align 8
  %this1 = load ptr, ptr %this.addr, align 8
  %_M_impl = getelementptr inbounds %"struct.std::_Vector_base.54", ptr %this1, i32 0, i32 0
  %_M_start = getelementptr inbounds %"struct.std::_Vector_base<const arrow::compute::ScalarKernel *, std::allocator<const arrow::compute::ScalarKernel *>>::_Vector_impl_data", ptr %_M_impl, i32 0, i32 0
  call void @_ZN9__gnu_cxx17__normal_iteratorIPPKN5arrow7compute12ScalarKernelESt6vectorIS5_SaIS5_EEEC2ERKS6_(ptr noundef nonnull align 8 dereferenceable(8) %retval, ptr noundef nonnull align 8 dereferenceable(8) %_M_start) #2
  %coerce.dive = getelementptr inbounds %"class.__gnu_cxx::__normal_iterator.65", ptr %retval, i32 0, i32 0
  %0 = load ptr, ptr %coerce.dive, align 8
  ret ptr %0
}

; Function Attrs: mustprogress nounwind uwtable
define linkonce_odr ptr @_ZNSt6vectorIPKN5arrow7compute12ScalarKernelESaIS4_EE3endEv(ptr noundef nonnull align 8 dereferenceable(24) %this) #1 comdat align 2 {
entry:
  %retval = alloca %"class.__gnu_cxx::__normal_iterator.65", align 8
  %this.addr = alloca ptr, align 8
  store ptr %this, ptr %this.addr, align 8
  %this1 = load ptr, ptr %this.addr, align 8
  %_M_impl = getelementptr inbounds %"struct.std::_Vector_base.54", ptr %this1, i32 0, i32 0
  %_M_finish = getelementptr inbounds %"struct.std::_Vector_base<const arrow::compute::ScalarKernel *, std::allocator<const arrow::compute::ScalarKernel *>>::_Vector_impl_data", ptr %_M_impl, i32 0, i32 1
  call void @_ZN9__gnu_cxx17__normal_iteratorIPPKN5arrow7compute12ScalarKernelESt6vectorIS5_SaIS5_EEEC2ERKS6_(ptr noundef nonnull align 8 dereferenceable(8) %retval, ptr noundef nonnull align 8 dereferenceable(8) %_M_finish) #2
  %coerce.dive = getelementptr inbounds %"class.__gnu_cxx::__normal_iterator.65", ptr %retval, i32 0, i32 0
  %0 = load ptr, ptr %coerce.dive, align 8
  ret ptr %0
}

; Function Attrs: mustprogress nounwind uwtable
define linkonce_odr noundef zeroext i1 @_ZN9__gnu_cxxneIPPKN5arrow7compute12ScalarKernelESt6vectorIS5_SaIS5_EEEEbRKNS_17__normal_iteratorIT_T0_EESF_(ptr noundef nonnull align 8 dereferenceable(8) %__lhs, ptr noundef nonnull align 8 dereferenceable(8) %__rhs) #1 comdat {
entry:
  %__lhs.addr = alloca ptr, align 8
  %__rhs.addr = alloca ptr, align 8
  store ptr %__lhs, ptr %__lhs.addr, align 8
  store ptr %__rhs, ptr %__rhs.addr, align 8
  %0 = load ptr, ptr %__lhs.addr, align 8
  %call = call noundef nonnull align 8 dereferenceable(8) ptr @_ZNK9__gnu_cxx17__normal_iteratorIPPKN5arrow7compute12ScalarKernelESt6vectorIS5_SaIS5_EEE4baseEv(ptr noundef nonnull align 8 dereferenceable(8) %0) #2
  %1 = load ptr, ptr %call, align 8
  %2 = load ptr, ptr %__rhs.addr, align 8
  %call1 = call noundef nonnull align 8 dereferenceable(8) ptr @_ZNK9__gnu_cxx17__normal_iteratorIPPKN5arrow7compute12ScalarKernelESt6vectorIS5_SaIS5_EEE4baseEv(ptr noundef nonnull align 8 dereferenceable(8) %2) #2
  %3 = load ptr, ptr %call1, align 8
  %cmp = icmp ne ptr %1, %3
  ret i1 %cmp
}

; Function Attrs: mustprogress nounwind uwtable
define linkonce_odr noundef nonnull align 8 dereferenceable(8) ptr @_ZNK9__gnu_cxx17__normal_iteratorIPPKN5arrow7compute12ScalarKernelESt6vectorIS5_SaIS5_EEEdeEv(ptr noundef nonnull align 8 dereferenceable(8) %this) #1 comdat align 2 {
entry:
  %this.addr = alloca ptr, align 8
  store ptr %this, ptr %this.addr, align 8
  %this1 = load ptr, ptr %this.addr, align 8
  %_M_current = getelementptr inbounds %"class.__gnu_cxx::__normal_iterator.65", ptr %this1, i32 0, i32 0
  %0 = load ptr, ptr %_M_current, align 8
  ret ptr %0
}

; Function Attrs: mustprogress nounwind uwtable
define linkonce_odr noundef nonnull align 8 dereferenceable(24) ptr @_ZNK5arrow7compute15KernelSignature8in_typesEv(ptr noundef nonnull align 8 dereferenceable(96) %this) #1 comdat align 2 {
entry:
  %this.addr = alloca ptr, align 8
  store ptr %this, ptr %this.addr, align 8
  %this1 = load ptr, ptr %this.addr, align 8
  %in_types_ = getelementptr inbounds %"class.arrow::compute::KernelSignature", ptr %this1, i32 0, i32 0
  ret ptr %in_types_
}

; Function Attrs: mustprogress nounwind uwtable
define linkonce_odr noundef nonnull align 8 dereferenceable(40) ptr @_ZNKSt6vectorIN5arrow7compute9InputTypeESaIS2_EEixEm(ptr noundef nonnull align 8 dereferenceable(24) %this, i64 noundef %__n) #1 comdat align 2 {
entry:
  %this.addr = alloca ptr, align 8
  %__n.addr = alloca i64, align 8
  store ptr %this, ptr %this.addr, align 8
  store i64 %__n, ptr %__n.addr, align 8
  %this1 = load ptr, ptr %this.addr, align 8
  %_M_impl = getelementptr inbounds %"struct.std::_Vector_base.34", ptr %this1, i32 0, i32 0
  %_M_start = getelementptr inbounds %"struct.std::_Vector_base<arrow::compute::InputType, std::allocator<arrow::compute::InputType>>::_Vector_impl_data", ptr %_M_impl, i32 0, i32 0
  %0 = load ptr, ptr %_M_start, align 8
  %1 = load i64, ptr %__n.addr, align 8
  %add.ptr = getelementptr inbounds %"class.arrow::compute::InputType", ptr %0, i64 %1
  ret ptr %add.ptr
}

; Function Attrs: mustprogress nounwind uwtable
define linkonce_odr noundef i32 @_ZNK5arrow7compute9InputType4kindEv(ptr noundef nonnull align 8 dereferenceable(40) %this) #1 comdat align 2 {
entry:
  %this.addr = alloca ptr, align 8
  store ptr %this, ptr %this.addr, align 8
  %this1 = load ptr, ptr %this.addr, align 8
  %kind_ = getelementptr inbounds %"class.arrow::compute::InputType", ptr %this1, i32 0, i32 0
  %0 = load i32, ptr %kind_, align 8
  ret i32 %0
}

; Function Attrs: mustprogress nounwind uwtable
define linkonce_odr void @_ZN5arrow6ResultIPKNS_7compute6KernelEEC2IPKNS1_12ScalarKernelEvEEOT_(ptr noundef nonnull align 8 dereferenceable(16) %this, ptr noundef nonnull align 8 dereferenceable(8) %value) unnamed_addr #1 comdat align 2 {
entry:
  %this.addr = alloca ptr, align 8
  %value.addr = alloca ptr, align 8
  store ptr %this, ptr %this.addr, align 8
  store ptr %value, ptr %value.addr, align 8
  %this1 = load ptr, ptr %this.addr, align 8
  %status_ = getelementptr inbounds %"class.arrow::Result.44", ptr %this1, i32 0, i32 0
  call void @_ZN5arrow6StatusC2Ev(ptr noundef nonnull align 8 dereferenceable(8) %status_) #2
  %0 = load ptr, ptr %value.addr, align 8
  call void @_ZN5arrow6ResultIPKNS_7compute6KernelEE14ConstructValueIPKNS1_12ScalarKernelEEEvOT_(ptr noundef nonnull align 8 dereferenceable(16) %this1, ptr noundef nonnull align 8 dereferenceable(8) %0) #2
  ret void
}

; Function Attrs: mustprogress nounwind uwtable
define linkonce_odr noundef nonnull align 8 dereferenceable(8) ptr @_ZN9__gnu_cxx17__normal_iteratorIPPKN5arrow7compute12ScalarKernelESt6vectorIS5_SaIS5_EEEppEv(ptr noundef nonnull align 8 dereferenceable(8) %this) #1 comdat align 2 {
entry:
  %this.addr = alloca ptr, align 8
  store ptr %this, ptr %this.addr, align 8
  %this1 = load ptr, ptr %this.addr, align 8
  %_M_current = getelementptr inbounds %"class.__gnu_cxx::__normal_iterator.65", ptr %this1, i32 0, i32 0
  %0 = load ptr, ptr %_M_current, align 8
  %incdec.ptr = getelementptr inbounds ptr, ptr %0, i32 1
  store ptr %incdec.ptr, ptr %_M_current, align 8
  ret ptr %this1
}

; Function Attrs: mustprogress nounwind uwtable
define linkonce_odr void @_ZNSt6vectorIPKN5arrow7compute12ScalarKernelESaIS4_EED2Ev(ptr noundef nonnull align 8 dereferenceable(24) %this) unnamed_addr #1 comdat align 2 personality ptr @__gxx_personality_v0 {
entry:
  %this.addr = alloca ptr, align 8
  store ptr %this, ptr %this.addr, align 8
  %this1 = load ptr, ptr %this.addr, align 8
  %_M_impl = getelementptr inbounds %"struct.std::_Vector_base.54", ptr %this1, i32 0, i32 0
  %_M_start = getelementptr inbounds %"struct.std::_Vector_base<const arrow::compute::ScalarKernel *, std::allocator<const arrow::compute::ScalarKernel *>>::_Vector_impl_data", ptr %_M_impl, i32 0, i32 0
  %0 = load ptr, ptr %_M_start, align 8
  %_M_impl2 = getelementptr inbounds %"struct.std::_Vector_base.54", ptr %this1, i32 0, i32 0
  %_M_finish = getelementptr inbounds %"struct.std::_Vector_base<const arrow::compute::ScalarKernel *, std::allocator<const arrow::compute::ScalarKernel *>>::_Vector_impl_data", ptr %_M_impl2, i32 0, i32 1
  %1 = load ptr, ptr %_M_finish, align 8
  %call = call noundef nonnull align 1 dereferenceable(1) ptr @_ZNSt12_Vector_baseIPKN5arrow7compute12ScalarKernelESaIS4_EE19_M_get_Tp_allocatorEv(ptr noundef nonnull align 8 dereferenceable(24) %this1) #2
  invoke void @_ZSt8_DestroyIPPKN5arrow7compute12ScalarKernelES4_EvT_S6_RSaIT0_E(ptr noundef %0, ptr noundef %1, ptr noundef nonnull align 1 dereferenceable(1) %call)
          to label %invoke.cont unwind label %terminate.lpad

invoke.cont:                                      ; preds = %entry
  call void @_ZNSt12_Vector_baseIPKN5arrow7compute12ScalarKernelESaIS4_EED2Ev(ptr noundef nonnull align 8 dereferenceable(24) %this1) #2
  ret void

terminate.lpad:                                   ; preds = %entry
  %2 = landingpad { ptr, i32 }
          catch ptr null
  %3 = extractvalue { ptr, i32 } %2, 0
  call void @__clang_call_terminate(ptr %3) #15
  unreachable
}

; Function Attrs: mustprogress uwtable
define void @_ZN5arrow7compute8internal15GetCastFunctionERKNS_8DataTypeE(ptr noalias sret(%"class.arrow::Result.69") align 8 %agg.result, ptr noundef nonnull align 8 dereferenceable(72) %to_type) #4 {
entry:
  %result.ptr = alloca ptr, align 8
  %to_type.addr = alloca ptr, align 8
  %it = alloca %"struct.std::__detail::_Node_iterator", align 8
  %ref.tmp = alloca i32, align 4
  %ref.tmp3 = alloca %"struct.std::__detail::_Node_iterator", align 8
  %ref.tmp8 = alloca %"class.arrow::Status", align 8
  store ptr %agg.result, ptr %result.ptr, align 8
  store ptr %to_type, ptr %to_type.addr, align 8
  call void @_ZN5arrow7compute8internal12_GLOBAL__N_119EnsureInitCastTableEv()
  %0 = load ptr, ptr %to_type.addr, align 8
  %call = call noundef i32 @_ZNK5arrow8DataType2idEv(ptr noundef nonnull align 8 dereferenceable(72) %0)
  store i32 %call, ptr %ref.tmp, align 4
  %call1 = call ptr @_ZNSt13unordered_mapIiSt10shared_ptrIN5arrow7compute8internal12CastFunctionEESt4hashIiESt8equal_toIiESaISt4pairIKiS5_EEE4findERSB_(ptr noundef nonnull align 8 dereferenceable(56) @_ZN5arrow7compute8internal12_GLOBAL__N_112g_cast_tableE, ptr noundef nonnull align 4 dereferenceable(4) %ref.tmp)
  %coerce.dive = getelementptr inbounds %"struct.std::__detail::_Node_iterator", ptr %it, i32 0, i32 0
  %coerce.dive2 = getelementptr inbounds %"struct.std::__detail::_Node_iterator_base", ptr %coerce.dive, i32 0, i32 0
  store ptr %call1, ptr %coerce.dive2, align 8
  %call4 = call ptr @_ZNSt13unordered_mapIiSt10shared_ptrIN5arrow7compute8internal12CastFunctionEESt4hashIiESt8equal_toIiESaISt4pairIKiS5_EEE3endEv(ptr noundef nonnull align 8 dereferenceable(56) @_ZN5arrow7compute8internal12_GLOBAL__N_112g_cast_tableE) #2
  %coerce.dive5 = getelementptr inbounds %"struct.std::__detail::_Node_iterator", ptr %ref.tmp3, i32 0, i32 0
  %coerce.dive6 = getelementptr inbounds %"struct.std::__detail::_Node_iterator_base", ptr %coerce.dive5, i32 0, i32 0
  store ptr %call4, ptr %coerce.dive6, align 8
  %call7 = call noundef zeroext i1 @_ZNSt8__detaileqERKNS_19_Node_iterator_baseISt4pairIKiSt10shared_ptrIN5arrow7compute8internal12CastFunctionEEELb0EEESC_(ptr noundef nonnull align 8 dereferenceable(8) %it, ptr noundef nonnull align 8 dereferenceable(8) %ref.tmp3) #2
  br i1 %call7, label %if.then, label %if.end

if.then:                                          ; preds = %entry
  %1 = load ptr, ptr %to_type.addr, align 8
  call void @_ZN5arrow6Status14NotImplementedIJRA21_KcRKNS_8DataTypeEEEES0_DpOT_(ptr sret(%"class.arrow::Status") align 8 %ref.tmp8, ptr noundef nonnull align 1 dereferenceable(21) @.str.16, ptr noundef nonnull align 8 dereferenceable(72) %1)
  call void @_ZN5arrow6ResultISt10shared_ptrINS_7compute8internal12CastFunctionEEEC2ERKNS_6StatusE(ptr noundef nonnull align 8 dereferenceable(24) %agg.result, ptr noundef nonnull align 8 dereferenceable(8) %ref.tmp8) #2
  call void @_ZN5arrow6StatusD2Ev(ptr noundef nonnull align 8 dereferenceable(8) %ref.tmp8) #2
  br label %return

if.end:                                           ; preds = %entry
  %call9 = call noundef ptr @_ZNKSt8__detail14_Node_iteratorISt4pairIKiSt10shared_ptrIN5arrow7compute8internal12CastFunctionEEELb0ELb0EEptEv(ptr noundef nonnull align 8 dereferenceable(8) %it) #2
  %second = getelementptr inbounds %"struct.std::pair", ptr %call9, i32 0, i32 1
  call void @_ZN5arrow6ResultISt10shared_ptrINS_7compute8internal12CastFunctionEEEC2IRS5_vEEOT_(ptr noundef nonnull align 8 dereferenceable(24) %agg.result, ptr noundef nonnull align 8 dereferenceable(16) %second) #2
  br label %return

return:                                           ; preds = %if.end, %if.then
  ret void
}

; Function Attrs: mustprogress uwtable
define internal void @_ZN5arrow7compute8internal12_GLOBAL__N_119EnsureInitCastTableEv() #4 {
entry:
  call void @_ZSt9call_onceIRFvvEJEEvRSt9once_flagOT_DpOT0_(ptr noundef nonnull align 4 dereferenceable(4) @_ZN5arrow7compute8internal12_GLOBAL__N_122cast_table_initializedE, ptr noundef nonnull @_ZN5arrow7compute8internal12_GLOBAL__N_113InitCastTableEv)
  ret void
}

; Function Attrs: mustprogress uwtable
define linkonce_odr ptr @_ZNSt13unordered_mapIiSt10shared_ptrIN5arrow7compute8internal12CastFunctionEESt4hashIiESt8equal_toIiESaISt4pairIKiS5_EEE4findERSB_(ptr noundef nonnull align 8 dereferenceable(56) %this, ptr noundef nonnull align 4 dereferenceable(4) %__x) #4 comdat align 2 {
entry:
  %retval = alloca %"struct.std::__detail::_Node_iterator", align 8
  %this.addr = alloca ptr, align 8
  %__x.addr = alloca ptr, align 8
  store ptr %this, ptr %this.addr, align 8
  store ptr %__x, ptr %__x.addr, align 8
  %this1 = load ptr, ptr %this.addr, align 8
  %_M_h = getelementptr inbounds %"class.std::unordered_map", ptr %this1, i32 0, i32 0
  %0 = load ptr, ptr %__x.addr, align 8
  %call = call ptr @_ZNSt10_HashtableIiSt4pairIKiSt10shared_ptrIN5arrow7compute8internal12CastFunctionEEESaIS8_ENSt8__detail10_Select1stESt8equal_toIiESt4hashIiENSA_18_Mod_range_hashingENSA_20_Default_ranged_hashENSA_20_Prime_rehash_policyENSA_17_Hashtable_traitsILb0ELb0ELb1EEEE4findERS1_(ptr noundef nonnull align 8 dereferenceable(56) %_M_h, ptr noundef nonnull align 4 dereferenceable(4) %0)
  %coerce.dive = getelementptr inbounds %"struct.std::__detail::_Node_iterator", ptr %retval, i32 0, i32 0
  %coerce.dive2 = getelementptr inbounds %"struct.std::__detail::_Node_iterator_base", ptr %coerce.dive, i32 0, i32 0
  store ptr %call, ptr %coerce.dive2, align 8
  %coerce.dive3 = getelementptr inbounds %"struct.std::__detail::_Node_iterator", ptr %retval, i32 0, i32 0
  %coerce.dive4 = getelementptr inbounds %"struct.std::__detail::_Node_iterator_base", ptr %coerce.dive3, i32 0, i32 0
  %1 = load ptr, ptr %coerce.dive4, align 8
  ret ptr %1
}

; Function Attrs: mustprogress nounwind uwtable
define linkonce_odr noundef i32 @_ZNK5arrow8DataType2idEv(ptr noundef nonnull align 8 dereferenceable(72) %this) #1 comdat align 2 {
entry:
  %this.addr = alloca ptr, align 8
  store ptr %this, ptr %this.addr, align 8
  %this1 = load ptr, ptr %this.addr, align 8
  %id_ = getelementptr inbounds %"class.arrow::DataType", ptr %this1, i32 0, i32 2
  %0 = load i32, ptr %id_, align 8
  ret i32 %0
}

; Function Attrs: mustprogress nounwind uwtable
define linkonce_odr noundef zeroext i1 @_ZNSt8__detaileqERKNS_19_Node_iterator_baseISt4pairIKiSt10shared_ptrIN5arrow7compute8internal12CastFunctionEEELb0EEESC_(ptr noundef nonnull align 8 dereferenceable(8) %__x, ptr noundef nonnull align 8 dereferenceable(8) %__y) #1 comdat {
entry:
  %__x.addr = alloca ptr, align 8
  %__y.addr = alloca ptr, align 8
  store ptr %__x, ptr %__x.addr, align 8
  store ptr %__y, ptr %__y.addr, align 8
  %0 = load ptr, ptr %__x.addr, align 8
  %_M_cur = getelementptr inbounds %"struct.std::__detail::_Node_iterator_base", ptr %0, i32 0, i32 0
  %1 = load ptr, ptr %_M_cur, align 8
  %2 = load ptr, ptr %__y.addr, align 8
  %_M_cur1 = getelementptr inbounds %"struct.std::__detail::_Node_iterator_base", ptr %2, i32 0, i32 0
  %3 = load ptr, ptr %_M_cur1, align 8
  %cmp = icmp eq ptr %1, %3
  ret i1 %cmp
}

; Function Attrs: mustprogress nounwind uwtable
define linkonce_odr ptr @_ZNSt13unordered_mapIiSt10shared_ptrIN5arrow7compute8internal12CastFunctionEESt4hashIiESt8equal_toIiESaISt4pairIKiS5_EEE3endEv(ptr noundef nonnull align 8 dereferenceable(56) %this) #1 comdat align 2 {
entry:
  %retval = alloca %"struct.std::__detail::_Node_iterator", align 8
  %this.addr = alloca ptr, align 8
  store ptr %this, ptr %this.addr, align 8
  %this1 = load ptr, ptr %this.addr, align 8
  %_M_h = getelementptr inbounds %"class.std::unordered_map", ptr %this1, i32 0, i32 0
  %call = call ptr @_ZNSt10_HashtableIiSt4pairIKiSt10shared_ptrIN5arrow7compute8internal12CastFunctionEEESaIS8_ENSt8__detail10_Select1stESt8equal_toIiESt4hashIiENSA_18_Mod_range_hashingENSA_20_Default_ranged_hashENSA_20_Prime_rehash_policyENSA_17_Hashtable_traitsILb0ELb0ELb1EEEE3endEv(ptr noundef nonnull align 8 dereferenceable(56) %_M_h) #2
  %coerce.dive = getelementptr inbounds %"struct.std::__detail::_Node_iterator", ptr %retval, i32 0, i32 0
  %coerce.dive2 = getelementptr inbounds %"struct.std::__detail::_Node_iterator_base", ptr %coerce.dive, i32 0, i32 0
  store ptr %call, ptr %coerce.dive2, align 8
  %coerce.dive3 = getelementptr inbounds %"struct.std::__detail::_Node_iterator", ptr %retval, i32 0, i32 0
  %coerce.dive4 = getelementptr inbounds %"struct.std::__detail::_Node_iterator_base", ptr %coerce.dive3, i32 0, i32 0
  %0 = load ptr, ptr %coerce.dive4, align 8
  ret ptr %0
}

; Function Attrs: mustprogress uwtable
define linkonce_odr void @_ZN5arrow6Status14NotImplementedIJRA21_KcRKNS_8DataTypeEEEES0_DpOT_(ptr noalias sret(%"class.arrow::Status") align 8 %agg.result, ptr noundef nonnull align 1 dereferenceable(21) %args, ptr noundef nonnull align 8 dereferenceable(72) %args1) #4 comdat align 2 {
entry:
  %result.ptr = alloca ptr, align 8
  %args.addr = alloca ptr, align 8
  %args.addr2 = alloca ptr, align 8
  store ptr %agg.result, ptr %result.ptr, align 8
  store ptr %args, ptr %args.addr, align 8
  store ptr %args1, ptr %args.addr2, align 8
  %0 = load ptr, ptr %args.addr, align 8
  %1 = load ptr, ptr %args.addr2, align 8
  call void @_ZN5arrow6Status8FromArgsIJRA21_KcRKNS_8DataTypeEEEES0_NS_10StatusCodeEDpOT_(ptr sret(%"class.arrow::Status") align 8 %agg.result, i8 noundef signext 10, ptr noundef nonnull align 1 dereferenceable(21) %0, ptr noundef nonnull align 8 dereferenceable(72) %1)
  ret void
}

; Function Attrs: mustprogress nounwind uwtable
define linkonce_odr void @_ZN5arrow6ResultISt10shared_ptrINS_7compute8internal12CastFunctionEEEC2ERKNS_6StatusE(ptr noundef nonnull align 8 dereferenceable(24) %this, ptr noundef nonnull align 8 dereferenceable(8) %status) unnamed_addr #1 comdat align 2 personality ptr @__gxx_personality_v0 {
entry:
  %this.addr = alloca ptr, align 8
  %status.addr = alloca ptr, align 8
  %ref.tmp = alloca %"class.std::__cxx11::basic_string", align 8
  %ref.tmp3 = alloca %"class.std::__cxx11::basic_string", align 8
  %ref.tmp4 = alloca %"class.std::allocator.2", align 1
  %ref.tmp6 = alloca %"class.std::__cxx11::basic_string", align 8
  store ptr %this, ptr %this.addr, align 8
  store ptr %status, ptr %status.addr, align 8
  %this1 = load ptr, ptr %this.addr, align 8
  %status_ = getelementptr inbounds %"class.arrow::Result.69", ptr %this1, i32 0, i32 0
  %0 = load ptr, ptr %status.addr, align 8
  invoke void @_ZN5arrow6StatusC2ERKS0_(ptr noundef nonnull align 8 dereferenceable(8) %status_, ptr noundef nonnull align 8 dereferenceable(8) %0)
          to label %invoke.cont unwind label %terminate.lpad

invoke.cont:                                      ; preds = %entry
  %1 = load ptr, ptr %status.addr, align 8
  %call = call noundef zeroext i1 @_ZNK5arrow6Status2okEv(ptr noundef nonnull align 8 dereferenceable(8) %1)
  %lnot = xor i1 %call, true
  %lnot2 = xor i1 %lnot, true
  br i1 %lnot2, label %if.then, label %if.end

if.then:                                          ; preds = %invoke.cont
  call void @_ZNSaIcEC1Ev(ptr noundef nonnull align 1 dereferenceable(1) %ref.tmp4) #2
  invoke void @_ZNSt7__cxx1112basic_stringIcSt11char_traitsIcESaIcEEC2IS3_EEPKcRKS3_(ptr noundef nonnull align 8 dereferenceable(32) %ref.tmp3, ptr noundef @.str.29, ptr noundef nonnull align 1 dereferenceable(1) %ref.tmp4)
          to label %invoke.cont5 unwind label %terminate.lpad

invoke.cont5:                                     ; preds = %if.then
  %2 = load ptr, ptr %status.addr, align 8
  invoke void @_ZNK5arrow6Status8ToStringB5cxx11Ev(ptr sret(%"class.std::__cxx11::basic_string") align 8 %ref.tmp6, ptr noundef nonnull align 8 dereferenceable(8) %2)
          to label %invoke.cont7 unwind label %terminate.lpad

invoke.cont7:                                     ; preds = %invoke.cont5
  invoke void @_ZStplIcSt11char_traitsIcESaIcEENSt7__cxx1112basic_stringIT_T0_T1_EEOS8_S9_(ptr sret(%"class.std::__cxx11::basic_string") align 8 %ref.tmp, ptr noundef nonnull align 8 dereferenceable(32) %ref.tmp3, ptr noundef nonnull align 8 dereferenceable(32) %ref.tmp6)
          to label %invoke.cont8 unwind label %terminate.lpad

invoke.cont8:                                     ; preds = %invoke.cont7
  invoke void @_ZN5arrow8internal14DieWithMessageERKNSt7__cxx1112basic_stringIcSt11char_traitsIcESaIcEEE(ptr noundef nonnull align 8 dereferenceable(32) %ref.tmp)
          to label %invoke.cont9 unwind label %terminate.lpad

invoke.cont9:                                     ; preds = %invoke.cont8
  call void @_ZNSt7__cxx1112basic_stringIcSt11char_traitsIcESaIcEED1Ev(ptr noundef nonnull align 8 dereferenceable(32) %ref.tmp) #2
  call void @_ZNSt7__cxx1112basic_stringIcSt11char_traitsIcESaIcEED1Ev(ptr noundef nonnull align 8 dereferenceable(32) %ref.tmp6) #2
  call void @_ZNSt7__cxx1112basic_stringIcSt11char_traitsIcESaIcEED1Ev(ptr noundef nonnull align 8 dereferenceable(32) %ref.tmp3) #2
  call void @_ZNSaIcED1Ev(ptr noundef nonnull align 1 dereferenceable(1) %ref.tmp4) #2
  br label %if.end

if.end:                                           ; preds = %invoke.cont9, %invoke.cont
  ret void

terminate.lpad:                                   ; preds = %invoke.cont8, %invoke.cont7, %invoke.cont5, %if.then, %entry
  %3 = landingpad { ptr, i32 }
          catch ptr null
  %4 = extractvalue { ptr, i32 } %3, 0
  call void @__clang_call_terminate(ptr %4) #15
  unreachable
}

; Function Attrs: mustprogress nounwind uwtable
define linkonce_odr noundef ptr @_ZNKSt8__detail14_Node_iteratorISt4pairIKiSt10shared_ptrIN5arrow7compute8internal12CastFunctionEEELb0ELb0EEptEv(ptr noundef nonnull align 8 dereferenceable(8) %this) #1 comdat align 2 {
entry:
  %this.addr = alloca ptr, align 8
  store ptr %this, ptr %this.addr, align 8
  %this1 = load ptr, ptr %this.addr, align 8
  %_M_cur = getelementptr inbounds %"struct.std::__detail::_Node_iterator_base", ptr %this1, i32 0, i32 0
  %0 = load ptr, ptr %_M_cur, align 8
  %add.ptr = getelementptr inbounds i8, ptr %0, i64 8
  %call = call noundef ptr @_ZNSt8__detail21_Hash_node_value_baseISt4pairIKiSt10shared_ptrIN5arrow7compute8internal12CastFunctionEEEE9_M_valptrEv(ptr noundef nonnull align 8 dereferenceable(24) %add.ptr) #2
  ret ptr %call
}

; Function Attrs: mustprogress nounwind uwtable
define linkonce_odr void @_ZN5arrow6ResultISt10shared_ptrINS_7compute8internal12CastFunctionEEEC2IRS5_vEEOT_(ptr noundef nonnull align 8 dereferenceable(24) %this, ptr noundef nonnull align 8 dereferenceable(16) %value) unnamed_addr #1 comdat align 2 {
entry:
  %this.addr = alloca ptr, align 8
  %value.addr = alloca ptr, align 8
  store ptr %this, ptr %this.addr, align 8
  store ptr %value, ptr %value.addr, align 8
  %this1 = load ptr, ptr %this.addr, align 8
  %status_ = getelementptr inbounds %"class.arrow::Result.69", ptr %this1, i32 0, i32 0
  call void @_ZN5arrow6StatusC2Ev(ptr noundef nonnull align 8 dereferenceable(8) %status_) #2
  %0 = load ptr, ptr %value.addr, align 8
  call void @_ZN5arrow6ResultISt10shared_ptrINS_7compute8internal12CastFunctionEEE14ConstructValueIRS5_EEvOT_(ptr noundef nonnull align 8 dereferenceable(24) %this1, ptr noundef nonnull align 8 dereferenceable(16) %0) #2
  ret void
}

; Function Attrs: mustprogress uwtable
define void @_ZN5arrow7compute11CastOptionsC2Eb(ptr noundef nonnull align 8 dereferenceable(46) %this, i1 noundef zeroext %safe) unnamed_addr #4 align 2 {
entry:
  %this.addr = alloca ptr, align 8
  %safe.addr = alloca i8, align 1
  store ptr %this, ptr %this.addr, align 8
  %frombool = zext i1 %safe to i8
  store i8 %frombool, ptr %safe.addr, align 1
  %this1 = load ptr, ptr %this.addr, align 8
  %0 = load ptr, ptr @_ZN5arrow7compute8internal12_GLOBAL__N_116kCastOptionsTypeE, align 8
  call void @_ZN5arrow7compute15FunctionOptionsC2EPKNS0_19FunctionOptionsTypeE(ptr noundef nonnull align 8 dereferenceable(16) %this1, ptr noundef %0)
  store ptr getelementptr inbounds ({ [4 x ptr] }, ptr @_ZTVN5arrow7compute11CastOptionsE, i32 0, inrange i32 0, i32 2), ptr %this1, align 8
  %to_type = getelementptr inbounds %"class.arrow::compute::CastOptions", ptr %this1, i32 0, i32 1
  call void @_ZN5arrow10TypeHolderC2Ev(ptr noundef nonnull align 8 dereferenceable(24) %to_type) #2
  %allow_int_overflow = getelementptr inbounds %"class.arrow::compute::CastOptions", ptr %this1, i32 0, i32 2
  %1 = load i8, ptr %safe.addr, align 1
  %tobool = trunc i8 %1 to i1
  %lnot = xor i1 %tobool, true
  %frombool2 = zext i1 %lnot to i8
  store i8 %frombool2, ptr %allow_int_overflow, align 8
  %allow_time_truncate = getelementptr inbounds %"class.arrow::compute::CastOptions", ptr %this1, i32 0, i32 3
  %2 = load i8, ptr %safe.addr, align 1
  %tobool3 = trunc i8 %2 to i1
  %lnot4 = xor i1 %tobool3, true
  %frombool5 = zext i1 %lnot4 to i8
  store i8 %frombool5, ptr %allow_time_truncate, align 1
  %allow_time_overflow = getelementptr inbounds %"class.arrow::compute::CastOptions", ptr %this1, i32 0, i32 4
  %3 = load i8, ptr %safe.addr, align 1
  %tobool6 = trunc i8 %3 to i1
  %lnot7 = xor i1 %tobool6, true
  %frombool8 = zext i1 %lnot7 to i8
  store i8 %frombool8, ptr %allow_time_overflow, align 2
  %allow_decimal_truncate = getelementptr inbounds %"class.arrow::compute::CastOptions", ptr %this1, i32 0, i32 5
  %4 = load i8, ptr %safe.addr, align 1
  %tobool9 = trunc i8 %4 to i1
  %lnot10 = xor i1 %tobool9, true
  %frombool11 = zext i1 %lnot10 to i8
  store i8 %frombool11, ptr %allow_decimal_truncate, align 1
  %allow_float_truncate = getelementptr inbounds %"class.arrow::compute::CastOptions", ptr %this1, i32 0, i32 6
  %5 = load i8, ptr %safe.addr, align 1
  %tobool12 = trunc i8 %5 to i1
  %lnot13 = xor i1 %tobool12, true
  %frombool14 = zext i1 %lnot13 to i8
  store i8 %frombool14, ptr %allow_float_truncate, align 4
  %allow_invalid_utf8 = getelementptr inbounds %"class.arrow::compute::CastOptions", ptr %this1, i32 0, i32 7
  %6 = load i8, ptr %safe.addr, align 1
  %tobool15 = trunc i8 %6 to i1
  %lnot16 = xor i1 %tobool15, true
  %frombool17 = zext i1 %lnot16 to i8
  store i8 %frombool17, ptr %allow_invalid_utf8, align 1
  ret void
}

; Function Attrs: mustprogress nounwind uwtable
define linkonce_odr void @_ZN5arrow7compute15FunctionOptionsC2EPKNS0_19FunctionOptionsTypeE(ptr noundef nonnull align 8 dereferenceable(16) %this, ptr noundef %type) unnamed_addr #1 comdat align 2 {
entry:
  %this.addr = alloca ptr, align 8
  %type.addr = alloca ptr, align 8
  store ptr %this, ptr %this.addr, align 8
  store ptr %type, ptr %type.addr, align 8
  %this1 = load ptr, ptr %this.addr, align 8
  store ptr getelementptr inbounds ({ [4 x ptr] }, ptr @_ZTVN5arrow7compute15FunctionOptionsE, i32 0, inrange i32 0, i32 2), ptr %this1, align 8
  %options_type_ = getelementptr inbounds %"class.arrow::compute::FunctionOptions", ptr %this1, i32 0, i32 1
  %0 = load ptr, ptr %type.addr, align 8
  store ptr %0, ptr %options_type_, align 8
  ret void
}

; Function Attrs: mustprogress nounwind uwtable
define linkonce_odr void @_ZN5arrow10TypeHolderC2Ev(ptr noundef nonnull align 8 dereferenceable(24) %this) unnamed_addr #1 comdat align 2 {
entry:
  %this.addr = alloca ptr, align 8
  store ptr %this, ptr %this.addr, align 8
  %this1 = load ptr, ptr %this.addr, align 8
  %type = getelementptr inbounds %"struct.arrow::TypeHolder", ptr %this1, i32 0, i32 0
  store ptr null, ptr %type, align 8
  %owned_type = getelementptr inbounds %"struct.arrow::TypeHolder", ptr %this1, i32 0, i32 1
  call void @_ZNSt10shared_ptrIN5arrow8DataTypeEEC2Ev(ptr noundef nonnull align 8 dereferenceable(16) %owned_type) #2
  ret void
}

; Function Attrs: mustprogress nounwind uwtable
define noundef zeroext i1 @_ZNK5arrow7compute11CastOptions7is_safeEv(ptr noundef nonnull align 8 dereferenceable(46) %this) #1 align 2 {
entry:
  %this.addr = alloca ptr, align 8
  store ptr %this, ptr %this.addr, align 8
  %this1 = load ptr, ptr %this.addr, align 8
  %allow_int_overflow = getelementptr inbounds %"class.arrow::compute::CastOptions", ptr %this1, i32 0, i32 2
  %0 = load i8, ptr %allow_int_overflow, align 8
  %tobool = trunc i8 %0 to i1
  br i1 %tobool, label %land.end, label %land.lhs.true

land.lhs.true:                                    ; preds = %entry
  %allow_time_truncate = getelementptr inbounds %"class.arrow::compute::CastOptions", ptr %this1, i32 0, i32 3
  %1 = load i8, ptr %allow_time_truncate, align 1
  %tobool2 = trunc i8 %1 to i1
  br i1 %tobool2, label %land.end, label %land.lhs.true3

land.lhs.true3:                                   ; preds = %land.lhs.true
  %allow_time_overflow = getelementptr inbounds %"class.arrow::compute::CastOptions", ptr %this1, i32 0, i32 4
  %2 = load i8, ptr %allow_time_overflow, align 2
  %tobool4 = trunc i8 %2 to i1
  br i1 %tobool4, label %land.end, label %land.lhs.true5

land.lhs.true5:                                   ; preds = %land.lhs.true3
  %allow_decimal_truncate = getelementptr inbounds %"class.arrow::compute::CastOptions", ptr %this1, i32 0, i32 5
  %3 = load i8, ptr %allow_decimal_truncate, align 1
  %tobool6 = trunc i8 %3 to i1
  br i1 %tobool6, label %land.end, label %land.lhs.true7

land.lhs.true7:                                   ; preds = %land.lhs.true5
  %allow_float_truncate = getelementptr inbounds %"class.arrow::compute::CastOptions", ptr %this1, i32 0, i32 6
  %4 = load i8, ptr %allow_float_truncate, align 4
  %tobool8 = trunc i8 %4 to i1
  br i1 %tobool8, label %land.end, label %land.rhs

land.rhs:                                         ; preds = %land.lhs.true7
  %allow_invalid_utf8 = getelementptr inbounds %"class.arrow::compute::CastOptions", ptr %this1, i32 0, i32 7
  %5 = load i8, ptr %allow_invalid_utf8, align 1
  %tobool9 = trunc i8 %5 to i1
  %lnot = xor i1 %tobool9, true
  br label %land.end

land.end:                                         ; preds = %land.rhs, %land.lhs.true7, %land.lhs.true5, %land.lhs.true3, %land.lhs.true, %entry
  %6 = phi i1 [ false, %land.lhs.true7 ], [ false, %land.lhs.true5 ], [ false, %land.lhs.true3 ], [ false, %land.lhs.true ], [ false, %entry ], [ %lnot, %land.rhs ]
  ret i1 %6
}

; Function Attrs: mustprogress nounwind uwtable
define noundef zeroext i1 @_ZNK5arrow7compute11CastOptions9is_unsafeEv(ptr noundef nonnull align 8 dereferenceable(46) %this) #1 align 2 {
entry:
  %this.addr = alloca ptr, align 8
  store ptr %this, ptr %this.addr, align 8
  %this1 = load ptr, ptr %this.addr, align 8
  %allow_int_overflow = getelementptr inbounds %"class.arrow::compute::CastOptions", ptr %this1, i32 0, i32 2
  %0 = load i8, ptr %allow_int_overflow, align 8
  %tobool = trunc i8 %0 to i1
  br i1 %tobool, label %land.lhs.true, label %land.end

land.lhs.true:                                    ; preds = %entry
  %allow_time_truncate = getelementptr inbounds %"class.arrow::compute::CastOptions", ptr %this1, i32 0, i32 3
  %1 = load i8, ptr %allow_time_truncate, align 1
  %tobool2 = trunc i8 %1 to i1
  br i1 %tobool2, label %land.lhs.true3, label %land.end

land.lhs.true3:                                   ; preds = %land.lhs.true
  %allow_time_overflow = getelementptr inbounds %"class.arrow::compute::CastOptions", ptr %this1, i32 0, i32 4
  %2 = load i8, ptr %allow_time_overflow, align 2
  %tobool4 = trunc i8 %2 to i1
  br i1 %tobool4, label %land.lhs.true5, label %land.end

land.lhs.true5:                                   ; preds = %land.lhs.true3
  %allow_decimal_truncate = getelementptr inbounds %"class.arrow::compute::CastOptions", ptr %this1, i32 0, i32 5
  %3 = load i8, ptr %allow_decimal_truncate, align 1
  %tobool6 = trunc i8 %3 to i1
  br i1 %tobool6, label %land.lhs.true7, label %land.end

land.lhs.true7:                                   ; preds = %land.lhs.true5
  %allow_float_truncate = getelementptr inbounds %"class.arrow::compute::CastOptions", ptr %this1, i32 0, i32 6
  %4 = load i8, ptr %allow_float_truncate, align 4
  %tobool8 = trunc i8 %4 to i1
  br i1 %tobool8, label %land.rhs, label %land.end

land.rhs:                                         ; preds = %land.lhs.true7
  %allow_invalid_utf8 = getelementptr inbounds %"class.arrow::compute::CastOptions", ptr %this1, i32 0, i32 7
  %5 = load i8, ptr %allow_invalid_utf8, align 1
  %tobool9 = trunc i8 %5 to i1
  br label %land.end

land.end:                                         ; preds = %land.rhs, %land.lhs.true7, %land.lhs.true5, %land.lhs.true3, %land.lhs.true, %entry
  %6 = phi i1 [ false, %land.lhs.true7 ], [ false, %land.lhs.true5 ], [ false, %land.lhs.true3 ], [ false, %land.lhs.true ], [ false, %entry ], [ %tobool9, %land.rhs ]
  ret i1 %6
}

; Function Attrs: mustprogress uwtable
define void @_ZN5arrow7compute4CastERKNS_5DatumERKNS0_11CastOptionsEPNS0_11ExecContextE(ptr noalias sret(%"class.arrow::Result.79") align 8 %agg.result, ptr noundef nonnull align 8 dereferenceable(24) %value, ptr noundef nonnull align 8 dereferenceable(46) %options, ptr noundef %ctx) #4 personality ptr @__gxx_personality_v0 {
entry:
  %result.ptr = alloca ptr, align 8
  %value.addr = alloca ptr, align 8
  %options.addr = alloca ptr, align 8
  %ctx.addr = alloca ptr, align 8
  %ref.tmp = alloca %"class.std::__cxx11::basic_string", align 8
  %ref.tmp1 = alloca %"class.std::allocator.2", align 1
  %exn.slot = alloca ptr, align 8
  %ehselector.slot = alloca i32, align 4
  %ref.tmp2 = alloca %"class.std::vector.84", align 8
  %agg.tmp = alloca %"class.std::initializer_list.89", align 8
  %ref.tmp3 = alloca [1 x %"struct.arrow::Datum"], align 8
  %arrayinit.endOfInit = alloca ptr, align 8
  %ref.tmp7 = alloca %"class.std::allocator.86", align 1
  store ptr %agg.result, ptr %result.ptr, align 8
  store ptr %value, ptr %value.addr, align 8
  store ptr %options, ptr %options.addr, align 8
  store ptr %ctx, ptr %ctx.addr, align 8
  call void @_ZNSaIcEC1Ev(ptr noundef nonnull align 1 dereferenceable(1) %ref.tmp1) #2
  invoke void @_ZNSt7__cxx1112basic_stringIcSt11char_traitsIcESaIcEEC2IS3_EEPKcRKS3_(ptr noundef nonnull align 8 dereferenceable(32) %ref.tmp, ptr noundef @.str.17, ptr noundef nonnull align 1 dereferenceable(1) %ref.tmp1)
          to label %invoke.cont unwind label %lpad

invoke.cont:                                      ; preds = %entry
  %arrayinit.begin = getelementptr inbounds [1 x %"struct.arrow::Datum"], ptr %ref.tmp3, i64 0, i64 0
  store ptr %arrayinit.begin, ptr %arrayinit.endOfInit, align 8
  %0 = load ptr, ptr %value.addr, align 8
  invoke void @_ZN5arrow5DatumC2ERKS0_(ptr noundef nonnull align 8 dereferenceable(24) %arrayinit.begin, ptr noundef nonnull align 8 dereferenceable(24) %0)
          to label %invoke.cont5 unwind label %lpad4

invoke.cont5:                                     ; preds = %invoke.cont
  %_M_array = getelementptr inbounds %"class.std::initializer_list.89", ptr %agg.tmp, i32 0, i32 0
  %arraystart = getelementptr inbounds [1 x %"struct.arrow::Datum"], ptr %ref.tmp3, i64 0, i64 0
  store ptr %arraystart, ptr %_M_array, align 8
  %_M_len = getelementptr inbounds %"class.std::initializer_list.89", ptr %agg.tmp, i32 0, i32 1
  store i64 1, ptr %_M_len, align 8
  call void @_ZNSaIN5arrow5DatumEEC2Ev(ptr noundef nonnull align 1 dereferenceable(1) %ref.tmp7) #2
  %1 = getelementptr inbounds { ptr, i64 }, ptr %agg.tmp, i32 0, i32 0
  %2 = load ptr, ptr %1, align 8
  %3 = getelementptr inbounds { ptr, i64 }, ptr %agg.tmp, i32 0, i32 1
  %4 = load i64, ptr %3, align 8
  invoke void @_ZNSt6vectorIN5arrow5DatumESaIS1_EEC2ESt16initializer_listIS1_ERKS2_(ptr noundef nonnull align 8 dereferenceable(24) %ref.tmp2, ptr %2, i64 %4, ptr noundef nonnull align 1 dereferenceable(1) %ref.tmp7)
          to label %invoke.cont9 unwind label %lpad8

invoke.cont9:                                     ; preds = %invoke.cont5
  %5 = load ptr, ptr %options.addr, align 8
  %6 = load ptr, ptr %ctx.addr, align 8
  invoke void @_ZN5arrow7compute12CallFunctionERKNSt7__cxx1112basic_stringIcSt11char_traitsIcESaIcEEERKSt6vectorINS_5DatumESaISA_EEPKNS0_15FunctionOptionsEPNS0_11ExecContextE(ptr sret(%"class.arrow::Result.79") align 8 %agg.result, ptr noundef nonnull align 8 dereferenceable(32) %ref.tmp, ptr noundef nonnull align 8 dereferenceable(24) %ref.tmp2, ptr noundef %5, ptr noundef %6)
          to label %invoke.cont11 unwind label %lpad10

invoke.cont11:                                    ; preds = %invoke.cont9
  call void @_ZNSt6vectorIN5arrow5DatumESaIS1_EED2Ev(ptr noundef nonnull align 8 dereferenceable(24) %ref.tmp2) #2
  call void @_ZNSaIN5arrow5DatumEED2Ev(ptr noundef nonnull align 1 dereferenceable(1) %ref.tmp7) #2
  %array.begin = getelementptr inbounds [1 x %"struct.arrow::Datum"], ptr %ref.tmp3, i32 0, i32 0
  %7 = getelementptr inbounds %"struct.arrow::Datum", ptr %array.begin, i64 1
  br label %arraydestroy.body12

arraydestroy.body12:                              ; preds = %arraydestroy.body12, %invoke.cont11
  %arraydestroy.elementPast13 = phi ptr [ %7, %invoke.cont11 ], [ %arraydestroy.element14, %arraydestroy.body12 ]
  %arraydestroy.element14 = getelementptr inbounds %"struct.arrow::Datum", ptr %arraydestroy.elementPast13, i64 -1
  call void @_ZN5arrow5DatumD2Ev(ptr noundef nonnull align 8 dereferenceable(24) %arraydestroy.element14) #2
  %arraydestroy.done15 = icmp eq ptr %arraydestroy.element14, %array.begin
  br i1 %arraydestroy.done15, label %arraydestroy.done16, label %arraydestroy.body12

arraydestroy.done16:                              ; preds = %arraydestroy.body12
  call void @_ZNSt7__cxx1112basic_stringIcSt11char_traitsIcESaIcEED1Ev(ptr noundef nonnull align 8 dereferenceable(32) %ref.tmp) #2
  call void @_ZNSaIcED1Ev(ptr noundef nonnull align 1 dereferenceable(1) %ref.tmp1) #2
  ret void

lpad:                                             ; preds = %entry
  %8 = landingpad { ptr, i32 }
          cleanup
  %9 = extractvalue { ptr, i32 } %8, 0
  store ptr %9, ptr %exn.slot, align 8
  %10 = extractvalue { ptr, i32 } %8, 1
  store i32 %10, ptr %ehselector.slot, align 4
  br label %ehcleanup25

lpad4:                                            ; preds = %invoke.cont
  %11 = landingpad { ptr, i32 }
          cleanup
  %12 = extractvalue { ptr, i32 } %11, 0
  store ptr %12, ptr %exn.slot, align 8
  %13 = extractvalue { ptr, i32 } %11, 1
  store i32 %13, ptr %ehselector.slot, align 4
  %14 = load ptr, ptr %arrayinit.endOfInit, align 8
  %arraydestroy.isempty = icmp eq ptr %arrayinit.begin, %14
  br i1 %arraydestroy.isempty, label %arraydestroy.done6, label %arraydestroy.body

arraydestroy.body:                                ; preds = %arraydestroy.body, %lpad4
  %arraydestroy.elementPast = phi ptr [ %14, %lpad4 ], [ %arraydestroy.element, %arraydestroy.body ]
  %arraydestroy.element = getelementptr inbounds %"struct.arrow::Datum", ptr %arraydestroy.elementPast, i64 -1
  call void @_ZN5arrow5DatumD2Ev(ptr noundef nonnull align 8 dereferenceable(24) %arraydestroy.element) #2
  %arraydestroy.done = icmp eq ptr %arraydestroy.element, %arrayinit.begin
  br i1 %arraydestroy.done, label %arraydestroy.done6, label %arraydestroy.body

arraydestroy.done6:                               ; preds = %arraydestroy.body, %lpad4
  br label %ehcleanup24

lpad8:                                            ; preds = %invoke.cont5
  %15 = landingpad { ptr, i32 }
          cleanup
  %16 = extractvalue { ptr, i32 } %15, 0
  store ptr %16, ptr %exn.slot, align 8
  %17 = extractvalue { ptr, i32 } %15, 1
  store i32 %17, ptr %ehselector.slot, align 4
  br label %ehcleanup

lpad10:                                           ; preds = %invoke.cont9
  %18 = landingpad { ptr, i32 }
          cleanup
  %19 = extractvalue { ptr, i32 } %18, 0
  store ptr %19, ptr %exn.slot, align 8
  %20 = extractvalue { ptr, i32 } %18, 1
  store i32 %20, ptr %ehselector.slot, align 4
  call void @_ZNSt6vectorIN5arrow5DatumESaIS1_EED2Ev(ptr noundef nonnull align 8 dereferenceable(24) %ref.tmp2) #2
  br label %ehcleanup

ehcleanup:                                        ; preds = %lpad10, %lpad8
  call void @_ZNSaIN5arrow5DatumEED2Ev(ptr noundef nonnull align 1 dereferenceable(1) %ref.tmp7) #2
  %array.begin18 = getelementptr inbounds [1 x %"struct.arrow::Datum"], ptr %ref.tmp3, i32 0, i32 0
  %21 = getelementptr inbounds %"struct.arrow::Datum", ptr %array.begin18, i64 1
  br label %arraydestroy.body19

arraydestroy.body19:                              ; preds = %arraydestroy.body19, %ehcleanup
  %arraydestroy.elementPast20 = phi ptr [ %21, %ehcleanup ], [ %arraydestroy.element21, %arraydestroy.body19 ]
  %arraydestroy.element21 = getelementptr inbounds %"struct.arrow::Datum", ptr %arraydestroy.elementPast20, i64 -1
  call void @_ZN5arrow5DatumD2Ev(ptr noundef nonnull align 8 dereferenceable(24) %arraydestroy.element21) #2
  %arraydestroy.done22 = icmp eq ptr %arraydestroy.element21, %array.begin18
  br i1 %arraydestroy.done22, label %arraydestroy.done23, label %arraydestroy.body19

arraydestroy.done23:                              ; preds = %arraydestroy.body19
  br label %ehcleanup24

ehcleanup24:                                      ; preds = %arraydestroy.done23, %arraydestroy.done6
  call void @_ZNSt7__cxx1112basic_stringIcSt11char_traitsIcESaIcEED1Ev(ptr noundef nonnull align 8 dereferenceable(32) %ref.tmp) #2
  br label %ehcleanup25

ehcleanup25:                                      ; preds = %ehcleanup24, %lpad
  call void @_ZNSaIcED1Ev(ptr noundef nonnull align 1 dereferenceable(1) %ref.tmp1) #2
  br label %eh.resume

eh.resume:                                        ; preds = %ehcleanup25
  %exn = load ptr, ptr %exn.slot, align 8
  %sel = load i32, ptr %ehselector.slot, align 4
  %lpad.val = insertvalue { ptr, i32 } poison, ptr %exn, 0
  %lpad.val26 = insertvalue { ptr, i32 } %lpad.val, i32 %sel, 1
  resume { ptr, i32 } %lpad.val26
}

declare void @_ZN5arrow7compute12CallFunctionERKNSt7__cxx1112basic_stringIcSt11char_traitsIcESaIcEEERKSt6vectorINS_5DatumESaISA_EEPKNS0_15FunctionOptionsEPNS0_11ExecContextE(ptr sret(%"class.arrow::Result.79") align 8, ptr noundef nonnull align 8 dereferenceable(32), ptr noundef nonnull align 8 dereferenceable(24), ptr noundef, ptr noundef) #5

; Function Attrs: mustprogress uwtable
define linkonce_odr void @_ZN5arrow5DatumC2ERKS0_(ptr noundef nonnull align 8 dereferenceable(24) %this, ptr noundef nonnull align 8 dereferenceable(24) %other) unnamed_addr #4 comdat align 2 {
entry:
  %this.addr = alloca ptr, align 8
  %other.addr = alloca ptr, align 8
  store ptr %this, ptr %this.addr, align 8
  store ptr %other, ptr %other.addr, align 8
  %this1 = load ptr, ptr %this.addr, align 8
  %value = getelementptr inbounds %"struct.arrow::Datum", ptr %this1, i32 0, i32 0
  %0 = load ptr, ptr %other.addr, align 8
  %value2 = getelementptr inbounds %"struct.arrow::Datum", ptr %0, i32 0, i32 0
  call void @_ZNSt7variantIJN5arrow5Datum5EmptyESt10shared_ptrINS0_6ScalarEES3_INS0_9ArrayDataEES3_INS0_12ChunkedArrayEES3_INS0_11RecordBatchEES3_INS0_5TableEEEEC2ERKSE_(ptr noundef nonnull align 8 dereferenceable(17) %value, ptr noundef nonnull align 8 dereferenceable(17) %value2)
  ret void
}

; Function Attrs: mustprogress nounwind uwtable
define linkonce_odr void @_ZN5arrow5DatumD2Ev(ptr noundef nonnull align 8 dereferenceable(24) %this) unnamed_addr #1 comdat align 2 {
entry:
  %this.addr = alloca ptr, align 8
  store ptr %this, ptr %this.addr, align 8
  %this1 = load ptr, ptr %this.addr, align 8
  %value = getelementptr inbounds %"struct.arrow::Datum", ptr %this1, i32 0, i32 0
  call void @_ZNSt7variantIJN5arrow5Datum5EmptyESt10shared_ptrINS0_6ScalarEES3_INS0_9ArrayDataEES3_INS0_12ChunkedArrayEES3_INS0_11RecordBatchEES3_INS0_5TableEEEED2Ev(ptr noundef nonnull align 8 dereferenceable(17) %value) #2
  ret void
}

; Function Attrs: mustprogress nounwind uwtable
define linkonce_odr void @_ZNSaIN5arrow5DatumEEC2Ev(ptr noundef nonnull align 1 dereferenceable(1) %this) unnamed_addr #1 comdat align 2 {
entry:
  %this.addr = alloca ptr, align 8
  store ptr %this, ptr %this.addr, align 8
  %this1 = load ptr, ptr %this.addr, align 8
  call void @_ZNSt15__new_allocatorIN5arrow5DatumEEC2Ev(ptr noundef nonnull align 1 dereferenceable(1) %this1) #2
  ret void
}

; Function Attrs: mustprogress uwtable
define linkonce_odr void @_ZNSt6vectorIN5arrow5DatumESaIS1_EEC2ESt16initializer_listIS1_ERKS2_(ptr noundef nonnull align 8 dereferenceable(24) %this, ptr %__l.coerce0, i64 %__l.coerce1, ptr noundef nonnull align 1 dereferenceable(1) %__a) unnamed_addr #4 comdat align 2 personality ptr @__gxx_personality_v0 {
entry:
  %__l = alloca %"class.std::initializer_list.89", align 8
  %this.addr = alloca ptr, align 8
  %__a.addr = alloca ptr, align 8
  %exn.slot = alloca ptr, align 8
  %ehselector.slot = alloca i32, align 4
  %0 = getelementptr inbounds { ptr, i64 }, ptr %__l, i32 0, i32 0
  store ptr %__l.coerce0, ptr %0, align 8
  %1 = getelementptr inbounds { ptr, i64 }, ptr %__l, i32 0, i32 1
  store i64 %__l.coerce1, ptr %1, align 8
  store ptr %this, ptr %this.addr, align 8
  store ptr %__a, ptr %__a.addr, align 8
  %this1 = load ptr, ptr %this.addr, align 8
  %2 = load ptr, ptr %__a.addr, align 8
  call void @_ZNSt12_Vector_baseIN5arrow5DatumESaIS1_EEC2ERKS2_(ptr noundef nonnull align 8 dereferenceable(24) %this1, ptr noundef nonnull align 1 dereferenceable(1) %2) #2
  %call = call noundef ptr @_ZNKSt16initializer_listIN5arrow5DatumEE5beginEv(ptr noundef nonnull align 8 dereferenceable(16) %__l) #2
  %call2 = call noundef ptr @_ZNKSt16initializer_listIN5arrow5DatumEE3endEv(ptr noundef nonnull align 8 dereferenceable(16) %__l) #2
  invoke void @_ZNSt6vectorIN5arrow5DatumESaIS1_EE19_M_range_initializeIPKS1_EEvT_S7_St20forward_iterator_tag(ptr noundef nonnull align 8 dereferenceable(24) %this1, ptr noundef %call, ptr noundef %call2)
          to label %invoke.cont unwind label %lpad

invoke.cont:                                      ; preds = %entry
  ret void

lpad:                                             ; preds = %entry
  %3 = landingpad { ptr, i32 }
          cleanup
  %4 = extractvalue { ptr, i32 } %3, 0
  store ptr %4, ptr %exn.slot, align 8
  %5 = extractvalue { ptr, i32 } %3, 1
  store i32 %5, ptr %ehselector.slot, align 4
  call void @_ZNSt12_Vector_baseIN5arrow5DatumESaIS1_EED2Ev(ptr noundef nonnull align 8 dereferenceable(24) %this1) #2
  br label %eh.resume

eh.resume:                                        ; preds = %lpad
  %exn = load ptr, ptr %exn.slot, align 8
  %sel = load i32, ptr %ehselector.slot, align 4
  %lpad.val = insertvalue { ptr, i32 } poison, ptr %exn, 0
  %lpad.val3 = insertvalue { ptr, i32 } %lpad.val, i32 %sel, 1
  resume { ptr, i32 } %lpad.val3
}

; Function Attrs: mustprogress nounwind uwtable
define linkonce_odr void @_ZNSt6vectorIN5arrow5DatumESaIS1_EED2Ev(ptr noundef nonnull align 8 dereferenceable(24) %this) unnamed_addr #1 comdat align 2 personality ptr @__gxx_personality_v0 {
entry:
  %this.addr = alloca ptr, align 8
  store ptr %this, ptr %this.addr, align 8
  %this1 = load ptr, ptr %this.addr, align 8
  %_M_impl = getelementptr inbounds %"struct.std::_Vector_base.85", ptr %this1, i32 0, i32 0
  %_M_start = getelementptr inbounds %"struct.std::_Vector_base<arrow::Datum, std::allocator<arrow::Datum>>::_Vector_impl_data", ptr %_M_impl, i32 0, i32 0
  %0 = load ptr, ptr %_M_start, align 8
  %_M_impl2 = getelementptr inbounds %"struct.std::_Vector_base.85", ptr %this1, i32 0, i32 0
  %_M_finish = getelementptr inbounds %"struct.std::_Vector_base<arrow::Datum, std::allocator<arrow::Datum>>::_Vector_impl_data", ptr %_M_impl2, i32 0, i32 1
  %1 = load ptr, ptr %_M_finish, align 8
  %call = call noundef nonnull align 1 dereferenceable(1) ptr @_ZNSt12_Vector_baseIN5arrow5DatumESaIS1_EE19_M_get_Tp_allocatorEv(ptr noundef nonnull align 8 dereferenceable(24) %this1) #2
  invoke void @_ZSt8_DestroyIPN5arrow5DatumES1_EvT_S3_RSaIT0_E(ptr noundef %0, ptr noundef %1, ptr noundef nonnull align 1 dereferenceable(1) %call)
          to label %invoke.cont unwind label %terminate.lpad

invoke.cont:                                      ; preds = %entry
  call void @_ZNSt12_Vector_baseIN5arrow5DatumESaIS1_EED2Ev(ptr noundef nonnull align 8 dereferenceable(24) %this1) #2
  ret void

terminate.lpad:                                   ; preds = %entry
  %2 = landingpad { ptr, i32 }
          catch ptr null
  %3 = extractvalue { ptr, i32 } %2, 0
  call void @__clang_call_terminate(ptr %3) #15
  unreachable
}

; Function Attrs: mustprogress nounwind uwtable
define linkonce_odr void @_ZNSaIN5arrow5DatumEED2Ev(ptr noundef nonnull align 1 dereferenceable(1) %this) unnamed_addr #1 comdat align 2 {
entry:
  %this.addr = alloca ptr, align 8
  store ptr %this, ptr %this.addr, align 8
  %this1 = load ptr, ptr %this.addr, align 8
  call void @_ZNSt15__new_allocatorIN5arrow5DatumEED2Ev(ptr noundef nonnull align 1 dereferenceable(1) %this1) #2
  ret void
}

; Function Attrs: mustprogress uwtable
define void @_ZN5arrow7compute4CastERKNS_5DatumERKNS_10TypeHolderERKNS0_11CastOptionsEPNS0_11ExecContextE(ptr noalias sret(%"class.arrow::Result.79") align 8 %agg.result, ptr noundef nonnull align 8 dereferenceable(24) %value, ptr noundef nonnull align 8 dereferenceable(24) %to_type, ptr noundef nonnull align 8 dereferenceable(46) %options, ptr noundef %ctx) #4 personality ptr @__gxx_personality_v0 {
entry:
  %result.ptr = alloca ptr, align 8
  %value.addr = alloca ptr, align 8
  %to_type.addr = alloca ptr, align 8
  %options.addr = alloca ptr, align 8
  %ctx.addr = alloca ptr, align 8
  %options_with_to_type = alloca %"class.arrow::compute::CastOptions", align 8
  %exn.slot = alloca ptr, align 8
  %ehselector.slot = alloca i32, align 4
  store ptr %agg.result, ptr %result.ptr, align 8
  store ptr %value, ptr %value.addr, align 8
  store ptr %to_type, ptr %to_type.addr, align 8
  store ptr %options, ptr %options.addr, align 8
  store ptr %ctx, ptr %ctx.addr, align 8
  %0 = load ptr, ptr %options.addr, align 8
  call void @_ZN5arrow7compute11CastOptionsC2ERKS1_(ptr noundef nonnull align 8 dereferenceable(46) %options_with_to_type, ptr noundef nonnull align 8 dereferenceable(46) %0) #2
  %1 = load ptr, ptr %to_type.addr, align 8
  %to_type1 = getelementptr inbounds %"class.arrow::compute::CastOptions", ptr %options_with_to_type, i32 0, i32 1
  %call = call noundef nonnull align 8 dereferenceable(24) ptr @_ZN5arrow10TypeHolderaSERKS0_(ptr noundef nonnull align 8 dereferenceable(24) %to_type1, ptr noundef nonnull align 8 dereferenceable(24) %1) #2
  %2 = load ptr, ptr %value.addr, align 8
  %3 = load ptr, ptr %ctx.addr, align 8
  invoke void @_ZN5arrow7compute4CastERKNS_5DatumERKNS0_11CastOptionsEPNS0_11ExecContextE(ptr sret(%"class.arrow::Result.79") align 8 %agg.result, ptr noundef nonnull align 8 dereferenceable(24) %2, ptr noundef nonnull align 8 dereferenceable(46) %options_with_to_type, ptr noundef %3)
          to label %invoke.cont unwind label %lpad

invoke.cont:                                      ; preds = %entry
  call void @_ZN5arrow7compute11CastOptionsD2Ev(ptr noundef nonnull align 8 dereferenceable(46) %options_with_to_type) #2
  ret void

lpad:                                             ; preds = %entry
  %4 = landingpad { ptr, i32 }
          cleanup
  %5 = extractvalue { ptr, i32 } %4, 0
  store ptr %5, ptr %exn.slot, align 8
  %6 = extractvalue { ptr, i32 } %4, 1
  store i32 %6, ptr %ehselector.slot, align 4
  call void @_ZN5arrow7compute11CastOptionsD2Ev(ptr noundef nonnull align 8 dereferenceable(46) %options_with_to_type) #2
  br label %eh.resume

eh.resume:                                        ; preds = %lpad
  %exn = load ptr, ptr %exn.slot, align 8
  %sel = load i32, ptr %ehselector.slot, align 4
  %lpad.val = insertvalue { ptr, i32 } poison, ptr %exn, 0
  %lpad.val2 = insertvalue { ptr, i32 } %lpad.val, i32 %sel, 1
  resume { ptr, i32 } %lpad.val2
}

; Function Attrs: mustprogress nounwind uwtable
define linkonce_odr void @_ZN5arrow7compute11CastOptionsC2ERKS1_(ptr noundef nonnull align 8 dereferenceable(46) %this, ptr noundef nonnull align 8 dereferenceable(46) %0) unnamed_addr #1 comdat align 2 {
entry:
  %this.addr = alloca ptr, align 8
  %.addr = alloca ptr, align 8
  store ptr %this, ptr %this.addr, align 8
  store ptr %0, ptr %.addr, align 8
  %this1 = load ptr, ptr %this.addr, align 8
  %1 = load ptr, ptr %.addr, align 8
  call void @_ZN5arrow7compute15FunctionOptionsC2ERKS1_(ptr noundef nonnull align 8 dereferenceable(16) %this1, ptr noundef nonnull align 8 dereferenceable(16) %1) #2
  store ptr getelementptr inbounds ({ [4 x ptr] }, ptr @_ZTVN5arrow7compute11CastOptionsE, i32 0, inrange i32 0, i32 2), ptr %this1, align 8
  %to_type = getelementptr inbounds %"class.arrow::compute::CastOptions", ptr %this1, i32 0, i32 1
  %2 = load ptr, ptr %.addr, align 8
  %to_type2 = getelementptr inbounds %"class.arrow::compute::CastOptions", ptr %2, i32 0, i32 1
  call void @_ZN5arrow10TypeHolderC2ERKS0_(ptr noundef nonnull align 8 dereferenceable(24) %to_type, ptr noundef nonnull align 8 dereferenceable(24) %to_type2) #2
  %allow_int_overflow = getelementptr inbounds %"class.arrow::compute::CastOptions", ptr %this1, i32 0, i32 2
  %3 = load ptr, ptr %.addr, align 8
  %allow_int_overflow3 = getelementptr inbounds %"class.arrow::compute::CastOptions", ptr %3, i32 0, i32 2
  call void @llvm.memcpy.p0.p0.i64(ptr align 8 %allow_int_overflow, ptr align 8 %allow_int_overflow3, i64 6, i1 false)
  ret void
}

; Function Attrs: mustprogress nounwind uwtable
define linkonce_odr noundef nonnull align 8 dereferenceable(24) ptr @_ZN5arrow10TypeHolderaSERKS0_(ptr noundef nonnull align 8 dereferenceable(24) %this, ptr noundef nonnull align 8 dereferenceable(24) %other) #1 comdat align 2 {
entry:
  %this.addr = alloca ptr, align 8
  %other.addr = alloca ptr, align 8
  store ptr %this, ptr %this.addr, align 8
  store ptr %other, ptr %other.addr, align 8
  %this1 = load ptr, ptr %this.addr, align 8
  %0 = load ptr, ptr %other.addr, align 8
  %type = getelementptr inbounds %"struct.arrow::TypeHolder", ptr %0, i32 0, i32 0
  %1 = load ptr, ptr %type, align 8
  %type2 = getelementptr inbounds %"struct.arrow::TypeHolder", ptr %this1, i32 0, i32 0
  store ptr %1, ptr %type2, align 8
  %owned_type = getelementptr inbounds %"struct.arrow::TypeHolder", ptr %this1, i32 0, i32 1
  %2 = load ptr, ptr %other.addr, align 8
  %owned_type3 = getelementptr inbounds %"struct.arrow::TypeHolder", ptr %2, i32 0, i32 1
  %call = call noundef nonnull align 8 dereferenceable(16) ptr @_ZNSt10shared_ptrIN5arrow8DataTypeEEaSERKS2_(ptr noundef nonnull align 8 dereferenceable(16) %owned_type, ptr noundef nonnull align 8 dereferenceable(16) %owned_type3) #2
  ret ptr %this1
}

; Function Attrs: mustprogress nounwind uwtable
define linkonce_odr void @_ZN5arrow7compute11CastOptionsD2Ev(ptr noundef nonnull align 8 dereferenceable(46) %this) unnamed_addr #1 comdat align 2 {
entry:
  %this.addr = alloca ptr, align 8
  store ptr %this, ptr %this.addr, align 8
  %this1 = load ptr, ptr %this.addr, align 8
  store ptr getelementptr inbounds ({ [4 x ptr] }, ptr @_ZTVN5arrow7compute11CastOptionsE, i32 0, inrange i32 0, i32 2), ptr %this1, align 8
  %to_type = getelementptr inbounds %"class.arrow::compute::CastOptions", ptr %this1, i32 0, i32 1
  call void @_ZN5arrow10TypeHolderD2Ev(ptr noundef nonnull align 8 dereferenceable(24) %to_type) #2
  call void @_ZN5arrow7compute15FunctionOptionsD2Ev(ptr noundef nonnull align 8 dereferenceable(16) %this1) #2
  ret void
}

; Function Attrs: mustprogress uwtable
define void @_ZN5arrow7compute4CastERKNS_5ArrayERKNS_10TypeHolderERKNS0_11CastOptionsEPNS0_11ExecContextE(ptr noalias sret(%"class.arrow::Result.107") align 8 %agg.result, ptr noundef nonnull align 8 dereferenceable(32) %value, ptr noundef nonnull align 8 dereferenceable(24) %to_type, ptr noundef nonnull align 8 dereferenceable(46) %options, ptr noundef %ctx) #4 personality ptr @__gxx_personality_v0 {
entry:
  %result.ptr = alloca ptr, align 8
  %value.addr = alloca ptr, align 8
  %to_type.addr = alloca ptr, align 8
  %options.addr = alloca ptr, align 8
  %ctx.addr = alloca ptr, align 8
  %_error_or_value24 = alloca ptr, align 8
  %ref.tmp = alloca %"class.arrow::Result.79", align 8
  %ref.tmp1 = alloca %"struct.arrow::Datum", align 8
  %exn.slot = alloca ptr, align 8
  %ehselector.slot = alloca i32, align 4
  %cleanup.dest.slot = alloca i32, align 4
  %result = alloca %"struct.arrow::Datum", align 8
  %ref.tmp9 = alloca %"class.std::shared_ptr.114", align 8
  store ptr %agg.result, ptr %result.ptr, align 8
  store ptr %value, ptr %value.addr, align 8
  store ptr %to_type, ptr %to_type.addr, align 8
  store ptr %options, ptr %options.addr, align 8
  store ptr %ctx, ptr %ctx.addr, align 8
  %0 = load ptr, ptr %value.addr, align 8
  call void @_ZN5arrow5DatumC1ERKNS_5ArrayE(ptr noundef nonnull align 8 dereferenceable(24) %ref.tmp1, ptr noundef nonnull align 8 dereferenceable(32) %0)
  %1 = load ptr, ptr %to_type.addr, align 8
  %2 = load ptr, ptr %options.addr, align 8
  %3 = load ptr, ptr %ctx.addr, align 8
  invoke void @_ZN5arrow7compute4CastERKNS_5DatumERKNS_10TypeHolderERKNS0_11CastOptionsEPNS0_11ExecContextE(ptr sret(%"class.arrow::Result.79") align 8 %ref.tmp, ptr noundef nonnull align 8 dereferenceable(24) %ref.tmp1, ptr noundef nonnull align 8 dereferenceable(24) %1, ptr noundef nonnull align 8 dereferenceable(46) %2, ptr noundef %3)
          to label %invoke.cont unwind label %lpad

invoke.cont:                                      ; preds = %entry
  call void @_ZN5arrow5DatumD2Ev(ptr noundef nonnull align 8 dereferenceable(24) %ref.tmp1) #2
  store ptr %ref.tmp, ptr %_error_or_value24, align 8
  br label %do.body

do.body:                                          ; preds = %invoke.cont
  %4 = load ptr, ptr %_error_or_value24, align 8
  %call = invoke noundef zeroext i1 @_ZNK5arrow6ResultINS_5DatumEE2okEv(ptr noundef nonnull align 8 dereferenceable(32) %4)
          to label %invoke.cont3 unwind label %lpad2

invoke.cont3:                                     ; preds = %do.body
  %lnot = xor i1 %call, true
  %lnot4 = xor i1 %lnot, true
  %lnot5 = xor i1 %lnot4, true
  br i1 %lnot5, label %if.then, label %if.end

if.then:                                          ; preds = %invoke.cont3
  %5 = load ptr, ptr %_error_or_value24, align 8
  %call7 = invoke noundef nonnull align 8 dereferenceable(8) ptr @_ZNK5arrow6ResultINS_5DatumEE6statusEv(ptr noundef nonnull align 8 dereferenceable(32) %5)
          to label %invoke.cont6 unwind label %lpad2

invoke.cont6:                                     ; preds = %if.then
  call void @_ZN5arrow6ResultISt10shared_ptrINS_5ArrayEEEC2ERKNS_6StatusE(ptr noundef nonnull align 8 dereferenceable(24) %agg.result, ptr noundef nonnull align 8 dereferenceable(8) %call7) #2
  store i32 1, ptr %cleanup.dest.slot, align 4
  br label %cleanup

lpad:                                             ; preds = %entry
  %6 = landingpad { ptr, i32 }
          cleanup
  %7 = extractvalue { ptr, i32 } %6, 0
  store ptr %7, ptr %exn.slot, align 8
  %8 = extractvalue { ptr, i32 } %6, 1
  store i32 %8, ptr %ehselector.slot, align 4
  call void @_ZN5arrow5DatumD2Ev(ptr noundef nonnull align 8 dereferenceable(24) %ref.tmp1) #2
  br label %eh.resume

lpad2:                                            ; preds = %do.end, %if.then, %do.body
  %9 = landingpad { ptr, i32 }
          cleanup
  %10 = extractvalue { ptr, i32 } %9, 0
  store ptr %10, ptr %exn.slot, align 8
  %11 = extractvalue { ptr, i32 } %9, 1
  store i32 %11, ptr %ehselector.slot, align 4
  br label %ehcleanup

if.end:                                           ; preds = %invoke.cont3
  br label %do.cond

do.cond:                                          ; preds = %if.end
  br label %do.end

do.end:                                           ; preds = %do.cond
  %12 = load ptr, ptr %_error_or_value24, align 8
  invoke void @_ZNO5arrow6ResultINS_5DatumEE11ValueUnsafeEv(ptr sret(%"struct.arrow::Datum") align 8 %result, ptr noundef nonnull align 8 dereferenceable(32) %12)
          to label %invoke.cont8 unwind label %lpad2

invoke.cont8:                                     ; preds = %do.end
  invoke void @_ZNK5arrow5Datum10make_arrayEv(ptr sret(%"class.std::shared_ptr.114") align 8 %ref.tmp9, ptr noundef nonnull align 8 dereferenceable(24) %result)
          to label %invoke.cont11 unwind label %lpad10

invoke.cont11:                                    ; preds = %invoke.cont8
  call void @_ZN5arrow6ResultISt10shared_ptrINS_5ArrayEEEC2EOS3_(ptr noundef nonnull align 8 dereferenceable(24) %agg.result, ptr noundef nonnull align 8 dereferenceable(16) %ref.tmp9) #2
  call void @_ZNSt10shared_ptrIN5arrow5ArrayEED2Ev(ptr noundef nonnull align 8 dereferenceable(16) %ref.tmp9) #2
  store i32 1, ptr %cleanup.dest.slot, align 4
  call void @_ZN5arrow5DatumD2Ev(ptr noundef nonnull align 8 dereferenceable(24) %result) #2
  br label %cleanup

lpad10:                                           ; preds = %invoke.cont8
  %13 = landingpad { ptr, i32 }
          cleanup
  %14 = extractvalue { ptr, i32 } %13, 0
  store ptr %14, ptr %exn.slot, align 8
  %15 = extractvalue { ptr, i32 } %13, 1
  store i32 %15, ptr %ehselector.slot, align 4
  call void @_ZN5arrow5DatumD2Ev(ptr noundef nonnull align 8 dereferenceable(24) %result) #2
  br label %ehcleanup

cleanup:                                          ; preds = %invoke.cont11, %invoke.cont6
  call void @_ZN5arrow6ResultINS_5DatumEED2Ev(ptr noundef nonnull align 8 dereferenceable(32) %ref.tmp) #2
  ret void

ehcleanup:                                        ; preds = %lpad10, %lpad2
  call void @_ZN5arrow6ResultINS_5DatumEED2Ev(ptr noundef nonnull align 8 dereferenceable(32) %ref.tmp) #2
  br label %eh.resume

eh.resume:                                        ; preds = %ehcleanup, %lpad
  %exn = load ptr, ptr %exn.slot, align 8
  %sel = load i32, ptr %ehselector.slot, align 4
  %lpad.val = insertvalue { ptr, i32 } poison, ptr %exn, 0
  %lpad.val12 = insertvalue { ptr, i32 } %lpad.val, i32 %sel, 1
  resume { ptr, i32 } %lpad.val12
}

declare void @_ZN5arrow5DatumC1ERKNS_5ArrayE(ptr noundef nonnull align 8 dereferenceable(24), ptr noundef nonnull align 8 dereferenceable(32)) unnamed_addr #5

; Function Attrs: mustprogress nounwind uwtable
define linkonce_odr noundef zeroext i1 @_ZNK5arrow6ResultINS_5DatumEE2okEv(ptr noundef nonnull align 8 dereferenceable(32) %this) #1 comdat align 2 {
entry:
  %this.addr = alloca ptr, align 8
  store ptr %this, ptr %this.addr, align 8
  %this1 = load ptr, ptr %this.addr, align 8
  %status_ = getelementptr inbounds %"class.arrow::Result.79", ptr %this1, i32 0, i32 0
  %call = call noundef zeroext i1 @_ZNK5arrow6Status2okEv(ptr noundef nonnull align 8 dereferenceable(8) %status_)
  ret i1 %call
}

; Function Attrs: mustprogress nounwind uwtable
define linkonce_odr noundef nonnull align 8 dereferenceable(8) ptr @_ZNK5arrow6ResultINS_5DatumEE6statusEv(ptr noundef nonnull align 8 dereferenceable(32) %this) #1 comdat align 2 {
entry:
  %this.addr = alloca ptr, align 8
  store ptr %this, ptr %this.addr, align 8
  %this1 = load ptr, ptr %this.addr, align 8
  %status_ = getelementptr inbounds %"class.arrow::Result.79", ptr %this1, i32 0, i32 0
  ret ptr %status_
}

; Function Attrs: mustprogress nounwind uwtable
define linkonce_odr void @_ZN5arrow6ResultISt10shared_ptrINS_5ArrayEEEC2ERKNS_6StatusE(ptr noundef nonnull align 8 dereferenceable(24) %this, ptr noundef nonnull align 8 dereferenceable(8) %status) unnamed_addr #1 comdat align 2 personality ptr @__gxx_personality_v0 {
entry:
  %this.addr = alloca ptr, align 8
  %status.addr = alloca ptr, align 8
  %ref.tmp = alloca %"class.std::__cxx11::basic_string", align 8
  %ref.tmp3 = alloca %"class.std::__cxx11::basic_string", align 8
  %ref.tmp4 = alloca %"class.std::allocator.2", align 1
  %ref.tmp6 = alloca %"class.std::__cxx11::basic_string", align 8
  store ptr %this, ptr %this.addr, align 8
  store ptr %status, ptr %status.addr, align 8
  %this1 = load ptr, ptr %this.addr, align 8
  %status_ = getelementptr inbounds %"class.arrow::Result.107", ptr %this1, i32 0, i32 0
  %0 = load ptr, ptr %status.addr, align 8
  invoke void @_ZN5arrow6StatusC2ERKS0_(ptr noundef nonnull align 8 dereferenceable(8) %status_, ptr noundef nonnull align 8 dereferenceable(8) %0)
          to label %invoke.cont unwind label %terminate.lpad

invoke.cont:                                      ; preds = %entry
  %1 = load ptr, ptr %status.addr, align 8
  %call = call noundef zeroext i1 @_ZNK5arrow6Status2okEv(ptr noundef nonnull align 8 dereferenceable(8) %1)
  %lnot = xor i1 %call, true
  %lnot2 = xor i1 %lnot, true
  br i1 %lnot2, label %if.then, label %if.end

if.then:                                          ; preds = %invoke.cont
  call void @_ZNSaIcEC1Ev(ptr noundef nonnull align 1 dereferenceable(1) %ref.tmp4) #2
  invoke void @_ZNSt7__cxx1112basic_stringIcSt11char_traitsIcESaIcEEC2IS3_EEPKcRKS3_(ptr noundef nonnull align 8 dereferenceable(32) %ref.tmp3, ptr noundef @.str.29, ptr noundef nonnull align 1 dereferenceable(1) %ref.tmp4)
          to label %invoke.cont5 unwind label %terminate.lpad

invoke.cont5:                                     ; preds = %if.then
  %2 = load ptr, ptr %status.addr, align 8
  invoke void @_ZNK5arrow6Status8ToStringB5cxx11Ev(ptr sret(%"class.std::__cxx11::basic_string") align 8 %ref.tmp6, ptr noundef nonnull align 8 dereferenceable(8) %2)
          to label %invoke.cont7 unwind label %terminate.lpad

invoke.cont7:                                     ; preds = %invoke.cont5
  invoke void @_ZStplIcSt11char_traitsIcESaIcEENSt7__cxx1112basic_stringIT_T0_T1_EEOS8_S9_(ptr sret(%"class.std::__cxx11::basic_string") align 8 %ref.tmp, ptr noundef nonnull align 8 dereferenceable(32) %ref.tmp3, ptr noundef nonnull align 8 dereferenceable(32) %ref.tmp6)
          to label %invoke.cont8 unwind label %terminate.lpad

invoke.cont8:                                     ; preds = %invoke.cont7
  invoke void @_ZN5arrow8internal14DieWithMessageERKNSt7__cxx1112basic_stringIcSt11char_traitsIcESaIcEEE(ptr noundef nonnull align 8 dereferenceable(32) %ref.tmp)
          to label %invoke.cont9 unwind label %terminate.lpad

invoke.cont9:                                     ; preds = %invoke.cont8
  call void @_ZNSt7__cxx1112basic_stringIcSt11char_traitsIcESaIcEED1Ev(ptr noundef nonnull align 8 dereferenceable(32) %ref.tmp) #2
  call void @_ZNSt7__cxx1112basic_stringIcSt11char_traitsIcESaIcEED1Ev(ptr noundef nonnull align 8 dereferenceable(32) %ref.tmp6) #2
  call void @_ZNSt7__cxx1112basic_stringIcSt11char_traitsIcESaIcEED1Ev(ptr noundef nonnull align 8 dereferenceable(32) %ref.tmp3) #2
  call void @_ZNSaIcED1Ev(ptr noundef nonnull align 1 dereferenceable(1) %ref.tmp4) #2
  br label %if.end

if.end:                                           ; preds = %invoke.cont9, %invoke.cont
  ret void

terminate.lpad:                                   ; preds = %invoke.cont8, %invoke.cont7, %invoke.cont5, %if.then, %entry
  %3 = landingpad { ptr, i32 }
          catch ptr null
  %4 = extractvalue { ptr, i32 } %3, 0
  call void @__clang_call_terminate(ptr %4) #15
  unreachable
}

; Function Attrs: mustprogress uwtable
define linkonce_odr void @_ZNO5arrow6ResultINS_5DatumEE11ValueUnsafeEv(ptr noalias sret(%"struct.arrow::Datum") align 8 %agg.result, ptr noundef nonnull align 8 dereferenceable(32) %this) #4 comdat align 2 {
entry:
  %result.ptr = alloca ptr, align 8
  %this.addr = alloca ptr, align 8
  store ptr %agg.result, ptr %result.ptr, align 8
  store ptr %this, ptr %this.addr, align 8
  %this1 = load ptr, ptr %this.addr, align 8
  call void @_ZN5arrow6ResultINS_5DatumEE15MoveValueUnsafeEv(ptr sret(%"struct.arrow::Datum") align 8 %agg.result, ptr noundef nonnull align 8 dereferenceable(32) %this1)
  ret void
}

declare void @_ZNK5arrow5Datum10make_arrayEv(ptr sret(%"class.std::shared_ptr.114") align 8, ptr noundef nonnull align 8 dereferenceable(24)) #5

; Function Attrs: mustprogress nounwind uwtable
define linkonce_odr void @_ZN5arrow6ResultISt10shared_ptrINS_5ArrayEEEC2EOS3_(ptr noundef nonnull align 8 dereferenceable(24) %this, ptr noundef nonnull align 8 dereferenceable(16) %value) unnamed_addr #1 comdat align 2 {
entry:
  %this.addr = alloca ptr, align 8
  %value.addr = alloca ptr, align 8
  store ptr %this, ptr %this.addr, align 8
  store ptr %value, ptr %value.addr, align 8
  %this1 = load ptr, ptr %this.addr, align 8
  %status_ = getelementptr inbounds %"class.arrow::Result.107", ptr %this1, i32 0, i32 0
  call void @_ZN5arrow6StatusC2Ev(ptr noundef nonnull align 8 dereferenceable(8) %status_) #2
  %0 = load ptr, ptr %value.addr, align 8
  call void @_ZN5arrow6ResultISt10shared_ptrINS_5ArrayEEE14ConstructValueIS3_EEvOT_(ptr noundef nonnull align 8 dereferenceable(24) %this1, ptr noundef nonnull align 8 dereferenceable(16) %0) #2
  ret void
}

; Function Attrs: mustprogress nounwind uwtable
define linkonce_odr void @_ZNSt10shared_ptrIN5arrow5ArrayEED2Ev(ptr noundef nonnull align 8 dereferenceable(16) %this) unnamed_addr #1 comdat align 2 {
entry:
  %this.addr = alloca ptr, align 8
  store ptr %this, ptr %this.addr, align 8
  %this1 = load ptr, ptr %this.addr, align 8
  call void @_ZNSt12__shared_ptrIN5arrow5ArrayELN9__gnu_cxx12_Lock_policyE2EED2Ev(ptr noundef nonnull align 8 dereferenceable(16) %this1) #2
  ret void
}

; Function Attrs: mustprogress nounwind uwtable
define linkonce_odr void @_ZN5arrow6ResultINS_5DatumEED2Ev(ptr noundef nonnull align 8 dereferenceable(32) %this) unnamed_addr #1 comdat align 2 {
entry:
  %this.addr = alloca ptr, align 8
  store ptr %this, ptr %this.addr, align 8
  %this1 = load ptr, ptr %this.addr, align 8
  call void @_ZN5arrow6ResultINS_5DatumEE7DestroyEv(ptr noundef nonnull align 8 dereferenceable(32) %this1) #2
  %status_ = getelementptr inbounds %"class.arrow::Result.79", ptr %this1, i32 0, i32 0
  call void @_ZN5arrow6StatusD2Ev(ptr noundef nonnull align 8 dereferenceable(8) %status_) #2
  call void @_ZN5arrow4util18EqualityComparableINS_6ResultINS_5DatumEEEED2Ev(ptr noundef nonnull align 1 dereferenceable(1) %this1) #2
  ret void
}

; Function Attrs: mustprogress uwtable
define noundef zeroext i1 @_ZN5arrow7compute7CanCastERKNS_8DataTypeES3_(ptr noundef nonnull align 8 dereferenceable(72) %from_type, ptr noundef nonnull align 8 dereferenceable(72) %to_type) #4 {
entry:
  %retval = alloca i1, align 1
  %from_type.addr = alloca ptr, align 8
  %to_type.addr = alloca ptr, align 8
  %it = alloca %"struct.std::__detail::_Node_iterator", align 8
  %ref.tmp = alloca i32, align 4
  %ref.tmp3 = alloca %"struct.std::__detail::_Node_iterator", align 8
  %function = alloca ptr, align 8
  %__range2 = alloca ptr, align 8
  %__begin2 = alloca %"class.__gnu_cxx::__normal_iterator.117", align 8
  %__end2 = alloca %"class.__gnu_cxx::__normal_iterator.117", align 8
  %from_id = alloca i32, align 4
  store ptr %from_type, ptr %from_type.addr, align 8
  store ptr %to_type, ptr %to_type.addr, align 8
  call void @_ZN5arrow7compute8internal12_GLOBAL__N_119EnsureInitCastTableEv()
  %0 = load ptr, ptr %to_type.addr, align 8
  %call = call noundef i32 @_ZNK5arrow8DataType2idEv(ptr noundef nonnull align 8 dereferenceable(72) %0)
  store i32 %call, ptr %ref.tmp, align 4
  %call1 = call ptr @_ZNSt13unordered_mapIiSt10shared_ptrIN5arrow7compute8internal12CastFunctionEESt4hashIiESt8equal_toIiESaISt4pairIKiS5_EEE4findERSB_(ptr noundef nonnull align 8 dereferenceable(56) @_ZN5arrow7compute8internal12_GLOBAL__N_112g_cast_tableE, ptr noundef nonnull align 4 dereferenceable(4) %ref.tmp)
  %coerce.dive = getelementptr inbounds %"struct.std::__detail::_Node_iterator", ptr %it, i32 0, i32 0
  %coerce.dive2 = getelementptr inbounds %"struct.std::__detail::_Node_iterator_base", ptr %coerce.dive, i32 0, i32 0
  store ptr %call1, ptr %coerce.dive2, align 8
  %call4 = call ptr @_ZNSt13unordered_mapIiSt10shared_ptrIN5arrow7compute8internal12CastFunctionEESt4hashIiESt8equal_toIiESaISt4pairIKiS5_EEE3endEv(ptr noundef nonnull align 8 dereferenceable(56) @_ZN5arrow7compute8internal12_GLOBAL__N_112g_cast_tableE) #2
  %coerce.dive5 = getelementptr inbounds %"struct.std::__detail::_Node_iterator", ptr %ref.tmp3, i32 0, i32 0
  %coerce.dive6 = getelementptr inbounds %"struct.std::__detail::_Node_iterator_base", ptr %coerce.dive5, i32 0, i32 0
  store ptr %call4, ptr %coerce.dive6, align 8
  %call7 = call noundef zeroext i1 @_ZNSt8__detaileqERKNS_19_Node_iterator_baseISt4pairIKiSt10shared_ptrIN5arrow7compute8internal12CastFunctionEEELb0EEESC_(ptr noundef nonnull align 8 dereferenceable(8) %it, ptr noundef nonnull align 8 dereferenceable(8) %ref.tmp3) #2
  br i1 %call7, label %if.then, label %if.end

if.then:                                          ; preds = %entry
  store i1 false, ptr %retval, align 1
  br label %return

if.end:                                           ; preds = %entry
  %call8 = call noundef ptr @_ZNKSt8__detail14_Node_iteratorISt4pairIKiSt10shared_ptrIN5arrow7compute8internal12CastFunctionEEELb0ELb0EEptEv(ptr noundef nonnull align 8 dereferenceable(8) %it) #2
  %second = getelementptr inbounds %"struct.std::pair", ptr %call8, i32 0, i32 1
  %call9 = call noundef ptr @_ZNKSt12__shared_ptrIN5arrow7compute8internal12CastFunctionELN9__gnu_cxx12_Lock_policyE2EE3getEv(ptr noundef nonnull align 8 dereferenceable(16) %second) #2
  store ptr %call9, ptr %function, align 8
  br label %while.cond

while.cond:                                       ; preds = %while.body, %if.end
  br i1 false, label %while.body, label %while.end

while.body:                                       ; preds = %while.cond
  %1 = load ptr, ptr %function, align 8
  %call10 = call noundef i32 @_ZNK5arrow7compute8internal12CastFunction11out_type_idEv(ptr noundef nonnull align 8 dereferenceable(244) %1)
  br label %while.cond, !llvm.loop !8

while.end:                                        ; preds = %while.cond
  br label %while.cond11

while.cond11:                                     ; preds = %while.body12, %while.end
  br i1 false, label %while.body12, label %while.end14

while.body12:                                     ; preds = %while.cond11
  %2 = load ptr, ptr %to_type.addr, align 8
  %call13 = call noundef i32 @_ZNK5arrow8DataType2idEv(ptr noundef nonnull align 8 dereferenceable(72) %2)
  br label %while.cond11, !llvm.loop !9

while.end14:                                      ; preds = %while.cond11
  br label %while.cond15

while.cond15:                                     ; preds = %while.body16, %while.end14
  br i1 false, label %while.body16, label %while.end17

while.body16:                                     ; preds = %while.cond15
  br label %while.cond15, !llvm.loop !10

while.end17:                                      ; preds = %while.cond15
  %3 = load ptr, ptr %function, align 8
  %call18 = call noundef nonnull align 8 dereferenceable(24) ptr @_ZNK5arrow7compute8internal12CastFunction11in_type_idsEv(ptr noundef nonnull align 8 dereferenceable(244) %3)
  store ptr %call18, ptr %__range2, align 8
  %4 = load ptr, ptr %__range2, align 8
  %call19 = call ptr @_ZNKSt6vectorIN5arrow4Type4typeESaIS2_EE5beginEv(ptr noundef nonnull align 8 dereferenceable(24) %4) #2
  %coerce.dive20 = getelementptr inbounds %"class.__gnu_cxx::__normal_iterator.117", ptr %__begin2, i32 0, i32 0
  store ptr %call19, ptr %coerce.dive20, align 8
  %5 = load ptr, ptr %__range2, align 8
  %call21 = call ptr @_ZNKSt6vectorIN5arrow4Type4typeESaIS2_EE3endEv(ptr noundef nonnull align 8 dereferenceable(24) %5) #2
  %coerce.dive22 = getelementptr inbounds %"class.__gnu_cxx::__normal_iterator.117", ptr %__end2, i32 0, i32 0
  store ptr %call21, ptr %coerce.dive22, align 8
  br label %for.cond

for.cond:                                         ; preds = %for.inc, %while.end17
  %call23 = call noundef zeroext i1 @_ZN9__gnu_cxxneIPKN5arrow4Type4typeESt6vectorIS3_SaIS3_EEEEbRKNS_17__normal_iteratorIT_T0_EESE_(ptr noundef nonnull align 8 dereferenceable(8) %__begin2, ptr noundef nonnull align 8 dereferenceable(8) %__end2) #2
  br i1 %call23, label %for.body, label %for.end

for.body:                                         ; preds = %for.cond
  %call24 = call noundef nonnull align 4 dereferenceable(4) ptr @_ZNK9__gnu_cxx17__normal_iteratorIPKN5arrow4Type4typeESt6vectorIS3_SaIS3_EEEdeEv(ptr noundef nonnull align 8 dereferenceable(8) %__begin2) #2
  %6 = load i32, ptr %call24, align 4
  store i32 %6, ptr %from_id, align 4
