target datalayout = "e-m:e-p270:32:32-p271:32:32-p272:64:64-i64:64-i128:128-f80:128-n8:16:32:64-S128"
target triple = "x86_64-unknown-linux-gnu"

%"struct.std::defer_lock_t" = type { i8 }
%"class.arrow::io::ReadableFile" = type { %"class.arrow::io::internal::RandomAccessFileConcurrencyWrapper.base", %"class.std::unique_ptr.2", %"class.arrow::io::FileInterface.base" }
%"class.arrow::io::internal::RandomAccessFileConcurrencyWrapper.base" = type { %"class.arrow::io::RandomAccessFile.base", %"class.arrow::io::internal::SharedExclusiveChecker" }
%"class.arrow::io::RandomAccessFile.base" = type { %"class.arrow::io::InputStream.base", %"class.arrow::io::Seekable", %"class.std::unique_ptr" }
%"class.arrow::io::InputStream.base" = type { %"class.arrow::io::Readable" }
%"class.arrow::io::Readable" = type { ptr }
%"class.arrow::io::Seekable" = type { ptr }
%"class.std::unique_ptr" = type { %"struct.std::__uniq_ptr_data" }
%"struct.std::__uniq_ptr_data" = type { %"class.std::__uniq_ptr_impl" }
%"class.std::__uniq_ptr_impl" = type { %"class.std::tuple" }
%"class.std::tuple" = type { %"struct.std::_Tuple_impl" }
%"struct.std::_Tuple_impl" = type { %"struct.std::_Head_base.1" }
%"struct.std::_Head_base.1" = type { ptr }
%"class.arrow::io::internal::SharedExclusiveChecker" = type { %"class.std::shared_ptr" }
%"class.std::shared_ptr" = type { %"class.std::__shared_ptr" }
%"class.std::__shared_ptr" = type { ptr, %"class.std::__shared_count" }
%"class.std::__shared_count" = type { ptr }
%"class.std::unique_ptr.2" = type { %"struct.std::__uniq_ptr_data.3" }
%"struct.std::__uniq_ptr_data.3" = type { %"class.std::__uniq_ptr_impl.4" }
%"class.std::__uniq_ptr_impl.4" = type { %"class.std::tuple.5" }
%"class.std::tuple.5" = type { %"struct.std::_Tuple_impl.6" }
%"struct.std::_Tuple_impl.6" = type { %"struct.std::_Head_base.9" }
%"struct.std::_Head_base.9" = type { ptr }
%"class.arrow::io::FileInterface.base" = type <{ ptr, %"class.std::enable_shared_from_this", i32 }>
%"class.std::enable_shared_from_this" = type { %"class.std::weak_ptr" }
%"class.std::weak_ptr" = type { %"class.std::__weak_ptr" }
%"class.std::__weak_ptr" = type { ptr, %"class.std::__weak_count" }
%"class.std::__weak_count" = type { ptr }
%"class.arrow::io::internal::RandomAccessFileConcurrencyWrapper" = type { %"class.arrow::io::RandomAccessFile.base", %"class.arrow::io::internal::SharedExclusiveChecker", %"class.arrow::io::FileInterface.base" }
%"class.arrow::io::ReadableFile::ReadableFileImpl" = type { %"class.arrow::io::OSFile.base", ptr }
%"class.arrow::io::OSFile.base" = type <{ %"class.arrow::internal::PlatformFilename", %"class.std::mutex", %"class.arrow::internal::FileDescriptor", i32, i64, %"struct.std::atomic.18" }>
%"class.arrow::internal::PlatformFilename" = type { %"class.std::unique_ptr.10" }
%"class.std::unique_ptr.10" = type { %"struct.std::__uniq_ptr_data.11" }
%"struct.std::__uniq_ptr_data.11" = type { %"class.std::__uniq_ptr_impl.12" }
%"class.std::__uniq_ptr_impl.12" = type { %"class.std::tuple.13" }
%"class.std::tuple.13" = type { %"struct.std::_Tuple_impl.14" }
%"struct.std::_Tuple_impl.14" = type { %"struct.std::_Head_base.17" }
%"struct.std::_Head_base.17" = type { ptr }
%"class.std::mutex" = type { %"class.std::__mutex_base" }
%"class.std::__mutex_base" = type { %union.pthread_mutex_t }
%union.pthread_mutex_t = type { %struct.__pthread_mutex_s }
%struct.__pthread_mutex_s = type { i32, i32, i32, i32, i32, i16, i16, %struct.__pthread_internal_list }
%struct.__pthread_internal_list = type { ptr, ptr }
%"class.arrow::internal::FileDescriptor" = type { %"struct.std::atomic" }
%"struct.std::atomic" = type { %"struct.std::__atomic_base" }
%"struct.std::__atomic_base" = type { i32 }
%"struct.std::atomic.18" = type { %"struct.std::__atomic_base.19" }
%"struct.std::__atomic_base.19" = type { i8 }
%"class.arrow::io::FileInterface" = type <{ ptr, %"class.std::enable_shared_from_this", i32, [4 x i8] }>
%"class.arrow::Result" = type { %"class.arrow::Status", %"class.arrow::internal::AlignedStorage" }
%"class.arrow::Status" = type { ptr }
%"class.arrow::internal::AlignedStorage" = type { %"union.std::aligned_storage<16, 8>::type" }
%"union.std::aligned_storage<16, 8>::type" = type { [16 x i8] }
%"class.std::shared_ptr.22" = type { %"class.std::__shared_ptr.23" }
%"class.std::__shared_ptr.23" = type { ptr, %"class.std::__shared_count" }
%"class.std::__cxx11::basic_string" = type { %"struct.std::__cxx11::basic_string<char>::_Alloc_hider", i64, %union.anon }
%"struct.std::__cxx11::basic_string<char>::_Alloc_hider" = type { ptr }
%union.anon = type { i64, [8 x i8] }
%"class.std::allocator" = type { i8 }
%"class.arrow::io::OSFile" = type <{ %"class.arrow::internal::PlatformFilename", %"class.std::mutex", %"class.arrow::internal::FileDescriptor", i32, i64, %"struct.std::atomic.18", [7 x i8] }>
%class.anon = type { i8 }
%"class.__gnu_cxx::__normal_iterator" = type { ptr }
%"struct.arrow::io::ReadRange" = type { i64, i64 }
%"class.arrow::Result.28" = type { %"class.arrow::Status", %"class.arrow::internal::AlignedStorage.31" }
%"class.arrow::internal::AlignedStorage.31" = type { %"union.std::aligned_storage<8, 8>::type" }
%"union.std::aligned_storage<8, 8>::type" = type { [8 x i8] }
%"class.arrow::Result.33" = type { %"class.arrow::Status", %"class.arrow::internal::AlignedStorage.36" }
%"class.arrow::internal::AlignedStorage.36" = type { %"union.std::aligned_storage<16, 8>::type" }
%"class.arrow::Result.115" = type { %"class.arrow::Status", %"class.arrow::internal::AlignedStorage.118" }
%"class.arrow::internal::AlignedStorage.118" = type { %"union.std::aligned_storage<8, 8>::type" }
%"class.std::unique_ptr.119" = type { %"struct.std::__uniq_ptr_data.120" }
%"struct.std::__uniq_ptr_data.120" = type { %"class.std::__uniq_ptr_impl.121" }
%"class.std::__uniq_ptr_impl.121" = type { %"class.std::tuple.122" }
%"class.std::tuple.122" = type { %"struct.std::_Tuple_impl.123" }
%"struct.std::_Tuple_impl.123" = type { %"struct.std::_Head_base.126" }
%"struct.std::_Head_base.126" = type { ptr }
%"class.arrow::io::FileOutputStream" = type { %"class.arrow::io::OutputStream.base", %"class.std::unique_ptr.37", %"class.arrow::io::FileInterface.base" }
%"class.arrow::io::OutputStream.base" = type { %"class.arrow::io::Writable" }
%"class.arrow::io::Writable" = type { ptr }
%"class.std::unique_ptr.37" = type { %"struct.std::__uniq_ptr_data.38" }
%"struct.std::__uniq_ptr_data.38" = type { %"class.std::__uniq_ptr_impl.39" }
%"class.std::__uniq_ptr_impl.39" = type { %"class.std::tuple.40" }
%"class.std::tuple.40" = type { %"struct.std::_Tuple_impl.41" }
%"struct.std::_Tuple_impl.41" = type { %"struct.std::_Head_base.44" }
%"struct.std::_Head_base.44" = type { ptr }
%"class.arrow::Result.45" = type { %"class.arrow::Status", %"class.arrow::internal::AlignedStorage.48" }
%"class.arrow::internal::AlignedStorage.48" = type { %"union.std::aligned_storage<16, 8>::type" }
%"class.std::shared_ptr.49" = type { %"class.std::__shared_ptr.50" }
%"class.std::__shared_ptr.50" = type { ptr, %"class.std::__shared_count" }
%"class.std::lock_guard" = type { ptr }
%"class.arrow::io::MemoryMappedFile" = type { %"class.arrow::io::ReadWriteFileInterface.base", %"class.std::shared_ptr.52", %"class.arrow::io::FileInterface.base" }
%"class.arrow::io::ReadWriteFileInterface.base" = type { %"class.arrow::io::RandomAccessFile.base", %"class.arrow::io::WritableFile.base" }
%"class.arrow::io::WritableFile.base" = type { %"class.arrow::io::OutputStream.base", %"class.arrow::io::Seekable" }
%"class.std::shared_ptr.52" = type { %"class.std::__shared_ptr.53" }
%"class.std::__shared_ptr.53" = type { ptr, %"class.std::__shared_count" }
%"class.arrow::Result.55" = type { %"class.arrow::Status", %"class.arrow::internal::AlignedStorage.58" }
%"class.arrow::internal::AlignedStorage.58" = type { %"union.std::aligned_storage<16, 8>::type" }
%"class.std::shared_ptr.59" = type { %"class.std::__shared_ptr.60" }
%"class.std::__shared_ptr.60" = type { ptr, %"class.std::__shared_count" }
%"class.arrow::io::MemoryMappedFile::MemoryMap" = type { %"class.std::enable_shared_from_this.62", %"class.std::unique_ptr.65", i32, i32, %"class.std::shared_ptr.73", i64, i64, i64, i64, %"class.std::mutex" }
%"class.std::enable_shared_from_this.62" = type { %"class.std::weak_ptr.63" }
%"class.std::weak_ptr.63" = type { %"class.std::__weak_ptr.64" }
%"class.std::__weak_ptr.64" = type { ptr, %"class.std::__weak_count" }
%"class.std::unique_ptr.65" = type { %"struct.std::__uniq_ptr_data.66" }
%"struct.std::__uniq_ptr_data.66" = type { %"class.std::__uniq_ptr_impl.67" }
%"class.std::__uniq_ptr_impl.67" = type { %"class.std::tuple.68" }
%"class.std::tuple.68" = type { %"struct.std::_Tuple_impl.69" }
%"struct.std::_Tuple_impl.69" = type { %"struct.std::_Head_base.72" }
%"struct.std::_Head_base.72" = type { ptr }
%"class.std::shared_ptr.73" = type { %"class.std::__shared_ptr.74" }
%"class.std::__shared_ptr.74" = type { ptr, %"class.std::__shared_count" }
%"class.std::unique_lock" = type <{ ptr, i8, [7 x i8] }>
%"class.std::vector.76" = type { %"struct.std::_Vector_base.77" }
%"struct.std::_Vector_base.77" = type { %"struct.std::_Vector_base<arrow::internal::MemoryRegion, std::allocator<arrow::internal::MemoryRegion>>::_Vector_impl" }
%"struct.std::_Vector_base<arrow::internal::MemoryRegion, std::allocator<arrow::internal::MemoryRegion>>::_Vector_impl" = type { %"struct.std::_Vector_base<arrow::internal::MemoryRegion, std::allocator<arrow::internal::MemoryRegion>>::_Vector_impl_data" }
%"struct.std::_Vector_base<arrow::internal::MemoryRegion, std::allocator<arrow::internal::MemoryRegion>>::_Vector_impl_data" = type { ptr, ptr, ptr }
%"class.std::initializer_list" = type { ptr, i64 }
%"struct.arrow::internal::MemoryRegion" = type { ptr, i64 }
%"class.std::allocator.78" = type { i8 }
%"class.std::shared_ptr.81" = type { %"class.std::__shared_ptr.82" }
%"class.std::__shared_ptr.82" = type { ptr, %"class.std::__shared_count" }
%"class.arrow::Buffer" = type { ptr, i8, i8, ptr, i64, i64, i8, %"class.std::shared_ptr.81", %"class.std::shared_ptr.84" }
%"class.std::shared_ptr.84" = type { %"class.std::__shared_ptr.85" }
%"class.std::__shared_ptr.85" = type { ptr, %"class.std::__shared_count" }
%"class.arrow::Future" = type { %"class.std::shared_ptr.87" }
%"class.std::shared_ptr.87" = type { %"class.std::__shared_ptr.88" }
%"class.std::__shared_ptr.88" = type { ptr, %"class.std::__shared_count" }
%"struct.std::_Vector_base" = type { %"struct.std::_Vector_base<arrow::io::ReadRange, std::allocator<arrow::io::ReadRange>>::_Vector_impl" }
%"struct.std::_Vector_base<arrow::io::ReadRange, std::allocator<arrow::io::ReadRange>>::_Vector_impl" = type { %"struct.std::_Vector_base<arrow::io::ReadRange, std::allocator<arrow::io::ReadRange>>::_Vector_impl_data" }
%"struct.std::_Vector_base<arrow::io::ReadRange, std::allocator<arrow::io::ReadRange>>::_Vector_impl_data" = type { ptr, ptr, ptr }
%"class.std::unique_lock.202" = type <{ ptr, i8, [7 x i8] }>
%"class.arrow::io::internal::ExclusiveLockGuard" = type { ptr }
%"class.arrow::Result.90" = type { %"class.arrow::Status", %"class.arrow::internal::AlignedStorage.93" }
%"class.arrow::internal::AlignedStorage.93" = type { %"union.std::aligned_storage<16, 8>::type" }
%"class.arrow::io::internal::SharedLockGuard" = type { ptr }
%"class.arrow::Future.94" = type { %"class.std::shared_ptr.87" }
%"class.std::_Sp_counted_base" = type { ptr, i32, i32 }
%"class.arrow::Result.95" = type <{ %"class.arrow::Status", %"class.arrow::internal::AlignedStorage.98", [4 x i8] }>
%"class.arrow::internal::AlignedStorage.98" = type { %"union.std::aligned_storage<4, 4>::type" }
%"union.std::aligned_storage<4, 4>::type" = type { [4 x i8] }
%"class.arrow::Result.100" = type { %"class.arrow::Status", %"class.arrow::internal::AlignedStorage.103" }
%"class.arrow::internal::AlignedStorage.103" = type { %"union.std::aligned_storage<8, 8>::type" }
%"class.std::basic_string_view" = type { i64, ptr }
%"struct.arrow::Status::State" = type { i8, %"class.std::__cxx11::basic_string", %"class.std::shared_ptr.104" }
%"class.std::shared_ptr.104" = type { %"class.std::__shared_ptr.105" }
%"class.std::__shared_ptr.105" = type { ptr, %"class.std::__shared_count" }
%"class.std::__cxx11::basic_stringstream" = type { %"class.std::basic_iostream.base", %"class.std::__cxx11::basic_stringbuf", %"class.std::basic_ios" }
%"class.std::basic_iostream.base" = type { %"class.std::basic_istream.base", %"class.std::basic_ostream.base" }
%"class.std::basic_istream.base" = type { ptr, i64 }
%"class.std::basic_ostream.base" = type { ptr }
%"class.std::__cxx11::basic_stringbuf" = type { %"class.std::basic_streambuf", i32, %"class.std::__cxx11::basic_string" }
%"class.std::basic_streambuf" = type { ptr, ptr, ptr, ptr, ptr, ptr, ptr, %"class.std::locale" }
%"class.std::locale" = type { ptr }
%"class.std::basic_ios" = type { %"class.std::ios_base", ptr, i8, i8, ptr, ptr, ptr, ptr }
%"class.std::ios_base" = type { ptr, i64, i64, i32, i32, i32, ptr, %"struct.std::ios_base::_Words", [8 x %"struct.std::ios_base::_Words"], i32, ptr, %"class.std::locale" }
%"struct.std::ios_base::_Words" = type { ptr, i64 }
%"class.arrow::util::detail::StringStreamWrapper" = type { %"class.std::unique_ptr.107", ptr }
%"class.std::unique_ptr.107" = type { %"struct.std::__uniq_ptr_data.108" }
%"struct.std::__uniq_ptr_data.108" = type { %"class.std::__uniq_ptr_impl.109" }
%"class.std::__uniq_ptr_impl.109" = type { %"class.std::tuple.110" }
%"class.std::tuple.110" = type { %"struct.std::_Tuple_impl.111" }
%"struct.std::_Tuple_impl.111" = type { %"struct.std::_Head_base.114" }
%"struct.std::_Head_base.114" = type { ptr }
%"class.std::allocator.127" = type { i8 }
%"class.std::allocator.133" = type { i8 }
%"class.std::_Sp_counted_deleter" = type { %"class.std::_Sp_counted_base", %"class.std::_Sp_counted_deleter<arrow::ResizableBuffer *, std::default_delete<arrow::ResizableBuffer>, std::allocator<void>, __gnu_cxx::_S_atomic>::_Impl" }
%"class.std::_Sp_counted_deleter<arrow::ResizableBuffer *, std::default_delete<arrow::ResizableBuffer>, std::allocator<void>, __gnu_cxx::_S_atomic>::_Impl" = type { ptr }
%"struct.std::default_delete.130" = type { i8 }
%"struct.std::__allocated_ptr" = type { ptr, ptr }
%"class.std::type_info" = type { ptr, ptr }
%"struct.std::_Sp_alloc_shared_tag" = type { ptr }
%"class.std::allocator.138" = type { i8 }
%"struct.std::__allocated_ptr.141" = type { ptr, ptr }
%"class.std::_Sp_counted_ptr_inplace" = type { %"class.std::_Sp_counted_base", %"class.std::_Sp_counted_ptr_inplace<arrow::io::MemoryMappedFile::MemoryMap::Region, std::allocator<void>, __gnu_cxx::_S_atomic>::_Impl" }
%"class.std::_Sp_counted_ptr_inplace<arrow::io::MemoryMappedFile::MemoryMap::Region, std::allocator<void>, __gnu_cxx::_S_atomic>::_Impl" = type { %"struct.__gnu_cxx::__aligned_buffer" }
%"struct.__gnu_cxx::__aligned_buffer" = type { %"union.std::aligned_storage<80, 8>::type" }
%"union.std::aligned_storage<80, 8>::type" = type { [80 x i8] }
%"class.arrow::util::Voidify" = type { i8 }
%"class.arrow::util::ArrowLog" = type <{ %"class.arrow::util::ArrowLogBase", ptr, i8, [7 x i8] }>
%"class.arrow::util::ArrowLogBase" = type { ptr }
%"class.std::shared_ptr.144" = type { %"class.std::__shared_ptr.145" }
%"class.std::__shared_ptr.145" = type { ptr, %"class.std::__shared_count" }
%"class.arrow::MemoryManager" = type { ptr, %"class.std::enable_shared_from_this.147", %"class.std::shared_ptr.150" }
%"class.std::enable_shared_from_this.147" = type { %"class.std::weak_ptr.148" }
%"class.std::weak_ptr.148" = type { %"class.std::__weak_ptr.149" }
%"class.std::__weak_ptr.149" = type { ptr, %"class.std::__weak_count" }
%"class.std::shared_ptr.150" = type { %"class.std::__shared_ptr.151" }
%"class.std::__shared_ptr.151" = type { ptr, %"class.std::__shared_count" }
%"class.arrow::Device" = type <{ ptr, %"class.std::enable_shared_from_this.153", i8, [7 x i8] }>
%"class.std::enable_shared_from_this.153" = type { %"class.std::weak_ptr.154" }
%"class.std::weak_ptr.154" = type { %"class.std::__weak_ptr.155" }
%"class.std::__weak_ptr.155" = type { ptr, %"class.std::__weak_count" }
%"class.std::allocator.158" = type { i8 }
%"struct.std::__allocated_ptr.161" = type { ptr, ptr }
%"class.std::_Sp_counted_ptr_inplace.162" = type { %"class.std::_Sp_counted_base", %"class.std::_Sp_counted_ptr_inplace<arrow::Buffer, std::allocator<void>, __gnu_cxx::_S_atomic>::_Impl" }
%"class.std::_Sp_counted_ptr_inplace<arrow::Buffer, std::allocator<void>, __gnu_cxx::_S_atomic>::_Impl" = type { %"struct.__gnu_cxx::__aligned_buffer.163" }
%"struct.__gnu_cxx::__aligned_buffer.163" = type { %"union.std::aligned_storage<80, 8>::type" }
%struct._Guard = type { ptr }
%"class.std::_Sp_counted_ptr" = type { %"class.std::_Sp_counted_base", ptr }
%"class.std::_Sp_counted_ptr.164" = type { %"class.std::_Sp_counted_base", ptr }
%"class.std::_Sp_counted_ptr.165" = type { %"class.std::_Sp_counted_base", ptr }
%"class.std::_Sp_counted_ptr.166" = type { %"class.std::_Sp_counted_base", ptr }
%"class.std::unique_ptr.167" = type { %"struct.std::__uniq_ptr_data.168" }
%"struct.std::__uniq_ptr_data.168" = type { %"class.std::__uniq_ptr_impl.169" }
%"class.std::__uniq_ptr_impl.169" = type { %"class.std::tuple.170" }
%"class.std::tuple.170" = type { %"struct.std::_Tuple_impl.171" }
%"struct.std::_Tuple_impl.171" = type { %"struct.std::_Head_base.174" }
%"struct.std::_Head_base.174" = type { ptr }
%"class.std::unique_ptr.186" = type { %"struct.std::__uniq_ptr_data.187" }
%"struct.std::__uniq_ptr_data.187" = type { %"class.std::__uniq_ptr_impl.188" }
%"class.std::__uniq_ptr_impl.188" = type { %"class.std::tuple.189" }
%"class.std::tuple.189" = type { %"struct.std::_Tuple_impl.190" }
%"struct.std::_Tuple_impl.190" = type { %"struct.std::_Tuple_impl.191", %"struct.std::_Head_base.193" }
%"struct.std::_Tuple_impl.191" = type { %"struct.std::_Head_base.192" }
%"struct.std::_Head_base.192" = type { ptr }
%"struct.std::_Head_base.193" = type { ptr }
%class.anon.200 = type { i8 }
%"class.arrow::FutureImpl" = type { ptr, %"class.std::enable_shared_from_this.182", %"struct.std::atomic.185", %"class.std::unique_ptr.186", %"class.std::vector.194" }
%"class.std::enable_shared_from_this.182" = type { %"class.std::weak_ptr.183" }
%"class.std::weak_ptr.183" = type { %"class.std::__weak_ptr.184" }
%"class.std::__weak_ptr.184" = type { ptr, %"class.std::__weak_count" }
%"struct.std::atomic.185" = type { i8 }
%"class.std::vector.194" = type { %"struct.std::_Vector_base.195" }
%"struct.std::_Vector_base.195" = type { %"struct.std::_Vector_base<arrow::FutureImpl::CallbackRecord, std::allocator<arrow::FutureImpl::CallbackRecord>>::_Vector_impl" }
%"struct.std::_Vector_base<arrow::FutureImpl::CallbackRecord, std::allocator<arrow::FutureImpl::CallbackRecord>>::_Vector_impl" = type { %"struct.std::_Vector_base<arrow::FutureImpl::CallbackRecord, std::allocator<arrow::FutureImpl::CallbackRecord>>::_Vector_impl_data" }
%"struct.std::_Vector_base<arrow::FutureImpl::CallbackRecord, std::allocator<arrow::FutureImpl::CallbackRecord>>::_Vector_impl_data" = type { ptr, ptr, ptr }
%"class.std::allocator.175" = type { i8 }
%"class.std::_Sp_counted_deleter.180" = type { %"class.std::_Sp_counted_base", %"class.std::_Sp_counted_deleter<arrow::FutureImpl *, std::default_delete<arrow::FutureImpl>, std::allocator<void>, __gnu_cxx::_S_atomic>::_Impl" }
%"class.std::_Sp_counted_deleter<arrow::FutureImpl *, std::default_delete<arrow::FutureImpl>, std::allocator<void>, __gnu_cxx::_S_atomic>::_Impl" = type { ptr }
%"struct.std::default_delete.178" = type { i8 }
%"struct.std::__allocated_ptr.199" = type { ptr, ptr }

$_ZN5arrow2io8internal34RandomAccessFileConcurrencyWrapperINS0_12ReadableFileEEC2Ev = comdat any

$_ZNSt10unique_ptrIN5arrow2io12ReadableFile16ReadableFileImplESt14default_deleteIS3_EEC2IS5_vEEv = comdat any

$_ZNSt10unique_ptrIN5arrow2io12ReadableFile16ReadableFileImplESt14default_deleteIS3_EE5resetEPS3_ = comdat any

$_ZN5arrow2io12ReadableFile16ReadableFileImplC2EPNS_10MemoryPoolE = comdat any

$_ZNSt10unique_ptrIN5arrow2io12ReadableFile16ReadableFileImplESt14default_deleteIS3_EED2Ev = comdat any

$_ZN5arrow2io8internal34RandomAccessFileConcurrencyWrapperINS0_12ReadableFileEED2Ev = comdat any

$_ZN5arrow2io13FileInterfaceC2Ev = comdat any

$_ZN5arrow2io8ReadableC2Ev = comdat any

$_ZN5arrow2io8ReadableD2Ev = comdat any

$__clang_call_terminate = comdat any

$_ZNSt10shared_ptrIN5arrow2io12ReadableFileEEC2IS2_vEEPT_ = comdat any

$_ZN5arrow8internal15GenericToStatusEONS_6StatusE = comdat any

$_ZNKSt19__shared_ptr_accessIN5arrow2io12ReadableFileELN9__gnu_cxx12_Lock_policyE2ELb0ELb0EEptEv = comdat any

$_ZNKSt10unique_ptrIN5arrow2io12ReadableFile16ReadableFileImplESt14default_deleteIS3_EEptEv = comdat any

$_ZN5arrow2io12ReadableFile16ReadableFileImpl4OpenERKNSt7__cxx1112basic_stringIcSt11char_traitsIcESaIcEEE = comdat any

$_ZN5arrow6StatusD2Ev = comdat any

$_ZNK5arrow6Status2okEv = comdat any

$_ZN5arrow6ResultISt10shared_ptrINS_2io12ReadableFileEEEC2ERKNS_6StatusE = comdat any

$_ZN5arrow6ResultISt10shared_ptrINS_2io12ReadableFileEEEC2EOS4_ = comdat any

$_ZNSt10shared_ptrIN5arrow2io12ReadableFileEED2Ev = comdat any

$_ZN5arrow2io12ReadableFile16ReadableFileImpl4OpenEi = comdat any

$_ZN5arrow2io6OSFile5CloseEv = comdat any

$_ZNK5arrow2io6OSFile7is_openEv = comdat any

$_ZN5arrow2io12ReadableFile16ReadableFileImpl8WillNeedERKSt6vectorINS0_9ReadRangeESaIS4_EE = comdat any

$_ZNK5arrow2io6OSFile4TellEv = comdat any

$_ZN5arrow2io6OSFile4ReadElPv = comdat any

$_ZN5arrow2io6OSFile6ReadAtEllPv = comdat any

$_ZN5arrow2io12ReadableFile16ReadableFileImpl12ReadBufferAtEll = comdat any

$_ZN5arrow2io12ReadableFile16ReadableFileImpl10ReadBufferEl = comdat any

$_ZNK5arrow2io6OSFile4sizeEv = comdat any

$_ZN5arrow6ResultIlEC2EOl = comdat any

$_ZN5arrow2io6OSFile4SeekEl = comdat any

$_ZNK5arrow2io6OSFile2fdEv = comdat any

$_ZN5arrow2io12OutputStreamC2Ev = comdat any

$_ZNSt10unique_ptrIN5arrow2io16FileOutputStream20FileOutputStreamImplESt14default_deleteIS3_EEC2IS5_vEEv = comdat any

$_ZNSt10unique_ptrIN5arrow2io16FileOutputStream20FileOutputStreamImplESt14default_deleteIS3_EE5resetEPS3_ = comdat any

$_ZN5arrow2io16FileOutputStream20FileOutputStreamImplC2Ev = comdat any

$_ZNSt10unique_ptrIN5arrow2io16FileOutputStream20FileOutputStreamImplESt14default_deleteIS3_EED2Ev = comdat any

$_ZN5arrow2io12OutputStreamD2Ev = comdat any

$_ZNSt10shared_ptrIN5arrow2io16FileOutputStreamEEC2IS2_vEEPT_ = comdat any

$_ZNKSt19__shared_ptr_accessIN5arrow2io16FileOutputStreamELN9__gnu_cxx12_Lock_policyE2ELb0ELb0EEptEv = comdat any

$_ZNKSt10unique_ptrIN5arrow2io16FileOutputStream20FileOutputStreamImplESt14default_deleteIS3_EEptEv = comdat any

$_ZN5arrow2io16FileOutputStream20FileOutputStreamImpl4OpenERKNSt7__cxx1112basic_stringIcSt11char_traitsIcESaIcEEEb = comdat any

$_ZN5arrow6ResultISt10shared_ptrINS_2io16FileOutputStreamEEEC2ERKNS_6StatusE = comdat any

$_ZN5arrow6ResultISt10shared_ptrINS_2io16FileOutputStreamEEEC2EOS4_ = comdat any

$_ZNSt10shared_ptrIN5arrow2io16FileOutputStreamEED2Ev = comdat any

$_ZN5arrow2io16FileOutputStream20FileOutputStreamImpl4OpenEi = comdat any

$_ZN5arrow2io6OSFile5WriteEPKvl = comdat any

$_ZN5arrow2io22ReadWriteFileInterfaceC2Ev = comdat any

$_ZNSt10shared_ptrIN5arrow2io16MemoryMappedFile9MemoryMapEEC2Ev = comdat any

$_ZNSt10shared_ptrIN5arrow2io16MemoryMappedFile9MemoryMapEED2Ev = comdat any

$_ZN5arrow2io22ReadWriteFileInterfaceD2Ev = comdat any

$_ZNK5arrow6ResultISt10shared_ptrINS_2io16FileOutputStreamEEE2okEv = comdat any

$_ZNK5arrow6ResultISt10shared_ptrINS_2io16FileOutputStreamEEE6statusEv = comdat any

$_ZN5arrow6ResultISt10shared_ptrINS_2io16MemoryMappedFileEEEC2ERKNS_6StatusE = comdat any

$_ZNO5arrow6ResultISt10shared_ptrINS_2io16FileOutputStreamEEE11ValueUnsafeEv = comdat any

$_ZN5arrow6ResultISt10shared_ptrINS_2io16FileOutputStreamEEED2Ev = comdat any

$_ZNSt10shared_ptrIN5arrow2io16MemoryMappedFileEEC2IS2_vEEPT_ = comdat any

$_ZNKSt19__shared_ptr_accessIN5arrow2io16MemoryMappedFileELN9__gnu_cxx12_Lock_policyE2ELb0ELb0EEptEv = comdat any

$_ZNSt12__shared_ptrIN5arrow2io16MemoryMappedFile9MemoryMapELN9__gnu_cxx12_Lock_policyE2EE5resetIS3_EENSt9enable_ifIXsr21__sp_is_constructibleIS3_T_EE5valueEvE4typeEPS9_ = comdat any

$_ZN5arrow2io16MemoryMappedFile9MemoryMapC2Ev = comdat any

$_ZNKSt19__shared_ptr_accessIN5arrow2io16MemoryMappedFile9MemoryMapELN9__gnu_cxx12_Lock_policyE2ELb0ELb0EEptEv = comdat any

$_ZN5arrow2io16MemoryMappedFile9MemoryMap4OpenERKNSt7__cxx1112basic_stringIcSt11char_traitsIcESaIcEEENS0_8FileMode4typeEll = comdat any

$_ZN5arrow6ResultISt10shared_ptrINS_2io16MemoryMappedFileEEEC2EOS4_ = comdat any

$_ZNSt10shared_ptrIN5arrow2io16MemoryMappedFileEED2Ev = comdat any

$_ZNK5arrow2io16MemoryMappedFile9MemoryMap11CheckClosedEv = comdat any

$_ZN5arrow6ResultIlEC2ERKNS_6StatusE = comdat any

$_ZNK5arrow2io16MemoryMappedFile9MemoryMap4sizeEv = comdat any

$_ZN5arrow2io16MemoryMappedFile9MemoryMap8positionEv = comdat any

$_ZN5arrow2io16MemoryMappedFile9MemoryMap4SeekEl = comdat any

$_ZN5arrow2io16MemoryMappedFile9MemoryMap5CloseEv = comdat any

$_ZNK5arrow2io16MemoryMappedFile9MemoryMap6closedEv = comdat any

$_ZN5arrow6ResultISt10shared_ptrINS_6BufferEEEC2ERKNS_6StatusE = comdat any

$_ZN5arrow2io16MemoryMappedFile9MemoryMap8writableEv = comdat any

$_ZN5arrow2io16MemoryMappedFile9MemoryMap11resize_lockEv = comdat any

$_ZNSt11unique_lockISt5mutexEC2ERS0_ = comdat any

$_ZNSt11unique_lockISt5mutexEC2Ev = comdat any

$_ZNK5arrow6ResultIlE2okEv = comdat any

$_ZNK5arrow6ResultIlE6statusEv = comdat any

$_ZNO5arrow6ResultIlE11ValueUnsafeEv = comdat any

$_ZN5arrow2io16MemoryMappedFile9MemoryMap4dataEv = comdat any

$_ZNSaIN5arrow8internal12MemoryRegionEEC2Ev = comdat any

$_ZNSt6vectorIN5arrow8internal12MemoryRegionESaIS2_EEC2ESt16initializer_listIS2_ERKS3_ = comdat any

$_ZNSt6vectorIN5arrow8internal12MemoryRegionESaIS2_EED2Ev = comdat any

$_ZNSaIN5arrow8internal12MemoryRegionEED2Ev = comdat any

$_ZN5arrow2io16MemoryMappedFile9MemoryMap5SliceEll = comdat any

$_ZN5arrow6ResultIlED2Ev = comdat any

$_ZNSt11unique_lockISt5mutexED2Ev = comdat any

$_ZN5arrow2io16MemoryMappedFile9MemoryMap7advanceEl = comdat any

$_ZNK5arrow6ResultISt10shared_ptrINS_6BufferEEE2okEv = comdat any

$_ZNK5arrow6ResultISt10shared_ptrINS_6BufferEEE6statusEv = comdat any

$_ZNO5arrow6ResultISt10shared_ptrINS_6BufferEEE11ValueUnsafeEv = comdat any

$_ZNKSt19__shared_ptr_accessIN5arrow6BufferELN9__gnu_cxx12_Lock_policyE2ELb0ELb0EEptEv = comdat any

$_ZNK5arrow6Buffer4sizeEv = comdat any

$_ZN5arrow6ResultISt10shared_ptrINS_6BufferEEEC2EOS3_ = comdat any

$_ZNSt10shared_ptrIN5arrow6BufferEED2Ev = comdat any

$_ZN5arrow6ResultISt10shared_ptrINS_6BufferEEED2Ev = comdat any

$_ZN5arrow6FutureISt10shared_ptrINS_6BufferEEE12MakeFinishedENS_6ResultIS3_EE = comdat any

$_ZNKSt6vectorIN5arrow2io9ReadRangeESaIS2_EE4sizeEv = comdat any

$_ZNSt6vectorIN5arrow8internal12MemoryRegionESaIS2_EEC2EmRKS3_ = comdat any

$_ZNKSt6vectorIN5arrow2io9ReadRangeESaIS2_EEixEm = comdat any

$_ZN5arrow6StatusC2ERKS0_ = comdat any

$_ZNSt6vectorIN5arrow8internal12MemoryRegionESaIS2_EEixEm = comdat any

$_ZN5arrow2io16MemoryMappedFile9MemoryMap10write_lockEv = comdat any

$_ZNSt10lock_guardISt5mutexEC2ERS0_ = comdat any

$_ZN5arrow2io16MemoryMappedFile9MemoryMap6openedEv = comdat any

$_ZN5arrow6Status7IOErrorIJRA16_KcEEES0_DpOT_ = comdat any

$_ZNSt10lock_guardISt5mutexED2Ev = comdat any

$_ZN5arrow2io16MemoryMappedFile9MemoryMap4headEv = comdat any

$_ZN5arrow6Status2OKEv = comdat any

$_ZNSt11unique_lockISt5mutexEC2ERS0_St12defer_lock_t = comdat any

$_ZSt4lockISt11unique_lockISt5mutexES2_JEEvRT_RT0_DpRT1_ = comdat any

$_ZN5arrow2io16MemoryMappedFile9MemoryMap6ResizeEl = comdat any

$_ZNK5arrow2io16MemoryMappedFile9MemoryMap2fdEv = comdat any

$_ZN5arrow2io8internal34RandomAccessFileConcurrencyWrapperINS0_12ReadableFileEED1Ev = comdat any

$_ZN5arrow2io8internal34RandomAccessFileConcurrencyWrapperINS0_12ReadableFileEED0Ev = comdat any

$_ZN5arrow2io8internal34RandomAccessFileConcurrencyWrapperINS0_12ReadableFileEE4ReadElPv = comdat any

$_ZN5arrow2io8internal34RandomAccessFileConcurrencyWrapperINS0_12ReadableFileEE4ReadEl = comdat any

$_ZN5arrow2io8internal34RandomAccessFileConcurrencyWrapperINS0_12ReadableFileEE4PeekEl = comdat any

$_ZN5arrow2io8internal34RandomAccessFileConcurrencyWrapperINS0_12ReadableFileEE7GetSizeEv = comdat any

$_ZN5arrow2io8internal34RandomAccessFileConcurrencyWrapperINS0_12ReadableFileEE6ReadAtEllPv = comdat any

$_ZN5arrow2io8internal34RandomAccessFileConcurrencyWrapperINS0_12ReadableFileEE6ReadAtEll = comdat any

$_ZN5arrow2io8internal34RandomAccessFileConcurrencyWrapperINS0_12ReadableFileEE5CloseEv = comdat any

$_ZN5arrow2io8internal34RandomAccessFileConcurrencyWrapperINS0_12ReadableFileEE5AbortEv = comdat any

$_ZNK5arrow2io8internal34RandomAccessFileConcurrencyWrapperINS0_12ReadableFileEE4TellEv = comdat any

$_ZN5arrow2io8internal34RandomAccessFileConcurrencyWrapperINS0_12ReadableFileEE4SeekEl = comdat any

$_ZN5arrow2io8internal34RandomAccessFileConcurrencyWrapperINS0_12ReadableFileEE7DoAbortEv = comdat any

$_ZN5arrow2io8internal34RandomAccessFileConcurrencyWrapperINS0_12ReadableFileEE6DoPeekEl = comdat any

$_ZTv0_n24_N5arrow2io8internal34RandomAccessFileConcurrencyWrapperINS0_12ReadableFileEED1Ev = comdat any

$_ZTv0_n24_N5arrow2io8internal34RandomAccessFileConcurrencyWrapperINS0_12ReadableFileEED0Ev = comdat any

$_ZTv0_n32_N5arrow2io8internal34RandomAccessFileConcurrencyWrapperINS0_12ReadableFileEE5CloseEv = comdat any

$_ZTv0_n48_N5arrow2io8internal34RandomAccessFileConcurrencyWrapperINS0_12ReadableFileEE5AbortEv = comdat any

$_ZTv0_n56_NK5arrow2io8internal34RandomAccessFileConcurrencyWrapperINS0_12ReadableFileEE4TellEv = comdat any

$_ZN5arrow2io11InputStreamD1Ev = comdat any

$_ZN5arrow2io11InputStreamD0Ev = comdat any

$_ZTv0_n24_N5arrow2io11InputStreamD1Ev = comdat any

$_ZTv0_n24_N5arrow2io11InputStreamD0Ev = comdat any

$_ZThn8_N5arrow2io8internal34RandomAccessFileConcurrencyWrapperINS0_12ReadableFileEE4SeekEl = comdat any

$_ZN5arrow2io12OutputStreamD1Ev = comdat any

$_ZN5arrow2io12OutputStreamD0Ev = comdat any

$_ZTv0_n24_N5arrow2io12OutputStreamD1Ev = comdat any

$_ZTv0_n24_N5arrow2io12OutputStreamD0Ev = comdat any

$_ZN5arrow2io22ReadWriteFileInterfaceD1Ev = comdat any

$_ZN5arrow2io22ReadWriteFileInterfaceD0Ev = comdat any

$_ZThn24_N5arrow2io22ReadWriteFileInterfaceD1Ev = comdat any

$_ZThn24_N5arrow2io22ReadWriteFileInterfaceD0Ev = comdat any

$_ZTv0_n24_N5arrow2io22ReadWriteFileInterfaceD1Ev = comdat any

$_ZTv0_n24_N5arrow2io22ReadWriteFileInterfaceD0Ev = comdat any

$_ZN5arrow2io12WritableFileD1Ev = comdat any

$_ZN5arrow2io12WritableFileD0Ev = comdat any

$_ZTv0_n24_N5arrow2io12WritableFileD1Ev = comdat any

$_ZTv0_n24_N5arrow2io12WritableFileD0Ev = comdat any

$_ZThn8_N5arrow2io8internal34RandomAccessFileConcurrencyWrapperINS0_12ReadableFileEED1Ev = comdat any

$_ZThn8_N5arrow2io8internal34RandomAccessFileConcurrencyWrapperINS0_12ReadableFileEED0Ev = comdat any

$_ZNSt15__uniq_ptr_dataIN5arrow2io12ReadableFile16ReadableFileImplESt14default_deleteIS3_ELb1ELb1EEC2Ev = comdat any

$_ZNSt15__uniq_ptr_implIN5arrow2io12ReadableFile16ReadableFileImplESt14default_deleteIS3_EEC2Ev = comdat any

$_ZNSt5tupleIJPN5arrow2io12ReadableFile16ReadableFileImplESt14default_deleteIS3_EEEC2ILb1ETnNSt9enable_ifIXclsr17_TupleConstraintsIXT_ES4_S6_EE37__is_implicitly_default_constructibleEEbE4typeELb1EEEv = comdat any

$_ZNSt11_Tuple_implILm0EJPN5arrow2io12ReadableFile16ReadableFileImplESt14default_deleteIS3_EEEC2Ev = comdat any

$_ZNSt11_Tuple_implILm1EJSt14default_deleteIN5arrow2io12ReadableFile16ReadableFileImplEEEEC2Ev = comdat any

$_ZNSt10_Head_baseILm0EPN5arrow2io12ReadableFile16ReadableFileImplELb0EEC2Ev = comdat any

$_ZNSt10_Head_baseILm1ESt14default_deleteIN5arrow2io12ReadableFile16ReadableFileImplEELb1EEC2Ev = comdat any

$_ZNSt5mutexC2Ev = comdat any

$_ZN5arrow8internal14FileDescriptorC2Ev = comdat any

$_ZNSt6atomicIbEC2Eb = comdat any

$_ZNSt12__mutex_baseC2Ev = comdat any

$_ZNSt6atomicIiEC2Ei = comdat any

$_ZNSt13__atomic_baseIiEC2Ei = comdat any

$_ZNSt13__atomic_baseIbEC2Eb = comdat any

$_ZN5arrow2io8internal22SharedExclusiveCheckerD2Ev = comdat any

$_ZNSt10shared_ptrIN5arrow2io8internal22SharedExclusiveChecker4ImplEED2Ev = comdat any

$_ZNSt12__shared_ptrIN5arrow2io8internal22SharedExclusiveChecker4ImplELN9__gnu_cxx12_Lock_policyE2EED2Ev = comdat any

$_ZNSt14__shared_countILN9__gnu_cxx12_Lock_policyE2EED2Ev = comdat any

$_ZNSt16_Sp_counted_baseILN9__gnu_cxx12_Lock_policyE2EE10_M_releaseEv = comdat any

$_ZNSt16_Sp_counted_baseILN9__gnu_cxx12_Lock_policyE2EE24_M_release_last_use_coldEv = comdat any

$_ZNSt16_Sp_counted_baseILN9__gnu_cxx12_Lock_policyE2EE19_M_release_last_useEv = comdat any

$_ZNSt23enable_shared_from_thisIN5arrow2io13FileInterfaceEEC2Ev = comdat any

$_ZNSt8weak_ptrIN5arrow2io13FileInterfaceEEC2Ev = comdat any

$_ZNSt10__weak_ptrIN5arrow2io13FileInterfaceELN9__gnu_cxx12_Lock_policyE2EEC2Ev = comdat any

$_ZNSt12__weak_countILN9__gnu_cxx12_Lock_policyE2EEC2Ev = comdat any

$_ZN5arrow6StatusC2EOS0_ = comdat any

$_ZN5arrow2io6OSFile12OpenReadableERKNSt7__cxx1112basic_stringIcSt11char_traitsIcESaIcEEE = comdat any

$_ZN5arrow2io6OSFile11SetFileNameERKNSt7__cxx1112basic_stringIcSt11char_traitsIcESaIcEEE = comdat any

$_ZNK5arrow6ResultINS_8internal14FileDescriptorEE2okEv = comdat any

$_ZNK5arrow6ResultINS_8internal14FileDescriptorEE6statusEv = comdat any

$_ZNO5arrow6ResultINS_8internal14FileDescriptorEE11ValueUnsafeEv = comdat any

$_ZNK5arrow8internal14FileDescriptor2fdEv = comdat any

$_ZN5arrow6ResultINS_8internal14FileDescriptorEED2Ev = comdat any

$_ZNO5arrow6ResultINS_8internal16PlatformFilenameEE5ValueIS2_vEENS_6StatusEPT_ = comdat any

$_ZN5arrow6ResultINS_8internal16PlatformFilenameEED2Ev = comdat any

$_ZNK5arrow6ResultINS_8internal16PlatformFilenameEE2okEv = comdat any

$_ZNK5arrow6ResultINS_8internal16PlatformFilenameEE6statusEv = comdat any

$_ZN5arrow6ResultINS_8internal16PlatformFilenameEE15MoveValueUnsafeEv = comdat any

$_ZN5arrow8internal14AlignedStorageINS0_16PlatformFilenameEE3getEv = comdat any

$_ZSt7launderIN5arrow8internal16PlatformFilenameEEPT_S4_ = comdat any

$_ZN5arrow6ResultINS_8internal16PlatformFilenameEE7DestroyEv = comdat any

$_ZN5arrow4util18EqualityComparableINS_6ResultINS_8internal16PlatformFilenameEEEED2Ev = comdat any

$_ZN5arrow8internal14AlignedStorageINS0_16PlatformFilenameEE7destroyEv = comdat any

$_ZN5arrow6ResultINS_8internal14FileDescriptorEE15MoveValueUnsafeEv = comdat any

$_ZN5arrow8internal14AlignedStorageINS0_14FileDescriptorEE3getEv = comdat any

$_ZSt7launderIN5arrow8internal14FileDescriptorEEPT_S4_ = comdat any

$_ZStanSt12memory_orderSt23__memory_order_modifier = comdat any

$_ZN5arrow6ResultINS_8internal14FileDescriptorEE7DestroyEv = comdat any

$_ZN5arrow4util18EqualityComparableINS_6ResultINS_8internal14FileDescriptorEEEED2Ev = comdat any

$_ZN5arrow8internal14AlignedStorageINS0_14FileDescriptorEE7destroyEv = comdat any

$_ZN5arrow6Status11DeleteStateEv = comdat any

$_ZN5arrow4util19ToStringOstreamableINS_6StatusEED2Ev = comdat any

$_ZN5arrow4util18EqualityComparableINS_6StatusEED2Ev = comdat any

$_ZN5arrow6Status5StateD2Ev = comdat any

$_ZNSt10shared_ptrIN5arrow12StatusDetailEED2Ev = comdat any

$_ZNSt12__shared_ptrIN5arrow12StatusDetailELN9__gnu_cxx12_Lock_policyE2EED2Ev = comdat any

$_ZNSt12__shared_ptrIN5arrow2io12ReadableFileELN9__gnu_cxx12_Lock_policyE2EED2Ev = comdat any

$_ZN5arrow2io6OSFile12OpenReadableEi = comdat any

$_ZN5arrow2io6OSFile11SetFileNameEi = comdat any

$_ZN5arrow8internal14FileDescriptorC2Ei = comdat any

$_ZNK5arrow8internal14FileDescriptor6closedEv = comdat any

$_ZNK5arrow2io6OSFile11CheckClosedEv = comdat any

$_ZNKSt6vectorIN5arrow2io9ReadRangeESaIS2_EE5beginEv = comdat any

$_ZNKSt6vectorIN5arrow2io9ReadRangeESaIS2_EE3endEv = comdat any

$_ZN9__gnu_cxxneIPKN5arrow2io9ReadRangeESt6vectorIS3_SaIS3_EEEEbRKNS_17__normal_iteratorIT_T0_EESE_ = comdat any

$_ZNK9__gnu_cxx17__normal_iteratorIPKN5arrow2io9ReadRangeESt6vectorIS3_SaIS3_EEEdeEv = comdat any

$_ZZN5arrow2io12ReadableFile16ReadableFileImpl8WillNeedERKSt6vectorINS0_9ReadRangeESaIS4_EEENKUliPKcE_clEiSA_ = comdat any

$_ZN9__gnu_cxx17__normal_iteratorIPKN5arrow2io9ReadRangeESt6vectorIS3_SaIS3_EEEppEv = comdat any

$_ZN5arrow6Status7InvalidIJRA33_KcEEES0_DpOT_ = comdat any

$_ZN5arrow6Status8FromArgsIJRA33_KcEEES0_NS_10StatusCodeEDpOT_ = comdat any

$_ZN5arrow4util13StringBuilderIJRA33_KcEEENSt7__cxx1112basic_stringIcSt11char_traitsIcESaIcEEEDpOT_ = comdat any

$_ZN5arrow4util22StringBuilderRecursiveIRA33_KcEEvRSoOT_ = comdat any

$_ZN5arrow4util6detail19StringStreamWrapper6streamEv = comdat any

$_ZN9__gnu_cxx17__normal_iteratorIPKN5arrow2io9ReadRangeESt6vectorIS3_SaIS3_EEEC2ERKS5_ = comdat any

$_ZNK9__gnu_cxx17__normal_iteratorIPKN5arrow2io9ReadRangeESt6vectorIS3_SaIS3_EEE4baseEv = comdat any

$_ZN5arrow8internal16IOErrorFromErrnoIJRPKcEEENS_6StatusEiDpOT_ = comdat any

$_ZN5arrow8internal15StatusFromErrnoIJRPKcEEENS_6StatusEiNS_10StatusCodeEDpOT_ = comdat any

$_ZN5arrow6Status17FromDetailAndArgsIJRPKcEEES0_NS_10StatusCodeESt10shared_ptrINS_12StatusDetailEEDpOT_ = comdat any

$_ZN5arrow4util13StringBuilderIJRPKcEEENSt7__cxx1112basic_stringIcSt11char_traitsIcESaIcEEEDpOT_ = comdat any

$_ZNSt10shared_ptrIN5arrow12StatusDetailEEC2EOS2_ = comdat any

$_ZN5arrow4util22StringBuilderRecursiveIRPKcEEvRSoOT_ = comdat any

$_ZNSt12__shared_ptrIN5arrow12StatusDetailELN9__gnu_cxx12_Lock_policyE2EEC2EOS4_ = comdat any

$_ZNSt14__shared_countILN9__gnu_cxx12_Lock_policyE2EEC2Ev = comdat any

$_ZNSt14__shared_countILN9__gnu_cxx12_Lock_policyE2EE7_M_swapERS2_ = comdat any

$_ZN5arrow2io6OSFile15CheckPositionedEv = comdat any

$_ZNKSt6atomicIbE4loadESt12memory_order = comdat any

$_ZN5arrow6Status7InvalidIJRA75_KcEEES0_DpOT_ = comdat any

$_ZN5arrow6Status8FromArgsIJRA75_KcEEES0_NS_10StatusCodeEDpOT_ = comdat any

$_ZN5arrow4util13StringBuilderIJRA75_KcEEENSt7__cxx1112basic_stringIcSt11char_traitsIcESaIcEEEDpOT_ = comdat any

$_ZN5arrow4util22StringBuilderRecursiveIRA75_KcEEvRSoOT_ = comdat any

$_ZNSt6atomicIbE5storeEbSt12memory_order = comdat any

$_ZNK5arrow6ResultISt10unique_ptrINS_15ResizableBufferESt14default_deleteIS2_EEE2okEv = comdat any

$_ZNK5arrow6ResultISt10unique_ptrINS_15ResizableBufferESt14default_deleteIS2_EEE6statusEv = comdat any

$_ZNO5arrow6ResultISt10unique_ptrINS_15ResizableBufferESt14default_deleteIS2_EEE11ValueUnsafeEv = comdat any

$_ZNKSt10unique_ptrIN5arrow15ResizableBufferESt14default_deleteIS1_EEptEv = comdat any

$_ZN5arrow6Buffer12mutable_dataEv = comdat any

$_ZN5arrow15ResizableBuffer6ResizeEl = comdat any

$_ZN5arrow6Buffer11ZeroPaddingEv = comdat any

$_ZN5arrow6ResultISt10shared_ptrINS_6BufferEEEC2ISt10unique_ptrINS_15ResizableBufferESt14default_deleteIS7_EEvEEOT_ = comdat any

$_ZNSt10unique_ptrIN5arrow15ResizableBufferESt14default_deleteIS1_EED2Ev = comdat any

$_ZN5arrow6ResultISt10unique_ptrINS_15ResizableBufferESt14default_deleteIS2_EEED2Ev = comdat any

$_ZN5arrow6ResultISt10unique_ptrINS_15ResizableBufferESt14default_deleteIS2_EEE15MoveValueUnsafeEv = comdat any

$_ZN5arrow8internal14AlignedStorageISt10unique_ptrINS_15ResizableBufferESt14default_deleteIS3_EEE3getEv = comdat any

$_ZNSt10unique_ptrIN5arrow15ResizableBufferESt14default_deleteIS1_EEC2EOS4_ = comdat any

$_ZSt7launderISt10unique_ptrIN5arrow15ResizableBufferESt14default_deleteIS2_EEEPT_S7_ = comdat any

$_ZNSt15__uniq_ptr_dataIN5arrow15ResizableBufferESt14default_deleteIS1_ELb1ELb1EEC2EOS4_ = comdat any

$_ZNSt15__uniq_ptr_implIN5arrow15ResizableBufferESt14default_deleteIS1_EEC2EOS4_ = comdat any

$_ZNSt5tupleIJPN5arrow15ResizableBufferESt14default_deleteIS1_EEEC2EOS5_ = comdat any

$_ZNSt15__uniq_ptr_implIN5arrow15ResizableBufferESt14default_deleteIS1_EE6_M_ptrEv = comdat any

$_ZNSt11_Tuple_implILm0EJPN5arrow15ResizableBufferESt14default_deleteIS1_EEEC2EOS5_ = comdat any

$_ZNSt11_Tuple_implILm1EJSt14default_deleteIN5arrow15ResizableBufferEEEEC2EOS4_ = comdat any

$_ZSt3getILm0EJPN5arrow15ResizableBufferESt14default_deleteIS1_EEERNSt13tuple_elementIXT_ESt5tupleIJDpT0_EEE4typeERS9_ = comdat any

$_ZSt12__get_helperILm0EPN5arrow15ResizableBufferEJSt14default_deleteIS1_EEERT0_RSt11_Tuple_implIXT_EJS5_DpT1_EE = comdat any

$_ZNSt11_Tuple_implILm0EJPN5arrow15ResizableBufferESt14default_deleteIS1_EEE7_M_headERS5_ = comdat any

$_ZNSt10_Head_baseILm0EPN5arrow15ResizableBufferELb0EE7_M_headERS3_ = comdat any

$_ZNKSt10unique_ptrIN5arrow15ResizableBufferESt14default_deleteIS1_EE3getEv = comdat any

$_ZNKSt15__uniq_ptr_implIN5arrow15ResizableBufferESt14default_deleteIS1_EE6_M_ptrEv = comdat any

$_ZSt3getILm0EJPN5arrow15ResizableBufferESt14default_deleteIS1_EEERKNSt13tuple_elementIXT_ESt5tupleIJDpT0_EEE4typeERKS9_ = comdat any

$_ZSt12__get_helperILm0EPN5arrow15ResizableBufferEJSt14default_deleteIS1_EEERKT0_RKSt11_Tuple_implIXT_EJS5_DpT1_EE = comdat any

$_ZNSt11_Tuple_implILm0EJPN5arrow15ResizableBufferESt14default_deleteIS1_EEE7_M_headERKS5_ = comdat any

$_ZNSt10_Head_baseILm0EPN5arrow15ResizableBufferELb0EE7_M_headERKS3_ = comdat any

$_ZN5arrow6StatusC2Ev = comdat any

$_ZN5arrow6ResultISt10shared_ptrINS_6BufferEEE14ConstructValueISt10unique_ptrINS_15ResizableBufferESt14default_deleteIS7_EEEEvOT_ = comdat any

$_ZN5arrow8internal14AlignedStorageISt10shared_ptrINS_6BufferEEE9constructIJSt10unique_ptrINS_15ResizableBufferESt14default_deleteIS8_EEEEEvDpOT_ = comdat any

$_ZNSt10shared_ptrIN5arrow6BufferEEC2INS0_15ResizableBufferESt14default_deleteIS4_EvEEOSt10unique_ptrIT_T0_E = comdat any

$_ZNSt12__shared_ptrIN5arrow6BufferELN9__gnu_cxx12_Lock_policyE2EEC2INS0_15ResizableBufferESt14default_deleteIS6_EvEEOSt10unique_ptrIT_T0_E = comdat any

$_ZSt12__to_addressIN5arrow15ResizableBufferEEPT_S3_ = comdat any

$_ZNSt14__shared_countILN9__gnu_cxx12_Lock_policyE2EEC2IN5arrow15ResizableBufferESt14default_deleteIS5_EEEOSt10unique_ptrIT_T0_E = comdat any

$_ZNSt14__shared_countILN9__gnu_cxx12_Lock_policyE2EEaSERKS2_ = comdat any

$_ZNSt12__shared_ptrIN5arrow6BufferELN9__gnu_cxx12_Lock_policyE2EE31_M_enable_shared_from_this_withINS0_15ResizableBufferES6_EENSt9enable_ifIXntsr15__has_esft_baseIT0_EE5valueEvE4typeEPT_ = comdat any

$_ZNSaISt19_Sp_counted_deleterIPN5arrow15ResizableBufferESt14default_deleteIS1_ESaIvELN9__gnu_cxx12_Lock_policyE2EEEC2Ev = comdat any

$_ZNSt16allocator_traitsISaISt19_Sp_counted_deleterIPN5arrow15ResizableBufferESt14default_deleteIS2_ESaIvELN9__gnu_cxx12_Lock_policyE2EEEE8allocateERSA_m = comdat any

$_ZNSt16allocator_traitsISaISt19_Sp_counted_deleterIPN5arrow15ResizableBufferESt14default_deleteIS2_ESaIvELN9__gnu_cxx12_Lock_policyE2EEEE9constructIS9_JS3_S5_EEEvRSA_PT_DpOT0_ = comdat any

$_ZNSt10unique_ptrIN5arrow15ResizableBufferESt14default_deleteIS1_EE7releaseEv = comdat any

$_ZNSt10unique_ptrIN5arrow15ResizableBufferESt14default_deleteIS1_EE11get_deleterEv = comdat any

$_ZNSaISt19_Sp_counted_deleterIPN5arrow15ResizableBufferESt14default_deleteIS1_ESaIvELN9__gnu_cxx12_Lock_policyE2EEED2Ev = comdat any

$_ZNSt15__new_allocatorISt19_Sp_counted_deleterIPN5arrow15ResizableBufferESt14default_deleteIS2_ESaIvELN9__gnu_cxx12_Lock_policyE2EEEC2Ev = comdat any

$_ZNSt15__new_allocatorISt19_Sp_counted_deleterIPN5arrow15ResizableBufferESt14default_deleteIS2_ESaIvELN9__gnu_cxx12_Lock_policyE2EEE8allocateEmPKv = comdat any

$_ZNKSt15__new_allocatorISt19_Sp_counted_deleterIPN5arrow15ResizableBufferESt14default_deleteIS2_ESaIvELN9__gnu_cxx12_Lock_policyE2EEE11_M_max_sizeEv = comdat any

$_ZNSt15__new_allocatorISt19_Sp_counted_deleterIPN5arrow15ResizableBufferESt14default_deleteIS2_ESaIvELN9__gnu_cxx12_Lock_policyE2EEE9constructIS9_JS3_S5_EEEvPT_DpOT0_ = comdat any

$_ZNSt19_Sp_counted_deleterIPN5arrow15ResizableBufferESt14default_deleteIS1_ESaIvELN9__gnu_cxx12_Lock_policyE2EEC2ES2_S4_ = comdat any

$_ZNSt16_Sp_counted_baseILN9__gnu_cxx12_Lock_policyE2EEC2Ev = comdat any

$_ZNSt19_Sp_counted_deleterIPN5arrow15ResizableBufferESt14default_deleteIS1_ESaIvELN9__gnu_cxx12_Lock_policyE2EE5_ImplC2ES2_S4_RKS5_ = comdat any

$_ZNSt19_Sp_counted_deleterIPN5arrow15ResizableBufferESt14default_deleteIS1_ESaIvELN9__gnu_cxx12_Lock_policyE2EED2Ev = comdat any

$_ZNSt19_Sp_counted_deleterIPN5arrow15ResizableBufferESt14default_deleteIS1_ESaIvELN9__gnu_cxx12_Lock_policyE2EED0Ev = comdat any

$_ZNSt19_Sp_counted_deleterIPN5arrow15ResizableBufferESt14default_deleteIS1_ESaIvELN9__gnu_cxx12_Lock_policyE2EE10_M_disposeEv = comdat any

$_ZNSt19_Sp_counted_deleterIPN5arrow15ResizableBufferESt14default_deleteIS1_ESaIvELN9__gnu_cxx12_Lock_policyE2EE10_M_destroyEv = comdat any

$_ZNSt19_Sp_counted_deleterIPN5arrow15ResizableBufferESt14default_deleteIS1_ESaIvELN9__gnu_cxx12_Lock_policyE2EE14_M_get_deleterERKSt9type_info = comdat any

$_ZNSt16_Sp_counted_baseILN9__gnu_cxx12_Lock_policyE2EED2Ev = comdat any

$_ZNSt16_Sp_counted_baseILN9__gnu_cxx12_Lock_policyE2EED0Ev = comdat any

$_ZNSt16_Sp_counted_baseILN9__gnu_cxx12_Lock_policyE2EE10_M_destroyEv = comdat any

$_ZNSt14_Sp_ebo_helperILi0ESt14default_deleteIN5arrow15ResizableBufferEELb1EEC2EOS3_ = comdat any

$_ZNSt14_Sp_ebo_helperILi1ESaIvELb1EEC2ERKS0_ = comdat any

$_ZNSt19_Sp_counted_deleterIPN5arrow15ResizableBufferESt14default_deleteIS1_ESaIvELN9__gnu_cxx12_Lock_policyE2EE5_Impl6_M_delEv = comdat any

$_ZNKSt14default_deleteIN5arrow15ResizableBufferEEclEPS1_ = comdat any

$_ZNSt14_Sp_ebo_helperILi0ESt14default_deleteIN5arrow15ResizableBufferEELb1EE6_S_getERS4_ = comdat any

$_ZNSt19_Sp_counted_deleterIPN5arrow15ResizableBufferESt14default_deleteIS1_ESaIvELN9__gnu_cxx12_Lock_policyE2EE5_Impl8_M_allocEv = comdat any

$_ZNSaISt19_Sp_counted_deleterIPN5arrow15ResizableBufferESt14default_deleteIS1_ESaIvELN9__gnu_cxx12_Lock_policyE2EEEC2IvEERKSaIT_E = comdat any

$_ZNSt15__allocated_ptrISaISt19_Sp_counted_deleterIPN5arrow15ResizableBufferESt14default_deleteIS2_ESaIvELN9__gnu_cxx12_Lock_policyE2EEEEC2ERSA_PS9_ = comdat any

$_ZNSt15__allocated_ptrISaISt19_Sp_counted_deleterIPN5arrow15ResizableBufferESt14default_deleteIS2_ESaIvELN9__gnu_cxx12_Lock_policyE2EEEED2Ev = comdat any

$_ZNSt14_Sp_ebo_helperILi1ESaIvELb1EE6_S_getERS1_ = comdat any

$_ZNSt16allocator_traitsISaISt19_Sp_counted_deleterIPN5arrow15ResizableBufferESt14default_deleteIS2_ESaIvELN9__gnu_cxx12_Lock_policyE2EEEE10deallocateERSA_PS9_m = comdat any

$_ZNSt15__new_allocatorISt19_Sp_counted_deleterIPN5arrow15ResizableBufferESt14default_deleteIS2_ESaIvELN9__gnu_cxx12_Lock_policyE2EEE10deallocateEPS9_m = comdat any

$_ZNKSt9type_infoeqERKS_ = comdat any

$_ZNKSt9type_info4nameEv = comdat any

$_ZNSt15__uniq_ptr_implIN5arrow15ResizableBufferESt14default_deleteIS1_EE7releaseEv = comdat any

$_ZNSt15__uniq_ptr_implIN5arrow15ResizableBufferESt14default_deleteIS1_EE10_M_deleterEv = comdat any

$_ZSt3getILm1EJPN5arrow15ResizableBufferESt14default_deleteIS1_EEERNSt13tuple_elementIXT_ESt5tupleIJDpT0_EEE4typeERS9_ = comdat any

$_ZSt12__get_helperILm1ESt14default_deleteIN5arrow15ResizableBufferEEJEERT0_RSt11_Tuple_implIXT_EJS4_DpT1_EE = comdat any

$_ZNSt11_Tuple_implILm1EJSt14default_deleteIN5arrow15ResizableBufferEEEE7_M_headERS4_ = comdat any

$_ZNSt10_Head_baseILm1ESt14default_deleteIN5arrow15ResizableBufferEELb1EE7_M_headERS4_ = comdat any

$_ZNSt15__new_allocatorISt19_Sp_counted_deleterIPN5arrow15ResizableBufferESt14default_deleteIS2_ESaIvELN9__gnu_cxx12_Lock_policyE2EEED2Ev = comdat any

$_ZNSt16_Sp_counted_baseILN9__gnu_cxx12_Lock_policyE2EE15_M_add_ref_copyEv = comdat any

$_ZN5arrow6ResultISt10unique_ptrINS_15ResizableBufferESt14default_deleteIS2_EEE7DestroyEv = comdat any

$_ZN5arrow4util18EqualityComparableINS_6ResultISt10unique_ptrINS_15ResizableBufferESt14default_deleteIS4_EEEEED2Ev = comdat any

$_ZN5arrow8internal14AlignedStorageISt10unique_ptrINS_15ResizableBufferESt14default_deleteIS3_EEE7destroyEv = comdat any

$_ZN5arrow6Status7InvalidIJRA17_KcEEES0_DpOT_ = comdat any

$_ZN5arrow6Status8FromArgsIJRA17_KcEEES0_NS_10StatusCodeEDpOT_ = comdat any

$_ZN5arrow4util13StringBuilderIJRA17_KcEEENSt7__cxx1112basic_stringIcSt11char_traitsIcESaIcEEEDpOT_ = comdat any

$_ZN5arrow4util22StringBuilderRecursiveIRA17_KcEEvRSoOT_ = comdat any

$_ZN5arrow2io8WritableC2Ev = comdat any

$_ZNSt15__uniq_ptr_dataIN5arrow2io16FileOutputStream20FileOutputStreamImplESt14default_deleteIS3_ELb1ELb1EEC2Ev = comdat any

$_ZNSt15__uniq_ptr_implIN5arrow2io16FileOutputStream20FileOutputStreamImplESt14default_deleteIS3_EEC2Ev = comdat any

$_ZNSt5tupleIJPN5arrow2io16FileOutputStream20FileOutputStreamImplESt14default_deleteIS3_EEEC2ILb1ETnNSt9enable_ifIXclsr17_TupleConstraintsIXT_ES4_S6_EE37__is_implicitly_default_constructibleEEbE4typeELb1EEEv = comdat any

$_ZNSt11_Tuple_implILm0EJPN5arrow2io16FileOutputStream20FileOutputStreamImplESt14default_deleteIS3_EEEC2Ev = comdat any

$_ZNSt11_Tuple_implILm1EJSt14default_deleteIN5arrow2io16FileOutputStream20FileOutputStreamImplEEEEC2Ev = comdat any

$_ZNSt10_Head_baseILm0EPN5arrow2io16FileOutputStream20FileOutputStreamImplELb0EEC2Ev = comdat any

$_ZNSt10_Head_baseILm1ESt14default_deleteIN5arrow2io16FileOutputStream20FileOutputStreamImplEELb1EEC2Ev = comdat any

$_ZN5arrow2io8WritableD2Ev = comdat any

$_ZN5arrow2io6OSFile12OpenWritableERKNSt7__cxx1112basic_stringIcSt11char_traitsIcESaIcEEEbbb = comdat any

$_ZNSt12__shared_ptrIN5arrow2io16FileOutputStreamELN9__gnu_cxx12_Lock_policyE2EED2Ev = comdat any

$_ZN5arrow2io6OSFile12OpenWritableEi = comdat any

$_ZNR5arrow6ResultIlEdeEv = comdat any

$_ZNR5arrow6ResultIlE10ValueOrDieEv = comdat any

$_ZNR5arrow6ResultIlE11ValueUnsafeEv = comdat any

$_ZN5arrow8internal14AlignedStorageIlE3getEv = comdat any

$_ZSt7launderIlEPT_S1_ = comdat any

$_ZN5arrow6Status7IOErrorIJRA28_KcEEES0_DpOT_ = comdat any

$_ZN5arrow6Status8FromArgsIJRA28_KcEEES0_NS_10StatusCodeEDpOT_ = comdat any

$_ZN5arrow4util13StringBuilderIJRA28_KcEEENSt7__cxx1112basic_stringIcSt11char_traitsIcESaIcEEEDpOT_ = comdat any

$_ZN5arrow4util22StringBuilderRecursiveIRA28_KcEEvRSoOT_ = comdat any

$_ZN5arrow2io12WritableFileC2Ev = comdat any

$_ZN5arrow2io13FileInterface8set_modeENS0_8FileMode4typeE = comdat any

$_ZN5arrow2io12WritableFileD2Ev = comdat any

$_ZThn8_N5arrow2io22ReadWriteFileInterfaceD1Ev = comdat any

$_ZThn8_N5arrow2io22ReadWriteFileInterfaceD0Ev = comdat any

$_ZThn32_N5arrow2io22ReadWriteFileInterfaceD1Ev = comdat any

$_ZThn32_N5arrow2io22ReadWriteFileInterfaceD0Ev = comdat any

$_ZN5arrow2io8SeekableC2Ev = comdat any

$_ZThn8_N5arrow2io12WritableFileD1Ev = comdat any

$_ZThn8_N5arrow2io12WritableFileD0Ev = comdat any

$_ZN5arrow2io8SeekableD2Ev = comdat any

$_ZN5arrow2io8SeekableD0Ev = comdat any

$_ZNSt12__shared_ptrIN5arrow2io16MemoryMappedFile9MemoryMapELN9__gnu_cxx12_Lock_policyE2EEC2Ev = comdat any

$_ZNSt23enable_shared_from_thisIN5arrow2io16MemoryMappedFile9MemoryMapEEC2Ev = comdat any

$_ZNSt10unique_ptrIN5arrow2io6OSFileESt14default_deleteIS2_EEC2IS4_vEEv = comdat any

$_ZNSt10shared_ptrIN5arrow2io16MemoryMappedFile9MemoryMap6RegionEEC2Ev = comdat any

$_ZNSt8weak_ptrIN5arrow2io16MemoryMappedFile9MemoryMapEEC2Ev = comdat any

$_ZNSt10__weak_ptrIN5arrow2io16MemoryMappedFile9MemoryMapELN9__gnu_cxx12_Lock_policyE2EEC2Ev = comdat any

$_ZNSt15__uniq_ptr_dataIN5arrow2io6OSFileESt14default_deleteIS2_ELb1ELb1EEC2Ev = comdat any

$_ZNSt15__uniq_ptr_implIN5arrow2io6OSFileESt14default_deleteIS2_EEC2Ev = comdat any

$_ZNSt5tupleIJPN5arrow2io6OSFileESt14default_deleteIS2_EEEC2ILb1ETnNSt9enable_ifIXclsr17_TupleConstraintsIXT_ES3_S5_EE37__is_implicitly_default_constructibleEEbE4typeELb1EEEv = comdat any

$_ZNSt11_Tuple_implILm0EJPN5arrow2io6OSFileESt14default_deleteIS2_EEEC2Ev = comdat any

$_ZNSt11_Tuple_implILm1EJSt14default_deleteIN5arrow2io6OSFileEEEEC2Ev = comdat any

$_ZNSt10_Head_baseILm0EPN5arrow2io6OSFileELb0EEC2Ev = comdat any

$_ZNSt10_Head_baseILm1ESt14default_deleteIN5arrow2io6OSFileEELb1EEC2Ev = comdat any

$_ZSt11make_uniqueIN5arrow2io6OSFileEJEENSt8__detail9_MakeUniqIT_E15__single_objectEDpOT0_ = comdat any

$_ZNSt10unique_ptrIN5arrow2io6OSFileESt14default_deleteIS2_EEaSEOS5_ = comdat any

$_ZNSt10unique_ptrIN5arrow2io6OSFileESt14default_deleteIS2_EED2Ev = comdat any

$_ZNKSt10unique_ptrIN5arrow2io6OSFileESt14default_deleteIS2_EEptEv = comdat any

$_ZN5arrow2io16MemoryMappedFile9MemoryMap8InitMMapElbll = comdat any

$_ZN5arrow2io6OSFileC2Ev = comdat any

$_ZNSt10unique_ptrIN5arrow2io6OSFileESt14default_deleteIS2_EEC2IS4_vEEPS2_ = comdat any

$_ZNSt15__uniq_ptr_dataIN5arrow2io6OSFileESt14default_deleteIS2_ELb1ELb1EECI2St15__uniq_ptr_implIS2_S4_EEPS2_ = comdat any

$_ZNSt15__uniq_ptr_implIN5arrow2io6OSFileESt14default_deleteIS2_EEC2EPS2_ = comdat any

$_ZNSt15__uniq_ptr_implIN5arrow2io6OSFileESt14default_deleteIS2_EE6_M_ptrEv = comdat any

$_ZSt3getILm0EJPN5arrow2io6OSFileESt14default_deleteIS2_EEERNSt13tuple_elementIXT_ESt5tupleIJDpT0_EEE4typeERSA_ = comdat any

$_ZSt12__get_helperILm0EPN5arrow2io6OSFileEJSt14default_deleteIS2_EEERT0_RSt11_Tuple_implIXT_EJS6_DpT1_EE = comdat any

$_ZNSt11_Tuple_implILm0EJPN5arrow2io6OSFileESt14default_deleteIS2_EEE7_M_headERS6_ = comdat any

$_ZNSt10_Head_baseILm0EPN5arrow2io6OSFileELb0EE7_M_headERS4_ = comdat any

$_ZNSt15__uniq_ptr_dataIN5arrow2io6OSFileESt14default_deleteIS2_ELb1ELb1EEaSEOS5_ = comdat any

$_ZNSt15__uniq_ptr_implIN5arrow2io6OSFileESt14default_deleteIS2_EEaSEOS5_ = comdat any

$_ZNSt15__uniq_ptr_implIN5arrow2io6OSFileESt14default_deleteIS2_EE5resetEPS2_ = comdat any

$_ZNSt15__uniq_ptr_implIN5arrow2io6OSFileESt14default_deleteIS2_EE7releaseEv = comdat any

$_ZNSt15__uniq_ptr_implIN5arrow2io6OSFileESt14default_deleteIS2_EE10_M_deleterEv = comdat any

$_ZNKSt14default_deleteIN5arrow2io6OSFileEEclEPS2_ = comdat any

$_ZN5arrow2io6OSFileD2Ev = comdat any

$_ZSt3getILm1EJPN5arrow2io6OSFileESt14default_deleteIS2_EEERNSt13tuple_elementIXT_ESt5tupleIJDpT0_EEE4typeERSA_ = comdat any

$_ZSt12__get_helperILm1ESt14default_deleteIN5arrow2io6OSFileEEJEERT0_RSt11_Tuple_implIXT_EJS5_DpT1_EE = comdat any

$_ZNSt11_Tuple_implILm1EJSt14default_deleteIN5arrow2io6OSFileEEEE7_M_headERS5_ = comdat any

$_ZNSt10_Head_baseILm1ESt14default_deleteIN5arrow2io6OSFileEELb1EE7_M_headERS5_ = comdat any

$_ZNSt10unique_ptrIN5arrow2io6OSFileESt14default_deleteIS2_EE11get_deleterEv = comdat any

$_ZNKSt10unique_ptrIN5arrow2io6OSFileESt14default_deleteIS2_EE3getEv = comdat any

$_ZNKSt15__uniq_ptr_implIN5arrow2io6OSFileESt14default_deleteIS2_EE6_M_ptrEv = comdat any

$_ZSt3getILm0EJPN5arrow2io6OSFileESt14default_deleteIS2_EEERKNSt13tuple_elementIXT_ESt5tupleIJDpT0_EEE4typeERKSA_ = comdat any

$_ZSt12__get_helperILm0EPN5arrow2io6OSFileEJSt14default_deleteIS2_EEERKT0_RKSt11_Tuple_implIXT_EJS6_DpT1_EE = comdat any

$_ZNSt11_Tuple_implILm0EJPN5arrow2io6OSFileESt14default_deleteIS2_EEE7_M_headERKS6_ = comdat any

$_ZNSt10_Head_baseILm0EPN5arrow2io6OSFileELb0EE7_M_headERKS4_ = comdat any

$_ZNKSt12__shared_ptrIN5arrow2io16MemoryMappedFile9MemoryMap6RegionELN9__gnu_cxx12_Lock_policyE2EEcvbEv = comdat any

$_ZN5arrow6Status7InvalidIJRA35_KcEEES0_DpOT_ = comdat any

$_ZN5arrow6Status7IOErrorIJRA29_KcNSt7__cxx1112basic_stringIcSt11char_traitsIcESaIcEEEEEES0_DpOT_ = comdat any

$_ZSt11make_sharedIN5arrow2io16MemoryMappedFile9MemoryMap6RegionEJSt10shared_ptrIS3_EPhRlEES5_INSt9enable_ifIXntsr8is_arrayIT_EE5valueESA_E4typeEEDpOT0_ = comdat any

$_ZNSt23enable_shared_from_thisIN5arrow2io16MemoryMappedFile9MemoryMapEE16shared_from_thisEv = comdat any

$_ZNSt10shared_ptrIN5arrow2io16MemoryMappedFile9MemoryMap6RegionEEaSEOS5_ = comdat any

$_ZNSt10shared_ptrIN5arrow2io16MemoryMappedFile9MemoryMap6RegionEED2Ev = comdat any

$_ZN5arrow6Status8FromArgsIJRA35_KcEEES0_NS_10StatusCodeEDpOT_ = comdat any

$_ZN5arrow4util13StringBuilderIJRA35_KcEEENSt7__cxx1112basic_stringIcSt11char_traitsIcESaIcEEEDpOT_ = comdat any

$_ZN5arrow4util22StringBuilderRecursiveIRA35_KcEEvRSoOT_ = comdat any

$_ZN5arrow6Status8FromArgsIJRA29_KcNSt7__cxx1112basic_stringIcSt11char_traitsIcESaIcEEEEEES0_NS_10StatusCodeEDpOT_ = comdat any

$_ZN5arrow4util13StringBuilderIJRA29_KcNSt7__cxx1112basic_stringIcSt11char_traitsIcESaIcEEEEEESA_DpOT_ = comdat any

$_ZN5arrow4util22StringBuilderRecursiveIRA29_KcJNSt7__cxx1112basic_stringIcSt11char_traitsIcESaIcEEEEEEvRSoOT_DpOT0_ = comdat any

$_ZN5arrow4util22StringBuilderRecursiveIRA29_KcEEvRSoOT_ = comdat any

$_ZN5arrow4util22StringBuilderRecursiveINSt7__cxx1112basic_stringIcSt11char_traitsIcESaIcEEEEEvRSoOT_ = comdat any

$_ZNSt10shared_ptrIN5arrow2io16MemoryMappedFile9MemoryMap6RegionEEC2ISaIvEJS_IS3_EPhRlEEESt20_Sp_alloc_shared_tagIT_EDpOT0_ = comdat any

$_ZNSt12__shared_ptrIN5arrow2io16MemoryMappedFile9MemoryMap6RegionELN9__gnu_cxx12_Lock_policyE2EEC2ISaIvEJSt10shared_ptrIS3_EPhRlEEESt20_Sp_alloc_shared_tagIT_EDpOT0_ = comdat any

$_ZNSt14__shared_countILN9__gnu_cxx12_Lock_policyE2EEC2IN5arrow2io16MemoryMappedFile9MemoryMap6RegionESaIvEJSt10shared_ptrIS7_EPhRlEEERPT_St20_Sp_alloc_shared_tagIT0_EDpOT1_ = comdat any

$_ZNSt12__shared_ptrIN5arrow2io16MemoryMappedFile9MemoryMap6RegionELN9__gnu_cxx12_Lock_policyE2EE31_M_enable_shared_from_this_withIS4_S4_EENSt9enable_ifIXntsr15__has_esft_baseIT0_EE5valueEvE4typeEPT_ = comdat any

$_ZNSaISt23_Sp_counted_ptr_inplaceIN5arrow2io16MemoryMappedFile9MemoryMap6RegionESaIvELN9__gnu_cxx12_Lock_policyE2EEEC2IvEERKSaIT_E = comdat any

$_ZSt18__allocate_guardedISaISt23_Sp_counted_ptr_inplaceIN5arrow2io16MemoryMappedFile9MemoryMap6RegionESaIvELN9__gnu_cxx12_Lock_policyE2EEEESt15__allocated_ptrIT_ERSC_ = comdat any

$_ZNSt15__allocated_ptrISaISt23_Sp_counted_ptr_inplaceIN5arrow2io16MemoryMappedFile9MemoryMap6RegionESaIvELN9__gnu_cxx12_Lock_policyE2EEEE3getEv = comdat any

$_ZNSt23_Sp_counted_ptr_inplaceIN5arrow2io16MemoryMappedFile9MemoryMap6RegionESaIvELN9__gnu_cxx12_Lock_policyE2EEC2IJSt10shared_ptrIS3_EPhRlEEES5_DpOT_ = comdat any

$_ZNSt15__allocated_ptrISaISt23_Sp_counted_ptr_inplaceIN5arrow2io16MemoryMappedFile9MemoryMap6RegionESaIvELN9__gnu_cxx12_Lock_policyE2EEEEaSEDn = comdat any

$_ZNSt23_Sp_counted_ptr_inplaceIN5arrow2io16MemoryMappedFile9MemoryMap6RegionESaIvELN9__gnu_cxx12_Lock_policyE2EE6_M_ptrEv = comdat any

$_ZNSt15__allocated_ptrISaISt23_Sp_counted_ptr_inplaceIN5arrow2io16MemoryMappedFile9MemoryMap6RegionESaIvELN9__gnu_cxx12_Lock_policyE2EEEED2Ev = comdat any

$_ZNSaISt23_Sp_counted_ptr_inplaceIN5arrow2io16MemoryMappedFile9MemoryMap6RegionESaIvELN9__gnu_cxx12_Lock_policyE2EEED2Ev = comdat any

$_ZNSt15__new_allocatorISt23_Sp_counted_ptr_inplaceIN5arrow2io16MemoryMappedFile9MemoryMap6RegionESaIvELN9__gnu_cxx12_Lock_policyE2EEEC2Ev = comdat any

$_ZNSt16allocator_traitsISaISt23_Sp_counted_ptr_inplaceIN5arrow2io16MemoryMappedFile9MemoryMap6RegionESaIvELN9__gnu_cxx12_Lock_policyE2EEEE8allocateERSA_m = comdat any

$_ZNSt15__allocated_ptrISaISt23_Sp_counted_ptr_inplaceIN5arrow2io16MemoryMappedFile9MemoryMap6RegionESaIvELN9__gnu_cxx12_Lock_policyE2EEEEC2ERSA_PS9_ = comdat any

$_ZNSt15__new_allocatorISt23_Sp_counted_ptr_inplaceIN5arrow2io16MemoryMappedFile9MemoryMap6RegionESaIvELN9__gnu_cxx12_Lock_policyE2EEE8allocateEmPKv = comdat any

$_ZNKSt15__new_allocatorISt23_Sp_counted_ptr_inplaceIN5arrow2io16MemoryMappedFile9MemoryMap6RegionESaIvELN9__gnu_cxx12_Lock_policyE2EEE11_M_max_sizeEv = comdat any

$_ZSt12__to_addressISt23_Sp_counted_ptr_inplaceIN5arrow2io16MemoryMappedFile9MemoryMap6RegionESaIvELN9__gnu_cxx12_Lock_policyE2EEEPT_SB_ = comdat any

$_ZNSt23_Sp_counted_ptr_inplaceIN5arrow2io16MemoryMappedFile9MemoryMap6RegionESaIvELN9__gnu_cxx12_Lock_policyE2EE5_ImplC2ES5_ = comdat any

$_ZNSt16allocator_traitsISaIvEE9constructIN5arrow2io16MemoryMappedFile9MemoryMap6RegionEJSt10shared_ptrIS6_EPhRlEEEvRS0_PT_DpOT0_ = comdat any

$_ZNSt23_Sp_counted_ptr_inplaceIN5arrow2io16MemoryMappedFile9MemoryMap6RegionESaIvELN9__gnu_cxx12_Lock_policyE2EED2Ev = comdat any

$_ZNSt23_Sp_counted_ptr_inplaceIN5arrow2io16MemoryMappedFile9MemoryMap6RegionESaIvELN9__gnu_cxx12_Lock_policyE2EED0Ev = comdat any

$_ZNSt23_Sp_counted_ptr_inplaceIN5arrow2io16MemoryMappedFile9MemoryMap6RegionESaIvELN9__gnu_cxx12_Lock_policyE2EE10_M_disposeEv = comdat any

$_ZNSt23_Sp_counted_ptr_inplaceIN5arrow2io16MemoryMappedFile9MemoryMap6RegionESaIvELN9__gnu_cxx12_Lock_policyE2EE10_M_destroyEv = comdat any

$_ZNSt23_Sp_counted_ptr_inplaceIN5arrow2io16MemoryMappedFile9MemoryMap6RegionESaIvELN9__gnu_cxx12_Lock_policyE2EE14_M_get_deleterERKSt9type_info = comdat any

$_ZNSt14_Sp_ebo_helperILi0ESaIvELb1EEC2ERKS0_ = comdat any

$_ZSt10_ConstructIN5arrow2io16MemoryMappedFile9MemoryMap6RegionEJSt10shared_ptrIS3_EPhRlEEvPT_DpOT0_ = comdat any

$_ZNSt10shared_ptrIN5arrow2io16MemoryMappedFile9MemoryMapEEC2EOS4_ = comdat any

$_ZN5arrow2io16MemoryMappedFile9MemoryMap6RegionC2ESt10shared_ptrIS2_EPhl = comdat any

$_ZNSt12__shared_ptrIN5arrow2io16MemoryMappedFile9MemoryMapELN9__gnu_cxx12_Lock_policyE2EEC2EOS6_ = comdat any

$_ZN5arrow2io16MemoryMappedFile9MemoryMap6RegionD2Ev = comdat any

$_ZN5arrow2io16MemoryMappedFile9MemoryMap6RegionD0Ev = comdat any

$_ZN5arrow6Buffer17device_sync_eventEv = comdat any

$_ZNSt10shared_ptrIN5arrow6BufferEEC2Ev = comdat any

$_ZNSt10shared_ptrIN5arrow13MemoryManagerEEC2Ev = comdat any

$_ZN5arrow6Buffer16SetMemoryManagerESt10shared_ptrINS_13MemoryManagerEE = comdat any

$_ZNSt10shared_ptrIN5arrow13MemoryManagerEED2Ev = comdat any

$_ZN5arrow6BufferD2Ev = comdat any

$_ZN5arrow6BufferD0Ev = comdat any

$_ZNSt12__shared_ptrIN5arrow6BufferELN9__gnu_cxx12_Lock_policyE2EEC2Ev = comdat any

$_ZNSt12__shared_ptrIN5arrow13MemoryManagerELN9__gnu_cxx12_Lock_policyE2EEC2Ev = comdat any

$_ZNSt10shared_ptrIN5arrow13MemoryManagerEEaSEOS2_ = comdat any

$_ZNKSt19__shared_ptr_accessIN5arrow13MemoryManagerELN9__gnu_cxx12_Lock_policyE2ELb0ELb0EEptEv = comdat any

$_ZNK5arrow13MemoryManager6is_cpuEv = comdat any

$_ZNK5arrow13MemoryManager6deviceEv = comdat any

$_ZNKSt19__shared_ptr_accessIN5arrow6DeviceELN9__gnu_cxx12_Lock_policyE2ELb0ELb0EEptEv = comdat any

$_ZNSt12__shared_ptrIN5arrow13MemoryManagerELN9__gnu_cxx12_Lock_policyE2EEaSEOS4_ = comdat any

$_ZNSt12__shared_ptrIN5arrow13MemoryManagerELN9__gnu_cxx12_Lock_policyE2EEC2EOS4_ = comdat any

$_ZNSt12__shared_ptrIN5arrow13MemoryManagerELN9__gnu_cxx12_Lock_policyE2EE4swapERS4_ = comdat any

$_ZNSt12__shared_ptrIN5arrow13MemoryManagerELN9__gnu_cxx12_Lock_policyE2EED2Ev = comdat any

$_ZSt4swapIPN5arrow13MemoryManagerEENSt9enable_ifIXsr6__and_ISt6__not_ISt15__is_tuple_likeIT_EESt21is_move_constructibleIS6_ESt18is_move_assignableIS6_EEE5valueEvE4typeERS6_SF_ = comdat any

$_ZNKSt19__shared_ptr_accessIN5arrow13MemoryManagerELN9__gnu_cxx12_Lock_policyE2ELb0ELb0EE6_M_getEv = comdat any

$_ZNKSt12__shared_ptrIN5arrow13MemoryManagerELN9__gnu_cxx12_Lock_policyE2EE3getEv = comdat any

$_ZNK5arrow6Device6is_cpuEv = comdat any

$_ZNKSt19__shared_ptr_accessIN5arrow6DeviceELN9__gnu_cxx12_Lock_policyE2ELb0ELb0EE6_M_getEv = comdat any

$_ZNKSt12__shared_ptrIN5arrow6DeviceELN9__gnu_cxx12_Lock_policyE2EE3getEv = comdat any

$_ZN5arrow2io16MemoryMappedFile9MemoryMap6Region4dataEv = comdat any

$_ZN5arrow4util7VoidifyC2Ev = comdat any

$_ZN5arrow4util7VoidifyanERNS0_12ArrowLogBaseE = comdat any

$_ZN5arrow4util12ArrowLogBaselsIA32_cEERS1_RKT_ = comdat any

$_ZN5arrow4util12ArrowLogBaselsIA14_cEERS1_RKT_ = comdat any

$_ZNSt10shared_ptrIN5arrow6Device9SyncEventEEC2EDn = comdat any

$_ZNSt10shared_ptrIN5arrow6Device9SyncEventEEC2Ev = comdat any

$_ZNSt12__shared_ptrIN5arrow6Device9SyncEventELN9__gnu_cxx12_Lock_policyE2EEC2Ev = comdat any

$_ZNSt16allocator_traitsISaIvEE7destroyIN5arrow2io16MemoryMappedFile9MemoryMap6RegionEEEvRS0_PT_ = comdat any

$_ZNSt23_Sp_counted_ptr_inplaceIN5arrow2io16MemoryMappedFile9MemoryMap6RegionESaIvELN9__gnu_cxx12_Lock_policyE2EE5_Impl8_M_allocEv = comdat any

$_ZSt8_DestroyIN5arrow2io16MemoryMappedFile9MemoryMap6RegionEEvPT_ = comdat any

$_ZNSt14_Sp_ebo_helperILi0ESaIvELb1EE6_S_getERS1_ = comdat any

$_ZNSt19_Sp_make_shared_tag5_S_tiEv = comdat any

$_ZN9__gnu_cxx16__aligned_bufferIN5arrow2io16MemoryMappedFile9MemoryMap6RegionEE6_M_ptrEv = comdat any

$_ZN9__gnu_cxx16__aligned_bufferIN5arrow2io16MemoryMappedFile9MemoryMap6RegionEE7_M_addrEv = comdat any

$_ZNSt16allocator_traitsISaISt23_Sp_counted_ptr_inplaceIN5arrow2io16MemoryMappedFile9MemoryMap6RegionESaIvELN9__gnu_cxx12_Lock_policyE2EEEE10deallocateERSA_PS9_m = comdat any

$_ZNSt15__new_allocatorISt23_Sp_counted_ptr_inplaceIN5arrow2io16MemoryMappedFile9MemoryMap6RegionESaIvELN9__gnu_cxx12_Lock_policyE2EEE10deallocateEPS9_m = comdat any

$_ZNSt15__new_allocatorISt23_Sp_counted_ptr_inplaceIN5arrow2io16MemoryMappedFile9MemoryMap6RegionESaIvELN9__gnu_cxx12_Lock_policyE2EEED2Ev = comdat any

$_ZNSt10shared_ptrIN5arrow2io16MemoryMappedFile9MemoryMapEEC2IS3_vEERKSt8weak_ptrIT_E = comdat any

$_ZNSt12__shared_ptrIN5arrow2io16MemoryMappedFile9MemoryMapELN9__gnu_cxx12_Lock_policyE2EEC2IS3_vEERKSt10__weak_ptrIT_LS5_2EE = comdat any

$_ZNSt14__shared_countILN9__gnu_cxx12_Lock_policyE2EEC2ERKSt12__weak_countILS1_2EE = comdat any

$_ZNSt16_Sp_counted_baseILN9__gnu_cxx12_Lock_policyE2EE23_M_add_ref_lock_nothrowEv = comdat any

$_ZSt20__throw_bad_weak_ptrv = comdat any

$_ZNKSt16_Sp_counted_baseILN9__gnu_cxx12_Lock_policyE2EE16_M_get_use_countEv = comdat any

$_ZNSt12bad_weak_ptrC2Ev = comdat any

$_ZNSt9exceptionC2Ev = comdat any

$_ZNSt12__shared_ptrIN5arrow2io16MemoryMappedFile9MemoryMap6RegionELN9__gnu_cxx12_Lock_policyE2EEaSEOS7_ = comdat any

$_ZNSt12__shared_ptrIN5arrow2io16MemoryMappedFile9MemoryMap6RegionELN9__gnu_cxx12_Lock_policyE2EEC2EOS7_ = comdat any

$_ZNSt12__shared_ptrIN5arrow2io16MemoryMappedFile9MemoryMap6RegionELN9__gnu_cxx12_Lock_policyE2EE4swapERS7_ = comdat any

$_ZNSt12__shared_ptrIN5arrow2io16MemoryMappedFile9MemoryMap6RegionELN9__gnu_cxx12_Lock_policyE2EED2Ev = comdat any

$_ZSt4swapIPN5arrow2io16MemoryMappedFile9MemoryMap6RegionEENSt9enable_ifIXsr6__and_ISt6__not_ISt15__is_tuple_likeIT_EESt21is_move_constructibleIS9_ESt18is_move_assignableIS9_EEE5valueEvE4typeERS9_SI_ = comdat any

$_ZNSt12__shared_ptrIN5arrow2io16MemoryMappedFileELN9__gnu_cxx12_Lock_policyE2EED2Ev = comdat any

$_ZN5arrow6Status7InvalidIJRA26_KcEEES0_DpOT_ = comdat any

$_ZN5arrow6Status8FromArgsIJRA26_KcEEES0_NS_10StatusCodeEDpOT_ = comdat any

$_ZN5arrow4util13StringBuilderIJRA26_KcEEENSt7__cxx1112basic_stringIcSt11char_traitsIcESaIcEEEDpOT_ = comdat any

$_ZN5arrow4util22StringBuilderRecursiveIRA26_KcEEvRSoOT_ = comdat any

$_ZNSt12__shared_ptrIN5arrow2io16MemoryMappedFile9MemoryMap6RegionELN9__gnu_cxx12_Lock_policyE2EE5resetEv = comdat any

$_ZNSt12__shared_ptrIN5arrow2io16MemoryMappedFile9MemoryMap6RegionELN9__gnu_cxx12_Lock_policyE2EEC2Ev = comdat any

$_ZNK5arrow2io6OSFile4modeEv = comdat any

$_ZNKSt19__shared_ptr_accessIN5arrow2io16MemoryMappedFile9MemoryMap6RegionELN9__gnu_cxx12_Lock_policyE2ELb0ELb0EEptEv = comdat any

$_ZNKSt19__shared_ptr_accessIN5arrow2io16MemoryMappedFile9MemoryMap6RegionELN9__gnu_cxx12_Lock_policyE2ELb0ELb0EE6_M_getEv = comdat any

$_ZNKSt12__shared_ptrIN5arrow2io16MemoryMappedFile9MemoryMap6RegionELN9__gnu_cxx12_Lock_policyE2EE3getEv = comdat any

$_ZSt3maxIlERKT_S2_S2_ = comdat any

$_ZSt3minIlERKT_S2_S2_ = comdat any

$_ZNSt10shared_ptrIN5arrow6BufferEEC2INS0_2io16MemoryMappedFile9MemoryMap6RegionEvEERKS_IT_E = comdat any

$_ZSt11make_sharedIN5arrow6BufferEJDniEESt10shared_ptrINSt9enable_ifIXntsr8is_arrayIT_EE5valueES4_E4typeEEDpOT0_ = comdat any

$_ZSt11make_sharedIN5arrow6BufferEJRKSt10shared_ptrIS1_ERKlS7_EES2_INSt9enable_ifIXntsr8is_arrayIT_EE5valueES9_E4typeEEDpOT0_ = comdat any

$_ZNSt10shared_ptrIN5arrow6BufferEEC2ISaIvEJRKS2_RKlS8_EEESt20_Sp_alloc_shared_tagIT_EDpOT0_ = comdat any

$_ZNSt12__shared_ptrIN5arrow6BufferELN9__gnu_cxx12_Lock_policyE2EEC2ISaIvEJRKSt10shared_ptrIS1_ERKlSC_EEESt20_Sp_alloc_shared_tagIT_EDpOT0_ = comdat any

$_ZNSt14__shared_countILN9__gnu_cxx12_Lock_policyE2EEC2IN5arrow6BufferESaIvEJRKSt10shared_ptrIS5_ERKlSC_EEERPT_St20_Sp_alloc_shared_tagIT0_EDpOT1_ = comdat any

$_ZNSt12__shared_ptrIN5arrow6BufferELN9__gnu_cxx12_Lock_policyE2EE31_M_enable_shared_from_this_withIS1_S1_EENSt9enable_ifIXntsr15__has_esft_baseIT0_EE5valueEvE4typeEPT_ = comdat any

$_ZNSaISt23_Sp_counted_ptr_inplaceIN5arrow6BufferESaIvELN9__gnu_cxx12_Lock_policyE2EEEC2IvEERKSaIT_E = comdat any

$_ZSt18__allocate_guardedISaISt23_Sp_counted_ptr_inplaceIN5arrow6BufferESaIvELN9__gnu_cxx12_Lock_policyE2EEEESt15__allocated_ptrIT_ERS9_ = comdat any

$_ZNSt15__allocated_ptrISaISt23_Sp_counted_ptr_inplaceIN5arrow6BufferESaIvELN9__gnu_cxx12_Lock_policyE2EEEE3getEv = comdat any

$_ZNSt23_Sp_counted_ptr_inplaceIN5arrow6BufferESaIvELN9__gnu_cxx12_Lock_policyE2EEC2IJRKSt10shared_ptrIS1_ERKlSC_EEES2_DpOT_ = comdat any

$_ZNSt15__allocated_ptrISaISt23_Sp_counted_ptr_inplaceIN5arrow6BufferESaIvELN9__gnu_cxx12_Lock_policyE2EEEEaSEDn = comdat any

$_ZNSt23_Sp_counted_ptr_inplaceIN5arrow6BufferESaIvELN9__gnu_cxx12_Lock_policyE2EE6_M_ptrEv = comdat any

$_ZNSt15__allocated_ptrISaISt23_Sp_counted_ptr_inplaceIN5arrow6BufferESaIvELN9__gnu_cxx12_Lock_policyE2EEEED2Ev = comdat any

$_ZNSaISt23_Sp_counted_ptr_inplaceIN5arrow6BufferESaIvELN9__gnu_cxx12_Lock_policyE2EEED2Ev = comdat any

$_ZNSt15__new_allocatorISt23_Sp_counted_ptr_inplaceIN5arrow6BufferESaIvELN9__gnu_cxx12_Lock_policyE2EEEC2Ev = comdat any

$_ZNSt16allocator_traitsISaISt23_Sp_counted_ptr_inplaceIN5arrow6BufferESaIvELN9__gnu_cxx12_Lock_policyE2EEEE8allocateERS7_m = comdat any

$_ZNSt15__allocated_ptrISaISt23_Sp_counted_ptr_inplaceIN5arrow6BufferESaIvELN9__gnu_cxx12_Lock_policyE2EEEEC2ERS7_PS6_ = comdat any

$_ZNSt15__new_allocatorISt23_Sp_counted_ptr_inplaceIN5arrow6BufferESaIvELN9__gnu_cxx12_Lock_policyE2EEE8allocateEmPKv = comdat any

$_ZNKSt15__new_allocatorISt23_Sp_counted_ptr_inplaceIN5arrow6BufferESaIvELN9__gnu_cxx12_Lock_policyE2EEE11_M_max_sizeEv = comdat any

$_ZSt12__to_addressISt23_Sp_counted_ptr_inplaceIN5arrow6BufferESaIvELN9__gnu_cxx12_Lock_policyE2EEEPT_S8_ = comdat any

$_ZNSt23_Sp_counted_ptr_inplaceIN5arrow6BufferESaIvELN9__gnu_cxx12_Lock_policyE2EE5_ImplC2ES2_ = comdat any

$_ZNSt16allocator_traitsISaIvEE9constructIN5arrow6BufferEJRKSt10shared_ptrIS4_ERKlSA_EEEvRS0_PT_DpOT0_ = comdat any

$_ZNSt23_Sp_counted_ptr_inplaceIN5arrow6BufferESaIvELN9__gnu_cxx12_Lock_policyE2EED2Ev = comdat any

$_ZNSt23_Sp_counted_ptr_inplaceIN5arrow6BufferESaIvELN9__gnu_cxx12_Lock_policyE2EED0Ev = comdat any

$_ZNSt23_Sp_counted_ptr_inplaceIN5arrow6BufferESaIvELN9__gnu_cxx12_Lock_policyE2EE10_M_disposeEv = comdat any

$_ZNSt23_Sp_counted_ptr_inplaceIN5arrow6BufferESaIvELN9__gnu_cxx12_Lock_policyE2EE10_M_destroyEv = comdat any

$_ZNSt23_Sp_counted_ptr_inplaceIN5arrow6BufferESaIvELN9__gnu_cxx12_Lock_policyE2EE14_M_get_deleterERKSt9type_info = comdat any

$_ZSt10_ConstructIN5arrow6BufferEJRKSt10shared_ptrIS1_ERKlS7_EEvPT_DpOT0_ = comdat any

$_ZN5arrow6BufferC2ERKSt10shared_ptrIS0_Ell = comdat any

$_ZNSt10shared_ptrIN5arrow6BufferEEaSERKS2_ = comdat any

$_ZNSt10shared_ptrIN5arrow13MemoryManagerEEC2ERKS2_ = comdat any

$_ZNSt12__shared_ptrIN5arrow6BufferELN9__gnu_cxx12_Lock_policyE2EEaSERKS4_ = comdat any

$_ZNSt12__shared_ptrIN5arrow13MemoryManagerELN9__gnu_cxx12_Lock_policyE2EEC2ERKS4_ = comdat any

$_ZNSt14__shared_countILN9__gnu_cxx12_Lock_policyE2EEC2ERKS2_ = comdat any

$_ZNSt16allocator_traitsISaIvEE7destroyIN5arrow6BufferEEEvRS0_PT_ = comdat any

$_ZNSt23_Sp_counted_ptr_inplaceIN5arrow6BufferESaIvELN9__gnu_cxx12_Lock_policyE2EE5_Impl8_M_allocEv = comdat any

$_ZSt8_DestroyIN5arrow6BufferEEvPT_ = comdat any

$_ZN9__gnu_cxx16__aligned_bufferIN5arrow6BufferEE6_M_ptrEv = comdat any

$_ZN9__gnu_cxx16__aligned_bufferIN5arrow6BufferEE7_M_addrEv = comdat any

$_ZNSt16allocator_traitsISaISt23_Sp_counted_ptr_inplaceIN5arrow6BufferESaIvELN9__gnu_cxx12_Lock_policyE2EEEE10deallocateERS7_PS6_m = comdat any

$_ZNSt15__new_allocatorISt23_Sp_counted_ptr_inplaceIN5arrow6BufferESaIvELN9__gnu_cxx12_Lock_policyE2EEE10deallocateEPS6_m = comdat any

$_ZNSt15__new_allocatorISt23_Sp_counted_ptr_inplaceIN5arrow6BufferESaIvELN9__gnu_cxx12_Lock_policyE2EEED2Ev = comdat any

$_ZNSt12__shared_ptrIN5arrow6BufferELN9__gnu_cxx12_Lock_policyE2EEC2INS0_2io16MemoryMappedFile9MemoryMap6RegionEvEERKS_IT_LS3_2EE = comdat any

$_ZNSt10shared_ptrIN5arrow6BufferEEC2ISaIvEJDniEEESt20_Sp_alloc_shared_tagIT_EDpOT0_ = comdat any

$_ZNSt12__shared_ptrIN5arrow6BufferELN9__gnu_cxx12_Lock_policyE2EEC2ISaIvEJDniEEESt20_Sp_alloc_shared_tagIT_EDpOT0_ = comdat any

$_ZNSt14__shared_countILN9__gnu_cxx12_Lock_policyE2EEC2IN5arrow6BufferESaIvEJDniEEERPT_St20_Sp_alloc_shared_tagIT0_EDpOT1_ = comdat any

$_ZNSt23_Sp_counted_ptr_inplaceIN5arrow6BufferESaIvELN9__gnu_cxx12_Lock_policyE2EEC2IJDniEEES2_DpOT_ = comdat any

$_ZNSt16allocator_traitsISaIvEE9constructIN5arrow6BufferEJDniEEEvRS0_PT_DpOT0_ = comdat any

$_ZSt10_ConstructIN5arrow6BufferEJDniEEvPT_DpOT0_ = comdat any

$_ZN5arrow6BufferC2EPKhl = comdat any

$_ZNSt12__shared_ptrIN5arrow6BufferELN9__gnu_cxx12_Lock_policyE2EED2Ev = comdat any

$_ZN5arrow6Status5StateC2ERKS1_ = comdat any

$_ZNSt10shared_ptrIN5arrow12StatusDetailEEC2ERKS2_ = comdat any

$_ZNSt12__shared_ptrIN5arrow12StatusDetailELN9__gnu_cxx12_Lock_policyE2EEC2ERKS4_ = comdat any

$_ZN5arrow2io6OSFile4lockEv = comdat any

$_ZN5arrow6Status7IOErrorIJRA36_KcEEES0_DpOT_ = comdat any

$_ZN5arrow6Status7IOErrorIJRA35_KcEEES0_DpOT_ = comdat any

$_ZNKSt12__shared_ptrIN5arrow2io16MemoryMappedFile9MemoryMap6RegionELN9__gnu_cxx12_Lock_policyE2EE9use_countEv = comdat any

$_ZN5arrow6Status7IOErrorIJRA56_KcEEES0_DpOT_ = comdat any

$_ZN5arrow2io16MemoryMappedFile9MemoryMap6Region6DetachEv = comdat any

$_ZSt11make_sharedIN5arrow2io16MemoryMappedFile9MemoryMap6RegionEJSt10shared_ptrIS3_EPhRKlEES5_INSt9enable_ifIXntsr8is_arrayIT_EE5valueESB_E4typeEEDpOT0_ = comdat any

$_ZN5arrow6Status8FromArgsIJRA36_KcEEES0_NS_10StatusCodeEDpOT_ = comdat any

$_ZN5arrow4util13StringBuilderIJRA36_KcEEENSt7__cxx1112basic_stringIcSt11char_traitsIcESaIcEEEDpOT_ = comdat any

$_ZN5arrow4util22StringBuilderRecursiveIRA36_KcEEvRSoOT_ = comdat any

$_ZNKSt14__shared_countILN9__gnu_cxx12_Lock_policyE2EE16_M_get_use_countEv = comdat any

$_ZN5arrow6Status8FromArgsIJRA56_KcEEES0_NS_10StatusCodeEDpOT_ = comdat any

$_ZN5arrow4util13StringBuilderIJRA56_KcEEENSt7__cxx1112basic_stringIcSt11char_traitsIcESaIcEEEDpOT_ = comdat any

$_ZN5arrow4util22StringBuilderRecursiveIRA56_KcEEvRSoOT_ = comdat any

$_ZNSt10shared_ptrIN5arrow2io16MemoryMappedFile9MemoryMap6RegionEEC2ISaIvEJS_IS3_EPhRKlEEESt20_Sp_alloc_shared_tagIT_EDpOT0_ = comdat any

$_ZNSt12__shared_ptrIN5arrow2io16MemoryMappedFile9MemoryMap6RegionELN9__gnu_cxx12_Lock_policyE2EEC2ISaIvEJSt10shared_ptrIS3_EPhRKlEEESt20_Sp_alloc_shared_tagIT_EDpOT0_ = comdat any

$_ZNSt14__shared_countILN9__gnu_cxx12_Lock_policyE2EEC2IN5arrow2io16MemoryMappedFile9MemoryMap6RegionESaIvEJSt10shared_ptrIS7_EPhRKlEEERPT_St20_Sp_alloc_shared_tagIT0_EDpOT1_ = comdat any

$_ZNSt23_Sp_counted_ptr_inplaceIN5arrow2io16MemoryMappedFile9MemoryMap6RegionESaIvELN9__gnu_cxx12_Lock_policyE2EEC2IJSt10shared_ptrIS3_EPhRKlEEES5_DpOT_ = comdat any

$_ZNSt16allocator_traitsISaIvEE9constructIN5arrow2io16MemoryMappedFile9MemoryMap6RegionEJSt10shared_ptrIS6_EPhRKlEEEvRS0_PT_DpOT0_ = comdat any

$_ZSt10_ConstructIN5arrow2io16MemoryMappedFile9MemoryMap6RegionEJSt10shared_ptrIS3_EPhRKlEEvPT_DpOT0_ = comdat any

$_ZNKSt19__shared_ptr_accessIN5arrow6BufferELN9__gnu_cxx12_Lock_policyE2ELb0ELb0EE6_M_getEv = comdat any

$_ZNKSt12__shared_ptrIN5arrow6BufferELN9__gnu_cxx12_Lock_policyE2EE3getEv = comdat any

$_ZN5arrow6ResultIlE7DestroyEv = comdat any

$_ZN5arrow4util18EqualityComparableINS_6ResultIlEEED2Ev = comdat any

$_ZN5arrow8internal14AlignedStorageIlE7destroyEv = comdat any

$_ZN5arrow6ResultIlE15MoveValueUnsafeEv = comdat any

$_ZStplIcSt11char_traitsIcESaIcEENSt7__cxx1112basic_stringIT_T0_T1_EEOS8_S9_ = comdat any

$_ZNSt7__cxx1112basic_stringIcSt11char_traitsIcESaIcEEC2IS3_EEPKcRKS3_ = comdat any

$_ZNSt11char_traitsIcE6lengthEPKc = comdat any

$_ZNSt7__cxx1112basic_stringIcSt11char_traitsIcESaIcEE12_M_constructIPKcEEvT_S8_St20forward_iterator_tag = comdat any

$_ZNSt7__cxx1112basic_stringIcSt11char_traitsIcESaIcEE12_Alloc_hiderD2Ev = comdat any

$_ZSt8distanceIPKcENSt15iterator_traitsIT_E15difference_typeES3_S3_ = comdat any

$_ZZNSt7__cxx1112basic_stringIcSt11char_traitsIcESaIcEE12_M_constructIPKcEEvT_S8_St20forward_iterator_tagEN6_GuardC2EPS4_ = comdat any

$_ZZNSt7__cxx1112basic_stringIcSt11char_traitsIcESaIcEE12_M_constructIPKcEEvT_S8_St20forward_iterator_tagEN6_GuardD2Ev = comdat any

$_ZSt10__distanceIPKcENSt15iterator_traitsIT_E15difference_typeES3_S3_St26random_access_iterator_tag = comdat any

$_ZSt19__iterator_categoryIPKcENSt15iterator_traitsIT_E17iterator_categoryERKS3_ = comdat any

$_ZNSt5mutex4lockEv = comdat any

$_ZNSt5mutex6unlockEv = comdat any

$_ZNSt15__uniq_ptr_implIN5arrow2io12ReadableFile16ReadableFileImplESt14default_deleteIS3_EE6_M_ptrEv = comdat any

$_ZNSt10unique_ptrIN5arrow2io12ReadableFile16ReadableFileImplESt14default_deleteIS3_EE11get_deleterEv = comdat any

$_ZNKSt14default_deleteIN5arrow2io12ReadableFile16ReadableFileImplEEclEPS3_ = comdat any

$_ZSt3getILm0EJPN5arrow2io12ReadableFile16ReadableFileImplESt14default_deleteIS3_EEERNSt13tuple_elementIXT_ESt5tupleIJDpT0_EEE4typeERSB_ = comdat any

$_ZSt12__get_helperILm0EPN5arrow2io12ReadableFile16ReadableFileImplEJSt14default_deleteIS3_EEERT0_RSt11_Tuple_implIXT_EJS7_DpT1_EE = comdat any

$_ZNSt11_Tuple_implILm0EJPN5arrow2io12ReadableFile16ReadableFileImplESt14default_deleteIS3_EEE7_M_headERS7_ = comdat any

$_ZNSt10_Head_baseILm0EPN5arrow2io12ReadableFile16ReadableFileImplELb0EE7_M_headERS5_ = comdat any

$_ZNSt15__uniq_ptr_implIN5arrow2io12ReadableFile16ReadableFileImplESt14default_deleteIS3_EE10_M_deleterEv = comdat any

$_ZSt3getILm1EJPN5arrow2io12ReadableFile16ReadableFileImplESt14default_deleteIS3_EEERNSt13tuple_elementIXT_ESt5tupleIJDpT0_EEE4typeERSB_ = comdat any

$_ZSt12__get_helperILm1ESt14default_deleteIN5arrow2io12ReadableFile16ReadableFileImplEEJEERT0_RSt11_Tuple_implIXT_EJS6_DpT1_EE = comdat any

$_ZNSt11_Tuple_implILm1EJSt14default_deleteIN5arrow2io12ReadableFile16ReadableFileImplEEEE7_M_headERS6_ = comdat any

$_ZNSt10_Head_baseILm1ESt14default_deleteIN5arrow2io12ReadableFile16ReadableFileImplEELb1EE7_M_headERS6_ = comdat any

$_ZN5arrow2io12ReadableFile16ReadableFileImplD2Ev = comdat any

$_ZNSt15__uniq_ptr_implIN5arrow2io12ReadableFile16ReadableFileImplESt14default_deleteIS3_EE5resetEPS3_ = comdat any

$_ZNSt12__shared_ptrIN5arrow2io12ReadableFileELN9__gnu_cxx12_Lock_policyE2EEC2IS2_vEEPT_ = comdat any

$_ZNSt14__shared_countILN9__gnu_cxx12_Lock_policyE2EEC2IPN5arrow2io12ReadableFileEEET_St17integral_constantIbLb0EE = comdat any

$_ZNSt12__shared_ptrIN5arrow2io12ReadableFileELN9__gnu_cxx12_Lock_policyE2EE31_M_enable_shared_from_this_withIS2_S2_EENSt9enable_ifIXsr15__has_esft_baseIT0_EE5valueEvE4typeEPT_ = comdat any

$_ZNSt14__shared_countILN9__gnu_cxx12_Lock_policyE2EEC2IPN5arrow2io12ReadableFileEEET_ = comdat any

$_ZNSt15_Sp_counted_ptrIPN5arrow2io12ReadableFileELN9__gnu_cxx12_Lock_policyE2EEC2ES3_ = comdat any

$_ZNSt15_Sp_counted_ptrIPN5arrow2io12ReadableFileELN9__gnu_cxx12_Lock_policyE2EED2Ev = comdat any

$_ZNSt15_Sp_counted_ptrIPN5arrow2io12ReadableFileELN9__gnu_cxx12_Lock_policyE2EED0Ev = comdat any

$_ZNSt15_Sp_counted_ptrIPN5arrow2io12ReadableFileELN9__gnu_cxx12_Lock_policyE2EE10_M_disposeEv = comdat any

$_ZNSt15_Sp_counted_ptrIPN5arrow2io12ReadableFileELN9__gnu_cxx12_Lock_policyE2EE10_M_destroyEv = comdat any

$_ZNSt15_Sp_counted_ptrIPN5arrow2io12ReadableFileELN9__gnu_cxx12_Lock_policyE2EE14_M_get_deleterERKSt9type_info = comdat any

$_ZSt30__enable_shared_from_this_baseRKSt14__shared_countILN9__gnu_cxx12_Lock_policyE2EEPKSt23enable_shared_from_thisIN5arrow2io13FileInterfaceEE = comdat any

$_ZNKSt23enable_shared_from_thisIN5arrow2io13FileInterfaceEE14_M_weak_assignINS1_12ReadableFileEEEvPT_RKSt14__shared_countILN9__gnu_cxx12_Lock_policyE2EE = comdat any

$_ZNSt10__weak_ptrIN5arrow2io13FileInterfaceELN9__gnu_cxx12_Lock_policyE2EE9_M_assignEPS2_RKSt14__shared_countILS4_2EE = comdat any

$_ZNKSt10__weak_ptrIN5arrow2io13FileInterfaceELN9__gnu_cxx12_Lock_policyE2EE9use_countEv = comdat any

$_ZNSt12__weak_countILN9__gnu_cxx12_Lock_policyE2EEaSERKSt14__shared_countILS1_2EE = comdat any

$_ZNKSt12__weak_countILN9__gnu_cxx12_Lock_policyE2EE16_M_get_use_countEv = comdat any

$_ZNSt16_Sp_counted_baseILN9__gnu_cxx12_Lock_policyE2EE15_M_weak_add_refEv = comdat any

$_ZNSt16_Sp_counted_baseILN9__gnu_cxx12_Lock_policyE2EE15_M_weak_releaseEv = comdat any

$_ZNKSt19__shared_ptr_accessIN5arrow2io12ReadableFileELN9__gnu_cxx12_Lock_policyE2ELb0ELb0EE6_M_getEv = comdat any

$_ZNKSt12__shared_ptrIN5arrow2io12ReadableFileELN9__gnu_cxx12_Lock_policyE2EE3getEv = comdat any

$_ZNKSt10unique_ptrIN5arrow2io12ReadableFile16ReadableFileImplESt14default_deleteIS3_EE3getEv = comdat any

$_ZNKSt15__uniq_ptr_implIN5arrow2io12ReadableFile16ReadableFileImplESt14default_deleteIS3_EE6_M_ptrEv = comdat any

$_ZSt3getILm0EJPN5arrow2io12ReadableFile16ReadableFileImplESt14default_deleteIS3_EEERKNSt13tuple_elementIXT_ESt5tupleIJDpT0_EEE4typeERKSB_ = comdat any

$_ZSt12__get_helperILm0EPN5arrow2io12ReadableFile16ReadableFileImplEJSt14default_deleteIS3_EEERKT0_RKSt11_Tuple_implIXT_EJS7_DpT1_EE = comdat any

$_ZNSt11_Tuple_implILm0EJPN5arrow2io12ReadableFile16ReadableFileImplESt14default_deleteIS3_EEE7_M_headERKS7_ = comdat any

$_ZNSt10_Head_baseILm0EPN5arrow2io12ReadableFile16ReadableFileImplELb0EE7_M_headERKS5_ = comdat any

$_ZN5arrow6ResultISt10shared_ptrINS_2io12ReadableFileEEE14ConstructValueIS4_EEvOT_ = comdat any

$_ZN5arrow8internal14AlignedStorageISt10shared_ptrINS_2io12ReadableFileEEE9constructIJS5_EEEvDpOT_ = comdat any

$_ZNSt10shared_ptrIN5arrow2io12ReadableFileEEC2EOS3_ = comdat any

$_ZNSt12__shared_ptrIN5arrow2io12ReadableFileELN9__gnu_cxx12_Lock_policyE2EEC2EOS5_ = comdat any

$_ZN5arrow6ResultISt10shared_ptrINS_6BufferEEE7DestroyEv = comdat any

$_ZN5arrow4util18EqualityComparableINS_6ResultISt10shared_ptrINS_6BufferEEEEED2Ev = comdat any

$_ZN5arrow8internal14AlignedStorageISt10shared_ptrINS_6BufferEEE7destroyEv = comdat any

$_ZN5arrow8internal14AlignedStorageISt10shared_ptrINS_6BufferEEE3getEv = comdat any

$_ZSt7launderISt10shared_ptrIN5arrow6BufferEEEPT_S5_ = comdat any

$_ZN5arrow6ResultIlE14ConstructValueIlEEvOT_ = comdat any

$_ZN5arrow8internal14AlignedStorageIlE9constructIJlEEEvDpOT_ = comdat any

$_ZNSt15__uniq_ptr_implIN5arrow2io16FileOutputStream20FileOutputStreamImplESt14default_deleteIS3_EE6_M_ptrEv = comdat any

$_ZNSt10unique_ptrIN5arrow2io16FileOutputStream20FileOutputStreamImplESt14default_deleteIS3_EE11get_deleterEv = comdat any

$_ZNKSt14default_deleteIN5arrow2io16FileOutputStream20FileOutputStreamImplEEclEPS3_ = comdat any

$_ZSt3getILm0EJPN5arrow2io16FileOutputStream20FileOutputStreamImplESt14default_deleteIS3_EEERNSt13tuple_elementIXT_ESt5tupleIJDpT0_EEE4typeERSB_ = comdat any

$_ZSt12__get_helperILm0EPN5arrow2io16FileOutputStream20FileOutputStreamImplEJSt14default_deleteIS3_EEERT0_RSt11_Tuple_implIXT_EJS7_DpT1_EE = comdat any

$_ZNSt11_Tuple_implILm0EJPN5arrow2io16FileOutputStream20FileOutputStreamImplESt14default_deleteIS3_EEE7_M_headERS7_ = comdat any

$_ZNSt10_Head_baseILm0EPN5arrow2io16FileOutputStream20FileOutputStreamImplELb0EE7_M_headERS5_ = comdat any

$_ZNSt15__uniq_ptr_implIN5arrow2io16FileOutputStream20FileOutputStreamImplESt14default_deleteIS3_EE10_M_deleterEv = comdat any

$_ZSt3getILm1EJPN5arrow2io16FileOutputStream20FileOutputStreamImplESt14default_deleteIS3_EEERNSt13tuple_elementIXT_ESt5tupleIJDpT0_EEE4typeERSB_ = comdat any

$_ZSt12__get_helperILm1ESt14default_deleteIN5arrow2io16FileOutputStream20FileOutputStreamImplEEJEERT0_RSt11_Tuple_implIXT_EJS6_DpT1_EE = comdat any

$_ZNSt11_Tuple_implILm1EJSt14default_deleteIN5arrow2io16FileOutputStream20FileOutputStreamImplEEEE7_M_headERS6_ = comdat any

$_ZNSt10_Head_baseILm1ESt14default_deleteIN5arrow2io16FileOutputStream20FileOutputStreamImplEELb1EE7_M_headERS6_ = comdat any

$_ZN5arrow2io16FileOutputStream20FileOutputStreamImplD2Ev = comdat any

$_ZNSt15__uniq_ptr_implIN5arrow2io16FileOutputStream20FileOutputStreamImplESt14default_deleteIS3_EE5resetEPS3_ = comdat any

$_ZNSt12__shared_ptrIN5arrow2io16FileOutputStreamELN9__gnu_cxx12_Lock_policyE2EEC2IS2_vEEPT_ = comdat any

$_ZNSt14__shared_countILN9__gnu_cxx12_Lock_policyE2EEC2IPN5arrow2io16FileOutputStreamEEET_St17integral_constantIbLb0EE = comdat any

$_ZNSt12__shared_ptrIN5arrow2io16FileOutputStreamELN9__gnu_cxx12_Lock_policyE2EE31_M_enable_shared_from_this_withIS2_S2_EENSt9enable_ifIXsr15__has_esft_baseIT0_EE5valueEvE4typeEPT_ = comdat any

$_ZNSt14__shared_countILN9__gnu_cxx12_Lock_policyE2EEC2IPN5arrow2io16FileOutputStreamEEET_ = comdat any

$_ZNSt15_Sp_counted_ptrIPN5arrow2io16FileOutputStreamELN9__gnu_cxx12_Lock_policyE2EEC2ES3_ = comdat any

$_ZNSt15_Sp_counted_ptrIPN5arrow2io16FileOutputStreamELN9__gnu_cxx12_Lock_policyE2EED2Ev = comdat any

$_ZNSt15_Sp_counted_ptrIPN5arrow2io16FileOutputStreamELN9__gnu_cxx12_Lock_policyE2EED0Ev = comdat any

$_ZNSt15_Sp_counted_ptrIPN5arrow2io16FileOutputStreamELN9__gnu_cxx12_Lock_policyE2EE10_M_disposeEv = comdat any

$_ZNSt15_Sp_counted_ptrIPN5arrow2io16FileOutputStreamELN9__gnu_cxx12_Lock_policyE2EE10_M_destroyEv = comdat any

$_ZNSt15_Sp_counted_ptrIPN5arrow2io16FileOutputStreamELN9__gnu_cxx12_Lock_policyE2EE14_M_get_deleterERKSt9type_info = comdat any

$_ZNKSt23enable_shared_from_thisIN5arrow2io13FileInterfaceEE14_M_weak_assignINS1_16FileOutputStreamEEEvPT_RKSt14__shared_countILN9__gnu_cxx12_Lock_policyE2EE = comdat any

$_ZNKSt19__shared_ptr_accessIN5arrow2io16FileOutputStreamELN9__gnu_cxx12_Lock_policyE2ELb0ELb0EE6_M_getEv = comdat any

$_ZNKSt12__shared_ptrIN5arrow2io16FileOutputStreamELN9__gnu_cxx12_Lock_policyE2EE3getEv = comdat any

$_ZNKSt10unique_ptrIN5arrow2io16FileOutputStream20FileOutputStreamImplESt14default_deleteIS3_EE3getEv = comdat any

$_ZNKSt15__uniq_ptr_implIN5arrow2io16FileOutputStream20FileOutputStreamImplESt14default_deleteIS3_EE6_M_ptrEv = comdat any

$_ZSt3getILm0EJPN5arrow2io16FileOutputStream20FileOutputStreamImplESt14default_deleteIS3_EEERKNSt13tuple_elementIXT_ESt5tupleIJDpT0_EEE4typeERKSB_ = comdat any

$_ZSt12__get_helperILm0EPN5arrow2io16FileOutputStream20FileOutputStreamImplEJSt14default_deleteIS3_EEERKT0_RKSt11_Tuple_implIXT_EJS7_DpT1_EE = comdat any

$_ZNSt11_Tuple_implILm0EJPN5arrow2io16FileOutputStream20FileOutputStreamImplESt14default_deleteIS3_EEE7_M_headERKS7_ = comdat any

$_ZNSt10_Head_baseILm0EPN5arrow2io16FileOutputStream20FileOutputStreamImplELb0EE7_M_headERKS5_ = comdat any

$_ZN5arrow6ResultISt10shared_ptrINS_2io16FileOutputStreamEEE14ConstructValueIS4_EEvOT_ = comdat any

$_ZN5arrow8internal14AlignedStorageISt10shared_ptrINS_2io16FileOutputStreamEEE9constructIJS5_EEEvDpOT_ = comdat any

$_ZNSt10shared_ptrIN5arrow2io16FileOutputStreamEEC2EOS3_ = comdat any

$_ZNSt12__shared_ptrIN5arrow2io16FileOutputStreamELN9__gnu_cxx12_Lock_policyE2EEC2EOS5_ = comdat any

$_ZNKSt19__shared_ptr_accessIN5arrow2io16MemoryMappedFile9MemoryMapELN9__gnu_cxx12_Lock_policyE2ELb0ELb0EE6_M_getEv = comdat any

$_ZNKSt12__shared_ptrIN5arrow2io16MemoryMappedFile9MemoryMapELN9__gnu_cxx12_Lock_policyE2EE3getEv = comdat any

$_ZN5arrow6ResultISt10shared_ptrINS_6BufferEEE14ConstructValueIS3_EEvOT_ = comdat any

$_ZN5arrow8internal14AlignedStorageISt10shared_ptrINS_6BufferEEE9constructIJS4_EEEvDpOT_ = comdat any

$_ZNSt10shared_ptrIN5arrow6BufferEEC2EOS2_ = comdat any

$_ZNSt12__shared_ptrIN5arrow6BufferELN9__gnu_cxx12_Lock_policyE2EEC2EOS4_ = comdat any

$_ZN5arrow6ResultISt10shared_ptrINS_2io16FileOutputStreamEEE7DestroyEv = comdat any

$_ZN5arrow4util18EqualityComparableINS_6ResultISt10shared_ptrINS_2io16FileOutputStreamEEEEED2Ev = comdat any

$_ZN5arrow8internal14AlignedStorageISt10shared_ptrINS_2io16FileOutputStreamEEE7destroyEv = comdat any

$_ZN5arrow8internal14AlignedStorageISt10shared_ptrINS_2io16FileOutputStreamEEE3getEv = comdat any

$_ZSt7launderISt10shared_ptrIN5arrow2io16FileOutputStreamEEEPT_S6_ = comdat any

$_ZN5arrow6ResultISt10shared_ptrINS_2io16FileOutputStreamEEE15MoveValueUnsafeEv = comdat any

$_ZNSt12__shared_ptrIN5arrow2io16MemoryMappedFileELN9__gnu_cxx12_Lock_policyE2EEC2IS2_vEEPT_ = comdat any

$_ZNSt14__shared_countILN9__gnu_cxx12_Lock_policyE2EEC2IPN5arrow2io16MemoryMappedFileEEET_St17integral_constantIbLb0EE = comdat any

$_ZNSt12__shared_ptrIN5arrow2io16MemoryMappedFileELN9__gnu_cxx12_Lock_policyE2EE31_M_enable_shared_from_this_withIS2_S2_EENSt9enable_ifIXsr15__has_esft_baseIT0_EE5valueEvE4typeEPT_ = comdat any

$_ZNSt14__shared_countILN9__gnu_cxx12_Lock_policyE2EEC2IPN5arrow2io16MemoryMappedFileEEET_ = comdat any

$_ZNSt15_Sp_counted_ptrIPN5arrow2io16MemoryMappedFileELN9__gnu_cxx12_Lock_policyE2EEC2ES3_ = comdat any

$_ZNSt15_Sp_counted_ptrIPN5arrow2io16MemoryMappedFileELN9__gnu_cxx12_Lock_policyE2EED2Ev = comdat any

$_ZNSt15_Sp_counted_ptrIPN5arrow2io16MemoryMappedFileELN9__gnu_cxx12_Lock_policyE2EED0Ev = comdat any

$_ZNSt15_Sp_counted_ptrIPN5arrow2io16MemoryMappedFileELN9__gnu_cxx12_Lock_policyE2EE10_M_disposeEv = comdat any

$_ZNSt15_Sp_counted_ptrIPN5arrow2io16MemoryMappedFileELN9__gnu_cxx12_Lock_policyE2EE10_M_destroyEv = comdat any

$_ZNSt15_Sp_counted_ptrIPN5arrow2io16MemoryMappedFileELN9__gnu_cxx12_Lock_policyE2EE14_M_get_deleterERKSt9type_info = comdat any

$_ZNKSt23enable_shared_from_thisIN5arrow2io13FileInterfaceEE14_M_weak_assignINS1_16MemoryMappedFileEEEvPT_RKSt14__shared_countILN9__gnu_cxx12_Lock_policyE2EE = comdat any

$_ZNKSt19__shared_ptr_accessIN5arrow2io16MemoryMappedFileELN9__gnu_cxx12_Lock_policyE2ELb0ELb0EE6_M_getEv = comdat any

$_ZNKSt12__shared_ptrIN5arrow2io16MemoryMappedFileELN9__gnu_cxx12_Lock_policyE2EE3getEv = comdat any

$_ZNSt12__shared_ptrIN5arrow2io16MemoryMappedFile9MemoryMapELN9__gnu_cxx12_Lock_policyE2EEC2IS3_vEEPT_ = comdat any

$_ZNSt12__shared_ptrIN5arrow2io16MemoryMappedFile9MemoryMapELN9__gnu_cxx12_Lock_policyE2EE4swapERS6_ = comdat any

$_ZNSt12__shared_ptrIN5arrow2io16MemoryMappedFile9MemoryMapELN9__gnu_cxx12_Lock_policyE2EED2Ev = comdat any

$_ZNSt14__shared_countILN9__gnu_cxx12_Lock_policyE2EEC2IPN5arrow2io16MemoryMappedFile9MemoryMapEEET_St17integral_constantIbLb0EE = comdat any

$_ZNSt12__shared_ptrIN5arrow2io16MemoryMappedFile9MemoryMapELN9__gnu_cxx12_Lock_policyE2EE31_M_enable_shared_from_this_withIS3_S3_EENSt9enable_ifIXsr15__has_esft_baseIT0_EE5valueEvE4typeEPT_ = comdat any

$_ZNSt14__shared_countILN9__gnu_cxx12_Lock_policyE2EEC2IPN5arrow2io16MemoryMappedFile9MemoryMapEEET_ = comdat any

$_ZNSt15_Sp_counted_ptrIPN5arrow2io16MemoryMappedFile9MemoryMapELN9__gnu_cxx12_Lock_policyE2EEC2ES4_ = comdat any

$_ZN5arrow2io16MemoryMappedFile9MemoryMapD2Ev = comdat any

$_ZNSt15_Sp_counted_ptrIPN5arrow2io16MemoryMappedFile9MemoryMapELN9__gnu_cxx12_Lock_policyE2EED2Ev = comdat any

$_ZNSt15_Sp_counted_ptrIPN5arrow2io16MemoryMappedFile9MemoryMapELN9__gnu_cxx12_Lock_policyE2EED0Ev = comdat any

$_ZNSt15_Sp_counted_ptrIPN5arrow2io16MemoryMappedFile9MemoryMapELN9__gnu_cxx12_Lock_policyE2EE10_M_disposeEv = comdat any

$_ZNSt15_Sp_counted_ptrIPN5arrow2io16MemoryMappedFile9MemoryMapELN9__gnu_cxx12_Lock_policyE2EE10_M_destroyEv = comdat any

$_ZNSt15_Sp_counted_ptrIPN5arrow2io16MemoryMappedFile9MemoryMapELN9__gnu_cxx12_Lock_policyE2EE14_M_get_deleterERKSt9type_info = comdat any

$_ZN5arrow4util12ArrowLogBaselsIA24_cEERS1_RKT_ = comdat any

$_ZN5arrow4util12ArrowLogBaselsIA19_cEERS1_RKT_ = comdat any

$_ZN5arrow4util12ArrowLogBaselsIA8_cEERS1_RKT_ = comdat any

$_ZN5arrow4util12ArrowLogBaselsIA2_cEERS1_RKT_ = comdat any

$_ZN5arrow4util12ArrowLogBaselsIA11_cEERS1_RKT_ = comdat any

$_ZN5arrow4util12ArrowLogBaselsIA3_cEERS1_RKT_ = comdat any

$_ZN5arrow4util12ArrowLogBaselsINSt7__cxx1112basic_stringIcSt11char_traitsIcESaIcEEEEERS1_RKT_ = comdat any

$_ZNSt23enable_shared_from_thisIN5arrow2io16MemoryMappedFile9MemoryMapEED2Ev = comdat any

$_ZNSt8weak_ptrIN5arrow2io16MemoryMappedFile9MemoryMapEED2Ev = comdat any

$_ZNSt10__weak_ptrIN5arrow2io16MemoryMappedFile9MemoryMapELN9__gnu_cxx12_Lock_policyE2EED2Ev = comdat any

$_ZNSt12__weak_countILN9__gnu_cxx12_Lock_policyE2EED2Ev = comdat any

$_ZSt30__enable_shared_from_this_baseRKSt14__shared_countILN9__gnu_cxx12_Lock_policyE2EEPKSt23enable_shared_from_thisIN5arrow2io16MemoryMappedFile9MemoryMapEE = comdat any

$_ZNKSt23enable_shared_from_thisIN5arrow2io16MemoryMappedFile9MemoryMapEE14_M_weak_assignIS3_EEvPT_RKSt14__shared_countILN9__gnu_cxx12_Lock_policyE2EE = comdat any

$_ZNSt10__weak_ptrIN5arrow2io16MemoryMappedFile9MemoryMapELN9__gnu_cxx12_Lock_policyE2EE9_M_assignEPS3_RKSt14__shared_countILS5_2EE = comdat any

$_ZNKSt10__weak_ptrIN5arrow2io16MemoryMappedFile9MemoryMapELN9__gnu_cxx12_Lock_policyE2EE9use_countEv = comdat any

$_ZSt4swapIPN5arrow2io16MemoryMappedFile9MemoryMapEENSt9enable_ifIXsr6__and_ISt6__not_ISt15__is_tuple_likeIT_EESt21is_move_constructibleIS8_ESt18is_move_assignableIS8_EEE5valueEvE4typeERS8_SH_ = comdat any

$_ZN5arrow6ResultISt10shared_ptrINS_2io16MemoryMappedFileEEE14ConstructValueIS4_EEvOT_ = comdat any

$_ZN5arrow8internal14AlignedStorageISt10shared_ptrINS_2io16MemoryMappedFileEEE9constructIJS5_EEEvDpOT_ = comdat any

$_ZNSt10shared_ptrIN5arrow2io16MemoryMappedFileEEC2EOS3_ = comdat any

$_ZNSt12__shared_ptrIN5arrow2io16MemoryMappedFileELN9__gnu_cxx12_Lock_policyE2EEC2EOS5_ = comdat any

$_ZNSt11unique_lockISt5mutexE4lockEv = comdat any

$_ZNSt11unique_lockISt5mutexE6unlockEv = comdat any

$_ZNSt15__new_allocatorIN5arrow8internal12MemoryRegionEEC2Ev = comdat any

$_ZNSt15__new_allocatorIN5arrow8internal12MemoryRegionEED2Ev = comdat any

$_ZNSt12_Vector_baseIN5arrow8internal12MemoryRegionESaIS2_EEC2ERKS3_ = comdat any

$_ZNSt6vectorIN5arrow8internal12MemoryRegionESaIS2_EE19_M_range_initializeIPKS2_EEvT_S8_St20forward_iterator_tag = comdat any

$_ZNKSt16initializer_listIN5arrow8internal12MemoryRegionEE5beginEv = comdat any

$_ZNKSt16initializer_listIN5arrow8internal12MemoryRegionEE3endEv = comdat any

$_ZNSt12_Vector_baseIN5arrow8internal12MemoryRegionESaIS2_EED2Ev = comdat any

$_ZNSt12_Vector_baseIN5arrow8internal12MemoryRegionESaIS2_EE12_Vector_implC2ERKS3_ = comdat any

$_ZNSt12_Vector_baseIN5arrow8internal12MemoryRegionESaIS2_EE17_Vector_impl_dataC2Ev = comdat any

$_ZNSt15__new_allocatorIN5arrow8internal12MemoryRegionEEC2ERKS3_ = comdat any

$_ZSt8distanceIPKN5arrow8internal12MemoryRegionEENSt15iterator_traitsIT_E15difference_typeES6_S6_ = comdat any

$_ZNSt12_Vector_baseIN5arrow8internal12MemoryRegionESaIS2_EE11_M_allocateEm = comdat any

$_ZNSt6vectorIN5arrow8internal12MemoryRegionESaIS2_EE17_S_check_init_lenEmRKS3_ = comdat any

$_ZNSt12_Vector_baseIN5arrow8internal12MemoryRegionESaIS2_EE19_M_get_Tp_allocatorEv = comdat any

$_ZSt22__uninitialized_copy_aIPKN5arrow8internal12MemoryRegionEPS2_S2_ET0_T_S7_S6_RSaIT1_E = comdat any

$_ZSt10__distanceIPKN5arrow8internal12MemoryRegionEENSt15iterator_traitsIT_E15difference_typeES6_S6_St26random_access_iterator_tag = comdat any

$_ZSt19__iterator_categoryIPKN5arrow8internal12MemoryRegionEENSt15iterator_traitsIT_E17iterator_categoryERKS6_ = comdat any

$_ZNSt16allocator_traitsISaIN5arrow8internal12MemoryRegionEEE8allocateERS3_m = comdat any

$_ZNSt15__new_allocatorIN5arrow8internal12MemoryRegionEE8allocateEmPKv = comdat any

$_ZNKSt15__new_allocatorIN5arrow8internal12MemoryRegionEE11_M_max_sizeEv = comdat any

$_ZNSt6vectorIN5arrow8internal12MemoryRegionESaIS2_EE11_S_max_sizeERKS3_ = comdat any

$_ZNSaIN5arrow8internal12MemoryRegionEEC2ERKS2_ = comdat any

$_ZNSt16allocator_traitsISaIN5arrow8internal12MemoryRegionEEE8max_sizeERKS3_ = comdat any

$_ZSt3minImERKT_S2_S2_ = comdat any

$_ZNKSt15__new_allocatorIN5arrow8internal12MemoryRegionEE8max_sizeEv = comdat any

$_ZSt18uninitialized_copyIPKN5arrow8internal12MemoryRegionEPS2_ET0_T_S7_S6_ = comdat any

$_ZNSt20__uninitialized_copyILb1EE13__uninit_copyIPKN5arrow8internal12MemoryRegionEPS4_EET0_T_S9_S8_ = comdat any

$_ZSt4copyIPKN5arrow8internal12MemoryRegionEPS2_ET0_T_S7_S6_ = comdat any

$_ZSt13__copy_move_aILb0EPKN5arrow8internal12MemoryRegionEPS2_ET1_T0_S7_S6_ = comdat any

$_ZSt12__miter_baseIPKN5arrow8internal12MemoryRegionEET_S5_ = comdat any

$_ZSt12__niter_wrapIPN5arrow8internal12MemoryRegionEET_RKS4_S4_ = comdat any

$_ZSt14__copy_move_a1ILb0EPKN5arrow8internal12MemoryRegionEPS2_ET1_T0_S7_S6_ = comdat any

$_ZSt12__niter_baseIPKN5arrow8internal12MemoryRegionEET_S5_ = comdat any

$_ZSt12__niter_baseIPN5arrow8internal12MemoryRegionEET_S4_ = comdat any

$_ZSt14__copy_move_a2ILb0EPKN5arrow8internal12MemoryRegionEPS2_ET1_T0_S7_S6_ = comdat any

$_ZNSt11__copy_moveILb0ELb1ESt26random_access_iterator_tagE8__copy_mIN5arrow8internal12MemoryRegionEEEPT_PKS6_S9_S7_ = comdat any

$_ZNKSt16initializer_listIN5arrow8internal12MemoryRegionEE4sizeEv = comdat any

$_ZNSt12_Vector_baseIN5arrow8internal12MemoryRegionESaIS2_EE13_M_deallocateEPS2_m = comdat any

$_ZNSt12_Vector_baseIN5arrow8internal12MemoryRegionESaIS2_EE12_Vector_implD2Ev = comdat any

$_ZNSt16allocator_traitsISaIN5arrow8internal12MemoryRegionEEE10deallocateERS3_PS2_m = comdat any

$_ZNSt15__new_allocatorIN5arrow8internal12MemoryRegionEE10deallocateEPS2_m = comdat any

$_ZSt8_DestroyIPN5arrow8internal12MemoryRegionES2_EvT_S4_RSaIT0_E = comdat any

$_ZSt8_DestroyIPN5arrow8internal12MemoryRegionEEvT_S4_ = comdat any

$_ZNSt12_Destroy_auxILb1EE9__destroyIPN5arrow8internal12MemoryRegionEEEvT_S6_ = comdat any

$_ZN5arrow6ResultISt10shared_ptrINS_6BufferEEE15MoveValueUnsafeEv = comdat any

$_ZN5arrow6FutureISt10shared_ptrINS_6BufferEEEC2Ev = comdat any

$_ZN5arrow6FutureISt10shared_ptrINS_6BufferEEE20InitializeFromResultENS_6ResultIS3_EE = comdat any

$_ZN5arrow6ResultISt10shared_ptrINS_6BufferEEEC2IS3_vEEONS0_IT_EE = comdat any

$_ZN5arrow6FutureISt10shared_ptrINS_6BufferEEED2Ev = comdat any

$_ZNSt10shared_ptrIN5arrow10FutureImplEEC2Ev = comdat any

$_ZNSt12__shared_ptrIN5arrow10FutureImplELN9__gnu_cxx12_Lock_policyE2EEC2Ev = comdat any

$_ZNSt10shared_ptrIN5arrow10FutureImplEEaSIS1_St14default_deleteIS1_EEENSt9enable_ifIXsr13is_assignableIRSt12__shared_ptrIS1_LN9__gnu_cxx12_Lock_policyE2EESt10unique_ptrIT_T0_EEE5valueERS2_E4typeEOSF_ = comdat any

$_ZNSt10unique_ptrIN5arrow10FutureImplESt14default_deleteIS1_EED2Ev = comdat any

$_ZN5arrow6FutureISt10shared_ptrINS_6BufferEEE9SetResultENS_6ResultIS3_EE = comdat any

$_ZNSt12__shared_ptrIN5arrow10FutureImplELN9__gnu_cxx12_Lock_policyE2EEaSIS1_St14default_deleteIS1_EEENSt9enable_ifIXsr6__and_ISt20__sp_compatible_withIPT_PS1_ESt14is_convertibleINSt10unique_ptrISA_T0_E7pointerESC_ESt21is_move_constructibleISG_EEE5valueERS4_E4typeEOSH_ = comdat any

$_ZNSt12__shared_ptrIN5arrow10FutureImplELN9__gnu_cxx12_Lock_policyE2EEC2IS1_St14default_deleteIS1_EvEEOSt10unique_ptrIT_T0_E = comdat any

$_ZNSt12__shared_ptrIN5arrow10FutureImplELN9__gnu_cxx12_Lock_policyE2EE4swapERS4_ = comdat any

$_ZNSt12__shared_ptrIN5arrow10FutureImplELN9__gnu_cxx12_Lock_policyE2EED2Ev = comdat any

$_ZNKSt10unique_ptrIN5arrow10FutureImplESt14default_deleteIS1_EE3getEv = comdat any

$_ZSt12__to_addressIN5arrow10FutureImplEEPT_S3_ = comdat any

$_ZNSt14__shared_countILN9__gnu_cxx12_Lock_policyE2EEC2IN5arrow10FutureImplESt14default_deleteIS5_EEEOSt10unique_ptrIT_T0_E = comdat any

$_ZNSt12__shared_ptrIN5arrow10FutureImplELN9__gnu_cxx12_Lock_policyE2EE31_M_enable_shared_from_this_withIS1_S1_EENSt9enable_ifIXsr15__has_esft_baseIT0_EE5valueEvE4typeEPT_ = comdat any

$_ZNKSt15__uniq_ptr_implIN5arrow10FutureImplESt14default_deleteIS1_EE6_M_ptrEv = comdat any

$_ZSt3getILm0EJPN5arrow10FutureImplESt14default_deleteIS1_EEERKNSt13tuple_elementIXT_ESt5tupleIJDpT0_EEE4typeERKS9_ = comdat any

$_ZSt12__get_helperILm0EPN5arrow10FutureImplEJSt14default_deleteIS1_EEERKT0_RKSt11_Tuple_implIXT_EJS5_DpT1_EE = comdat any

$_ZNSt11_Tuple_implILm0EJPN5arrow10FutureImplESt14default_deleteIS1_EEE7_M_headERKS5_ = comdat any

$_ZNSt10_Head_baseILm0EPN5arrow10FutureImplELb0EE7_M_headERKS3_ = comdat any

$_ZNSaISt19_Sp_counted_deleterIPN5arrow10FutureImplESt14default_deleteIS1_ESaIvELN9__gnu_cxx12_Lock_policyE2EEEC2Ev = comdat any

$_ZNSt16allocator_traitsISaISt19_Sp_counted_deleterIPN5arrow10FutureImplESt14default_deleteIS2_ESaIvELN9__gnu_cxx12_Lock_policyE2EEEE8allocateERSA_m = comdat any

$_ZNSt16allocator_traitsISaISt19_Sp_counted_deleterIPN5arrow10FutureImplESt14default_deleteIS2_ESaIvELN9__gnu_cxx12_Lock_policyE2EEEE9constructIS9_JS3_S5_EEEvRSA_PT_DpOT0_ = comdat any

$_ZNSt10unique_ptrIN5arrow10FutureImplESt14default_deleteIS1_EE7releaseEv = comdat any

$_ZNSt10unique_ptrIN5arrow10FutureImplESt14default_deleteIS1_EE11get_deleterEv = comdat any

$_ZNSaISt19_Sp_counted_deleterIPN5arrow10FutureImplESt14default_deleteIS1_ESaIvELN9__gnu_cxx12_Lock_policyE2EEED2Ev = comdat any

$_ZNSt15__new_allocatorISt19_Sp_counted_deleterIPN5arrow10FutureImplESt14default_deleteIS2_ESaIvELN9__gnu_cxx12_Lock_policyE2EEEC2Ev = comdat any

$_ZNSt15__new_allocatorISt19_Sp_counted_deleterIPN5arrow10FutureImplESt14default_deleteIS2_ESaIvELN9__gnu_cxx12_Lock_policyE2EEE8allocateEmPKv = comdat any

$_ZNKSt15__new_allocatorISt19_Sp_counted_deleterIPN5arrow10FutureImplESt14default_deleteIS2_ESaIvELN9__gnu_cxx12_Lock_policyE2EEE11_M_max_sizeEv = comdat any

$_ZNSt15__new_allocatorISt19_Sp_counted_deleterIPN5arrow10FutureImplESt14default_deleteIS2_ESaIvELN9__gnu_cxx12_Lock_policyE2EEE9constructIS9_JS3_S5_EEEvPT_DpOT0_ = comdat any

$_ZNSt19_Sp_counted_deleterIPN5arrow10FutureImplESt14default_deleteIS1_ESaIvELN9__gnu_cxx12_Lock_policyE2EEC2ES2_S4_ = comdat any

$_ZNSt19_Sp_counted_deleterIPN5arrow10FutureImplESt14default_deleteIS1_ESaIvELN9__gnu_cxx12_Lock_policyE2EE5_ImplC2ES2_S4_RKS5_ = comdat any

$_ZNSt19_Sp_counted_deleterIPN5arrow10FutureImplESt14default_deleteIS1_ESaIvELN9__gnu_cxx12_Lock_policyE2EED2Ev = comdat any

$_ZNSt19_Sp_counted_deleterIPN5arrow10FutureImplESt14default_deleteIS1_ESaIvELN9__gnu_cxx12_Lock_policyE2EED0Ev = comdat any

$_ZNSt19_Sp_counted_deleterIPN5arrow10FutureImplESt14default_deleteIS1_ESaIvELN9__gnu_cxx12_Lock_policyE2EE10_M_disposeEv = comdat any

$_ZNSt19_Sp_counted_deleterIPN5arrow10FutureImplESt14default_deleteIS1_ESaIvELN9__gnu_cxx12_Lock_policyE2EE10_M_destroyEv = comdat any

$_ZNSt19_Sp_counted_deleterIPN5arrow10FutureImplESt14default_deleteIS1_ESaIvELN9__gnu_cxx12_Lock_policyE2EE14_M_get_deleterERKSt9type_info = comdat any

$_ZNSt14_Sp_ebo_helperILi0ESt14default_deleteIN5arrow10FutureImplEELb1EEC2EOS3_ = comdat any

$_ZNSt19_Sp_counted_deleterIPN5arrow10FutureImplESt14default_deleteIS1_ESaIvELN9__gnu_cxx12_Lock_policyE2EE5_Impl6_M_delEv = comdat any

$_ZNKSt14default_deleteIN5arrow10FutureImplEEclEPS1_ = comdat any

$_ZNSt14_Sp_ebo_helperILi0ESt14default_deleteIN5arrow10FutureImplEELb1EE6_S_getERS4_ = comdat any

$_ZNSt19_Sp_counted_deleterIPN5arrow10FutureImplESt14default_deleteIS1_ESaIvELN9__gnu_cxx12_Lock_policyE2EE5_Impl8_M_allocEv = comdat any

$_ZNSaISt19_Sp_counted_deleterIPN5arrow10FutureImplESt14default_deleteIS1_ESaIvELN9__gnu_cxx12_Lock_policyE2EEEC2IvEERKSaIT_E = comdat any

$_ZNSt15__allocated_ptrISaISt19_Sp_counted_deleterIPN5arrow10FutureImplESt14default_deleteIS2_ESaIvELN9__gnu_cxx12_Lock_policyE2EEEEC2ERSA_PS9_ = comdat any

$_ZNSt15__allocated_ptrISaISt19_Sp_counted_deleterIPN5arrow10FutureImplESt14default_deleteIS2_ESaIvELN9__gnu_cxx12_Lock_policyE2EEEED2Ev = comdat any

$_ZNSt16allocator_traitsISaISt19_Sp_counted_deleterIPN5arrow10FutureImplESt14default_deleteIS2_ESaIvELN9__gnu_cxx12_Lock_policyE2EEEE10deallocateERSA_PS9_m = comdat any

$_ZNSt15__new_allocatorISt19_Sp_counted_deleterIPN5arrow10FutureImplESt14default_deleteIS2_ESaIvELN9__gnu_cxx12_Lock_policyE2EEE10deallocateEPS9_m = comdat any

$_ZNSt15__uniq_ptr_implIN5arrow10FutureImplESt14default_deleteIS1_EE7releaseEv = comdat any

$_ZNSt15__uniq_ptr_implIN5arrow10FutureImplESt14default_deleteIS1_EE6_M_ptrEv = comdat any

$_ZSt3getILm0EJPN5arrow10FutureImplESt14default_deleteIS1_EEERNSt13tuple_elementIXT_ESt5tupleIJDpT0_EEE4typeERS9_ = comdat any

$_ZSt12__get_helperILm0EPN5arrow10FutureImplEJSt14default_deleteIS1_EEERT0_RSt11_Tuple_implIXT_EJS5_DpT1_EE = comdat any

$_ZNSt11_Tuple_implILm0EJPN5arrow10FutureImplESt14default_deleteIS1_EEE7_M_headERS5_ = comdat any

$_ZNSt10_Head_baseILm0EPN5arrow10FutureImplELb0EE7_M_headERS3_ = comdat any

$_ZNSt15__uniq_ptr_implIN5arrow10FutureImplESt14default_deleteIS1_EE10_M_deleterEv = comdat any

$_ZSt3getILm1EJPN5arrow10FutureImplESt14default_deleteIS1_EEERNSt13tuple_elementIXT_ESt5tupleIJDpT0_EEE4typeERS9_ = comdat any

$_ZSt12__get_helperILm1ESt14default_deleteIN5arrow10FutureImplEEJEERT0_RSt11_Tuple_implIXT_EJS4_DpT1_EE = comdat any

$_ZNSt11_Tuple_implILm1EJSt14default_deleteIN5arrow10FutureImplEEEE7_M_headERS4_ = comdat any

$_ZNSt10_Head_baseILm1ESt14default_deleteIN5arrow10FutureImplEELb1EE7_M_headERS4_ = comdat any

$_ZNSt15__new_allocatorISt19_Sp_counted_deleterIPN5arrow10FutureImplESt14default_deleteIS2_ESaIvELN9__gnu_cxx12_Lock_policyE2EEED2Ev = comdat any

$_ZSt30__enable_shared_from_this_baseRKSt14__shared_countILN9__gnu_cxx12_Lock_policyE2EEPKSt23enable_shared_from_thisIN5arrow10FutureImplEE = comdat any

$_ZNKSt23enable_shared_from_thisIN5arrow10FutureImplEE14_M_weak_assignIS1_EEvPT_RKSt14__shared_countILN9__gnu_cxx12_Lock_policyE2EE = comdat any

$_ZNSt10__weak_ptrIN5arrow10FutureImplELN9__gnu_cxx12_Lock_policyE2EE9_M_assignEPS1_RKSt14__shared_countILS3_2EE = comdat any

$_ZNKSt10__weak_ptrIN5arrow10FutureImplELN9__gnu_cxx12_Lock_policyE2EE9use_countEv = comdat any

$_ZSt4swapIPN5arrow10FutureImplEENSt9enable_ifIXsr6__and_ISt6__not_ISt15__is_tuple_likeIT_EESt21is_move_constructibleIS6_ESt18is_move_assignableIS6_EEE5valueEvE4typeERS6_SF_ = comdat any

$_ZZN5arrow6FutureISt10shared_ptrINS_6BufferEEE9SetResultENS_6ResultIS3_EEENKUlPvE_cvPFvS7_EEv = comdat any

$_ZNSt10unique_ptrIvPFvPvEEC2IS2_vEES0_NSt9enable_ifIXntsr19is_lvalue_referenceIT_EE5valueEOS6_E4typeE = comdat any

$_ZNKSt19__shared_ptr_accessIN5arrow10FutureImplELN9__gnu_cxx12_Lock_policyE2ELb0ELb0EEptEv = comdat any

$_ZNSt10unique_ptrIvPFvPvEEaSEOS3_ = comdat any

$_ZNSt10unique_ptrIvPFvPvEED2Ev = comdat any

$_ZZN5arrow6FutureISt10shared_ptrINS_6BufferEEE9SetResultENS_6ResultIS3_EEENUlPvE_8__invokeES7_ = comdat any

$_ZZN5arrow6FutureISt10shared_ptrINS_6BufferEEE9SetResultENS_6ResultIS3_EEENKUlPvE_clES7_ = comdat any

$_ZNSt15__uniq_ptr_dataIvPFvPvELb1ELb1EECI2St15__uniq_ptr_implIvS2_EIS2_EES0_OT_ = comdat any

$_ZNSt15__uniq_ptr_implIvPFvPvEEC2IS2_EES0_OT_ = comdat any

$_ZNSt5tupleIJPvPFvS0_EEEC2IRS0_S2_TnNSt9enable_ifIXclsr4_TCCIXntcl14__is_alloc_argIT_EEEEE29__is_implicitly_constructibleIS7_T0_EEEbE4typeELb1EEEOS7_OS8_ = comdat any

$_ZNSt11_Tuple_implILm0EJPvPFvS0_EEEC2IRS0_JS2_EvEEOT_DpOT0_ = comdat any

$_ZNSt11_Tuple_implILm1EJPFvPvEEEC2IS2_EEOT_ = comdat any

$_ZNSt10_Head_baseILm0EPvLb0EEC2IRS0_EEOT_ = comdat any

$_ZNSt10_Head_baseILm1EPFvPvELb0EEC2IS2_EEOT_ = comdat any

$_ZNKSt19__shared_ptr_accessIN5arrow10FutureImplELN9__gnu_cxx12_Lock_policyE2ELb0ELb0EE6_M_getEv = comdat any

$_ZNKSt12__shared_ptrIN5arrow10FutureImplELN9__gnu_cxx12_Lock_policyE2EE3getEv = comdat any

$_ZNSt15__uniq_ptr_dataIvPFvPvELb1ELb1EEaSEOS3_ = comdat any

$_ZNSt15__uniq_ptr_implIvPFvPvEEaSEOS3_ = comdat any

$_ZNSt15__uniq_ptr_implIvPFvPvEE5resetES0_ = comdat any

$_ZNSt15__uniq_ptr_implIvPFvPvEE7releaseEv = comdat any

$_ZNSt15__uniq_ptr_implIvPFvPvEE10_M_deleterEv = comdat any

$_ZNSt15__uniq_ptr_implIvPFvPvEE6_M_ptrEv = comdat any

$_ZSt3getILm0EJPvPFvS0_EEERNSt13tuple_elementIXT_ESt5tupleIJDpT0_EEE4typeERS7_ = comdat any

$_ZSt12__get_helperILm0EPvJPFvS0_EEERT0_RSt11_Tuple_implIXT_EJS3_DpT1_EE = comdat any

$_ZNSt11_Tuple_implILm0EJPvPFvS0_EEE7_M_headERS3_ = comdat any

$_ZNSt10_Head_baseILm0EPvLb0EE7_M_headERS1_ = comdat any

$_ZSt3getILm1EJPvPFvS0_EEERNSt13tuple_elementIXT_ESt5tupleIJDpT0_EEE4typeERS7_ = comdat any

$_ZSt12__get_helperILm1EPFvPvEJEERT0_RSt11_Tuple_implIXT_EJS3_DpT1_EE = comdat any

$_ZNSt11_Tuple_implILm1EJPFvPvEEE7_M_headERS3_ = comdat any

$_ZNSt10_Head_baseILm1EPFvPvELb0EE7_M_headERS3_ = comdat any

$_ZNSt10unique_ptrIvPFvPvEE11get_deleterEv = comdat any

$_ZN5arrow6StatusaSEOS0_ = comdat any

$_ZN5arrow6StatusaSERKS0_ = comdat any

$_ZN5arrow6Status8MoveFromERS0_ = comdat any

$_ZNSt10shared_ptrIN5arrow10FutureImplEED2Ev = comdat any

$_ZNSt12_Vector_baseIN5arrow8internal12MemoryRegionESaIS2_EEC2EmRKS3_ = comdat any

$_ZNSt6vectorIN5arrow8internal12MemoryRegionESaIS2_EE21_M_default_initializeEm = comdat any

$_ZNSt12_Vector_baseIN5arrow8internal12MemoryRegionESaIS2_EE17_M_create_storageEm = comdat any

$_ZSt27__uninitialized_default_n_aIPN5arrow8internal12MemoryRegionEmS2_ET_S4_T0_RSaIT1_E = comdat any

$_ZSt25__uninitialized_default_nIPN5arrow8internal12MemoryRegionEmET_S4_T0_ = comdat any

$_ZNSt27__uninitialized_default_n_1ILb1EE18__uninit_default_nIPN5arrow8internal12MemoryRegionEmEET_S6_T0_ = comdat any

$_ZSt10_ConstructIN5arrow8internal12MemoryRegionEJEEvPT_DpOT0_ = comdat any

$_ZSt6fill_nIPN5arrow8internal12MemoryRegionEmS2_ET_S4_T0_RKT1_ = comdat any

$_ZSt10__fill_n_aIPN5arrow8internal12MemoryRegionEmS2_ET_S4_T0_RKT1_St26random_access_iterator_tag = comdat any

$_ZSt17__size_to_integerm = comdat any

$_ZSt19__iterator_categoryIPN5arrow8internal12MemoryRegionEENSt15iterator_traitsIT_E17iterator_categoryERKS5_ = comdat any

$_ZSt8__fill_aIPN5arrow8internal12MemoryRegionES2_EvT_S4_RKT0_ = comdat any

$_ZSt9__fill_a1IPN5arrow8internal12MemoryRegionES2_EN9__gnu_cxx11__enable_ifIXntsr11__is_scalarIT0_EE7__valueEvE6__typeET_S9_RKS6_ = comdat any

$_ZN5arrow6Status8FromArgsIJRA16_KcEEES0_NS_10StatusCodeEDpOT_ = comdat any

$_ZN5arrow4util13StringBuilderIJRA16_KcEEENSt7__cxx1112basic_stringIcSt11char_traitsIcESaIcEEEDpOT_ = comdat any

$_ZN5arrow4util22StringBuilderRecursiveIRA16_KcEEvRSoOT_ = comdat any

$_ZNSt11unique_lockIS_ISt5mutexEEC2ERS1_St12defer_lock_t = comdat any

$_ZNSt11unique_lockIS_ISt5mutexEE4lockEv = comdat any

$_ZNSt11unique_lockIS_ISt5mutexEE8try_lockEv = comdat any

$_ZNSt11unique_lockIS_ISt5mutexEE6unlockEv = comdat any

$_ZNKSt11unique_lockIS_ISt5mutexEE9owns_lockEv = comdat any

$_ZNSt11unique_lockIS_ISt5mutexEE7releaseEv = comdat any

$_ZNSt11unique_lockIS_ISt5mutexEED2Ev = comdat any

$_ZNSt11unique_lockISt5mutexE8try_lockEv = comdat any

$_ZNSt5mutex8try_lockEv = comdat any

$_ZN5arrow2io8internal22SharedExclusiveChecker15exclusive_guardEv = comdat any

$_ZN5arrow2io8internal34RandomAccessFileConcurrencyWrapperINS0_12ReadableFileEE7derivedEv = comdat any

$_ZN5arrow2io8internal18ExclusiveLockGuardINS1_22SharedExclusiveCheckerEED2Ev = comdat any

$_ZN5arrow2io8internal18ExclusiveLockGuardINS1_22SharedExclusiveCheckerEEC2EPS3_ = comdat any

$_ZN5arrow8internal12checked_castIPNS_2io12ReadableFileEPNS2_8internal34RandomAccessFileConcurrencyWrapperIS3_EEEET_OT0_ = comdat any

$_ZNK5arrow2io8internal34RandomAccessFileConcurrencyWrapperINS0_12ReadableFileEE7derivedEv = comdat any

$_ZN5arrow8internal12checked_castIPKNS_2io12ReadableFileEPKNS2_8internal34RandomAccessFileConcurrencyWrapperIS3_EEEET_OT0_ = comdat any

$_ZTv0_n32_N5arrow2io8internal34RandomAccessFileConcurrencyWrapperINS0_12ReadableFileEE4ReadElPv = comdat any

$_ZTv0_n40_N5arrow2io8internal34RandomAccessFileConcurrencyWrapperINS0_12ReadableFileEE4ReadEl = comdat any

$_ZN5arrow2io8internal22SharedExclusiveChecker12shared_guardEv = comdat any

$_ZN5arrow2io8internal15SharedLockGuardINS1_22SharedExclusiveCheckerEED2Ev = comdat any

$_ZN5arrow2io8internal15SharedLockGuardINS1_22SharedExclusiveCheckerEEC2EPS3_ = comdat any

$_ZN5arrow6Status14NotImplementedIJRA21_KcEEES0_DpOT_ = comdat any

$_ZN5arrow6ResultISt17basic_string_viewIcSt11char_traitsIcEEEC2ERKNS_6StatusE = comdat any

$_ZN5arrow6Status8FromArgsIJRA21_KcEEES0_NS_10StatusCodeEDpOT_ = comdat any

$_ZN5arrow4util13StringBuilderIJRA21_KcEEENSt7__cxx1112basic_stringIcSt11char_traitsIcESaIcEEEDpOT_ = comdat any

$_ZN5arrow4util22StringBuilderRecursiveIRA21_KcEEvRSoOT_ = comdat any

$_ZSt10defer_lock = comdat any

$_ZTSN5arrow2io8internal34RandomAccessFileConcurrencyWrapperINS0_12ReadableFileEEE = comdat any

$_ZTIN5arrow2io8internal34RandomAccessFileConcurrencyWrapperINS0_12ReadableFileEEE = comdat any

$_ZTSN5arrow2io12OutputStreamE = comdat any

$_ZTIN5arrow2io12OutputStreamE = comdat any

$_ZTSN5arrow2io22ReadWriteFileInterfaceE = comdat any

$_ZTSN5arrow2io12WritableFileE = comdat any

$_ZTSN5arrow2io8SeekableE = comdat any

$_ZTIN5arrow2io8SeekableE = comdat any

$_ZTIN5arrow2io12WritableFileE = comdat any

$_ZTIN5arrow2io22ReadWriteFileInterfaceE = comdat any

$_ZTVN5arrow2io8internal34RandomAccessFileConcurrencyWrapperINS0_12ReadableFileEEE = comdat any

$_ZTTN5arrow2io8internal34RandomAccessFileConcurrencyWrapperINS0_12ReadableFileEEE = comdat any

$_ZTCN5arrow2io8internal34RandomAccessFileConcurrencyWrapperINS0_12ReadableFileEEE0_NS0_16RandomAccessFileE = comdat any

$_ZTCN5arrow2io8internal34RandomAccessFileConcurrencyWrapperINS0_12ReadableFileEEE0_NS0_11InputStreamE = comdat any

$_ZTVSt19_Sp_counted_deleterIPN5arrow15ResizableBufferESt14default_deleteIS1_ESaIvELN9__gnu_cxx12_Lock_policyE2EE = comdat any

$_ZTSSt19_Sp_counted_deleterIPN5arrow15ResizableBufferESt14default_deleteIS1_ESaIvELN9__gnu_cxx12_Lock_policyE2EE = comdat any

$_ZTSSt16_Sp_counted_baseILN9__gnu_cxx12_Lock_policyE2EE = comdat any

$_ZTSSt11_Mutex_baseILN9__gnu_cxx12_Lock_policyE2EE = comdat any

$_ZTISt11_Mutex_baseILN9__gnu_cxx12_Lock_policyE2EE = comdat any

$_ZTISt16_Sp_counted_baseILN9__gnu_cxx12_Lock_policyE2EE = comdat any

$_ZTISt19_Sp_counted_deleterIPN5arrow15ResizableBufferESt14default_deleteIS1_ESaIvELN9__gnu_cxx12_Lock_policyE2EE = comdat any

$_ZTVSt16_Sp_counted_baseILN9__gnu_cxx12_Lock_policyE2EE = comdat any

$_ZTSSt14default_deleteIN5arrow15ResizableBufferEE = comdat any

$_ZTISt14default_deleteIN5arrow15ResizableBufferEE = comdat any

$_ZTVN5arrow2io22ReadWriteFileInterfaceE = comdat any

$_ZTTN5arrow2io22ReadWriteFileInterfaceE = comdat any

$_ZTCN5arrow2io22ReadWriteFileInterfaceE0_NS0_16RandomAccessFileE = comdat any

$_ZTCN5arrow2io22ReadWriteFileInterfaceE0_NS0_11InputStreamE = comdat any

$_ZTCN5arrow2io22ReadWriteFileInterfaceE24_NS0_12WritableFileE = comdat any

$_ZTCN5arrow2io22ReadWriteFileInterfaceE24_NS0_12OutputStreamE = comdat any

$_ZTVN5arrow2io12WritableFileE = comdat any

$_ZTTN5arrow2io12WritableFileE = comdat any

$_ZTCN5arrow2io12WritableFileE0_NS0_12OutputStreamE = comdat any

$_ZTVN5arrow2io8SeekableE = comdat any

$_ZTVSt23_Sp_counted_ptr_inplaceIN5arrow2io16MemoryMappedFile9MemoryMap6RegionESaIvELN9__gnu_cxx12_Lock_policyE2EE = comdat any

$_ZTSSt23_Sp_counted_ptr_inplaceIN5arrow2io16MemoryMappedFile9MemoryMap6RegionESaIvELN9__gnu_cxx12_Lock_policyE2EE = comdat any

$_ZTISt23_Sp_counted_ptr_inplaceIN5arrow2io16MemoryMappedFile9MemoryMap6RegionESaIvELN9__gnu_cxx12_Lock_policyE2EE = comdat any

$_ZTVN5arrow2io16MemoryMappedFile9MemoryMap6RegionE = comdat any

$_ZTSN5arrow2io16MemoryMappedFile9MemoryMap6RegionE = comdat any

$_ZTSN5arrow6BufferE = comdat any

$_ZTIN5arrow6BufferE = comdat any

$_ZTIN5arrow2io16MemoryMappedFile9MemoryMap6RegionE = comdat any

$_ZTVN5arrow6BufferE = comdat any

$_ZTSSt19_Sp_make_shared_tag = comdat any

$_ZTISt19_Sp_make_shared_tag = comdat any

$_ZZNSt19_Sp_make_shared_tag5_S_tiEvE5__tag = comdat any

$_ZTVSt23_Sp_counted_ptr_inplaceIN5arrow6BufferESaIvELN9__gnu_cxx12_Lock_policyE2EE = comdat any

$_ZTSSt23_Sp_counted_ptr_inplaceIN5arrow6BufferESaIvELN9__gnu_cxx12_Lock_policyE2EE = comdat any

$_ZTISt23_Sp_counted_ptr_inplaceIN5arrow6BufferESaIvELN9__gnu_cxx12_Lock_policyE2EE = comdat any

$_ZTVSt15_Sp_counted_ptrIPN5arrow2io12ReadableFileELN9__gnu_cxx12_Lock_policyE2EE = comdat any

$_ZTSSt15_Sp_counted_ptrIPN5arrow2io12ReadableFileELN9__gnu_cxx12_Lock_policyE2EE = comdat any

$_ZTISt15_Sp_counted_ptrIPN5arrow2io12ReadableFileELN9__gnu_cxx12_Lock_policyE2EE = comdat any

$_ZTVSt15_Sp_counted_ptrIPN5arrow2io16FileOutputStreamELN9__gnu_cxx12_Lock_policyE2EE = comdat any

$_ZTSSt15_Sp_counted_ptrIPN5arrow2io16FileOutputStreamELN9__gnu_cxx12_Lock_policyE2EE = comdat any

$_ZTISt15_Sp_counted_ptrIPN5arrow2io16FileOutputStreamELN9__gnu_cxx12_Lock_policyE2EE = comdat any

$_ZTVSt15_Sp_counted_ptrIPN5arrow2io16MemoryMappedFileELN9__gnu_cxx12_Lock_policyE2EE = comdat any

$_ZTSSt15_Sp_counted_ptrIPN5arrow2io16MemoryMappedFileELN9__gnu_cxx12_Lock_policyE2EE = comdat any

$_ZTISt15_Sp_counted_ptrIPN5arrow2io16MemoryMappedFileELN9__gnu_cxx12_Lock_policyE2EE = comdat any

$_ZTVSt15_Sp_counted_ptrIPN5arrow2io16MemoryMappedFile9MemoryMapELN9__gnu_cxx12_Lock_policyE2EE = comdat any

$_ZTSSt15_Sp_counted_ptrIPN5arrow2io16MemoryMappedFile9MemoryMapELN9__gnu_cxx12_Lock_policyE2EE = comdat any

$_ZTISt15_Sp_counted_ptrIPN5arrow2io16MemoryMappedFile9MemoryMapELN9__gnu_cxx12_Lock_policyE2EE = comdat any

$_ZTVSt19_Sp_counted_deleterIPN5arrow10FutureImplESt14default_deleteIS1_ESaIvELN9__gnu_cxx12_Lock_policyE2EE = comdat any

$_ZTSSt19_Sp_counted_deleterIPN5arrow10FutureImplESt14default_deleteIS1_ESaIvELN9__gnu_cxx12_Lock_policyE2EE = comdat any

$_ZTISt19_Sp_counted_deleterIPN5arrow10FutureImplESt14default_deleteIS1_ESaIvELN9__gnu_cxx12_Lock_policyE2EE = comdat any

$_ZTSSt14default_deleteIN5arrow10FutureImplEE = comdat any

$_ZTISt14default_deleteIN5arrow10FutureImplEE = comdat any

@_ZTVN5arrow2io12ReadableFileE = unnamed_addr constant { [30 x ptr], [5 x ptr], [15 x ptr] } { [30 x ptr] [ptr null, ptr inttoptr (i64 48 to ptr), ptr null, ptr null, ptr null, ptr null, ptr null, ptr @_ZTIN5arrow2io12ReadableFileE, ptr @_ZN5arrow2io12ReadableFileD1Ev, ptr @_ZN5arrow2io12ReadableFileD0Ev, ptr @_ZN5arrow2io8internal34RandomAccessFileConcurrencyWrapperINS0_12ReadableFileEE4ReadElPv, ptr @_ZN5arrow2io8internal34RandomAccessFileConcurrencyWrapperINS0_12ReadableFileEE4ReadEl, ptr @_ZNK5arrow2io8Readable10io_contextEv, ptr @_ZN5arrow2io8internal34RandomAccessFileConcurrencyWrapperINS0_12ReadableFileEE4PeekEl, ptr @_ZNK5arrow2io11InputStream18supports_zero_copyEv, ptr @_ZN5arrow2io11InputStream12ReadMetadataEv, ptr @_ZN5arrow2io11InputStream17ReadMetadataAsyncERKNS0_9IOContextE, ptr @_ZN5arrow2io8internal34RandomAccessFileConcurrencyWrapperINS0_12ReadableFileEE7GetSizeEv, ptr @_ZN5arrow2io8internal34RandomAccessFileConcurrencyWrapperINS0_12ReadableFileEE6ReadAtEllPv, ptr @_ZN5arrow2io8internal34RandomAccessFileConcurrencyWrapperINS0_12ReadableFileEE6ReadAtEll, ptr @_ZN5arrow2io16RandomAccessFile9ReadAsyncERKNS0_9IOContextEll, ptr @_ZN5arrow2io16RandomAccessFile13ReadManyAsyncERKNS0_9IOContextERKSt6vectorINS0_9ReadRangeESaIS6_EE, ptr @_ZN5arrow2io12ReadableFile8WillNeedERKSt6vectorINS0_9ReadRangeESaIS3_EE, ptr @_ZN5arrow2io8internal34RandomAccessFileConcurrencyWrapperINS0_12ReadableFileEE5CloseEv, ptr @_ZN5arrow2io8internal34RandomAccessFileConcurrencyWrapperINS0_12ReadableFileEE5AbortEv, ptr @_ZNK5arrow2io8internal34RandomAccessFileConcurrencyWrapperINS0_12ReadableFileEE4TellEv, ptr @_ZN5arrow2io8internal34RandomAccessFileConcurrencyWrapperINS0_12ReadableFileEE4SeekEl, ptr @_ZN5arrow2io8internal34RandomAccessFileConcurrencyWrapperINS0_12ReadableFileEE7DoAbortEv, ptr @_ZN5arrow2io8internal34RandomAccessFileConcurrencyWrapperINS0_12ReadableFileEE6DoPeekEl, ptr @_ZNK5arrow2io12ReadableFile6closedEv], [5 x ptr] [ptr inttoptr (i64 -8 to ptr), ptr @_ZTIN5arrow2io12ReadableFileE, ptr @_ZThn8_N5arrow2io12ReadableFileD1Ev, ptr @_ZThn8_N5arrow2io12ReadableFileD0Ev, ptr @_ZThn8_N5arrow2io8internal34RandomAccessFileConcurrencyWrapperINS0_12ReadableFileEE4SeekEl], [15 x ptr] [ptr inttoptr (i64 -48 to ptr), ptr inttoptr (i64 -48 to ptr), ptr inttoptr (i64 -48 to ptr), ptr null, ptr inttoptr (i64 -48 to ptr), ptr inttoptr (i64 -48 to ptr), ptr inttoptr (i64 -48 to ptr), ptr @_ZTIN5arrow2io12ReadableFileE, ptr @_ZTv0_n24_N5arrow2io12ReadableFileD1Ev, ptr @_ZTv0_n24_N5arrow2io12ReadableFileD0Ev, ptr @_ZTv0_n32_N5arrow2io8internal34RandomAccessFileConcurrencyWrapperINS0_12ReadableFileEE5CloseEv, ptr @_ZN5arrow2io13FileInterface10CloseAsyncEv, ptr @_ZTv0_n48_N5arrow2io8internal34RandomAccessFileConcurrencyWrapperINS0_12ReadableFileEE5AbortEv, ptr @_ZTv0_n56_NK5arrow2io8internal34RandomAccessFileConcurrencyWrapperINS0_12ReadableFileEE4TellEv, ptr @_ZTv0_n64_NK5arrow2io12ReadableFile6closedEv] }, align 8
@_ZTTN5arrow2io12ReadableFileE = unnamed_addr constant [12 x ptr] [ptr getelementptr inbounds ({ [30 x ptr], [5 x ptr], [15 x ptr] }, ptr @_ZTVN5arrow2io12ReadableFileE, i32 0, inrange i32 0, i32 8), ptr getelementptr inbounds ({ [29 x ptr], [15 x ptr] }, ptr @_ZTCN5arrow2io12ReadableFileE0_NS0_8internal34RandomAccessFileConcurrencyWrapperINS0_12ReadableFileEEE, i32 0, inrange i32 0, i32 8), ptr getelementptr inbounds ({ [23 x ptr], [15 x ptr] }, ptr @_ZTCN5arrow2io12ReadableFileE0_NS0_16RandomAccessFileE, i32 0, inrange i32 0, i32 8), ptr getelementptr inbounds ({ [17 x ptr], [15 x ptr] }, ptr @_ZTCN5arrow2io12ReadableFileE0_NS0_11InputStreamE, i32 0, inrange i32 0, i32 8), ptr getelementptr inbounds ({ [17 x ptr], [15 x ptr] }, ptr @_ZTCN5arrow2io12ReadableFileE0_NS0_11InputStreamE, i32 0, inrange i32 1, i32 8), ptr getelementptr inbounds ({ [17 x ptr], [15 x ptr] }, ptr @_ZTCN5arrow2io12ReadableFileE0_NS0_11InputStreamE, i32 0, inrange i32 0, i32 8), ptr getelementptr inbounds ({ [23 x ptr], [15 x ptr] }, ptr @_ZTCN5arrow2io12ReadableFileE0_NS0_16RandomAccessFileE, i32 0, inrange i32 1, i32 8), ptr getelementptr inbounds ({ [23 x ptr], [15 x ptr] }, ptr @_ZTCN5arrow2io12ReadableFileE0_NS0_16RandomAccessFileE, i32 0, inrange i32 0, i32 8), ptr getelementptr inbounds ({ [29 x ptr], [15 x ptr] }, ptr @_ZTCN5arrow2io12ReadableFileE0_NS0_8internal34RandomAccessFileConcurrencyWrapperINS0_12ReadableFileEEE, i32 0, inrange i32 1, i32 8), ptr getelementptr inbounds ({ [29 x ptr], [15 x ptr] }, ptr @_ZTCN5arrow2io12ReadableFileE0_NS0_8internal34RandomAccessFileConcurrencyWrapperINS0_12ReadableFileEEE, i32 0, inrange i32 0, i32 8), ptr getelementptr inbounds ({ [30 x ptr], [5 x ptr], [15 x ptr] }, ptr @_ZTVN5arrow2io12ReadableFileE, i32 0, inrange i32 2, i32 8), ptr getelementptr inbounds ({ [30 x ptr], [5 x ptr], [15 x ptr] }, ptr @_ZTVN5arrow2io12ReadableFileE, i32 0, inrange i32 0, i32 8)], align 8
@_ZTVN5arrow2io16FileOutputStreamE = unnamed_addr constant { [11 x ptr], [15 x ptr] } { [11 x ptr] [ptr inttoptr (i64 16 to ptr), ptr null, ptr @_ZTIN5arrow2io16FileOutputStreamE, ptr @_ZN5arrow2io16FileOutputStreamD1Ev, ptr @_ZN5arrow2io16FileOutputStreamD0Ev, ptr @_ZN5arrow2io16FileOutputStream5WriteEPKvl, ptr @_ZN5arrow2io8Writable5WriteERKSt10shared_ptrINS_6BufferEE, ptr @_ZN5arrow2io8Writable5FlushEv, ptr @_ZN5arrow2io16FileOutputStream5CloseEv, ptr @_ZNK5arrow2io16FileOutputStream6closedEv, ptr @_ZNK5arrow2io16FileOutputStream4TellEv], [15 x ptr] [ptr inttoptr (i64 -16 to ptr), ptr inttoptr (i64 -16 to ptr), ptr null, ptr null, ptr inttoptr (i64 -16 to ptr), ptr inttoptr (i64 -16 to ptr), ptr inttoptr (i64 -16 to ptr), ptr @_ZTIN5arrow2io16FileOutputStreamE, ptr @_ZTv0_n24_N5arrow2io16FileOutputStreamD1Ev, ptr @_ZTv0_n24_N5arrow2io16FileOutputStreamD0Ev, ptr @_ZTv0_n32_N5arrow2io16FileOutputStream5CloseEv, ptr @_ZN5arrow2io13FileInterface10CloseAsyncEv, ptr @_ZN5arrow2io13FileInterface5AbortEv, ptr @_ZTv0_n56_NK5arrow2io16FileOutputStream4TellEv, ptr @_ZTv0_n64_NK5arrow2io16FileOutputStream6closedEv] }, align 8
@_ZTTN5arrow2io16FileOutputStreamE = unnamed_addr constant [4 x ptr] [ptr getelementptr inbounds ({ [11 x ptr], [15 x ptr] }, ptr @_ZTVN5arrow2io16FileOutputStreamE, i32 0, inrange i32 0, i32 3), ptr getelementptr inbounds ({ [8 x ptr], [15 x ptr] }, ptr @_ZTCN5arrow2io16FileOutputStreamE0_NS0_12OutputStreamE, i32 0, inrange i32 0, i32 3), ptr getelementptr inbounds ({ [8 x ptr], [15 x ptr] }, ptr @_ZTCN5arrow2io16FileOutputStreamE0_NS0_12OutputStreamE, i32 0, inrange i32 1, i32 8), ptr getelementptr inbounds ({ [11 x ptr], [15 x ptr] }, ptr @_ZTVN5arrow2io16FileOutputStreamE, i32 0, inrange i32 1, i32 8)], align 8
@_ZTVN5arrow2io16MemoryMappedFileE = unnamed_addr constant { [29 x ptr], [5 x ptr], [9 x ptr], [5 x ptr], [15 x ptr] } { [29 x ptr] [ptr null, ptr inttoptr (i64 56 to ptr), ptr null, ptr null, ptr null, ptr null, ptr null, ptr @_ZTIN5arrow2io16MemoryMappedFileE, ptr @_ZN5arrow2io16MemoryMappedFileD1Ev, ptr @_ZN5arrow2io16MemoryMappedFileD0Ev, ptr @_ZN5arrow2io16MemoryMappedFile4ReadElPv, ptr @_ZN5arrow2io16MemoryMappedFile4ReadEl, ptr @_ZNK5arrow2io8Readable10io_contextEv, ptr @_ZN5arrow2io11InputStream4PeekEl, ptr @_ZNK5arrow2io16MemoryMappedFile18supports_zero_copyEv, ptr @_ZN5arrow2io11InputStream12ReadMetadataEv, ptr @_ZN5arrow2io11InputStream17ReadMetadataAsyncERKNS0_9IOContextE, ptr @_ZN5arrow2io16MemoryMappedFile7GetSizeEv, ptr @_ZN5arrow2io16MemoryMappedFile6ReadAtEllPv, ptr @_ZN5arrow2io16MemoryMappedFile6ReadAtEll, ptr @_ZN5arrow2io16MemoryMappedFile9ReadAsyncERKNS0_9IOContextEll, ptr @_ZN5arrow2io16RandomAccessFile13ReadManyAsyncERKNS0_9IOContextERKSt6vectorINS0_9ReadRangeESaIS6_EE, ptr @_ZN5arrow2io16MemoryMappedFile8WillNeedERKSt6vectorINS0_9ReadRangeESaIS3_EE, ptr @_ZN5arrow2io16MemoryMappedFile5CloseEv, ptr @_ZNK5arrow2io16MemoryMappedFile6closedEv, ptr @_ZNK5arrow2io16MemoryMappedFile4TellEv, ptr @_ZN5arrow2io16MemoryMappedFile4SeekEl, ptr @_ZN5arrow2io16MemoryMappedFile5WriteEPKvl, ptr @_ZN5arrow2io16MemoryMappedFile7WriteAtElPKvl], [5 x ptr] [ptr inttoptr (i64 -8 to ptr), ptr @_ZTIN5arrow2io16MemoryMappedFileE, ptr @_ZThn8_N5arrow2io16MemoryMappedFileD1Ev, ptr @_ZThn8_N5arrow2io16MemoryMappedFileD0Ev, ptr @_ZThn8_N5arrow2io16MemoryMappedFile4SeekEl], [9 x ptr] [ptr inttoptr (i64 32 to ptr), ptr inttoptr (i64 -24 to ptr), ptr @_ZTIN5arrow2io16MemoryMappedFileE, ptr @_ZThn24_N5arrow2io16MemoryMappedFileD1Ev, ptr @_ZThn24_N5arrow2io16MemoryMappedFileD0Ev, ptr @_ZThn24_N5arrow2io16MemoryMappedFile5WriteEPKvl, ptr @_ZN5arrow2io8Writable5WriteERKSt10shared_ptrINS_6BufferEE, ptr @_ZN5arrow2io8Writable5FlushEv, ptr @_ZThn24_N5arrow2io16MemoryMappedFile7WriteAtElPKvl], [5 x ptr] [ptr inttoptr (i64 -32 to ptr), ptr @_ZTIN5arrow2io16MemoryMappedFileE, ptr @_ZThn32_N5arrow2io16MemoryMappedFileD1Ev, ptr @_ZThn32_N5arrow2io16MemoryMappedFileD0Ev, ptr @_ZThn32_N5arrow2io16MemoryMappedFile4SeekEl], [15 x ptr] [ptr inttoptr (i64 -56 to ptr), ptr inttoptr (i64 -56 to ptr), ptr null, ptr null, ptr inttoptr (i64 -56 to ptr), ptr inttoptr (i64 -56 to ptr), ptr inttoptr (i64 -56 to ptr), ptr @_ZTIN5arrow2io16MemoryMappedFileE, ptr @_ZTv0_n24_N5arrow2io16MemoryMappedFileD1Ev, ptr @_ZTv0_n24_N5arrow2io16MemoryMappedFileD0Ev, ptr @_ZTv0_n32_N5arrow2io16MemoryMappedFile5CloseEv, ptr @_ZN5arrow2io13FileInterface10CloseAsyncEv, ptr @_ZN5arrow2io13FileInterface5AbortEv, ptr @_ZTv0_n56_NK5arrow2io16MemoryMappedFile4TellEv, ptr @_ZTv0_n64_NK5arrow2io16MemoryMappedFile6closedEv] }, align 8
@_ZTTN5arrow2io16MemoryMappedFileE = unnamed_addr constant [18 x ptr] [ptr getelementptr inbounds ({ [29 x ptr], [5 x ptr], [9 x ptr], [5 x ptr], [15 x ptr] }, ptr @_ZTVN5arrow2io16MemoryMappedFileE, i32 0, inrange i32 0, i32 8), ptr getelementptr inbounds ({ [23 x ptr], [9 x ptr], [15 x ptr] }, ptr @_ZTCN5arrow2io16MemoryMappedFileE0_NS0_22ReadWriteFileInterfaceE, i32 0, inrange i32 0, i32 8), ptr getelementptr inbounds ({ [23 x ptr], [15 x ptr] }, ptr @_ZTCN5arrow2io16MemoryMappedFileE0_NS0_16RandomAccessFileE, i32 0, inrange i32 0, i32 8), ptr getelementptr inbounds ({ [17 x ptr], [15 x ptr] }, ptr @_ZTCN5arrow2io16MemoryMappedFileE0_NS0_11InputStreamE, i32 0, inrange i32 0, i32 8), ptr getelementptr inbounds ({ [17 x ptr], [15 x ptr] }, ptr @_ZTCN5arrow2io16MemoryMappedFileE0_NS0_11InputStreamE, i32 0, inrange i32 1, i32 8), ptr getelementptr inbounds ({ [17 x ptr], [15 x ptr] }, ptr @_ZTCN5arrow2io16MemoryMappedFileE0_NS0_11InputStreamE, i32 0, inrange i32 0, i32 8), ptr getelementptr inbounds ({ [23 x ptr], [15 x ptr] }, ptr @_ZTCN5arrow2io16MemoryMappedFileE0_NS0_16RandomAccessFileE, i32 0, inrange i32 1, i32 8), ptr getelementptr inbounds ({ [23 x ptr], [15 x ptr] }, ptr @_ZTCN5arrow2io16MemoryMappedFileE0_NS0_16RandomAccessFileE, i32 0, inrange i32 0, i32 8), ptr getelementptr inbounds ({ [9 x ptr], [15 x ptr] }, ptr @_ZTCN5arrow2io16MemoryMappedFileE24_NS0_12WritableFileE, i32 0, inrange i32 0, i32 3), ptr getelementptr inbounds ({ [8 x ptr], [15 x ptr] }, ptr @_ZTCN5arrow2io16MemoryMappedFileE24_NS0_12OutputStreamE, i32 0, inrange i32 0, i32 3), ptr getelementptr inbounds ({ [8 x ptr], [15 x ptr] }, ptr @_ZTCN5arrow2io16MemoryMappedFileE24_NS0_12OutputStreamE, i32 0, inrange i32 1, i32 8), ptr getelementptr inbounds ({ [9 x ptr], [15 x ptr] }, ptr @_ZTCN5arrow2io16MemoryMappedFileE24_NS0_12WritableFileE, i32 0, inrange i32 1, i32 8), ptr getelementptr inbounds ({ [23 x ptr], [9 x ptr], [15 x ptr] }, ptr @_ZTCN5arrow2io16MemoryMappedFileE0_NS0_22ReadWriteFileInterfaceE, i32 0, inrange i32 2, i32 8), ptr getelementptr inbounds ({ [23 x ptr], [9 x ptr], [15 x ptr] }, ptr @_ZTCN5arrow2io16MemoryMappedFileE0_NS0_22ReadWriteFileInterfaceE, i32 0, inrange i32 0, i32 8), ptr getelementptr inbounds ({ [23 x ptr], [9 x ptr], [15 x ptr] }, ptr @_ZTCN5arrow2io16MemoryMappedFileE0_NS0_22ReadWriteFileInterfaceE, i32 0, inrange i32 1, i32 3), ptr getelementptr inbounds ({ [29 x ptr], [5 x ptr], [9 x ptr], [5 x ptr], [15 x ptr] }, ptr @_ZTVN5arrow2io16MemoryMappedFileE, i32 0, inrange i32 4, i32 8), ptr getelementptr inbounds ({ [29 x ptr], [5 x ptr], [9 x ptr], [5 x ptr], [15 x ptr] }, ptr @_ZTVN5arrow2io16MemoryMappedFileE, i32 0, inrange i32 0, i32 8), ptr getelementptr inbounds ({ [29 x ptr], [5 x ptr], [9 x ptr], [5 x ptr], [15 x ptr] }, ptr @_ZTVN5arrow2io16MemoryMappedFileE, i32 0, inrange i32 2, i32 3)], align 8
@.str = private unnamed_addr constant [16 x i8] c"Unable to write\00", align 1
@_ZSt10defer_lock = linkonce_odr constant %"struct.std::defer_lock_t" zeroinitializer, comdat, align 1
@_ZTCN5arrow2io12ReadableFileE0_NS0_8internal34RandomAccessFileConcurrencyWrapperINS0_12ReadableFileEEE = unnamed_addr constant { [29 x ptr], [15 x ptr] } { [29 x ptr] [ptr null, ptr inttoptr (i64 48 to ptr), ptr null, ptr null, ptr null, ptr null, ptr null, ptr @_ZTIN5arrow2io8internal34RandomAccessFileConcurrencyWrapperINS0_12ReadableFileEEE, ptr @_ZN5arrow2io8internal34RandomAccessFileConcurrencyWrapperINS0_12ReadableFileEED1Ev, ptr @_ZN5arrow2io8internal34RandomAccessFileConcurrencyWrapperINS0_12ReadableFileEED0Ev, ptr @_ZN5arrow2io8internal34RandomAccessFileConcurrencyWrapperINS0_12ReadableFileEE4ReadElPv, ptr @_ZN5arrow2io8internal34RandomAccessFileConcurrencyWrapperINS0_12ReadableFileEE4ReadEl, ptr @_ZNK5arrow2io8Readable10io_contextEv, ptr @_ZN5arrow2io8internal34RandomAccessFileConcurrencyWrapperINS0_12ReadableFileEE4PeekEl, ptr @_ZNK5arrow2io11InputStream18supports_zero_copyEv, ptr @_ZN5arrow2io11InputStream12ReadMetadataEv, ptr @_ZN5arrow2io11InputStream17ReadMetadataAsyncERKNS0_9IOContextE, ptr @_ZN5arrow2io8internal34RandomAccessFileConcurrencyWrapperINS0_12ReadableFileEE7GetSizeEv, ptr @_ZN5arrow2io8internal34RandomAccessFileConcurrencyWrapperINS0_12ReadableFileEE6ReadAtEllPv, ptr @_ZN5arrow2io8internal34RandomAccessFileConcurrencyWrapperINS0_12ReadableFileEE6ReadAtEll, ptr @_ZN5arrow2io16RandomAccessFile9ReadAsyncERKNS0_9IOContextEll, ptr @_ZN5arrow2io16RandomAccessFile13ReadManyAsyncERKNS0_9IOContextERKSt6vectorINS0_9ReadRangeESaIS6_EE, ptr @_ZN5arrow2io16RandomAccessFile8WillNeedERKSt6vectorINS0_9ReadRangeESaIS3_EE, ptr @_ZN5arrow2io8internal34RandomAccessFileConcurrencyWrapperINS0_12ReadableFileEE5CloseEv, ptr @_ZN5arrow2io8internal34RandomAccessFileConcurrencyWrapperINS0_12ReadableFileEE5AbortEv, ptr @_ZNK5arrow2io8internal34RandomAccessFileConcurrencyWrapperINS0_12ReadableFileEE4TellEv, ptr @_ZN5arrow2io8internal34RandomAccessFileConcurrencyWrapperINS0_12ReadableFileEE4SeekEl, ptr @_ZN5arrow2io8internal34RandomAccessFileConcurrencyWrapperINS0_12ReadableFileEE7DoAbortEv, ptr @_ZN5arrow2io8internal34RandomAccessFileConcurrencyWrapperINS0_12ReadableFileEE6DoPeekEl], [15 x ptr] [ptr null, ptr inttoptr (i64 -48 to ptr), ptr inttoptr (i64 -48 to ptr), ptr null, ptr inttoptr (i64 -48 to ptr), ptr inttoptr (i64 -48 to ptr), ptr inttoptr (i64 -48 to ptr), ptr @_ZTIN5arrow2io8internal34RandomAccessFileConcurrencyWrapperINS0_12ReadableFileEEE, ptr @_ZTv0_n24_N5arrow2io8internal34RandomAccessFileConcurrencyWrapperINS0_12ReadableFileEED1Ev, ptr @_ZTv0_n24_N5arrow2io8internal34RandomAccessFileConcurrencyWrapperINS0_12ReadableFileEED0Ev, ptr @_ZTv0_n32_N5arrow2io8internal34RandomAccessFileConcurrencyWrapperINS0_12ReadableFileEE5CloseEv, ptr @_ZN5arrow2io13FileInterface10CloseAsyncEv, ptr @_ZTv0_n48_N5arrow2io8internal34RandomAccessFileConcurrencyWrapperINS0_12ReadableFileEE5AbortEv, ptr @_ZTv0_n56_NK5arrow2io8internal34RandomAccessFileConcurrencyWrapperINS0_12ReadableFileEE4TellEv, ptr @__cxa_pure_virtual] }, align 8
@_ZTVN10__cxxabiv120__si_class_type_infoE = external global [0 x ptr]
@_ZTSN5arrow2io8internal34RandomAccessFileConcurrencyWrapperINS0_12ReadableFileEEE = linkonce_odr constant [78 x i8] c"N5arrow2io8internal34RandomAccessFileConcurrencyWrapperINS0_12ReadableFileEEE\00", comdat, align 1
@_ZTIN5arrow2io16RandomAccessFileE = external constant ptr
@_ZTIN5arrow2io8internal34RandomAccessFileConcurrencyWrapperINS0_12ReadableFileEEE = linkonce_odr constant { ptr, ptr, ptr } { ptr getelementptr inbounds (ptr, ptr @_ZTVN10__cxxabiv120__si_class_type_infoE, i64 2), ptr @_ZTSN5arrow2io8internal34RandomAccessFileConcurrencyWrapperINS0_12ReadableFileEEE, ptr @_ZTIN5arrow2io16RandomAccessFileE }, comdat, align 8
@_ZTCN5arrow2io12ReadableFileE0_NS0_16RandomAccessFileE = unnamed_addr constant { [23 x ptr], [15 x ptr] } { [23 x ptr] [ptr null, ptr inttoptr (i64 48 to ptr), ptr null, ptr null, ptr null, ptr null, ptr null, ptr @_ZTIN5arrow2io16RandomAccessFileE, ptr @_ZN5arrow2io16RandomAccessFileD1Ev, ptr @_ZN5arrow2io16RandomAccessFileD0Ev, ptr @__cxa_pure_virtual, ptr @__cxa_pure_virtual, ptr @_ZNK5arrow2io8Readable10io_contextEv, ptr @_ZN5arrow2io11InputStream4PeekEl, ptr @_ZNK5arrow2io11InputStream18supports_zero_copyEv, ptr @_ZN5arrow2io11InputStream12ReadMetadataEv, ptr @_ZN5arrow2io11InputStream17ReadMetadataAsyncERKNS0_9IOContextE, ptr @__cxa_pure_virtual, ptr @_ZN5arrow2io16RandomAccessFile6ReadAtEllPv, ptr @_ZN5arrow2io16RandomAccessFile6ReadAtEll, ptr @_ZN5arrow2io16RandomAccessFile9ReadAsyncERKNS0_9IOContextEll, ptr @_ZN5arrow2io16RandomAccessFile13ReadManyAsyncERKNS0_9IOContextERKSt6vectorINS0_9ReadRangeESaIS6_EE, ptr @_ZN5arrow2io16RandomAccessFile8WillNeedERKSt6vectorINS0_9ReadRangeESaIS3_EE], [15 x ptr] [ptr null, ptr null, ptr null, ptr null, ptr null, ptr inttoptr (i64 -48 to ptr), ptr inttoptr (i64 -48 to ptr), ptr @_ZTIN5arrow2io16RandomAccessFileE, ptr @_ZTv0_n24_N5arrow2io16RandomAccessFileD1Ev, ptr @_ZTv0_n24_N5arrow2io16RandomAccessFileD0Ev, ptr @__cxa_pure_virtual, ptr @_ZN5arrow2io13FileInterface10CloseAsyncEv, ptr @_ZN5arrow2io13FileInterface5AbortEv, ptr @__cxa_pure_virtual, ptr @__cxa_pure_virtual] }, align 8
@_ZTCN5arrow2io12ReadableFileE0_NS0_11InputStreamE = unnamed_addr constant { [17 x ptr], [15 x ptr] } { [17 x ptr] [ptr null, ptr inttoptr (i64 48 to ptr), ptr null, ptr null, ptr null, ptr null, ptr null, ptr @_ZTIN5arrow2io11InputStreamE, ptr @_ZN5arrow2io11InputStreamD1Ev, ptr @_ZN5arrow2io11InputStreamD0Ev, ptr @__cxa_pure_virtual, ptr @__cxa_pure_virtual, ptr @_ZNK5arrow2io8Readable10io_contextEv, ptr @_ZN5arrow2io11InputStream4PeekEl, ptr @_ZNK5arrow2io11InputStream18supports_zero_copyEv, ptr @_ZN5arrow2io11InputStream12ReadMetadataEv, ptr @_ZN5arrow2io11InputStream17ReadMetadataAsyncERKNS0_9IOContextE], [15 x ptr] [ptr null, ptr null, ptr null, ptr null, ptr null, ptr inttoptr (i64 -48 to ptr), ptr inttoptr (i64 -48 to ptr), ptr @_ZTIN5arrow2io11InputStreamE, ptr @_ZTv0_n24_N5arrow2io11InputStreamD1Ev, ptr @_ZTv0_n24_N5arrow2io11InputStreamD0Ev, ptr @__cxa_pure_virtual, ptr @_ZN5arrow2io13FileInterface10CloseAsyncEv, ptr @_ZN5arrow2io13FileInterface5AbortEv, ptr @__cxa_pure_virtual, ptr @__cxa_pure_virtual] }, align 8
@_ZTIN5arrow2io11InputStreamE = external constant ptr
@_ZTSN5arrow2io12ReadableFileE = constant [26 x i8] c"N5arrow2io12ReadableFileE\00", align 1
@_ZTIN5arrow2io12ReadableFileE = constant { ptr, ptr, ptr } { ptr getelementptr inbounds (ptr, ptr @_ZTVN10__cxxabiv120__si_class_type_infoE, i64 2), ptr @_ZTSN5arrow2io12ReadableFileE, ptr @_ZTIN5arrow2io8internal34RandomAccessFileConcurrencyWrapperINS0_12ReadableFileEEE }, align 8
@_ZTCN5arrow2io16FileOutputStreamE0_NS0_12OutputStreamE = unnamed_addr constant { [8 x ptr], [15 x ptr] } { [8 x ptr] [ptr inttoptr (i64 16 to ptr), ptr null, ptr @_ZTIN5arrow2io12OutputStreamE, ptr @_ZN5arrow2io12OutputStreamD1Ev, ptr @_ZN5arrow2io12OutputStreamD0Ev, ptr @__cxa_pure_virtual, ptr @_ZN5arrow2io8Writable5WriteERKSt10shared_ptrINS_6BufferEE, ptr @_ZN5arrow2io8Writable5FlushEv], [15 x ptr] [ptr null, ptr null, ptr null, ptr null, ptr null, ptr inttoptr (i64 -16 to ptr), ptr inttoptr (i64 -16 to ptr), ptr @_ZTIN5arrow2io12OutputStreamE, ptr @_ZTv0_n24_N5arrow2io12OutputStreamD1Ev, ptr @_ZTv0_n24_N5arrow2io12OutputStreamD0Ev, ptr @__cxa_pure_virtual, ptr @_ZN5arrow2io13FileInterface10CloseAsyncEv, ptr @_ZN5arrow2io13FileInterface5AbortEv, ptr @__cxa_pure_virtual, ptr @__cxa_pure_virtual] }, align 8
@_ZTVN10__cxxabiv121__vmi_class_type_infoE = external global [0 x ptr]
@_ZTSN5arrow2io12OutputStreamE = linkonce_odr constant [26 x i8] c"N5arrow2io12OutputStreamE\00", comdat, align 1
@_ZTIN5arrow2io13FileInterfaceE = external constant ptr
@_ZTIN5arrow2io8WritableE = external constant ptr
@_ZTIN5arrow2io12OutputStreamE = linkonce_odr constant { ptr, ptr, i32, i32, ptr, i64, ptr, i64 } { ptr getelementptr inbounds (ptr, ptr @_ZTVN10__cxxabiv121__vmi_class_type_infoE, i64 2), ptr @_ZTSN5arrow2io12OutputStreamE, i32 0, i32 2, ptr @_ZTIN5arrow2io13FileInterfaceE, i64 -6141, ptr @_ZTIN5arrow2io8WritableE, i64 2 }, comdat, align 8
@_ZTSN5arrow2io16FileOutputStreamE = constant [30 x i8] c"N5arrow2io16FileOutputStreamE\00", align 1
@_ZTIN5arrow2io16FileOutputStreamE = constant { ptr, ptr, ptr } { ptr getelementptr inbounds (ptr, ptr @_ZTVN10__cxxabiv120__si_class_type_infoE, i64 2), ptr @_ZTSN5arrow2io16FileOutputStreamE, ptr @_ZTIN5arrow2io12OutputStreamE }, align 8
@_ZTCN5arrow2io16MemoryMappedFileE0_NS0_22ReadWriteFileInterfaceE = unnamed_addr constant { [23 x ptr], [9 x ptr], [15 x ptr] } { [23 x ptr] [ptr null, ptr inttoptr (i64 56 to ptr), ptr null, ptr null, ptr null, ptr null, ptr null, ptr @_ZTIN5arrow2io22ReadWriteFileInterfaceE, ptr @_ZN5arrow2io22ReadWriteFileInterfaceD1Ev, ptr @_ZN5arrow2io22ReadWriteFileInterfaceD0Ev, ptr @__cxa_pure_virtual, ptr @__cxa_pure_virtual, ptr @_ZNK5arrow2io8Readable10io_contextEv, ptr @_ZN5arrow2io11InputStream4PeekEl, ptr @_ZNK5arrow2io11InputStream18supports_zero_copyEv, ptr @_ZN5arrow2io11InputStream12ReadMetadataEv, ptr @_ZN5arrow2io11InputStream17ReadMetadataAsyncERKNS0_9IOContextE, ptr @__cxa_pure_virtual, ptr @_ZN5arrow2io16RandomAccessFile6ReadAtEllPv, ptr @_ZN5arrow2io16RandomAccessFile6ReadAtEll, ptr @_ZN5arrow2io16RandomAccessFile9ReadAsyncERKNS0_9IOContextEll, ptr @_ZN5arrow2io16RandomAccessFile13ReadManyAsyncERKNS0_9IOContextERKSt6vectorINS0_9ReadRangeESaIS6_EE, ptr @_ZN5arrow2io16RandomAccessFile8WillNeedERKSt6vectorINS0_9ReadRangeESaIS3_EE], [9 x ptr] [ptr inttoptr (i64 32 to ptr), ptr inttoptr (i64 -24 to ptr), ptr @_ZTIN5arrow2io22ReadWriteFileInterfaceE, ptr @_ZThn24_N5arrow2io22ReadWriteFileInterfaceD1Ev, ptr @_ZThn24_N5arrow2io22ReadWriteFileInterfaceD0Ev, ptr @__cxa_pure_virtual, ptr @_ZN5arrow2io8Writable5WriteERKSt10shared_ptrINS_6BufferEE, ptr @_ZN5arrow2io8Writable5FlushEv, ptr @__cxa_pure_virtual], [15 x ptr] [ptr null, ptr null, ptr null, ptr null, ptr null, ptr inttoptr (i64 -56 to ptr), ptr inttoptr (i64 -56 to ptr), ptr @_ZTIN5arrow2io22ReadWriteFileInterfaceE, ptr @_ZTv0_n24_N5arrow2io22ReadWriteFileInterfaceD1Ev, ptr @_ZTv0_n24_N5arrow2io22ReadWriteFileInterfaceD0Ev, ptr @__cxa_pure_virtual, ptr @_ZN5arrow2io13FileInterface10CloseAsyncEv, ptr @_ZN5arrow2io13FileInterface5AbortEv, ptr @__cxa_pure_virtual, ptr @__cxa_pure_virtual] }, align 8
@_ZTSN5arrow2io22ReadWriteFileInterfaceE = linkonce_odr constant [36 x i8] c"N5arrow2io22ReadWriteFileInterfaceE\00", comdat, align 1
@_ZTSN5arrow2io12WritableFileE = linkonce_odr constant [26 x i8] c"N5arrow2io12WritableFileE\00", comdat, align 1
@_ZTVN10__cxxabiv117__class_type_infoE = external global [0 x ptr]
@_ZTSN5arrow2io8SeekableE = linkonce_odr constant [21 x i8] c"N5arrow2io8SeekableE\00", comdat, align 1
@_ZTIN5arrow2io8SeekableE = linkonce_odr constant { ptr, ptr } { ptr getelementptr inbounds (ptr, ptr @_ZTVN10__cxxabiv117__class_type_infoE, i64 2), ptr @_ZTSN5arrow2io8SeekableE }, comdat, align 8
@_ZTIN5arrow2io12WritableFileE = linkonce_odr constant { ptr, ptr, i32, i32, ptr, i64, ptr, i64 } { ptr getelementptr inbounds (ptr, ptr @_ZTVN10__cxxabiv121__vmi_class_type_infoE, i64 2), ptr @_ZTSN5arrow2io12WritableFileE, i32 0, i32 2, ptr @_ZTIN5arrow2io12OutputStreamE, i64 2, ptr @_ZTIN5arrow2io8SeekableE, i64 2050 }, comdat, align 8
@_ZTIN5arrow2io22ReadWriteFileInterfaceE = linkonce_odr constant { ptr, ptr, i32, i32, ptr, i64, ptr, i64 } { ptr getelementptr inbounds (ptr, ptr @_ZTVN10__cxxabiv121__vmi_class_type_infoE, i64 2), ptr @_ZTSN5arrow2io22ReadWriteFileInterfaceE, i32 3, i32 2, ptr @_ZTIN5arrow2io16RandomAccessFileE, i64 2, ptr @_ZTIN5arrow2io12WritableFileE, i64 6146 }, comdat, align 8
@_ZTCN5arrow2io16MemoryMappedFileE0_NS0_16RandomAccessFileE = unnamed_addr constant { [23 x ptr], [15 x ptr] } { [23 x ptr] [ptr null, ptr inttoptr (i64 56 to ptr), ptr null, ptr null, ptr null, ptr null, ptr null, ptr @_ZTIN5arrow2io16RandomAccessFileE, ptr @_ZN5arrow2io16RandomAccessFileD1Ev, ptr @_ZN5arrow2io16RandomAccessFileD0Ev, ptr @__cxa_pure_virtual, ptr @__cxa_pure_virtual, ptr @_ZNK5arrow2io8Readable10io_contextEv, ptr @_ZN5arrow2io11InputStream4PeekEl, ptr @_ZNK5arrow2io11InputStream18supports_zero_copyEv, ptr @_ZN5arrow2io11InputStream12ReadMetadataEv, ptr @_ZN5arrow2io11InputStream17ReadMetadataAsyncERKNS0_9IOContextE, ptr @__cxa_pure_virtual, ptr @_ZN5arrow2io16RandomAccessFile6ReadAtEllPv, ptr @_ZN5arrow2io16RandomAccessFile6ReadAtEll, ptr @_ZN5arrow2io16RandomAccessFile9ReadAsyncERKNS0_9IOContextEll, ptr @_ZN5arrow2io16RandomAccessFile13ReadManyAsyncERKNS0_9IOContextERKSt6vectorINS0_9ReadRangeESaIS6_EE, ptr @_ZN5arrow2io16RandomAccessFile8WillNeedERKSt6vectorINS0_9ReadRangeESaIS3_EE], [15 x ptr] [ptr null, ptr null, ptr null, ptr null, ptr null, ptr inttoptr (i64 -56 to ptr), ptr inttoptr (i64 -56 to ptr), ptr @_ZTIN5arrow2io16RandomAccessFileE, ptr @_ZTv0_n24_N5arrow2io16RandomAccessFileD1Ev, ptr @_ZTv0_n24_N5arrow2io16RandomAccessFileD0Ev, ptr @__cxa_pure_virtual, ptr @_ZN5arrow2io13FileInterface10CloseAsyncEv, ptr @_ZN5arrow2io13FileInterface5AbortEv, ptr @__cxa_pure_virtual, ptr @__cxa_pure_virtual] }, align 8
@_ZTCN5arrow2io16MemoryMappedFileE0_NS0_11InputStreamE = unnamed_addr constant { [17 x ptr], [15 x ptr] } { [17 x ptr] [ptr null, ptr inttoptr (i64 56 to ptr), ptr null, ptr null, ptr null, ptr null, ptr null, ptr @_ZTIN5arrow2io11InputStreamE, ptr @_ZN5arrow2io11InputStreamD1Ev, ptr @_ZN5arrow2io11InputStreamD0Ev, ptr @__cxa_pure_virtual, ptr @__cxa_pure_virtual, ptr @_ZNK5arrow2io8Readable10io_contextEv, ptr @_ZN5arrow2io11InputStream4PeekEl, ptr @_ZNK5arrow2io11InputStream18supports_zero_copyEv, ptr @_ZN5arrow2io11InputStream12ReadMetadataEv, ptr @_ZN5arrow2io11InputStream17ReadMetadataAsyncERKNS0_9IOContextE], [15 x ptr] [ptr null, ptr null, ptr null, ptr null, ptr null, ptr inttoptr (i64 -56 to ptr), ptr inttoptr (i64 -56 to ptr), ptr @_ZTIN5arrow2io11InputStreamE, ptr @_ZTv0_n24_N5arrow2io11InputStreamD1Ev, ptr @_ZTv0_n24_N5arrow2io11InputStreamD0Ev, ptr @__cxa_pure_virtual, ptr @_ZN5arrow2io13FileInterface10CloseAsyncEv, ptr @_ZN5arrow2io13FileInterface5AbortEv, ptr @__cxa_pure_virtual, ptr @__cxa_pure_virtual] }, align 8
@_ZTCN5arrow2io16MemoryMappedFileE24_NS0_12WritableFileE = unnamed_addr constant { [9 x ptr], [15 x ptr] } { [9 x ptr] [ptr inttoptr (i64 32 to ptr), ptr null, ptr @_ZTIN5arrow2io12WritableFileE, ptr @_ZN5arrow2io12WritableFileD1Ev, ptr @_ZN5arrow2io12WritableFileD0Ev, ptr @__cxa_pure_virtual, ptr @_ZN5arrow2io8Writable5WriteERKSt10shared_ptrINS_6BufferEE, ptr @_ZN5arrow2io8Writable5FlushEv, ptr @__cxa_pure_virtual], [15 x ptr] [ptr null, ptr null, ptr null, ptr null, ptr null, ptr inttoptr (i64 -32 to ptr), ptr inttoptr (i64 -32 to ptr), ptr @_ZTIN5arrow2io12WritableFileE, ptr @_ZTv0_n24_N5arrow2io12WritableFileD1Ev, ptr @_ZTv0_n24_N5arrow2io12WritableFileD0Ev, ptr @__cxa_pure_virtual, ptr @_ZN5arrow2io13FileInterface10CloseAsyncEv, ptr @_ZN5arrow2io13FileInterface5AbortEv, ptr @__cxa_pure_virtual, ptr @__cxa_pure_virtual] }, align 8
@_ZTCN5arrow2io16MemoryMappedFileE24_NS0_12OutputStreamE = unnamed_addr constant { [8 x ptr], [15 x ptr] } { [8 x ptr] [ptr inttoptr (i64 32 to ptr), ptr null, ptr @_ZTIN5arrow2io12OutputStreamE, ptr @_ZN5arrow2io12OutputStreamD1Ev, ptr @_ZN5arrow2io12OutputStreamD0Ev, ptr @__cxa_pure_virtual, ptr @_ZN5arrow2io8Writable5WriteERKSt10shared_ptrINS_6BufferEE, ptr @_ZN5arrow2io8Writable5FlushEv], [15 x ptr] [ptr null, ptr null, ptr null, ptr null, ptr null, ptr inttoptr (i64 -32 to ptr), ptr inttoptr (i64 -32 to ptr), ptr @_ZTIN5arrow2io12OutputStreamE, ptr @_ZTv0_n24_N5arrow2io12OutputStreamD1Ev, ptr @_ZTv0_n24_N5arrow2io12OutputStreamD0Ev, ptr @__cxa_pure_virtual, ptr @_ZN5arrow2io13FileInterface10CloseAsyncEv, ptr @_ZN5arrow2io13FileInterface5AbortEv, ptr @__cxa_pure_virtual, ptr @__cxa_pure_virtual] }, align 8
@_ZTSN5arrow2io16MemoryMappedFileE = constant [30 x i8] c"N5arrow2io16MemoryMappedFileE\00", align 1
@_ZTIN5arrow2io16MemoryMappedFileE = constant { ptr, ptr, ptr } { ptr getelementptr inbounds (ptr, ptr @_ZTVN10__cxxabiv120__si_class_type_infoE, i64 2), ptr @_ZTSN5arrow2io16MemoryMappedFileE, ptr @_ZTIN5arrow2io22ReadWriteFileInterfaceE }, align 8
@_ZTVN5arrow2io8internal34RandomAccessFileConcurrencyWrapperINS0_12ReadableFileEEE = linkonce_odr unnamed_addr constant { [29 x ptr], [5 x ptr], [15 x ptr] } { [29 x ptr] [ptr null, ptr inttoptr (i64 40 to ptr), ptr null, ptr null, ptr null, ptr null, ptr null, ptr @_ZTIN5arrow2io8internal34RandomAccessFileConcurrencyWrapperINS0_12ReadableFileEEE, ptr @_ZN5arrow2io8internal34RandomAccessFileConcurrencyWrapperINS0_12ReadableFileEED1Ev, ptr @_ZN5arrow2io8internal34RandomAccessFileConcurrencyWrapperINS0_12ReadableFileEED0Ev, ptr @_ZN5arrow2io8internal34RandomAccessFileConcurrencyWrapperINS0_12ReadableFileEE4ReadElPv, ptr @_ZN5arrow2io8internal34RandomAccessFileConcurrencyWrapperINS0_12ReadableFileEE4ReadEl, ptr @_ZNK5arrow2io8Readable10io_contextEv, ptr @_ZN5arrow2io8internal34RandomAccessFileConcurrencyWrapperINS0_12ReadableFileEE4PeekEl, ptr @_ZNK5arrow2io11InputStream18supports_zero_copyEv, ptr @_ZN5arrow2io11InputStream12ReadMetadataEv, ptr @_ZN5arrow2io11InputStream17ReadMetadataAsyncERKNS0_9IOContextE, ptr @_ZN5arrow2io8internal34RandomAccessFileConcurrencyWrapperINS0_12ReadableFileEE7GetSizeEv, ptr @_ZN5arrow2io8internal34RandomAccessFileConcurrencyWrapperINS0_12ReadableFileEE6ReadAtEllPv, ptr @_ZN5arrow2io8internal34RandomAccessFileConcurrencyWrapperINS0_12ReadableFileEE6ReadAtEll, ptr @_ZN5arrow2io16RandomAccessFile9ReadAsyncERKNS0_9IOContextEll, ptr @_ZN5arrow2io16RandomAccessFile13ReadManyAsyncERKNS0_9IOContextERKSt6vectorINS0_9ReadRangeESaIS6_EE, ptr @_ZN5arrow2io16RandomAccessFile8WillNeedERKSt6vectorINS0_9ReadRangeESaIS3_EE, ptr @_ZN5arrow2io8internal34RandomAccessFileConcurrencyWrapperINS0_12ReadableFileEE5CloseEv, ptr @_ZN5arrow2io8internal34RandomAccessFileConcurrencyWrapperINS0_12ReadableFileEE5AbortEv, ptr @_ZNK5arrow2io8internal34RandomAccessFileConcurrencyWrapperINS0_12ReadableFileEE4TellEv, ptr @_ZN5arrow2io8internal34RandomAccessFileConcurrencyWrapperINS0_12ReadableFileEE4SeekEl, ptr @_ZN5arrow2io8internal34RandomAccessFileConcurrencyWrapperINS0_12ReadableFileEE7DoAbortEv, ptr @_ZN5arrow2io8internal34RandomAccessFileConcurrencyWrapperINS0_12ReadableFileEE6DoPeekEl], [5 x ptr] [ptr inttoptr (i64 -8 to ptr), ptr @_ZTIN5arrow2io8internal34RandomAccessFileConcurrencyWrapperINS0_12ReadableFileEEE, ptr @_ZThn8_N5arrow2io8internal34RandomAccessFileConcurrencyWrapperINS0_12ReadableFileEED1Ev, ptr @_ZThn8_N5arrow2io8internal34RandomAccessFileConcurrencyWrapperINS0_12ReadableFileEED0Ev, ptr @_ZThn8_N5arrow2io8internal34RandomAccessFileConcurrencyWrapperINS0_12ReadableFileEE4SeekEl], [15 x ptr] [ptr null, ptr inttoptr (i64 -40 to ptr), ptr inttoptr (i64 -40 to ptr), ptr null, ptr inttoptr (i64 -40 to ptr), ptr inttoptr (i64 -40 to ptr), ptr inttoptr (i64 -40 to ptr), ptr @_ZTIN5arrow2io8internal34RandomAccessFileConcurrencyWrapperINS0_12ReadableFileEEE, ptr @_ZTv0_n24_N5arrow2io8internal34RandomAccessFileConcurrencyWrapperINS0_12ReadableFileEED1Ev, ptr @_ZTv0_n24_N5arrow2io8internal34RandomAccessFileConcurrencyWrapperINS0_12ReadableFileEED0Ev, ptr @_ZTv0_n32_N5arrow2io8internal34RandomAccessFileConcurrencyWrapperINS0_12ReadableFileEE5CloseEv, ptr @_ZN5arrow2io13FileInterface10CloseAsyncEv, ptr @_ZTv0_n48_N5arrow2io8internal34RandomAccessFileConcurrencyWrapperINS0_12ReadableFileEE5AbortEv, ptr @_ZTv0_n56_NK5arrow2io8internal34RandomAccessFileConcurrencyWrapperINS0_12ReadableFileEE4TellEv, ptr @__cxa_pure_virtual] }, comdat, align 8
@_ZTTN5arrow2io8internal34RandomAccessFileConcurrencyWrapperINS0_12ReadableFileEEE = linkonce_odr unnamed_addr constant [9 x ptr] [ptr getelementptr inbounds ({ [29 x ptr], [5 x ptr], [15 x ptr] }, ptr @_ZTVN5arrow2io8internal34RandomAccessFileConcurrencyWrapperINS0_12ReadableFileEEE, i32 0, inrange i32 0, i32 8), ptr getelementptr inbounds ({ [23 x ptr], [15 x ptr] }, ptr @_ZTCN5arrow2io8internal34RandomAccessFileConcurrencyWrapperINS0_12ReadableFileEEE0_NS0_16RandomAccessFileE, i32 0, inrange i32 0, i32 8), ptr getelementptr inbounds ({ [17 x ptr], [15 x ptr] }, ptr @_ZTCN5arrow2io8internal34RandomAccessFileConcurrencyWrapperINS0_12ReadableFileEEE0_NS0_11InputStreamE, i32 0, inrange i32 0, i32 8), ptr getelementptr inbounds ({ [17 x ptr], [15 x ptr] }, ptr @_ZTCN5arrow2io8internal34RandomAccessFileConcurrencyWrapperINS0_12ReadableFileEEE0_NS0_11InputStreamE, i32 0, inrange i32 1, i32 8), ptr getelementptr inbounds ({ [17 x ptr], [15 x ptr] }, ptr @_ZTCN5arrow2io8internal34RandomAccessFileConcurrencyWrapperINS0_12ReadableFileEEE0_NS0_11InputStreamE, i32 0, inrange i32 0, i32 8), ptr getelementptr inbounds ({ [23 x ptr], [15 x ptr] }, ptr @_ZTCN5arrow2io8internal34RandomAccessFileConcurrencyWrapperINS0_12ReadableFileEEE0_NS0_16RandomAccessFileE, i32 0, inrange i32 1, i32 8), ptr getelementptr inbounds ({ [23 x ptr], [15 x ptr] }, ptr @_ZTCN5arrow2io8internal34RandomAccessFileConcurrencyWrapperINS0_12ReadableFileEEE0_NS0_16RandomAccessFileE, i32 0, inrange i32 0, i32 8), ptr getelementptr inbounds ({ [29 x ptr], [5 x ptr], [15 x ptr] }, ptr @_ZTVN5arrow2io8internal34RandomAccessFileConcurrencyWrapperINS0_12ReadableFileEEE, i32 0, inrange i32 2, i32 8), ptr getelementptr inbounds ({ [29 x ptr], [5 x ptr], [15 x ptr] }, ptr @_ZTVN5arrow2io8internal34RandomAccessFileConcurrencyWrapperINS0_12ReadableFileEEE, i32 0, inrange i32 0, i32 8)], comdat, align 8
@_ZTCN5arrow2io8internal34RandomAccessFileConcurrencyWrapperINS0_12ReadableFileEEE0_NS0_16RandomAccessFileE = linkonce_odr unnamed_addr constant { [23 x ptr], [15 x ptr] } { [23 x ptr] [ptr null, ptr inttoptr (i64 40 to ptr), ptr null, ptr null, ptr null, ptr null, ptr null, ptr @_ZTIN5arrow2io16RandomAccessFileE, ptr @_ZN5arrow2io16RandomAccessFileD1Ev, ptr @_ZN5arrow2io16RandomAccessFileD0Ev, ptr @__cxa_pure_virtual, ptr @__cxa_pure_virtual, ptr @_ZNK5arrow2io8Readable10io_contextEv, ptr @_ZN5arrow2io11InputStream4PeekEl, ptr @_ZNK5arrow2io11InputStream18supports_zero_copyEv, ptr @_ZN5arrow2io11InputStream12ReadMetadataEv, ptr @_ZN5arrow2io11InputStream17ReadMetadataAsyncERKNS0_9IOContextE, ptr @__cxa_pure_virtual, ptr @_ZN5arrow2io16RandomAccessFile6ReadAtEllPv, ptr @_ZN5arrow2io16RandomAccessFile6ReadAtEll, ptr @_ZN5arrow2io16RandomAccessFile9ReadAsyncERKNS0_9IOContextEll, ptr @_ZN5arrow2io16RandomAccessFile13ReadManyAsyncERKNS0_9IOContextERKSt6vectorINS0_9ReadRangeESaIS6_EE, ptr @_ZN5arrow2io16RandomAccessFile8WillNeedERKSt6vectorINS0_9ReadRangeESaIS3_EE], [15 x ptr] [ptr null, ptr null, ptr null, ptr null, ptr null, ptr inttoptr (i64 -40 to ptr), ptr inttoptr (i64 -40 to ptr), ptr @_ZTIN5arrow2io16RandomAccessFileE, ptr @_ZTv0_n24_N5arrow2io16RandomAccessFileD1Ev, ptr @_ZTv0_n24_N5arrow2io16RandomAccessFileD0Ev, ptr @__cxa_pure_virtual, ptr @_ZN5arrow2io13FileInterface10CloseAsyncEv, ptr @_ZN5arrow2io13FileInterface5AbortEv, ptr @__cxa_pure_virtual, ptr @__cxa_pure_virtual] }, comdat, align 8
@_ZTCN5arrow2io8internal34RandomAccessFileConcurrencyWrapperINS0_12ReadableFileEEE0_NS0_11InputStreamE = linkonce_odr unnamed_addr constant { [17 x ptr], [15 x ptr] } { [17 x ptr] [ptr null, ptr inttoptr (i64 40 to ptr), ptr null, ptr null, ptr null, ptr null, ptr null, ptr @_ZTIN5arrow2io11InputStreamE, ptr @_ZN5arrow2io11InputStreamD1Ev, ptr @_ZN5arrow2io11InputStreamD0Ev, ptr @__cxa_pure_virtual, ptr @__cxa_pure_virtual, ptr @_ZNK5arrow2io8Readable10io_contextEv, ptr @_ZN5arrow2io11InputStream4PeekEl, ptr @_ZNK5arrow2io11InputStream18supports_zero_copyEv, ptr @_ZN5arrow2io11InputStream12ReadMetadataEv, ptr @_ZN5arrow2io11InputStream17ReadMetadataAsyncERKNS0_9IOContextE], [15 x ptr] [ptr null, ptr null, ptr null, ptr null, ptr null, ptr inttoptr (i64 -40 to ptr), ptr inttoptr (i64 -40 to ptr), ptr @_ZTIN5arrow2io11InputStreamE, ptr @_ZTv0_n24_N5arrow2io11InputStreamD1Ev, ptr @_ZTv0_n24_N5arrow2io11InputStreamD0Ev, ptr @__cxa_pure_virtual, ptr @_ZN5arrow2io13FileInterface10CloseAsyncEv, ptr @_ZN5arrow2io13FileInterface5AbortEv, ptr @__cxa_pure_virtual, ptr @__cxa_pure_virtual] }, comdat, align 8
@__libc_single_threaded = external global i8, align 1
@_ZTVN5arrow2io13FileInterfaceE = external unnamed_addr constant { [9 x ptr] }, align 8
@_ZTVN5arrow2io8ReadableE = external unnamed_addr constant { [7 x ptr] }, align 8
@.str.1 = private unnamed_addr constant [5 x i8] c"<fd \00", align 1
@.str.2 = private unnamed_addr constant [2 x i8] c">\00", align 1
@.str.3 = private unnamed_addr constant [21 x i8] c"posix_fadvise failed\00", align 1
@.str.4 = private unnamed_addr constant [33 x i8] c"Invalid operation on closed file\00", align 1
@.str.5 = private unnamed_addr constant [75 x i8] c"Need seeking after ReadAt() before calling implicitly-positioned operation\00", align 1
@_ZTVSt19_Sp_counted_deleterIPN5arrow15ResizableBufferESt14default_deleteIS1_ESaIvELN9__gnu_cxx12_Lock_policyE2EE = linkonce_odr unnamed_addr constant { [7 x ptr] } { [7 x ptr] [ptr null, ptr @_ZTISt19_Sp_counted_deleterIPN5arrow15ResizableBufferESt14default_deleteIS1_ESaIvELN9__gnu_cxx12_Lock_policyE2EE, ptr @_ZNSt19_Sp_counted_deleterIPN5arrow15ResizableBufferESt14default_deleteIS1_ESaIvELN9__gnu_cxx12_Lock_policyE2EED2Ev, ptr @_ZNSt19_Sp_counted_deleterIPN5arrow15ResizableBufferESt14default_deleteIS1_ESaIvELN9__gnu_cxx12_Lock_policyE2EED0Ev, ptr @_ZNSt19_Sp_counted_deleterIPN5arrow15ResizableBufferESt14default_deleteIS1_ESaIvELN9__gnu_cxx12_Lock_policyE2EE10_M_disposeEv, ptr @_ZNSt19_Sp_counted_deleterIPN5arrow15ResizableBufferESt14default_deleteIS1_ESaIvELN9__gnu_cxx12_Lock_policyE2EE10_M_destroyEv, ptr @_ZNSt19_Sp_counted_deleterIPN5arrow15ResizableBufferESt14default_deleteIS1_ESaIvELN9__gnu_cxx12_Lock_policyE2EE14_M_get_deleterERKSt9type_info] }, comdat, align 8
@_ZTSSt19_Sp_counted_deleterIPN5arrow15ResizableBufferESt14default_deleteIS1_ESaIvELN9__gnu_cxx12_Lock_policyE2EE = linkonce_odr constant [109 x i8] c"St19_Sp_counted_deleterIPN5arrow15ResizableBufferESt14default_deleteIS1_ESaIvELN9__gnu_cxx12_Lock_policyE2EE\00", comdat, align 1
@_ZTSSt16_Sp_counted_baseILN9__gnu_cxx12_Lock_policyE2EE = linkonce_odr constant [52 x i8] c"St16_Sp_counted_baseILN9__gnu_cxx12_Lock_policyE2EE\00", comdat, align 1
@_ZTSSt11_Mutex_baseILN9__gnu_cxx12_Lock_policyE2EE = linkonce_odr constant [47 x i8] c"St11_Mutex_baseILN9__gnu_cxx12_Lock_policyE2EE\00", comdat, align 1
@_ZTISt11_Mutex_baseILN9__gnu_cxx12_Lock_policyE2EE = linkonce_odr constant { ptr, ptr } { ptr getelementptr inbounds (ptr, ptr @_ZTVN10__cxxabiv117__class_type_infoE, i64 2), ptr @_ZTSSt11_Mutex_baseILN9__gnu_cxx12_Lock_policyE2EE }, comdat, align 8
@_ZTISt16_Sp_counted_baseILN9__gnu_cxx12_Lock_policyE2EE = linkonce_odr constant { ptr, ptr, ptr } { ptr getelementptr inbounds (ptr, ptr @_ZTVN10__cxxabiv120__si_class_type_infoE, i64 2), ptr @_ZTSSt16_Sp_counted_baseILN9__gnu_cxx12_Lock_policyE2EE, ptr @_ZTISt11_Mutex_baseILN9__gnu_cxx12_Lock_policyE2EE }, comdat, align 8
@_ZTISt19_Sp_counted_deleterIPN5arrow15ResizableBufferESt14default_deleteIS1_ESaIvELN9__gnu_cxx12_Lock_policyE2EE = linkonce_odr constant { ptr, ptr, ptr } { ptr getelementptr inbounds (ptr, ptr @_ZTVN10__cxxabiv120__si_class_type_infoE, i64 2), ptr @_ZTSSt19_Sp_counted_deleterIPN5arrow15ResizableBufferESt14default_deleteIS1_ESaIvELN9__gnu_cxx12_Lock_policyE2EE, ptr @_ZTISt16_Sp_counted_baseILN9__gnu_cxx12_Lock_policyE2EE }, comdat, align 8
@_ZTVSt16_Sp_counted_baseILN9__gnu_cxx12_Lock_policyE2EE = linkonce_odr unnamed_addr constant { [7 x ptr] } { [7 x ptr] [ptr null, ptr @_ZTISt16_Sp_counted_baseILN9__gnu_cxx12_Lock_policyE2EE, ptr @_ZNSt16_Sp_counted_baseILN9__gnu_cxx12_Lock_policyE2EED2Ev, ptr @_ZNSt16_Sp_counted_baseILN9__gnu_cxx12_Lock_policyE2EED0Ev, ptr @__cxa_pure_virtual, ptr @_ZNSt16_Sp_counted_baseILN9__gnu_cxx12_Lock_policyE2EE10_M_destroyEv, ptr @__cxa_pure_virtual] }, comdat, align 8
@_ZTSSt14default_deleteIN5arrow15ResizableBufferEE = linkonce_odr constant [46 x i8] c"St14default_deleteIN5arrow15ResizableBufferEE\00", comdat, align 1
@_ZTISt14default_deleteIN5arrow15ResizableBufferEE = linkonce_odr constant { ptr, ptr } { ptr getelementptr inbounds (ptr, ptr @_ZTVN10__cxxabiv117__class_type_infoE, i64 2), ptr @_ZTSSt14default_deleteIN5arrow15ResizableBufferEE }, comdat, align 8
@.str.6 = private unnamed_addr constant [17 x i8] c"Invalid position\00", align 1
@_ZTVN5arrow2io8WritableE = external unnamed_addr constant { [7 x ptr] }, align 8
@.str.7 = private unnamed_addr constant [28 x i8] c"Length must be non-negative\00", align 1
@_ZTVN5arrow2io22ReadWriteFileInterfaceE = linkonce_odr unnamed_addr constant { [23 x ptr], [5 x ptr], [9 x ptr], [5 x ptr], [15 x ptr] } { [23 x ptr] [ptr null, ptr inttoptr (i64 40 to ptr), ptr null, ptr null, ptr null, ptr null, ptr null, ptr @_ZTIN5arrow2io22ReadWriteFileInterfaceE, ptr @_ZN5arrow2io22ReadWriteFileInterfaceD1Ev, ptr @_ZN5arrow2io22ReadWriteFileInterfaceD0Ev, ptr @__cxa_pure_virtual, ptr @__cxa_pure_virtual, ptr @_ZNK5arrow2io8Readable10io_contextEv, ptr @_ZN5arrow2io11InputStream4PeekEl, ptr @_ZNK5arrow2io11InputStream18supports_zero_copyEv, ptr @_ZN5arrow2io11InputStream12ReadMetadataEv, ptr @_ZN5arrow2io11InputStream17ReadMetadataAsyncERKNS0_9IOContextE, ptr @__cxa_pure_virtual, ptr @_ZN5arrow2io16RandomAccessFile6ReadAtEllPv, ptr @_ZN5arrow2io16RandomAccessFile6ReadAtEll, ptr @_ZN5arrow2io16RandomAccessFile9ReadAsyncERKNS0_9IOContextEll, ptr @_ZN5arrow2io16RandomAccessFile13ReadManyAsyncERKNS0_9IOContextERKSt6vectorINS0_9ReadRangeESaIS6_EE, ptr @_ZN5arrow2io16RandomAccessFile8WillNeedERKSt6vectorINS0_9ReadRangeESaIS3_EE], [5 x ptr] [ptr inttoptr (i64 -8 to ptr), ptr @_ZTIN5arrow2io22ReadWriteFileInterfaceE, ptr @_ZThn8_N5arrow2io22ReadWriteFileInterfaceD1Ev, ptr @_ZThn8_N5arrow2io22ReadWriteFileInterfaceD0Ev, ptr @__cxa_pure_virtual], [9 x ptr] [ptr inttoptr (i64 16 to ptr), ptr inttoptr (i64 -24 to ptr), ptr @_ZTIN5arrow2io22ReadWriteFileInterfaceE, ptr @_ZThn24_N5arrow2io22ReadWriteFileInterfaceD1Ev, ptr @_ZThn24_N5arrow2io22ReadWriteFileInterfaceD0Ev, ptr @__cxa_pure_virtual, ptr @_ZN5arrow2io8Writable5WriteERKSt10shared_ptrINS_6BufferEE, ptr @_ZN5arrow2io8Writable5FlushEv, ptr @__cxa_pure_virtual], [5 x ptr] [ptr inttoptr (i64 -32 to ptr), ptr @_ZTIN5arrow2io22ReadWriteFileInterfaceE, ptr @_ZThn32_N5arrow2io22ReadWriteFileInterfaceD1Ev, ptr @_ZThn32_N5arrow2io22ReadWriteFileInterfaceD0Ev, ptr @__cxa_pure_virtual], [15 x ptr] [ptr null, ptr null, ptr null, ptr null, ptr null, ptr inttoptr (i64 -40 to ptr), ptr inttoptr (i64 -40 to ptr), ptr @_ZTIN5arrow2io22ReadWriteFileInterfaceE, ptr @_ZTv0_n24_N5arrow2io22ReadWriteFileInterfaceD1Ev, ptr @_ZTv0_n24_N5arrow2io22ReadWriteFileInterfaceD0Ev, ptr @__cxa_pure_virtual, ptr @_ZN5arrow2io13FileInterface10CloseAsyncEv, ptr @_ZN5arrow2io13FileInterface5AbortEv, ptr @__cxa_pure_virtual, ptr @__cxa_pure_virtual] }, comdat, align 8
@_ZTTN5arrow2io22ReadWriteFileInterfaceE = linkonce_odr unnamed_addr constant [14 x ptr] [ptr getelementptr inbounds ({ [23 x ptr], [5 x ptr], [9 x ptr], [5 x ptr], [15 x ptr] }, ptr @_ZTVN5arrow2io22ReadWriteFileInterfaceE, i32 0, inrange i32 0, i32 8), ptr getelementptr inbounds ({ [23 x ptr], [15 x ptr] }, ptr @_ZTCN5arrow2io22ReadWriteFileInterfaceE0_NS0_16RandomAccessFileE, i32 0, inrange i32 0, i32 8), ptr getelementptr inbounds ({ [17 x ptr], [15 x ptr] }, ptr @_ZTCN5arrow2io22ReadWriteFileInterfaceE0_NS0_11InputStreamE, i32 0, inrange i32 0, i32 8), ptr getelementptr inbounds ({ [17 x ptr], [15 x ptr] }, ptr @_ZTCN5arrow2io22ReadWriteFileInterfaceE0_NS0_11InputStreamE, i32 0, inrange i32 1, i32 8), ptr getelementptr inbounds ({ [17 x ptr], [15 x ptr] }, ptr @_ZTCN5arrow2io22ReadWriteFileInterfaceE0_NS0_11InputStreamE, i32 0, inrange i32 0, i32 8), ptr getelementptr inbounds ({ [23 x ptr], [15 x ptr] }, ptr @_ZTCN5arrow2io22ReadWriteFileInterfaceE0_NS0_16RandomAccessFileE, i32 0, inrange i32 1, i32 8), ptr getelementptr inbounds ({ [23 x ptr], [15 x ptr] }, ptr @_ZTCN5arrow2io22ReadWriteFileInterfaceE0_NS0_16RandomAccessFileE, i32 0, inrange i32 0, i32 8), ptr getelementptr inbounds ({ [9 x ptr], [15 x ptr] }, ptr @_ZTCN5arrow2io22ReadWriteFileInterfaceE24_NS0_12WritableFileE, i32 0, inrange i32 0, i32 3), ptr getelementptr inbounds ({ [8 x ptr], [15 x ptr] }, ptr @_ZTCN5arrow2io22ReadWriteFileInterfaceE24_NS0_12OutputStreamE, i32 0, inrange i32 0, i32 3), ptr getelementptr inbounds ({ [8 x ptr], [15 x ptr] }, ptr @_ZTCN5arrow2io22ReadWriteFileInterfaceE24_NS0_12OutputStreamE, i32 0, inrange i32 1, i32 8), ptr getelementptr inbounds ({ [9 x ptr], [15 x ptr] }, ptr @_ZTCN5arrow2io22ReadWriteFileInterfaceE24_NS0_12WritableFileE, i32 0, inrange i32 1, i32 8), ptr getelementptr inbounds ({ [23 x ptr], [5 x ptr], [9 x ptr], [5 x ptr], [15 x ptr] }, ptr @_ZTVN5arrow2io22ReadWriteFileInterfaceE, i32 0, inrange i32 4, i32 8), ptr getelementptr inbounds ({ [23 x ptr], [5 x ptr], [9 x ptr], [5 x ptr], [15 x ptr] }, ptr @_ZTVN5arrow2io22ReadWriteFileInterfaceE, i32 0, inrange i32 0, i32 8), ptr getelementptr inbounds ({ [23 x ptr], [5 x ptr], [9 x ptr], [5 x ptr], [15 x ptr] }, ptr @_ZTVN5arrow2io22ReadWriteFileInterfaceE, i32 0, inrange i32 2, i32 3)], comdat, align 8
@_ZTCN5arrow2io22ReadWriteFileInterfaceE0_NS0_16RandomAccessFileE = linkonce_odr unnamed_addr constant { [23 x ptr], [15 x ptr] } { [23 x ptr] [ptr null, ptr inttoptr (i64 40 to ptr), ptr null, ptr null, ptr null, ptr null, ptr null, ptr @_ZTIN5arrow2io16RandomAccessFileE, ptr @_ZN5arrow2io16RandomAccessFileD1Ev, ptr @_ZN5arrow2io16RandomAccessFileD0Ev, ptr @__cxa_pure_virtual, ptr @__cxa_pure_virtual, ptr @_ZNK5arrow2io8Readable10io_contextEv, ptr @_ZN5arrow2io11InputStream4PeekEl, ptr @_ZNK5arrow2io11InputStream18supports_zero_copyEv, ptr @_ZN5arrow2io11InputStream12ReadMetadataEv, ptr @_ZN5arrow2io11InputStream17ReadMetadataAsyncERKNS0_9IOContextE, ptr @__cxa_pure_virtual, ptr @_ZN5arrow2io16RandomAccessFile6ReadAtEllPv, ptr @_ZN5arrow2io16RandomAccessFile6ReadAtEll, ptr @_ZN5arrow2io16RandomAccessFile9ReadAsyncERKNS0_9IOContextEll, ptr @_ZN5arrow2io16RandomAccessFile13ReadManyAsyncERKNS0_9IOContextERKSt6vectorINS0_9ReadRangeESaIS6_EE, ptr @_ZN5arrow2io16RandomAccessFile8WillNeedERKSt6vectorINS0_9ReadRangeESaIS3_EE], [15 x ptr] [ptr null, ptr null, ptr null, ptr null, ptr null, ptr inttoptr (i64 -40 to ptr), ptr inttoptr (i64 -40 to ptr), ptr @_ZTIN5arrow2io16RandomAccessFileE, ptr @_ZTv0_n24_N5arrow2io16RandomAccessFileD1Ev, ptr @_ZTv0_n24_N5arrow2io16RandomAccessFileD0Ev, ptr @__cxa_pure_virtual, ptr @_ZN5arrow2io13FileInterface10CloseAsyncEv, ptr @_ZN5arrow2io13FileInterface5AbortEv, ptr @__cxa_pure_virtual, ptr @__cxa_pure_virtual] }, comdat, align 8
@_ZTCN5arrow2io22ReadWriteFileInterfaceE0_NS0_11InputStreamE = linkonce_odr unnamed_addr constant { [17 x ptr], [15 x ptr] } { [17 x ptr] [ptr null, ptr inttoptr (i64 40 to ptr), ptr null, ptr null, ptr null, ptr null, ptr null, ptr @_ZTIN5arrow2io11InputStreamE, ptr @_ZN5arrow2io11InputStreamD1Ev, ptr @_ZN5arrow2io11InputStreamD0Ev, ptr @__cxa_pure_virtual, ptr @__cxa_pure_virtual, ptr @_ZNK5arrow2io8Readable10io_contextEv, ptr @_ZN5arrow2io11InputStream4PeekEl, ptr @_ZNK5arrow2io11InputStream18supports_zero_copyEv, ptr @_ZN5arrow2io11InputStream12ReadMetadataEv, ptr @_ZN5arrow2io11InputStream17ReadMetadataAsyncERKNS0_9IOContextE], [15 x ptr] [ptr null, ptr null, ptr null, ptr null, ptr null, ptr inttoptr (i64 -40 to ptr), ptr inttoptr (i64 -40 to ptr), ptr @_ZTIN5arrow2io11InputStreamE, ptr @_ZTv0_n24_N5arrow2io11InputStreamD1Ev, ptr @_ZTv0_n24_N5arrow2io11InputStreamD0Ev, ptr @__cxa_pure_virtual, ptr @_ZN5arrow2io13FileInterface10CloseAsyncEv, ptr @_ZN5arrow2io13FileInterface5AbortEv, ptr @__cxa_pure_virtual, ptr @__cxa_pure_virtual] }, comdat, align 8
@_ZTCN5arrow2io22ReadWriteFileInterfaceE24_NS0_12WritableFileE = linkonce_odr unnamed_addr constant { [9 x ptr], [15 x ptr] } { [9 x ptr] [ptr inttoptr (i64 16 to ptr), ptr null, ptr @_ZTIN5arrow2io12WritableFileE, ptr @_ZN5arrow2io12WritableFileD1Ev, ptr @_ZN5arrow2io12WritableFileD0Ev, ptr @__cxa_pure_virtual, ptr @_ZN5arrow2io8Writable5WriteERKSt10shared_ptrINS_6BufferEE, ptr @_ZN5arrow2io8Writable5FlushEv, ptr @__cxa_pure_virtual], [15 x ptr] [ptr null, ptr null, ptr null, ptr null, ptr null, ptr inttoptr (i64 -16 to ptr), ptr inttoptr (i64 -16 to ptr), ptr @_ZTIN5arrow2io12WritableFileE, ptr @_ZTv0_n24_N5arrow2io12WritableFileD1Ev, ptr @_ZTv0_n24_N5arrow2io12WritableFileD0Ev, ptr @__cxa_pure_virtual, ptr @_ZN5arrow2io13FileInterface10CloseAsyncEv, ptr @_ZN5arrow2io13FileInterface5AbortEv, ptr @__cxa_pure_virtual, ptr @__cxa_pure_virtual] }, comdat, align 8
@_ZTCN5arrow2io22ReadWriteFileInterfaceE24_NS0_12OutputStreamE = linkonce_odr unnamed_addr constant { [8 x ptr], [15 x ptr] } { [8 x ptr] [ptr inttoptr (i64 16 to ptr), ptr null, ptr @_ZTIN5arrow2io12OutputStreamE, ptr @_ZN5arrow2io12OutputStreamD1Ev, ptr @_ZN5arrow2io12OutputStreamD0Ev, ptr @__cxa_pure_virtual, ptr @_ZN5arrow2io8Writable5WriteERKSt10shared_ptrINS_6BufferEE, ptr @_ZN5arrow2io8Writable5FlushEv], [15 x ptr] [ptr null, ptr null, ptr null, ptr null, ptr null, ptr inttoptr (i64 -16 to ptr), ptr inttoptr (i64 -16 to ptr), ptr @_ZTIN5arrow2io12OutputStreamE, ptr @_ZTv0_n24_N5arrow2io12OutputStreamD1Ev, ptr @_ZTv0_n24_N5arrow2io12OutputStreamD0Ev, ptr @__cxa_pure_virtual, ptr @_ZN5arrow2io13FileInterface10CloseAsyncEv, ptr @_ZN5arrow2io13FileInterface5AbortEv, ptr @__cxa_pure_virtual, ptr @__cxa_pure_virtual] }, comdat, align 8
@_ZTVN5arrow2io12WritableFileE = linkonce_odr unnamed_addr constant { [9 x ptr], [5 x ptr], [15 x ptr] } { [9 x ptr] [ptr inttoptr (i64 16 to ptr), ptr null, ptr @_ZTIN5arrow2io12WritableFileE, ptr @_ZN5arrow2io12WritableFileD1Ev, ptr @_ZN5arrow2io12WritableFileD0Ev, ptr @__cxa_pure_virtual, ptr @_ZN5arrow2io8Writable5WriteERKSt10shared_ptrINS_6BufferEE, ptr @_ZN5arrow2io8Writable5FlushEv, ptr @__cxa_pure_virtual], [5 x ptr] [ptr inttoptr (i64 -8 to ptr), ptr @_ZTIN5arrow2io12WritableFileE, ptr @_ZThn8_N5arrow2io12WritableFileD1Ev, ptr @_ZThn8_N5arrow2io12WritableFileD0Ev, ptr @__cxa_pure_virtual], [15 x ptr] [ptr null, ptr null, ptr null, ptr null, ptr null, ptr inttoptr (i64 -16 to ptr), ptr inttoptr (i64 -16 to ptr), ptr @_ZTIN5arrow2io12WritableFileE, ptr @_ZTv0_n24_N5arrow2io12WritableFileD1Ev, ptr @_ZTv0_n24_N5arrow2io12WritableFileD0Ev, ptr @__cxa_pure_virtual, ptr @_ZN5arrow2io13FileInterface10CloseAsyncEv, ptr @_ZN5arrow2io13FileInterface5AbortEv, ptr @__cxa_pure_virtual, ptr @__cxa_pure_virtual] }, comdat, align 8
@_ZTTN5arrow2io12WritableFileE = linkonce_odr unnamed_addr constant [4 x ptr] [ptr getelementptr inbounds ({ [9 x ptr], [5 x ptr], [15 x ptr] }, ptr @_ZTVN5arrow2io12WritableFileE, i32 0, inrange i32 0, i32 3), ptr getelementptr inbounds ({ [8 x ptr], [15 x ptr] }, ptr @_ZTCN5arrow2io12WritableFileE0_NS0_12OutputStreamE, i32 0, inrange i32 0, i32 3), ptr getelementptr inbounds ({ [8 x ptr], [15 x ptr] }, ptr @_ZTCN5arrow2io12WritableFileE0_NS0_12OutputStreamE, i32 0, inrange i32 1, i32 8), ptr getelementptr inbounds ({ [9 x ptr], [5 x ptr], [15 x ptr] }, ptr @_ZTVN5arrow2io12WritableFileE, i32 0, inrange i32 2, i32 8)], comdat, align 8
@_ZTCN5arrow2io12WritableFileE0_NS0_12OutputStreamE = linkonce_odr unnamed_addr constant { [8 x ptr], [15 x ptr] } { [8 x ptr] [ptr inttoptr (i64 16 to ptr), ptr null, ptr @_ZTIN5arrow2io12OutputStreamE, ptr @_ZN5arrow2io12OutputStreamD1Ev, ptr @_ZN5arrow2io12OutputStreamD0Ev, ptr @__cxa_pure_virtual, ptr @_ZN5arrow2io8Writable5WriteERKSt10shared_ptrINS_6BufferEE, ptr @_ZN5arrow2io8Writable5FlushEv], [15 x ptr] [ptr null, ptr null, ptr null, ptr null, ptr null, ptr inttoptr (i64 -16 to ptr), ptr inttoptr (i64 -16 to ptr), ptr @_ZTIN5arrow2io12OutputStreamE, ptr @_ZTv0_n24_N5arrow2io12OutputStreamD1Ev, ptr @_ZTv0_n24_N5arrow2io12OutputStreamD0Ev, ptr @__cxa_pure_virtual, ptr @_ZN5arrow2io13FileInterface10CloseAsyncEv, ptr @_ZN5arrow2io13FileInterface5AbortEv, ptr @__cxa_pure_virtual, ptr @__cxa_pure_virtual] }, comdat, align 8
@_ZTVN5arrow2io8SeekableE = linkonce_odr unnamed_addr constant { [5 x ptr] } { [5 x ptr] [ptr null, ptr @_ZTIN5arrow2io8SeekableE, ptr @_ZN5arrow2io8SeekableD2Ev, ptr @_ZN5arrow2io8SeekableD0Ev, ptr @__cxa_pure_virtual] }, comdat, align 8
@.str.8 = private unnamed_addr constant [35 x i8] c"mapping length is beyond file size\00", align 1
@.str.9 = private unnamed_addr constant [29 x i8] c"Memory mapping file failed: \00", align 1
@_ZTVSt23_Sp_counted_ptr_inplaceIN5arrow2io16MemoryMappedFile9MemoryMap6RegionESaIvELN9__gnu_cxx12_Lock_policyE2EE = linkonce_odr hidden unnamed_addr constant { [7 x ptr] } { [7 x ptr] [ptr null, ptr @_ZTISt23_Sp_counted_ptr_inplaceIN5arrow2io16MemoryMappedFile9MemoryMap6RegionESaIvELN9__gnu_cxx12_Lock_policyE2EE, ptr @_ZNSt23_Sp_counted_ptr_inplaceIN5arrow2io16MemoryMappedFile9MemoryMap6RegionESaIvELN9__gnu_cxx12_Lock_policyE2EED2Ev, ptr @_ZNSt23_Sp_counted_ptr_inplaceIN5arrow2io16MemoryMappedFile9MemoryMap6RegionESaIvELN9__gnu_cxx12_Lock_policyE2EED0Ev, ptr @_ZNSt23_Sp_counted_ptr_inplaceIN5arrow2io16MemoryMappedFile9MemoryMap6RegionESaIvELN9__gnu_cxx12_Lock_policyE2EE10_M_disposeEv, ptr @_ZNSt23_Sp_counted_ptr_inplaceIN5arrow2io16MemoryMappedFile9MemoryMap6RegionESaIvELN9__gnu_cxx12_Lock_policyE2EE10_M_destroyEv, ptr @_ZNSt23_Sp_counted_ptr_inplaceIN5arrow2io16MemoryMappedFile9MemoryMap6RegionESaIvELN9__gnu_cxx12_Lock_policyE2EE14_M_get_deleterERKSt9type_info] }, comdat, align 8
@_ZTSSt23_Sp_counted_ptr_inplaceIN5arrow2io16MemoryMappedFile9MemoryMap6RegionESaIvELN9__gnu_cxx12_Lock_policyE2EE = linkonce_odr hidden constant [110 x i8] c"St23_Sp_counted_ptr_inplaceIN5arrow2io16MemoryMappedFile9MemoryMap6RegionESaIvELN9__gnu_cxx12_Lock_policyE2EE\00", comdat, align 1
@_ZTISt23_Sp_counted_ptr_inplaceIN5arrow2io16MemoryMappedFile9MemoryMap6RegionESaIvELN9__gnu_cxx12_Lock_policyE2EE = linkonce_odr hidden constant { ptr, ptr, ptr } { ptr getelementptr inbounds (ptr, ptr @_ZTVN10__cxxabiv120__si_class_type_infoE, i64 2), ptr @_ZTSSt23_Sp_counted_ptr_inplaceIN5arrow2io16MemoryMappedFile9MemoryMap6RegionESaIvELN9__gnu_cxx12_Lock_policyE2EE, ptr @_ZTISt16_Sp_counted_baseILN9__gnu_cxx12_Lock_policyE2EE }, comdat, align 8
@_ZTVN5arrow2io16MemoryMappedFile9MemoryMap6RegionE = linkonce_odr hidden unnamed_addr constant { [5 x ptr] } { [5 x ptr] [ptr null, ptr @_ZTIN5arrow2io16MemoryMappedFile9MemoryMap6RegionE, ptr @_ZN5arrow2io16MemoryMappedFile9MemoryMap6RegionD2Ev, ptr @_ZN5arrow2io16MemoryMappedFile9MemoryMap6RegionD0Ev, ptr @_ZN5arrow6Buffer17device_sync_eventEv] }, comdat, align 8
@_ZTSN5arrow2io16MemoryMappedFile9MemoryMap6RegionE = linkonce_odr hidden constant [47 x i8] c"N5arrow2io16MemoryMappedFile9MemoryMap6RegionE\00", comdat, align 1
@_ZTSN5arrow6BufferE = linkonce_odr constant [16 x i8] c"N5arrow6BufferE\00", comdat, align 1
@_ZTIN5arrow6BufferE = linkonce_odr constant { ptr, ptr } { ptr getelementptr inbounds (ptr, ptr @_ZTVN10__cxxabiv117__class_type_infoE, i64 2), ptr @_ZTSN5arrow6BufferE }, comdat, align 8
@_ZTIN5arrow2io16MemoryMappedFile9MemoryMap6RegionE = linkonce_odr hidden constant { ptr, ptr, ptr } { ptr getelementptr inbounds (ptr, ptr @_ZTVN10__cxxabiv120__si_class_type_infoE, i64 2), ptr @_ZTSN5arrow2io16MemoryMappedFile9MemoryMap6RegionE, ptr @_ZTIN5arrow6BufferE }, comdat, align 8
@_ZTVN5arrow6BufferE = linkonce_odr unnamed_addr constant { [5 x ptr] } { [5 x ptr] [ptr null, ptr @_ZTIN5arrow6BufferE, ptr @_ZN5arrow6BufferD2Ev, ptr @_ZN5arrow6BufferD0Ev, ptr @_ZN5arrow6Buffer17device_sync_eventEv] }, comdat, align 8
@.str.10 = private unnamed_addr constant [114 x i8] c"generated/home/dtcxzyw/WorkSpace/Projects/compilers/llvm-opt-benchmark/bench/arrow/arrow/cpp/src/arrow/io/file.cc\00", align 1
@.str.11 = private unnamed_addr constant [32 x i8] c" Check failed: (result) == (0) \00", align 1
@.str.12 = private unnamed_addr constant [14 x i8] c"munmap failed\00", align 1
@_ZTSSt19_Sp_make_shared_tag = linkonce_odr constant [24 x i8] c"St19_Sp_make_shared_tag\00", comdat, align 1
@_ZTISt19_Sp_make_shared_tag = linkonce_odr constant { ptr, ptr } { ptr getelementptr inbounds (ptr, ptr @_ZTVN10__cxxabiv117__class_type_infoE, i64 2), ptr @_ZTSSt19_Sp_make_shared_tag }, comdat, align 8
@_ZZNSt19_Sp_make_shared_tag5_S_tiEvE5__tag = linkonce_odr constant [16 x i8] zeroinitializer, comdat, align 8
@_ZTISt12bad_weak_ptr = external constant ptr
@_ZTVSt12bad_weak_ptr = external unnamed_addr constant { [5 x ptr] }, align 8
@_ZTVSt9exception = external unnamed_addr constant { [5 x ptr] }, align 8
@.str.13 = private unnamed_addr constant [26 x i8] c"position is out of bounds\00", align 1
@_ZTVSt23_Sp_counted_ptr_inplaceIN5arrow6BufferESaIvELN9__gnu_cxx12_Lock_policyE2EE = linkonce_odr unnamed_addr constant { [7 x ptr] } { [7 x ptr] [ptr null, ptr @_ZTISt23_Sp_counted_ptr_inplaceIN5arrow6BufferESaIvELN9__gnu_cxx12_Lock_policyE2EE, ptr @_ZNSt23_Sp_counted_ptr_inplaceIN5arrow6BufferESaIvELN9__gnu_cxx12_Lock_policyE2EED2Ev, ptr @_ZNSt23_Sp_counted_ptr_inplaceIN5arrow6BufferESaIvELN9__gnu_cxx12_Lock_policyE2EED0Ev, ptr @_ZNSt23_Sp_counted_ptr_inplaceIN5arrow6BufferESaIvELN9__gnu_cxx12_Lock_policyE2EE10_M_disposeEv, ptr @_ZNSt23_Sp_counted_ptr_inplaceIN5arrow6BufferESaIvELN9__gnu_cxx12_Lock_policyE2EE10_M_destroyEv, ptr @_ZNSt23_Sp_counted_ptr_inplaceIN5arrow6BufferESaIvELN9__gnu_cxx12_Lock_policyE2EE14_M_get_deleterERKSt9type_info] }, comdat, align 8
@_ZTSSt23_Sp_counted_ptr_inplaceIN5arrow6BufferESaIvELN9__gnu_cxx12_Lock_policyE2EE = linkonce_odr constant [79 x i8] c"St23_Sp_counted_ptr_inplaceIN5arrow6BufferESaIvELN9__gnu_cxx12_Lock_policyE2EE\00", comdat, align 1
@_ZTISt23_Sp_counted_ptr_inplaceIN5arrow6BufferESaIvELN9__gnu_cxx12_Lock_policyE2EE = linkonce_odr constant { ptr, ptr, ptr } { ptr getelementptr inbounds (ptr, ptr @_ZTVN10__cxxabiv120__si_class_type_infoE, i64 2), ptr @_ZTSSt23_Sp_counted_ptr_inplaceIN5arrow6BufferESaIvELN9__gnu_cxx12_Lock_policyE2EE, ptr @_ZTISt16_Sp_counted_baseILN9__gnu_cxx12_Lock_policyE2EE }, comdat, align 8
@.str.14 = private unnamed_addr constant [36 x i8] c"Cannot resize a readonly memory map\00", align 1
@.str.15 = private unnamed_addr constant [35 x i8] c"Cannot resize a partial memory map\00", align 1
@.str.16 = private unnamed_addr constant [56 x i8] c"Cannot resize memory map while there are active readers\00", align 1
@.str.17 = private unnamed_addr constant [38 x i8] c"Constructed with a non-error status: \00", align 1
@.str.18 = private unnamed_addr constant [50 x i8] c"basic_string: construction from null is not valid\00", align 1
@_ZTVSt15_Sp_counted_ptrIPN5arrow2io12ReadableFileELN9__gnu_cxx12_Lock_policyE2EE = linkonce_odr unnamed_addr constant { [7 x ptr] } { [7 x ptr] [ptr null, ptr @_ZTISt15_Sp_counted_ptrIPN5arrow2io12ReadableFileELN9__gnu_cxx12_Lock_policyE2EE, ptr @_ZNSt15_Sp_counted_ptrIPN5arrow2io12ReadableFileELN9__gnu_cxx12_Lock_policyE2EED2Ev, ptr @_ZNSt15_Sp_counted_ptrIPN5arrow2io12ReadableFileELN9__gnu_cxx12_Lock_policyE2EED0Ev, ptr @_ZNSt15_Sp_counted_ptrIPN5arrow2io12ReadableFileELN9__gnu_cxx12_Lock_policyE2EE10_M_disposeEv, ptr @_ZNSt15_Sp_counted_ptrIPN5arrow2io12ReadableFileELN9__gnu_cxx12_Lock_policyE2EE10_M_destroyEv, ptr @_ZNSt15_Sp_counted_ptrIPN5arrow2io12ReadableFileELN9__gnu_cxx12_Lock_policyE2EE14_M_get_deleterERKSt9type_info] }, comdat, align 8
@_ZTSSt15_Sp_counted_ptrIPN5arrow2io12ReadableFileELN9__gnu_cxx12_Lock_policyE2EE = linkonce_odr constant [77 x i8] c"St15_Sp_counted_ptrIPN5arrow2io12ReadableFileELN9__gnu_cxx12_Lock_policyE2EE\00", comdat, align 1
@_ZTISt15_Sp_counted_ptrIPN5arrow2io12ReadableFileELN9__gnu_cxx12_Lock_policyE2EE = linkonce_odr constant { ptr, ptr, ptr } { ptr getelementptr inbounds (ptr, ptr @_ZTVN10__cxxabiv120__si_class_type_infoE, i64 2), ptr @_ZTSSt15_Sp_counted_ptrIPN5arrow2io12ReadableFileELN9__gnu_cxx12_Lock_policyE2EE, ptr @_ZTISt16_Sp_counted_baseILN9__gnu_cxx12_Lock_policyE2EE }, comdat, align 8
@_ZTVSt15_Sp_counted_ptrIPN5arrow2io16FileOutputStreamELN9__gnu_cxx12_Lock_policyE2EE = linkonce_odr unnamed_addr constant { [7 x ptr] } { [7 x ptr] [ptr null, ptr @_ZTISt15_Sp_counted_ptrIPN5arrow2io16FileOutputStreamELN9__gnu_cxx12_Lock_policyE2EE, ptr @_ZNSt15_Sp_counted_ptrIPN5arrow2io16FileOutputStreamELN9__gnu_cxx12_Lock_policyE2EED2Ev, ptr @_ZNSt15_Sp_counted_ptrIPN5arrow2io16FileOutputStreamELN9__gnu_cxx12_Lock_policyE2EED0Ev, ptr @_ZNSt15_Sp_counted_ptrIPN5arrow2io16FileOutputStreamELN9__gnu_cxx12_Lock_policyE2EE10_M_disposeEv, ptr @_ZNSt15_Sp_counted_ptrIPN5arrow2io16FileOutputStreamELN9__gnu_cxx12_Lock_policyE2EE10_M_destroyEv, ptr @_ZNSt15_Sp_counted_ptrIPN5arrow2io16FileOutputStreamELN9__gnu_cxx12_Lock_policyE2EE14_M_get_deleterERKSt9type_info] }, comdat, align 8
@_ZTSSt15_Sp_counted_ptrIPN5arrow2io16FileOutputStreamELN9__gnu_cxx12_Lock_policyE2EE = linkonce_odr constant [81 x i8] c"St15_Sp_counted_ptrIPN5arrow2io16FileOutputStreamELN9__gnu_cxx12_Lock_policyE2EE\00", comdat, align 1
@_ZTISt15_Sp_counted_ptrIPN5arrow2io16FileOutputStreamELN9__gnu_cxx12_Lock_policyE2EE = linkonce_odr constant { ptr, ptr, ptr } { ptr getelementptr inbounds (ptr, ptr @_ZTVN10__cxxabiv120__si_class_type_infoE, i64 2), ptr @_ZTSSt15_Sp_counted_ptrIPN5arrow2io16FileOutputStreamELN9__gnu_cxx12_Lock_policyE2EE, ptr @_ZTISt16_Sp_counted_baseILN9__gnu_cxx12_Lock_policyE2EE }, comdat, align 8
@_ZTVSt15_Sp_counted_ptrIPN5arrow2io16MemoryMappedFileELN9__gnu_cxx12_Lock_policyE2EE = linkonce_odr unnamed_addr constant { [7 x ptr] } { [7 x ptr] [ptr null, ptr @_ZTISt15_Sp_counted_ptrIPN5arrow2io16MemoryMappedFileELN9__gnu_cxx12_Lock_policyE2EE, ptr @_ZNSt15_Sp_counted_ptrIPN5arrow2io16MemoryMappedFileELN9__gnu_cxx12_Lock_policyE2EED2Ev, ptr @_ZNSt15_Sp_counted_ptrIPN5arrow2io16MemoryMappedFileELN9__gnu_cxx12_Lock_policyE2EED0Ev, ptr @_ZNSt15_Sp_counted_ptrIPN5arrow2io16MemoryMappedFileELN9__gnu_cxx12_Lock_policyE2EE10_M_disposeEv, ptr @_ZNSt15_Sp_counted_ptrIPN5arrow2io16MemoryMappedFileELN9__gnu_cxx12_Lock_policyE2EE10_M_destroyEv, ptr @_ZNSt15_Sp_counted_ptrIPN5arrow2io16MemoryMappedFileELN9__gnu_cxx12_Lock_policyE2EE14_M_get_deleterERKSt9type_info] }, comdat, align 8
@_ZTSSt15_Sp_counted_ptrIPN5arrow2io16MemoryMappedFileELN9__gnu_cxx12_Lock_policyE2EE = linkonce_odr constant [81 x i8] c"St15_Sp_counted_ptrIPN5arrow2io16MemoryMappedFileELN9__gnu_cxx12_Lock_policyE2EE\00", comdat, align 1
@_ZTISt15_Sp_counted_ptrIPN5arrow2io16MemoryMappedFileELN9__gnu_cxx12_Lock_policyE2EE = linkonce_odr constant { ptr, ptr, ptr } { ptr getelementptr inbounds (ptr, ptr @_ZTVN10__cxxabiv120__si_class_type_infoE, i64 2), ptr @_ZTSSt15_Sp_counted_ptrIPN5arrow2io16MemoryMappedFileELN9__gnu_cxx12_Lock_policyE2EE, ptr @_ZTISt16_Sp_counted_baseILN9__gnu_cxx12_Lock_policyE2EE }, comdat, align 8
@_ZTVSt15_Sp_counted_ptrIPN5arrow2io16MemoryMappedFile9MemoryMapELN9__gnu_cxx12_Lock_policyE2EE = linkonce_odr hidden unnamed_addr constant { [7 x ptr] } { [7 x ptr] [ptr null, ptr @_ZTISt15_Sp_counted_ptrIPN5arrow2io16MemoryMappedFile9MemoryMapELN9__gnu_cxx12_Lock_policyE2EE, ptr @_ZNSt15_Sp_counted_ptrIPN5arrow2io16MemoryMappedFile9MemoryMapELN9__gnu_cxx12_Lock_policyE2EED2Ev, ptr @_ZNSt15_Sp_counted_ptrIPN5arrow2io16MemoryMappedFile9MemoryMapELN9__gnu_cxx12_Lock_policyE2EED0Ev, ptr @_ZNSt15_Sp_counted_ptrIPN5arrow2io16MemoryMappedFile9MemoryMapELN9__gnu_cxx12_Lock_policyE2EE10_M_disposeEv, ptr @_ZNSt15_Sp_counted_ptrIPN5arrow2io16MemoryMappedFile9MemoryMapELN9__gnu_cxx12_Lock_policyE2EE10_M_destroyEv, ptr @_ZNSt15_Sp_counted_ptrIPN5arrow2io16MemoryMappedFile9MemoryMapELN9__gnu_cxx12_Lock_policyE2EE14_M_get_deleterERKSt9type_info] }, comdat, align 8
@_ZTSSt15_Sp_counted_ptrIPN5arrow2io16MemoryMappedFile9MemoryMapELN9__gnu_cxx12_Lock_policyE2EE = linkonce_odr hidden constant [91 x i8] c"St15_Sp_counted_ptrIPN5arrow2io16MemoryMappedFile9MemoryMapELN9__gnu_cxx12_Lock_policyE2EE\00", comdat, align 1
@_ZTISt15_Sp_counted_ptrIPN5arrow2io16MemoryMappedFile9MemoryMapELN9__gnu_cxx12_Lock_policyE2EE = linkonce_odr hidden constant { ptr, ptr, ptr } { ptr getelementptr inbounds (ptr, ptr @_ZTVN10__cxxabiv120__si_class_type_infoE, i64 2), ptr @_ZTSSt15_Sp_counted_ptrIPN5arrow2io16MemoryMappedFile9MemoryMapELN9__gnu_cxx12_Lock_policyE2EE, ptr @_ZTISt16_Sp_counted_baseILN9__gnu_cxx12_Lock_policyE2EE }, comdat, align 8
@.str.19 = private unnamed_addr constant [24 x i8] c" Check failed: _s.ok() \00", align 1
@.str.20 = private unnamed_addr constant [19 x i8] c"Operation failed: \00", align 1
@.str.21 = private unnamed_addr constant [8 x i8] c"Close()\00", align 1
@.str.22 = private unnamed_addr constant [2 x i8] c"\0A\00", align 1
@.str.23 = private unnamed_addr constant [11 x i8] c"Bad status\00", align 1
@.str.24 = private unnamed_addr constant [3 x i8] c": \00", align 1
@.str.25 = private unnamed_addr constant [49 x i8] c"cannot create std::vector larger than max_size()\00", align 1
@_ZTVSt19_Sp_counted_deleterIPN5arrow10FutureImplESt14default_deleteIS1_ESaIvELN9__gnu_cxx12_Lock_policyE2EE = linkonce_odr unnamed_addr constant { [7 x ptr] } { [7 x ptr] [ptr null, ptr @_ZTISt19_Sp_counted_deleterIPN5arrow10FutureImplESt14default_deleteIS1_ESaIvELN9__gnu_cxx12_Lock_policyE2EE, ptr @_ZNSt19_Sp_counted_deleterIPN5arrow10FutureImplESt14default_deleteIS1_ESaIvELN9__gnu_cxx12_Lock_policyE2EED2Ev, ptr @_ZNSt19_Sp_counted_deleterIPN5arrow10FutureImplESt14default_deleteIS1_ESaIvELN9__gnu_cxx12_Lock_policyE2EED0Ev, ptr @_ZNSt19_Sp_counted_deleterIPN5arrow10FutureImplESt14default_deleteIS1_ESaIvELN9__gnu_cxx12_Lock_policyE2EE10_M_disposeEv, ptr @_ZNSt19_Sp_counted_deleterIPN5arrow10FutureImplESt14default_deleteIS1_ESaIvELN9__gnu_cxx12_Lock_policyE2EE10_M_destroyEv, ptr @_ZNSt19_Sp_counted_deleterIPN5arrow10FutureImplESt14default_deleteIS1_ESaIvELN9__gnu_cxx12_Lock_policyE2EE14_M_get_deleterERKSt9type_info] }, comdat, align 8
@_ZTSSt19_Sp_counted_deleterIPN5arrow10FutureImplESt14default_deleteIS1_ESaIvELN9__gnu_cxx12_Lock_policyE2EE = linkonce_odr constant [104 x i8] c"St19_Sp_counted_deleterIPN5arrow10FutureImplESt14default_deleteIS1_ESaIvELN9__gnu_cxx12_Lock_policyE2EE\00", comdat, align 1
@_ZTISt19_Sp_counted_deleterIPN5arrow10FutureImplESt14default_deleteIS1_ESaIvELN9__gnu_cxx12_Lock_policyE2EE = linkonce_odr constant { ptr, ptr, ptr } { ptr getelementptr inbounds (ptr, ptr @_ZTVN10__cxxabiv120__si_class_type_infoE, i64 2), ptr @_ZTSSt19_Sp_counted_deleterIPN5arrow10FutureImplESt14default_deleteIS1_ESaIvELN9__gnu_cxx12_Lock_policyE2EE, ptr @_ZTISt16_Sp_counted_baseILN9__gnu_cxx12_Lock_policyE2EE }, comdat, align 8
@_ZTSSt14default_deleteIN5arrow10FutureImplEE = linkonce_odr constant [41 x i8] c"St14default_deleteIN5arrow10FutureImplEE\00", comdat, align 1
@_ZTISt14default_deleteIN5arrow10FutureImplEE = linkonce_odr constant { ptr, ptr } { ptr getelementptr inbounds (ptr, ptr @_ZTVN10__cxxabiv117__class_type_infoE, i64 2), ptr @_ZTSSt14default_deleteIN5arrow10FutureImplEE }, comdat, align 8
@.str.26 = private unnamed_addr constant [21 x i8] c"Peek not implemented\00", align 1

; Function Attrs: mustprogress uwtable
define void @_ZN5arrow2io12ReadableFileC2EPNS_10MemoryPoolE(ptr noundef nonnull align 8 dereferenceable(48) %this, ptr noundef %vtt, ptr noundef %pool) unnamed_addr #0 align 2 personality ptr @__gxx_personality_v0 {
entry:
  %this.addr = alloca ptr, align 8
  %vtt.addr = alloca ptr, align 8
  %pool.addr = alloca ptr, align 8
  %exn.slot = alloca ptr, align 8
  %ehselector.slot = alloca i32, align 4
  store ptr %this, ptr %this.addr, align 8
  store ptr %vtt, ptr %vtt.addr, align 8
  store ptr %pool, ptr %pool.addr, align 8
  %this1 = load ptr, ptr %this.addr, align 8
  %vtt2 = load ptr, ptr %vtt.addr, align 8
  %0 = getelementptr inbounds ptr, ptr %vtt2, i64 1
  call void @_ZN5arrow2io8internal34RandomAccessFileConcurrencyWrapperINS0_12ReadableFileEEC2Ev(ptr noundef nonnull align 8 dereferenceable(40) %this1, ptr noundef %0)
  %1 = load ptr, ptr %vtt2, align 8
  store ptr %1, ptr %this1, align 8
  %2 = getelementptr inbounds ptr, ptr %vtt2, i64 10
  %3 = load ptr, ptr %2, align 8
  %vtable = load ptr, ptr %this1, align 8
  %vbase.offset.ptr = getelementptr i8, ptr %vtable, i64 -56
  %vbase.offset = load i64, ptr %vbase.offset.ptr, align 8
  %add.ptr = getelementptr inbounds i8, ptr %this1, i64 %vbase.offset
  store ptr %3, ptr %add.ptr, align 8
  %4 = getelementptr inbounds ptr, ptr %vtt2, i64 11
  %5 = load ptr, ptr %4, align 8
  %vtable3 = load ptr, ptr %this1, align 8
  %vbase.offset.ptr4 = getelementptr i8, ptr %vtable3, i64 -64
  %vbase.offset5 = load i64, ptr %vbase.offset.ptr4, align 8
  %add.ptr6 = getelementptr inbounds i8, ptr %this1, i64 %vbase.offset5
  store ptr %5, ptr %add.ptr6, align 8
  %add.ptr7 = getelementptr inbounds i8, ptr %this1, i64 8
  store ptr getelementptr inbounds ({ [30 x ptr], [5 x ptr], [15 x ptr] }, ptr @_ZTVN5arrow2io12ReadableFileE, i32 0, inrange i32 1, i32 2), ptr %add.ptr7, align 8
  %impl_ = getelementptr inbounds %"class.arrow::io::ReadableFile", ptr %this1, i32 0, i32 1
  call void @_ZNSt10unique_ptrIN5arrow2io12ReadableFile16ReadableFileImplESt14default_deleteIS3_EEC2IS5_vEEv(ptr noundef nonnull align 8 dereferenceable(8) %impl_) #14
  %impl_8 = getelementptr inbounds %"class.arrow::io::ReadableFile", ptr %this1, i32 0, i32 1
  %call = invoke noalias noundef nonnull ptr @_Znwm(i64 noundef 80) #15
          to label %invoke.cont unwind label %lpad

invoke.cont:                                      ; preds = %entry
  %6 = load ptr, ptr %pool.addr, align 8
  invoke void @_ZN5arrow2io12ReadableFile16ReadableFileImplC2EPNS_10MemoryPoolE(ptr noundef nonnull align 8 dereferenceable(80) %call, ptr noundef %6)
          to label %invoke.cont10 unwind label %lpad9

invoke.cont10:                                    ; preds = %invoke.cont
  call void @_ZNSt10unique_ptrIN5arrow2io12ReadableFile16ReadableFileImplESt14default_deleteIS3_EE5resetEPS3_(ptr noundef nonnull align 8 dereferenceable(8) %impl_8, ptr noundef %call) #14
  ret void

lpad:                                             ; preds = %entry
  %7 = landingpad { ptr, i32 }
          cleanup
  %8 = extractvalue { ptr, i32 } %7, 0
  store ptr %8, ptr %exn.slot, align 8
  %9 = extractvalue { ptr, i32 } %7, 1
  store i32 %9, ptr %ehselector.slot, align 4
  br label %ehcleanup

lpad9:                                            ; preds = %invoke.cont
  %10 = landingpad { ptr, i32 }
          cleanup
  %11 = extractvalue { ptr, i32 } %10, 0
  store ptr %11, ptr %exn.slot, align 8
  %12 = extractvalue { ptr, i32 } %10, 1
  store i32 %12, ptr %ehselector.slot, align 4
  call void @_ZdlPv(ptr noundef %call) #16
  br label %ehcleanup

ehcleanup:                                        ; preds = %lpad9, %lpad
  call void @_ZNSt10unique_ptrIN5arrow2io12ReadableFile16ReadableFileImplESt14default_deleteIS3_EED2Ev(ptr noundef nonnull align 8 dereferenceable(8) %impl_) #14
  %13 = getelementptr inbounds ptr, ptr %vtt2, i64 1
  call void @_ZN5arrow2io8internal34RandomAccessFileConcurrencyWrapperINS0_12ReadableFileEED2Ev(ptr noundef nonnull align 8 dereferenceable(40) %this1, ptr noundef %13) #14
  br label %eh.resume

eh.resume:                                        ; preds = %ehcleanup
  %exn = load ptr, ptr %exn.slot, align 8
  %sel = load i32, ptr %ehselector.slot, align 4
  %lpad.val = insertvalue { ptr, i32 } poison, ptr %exn, 0
  %lpad.val12 = insertvalue { ptr, i32 } %lpad.val, i32 %sel, 1
  resume { ptr, i32 } %lpad.val12
}

; Function Attrs: mustprogress uwtable
define linkonce_odr void @_ZN5arrow2io8internal34RandomAccessFileConcurrencyWrapperINS0_12ReadableFileEEC2Ev(ptr noundef nonnull align 8 dereferenceable(40) %this, ptr noundef %vtt) unnamed_addr #0 comdat align 2 personality ptr @__gxx_personality_v0 {
entry:
  %this.addr = alloca ptr, align 8
  %vtt.addr = alloca ptr, align 8
  %exn.slot = alloca ptr, align 8
  %ehselector.slot = alloca i32, align 4
  store ptr %this, ptr %this.addr, align 8
  store ptr %vtt, ptr %vtt.addr, align 8
  %this1 = load ptr, ptr %this.addr, align 8
  %vtt2 = load ptr, ptr %vtt.addr, align 8
  %0 = getelementptr inbounds ptr, ptr %vtt2, i64 1
  call void @_ZN5arrow2io16RandomAccessFileC2Ev(ptr noundef nonnull align 8 dereferenceable(24) %this1, ptr noundef %0)
  %1 = load ptr, ptr %vtt2, align 8
  store ptr %1, ptr %this1, align 8
  %2 = getelementptr inbounds ptr, ptr %vtt2, i64 7
  %3 = load ptr, ptr %2, align 8
  %vtable = load ptr, ptr %this1, align 8
  %vbase.offset.ptr = getelementptr i8, ptr %vtable, i64 -56
  %vbase.offset = load i64, ptr %vbase.offset.ptr, align 8
  %add.ptr = getelementptr inbounds i8, ptr %this1, i64 %vbase.offset
  store ptr %3, ptr %add.ptr, align 8
  %4 = getelementptr inbounds ptr, ptr %vtt2, i64 8
  %5 = load ptr, ptr %4, align 8
  %vtable3 = load ptr, ptr %this1, align 8
  %vbase.offset.ptr4 = getelementptr i8, ptr %vtable3, i64 -64
  %vbase.offset5 = load i64, ptr %vbase.offset.ptr4, align 8
  %add.ptr6 = getelementptr inbounds i8, ptr %this1, i64 %vbase.offset5
  store ptr %5, ptr %add.ptr6, align 8
  %add.ptr7 = getelementptr inbounds i8, ptr %this1, i64 8
  store ptr getelementptr inbounds ({ [29 x ptr], [5 x ptr], [15 x ptr] }, ptr @_ZTVN5arrow2io8internal34RandomAccessFileConcurrencyWrapperINS0_12ReadableFileEEE, i32 0, inrange i32 1, i32 2), ptr %add.ptr7, align 8
  %lock_ = getelementptr inbounds %"class.arrow::io::internal::RandomAccessFileConcurrencyWrapper", ptr %this1, i32 0, i32 1
  invoke void @_ZN5arrow2io8internal22SharedExclusiveCheckerC1Ev(ptr noundef nonnull align 8 dereferenceable(16) %lock_)
          to label %invoke.cont unwind label %lpad

invoke.cont:                                      ; preds = %entry
  ret void

lpad:                                             ; preds = %entry
  %6 = landingpad { ptr, i32 }
          cleanup
  %7 = extractvalue { ptr, i32 } %6, 0
  store ptr %7, ptr %exn.slot, align 8
  %8 = extractvalue { ptr, i32 } %6, 1
  store i32 %8, ptr %ehselector.slot, align 4
  %9 = getelementptr inbounds ptr, ptr %vtt2, i64 1
  call void @_ZN5arrow2io16RandomAccessFileD2Ev(ptr noundef nonnull align 8 dereferenceable(24) %this1, ptr noundef %9) #14
  br label %eh.resume

eh.resume:                                        ; preds = %lpad
  %exn = load ptr, ptr %exn.slot, align 8
  %sel = load i32, ptr %ehselector.slot, align 4
  %lpad.val = insertvalue { ptr, i32 } poison, ptr %exn, 0
  %lpad.val8 = insertvalue { ptr, i32 } %lpad.val, i32 %sel, 1
  resume { ptr, i32 } %lpad.val8
}

; Function Attrs: mustprogress nounwind uwtable
define linkonce_odr hidden void @_ZNSt10unique_ptrIN5arrow2io12ReadableFile16ReadableFileImplESt14default_deleteIS3_EEC2IS5_vEEv(ptr noundef nonnull align 8 dereferenceable(8) %this) unnamed_addr #1 comdat align 2 {
entry:
  %this.addr = alloca ptr, align 8
  store ptr %this, ptr %this.addr, align 8
  %this1 = load ptr, ptr %this.addr, align 8
  %_M_t = getelementptr inbounds %"class.std::unique_ptr.2", ptr %this1, i32 0, i32 0
  call void @llvm.memset.p0.i64(ptr align 8 %_M_t, i8 0, i64 8, i1 false)
  call void @_ZNSt15__uniq_ptr_dataIN5arrow2io12ReadableFile16ReadableFileImplESt14default_deleteIS3_ELb1ELb1EEC2Ev(ptr noundef nonnull align 8 dereferenceable(8) %_M_t) #14
  ret void
}

; Function Attrs: mustprogress nounwind uwtable
define linkonce_odr hidden void @_ZNSt10unique_ptrIN5arrow2io12ReadableFile16ReadableFileImplESt14default_deleteIS3_EE5resetEPS3_(ptr noundef nonnull align 8 dereferenceable(8) %this, ptr noundef %__p) #1 comdat align 2 {
entry:
  %this.addr = alloca ptr, align 8
  %__p.addr = alloca ptr, align 8
  store ptr %this, ptr %this.addr, align 8
  store ptr %__p, ptr %__p.addr, align 8
  %this1 = load ptr, ptr %this.addr, align 8
  %_M_t = getelementptr inbounds %"class.std::unique_ptr.2", ptr %this1, i32 0, i32 0
  %0 = load ptr, ptr %__p.addr, align 8
  call void @_ZNSt15__uniq_ptr_implIN5arrow2io12ReadableFile16ReadableFileImplESt14default_deleteIS3_EE5resetEPS3_(ptr noundef nonnull align 8 dereferenceable(8) %_M_t, ptr noundef %0) #14
  ret void
}

; Function Attrs: nobuiltin allocsize(0)
declare noundef nonnull ptr @_Znwm(i64 noundef) #2

declare i32 @__gxx_personality_v0(...)

; Function Attrs: mustprogress uwtable
define linkonce_odr hidden void @_ZN5arrow2io12ReadableFile16ReadableFileImplC2EPNS_10MemoryPoolE(ptr noundef nonnull align 8 dereferenceable(80) %this, ptr noundef %pool) unnamed_addr #0 comdat align 2 {
entry:
  %this.addr = alloca ptr, align 8
  %pool.addr = alloca ptr, align 8
  store ptr %this, ptr %this.addr, align 8
  store ptr %pool, ptr %pool.addr, align 8
  %this1 = load ptr, ptr %this.addr, align 8
  %0 = getelementptr inbounds i8, ptr %this1, i64 0
  call void @llvm.memset.p0.i64(ptr align 8 %0, i8 0, i64 65, i1 false)
  call void @_ZN5arrow2io6OSFileC2Ev(ptr noundef nonnull align 8 dereferenceable(65) %this1)
  %pool_ = getelementptr inbounds %"class.arrow::io::ReadableFile::ReadableFileImpl", ptr %this1, i32 0, i32 1
  %1 = load ptr, ptr %pool.addr, align 8
  store ptr %1, ptr %pool_, align 8
  ret void
}

; Function Attrs: nobuiltin nounwind
declare void @_ZdlPv(ptr noundef) #3

; Function Attrs: mustprogress nounwind uwtable
define linkonce_odr hidden void @_ZNSt10unique_ptrIN5arrow2io12ReadableFile16ReadableFileImplESt14default_deleteIS3_EED2Ev(ptr noundef nonnull align 8 dereferenceable(8) %this) unnamed_addr #1 comdat align 2 personality ptr @__gxx_personality_v0 {
entry:
  %this.addr = alloca ptr, align 8
  %__ptr = alloca ptr, align 8
  store ptr %this, ptr %this.addr, align 8
  %this1 = load ptr, ptr %this.addr, align 8
  %_M_t = getelementptr inbounds %"class.std::unique_ptr.2", ptr %this1, i32 0, i32 0
  %call = call noundef nonnull align 8 dereferenceable(8) ptr @_ZNSt15__uniq_ptr_implIN5arrow2io12ReadableFile16ReadableFileImplESt14default_deleteIS3_EE6_M_ptrEv(ptr noundef nonnull align 8 dereferenceable(8) %_M_t) #14
  store ptr %call, ptr %__ptr, align 8
  %0 = load ptr, ptr %__ptr, align 8
  %1 = load ptr, ptr %0, align 8
  %cmp = icmp ne ptr %1, null
  br i1 %cmp, label %if.then, label %if.end

if.then:                                          ; preds = %entry
  %call2 = call noundef nonnull align 1 dereferenceable(1) ptr @_ZNSt10unique_ptrIN5arrow2io12ReadableFile16ReadableFileImplESt14default_deleteIS3_EE11get_deleterEv(ptr noundef nonnull align 8 dereferenceable(8) %this1) #14
  %2 = load ptr, ptr %__ptr, align 8
  %3 = load ptr, ptr %2, align 8
  invoke void @_ZNKSt14default_deleteIN5arrow2io12ReadableFile16ReadableFileImplEEclEPS3_(ptr noundef nonnull align 1 dereferenceable(1) %call2, ptr noundef %3)
          to label %invoke.cont unwind label %terminate.lpad

invoke.cont:                                      ; preds = %if.then
  br label %if.end

if.end:                                           ; preds = %invoke.cont, %entry
  %4 = load ptr, ptr %__ptr, align 8
  store ptr null, ptr %4, align 8
  ret void

terminate.lpad:                                   ; preds = %if.then
  %5 = landingpad { ptr, i32 }
          catch ptr null
  %6 = extractvalue { ptr, i32 } %5, 0
  call void @__clang_call_terminate(ptr %6) #17
  unreachable
}

; Function Attrs: mustprogress nounwind uwtable
define linkonce_odr void @_ZN5arrow2io8internal34RandomAccessFileConcurrencyWrapperINS0_12ReadableFileEED2Ev(ptr noundef nonnull align 8 dereferenceable(40) %this, ptr noundef %vtt) unnamed_addr #1 comdat align 2 {
entry:
  %this.addr = alloca ptr, align 8
  %vtt.addr = alloca ptr, align 8
  store ptr %this, ptr %this.addr, align 8
  store ptr %vtt, ptr %vtt.addr, align 8
  %this1 = load ptr, ptr %this.addr, align 8
  %vtt2 = load ptr, ptr %vtt.addr, align 8
  %0 = load ptr, ptr %vtt2, align 8
  store ptr %0, ptr %this1, align 8
  %1 = getelementptr inbounds ptr, ptr %vtt2, i64 7
  %2 = load ptr, ptr %1, align 8
  %vtable = load ptr, ptr %this1, align 8
  %vbase.offset.ptr = getelementptr i8, ptr %vtable, i64 -56
  %vbase.offset = load i64, ptr %vbase.offset.ptr, align 8
  %add.ptr = getelementptr inbounds i8, ptr %this1, i64 %vbase.offset
  store ptr %2, ptr %add.ptr, align 8
  %3 = getelementptr inbounds ptr, ptr %vtt2, i64 8
  %4 = load ptr, ptr %3, align 8
  %vtable3 = load ptr, ptr %this1, align 8
  %vbase.offset.ptr4 = getelementptr i8, ptr %vtable3, i64 -64
  %vbase.offset5 = load i64, ptr %vbase.offset.ptr4, align 8
  %add.ptr6 = getelementptr inbounds i8, ptr %this1, i64 %vbase.offset5
  store ptr %4, ptr %add.ptr6, align 8
  %add.ptr7 = getelementptr inbounds i8, ptr %this1, i64 8
  store ptr getelementptr inbounds ({ [29 x ptr], [5 x ptr], [15 x ptr] }, ptr @_ZTVN5arrow2io8internal34RandomAccessFileConcurrencyWrapperINS0_12ReadableFileEEE, i32 0, inrange i32 1, i32 2), ptr %add.ptr7, align 8
  %lock_ = getelementptr inbounds %"class.arrow::io::internal::RandomAccessFileConcurrencyWrapper", ptr %this1, i32 0, i32 1
  call void @_ZN5arrow2io8internal22SharedExclusiveCheckerD2Ev(ptr noundef nonnull align 8 dereferenceable(16) %lock_) #14
  %5 = getelementptr inbounds ptr, ptr %vtt2, i64 1
  call void @_ZN5arrow2io16RandomAccessFileD2Ev(ptr noundef nonnull align 8 dereferenceable(24) %this1, ptr noundef %5) #14
  ret void
}

; Function Attrs: mustprogress uwtable
define void @_ZN5arrow2io12ReadableFileC1EPNS_10MemoryPoolE(ptr noundef nonnull align 8 dereferenceable(48) %this, ptr noundef %pool) unnamed_addr #0 align 2 personality ptr @__gxx_personality_v0 {
entry:
  %this.addr = alloca ptr, align 8
  %pool.addr = alloca ptr, align 8
  %exn.slot = alloca ptr, align 8
  %ehselector.slot = alloca i32, align 4
  store ptr %this, ptr %this.addr, align 8
  store ptr %pool, ptr %pool.addr, align 8
  %this1 = load ptr, ptr %this.addr, align 8
  %0 = getelementptr inbounds i8, ptr %this1, i64 48
  call void @_ZN5arrow2io13FileInterfaceC2Ev(ptr noundef nonnull align 8 dereferenceable(28) %0)
  call void @_ZN5arrow2io8ReadableC2Ev(ptr noundef nonnull align 8 dereferenceable(8) %this1) #14
  invoke void @_ZN5arrow2io8internal34RandomAccessFileConcurrencyWrapperINS0_12ReadableFileEEC2Ev(ptr noundef nonnull align 8 dereferenceable(40) %this1, ptr noundef getelementptr inbounds ([12 x ptr], ptr @_ZTTN5arrow2io12ReadableFileE, i64 0, i64 1))
          to label %invoke.cont unwind label %lpad

invoke.cont:                                      ; preds = %entry
  store ptr getelementptr inbounds ({ [30 x ptr], [5 x ptr], [15 x ptr] }, ptr @_ZTVN5arrow2io12ReadableFileE, i32 0, inrange i32 0, i32 8), ptr %this1, align 8
  %add.ptr = getelementptr inbounds i8, ptr %this1, i64 48
  store ptr getelementptr inbounds ({ [30 x ptr], [5 x ptr], [15 x ptr] }, ptr @_ZTVN5arrow2io12ReadableFileE, i32 0, inrange i32 2, i32 8), ptr %add.ptr, align 8
  store ptr getelementptr inbounds ({ [30 x ptr], [5 x ptr], [15 x ptr] }, ptr @_ZTVN5arrow2io12ReadableFileE, i32 0, inrange i32 0, i32 8), ptr %this1, align 8
  %add.ptr2 = getelementptr inbounds i8, ptr %this1, i64 8
  store ptr getelementptr inbounds ({ [30 x ptr], [5 x ptr], [15 x ptr] }, ptr @_ZTVN5arrow2io12ReadableFileE, i32 0, inrange i32 1, i32 2), ptr %add.ptr2, align 8
  %impl_ = getelementptr inbounds %"class.arrow::io::ReadableFile", ptr %this1, i32 0, i32 1
  call void @_ZNSt10unique_ptrIN5arrow2io12ReadableFile16ReadableFileImplESt14default_deleteIS3_EEC2IS5_vEEv(ptr noundef nonnull align 8 dereferenceable(8) %impl_) #14
  %impl_3 = getelementptr inbounds %"class.arrow::io::ReadableFile", ptr %this1, i32 0, i32 1
  %call = invoke noalias noundef nonnull ptr @_Znwm(i64 noundef 80) #15
          to label %invoke.cont5 unwind label %lpad4

invoke.cont5:                                     ; preds = %invoke.cont
  %1 = load ptr, ptr %pool.addr, align 8
  invoke void @_ZN5arrow2io12ReadableFile16ReadableFileImplC2EPNS_10MemoryPoolE(ptr noundef nonnull align 8 dereferenceable(80) %call, ptr noundef %1)
          to label %invoke.cont7 unwind label %lpad6

invoke.cont7:                                     ; preds = %invoke.cont5
  call void @_ZNSt10unique_ptrIN5arrow2io12ReadableFile16ReadableFileImplESt14default_deleteIS3_EE5resetEPS3_(ptr noundef nonnull align 8 dereferenceable(8) %impl_3, ptr noundef %call) #14
  ret void

lpad:                                             ; preds = %entry
  %2 = landingpad { ptr, i32 }
          cleanup
  %3 = extractvalue { ptr, i32 } %2, 0
  store ptr %3, ptr %exn.slot, align 8
  %4 = extractvalue { ptr, i32 } %2, 1
  store i32 %4, ptr %ehselector.slot, align 4
  br label %ehcleanup9

lpad4:                                            ; preds = %invoke.cont
  %5 = landingpad { ptr, i32 }
          cleanup
  %6 = extractvalue { ptr, i32 } %5, 0
  store ptr %6, ptr %exn.slot, align 8
  %7 = extractvalue { ptr, i32 } %5, 1
  store i32 %7, ptr %ehselector.slot, align 4
  br label %ehcleanup

lpad6:                                            ; preds = %invoke.cont5
  %8 = landingpad { ptr, i32 }
          cleanup
  %9 = extractvalue { ptr, i32 } %8, 0
  store ptr %9, ptr %exn.slot, align 8
  %10 = extractvalue { ptr, i32 } %8, 1
  store i32 %10, ptr %ehselector.slot, align 4
  call void @_ZdlPv(ptr noundef %call) #16
  br label %ehcleanup

ehcleanup:                                        ; preds = %lpad6, %lpad4
  call void @_ZNSt10unique_ptrIN5arrow2io12ReadableFile16ReadableFileImplESt14default_deleteIS3_EED2Ev(ptr noundef nonnull align 8 dereferenceable(8) %impl_) #14
  call void @_ZN5arrow2io8internal34RandomAccessFileConcurrencyWrapperINS0_12ReadableFileEED2Ev(ptr noundef nonnull align 8 dereferenceable(40) %this1, ptr noundef getelementptr inbounds ([12 x ptr], ptr @_ZTTN5arrow2io12ReadableFileE, i64 0, i64 1)) #14
  br label %ehcleanup9

ehcleanup9:                                       ; preds = %ehcleanup, %lpad
  call void @_ZN5arrow2io8ReadableD2Ev(ptr noundef nonnull align 8 dereferenceable(8) %this1) #14
  %11 = getelementptr inbounds i8, ptr %this1, i64 48
  call void @_ZN5arrow2io13FileInterfaceD2Ev(ptr noundef nonnull align 8 dereferenceable(28) %11) #14
  br label %eh.resume

eh.resume:                                        ; preds = %ehcleanup9
  %exn = load ptr, ptr %exn.slot, align 8
  %sel = load i32, ptr %ehselector.slot, align 4
  %lpad.val = insertvalue { ptr, i32 } poison, ptr %exn, 0
  %lpad.val11 = insertvalue { ptr, i32 } %lpad.val, i32 %sel, 1
  resume { ptr, i32 } %lpad.val11
}

; Function Attrs: mustprogress nounwind uwtable
define linkonce_odr void @_ZN5arrow2io13FileInterfaceC2Ev(ptr noundef nonnull align 8 dereferenceable(28) %this) unnamed_addr #1 comdat align 2 {
entry:
  %this.addr = alloca ptr, align 8
  store ptr %this, ptr %this.addr, align 8
  %this1 = load ptr, ptr %this.addr, align 8
  %0 = getelementptr inbounds i8, ptr %this1, i64 8
  call void @_ZNSt23enable_shared_from_thisIN5arrow2io13FileInterfaceEEC2Ev(ptr noundef nonnull align 8 dereferenceable(16) %0) #14
  store ptr getelementptr inbounds ({ [9 x ptr] }, ptr @_ZTVN5arrow2io13FileInterfaceE, i32 0, inrange i32 0, i32 2), ptr %this1, align 8
  %mode_ = getelementptr inbounds %"class.arrow::io::FileInterface", ptr %this1, i32 0, i32 2
  store i32 0, ptr %mode_, align 8
  ret void
}

; Function Attrs: mustprogress nounwind uwtable
define linkonce_odr void @_ZN5arrow2io8ReadableC2Ev(ptr noundef nonnull align 8 dereferenceable(8) %this) unnamed_addr #1 comdat align 2 {
entry:
  %this.addr = alloca ptr, align 8
  store ptr %this, ptr %this.addr, align 8
  %this1 = load ptr, ptr %this.addr, align 8
  store ptr getelementptr inbounds ({ [7 x ptr] }, ptr @_ZTVN5arrow2io8ReadableE, i32 0, inrange i32 0, i32 2), ptr %this1, align 8
  ret void
}

; Function Attrs: mustprogress nounwind uwtable
define linkonce_odr void @_ZN5arrow2io8ReadableD2Ev(ptr noundef nonnull align 8 dereferenceable(8) %this) unnamed_addr #1 comdat align 2 {
entry:
  %this.addr = alloca ptr, align 8
  store ptr %this, ptr %this.addr, align 8
  ret void
}

; Function Attrs: nounwind
declare void @_ZN5arrow2io13FileInterfaceD2Ev(ptr noundef nonnull align 8 dereferenceable(28)) unnamed_addr #4

; Function Attrs: mustprogress nounwind uwtable
define void @_ZN5arrow2io12ReadableFileD2Ev(ptr noundef nonnull align 8 dereferenceable(48) %this, ptr noundef %vtt) unnamed_addr #1 align 2 personality ptr @__gxx_personality_v0 {
entry:
  %this.addr = alloca ptr, align 8
  %vtt.addr = alloca ptr, align 8
  store ptr %this, ptr %this.addr, align 8
  store ptr %vtt, ptr %vtt.addr, align 8
  %this1 = load ptr, ptr %this.addr, align 8
  %vtt2 = load ptr, ptr %vtt.addr, align 8
  %0 = load ptr, ptr %vtt2, align 8
  store ptr %0, ptr %this1, align 8
  %1 = getelementptr inbounds ptr, ptr %vtt2, i64 10
  %2 = load ptr, ptr %1, align 8
  %vtable = load ptr, ptr %this1, align 8
  %vbase.offset.ptr = getelementptr i8, ptr %vtable, i64 -56
  %vbase.offset = load i64, ptr %vbase.offset.ptr, align 8
  %add.ptr = getelementptr inbounds i8, ptr %this1, i64 %vbase.offset
  store ptr %2, ptr %add.ptr, align 8
  %3 = getelementptr inbounds ptr, ptr %vtt2, i64 11
  %4 = load ptr, ptr %3, align 8
  %vtable3 = load ptr, ptr %this1, align 8
  %vbase.offset.ptr4 = getelementptr i8, ptr %vtable3, i64 -64
  %vbase.offset5 = load i64, ptr %vbase.offset.ptr4, align 8
  %add.ptr6 = getelementptr inbounds i8, ptr %this1, i64 %vbase.offset5
  store ptr %4, ptr %add.ptr6, align 8
  %add.ptr7 = getelementptr inbounds i8, ptr %this1, i64 8
  store ptr getelementptr inbounds ({ [30 x ptr], [5 x ptr], [15 x ptr] }, ptr @_ZTVN5arrow2io12ReadableFileE, i32 0, inrange i32 1, i32 2), ptr %add.ptr7, align 8
  %vtable8 = load ptr, ptr %this1, align 8
  %vbase.offset.ptr9 = getelementptr i8, ptr %vtable8, i64 -56
  %vbase.offset10 = load i64, ptr %vbase.offset.ptr9, align 8
  %add.ptr11 = getelementptr inbounds i8, ptr %this1, i64 %vbase.offset10
  invoke void @_ZN5arrow2io8internal19CloseFromDestructorEPNS0_13FileInterfaceE(ptr noundef %add.ptr11)
          to label %invoke.cont unwind label %terminate.lpad

invoke.cont:                                      ; preds = %entry
  %impl_ = getelementptr inbounds %"class.arrow::io::ReadableFile", ptr %this1, i32 0, i32 1
  call void @_ZNSt10unique_ptrIN5arrow2io12ReadableFile16ReadableFileImplESt14default_deleteIS3_EED2Ev(ptr noundef nonnull align 8 dereferenceable(8) %impl_) #14
  %5 = getelementptr inbounds ptr, ptr %vtt2, i64 1
  call void @_ZN5arrow2io8internal34RandomAccessFileConcurrencyWrapperINS0_12ReadableFileEED2Ev(ptr noundef nonnull align 8 dereferenceable(40) %this1, ptr noundef %5) #14
  ret void

terminate.lpad:                                   ; preds = %entry
  %6 = landingpad { ptr, i32 }
          catch ptr null
  %7 = extractvalue { ptr, i32 } %6, 0
  call void @__clang_call_terminate(ptr %7) #17
  unreachable
}

declare void @_ZN5arrow2io8internal19CloseFromDestructorEPNS0_13FileInterfaceE(ptr noundef) #5

; Function Attrs: noreturn nounwind uwtable
define linkonce_odr hidden void @__clang_call_terminate(ptr noundef %0) #6 comdat {
  %2 = call ptr @__cxa_begin_catch(ptr %0) #14
  call void @_ZSt9terminatev() #17
  unreachable
}

declare ptr @__cxa_begin_catch(ptr)

declare void @_ZSt9terminatev()

; Function Attrs: mustprogress nounwind uwtable
define void @_ZN5arrow2io12ReadableFileD1Ev(ptr noundef nonnull align 8 dereferenceable(48) %this) unnamed_addr #1 align 2 {
entry:
  %this.addr = alloca ptr, align 8
  store ptr %this, ptr %this.addr, align 8
  %this1 = load ptr, ptr %this.addr, align 8
  call void @_ZN5arrow2io12ReadableFileD2Ev(ptr noundef nonnull align 8 dereferenceable(48) %this1, ptr noundef @_ZTTN5arrow2io12ReadableFileE) #14
  call void @_ZN5arrow2io8ReadableD2Ev(ptr noundef nonnull align 8 dereferenceable(8) %this1) #14
  %0 = getelementptr inbounds i8, ptr %this1, i64 48
  call void @_ZN5arrow2io13FileInterfaceD2Ev(ptr noundef nonnull align 8 dereferenceable(28) %0) #14
  ret void
}

; Function Attrs: nounwind uwtable
define void @_ZTv0_n24_N5arrow2io12ReadableFileD1Ev(ptr noundef %this) unnamed_addr #7 align 2 {
entry:
  %this.addr = alloca ptr, align 8
  store ptr %this, ptr %this.addr, align 8
  %this1 = load ptr, ptr %this.addr, align 8
  %0 = load ptr, ptr %this1, align 8
  %1 = getelementptr inbounds i8, ptr %0, i64 -24
  %2 = load i64, ptr %1, align 8
  %3 = getelementptr inbounds i8, ptr %this1, i64 %2
  tail call void @_ZN5arrow2io12ReadableFileD1Ev(ptr noundef nonnull align 8 dereferenceable(48) %3) #14
  ret void
}

; Function Attrs: nounwind uwtable
define void @_ZThn8_N5arrow2io12ReadableFileD1Ev(ptr noundef %this) unnamed_addr #7 align 2 {
entry:
  %this.addr = alloca ptr, align 8
  store ptr %this, ptr %this.addr, align 8
  %this1 = load ptr, ptr %this.addr, align 8
  %0 = getelementptr inbounds i8, ptr %this1, i64 -8
  tail call void @_ZN5arrow2io12ReadableFileD1Ev(ptr noundef nonnull align 8 dereferenceable(48) %0) #14
  ret void
}

; Function Attrs: mustprogress nounwind uwtable
define void @_ZN5arrow2io12ReadableFileD0Ev(ptr noundef nonnull align 8 dereferenceable(48) %this) unnamed_addr #1 align 2 {
entry:
  %this.addr = alloca ptr, align 8
  store ptr %this, ptr %this.addr, align 8
  %this1 = load ptr, ptr %this.addr, align 8
  call void @_ZN5arrow2io12ReadableFileD1Ev(ptr noundef nonnull align 8 dereferenceable(48) %this1) #14
  call void @_ZdlPv(ptr noundef %this1) #16
  ret void
}

; Function Attrs: nounwind uwtable
define void @_ZTv0_n24_N5arrow2io12ReadableFileD0Ev(ptr noundef %this) unnamed_addr #7 align 2 {
entry:
  %this.addr = alloca ptr, align 8
  store ptr %this, ptr %this.addr, align 8
  %this1 = load ptr, ptr %this.addr, align 8
  %0 = load ptr, ptr %this1, align 8
  %1 = getelementptr inbounds i8, ptr %0, i64 -24
  %2 = load i64, ptr %1, align 8
  %3 = getelementptr inbounds i8, ptr %this1, i64 %2
  tail call void @_ZN5arrow2io12ReadableFileD0Ev(ptr noundef nonnull align 8 dereferenceable(48) %3) #14
  ret void
}

; Function Attrs: nounwind uwtable
define void @_ZThn8_N5arrow2io12ReadableFileD0Ev(ptr noundef %this) unnamed_addr #7 align 2 {
entry:
  %this.addr = alloca ptr, align 8
  store ptr %this, ptr %this.addr, align 8
  %this1 = load ptr, ptr %this.addr, align 8
  %0 = getelementptr inbounds i8, ptr %this1, i64 -8
  tail call void @_ZN5arrow2io12ReadableFileD0Ev(ptr noundef nonnull align 8 dereferenceable(48) %0) #14
  ret void
}

; Function Attrs: mustprogress uwtable
define void @_ZN5arrow2io12ReadableFile4OpenERKNSt7__cxx1112basic_stringIcSt11char_traitsIcESaIcEEEPNS_10MemoryPoolE(ptr noalias sret(%"class.arrow::Result") align 8 %agg.result, ptr noundef nonnull align 8 dereferenceable(32) %path, ptr noundef %pool) #0 align 2 personality ptr @__gxx_personality_v0 {
entry:
  %result.ptr = alloca ptr, align 8
  %path.addr = alloca ptr, align 8
  %pool.addr = alloca ptr, align 8
  %file = alloca %"class.std::shared_ptr.22", align 8
  %exn.slot = alloca ptr, align 8
  %ehselector.slot = alloca i32, align 4
  %__s = alloca %"class.arrow::Status", align 8
  %ref.tmp = alloca %"class.arrow::Status", align 8
  %cleanup.dest.slot = alloca i32, align 4
  store ptr %agg.result, ptr %result.ptr, align 8
  store ptr %path, ptr %path.addr, align 8
  store ptr %pool, ptr %pool.addr, align 8
  %call = call noalias noundef nonnull ptr @_Znwm(i64 noundef 80) #15
  %0 = load ptr, ptr %pool.addr, align 8
  invoke void @_ZN5arrow2io12ReadableFileC1EPNS_10MemoryPoolE(ptr noundef nonnull align 8 dereferenceable(48) %call, ptr noundef %0)
          to label %invoke.cont unwind label %lpad

invoke.cont:                                      ; preds = %entry
  call void @_ZNSt10shared_ptrIN5arrow2io12ReadableFileEEC2IS2_vEEPT_(ptr noundef nonnull align 8 dereferenceable(16) %file, ptr noundef %call)
  br label %do.body

do.body:                                          ; preds = %invoke.cont
  %call1 = call noundef ptr @_ZNKSt19__shared_ptr_accessIN5arrow2io12ReadableFileELN9__gnu_cxx12_Lock_policyE2ELb0ELb0EEptEv(ptr noundef nonnull align 1 dereferenceable(1) %file) #14
  %impl_ = getelementptr inbounds %"class.arrow::io::ReadableFile", ptr %call1, i32 0, i32 1
  %call2 = call noundef ptr @_ZNKSt10unique_ptrIN5arrow2io12ReadableFile16ReadableFileImplESt14default_deleteIS3_EEptEv(ptr noundef nonnull align 8 dereferenceable(8) %impl_) #14
  %1 = load ptr, ptr %path.addr, align 8
  invoke void @_ZN5arrow2io12ReadableFile16ReadableFileImpl4OpenERKNSt7__cxx1112basic_stringIcSt11char_traitsIcESaIcEEE(ptr sret(%"class.arrow::Status") align 8 %ref.tmp, ptr noundef nonnull align 8 dereferenceable(80) %call2, ptr noundef nonnull align 8 dereferenceable(32) %1)
          to label %invoke.cont4 unwind label %lpad3

invoke.cont4:                                     ; preds = %do.body
  invoke void @_ZN5arrow8internal15GenericToStatusEONS_6StatusE(ptr sret(%"class.arrow::Status") align 8 %__s, ptr noundef nonnull align 8 dereferenceable(8) %ref.tmp)
          to label %invoke.cont6 unwind label %lpad5

invoke.cont6:                                     ; preds = %invoke.cont4
  call void @_ZN5arrow6StatusD2Ev(ptr noundef nonnull align 8 dereferenceable(8) %ref.tmp) #14
  br label %do.body7

do.body7:                                         ; preds = %invoke.cont6
  %call10 = invoke noundef zeroext i1 @_ZNK5arrow6Status2okEv(ptr noundef nonnull align 8 dereferenceable(8) %__s)
          to label %invoke.cont9 unwind label %lpad8

invoke.cont9:                                     ; preds = %do.body7
  %lnot = xor i1 %call10, true
  %lnot11 = xor i1 %lnot, true
  %lnot12 = xor i1 %lnot11, true
  br i1 %lnot12, label %if.then, label %if.end

if.then:                                          ; preds = %invoke.cont9
  call void @_ZN5arrow6ResultISt10shared_ptrINS_2io12ReadableFileEEEC2ERKNS_6StatusE(ptr noundef nonnull align 8 dereferenceable(24) %agg.result, ptr noundef nonnull align 8 dereferenceable(8) %__s) #14
  store i32 1, ptr %cleanup.dest.slot, align 4
  br label %cleanup

lpad:                                             ; preds = %entry
  %2 = landingpad { ptr, i32 }
          cleanup
  %3 = extractvalue { ptr, i32 } %2, 0
  store ptr %3, ptr %exn.slot, align 8
  %4 = extractvalue { ptr, i32 } %2, 1
  store i32 %4, ptr %ehselector.slot, align 4
  call void @_ZdlPv(ptr noundef %call) #16
  br label %eh.resume

lpad3:                                            ; preds = %do.body
  %5 = landingpad { ptr, i32 }
          cleanup
  %6 = extractvalue { ptr, i32 } %5, 0
  store ptr %6, ptr %exn.slot, align 8
  %7 = extractvalue { ptr, i32 } %5, 1
  store i32 %7, ptr %ehselector.slot, align 4
  br label %ehcleanup

lpad5:                                            ; preds = %invoke.cont4
  %8 = landingpad { ptr, i32 }
          cleanup
  %9 = extractvalue { ptr, i32 } %8, 0
  store ptr %9, ptr %exn.slot, align 8
  %10 = extractvalue { ptr, i32 } %8, 1
  store i32 %10, ptr %ehselector.slot, align 4
  call void @_ZN5arrow6StatusD2Ev(ptr noundef nonnull align 8 dereferenceable(8) %ref.tmp) #14
  br label %ehcleanup

lpad8:                                            ; preds = %do.body7
  %11 = landingpad { ptr, i32 }
          cleanup
  %12 = extractvalue { ptr, i32 } %11, 0
  store ptr %12, ptr %exn.slot, align 8
  %13 = extractvalue { ptr, i32 } %11, 1
  store i32 %13, ptr %ehselector.slot, align 4
  call void @_ZN5arrow6StatusD2Ev(ptr noundef nonnull align 8 dereferenceable(8) %__s) #14
  br label %ehcleanup

if.end:                                           ; preds = %invoke.cont9
  br label %do.cond

do.cond:                                          ; preds = %if.end
  br label %do.end

do.end:                                           ; preds = %do.cond
  store i32 0, ptr %cleanup.dest.slot, align 4
  br label %cleanup

cleanup:                                          ; preds = %do.end, %if.then
  call void @_ZN5arrow6StatusD2Ev(ptr noundef nonnull align 8 dereferenceable(8) %__s) #14
  %cleanup.dest = load i32, ptr %cleanup.dest.slot, align 4
  switch i32 %cleanup.dest, label %cleanup15 [
    i32 0, label %cleanup.cont
  ]

cleanup.cont:                                     ; preds = %cleanup
  br label %do.cond13

do.cond13:                                        ; preds = %cleanup.cont
  br label %do.end14

do.end14:                                         ; preds = %do.cond13
  call void @_ZN5arrow6ResultISt10shared_ptrINS_2io12ReadableFileEEEC2EOS4_(ptr noundef nonnull align 8 dereferenceable(24) %agg.result, ptr noundef nonnull align 8 dereferenceable(16) %file) #14
  store i32 1, ptr %cleanup.dest.slot, align 4
  br label %cleanup15

cleanup15:                                        ; preds = %do.end14, %cleanup
  call void @_ZNSt10shared_ptrIN5arrow2io12ReadableFileEED2Ev(ptr noundef nonnull align 8 dereferenceable(16) %file) #14
  ret void

ehcleanup:                                        ; preds = %lpad8, %lpad5, %lpad3
  call void @_ZNSt10shared_ptrIN5arrow2io12ReadableFileEED2Ev(ptr noundef nonnull align 8 dereferenceable(16) %file) #14
  br label %eh.resume

eh.resume:                                        ; preds = %ehcleanup, %lpad
  %exn = load ptr, ptr %exn.slot, align 8
  %sel = load i32, ptr %ehselector.slot, align 4
  %lpad.val = insertvalue { ptr, i32 } poison, ptr %exn, 0
  %lpad.val16 = insertvalue { ptr, i32 } %lpad.val, i32 %sel, 1
  resume { ptr, i32 } %lpad.val16
}

; Function Attrs: mustprogress uwtable
define linkonce_odr void @_ZNSt10shared_ptrIN5arrow2io12ReadableFileEEC2IS2_vEEPT_(ptr noundef nonnull align 8 dereferenceable(16) %this, ptr noundef %__p) unnamed_addr #0 comdat align 2 {
entry:
  %this.addr = alloca ptr, align 8
  %__p.addr = alloca ptr, align 8
  store ptr %this, ptr %this.addr, align 8
  store ptr %__p, ptr %__p.addr, align 8
  %this1 = load ptr, ptr %this.addr, align 8
  %0 = load ptr, ptr %__p.addr, align 8
  call void @_ZNSt12__shared_ptrIN5arrow2io12ReadableFileELN9__gnu_cxx12_Lock_policyE2EEC2IS2_vEEPT_(ptr noundef nonnull align 8 dereferenceable(16) %this1, ptr noundef %0)
  ret void
}

; Function Attrs: mustprogress nounwind uwtable
define linkonce_odr void @_ZN5arrow8internal15GenericToStatusEONS_6StatusE(ptr noalias sret(%"class.arrow::Status") align 8 %agg.result, ptr noundef nonnull align 8 dereferenceable(8) %st) #1 comdat {
entry:
  %result.ptr = alloca ptr, align 8
  %st.addr = alloca ptr, align 8
  store ptr %agg.result, ptr %result.ptr, align 8
  store ptr %st, ptr %st.addr, align 8
  %0 = load ptr, ptr %st.addr, align 8
  call void @_ZN5arrow6StatusC2EOS0_(ptr noundef nonnull align 8 dereferenceable(8) %agg.result, ptr noundef nonnull align 8 dereferenceable(8) %0) #14
  ret void
}

; Function Attrs: mustprogress nounwind uwtable
define linkonce_odr noundef ptr @_ZNKSt19__shared_ptr_accessIN5arrow2io12ReadableFileELN9__gnu_cxx12_Lock_policyE2ELb0ELb0EEptEv(ptr noundef nonnull align 1 dereferenceable(1) %this) #1 comdat align 2 {
entry:
  %this.addr = alloca ptr, align 8
  store ptr %this, ptr %this.addr, align 8
  %this1 = load ptr, ptr %this.addr, align 8
  %call = call noundef ptr @_ZNKSt19__shared_ptr_accessIN5arrow2io12ReadableFileELN9__gnu_cxx12_Lock_policyE2ELb0ELb0EE6_M_getEv(ptr noundef nonnull align 1 dereferenceable(1) %this1) #14
  ret ptr %call
}

; Function Attrs: mustprogress nounwind uwtable
define linkonce_odr hidden noundef ptr @_ZNKSt10unique_ptrIN5arrow2io12ReadableFile16ReadableFileImplESt14default_deleteIS3_EEptEv(ptr noundef nonnull align 8 dereferenceable(8) %this) #1 comdat align 2 {
entry:
  %this.addr = alloca ptr, align 8
  store ptr %this, ptr %this.addr, align 8
  %this1 = load ptr, ptr %this.addr, align 8
  %call = call noundef ptr @_ZNKSt10unique_ptrIN5arrow2io12ReadableFile16ReadableFileImplESt14default_deleteIS3_EE3getEv(ptr noundef nonnull align 8 dereferenceable(8) %this1) #14
  ret ptr %call
}

; Function Attrs: mustprogress uwtable
define linkonce_odr hidden void @_ZN5arrow2io12ReadableFile16ReadableFileImpl4OpenERKNSt7__cxx1112basic_stringIcSt11char_traitsIcESaIcEEE(ptr noalias sret(%"class.arrow::Status") align 8 %agg.result, ptr noundef nonnull align 8 dereferenceable(80) %this, ptr noundef nonnull align 8 dereferenceable(32) %path) #0 comdat align 2 {
entry:
  %result.ptr = alloca ptr, align 8
  %this.addr = alloca ptr, align 8
  %path.addr = alloca ptr, align 8
  store ptr %agg.result, ptr %result.ptr, align 8
  store ptr %this, ptr %this.addr, align 8
  store ptr %path, ptr %path.addr, align 8
  %this1 = load ptr, ptr %this.addr, align 8
  %0 = load ptr, ptr %path.addr, align 8
  call void @_ZN5arrow2io6OSFile12OpenReadableERKNSt7__cxx1112basic_stringIcSt11char_traitsIcESaIcEEE(ptr sret(%"class.arrow::Status") align 8 %agg.result, ptr noundef nonnull align 8 dereferenceable(65) %this1, ptr noundef nonnull align 8 dereferenceable(32) %0)
  ret void
}

; Function Attrs: mustprogress nounwind uwtable
define linkonce_odr void @_ZN5arrow6StatusD2Ev(ptr noundef nonnull align 8 dereferenceable(8) %this) unnamed_addr #1 comdat align 2 personality ptr @__gxx_personality_v0 {
entry:
  %this.addr = alloca ptr, align 8
  store ptr %this, ptr %this.addr, align 8
  %this1 = load ptr, ptr %this.addr, align 8
  %state_ = getelementptr inbounds %"class.arrow::Status", ptr %this1, i32 0, i32 0
  %0 = load ptr, ptr %state_, align 8
  %cmp = icmp ne ptr %0, null
  %lnot = xor i1 %cmp, true
  %lnot2 = xor i1 %lnot, true
  br i1 %lnot2, label %if.then, label %if.end

if.then:                                          ; preds = %entry
  invoke void @_ZN5arrow6Status11DeleteStateEv(ptr noundef nonnull align 8 dereferenceable(8) %this1)
          to label %invoke.cont unwind label %terminate.lpad

invoke.cont:                                      ; preds = %if.then
  br label %if.end

if.end:                                           ; preds = %invoke.cont, %entry
  call void @_ZN5arrow4util19ToStringOstreamableINS_6StatusEED2Ev(ptr noundef nonnull align 1 dereferenceable(1) %this1) #14
  call void @_ZN5arrow4util18EqualityComparableINS_6StatusEED2Ev(ptr noundef nonnull align 1 dereferenceable(1) %this1) #14
  ret void

terminate.lpad:                                   ; preds = %if.then
  %1 = landingpad { ptr, i32 }
          catch ptr null
  %2 = extractvalue { ptr, i32 } %1, 0
  call void @__clang_call_terminate(ptr %2) #17
  unreachable
}

; Function Attrs: mustprogress nounwind uwtable
define linkonce_odr noundef zeroext i1 @_ZNK5arrow6Status2okEv(ptr noundef nonnull align 8 dereferenceable(8) %this) #1 comdat align 2 {
entry:
  %this.addr = alloca ptr, align 8
  store ptr %this, ptr %this.addr, align 8
  %this1 = load ptr, ptr %this.addr, align 8
  %state_ = getelementptr inbounds %"class.arrow::Status", ptr %this1, i32 0, i32 0
  %0 = load ptr, ptr %state_, align 8
  %cmp = icmp eq ptr %0, null
  ret i1 %cmp
}

; Function Attrs: mustprogress nounwind uwtable
define linkonce_odr void @_ZN5arrow6ResultISt10shared_ptrINS_2io12ReadableFileEEEC2ERKNS_6StatusE(ptr noundef nonnull align 8 dereferenceable(24) %this, ptr noundef nonnull align 8 dereferenceable(8) %status) unnamed_addr #1 comdat align 2 personality ptr @__gxx_personality_v0 {
entry:
  %this.addr = alloca ptr, align 8
  %status.addr = alloca ptr, align 8
  %ref.tmp = alloca %"class.std::__cxx11::basic_string", align 8
  %ref.tmp3 = alloca %"class.std::__cxx11::basic_string", align 8
  %ref.tmp4 = alloca %"class.std::allocator", align 1
  %ref.tmp6 = alloca %"class.std::__cxx11::basic_string", align 8
  store ptr %this, ptr %this.addr, align 8
  store ptr %status, ptr %status.addr, align 8
  %this1 = load ptr, ptr %this.addr, align 8
  %status_ = getelementptr inbounds %"class.arrow::Result", ptr %this1, i32 0, i32 0
  %0 = load ptr, ptr %status.addr, align 8
  invoke void @_ZN5arrow6StatusC2ERKS0_(ptr noundef nonnull align 8 dereferenceable(8) %status_, ptr noundef nonnull align 8 dereferenceable(8) %0)
          to label %invoke.cont unwind label %terminate.lpad

invoke.cont:                                      ; preds = %entry
  %1 = load ptr, ptr %status.addr, align 8
  %call = call noundef zeroext i1 @_ZNK5arrow6Status2okEv(ptr noundef nonnull align 8 dereferenceable(8) %1)
  %lnot = xor i1 %call, true
  %lnot2 = xor i1 %lnot, true
  br i1 %lnot2, label %if.then, label %if.end

if.then:                                          ; preds = %invoke.cont
  call void @_ZNSaIcEC1Ev(ptr noundef nonnull align 1 dereferenceable(1) %ref.tmp4) #14
  invoke void @_ZNSt7__cxx1112basic_stringIcSt11char_traitsIcESaIcEEC2IS3_EEPKcRKS3_(ptr noundef nonnull align 8 dereferenceable(32) %ref.tmp3, ptr noundef @.str.17, ptr noundef nonnull align 1 dereferenceable(1) %ref.tmp4)
          to label %invoke.cont5 unwind label %terminate.lpad

invoke.cont5:                                     ; preds = %if.then
  %2 = load ptr, ptr %status.addr, align 8
  invoke void @_ZNK5arrow6Status8ToStringB5cxx11Ev(ptr sret(%"class.std::__cxx11::basic_string") align 8 %ref.tmp6, ptr noundef nonnull align 8 dereferenceable(8) %2)
          to label %invoke.cont7 unwind label %terminate.lpad

invoke.cont7:                                     ; preds = %invoke.cont5
  invoke void @_ZStplIcSt11char_traitsIcESaIcEENSt7__cxx1112basic_stringIT_T0_T1_EEOS8_S9_(ptr sret(%"class.std::__cxx11::basic_string") align 8 %ref.tmp, ptr noundef nonnull align 8 dereferenceable(32) %ref.tmp3, ptr noundef nonnull align 8 dereferenceable(32) %ref.tmp6)
          to label %invoke.cont8 unwind label %terminate.lpad

invoke.cont8:                                     ; preds = %invoke.cont7
  invoke void @_ZN5arrow8internal14DieWithMessageERKNSt7__cxx1112basic_stringIcSt11char_traitsIcESaIcEEE(ptr noundef nonnull align 8 dereferenceable(32) %ref.tmp)
          to label %invoke.cont9 unwind label %terminate.lpad

invoke.cont9:                                     ; preds = %invoke.cont8
  call void @_ZNSt7__cxx1112basic_stringIcSt11char_traitsIcESaIcEED1Ev(ptr noundef nonnull align 8 dereferenceable(32) %ref.tmp) #14
  call void @_ZNSt7__cxx1112basic_stringIcSt11char_traitsIcESaIcEED1Ev(ptr noundef nonnull align 8 dereferenceable(32) %ref.tmp6) #14
  call void @_ZNSt7__cxx1112basic_stringIcSt11char_traitsIcESaIcEED1Ev(ptr noundef nonnull align 8 dereferenceable(32) %ref.tmp3) #14
  call void @_ZNSaIcED1Ev(ptr noundef nonnull align 1 dereferenceable(1) %ref.tmp4) #14
  br label %if.end

if.end:                                           ; preds = %invoke.cont9, %invoke.cont
  ret void

terminate.lpad:                                   ; preds = %invoke.cont8, %invoke.cont7, %invoke.cont5, %if.then, %entry
  %3 = landingpad { ptr, i32 }
          catch ptr null
  %4 = extractvalue { ptr, i32 } %3, 0
  call void @__clang_call_terminate(ptr %4) #17
  unreachable
}

; Function Attrs: mustprogress nounwind uwtable
define linkonce_odr void @_ZN5arrow6ResultISt10shared_ptrINS_2io12ReadableFileEEEC2EOS4_(ptr noundef nonnull align 8 dereferenceable(24) %this, ptr noundef nonnull align 8 dereferenceable(16) %value) unnamed_addr #1 comdat align 2 {
entry:
  %this.addr = alloca ptr, align 8
  %value.addr = alloca ptr, align 8
  store ptr %this, ptr %this.addr, align 8
  store ptr %value, ptr %value.addr, align 8
  %this1 = load ptr, ptr %this.addr, align 8
  %status_ = getelementptr inbounds %"class.arrow::Result", ptr %this1, i32 0, i32 0
  call void @_ZN5arrow6StatusC2Ev(ptr noundef nonnull align 8 dereferenceable(8) %status_) #14
  %0 = load ptr, ptr %value.addr, align 8
  call void @_ZN5arrow6ResultISt10shared_ptrINS_2io12ReadableFileEEE14ConstructValueIS4_EEvOT_(ptr noundef nonnull align 8 dereferenceable(24) %this1, ptr noundef nonnull align 8 dereferenceable(16) %0) #14
  ret void
}

; Function Attrs: mustprogress nounwind uwtable
define linkonce_odr void @_ZNSt10shared_ptrIN5arrow2io12ReadableFileEED2Ev(ptr noundef nonnull align 8 dereferenceable(16) %this) unnamed_addr #1 comdat align 2 {
entry:
  %this.addr = alloca ptr, align 8
  store ptr %this, ptr %this.addr, align 8
  %this1 = load ptr, ptr %this.addr, align 8
  call void @_ZNSt12__shared_ptrIN5arrow2io12ReadableFileELN9__gnu_cxx12_Lock_policyE2EED2Ev(ptr noundef nonnull align 8 dereferenceable(16) %this1) #14
  ret void
}

; Function Attrs: mustprogress uwtable
define void @_ZN5arrow2io12ReadableFile4OpenEiPNS_10MemoryPoolE(ptr noalias sret(%"class.arrow::Result") align 8 %agg.result, i32 noundef %fd, ptr noundef %pool) #0 align 2 personality ptr @__gxx_personality_v0 {
entry:
  %result.ptr = alloca ptr, align 8
  %fd.addr = alloca i32, align 4
  %pool.addr = alloca ptr, align 8
  %file = alloca %"class.std::shared_ptr.22", align 8
  %exn.slot = alloca ptr, align 8
  %ehselector.slot = alloca i32, align 4
  %__s = alloca %"class.arrow::Status", align 8
  %ref.tmp = alloca %"class.arrow::Status", align 8
  %cleanup.dest.slot = alloca i32, align 4
  store ptr %agg.result, ptr %result.ptr, align 8
  store i32 %fd, ptr %fd.addr, align 4
  store ptr %pool, ptr %pool.addr, align 8
  %call = call noalias noundef nonnull ptr @_Znwm(i64 noundef 80) #15
  %0 = load ptr, ptr %pool.addr, align 8
  invoke void @_ZN5arrow2io12ReadableFileC1EPNS_10MemoryPoolE(ptr noundef nonnull align 8 dereferenceable(48) %call, ptr noundef %0)
          to label %invoke.cont unwind label %lpad

invoke.cont:                                      ; preds = %entry
  call void @_ZNSt10shared_ptrIN5arrow2io12ReadableFileEEC2IS2_vEEPT_(ptr noundef nonnull align 8 dereferenceable(16) %file, ptr noundef %call)
  br label %do.body

do.body:                                          ; preds = %invoke.cont
  %call1 = call noundef ptr @_ZNKSt19__shared_ptr_accessIN5arrow2io12ReadableFileELN9__gnu_cxx12_Lock_policyE2ELb0ELb0EEptEv(ptr noundef nonnull align 1 dereferenceable(1) %file) #14
  %impl_ = getelementptr inbounds %"class.arrow::io::ReadableFile", ptr %call1, i32 0, i32 1
  %call2 = call noundef ptr @_ZNKSt10unique_ptrIN5arrow2io12ReadableFile16ReadableFileImplESt14default_deleteIS3_EEptEv(ptr noundef nonnull align 8 dereferenceable(8) %impl_) #14
  %1 = load i32, ptr %fd.addr, align 4
  invoke void @_ZN5arrow2io12ReadableFile16ReadableFileImpl4OpenEi(ptr sret(%"class.arrow::Status") align 8 %ref.tmp, ptr noundef nonnull align 8 dereferenceable(80) %call2, i32 noundef %1)
          to label %invoke.cont4 unwind label %lpad3

invoke.cont4:                                     ; preds = %do.body
  invoke void @_ZN5arrow8internal15GenericToStatusEONS_6StatusE(ptr sret(%"class.arrow::Status") align 8 %__s, ptr noundef nonnull align 8 dereferenceable(8) %ref.tmp)
          to label %invoke.cont6 unwind label %lpad5

invoke.cont6:                                     ; preds = %invoke.cont4
  call void @_ZN5arrow6StatusD2Ev(ptr noundef nonnull align 8 dereferenceable(8) %ref.tmp) #14
  br label %do.body7

do.body7:                                         ; preds = %invoke.cont6
  %call10 = invoke noundef zeroext i1 @_ZNK5arrow6Status2okEv(ptr noundef nonnull align 8 dereferenceable(8) %__s)
          to label %invoke.cont9 unwind label %lpad8

invoke.cont9:                                     ; preds = %do.body7
  %lnot = xor i1 %call10, true
  %lnot11 = xor i1 %lnot, true
  %lnot12 = xor i1 %lnot11, true
  br i1 %lnot12, label %if.then, label %if.end

if.then:                                          ; preds = %invoke.cont9
  call void @_ZN5arrow6ResultISt10shared_ptrINS_2io12ReadableFileEEEC2ERKNS_6StatusE(ptr noundef nonnull align 8 dereferenceable(24) %agg.result, ptr noundef nonnull align 8 dereferenceable(8) %__s) #14
  store i32 1, ptr %cleanup.dest.slot, align 4
  br label %cleanup

lpad:                                             ; preds = %entry
  %2 = landingpad { ptr, i32 }
          cleanup
  %3 = extractvalue { ptr, i32 } %2, 0
  store ptr %3, ptr %exn.slot, align 8
  %4 = extractvalue { ptr, i32 } %2, 1
  store i32 %4, ptr %ehselector.slot, align 4
  call void @_ZdlPv(ptr noundef %call) #16
  br label %eh.resume

lpad3:                                            ; preds = %do.body
  %5 = landingpad { ptr, i32 }
          cleanup
  %6 = extractvalue { ptr, i32 } %5, 0
  store ptr %6, ptr %exn.slot, align 8
  %7 = extractvalue { ptr, i32 } %5, 1
  store i32 %7, ptr %ehselector.slot, align 4
  br label %ehcleanup

lpad5:                                            ; preds = %invoke.cont4
  %8 = landingpad { ptr, i32 }
          cleanup
  %9 = extractvalue { ptr, i32 } %8, 0
  store ptr %9, ptr %exn.slot, align 8
  %10 = extractvalue { ptr, i32 } %8, 1
  store i32 %10, ptr %ehselector.slot, align 4
  call void @_ZN5arrow6StatusD2Ev(ptr noundef nonnull align 8 dereferenceable(8) %ref.tmp) #14
  br label %ehcleanup

lpad8:                                            ; preds = %do.body7
  %11 = landingpad { ptr, i32 }
          cleanup
  %12 = extractvalue { ptr, i32 } %11, 0
  store ptr %12, ptr %exn.slot, align 8
  %13 = extractvalue { ptr, i32 } %11, 1
  store i32 %13, ptr %ehselector.slot, align 4
  call void @_ZN5arrow6StatusD2Ev(ptr noundef nonnull align 8 dereferenceable(8) %__s) #14
  br label %ehcleanup

if.end:                                           ; preds = %invoke.cont9
  br label %do.cond

do.cond:                                          ; preds = %if.end
  br label %do.end

do.end:                                           ; preds = %do.cond
  store i32 0, ptr %cleanup.dest.slot, align 4
  br label %cleanup

cleanup:                                          ; preds = %do.end, %if.then
  call void @_ZN5arrow6StatusD2Ev(ptr noundef nonnull align 8 dereferenceable(8) %__s) #14
  %cleanup.dest = load i32, ptr %cleanup.dest.slot, align 4
  switch i32 %cleanup.dest, label %cleanup15 [
    i32 0, label %cleanup.cont
  ]

cleanup.cont:                                     ; preds = %cleanup
  br label %do.cond13

do.cond13:                                        ; preds = %cleanup.cont
  br label %do.end14

do.end14:                                         ; preds = %do.cond13
  call void @_ZN5arrow6ResultISt10shared_ptrINS_2io12ReadableFileEEEC2EOS4_(ptr noundef nonnull align 8 dereferenceable(24) %agg.result, ptr noundef nonnull align 8 dereferenceable(16) %file) #14
  store i32 1, ptr %cleanup.dest.slot, align 4
  br label %cleanup15

cleanup15:                                        ; preds = %do.end14, %cleanup
  call void @_ZNSt10shared_ptrIN5arrow2io12ReadableFileEED2Ev(ptr noundef nonnull align 8 dereferenceable(16) %file) #14
  ret void

ehcleanup:                                        ; preds = %lpad8, %lpad5, %lpad3
  call void @_ZNSt10shared_ptrIN5arrow2io12ReadableFileEED2Ev(ptr noundef nonnull align 8 dereferenceable(16) %file) #14
  br label %eh.resume

eh.resume:                                        ; preds = %ehcleanup, %lpad
  %exn = load ptr, ptr %exn.slot, align 8
  %sel = load i32, ptr %ehselector.slot, align 4
  %lpad.val = insertvalue { ptr, i32 } poison, ptr %exn, 0
  %lpad.val16 = insertvalue { ptr, i32 } %lpad.val, i32 %sel, 1
  resume { ptr, i32 } %lpad.val16
}

; Function Attrs: mustprogress uwtable
define linkonce_odr hidden void @_ZN5arrow2io12ReadableFile16ReadableFileImpl4OpenEi(ptr noalias sret(%"class.arrow::Status") align 8 %agg.result, ptr noundef nonnull align 8 dereferenceable(80) %this, i32 noundef %fd) #0 comdat align 2 {
entry:
  %result.ptr = alloca ptr, align 8
  %this.addr = alloca ptr, align 8
  %fd.addr = alloca i32, align 4
  store ptr %agg.result, ptr %result.ptr, align 8
  store ptr %this, ptr %this.addr, align 8
  store i32 %fd, ptr %fd.addr, align 4
  %this1 = load ptr, ptr %this.addr, align 8
  %0 = load i32, ptr %fd.addr, align 4
  call void @_ZN5arrow2io6OSFile12OpenReadableEi(ptr sret(%"class.arrow::Status") align 8 %agg.result, ptr noundef nonnull align 8 dereferenceable(65) %this1, i32 noundef %0)
  ret void
}

; Function Attrs: mustprogress uwtable
define void @_ZN5arrow2io12ReadableFile7DoCloseEv(ptr noalias sret(%"class.arrow::Status") align 8 %agg.result, ptr noundef nonnull align 8 dereferenceable(48) %this) #0 align 2 {
entry:
  %result.ptr = alloca ptr, align 8
  %this.addr = alloca ptr, align 8
  store ptr %agg.result, ptr %result.ptr, align 8
  store ptr %this, ptr %this.addr, align 8
  %this1 = load ptr, ptr %this.addr, align 8
  %impl_ = getelementptr inbounds %"class.arrow::io::ReadableFile", ptr %this1, i32 0, i32 1
  %call = call noundef ptr @_ZNKSt10unique_ptrIN5arrow2io12ReadableFile16ReadableFileImplESt14default_deleteIS3_EEptEv(ptr noundef nonnull align 8 dereferenceable(8) %impl_) #14
  call void @_ZN5arrow2io6OSFile5CloseEv(ptr sret(%"class.arrow::Status") align 8 %agg.result, ptr noundef nonnull align 8 dereferenceable(65) %call)
  ret void
}

; Function Attrs: mustprogress uwtable
define linkonce_odr void @_ZN5arrow2io6OSFile5CloseEv(ptr noalias sret(%"class.arrow::Status") align 8 %agg.result, ptr noundef nonnull align 8 dereferenceable(65) %this) #0 comdat align 2 {
entry:
  %result.ptr = alloca ptr, align 8
  %this.addr = alloca ptr, align 8
  store ptr %agg.result, ptr %result.ptr, align 8
  store ptr %this, ptr %this.addr, align 8
  %this1 = load ptr, ptr %this.addr, align 8
  %fd_ = getelementptr inbounds %"class.arrow::io::OSFile", ptr %this1, i32 0, i32 2
  call void @_ZN5arrow8internal14FileDescriptor5CloseEv(ptr sret(%"class.arrow::Status") align 8 %agg.result, ptr noundef nonnull align 4 dereferenceable(4) %fd_)
  ret void
}

; Function Attrs: mustprogress uwtable
define noundef zeroext i1 @_ZNK5arrow2io12ReadableFile6closedEv(ptr noundef nonnull align 8 dereferenceable(48) %this) unnamed_addr #0 align 2 {
entry:
  %this.addr = alloca ptr, align 8
  store ptr %this, ptr %this.addr, align 8
  %this1 = load ptr, ptr %this.addr, align 8
  %impl_ = getelementptr inbounds %"class.arrow::io::ReadableFile", ptr %this1, i32 0, i32 1
  %call = call noundef ptr @_ZNKSt10unique_ptrIN5arrow2io12ReadableFile16ReadableFileImplESt14default_deleteIS3_EEptEv(ptr noundef nonnull align 8 dereferenceable(8) %impl_) #14
  %call2 = call noundef zeroext i1 @_ZNK5arrow2io6OSFile7is_openEv(ptr noundef nonnull align 8 dereferenceable(65) %call)
  %lnot = xor i1 %call2, true
  ret i1 %lnot
}

; Function Attrs: mustprogress uwtable
define linkonce_odr noundef zeroext i1 @_ZNK5arrow2io6OSFile7is_openEv(ptr noundef nonnull align 8 dereferenceable(65) %this) #0 comdat align 2 {
entry:
  %this.addr = alloca ptr, align 8
  store ptr %this, ptr %this.addr, align 8
  %this1 = load ptr, ptr %this.addr, align 8
  %fd_ = getelementptr inbounds %"class.arrow::io::OSFile", ptr %this1, i32 0, i32 2
  %call = call noundef zeroext i1 @_ZNK5arrow8internal14FileDescriptor6closedEv(ptr noundef nonnull align 4 dereferenceable(4) %fd_)
  %lnot = xor i1 %call, true
  ret i1 %lnot
}

; Function Attrs: uwtable
define noundef zeroext i1 @_ZTv0_n64_NK5arrow2io12ReadableFile6closedEv(ptr noundef %this) unnamed_addr #8 align 2 {
entry:
  %this.addr = alloca ptr, align 8
  store ptr %this, ptr %this.addr, align 8
  %this1 = load ptr, ptr %this.addr, align 8
  %0 = load ptr, ptr %this1, align 8
  %1 = getelementptr inbounds i8, ptr %0, i64 -64
  %2 = load i64, ptr %1, align 8
  %3 = getelementptr inbounds i8, ptr %this1, i64 %2
  %call = tail call noundef zeroext i1 @_ZNK5arrow2io12ReadableFile6closedEv(ptr noundef nonnull align 8 dereferenceable(48) %3)
  ret i1 %call
}

; Function Attrs: mustprogress uwtable
define void @_ZN5arrow2io12ReadableFile8WillNeedERKSt6vectorINS0_9ReadRangeESaIS3_EE(ptr noalias sret(%"class.arrow::Status") align 8 %agg.result, ptr noundef nonnull align 8 dereferenceable(48) %this, ptr noundef nonnull align 8 dereferenceable(24) %ranges) unnamed_addr #0 align 2 {
entry:
  %result.ptr = alloca ptr, align 8
  %this.addr = alloca ptr, align 8
  %ranges.addr = alloca ptr, align 8
  store ptr %agg.result, ptr %result.ptr, align 8
  store ptr %this, ptr %this.addr, align 8
  store ptr %ranges, ptr %ranges.addr, align 8
  %this1 = load ptr, ptr %this.addr, align 8
  %impl_ = getelementptr inbounds %"class.arrow::io::ReadableFile", ptr %this1, i32 0, i32 1
  %call = call noundef ptr @_ZNKSt10unique_ptrIN5arrow2io12ReadableFile16ReadableFileImplESt14default_deleteIS3_EEptEv(ptr noundef nonnull align 8 dereferenceable(8) %impl_) #14
  %0 = load ptr, ptr %ranges.addr, align 8
  call void @_ZN5arrow2io12ReadableFile16ReadableFileImpl8WillNeedERKSt6vectorINS0_9ReadRangeESaIS4_EE(ptr sret(%"class.arrow::Status") align 8 %agg.result, ptr noundef nonnull align 8 dereferenceable(80) %call, ptr noundef nonnull align 8 dereferenceable(24) %0)
  ret void
}

; Function Attrs: mustprogress uwtable
define linkonce_odr hidden void @_ZN5arrow2io12ReadableFile16ReadableFileImpl8WillNeedERKSt6vectorINS0_9ReadRangeESaIS4_EE(ptr noalias sret(%"class.arrow::Status") align 8 %agg.result, ptr noundef nonnull align 8 dereferenceable(80) %this, ptr noundef nonnull align 8 dereferenceable(24) %ranges) #0 comdat align 2 {
entry:
  %result.ptr = alloca ptr, align 8
  %this.addr = alloca ptr, align 8
  %ranges.addr = alloca ptr, align 8
  %report_error = alloca %class.anon, align 1
  %nrvo = alloca i1, align 1
  %ref.tmp = alloca %"class.arrow::Status", align 8
  %cleanup.dest.slot = alloca i32, align 4
  %__range2 = alloca ptr, align 8
  %__begin2 = alloca %"class.__gnu_cxx::__normal_iterator", align 8
  %__end2 = alloca %"class.__gnu_cxx::__normal_iterator", align 8
  %range = alloca ptr, align 8
  %nrvo13 = alloca i1, align 1
  %ref.tmp14 = alloca %"class.arrow::Status", align 8
  %ret = alloca i32, align 4
  %nrvo38 = alloca i1, align 1
  %ref.tmp39 = alloca %"class.arrow::Status", align 8
  store ptr %agg.result, ptr %result.ptr, align 8
  store ptr %this, ptr %this.addr, align 8
  store ptr %ranges, ptr %ranges.addr, align 8
  %this1 = load ptr, ptr %this.addr, align 8
  br label %do.body

do.body:                                          ; preds = %entry
  store i1 false, ptr %nrvo, align 1
  call void @_ZNK5arrow2io6OSFile11CheckClosedEv(ptr sret(%"class.arrow::Status") align 8 %ref.tmp, ptr noundef nonnull align 8 dereferenceable(65) %this1)
  call void @_ZN5arrow8internal15GenericToStatusEONS_6StatusE(ptr sret(%"class.arrow::Status") align 8 %agg.result, ptr noundef nonnull align 8 dereferenceable(8) %ref.tmp)
  call void @_ZN5arrow6StatusD2Ev(ptr noundef nonnull align 8 dereferenceable(8) %ref.tmp) #14
  br label %do.body2

do.body2:                                         ; preds = %do.body
  %call = call noundef zeroext i1 @_ZNK5arrow6Status2okEv(ptr noundef nonnull align 8 dereferenceable(8) %agg.result)
  %lnot = xor i1 %call, true
  %lnot3 = xor i1 %lnot, true
  %lnot4 = xor i1 %lnot3, true
  br i1 %lnot4, label %if.then, label %if.end

if.then:                                          ; preds = %do.body2
  store i1 true, ptr %nrvo, align 1
  store i32 1, ptr %cleanup.dest.slot, align 4
  br label %cleanup

if.end:                                           ; preds = %do.body2
  br label %do.cond

do.cond:                                          ; preds = %if.end
  br label %do.end

do.end:                                           ; preds = %do.cond
  store i32 0, ptr %cleanup.dest.slot, align 4
  br label %cleanup

cleanup:                                          ; preds = %do.end, %if.then
  %nrvo.val = load i1, ptr %nrvo, align 1
  br i1 %nrvo.val, label %nrvo.skipdtor, label %nrvo.unused

nrvo.unused:                                      ; preds = %cleanup
  call void @_ZN5arrow6StatusD2Ev(ptr noundef nonnull align 8 dereferenceable(8) %agg.result) #14
  br label %nrvo.skipdtor

nrvo.skipdtor:                                    ; preds = %nrvo.unused, %cleanup
  %cleanup.dest = load i32, ptr %cleanup.dest.slot, align 4
  switch i32 %cleanup.dest, label %unreachable [
    i32 0, label %cleanup.cont
    i32 1, label %return
  ]

cleanup.cont:                                     ; preds = %nrvo.skipdtor
  br label %do.end6

do.end6:                                          ; preds = %cleanup.cont
  %0 = load ptr, ptr %ranges.addr, align 8
  store ptr %0, ptr %__range2, align 8
  %1 = load ptr, ptr %__range2, align 8
  %call7 = call ptr @_ZNKSt6vectorIN5arrow2io9ReadRangeESaIS2_EE5beginEv(ptr noundef nonnull align 8 dereferenceable(24) %1) #14
  %coerce.dive = getelementptr inbounds %"class.__gnu_cxx::__normal_iterator", ptr %__begin2, i32 0, i32 0
  store ptr %call7, ptr %coerce.dive, align 8
  %2 = load ptr, ptr %__range2, align 8
  %call8 = call ptr @_ZNKSt6vectorIN5arrow2io9ReadRangeESaIS2_EE3endEv(ptr noundef nonnull align 8 dereferenceable(24) %2) #14
  %coerce.dive9 = getelementptr inbounds %"class.__gnu_cxx::__normal_iterator", ptr %__end2, i32 0, i32 0
  store ptr %call8, ptr %coerce.dive9, align 8
  br label %for.cond

for.cond:                                         ; preds = %for.inc, %do.end6
  %call10 = call noundef zeroext i1 @_ZN9__gnu_cxxneIPKN5arrow2io9ReadRangeESt6vectorIS3_SaIS3_EEEEbRKNS_17__normal_iteratorIT_T0_EESE_(ptr noundef nonnull align 8 dereferenceable(8) %__begin2, ptr noundef nonnull align 8 dereferenceable(8) %__end2) #14
  br i1 %call10, label %for.body, label %for.end

for.body:                                         ; preds = %for.cond
  %call11 = call noundef nonnull align 8 dereferenceable(16) ptr @_ZNK9__gnu_cxx17__normal_iteratorIPKN5arrow2io9ReadRangeESt6vectorIS3_SaIS3_EEEdeEv(ptr noundef nonnull align 8 dereferenceable(8) %__begin2) #14
  store ptr %call11, ptr %range, align 8
  br label %do.body12

do.body12:                                        ; preds = %for.body
  store i1 false, ptr %nrvo13, align 1
  %3 = load ptr, ptr %range, align 8
  %offset = getelementptr inbounds %"struct.arrow::io::ReadRange", ptr %3, i32 0, i32 0
  %4 = load i64, ptr %offset, align 8
  %5 = load ptr, ptr %range, align 8
  %length = getelementptr inbounds %"struct.arrow::io::ReadRange", ptr %5, i32 0, i32 1
  %6 = load i64, ptr %length, align 8
  call void @_ZN5arrow2io8internal13ValidateRangeEll(ptr sret(%"class.arrow::Status") align 8 %ref.tmp14, i64 noundef %4, i64 noundef %6)
  call void @_ZN5arrow8internal15GenericToStatusEONS_6StatusE(ptr sret(%"class.arrow::Status") align 8 %agg.result, ptr noundef nonnull align 8 dereferenceable(8) %ref.tmp14)
  call void @_ZN5arrow6StatusD2Ev(ptr noundef nonnull align 8 dereferenceable(8) %ref.tmp14) #14
  br label %do.body15

do.body15:                                        ; preds = %do.body12
  %call16 = call noundef zeroext i1 @_ZNK5arrow6Status2okEv(ptr noundef nonnull align 8 dereferenceable(8) %agg.result)
  %lnot17 = xor i1 %call16, true
  %lnot18 = xor i1 %lnot17, true
  %lnot19 = xor i1 %lnot18, true
  br i1 %lnot19, label %if.then20, label %if.end21

if.then20:                                        ; preds = %do.body15
  store i1 true, ptr %nrvo13, align 1
  store i32 1, ptr %cleanup.dest.slot, align 4
  br label %cleanup24

if.end21:                                         ; preds = %do.body15
  br label %do.cond22

do.cond22:                                        ; preds = %if.end21
  br label %do.end23

do.end23:                                         ; preds = %do.cond22
  store i32 0, ptr %cleanup.dest.slot, align 4
  br label %cleanup24

cleanup24:                                        ; preds = %do.end23, %if.then20
  %nrvo.val25 = load i1, ptr %nrvo13, align 1
  br i1 %nrvo.val25, label %nrvo.skipdtor27, label %nrvo.unused26

nrvo.unused26:                                    ; preds = %cleanup24
  call void @_ZN5arrow6StatusD2Ev(ptr noundef nonnull align 8 dereferenceable(8) %agg.result) #14
  br label %nrvo.skipdtor27

nrvo.skipdtor27:                                  ; preds = %nrvo.unused26, %cleanup24
  %cleanup.dest28 = load i32, ptr %cleanup.dest.slot, align 4
  switch i32 %cleanup.dest28, label %unreachable [
    i32 0, label %cleanup.cont29
    i32 1, label %return
  ]

cleanup.cont29:                                   ; preds = %nrvo.skipdtor27
  br label %do.end31

do.end31:                                         ; preds = %cleanup.cont29
  %fd_ = getelementptr inbounds %"class.arrow::io::OSFile", ptr %this1, i32 0, i32 2
  %call32 = call noundef i32 @_ZNK5arrow8internal14FileDescriptor2fdEv(ptr noundef nonnull align 4 dereferenceable(4) %fd_)
  %7 = load ptr, ptr %range, align 8
  %offset33 = getelementptr inbounds %"struct.arrow::io::ReadRange", ptr %7, i32 0, i32 0
  %8 = load i64, ptr %offset33, align 8
  %9 = load ptr, ptr %range, align 8
  %length34 = getelementptr inbounds %"struct.arrow::io::ReadRange", ptr %9, i32 0, i32 1
  %10 = load i64, ptr %length34, align 8
  %call35 = call i32 @posix_fadvise(i32 noundef %call32, i64 noundef %8, i64 noundef %10, i32 noundef 3) #14
  store i32 %call35, ptr %ret, align 4
  %11 = load i32, ptr %ret, align 4
  %tobool = icmp ne i32 %11, 0
  br i1 %tobool, label %if.then36, label %if.end57

if.then36:                                        ; preds = %do.end31
  br label %do.body37

do.body37:                                        ; preds = %if.then36
  store i1 false, ptr %nrvo38, align 1
  %12 = load i32, ptr %ret, align 4
  call void @_ZZN5arrow2io12ReadableFile16ReadableFileImpl8WillNeedERKSt6vectorINS0_9ReadRangeESaIS4_EEENKUliPKcE_clEiSA_(ptr sret(%"class.arrow::Status") align 8 %ref.tmp39, ptr noundef nonnull align 1 dereferenceable(1) %report_error, i32 noundef %12, ptr noundef @.str.3)
  call void @_ZN5arrow8internal15GenericToStatusEONS_6StatusE(ptr sret(%"class.arrow::Status") align 8 %agg.result, ptr noundef nonnull align 8 dereferenceable(8) %ref.tmp39)
  call void @_ZN5arrow6StatusD2Ev(ptr noundef nonnull align 8 dereferenceable(8) %ref.tmp39) #14
  br label %do.body40

do.body40:                                        ; preds = %do.body37
  %call41 = call noundef zeroext i1 @_ZNK5arrow6Status2okEv(ptr noundef nonnull align 8 dereferenceable(8) %agg.result)
  %lnot42 = xor i1 %call41, true
  %lnot43 = xor i1 %lnot42, true
  %lnot44 = xor i1 %lnot43, true
  br i1 %lnot44, label %if.then45, label %if.end46

if.then45:                                        ; preds = %do.body40
  store i1 true, ptr %nrvo38, align 1
  store i32 1, ptr %cleanup.dest.slot, align 4
  br label %cleanup49

if.end46:                                         ; preds = %do.body40
  br label %do.cond47

do.cond47:                                        ; preds = %if.end46
  br label %do.end48

do.end48:                                         ; preds = %do.cond47
  store i32 0, ptr %cleanup.dest.slot, align 4
  br label %cleanup49

cleanup49:                                        ; preds = %do.end48, %if.then45
  %nrvo.val50 = load i1, ptr %nrvo38, align 1
  br i1 %nrvo.val50, label %nrvo.skipdtor52, label %nrvo.unused51

nrvo.unused51:                                    ; preds = %cleanup49
  call void @_ZN5arrow6StatusD2Ev(ptr noundef nonnull align 8 dereferenceable(8) %agg.result) #14
  br label %nrvo.skipdtor52

nrvo.skipdtor52:                                  ; preds = %nrvo.unused51, %cleanup49
  %cleanup.dest53 = load i32, ptr %cleanup.dest.slot, align 4
  switch i32 %cleanup.dest53, label %unreachable [
    i32 0, label %cleanup.cont54
    i32 1, label %return
  ]

cleanup.cont54:                                   ; preds = %nrvo.skipdtor52
  br label %do.end56

do.end56:                                         ; preds = %cleanup.cont54
  br label %if.end57

if.end57:                                         ; preds = %do.end56, %do.end31
  br label %for.inc

for.inc:                                          ; preds = %if.end57
  %call58 = call noundef nonnull align 8 dereferenceable(8) ptr @_ZN9__gnu_cxx17__normal_iteratorIPKN5arrow2io9ReadRangeESt6vectorIS3_SaIS3_EEEppEv(ptr noundef nonnull align 8 dereferenceable(8) %__begin2) #14
  br label %for.cond

for.end:                                          ; preds = %for.cond
  call void @_ZN5arrow6Status2OKEv(ptr sret(%"class.arrow::Status") align 8 %agg.result)
  br label %return

return:                                           ; preds = %for.end, %nrvo.skipdtor52, %nrvo.skipdtor27, %nrvo.skipdtor
  ret void

unreachable:                                      ; preds = %nrvo.skipdtor52, %nrvo.skipdtor27, %nrvo.skipdtor
  unreachable
}

; Function Attrs: mustprogress uwtable
define void @_ZNK5arrow2io12ReadableFile6DoTellEv(ptr noalias sret(%"class.arrow::Result.28") align 8 %agg.result, ptr noundef nonnull align 8 dereferenceable(48) %this) #0 align 2 {
entry:
  %result.ptr = alloca ptr, align 8
  %this.addr = alloca ptr, align 8
  store ptr %agg.result, ptr %result.ptr, align 8
  store ptr %this, ptr %this.addr, align 8
  %this1 = load ptr, ptr %this.addr, align 8
  %impl_ = getelementptr inbounds %"class.arrow::io::ReadableFile", ptr %this1, i32 0, i32 1
  %call = call noundef ptr @_ZNKSt10unique_ptrIN5arrow2io12ReadableFile16ReadableFileImplESt14default_deleteIS3_EEptEv(ptr noundef nonnull align 8 dereferenceable(8) %impl_) #14
  call void @_ZNK5arrow2io6OSFile4TellEv(ptr sret(%"class.arrow::Result.28") align 8 %agg.result, ptr noundef nonnull align 8 dereferenceable(65) %call)
  ret void
}

; Function Attrs: mustprogress uwtable
define linkonce_odr void @_ZNK5arrow2io6OSFile4TellEv(ptr noalias sret(%"class.arrow::Result.28") align 8 %agg.result, ptr noundef nonnull align 8 dereferenceable(65) %this) #0 comdat align 2 {
entry:
  %result.ptr = alloca ptr, align 8
  %this.addr = alloca ptr, align 8
  %__s = alloca %"class.arrow::Status", align 8
  %ref.tmp = alloca %"class.arrow::Status", align 8
  %cleanup.dest.slot = alloca i32, align 4
  store ptr %agg.result, ptr %result.ptr, align 8
  store ptr %this, ptr %this.addr, align 8
  %this1 = load ptr, ptr %this.addr, align 8
  br label %do.body

do.body:                                          ; preds = %entry
  call void @_ZNK5arrow2io6OSFile11CheckClosedEv(ptr sret(%"class.arrow::Status") align 8 %ref.tmp, ptr noundef nonnull align 8 dereferenceable(65) %this1)
  call void @_ZN5arrow8internal15GenericToStatusEONS_6StatusE(ptr sret(%"class.arrow::Status") align 8 %__s, ptr noundef nonnull align 8 dereferenceable(8) %ref.tmp)
  call void @_ZN5arrow6StatusD2Ev(ptr noundef nonnull align 8 dereferenceable(8) %ref.tmp) #14
  br label %do.body2

do.body2:                                         ; preds = %do.body
  %call = call noundef zeroext i1 @_ZNK5arrow6Status2okEv(ptr noundef nonnull align 8 dereferenceable(8) %__s)
  %lnot = xor i1 %call, true
  %lnot3 = xor i1 %lnot, true
  %lnot4 = xor i1 %lnot3, true
  br i1 %lnot4, label %if.then, label %if.end

if.then:                                          ; preds = %do.body2
  call void @_ZN5arrow6ResultIlEC2ERKNS_6StatusE(ptr noundef nonnull align 8 dereferenceable(16) %agg.result, ptr noundef nonnull align 8 dereferenceable(8) %__s) #14
  store i32 1, ptr %cleanup.dest.slot, align 4
  br label %cleanup

if.end:                                           ; preds = %do.body2
  br label %do.cond

do.cond:                                          ; preds = %if.end
  br label %do.end

do.end:                                           ; preds = %do.cond
  store i32 0, ptr %cleanup.dest.slot, align 4
  br label %cleanup

cleanup:                                          ; preds = %do.end, %if.then
  call void @_ZN5arrow6StatusD2Ev(ptr noundef nonnull align 8 dereferenceable(8) %__s) #14
  %cleanup.dest = load i32, ptr %cleanup.dest.slot, align 4
  switch i32 %cleanup.dest, label %unreachable [
    i32 0, label %cleanup.cont
    i32 1, label %return
  ]

cleanup.cont:                                     ; preds = %cleanup
  br label %do.end6

do.end6:                                          ; preds = %cleanup.cont
  %fd_ = getelementptr inbounds %"class.arrow::io::OSFile", ptr %this1, i32 0, i32 2
  %call7 = call noundef i32 @_ZNK5arrow8internal14FileDescriptor2fdEv(ptr noundef nonnull align 4 dereferenceable(4) %fd_)
  call void @_ZN5arrow8internal8FileTellEi(ptr sret(%"class.arrow::Result.28") align 8 %agg.result, i32 noundef %call7)
  br label %return

return:                                           ; preds = %do.end6, %cleanup
  ret void

unreachable:                                      ; preds = %cleanup
  unreachable
}

; Function Attrs: mustprogress uwtable
define void @_ZN5arrow2io12ReadableFile6DoReadElPv(ptr noalias sret(%"class.arrow::Result.28") align 8 %agg.result, ptr noundef nonnull align 8 dereferenceable(48) %this, i64 noundef %nbytes, ptr noundef %out) #0 align 2 {
entry:
  %result.ptr = alloca ptr, align 8
  %this.addr = alloca ptr, align 8
  %nbytes.addr = alloca i64, align 8
  %out.addr = alloca ptr, align 8
  store ptr %agg.result, ptr %result.ptr, align 8
  store ptr %this, ptr %this.addr, align 8
  store i64 %nbytes, ptr %nbytes.addr, align 8
  store ptr %out, ptr %out.addr, align 8
  %this1 = load ptr, ptr %this.addr, align 8
  %impl_ = getelementptr inbounds %"class.arrow::io::ReadableFile", ptr %this1, i32 0, i32 1
  %call = call noundef ptr @_ZNKSt10unique_ptrIN5arrow2io12ReadableFile16ReadableFileImplESt14default_deleteIS3_EEptEv(ptr noundef nonnull align 8 dereferenceable(8) %impl_) #14
  %0 = load i64, ptr %nbytes.addr, align 8
  %1 = load ptr, ptr %out.addr, align 8
  call void @_ZN5arrow2io6OSFile4ReadElPv(ptr sret(%"class.arrow::Result.28") align 8 %agg.result, ptr noundef nonnull align 8 dereferenceable(65) %call, i64 noundef %0, ptr noundef %1)
  ret void
}

; Function Attrs: mustprogress uwtable
define linkonce_odr void @_ZN5arrow2io6OSFile4ReadElPv(ptr noalias sret(%"class.arrow::Result.28") align 8 %agg.result, ptr noundef nonnull align 8 dereferenceable(65) %this, i64 noundef %nbytes, ptr noundef %out) #0 comdat align 2 {
entry:
  %result.ptr = alloca ptr, align 8
  %this.addr = alloca ptr, align 8
  %nbytes.addr = alloca i64, align 8
  %out.addr = alloca ptr, align 8
  %__s = alloca %"class.arrow::Status", align 8
  %ref.tmp = alloca %"class.arrow::Status", align 8
  %cleanup.dest.slot = alloca i32, align 4
  %__s8 = alloca %"class.arrow::Status", align 8
  %ref.tmp9 = alloca %"class.arrow::Status", align 8
  store ptr %agg.result, ptr %result.ptr, align 8
  store ptr %this, ptr %this.addr, align 8
  store i64 %nbytes, ptr %nbytes.addr, align 8
  store ptr %out, ptr %out.addr, align 8
  %this1 = load ptr, ptr %this.addr, align 8
  br label %do.body

do.body:                                          ; preds = %entry
  call void @_ZNK5arrow2io6OSFile11CheckClosedEv(ptr sret(%"class.arrow::Status") align 8 %ref.tmp, ptr noundef nonnull align 8 dereferenceable(65) %this1)
  call void @_ZN5arrow8internal15GenericToStatusEONS_6StatusE(ptr sret(%"class.arrow::Status") align 8 %__s, ptr noundef nonnull align 8 dereferenceable(8) %ref.tmp)
  call void @_ZN5arrow6StatusD2Ev(ptr noundef nonnull align 8 dereferenceable(8) %ref.tmp) #14
  br label %do.body2

do.body2:                                         ; preds = %do.body
  %call = call noundef zeroext i1 @_ZNK5arrow6Status2okEv(ptr noundef nonnull align 8 dereferenceable(8) %__s)
  %lnot = xor i1 %call, true
  %lnot3 = xor i1 %lnot, true
  %lnot4 = xor i1 %lnot3, true
  br i1 %lnot4, label %if.then, label %if.end

if.then:                                          ; preds = %do.body2
  call void @_ZN5arrow6ResultIlEC2ERKNS_6StatusE(ptr noundef nonnull align 8 dereferenceable(16) %agg.result, ptr noundef nonnull align 8 dereferenceable(8) %__s) #14
  store i32 1, ptr %cleanup.dest.slot, align 4
  br label %cleanup

if.end:                                           ; preds = %do.body2
  br label %do.cond

do.cond:                                          ; preds = %if.end
  br label %do.end

do.end:                                           ; preds = %do.cond
  store i32 0, ptr %cleanup.dest.slot, align 4
  br label %cleanup

cleanup:                                          ; preds = %do.end, %if.then
  call void @_ZN5arrow6StatusD2Ev(ptr noundef nonnull align 8 dereferenceable(8) %__s) #14
  %cleanup.dest = load i32, ptr %cleanup.dest.slot, align 4
  switch i32 %cleanup.dest, label %unreachable [
    i32 0, label %cleanup.cont
    i32 1, label %return
  ]

cleanup.cont:                                     ; preds = %cleanup
  br label %do.end6

do.end6:                                          ; preds = %cleanup.cont
  br label %do.body7

do.body7:                                         ; preds = %do.end6
  call void @_ZN5arrow2io6OSFile15CheckPositionedEv(ptr sret(%"class.arrow::Status") align 8 %ref.tmp9, ptr noundef nonnull align 8 dereferenceable(65) %this1)
  call void @_ZN5arrow8internal15GenericToStatusEONS_6StatusE(ptr sret(%"class.arrow::Status") align 8 %__s8, ptr noundef nonnull align 8 dereferenceable(8) %ref.tmp9)
  call void @_ZN5arrow6StatusD2Ev(ptr noundef nonnull align 8 dereferenceable(8) %ref.tmp9) #14
  br label %do.body10

do.body10:                                        ; preds = %do.body7
  %call11 = call noundef zeroext i1 @_ZNK5arrow6Status2okEv(ptr noundef nonnull align 8 dereferenceable(8) %__s8)
  %lnot12 = xor i1 %call11, true
  %lnot13 = xor i1 %lnot12, true
  %lnot14 = xor i1 %lnot13, true
  br i1 %lnot14, label %if.then15, label %if.end16

if.then15:                                        ; preds = %do.body10
  call void @_ZN5arrow6ResultIlEC2ERKNS_6StatusE(ptr noundef nonnull align 8 dereferenceable(16) %agg.result, ptr noundef nonnull align 8 dereferenceable(8) %__s8) #14
  store i32 1, ptr %cleanup.dest.slot, align 4
  br label %cleanup19

if.end16:                                         ; preds = %do.body10
  br label %do.cond17

do.cond17:                                        ; preds = %if.end16
  br label %do.end18

do.end18:                                         ; preds = %do.cond17
  store i32 0, ptr %cleanup.dest.slot, align 4
  br label %cleanup19

cleanup19:                                        ; preds = %do.end18, %if.then15
  call void @_ZN5arrow6StatusD2Ev(ptr noundef nonnull align 8 dereferenceable(8) %__s8) #14
  %cleanup.dest20 = load i32, ptr %cleanup.dest.slot, align 4
  switch i32 %cleanup.dest20, label %unreachable [
    i32 0, label %cleanup.cont21
    i32 1, label %return
  ]

cleanup.cont21:                                   ; preds = %cleanup19
  br label %do.end23

do.end23:                                         ; preds = %cleanup.cont21
  %fd_ = getelementptr inbounds %"class.arrow::io::OSFile", ptr %this1, i32 0, i32 2
  %call24 = call noundef i32 @_ZNK5arrow8internal14FileDescriptor2fdEv(ptr noundef nonnull align 4 dereferenceable(4) %fd_)
  %0 = load ptr, ptr %out.addr, align 8
  %1 = load i64, ptr %nbytes.addr, align 8
  call void @_ZN5arrow8internal8FileReadEiPhl(ptr sret(%"class.arrow::Result.28") align 8 %agg.result, i32 noundef %call24, ptr noundef %0, i64 noundef %1)
  br label %return

return:                                           ; preds = %do.end23, %cleanup19, %cleanup
  ret void

unreachable:                                      ; preds = %cleanup19, %cleanup
  unreachable
}

; Function Attrs: mustprogress uwtable
define void @_ZN5arrow2io12ReadableFile8DoReadAtEllPv(ptr noalias sret(%"class.arrow::Result.28") align 8 %agg.result, ptr noundef nonnull align 8 dereferenceable(48) %this, i64 noundef %position, i64 noundef %nbytes, ptr noundef %out) #0 align 2 {
entry:
  %result.ptr = alloca ptr, align 8
  %this.addr = alloca ptr, align 8
  %position.addr = alloca i64, align 8
  %nbytes.addr = alloca i64, align 8
  %out.addr = alloca ptr, align 8
  store ptr %agg.result, ptr %result.ptr, align 8
  store ptr %this, ptr %this.addr, align 8
  store i64 %position, ptr %position.addr, align 8
  store i64 %nbytes, ptr %nbytes.addr, align 8
  store ptr %out, ptr %out.addr, align 8
  %this1 = load ptr, ptr %this.addr, align 8
  %impl_ = getelementptr inbounds %"class.arrow::io::ReadableFile", ptr %this1, i32 0, i32 1
  %call = call noundef ptr @_ZNKSt10unique_ptrIN5arrow2io12ReadableFile16ReadableFileImplESt14default_deleteIS3_EEptEv(ptr noundef nonnull align 8 dereferenceable(8) %impl_) #14
  %0 = load i64, ptr %position.addr, align 8
  %1 = load i64, ptr %nbytes.addr, align 8
  %2 = load ptr, ptr %out.addr, align 8
  call void @_ZN5arrow2io6OSFile6ReadAtEllPv(ptr sret(%"class.arrow::Result.28") align 8 %agg.result, ptr noundef nonnull align 8 dereferenceable(65) %call, i64 noundef %0, i64 noundef %1, ptr noundef %2)
  ret void
}

; Function Attrs: mustprogress uwtable
define linkonce_odr void @_ZN5arrow2io6OSFile6ReadAtEllPv(ptr noalias sret(%"class.arrow::Result.28") align 8 %agg.result, ptr noundef nonnull align 8 dereferenceable(65) %this, i64 noundef %position, i64 noundef %nbytes, ptr noundef %out) #0 comdat align 2 {
entry:
  %result.ptr = alloca ptr, align 8
  %this.addr = alloca ptr, align 8
  %position.addr = alloca i64, align 8
  %nbytes.addr = alloca i64, align 8
  %out.addr = alloca ptr, align 8
  %__s = alloca %"class.arrow::Status", align 8
  %ref.tmp = alloca %"class.arrow::Status", align 8
  %cleanup.dest.slot = alloca i32, align 4
  %__s8 = alloca %"class.arrow::Status", align 8
  %ref.tmp9 = alloca %"class.arrow::Status", align 8
  store ptr %agg.result, ptr %result.ptr, align 8
  store ptr %this, ptr %this.addr, align 8
  store i64 %position, ptr %position.addr, align 8
  store i64 %nbytes, ptr %nbytes.addr, align 8
  store ptr %out, ptr %out.addr, align 8
  %this1 = load ptr, ptr %this.addr, align 8
  br label %do.body

do.body:                                          ; preds = %entry
  call void @_ZNK5arrow2io6OSFile11CheckClosedEv(ptr sret(%"class.arrow::Status") align 8 %ref.tmp, ptr noundef nonnull align 8 dereferenceable(65) %this1)
  call void @_ZN5arrow8internal15GenericToStatusEONS_6StatusE(ptr sret(%"class.arrow::Status") align 8 %__s, ptr noundef nonnull align 8 dereferenceable(8) %ref.tmp)
  call void @_ZN5arrow6StatusD2Ev(ptr noundef nonnull align 8 dereferenceable(8) %ref.tmp) #14
  br label %do.body2

do.body2:                                         ; preds = %do.body
  %call = call noundef zeroext i1 @_ZNK5arrow6Status2okEv(ptr noundef nonnull align 8 dereferenceable(8) %__s)
  %lnot = xor i1 %call, true
  %lnot3 = xor i1 %lnot, true
  %lnot4 = xor i1 %lnot3, true
  br i1 %lnot4, label %if.then, label %if.end

if.then:                                          ; preds = %do.body2
  call void @_ZN5arrow6ResultIlEC2ERKNS_6StatusE(ptr noundef nonnull align 8 dereferenceable(16) %agg.result, ptr noundef nonnull align 8 dereferenceable(8) %__s) #14
  store i32 1, ptr %cleanup.dest.slot, align 4
  br label %cleanup

if.end:                                           ; preds = %do.body2
  br label %do.cond

do.cond:                                          ; preds = %if.end
  br label %do.end

do.end:                                           ; preds = %do.cond
  store i32 0, ptr %cleanup.dest.slot, align 4
  br label %cleanup

cleanup:                                          ; preds = %do.end, %if.then
  call void @_ZN5arrow6StatusD2Ev(ptr noundef nonnull align 8 dereferenceable(8) %__s) #14
  %cleanup.dest = load i32, ptr %cleanup.dest.slot, align 4
  switch i32 %cleanup.dest, label %unreachable [
    i32 0, label %cleanup.cont
    i32 1, label %return
  ]

cleanup.cont:                                     ; preds = %cleanup
  br label %do.end6

do.end6:                                          ; preds = %cleanup.cont
  br label %do.body7

do.body7:                                         ; preds = %do.end6
  %0 = load i64, ptr %position.addr, align 8
  %1 = load i64, ptr %nbytes.addr, align 8
  call void @_ZN5arrow2io8internal13ValidateRangeEll(ptr sret(%"class.arrow::Status") align 8 %ref.tmp9, i64 noundef %0, i64 noundef %1)
  call void @_ZN5arrow8internal15GenericToStatusEONS_6StatusE(ptr sret(%"class.arrow::Status") align 8 %__s8, ptr noundef nonnull align 8 dereferenceable(8) %ref.tmp9)
  call void @_ZN5arrow6StatusD2Ev(ptr noundef nonnull align 8 dereferenceable(8) %ref.tmp9) #14
  br label %do.body10

do.body10:                                        ; preds = %do.body7
  %call11 = call noundef zeroext i1 @_ZNK5arrow6Status2okEv(ptr noundef nonnull align 8 dereferenceable(8) %__s8)
  %lnot12 = xor i1 %call11, true
  %lnot13 = xor i1 %lnot12, true
  %lnot14 = xor i1 %lnot13, true
  br i1 %lnot14, label %if.then15, label %if.end16

if.then15:                                        ; preds = %do.body10
  call void @_ZN5arrow6ResultIlEC2ERKNS_6StatusE(ptr noundef nonnull align 8 dereferenceable(16) %agg.result, ptr noundef nonnull align 8 dereferenceable(8) %__s8) #14
  store i32 1, ptr %cleanup.dest.slot, align 4
  br label %cleanup19

if.end16:                                         ; preds = %do.body10
  br label %do.cond17

do.cond17:                                        ; preds = %if.end16
  br label %do.end18

do.end18:                                         ; preds = %do.cond17
  store i32 0, ptr %cleanup.dest.slot, align 4
  br label %cleanup19

cleanup19:                                        ; preds = %do.end18, %if.then15
  call void @_ZN5arrow6StatusD2Ev(ptr noundef nonnull align 8 dereferenceable(8) %__s8) #14
  %cleanup.dest20 = load i32, ptr %cleanup.dest.slot, align 4
  switch i32 %cleanup.dest20, label %unreachable [
    i32 0, label %cleanup.cont21
    i32 1, label %return
  ]

cleanup.cont21:                                   ; preds = %cleanup19
  br label %do.end23

do.end23:                                         ; preds = %cleanup.cont21
  %need_seeking_ = getelementptr inbounds %"class.arrow::io::OSFile", ptr %this1, i32 0, i32 5
  call void @_ZNSt6atomicIbE5storeEbSt12memory_order(ptr noundef nonnull align 1 dereferenceable(1) %need_seeking_, i1 noundef zeroext true, i32 noundef 5) #14
  %fd_ = getelementptr inbounds %"class.arrow::io::OSFile", ptr %this1, i32 0, i32 2
  %call24 = call noundef i32 @_ZNK5arrow8internal14FileDescriptor2fdEv(ptr noundef nonnull align 4 dereferenceable(4) %fd_)
  %2 = load ptr, ptr %out.addr, align 8
  %3 = load i64, ptr %position.addr, align 8
  %4 = load i64, ptr %nbytes.addr, align 8
  call void @_ZN5arrow8internal10FileReadAtEiPhll(ptr sret(%"class.arrow::Result.28") align 8 %agg.result, i32 noundef %call24, ptr noundef %2, i64 noundef %3, i64 noundef %4)
  br label %return

return:                                           ; preds = %do.end23, %cleanup19, %cleanup
  ret void

unreachable:                                      ; preds = %cleanup19, %cleanup
  unreachable
}

; Function Attrs: mustprogress uwtable
define void @_ZN5arrow2io12ReadableFile8DoReadAtEll(ptr noalias sret(%"class.arrow::Result.33") align 8 %agg.result, ptr noundef nonnull align 8 dereferenceable(48) %this, i64 noundef %position, i64 noundef %nbytes) #0 align 2 {
entry:
  %result.ptr = alloca ptr, align 8
  %this.addr = alloca ptr, align 8
  %position.addr = alloca i64, align 8
  %nbytes.addr = alloca i64, align 8
  store ptr %agg.result, ptr %result.ptr, align 8
  store ptr %this, ptr %this.addr, align 8
  store i64 %position, ptr %position.addr, align 8
  store i64 %nbytes, ptr %nbytes.addr, align 8
  %this1 = load ptr, ptr %this.addr, align 8
  %impl_ = getelementptr inbounds %"class.arrow::io::ReadableFile", ptr %this1, i32 0, i32 1
  %call = call noundef ptr @_ZNKSt10unique_ptrIN5arrow2io12ReadableFile16ReadableFileImplESt14default_deleteIS3_EEptEv(ptr noundef nonnull align 8 dereferenceable(8) %impl_) #14
  %0 = load i64, ptr %position.addr, align 8
  %1 = load i64, ptr %nbytes.addr, align 8
  call void @_ZN5arrow2io12ReadableFile16ReadableFileImpl12ReadBufferAtEll(ptr sret(%"class.arrow::Result.33") align 8 %agg.result, ptr noundef nonnull align 8 dereferenceable(80) %call, i64 noundef %0, i64 noundef %1)
  ret void
}

; Function Attrs: mustprogress uwtable
define linkonce_odr hidden void @_ZN5arrow2io12ReadableFile16ReadableFileImpl12ReadBufferAtEll(ptr noalias sret(%"class.arrow::Result.33") align 8 %agg.result, ptr noundef nonnull align 8 dereferenceable(80) %this, i64 noundef %position, i64 noundef %nbytes) #0 comdat align 2 personality ptr @__gxx_personality_v0 {
entry:
  %result.ptr = alloca ptr, align 8
  %this.addr = alloca ptr, align 8
  %position.addr = alloca i64, align 8
  %nbytes.addr = alloca i64, align 8
  %_error_or_value21 = alloca ptr, align 8
  %ref.tmp = alloca %"class.arrow::Result.115", align 8
  %exn.slot = alloca ptr, align 8
  %ehselector.slot = alloca i32, align 4
  %cleanup.dest.slot = alloca i32, align 4
  %buffer = alloca %"class.std::unique_ptr.119", align 8
  %_error_or_value22 = alloca ptr, align 8
  %ref.tmp7 = alloca %"class.arrow::Result.28", align 8
  %bytes_read = alloca i64, align 8
  %__s = alloca %"class.arrow::Status", align 8
  %ref.tmp30 = alloca %"class.arrow::Status", align 8
  store ptr %agg.result, ptr %result.ptr, align 8
  store ptr %this, ptr %this.addr, align 8
  store i64 %position, ptr %position.addr, align 8
  store i64 %nbytes, ptr %nbytes.addr, align 8
  %this1 = load ptr, ptr %this.addr, align 8
  %0 = load i64, ptr %nbytes.addr, align 8
  %pool_ = getelementptr inbounds %"class.arrow::io::ReadableFile::ReadableFileImpl", ptr %this1, i32 0, i32 1
  %1 = load ptr, ptr %pool_, align 8
  call void @_ZN5arrow23AllocateResizableBufferElPNS_10MemoryPoolE(ptr sret(%"class.arrow::Result.115") align 8 %ref.tmp, i64 noundef %0, ptr noundef %1)
  store ptr %ref.tmp, ptr %_error_or_value21, align 8
  br label %do.body

do.body:                                          ; preds = %entry
  %2 = load ptr, ptr %_error_or_value21, align 8
  %call = invoke noundef zeroext i1 @_ZNK5arrow6ResultISt10unique_ptrINS_15ResizableBufferESt14default_deleteIS2_EEE2okEv(ptr noundef nonnull align 8 dereferenceable(16) %2)
          to label %invoke.cont unwind label %lpad

invoke.cont:                                      ; preds = %do.body
  %lnot = xor i1 %call, true
  %lnot2 = xor i1 %lnot, true
  %lnot3 = xor i1 %lnot2, true
  br i1 %lnot3, label %if.then, label %if.end

if.then:                                          ; preds = %invoke.cont
  %3 = load ptr, ptr %_error_or_value21, align 8
  %call5 = invoke noundef nonnull align 8 dereferenceable(8) ptr @_ZNK5arrow6ResultISt10unique_ptrINS_15ResizableBufferESt14default_deleteIS2_EEE6statusEv(ptr noundef nonnull align 8 dereferenceable(16) %3)
          to label %invoke.cont4 unwind label %lpad

invoke.cont4:                                     ; preds = %if.then
  call void @_ZN5arrow6ResultISt10shared_ptrINS_6BufferEEEC2ERKNS_6StatusE(ptr noundef nonnull align 8 dereferenceable(24) %agg.result, ptr noundef nonnull align 8 dereferenceable(8) %call5) #14
  store i32 1, ptr %cleanup.dest.slot, align 4
  br label %cleanup49

lpad:                                             ; preds = %do.end, %if.then, %do.body
  %4 = landingpad { ptr, i32 }
          cleanup
  %5 = extractvalue { ptr, i32 } %4, 0
  store ptr %5, ptr %exn.slot, align 8
  %6 = extractvalue { ptr, i32 } %4, 1
  store i32 %6, ptr %ehselector.slot, align 4
  br label %ehcleanup50

if.end:                                           ; preds = %invoke.cont
  br label %do.cond

do.cond:                                          ; preds = %if.end
  br label %do.end

do.end:                                           ; preds = %do.cond
  %7 = load ptr, ptr %_error_or_value21, align 8
  invoke void @_ZNO5arrow6ResultISt10unique_ptrINS_15ResizableBufferESt14default_deleteIS2_EEE11ValueUnsafeEv(ptr sret(%"class.std::unique_ptr.119") align 8 %buffer, ptr noundef nonnull align 8 dereferenceable(16) %7)
          to label %invoke.cont6 unwind label %lpad

invoke.cont6:                                     ; preds = %do.end
  %8 = load i64, ptr %position.addr, align 8
  %9 = load i64, ptr %nbytes.addr, align 8
  %call8 = call noundef ptr @_ZNKSt10unique_ptrIN5arrow15ResizableBufferESt14default_deleteIS1_EEptEv(ptr noundef nonnull align 8 dereferenceable(8) %buffer) #14
  %call11 = invoke noundef ptr @_ZN5arrow6Buffer12mutable_dataEv(ptr noundef nonnull align 8 dereferenceable(80) %call8)
          to label %invoke.cont10 unwind label %lpad9

invoke.cont10:                                    ; preds = %invoke.cont6
  invoke void @_ZN5arrow2io6OSFile6ReadAtEllPv(ptr sret(%"class.arrow::Result.28") align 8 %ref.tmp7, ptr noundef nonnull align 8 dereferenceable(65) %this1, i64 noundef %8, i64 noundef %9, ptr noundef %call11)
          to label %invoke.cont12 unwind label %lpad9

invoke.cont12:                                    ; preds = %invoke.cont10
  store ptr %ref.tmp7, ptr %_error_or_value22, align 8
  br label %do.body13

do.body13:                                        ; preds = %invoke.cont12
  %10 = load ptr, ptr %_error_or_value22, align 8
  %call16 = invoke noundef zeroext i1 @_ZNK5arrow6ResultIlE2okEv(ptr noundef nonnull align 8 dereferenceable(16) %10)
          to label %invoke.cont15 unwind label %lpad14

invoke.cont15:                                    ; preds = %do.body13
  %lnot17 = xor i1 %call16, true
  %lnot18 = xor i1 %lnot17, true
  %lnot19 = xor i1 %lnot18, true
  br i1 %lnot19, label %if.then20, label %if.end23

if.then20:                                        ; preds = %invoke.cont15
  %11 = load ptr, ptr %_error_or_value22, align 8
  %call22 = invoke noundef nonnull align 8 dereferenceable(8) ptr @_ZNK5arrow6ResultIlE6statusEv(ptr noundef nonnull align 8 dereferenceable(16) %11)
          to label %invoke.cont21 unwind label %lpad14

invoke.cont21:                                    ; preds = %if.then20
  call void @_ZN5arrow6ResultISt10shared_ptrINS_6BufferEEEC2ERKNS_6StatusE(ptr noundef nonnull align 8 dereferenceable(24) %agg.result, ptr noundef nonnull align 8 dereferenceable(8) %call22) #14
  store i32 1, ptr %cleanup.dest.slot, align 4
  br label %cleanup47

lpad9:                                            ; preds = %invoke.cont10, %invoke.cont6
  %12 = landingpad { ptr, i32 }
          cleanup
  %13 = extractvalue { ptr, i32 } %12, 0
  store ptr %13, ptr %exn.slot, align 8
  %14 = extractvalue { ptr, i32 } %12, 1
  store i32 %14, ptr %ehselector.slot, align 4
  br label %ehcleanup

lpad14:                                           ; preds = %do.end43, %do.body29, %do.end25, %if.then20, %do.body13
  %15 = landingpad { ptr, i32 }
          cleanup
  %16 = extractvalue { ptr, i32 } %15, 0
  store ptr %16, ptr %exn.slot, align 8
  %17 = extractvalue { ptr, i32 } %15, 1
  store i32 %17, ptr %ehselector.slot, align 4
  call void @_ZN5arrow6ResultIlED2Ev(ptr noundef nonnull align 8 dereferenceable(16) %ref.tmp7) #14
  br label %ehcleanup

if.end23:                                         ; preds = %invoke.cont15
  br label %do.cond24

do.cond24:                                        ; preds = %if.end23
  br label %do.end25

do.end25:                                         ; preds = %do.cond24
  %18 = load ptr, ptr %_error_or_value22, align 8
  %call27 = invoke noundef i64 @_ZNO5arrow6ResultIlE11ValueUnsafeEv(ptr noundef nonnull align 8 dereferenceable(16) %18)
          to label %invoke.cont26 unwind label %lpad14

invoke.cont26:                                    ; preds = %do.end25
  store i64 %call27, ptr %bytes_read, align 8
  %19 = load i64, ptr %bytes_read, align 8
  %20 = load i64, ptr %nbytes.addr, align 8
  %cmp = icmp slt i64 %19, %20
  br i1 %cmp, label %if.then28, label %if.end46

if.then28:                                        ; preds = %invoke.cont26
  br label %do.body29

do.body29:                                        ; preds = %if.then28
  %call31 = call noundef ptr @_ZNKSt10unique_ptrIN5arrow15ResizableBufferESt14default_deleteIS1_EEptEv(ptr noundef nonnull align 8 dereferenceable(8) %buffer) #14
  %21 = load i64, ptr %bytes_read, align 8
  invoke void @_ZN5arrow15ResizableBuffer6ResizeEl(ptr sret(%"class.arrow::Status") align 8 %ref.tmp30, ptr noundef nonnull align 8 dereferenceable(80) %call31, i64 noundef %21)
          to label %invoke.cont32 unwind label %lpad14

invoke.cont32:                                    ; preds = %do.body29
  call void @_ZN5arrow8internal15GenericToStatusEONS_6StatusE(ptr sret(%"class.arrow::Status") align 8 %__s, ptr noundef nonnull align 8 dereferenceable(8) %ref.tmp30)
  call void @_ZN5arrow6StatusD2Ev(ptr noundef nonnull align 8 dereferenceable(8) %ref.tmp30) #14
  br label %do.body33

do.body33:                                        ; preds = %invoke.cont32
  %call34 = call noundef zeroext i1 @_ZNK5arrow6Status2okEv(ptr noundef nonnull align 8 dereferenceable(8) %__s)
  %lnot35 = xor i1 %call34, true
  %lnot36 = xor i1 %lnot35, true
  %lnot37 = xor i1 %lnot36, true
  br i1 %lnot37, label %if.then38, label %if.end39

if.then38:                                        ; preds = %do.body33
  call void @_ZN5arrow6ResultISt10shared_ptrINS_6BufferEEEC2ERKNS_6StatusE(ptr noundef nonnull align 8 dereferenceable(24) %agg.result, ptr noundef nonnull align 8 dereferenceable(8) %__s) #14
  store i32 1, ptr %cleanup.dest.slot, align 4
  br label %cleanup

if.end39:                                         ; preds = %do.body33
  br label %do.cond40

do.cond40:                                        ; preds = %if.end39
  br label %do.end41

do.end41:                                         ; preds = %do.cond40
  store i32 0, ptr %cleanup.dest.slot, align 4
  br label %cleanup

cleanup:                                          ; preds = %do.end41, %if.then38
  call void @_ZN5arrow6StatusD2Ev(ptr noundef nonnull align 8 dereferenceable(8) %__s) #14
  %cleanup.dest = load i32, ptr %cleanup.dest.slot, align 4
  switch i32 %cleanup.dest, label %cleanup47 [
    i32 0, label %cleanup.cont
  ]

cleanup.cont:                                     ; preds = %cleanup
  br label %do.cond42

do.cond42:                                        ; preds = %cleanup.cont
  br label %do.end43

do.end43:                                         ; preds = %do.cond42
  %call44 = call noundef ptr @_ZNKSt10unique_ptrIN5arrow15ResizableBufferESt14default_deleteIS1_EEptEv(ptr noundef nonnull align 8 dereferenceable(8) %buffer) #14
  invoke void @_ZN5arrow6Buffer11ZeroPaddingEv(ptr noundef nonnull align 8 dereferenceable(80) %call44)
          to label %invoke.cont45 unwind label %lpad14

invoke.cont45:                                    ; preds = %do.end43
  br label %if.end46

if.end46:                                         ; preds = %invoke.cont45, %invoke.cont26
  call void @_ZN5arrow6ResultISt10shared_ptrINS_6BufferEEEC2ISt10unique_ptrINS_15ResizableBufferESt14default_deleteIS7_EEvEEOT_(ptr noundef nonnull align 8 dereferenceable(24) %agg.result, ptr noundef nonnull align 8 dereferenceable(8) %buffer) #14
  store i32 1, ptr %cleanup.dest.slot, align 4
  br label %cleanup47

cleanup47:                                        ; preds = %if.end46, %cleanup, %invoke.cont21
  call void @_ZN5arrow6ResultIlED2Ev(ptr noundef nonnull align 8 dereferenceable(16) %ref.tmp7) #14
  call void @_ZNSt10unique_ptrIN5arrow15ResizableBufferESt14default_deleteIS1_EED2Ev(ptr noundef nonnull align 8 dereferenceable(8) %buffer) #14
  br label %cleanup49

ehcleanup:                                        ; preds = %lpad14, %lpad9
  call void @_ZNSt10unique_ptrIN5arrow15ResizableBufferESt14default_deleteIS1_EED2Ev(ptr noundef nonnull align 8 dereferenceable(8) %buffer) #14
  br label %ehcleanup50

cleanup49:                                        ; preds = %cleanup47, %invoke.cont4
  call void @_ZN5arrow6ResultISt10unique_ptrINS_15ResizableBufferESt14default_deleteIS2_EEED2Ev(ptr noundef nonnull align 8 dereferenceable(16) %ref.tmp) #14
  ret void

ehcleanup50:                                      ; preds = %ehcleanup, %lpad
  call void @_ZN5arrow6ResultISt10unique_ptrINS_15ResizableBufferESt14default_deleteIS2_EEED2Ev(ptr noundef nonnull align 8 dereferenceable(16) %ref.tmp) #14
  br label %eh.resume

eh.resume:                                        ; preds = %ehcleanup50
  %exn = load ptr, ptr %exn.slot, align 8
  %sel = load i32, ptr %ehselector.slot, align 4
  %lpad.val = insertvalue { ptr, i32 } poison, ptr %exn, 0
  %lpad.val51 = insertvalue { ptr, i32 } %lpad.val, i32 %sel, 1
  resume { ptr, i32 } %lpad.val51
}

; Function Attrs: mustprogress uwtable
define void @_ZN5arrow2io12ReadableFile6DoReadEl(ptr noalias sret(%"class.arrow::Result.33") align 8 %agg.result, ptr noundef nonnull align 8 dereferenceable(48) %this, i64 noundef %nbytes) #0 align 2 {
entry:
  %result.ptr = alloca ptr, align 8
  %this.addr = alloca ptr, align 8
  %nbytes.addr = alloca i64, align 8
  store ptr %agg.result, ptr %result.ptr, align 8
  store ptr %this, ptr %this.addr, align 8
  store i64 %nbytes, ptr %nbytes.addr, align 8
  %this1 = load ptr, ptr %this.addr, align 8
  %impl_ = getelementptr inbounds %"class.arrow::io::ReadableFile", ptr %this1, i32 0, i32 1
  %call = call noundef ptr @_ZNKSt10unique_ptrIN5arrow2io12ReadableFile16ReadableFileImplESt14default_deleteIS3_EEptEv(ptr noundef nonnull align 8 dereferenceable(8) %impl_) #14
  %0 = load i64, ptr %nbytes.addr, align 8
  call void @_ZN5arrow2io12ReadableFile16ReadableFileImpl10ReadBufferEl(ptr sret(%"class.arrow::Result.33") align 8 %agg.result, ptr noundef nonnull align 8 dereferenceable(80) %call, i64 noundef %0)
  ret void
}

; Function Attrs: mustprogress uwtable
define linkonce_odr hidden void @_ZN5arrow2io12ReadableFile16ReadableFileImpl10ReadBufferEl(ptr noalias sret(%"class.arrow::Result.33") align 8 %agg.result, ptr noundef nonnull align 8 dereferenceable(80) %this, i64 noundef %nbytes) #0 comdat align 2 personality ptr @__gxx_personality_v0 {
entry:
  %result.ptr = alloca ptr, align 8
  %this.addr = alloca ptr, align 8
  %nbytes.addr = alloca i64, align 8
  %_error_or_value19 = alloca ptr, align 8
  %ref.tmp = alloca %"class.arrow::Result.115", align 8
  %cleanup.dest.slot = alloca i32, align 4
  %buffer = alloca %"class.std::unique_ptr.119", align 8
  %exn.slot = alloca ptr, align 8
  %ehselector.slot = alloca i32, align 4
  %_error_or_value20 = alloca ptr, align 8
  %ref.tmp5 = alloca %"class.arrow::Result.28", align 8
  %bytes_read = alloca i64, align 8
  %__s = alloca %"class.arrow::Status", align 8
  %ref.tmp27 = alloca %"class.arrow::Status", align 8
  store ptr %agg.result, ptr %result.ptr, align 8
  store ptr %this, ptr %this.addr, align 8
  store i64 %nbytes, ptr %nbytes.addr, align 8
  %this1 = load ptr, ptr %this.addr, align 8
  %0 = load i64, ptr %nbytes.addr, align 8
  %pool_ = getelementptr inbounds %"class.arrow::io::ReadableFile::ReadableFileImpl", ptr %this1, i32 0, i32 1
  %1 = load ptr, ptr %pool_, align 8
  call void @_ZN5arrow23AllocateResizableBufferElPNS_10MemoryPoolE(ptr sret(%"class.arrow::Result.115") align 8 %ref.tmp, i64 noundef %0, ptr noundef %1)
  store ptr %ref.tmp, ptr %_error_or_value19, align 8
  br label %do.body

do.body:                                          ; preds = %entry
  %2 = load ptr, ptr %_error_or_value19, align 8
  %call = call noundef zeroext i1 @_ZNK5arrow6ResultISt10unique_ptrINS_15ResizableBufferESt14default_deleteIS2_EEE2okEv(ptr noundef nonnull align 8 dereferenceable(16) %2)
  %lnot = xor i1 %call, true
  %lnot2 = xor i1 %lnot, true
  %lnot3 = xor i1 %lnot2, true
  br i1 %lnot3, label %if.then, label %if.end

if.then:                                          ; preds = %do.body
  %3 = load ptr, ptr %_error_or_value19, align 8
  %call4 = call noundef nonnull align 8 dereferenceable(8) ptr @_ZNK5arrow6ResultISt10unique_ptrINS_15ResizableBufferESt14default_deleteIS2_EEE6statusEv(ptr noundef nonnull align 8 dereferenceable(16) %3)
  call void @_ZN5arrow6ResultISt10shared_ptrINS_6BufferEEEC2ERKNS_6StatusE(ptr noundef nonnull align 8 dereferenceable(24) %agg.result, ptr noundef nonnull align 8 dereferenceable(8) %call4) #14
  store i32 1, ptr %cleanup.dest.slot, align 4
  br label %cleanup45

if.end:                                           ; preds = %do.body
  br label %do.cond

do.cond:                                          ; preds = %if.end
  br label %do.end

do.end:                                           ; preds = %do.cond
  %4 = load ptr, ptr %_error_or_value19, align 8
  invoke void @_ZNO5arrow6ResultISt10unique_ptrINS_15ResizableBufferESt14default_deleteIS2_EEE11ValueUnsafeEv(ptr sret(%"class.std::unique_ptr.119") align 8 %buffer, ptr noundef nonnull align 8 dereferenceable(16) %4)
          to label %invoke.cont unwind label %lpad

invoke.cont:                                      ; preds = %do.end
  %5 = load i64, ptr %nbytes.addr, align 8
  %call6 = call noundef ptr @_ZNKSt10unique_ptrIN5arrow15ResizableBufferESt14default_deleteIS1_EEptEv(ptr noundef nonnull align 8 dereferenceable(8) %buffer) #14
  %call7 = call noundef ptr @_ZN5arrow6Buffer12mutable_dataEv(ptr noundef nonnull align 8 dereferenceable(80) %call6)
  invoke void @_ZN5arrow2io6OSFile4ReadElPv(ptr sret(%"class.arrow::Result.28") align 8 %ref.tmp5, ptr noundef nonnull align 8 dereferenceable(65) %this1, i64 noundef %5, ptr noundef %call7)
          to label %invoke.cont9 unwind label %lpad8

invoke.cont9:                                     ; preds = %invoke.cont
  store ptr %ref.tmp5, ptr %_error_or_value20, align 8
  br label %do.body10

do.body10:                                        ; preds = %invoke.cont9
  %6 = load ptr, ptr %_error_or_value20, align 8
  %call13 = invoke noundef zeroext i1 @_ZNK5arrow6ResultIlE2okEv(ptr noundef nonnull align 8 dereferenceable(16) %6)
          to label %invoke.cont12 unwind label %lpad11

invoke.cont12:                                    ; preds = %do.body10
  %lnot14 = xor i1 %call13, true
  %lnot15 = xor i1 %lnot14, true
  %lnot16 = xor i1 %lnot15, true
  br i1 %lnot16, label %if.then17, label %if.end20

if.then17:                                        ; preds = %invoke.cont12
  %7 = load ptr, ptr %_error_or_value20, align 8
  %call19 = invoke noundef nonnull align 8 dereferenceable(8) ptr @_ZNK5arrow6ResultIlE6statusEv(ptr noundef nonnull align 8 dereferenceable(16) %7)
          to label %invoke.cont18 unwind label %lpad11

invoke.cont18:                                    ; preds = %if.then17
  call void @_ZN5arrow6ResultISt10shared_ptrINS_6BufferEEEC2ERKNS_6StatusE(ptr noundef nonnull align 8 dereferenceable(24) %agg.result, ptr noundef nonnull align 8 dereferenceable(8) %call19) #14
  store i32 1, ptr %cleanup.dest.slot, align 4
  br label %cleanup43

lpad:                                             ; preds = %do.end
  %8 = landingpad { ptr, i32 }
          cleanup
  %9 = extractvalue { ptr, i32 } %8, 0
  store ptr %9, ptr %exn.slot, align 8
  %10 = extractvalue { ptr, i32 } %8, 1
  store i32 %10, ptr %ehselector.slot, align 4
  br label %ehcleanup46

lpad8:                                            ; preds = %invoke.cont
  %11 = landingpad { ptr, i32 }
          cleanup
  %12 = extractvalue { ptr, i32 } %11, 0
  store ptr %12, ptr %exn.slot, align 8
  %13 = extractvalue { ptr, i32 } %11, 1
  store i32 %13, ptr %ehselector.slot, align 4
  br label %ehcleanup

lpad11:                                           ; preds = %do.body26, %do.end22, %if.then17, %do.body10
  %14 = landingpad { ptr, i32 }
          cleanup
  %15 = extractvalue { ptr, i32 } %14, 0
  store ptr %15, ptr %exn.slot, align 8
  %16 = extractvalue { ptr, i32 } %14, 1
  store i32 %16, ptr %ehselector.slot, align 4
  call void @_ZN5arrow6ResultIlED2Ev(ptr noundef nonnull align 8 dereferenceable(16) %ref.tmp5) #14
  br label %ehcleanup

if.end20:                                         ; preds = %invoke.cont12
  br label %do.cond21

do.cond21:                                        ; preds = %if.end20
  br label %do.end22

do.end22:                                         ; preds = %do.cond21
  %17 = load ptr, ptr %_error_or_value20, align 8
  %call24 = invoke noundef i64 @_ZNO5arrow6ResultIlE11ValueUnsafeEv(ptr noundef nonnull align 8 dereferenceable(16) %17)
          to label %invoke.cont23 unwind label %lpad11

invoke.cont23:                                    ; preds = %do.end22
  store i64 %call24, ptr %bytes_read, align 8
  %18 = load i64, ptr %bytes_read, align 8
  %19 = load i64, ptr %nbytes.addr, align 8
  %cmp = icmp slt i64 %18, %19
  br i1 %cmp, label %if.then25, label %if.end42

if.then25:                                        ; preds = %invoke.cont23
  br label %do.body26

do.body26:                                        ; preds = %if.then25
  %call28 = call noundef ptr @_ZNKSt10unique_ptrIN5arrow15ResizableBufferESt14default_deleteIS1_EEptEv(ptr noundef nonnull align 8 dereferenceable(8) %buffer) #14
  %20 = load i64, ptr %bytes_read, align 8
  invoke void @_ZN5arrow15ResizableBuffer6ResizeEl(ptr sret(%"class.arrow::Status") align 8 %ref.tmp27, ptr noundef nonnull align 8 dereferenceable(80) %call28, i64 noundef %20)
          to label %invoke.cont29 unwind label %lpad11

invoke.cont29:                                    ; preds = %do.body26
  call void @_ZN5arrow8internal15GenericToStatusEONS_6StatusE(ptr sret(%"class.arrow::Status") align 8 %__s, ptr noundef nonnull align 8 dereferenceable(8) %ref.tmp27)
  call void @_ZN5arrow6StatusD2Ev(ptr noundef nonnull align 8 dereferenceable(8) %ref.tmp27) #14
  br label %do.body30

do.body30:                                        ; preds = %invoke.cont29
  %call31 = call noundef zeroext i1 @_ZNK5arrow6Status2okEv(ptr noundef nonnull align 8 dereferenceable(8) %__s)
  %lnot32 = xor i1 %call31, true
  %lnot33 = xor i1 %lnot32, true
  %lnot34 = xor i1 %lnot33, true
  br i1 %lnot34, label %if.then35, label %if.end36

if.then35:                                        ; preds = %do.body30
  call void @_ZN5arrow6ResultISt10shared_ptrINS_6BufferEEEC2ERKNS_6StatusE(ptr noundef nonnull align 8 dereferenceable(24) %agg.result, ptr noundef nonnull align 8 dereferenceable(8) %__s) #14
  store i32 1, ptr %cleanup.dest.slot, align 4
  br label %cleanup

if.end36:                                         ; preds = %do.body30
  br label %do.cond37

do.cond37:                                        ; preds = %if.end36
  br label %do.end38

do.end38:                                         ; preds = %do.cond37
  store i32 0, ptr %cleanup.dest.slot, align 4
  br label %cleanup

cleanup:                                          ; preds = %do.end38, %if.then35
  call void @_ZN5arrow6StatusD2Ev(ptr noundef nonnull align 8 dereferenceable(8) %__s) #14
  %cleanup.dest = load i32, ptr %cleanup.dest.slot, align 4
  switch i32 %cleanup.dest, label %cleanup43 [
    i32 0, label %cleanup.cont
  ]

cleanup.cont:                                     ; preds = %cleanup
  br label %do.cond39

do.cond39:                                        ; preds = %cleanup.cont
  br label %do.end40

do.end40:                                         ; preds = %do.cond39
  %call41 = call noundef ptr @_ZNKSt10unique_ptrIN5arrow15ResizableBufferESt14default_deleteIS1_EEptEv(ptr noundef nonnull align 8 dereferenceable(8) %buffer) #14
  call void @_ZN5arrow6Buffer11ZeroPaddingEv(ptr noundef nonnull align 8 dereferenceable(80) %call41)
  br label %if.end42

if.end42:                                         ; preds = %do.end40, %invoke.cont23
  call void @_ZN5arrow6ResultISt10shared_ptrINS_6BufferEEEC2ISt10unique_ptrINS_15ResizableBufferESt14default_deleteIS7_EEvEEOT_(ptr noundef nonnull align 8 dereferenceable(24) %agg.result, ptr noundef nonnull align 8 dereferenceable(8) %buffer) #14
  store i32 1, ptr %cleanup.dest.slot, align 4
  br label %cleanup43

cleanup43:                                        ; preds = %if.end42, %cleanup, %invoke.cont18
  call void @_ZN5arrow6ResultIlED2Ev(ptr noundef nonnull align 8 dereferenceable(16) %ref.tmp5) #14
  call void @_ZNSt10unique_ptrIN5arrow15ResizableBufferESt14default_deleteIS1_EED2Ev(ptr noundef nonnull align 8 dereferenceable(8) %buffer) #14
  br label %cleanup45

ehcleanup:                                        ; preds = %lpad11, %lpad8
  call void @_ZNSt10unique_ptrIN5arrow15ResizableBufferESt14default_deleteIS1_EED2Ev(ptr noundef nonnull align 8 dereferenceable(8) %buffer) #14
  br label %ehcleanup46

cleanup45:                                        ; preds = %cleanup43, %if.then
  call void @_ZN5arrow6ResultISt10unique_ptrINS_15ResizableBufferESt14default_deleteIS2_EEED2Ev(ptr noundef nonnull align 8 dereferenceable(16) %ref.tmp) #14
  ret void

ehcleanup46:                                      ; preds = %ehcleanup, %lpad
  call void @_ZN5arrow6ResultISt10unique_ptrINS_15ResizableBufferESt14default_deleteIS2_EEED2Ev(ptr noundef nonnull align 8 dereferenceable(16) %ref.tmp) #14
  br label %eh.resume

eh.resume:                                        ; preds = %ehcleanup46
  %exn = load ptr, ptr %exn.slot, align 8
  %sel = load i32, ptr %ehselector.slot, align 4
  %lpad.val = insertvalue { ptr, i32 } poison, ptr %exn, 0
  %lpad.val47 = insertvalue { ptr, i32 } %lpad.val, i32 %sel, 1
  resume { ptr, i32 } %lpad.val47
}

; Function Attrs: mustprogress uwtable
define void @_ZN5arrow2io12ReadableFile9DoGetSizeEv(ptr noalias sret(%"class.arrow::Result.28") align 8 %agg.result, ptr noundef nonnull align 8 dereferenceable(48) %this) #0 align 2 {
entry:
  %result.ptr = alloca ptr, align 8
  %this.addr = alloca ptr, align 8
  %ref.tmp = alloca i64, align 8
  store ptr %agg.result, ptr %result.ptr, align 8
  store ptr %this, ptr %this.addr, align 8
  %this1 = load ptr, ptr %this.addr, align 8
  %impl_ = getelementptr inbounds %"class.arrow::io::ReadableFile", ptr %this1, i32 0, i32 1
  %call = call noundef ptr @_ZNKSt10unique_ptrIN5arrow2io12ReadableFile16ReadableFileImplESt14default_deleteIS3_EEptEv(ptr noundef nonnull align 8 dereferenceable(8) %impl_) #14
  %call2 = call noundef i64 @_ZNK5arrow2io6OSFile4sizeEv(ptr noundef nonnull align 8 dereferenceable(65) %call)
  store i64 %call2, ptr %ref.tmp, align 8
  call void @_ZN5arrow6ResultIlEC2EOl(ptr noundef nonnull align 8 dereferenceable(16) %agg.result, ptr noundef nonnull align 8 dereferenceable(8) %ref.tmp) #14
  ret void
}

; Function Attrs: mustprogress nounwind uwtable
define linkonce_odr noundef i64 @_ZNK5arrow2io6OSFile4sizeEv(ptr noundef nonnull align 8 dereferenceable(65) %this) #1 comdat align 2 {
entry:
  %this.addr = alloca ptr, align 8
  store ptr %this, ptr %this.addr, align 8
  %this1 = load ptr, ptr %this.addr, align 8
  %size_ = getelementptr inbounds %"class.arrow::io::OSFile", ptr %this1, i32 0, i32 4
  %0 = load i64, ptr %size_, align 8
  ret i64 %0
}

; Function Attrs: mustprogress nounwind uwtable
define linkonce_odr void @_ZN5arrow6ResultIlEC2EOl(ptr noundef nonnull align 8 dereferenceable(16) %this, ptr noundef nonnull align 8 dereferenceable(8) %value) unnamed_addr #1 comdat align 2 {
entry:
  %this.addr = alloca ptr, align 8
  %value.addr = alloca ptr, align 8
  store ptr %this, ptr %this.addr, align 8
  store ptr %value, ptr %value.addr, align 8
  %this1 = load ptr, ptr %this.addr, align 8
  %status_ = getelementptr inbounds %"class.arrow::Result.28", ptr %this1, i32 0, i32 0
  call void @_ZN5arrow6StatusC2Ev(ptr noundef nonnull align 8 dereferenceable(8) %status_) #14
  %0 = load ptr, ptr %value.addr, align 8
  call void @_ZN5arrow6ResultIlE14ConstructValueIlEEvOT_(ptr noundef nonnull align 8 dereferenceable(16) %this1, ptr noundef nonnull align 8 dereferenceable(8) %0) #14
  ret void
}

; Function Attrs: mustprogress uwtable
define void @_ZN5arrow2io12ReadableFile6DoSeekEl(ptr noalias sret(%"class.arrow::Status") align 8 %agg.result, ptr noundef nonnull align 8 dereferenceable(48) %this, i64 noundef %pos) #0 align 2 {
entry:
  %result.ptr = alloca ptr, align 8
  %this.addr = alloca ptr, align 8
  %pos.addr = alloca i64, align 8
  store ptr %agg.result, ptr %result.ptr, align 8
  store ptr %this, ptr %this.addr, align 8
  store i64 %pos, ptr %pos.addr, align 8
  %this1 = load ptr, ptr %this.addr, align 8
  %impl_ = getelementptr inbounds %"class.arrow::io::ReadableFile", ptr %this1, i32 0, i32 1
  %call = call noundef ptr @_ZNKSt10unique_ptrIN5arrow2io12ReadableFile16ReadableFileImplESt14default_deleteIS3_EEptEv(ptr noundef nonnull align 8 dereferenceable(8) %impl_) #14
  %0 = load i64, ptr %pos.addr, align 8
  call void @_ZN5arrow2io6OSFile4SeekEl(ptr sret(%"class.arrow::Status") align 8 %agg.result, ptr noundef nonnull align 8 dereferenceable(65) %call, i64 noundef %0)
  ret void
}

; Function Attrs: mustprogress uwtable
define linkonce_odr void @_ZN5arrow2io6OSFile4SeekEl(ptr noalias sret(%"class.arrow::Status") align 8 %agg.result, ptr noundef nonnull align 8 dereferenceable(65) %this, i64 noundef %pos) #0 comdat align 2 {
entry:
  %result.ptr = alloca ptr, align 8
  %this.addr = alloca ptr, align 8
  %pos.addr = alloca i64, align 8
  %nrvo = alloca i1, align 1
  %ref.tmp = alloca %"class.arrow::Status", align 8
  %cleanup.dest.slot = alloca i32, align 4
  %nrvo9 = alloca i1, align 1
  store ptr %agg.result, ptr %result.ptr, align 8
  store ptr %this, ptr %this.addr, align 8
  store i64 %pos, ptr %pos.addr, align 8
  %this1 = load ptr, ptr %this.addr, align 8
  br label %do.body

do.body:                                          ; preds = %entry
  store i1 false, ptr %nrvo, align 1
  call void @_ZNK5arrow2io6OSFile11CheckClosedEv(ptr sret(%"class.arrow::Status") align 8 %ref.tmp, ptr noundef nonnull align 8 dereferenceable(65) %this1)
  call void @_ZN5arrow8internal15GenericToStatusEONS_6StatusE(ptr sret(%"class.arrow::Status") align 8 %agg.result, ptr noundef nonnull align 8 dereferenceable(8) %ref.tmp)
  call void @_ZN5arrow6StatusD2Ev(ptr noundef nonnull align 8 dereferenceable(8) %ref.tmp) #14
  br label %do.body2

do.body2:                                         ; preds = %do.body
  %call = call noundef zeroext i1 @_ZNK5arrow6Status2okEv(ptr noundef nonnull align 8 dereferenceable(8) %agg.result)
  %lnot = xor i1 %call, true
  %lnot3 = xor i1 %lnot, true
  %lnot4 = xor i1 %lnot3, true
  br i1 %lnot4, label %if.then, label %if.end

if.then:                                          ; preds = %do.body2
  store i1 true, ptr %nrvo, align 1
  store i32 1, ptr %cleanup.dest.slot, align 4
  br label %cleanup

if.end:                                           ; preds = %do.body2
  br label %do.cond

do.cond:                                          ; preds = %if.end
  br label %do.end

do.end:                                           ; preds = %do.cond
  store i32 0, ptr %cleanup.dest.slot, align 4
  br label %cleanup

cleanup:                                          ; preds = %do.end, %if.then
  %nrvo.val = load i1, ptr %nrvo, align 1
  br i1 %nrvo.val, label %nrvo.skipdtor, label %nrvo.unused

nrvo.unused:                                      ; preds = %cleanup
  call void @_ZN5arrow6StatusD2Ev(ptr noundef nonnull align 8 dereferenceable(8) %agg.result) #14
  br label %nrvo.skipdtor

nrvo.skipdtor:                                    ; preds = %nrvo.unused, %cleanup
  %cleanup.dest = load i32, ptr %cleanup.dest.slot, align 4
  switch i32 %cleanup.dest, label %unreachable [
    i32 0, label %cleanup.cont
    i32 1, label %return
  ]

cleanup.cont:                                     ; preds = %nrvo.skipdtor
  br label %do.end6

do.end6:                                          ; preds = %cleanup.cont
  %0 = load i64, ptr %pos.addr, align 8
  %cmp = icmp slt i64 %0, 0
  br i1 %cmp, label %if.then7, label %if.end8

if.then7:                                         ; preds = %do.end6
  call void @_ZN5arrow6Status7InvalidIJRA17_KcEEES0_DpOT_(ptr sret(%"class.arrow::Status") align 8 %agg.result, ptr noundef nonnull align 1 dereferenceable(17) @.str.6)
  br label %return

if.end8:                                          ; preds = %do.end6
  store i1 false, ptr %nrvo9, align 1
  %fd_ = getelementptr inbounds %"class.arrow::io::OSFile", ptr %this1, i32 0, i32 2
  %call10 = call noundef i32 @_ZNK5arrow8internal14FileDescriptor2fdEv(ptr noundef nonnull align 4 dereferenceable(4) %fd_)
  %1 = load i64, ptr %pos.addr, align 8
  call void @_ZN5arrow8internal8FileSeekEil(ptr sret(%"class.arrow::Status") align 8 %agg.result, i32 noundef %call10, i64 noundef %1)
  %call11 = call noundef zeroext i1 @_ZNK5arrow6Status2okEv(ptr noundef nonnull align 8 dereferenceable(8) %agg.result)
  br i1 %call11, label %if.then12, label %if.end13

if.then12:                                        ; preds = %if.end8
  %need_seeking_ = getelementptr inbounds %"class.arrow::io::OSFile", ptr %this1, i32 0, i32 5
  call void @_ZNSt6atomicIbE5storeEbSt12memory_order(ptr noundef nonnull align 1 dereferenceable(1) %need_seeking_, i1 noundef zeroext false, i32 noundef 5) #14
  br label %if.end13

if.end13:                                         ; preds = %if.then12, %if.end8
  store i1 true, ptr %nrvo9, align 1
  store i32 1, ptr %cleanup.dest.slot, align 4
  %nrvo.val15 = load i1, ptr %nrvo9, align 1
  br i1 %nrvo.val15, label %nrvo.skipdtor17, label %nrvo.unused16

nrvo.unused16:                                    ; preds = %if.end13
  call void @_ZN5arrow6StatusD2Ev(ptr noundef nonnull align 8 dereferenceable(8) %agg.result) #14
  br label %nrvo.skipdtor17

nrvo.skipdtor17:                                  ; preds = %nrvo.unused16, %if.end13
  br label %return

return:                                           ; preds = %nrvo.skipdtor17, %if.then7, %nrvo.skipdtor
  ret void

unreachable:                                      ; preds = %nrvo.skipdtor
  unreachable
}

; Function Attrs: mustprogress uwtable
define noundef i32 @_ZNK5arrow2io12ReadableFile15file_descriptorEv(ptr noundef nonnull align 8 dereferenceable(48) %this) #0 align 2 {
entry:
  %this.addr = alloca ptr, align 8
  store ptr %this, ptr %this.addr, align 8
  %this1 = load ptr, ptr %this.addr, align 8
  %impl_ = getelementptr inbounds %"class.arrow::io::ReadableFile", ptr %this1, i32 0, i32 1
  %call = call noundef ptr @_ZNKSt10unique_ptrIN5arrow2io12ReadableFile16ReadableFileImplESt14default_deleteIS3_EEptEv(ptr noundef nonnull align 8 dereferenceable(8) %impl_) #14
  %call2 = call noundef i32 @_ZNK5arrow2io6OSFile2fdEv(ptr noundef nonnull align 8 dereferenceable(65) %call)
  ret i32 %call2
}

; Function Attrs: mustprogress nounwind uwtable
define linkonce_odr noundef i32 @_ZNK5arrow2io6OSFile2fdEv(ptr noundef nonnull align 8 dereferenceable(65) %this) #1 comdat align 2 {
entry:
  %this.addr = alloca ptr, align 8
  store ptr %this, ptr %this.addr, align 8
  %this1 = load ptr, ptr %this.addr, align 8
  %fd_ = getelementptr inbounds %"class.arrow::io::OSFile", ptr %this1, i32 0, i32 2
  %call = call noundef i32 @_ZNK5arrow8internal14FileDescriptor2fdEv(ptr noundef nonnull align 4 dereferenceable(4) %fd_)
  ret i32 %call
}

; Function Attrs: mustprogress uwtable
define void @_ZN5arrow2io16FileOutputStreamC2Ev(ptr noundef nonnull align 8 dereferenceable(16) %this, ptr noundef %vtt) unnamed_addr #0 align 2 personality ptr @__gxx_personality_v0 {
entry:
  %this.addr = alloca ptr, align 8
  %vtt.addr = alloca ptr, align 8
  %exn.slot = alloca ptr, align 8
  %ehselector.slot = alloca i32, align 4
  store ptr %this, ptr %this.addr, align 8
  store ptr %vtt, ptr %vtt.addr, align 8
  %this1 = load ptr, ptr %this.addr, align 8
  %vtt2 = load ptr, ptr %vtt.addr, align 8
  %0 = getelementptr inbounds ptr, ptr %vtt2, i64 1
  call void @_ZN5arrow2io12OutputStreamC2Ev(ptr noundef nonnull align 8 dereferenceable(8) %this1, ptr noundef %0) #14
  %1 = load ptr, ptr %vtt2, align 8
  store ptr %1, ptr %this1, align 8
  %2 = getelementptr inbounds ptr, ptr %vtt2, i64 3
  %3 = load ptr, ptr %2, align 8
  %vtable = load ptr, ptr %this1, align 8
  %vbase.offset.ptr = getelementptr i8, ptr %vtable, i64 -24
  %vbase.offset = load i64, ptr %vbase.offset.ptr, align 8
  %add.ptr = getelementptr inbounds i8, ptr %this1, i64 %vbase.offset
  store ptr %3, ptr %add.ptr, align 8
  %impl_ = getelementptr inbounds %"class.arrow::io::FileOutputStream", ptr %this1, i32 0, i32 1
  call void @_ZNSt10unique_ptrIN5arrow2io16FileOutputStream20FileOutputStreamImplESt14default_deleteIS3_EEC2IS5_vEEv(ptr noundef nonnull align 8 dereferenceable(8) %impl_) #14
  %impl_3 = getelementptr inbounds %"class.arrow::io::FileOutputStream", ptr %this1, i32 0, i32 1
  %call = invoke noalias noundef nonnull ptr @_Znwm(i64 noundef 72) #15
          to label %invoke.cont unwind label %lpad

invoke.cont:                                      ; preds = %entry
  call void @llvm.memset.p0.i64(ptr align 16 %call, i8 0, i64 72, i1 false)
  invoke void @_ZN5arrow2io16FileOutputStream20FileOutputStreamImplC2Ev(ptr noundef nonnull align 8 dereferenceable(65) %call)
          to label %invoke.cont5 unwind label %lpad4

invoke.cont5:                                     ; preds = %invoke.cont
  call void @_ZNSt10unique_ptrIN5arrow2io16FileOutputStream20FileOutputStreamImplESt14default_deleteIS3_EE5resetEPS3_(ptr noundef nonnull align 8 dereferenceable(8) %impl_3, ptr noundef %call) #14
  ret void

lpad:                                             ; preds = %entry
  %4 = landingpad { ptr, i32 }
          cleanup
  %5 = extractvalue { ptr, i32 } %4, 0
  store ptr %5, ptr %exn.slot, align 8
  %6 = extractvalue { ptr, i32 } %4, 1
  store i32 %6, ptr %ehselector.slot, align 4
  br label %ehcleanup

lpad4:                                            ; preds = %invoke.cont
  %7 = landingpad { ptr, i32 }
          cleanup
  %8 = extractvalue { ptr, i32 } %7, 0
  store ptr %8, ptr %exn.slot, align 8
  %9 = extractvalue { ptr, i32 } %7, 1
  store i32 %9, ptr %ehselector.slot, align 4
  call void @_ZdlPv(ptr noundef %call) #16
  br label %ehcleanup

ehcleanup:                                        ; preds = %lpad4, %lpad
  call void @_ZNSt10unique_ptrIN5arrow2io16FileOutputStream20FileOutputStreamImplESt14default_deleteIS3_EED2Ev(ptr noundef nonnull align 8 dereferenceable(8) %impl_) #14
  %10 = getelementptr inbounds ptr, ptr %vtt2, i64 1
  call void @_ZN5arrow2io12OutputStreamD2Ev(ptr noundef nonnull align 8 dereferenceable(8) %this1, ptr noundef %10) #14
  br label %eh.resume

eh.resume:                                        ; preds = %ehcleanup
  %exn = load ptr, ptr %exn.slot, align 8
  %sel = load i32, ptr %ehselector.slot, align 4
  %lpad.val = insertvalue { ptr, i32 } poison, ptr %exn, 0
  %lpad.val7 = insertvalue { ptr, i32 } %lpad.val, i32 %sel, 1
  resume { ptr, i32 } %lpad.val7
}

; Function Attrs: mustprogress nounwind uwtable
define linkonce_odr void @_ZN5arrow2io12OutputStreamC2Ev(ptr noundef nonnull align 8 dereferenceable(8) %this, ptr noundef %vtt) unnamed_addr #1 comdat align 2 {
entry:
  %this.addr = alloca ptr, align 8
  %vtt.addr = alloca ptr, align 8
  store ptr %this, ptr %this.addr, align 8
  store ptr %vtt, ptr %vtt.addr, align 8
  %this1 = load ptr, ptr %this.addr, align 8
  %vtt2 = load ptr, ptr %vtt.addr, align 8
  call void @_ZN5arrow2io8WritableC2Ev(ptr noundef nonnull align 8 dereferenceable(8) %this1) #14
  %0 = load ptr, ptr %vtt2, align 8
  store ptr %0, ptr %this1, align 8
  %1 = getelementptr inbounds ptr, ptr %vtt2, i64 1
  %2 = load ptr, ptr %1, align 8
  %vtable = load ptr, ptr %this1, align 8
  %vbase.offset.ptr = getelementptr i8, ptr %vtable, i64 -24
  %vbase.offset = load i64, ptr %vbase.offset.ptr, align 8
  %add.ptr = getelementptr inbounds i8, ptr %this1, i64 %vbase.offset
  store ptr %2, ptr %add.ptr, align 8
  ret void
}

; Function Attrs: mustprogress nounwind uwtable
define linkonce_odr hidden void @_ZNSt10unique_ptrIN5arrow2io16FileOutputStream20FileOutputStreamImplESt14default_deleteIS3_EEC2IS5_vEEv(ptr noundef nonnull align 8 dereferenceable(8) %this) unnamed_addr #1 comdat align 2 {
entry:
  %this.addr = alloca ptr, align 8
  store ptr %this, ptr %this.addr, align 8
  %this1 = load ptr, ptr %this.addr, align 8
  %_M_t = getelementptr inbounds %"class.std::unique_ptr.37", ptr %this1, i32 0, i32 0
  call void @llvm.memset.p0.i64(ptr align 8 %_M_t, i8 0, i64 8, i1 false)
  call void @_ZNSt15__uniq_ptr_dataIN5arrow2io16FileOutputStream20FileOutputStreamImplESt14default_deleteIS3_ELb1ELb1EEC2Ev(ptr noundef nonnull align 8 dereferenceable(8) %_M_t) #14
  ret void
}

; Function Attrs: mustprogress nounwind uwtable
define linkonce_odr hidden void @_ZNSt10unique_ptrIN5arrow2io16FileOutputStream20FileOutputStreamImplESt14default_deleteIS3_EE5resetEPS3_(ptr noundef nonnull align 8 dereferenceable(8) %this, ptr noundef %__p) #1 comdat align 2 {
entry:
  %this.addr = alloca ptr, align 8
  %__p.addr = alloca ptr, align 8
  store ptr %this, ptr %this.addr, align 8
  store ptr %__p, ptr %__p.addr, align 8
  %this1 = load ptr, ptr %this.addr, align 8
  %_M_t = getelementptr inbounds %"class.std::unique_ptr.37", ptr %this1, i32 0, i32 0
  %0 = load ptr, ptr %__p.addr, align 8
  call void @_ZNSt15__uniq_ptr_implIN5arrow2io16FileOutputStream20FileOutputStreamImplESt14default_deleteIS3_EE5resetEPS3_(ptr noundef nonnull align 8 dereferenceable(8) %_M_t, ptr noundef %0) #14
  ret void
}

; Function Attrs: nocallback nofree nounwind willreturn memory(argmem: write)
declare void @llvm.memset.p0.i64(ptr nocapture writeonly, i8, i64, i1 immarg) #9

; Function Attrs: mustprogress uwtable
define linkonce_odr hidden void @_ZN5arrow2io16FileOutputStream20FileOutputStreamImplC2Ev(ptr noundef nonnull align 8 dereferenceable(65) %this) unnamed_addr #0 comdat align 2 {
entry:
  %this.addr = alloca ptr, align 8
  store ptr %this, ptr %this.addr, align 8
  %this1 = load ptr, ptr %this.addr, align 8
  call void @_ZN5arrow2io6OSFileC2Ev(ptr noundef nonnull align 8 dereferenceable(65) %this1)
  ret void
}

; Function Attrs: mustprogress nounwind uwtable
define linkonce_odr hidden void @_ZNSt10unique_ptrIN5arrow2io16FileOutputStream20FileOutputStreamImplESt14default_deleteIS3_EED2Ev(ptr noundef nonnull align 8 dereferenceable(8) %this) unnamed_addr #1 comdat align 2 personality ptr @__gxx_personality_v0 {
entry:
  %this.addr = alloca ptr, align 8
  %__ptr = alloca ptr, align 8
  store ptr %this, ptr %this.addr, align 8
  %this1 = load ptr, ptr %this.addr, align 8
  %_M_t = getelementptr inbounds %"class.std::unique_ptr.37", ptr %this1, i32 0, i32 0
  %call = call noundef nonnull align 8 dereferenceable(8) ptr @_ZNSt15__uniq_ptr_implIN5arrow2io16FileOutputStream20FileOutputStreamImplESt14default_deleteIS3_EE6_M_ptrEv(ptr noundef nonnull align 8 dereferenceable(8) %_M_t) #14
  store ptr %call, ptr %__ptr, align 8
  %0 = load ptr, ptr %__ptr, align 8
  %1 = load ptr, ptr %0, align 8
  %cmp = icmp ne ptr %1, null
  br i1 %cmp, label %if.then, label %if.end

if.then:                                          ; preds = %entry
  %call2 = call noundef nonnull align 1 dereferenceable(1) ptr @_ZNSt10unique_ptrIN5arrow2io16FileOutputStream20FileOutputStreamImplESt14default_deleteIS3_EE11get_deleterEv(ptr noundef nonnull align 8 dereferenceable(8) %this1) #14
  %2 = load ptr, ptr %__ptr, align 8
  %3 = load ptr, ptr %2, align 8
  invoke void @_ZNKSt14default_deleteIN5arrow2io16FileOutputStream20FileOutputStreamImplEEclEPS3_(ptr noundef nonnull align 1 dereferenceable(1) %call2, ptr noundef %3)
          to label %invoke.cont unwind label %terminate.lpad

invoke.cont:                                      ; preds = %if.then
  br label %if.end

if.end:                                           ; preds = %invoke.cont, %entry
  %4 = load ptr, ptr %__ptr, align 8
  store ptr null, ptr %4, align 8
  ret void

terminate.lpad:                                   ; preds = %if.then
  %5 = landingpad { ptr, i32 }
          catch ptr null
  %6 = extractvalue { ptr, i32 } %5, 0
  call void @__clang_call_terminate(ptr %6) #17
  unreachable
}

; Function Attrs: mustprogress nounwind uwtable
define linkonce_odr void @_ZN5arrow2io12OutputStreamD2Ev(ptr noundef nonnull align 8 dereferenceable(8) %this, ptr noundef %vtt) unnamed_addr #1 comdat align 2 {
entry:
  %this.addr = alloca ptr, align 8
  %vtt.addr = alloca ptr, align 8
  store ptr %this, ptr %this.addr, align 8
  store ptr %vtt, ptr %vtt.addr, align 8
  %this1 = load ptr, ptr %this.addr, align 8
  call void @_ZN5arrow2io8WritableD2Ev(ptr noundef nonnull align 8 dereferenceable(8) %this1) #14
  ret void
}

; Function Attrs: mustprogress uwtable
define void @_ZN5arrow2io16FileOutputStreamC1Ev(ptr noundef nonnull align 8 dereferenceable(16) %this) unnamed_addr #0 align 2 personality ptr @__gxx_personality_v0 {
entry:
  %this.addr = alloca ptr, align 8
  %exn.slot = alloca ptr, align 8
  %ehselector.slot = alloca i32, align 4
  store ptr %this, ptr %this.addr, align 8
  %this1 = load ptr, ptr %this.addr, align 8
  %0 = getelementptr inbounds i8, ptr %this1, i64 16
  call void @_ZN5arrow2io13FileInterfaceC2Ev(ptr noundef nonnull align 8 dereferenceable(28) %0)
  call void @_ZN5arrow2io12OutputStreamC2Ev(ptr noundef nonnull align 8 dereferenceable(8) %this1, ptr noundef getelementptr inbounds ([4 x ptr], ptr @_ZTTN5arrow2io16FileOutputStreamE, i64 0, i64 1)) #14
  store ptr getelementptr inbounds ({ [11 x ptr], [15 x ptr] }, ptr @_ZTVN5arrow2io16FileOutputStreamE, i32 0, inrange i32 0, i32 3), ptr %this1, align 8
  %add.ptr = getelementptr inbounds i8, ptr %this1, i64 16
  store ptr getelementptr inbounds ({ [11 x ptr], [15 x ptr] }, ptr @_ZTVN5arrow2io16FileOutputStreamE, i32 0, inrange i32 1, i32 8), ptr %add.ptr, align 8
  %impl_ = getelementptr inbounds %"class.arrow::io::FileOutputStream", ptr %this1, i32 0, i32 1
  call void @_ZNSt10unique_ptrIN5arrow2io16FileOutputStream20FileOutputStreamImplESt14default_deleteIS3_EEC2IS5_vEEv(ptr noundef nonnull align 8 dereferenceable(8) %impl_) #14
  %impl_2 = getelementptr inbounds %"class.arrow::io::FileOutputStream", ptr %this1, i32 0, i32 1
  %call = invoke noalias noundef nonnull ptr @_Znwm(i64 noundef 72) #15
          to label %invoke.cont unwind label %lpad

invoke.cont:                                      ; preds = %entry
  call void @llvm.memset.p0.i64(ptr align 16 %call, i8 0, i64 72, i1 false)
  invoke void @_ZN5arrow2io16FileOutputStream20FileOutputStreamImplC2Ev(ptr noundef nonnull align 8 dereferenceable(65) %call)
          to label %invoke.cont4 unwind label %lpad3

invoke.cont4:                                     ; preds = %invoke.cont
  call void @_ZNSt10unique_ptrIN5arrow2io16FileOutputStream20FileOutputStreamImplESt14default_deleteIS3_EE5resetEPS3_(ptr noundef nonnull align 8 dereferenceable(8) %impl_2, ptr noundef %call) #14
  ret void

lpad:                                             ; preds = %entry
  %1 = landingpad { ptr, i32 }
          cleanup
  %2 = extractvalue { ptr, i32 } %1, 0
  store ptr %2, ptr %exn.slot, align 8
  %3 = extractvalue { ptr, i32 } %1, 1
  store i32 %3, ptr %ehselector.slot, align 4
  br label %ehcleanup

lpad3:                                            ; preds = %invoke.cont
  %4 = landingpad { ptr, i32 }
          cleanup
  %5 = extractvalue { ptr, i32 } %4, 0
  store ptr %5, ptr %exn.slot, align 8
  %6 = extractvalue { ptr, i32 } %4, 1
  store i32 %6, ptr %ehselector.slot, align 4
  call void @_ZdlPv(ptr noundef %call) #16
  br label %ehcleanup

ehcleanup:                                        ; preds = %lpad3, %lpad
  call void @_ZNSt10unique_ptrIN5arrow2io16FileOutputStream20FileOutputStreamImplESt14default_deleteIS3_EED2Ev(ptr noundef nonnull align 8 dereferenceable(8) %impl_) #14
  call void @_ZN5arrow2io12OutputStreamD2Ev(ptr noundef nonnull align 8 dereferenceable(8) %this1, ptr noundef getelementptr inbounds ([4 x ptr], ptr @_ZTTN5arrow2io16FileOutputStreamE, i64 0, i64 1)) #14
  %7 = getelementptr inbounds i8, ptr %this1, i64 16
  call void @_ZN5arrow2io13FileInterfaceD2Ev(ptr noundef nonnull align 8 dereferenceable(28) %7) #14
  br label %eh.resume

eh.resume:                                        ; preds = %ehcleanup
  %exn = load ptr, ptr %exn.slot, align 8
  %sel = load i32, ptr %ehselector.slot, align 4
  %lpad.val = insertvalue { ptr, i32 } poison, ptr %exn, 0
  %lpad.val7 = insertvalue { ptr, i32 } %lpad.val, i32 %sel, 1
  resume { ptr, i32 } %lpad.val7
}

; Function Attrs: mustprogress nounwind uwtable
define void @_ZN5arrow2io16FileOutputStreamD2Ev(ptr noundef nonnull align 8 dereferenceable(16) %this, ptr noundef %vtt) unnamed_addr #1 align 2 personality ptr @__gxx_personality_v0 {
entry:
  %this.addr = alloca ptr, align 8
  %vtt.addr = alloca ptr, align 8
  store ptr %this, ptr %this.addr, align 8
  store ptr %vtt, ptr %vtt.addr, align 8
  %this1 = load ptr, ptr %this.addr, align 8
  %vtt2 = load ptr, ptr %vtt.addr, align 8
  %0 = load ptr, ptr %vtt2, align 8
  store ptr %0, ptr %this1, align 8
  %1 = getelementptr inbounds ptr, ptr %vtt2, i64 3
  %2 = load ptr, ptr %1, align 8
  %vtable = load ptr, ptr %this1, align 8
  %vbase.offset.ptr = getelementptr i8, ptr %vtable, i64 -24
  %vbase.offset = load i64, ptr %vbase.offset.ptr, align 8
  %add.ptr = getelementptr inbounds i8, ptr %this1, i64 %vbase.offset
  store ptr %2, ptr %add.ptr, align 8
  %vtable3 = load ptr, ptr %this1, align 8
  %vbase.offset.ptr4 = getelementptr i8, ptr %vtable3, i64 -24
  %vbase.offset5 = load i64, ptr %vbase.offset.ptr4, align 8
  %add.ptr6 = getelementptr inbounds i8, ptr %this1, i64 %vbase.offset5
  invoke void @_ZN5arrow2io8internal19CloseFromDestructorEPNS0_13FileInterfaceE(ptr noundef %add.ptr6)
          to label %invoke.cont unwind label %terminate.lpad

invoke.cont:                                      ; preds = %entry
  %impl_ = getelementptr inbounds %"class.arrow::io::FileOutputStream", ptr %this1, i32 0, i32 1
  call void @_ZNSt10unique_ptrIN5arrow2io16FileOutputStream20FileOutputStreamImplESt14default_deleteIS3_EED2Ev(ptr noundef nonnull align 8 dereferenceable(8) %impl_) #14
  %3 = getelementptr inbounds ptr, ptr %vtt2, i64 1
  call void @_ZN5arrow2io12OutputStreamD2Ev(ptr noundef nonnull align 8 dereferenceable(8) %this1, ptr noundef %3) #14
  ret void

terminate.lpad:                                   ; preds = %entry
  %4 = landingpad { ptr, i32 }
          catch ptr null
  %5 = extractvalue { ptr, i32 } %4, 0
  call void @__clang_call_terminate(ptr %5) #17
  unreachable
}

; Function Attrs: mustprogress nounwind uwtable
define void @_ZN5arrow2io16FileOutputStreamD1Ev(ptr noundef nonnull align 8 dereferenceable(16) %this) unnamed_addr #1 align 2 {
entry:
  %this.addr = alloca ptr, align 8
  store ptr %this, ptr %this.addr, align 8
  %this1 = load ptr, ptr %this.addr, align 8
  call void @_ZN5arrow2io16FileOutputStreamD2Ev(ptr noundef nonnull align 8 dereferenceable(16) %this1, ptr noundef @_ZTTN5arrow2io16FileOutputStreamE) #14
  %0 = getelementptr inbounds i8, ptr %this1, i64 16
  call void @_ZN5arrow2io13FileInterfaceD2Ev(ptr noundef nonnull align 8 dereferenceable(28) %0) #14
  ret void
}

; Function Attrs: nounwind uwtable
define void @_ZTv0_n24_N5arrow2io16FileOutputStreamD1Ev(ptr noundef %this) unnamed_addr #7 align 2 {
entry:
  %this.addr = alloca ptr, align 8
  store ptr %this, ptr %this.addr, align 8
  %this1 = load ptr, ptr %this.addr, align 8
  %0 = load ptr, ptr %this1, align 8
  %1 = getelementptr inbounds i8, ptr %0, i64 -24
  %2 = load i64, ptr %1, align 8
  %3 = getelementptr inbounds i8, ptr %this1, i64 %2
  tail call void @_ZN5arrow2io16FileOutputStreamD1Ev(ptr noundef nonnull align 8 dereferenceable(16) %3) #14
  ret void
}

; Function Attrs: mustprogress nounwind uwtable
define void @_ZN5arrow2io16FileOutputStreamD0Ev(ptr noundef nonnull align 8 dereferenceable(16) %this) unnamed_addr #1 align 2 {
entry:
  %this.addr = alloca ptr, align 8
  store ptr %this, ptr %this.addr, align 8
  %this1 = load ptr, ptr %this.addr, align 8
  call void @_ZN5arrow2io16FileOutputStreamD1Ev(ptr noundef nonnull align 8 dereferenceable(16) %this1) #14
  call void @_ZdlPv(ptr noundef %this1) #16
  ret void
}

; Function Attrs: nounwind uwtable
define void @_ZTv0_n24_N5arrow2io16FileOutputStreamD0Ev(ptr noundef %this) unnamed_addr #7 align 2 {
entry:
  %this.addr = alloca ptr, align 8
  store ptr %this, ptr %this.addr, align 8
  %this1 = load ptr, ptr %this.addr, align 8
  %0 = load ptr, ptr %this1, align 8
  %1 = getelementptr inbounds i8, ptr %0, i64 -24
  %2 = load i64, ptr %1, align 8
  %3 = getelementptr inbounds i8, ptr %this1, i64 %2
  tail call void @_ZN5arrow2io16FileOutputStreamD0Ev(ptr noundef nonnull align 8 dereferenceable(16) %3) #14
  ret void
}

; Function Attrs: mustprogress uwtable
define void @_ZN5arrow2io16FileOutputStream4OpenERKNSt7__cxx1112basic_stringIcSt11char_traitsIcESaIcEEEb(ptr noalias sret(%"class.arrow::Result.45") align 8 %agg.result, ptr noundef nonnull align 8 dereferenceable(32) %path, i1 noundef zeroext %append) #0 align 2 personality ptr @__gxx_personality_v0 {
entry:
  %result.ptr = alloca ptr, align 8
  %path.addr = alloca ptr, align 8
  %append.addr = alloca i8, align 1
  %stream = alloca %"class.std::shared_ptr.49", align 8
  %exn.slot = alloca ptr, align 8
  %ehselector.slot = alloca i32, align 4
  %__s = alloca %"class.arrow::Status", align 8
  %ref.tmp = alloca %"class.arrow::Status", align 8
  %cleanup.dest.slot = alloca i32, align 4
  store ptr %agg.result, ptr %result.ptr, align 8
  store ptr %path, ptr %path.addr, align 8
  %frombool = zext i1 %append to i8
  store i8 %frombool, ptr %append.addr, align 1
  %call = call noalias noundef nonnull ptr @_Znwm(i64 noundef 48) #15
  invoke void @_ZN5arrow2io16FileOutputStreamC1Ev(ptr noundef nonnull align 8 dereferenceable(16) %call)
          to label %invoke.cont unwind label %lpad

invoke.cont:                                      ; preds = %entry
  call void @_ZNSt10shared_ptrIN5arrow2io16FileOutputStreamEEC2IS2_vEEPT_(ptr noundef nonnull align 8 dereferenceable(16) %stream, ptr noundef %call)
  br label %do.body

do.body:                                          ; preds = %invoke.cont
  %call1 = call noundef ptr @_ZNKSt19__shared_ptr_accessIN5arrow2io16FileOutputStreamELN9__gnu_cxx12_Lock_policyE2ELb0ELb0EEptEv(ptr noundef nonnull align 1 dereferenceable(1) %stream) #14
  %impl_ = getelementptr inbounds %"class.arrow::io::FileOutputStream", ptr %call1, i32 0, i32 1
  %call2 = call noundef ptr @_ZNKSt10unique_ptrIN5arrow2io16FileOutputStream20FileOutputStreamImplESt14default_deleteIS3_EEptEv(ptr noundef nonnull align 8 dereferenceable(8) %impl_) #14
  %0 = load ptr, ptr %path.addr, align 8
  %1 = load i8, ptr %append.addr, align 1
  %tobool = trunc i8 %1 to i1
  invoke void @_ZN5arrow2io16FileOutputStream20FileOutputStreamImpl4OpenERKNSt7__cxx1112basic_stringIcSt11char_traitsIcESaIcEEEb(ptr sret(%"class.arrow::Status") align 8 %ref.tmp, ptr noundef nonnull align 8 dereferenceable(65) %call2, ptr noundef nonnull align 8 dereferenceable(32) %0, i1 noundef zeroext %tobool)
          to label %invoke.cont4 unwind label %lpad3

invoke.cont4:                                     ; preds = %do.body
  invoke void @_ZN5arrow8internal15GenericToStatusEONS_6StatusE(ptr sret(%"class.arrow::Status") align 8 %__s, ptr noundef nonnull align 8 dereferenceable(8) %ref.tmp)
          to label %invoke.cont6 unwind label %lpad5

invoke.cont6:                                     ; preds = %invoke.cont4
  call void @_ZN5arrow6StatusD2Ev(ptr noundef nonnull align 8 dereferenceable(8) %ref.tmp) #14
  br label %do.body7

do.body7:                                         ; preds = %invoke.cont6
  %call10 = invoke noundef zeroext i1 @_ZNK5arrow6Status2okEv(ptr noundef nonnull align 8 dereferenceable(8) %__s)
          to label %invoke.cont9 unwind label %lpad8

invoke.cont9:                                     ; preds = %do.body7
  %lnot = xor i1 %call10, true
  %lnot11 = xor i1 %lnot, true
  %lnot12 = xor i1 %lnot11, true
  br i1 %lnot12, label %if.then, label %if.end

if.then:                                          ; preds = %invoke.cont9
  call void @_ZN5arrow6ResultISt10shared_ptrINS_2io16FileOutputStreamEEEC2ERKNS_6StatusE(ptr noundef nonnull align 8 dereferenceable(24) %agg.result, ptr noundef nonnull align 8 dereferenceable(8) %__s) #14
  store i32 1, ptr %cleanup.dest.slot, align 4
  br label %cleanup

lpad:                                             ; preds = %entry
  %2 = landingpad { ptr, i32 }
          cleanup
  %3 = extractvalue { ptr, i32 } %2, 0
  store ptr %3, ptr %exn.slot, align 8
  %4 = extractvalue { ptr, i32 } %2, 1
  store i32 %4, ptr %ehselector.slot, align 4
  call void @_ZdlPv(ptr noundef %call) #16
  br label %eh.resume

lpad3:                                            ; preds = %do.body
  %5 = landingpad { ptr, i32 }
          cleanup
  %6 = extractvalue { ptr, i32 } %5, 0
  store ptr %6, ptr %exn.slot, align 8
  %7 = extractvalue { ptr, i32 } %5, 1
  store i32 %7, ptr %ehselector.slot, align 4
  br label %ehcleanup

lpad5:                                            ; preds = %invoke.cont4
  %8 = landingpad { ptr, i32 }
          cleanup
  %9 = extractvalue { ptr, i32 } %8, 0
  store ptr %9, ptr %exn.slot, align 8
  %10 = extractvalue { ptr, i32 } %8, 1
  store i32 %10, ptr %ehselector.slot, align 4
  call void @_ZN5arrow6StatusD2Ev(ptr noundef nonnull align 8 dereferenceable(8) %ref.tmp) #14
  br label %ehcleanup

lpad8:                                            ; preds = %do.body7
  %11 = landingpad { ptr, i32 }
          cleanup
  %12 = extractvalue { ptr, i32 } %11, 0
  store ptr %12, ptr %exn.slot, align 8
  %13 = extractvalue { ptr, i32 } %11, 1
  store i32 %13, ptr %ehselector.slot, align 4
  call void @_ZN5arrow6StatusD2Ev(ptr noundef nonnull align 8 dereferenceable(8) %__s) #14
  br label %ehcleanup

if.end:                                           ; preds = %invoke.cont9
  br label %do.cond

do.cond:                                          ; preds = %if.end
  br label %do.end

do.end:                                           ; preds = %do.cond
  store i32 0, ptr %cleanup.dest.slot, align 4
  br label %cleanup

cleanup:                                          ; preds = %do.end, %if.then
  call void @_ZN5arrow6StatusD2Ev(ptr noundef nonnull align 8 dereferenceable(8) %__s) #14
  %cleanup.dest = load i32, ptr %cleanup.dest.slot, align 4
  switch i32 %cleanup.dest, label %cleanup15 [
    i32 0, label %cleanup.cont
  ]

cleanup.cont:                                     ; preds = %cleanup
  br label %do.cond13

do.cond13:                                        ; preds = %cleanup.cont
  br label %do.end14

do.end14:                                         ; preds = %do.cond13
  call void @_ZN5arrow6ResultISt10shared_ptrINS_2io16FileOutputStreamEEEC2EOS4_(ptr noundef nonnull align 8 dereferenceable(24) %agg.result, ptr noundef nonnull align 8 dereferenceable(16) %stream) #14
  store i32 1, ptr %cleanup.dest.slot, align 4
  br label %cleanup15

cleanup15:                                        ; preds = %do.end14, %cleanup
  call void @_ZNSt10shared_ptrIN5arrow2io16FileOutputStreamEED2Ev(ptr noundef nonnull align 8 dereferenceable(16) %stream) #14
  ret void

ehcleanup:                                        ; preds = %lpad8, %lpad5, %lpad3
  call void @_ZNSt10shared_ptrIN5arrow2io16FileOutputStreamEED2Ev(ptr noundef nonnull align 8 dereferenceable(16) %stream) #14
  br label %eh.resume

eh.resume:                                        ; preds = %ehcleanup, %lpad
  %exn = load ptr, ptr %exn.slot, align 8
  %sel = load i32, ptr %ehselector.slot, align 4
  %lpad.val = insertvalue { ptr, i32 } poison, ptr %exn, 0
  %lpad.val16 = insertvalue { ptr, i32 } %lpad.val, i32 %sel, 1
  resume { ptr, i32 } %lpad.val16
}

; Function Attrs: mustprogress uwtable
define linkonce_odr void @_ZNSt10shared_ptrIN5arrow2io16FileOutputStreamEEC2IS2_vEEPT_(ptr noundef nonnull align 8 dereferenceable(16) %this, ptr noundef %__p) unnamed_addr #0 comdat align 2 {
entry:
  %this.addr = alloca ptr, align 8
  %__p.addr = alloca ptr, align 8
  store ptr %this, ptr %this.addr, align 8
  store ptr %__p, ptr %__p.addr, align 8
  %this1 = load ptr, ptr %this.addr, align 8
  %0 = load ptr, ptr %__p.addr, align 8
  call void @_ZNSt12__shared_ptrIN5arrow2io16FileOutputStreamELN9__gnu_cxx12_Lock_policyE2EEC2IS2_vEEPT_(ptr noundef nonnull align 8 dereferenceable(16) %this1, ptr noundef %0)
  ret void
}

; Function Attrs: mustprogress nounwind uwtable
define linkonce_odr noundef ptr @_ZNKSt19__shared_ptr_accessIN5arrow2io16FileOutputStreamELN9__gnu_cxx12_Lock_policyE2ELb0ELb0EEptEv(ptr noundef nonnull align 1 dereferenceable(1) %this) #1 comdat align 2 {
entry:
  %this.addr = alloca ptr, align 8
  store ptr %this, ptr %this.addr, align 8
  %this1 = load ptr, ptr %this.addr, align 8
  %call = call noundef ptr @_ZNKSt19__shared_ptr_accessIN5arrow2io16FileOutputStreamELN9__gnu_cxx12_Lock_policyE2ELb0ELb0EE6_M_getEv(ptr noundef nonnull align 1 dereferenceable(1) %this1) #14
  ret ptr %call
}

; Function Attrs: mustprogress nounwind uwtable
define linkonce_odr hidden noundef ptr @_ZNKSt10unique_ptrIN5arrow2io16FileOutputStream20FileOutputStreamImplESt14default_deleteIS3_EEptEv(ptr noundef nonnull align 8 dereferenceable(8) %this) #1 comdat align 2 {
entry:
  %this.addr = alloca ptr, align 8
  store ptr %this, ptr %this.addr, align 8
  %this1 = load ptr, ptr %this.addr, align 8
  %call = call noundef ptr @_ZNKSt10unique_ptrIN5arrow2io16FileOutputStream20FileOutputStreamImplESt14default_deleteIS3_EE3getEv(ptr noundef nonnull align 8 dereferenceable(8) %this1) #14
  ret ptr %call
}

; Function Attrs: mustprogress uwtable
define linkonce_odr hidden void @_ZN5arrow2io16FileOutputStream20FileOutputStreamImpl4OpenERKNSt7__cxx1112basic_stringIcSt11char_traitsIcESaIcEEEb(ptr noalias sret(%"class.arrow::Status") align 8 %agg.result, ptr noundef nonnull align 8 dereferenceable(65) %this, ptr noundef nonnull align 8 dereferenceable(32) %path, i1 noundef zeroext %append) #0 comdat align 2 {
entry:
  %result.ptr = alloca ptr, align 8
  %this.addr = alloca ptr, align 8
  %path.addr = alloca ptr, align 8
  %append.addr = alloca i8, align 1
  %truncate = alloca i8, align 1
  store ptr %agg.result, ptr %result.ptr, align 8
  store ptr %this, ptr %this.addr, align 8
  store ptr %path, ptr %path.addr, align 8
  %frombool = zext i1 %append to i8
  store i8 %frombool, ptr %append.addr, align 1
  %this1 = load ptr, ptr %this.addr, align 8
  %0 = load i8, ptr %append.addr, align 1
  %tobool = trunc i8 %0 to i1
  %lnot = xor i1 %tobool, true
  %frombool2 = zext i1 %lnot to i8
  store i8 %frombool2, ptr %truncate, align 1
  %1 = load ptr, ptr %path.addr, align 8
  %2 = load i8, ptr %truncate, align 1
  %tobool3 = trunc i8 %2 to i1
  %3 = load i8, ptr %append.addr, align 1
  %tobool4 = trunc i8 %3 to i1
  call void @_ZN5arrow2io6OSFile12OpenWritableERKNSt7__cxx1112basic_stringIcSt11char_traitsIcESaIcEEEbbb(ptr sret(%"class.arrow::Status") align 8 %agg.result, ptr noundef nonnull align 8 dereferenceable(65) %this1, ptr noundef nonnull align 8 dereferenceable(32) %1, i1 noundef zeroext %tobool3, i1 noundef zeroext %tobool4, i1 noundef zeroext true)
  ret void
}

; Function Attrs: mustprogress nounwind uwtable
define linkonce_odr void @_ZN5arrow6ResultISt10shared_ptrINS_2io16FileOutputStreamEEEC2ERKNS_6StatusE(ptr noundef nonnull align 8 dereferenceable(24) %this, ptr noundef nonnull align 8 dereferenceable(8) %status) unnamed_addr #1 comdat align 2 personality ptr @__gxx_personality_v0 {
entry:
  %this.addr = alloca ptr, align 8
  %status.addr = alloca ptr, align 8
  %ref.tmp = alloca %"class.std::__cxx11::basic_string", align 8
  %ref.tmp3 = alloca %"class.std::__cxx11::basic_string", align 8
  %ref.tmp4 = alloca %"class.std::allocator", align 1
  %ref.tmp6 = alloca %"class.std::__cxx11::basic_string", align 8
  store ptr %this, ptr %this.addr, align 8
  store ptr %status, ptr %status.addr, align 8
  %this1 = load ptr, ptr %this.addr, align 8
  %status_ = getelementptr inbounds %"class.arrow::Result.45", ptr %this1, i32 0, i32 0
  %0 = load ptr, ptr %status.addr, align 8
  invoke void @_ZN5arrow6StatusC2ERKS0_(ptr noundef nonnull align 8 dereferenceable(8) %status_, ptr noundef nonnull align 8 dereferenceable(8) %0)
          to label %invoke.cont unwind label %terminate.lpad

invoke.cont:                                      ; preds = %entry
  %1 = load ptr, ptr %status.addr, align 8
  %call = call noundef zeroext i1 @_ZNK5arrow6Status2okEv(ptr noundef nonnull align 8 dereferenceable(8) %1)
  %lnot = xor i1 %call, true
  %lnot2 = xor i1 %lnot, true
  br i1 %lnot2, label %if.then, label %if.end

if.then:                                          ; preds = %invoke.cont
  call void @_ZNSaIcEC1Ev(ptr noundef nonnull align 1 dereferenceable(1) %ref.tmp4) #14
  invoke void @_ZNSt7__cxx1112basic_stringIcSt11char_traitsIcESaIcEEC2IS3_EEPKcRKS3_(ptr noundef nonnull align 8 dereferenceable(32) %ref.tmp3, ptr noundef @.str.17, ptr noundef nonnull align 1 dereferenceable(1) %ref.tmp4)
          to label %invoke.cont5 unwind label %terminate.lpad

invoke.cont5:                                     ; preds = %if.then
  %2 = load ptr, ptr %status.addr, align 8
  invoke void @_ZNK5arrow6Status8ToStringB5cxx11Ev(ptr sret(%"class.std::__cxx11::basic_string") align 8 %ref.tmp6, ptr noundef nonnull align 8 dereferenceable(8) %2)
          to label %invoke.cont7 unwind label %terminate.lpad

invoke.cont7:                                     ; preds = %invoke.cont5
  invoke void @_ZStplIcSt11char_traitsIcESaIcEENSt7__cxx1112basic_stringIT_T0_T1_EEOS8_S9_(ptr sret(%"class.std::__cxx11::basic_string") align 8 %ref.tmp, ptr noundef nonnull align 8 dereferenceable(32) %ref.tmp3, ptr noundef nonnull align 8 dereferenceable(32) %ref.tmp6)
          to label %invoke.cont8 unwind label %terminate.lpad

invoke.cont8:                                     ; preds = %invoke.cont7
  invoke void @_ZN5arrow8internal14DieWithMessageERKNSt7__cxx1112basic_stringIcSt11char_traitsIcESaIcEEE(ptr noundef nonnull align 8 dereferenceable(32) %ref.tmp)
          to label %invoke.cont9 unwind label %terminate.lpad

invoke.cont9:                                     ; preds = %invoke.cont8
  call void @_ZNSt7__cxx1112basic_stringIcSt11char_traitsIcESaIcEED1Ev(ptr noundef nonnull align 8 dereferenceable(32) %ref.tmp) #14
  call void @_ZNSt7__cxx1112basic_stringIcSt11char_traitsIcESaIcEED1Ev(ptr noundef nonnull align 8 dereferenceable(32) %ref.tmp6) #14
  call void @_ZNSt7__cxx1112basic_stringIcSt11char_traitsIcESaIcEED1Ev(ptr noundef nonnull align 8 dereferenceable(32) %ref.tmp3) #14
  call void @_ZNSaIcED1Ev(ptr noundef nonnull align 1 dereferenceable(1) %ref.tmp4) #14
  br label %if.end

if.end:                                           ; preds = %invoke.cont9, %invoke.cont
  ret void

terminate.lpad:                                   ; preds = %invoke.cont8, %invoke.cont7, %invoke.cont5, %if.then, %entry
  %3 = landingpad { ptr, i32 }
          catch ptr null
  %4 = extractvalue { ptr, i32 } %3, 0
  call void @__clang_call_terminate(ptr %4) #17
  unreachable
}

; Function Attrs: mustprogress nounwind uwtable
define linkonce_odr void @_ZN5arrow6ResultISt10shared_ptrINS_2io16FileOutputStreamEEEC2EOS4_(ptr noundef nonnull align 8 dereferenceable(24) %this, ptr noundef nonnull align 8 dereferenceable(16) %value) unnamed_addr #1 comdat align 2 {
entry:
  %this.addr = alloca ptr, align 8
  %value.addr = alloca ptr, align 8
  store ptr %this, ptr %this.addr, align 8
  store ptr %value, ptr %value.addr, align 8
  %this1 = load ptr, ptr %this.addr, align 8
  %status_ = getelementptr inbounds %"class.arrow::Result.45", ptr %this1, i32 0, i32 0
  call void @_ZN5arrow6StatusC2Ev(ptr noundef nonnull align 8 dereferenceable(8) %status_) #14
  %0 = load ptr, ptr %value.addr, align 8
  call void @_ZN5arrow6ResultISt10shared_ptrINS_2io16FileOutputStreamEEE14ConstructValueIS4_EEvOT_(ptr noundef nonnull align 8 dereferenceable(24) %this1, ptr noundef nonnull align 8 dereferenceable(16) %0) #14
  ret void
}

; Function Attrs: mustprogress nounwind uwtable
define linkonce_odr void @_ZNSt10shared_ptrIN5arrow2io16FileOutputStreamEED2Ev(ptr noundef nonnull align 8 dereferenceable(16) %this) unnamed_addr #1 comdat align 2 {
entry:
  %this.addr = alloca ptr, align 8
  store ptr %this, ptr %this.addr, align 8
  %this1 = load ptr, ptr %this.addr, align 8
  call void @_ZNSt12__shared_ptrIN5arrow2io16FileOutputStreamELN9__gnu_cxx12_Lock_policyE2EED2Ev(ptr noundef nonnull align 8 dereferenceable(16) %this1) #14
  ret void
}

; Function Attrs: mustprogress uwtable
define void @_ZN5arrow2io16FileOutputStream4OpenEi(ptr noalias sret(%"class.arrow::Result.45") align 8 %agg.result, i32 noundef %fd) #0 align 2 personality ptr @__gxx_personality_v0 {
entry:
  %result.ptr = alloca ptr, align 8
  %fd.addr = alloca i32, align 4
  %stream = alloca %"class.std::shared_ptr.49", align 8
  %exn.slot = alloca ptr, align 8
  %ehselector.slot = alloca i32, align 4
  %__s = alloca %"class.arrow::Status", align 8
  %ref.tmp = alloca %"class.arrow::Status", align 8
  %cleanup.dest.slot = alloca i32, align 4
  store ptr %agg.result, ptr %result.ptr, align 8
  store i32 %fd, ptr %fd.addr, align 4
  %call = call noalias noundef nonnull ptr @_Znwm(i64 noundef 48) #15
  invoke void @_ZN5arrow2io16FileOutputStreamC1Ev(ptr noundef nonnull align 8 dereferenceable(16) %call)
          to label %invoke.cont unwind label %lpad

invoke.cont:                                      ; preds = %entry
  call void @_ZNSt10shared_ptrIN5arrow2io16FileOutputStreamEEC2IS2_vEEPT_(ptr noundef nonnull align 8 dereferenceable(16) %stream, ptr noundef %call)
  br label %do.body

do.body:                                          ; preds = %invoke.cont
  %call1 = call noundef ptr @_ZNKSt19__shared_ptr_accessIN5arrow2io16FileOutputStreamELN9__gnu_cxx12_Lock_policyE2ELb0ELb0EEptEv(ptr noundef nonnull align 1 dereferenceable(1) %stream) #14
  %impl_ = getelementptr inbounds %"class.arrow::io::FileOutputStream", ptr %call1, i32 0, i32 1
  %call2 = call noundef ptr @_ZNKSt10unique_ptrIN5arrow2io16FileOutputStream20FileOutputStreamImplESt14default_deleteIS3_EEptEv(ptr noundef nonnull align 8 dereferenceable(8) %impl_) #14
  %0 = load i32, ptr %fd.addr, align 4
  invoke void @_ZN5arrow2io16FileOutputStream20FileOutputStreamImpl4OpenEi(ptr sret(%"class.arrow::Status") align 8 %ref.tmp, ptr noundef nonnull align 8 dereferenceable(65) %call2, i32 noundef %0)
          to label %invoke.cont4 unwind label %lpad3

invoke.cont4:                                     ; preds = %do.body
  invoke void @_ZN5arrow8internal15GenericToStatusEONS_6StatusE(ptr sret(%"class.arrow::Status") align 8 %__s, ptr noundef nonnull align 8 dereferenceable(8) %ref.tmp)
          to label %invoke.cont6 unwind label %lpad5

invoke.cont6:                                     ; preds = %invoke.cont4
  call void @_ZN5arrow6StatusD2Ev(ptr noundef nonnull align 8 dereferenceable(8) %ref.tmp) #14
  br label %do.body7

do.body7:                                         ; preds = %invoke.cont6
  %call10 = invoke noundef zeroext i1 @_ZNK5arrow6Status2okEv(ptr noundef nonnull align 8 dereferenceable(8) %__s)
          to label %invoke.cont9 unwind label %lpad8

invoke.cont9:                                     ; preds = %do.body7
  %lnot = xor i1 %call10, true
  %lnot11 = xor i1 %lnot, true
  %lnot12 = xor i1 %lnot11, true
  br i1 %lnot12, label %if.then, label %if.end

if.then:                                          ; preds = %invoke.cont9
  call void @_ZN5arrow6ResultISt10shared_ptrINS_2io16FileOutputStreamEEEC2ERKNS_6StatusE(ptr noundef nonnull align 8 dereferenceable(24) %agg.result, ptr noundef nonnull align 8 dereferenceable(8) %__s) #14
  store i32 1, ptr %cleanup.dest.slot, align 4
  br label %cleanup

lpad:                                             ; preds = %entry
  %1 = landingpad { ptr, i32 }
          cleanup
  %2 = extractvalue { ptr, i32 } %1, 0
  store ptr %2, ptr %exn.slot, align 8
  %3 = extractvalue { ptr, i32 } %1, 1
  store i32 %3, ptr %ehselector.slot, align 4
  call void @_ZdlPv(ptr noundef %call) #16
  br label %eh.resume

lpad3:                                            ; preds = %do.body
  %4 = landingpad { ptr, i32 }
          cleanup
  %5 = extractvalue { ptr, i32 } %4, 0
  store ptr %5, ptr %exn.slot, align 8
  %6 = extractvalue { ptr, i32 } %4, 1
  store i32 %6, ptr %ehselector.slot, align 4
  br label %ehcleanup

lpad5:                                            ; preds = %invoke.cont4
  %7 = landingpad { ptr, i32 }
          cleanup
  %8 = extractvalue { ptr, i32 } %7, 0
  store ptr %8, ptr %exn.slot, align 8
  %9 = extractvalue { ptr, i32 } %7, 1
  store i32 %9, ptr %ehselector.slot, align 4
  call void @_ZN5arrow6StatusD2Ev(ptr noundef nonnull align 8 dereferenceable(8) %ref.tmp) #14
  br label %ehcleanup

lpad8:                                            ; preds = %do.body7
  %10 = landingpad { ptr, i32 }
          cleanup
  %11 = extractvalue { ptr, i32 } %10, 0
  store ptr %11, ptr %exn.slot, align 8
  %12 = extractvalue { ptr, i32 } %10, 1
  store i32 %12, ptr %ehselector.slot, align 4
  call void @_ZN5arrow6StatusD2Ev(ptr noundef nonnull align 8 dereferenceable(8) %__s) #14
  br label %ehcleanup

if.end:                                           ; preds = %invoke.cont9
  br label %do.cond

do.cond:                                          ; preds = %if.end
  br label %do.end

do.end:                                           ; preds = %do.cond
  store i32 0, ptr %cleanup.dest.slot, align 4
  br label %cleanup

cleanup:                                          ; preds = %do.end, %if.then
  call void @_ZN5arrow6StatusD2Ev(ptr noundef nonnull align 8 dereferenceable(8) %__s) #14
  %cleanup.dest = load i32, ptr %cleanup.dest.slot, align 4
  switch i32 %cleanup.dest, label %cleanup15 [
    i32 0, label %cleanup.cont
  ]

cleanup.cont:                                     ; preds = %cleanup
  br label %do.cond13

do.cond13:                                        ; preds = %cleanup.cont
  br label %do.end14

do.end14:                                         ; preds = %do.cond13
  call void @_ZN5arrow6ResultISt10shared_ptrINS_2io16FileOutputStreamEEEC2EOS4_(ptr noundef nonnull align 8 dereferenceable(24) %agg.result, ptr noundef nonnull align 8 dereferenceable(16) %stream) #14
  store i32 1, ptr %cleanup.dest.slot, align 4
  br label %cleanup15

cleanup15:                                        ; preds = %do.end14, %cleanup
  call void @_ZNSt10shared_ptrIN5arrow2io16FileOutputStreamEED2Ev(ptr noundef nonnull align 8 dereferenceable(16) %stream) #14
  ret void

ehcleanup:                                        ; preds = %lpad8, %lpad5, %lpad3
  call void @_ZNSt10shared_ptrIN5arrow2io16FileOutputStreamEED2Ev(ptr noundef nonnull align 8 dereferenceable(16) %stream) #14
  br label %eh.resume

eh.resume:                                        ; preds = %ehcleanup, %lpad
  %exn = load ptr, ptr %exn.slot, align 8
  %sel = load i32, ptr %ehselector.slot, align 4
  %lpad.val = insertvalue { ptr, i32 } poison, ptr %exn, 0
  %lpad.val16 = insertvalue { ptr, i32 } %lpad.val, i32 %sel, 1
  resume { ptr, i32 } %lpad.val16
}

; Function Attrs: mustprogress uwtable
define linkonce_odr hidden void @_ZN5arrow2io16FileOutputStream20FileOutputStreamImpl4OpenEi(ptr noalias sret(%"class.arrow::Status") align 8 %agg.result, ptr noundef nonnull align 8 dereferenceable(65) %this, i32 noundef %fd) #0 comdat align 2 {
entry:
  %result.ptr = alloca ptr, align 8
  %this.addr = alloca ptr, align 8
  %fd.addr = alloca i32, align 4
  store ptr %agg.result, ptr %result.ptr, align 8
  store ptr %this, ptr %this.addr, align 8
  store i32 %fd, ptr %fd.addr, align 4
  %this1 = load ptr, ptr %this.addr, align 8
  %0 = load i32, ptr %fd.addr, align 4
  call void @_ZN5arrow2io6OSFile12OpenWritableEi(ptr sret(%"class.arrow::Status") align 8 %agg.result, ptr noundef nonnull align 8 dereferenceable(65) %this1, i32 noundef %0)
  ret void
}

; Function Attrs: mustprogress uwtable
define void @_ZN5arrow2io16FileOutputStream5CloseEv(ptr noalias sret(%"class.arrow::Status") align 8 %agg.result, ptr noundef nonnull align 8 dereferenceable(16) %this) unnamed_addr #0 align 2 {
entry:
  %result.ptr = alloca ptr, align 8
  %this.addr = alloca ptr, align 8
  store ptr %agg.result, ptr %result.ptr, align 8
  store ptr %this, ptr %this.addr, align 8
  %this1 = load ptr, ptr %this.addr, align 8
  %impl_ = getelementptr inbounds %"class.arrow::io::FileOutputStream", ptr %this1, i32 0, i32 1
  %call = call noundef ptr @_ZNKSt10unique_ptrIN5arrow2io16FileOutputStream20FileOutputStreamImplESt14default_deleteIS3_EEptEv(ptr noundef nonnull align 8 dereferenceable(8) %impl_) #14
  call void @_ZN5arrow2io6OSFile5CloseEv(ptr sret(%"class.arrow::Status") align 8 %agg.result, ptr noundef nonnull align 8 dereferenceable(65) %call)
  ret void
}

; Function Attrs: uwtable
define void @_ZTv0_n32_N5arrow2io16FileOutputStream5CloseEv(ptr noalias sret(%"class.arrow::Status") align 8 %agg.result, ptr noundef %this) unnamed_addr #8 align 2 {
entry:
  %result.ptr = alloca ptr, align 8
  %this.addr = alloca ptr, align 8
  store ptr %agg.result, ptr %result.ptr, align 8
  store ptr %this, ptr %this.addr, align 8
  %this1 = load ptr, ptr %this.addr, align 8
  %0 = load ptr, ptr %this1, align 8
  %1 = getelementptr inbounds i8, ptr %0, i64 -32
  %2 = load i64, ptr %1, align 8
  %3 = getelementptr inbounds i8, ptr %this1, i64 %2
  tail call void @_ZN5arrow2io16FileOutputStream5CloseEv(ptr sret(%"class.arrow::Status") align 8 %agg.result, ptr noundef nonnull align 8 dereferenceable(16) %3)
  ret void
}

; Function Attrs: mustprogress uwtable
define noundef zeroext i1 @_ZNK5arrow2io16FileOutputStream6closedEv(ptr noundef nonnull align 8 dereferenceable(16) %this) unnamed_addr #0 align 2 {
entry:
  %this.addr = alloca ptr, align 8
  store ptr %this, ptr %this.addr, align 8
  %this1 = load ptr, ptr %this.addr, align 8
  %impl_ = getelementptr inbounds %"class.arrow::io::FileOutputStream", ptr %this1, i32 0, i32 1
  %call = call noundef ptr @_ZNKSt10unique_ptrIN5arrow2io16FileOutputStream20FileOutputStreamImplESt14default_deleteIS3_EEptEv(ptr noundef nonnull align 8 dereferenceable(8) %impl_) #14
  %call2 = call noundef zeroext i1 @_ZNK5arrow2io6OSFile7is_openEv(ptr noundef nonnull align 8 dereferenceable(65) %call)
  %lnot = xor i1 %call2, true
  ret i1 %lnot
}

; Function Attrs: uwtable
define noundef zeroext i1 @_ZTv0_n64_NK5arrow2io16FileOutputStream6closedEv(ptr noundef %this) unnamed_addr #8 align 2 {
entry:
  %this.addr = alloca ptr, align 8
  store ptr %this, ptr %this.addr, align 8
  %this1 = load ptr, ptr %this.addr, align 8
  %0 = load ptr, ptr %this1, align 8
  %1 = getelementptr inbounds i8, ptr %0, i64 -64
  %2 = load i64, ptr %1, align 8
  %3 = getelementptr inbounds i8, ptr %this1, i64 %2
  %call = tail call noundef zeroext i1 @_ZNK5arrow2io16FileOutputStream6closedEv(ptr noundef nonnull align 8 dereferenceable(16) %3)
  ret i1 %call
}

; Function Attrs: mustprogress uwtable
define void @_ZNK5arrow2io16FileOutputStream4TellEv(ptr noalias sret(%"class.arrow::Result.28") align 8 %agg.result, ptr noundef nonnull align 8 dereferenceable(16) %this) unnamed_addr #0 align 2 {
entry:
  %result.ptr = alloca ptr, align 8
  %this.addr = alloca ptr, align 8
  store ptr %agg.result, ptr %result.ptr, align 8
  store ptr %this, ptr %this.addr, align 8
  %this1 = load ptr, ptr %this.addr, align 8
  %impl_ = getelementptr inbounds %"class.arrow::io::FileOutputStream", ptr %this1, i32 0, i32 1
  %call = call noundef ptr @_ZNKSt10unique_ptrIN5arrow2io16FileOutputStream20FileOutputStreamImplESt14default_deleteIS3_EEptEv(ptr noundef nonnull align 8 dereferenceable(8) %impl_) #14
  call void @_ZNK5arrow2io6OSFile4TellEv(ptr sret(%"class.arrow::Result.28") align 8 %agg.result, ptr noundef nonnull align 8 dereferenceable(65) %call)
  ret void
}

; Function Attrs: uwtable
define void @_ZTv0_n56_NK5arrow2io16FileOutputStream4TellEv(ptr noalias sret(%"class.arrow::Result.28") align 8 %agg.result, ptr noundef %this) unnamed_addr #8 align 2 {
entry:
  %result.ptr = alloca ptr, align 8
  %this.addr = alloca ptr, align 8
  store ptr %agg.result, ptr %result.ptr, align 8
  store ptr %this, ptr %this.addr, align 8
  %this1 = load ptr, ptr %this.addr, align 8
  %0 = load ptr, ptr %this1, align 8
  %1 = getelementptr inbounds i8, ptr %0, i64 -56
  %2 = load i64, ptr %1, align 8
  %3 = getelementptr inbounds i8, ptr %this1, i64 %2
  tail call void @_ZNK5arrow2io16FileOutputStream4TellEv(ptr sret(%"class.arrow::Result.28") align 8 %agg.result, ptr noundef nonnull align 8 dereferenceable(16) %3)
  ret void
}

; Function Attrs: mustprogress uwtable
define void @_ZN5arrow2io16FileOutputStream5WriteEPKvl(ptr noalias sret(%"class.arrow::Status") align 8 %agg.result, ptr noundef nonnull align 8 dereferenceable(16) %this, ptr noundef %data, i64 noundef %length) unnamed_addr #0 align 2 {
entry:
  %result.ptr = alloca ptr, align 8
  %this.addr = alloca ptr, align 8
  %data.addr = alloca ptr, align 8
  %length.addr = alloca i64, align 8
  store ptr %agg.result, ptr %result.ptr, align 8
  store ptr %this, ptr %this.addr, align 8
  store ptr %data, ptr %data.addr, align 8
  store i64 %length, ptr %length.addr, align 8
  %this1 = load ptr, ptr %this.addr, align 8
  %impl_ = getelementptr inbounds %"class.arrow::io::FileOutputStream", ptr %this1, i32 0, i32 1
  %call = call noundef ptr @_ZNKSt10unique_ptrIN5arrow2io16FileOutputStream20FileOutputStreamImplESt14default_deleteIS3_EEptEv(ptr noundef nonnull align 8 dereferenceable(8) %impl_) #14
  %0 = load ptr, ptr %data.addr, align 8
  %1 = load i64, ptr %length.addr, align 8
  call void @_ZN5arrow2io6OSFile5WriteEPKvl(ptr sret(%"class.arrow::Status") align 8 %agg.result, ptr noundef nonnull align 8 dereferenceable(65) %call, ptr noundef %0, i64 noundef %1)
  ret void
}

; Function Attrs: mustprogress uwtable
define linkonce_odr void @_ZN5arrow2io6OSFile5WriteEPKvl(ptr noalias sret(%"class.arrow::Status") align 8 %agg.result, ptr noundef nonnull align 8 dereferenceable(65) %this, ptr noundef %data, i64 noundef %length) #0 comdat align 2 personality ptr @__gxx_personality_v0 {
entry:
  %result.ptr = alloca ptr, align 8
  %this.addr = alloca ptr, align 8
  %data.addr = alloca ptr, align 8
  %length.addr = alloca i64, align 8
  %nrvo = alloca i1, align 1
  %ref.tmp = alloca %"class.arrow::Status", align 8
  %cleanup.dest.slot = alloca i32, align 4
  %guard = alloca %"class.std::lock_guard", align 8
  %nrvo8 = alloca i1, align 1
  %ref.tmp9 = alloca %"class.arrow::Status", align 8
  %exn.slot = alloca ptr, align 8
  %ehselector.slot = alloca i32, align 4
  store ptr %agg.result, ptr %result.ptr, align 8
  store ptr %this, ptr %this.addr, align 8
  store ptr %data, ptr %data.addr, align 8
  store i64 %length, ptr %length.addr, align 8
  %this1 = load ptr, ptr %this.addr, align 8
  br label %do.body

do.body:                                          ; preds = %entry
  store i1 false, ptr %nrvo, align 1
  call void @_ZNK5arrow2io6OSFile11CheckClosedEv(ptr sret(%"class.arrow::Status") align 8 %ref.tmp, ptr noundef nonnull align 8 dereferenceable(65) %this1)
  call void @_ZN5arrow8internal15GenericToStatusEONS_6StatusE(ptr sret(%"class.arrow::Status") align 8 %agg.result, ptr noundef nonnull align 8 dereferenceable(8) %ref.tmp)
  call void @_ZN5arrow6StatusD2Ev(ptr noundef nonnull align 8 dereferenceable(8) %ref.tmp) #14
  br label %do.body2

do.body2:                                         ; preds = %do.body
  %call = call noundef zeroext i1 @_ZNK5arrow6Status2okEv(ptr noundef nonnull align 8 dereferenceable(8) %agg.result)
  %lnot = xor i1 %call, true
  %lnot3 = xor i1 %lnot, true
  %lnot4 = xor i1 %lnot3, true
  br i1 %lnot4, label %if.then, label %if.end

if.then:                                          ; preds = %do.body2
  store i1 true, ptr %nrvo, align 1
  store i32 1, ptr %cleanup.dest.slot, align 4
  br label %cleanup

if.end:                                           ; preds = %do.body2
  br label %do.cond

do.cond:                                          ; preds = %if.end
  br label %do.end

do.end:                                           ; preds = %do.cond
  store i32 0, ptr %cleanup.dest.slot, align 4
  br label %cleanup

cleanup:                                          ; preds = %do.end, %if.then
  %nrvo.val = load i1, ptr %nrvo, align 1
  br i1 %nrvo.val, label %nrvo.skipdtor, label %nrvo.unused

nrvo.unused:                                      ; preds = %cleanup
  call void @_ZN5arrow6StatusD2Ev(ptr noundef nonnull align 8 dereferenceable(8) %agg.result) #14
  br label %nrvo.skipdtor

nrvo.skipdtor:                                    ; preds = %nrvo.unused, %cleanup
  %cleanup.dest = load i32, ptr %cleanup.dest.slot, align 4
  switch i32 %cleanup.dest, label %unreachable [
    i32 0, label %cleanup.cont
    i32 1, label %return
  ]

cleanup.cont:                                     ; preds = %nrvo.skipdtor
  br label %do.end6

do.end6:                                          ; preds = %cleanup.cont
  %lock_ = getelementptr inbounds %"class.arrow::io::OSFile", ptr %this1, i32 0, i32 1
  call void @_ZNSt10lock_guardISt5mutexEC2ERS0_(ptr noundef nonnull align 8 dereferenceable(8) %guard, ptr noundef nonnull align 8 dereferenceable(40) %lock_)
  br label %do.body7

do.body7:                                         ; preds = %do.end6
  store i1 false, ptr %nrvo8, align 1
  invoke void @_ZN5arrow2io6OSFile15CheckPositionedEv(ptr sret(%"class.arrow::Status") align 8 %ref.tmp9, ptr noundef nonnull align 8 dereferenceable(65) %this1)
          to label %invoke.cont unwind label %lpad

invoke.cont:                                      ; preds = %do.body7
  call void @_ZN5arrow8internal15GenericToStatusEONS_6StatusE(ptr sret(%"class.arrow::Status") align 8 %agg.result, ptr noundef nonnull align 8 dereferenceable(8) %ref.tmp9)
  call void @_ZN5arrow6StatusD2Ev(ptr noundef nonnull align 8 dereferenceable(8) %ref.tmp9) #14
  br label %do.body10

do.body10:                                        ; preds = %invoke.cont
  %call11 = call noundef zeroext i1 @_ZNK5arrow6Status2okEv(ptr noundef nonnull align 8 dereferenceable(8) %agg.result)
  %lnot12 = xor i1 %call11, true
  %lnot13 = xor i1 %lnot12, true
  %lnot14 = xor i1 %lnot13, true
  br i1 %lnot14, label %if.then15, label %if.end16

if.then15:                                        ; preds = %do.body10
  store i1 true, ptr %nrvo8, align 1
  store i32 1, ptr %cleanup.dest.slot, align 4
  br label %cleanup19

lpad:                                             ; preds = %if.end29, %if.then27, %do.body7
  %0 = landingpad { ptr, i32 }
          cleanup
  %1 = extractvalue { ptr, i32 } %0, 0
  store ptr %1, ptr %exn.slot, align 8
  %2 = extractvalue { ptr, i32 } %0, 1
  store i32 %2, ptr %ehselector.slot, align 4
  call void @_ZNSt10lock_guardISt5mutexED2Ev(ptr noundef nonnull align 8 dereferenceable(8) %guard) #14
  br label %eh.resume

if.end16:                                         ; preds = %do.body10
  br label %do.cond17

do.cond17:                                        ; preds = %if.end16
  br label %do.end18

do.end18:                                         ; preds = %do.cond17
  store i32 0, ptr %cleanup.dest.slot, align 4
  br label %cleanup19

cleanup19:                                        ; preds = %do.end18, %if.then15
  %nrvo.val20 = load i1, ptr %nrvo8, align 1
  br i1 %nrvo.val20, label %nrvo.skipdtor22, label %nrvo.unused21

nrvo.unused21:                                    ; preds = %cleanup19
  call void @_ZN5arrow6StatusD2Ev(ptr noundef nonnull align 8 dereferenceable(8) %agg.result) #14
  br label %nrvo.skipdtor22

nrvo.skipdtor22:                                  ; preds = %nrvo.unused21, %cleanup19
  %cleanup.dest23 = load i32, ptr %cleanup.dest.slot, align 4
  switch i32 %cleanup.dest23, label %cleanup32 [
    i32 0, label %cleanup.cont24
  ]

cleanup.cont24:                                   ; preds = %nrvo.skipdtor22
  br label %do.cond25

do.cond25:                                        ; preds = %cleanup.cont24
  br label %do.end26

do.end26:                                         ; preds = %do.cond25
  %3 = load i64, ptr %length.addr, align 8
  %cmp = icmp slt i64 %3, 0
  br i1 %cmp, label %if.then27, label %if.end29

if.then27:                                        ; preds = %do.end26
  invoke void @_ZN5arrow6Status7IOErrorIJRA28_KcEEES0_DpOT_(ptr sret(%"class.arrow::Status") align 8 %agg.result, ptr noundef nonnull align 1 dereferenceable(28) @.str.7)
          to label %invoke.cont28 unwind label %lpad

invoke.cont28:                                    ; preds = %if.then27
  store i32 1, ptr %cleanup.dest.slot, align 4
  br label %cleanup32

if.end29:                                         ; preds = %do.end26
  %fd_ = getelementptr inbounds %"class.arrow::io::OSFile", ptr %this1, i32 0, i32 2
  %call30 = call noundef i32 @_ZNK5arrow8internal14FileDescriptor2fdEv(ptr noundef nonnull align 4 dereferenceable(4) %fd_)
  %4 = load ptr, ptr %data.addr, align 8
  %5 = load i64, ptr %length.addr, align 8
  invoke void @_ZN5arrow8internal9FileWriteEiPKhl(ptr sret(%"class.arrow::Status") align 8 %agg.result, i32 noundef %call30, ptr noundef %4, i64 noundef %5)
          to label %invoke.cont31 unwind label %lpad

invoke.cont31:                                    ; preds = %if.end29
  store i32 1, ptr %cleanup.dest.slot, align 4
  br label %cleanup32

cleanup32:                                        ; preds = %invoke.cont31, %invoke.cont28, %nrvo.skipdtor22
  call void @_ZNSt10lock_guardISt5mutexED2Ev(ptr noundef nonnull align 8 dereferenceable(8) %guard) #14
  br label %return

return:                                           ; preds = %cleanup32, %nrvo.skipdtor
  ret void

eh.resume:                                        ; preds = %lpad
  %exn = load ptr, ptr %exn.slot, align 8
  %sel = load i32, ptr %ehselector.slot, align 4
  %lpad.val = insertvalue { ptr, i32 } poison, ptr %exn, 0
  %lpad.val33 = insertvalue { ptr, i32 } %lpad.val, i32 %sel, 1
  resume { ptr, i32 } %lpad.val33

unreachable:                                      ; preds = %nrvo.skipdtor
  unreachable
}

; Function Attrs: mustprogress uwtable
define noundef i32 @_ZNK5arrow2io16FileOutputStream15file_descriptorEv(ptr noundef nonnull align 8 dereferenceable(16) %this) #0 align 2 {
entry:
  %this.addr = alloca ptr, align 8
  store ptr %this, ptr %this.addr, align 8
  %this1 = load ptr, ptr %this.addr, align 8
  %impl_ = getelementptr inbounds %"class.arrow::io::FileOutputStream", ptr %this1, i32 0, i32 1
  %call = call noundef ptr @_ZNKSt10unique_ptrIN5arrow2io16FileOutputStream20FileOutputStreamImplESt14default_deleteIS3_EEptEv(ptr noundef nonnull align 8 dereferenceable(8) %impl_) #14
  %call2 = call noundef i32 @_ZNK5arrow2io6OSFile2fdEv(ptr noundef nonnull align 8 dereferenceable(65) %call)
  ret i32 %call2
}

; Function Attrs: mustprogress uwtable
define void @_ZN5arrow2io16MemoryMappedFileC2Ev(ptr noundef nonnull align 8 dereferenceable(56) %this, ptr noundef %vtt) unnamed_addr #0 align 2 {
entry:
  %this.addr = alloca ptr, align 8
  %vtt.addr = alloca ptr, align 8
  store ptr %this, ptr %this.addr, align 8
  store ptr %vtt, ptr %vtt.addr, align 8
  %this1 = load ptr, ptr %this.addr, align 8
  %vtt2 = load ptr, ptr %vtt.addr, align 8
  %0 = getelementptr inbounds ptr, ptr %vtt2, i64 1
  call void @_ZN5arrow2io22ReadWriteFileInterfaceC2Ev(ptr noundef nonnull align 8 dereferenceable(40) %this1, ptr noundef %0)
  %1 = load ptr, ptr %vtt2, align 8
  store ptr %1, ptr %this1, align 8
  %2 = getelementptr inbounds ptr, ptr %vtt2, i64 15
  %3 = load ptr, ptr %2, align 8
  %vtable = load ptr, ptr %this1, align 8
  %vbase.offset.ptr = getelementptr i8, ptr %vtable, i64 -56
  %vbase.offset = load i64, ptr %vbase.offset.ptr, align 8
  %add.ptr = getelementptr inbounds i8, ptr %this1, i64 %vbase.offset
  store ptr %3, ptr %add.ptr, align 8
  %4 = getelementptr inbounds ptr, ptr %vtt2, i64 16
  %5 = load ptr, ptr %4, align 8
  %vtable3 = load ptr, ptr %this1, align 8
  %vbase.offset.ptr4 = getelementptr i8, ptr %vtable3, i64 -64
  %vbase.offset5 = load i64, ptr %vbase.offset.ptr4, align 8
  %add.ptr6 = getelementptr inbounds i8, ptr %this1, i64 %vbase.offset5
  store ptr %5, ptr %add.ptr6, align 8
  %add.ptr7 = getelementptr inbounds i8, ptr %this1, i64 8
  store ptr getelementptr inbounds ({ [29 x ptr], [5 x ptr], [9 x ptr], [5 x ptr], [15 x ptr] }, ptr @_ZTVN5arrow2io16MemoryMappedFileE, i32 0, inrange i32 1, i32 2), ptr %add.ptr7, align 8
  %6 = getelementptr inbounds ptr, ptr %vtt2, i64 17
  %7 = load ptr, ptr %6, align 8
  %add.ptr8 = getelementptr inbounds i8, ptr %this1, i64 24
  store ptr %7, ptr %add.ptr8, align 8
  %add.ptr9 = getelementptr inbounds i8, ptr %this1, i64 32
  store ptr getelementptr inbounds ({ [29 x ptr], [5 x ptr], [9 x ptr], [5 x ptr], [15 x ptr] }, ptr @_ZTVN5arrow2io16MemoryMappedFileE, i32 0, inrange i32 3, i32 2), ptr %add.ptr9, align 8
  %memory_map_ = getelementptr inbounds %"class.arrow::io::MemoryMappedFile", ptr %this1, i32 0, i32 1
  call void @_ZNSt10shared_ptrIN5arrow2io16MemoryMappedFile9MemoryMapEEC2Ev(ptr noundef nonnull align 8 dereferenceable(16) %memory_map_) #14
  ret void
}

; Function Attrs: mustprogress uwtable
define linkonce_odr void @_ZN5arrow2io22ReadWriteFileInterfaceC2Ev(ptr noundef nonnull align 8 dereferenceable(40) %this, ptr noundef %vtt) unnamed_addr #0 comdat align 2 personality ptr @__gxx_personality_v0 {
entry:
  %this.addr = alloca ptr, align 8
  %vtt.addr = alloca ptr, align 8
  %exn.slot = alloca ptr, align 8
  %ehselector.slot = alloca i32, align 4
  store ptr %this, ptr %this.addr, align 8
  store ptr %vtt, ptr %vtt.addr, align 8
  %this1 = load ptr, ptr %this.addr, align 8
  %vtt2 = load ptr, ptr %vtt.addr, align 8
  %0 = getelementptr inbounds ptr, ptr %vtt2, i64 1
  call void @_ZN5arrow2io16RandomAccessFileC2Ev(ptr noundef nonnull align 8 dereferenceable(24) %this1, ptr noundef %0)
  %1 = getelementptr inbounds i8, ptr %this1, i64 24
  %2 = getelementptr inbounds ptr, ptr %vtt2, i64 7
  call void @_ZN5arrow2io12WritableFileC2Ev(ptr noundef nonnull align 8 dereferenceable(16) %1, ptr noundef %2) #14
  %3 = load ptr, ptr %vtt2, align 8
  store ptr %3, ptr %this1, align 8
  %4 = getelementptr inbounds ptr, ptr %vtt2, i64 11
  %5 = load ptr, ptr %4, align 8
  %vtable = load ptr, ptr %this1, align 8
  %vbase.offset.ptr = getelementptr i8, ptr %vtable, i64 -56
  %vbase.offset = load i64, ptr %vbase.offset.ptr, align 8
  %add.ptr = getelementptr inbounds i8, ptr %this1, i64 %vbase.offset
  store ptr %5, ptr %add.ptr, align 8
  %6 = getelementptr inbounds ptr, ptr %vtt2, i64 12
  %7 = load ptr, ptr %6, align 8
  %vtable3 = load ptr, ptr %this1, align 8
  %vbase.offset.ptr4 = getelementptr i8, ptr %vtable3, i64 -64
  %vbase.offset5 = load i64, ptr %vbase.offset.ptr4, align 8
  %add.ptr6 = getelementptr inbounds i8, ptr %this1, i64 %vbase.offset5
  store ptr %7, ptr %add.ptr6, align 8
  %add.ptr7 = getelementptr inbounds i8, ptr %this1, i64 8
  store ptr getelementptr inbounds ({ [23 x ptr], [5 x ptr], [9 x ptr], [5 x ptr], [15 x ptr] }, ptr @_ZTVN5arrow2io22ReadWriteFileInterfaceE, i32 0, inrange i32 1, i32 2), ptr %add.ptr7, align 8
  %8 = getelementptr inbounds ptr, ptr %vtt2, i64 13
  %9 = load ptr, ptr %8, align 8
  %add.ptr8 = getelementptr inbounds i8, ptr %this1, i64 24
  store ptr %9, ptr %add.ptr8, align 8
  %add.ptr9 = getelementptr inbounds i8, ptr %this1, i64 32
  store ptr getelementptr inbounds ({ [23 x ptr], [5 x ptr], [9 x ptr], [5 x ptr], [15 x ptr] }, ptr @_ZTVN5arrow2io22ReadWriteFileInterfaceE, i32 0, inrange i32 3, i32 2), ptr %add.ptr9, align 8
  %vtable10 = load ptr, ptr %this1, align 8
  %vbase.offset.ptr11 = getelementptr i8, ptr %vtable10, i64 -56
  %vbase.offset12 = load i64, ptr %vbase.offset.ptr11, align 8
  %add.ptr13 = getelementptr inbounds i8, ptr %this1, i64 %vbase.offset12
  invoke void @_ZN5arrow2io13FileInterface8set_modeENS0_8FileMode4typeE(ptr noundef nonnull align 8 dereferenceable(28) %add.ptr13, i32 noundef 2)
          to label %invoke.cont unwind label %lpad

invoke.cont:                                      ; preds = %entry
  ret void

lpad:                                             ; preds = %entry
  %10 = landingpad { ptr, i32 }
          cleanup
  %11 = extractvalue { ptr, i32 } %10, 0
  store ptr %11, ptr %exn.slot, align 8
  %12 = extractvalue { ptr, i32 } %10, 1
  store i32 %12, ptr %ehselector.slot, align 4
  %13 = getelementptr inbounds i8, ptr %this1, i64 24
  %14 = getelementptr inbounds ptr, ptr %vtt2, i64 7
  call void @_ZN5arrow2io12WritableFileD2Ev(ptr noundef nonnull align 8 dereferenceable(16) %13, ptr noundef %14) #14
  %15 = getelementptr inbounds ptr, ptr %vtt2, i64 1
  call void @_ZN5arrow2io16RandomAccessFileD2Ev(ptr noundef nonnull align 8 dereferenceable(24) %this1, ptr noundef %15) #14
  br label %eh.resume

eh.resume:                                        ; preds = %lpad
  %exn = load ptr, ptr %exn.slot, align 8
  %sel = load i32, ptr %ehselector.slot, align 4
  %lpad.val = insertvalue { ptr, i32 } poison, ptr %exn, 0
  %lpad.val14 = insertvalue { ptr, i32 } %lpad.val, i32 %sel, 1
  resume { ptr, i32 } %lpad.val14
}

; Function Attrs: mustprogress nounwind uwtable
define linkonce_odr hidden void @_ZNSt10shared_ptrIN5arrow2io16MemoryMappedFile9MemoryMapEEC2Ev(ptr noundef nonnull align 8 dereferenceable(16) %this) unnamed_addr #1 comdat align 2 {
entry:
  %this.addr = alloca ptr, align 8
  store ptr %this, ptr %this.addr, align 8
  %this1 = load ptr, ptr %this.addr, align 8
  call void @_ZNSt12__shared_ptrIN5arrow2io16MemoryMappedFile9MemoryMapELN9__gnu_cxx12_Lock_policyE2EEC2Ev(ptr noundef nonnull align 8 dereferenceable(16) %this1) #14
  ret void
}

; Function Attrs: mustprogress uwtable
define void @_ZN5arrow2io16MemoryMappedFileC1Ev(ptr noundef nonnull align 8 dereferenceable(56) %this) unnamed_addr #0 align 2 personality ptr @__gxx_personality_v0 {
entry:
  %this.addr = alloca ptr, align 8
  %exn.slot = alloca ptr, align 8
  %ehselector.slot = alloca i32, align 4
  store ptr %this, ptr %this.addr, align 8
  %this1 = load ptr, ptr %this.addr, align 8
  %0 = getelementptr inbounds i8, ptr %this1, i64 56
  call void @_ZN5arrow2io13FileInterfaceC2Ev(ptr noundef nonnull align 8 dereferenceable(28) %0)
  call void @_ZN5arrow2io8ReadableC2Ev(ptr noundef nonnull align 8 dereferenceable(8) %this1) #14
  invoke void @_ZN5arrow2io22ReadWriteFileInterfaceC2Ev(ptr noundef nonnull align 8 dereferenceable(40) %this1, ptr noundef getelementptr inbounds ([18 x ptr], ptr @_ZTTN5arrow2io16MemoryMappedFileE, i64 0, i64 1))
          to label %invoke.cont unwind label %lpad

invoke.cont:                                      ; preds = %entry
  store ptr getelementptr inbounds ({ [29 x ptr], [5 x ptr], [9 x ptr], [5 x ptr], [15 x ptr] }, ptr @_ZTVN5arrow2io16MemoryMappedFileE, i32 0, inrange i32 0, i32 8), ptr %this1, align 8
  %add.ptr = getelementptr inbounds i8, ptr %this1, i64 56
  store ptr getelementptr inbounds ({ [29 x ptr], [5 x ptr], [9 x ptr], [5 x ptr], [15 x ptr] }, ptr @_ZTVN5arrow2io16MemoryMappedFileE, i32 0, inrange i32 4, i32 8), ptr %add.ptr, align 8
  store ptr getelementptr inbounds ({ [29 x ptr], [5 x ptr], [9 x ptr], [5 x ptr], [15 x ptr] }, ptr @_ZTVN5arrow2io16MemoryMappedFileE, i32 0, inrange i32 0, i32 8), ptr %this1, align 8
  %add.ptr2 = getelementptr inbounds i8, ptr %this1, i64 8
  store ptr getelementptr inbounds ({ [29 x ptr], [5 x ptr], [9 x ptr], [5 x ptr], [15 x ptr] }, ptr @_ZTVN5arrow2io16MemoryMappedFileE, i32 0, inrange i32 1, i32 2), ptr %add.ptr2, align 8
  %add.ptr3 = getelementptr inbounds i8, ptr %this1, i64 24
  store ptr getelementptr inbounds ({ [29 x ptr], [5 x ptr], [9 x ptr], [5 x ptr], [15 x ptr] }, ptr @_ZTVN5arrow2io16MemoryMappedFileE, i32 0, inrange i32 2, i32 3), ptr %add.ptr3, align 8
  %add.ptr4 = getelementptr inbounds i8, ptr %this1, i64 32
  store ptr getelementptr inbounds ({ [29 x ptr], [5 x ptr], [9 x ptr], [5 x ptr], [15 x ptr] }, ptr @_ZTVN5arrow2io16MemoryMappedFileE, i32 0, inrange i32 3, i32 2), ptr %add.ptr4, align 8
  %memory_map_ = getelementptr inbounds %"class.arrow::io::MemoryMappedFile", ptr %this1, i32 0, i32 1
  call void @_ZNSt10shared_ptrIN5arrow2io16MemoryMappedFile9MemoryMapEEC2Ev(ptr noundef nonnull align 8 dereferenceable(16) %memory_map_) #14
  ret void

lpad:                                             ; preds = %entry
  %1 = landingpad { ptr, i32 }
          cleanup
  %2 = extractvalue { ptr, i32 } %1, 0
  store ptr %2, ptr %exn.slot, align 8
  %3 = extractvalue { ptr, i32 } %1, 1
  store i32 %3, ptr %ehselector.slot, align 4
  call void @_ZN5arrow2io8ReadableD2Ev(ptr noundef nonnull align 8 dereferenceable(8) %this1) #14
  %4 = getelementptr inbounds i8, ptr %this1, i64 56
  call void @_ZN5arrow2io13FileInterfaceD2Ev(ptr noundef nonnull align 8 dereferenceable(28) %4) #14
  br label %eh.resume

eh.resume:                                        ; preds = %lpad
  %exn = load ptr, ptr %exn.slot, align 8
  %sel = load i32, ptr %ehselector.slot, align 4
  %lpad.val = insertvalue { ptr, i32 } poison, ptr %exn, 0
  %lpad.val5 = insertvalue { ptr, i32 } %lpad.val, i32 %sel, 1
  resume { ptr, i32 } %lpad.val5
}

; Function Attrs: mustprogress nounwind uwtable
define void @_ZN5arrow2io16MemoryMappedFileD2Ev(ptr noundef nonnull align 8 dereferenceable(56) %this, ptr noundef %vtt) unnamed_addr #1 align 2 personality ptr @__gxx_personality_v0 {
entry:
  %this.addr = alloca ptr, align 8
  %vtt.addr = alloca ptr, align 8
  store ptr %this, ptr %this.addr, align 8
  store ptr %vtt, ptr %vtt.addr, align 8
  %this1 = load ptr, ptr %this.addr, align 8
  %vtt2 = load ptr, ptr %vtt.addr, align 8
  %0 = load ptr, ptr %vtt2, align 8
  store ptr %0, ptr %this1, align 8
  %1 = getelementptr inbounds ptr, ptr %vtt2, i64 15
  %2 = load ptr, ptr %1, align 8
  %vtable = load ptr, ptr %this1, align 8
  %vbase.offset.ptr = getelementptr i8, ptr %vtable, i64 -56
  %vbase.offset = load i64, ptr %vbase.offset.ptr, align 8
  %add.ptr = getelementptr inbounds i8, ptr %this1, i64 %vbase.offset
  store ptr %2, ptr %add.ptr, align 8
  %3 = getelementptr inbounds ptr, ptr %vtt2, i64 16
  %4 = load ptr, ptr %3, align 8
  %vtable3 = load ptr, ptr %this1, align 8
  %vbase.offset.ptr4 = getelementptr i8, ptr %vtable3, i64 -64
  %vbase.offset5 = load i64, ptr %vbase.offset.ptr4, align 8
  %add.ptr6 = getelementptr inbounds i8, ptr %this1, i64 %vbase.offset5
  store ptr %4, ptr %add.ptr6, align 8
  %add.ptr7 = getelementptr inbounds i8, ptr %this1, i64 8
  store ptr getelementptr inbounds ({ [29 x ptr], [5 x ptr], [9 x ptr], [5 x ptr], [15 x ptr] }, ptr @_ZTVN5arrow2io16MemoryMappedFileE, i32 0, inrange i32 1, i32 2), ptr %add.ptr7, align 8
  %5 = getelementptr inbounds ptr, ptr %vtt2, i64 17
  %6 = load ptr, ptr %5, align 8
  %add.ptr8 = getelementptr inbounds i8, ptr %this1, i64 24
  store ptr %6, ptr %add.ptr8, align 8
  %add.ptr9 = getelementptr inbounds i8, ptr %this1, i64 32
  store ptr getelementptr inbounds ({ [29 x ptr], [5 x ptr], [9 x ptr], [5 x ptr], [15 x ptr] }, ptr @_ZTVN5arrow2io16MemoryMappedFileE, i32 0, inrange i32 3, i32 2), ptr %add.ptr9, align 8
  %vtable10 = load ptr, ptr %this1, align 8
  %vbase.offset.ptr11 = getelementptr i8, ptr %vtable10, i64 -56
  %vbase.offset12 = load i64, ptr %vbase.offset.ptr11, align 8
  %add.ptr13 = getelementptr inbounds i8, ptr %this1, i64 %vbase.offset12
  invoke void @_ZN5arrow2io8internal19CloseFromDestructorEPNS0_13FileInterfaceE(ptr noundef %add.ptr13)
          to label %invoke.cont unwind label %terminate.lpad

invoke.cont:                                      ; preds = %entry
  %memory_map_ = getelementptr inbounds %"class.arrow::io::MemoryMappedFile", ptr %this1, i32 0, i32 1
  call void @_ZNSt10shared_ptrIN5arrow2io16MemoryMappedFile9MemoryMapEED2Ev(ptr noundef nonnull align 8 dereferenceable(16) %memory_map_) #14
  %7 = getelementptr inbounds ptr, ptr %vtt2, i64 1
  call void @_ZN5arrow2io22ReadWriteFileInterfaceD2Ev(ptr noundef nonnull align 8 dereferenceable(40) %this1, ptr noundef %7) #14
  ret void

terminate.lpad:                                   ; preds = %entry
  %8 = landingpad { ptr, i32 }
          catch ptr null
  %9 = extractvalue { ptr, i32 } %8, 0
  call void @__clang_call_terminate(ptr %9) #17
  unreachable
}

; Function Attrs: mustprogress nounwind uwtable
define linkonce_odr hidden void @_ZNSt10shared_ptrIN5arrow2io16MemoryMappedFile9MemoryMapEED2Ev(ptr noundef nonnull align 8 dereferenceable(16) %this) unnamed_addr #1 comdat align 2 {
entry:
  %this.addr = alloca ptr, align 8
  store ptr %this, ptr %this.addr, align 8
  %this1 = load ptr, ptr %this.addr, align 8
  call void @_ZNSt12__shared_ptrIN5arrow2io16MemoryMappedFile9MemoryMapELN9__gnu_cxx12_Lock_policyE2EED2Ev(ptr noundef nonnull align 8 dereferenceable(16) %this1) #14
  ret void
}

; Function Attrs: mustprogress nounwind uwtable
define linkonce_odr void @_ZN5arrow2io22ReadWriteFileInterfaceD2Ev(ptr noundef nonnull align 8 dereferenceable(40) %this, ptr noundef %vtt) unnamed_addr #1 comdat align 2 {
entry:
  %this.addr = alloca ptr, align 8
  %vtt.addr = alloca ptr, align 8
  store ptr %this, ptr %this.addr, align 8
  store ptr %vtt, ptr %vtt.addr, align 8
  %this1 = load ptr, ptr %this.addr, align 8
  %vtt2 = load ptr, ptr %vtt.addr, align 8
  %0 = getelementptr inbounds i8, ptr %this1, i64 24
  %1 = getelementptr inbounds ptr, ptr %vtt2, i64 7
  call void @_ZN5arrow2io12WritableFileD2Ev(ptr noundef nonnull align 8 dereferenceable(16) %0, ptr noundef %1) #14
  %2 = getelementptr inbounds ptr, ptr %vtt2, i64 1
  call void @_ZN5arrow2io16RandomAccessFileD2Ev(ptr noundef nonnull align 8 dereferenceable(24) %this1, ptr noundef %2) #14
  ret void
}

; Function Attrs: mustprogress nounwind uwtable
define void @_ZN5arrow2io16MemoryMappedFileD1Ev(ptr noundef nonnull align 8 dereferenceable(56) %this) unnamed_addr #1 align 2 {
entry:
  %this.addr = alloca ptr, align 8
  store ptr %this, ptr %this.addr, align 8
  %this1 = load ptr, ptr %this.addr, align 8
  call void @_ZN5arrow2io16MemoryMappedFileD2Ev(ptr noundef nonnull align 8 dereferenceable(56) %this1, ptr noundef @_ZTTN5arrow2io16MemoryMappedFileE) #14
  call void @_ZN5arrow2io8ReadableD2Ev(ptr noundef nonnull align 8 dereferenceable(8) %this1) #14
  %0 = getelementptr inbounds i8, ptr %this1, i64 56
  call void @_ZN5arrow2io13FileInterfaceD2Ev(ptr noundef nonnull align 8 dereferenceable(28) %0) #14
  ret void
}

; Function Attrs: nounwind uwtable
define void @_ZTv0_n24_N5arrow2io16MemoryMappedFileD1Ev(ptr noundef %this) unnamed_addr #7 align 2 {
entry:
  %this.addr = alloca ptr, align 8
  store ptr %this, ptr %this.addr, align 8
  %this1 = load ptr, ptr %this.addr, align 8
  %0 = load ptr, ptr %this1, align 8
  %1 = getelementptr inbounds i8, ptr %0, i64 -24
  %2 = load i64, ptr %1, align 8
  %3 = getelementptr inbounds i8, ptr %this1, i64 %2
  tail call void @_ZN5arrow2io16MemoryMappedFileD1Ev(ptr noundef nonnull align 8 dereferenceable(56) %3) #14
  ret void
}

; Function Attrs: nounwind uwtable
define void @_ZThn8_N5arrow2io16MemoryMappedFileD1Ev(ptr noundef %this) unnamed_addr #7 align 2 {
entry:
  %this.addr = alloca ptr, align 8
  store ptr %this, ptr %this.addr, align 8
  %this1 = load ptr, ptr %this.addr, align 8
  %0 = getelementptr inbounds i8, ptr %this1, i64 -8
  tail call void @_ZN5arrow2io16MemoryMappedFileD1Ev(ptr noundef nonnull align 8 dereferenceable(56) %0) #14
  ret void
}

; Function Attrs: nounwind uwtable
define void @_ZThn24_N5arrow2io16MemoryMappedFileD1Ev(ptr noundef %this) unnamed_addr #7 align 2 {
entry:
  %this.addr = alloca ptr, align 8
  store ptr %this, ptr %this.addr, align 8
  %this1 = load ptr, ptr %this.addr, align 8
  %0 = getelementptr inbounds i8, ptr %this1, i64 -24
  tail call void @_ZN5arrow2io16MemoryMappedFileD1Ev(ptr noundef nonnull align 8 dereferenceable(56) %0) #14
  ret void
}

; Function Attrs: nounwind uwtable
define void @_ZThn32_N5arrow2io16MemoryMappedFileD1Ev(ptr noundef %this) unnamed_addr #7 align 2 {
entry:
  %this.addr = alloca ptr, align 8
  store ptr %this, ptr %this.addr, align 8
  %this1 = load ptr, ptr %this.addr, align 8
  %0 = getelementptr inbounds i8, ptr %this1, i64 -32
  tail call void @_ZN5arrow2io16MemoryMappedFileD1Ev(ptr noundef nonnull align 8 dereferenceable(56) %0) #14
  ret void
}

; Function Attrs: mustprogress nounwind uwtable
define void @_ZN5arrow2io16MemoryMappedFileD0Ev(ptr noundef nonnull align 8 dereferenceable(56) %this) unnamed_addr #1 align 2 {
entry:
  %this.addr = alloca ptr, align 8
  store ptr %this, ptr %this.addr, align 8
  %this1 = load ptr, ptr %this.addr, align 8
  call void @_ZN5arrow2io16MemoryMappedFileD1Ev(ptr noundef nonnull align 8 dereferenceable(56) %this1) #14
  call void @_ZdlPv(ptr noundef %this1) #16
  ret void
}

; Function Attrs: nounwind uwtable
define void @_ZTv0_n24_N5arrow2io16MemoryMappedFileD0Ev(ptr noundef %this) unnamed_addr #7 align 2 {
entry:
  %this.addr = alloca ptr, align 8
  store ptr %this, ptr %this.addr, align 8
  %this1 = load ptr, ptr %this.addr, align 8
  %0 = load ptr, ptr %this1, align 8
  %1 = getelementptr inbounds i8, ptr %0, i64 -24
  %2 = load i64, ptr %1, align 8
  %3 = getelementptr inbounds i8, ptr %this1, i64 %2
  tail call void @_ZN5arrow2io16MemoryMappedFileD0Ev(ptr noundef nonnull align 8 dereferenceable(56) %3) #14
  ret void
}

; Function Attrs: nounwind uwtable
define void @_ZThn8_N5arrow2io16MemoryMappedFileD0Ev(ptr noundef %this) unnamed_addr #7 align 2 {
entry:
  %this.addr = alloca ptr, align 8
  store ptr %this, ptr %this.addr, align 8
  %this1 = load ptr, ptr %this.addr, align 8
  %0 = getelementptr inbounds i8, ptr %this1, i64 -8
  tail call void @_ZN5arrow2io16MemoryMappedFileD0Ev(ptr noundef nonnull align 8 dereferenceable(56) %0) #14
  ret void
}

; Function Attrs: nounwind uwtable
define void @_ZThn24_N5arrow2io16MemoryMappedFileD0Ev(ptr noundef %this) unnamed_addr #7 align 2 {
entry:
  %this.addr = alloca ptr, align 8
  store ptr %this, ptr %this.addr, align 8
  %this1 = load ptr, ptr %this.addr, align 8
  %0 = getelementptr inbounds i8, ptr %this1, i64 -24
  tail call void @_ZN5arrow2io16MemoryMappedFileD0Ev(ptr noundef nonnull align 8 dereferenceable(56) %0) #14
  ret void
}

; Function Attrs: nounwind uwtable
define void @_ZThn32_N5arrow2io16MemoryMappedFileD0Ev(ptr noundef %this) unnamed_addr #7 align 2 {
entry:
  %this.addr = alloca ptr, align 8
  store ptr %this, ptr %this.addr, align 8
  %this1 = load ptr, ptr %this.addr, align 8
  %0 = getelementptr inbounds i8, ptr %this1, i64 -32
  tail call void @_ZN5arrow2io16MemoryMappedFileD0Ev(ptr noundef nonnull align 8 dereferenceable(56) %0) #14
  ret void
}

; Function Attrs: mustprogress uwtable
define void @_ZN5arrow2io16MemoryMappedFile6CreateERKNSt7__cxx1112basic_stringIcSt11char_traitsIcESaIcEEEl(ptr noalias sret(%"class.arrow::Result.55") align 8 %agg.result, ptr noundef nonnull align 8 dereferenceable(32) %path, i64 noundef %size) #0 align 2 personality ptr @__gxx_personality_v0 {
entry:
  %result.ptr = alloca ptr, align 8
  %path.addr = alloca ptr, align 8
  %size.addr = alloca i64, align 8
  %_error_or_value23 = alloca ptr, align 8
  %ref.tmp = alloca %"class.arrow::Result.45", align 8
  %exn.slot = alloca ptr, align 8
  %ehselector.slot = alloca i32, align 4
  %cleanup.dest.slot = alloca i32, align 4
  %file = alloca %"class.std::shared_ptr.49", align 8
  %__s = alloca %"class.arrow::Status", align 8
  %ref.tmp7 = alloca %"class.arrow::Status", align 8
  %__s29 = alloca %"class.arrow::Status", align 8
  %ref.tmp30 = alloca %"class.arrow::Status", align 8
  store ptr %agg.result, ptr %result.ptr, align 8
  store ptr %path, ptr %path.addr, align 8
  store i64 %size, ptr %size.addr, align 8
  %0 = load ptr, ptr %path.addr, align 8
  call void @_ZN5arrow2io16FileOutputStream4OpenERKNSt7__cxx1112basic_stringIcSt11char_traitsIcESaIcEEEb(ptr sret(%"class.arrow::Result.45") align 8 %ref.tmp, ptr noundef nonnull align 8 dereferenceable(32) %0, i1 noundef zeroext false)
  store ptr %ref.tmp, ptr %_error_or_value23, align 8
  br label %do.body

do.body:                                          ; preds = %entry
  %1 = load ptr, ptr %_error_or_value23, align 8
  %call = invoke noundef zeroext i1 @_ZNK5arrow6ResultISt10shared_ptrINS_2io16FileOutputStreamEEE2okEv(ptr noundef nonnull align 8 dereferenceable(24) %1)
          to label %invoke.cont unwind label %lpad

invoke.cont:                                      ; preds = %do.body
  %lnot = xor i1 %call, true
  %lnot1 = xor i1 %lnot, true
  %lnot2 = xor i1 %lnot1, true
  br i1 %lnot2, label %if.then, label %if.end

if.then:                                          ; preds = %invoke.cont
  %2 = load ptr, ptr %_error_or_value23, align 8
  %call4 = invoke noundef nonnull align 8 dereferenceable(8) ptr @_ZNK5arrow6ResultISt10shared_ptrINS_2io16FileOutputStreamEEE6statusEv(ptr noundef nonnull align 8 dereferenceable(24) %2)
          to label %invoke.cont3 unwind label %lpad

invoke.cont3:                                     ; preds = %if.then
  call void @_ZN5arrow6ResultISt10shared_ptrINS_2io16MemoryMappedFileEEEC2ERKNS_6StatusE(ptr noundef nonnull align 8 dereferenceable(24) %agg.result, ptr noundef nonnull align 8 dereferenceable(8) %call4) #14
  store i32 1, ptr %cleanup.dest.slot, align 4
  br label %cleanup53

lpad:                                             ; preds = %do.end, %if.then, %do.body
  %3 = landingpad { ptr, i32 }
          cleanup
  %4 = extractvalue { ptr, i32 } %3, 0
  store ptr %4, ptr %exn.slot, align 8
  %5 = extractvalue { ptr, i32 } %3, 1
  store i32 %5, ptr %ehselector.slot, align 4
  br label %ehcleanup54

if.end:                                           ; preds = %invoke.cont
  br label %do.cond

do.cond:                                          ; preds = %if.end
  br label %do.end

do.end:                                           ; preds = %do.cond
  %6 = load ptr, ptr %_error_or_value23, align 8
  invoke void @_ZNO5arrow6ResultISt10shared_ptrINS_2io16FileOutputStreamEEE11ValueUnsafeEv(ptr sret(%"class.std::shared_ptr.49") align 8 %file, ptr noundef nonnull align 8 dereferenceable(24) %6)
          to label %invoke.cont5 unwind label %lpad

invoke.cont5:                                     ; preds = %do.end
  br label %do.body6

do.body6:                                         ; preds = %invoke.cont5
  %call8 = call noundef ptr @_ZNKSt19__shared_ptr_accessIN5arrow2io16FileOutputStreamELN9__gnu_cxx12_Lock_policyE2ELb0ELb0EEptEv(ptr noundef nonnull align 1 dereferenceable(1) %file) #14
  %call11 = invoke noundef i32 @_ZNK5arrow2io16FileOutputStream15file_descriptorEv(ptr noundef nonnull align 8 dereferenceable(16) %call8)
          to label %invoke.cont10 unwind label %lpad9

invoke.cont10:                                    ; preds = %do.body6
  %7 = load i64, ptr %size.addr, align 8
  invoke void @_ZN5arrow8internal12FileTruncateEil(ptr sret(%"class.arrow::Status") align 8 %ref.tmp7, i32 noundef %call11, i64 noundef %7)
          to label %invoke.cont12 unwind label %lpad9

invoke.cont12:                                    ; preds = %invoke.cont10
  invoke void @_ZN5arrow8internal15GenericToStatusEONS_6StatusE(ptr sret(%"class.arrow::Status") align 8 %__s, ptr noundef nonnull align 8 dereferenceable(8) %ref.tmp7)
          to label %invoke.cont14 unwind label %lpad13

invoke.cont14:                                    ; preds = %invoke.cont12
  call void @_ZN5arrow6StatusD2Ev(ptr noundef nonnull align 8 dereferenceable(8) %ref.tmp7) #14
  br label %do.body15

do.body15:                                        ; preds = %invoke.cont14
  %call18 = invoke noundef zeroext i1 @_ZNK5arrow6Status2okEv(ptr noundef nonnull align 8 dereferenceable(8) %__s)
          to label %invoke.cont17 unwind label %lpad16

invoke.cont17:                                    ; preds = %do.body15
  %lnot19 = xor i1 %call18, true
  %lnot20 = xor i1 %lnot19, true
  %lnot21 = xor i1 %lnot20, true
  br i1 %lnot21, label %if.then22, label %if.end23

if.then22:                                        ; preds = %invoke.cont17
  call void @_ZN5arrow6ResultISt10shared_ptrINS_2io16MemoryMappedFileEEEC2ERKNS_6StatusE(ptr noundef nonnull align 8 dereferenceable(24) %agg.result, ptr noundef nonnull align 8 dereferenceable(8) %__s) #14
  store i32 1, ptr %cleanup.dest.slot, align 4
  br label %cleanup

lpad9:                                            ; preds = %do.end50, %do.body28, %invoke.cont10, %do.body6
  %8 = landingpad { ptr, i32 }
          cleanup
  %9 = extractvalue { ptr, i32 } %8, 0
  store ptr %9, ptr %exn.slot, align 8
  %10 = extractvalue { ptr, i32 } %8, 1
  store i32 %10, ptr %ehselector.slot, align 4
  br label %ehcleanup

lpad13:                                           ; preds = %invoke.cont12
  %11 = landingpad { ptr, i32 }
          cleanup
  %12 = extractvalue { ptr, i32 } %11, 0
  store ptr %12, ptr %exn.slot, align 8
  %13 = extractvalue { ptr, i32 } %11, 1
  store i32 %13, ptr %ehselector.slot, align 4
  call void @_ZN5arrow6StatusD2Ev(ptr noundef nonnull align 8 dereferenceable(8) %ref.tmp7) #14
  br label %ehcleanup

lpad16:                                           ; preds = %do.body15
  %14 = landingpad { ptr, i32 }
          cleanup
  %15 = extractvalue { ptr, i32 } %14, 0
  store ptr %15, ptr %exn.slot, align 8
  %16 = extractvalue { ptr, i32 } %14, 1
  store i32 %16, ptr %ehselector.slot, align 4
  call void @_ZN5arrow6StatusD2Ev(ptr noundef nonnull align 8 dereferenceable(8) %__s) #14
  br label %ehcleanup

if.end23:                                         ; preds = %invoke.cont17
  br label %do.cond24

do.cond24:                                        ; preds = %if.end23
  br label %do.end25

do.end25:                                         ; preds = %do.cond24
  store i32 0, ptr %cleanup.dest.slot, align 4
  br label %cleanup

cleanup:                                          ; preds = %do.end25, %if.then22
  call void @_ZN5arrow6StatusD2Ev(ptr noundef nonnull align 8 dereferenceable(8) %__s) #14
  %cleanup.dest = load i32, ptr %cleanup.dest.slot, align 4
  switch i32 %cleanup.dest, label %cleanup52 [
    i32 0, label %cleanup.cont
  ]

cleanup.cont:                                     ; preds = %cleanup
  br label %do.cond26

do.cond26:                                        ; preds = %cleanup.cont
  br label %do.end27

do.end27:                                         ; preds = %do.cond26
  br label %do.body28

do.body28:                                        ; preds = %do.end27
  %call31 = call noundef ptr @_ZNKSt19__shared_ptr_accessIN5arrow2io16FileOutputStreamELN9__gnu_cxx12_Lock_policyE2ELb0ELb0EEptEv(ptr noundef nonnull align 1 dereferenceable(1) %file) #14
  %vtable = load ptr, ptr %call31, align 8
  %vfn = getelementptr inbounds ptr, ptr %vtable, i64 5
  %17 = load ptr, ptr %vfn, align 8
  invoke void %17(ptr sret(%"class.arrow::Status") align 8 %ref.tmp30, ptr noundef nonnull align 8 dereferenceable(16) %call31)
          to label %invoke.cont32 unwind label %lpad9

invoke.cont32:                                    ; preds = %do.body28
  invoke void @_ZN5arrow8internal15GenericToStatusEONS_6StatusE(ptr sret(%"class.arrow::Status") align 8 %__s29, ptr noundef nonnull align 8 dereferenceable(8) %ref.tmp30)
          to label %invoke.cont34 unwind label %lpad33

invoke.cont34:                                    ; preds = %invoke.cont32
  call void @_ZN5arrow6StatusD2Ev(ptr noundef nonnull align 8 dereferenceable(8) %ref.tmp30) #14
  br label %do.body35

do.body35:                                        ; preds = %invoke.cont34
  %call38 = invoke noundef zeroext i1 @_ZNK5arrow6Status2okEv(ptr noundef nonnull align 8 dereferenceable(8) %__s29)
          to label %invoke.cont37 unwind label %lpad36

invoke.cont37:                                    ; preds = %do.body35
  %lnot39 = xor i1 %call38, true
  %lnot40 = xor i1 %lnot39, true
  %lnot41 = xor i1 %lnot40, true
  br i1 %lnot41, label %if.then42, label %if.end43

if.then42:                                        ; preds = %invoke.cont37
  call void @_ZN5arrow6ResultISt10shared_ptrINS_2io16MemoryMappedFileEEEC2ERKNS_6StatusE(ptr noundef nonnull align 8 dereferenceable(24) %agg.result, ptr noundef nonnull align 8 dereferenceable(8) %__s29) #14
  store i32 1, ptr %cleanup.dest.slot, align 4
  br label %cleanup46

lpad33:                                           ; preds = %invoke.cont32
  %18 = landingpad { ptr, i32 }
          cleanup
  %19 = extractvalue { ptr, i32 } %18, 0
  store ptr %19, ptr %exn.slot, align 8
  %20 = extractvalue { ptr, i32 } %18, 1
  store i32 %20, ptr %ehselector.slot, align 4
  call void @_ZN5arrow6StatusD2Ev(ptr noundef nonnull align 8 dereferenceable(8) %ref.tmp30) #14
  br label %ehcleanup

lpad36:                                           ; preds = %do.body35
  %21 = landingpad { ptr, i32 }
          cleanup
  %22 = extractvalue { ptr, i32 } %21, 0
  store ptr %22, ptr %exn.slot, align 8
  %23 = extractvalue { ptr, i32 } %21, 1
  store i32 %23, ptr %ehselector.slot, align 4
  call void @_ZN5arrow6StatusD2Ev(ptr noundef nonnull align 8 dereferenceable(8) %__s29) #14
  br label %ehcleanup

if.end43:                                         ; preds = %invoke.cont37
  br label %do.cond44

do.cond44:                                        ; preds = %if.end43
  br label %do.end45

do.end45:                                         ; preds = %do.cond44
  store i32 0, ptr %cleanup.dest.slot, align 4
  br label %cleanup46

cleanup46:                                        ; preds = %do.end45, %if.then42
  call void @_ZN5arrow6StatusD2Ev(ptr noundef nonnull align 8 dereferenceable(8) %__s29) #14
  %cleanup.dest47 = load i32, ptr %cleanup.dest.slot, align 4
  switch i32 %cleanup.dest47, label %cleanup52 [
    i32 0, label %cleanup.cont48
  ]

cleanup.cont48:                                   ; preds = %cleanup46
  br label %do.cond49

do.cond49:                                        ; preds = %cleanup.cont48
  br label %do.end50

do.end50:                                         ; preds = %do.cond49
  %24 = load ptr, ptr %path.addr, align 8
  invoke void @_ZN5arrow2io16MemoryMappedFile4OpenERKNSt7__cxx1112basic_stringIcSt11char_traitsIcESaIcEEENS0_8FileMode4typeE(ptr sret(%"class.arrow::Result.55") align 8 %agg.result, ptr noundef nonnull align 8 dereferenceable(32) %24, i32 noundef 2)
          to label %invoke.cont51 unwind label %lpad9

invoke.cont51:                                    ; preds = %do.end50
  store i32 1, ptr %cleanup.dest.slot, align 4
  br label %cleanup52

cleanup52:                                        ; preds = %invoke.cont51, %cleanup46, %cleanup
  call void @_ZNSt10shared_ptrIN5arrow2io16FileOutputStreamEED2Ev(ptr noundef nonnull align 8 dereferenceable(16) %file) #14
  br label %cleanup53

ehcleanup:                                        ; preds = %lpad36, %lpad33, %lpad16, %lpad13, %lpad9
  call void @_ZNSt10shared_ptrIN5arrow2io16FileOutputStreamEED2Ev(ptr noundef nonnull align 8 dereferenceable(16) %file) #14
  br label %ehcleanup54

cleanup53:                                        ; preds = %cleanup52, %invoke.cont3
  call void @_ZN5arrow6ResultISt10shared_ptrINS_2io16FileOutputStreamEEED2Ev(ptr noundef nonnull align 8 dereferenceable(24) %ref.tmp) #14
  ret void

ehcleanup54:                                      ; preds = %ehcleanup, %lpad
  call void @_ZN5arrow6ResultISt10shared_ptrINS_2io16FileOutputStreamEEED2Ev(ptr noundef nonnull align 8 dereferenceable(24) %ref.tmp) #14
  br label %eh.resume

eh.resume:                                        ; preds = %ehcleanup54
  %exn = load ptr, ptr %exn.slot, align 8
  %sel = load i32, ptr %ehselector.slot, align 4
  %lpad.val = insertvalue { ptr, i32 } poison, ptr %exn, 0
  %lpad.val55 = insertvalue { ptr, i32 } %lpad.val, i32 %sel, 1
  resume { ptr, i32 } %lpad.val55
}

; Function Attrs: mustprogress nounwind uwtable
define linkonce_odr noundef zeroext i1 @_ZNK5arrow6ResultISt10shared_ptrINS_2io16FileOutputStreamEEE2okEv(ptr noundef nonnull align 8 dereferenceable(24) %this) #1 comdat align 2 {
entry:
  %this.addr = alloca ptr, align 8
  store ptr %this, ptr %this.addr, align 8
  %this1 = load ptr, ptr %this.addr, align 8
  %status_ = getelementptr inbounds %"class.arrow::Result.45", ptr %this1, i32 0, i32 0
  %call = call noundef zeroext i1 @_ZNK5arrow6Status2okEv(ptr noundef nonnull align 8 dereferenceable(8) %status_)
  ret i1 %call
}

; Function Attrs: mustprogress nounwind uwtable
define linkonce_odr noundef nonnull align 8 dereferenceable(8) ptr @_ZNK5arrow6ResultISt10shared_ptrINS_2io16FileOutputStreamEEE6statusEv(ptr noundef nonnull align 8 dereferenceable(24) %this) #1 comdat align 2 {
entry:
  %this.addr = alloca ptr, align 8
  store ptr %this, ptr %this.addr, align 8
  %this1 = load ptr, ptr %this.addr, align 8
  %status_ = getelementptr inbounds %"class.arrow::Result.45", ptr %this1, i32 0, i32 0
  ret ptr %status_
}

; Function Attrs: mustprogress nounwind uwtable
define linkonce_odr void @_ZN5arrow6ResultISt10shared_ptrINS_2io16MemoryMappedFileEEEC2ERKNS_6StatusE(ptr noundef nonnull align 8 dereferenceable(24) %this, ptr noundef nonnull align 8 dereferenceable(8) %status) unnamed_addr #1 comdat align 2 personality ptr @__gxx_personality_v0 {
entry:
  %this.addr = alloca ptr, align 8
  %status.addr = alloca ptr, align 8
  %ref.tmp = alloca %"class.std::__cxx11::basic_string", align 8
  %ref.tmp3 = alloca %"class.std::__cxx11::basic_string", align 8
  %ref.tmp4 = alloca %"class.std::allocator", align 1
  %ref.tmp6 = alloca %"class.std::__cxx11::basic_string", align 8
  store ptr %this, ptr %this.addr, align 8
  store ptr %status, ptr %status.addr, align 8
  %this1 = load ptr, ptr %this.addr, align 8
  %status_ = getelementptr inbounds %"class.arrow::Result.55", ptr %this1, i32 0, i32 0
  %0 = load ptr, ptr %status.addr, align 8
  invoke void @_ZN5arrow6StatusC2ERKS0_(ptr noundef nonnull align 8 dereferenceable(8) %status_, ptr noundef nonnull align 8 dereferenceable(8) %0)
          to label %invoke.cont unwind label %terminate.lpad

invoke.cont:                                      ; preds = %entry
  %1 = load ptr, ptr %status.addr, align 8
  %call = call noundef zeroext i1 @_ZNK5arrow6Status2okEv(ptr noundef nonnull align 8 dereferenceable(8) %1)
  %lnot = xor i1 %call, true
  %lnot2 = xor i1 %lnot, true
  br i1 %lnot2, label %if.then, label %if.end

if.then:                                          ; preds = %invoke.cont
  call void @_ZNSaIcEC1Ev(ptr noundef nonnull align 1 dereferenceable(1) %ref.tmp4) #14
  invoke void @_ZNSt7__cxx1112basic_stringIcSt11char_traitsIcESaIcEEC2IS3_EEPKcRKS3_(ptr noundef nonnull align 8 dereferenceable(32) %ref.tmp3, ptr noundef @.str.17, ptr noundef nonnull align 1 dereferenceable(1) %ref.tmp4)
          to label %invoke.cont5 unwind label %terminate.lpad

invoke.cont5:                                     ; preds = %if.then
  %2 = load ptr, ptr %status.addr, align 8
  invoke void @_ZNK5arrow6Status8ToStringB5cxx11Ev(ptr sret(%"class.std::__cxx11::basic_string") align 8 %ref.tmp6, ptr noundef nonnull align 8 dereferenceable(8) %2)
          to label %invoke.cont7 unwind label %terminate.lpad

invoke.cont7:                                     ; preds = %invoke.cont5
  invoke void @_ZStplIcSt11char_traitsIcESaIcEENSt7__cxx1112basic_stringIT_T0_T1_EEOS8_S9_(ptr sret(%"class.std::__cxx11::basic_string") align 8 %ref.tmp, ptr noundef nonnull align 8 dereferenceable(32) %ref.tmp3, ptr noundef nonnull align 8 dereferenceable(32) %ref.tmp6)
          to label %invoke.cont8 unwind label %terminate.lpad

invoke.cont8:                                     ; preds = %invoke.cont7
  invoke void @_ZN5arrow8internal14DieWithMessageERKNSt7__cxx1112basic_stringIcSt11char_traitsIcESaIcEEE(ptr noundef nonnull align 8 dereferenceable(32) %ref.tmp)
          to label %invoke.cont9 unwind label %terminate.lpad

invoke.cont9:                                     ; preds = %invoke.cont8
  call void @_ZNSt7__cxx1112basic_stringIcSt11char_traitsIcESaIcEED1Ev(ptr noundef nonnull align 8 dereferenceable(32) %ref.tmp) #14
  call void @_ZNSt7__cxx1112basic_stringIcSt11char_traitsIcESaIcEED1Ev(ptr noundef nonnull align 8 dereferenceable(32) %ref.tmp6) #14
  call void @_ZNSt7__cxx1112basic_stringIcSt11char_traitsIcESaIcEED1Ev(ptr noundef nonnull align 8 dereferenceable(32) %ref.tmp3) #14
  call void @_ZNSaIcED1Ev(ptr noundef nonnull align 1 dereferenceable(1) %ref.tmp4) #14
  br label %if.end

if.end:                                           ; preds = %invoke.cont9, %invoke.cont
  ret void

terminate.lpad:                                   ; preds = %invoke.cont8, %invoke.cont7, %invoke.cont5, %if.then, %entry
  %3 = landingpad { ptr, i32 }
          catch ptr null
  %4 = extractvalue { ptr, i32 } %3, 0
  call void @__clang_call_terminate(ptr %4) #17
  unreachable
}

; Function Attrs: mustprogress uwtable
define linkonce_odr void @_ZNO5arrow6ResultISt10shared_ptrINS_2io16FileOutputStreamEEE11ValueUnsafeEv(ptr noalias sret(%"class.std::shared_ptr.49") align 8 %agg.result, ptr noundef nonnull align 8 dereferenceable(24) %this) #0 comdat align 2 {
entry:
  %result.ptr = alloca ptr, align 8
  %this.addr = alloca ptr, align 8
  store ptr %agg.result, ptr %result.ptr, align 8
  store ptr %this, ptr %this.addr, align 8
  %this1 = load ptr, ptr %this.addr, align 8
  call void @_ZN5arrow6ResultISt10shared_ptrINS_2io16FileOutputStreamEEE15MoveValueUnsafeEv(ptr sret(%"class.std::shared_ptr.49") align 8 %agg.result, ptr noundef nonnull align 8 dereferenceable(24) %this1)
  ret void
}

declare void @_ZN5arrow8internal12FileTruncateEil(ptr sret(%"class.arrow::Status") align 8, i32 noundef, i64 noundef) #5

; Function Attrs: mustprogress uwtable
define void @_ZN5arrow2io16MemoryMappedFile4OpenERKNSt7__cxx1112basic_stringIcSt11char_traitsIcESaIcEEENS0_8FileMode4typeE(ptr noalias sret(%"class.arrow::Result.55") align 8 %agg.result, ptr noundef nonnull align 8 dereferenceable(32) %path, i32 noundef %mode) #0 align 2 personality ptr @__gxx_personality_v0 {
entry:
  %result.ptr = alloca ptr, align 8
  %path.addr = alloca ptr, align 8
  %mode.addr = alloca i32, align 4
  %result = alloca %"class.std::shared_ptr.59", align 8
  %exn.slot = alloca ptr, align 8
  %ehselector.slot = alloca i32, align 4
  %__s = alloca %"class.arrow::Status", align 8
  %ref.tmp = alloca %"class.arrow::Status", align 8
  %cleanup.dest.slot = alloca i32, align 4
  store ptr %agg.result, ptr %result.ptr, align 8
  store ptr %path, ptr %path.addr, align 8
  store i32 %mode, ptr %mode.addr, align 4
  %call = call noalias noundef nonnull ptr @_Znwm(i64 noundef 88) #15
  invoke void @_ZN5arrow2io16MemoryMappedFileC1Ev(ptr noundef nonnull align 8 dereferenceable(56) %call)
          to label %invoke.cont unwind label %lpad

invoke.cont:                                      ; preds = %entry
  call void @_ZNSt10shared_ptrIN5arrow2io16MemoryMappedFileEEC2IS2_vEEPT_(ptr noundef nonnull align 8 dereferenceable(16) %result, ptr noundef %call)
  %call1 = call noundef ptr @_ZNKSt19__shared_ptr_accessIN5arrow2io16MemoryMappedFileELN9__gnu_cxx12_Lock_policyE2ELb0ELb0EEptEv(ptr noundef nonnull align 1 dereferenceable(1) %result) #14
  %memory_map_ = getelementptr inbounds %"class.arrow::io::MemoryMappedFile", ptr %call1, i32 0, i32 1
  %call4 = invoke noalias noundef nonnull ptr @_Znwm(i64 noundef 120) #15
          to label %invoke.cont3 unwind label %lpad2

invoke.cont3:                                     ; preds = %invoke.cont
  invoke void @_ZN5arrow2io16MemoryMappedFile9MemoryMapC2Ev(ptr noundef nonnull align 8 dereferenceable(120) %call4)
          to label %invoke.cont6 unwind label %lpad5

invoke.cont6:                                     ; preds = %invoke.cont3
  invoke void @_ZNSt12__shared_ptrIN5arrow2io16MemoryMappedFile9MemoryMapELN9__gnu_cxx12_Lock_policyE2EE5resetIS3_EENSt9enable_ifIXsr21__sp_is_constructibleIS3_T_EE5valueEvE4typeEPS9_(ptr noundef nonnull align 8 dereferenceable(16) %memory_map_, ptr noundef %call4)
          to label %invoke.cont7 unwind label %lpad2

invoke.cont7:                                     ; preds = %invoke.cont6
  br label %do.body

do.body:                                          ; preds = %invoke.cont7
  %call8 = call noundef ptr @_ZNKSt19__shared_ptr_accessIN5arrow2io16MemoryMappedFileELN9__gnu_cxx12_Lock_policyE2ELb0ELb0EEptEv(ptr noundef nonnull align 1 dereferenceable(1) %result) #14
  %memory_map_9 = getelementptr inbounds %"class.arrow::io::MemoryMappedFile", ptr %call8, i32 0, i32 1
  %call10 = call noundef ptr @_ZNKSt19__shared_ptr_accessIN5arrow2io16MemoryMappedFile9MemoryMapELN9__gnu_cxx12_Lock_policyE2ELb0ELb0EEptEv(ptr noundef nonnull align 1 dereferenceable(1) %memory_map_9) #14
  %0 = load ptr, ptr %path.addr, align 8
  %1 = load i32, ptr %mode.addr, align 4
  invoke void @_ZN5arrow2io16MemoryMappedFile9MemoryMap4OpenERKNSt7__cxx1112basic_stringIcSt11char_traitsIcESaIcEEENS0_8FileMode4typeEll(ptr sret(%"class.arrow::Status") align 8 %ref.tmp, ptr noundef nonnull align 8 dereferenceable(120) %call10, ptr noundef nonnull align 8 dereferenceable(32) %0, i32 noundef %1, i64 noundef 0, i64 noundef -1)
          to label %invoke.cont11 unwind label %lpad2

invoke.cont11:                                    ; preds = %do.body
  invoke void @_ZN5arrow8internal15GenericToStatusEONS_6StatusE(ptr sret(%"class.arrow::Status") align 8 %__s, ptr noundef nonnull align 8 dereferenceable(8) %ref.tmp)
          to label %invoke.cont13 unwind label %lpad12

invoke.cont13:                                    ; preds = %invoke.cont11
  call void @_ZN5arrow6StatusD2Ev(ptr noundef nonnull align 8 dereferenceable(8) %ref.tmp) #14
  br label %do.body14

do.body14:                                        ; preds = %invoke.cont13
  %call17 = invoke noundef zeroext i1 @_ZNK5arrow6Status2okEv(ptr noundef nonnull align 8 dereferenceable(8) %__s)
          to label %invoke.cont16 unwind label %lpad15

invoke.cont16:                                    ; preds = %do.body14
  %lnot = xor i1 %call17, true
  %lnot18 = xor i1 %lnot, true
  %lnot19 = xor i1 %lnot18, true
  br i1 %lnot19, label %if.then, label %if.end

if.then:                                          ; preds = %invoke.cont16
  call void @_ZN5arrow6ResultISt10shared_ptrINS_2io16MemoryMappedFileEEEC2ERKNS_6StatusE(ptr noundef nonnull align 8 dereferenceable(24) %agg.result, ptr noundef nonnull align 8 dereferenceable(8) %__s) #14
  store i32 1, ptr %cleanup.dest.slot, align 4
  br label %cleanup

lpad:                                             ; preds = %entry
  %2 = landingpad { ptr, i32 }
          cleanup
  %3 = extractvalue { ptr, i32 } %2, 0
  store ptr %3, ptr %exn.slot, align 8
  %4 = extractvalue { ptr, i32 } %2, 1
  store i32 %4, ptr %ehselector.slot, align 4
  call void @_ZdlPv(ptr noundef %call) #16
  br label %eh.resume

lpad2:                                            ; preds = %do.body, %invoke.cont6, %invoke.cont
  %5 = landingpad { ptr, i32 }
          cleanup
  %6 = extractvalue { ptr, i32 } %5, 0
  store ptr %6, ptr %exn.slot, align 8
  %7 = extractvalue { ptr, i32 } %5, 1
  store i32 %7, ptr %ehselector.slot, align 4
  br label %ehcleanup

lpad5:                                            ; preds = %invoke.cont3
  %8 = landingpad { ptr, i32 }
          cleanup
  %9 = extractvalue { ptr, i32 } %8, 0
  store ptr %9, ptr %exn.slot, align 8
  %10 = extractvalue { ptr, i32 } %8, 1
  store i32 %10, ptr %ehselector.slot, align 4
  call void @_ZdlPv(ptr noundef %call4) #16
  br label %ehcleanup

lpad12:                                           ; preds = %invoke.cont11
  %11 = landingpad { ptr, i32 }
          cleanup
  %12 = extractvalue { ptr, i32 } %11, 0
  store ptr %12, ptr %exn.slot, align 8
  %13 = extractvalue { ptr, i32 } %11, 1
  store i32 %13, ptr %ehselector.slot, align 4
  call void @_ZN5arrow6StatusD2Ev(ptr noundef nonnull align 8 dereferenceable(8) %ref.tmp) #14
  br label %ehcleanup

lpad15:                                           ; preds = %do.body14
  %14 = landingpad { ptr, i32 }
          cleanup
  %15 = extractvalue { ptr, i32 } %14, 0
  store ptr %15, ptr %exn.slot, align 8
  %16 = extractvalue { ptr, i32 } %14, 1
  store i32 %16, ptr %ehselector.slot, align 4
  call void @_ZN5arrow6StatusD2Ev(ptr noundef nonnull align 8 dereferenceable(8) %__s) #14
  br label %ehcleanup

if.end:                                           ; preds = %invoke.cont16
  br label %do.cond

do.cond:                                          ; preds = %if.end
  br label %do.end

do.end:                                           ; preds = %do.cond
  store i32 0, ptr %cleanup.dest.slot, align 4
  br label %cleanup

cleanup:                                          ; preds = %do.end, %if.then
  call void @_ZN5arrow6StatusD2Ev(ptr noundef nonnull align 8 dereferenceable(8) %__s) #14
  %cleanup.dest = load i32, ptr %cleanup.dest.slot, align 4
  switch i32 %cleanup.dest, label %cleanup22 [
    i32 0, label %cleanup.cont
  ]

cleanup.cont:                                     ; preds = %cleanup
  br label %do.cond20

do.cond20:                                        ; preds = %cleanup.cont
  br label %do.end21

do.end21:                                         ; preds = %do.cond20
  call void @_ZN5arrow6ResultISt10shared_ptrINS_2io16MemoryMappedFileEEEC2EOS4_(ptr noundef nonnull align 8 dereferenceable(24) %agg.result, ptr noundef nonnull align 8 dereferenceable(16) %result) #14
  store i32 1, ptr %cleanup.dest.slot, align 4
  br label %cleanup22

cleanup22:                                        ; preds = %do.end21, %cleanup
  call void @_ZNSt10shared_ptrIN5arrow2io16MemoryMappedFileEED2Ev(ptr noundef nonnull align 8 dereferenceable(16) %result) #14
  ret void

ehcleanup:                                        ; preds = %lpad15, %lpad12, %lpad5, %lpad2
  call void @_ZNSt10shared_ptrIN5arrow2io16MemoryMappedFileEED2Ev(ptr noundef nonnull align 8 dereferenceable(16) %result) #14
  br label %eh.resume

eh.resume:                                        ; preds = %ehcleanup, %lpad
  %exn = load ptr, ptr %exn.slot, align 8
  %sel = load i32, ptr %ehselector.slot, align 4
  %lpad.val = insertvalue { ptr, i32 } poison, ptr %exn, 0
  %lpad.val23 = insertvalue { ptr, i32 } %lpad.val, i32 %sel, 1
  resume { ptr, i32 } %lpad.val23
}

; Function Attrs: mustprogress nounwind uwtable
define linkonce_odr void @_ZN5arrow6ResultISt10shared_ptrINS_2io16FileOutputStreamEEED2Ev(ptr noundef nonnull align 8 dereferenceable(24) %this) unnamed_addr #1 comdat align 2 {
entry:
  %this.addr = alloca ptr, align 8
  store ptr %this, ptr %this.addr, align 8
  %this1 = load ptr, ptr %this.addr, align 8
  call void @_ZN5arrow6ResultISt10shared_ptrINS_2io16FileOutputStreamEEE7DestroyEv(ptr noundef nonnull align 8 dereferenceable(24) %this1) #14
  %status_ = getelementptr inbounds %"class.arrow::Result.45", ptr %this1, i32 0, i32 0
  call void @_ZN5arrow6StatusD2Ev(ptr noundef nonnull align 8 dereferenceable(8) %status_) #14
  call void @_ZN5arrow4util18EqualityComparableINS_6ResultISt10shared_ptrINS_2io16FileOutputStreamEEEEED2Ev(ptr noundef nonnull align 1 dereferenceable(1) %this1) #14
  ret void
}

; Function Attrs: mustprogress uwtable
define linkonce_odr void @_ZNSt10shared_ptrIN5arrow2io16MemoryMappedFileEEC2IS2_vEEPT_(ptr noundef nonnull align 8 dereferenceable(16) %this, ptr noundef %__p) unnamed_addr #0 comdat align 2 {
entry:
  %this.addr = alloca ptr, align 8
  %__p.addr = alloca ptr, align 8
  store ptr %this, ptr %this.addr, align 8
  store ptr %__p, ptr %__p.addr, align 8
  %this1 = load ptr, ptr %this.addr, align 8
  %0 = load ptr, ptr %__p.addr, align 8
  call void @_ZNSt12__shared_ptrIN5arrow2io16MemoryMappedFileELN9__gnu_cxx12_Lock_policyE2EEC2IS2_vEEPT_(ptr noundef nonnull align 8 dereferenceable(16) %this1, ptr noundef %0)
  ret void
}

; Function Attrs: mustprogress nounwind uwtable
define linkonce_odr noundef ptr @_ZNKSt19__shared_ptr_accessIN5arrow2io16MemoryMappedFileELN9__gnu_cxx12_Lock_policyE2ELb0ELb0EEptEv(ptr noundef nonnull align 1 dereferenceable(1) %this) #1 comdat align 2 {
entry:
  %this.addr = alloca ptr, align 8
  store ptr %this, ptr %this.addr, align 8
  %this1 = load ptr, ptr %this.addr, align 8
  %call = call noundef ptr @_ZNKSt19__shared_ptr_accessIN5arrow2io16MemoryMappedFileELN9__gnu_cxx12_Lock_policyE2ELb0ELb0EE6_M_getEv(ptr noundef nonnull align 1 dereferenceable(1) %this1) #14
  ret ptr %call
}

; Function Attrs: mustprogress uwtable
define linkonce_odr hidden void @_ZNSt12__shared_ptrIN5arrow2io16MemoryMappedFile9MemoryMapELN9__gnu_cxx12_Lock_policyE2EE5resetIS3_EENSt9enable_ifIXsr21__sp_is_constructibleIS3_T_EE5valueEvE4typeEPS9_(ptr noundef nonnull align 8 dereferenceable(16) %this, ptr noundef %__p) #0 comdat align 2 {
entry:
  %this.addr = alloca ptr, align 8
  %__p.addr = alloca ptr, align 8
  %ref.tmp = alloca %"class.std::__shared_ptr.53", align 8
  store ptr %this, ptr %this.addr, align 8
  store ptr %__p, ptr %__p.addr, align 8
  %this1 = load ptr, ptr %this.addr, align 8
  br label %do.body

do.body:                                          ; preds = %entry
  br label %do.end

do.end:                                           ; preds = %do.body
  %0 = load ptr, ptr %__p.addr, align 8
  call void @_ZNSt12__shared_ptrIN5arrow2io16MemoryMappedFile9MemoryMapELN9__gnu_cxx12_Lock_policyE2EEC2IS3_vEEPT_(ptr noundef nonnull align 8 dereferenceable(16) %ref.tmp, ptr noundef %0)
  call void @_ZNSt12__shared_ptrIN5arrow2io16MemoryMappedFile9MemoryMapELN9__gnu_cxx12_Lock_policyE2EE4swapERS6_(ptr noundef nonnull align 8 dereferenceable(16) %ref.tmp, ptr noundef nonnull align 8 dereferenceable(16) %this1) #14
  call void @_ZNSt12__shared_ptrIN5arrow2io16MemoryMappedFile9MemoryMapELN9__gnu_cxx12_Lock_policyE2EED2Ev(ptr noundef nonnull align 8 dereferenceable(16) %ref.tmp) #14
  ret void
}

; Function Attrs: mustprogress nounwind uwtable
define linkonce_odr hidden void @_ZN5arrow2io16MemoryMappedFile9MemoryMapC2Ev(ptr noundef nonnull align 8 dereferenceable(120) %this) unnamed_addr #1 comdat align 2 {
entry:
  %this.addr = alloca ptr, align 8
  store ptr %this, ptr %this.addr, align 8
  %this1 = load ptr, ptr %this.addr, align 8
  call void @_ZNSt23enable_shared_from_thisIN5arrow2io16MemoryMappedFile9MemoryMapEEC2Ev(ptr noundef nonnull align 8 dereferenceable(16) %this1) #14
  %file_ = getelementptr inbounds %"class.arrow::io::MemoryMappedFile::MemoryMap", ptr %this1, i32 0, i32 1
  call void @_ZNSt10unique_ptrIN5arrow2io6OSFileESt14default_deleteIS2_EEC2IS4_vEEv(ptr noundef nonnull align 8 dereferenceable(8) %file_) #14
  %region_ = getelementptr inbounds %"class.arrow::io::MemoryMappedFile::MemoryMap", ptr %this1, i32 0, i32 4
  call void @_ZNSt10shared_ptrIN5arrow2io16MemoryMappedFile9MemoryMap6RegionEEC2Ev(ptr noundef nonnull align 8 dereferenceable(16) %region_) #14
  %file_size_ = getelementptr inbounds %"class.arrow::io::MemoryMappedFile::MemoryMap", ptr %this1, i32 0, i32 5
  store i64 0, ptr %file_size_, align 8
  %map_len_ = getelementptr inbounds %"class.arrow::io::MemoryMappedFile::MemoryMap", ptr %this1, i32 0, i32 8
  store i64 0, ptr %map_len_, align 8
  %resize_lock_ = getelementptr inbounds %"class.arrow::io::MemoryMappedFile::MemoryMap", ptr %this1, i32 0, i32 9
  call void @_ZNSt5mutexC2Ev(ptr noundef nonnull align 8 dereferenceable(40) %resize_lock_) #14
  ret void
}

; Function Attrs: mustprogress nounwind uwtable
define linkonce_odr hidden noundef ptr @_ZNKSt19__shared_ptr_accessIN5arrow2io16MemoryMappedFile9MemoryMapELN9__gnu_cxx12_Lock_policyE2ELb0ELb0EEptEv(ptr noundef nonnull align 1 dereferenceable(1) %this) #1 comdat align 2 {
entry:
  %this.addr = alloca ptr, align 8
  store ptr %this, ptr %this.addr, align 8
  %this1 = load ptr, ptr %this.addr, align 8
  %call = call noundef ptr @_ZNKSt19__shared_ptr_accessIN5arrow2io16MemoryMappedFile9MemoryMapELN9__gnu_cxx12_Lock_policyE2ELb0ELb0EE6_M_getEv(ptr noundef nonnull align 1 dereferenceable(1) %this1) #14
  ret ptr %call
}

; Function Attrs: mustprogress uwtable
define linkonce_odr hidden void @_ZN5arrow2io16MemoryMappedFile9MemoryMap4OpenERKNSt7__cxx1112basic_stringIcSt11char_traitsIcESaIcEEENS0_8FileMode4typeEll(ptr noalias sret(%"class.arrow::Status") align 8 %agg.result, ptr noundef nonnull align 8 dereferenceable(120) %this, ptr noundef nonnull align 8 dereferenceable(32) %path, i32 noundef %mode, i64 noundef %offset, i64 noundef %length) #0 comdat align 2 {
entry:
  %result.ptr = alloca ptr, align 8
  %this.addr = alloca ptr, align 8
  %path.addr = alloca ptr, align 8
  %mode.addr = alloca i32, align 4
  %offset.addr = alloca i64, align 8
  %length.addr = alloca i64, align 8
  %ref.tmp = alloca %"class.std::unique_ptr.65", align 8
  %append = alloca i8, align 1
  %truncate = alloca i8, align 1
  %write_only = alloca i8, align 1
  %nrvo = alloca i1, align 1
  %ref.tmp2 = alloca %"class.arrow::Status", align 8
  %cleanup.dest.slot = alloca i32, align 4
  %nrvo15 = alloca i1, align 1
  %ref.tmp16 = alloca %"class.arrow::Status", align 8
  %nrvo43 = alloca i1, align 1
  %ref.tmp44 = alloca %"class.arrow::Status", align 8
  store ptr %agg.result, ptr %result.ptr, align 8
  store ptr %this, ptr %this.addr, align 8
  store ptr %path, ptr %path.addr, align 8
  store i32 %mode, ptr %mode.addr, align 4
  store i64 %offset, ptr %offset.addr, align 8
  store i64 %length, ptr %length.addr, align 8
  %this1 = load ptr, ptr %this.addr, align 8
  call void @_ZSt11make_uniqueIN5arrow2io6OSFileEJEENSt8__detail9_MakeUniqIT_E15__single_objectEDpOT0_(ptr sret(%"class.std::unique_ptr.65") align 8 %ref.tmp)
  %file_ = getelementptr inbounds %"class.arrow::io::MemoryMappedFile::MemoryMap", ptr %this1, i32 0, i32 1
  %call = call noundef nonnull align 8 dereferenceable(8) ptr @_ZNSt10unique_ptrIN5arrow2io6OSFileESt14default_deleteIS2_EEaSEOS5_(ptr noundef nonnull align 8 dereferenceable(8) %file_, ptr noundef nonnull align 8 dereferenceable(8) %ref.tmp) #14
  call void @_ZNSt10unique_ptrIN5arrow2io6OSFileESt14default_deleteIS2_EED2Ev(ptr noundef nonnull align 8 dereferenceable(8) %ref.tmp) #14
  %0 = load i32, ptr %mode.addr, align 4
  %cmp = icmp ne i32 %0, 0
  br i1 %cmp, label %if.then, label %if.else

if.then:                                          ; preds = %entry
  %prot_flags_ = getelementptr inbounds %"class.arrow::io::MemoryMappedFile::MemoryMap", ptr %this1, i32 0, i32 2
  store i32 3, ptr %prot_flags_, align 8
  %map_mode_ = getelementptr inbounds %"class.arrow::io::MemoryMappedFile::MemoryMap", ptr %this1, i32 0, i32 3
  store i32 1, ptr %map_mode_, align 4
  store i8 0, ptr %append, align 1
  store i8 0, ptr %truncate, align 1
  store i8 0, ptr %write_only, align 1
  br label %do.body

do.body:                                          ; preds = %if.then
  store i1 false, ptr %nrvo, align 1
  %file_3 = getelementptr inbounds %"class.arrow::io::MemoryMappedFile::MemoryMap", ptr %this1, i32 0, i32 1
  %call4 = call noundef ptr @_ZNKSt10unique_ptrIN5arrow2io6OSFileESt14default_deleteIS2_EEptEv(ptr noundef nonnull align 8 dereferenceable(8) %file_3) #14
  %1 = load ptr, ptr %path.addr, align 8
  call void @_ZN5arrow2io6OSFile12OpenWritableERKNSt7__cxx1112basic_stringIcSt11char_traitsIcESaIcEEEbbb(ptr sret(%"class.arrow::Status") align 8 %ref.tmp2, ptr noundef nonnull align 8 dereferenceable(65) %call4, ptr noundef nonnull align 8 dereferenceable(32) %1, i1 noundef zeroext false, i1 noundef zeroext false, i1 noundef zeroext false)
  call void @_ZN5arrow8internal15GenericToStatusEONS_6StatusE(ptr sret(%"class.arrow::Status") align 8 %agg.result, ptr noundef nonnull align 8 dereferenceable(8) %ref.tmp2)
  call void @_ZN5arrow6StatusD2Ev(ptr noundef nonnull align 8 dereferenceable(8) %ref.tmp2) #14
  br label %do.body5

do.body5:                                         ; preds = %do.body
  %call6 = call noundef zeroext i1 @_ZNK5arrow6Status2okEv(ptr noundef nonnull align 8 dereferenceable(8) %agg.result)
  %lnot = xor i1 %call6, true
  %lnot7 = xor i1 %lnot, true
  %lnot8 = xor i1 %lnot7, true
  br i1 %lnot8, label %if.then9, label %if.end

if.then9:                                         ; preds = %do.body5
  store i1 true, ptr %nrvo, align 1
  store i32 1, ptr %cleanup.dest.slot, align 4
  br label %cleanup

if.end:                                           ; preds = %do.body5
  br label %do.cond

do.cond:                                          ; preds = %if.end
  br label %do.end

do.end:                                           ; preds = %do.cond
  store i32 0, ptr %cleanup.dest.slot, align 4
  br label %cleanup

cleanup:                                          ; preds = %do.end, %if.then9
  %nrvo.val = load i1, ptr %nrvo, align 1
  br i1 %nrvo.val, label %nrvo.skipdtor, label %nrvo.unused

nrvo.unused:                                      ; preds = %cleanup
  call void @_ZN5arrow6StatusD2Ev(ptr noundef nonnull align 8 dereferenceable(8) %agg.result) #14
  br label %nrvo.skipdtor

nrvo.skipdtor:                                    ; preds = %nrvo.unused, %cleanup
  %cleanup.dest = load i32, ptr %cleanup.dest.slot, align 4
  switch i32 %cleanup.dest, label %unreachable [
    i32 0, label %cleanup.cont
    i32 1, label %return
  ]

cleanup.cont:                                     ; preds = %nrvo.skipdtor
  br label %do.end11

do.end11:                                         ; preds = %cleanup.cont
  br label %if.end36

if.else:                                          ; preds = %entry
  %prot_flags_12 = getelementptr inbounds %"class.arrow::io::MemoryMappedFile::MemoryMap", ptr %this1, i32 0, i32 2
  store i32 1, ptr %prot_flags_12, align 8
  %map_mode_13 = getelementptr inbounds %"class.arrow::io::MemoryMappedFile::MemoryMap", ptr %this1, i32 0, i32 3
  store i32 2, ptr %map_mode_13, align 4
  br label %do.body14

do.body14:                                        ; preds = %if.else
  store i1 false, ptr %nrvo15, align 1
  %file_17 = getelementptr inbounds %"class.arrow::io::MemoryMappedFile::MemoryMap", ptr %this1, i32 0, i32 1
  %call18 = call noundef ptr @_ZNKSt10unique_ptrIN5arrow2io6OSFileESt14default_deleteIS2_EEptEv(ptr noundef nonnull align 8 dereferenceable(8) %file_17) #14
  %2 = load ptr, ptr %path.addr, align 8
  call void @_ZN5arrow2io6OSFile12OpenReadableERKNSt7__cxx1112basic_stringIcSt11char_traitsIcESaIcEEE(ptr sret(%"class.arrow::Status") align 8 %ref.tmp16, ptr noundef nonnull align 8 dereferenceable(65) %call18, ptr noundef nonnull align 8 dereferenceable(32) %2)
  call void @_ZN5arrow8internal15GenericToStatusEONS_6StatusE(ptr sret(%"class.arrow::Status") align 8 %agg.result, ptr noundef nonnull align 8 dereferenceable(8) %ref.tmp16)
  call void @_ZN5arrow6StatusD2Ev(ptr noundef nonnull align 8 dereferenceable(8) %ref.tmp16) #14
  br label %do.body19

do.body19:                                        ; preds = %do.body14
  %call20 = call noundef zeroext i1 @_ZNK5arrow6Status2okEv(ptr noundef nonnull align 8 dereferenceable(8) %agg.result)
  %lnot21 = xor i1 %call20, true
  %lnot22 = xor i1 %lnot21, true
  %lnot23 = xor i1 %lnot22, true
  br i1 %lnot23, label %if.then24, label %if.end25

if.then24:                                        ; preds = %do.body19
  store i1 true, ptr %nrvo15, align 1
  store i32 1, ptr %cleanup.dest.slot, align 4
  br label %cleanup28

if.end25:                                         ; preds = %do.body19
  br label %do.cond26

do.cond26:                                        ; preds = %if.end25
  br label %do.end27

do.end27:                                         ; preds = %do.cond26
  store i32 0, ptr %cleanup.dest.slot, align 4
  br label %cleanup28

cleanup28:                                        ; preds = %do.end27, %if.then24
  %nrvo.val29 = load i1, ptr %nrvo15, align 1
  br i1 %nrvo.val29, label %nrvo.skipdtor31, label %nrvo.unused30

nrvo.unused30:                                    ; preds = %cleanup28
  call void @_ZN5arrow6StatusD2Ev(ptr noundef nonnull align 8 dereferenceable(8) %agg.result) #14
  br label %nrvo.skipdtor31

nrvo.skipdtor31:                                  ; preds = %nrvo.unused30, %cleanup28
  %cleanup.dest32 = load i32, ptr %cleanup.dest.slot, align 4
  switch i32 %cleanup.dest32, label %unreachable [
    i32 0, label %cleanup.cont33
    i32 1, label %return
  ]

cleanup.cont33:                                   ; preds = %nrvo.skipdtor31
  br label %do.end35

do.end35:                                         ; preds = %cleanup.cont33
  br label %if.end36

if.end36:                                         ; preds = %do.end35, %do.end11
  %offset_ = getelementptr inbounds %"class.arrow::io::MemoryMappedFile::MemoryMap", ptr %this1, i32 0, i32 7
  store i64 0, ptr %offset_, align 8
  %map_len_ = getelementptr inbounds %"class.arrow::io::MemoryMappedFile::MemoryMap", ptr %this1, i32 0, i32 8
  store i64 0, ptr %map_len_, align 8
  %file_37 = getelementptr inbounds %"class.arrow::io::MemoryMappedFile::MemoryMap", ptr %this1, i32 0, i32 1
  %call38 = call noundef ptr @_ZNKSt10unique_ptrIN5arrow2io6OSFileESt14default_deleteIS2_EEptEv(ptr noundef nonnull align 8 dereferenceable(8) %file_37) #14
  %call39 = call noundef i64 @_ZNK5arrow2io6OSFile4sizeEv(ptr noundef nonnull align 8 dereferenceable(65) %call38)
  %cmp40 = icmp sgt i64 %call39, 0
  br i1 %cmp40, label %if.then41, label %if.end65

if.then41:                                        ; preds = %if.end36
  br label %do.body42

do.body42:                                        ; preds = %if.then41
  store i1 false, ptr %nrvo43, align 1
  %file_45 = getelementptr inbounds %"class.arrow::io::MemoryMappedFile::MemoryMap", ptr %this1, i32 0, i32 1
  %call46 = call noundef ptr @_ZNKSt10unique_ptrIN5arrow2io6OSFileESt14default_deleteIS2_EEptEv(ptr noundef nonnull align 8 dereferenceable(8) %file_45) #14
  %call47 = call noundef i64 @_ZNK5arrow2io6OSFile4sizeEv(ptr noundef nonnull align 8 dereferenceable(65) %call46)
  %3 = load i64, ptr %offset.addr, align 8
  %4 = load i64, ptr %length.addr, align 8
  call void @_ZN5arrow2io16MemoryMappedFile9MemoryMap8InitMMapElbll(ptr sret(%"class.arrow::Status") align 8 %ref.tmp44, ptr noundef nonnull align 8 dereferenceable(120) %this1, i64 noundef %call47, i1 noundef zeroext false, i64 noundef %3, i64 noundef %4)
  call void @_ZN5arrow8internal15GenericToStatusEONS_6StatusE(ptr sret(%"class.arrow::Status") align 8 %agg.result, ptr noundef nonnull align 8 dereferenceable(8) %ref.tmp44)
  call void @_ZN5arrow6StatusD2Ev(ptr noundef nonnull align 8 dereferenceable(8) %ref.tmp44) #14
  br label %do.body48

do.body48:                                        ; preds = %do.body42
  %call49 = call noundef zeroext i1 @_ZNK5arrow6Status2okEv(ptr noundef nonnull align 8 dereferenceable(8) %agg.result)
  %lnot50 = xor i1 %call49, true
  %lnot51 = xor i1 %lnot50, true
  %lnot52 = xor i1 %lnot51, true
  br i1 %lnot52, label %if.then53, label %if.end54

if.then53:                                        ; preds = %do.body48
  store i1 true, ptr %nrvo43, align 1
  store i32 1, ptr %cleanup.dest.slot, align 4
  br label %cleanup57

if.end54:                                         ; preds = %do.body48
  br label %do.cond55

do.cond55:                                        ; preds = %if.end54
  br label %do.end56

do.end56:                                         ; preds = %do.cond55
  store i32 0, ptr %cleanup.dest.slot, align 4
  br label %cleanup57

cleanup57:                                        ; preds = %do.end56, %if.then53
  %nrvo.val58 = load i1, ptr %nrvo43, align 1
  br i1 %nrvo.val58, label %nrvo.skipdtor60, label %nrvo.unused59

nrvo.unused59:                                    ; preds = %cleanup57
  call void @_ZN5arrow6StatusD2Ev(ptr noundef nonnull align 8 dereferenceable(8) %agg.result) #14
  br label %nrvo.skipdtor60

nrvo.skipdtor60:                                  ; preds = %nrvo.unused59, %cleanup57
  %cleanup.dest61 = load i32, ptr %cleanup.dest.slot, align 4
  switch i32 %cleanup.dest61, label %unreachable [
    i32 0, label %cleanup.cont62
    i32 1, label %return
  ]

cleanup.cont62:                                   ; preds = %nrvo.skipdtor60
  br label %do.end64

do.end64:                                         ; preds = %cleanup.cont62
  br label %if.end65

if.end65:                                         ; preds = %do.end64, %if.end36
  %position_ = getelementptr inbounds %"class.arrow::io::MemoryMappedFile::MemoryMap", ptr %this1, i32 0, i32 6
  store i64 0, ptr %position_, align 8
  call void @_ZN5arrow6Status2OKEv(ptr sret(%"class.arrow::Status") align 8 %agg.result)
  br label %return

return:                                           ; preds = %if.end65, %nrvo.skipdtor60, %nrvo.skipdtor31, %nrvo.skipdtor
  ret void

unreachable:                                      ; preds = %nrvo.skipdtor60, %nrvo.skipdtor31, %nrvo.skipdtor
  unreachable
}

; Function Attrs: mustprogress nounwind uwtable
define linkonce_odr void @_ZN5arrow6ResultISt10shared_ptrINS_2io16MemoryMappedFileEEEC2EOS4_(ptr noundef nonnull align 8 dereferenceable(24) %this, ptr noundef nonnull align 8 dereferenceable(16) %value) unnamed_addr #1 comdat align 2 {
entry:
  %this.addr = alloca ptr, align 8
  %value.addr = alloca ptr, align 8
  store ptr %this, ptr %this.addr, align 8
  store ptr %value, ptr %value.addr, align 8
  %this1 = load ptr, ptr %this.addr, align 8
  %status_ = getelementptr inbounds %"class.arrow::Result.55", ptr %this1, i32 0, i32 0
  call void @_ZN5arrow6StatusC2Ev(ptr noundef nonnull align 8 dereferenceable(8) %status_) #14
  %0 = load ptr, ptr %value.addr, align 8
  call void @_ZN5arrow6ResultISt10shared_ptrINS_2io16MemoryMappedFileEEE14ConstructValueIS4_EEvOT_(ptr noundef nonnull align 8 dereferenceable(24) %this1, ptr noundef nonnull align 8 dereferenceable(16) %0) #14
  ret void
}

; Function Attrs: mustprogress nounwind uwtable
define linkonce_odr void @_ZNSt10shared_ptrIN5arrow2io16MemoryMappedFileEED2Ev(ptr noundef nonnull align 8 dereferenceable(16) %this) unnamed_addr #1 comdat align 2 {
entry:
  %this.addr = alloca ptr, align 8
  store ptr %this, ptr %this.addr, align 8
  %this1 = load ptr, ptr %this.addr, align 8
  call void @_ZNSt12__shared_ptrIN5arrow2io16MemoryMappedFileELN9__gnu_cxx12_Lock_policyE2EED2Ev(ptr noundef nonnull align 8 dereferenceable(16) %this1) #14
  ret void
}

; Function Attrs: mustprogress uwtable
define void @_ZN5arrow2io16MemoryMappedFile4OpenERKNSt7__cxx1112basic_stringIcSt11char_traitsIcESaIcEEENS0_8FileMode4typeEll(ptr noalias sret(%"class.arrow::Result.55") align 8 %agg.result, ptr noundef nonnull align 8 dereferenceable(32) %path, i32 noundef %mode, i64 noundef %offset, i64 noundef %length) #0 align 2 personality ptr @__gxx_personality_v0 {
entry:
  %result.ptr = alloca ptr, align 8
  %path.addr = alloca ptr, align 8
  %mode.addr = alloca i32, align 4
  %offset.addr = alloca i64, align 8
  %length.addr = alloca i64, align 8
  %result = alloca %"class.std::shared_ptr.59", align 8
  %exn.slot = alloca ptr, align 8
  %ehselector.slot = alloca i32, align 4
  %__s = alloca %"class.arrow::Status", align 8
  %ref.tmp = alloca %"class.arrow::Status", align 8
  %cleanup.dest.slot = alloca i32, align 4
  store ptr %agg.result, ptr %result.ptr, align 8
  store ptr %path, ptr %path.addr, align 8
  store i32 %mode, ptr %mode.addr, align 4
  store i64 %offset, ptr %offset.addr, align 8
  store i64 %length, ptr %length.addr, align 8
  %call = call noalias noundef nonnull ptr @_Znwm(i64 noundef 88) #15
  invoke void @_ZN5arrow2io16MemoryMappedFileC1Ev(ptr noundef nonnull align 8 dereferenceable(56) %call)
          to label %invoke.cont unwind label %lpad

invoke.cont:                                      ; preds = %entry
  call void @_ZNSt10shared_ptrIN5arrow2io16MemoryMappedFileEEC2IS2_vEEPT_(ptr noundef nonnull align 8 dereferenceable(16) %result, ptr noundef %call)
  %call1 = call noundef ptr @_ZNKSt19__shared_ptr_accessIN5arrow2io16MemoryMappedFileELN9__gnu_cxx12_Lock_policyE2ELb0ELb0EEptEv(ptr noundef nonnull align 1 dereferenceable(1) %result) #14
  %memory_map_ = getelementptr inbounds %"class.arrow::io::MemoryMappedFile", ptr %call1, i32 0, i32 1
  %call4 = invoke noalias noundef nonnull ptr @_Znwm(i64 noundef 120) #15
          to label %invoke.cont3 unwind label %lpad2

invoke.cont3:                                     ; preds = %invoke.cont
  invoke void @_ZN5arrow2io16MemoryMappedFile9MemoryMapC2Ev(ptr noundef nonnull align 8 dereferenceable(120) %call4)
          to label %invoke.cont6 unwind label %lpad5

invoke.cont6:                                     ; preds = %invoke.cont3
  invoke void @_ZNSt12__shared_ptrIN5arrow2io16MemoryMappedFile9MemoryMapELN9__gnu_cxx12_Lock_policyE2EE5resetIS3_EENSt9enable_ifIXsr21__sp_is_constructibleIS3_T_EE5valueEvE4typeEPS9_(ptr noundef nonnull align 8 dereferenceable(16) %memory_map_, ptr noundef %call4)
          to label %invoke.cont7 unwind label %lpad2

invoke.cont7:                                     ; preds = %invoke.cont6
  br label %do.body

do.body:                                          ; preds = %invoke.cont7
  %call8 = call noundef ptr @_ZNKSt19__shared_ptr_accessIN5arrow2io16MemoryMappedFileELN9__gnu_cxx12_Lock_policyE2ELb0ELb0EEptEv(ptr noundef nonnull align 1 dereferenceable(1) %result) #14
  %memory_map_9 = getelementptr inbounds %"class.arrow::io::MemoryMappedFile", ptr %call8, i32 0, i32 1
  %call10 = call noundef ptr @_ZNKSt19__shared_ptr_accessIN5arrow2io16MemoryMappedFile9MemoryMapELN9__gnu_cxx12_Lock_policyE2ELb0ELb0EEptEv(ptr noundef nonnull align 1 dereferenceable(1) %memory_map_9) #14
  %0 = load ptr, ptr %path.addr, align 8
  %1 = load i32, ptr %mode.addr, align 4
  %2 = load i64, ptr %offset.addr, align 8
  %3 = load i64, ptr %length.addr, align 8
  invoke void @_ZN5arrow2io16MemoryMappedFile9MemoryMap4OpenERKNSt7__cxx1112basic_stringIcSt11char_traitsIcESaIcEEENS0_8FileMode4typeEll(ptr sret(%"class.arrow::Status") align 8 %ref.tmp, ptr noundef nonnull align 8 dereferenceable(120) %call10, ptr noundef nonnull align 8 dereferenceable(32) %0, i32 noundef %1, i64 noundef %2, i64 noundef %3)
          to label %invoke.cont11 unwind label %lpad2

invoke.cont11:                                    ; preds = %do.body
  invoke void @_ZN5arrow8internal15GenericToStatusEONS_6StatusE(ptr sret(%"class.arrow::Status") align 8 %__s, ptr noundef nonnull align 8 dereferenceable(8) %ref.tmp)
          to label %invoke.cont13 unwind label %lpad12

invoke.cont13:                                    ; preds = %invoke.cont11
  call void @_ZN5arrow6StatusD2Ev(ptr noundef nonnull align 8 dereferenceable(8) %ref.tmp) #14
  br label %do.body14

do.body14:                                        ; preds = %invoke.cont13
  %call17 = invoke noundef zeroext i1 @_ZNK5arrow6Status2okEv(ptr noundef nonnull align 8 dereferenceable(8) %__s)
          to label %invoke.cont16 unwind label %lpad15

invoke.cont16:                                    ; preds = %do.body14
  %lnot = xor i1 %call17, true
  %lnot18 = xor i1 %lnot, true
  %lnot19 = xor i1 %lnot18, true
  br i1 %lnot19, label %if.then, label %if.end

if.then:                                          ; preds = %invoke.cont16
  call void @_ZN5arrow6ResultISt10shared_ptrINS_2io16MemoryMappedFileEEEC2ERKNS_6StatusE(ptr noundef nonnull align 8 dereferenceable(24) %agg.result, ptr noundef nonnull align 8 dereferenceable(8) %__s) #14
  store i32 1, ptr %cleanup.dest.slot, align 4
  br label %cleanup

lpad:                                             ; preds = %entry
  %4 = landingpad { ptr, i32 }
          cleanup
  %5 = extractvalue { ptr, i32 } %4, 0
  store ptr %5, ptr %exn.slot, align 8
  %6 = extractvalue { ptr, i32 } %4, 1
  store i32 %6, ptr %ehselector.slot, align 4
  call void @_ZdlPv(ptr noundef %call) #16
  br label %eh.resume

lpad2:                                            ; preds = %do.body, %invoke.cont6, %invoke.cont
  %7 = landingpad { ptr, i32 }
          cleanup
  %8 = extractvalue { ptr, i32 } %7, 0
  store ptr %8, ptr %exn.slot, align 8
  %9 = extractvalue { ptr, i32 } %7, 1
  store i32 %9, ptr %ehselector.slot, align 4
  br label %ehcleanup

lpad5:                                            ; preds = %invoke.cont3
  %10 = landingpad { ptr, i32 }
          cleanup
  %11 = extractvalue { ptr, i32 } %10, 0
  store ptr %11, ptr %exn.slot, align 8
  %12 = extractvalue { ptr, i32 } %10, 1
  store i32 %12, ptr %ehselector.slot, align 4
  call void @_ZdlPv(ptr noundef %call4) #16
  br label %ehcleanup

lpad12:                                           ; preds = %invoke.cont11
  %13 = landingpad { ptr, i32 }
          cleanup
  %14 = extractvalue { ptr, i32 } %13, 0
  store ptr %14, ptr %exn.slot, align 8
  %15 = extractvalue { ptr, i32 } %13, 1
  store i32 %15, ptr %ehselector.slot, align 4
  call void @_ZN5arrow6StatusD2Ev(ptr noundef nonnull align 8 dereferenceable(8) %ref.tmp) #14
  br label %ehcleanup

lpad15:                                           ; preds = %do.body14
  %16 = landingpad { ptr, i32 }
          cleanup
  %17 = extractvalue { ptr, i32 } %16, 0
  store ptr %17, ptr %exn.slot, align 8
  %18 = extractvalue { ptr, i32 } %16, 1
  store i32 %18, ptr %ehselector.slot, align 4
  call void @_ZN5arrow6StatusD2Ev(ptr noundef nonnull align 8 dereferenceable(8) %__s) #14
  br label %ehcleanup

if.end:                                           ; preds = %invoke.cont16
  br label %do.cond

do.cond:                                          ; preds = %if.end
  br label %do.end

do.end:                                           ; preds = %do.cond
  store i32 0, ptr %cleanup.dest.slot, align 4
  br label %cleanup

cleanup:                                          ; preds = %do.end, %if.then
  call void @_ZN5arrow6StatusD2Ev(ptr noundef nonnull align 8 dereferenceable(8) %__s) #14
  %cleanup.dest = load i32, ptr %cleanup.dest.slot, align 4
  switch i32 %cleanup.dest, label %cleanup22 [
    i32 0, label %cleanup.cont
  ]

cleanup.cont:                                     ; preds = %cleanup
  br label %do.cond20

do.cond20:                                        ; preds = %cleanup.cont
  br label %do.end21

do.end21:                                         ; preds = %do.cond20
  call void @_ZN5arrow6ResultISt10shared_ptrINS_2io16MemoryMappedFileEEEC2EOS4_(ptr noundef nonnull align 8 dereferenceable(24) %agg.result, ptr noundef nonnull align 8 dereferenceable(16) %result) #14
  store i32 1, ptr %cleanup.dest.slot, align 4
  br label %cleanup22

cleanup22:                                        ; preds = %do.end21, %cleanup
  call void @_ZNSt10shared_ptrIN5arrow2io16MemoryMappedFileEED2Ev(ptr noundef nonnull align 8 dereferenceable(16) %result) #14
  ret void

ehcleanup:                                        ; preds = %lpad15, %lpad12, %lpad5, %lpad2
  call void @_ZNSt10shared_ptrIN5arrow2io16MemoryMappedFileEED2Ev(ptr noundef nonnull align 8 dereferenceable(16) %result) #14
  br label %eh.resume

eh.resume:                                        ; preds = %ehcleanup, %lpad
  %exn = load ptr, ptr %exn.slot, align 8
  %sel = load i32, ptr %ehselector.slot, align 4
  %lpad.val = insertvalue { ptr, i32 } poison, ptr %exn, 0
  %lpad.val23 = insertvalue { ptr, i32 } %lpad.val, i32 %sel, 1
  resume { ptr, i32 } %lpad.val23
}

; Function Attrs: mustprogress uwtable
define void @_ZN5arrow2io16MemoryMappedFile7GetSizeEv(ptr noalias sret(%"class.arrow::Result.28") align 8 %agg.result, ptr noundef nonnull align 8 dereferenceable(56) %this) unnamed_addr #0 align 2 personality ptr @__gxx_personality_v0 {
entry:
  %result.ptr = alloca ptr, align 8
  %this.addr = alloca ptr, align 8
  %__s = alloca %"class.arrow::Status", align 8
  %ref.tmp = alloca %"class.arrow::Status", align 8
  %exn.slot = alloca ptr, align 8
  %ehselector.slot = alloca i32, align 4
  %cleanup.dest.slot = alloca i32, align 4
  %ref.tmp10 = alloca i64, align 8
  store ptr %agg.result, ptr %result.ptr, align 8
  store ptr %this, ptr %this.addr, align 8
  %this1 = load ptr, ptr %this.addr, align 8
  br label %do.body

do.body:                                          ; preds = %entry
  %memory_map_ = getelementptr inbounds %"class.arrow::io::MemoryMappedFile", ptr %this1, i32 0, i32 1
  %call = call noundef ptr @_ZNKSt19__shared_ptr_accessIN5arrow2io16MemoryMappedFile9MemoryMapELN9__gnu_cxx12_Lock_policyE2ELb0ELb0EEptEv(ptr noundef nonnull align 1 dereferenceable(1) %memory_map_) #14
  call void @_ZNK5arrow2io16MemoryMappedFile9MemoryMap11CheckClosedEv(ptr sret(%"class.arrow::Status") align 8 %ref.tmp, ptr noundef nonnull align 8 dereferenceable(120) %call)
  invoke void @_ZN5arrow8internal15GenericToStatusEONS_6StatusE(ptr sret(%"class.arrow::Status") align 8 %__s, ptr noundef nonnull align 8 dereferenceable(8) %ref.tmp)
          to label %invoke.cont unwind label %lpad

invoke.cont:                                      ; preds = %do.body
  call void @_ZN5arrow6StatusD2Ev(ptr noundef nonnull align 8 dereferenceable(8) %ref.tmp) #14
  br label %do.body2

do.body2:                                         ; preds = %invoke.cont
  %call5 = invoke noundef zeroext i1 @_ZNK5arrow6Status2okEv(ptr noundef nonnull align 8 dereferenceable(8) %__s)
          to label %invoke.cont4 unwind label %lpad3

invoke.cont4:                                     ; preds = %do.body2
  %lnot = xor i1 %call5, true
  %lnot6 = xor i1 %lnot, true
  %lnot7 = xor i1 %lnot6, true
  br i1 %lnot7, label %if.then, label %if.end

if.then:                                          ; preds = %invoke.cont4
  call void @_ZN5arrow6ResultIlEC2ERKNS_6StatusE(ptr noundef nonnull align 8 dereferenceable(16) %agg.result, ptr noundef nonnull align 8 dereferenceable(8) %__s) #14
  store i32 1, ptr %cleanup.dest.slot, align 4
  br label %cleanup

lpad:                                             ; preds = %do.body
  %0 = landingpad { ptr, i32 }
          cleanup
  %1 = extractvalue { ptr, i32 } %0, 0
  store ptr %1, ptr %exn.slot, align 8
  %2 = extractvalue { ptr, i32 } %0, 1
  store i32 %2, ptr %ehselector.slot, align 4
  call void @_ZN5arrow6StatusD2Ev(ptr noundef nonnull align 8 dereferenceable(8) %ref.tmp) #14
  br label %eh.resume

lpad3:                                            ; preds = %do.body2
  %3 = landingpad { ptr, i32 }
          cleanup
  %4 = extractvalue { ptr, i32 } %3, 0
  store ptr %4, ptr %exn.slot, align 8
  %5 = extractvalue { ptr, i32 } %3, 1
  store i32 %5, ptr %ehselector.slot, align 4
  call void @_ZN5arrow6StatusD2Ev(ptr noundef nonnull align 8 dereferenceable(8) %__s) #14
  br label %eh.resume

if.end:                                           ; preds = %invoke.cont4
  br label %do.cond

do.cond:                                          ; preds = %if.end
  br label %do.end

do.end:                                           ; preds = %do.cond
  store i32 0, ptr %cleanup.dest.slot, align 4
  br label %cleanup

cleanup:                                          ; preds = %do.end, %if.then
  call void @_ZN5arrow6StatusD2Ev(ptr noundef nonnull align 8 dereferenceable(8) %__s) #14
  %cleanup.dest = load i32, ptr %cleanup.dest.slot, align 4
  switch i32 %cleanup.dest, label %unreachable [
    i32 0, label %cleanup.cont
    i32 1, label %return
  ]

cleanup.cont:                                     ; preds = %cleanup
  br label %do.end9

do.end9:                                          ; preds = %cleanup.cont
  %memory_map_11 = getelementptr inbounds %"class.arrow::io::MemoryMappedFile", ptr %this1, i32 0, i32 1
  %call12 = call noundef ptr @_ZNKSt19__shared_ptr_accessIN5arrow2io16MemoryMappedFile9MemoryMapELN9__gnu_cxx12_Lock_policyE2ELb0ELb0EEptEv(ptr noundef nonnull align 1 dereferenceable(1) %memory_map_11) #14
  %call13 = call noundef i64 @_ZNK5arrow2io16MemoryMappedFile9MemoryMap4sizeEv(ptr noundef nonnull align 8 dereferenceable(120) %call12)
  store i64 %call13, ptr %ref.tmp10, align 8
  call void @_ZN5arrow6ResultIlEC2EOl(ptr noundef nonnull align 8 dereferenceable(16) %agg.result, ptr noundef nonnull align 8 dereferenceable(8) %ref.tmp10) #14
  br label %return

return:                                           ; preds = %do.end9, %cleanup
  ret void

eh.resume:                                        ; preds = %lpad3, %lpad
  %exn = load ptr, ptr %exn.slot, align 8
  %sel = load i32, ptr %ehselector.slot, align 4
  %lpad.val = insertvalue { ptr, i32 } poison, ptr %exn, 0
  %lpad.val14 = insertvalue { ptr, i32 } %lpad.val, i32 %sel, 1
  resume { ptr, i32 } %lpad.val14

unreachable:                                      ; preds = %cleanup
  unreachable
}

; Function Attrs: mustprogress uwtable
define linkonce_odr hidden void @_ZNK5arrow2io16MemoryMappedFile9MemoryMap11CheckClosedEv(ptr noalias sret(%"class.arrow::Status") align 8 %agg.result, ptr noundef nonnull align 8 dereferenceable(120) %this) #0 comdat align 2 {
entry:
  %result.ptr = alloca ptr, align 8
  %this.addr = alloca ptr, align 8
  store ptr %agg.result, ptr %result.ptr, align 8
  store ptr %this, ptr %this.addr, align 8
  %this1 = load ptr, ptr %this.addr, align 8
  %call = call noundef zeroext i1 @_ZNK5arrow2io16MemoryMappedFile9MemoryMap6closedEv(ptr noundef nonnull align 8 dereferenceable(120) %this1)
  br i1 %call, label %if.then, label %if.end

if.then:                                          ; preds = %entry
  call void @_ZN5arrow6Status7InvalidIJRA33_KcEEES0_DpOT_(ptr sret(%"class.arrow::Status") align 8 %agg.result, ptr noundef nonnull align 1 dereferenceable(33) @.str.4)
  br label %return

if.end:                                           ; preds = %entry
  call void @_ZN5arrow6Status2OKEv(ptr sret(%"class.arrow::Status") align 8 %agg.result)
  br label %return

return:                                           ; preds = %if.end, %if.then
  ret void
}

; Function Attrs: mustprogress nounwind uwtable
define linkonce_odr void @_ZN5arrow6ResultIlEC2ERKNS_6StatusE(ptr noundef nonnull align 8 dereferenceable(16) %this, ptr noundef nonnull align 8 dereferenceable(8) %status) unnamed_addr #1 comdat align 2 personality ptr @__gxx_personality_v0 {
entry:
  %this.addr = alloca ptr, align 8
  %status.addr = alloca ptr, align 8
  %ref.tmp = alloca %"class.std::__cxx11::basic_string", align 8
  %ref.tmp3 = alloca %"class.std::__cxx11::basic_string", align 8
  %ref.tmp4 = alloca %"class.std::allocator", align 1
  %ref.tmp6 = alloca %"class.std::__cxx11::basic_string", align 8
  store ptr %this, ptr %this.addr, align 8
  store ptr %status, ptr %status.addr, align 8
  %this1 = load ptr, ptr %this.addr, align 8
  %status_ = getelementptr inbounds %"class.arrow::Result.28", ptr %this1, i32 0, i32 0
  %0 = load ptr, ptr %status.addr, align 8
  invoke void @_ZN5arrow6StatusC2ERKS0_(ptr noundef nonnull align 8 dereferenceable(8) %status_, ptr noundef nonnull align 8 dereferenceable(8) %0)
          to label %invoke.cont unwind label %terminate.lpad

invoke.cont:                                      ; preds = %entry
  %1 = load ptr, ptr %status.addr, align 8
  %call = call noundef zeroext i1 @_ZNK5arrow6Status2okEv(ptr noundef nonnull align 8 dereferenceable(8) %1)
  %lnot = xor i1 %call, true
  %lnot2 = xor i1 %lnot, true
  br i1 %lnot2, label %if.then, label %if.end

if.then:                                          ; preds = %invoke.cont
  call void @_ZNSaIcEC1Ev(ptr noundef nonnull align 1 dereferenceable(1) %ref.tmp4) #14
  invoke void @_ZNSt7__cxx1112basic_stringIcSt11char_traitsIcESaIcEEC2IS3_EEPKcRKS3_(ptr noundef nonnull align 8 dereferenceable(32) %ref.tmp3, ptr noundef @.str.17, ptr noundef nonnull align 1 dereferenceable(1) %ref.tmp4)
          to label %invoke.cont5 unwind label %terminate.lpad

invoke.cont5:                                     ; preds = %if.then
  %2 = load ptr, ptr %status.addr, align 8
  invoke void @_ZNK5arrow6Status8ToStringB5cxx11Ev(ptr sret(%"class.std::__cxx11::basic_string") align 8 %ref.tmp6, ptr noundef nonnull align 8 dereferenceable(8) %2)
          to label %invoke.cont7 unwind label %terminate.lpad

invoke.cont7:                                     ; preds = %invoke.cont5
  invoke void @_ZStplIcSt11char_traitsIcESaIcEENSt7__cxx1112basic_stringIT_T0_T1_EEOS8_S9_(ptr sret(%"class.std::__cxx11::basic_string") align 8 %ref.tmp, ptr noundef nonnull align 8 dereferenceable(32) %ref.tmp3, ptr noundef nonnull align 8 dereferenceable(32) %ref.tmp6)
          to label %invoke.cont8 unwind label %terminate.lpad

invoke.cont8:                                     ; preds = %invoke.cont7
  invoke void @_ZN5arrow8internal14DieWithMessageERKNSt7__cxx1112basic_stringIcSt11char_traitsIcESaIcEEE(ptr noundef nonnull align 8 dereferenceable(32) %ref.tmp)
          to label %invoke.cont9 unwind label %terminate.lpad

invoke.cont9:                                     ; preds = %invoke.cont8
  call void @_ZNSt7__cxx1112basic_stringIcSt11char_traitsIcESaIcEED1Ev(ptr noundef nonnull align 8 dereferenceable(32) %ref.tmp) #14
  call void @_ZNSt7__cxx1112basic_stringIcSt11char_traitsIcESaIcEED1Ev(ptr noundef nonnull align 8 dereferenceable(32) %ref.tmp6) #14
  call void @_ZNSt7__cxx1112basic_stringIcSt11char_traitsIcESaIcEED1Ev(ptr noundef nonnull align 8 dereferenceable(32) %ref.tmp3) #14
  call void @_ZNSaIcED1Ev(ptr noundef nonnull align 1 dereferenceable(1) %ref.tmp4) #14
  br label %if.end

if.end:                                           ; preds = %invoke.cont9, %invoke.cont
  ret void

terminate.lpad:                                   ; preds = %invoke.cont8, %invoke.cont7, %invoke.cont5, %if.then, %entry
  %3 = landingpad { ptr, i32 }
          catch ptr null
  %4 = extractvalue { ptr, i32 } %3, 0
  call void @__clang_call_terminate(ptr %4) #17
  unreachable
}

; Function Attrs: mustprogress nounwind uwtable
define linkonce_odr hidden noundef i64 @_ZNK5arrow2io16MemoryMappedFile9MemoryMap4sizeEv(ptr noundef nonnull align 8 dereferenceable(120) %this) #1 comdat align 2 {
entry:
  %this.addr = alloca ptr, align 8
  store ptr %this, ptr %this.addr, align 8
  %this1 = load ptr, ptr %this.addr, align 8
  %map_len_ = getelementptr inbounds %"class.arrow::io::MemoryMappedFile::MemoryMap", ptr %this1, i32 0, i32 8
  %0 = load i64, ptr %map_len_, align 8
  ret i64 %0
}

; Function Attrs: mustprogress uwtable
define void @_ZNK5arrow2io16MemoryMappedFile4TellEv(ptr noalias sret(%"class.arrow::Result.28") align 8 %agg.result, ptr noundef nonnull align 8 dereferenceable(56) %this) unnamed_addr #0 align 2 personality ptr @__gxx_personality_v0 {
entry:
  %result.ptr = alloca ptr, align 8
  %this.addr = alloca ptr, align 8
  %__s = alloca %"class.arrow::Status", align 8
  %ref.tmp = alloca %"class.arrow::Status", align 8
  %exn.slot = alloca ptr, align 8
  %ehselector.slot = alloca i32, align 4
  %cleanup.dest.slot = alloca i32, align 4
  %ref.tmp10 = alloca i64, align 8
  store ptr %agg.result, ptr %result.ptr, align 8
  store ptr %this, ptr %this.addr, align 8
  %this1 = load ptr, ptr %this.addr, align 8
  br label %do.body

do.body:                                          ; preds = %entry
  %memory_map_ = getelementptr inbounds %"class.arrow::io::MemoryMappedFile", ptr %this1, i32 0, i32 1
  %call = call noundef ptr @_ZNKSt19__shared_ptr_accessIN5arrow2io16MemoryMappedFile9MemoryMapELN9__gnu_cxx12_Lock_policyE2ELb0ELb0EEptEv(ptr noundef nonnull align 1 dereferenceable(1) %memory_map_) #14
  call void @_ZNK5arrow2io16MemoryMappedFile9MemoryMap11CheckClosedEv(ptr sret(%"class.arrow::Status") align 8 %ref.tmp, ptr noundef nonnull align 8 dereferenceable(120) %call)
  invoke void @_ZN5arrow8internal15GenericToStatusEONS_6StatusE(ptr sret(%"class.arrow::Status") align 8 %__s, ptr noundef nonnull align 8 dereferenceable(8) %ref.tmp)
          to label %invoke.cont unwind label %lpad

invoke.cont:                                      ; preds = %do.body
  call void @_ZN5arrow6StatusD2Ev(ptr noundef nonnull align 8 dereferenceable(8) %ref.tmp) #14
  br label %do.body2

do.body2:                                         ; preds = %invoke.cont
  %call5 = invoke noundef zeroext i1 @_ZNK5arrow6Status2okEv(ptr noundef nonnull align 8 dereferenceable(8) %__s)
          to label %invoke.cont4 unwind label %lpad3

invoke.cont4:                                     ; preds = %do.body2
  %lnot = xor i1 %call5, true
  %lnot6 = xor i1 %lnot, true
  %lnot7 = xor i1 %lnot6, true
  br i1 %lnot7, label %if.then, label %if.end

if.then:                                          ; preds = %invoke.cont4
  call void @_ZN5arrow6ResultIlEC2ERKNS_6StatusE(ptr noundef nonnull align 8 dereferenceable(16) %agg.result, ptr noundef nonnull align 8 dereferenceable(8) %__s) #14
  store i32 1, ptr %cleanup.dest.slot, align 4
  br label %cleanup

lpad:                                             ; preds = %do.body
  %0 = landingpad { ptr, i32 }
          cleanup
  %1 = extractvalue { ptr, i32 } %0, 0
  store ptr %1, ptr %exn.slot, align 8
  %2 = extractvalue { ptr, i32 } %0, 1
  store i32 %2, ptr %ehselector.slot, align 4
  call void @_ZN5arrow6StatusD2Ev(ptr noundef nonnull align 8 dereferenceable(8) %ref.tmp) #14
  br label %eh.resume

lpad3:                                            ; preds = %do.body2
  %3 = landingpad { ptr, i32 }
          cleanup
  %4 = extractvalue { ptr, i32 } %3, 0
  store ptr %4, ptr %exn.slot, align 8
  %5 = extractvalue { ptr, i32 } %3, 1
  store i32 %5, ptr %ehselector.slot, align 4
  call void @_ZN5arrow6StatusD2Ev(ptr noundef nonnull align 8 dereferenceable(8) %__s) #14
  br label %eh.resume

if.end:                                           ; preds = %invoke.cont4
  br label %do.cond

do.cond:                                          ; preds = %if.end
  br label %do.end

do.end:                                           ; preds = %do.cond
  store i32 0, ptr %cleanup.dest.slot, align 4
  br label %cleanup

cleanup:                                          ; preds = %do.end, %if.then
  call void @_ZN5arrow6StatusD2Ev(ptr noundef nonnull align 8 dereferenceable(8) %__s) #14
  %cleanup.dest = load i32, ptr %cleanup.dest.slot, align 4
  switch i32 %cleanup.dest, label %unreachable [
    i32 0, label %cleanup.cont
    i32 1, label %return
  ]

cleanup.cont:                                     ; preds = %cleanup
  br label %do.end9

do.end9:                                          ; preds = %cleanup.cont
  %memory_map_11 = getelementptr inbounds %"class.arrow::io::MemoryMappedFile", ptr %this1, i32 0, i32 1
  %call12 = call noundef ptr @_ZNKSt19__shared_ptr_accessIN5arrow2io16MemoryMappedFile9MemoryMapELN9__gnu_cxx12_Lock_policyE2ELb0ELb0EEptEv(ptr noundef nonnull align 1 dereferenceable(1) %memory_map_11) #14
  %call13 = call noundef i64 @_ZN5arrow2io16MemoryMappedFile9MemoryMap8positionEv(ptr noundef nonnull align 8 dereferenceable(120) %call12)
  store i64 %call13, ptr %ref.tmp10, align 8
  call void @_ZN5arrow6ResultIlEC2EOl(ptr noundef nonnull align 8 dereferenceable(16) %agg.result, ptr noundef nonnull align 8 dereferenceable(8) %ref.tmp10) #14
  br label %return

return:                                           ; preds = %do.end9, %cleanup
  ret void

eh.resume:                                        ; preds = %lpad3, %lpad
  %exn = load ptr, ptr %exn.slot, align 8
  %sel = load i32, ptr %ehselector.slot, align 4
  %lpad.val = insertvalue { ptr, i32 } poison, ptr %exn, 0
  %lpad.val14 = insertvalue { ptr, i32 } %lpad.val, i32 %sel, 1
  resume { ptr, i32 } %lpad.val14

unreachable:                                      ; preds = %cleanup
  unreachable
}

; Function Attrs: mustprogress nounwind uwtable
define linkonce_odr hidden noundef i64 @_ZN5arrow2io16MemoryMappedFile9MemoryMap8positionEv(ptr noundef nonnull align 8 dereferenceable(120) %this) #1 comdat align 2 {
entry:
  %this.addr = alloca ptr, align 8
  store ptr %this, ptr %this.addr, align 8
  %this1 = load ptr, ptr %this.addr, align 8
  %position_ = getelementptr inbounds %"class.arrow::io::MemoryMappedFile::MemoryMap", ptr %this1, i32 0, i32 6
  %0 = load i64, ptr %position_, align 8
  ret i64 %0
}

; Function Attrs: uwtable
define void @_ZTv0_n56_NK5arrow2io16MemoryMappedFile4TellEv(ptr noalias sret(%"class.arrow::Result.28") align 8 %agg.result, ptr noundef %this) unnamed_addr #8 align 2 {
entry:
  %result.ptr = alloca ptr, align 8
  %this.addr = alloca ptr, align 8
  store ptr %agg.result, ptr %result.ptr, align 8
  store ptr %this, ptr %this.addr, align 8
  %this1 = load ptr, ptr %this.addr, align 8
  %0 = load ptr, ptr %this1, align 8
  %1 = getelementptr inbounds i8, ptr %0, i64 -56
  %2 = load i64, ptr %1, align 8
  %3 = getelementptr inbounds i8, ptr %this1, i64 %2
  tail call void @_ZNK5arrow2io16MemoryMappedFile4TellEv(ptr sret(%"class.arrow::Result.28") align 8 %agg.result, ptr noundef nonnull align 8 dereferenceable(56) %3)
  ret void
}

; Function Attrs: mustprogress uwtable
define void @_ZN5arrow2io16MemoryMappedFile4SeekEl(ptr noalias sret(%"class.arrow::Status") align 8 %agg.result, ptr noundef nonnull align 8 dereferenceable(56) %this, i64 noundef %position) unnamed_addr #0 align 2 personality ptr @__gxx_personality_v0 {
entry:
  %result.ptr = alloca ptr, align 8
  %this.addr = alloca ptr, align 8
  %position.addr = alloca i64, align 8
  %nrvo = alloca i1, align 1
  %ref.tmp = alloca %"class.arrow::Status", align 8
  %exn.slot = alloca ptr, align 8
  %ehselector.slot = alloca i32, align 4
  %cleanup.dest.slot = alloca i32, align 4
  store ptr %agg.result, ptr %result.ptr, align 8
  store ptr %this, ptr %this.addr, align 8
  store i64 %position, ptr %position.addr, align 8
  %this1 = load ptr, ptr %this.addr, align 8
  br label %do.body

do.body:                                          ; preds = %entry
  store i1 false, ptr %nrvo, align 1
  %memory_map_ = getelementptr inbounds %"class.arrow::io::MemoryMappedFile", ptr %this1, i32 0, i32 1
  %call = call noundef ptr @_ZNKSt19__shared_ptr_accessIN5arrow2io16MemoryMappedFile9MemoryMapELN9__gnu_cxx12_Lock_policyE2ELb0ELb0EEptEv(ptr noundef nonnull align 1 dereferenceable(1) %memory_map_) #14
  call void @_ZNK5arrow2io16MemoryMappedFile9MemoryMap11CheckClosedEv(ptr sret(%"class.arrow::Status") align 8 %ref.tmp, ptr noundef nonnull align 8 dereferenceable(120) %call)
  invoke void @_ZN5arrow8internal15GenericToStatusEONS_6StatusE(ptr sret(%"class.arrow::Status") align 8 %agg.result, ptr noundef nonnull align 8 dereferenceable(8) %ref.tmp)
          to label %invoke.cont unwind label %lpad

invoke.cont:                                      ; preds = %do.body
  call void @_ZN5arrow6StatusD2Ev(ptr noundef nonnull align 8 dereferenceable(8) %ref.tmp) #14
  br label %do.body2

do.body2:                                         ; preds = %invoke.cont
  %call5 = invoke noundef zeroext i1 @_ZNK5arrow6Status2okEv(ptr noundef nonnull align 8 dereferenceable(8) %agg.result)
          to label %invoke.cont4 unwind label %lpad3

invoke.cont4:                                     ; preds = %do.body2
  %lnot = xor i1 %call5, true
  %lnot6 = xor i1 %lnot, true
  %lnot7 = xor i1 %lnot6, true
  br i1 %lnot7, label %if.then, label %if.end

if.then:                                          ; preds = %invoke.cont4
  store i1 true, ptr %nrvo, align 1
  store i32 1, ptr %cleanup.dest.slot, align 4
  br label %cleanup

lpad:                                             ; preds = %do.body
  %0 = landingpad { ptr, i32 }
          cleanup
  %1 = extractvalue { ptr, i32 } %0, 0
  store ptr %1, ptr %exn.slot, align 8
  %2 = extractvalue { ptr, i32 } %0, 1
  store i32 %2, ptr %ehselector.slot, align 4
  call void @_ZN5arrow6StatusD2Ev(ptr noundef nonnull align 8 dereferenceable(8) %ref.tmp) #14
  br label %eh.resume

lpad3:                                            ; preds = %do.body2
  %3 = landingpad { ptr, i32 }
          cleanup
  %4 = extractvalue { ptr, i32 } %3, 0
  store ptr %4, ptr %exn.slot, align 8
  %5 = extractvalue { ptr, i32 } %3, 1
  store i32 %5, ptr %ehselector.slot, align 4
  call void @_ZN5arrow6StatusD2Ev(ptr noundef nonnull align 8 dereferenceable(8) %agg.result) #14
  br label %eh.resume

if.end:                                           ; preds = %invoke.cont4
  br label %do.cond

do.cond:                                          ; preds = %if.end
  br label %do.end

do.end:                                           ; preds = %do.cond
  store i32 0, ptr %cleanup.dest.slot, align 4
  br label %cleanup

cleanup:                                          ; preds = %do.end, %if.then
  %nrvo.val = load i1, ptr %nrvo, align 1
  br i1 %nrvo.val, label %nrvo.skipdtor, label %nrvo.unused

nrvo.unused:                                      ; preds = %cleanup
  call void @_ZN5arrow6StatusD2Ev(ptr noundef nonnull align 8 dereferenceable(8) %agg.result) #14
  br label %nrvo.skipdtor

nrvo.skipdtor:                                    ; preds = %nrvo.unused, %cleanup
  %cleanup.dest = load i32, ptr %cleanup.dest.slot, align 4
  switch i32 %cleanup.dest, label %unreachable [
    i32 0, label %cleanup.cont
    i32 1, label %return
  ]

cleanup.cont:                                     ; preds = %nrvo.skipdtor
  br label %do.end9

do.end9:                                          ; preds = %cleanup.cont
  %memory_map_10 = getelementptr inbounds %"class.arrow::io::MemoryMappedFile", ptr %this1, i32 0, i32 1
  %call11 = call noundef ptr @_ZNKSt19__shared_ptr_accessIN5arrow2io16MemoryMappedFile9MemoryMapELN9__gnu_cxx12_Lock_policyE2ELb0ELb0EEptEv(ptr noundef nonnull align 1 dereferenceable(1) %memory_map_10) #14
  %6 = load i64, ptr %position.addr, align 8
  call void @_ZN5arrow2io16MemoryMappedFile9MemoryMap4SeekEl(ptr sret(%"class.arrow::Status") align 8 %agg.result, ptr noundef nonnull align 8 dereferenceable(120) %call11, i64 noundef %6)
  br label %return

return:                                           ; preds = %do.end9, %nrvo.skipdtor
  ret void

eh.resume:                                        ; preds = %lpad3, %lpad
  %exn = load ptr, ptr %exn.slot, align 8
  %sel = load i32, ptr %ehselector.slot, align 4
  %lpad.val = insertvalue { ptr, i32 } poison, ptr %exn, 0
  %lpad.val12 = insertvalue { ptr, i32 } %lpad.val, i32 %sel, 1
  resume { ptr, i32 } %lpad.val12

unreachable:                                      ; preds = %nrvo.skipdtor
  unreachable
}

; Function Attrs: mustprogress uwtable
define linkonce_odr hidden void @_ZN5arrow2io16MemoryMappedFile9MemoryMap4SeekEl(ptr noalias sret(%"class.arrow::Status") align 8 %agg.result, ptr noundef nonnull align 8 dereferenceable(120) %this, i64 noundef %position) #0 comdat align 2 {
entry:
  %result.ptr = alloca ptr, align 8
  %this.addr = alloca ptr, align 8
  %position.addr = alloca i64, align 8
  store ptr %agg.result, ptr %result.ptr, align 8
  store ptr %this, ptr %this.addr, align 8
  store i64 %position, ptr %position.addr, align 8
  %this1 = load ptr, ptr %this.addr, align 8
  %0 = load i64, ptr %position.addr, align 8
  %cmp = icmp slt i64 %0, 0
  br i1 %cmp, label %if.then, label %if.end

if.then:                                          ; preds = %entry
  call void @_ZN5arrow6Status7InvalidIJRA26_KcEEES0_DpOT_(ptr sret(%"class.arrow::Status") align 8 %agg.result, ptr noundef nonnull align 1 dereferenceable(26) @.str.13)
  br label %return

if.end:                                           ; preds = %entry
  %1 = load i64, ptr %position.addr, align 8
  %position_ = getelementptr inbounds %"class.arrow::io::MemoryMappedFile::MemoryMap", ptr %this1, i32 0, i32 6
  store i64 %1, ptr %position_, align 8
  call void @_ZN5arrow6Status2OKEv(ptr sret(%"class.arrow::Status") align 8 %agg.result)
  br label %return

return:                                           ; preds = %if.end, %if.then
  ret void
}

; Function Attrs: uwtable
define void @_ZThn8_N5arrow2io16MemoryMappedFile4SeekEl(ptr noalias sret(%"class.arrow::Status") align 8 %agg.result, ptr noundef %this, i64 noundef %position) unnamed_addr #8 align 2 {
entry:
  %result.ptr = alloca ptr, align 8
  %this.addr = alloca ptr, align 8
  %position.addr = alloca i64, align 8
  store ptr %agg.result, ptr %result.ptr, align 8
  store ptr %this, ptr %this.addr, align 8
  store i64 %position, ptr %position.addr, align 8
  %this1 = load ptr, ptr %this.addr, align 8
  %0 = getelementptr inbounds i8, ptr %this1, i64 -8
  %1 = load i64, ptr %position.addr, align 8
  tail call void @_ZN5arrow2io16MemoryMappedFile4SeekEl(ptr sret(%"class.arrow::Status") align 8 %agg.result, ptr noundef nonnull align 8 dereferenceable(56) %0, i64 noundef %1)
  ret void
}

; Function Attrs: uwtable
define void @_ZThn32_N5arrow2io16MemoryMappedFile4SeekEl(ptr noalias sret(%"class.arrow::Status") align 8 %agg.result, ptr noundef %this, i64 noundef %position) unnamed_addr #8 align 2 {
entry:
  %result.ptr = alloca ptr, align 8
  %this.addr = alloca ptr, align 8
  %position.addr = alloca i64, align 8
  store ptr %agg.result, ptr %result.ptr, align 8
  store ptr %this, ptr %this.addr, align 8
  store i64 %position, ptr %position.addr, align 8
  %this1 = load ptr, ptr %this.addr, align 8
  %0 = getelementptr inbounds i8, ptr %this1, i64 -32
  %1 = load i64, ptr %position.addr, align 8
  tail call void @_ZN5arrow2io16MemoryMappedFile4SeekEl(ptr sret(%"class.arrow::Status") align 8 %agg.result, ptr noundef nonnull align 8 dereferenceable(56) %0, i64 noundef %1)
  ret void
}

; Function Attrs: mustprogress uwtable
define void @_ZN5arrow2io16MemoryMappedFile5CloseEv(ptr noalias sret(%"class.arrow::Status") align 8 %agg.result, ptr noundef nonnull align 8 dereferenceable(56) %this) unnamed_addr #0 align 2 {
entry:
  %result.ptr = alloca ptr, align 8
  %this.addr = alloca ptr, align 8
  store ptr %agg.result, ptr %result.ptr, align 8
  store ptr %this, ptr %this.addr, align 8
  %this1 = load ptr, ptr %this.addr, align 8
  %memory_map_ = getelementptr inbounds %"class.arrow::io::MemoryMappedFile", ptr %this1, i32 0, i32 1
  %call = call noundef ptr @_ZNKSt19__shared_ptr_accessIN5arrow2io16MemoryMappedFile9MemoryMapELN9__gnu_cxx12_Lock_policyE2ELb0ELb0EEptEv(ptr noundef nonnull align 1 dereferenceable(1) %memory_map_) #14
  call void @_ZN5arrow2io16MemoryMappedFile9MemoryMap5CloseEv(ptr sret(%"class.arrow::Status") align 8 %agg.result, ptr noundef nonnull align 8 dereferenceable(120) %call)
  ret void
}

; Function Attrs: mustprogress uwtable
define linkonce_odr hidden void @_ZN5arrow2io16MemoryMappedFile9MemoryMap5CloseEv(ptr noalias sret(%"class.arrow::Status") align 8 %agg.result, ptr noundef nonnull align 8 dereferenceable(120) %this) #0 comdat align 2 {
entry:
  %result.ptr = alloca ptr, align 8
  %this.addr = alloca ptr, align 8
  store ptr %agg.result, ptr %result.ptr, align 8
  store ptr %this, ptr %this.addr, align 8
  %this1 = load ptr, ptr %this.addr, align 8
  %file_ = getelementptr inbounds %"class.arrow::io::MemoryMappedFile::MemoryMap", ptr %this1, i32 0, i32 1
  %call = call noundef ptr @_ZNKSt10unique_ptrIN5arrow2io6OSFileESt14default_deleteIS2_EEptEv(ptr noundef nonnull align 8 dereferenceable(8) %file_) #14
  %call2 = call noundef zeroext i1 @_ZNK5arrow2io6OSFile7is_openEv(ptr noundef nonnull align 8 dereferenceable(65) %call)
  br i1 %call2, label %if.then, label %if.else

if.then:                                          ; preds = %entry
  %region_ = getelementptr inbounds %"class.arrow::io::MemoryMappedFile::MemoryMap", ptr %this1, i32 0, i32 4
  call void @_ZNSt12__shared_ptrIN5arrow2io16MemoryMappedFile9MemoryMap6RegionELN9__gnu_cxx12_Lock_policyE2EE5resetEv(ptr noundef nonnull align 8 dereferenceable(16) %region_) #14
  %file_3 = getelementptr inbounds %"class.arrow::io::MemoryMappedFile::MemoryMap", ptr %this1, i32 0, i32 1
  %call4 = call noundef ptr @_ZNKSt10unique_ptrIN5arrow2io6OSFileESt14default_deleteIS2_EEptEv(ptr noundef nonnull align 8 dereferenceable(8) %file_3) #14
  call void @_ZN5arrow2io6OSFile5CloseEv(ptr sret(%"class.arrow::Status") align 8 %agg.result, ptr noundef nonnull align 8 dereferenceable(65) %call4)
  br label %return

if.else:                                          ; preds = %entry
  call void @_ZN5arrow6Status2OKEv(ptr sret(%"class.arrow::Status") align 8 %agg.result)
  br label %return

return:                                           ; preds = %if.else, %if.then
  ret void
}

; Function Attrs: uwtable
define void @_ZTv0_n32_N5arrow2io16MemoryMappedFile5CloseEv(ptr noalias sret(%"class.arrow::Status") align 8 %agg.result, ptr noundef %this) unnamed_addr #8 align 2 {
entry:
  %result.ptr = alloca ptr, align 8
  %this.addr = alloca ptr, align 8
  store ptr %agg.result, ptr %result.ptr, align 8
  store ptr %this, ptr %this.addr, align 8
  %this1 = load ptr, ptr %this.addr, align 8
  %0 = load ptr, ptr %this1, align 8
  %1 = getelementptr inbounds i8, ptr %0, i64 -32
  %2 = load i64, ptr %1, align 8
  %3 = getelementptr inbounds i8, ptr %this1, i64 %2
  tail call void @_ZN5arrow2io16MemoryMappedFile5CloseEv(ptr sret(%"class.arrow::Status") align 8 %agg.result, ptr noundef nonnull align 8 dereferenceable(56) %3)
  ret void
}

; Function Attrs: mustprogress uwtable
define noundef zeroext i1 @_ZNK5arrow2io16MemoryMappedFile6closedEv(ptr noundef nonnull align 8 dereferenceable(56) %this) unnamed_addr #0 align 2 {
entry:
  %this.addr = alloca ptr, align 8
  store ptr %this, ptr %this.addr, align 8
  %this1 = load ptr, ptr %this.addr, align 8
  %memory_map_ = getelementptr inbounds %"class.arrow::io::MemoryMappedFile", ptr %this1, i32 0, i32 1
  %call = call noundef ptr @_ZNKSt19__shared_ptr_accessIN5arrow2io16MemoryMappedFile9MemoryMapELN9__gnu_cxx12_Lock_policyE2ELb0ELb0EEptEv(ptr noundef nonnull align 1 dereferenceable(1) %memory_map_) #14
  %call2 = call noundef zeroext i1 @_ZNK5arrow2io16MemoryMappedFile9MemoryMap6closedEv(ptr noundef nonnull align 8 dereferenceable(120) %call)
  ret i1 %call2
}

; Function Attrs: mustprogress uwtable
define linkonce_odr hidden noundef zeroext i1 @_ZNK5arrow2io16MemoryMappedFile9MemoryMap6closedEv(ptr noundef nonnull align 8 dereferenceable(120) %this) #0 comdat align 2 {
entry:
  %this.addr = alloca ptr, align 8
  store ptr %this, ptr %this.addr, align 8
  %this1 = load ptr, ptr %this.addr, align 8
  %file_ = getelementptr inbounds %"class.arrow::io::MemoryMappedFile::MemoryMap", ptr %this1, i32 0, i32 1
  %call = call noundef ptr @_ZNKSt10unique_ptrIN5arrow2io6OSFileESt14default_deleteIS2_EEptEv(ptr noundef nonnull align 8 dereferenceable(8) %file_) #14
  %call2 = call noundef zeroext i1 @_ZNK5arrow2io6OSFile7is_openEv(ptr noundef nonnull align 8 dereferenceable(65) %call)
  %lnot = xor i1 %call2, true
  ret i1 %lnot
}

; Function Attrs: uwtable
define noundef zeroext i1 @_ZTv0_n64_NK5arrow2io16MemoryMappedFile6closedEv(ptr noundef %this) unnamed_addr #8 align 2 {
entry:
  %this.addr = alloca ptr, align 8
  store ptr %this, ptr %this.addr, align 8
  %this1 = load ptr, ptr %this.addr, align 8
  %0 = load ptr, ptr %this1, align 8
  %1 = getelementptr inbounds i8, ptr %0, i64 -64
  %2 = load i64, ptr %1, align 8
  %3 = getelementptr inbounds i8, ptr %this1, i64 %2
  %call = tail call noundef zeroext i1 @_ZNK5arrow2io16MemoryMappedFile6closedEv(ptr noundef nonnull align 8 dereferenceable(56) %3)
  ret i1 %call
}

; Function Attrs: mustprogress uwtable
define void @_ZN5arrow2io16MemoryMappedFile6ReadAtEll(ptr noalias sret(%"class.arrow::Result.33") align 8 %agg.result, ptr noundef nonnull align 8 dereferenceable(56) %this, i64 noundef %position, i64 noundef %nbytes) unnamed_addr #0 align 2 personality ptr @__gxx_personality_v0 {
entry:
  %result.ptr = alloca ptr, align 8
  %this.addr = alloca ptr, align 8
  %position.addr = alloca i64, align 8
  %nbytes.addr = alloca i64, align 8
  %__s = alloca %"class.arrow::Status", align 8
  %ref.tmp = alloca %"class.arrow::Status", align 8
  %exn.slot = alloca ptr, align 8
  %ehselector.slot = alloca i32, align 4
  %cleanup.dest.slot = alloca i32, align 4
  %guard_resize = alloca %"class.std::unique_lock", align 8
  %_error_or_value24 = alloca ptr, align 8
  %ref.tmp16 = alloca %"class.arrow::Result.28", align 8
  %__s39 = alloca %"class.arrow::Status", align 8
  %ref.tmp40 = alloca %"class.arrow::Status", align 8
  %ref.tmp41 = alloca %"class.std::vector.76", align 8
  %agg.tmp = alloca %"class.std::initializer_list", align 8
  %ref.tmp42 = alloca [1 x %"struct.arrow::internal::MemoryRegion"], align 8
  %ref.tmp47 = alloca %"class.std::allocator.78", align 1
  store ptr %agg.result, ptr %result.ptr, align 8
  store ptr %this, ptr %this.addr, align 8
  store i64 %position, ptr %position.addr, align 8
  store i64 %nbytes, ptr %nbytes.addr, align 8
  %this1 = load ptr, ptr %this.addr, align 8
  br label %do.body

do.body:                                          ; preds = %entry
  %memory_map_ = getelementptr inbounds %"class.arrow::io::MemoryMappedFile", ptr %this1, i32 0, i32 1
  %call = call noundef ptr @_ZNKSt19__shared_ptr_accessIN5arrow2io16MemoryMappedFile9MemoryMapELN9__gnu_cxx12_Lock_policyE2ELb0ELb0EEptEv(ptr noundef nonnull align 1 dereferenceable(1) %memory_map_) #14
  call void @_ZNK5arrow2io16MemoryMappedFile9MemoryMap11CheckClosedEv(ptr sret(%"class.arrow::Status") align 8 %ref.tmp, ptr noundef nonnull align 8 dereferenceable(120) %call)
  invoke void @_ZN5arrow8internal15GenericToStatusEONS_6StatusE(ptr sret(%"class.arrow::Status") align 8 %__s, ptr noundef nonnull align 8 dereferenceable(8) %ref.tmp)
          to label %invoke.cont unwind label %lpad

invoke.cont:                                      ; preds = %do.body
  call void @_ZN5arrow6StatusD2Ev(ptr noundef nonnull align 8 dereferenceable(8) %ref.tmp) #14
  br label %do.body2

do.body2:                                         ; preds = %invoke.cont
  %call5 = invoke noundef zeroext i1 @_ZNK5arrow6Status2okEv(ptr noundef nonnull align 8 dereferenceable(8) %__s)
          to label %invoke.cont4 unwind label %lpad3

invoke.cont4:                                     ; preds = %do.body2
  %lnot = xor i1 %call5, true
  %lnot6 = xor i1 %lnot, true
  %lnot7 = xor i1 %lnot6, true
  br i1 %lnot7, label %if.then, label %if.end

if.then:                                          ; preds = %invoke.cont4
  call void @_ZN5arrow6ResultISt10shared_ptrINS_6BufferEEEC2ERKNS_6StatusE(ptr noundef nonnull align 8 dereferenceable(24) %agg.result, ptr noundef nonnull align 8 dereferenceable(8) %__s) #14
  store i32 1, ptr %cleanup.dest.slot, align 4
  br label %cleanup

lpad:                                             ; preds = %do.body
  %0 = landingpad { ptr, i32 }
          cleanup
  %1 = extractvalue { ptr, i32 } %0, 0
  store ptr %1, ptr %exn.slot, align 8
  %2 = extractvalue { ptr, i32 } %0, 1
  store i32 %2, ptr %ehselector.slot, align 4
  call void @_ZN5arrow6StatusD2Ev(ptr noundef nonnull align 8 dereferenceable(8) %ref.tmp) #14
  br label %eh.resume

lpad3:                                            ; preds = %do.body2
  %3 = landingpad { ptr, i32 }
          cleanup
  %4 = extractvalue { ptr, i32 } %3, 0
  store ptr %4, ptr %exn.slot, align 8
  %5 = extractvalue { ptr, i32 } %3, 1
  store i32 %5, ptr %ehselector.slot, align 4
  call void @_ZN5arrow6StatusD2Ev(ptr noundef nonnull align 8 dereferenceable(8) %__s) #14
  br label %eh.resume

if.end:                                           ; preds = %invoke.cont4
  br label %do.cond

do.cond:                                          ; preds = %if.end
  br label %do.end

do.end:                                           ; preds = %do.cond
  store i32 0, ptr %cleanup.dest.slot, align 4
  br label %cleanup

cleanup:                                          ; preds = %do.end, %if.then
  call void @_ZN5arrow6StatusD2Ev(ptr noundef nonnull align 8 dereferenceable(8) %__s) #14
  %cleanup.dest = load i32, ptr %cleanup.dest.slot, align 4
  switch i32 %cleanup.dest, label %unreachable [
    i32 0, label %cleanup.cont
    i32 1, label %return
  ]

cleanup.cont:                                     ; preds = %cleanup
  br label %do.end9

do.end9:                                          ; preds = %cleanup.cont
  %memory_map_10 = getelementptr inbounds %"class.arrow::io::MemoryMappedFile", ptr %this1, i32 0, i32 1
  %call11 = call noundef ptr @_ZNKSt19__shared_ptr_accessIN5arrow2io16MemoryMappedFile9MemoryMapELN9__gnu_cxx12_Lock_policyE2ELb0ELb0EEptEv(ptr noundef nonnull align 1 dereferenceable(1) %memory_map_10) #14
  %call12 = call noundef zeroext i1 @_ZN5arrow2io16MemoryMappedFile9MemoryMap8writableEv(ptr noundef nonnull align 8 dereferenceable(120) %call11)
  br i1 %call12, label %cond.true, label %cond.false

cond.true:                                        ; preds = %do.end9
  %memory_map_13 = getelementptr inbounds %"class.arrow::io::MemoryMappedFile", ptr %this1, i32 0, i32 1
  %call14 = call noundef ptr @_ZNKSt19__shared_ptr_accessIN5arrow2io16MemoryMappedFile9MemoryMapELN9__gnu_cxx12_Lock_policyE2ELb0ELb0EEptEv(ptr noundef nonnull align 1 dereferenceable(1) %memory_map_13) #14
  %call15 = call noundef nonnull align 8 dereferenceable(40) ptr @_ZN5arrow2io16MemoryMappedFile9MemoryMap11resize_lockEv(ptr noundef nonnull align 8 dereferenceable(120) %call14)
  call void @_ZNSt11unique_lockISt5mutexEC2ERS0_(ptr noundef nonnull align 8 dereferenceable(9) %guard_resize, ptr noundef nonnull align 8 dereferenceable(40) %call15)
  br label %cond.end

cond.false:                                       ; preds = %do.end9
  call void @_ZNSt11unique_lockISt5mutexEC2Ev(ptr noundef nonnull align 8 dereferenceable(9) %guard_resize) #14
  br label %cond.end

cond.end:                                         ; preds = %cond.false, %cond.true
  %6 = load i64, ptr %position.addr, align 8
  %7 = load i64, ptr %nbytes.addr, align 8
  %memory_map_17 = getelementptr inbounds %"class.arrow::io::MemoryMappedFile", ptr %this1, i32 0, i32 1
  %call18 = call noundef ptr @_ZNKSt19__shared_ptr_accessIN5arrow2io16MemoryMappedFile9MemoryMapELN9__gnu_cxx12_Lock_policyE2ELb0ELb0EEptEv(ptr noundef nonnull align 1 dereferenceable(1) %memory_map_17) #14
  %call21 = invoke noundef i64 @_ZNK5arrow2io16MemoryMappedFile9MemoryMap4sizeEv(ptr noundef nonnull align 8 dereferenceable(120) %call18)
          to label %invoke.cont20 unwind label %lpad19

invoke.cont20:                                    ; preds = %cond.end
  invoke void @_ZN5arrow2io8internal17ValidateReadRangeElll(ptr sret(%"class.arrow::Result.28") align 8 %ref.tmp16, i64 noundef %6, i64 noundef %7, i64 noundef %call21)
          to label %invoke.cont22 unwind label %lpad19

invoke.cont22:                                    ; preds = %invoke.cont20
  store ptr %ref.tmp16, ptr %_error_or_value24, align 8
  br label %do.body23

do.body23:                                        ; preds = %invoke.cont22
  %8 = load ptr, ptr %_error_or_value24, align 8
  %call26 = invoke noundef zeroext i1 @_ZNK5arrow6ResultIlE2okEv(ptr noundef nonnull align 8 dereferenceable(16) %8)
          to label %invoke.cont25 unwind label %lpad24

invoke.cont25:                                    ; preds = %do.body23
  %lnot27 = xor i1 %call26, true
  %lnot28 = xor i1 %lnot27, true
  %lnot29 = xor i1 %lnot28, true
  br i1 %lnot29, label %if.then30, label %if.end33

if.then30:                                        ; preds = %invoke.cont25
  %9 = load ptr, ptr %_error_or_value24, align 8
  %call32 = invoke noundef nonnull align 8 dereferenceable(8) ptr @_ZNK5arrow6ResultIlE6statusEv(ptr noundef nonnull align 8 dereferenceable(16) %9)
          to label %invoke.cont31 unwind label %lpad24

invoke.cont31:                                    ; preds = %if.then30
  call void @_ZN5arrow6ResultISt10shared_ptrINS_6BufferEEEC2ERKNS_6StatusE(ptr noundef nonnull align 8 dereferenceable(24) %agg.result, ptr noundef nonnull align 8 dereferenceable(8) %call32) #14
  store i32 1, ptr %cleanup.dest.slot, align 4
  br label %cleanup75

lpad19:                                           ; preds = %invoke.cont20, %cond.end
  %10 = landingpad { ptr, i32 }
          cleanup
  %11 = extractvalue { ptr, i32 } %10, 0
  store ptr %11, ptr %exn.slot, align 8
  %12 = extractvalue { ptr, i32 } %10, 1
  store i32 %12, ptr %ehselector.slot, align 4
  br label %ehcleanup78

lpad24:                                           ; preds = %do.end71, %do.body38, %do.end35, %if.then30, %do.body23
  %13 = landingpad { ptr, i32 }
          cleanup
  %14 = extractvalue { ptr, i32 } %13, 0
  store ptr %14, ptr %exn.slot, align 8
  %15 = extractvalue { ptr, i32 } %13, 1
  store i32 %15, ptr %ehselector.slot, align 4
  br label %ehcleanup76

if.end33:                                         ; preds = %invoke.cont25
  br label %do.cond34

do.cond34:                                        ; preds = %if.end33
  br label %do.end35

do.end35:                                         ; preds = %do.cond34
  %16 = load ptr, ptr %_error_or_value24, align 8
  %call37 = invoke noundef i64 @_ZNO5arrow6ResultIlE11ValueUnsafeEv(ptr noundef nonnull align 8 dereferenceable(16) %16)
          to label %invoke.cont36 unwind label %lpad24

invoke.cont36:                                    ; preds = %do.end35
  store i64 %call37, ptr %nbytes.addr, align 8
  br label %do.body38

do.body38:                                        ; preds = %invoke.cont36
  %arrayinit.begin = getelementptr inbounds [1 x %"struct.arrow::internal::MemoryRegion"], ptr %ref.tmp42, i64 0, i64 0
  %addr = getelementptr inbounds %"struct.arrow::internal::MemoryRegion", ptr %arrayinit.begin, i32 0, i32 0
  %memory_map_43 = getelementptr inbounds %"class.arrow::io::MemoryMappedFile", ptr %this1, i32 0, i32 1
  %call44 = call noundef ptr @_ZNKSt19__shared_ptr_accessIN5arrow2io16MemoryMappedFile9MemoryMapELN9__gnu_cxx12_Lock_policyE2ELb0ELb0EEptEv(ptr noundef nonnull align 1 dereferenceable(1) %memory_map_43) #14
  %call46 = invoke noundef ptr @_ZN5arrow2io16MemoryMappedFile9MemoryMap4dataEv(ptr noundef nonnull align 8 dereferenceable(120) %call44)
          to label %invoke.cont45 unwind label %lpad24

invoke.cont45:                                    ; preds = %do.body38
  %17 = load i64, ptr %position.addr, align 8
  %add.ptr = getelementptr inbounds i8, ptr %call46, i64 %17
  store ptr %add.ptr, ptr %addr, align 8
  %size = getelementptr inbounds %"struct.arrow::internal::MemoryRegion", ptr %arrayinit.begin, i32 0, i32 1
  %18 = load i64, ptr %nbytes.addr, align 8
  store i64 %18, ptr %size, align 8
  %_M_array = getelementptr inbounds %"class.std::initializer_list", ptr %agg.tmp, i32 0, i32 0
  %arraystart = getelementptr inbounds [1 x %"struct.arrow::internal::MemoryRegion"], ptr %ref.tmp42, i64 0, i64 0
  store ptr %arraystart, ptr %_M_array, align 8
  %_M_len = getelementptr inbounds %"class.std::initializer_list", ptr %agg.tmp, i32 0, i32 1
  store i64 1, ptr %_M_len, align 8
  call void @_ZNSaIN5arrow8internal12MemoryRegionEEC2Ev(ptr noundef nonnull align 1 dereferenceable(1) %ref.tmp47) #14
  %19 = getelementptr inbounds { ptr, i64 }, ptr %agg.tmp, i32 0, i32 0
  %20 = load ptr, ptr %19, align 8
  %21 = getelementptr inbounds { ptr, i64 }, ptr %agg.tmp, i32 0, i32 1
  %22 = load i64, ptr %21, align 8
  invoke void @_ZNSt6vectorIN5arrow8internal12MemoryRegionESaIS2_EEC2ESt16initializer_listIS2_ERKS3_(ptr noundef nonnull align 8 dereferenceable(24) %ref.tmp41, ptr %20, i64 %22, ptr noundef nonnull align 1 dereferenceable(1) %ref.tmp47)
          to label %invoke.cont49 unwind label %lpad48

invoke.cont49:                                    ; preds = %invoke.cont45
  invoke void @_ZN5arrow8internal20MemoryAdviseWillNeedERKSt6vectorINS0_12MemoryRegionESaIS2_EE(ptr sret(%"class.arrow::Status") align 8 %ref.tmp40, ptr noundef nonnull align 8 dereferenceable(24) %ref.tmp41)
          to label %invoke.cont51 unwind label %lpad50

invoke.cont51:                                    ; preds = %invoke.cont49
  invoke void @_ZN5arrow8internal15GenericToStatusEONS_6StatusE(ptr sret(%"class.arrow::Status") align 8 %__s39, ptr noundef nonnull align 8 dereferenceable(8) %ref.tmp40)
          to label %invoke.cont53 unwind label %lpad52

invoke.cont53:                                    ; preds = %invoke.cont51
  call void @_ZN5arrow6StatusD2Ev(ptr noundef nonnull align 8 dereferenceable(8) %ref.tmp40) #14
  call void @_ZNSt6vectorIN5arrow8internal12MemoryRegionESaIS2_EED2Ev(ptr noundef nonnull align 8 dereferenceable(24) %ref.tmp41) #14
  call void @_ZNSaIN5arrow8internal12MemoryRegionEED2Ev(ptr noundef nonnull align 1 dereferenceable(1) %ref.tmp47) #14
  br label %do.body55

do.body55:                                        ; preds = %invoke.cont53
  %call58 = invoke noundef zeroext i1 @_ZNK5arrow6Status2okEv(ptr noundef nonnull align 8 dereferenceable(8) %__s39)
          to label %invoke.cont57 unwind label %lpad56

invoke.cont57:                                    ; preds = %do.body55
  %lnot59 = xor i1 %call58, true
  %lnot60 = xor i1 %lnot59, true
  %lnot61 = xor i1 %lnot60, true
  br i1 %lnot61, label %if.then62, label %if.end63

if.then62:                                        ; preds = %invoke.cont57
  call void @_ZN5arrow6ResultISt10shared_ptrINS_6BufferEEEC2ERKNS_6StatusE(ptr noundef nonnull align 8 dereferenceable(24) %agg.result, ptr noundef nonnull align 8 dereferenceable(8) %__s39) #14
  store i32 1, ptr %cleanup.dest.slot, align 4
  br label %cleanup66

lpad48:                                           ; preds = %invoke.cont45
  %23 = landingpad { ptr, i32 }
          cleanup
  %24 = extractvalue { ptr, i32 } %23, 0
  store ptr %24, ptr %exn.slot, align 8
  %25 = extractvalue { ptr, i32 } %23, 1
  store i32 %25, ptr %ehselector.slot, align 4
  br label %ehcleanup54

lpad50:                                           ; preds = %invoke.cont49
  %26 = landingpad { ptr, i32 }
          cleanup
  %27 = extractvalue { ptr, i32 } %26, 0
  store ptr %27, ptr %exn.slot, align 8
  %28 = extractvalue { ptr, i32 } %26, 1
  store i32 %28, ptr %ehselector.slot, align 4
  br label %ehcleanup

lpad52:                                           ; preds = %invoke.cont51
  %29 = landingpad { ptr, i32 }
          cleanup
  %30 = extractvalue { ptr, i32 } %29, 0
  store ptr %30, ptr %exn.slot, align 8
  %31 = extractvalue { ptr, i32 } %29, 1
  store i32 %31, ptr %ehselector.slot, align 4
  call void @_ZN5arrow6StatusD2Ev(ptr noundef nonnull align 8 dereferenceable(8) %ref.tmp40) #14
  br label %ehcleanup

ehcleanup:                                        ; preds = %lpad52, %lpad50
  call void @_ZNSt6vectorIN5arrow8internal12MemoryRegionESaIS2_EED2Ev(ptr noundef nonnull align 8 dereferenceable(24) %ref.tmp41) #14
  br label %ehcleanup54

ehcleanup54:                                      ; preds = %ehcleanup, %lpad48
  call void @_ZNSaIN5arrow8internal12MemoryRegionEED2Ev(ptr noundef nonnull align 1 dereferenceable(1) %ref.tmp47) #14
  br label %ehcleanup76

lpad56:                                           ; preds = %do.body55
  %32 = landingpad { ptr, i32 }
          cleanup
  %33 = extractvalue { ptr, i32 } %32, 0
  store ptr %33, ptr %exn.slot, align 8
  %34 = extractvalue { ptr, i32 } %32, 1
  store i32 %34, ptr %ehselector.slot, align 4
  call void @_ZN5arrow6StatusD2Ev(ptr noundef nonnull align 8 dereferenceable(8) %__s39) #14
  br label %ehcleanup76

if.end63:                                         ; preds = %invoke.cont57
  br label %do.cond64

do.cond64:                                        ; preds = %if.end63
  br label %do.end65

do.end65:                                         ; preds = %do.cond64
  store i32 0, ptr %cleanup.dest.slot, align 4
  br label %cleanup66

cleanup66:                                        ; preds = %do.end65, %if.then62
  call void @_ZN5arrow6StatusD2Ev(ptr noundef nonnull align 8 dereferenceable(8) %__s39) #14
  %cleanup.dest67 = load i32, ptr %cleanup.dest.slot, align 4
  switch i32 %cleanup.dest67, label %cleanup75 [
    i32 0, label %cleanup.cont68
  ]

cleanup.cont68:                                   ; preds = %cleanup66
  br label %do.cond70

do.cond70:                                        ; preds = %cleanup.cont68
  br label %do.end71

do.end71:                                         ; preds = %do.cond70
  %memory_map_72 = getelementptr inbounds %"class.arrow::io::MemoryMappedFile", ptr %this1, i32 0, i32 1
  %call73 = call noundef ptr @_ZNKSt19__shared_ptr_accessIN5arrow2io16MemoryMappedFile9MemoryMapELN9__gnu_cxx12_Lock_policyE2ELb0ELb0EEptEv(ptr noundef nonnull align 1 dereferenceable(1) %memory_map_72) #14
  %35 = load i64, ptr %position.addr, align 8
  %36 = load i64, ptr %nbytes.addr, align 8
  invoke void @_ZN5arrow2io16MemoryMappedFile9MemoryMap5SliceEll(ptr sret(%"class.arrow::Result.33") align 8 %agg.result, ptr noundef nonnull align 8 dereferenceable(120) %call73, i64 noundef %35, i64 noundef %36)
          to label %invoke.cont74 unwind label %lpad24

invoke.cont74:                                    ; preds = %do.end71
  store i32 1, ptr %cleanup.dest.slot, align 4
  br label %cleanup75

cleanup75:                                        ; preds = %invoke.cont74, %cleanup66, %invoke.cont31
  call void @_ZN5arrow6ResultIlED2Ev(ptr noundef nonnull align 8 dereferenceable(16) %ref.tmp16) #14
  call void @_ZNSt11unique_lockISt5mutexED2Ev(ptr noundef nonnull align 8 dereferenceable(9) %guard_resize) #14
  br label %return

ehcleanup76:                                      ; preds = %lpad56, %ehcleanup54, %lpad24
  call void @_ZN5arrow6ResultIlED2Ev(ptr noundef nonnull align 8 dereferenceable(16) %ref.tmp16) #14
  br label %ehcleanup78

ehcleanup78:                                      ; preds = %ehcleanup76, %lpad19
  call void @_ZNSt11unique_lockISt5mutexED2Ev(ptr noundef nonnull align 8 dereferenceable(9) %guard_resize) #14
  br label %eh.resume

return:                                           ; preds = %cleanup75, %cleanup
  ret void

eh.resume:                                        ; preds = %ehcleanup78, %lpad3, %lpad
  %exn = load ptr, ptr %exn.slot, align 8
  %sel = load i32, ptr %ehselector.slot, align 4
  %lpad.val = insertvalue { ptr, i32 } poison, ptr %exn, 0
  %lpad.val79 = insertvalue { ptr, i32 } %lpad.val, i32 %sel, 1
  resume { ptr, i32 } %lpad.val79

unreachable:                                      ; preds = %cleanup
  unreachable
}

; Function Attrs: mustprogress nounwind uwtable
define linkonce_odr void @_ZN5arrow6ResultISt10shared_ptrINS_6BufferEEEC2ERKNS_6StatusE(ptr noundef nonnull align 8 dereferenceable(24) %this, ptr noundef nonnull align 8 dereferenceable(8) %status) unnamed_addr #1 comdat align 2 personality ptr @__gxx_personality_v0 {
entry:
  %this.addr = alloca ptr, align 8
  %status.addr = alloca ptr, align 8
  %ref.tmp = alloca %"class.std::__cxx11::basic_string", align 8
  %ref.tmp3 = alloca %"class.std::__cxx11::basic_string", align 8
  %ref.tmp4 = alloca %"class.std::allocator", align 1
  %ref.tmp6 = alloca %"class.std::__cxx11::basic_string", align 8
  store ptr %this, ptr %this.addr, align 8
  store ptr %status, ptr %status.addr, align 8
  %this1 = load ptr, ptr %this.addr, align 8
  %status_ = getelementptr inbounds %"class.arrow::Result.33", ptr %this1, i32 0, i32 0
  %0 = load ptr, ptr %status.addr, align 8
  invoke void @_ZN5arrow6StatusC2ERKS0_(ptr noundef nonnull align 8 dereferenceable(8) %status_, ptr noundef nonnull align 8 dereferenceable(8) %0)
          to label %invoke.cont unwind label %terminate.lpad

invoke.cont:                                      ; preds = %entry
  %1 = load ptr, ptr %status.addr, align 8
  %call = call noundef zeroext i1 @_ZNK5arrow6Status2okEv(ptr noundef nonnull align 8 dereferenceable(8) %1)
  %lnot = xor i1 %call, true
  %lnot2 = xor i1 %lnot, true
  br i1 %lnot2, label %if.then, label %if.end

if.then:                                          ; preds = %invoke.cont
  call void @_ZNSaIcEC1Ev(ptr noundef nonnull align 1 dereferenceable(1) %ref.tmp4) #14
  invoke void @_ZNSt7__cxx1112basic_stringIcSt11char_traitsIcESaIcEEC2IS3_EEPKcRKS3_(ptr noundef nonnull align 8 dereferenceable(32) %ref.tmp3, ptr noundef @.str.17, ptr noundef nonnull align 1 dereferenceable(1) %ref.tmp4)
          to label %invoke.cont5 unwind label %terminate.lpad

invoke.cont5:                                     ; preds = %if.then
  %2 = load ptr, ptr %status.addr, align 8
  invoke void @_ZNK5arrow6Status8ToStringB5cxx11Ev(ptr sret(%"class.std::__cxx11::basic_string") align 8 %ref.tmp6, ptr noundef nonnull align 8 dereferenceable(8) %2)
          to label %invoke.cont7 unwind label %terminate.lpad

invoke.cont7:                                     ; preds = %invoke.cont5
  invoke void @_ZStplIcSt11char_traitsIcESaIcEENSt7__cxx1112basic_stringIT_T0_T1_EEOS8_S9_(ptr sret(%"class.std::__cxx11::basic_string") align 8 %ref.tmp, ptr noundef nonnull align 8 dereferenceable(32) %ref.tmp3, ptr noundef nonnull align 8 dereferenceable(32) %ref.tmp6)
          to label %invoke.cont8 unwind label %terminate.lpad

invoke.cont8:                                     ; preds = %invoke.cont7
  invoke void @_ZN5arrow8internal14DieWithMessageERKNSt7__cxx1112basic_stringIcSt11char_traitsIcESaIcEEE(ptr noundef nonnull align 8 dereferenceable(32) %ref.tmp)
          to label %invoke.cont9 unwind label %terminate.lpad

invoke.cont9:                                     ; preds = %invoke.cont8
  call void @_ZNSt7__cxx1112basic_stringIcSt11char_traitsIcESaIcEED1Ev(ptr noundef nonnull align 8 dereferenceable(32) %ref.tmp) #14
  call void @_ZNSt7__cxx1112basic_stringIcSt11char_traitsIcESaIcEED1Ev(ptr noundef nonnull align 8 dereferenceable(32) %ref.tmp6) #14
  call void @_ZNSt7__cxx1112basic_stringIcSt11char_traitsIcESaIcEED1Ev(ptr noundef nonnull align 8 dereferenceable(32) %ref.tmp3) #14
  call void @_ZNSaIcED1Ev(ptr noundef nonnull align 1 dereferenceable(1) %ref.tmp4) #14
  br label %if.end

if.end:                                           ; preds = %invoke.cont9, %invoke.cont
  ret void

terminate.lpad:                                   ; preds = %invoke.cont8, %invoke.cont7, %invoke.cont5, %if.then, %entry
  %3 = landingpad { ptr, i32 }
          catch ptr null
  %4 = extractvalue { ptr, i32 } %3, 0
  call void @__clang_call_terminate(ptr %4) #17
  unreachable
}

; Function Attrs: mustprogress uwtable
define linkonce_odr hidden noundef zeroext i1 @_ZN5arrow2io16MemoryMappedFile9MemoryMap8writableEv(ptr noundef nonnull align 8 dereferenceable(120) %this) #0 comdat align 2 {
entry:
  %this.addr = alloca ptr, align 8
  store ptr %this, ptr %this.addr, align 8
  %this1 = load ptr, ptr %this.addr, align 8
  %file_ = getelementptr inbounds %"class.arrow::io::MemoryMappedFile::MemoryMap", ptr %this1, i32 0, i32 1
  %call = call noundef ptr @_ZNKSt10unique_ptrIN5arrow2io6OSFileESt14default_deleteIS2_EEptEv(ptr noundef nonnull align 8 dereferenceable(8) %file_) #14
  %call2 = call noundef i32 @_ZNK5arrow2io6OSFile4modeEv(ptr noundef nonnull align 8 dereferenceable(65) %call)
  %cmp = icmp ne i32 %call2, 0
  ret i1 %cmp
}

; Function Attrs: mustprogress nounwind uwtable
define linkonce_odr hidden noundef nonnull align 8 dereferenceable(40) ptr @_ZN5arrow2io16MemoryMappedFile9MemoryMap11resize_lockEv(ptr noundef nonnull align 8 dereferenceable(120) %this) #1 comdat align 2 {
entry:
  %this.addr = alloca ptr, align 8
  store ptr %this, ptr %this.addr, align 8
  %this1 = load ptr, ptr %this.addr, align 8
  %resize_lock_ = getelementptr inbounds %"class.arrow::io::MemoryMappedFile::MemoryMap", ptr %this1, i32 0, i32 9
  ret ptr %resize_lock_
}

; Function Attrs: mustprogress uwtable
define linkonce_odr void @_ZNSt11unique_lockISt5mutexEC2ERS0_(ptr noundef nonnull align 8 dereferenceable(9) %this, ptr noundef nonnull align 8 dereferenceable(40) %__m) unnamed_addr #0 comdat align 2 {
entry:
  %this.addr = alloca ptr, align 8
  %__m.addr = alloca ptr, align 8
  store ptr %this, ptr %this.addr, align 8
  store ptr %__m, ptr %__m.addr, align 8
  %this1 = load ptr, ptr %this.addr, align 8
  %_M_device = getelementptr inbounds %"class.std::unique_lock", ptr %this1, i32 0, i32 0
  %0 = load ptr, ptr %__m.addr, align 8
  store ptr %0, ptr %_M_device, align 8
  %_M_owns = getelementptr inbounds %"class.std::unique_lock", ptr %this1, i32 0, i32 1
  store i8 0, ptr %_M_owns, align 8
  call void @_ZNSt11unique_lockISt5mutexE4lockEv(ptr noundef nonnull align 8 dereferenceable(9) %this1)
  %_M_owns2 = getelementptr inbounds %"class.std::unique_lock", ptr %this1, i32 0, i32 1
  store i8 1, ptr %_M_owns2, align 8
  ret void
}

; Function Attrs: mustprogress nounwind uwtable
define linkonce_odr void @_ZNSt11unique_lockISt5mutexEC2Ev(ptr noundef nonnull align 8 dereferenceable(9) %this) unnamed_addr #1 comdat align 2 {
entry:
  %this.addr = alloca ptr, align 8
  store ptr %this, ptr %this.addr, align 8
  %this1 = load ptr, ptr %this.addr, align 8
  %_M_device = getelementptr inbounds %"class.std::unique_lock", ptr %this1, i32 0, i32 0
  store ptr null, ptr %_M_device, align 8
  %_M_owns = getelementptr inbounds %"class.std::unique_lock", ptr %this1, i32 0, i32 1
  store i8 0, ptr %_M_owns, align 8
  ret void
}

declare void @_ZN5arrow2io8internal17ValidateReadRangeElll(ptr sret(%"class.arrow::Result.28") align 8, i64 noundef, i64 noundef, i64 noundef) #5

; Function Attrs: mustprogress nounwind uwtable
define linkonce_odr noundef zeroext i1 @_ZNK5arrow6ResultIlE2okEv(ptr noundef nonnull align 8 dereferenceable(16) %this) #1 comdat align 2 {
entry:
  %this.addr = alloca ptr, align 8
  store ptr %this, ptr %this.addr, align 8
  %this1 = load ptr, ptr %this.addr, align 8
  %status_ = getelementptr inbounds %"class.arrow::Result.28", ptr %this1, i32 0, i32 0
  %call = call noundef zeroext i1 @_ZNK5arrow6Status2okEv(ptr noundef nonnull align 8 dereferenceable(8) %status_)
  ret i1 %call
}

; Function Attrs: mustprogress nounwind uwtable
define linkonce_odr noundef nonnull align 8 dereferenceable(8) ptr @_ZNK5arrow6ResultIlE6statusEv(ptr noundef nonnull align 8 dereferenceable(16) %this) #1 comdat align 2 {
entry:
  %this.addr = alloca ptr, align 8
  store ptr %this, ptr %this.addr, align 8
  %this1 = load ptr, ptr %this.addr, align 8
  %status_ = getelementptr inbounds %"class.arrow::Result.28", ptr %this1, i32 0, i32 0
  ret ptr %status_
}

; Function Attrs: mustprogress uwtable
define linkonce_odr noundef i64 @_ZNO5arrow6ResultIlE11ValueUnsafeEv(ptr noundef nonnull align 8 dereferenceable(16) %this) #0 comdat align 2 {
entry:
  %this.addr = alloca ptr, align 8
  store ptr %this, ptr %this.addr, align 8
  %this1 = load ptr, ptr %this.addr, align 8
  %call = call noundef i64 @_ZN5arrow6ResultIlE15MoveValueUnsafeEv(ptr noundef nonnull align 8 dereferenceable(16) %this1)
  ret i64 %call
}

declare void @_ZN5arrow8internal20MemoryAdviseWillNeedERKSt6vectorINS0_12MemoryRegionESaIS2_EE(ptr sret(%"class.arrow::Status") align 8, ptr noundef nonnull align 8 dereferenceable(24)) #5

; Function Attrs: mustprogress nounwind uwtable
define linkonce_odr hidden noundef ptr @_ZN5arrow2io16MemoryMappedFile9MemoryMap4dataEv(ptr noundef nonnull align 8 dereferenceable(120) %this) #1 comdat align 2 {
entry:
  %this.addr = alloca ptr, align 8
  store ptr %this, ptr %this.addr, align 8
  %this1 = load ptr, ptr %this.addr, align 8
  %region_ = getelementptr inbounds %"class.arrow::io::MemoryMappedFile::MemoryMap", ptr %this1, i32 0, i32 4
  %call = call noundef zeroext i1 @_ZNKSt12__shared_ptrIN5arrow2io16MemoryMappedFile9MemoryMap6RegionELN9__gnu_cxx12_Lock_policyE2EEcvbEv(ptr noundef nonnull align 8 dereferenceable(16) %region_) #14
  br i1 %call, label %cond.true, label %cond.false

cond.true:                                        ; preds = %entry
