target datalayout = "e-m:e-p270:32:32-p271:32:32-p272:64:64-i64:64-i128:128-f80:128-n8:16:32:64-S128"
target triple = "x86_64-unknown-linux-gnu"

%"struct.arrow::compute::FunctionDoc" = type <{ %"class.std::__cxx11::basic_string", %"class.std::__cxx11::basic_string", %"class.std::vector", %"class.std::__cxx11::basic_string", i8, [7 x i8] }>
%"class.std::vector" = type { %"struct.std::_Vector_base" }
%"struct.std::_Vector_base" = type { %"struct.std::_Vector_base<std::__cxx11::basic_string<char>, std::allocator<std::__cxx11::basic_string<char>>>::_Vector_impl" }
%"struct.std::_Vector_base<std::__cxx11::basic_string<char>, std::allocator<std::__cxx11::basic_string<char>>>::_Vector_impl" = type { %"struct.std::_Vector_base<std::__cxx11::basic_string<char>, std::allocator<std::__cxx11::basic_string<char>>>::_Vector_impl_data" }
%"struct.std::_Vector_base<std::__cxx11::basic_string<char>, std::allocator<std::__cxx11::basic_string<char>>>::_Vector_impl_data" = type { ptr, ptr, ptr }
%"class.std::__cxx11::basic_string" = type { %"struct.std::__cxx11::basic_string<char>::_Alloc_hider", i64, %union.anon }
%"struct.std::__cxx11::basic_string<char>::_Alloc_hider" = type { ptr }
%union.anon = type { i64, [8 x i8] }
%"struct.std::in_place_index_t" = type { i8 }
%"struct.std::in_place_index_t.445" = type { i8 }
%"struct.std::in_place_index_t.447" = type { i8 }
%"struct.std::in_place_index_t.449" = type { i8 }
%"struct.std::in_place_index_t.451" = type { i8 }
%"struct.std::in_place_index_t.453" = type { i8 }
%"class.std::allocator" = type { i8 }
%"class.std::initializer_list" = type { ptr, i64 }
%"class.std::allocator.0" = type { i8 }
%"class.std::vector.3" = type { %"struct.std::_Vector_base.4" }
%"struct.std::_Vector_base.4" = type { %"struct.std::_Vector_base<arrow::compute::internal::SelectionKernelData, std::allocator<arrow::compute::internal::SelectionKernelData>>::_Vector_impl" }
%"struct.std::_Vector_base<arrow::compute::internal::SelectionKernelData, std::allocator<arrow::compute::internal::SelectionKernelData>>::_Vector_impl" = type { %"struct.std::_Vector_base<arrow::compute::internal::SelectionKernelData, std::allocator<arrow::compute::internal::SelectionKernelData>>::_Vector_impl_data" }
%"struct.std::_Vector_base<arrow::compute::internal::SelectionKernelData, std::allocator<arrow::compute::internal::SelectionKernelData>>::_Vector_impl_data" = type { ptr, ptr, ptr }
%"struct.arrow::compute::VectorKernel" = type <{ %"struct.arrow::compute::Kernel", ptr, ptr, %"class.std::function.11", i32, i32, i8, i8, i8, [5 x i8] }>
%"struct.arrow::compute::Kernel" = type { %"class.std::shared_ptr", %"class.std::function", i8, i32, %"class.std::shared_ptr.8" }
%"class.std::shared_ptr" = type { %"class.std::__shared_ptr" }
%"class.std::__shared_ptr" = type { ptr, %"class.std::__shared_count" }
%"class.std::__shared_count" = type { ptr }
%"class.std::function" = type { %"class.std::_Function_base", ptr }
%"class.std::_Function_base" = type { %"union.std::_Any_data", ptr }
%"union.std::_Any_data" = type { %"union.std::_Nocopy_types" }
%"union.std::_Nocopy_types" = type { { i64, i64 } }
%"class.std::shared_ptr.8" = type { %"class.std::__shared_ptr.9" }
%"class.std::__shared_ptr.9" = type { ptr, %"class.std::__shared_count" }
%"class.std::function.11" = type { %"class.std::_Function_base", ptr }
%"class.arrow::Status" = type { ptr }
%"class.std::shared_ptr.20" = type { %"class.std::__shared_ptr.21" }
%"class.std::__shared_ptr.21" = type { ptr, %"class.std::__shared_count" }
%"class.std::unique_ptr.23" = type { %"struct.std::__uniq_ptr_data.24" }
%"struct.std::__uniq_ptr_data.24" = type { %"class.std::__uniq_ptr_impl.25" }
%"class.std::__uniq_ptr_impl.25" = type { %"class.std::tuple.26" }
%"class.std::tuple.26" = type { %"struct.std::_Tuple_impl.27" }
%"struct.std::_Tuple_impl.27" = type { %"struct.std::_Head_base.30" }
%"struct.std::_Head_base.30" = type { ptr }
%"class.std::shared_ptr.31" = type { %"class.std::__shared_ptr.32" }
%"class.std::__shared_ptr.32" = type { ptr, %"class.std::__shared_count" }
%"class.std::shared_ptr.34" = type { %"class.std::__shared_ptr.35" }
%"class.std::__shared_ptr.35" = type { ptr, %"class.std::__shared_count" }
%"class.arrow::Result" = type { %"class.arrow::Status", %"class.arrow::internal::AlignedStorage" }
%"class.arrow::internal::AlignedStorage" = type { %"union.std::aligned_storage<8, 8>::type" }
%"union.std::aligned_storage<8, 8>::type" = type { [8 x i8] }
%"class.std::unique_ptr.358" = type { %"struct.std::__uniq_ptr_data.359" }
%"struct.std::__uniq_ptr_data.359" = type { %"class.std::__uniq_ptr_impl.360" }
%"class.std::__uniq_ptr_impl.360" = type { %"class.std::tuple.361" }
%"class.std::tuple.361" = type { %"struct.std::_Tuple_impl.362" }
%"struct.std::_Tuple_impl.362" = type { %"struct.std::_Head_base.365" }
%"struct.std::_Head_base.365" = type { ptr }
%"struct.arrow::compute::KernelInitArgs" = type { ptr, ptr, ptr }
%"class.std::unique_ptr.386" = type { %"struct.std::__uniq_ptr_data.387" }
%"struct.std::__uniq_ptr_data.387" = type { %"class.std::__uniq_ptr_impl.388" }
%"class.std::__uniq_ptr_impl.388" = type { %"class.std::tuple.389" }
%"class.std::tuple.389" = type { %"struct.std::_Tuple_impl.390" }
%"struct.std::_Tuple_impl.390" = type { %"struct.std::_Head_base.393" }
%"struct.std::_Head_base.393" = type { ptr }
%"class.std::allocator.67" = type { i8 }
%"struct.std::_Sp_alloc_shared_tag" = type { ptr }
%"struct.arrow::compute::Arity" = type <{ i32, i8, [3 x i8] }>
%class.anon = type { ptr, ptr }
%"class.std::vector.40" = type { %"struct.std::_Vector_base.41" }
%"struct.std::_Vector_base.41" = type { %"struct.std::_Vector_base<std::shared_ptr<arrow::DataType>, std::allocator<std::shared_ptr<arrow::DataType>>>::_Vector_impl" }
%"struct.std::_Vector_base<std::shared_ptr<arrow::DataType>, std::allocator<std::shared_ptr<arrow::DataType>>>::_Vector_impl" = type { %"struct.std::_Vector_base<std::shared_ptr<arrow::DataType>, std::allocator<std::shared_ptr<arrow::DataType>>>::_Vector_impl_data" }
%"struct.std::_Vector_base<std::shared_ptr<arrow::DataType>, std::allocator<std::shared_ptr<arrow::DataType>>>::_Vector_impl_data" = type { ptr, ptr, ptr }
%"class.std::initializer_list.45" = type { ptr, i64 }
%"class.std::shared_ptr.46" = type { %"class.std::__shared_ptr.47" }
%"class.std::__shared_ptr.47" = type { ptr, %"class.std::__shared_count" }
%"class.std::allocator.42" = type { i8 }
%"class.std::initializer_list.49" = type { ptr, i64 }
%"class.std::vector.50" = type { %"struct.std::_Vector_base.51" }
%"struct.std::_Vector_base.51" = type { %"struct.std::_Vector_base<arrow::compute::InputType, std::allocator<arrow::compute::InputType>>::_Vector_impl" }
%"struct.std::_Vector_base<arrow::compute::InputType, std::allocator<arrow::compute::InputType>>::_Vector_impl" = type { %"struct.std::_Vector_base<arrow::compute::InputType, std::allocator<arrow::compute::InputType>>::_Vector_impl_data" }
%"struct.std::_Vector_base<arrow::compute::InputType, std::allocator<arrow::compute::InputType>>::_Vector_impl_data" = type { ptr, ptr, ptr }
%"class.std::initializer_list.58" = type { ptr, i64 }
%"class.arrow::compute::InputType" = type { i32, %"class.std::shared_ptr.46", %"class.std::shared_ptr.59" }
%"class.std::shared_ptr.59" = type { %"class.std::__shared_ptr.60" }
%"class.std::__shared_ptr.60" = type { ptr, %"class.std::__shared_count" }
%"class.std::allocator.52" = type { i8 }
%"class.arrow::compute::OutputType" = type { i32, %"class.std::shared_ptr.46", %"class.std::function.55" }
%"class.std::function.55" = type { %"class.std::_Function_base", ptr }
%"class.__gnu_cxx::__normal_iterator" = type { ptr }
%"class.std::_Sp_counted_base" = type { ptr, i32, i32 }
%"struct.arrow::Status::State" = type { i8, %"class.std::__cxx11::basic_string", %"class.std::shared_ptr.37" }
%"class.std::shared_ptr.37" = type { %"class.std::__shared_ptr.38" }
%"class.std::__shared_ptr.38" = type { ptr, %"class.std::__shared_count" }
%"class.std::shared_ptr.77" = type { %"class.std::__shared_ptr.78" }
%"class.std::__shared_ptr.78" = type { ptr, %"class.std::__shared_count" }
%"class.std::vector.80" = type { %"struct.std::_Vector_base.81" }
%"struct.std::_Vector_base.81" = type { %"struct.std::_Vector_base<arrow::ArraySpan, std::allocator<arrow::ArraySpan>>::_Vector_impl" }
%"struct.std::_Vector_base<arrow::ArraySpan, std::allocator<arrow::ArraySpan>>::_Vector_impl" = type { %"struct.std::_Vector_base<arrow::ArraySpan, std::allocator<arrow::ArraySpan>>::_Vector_impl_data" }
%"struct.std::_Vector_base<arrow::ArraySpan, std::allocator<arrow::ArraySpan>>::_Vector_impl_data" = type { ptr, ptr, ptr }
%"class.std::initializer_list.85" = type { ptr, i64 }
%"struct.arrow::ArraySpan" = type { ptr, i64, i64, i64, [3 x %"struct.arrow::BufferSpan"], %"class.std::vector.80" }
%"struct.arrow::BufferSpan" = type { ptr, i64, ptr }
%"class.std::allocator.82" = type { i8 }
%"struct.arrow::compute::ExecValue" = type { %"struct.arrow::ArraySpan", ptr }
%"struct.arrow::compute::ExecSpan" = type { i64, %"class.std::vector.86" }
%"class.std::vector.86" = type { %"struct.std::_Vector_base.87" }
%"struct.std::_Vector_base.87" = type { %"struct.std::_Vector_base<arrow::compute::ExecValue, std::allocator<arrow::compute::ExecValue>>::_Vector_impl" }
%"struct.std::_Vector_base<arrow::compute::ExecValue, std::allocator<arrow::compute::ExecValue>>::_Vector_impl" = type { %"struct.std::_Vector_base<arrow::compute::ExecValue, std::allocator<arrow::compute::ExecValue>>::_Vector_impl_data" }
%"struct.std::_Vector_base<arrow::compute::ExecValue, std::allocator<arrow::compute::ExecValue>>::_Vector_impl_data" = type { ptr, ptr, ptr }
%"struct.arrow::compute::ExecResult" = type { %"class.std::variant" }
%"class.std::variant" = type { %"struct.std::__detail::__variant::_Variant_base.base", [7 x i8] }
%"struct.std::__detail::__variant::_Variant_base.base" = type { %"struct.std::__detail::__variant::_Move_assign_base.base" }
%"struct.std::__detail::__variant::_Move_assign_base.base" = type { %"struct.std::__detail::__variant::_Copy_assign_base.base" }
%"struct.std::__detail::__variant::_Copy_assign_base.base" = type { %"struct.std::__detail::__variant::_Move_ctor_base.base" }
%"struct.std::__detail::__variant::_Move_ctor_base.base" = type { %"struct.std::__detail::__variant::_Copy_ctor_base.base" }
%"struct.std::__detail::__variant::_Copy_ctor_base.base" = type { %"struct.std::__detail::__variant::_Variant_storage.base" }
%"struct.std::__detail::__variant::_Variant_storage.base" = type { %"union.std::__detail::__variant::_Variadic_union", i8 }
%"union.std::__detail::__variant::_Variadic_union" = type { %"struct.std::__detail::__variant::_Uninitialized" }
%"struct.std::__detail::__variant::_Uninitialized" = type { %"struct.__gnu_cxx::__aligned_membuf" }
%"struct.__gnu_cxx::__aligned_membuf" = type { [128 x i8] }
%"struct.arrow::Datum" = type { %"class.std::variant.288" }
%"class.std::variant.288" = type { %"struct.std::__detail::__variant::_Variant_base.base.315", [7 x i8] }
%"struct.std::__detail::__variant::_Variant_base.base.315" = type { %"struct.std::__detail::__variant::_Move_assign_base.base.314" }
%"struct.std::__detail::__variant::_Move_assign_base.base.314" = type { %"struct.std::__detail::__variant::_Copy_assign_base.base.313" }
%"struct.std::__detail::__variant::_Copy_assign_base.base.313" = type { %"struct.std::__detail::__variant::_Move_ctor_base.base.312" }
%"struct.std::__detail::__variant::_Move_ctor_base.base.312" = type { %"struct.std::__detail::__variant::_Copy_ctor_base.base.311" }
%"struct.std::__detail::__variant::_Copy_ctor_base.base.311" = type { %"struct.std::__detail::__variant::_Variant_storage.base.310" }
%"struct.std::__detail::__variant::_Variant_storage.base.310" = type { %"union.std::__detail::__variant::_Variadic_union.295", i8 }
%"union.std::__detail::__variant::_Variadic_union.295" = type { %"union.std::__detail::__variant::_Variadic_union.297" }
%"union.std::__detail::__variant::_Variadic_union.297" = type { %"struct.std::__detail::__variant::_Uninitialized.298" }
%"struct.std::__detail::__variant::_Uninitialized.298" = type { %"struct.__gnu_cxx::__aligned_membuf.299" }
%"struct.__gnu_cxx::__aligned_membuf.299" = type { [16 x i8] }
%"class.__gnu_cxx::__normal_iterator.357" = type { ptr }
%"class.std::allocator.68" = type { i8 }
%"struct.std::__allocated_ptr" = type { ptr, ptr }
%"class.std::_Sp_counted_ptr_inplace" = type { %"class.std::_Sp_counted_base", %"class.std::_Sp_counted_ptr_inplace<arrow::compute::VectorFunction, std::allocator<void>, __gnu_cxx::_S_atomic>::_Impl" }
%"class.std::_Sp_counted_ptr_inplace<arrow::compute::VectorFunction, std::allocator<void>, __gnu_cxx::_S_atomic>::_Impl" = type { %"struct.__gnu_cxx::__aligned_buffer" }
%"struct.__gnu_cxx::__aligned_buffer" = type { %"union.std::aligned_storage<216, 8>::type" }
%"union.std::aligned_storage<216, 8>::type" = type { [216 x i8] }
%"class.arrow::compute::detail::FunctionImpl" = type { %"class.arrow::compute::Function", %"class.std::vector.62" }
%"class.arrow::compute::Function" = type { ptr, %"class.std::__cxx11::basic_string", i32, %"struct.arrow::compute::Arity", [4 x i8], %"struct.arrow::compute::FunctionDoc", ptr }
%"class.std::vector.62" = type { %"struct.std::_Vector_base.63" }
%"struct.std::_Vector_base.63" = type { %"struct.std::_Vector_base<arrow::compute::VectorKernel, std::allocator<arrow::compute::VectorKernel>>::_Vector_impl" }
%"struct.std::_Vector_base<arrow::compute::VectorKernel, std::allocator<arrow::compute::VectorKernel>>::_Vector_impl" = type { %"struct.std::_Vector_base<arrow::compute::VectorKernel, std::allocator<arrow::compute::VectorKernel>>::_Vector_impl_data" }
%"struct.std::_Vector_base<arrow::compute::VectorKernel, std::allocator<arrow::compute::VectorKernel>>::_Vector_impl_data" = type { ptr, ptr, ptr }
%"class.arrow::Result.72" = type { %"class.arrow::Status", %"class.arrow::internal::AlignedStorage.75" }
%"class.arrow::internal::AlignedStorage.75" = type { %"union.std::aligned_storage<24, 8>::type" }
%"union.std::aligned_storage<24, 8>::type" = type { [24 x i8] }
%"class.std::type_info" = type { ptr, ptr }
%"class.arrow::NumericBuilder" = type { %"class.arrow::ArrayBuilder", %"class.std::shared_ptr.46", %"class.arrow::TypedBufferBuilder.103" }
%"class.arrow::ArrayBuilder" = type { ptr, ptr, i64, %"class.arrow::TypedBufferBuilder", i64, i64, i64, %"class.std::vector.98" }
%"class.arrow::TypedBufferBuilder" = type { %"class.arrow::BufferBuilder", i64, i64 }
%"class.arrow::BufferBuilder" = type { %"class.std::shared_ptr.95", ptr, ptr, i64, i64, i64 }
%"class.std::shared_ptr.95" = type { %"class.std::__shared_ptr.96" }
%"class.std::__shared_ptr.96" = type { ptr, %"class.std::__shared_count" }
%"class.std::vector.98" = type { %"struct.std::_Vector_base.99" }
%"struct.std::_Vector_base.99" = type { %"struct.std::_Vector_base<std::shared_ptr<arrow::ArrayBuilder>, std::allocator<std::shared_ptr<arrow::ArrayBuilder>>>::_Vector_impl" }
%"struct.std::_Vector_base<std::shared_ptr<arrow::ArrayBuilder>, std::allocator<std::shared_ptr<arrow::ArrayBuilder>>>::_Vector_impl" = type { %"struct.std::_Vector_base<std::shared_ptr<arrow::ArrayBuilder>, std::allocator<std::shared_ptr<arrow::ArrayBuilder>>>::_Vector_impl_data" }
%"struct.std::_Vector_base<std::shared_ptr<arrow::ArrayBuilder>, std::allocator<std::shared_ptr<arrow::ArrayBuilder>>>::_Vector_impl_data" = type { ptr, ptr, ptr }
%"class.arrow::TypedBufferBuilder.103" = type { %"class.arrow::BufferBuilder" }
%"struct.arrow::compute::internal::(anonymous namespace)::NonZeroVisitor" = type { ptr, ptr }
%"class.arrow::Result.243" = type { %"class.arrow::Status", %"class.arrow::internal::AlignedStorage.246" }
%"class.arrow::internal::AlignedStorage.246" = type { %"union.std::aligned_storage<16, 8>::type" }
%"union.std::aligned_storage<16, 8>::type" = type { [16 x i8] }
%"class.std::shared_ptr.134" = type { %"class.std::__shared_ptr.135" }
%"class.std::__shared_ptr.135" = type { ptr, %"class.std::__shared_count" }
%"class.std::vector.248" = type { %"struct.std::_Vector_base.249" }
%"struct.std::_Vector_base.249" = type { %"struct.std::_Vector_base<std::shared_ptr<arrow::Buffer>, std::allocator<std::shared_ptr<arrow::Buffer>>>::_Vector_impl" }
%"struct.std::_Vector_base<std::shared_ptr<arrow::Buffer>, std::allocator<std::shared_ptr<arrow::Buffer>>>::_Vector_impl" = type { %"struct.std::_Vector_base<std::shared_ptr<arrow::Buffer>, std::allocator<std::shared_ptr<arrow::Buffer>>>::_Vector_impl_data" }
%"struct.std::_Vector_base<std::shared_ptr<arrow::Buffer>, std::allocator<std::shared_ptr<arrow::Buffer>>>::_Vector_impl_data" = type { ptr, ptr, ptr }
%"class.std::initializer_list.253" = type { ptr, i64 }
%"class.std::allocator.250" = type { i8 }
%"class.std::shared_ptr.111" = type { %"class.std::__shared_ptr.112" }
%"class.std::__shared_ptr.112" = type { ptr, %"class.std::__shared_count" }
%"class.arrow::util::detail::StringStreamWrapper" = type { %"class.std::unique_ptr.114", ptr }
%"class.std::unique_ptr.114" = type { %"struct.std::__uniq_ptr_data.115" }
%"struct.std::__uniq_ptr_data.115" = type { %"class.std::__uniq_ptr_impl.116" }
%"class.std::__uniq_ptr_impl.116" = type { %"class.std::tuple.117" }
%"class.std::tuple.117" = type { %"struct.std::_Tuple_impl.118" }
%"struct.std::_Tuple_impl.118" = type { %"struct.std::_Head_base.121" }
%"struct.std::_Head_base.121" = type { ptr }
%"class.arrow::Result.122" = type { %"class.arrow::Status", %"class.arrow::internal::AlignedStorage.125" }
%"class.arrow::internal::AlignedStorage.125" = type { %"union.std::aligned_storage<8, 8>::type" }
%"class.std::unique_ptr.126" = type { %"struct.std::__uniq_ptr_data.127" }
%"struct.std::__uniq_ptr_data.127" = type { %"class.std::__uniq_ptr_impl.128" }
%"class.std::__uniq_ptr_impl.128" = type { %"class.std::tuple.129" }
%"class.std::tuple.129" = type { %"struct.std::_Tuple_impl.130" }
%"struct.std::_Tuple_impl.130" = type { %"struct.std::_Head_base.133" }
%"struct.std::_Head_base.133" = type { ptr }
%"class.arrow::Buffer" = type { ptr, i8, i8, ptr, i64, i64, i8, %"class.std::shared_ptr.134", %"class.std::shared_ptr.137" }
%"class.std::shared_ptr.137" = type { %"class.std::__shared_ptr.138" }
%"class.std::__shared_ptr.138" = type { ptr, %"class.std::__shared_count" }
%"class.std::allocator.140" = type { i8 }
%"class.std::_Sp_counted_deleter" = type { %"class.std::_Sp_counted_base", %"class.std::_Sp_counted_deleter<arrow::ResizableBuffer *, std::default_delete<arrow::ResizableBuffer>, std::allocator<void>, __gnu_cxx::_S_atomic>::_Impl" }
%"class.std::_Sp_counted_deleter<arrow::ResizableBuffer *, std::default_delete<arrow::ResizableBuffer>, std::allocator<void>, __gnu_cxx::_S_atomic>::_Impl" = type { ptr }
%"struct.std::default_delete" = type { i8 }
%"struct.std::__allocated_ptr.145" = type { ptr, ptr }
%"class.arrow::DataType" = type { %"class.arrow::detail::Fingerprintable", %"class.std::enable_shared_from_this", i32, %"class.std::vector.106" }
%"class.arrow::detail::Fingerprintable" = type { ptr, %"struct.std::atomic", %"struct.std::atomic" }
%"struct.std::atomic" = type { %"struct.std::__atomic_base" }
%"struct.std::__atomic_base" = type { ptr }
%"class.std::enable_shared_from_this" = type { %"class.std::weak_ptr" }
%"class.std::weak_ptr" = type { %"class.std::__weak_ptr" }
%"class.std::__weak_ptr" = type { ptr, %"class.std::__weak_count" }
%"class.std::__weak_count" = type { ptr }
%"class.std::vector.106" = type { %"struct.std::_Vector_base.107" }
%"struct.std::_Vector_base.107" = type { %"struct.std::_Vector_base<std::shared_ptr<arrow::Field>, std::allocator<std::shared_ptr<arrow::Field>>>::_Vector_impl" }
%"struct.std::_Vector_base<std::shared_ptr<arrow::Field>, std::allocator<std::shared_ptr<arrow::Field>>>::_Vector_impl" = type { %"struct.std::_Vector_base<std::shared_ptr<arrow::Field>, std::allocator<std::shared_ptr<arrow::Field>>>::_Vector_impl_data" }
%"struct.std::_Vector_base<std::shared_ptr<arrow::Field>, std::allocator<std::shared_ptr<arrow::Field>>>::_Vector_impl_data" = type { ptr, ptr, ptr }
%"class.__gnu_cxx::__normal_iterator.182" = type { ptr }
%class.anon.183 = type { ptr, ptr }
%class.anon.184 = type { ptr }
%class.anon.187 = type { ptr, ptr }
%class.anon.188 = type { ptr }
%class.anon.191 = type { ptr, ptr }
%class.anon.192 = type { ptr }
%class.anon.195 = type { ptr, ptr }
%class.anon.196 = type { ptr }
%class.anon.199 = type { ptr, ptr }
%class.anon.200 = type { ptr }
%class.anon.203 = type { ptr, ptr }
%class.anon.204 = type { ptr }
%class.anon.207 = type { ptr, ptr }
%class.anon.208 = type { ptr }
%class.anon.211 = type { ptr, ptr }
%class.anon.212 = type { ptr }
%class.anon.215 = type { ptr, ptr }
%class.anon.216 = type { ptr }
%class.anon.219 = type { ptr, ptr }
%class.anon.220 = type { ptr }
%class.anon.223 = type { ptr, ptr, ptr }
%class.anon.224 = type { ptr }
%class.anon.227 = type { ptr, ptr, ptr }
%class.anon.228 = type { ptr }
%"class.arrow::Decimal128" = type { %"class.arrow::BasicDecimal128" }
%"class.arrow::BasicDecimal128" = type { %"class.arrow::GenericBasicDecimal" }
%"class.arrow::GenericBasicDecimal" = type { %"struct.std::array" }
%"struct.std::array" = type { [2 x i64] }
%class.anon.231 = type { ptr, ptr, ptr }
%class.anon.232 = type { ptr }
%"class.arrow::Decimal256" = type { %"class.arrow::BasicDecimal256" }
%"class.arrow::BasicDecimal256" = type { %"class.arrow::GenericBasicDecimal.236" }
%"class.arrow::GenericBasicDecimal.236" = type { %"struct.std::array.237" }
%"struct.std::array.237" = type { [4 x i64] }
%class.anon.238 = type { ptr, ptr, ptr }
%class.anon.239 = type { ptr }
%class.anon.185 = type { ptr }
%class.anon.186 = type { ptr, ptr, ptr }
%"class.arrow::internal::OptionalBitBlockCounter" = type { i8, i64, i64, %"class.arrow::internal::BitBlockCounter" }
%"class.arrow::internal::BitBlockCounter" = type { ptr, i64, i64 }
%"struct.arrow::internal::BitBlockCount" = type { i16, i16 }
%class.anon.189 = type { ptr }
%class.anon.190 = type { ptr, ptr }
%class.anon.193 = type { ptr }
%class.anon.194 = type { ptr, ptr }
%class.anon.197 = type { ptr }
%class.anon.198 = type { ptr, ptr }
%class.anon.201 = type { ptr }
%class.anon.202 = type { ptr, ptr }
%class.anon.205 = type { ptr }
%class.anon.206 = type { ptr, ptr }
%class.anon.209 = type { ptr }
%class.anon.210 = type { ptr, ptr }
%class.anon.213 = type { ptr }
%class.anon.214 = type { ptr, ptr }
%class.anon.217 = type { ptr }
%class.anon.218 = type { ptr, ptr }
%class.anon.221 = type { ptr }
%class.anon.222 = type { ptr, ptr }
%class.anon.225 = type { ptr }
%class.anon.226 = type { ptr, ptr }
%class.anon.229 = type { ptr }
%class.anon.230 = type { ptr, ptr }
%class.anon.233 = type { ptr }
%class.anon.234 = type { ptr, ptr, ptr }
%class.anon.235 = type { ptr, ptr, ptr }
%"class.std::basic_string_view" = type { i64, ptr }
%class.anon.240 = type { ptr }
%class.anon.241 = type { ptr, ptr, ptr }
%class.anon.242 = type { ptr, ptr, ptr }
%"class.arrow::Result.254" = type { %"class.arrow::Status", %"class.arrow::internal::AlignedStorage.257" }
%"class.arrow::internal::AlignedStorage.257" = type { %"union.std::aligned_storage<8, 8>::type" }
%"class.std::unique_ptr.258" = type { %"struct.std::__uniq_ptr_data.259" }
%"struct.std::__uniq_ptr_data.259" = type { %"class.std::__uniq_ptr_impl.260" }
%"class.std::__uniq_ptr_impl.260" = type { %"class.std::tuple.261" }
%"class.std::tuple.261" = type { %"struct.std::_Tuple_impl.262" }
%"struct.std::_Tuple_impl.262" = type { %"struct.std::_Head_base.265" }
%"struct.std::_Head_base.265" = type { ptr }
%"class.std::allocator.266" = type { i8 }
%"class.std::_Sp_counted_deleter.271" = type { %"class.std::_Sp_counted_base", %"class.std::_Sp_counted_deleter<arrow::Buffer *, std::default_delete<arrow::Buffer>, std::allocator<void>, __gnu_cxx::_S_atomic>::_Impl" }
%"class.std::_Sp_counted_deleter<arrow::Buffer *, std::default_delete<arrow::Buffer>, std::allocator<void>, __gnu_cxx::_S_atomic>::_Impl" = type { ptr }
%"struct.std::default_delete.269" = type { i8 }
%"struct.std::__allocated_ptr.273" = type { ptr, ptr }
%"struct.std::__detail::__variant::_Variant_storage" = type { %"union.std::__detail::__variant::_Variadic_union", i8, [7 x i8] }
%"class.std::bad_variant_access" = type { %"class.std::exception", ptr }
%"class.std::exception" = type { ptr }
%"struct.std::__detail::__variant::_Uninitialized.92" = type { %"struct.__gnu_cxx::__aligned_membuf.93" }
%"struct.__gnu_cxx::__aligned_membuf.93" = type { [16 x i8] }
%class.anon.274 = type { i8 }
%class.anon.275 = type { i8 }
%"struct.arrow::compute::ExecBatch" = type { %"class.std::vector.277", %"class.std::shared_ptr.282", %"class.arrow::compute::Expression", i64, i64 }
%"class.std::vector.277" = type { %"struct.std::_Vector_base.278" }
%"struct.std::_Vector_base.278" = type { %"struct.std::_Vector_base<arrow::Datum, std::allocator<arrow::Datum>>::_Vector_impl" }
%"struct.std::_Vector_base<arrow::Datum, std::allocator<arrow::Datum>>::_Vector_impl" = type { %"struct.std::_Vector_base<arrow::Datum, std::allocator<arrow::Datum>>::_Vector_impl_data" }
%"struct.std::_Vector_base<arrow::Datum, std::allocator<arrow::Datum>>::_Vector_impl_data" = type { ptr, ptr, ptr }
%"class.std::shared_ptr.282" = type { %"class.std::__shared_ptr.283" }
%"class.std::__shared_ptr.283" = type { ptr, %"class.std::__shared_count" }
%"class.arrow::compute::Expression" = type { %"class.std::shared_ptr.285" }
%"class.std::shared_ptr.285" = type { %"class.std::__shared_ptr.286" }
%"class.std::__shared_ptr.286" = type { ptr, %"class.std::__shared_count" }
%"class.arrow::ChunkedArray" = type { %"class.std::vector.323", %"class.std::shared_ptr.46", i64, i64, %"struct.arrow::internal::ChunkResolver" }
%"class.std::vector.323" = type { %"struct.std::_Vector_base.324" }
%"struct.std::_Vector_base.324" = type { %"struct.std::_Vector_base<std::shared_ptr<arrow::Array>, std::allocator<std::shared_ptr<arrow::Array>>>::_Vector_impl" }
%"struct.std::_Vector_base<std::shared_ptr<arrow::Array>, std::allocator<std::shared_ptr<arrow::Array>>>::_Vector_impl" = type { %"struct.std::_Vector_base<std::shared_ptr<arrow::Array>, std::allocator<std::shared_ptr<arrow::Array>>>::_Vector_impl_data" }
%"struct.std::_Vector_base<std::shared_ptr<arrow::Array>, std::allocator<std::shared_ptr<arrow::Array>>>::_Vector_impl_data" = type { ptr, ptr, ptr }
%"struct.arrow::internal::ChunkResolver" = type { %"class.std::vector.328", %"struct.std::atomic.333" }
%"class.std::vector.328" = type { %"struct.std::_Vector_base.329" }
%"struct.std::_Vector_base.329" = type { %"struct.std::_Vector_base<long, std::allocator<long>>::_Vector_impl" }
%"struct.std::_Vector_base<long, std::allocator<long>>::_Vector_impl" = type { %"struct.std::_Vector_base<long, std::allocator<long>>::_Vector_impl_data" }
%"struct.std::_Vector_base<long, std::allocator<long>>::_Vector_impl_data" = type { ptr, ptr, ptr }
%"struct.std::atomic.333" = type { %"struct.std::__atomic_base.334" }
%"struct.std::__atomic_base.334" = type { i64 }
%"class.arrow::Array" = type { ptr, %"class.std::shared_ptr.77", ptr }
%"struct.std::__detail::__variant::_Variant_storage.294" = type { %"union.std::__detail::__variant::_Variadic_union.295", i8, [7 x i8] }
%"struct.std::__detail::__variant::_Uninitialized.302" = type { %"struct.__gnu_cxx::__aligned_membuf.303" }
%"struct.__gnu_cxx::__aligned_membuf.303" = type { [16 x i8] }
%"class.std::__shared_ptr.321" = type { ptr, %"class.std::__shared_count" }
%"class.__gnu_cxx::__normal_iterator.343" = type { ptr }
%"class.std::shared_ptr.335" = type { %"class.std::__shared_ptr.336" }
%"class.std::__shared_ptr.336" = type { ptr, %"class.std::__shared_count" }
%class.anon.344 = type { i8 }
%class.anon.346 = type { i8 }
%"struct.std::__detail::__variant::_Uninitialized.296" = type { %"struct.arrow::Datum::Empty" }
%"struct.arrow::Datum::Empty" = type { i8 }
%"class.std::__shared_ptr.349" = type { ptr, %"class.std::__shared_count" }
%"class.std::__shared_ptr.352" = type { ptr, %"class.std::__shared_count" }
%"struct.std::__detail::__variant::_Uninitialized.305" = type { %"struct.__gnu_cxx::__aligned_membuf.306" }
%"struct.__gnu_cxx::__aligned_membuf.306" = type { [16 x i8] }
%"class.std::__shared_ptr.355" = type { ptr, %"class.std::__shared_count" }
%"struct.std::__detail::__variant::_Uninitialized.308" = type { %"struct.__gnu_cxx::__aligned_membuf.309" }
%"struct.__gnu_cxx::__aligned_membuf.309" = type { [16 x i8] }
%struct._Guard = type { ptr }
%"struct.arrow::compute::internal::SelectionKernelData" = type { %"class.arrow::compute::InputType", %"class.arrow::compute::InputType", ptr }
%"class.arrow::compute::FilterOptions" = type <{ %"class.arrow::compute::FunctionOptions", i32, [4 x i8] }>
%"class.arrow::compute::FunctionOptions" = type { ptr, ptr }
%"struct.arrow::compute::internal::OptionsWrapper" = type { %"struct.arrow::compute::KernelState", %"class.arrow::compute::FilterOptions" }
%"struct.arrow::compute::KernelState" = type { ptr }
%"class.std::unique_ptr.368" = type { %"struct.std::__uniq_ptr_data.369" }
%"struct.std::__uniq_ptr_data.369" = type { %"class.std::__uniq_ptr_impl.370" }
%"class.std::__uniq_ptr_impl.370" = type { %"class.std::tuple.371" }
%"class.std::tuple.371" = type { %"struct.std::_Tuple_impl.372" }
%"struct.std::_Tuple_impl.372" = type { %"struct.std::_Head_base.375" }
%"struct.std::_Head_base.375" = type { ptr }
%"class.std::allocator.380" = type { i8 }
%"class.std::_Sp_counted_deleter.383" = type { %"class.std::_Sp_counted_base", %"class.std::_Sp_counted_deleter<arrow::compute::Function *, std::default_delete<arrow::compute::Function>, std::allocator<void>, __gnu_cxx::_S_atomic>::_Impl" }
%"class.std::_Sp_counted_deleter<arrow::compute::Function *, std::default_delete<arrow::compute::Function>, std::allocator<void>, __gnu_cxx::_S_atomic>::_Impl" = type { ptr }
%"struct.std::default_delete.378" = type { i8 }
%"struct.std::__allocated_ptr.385" = type { ptr, ptr }
%"class.arrow::compute::TakeOptions" = type <{ %"class.arrow::compute::FunctionOptions", i8, [7 x i8] }>
%"struct.arrow::compute::internal::OptionsWrapper.394" = type { %"struct.arrow::compute::KernelState", %"class.arrow::compute::TakeOptions" }
%"class.std::allocator.397" = type { i8 }
%"struct.std::__allocated_ptr.400" = type { ptr, ptr }
%"class.std::_Sp_counted_ptr_inplace.401" = type { %"class.std::_Sp_counted_base", %"class.std::_Sp_counted_ptr_inplace<arrow::compute::internal::(anonymous namespace)::DropNullMetaFunction, std::allocator<void>, __gnu_cxx::_S_atomic>::_Impl" }
%"class.std::_Sp_counted_ptr_inplace<arrow::compute::internal::(anonymous namespace)::DropNullMetaFunction, std::allocator<void>, __gnu_cxx::_S_atomic>::_Impl" = type { %"struct.__gnu_cxx::__aligned_buffer.402" }
%"struct.__gnu_cxx::__aligned_buffer.402" = type { %"union.std::aligned_storage<192, 8>::type" }
%"union.std::aligned_storage<192, 8>::type" = type { [192 x i8] }
%"class.arrow::Result.405" = type { %"class.arrow::Status", %"class.arrow::internal::AlignedStorage.408" }
%"class.arrow::internal::AlignedStorage.408" = type { %"union.std::aligned_storage<16, 8>::type" }
%"class.std::shared_ptr.409" = type { %"class.std::__shared_ptr.410" }
%"class.std::__shared_ptr.410" = type { ptr, %"class.std::__shared_count" }
%"class.arrow::Result.412" = type { %"class.arrow::Status", %"class.arrow::internal::AlignedStorage.415" }
%"class.arrow::internal::AlignedStorage.415" = type { %"union.std::aligned_storage<16, 8>::type" }
%"class.std::shared_ptr.416" = type { %"class.std::__shared_ptr.417" }
%"class.std::__shared_ptr.417" = type { ptr, %"class.std::__shared_count" }
%"class.arrow::Result.435" = type { %"class.arrow::Status", %"class.arrow::internal::AlignedStorage.438" }
%"class.arrow::internal::AlignedStorage.438" = type { %"union.std::aligned_storage<16, 8>::type" }
%"class.__gnu_cxx::__normal_iterator.439" = type { ptr }
%"class.std::shared_ptr.320" = type { %"class.std::__shared_ptr.321" }
%"class.arrow::Result.467" = type { %"class.arrow::Status", %"class.arrow::internal::AlignedStorage.470" }
%"class.arrow::internal::AlignedStorage.470" = type { %"union.std::aligned_storage<16, 8>::type" }
%"class.std::shared_ptr.464" = type { %"class.std::__shared_ptr.465" }
%"class.std::__shared_ptr.465" = type { ptr, %"class.std::__shared_count" }
%"class.std::shared_ptr.351" = type { %"class.std::__shared_ptr.352" }
%"class.__gnu_cxx::__normal_iterator.476" = type { ptr }
%"class.std::vector.477" = type { %"struct.std::_Vector_base.478" }
%"struct.std::_Vector_base.478" = type { %"struct.std::_Vector_base<std::shared_ptr<arrow::RecordBatch>, std::allocator<std::shared_ptr<arrow::RecordBatch>>>::_Vector_impl" }
%"struct.std::_Vector_base<std::shared_ptr<arrow::RecordBatch>, std::allocator<std::shared_ptr<arrow::RecordBatch>>>::_Vector_impl" = type { %"struct.std::_Vector_base<std::shared_ptr<arrow::RecordBatch>, std::allocator<std::shared_ptr<arrow::RecordBatch>>>::_Vector_impl_data" }
%"struct.std::_Vector_base<std::shared_ptr<arrow::RecordBatch>, std::allocator<std::shared_ptr<arrow::RecordBatch>>>::_Vector_impl_data" = type { ptr, ptr, ptr }
%"class.arrow::TableBatchReader" = type { %"class.arrow::RecordBatchReader", %"class.std::shared_ptr.354", ptr, %"class.std::vector.482", %"class.std::vector.177", %"class.std::vector.328", i64, i64 }
%"class.arrow::RecordBatchReader" = type { ptr }
%"class.std::shared_ptr.354" = type { %"class.std::__shared_ptr.355" }
%"class.std::vector.482" = type { %"struct.std::_Vector_base.483" }
%"struct.std::_Vector_base.483" = type { %"struct.std::_Vector_base<arrow::ChunkedArray *, std::allocator<arrow::ChunkedArray *>>::_Vector_impl" }
%"struct.std::_Vector_base<arrow::ChunkedArray *, std::allocator<arrow::ChunkedArray *>>::_Vector_impl" = type { %"struct.std::_Vector_base<arrow::ChunkedArray *, std::allocator<arrow::ChunkedArray *>>::_Vector_impl_data" }
%"struct.std::_Vector_base<arrow::ChunkedArray *, std::allocator<arrow::ChunkedArray *>>::_Vector_impl_data" = type { ptr, ptr, ptr }
%"class.std::vector.177" = type { %"struct.std::_Vector_base.178" }
%"struct.std::_Vector_base.178" = type { %"struct.std::_Vector_base<int, std::allocator<int>>::_Vector_impl" }
%"struct.std::_Vector_base<int, std::allocator<int>>::_Vector_impl" = type { %"struct.std::_Vector_base<int, std::allocator<int>>::_Vector_impl_data" }
%"struct.std::_Vector_base<int, std::allocator<int>>::_Vector_impl_data" = type { ptr, ptr, ptr }
%"class.arrow::Result.487" = type { %"class.arrow::Status", %"class.arrow::internal::AlignedStorage.490" }
%"class.arrow::internal::AlignedStorage.490" = type { %"union.std::aligned_storage<16, 8>::type" }
%"struct.arrow::ArrayData" = type { %"class.std::shared_ptr.46", i64, %"struct.std::atomic.333", i64, %"class.std::vector.248", %"class.std::vector.338", %"class.std::shared_ptr.77" }
%"class.std::vector.338" = type { %"struct.std::_Vector_base.339" }
%"struct.std::_Vector_base.339" = type { %"struct.std::_Vector_base<std::shared_ptr<arrow::ArrayData>, std::allocator<std::shared_ptr<arrow::ArrayData>>>::_Vector_impl" }
%"struct.std::_Vector_base<std::shared_ptr<arrow::ArrayData>, std::allocator<std::shared_ptr<arrow::ArrayData>>>::_Vector_impl" = type { %"struct.std::_Vector_base<std::shared_ptr<arrow::ArrayData>, std::allocator<std::shared_ptr<arrow::ArrayData>>>::_Vector_impl_data" }
%"struct.std::_Vector_base<std::shared_ptr<arrow::ArrayData>, std::allocator<std::shared_ptr<arrow::ArrayData>>>::_Vector_impl_data" = type { ptr, ptr, ptr }
%"class.arrow::compute::ExecContext" = type <{ ptr, ptr, ptr, i64, i8, i8, [6 x i8] }>
%"class.std::allocator.419" = type { i8 }
%"struct.std::__allocated_ptr.422" = type { ptr, ptr }
%"class.std::_Sp_counted_ptr_inplace.423" = type { %"class.std::_Sp_counted_base", %"class.std::_Sp_counted_ptr_inplace<arrow::NullArray, std::allocator<void>, __gnu_cxx::_S_atomic>::_Impl" }
%"class.std::_Sp_counted_ptr_inplace<arrow::NullArray, std::allocator<void>, __gnu_cxx::_S_atomic>::_Impl" = type { %"struct.__gnu_cxx::__aligned_buffer.424" }
%"struct.__gnu_cxx::__aligned_buffer.424" = type { %"union.std::aligned_storage<32, 8>::type" }
%"union.std::aligned_storage<32, 8>::type" = type { [32 x i8] }
%"class.std::allocator.427" = type { i8 }
%"struct.std::__allocated_ptr.430" = type { ptr, ptr }
%"class.std::_Sp_counted_ptr_inplace.431" = type { %"class.std::_Sp_counted_base", %"class.std::_Sp_counted_ptr_inplace<arrow::BooleanArray, std::allocator<void>, __gnu_cxx::_S_atomic>::_Impl" }
%"class.std::_Sp_counted_ptr_inplace<arrow::BooleanArray, std::allocator<void>, __gnu_cxx::_S_atomic>::_Impl" = type { %"struct.__gnu_cxx::__aligned_buffer.432" }
%"struct.__gnu_cxx::__aligned_buffer.432" = type { %"union.std::aligned_storage<40, 8>::type" }
%"union.std::aligned_storage<40, 8>::type" = type { [40 x i8] }
%class.anon.440 = type { ptr }
%class.anon.441 = type { i8 }
%"struct.std::integral_constant.443" = type { i8 }
%"struct.std::integral_constant.444" = type { i8 }
%"struct.std::integral_constant.446" = type { i8 }
%"struct.std::integral_constant.448" = type { i8 }
%"struct.std::integral_constant.450" = type { i8 }
%"struct.std::integral_constant.452" = type { i8 }
%"struct.std::__detail::__variant::__variant_cookie" = type { i8 }
%"struct.std::integral_constant.454" = type { i8 }
%"class.__gnu_cxx::__normal_iterator.455" = type { ptr }
%"class.std::allocator.456" = type { i8 }
%"struct.std::__allocated_ptr.459" = type { ptr, ptr }
%"class.std::_Sp_counted_ptr_inplace.460" = type { %"class.std::_Sp_counted_base", %"class.std::_Sp_counted_ptr_inplace<arrow::ChunkedArray, std::allocator<void>, __gnu_cxx::_S_atomic>::_Impl" }
%"class.std::_Sp_counted_ptr_inplace<arrow::ChunkedArray, std::allocator<void>, __gnu_cxx::_S_atomic>::_Impl" = type { %"struct.__gnu_cxx::__aligned_buffer.461" }
%"struct.__gnu_cxx::__aligned_buffer.461" = type { %"union.std::aligned_storage<88, 8>::type" }
%"union.std::aligned_storage<88, 8>::type" = type { [88 x i8] }
%"class.arrow::RecordBatch" = type { ptr, %"class.std::shared_ptr.464", i64 }
%"class.arrow::Table" = type { ptr, %"class.std::shared_ptr.464", i64 }
%"struct.std::_Vector_base.472" = type { %"struct.std::_Vector_base<std::shared_ptr<arrow::ChunkedArray>, std::allocator<std::shared_ptr<arrow::ChunkedArray>>>::_Vector_impl" }
%"struct.std::_Vector_base<std::shared_ptr<arrow::ChunkedArray>, std::allocator<std::shared_ptr<arrow::ChunkedArray>>>::_Vector_impl" = type { %"struct.std::_Vector_base<std::shared_ptr<arrow::ChunkedArray>, std::allocator<std::shared_ptr<arrow::ChunkedArray>>>::_Vector_impl_data" }
%"struct.std::_Vector_base<std::shared_ptr<arrow::ChunkedArray>, std::allocator<std::shared_ptr<arrow::ChunkedArray>>>::_Vector_impl_data" = type { ptr, ptr, ptr }
%"class.__gnu_cxx::__normal_iterator.491" = type { ptr }

$_ZNSt7__cxx1112basic_stringIcSt11char_traitsIcESaIcEEC2IS3_EEPKcRKS3_ = comdat any

$_ZNSaINSt7__cxx1112basic_stringIcSt11char_traitsIcESaIcEEEEC2Ev = comdat any

$_ZNSt6vectorINSt7__cxx1112basic_stringIcSt11char_traitsIcESaIcEEESaIS5_EEC2ESt16initializer_listIS5_ERKS6_ = comdat any

$_ZN5arrow7compute11FunctionDocC2ENSt7__cxx1112basic_stringIcSt11char_traitsIcESaIcEEES7_St6vectorIS7_SaIS7_EES7_b = comdat any

$_ZNSt6vectorINSt7__cxx1112basic_stringIcSt11char_traitsIcESaIcEEESaIS5_EED2Ev = comdat any

$_ZNSaINSt7__cxx1112basic_stringIcSt11char_traitsIcESaIcEEEED2Ev = comdat any

$_ZN5arrow7compute11FunctionDocD2Ev = comdat any

$_ZNSt6vectorIN5arrow7compute8internal19SelectionKernelDataESaIS3_EEC2Ev = comdat any

$_ZN5arrow7compute12VectorKernelC2Ev = comdat any

$_ZN5arrow7compute8internal14OptionsWrapperINS0_13FilterOptionsEE4InitEPNS0_13KernelContextERKNS0_14KernelInitArgsE = comdat any

$_ZNSt8functionIFN5arrow6ResultISt10unique_ptrINS0_7compute11KernelStateESt14default_deleteIS4_EEEEPNS3_13KernelContextERKNS3_14KernelInitArgsEEEaSIRSE_EENSt9enable_ifIXsrNSF_9_CallableIT_NSI_IXntsr7is_sameINSt9remove_cvINSt16remove_referenceISK_E4typeEE4typeESF_EE5valueESt5decayISK_EE4type4typeESt15__invoke_resultIRSV_JSA_SD_EEEE5valueERSF_E4typeEOSK_ = comdat any

$_ZN5arrow7compute11FunctionDocC2ERKS1_ = comdat any

$_ZN5arrow7compute12VectorKernelC2ERKS1_ = comdat any

$_ZN5arrow7compute12VectorKernelD2Ev = comdat any

$_ZNSt10shared_ptrIN5arrow7compute8FunctionEEC2IS2_St14default_deleteIS2_EvEEOSt10unique_ptrIT_T0_E = comdat any

$_ZN5arrow6StatusD2Ev = comdat any

$_ZNSt10shared_ptrIN5arrow7compute8FunctionEED2Ev = comdat any

$_ZNSt10unique_ptrIN5arrow7compute8FunctionESt14default_deleteIS2_EED2Ev = comdat any

$_ZN5arrow7compute8internal14OptionsWrapperINS0_11TakeOptionsEE4InitEPNS0_13KernelContextERKNS0_14KernelInitArgsE = comdat any

$_ZNSt10shared_ptrIN5arrow7compute8FunctionEEC2INS1_14VectorFunctionEvEEOS_IT_E = comdat any

$_ZNSt10shared_ptrIN5arrow7compute14VectorFunctionEED2Ev = comdat any

$_ZNSt6vectorIN5arrow7compute8internal19SelectionKernelDataESaIS3_EED2Ev = comdat any

$_ZNSt6vectorINSt7__cxx1112basic_stringIcSt11char_traitsIcESaIcEEESaIS5_EEC2EOS7_ = comdat any

$_ZNSt12_Vector_baseINSt7__cxx1112basic_stringIcSt11char_traitsIcESaIcEEESaIS5_EEC2EOS7_ = comdat any

$_ZNSt12_Vector_baseINSt7__cxx1112basic_stringIcSt11char_traitsIcESaIcEEESaIS5_EE12_Vector_implC2EOS8_ = comdat any

$_ZNSt12_Vector_baseINSt7__cxx1112basic_stringIcSt11char_traitsIcESaIcEEESaIS5_EE17_Vector_impl_dataC2EOS8_ = comdat any

$_ZNSt15__new_allocatorINSt7__cxx1112basic_stringIcSt11char_traitsIcESaIcEEEEC2ERKS6_ = comdat any

$_ZNSt12_Vector_baseIN5arrow7compute8internal19SelectionKernelDataESaIS3_EEC2Ev = comdat any

$_ZNSt12_Vector_baseIN5arrow7compute8internal19SelectionKernelDataESaIS3_EE12_Vector_implC2Ev = comdat any

$_ZNSaIN5arrow7compute8internal19SelectionKernelDataEEC2Ev = comdat any

$_ZNSt12_Vector_baseIN5arrow7compute8internal19SelectionKernelDataESaIS3_EE17_Vector_impl_dataC2Ev = comdat any

$_ZNSt15__new_allocatorIN5arrow7compute8internal19SelectionKernelDataEEC2Ev = comdat any

$_ZN5arrow7compute6KernelC2Ev = comdat any

$_ZNSt8functionIFN5arrow6StatusEPNS0_7compute13KernelContextEPSt6vectorINS0_5DatumESaIS6_EEEEC2Ev = comdat any

$_ZNSt10shared_ptrIN5arrow7compute15KernelSignatureEEC2Ev = comdat any

$_ZNSt8functionIFN5arrow6ResultISt10unique_ptrINS0_7compute11KernelStateESt14default_deleteIS4_EEEEPNS3_13KernelContextERKNS3_14KernelInitArgsEEEC2Ev = comdat any

$_ZNSt10shared_ptrIN5arrow7compute11KernelStateEEC2Ev = comdat any

$_ZNSt12__shared_ptrIN5arrow7compute15KernelSignatureELN9__gnu_cxx12_Lock_policyE2EEC2Ev = comdat any

$_ZNSt14__shared_countILN9__gnu_cxx12_Lock_policyE2EEC2Ev = comdat any

$_ZNSt14_Function_baseC2Ev = comdat any

$_ZNSt12__shared_ptrIN5arrow7compute11KernelStateELN9__gnu_cxx12_Lock_policyE2EEC2Ev = comdat any

$_ZNSt6vectorINSt7__cxx1112basic_stringIcSt11char_traitsIcESaIcEEESaIS5_EEC2ERKS7_ = comdat any

$_ZNKSt6vectorINSt7__cxx1112basic_stringIcSt11char_traitsIcESaIcEEESaIS5_EE4sizeEv = comdat any

$_ZN9__gnu_cxx14__alloc_traitsISaINSt7__cxx1112basic_stringIcSt11char_traitsIcESaIcEEEES6_E17_S_select_on_copyERKS7_ = comdat any

$_ZNKSt12_Vector_baseINSt7__cxx1112basic_stringIcSt11char_traitsIcESaIcEEESaIS5_EE19_M_get_Tp_allocatorEv = comdat any

$_ZNSt12_Vector_baseINSt7__cxx1112basic_stringIcSt11char_traitsIcESaIcEEESaIS5_EEC2EmRKS6_ = comdat any

$_ZSt22__uninitialized_copy_aIN9__gnu_cxx17__normal_iteratorIPKNSt7__cxx1112basic_stringIcSt11char_traitsIcESaIcEEESt6vectorIS7_SaIS7_EEEEPS7_S7_ET0_T_SG_SF_RSaIT1_E = comdat any

$_ZNKSt6vectorINSt7__cxx1112basic_stringIcSt11char_traitsIcESaIcEEESaIS5_EE5beginEv = comdat any

$_ZNKSt6vectorINSt7__cxx1112basic_stringIcSt11char_traitsIcESaIcEEESaIS5_EE3endEv = comdat any

$_ZNSt12_Vector_baseINSt7__cxx1112basic_stringIcSt11char_traitsIcESaIcEEESaIS5_EE19_M_get_Tp_allocatorEv = comdat any

$_ZNSt12_Vector_baseINSt7__cxx1112basic_stringIcSt11char_traitsIcESaIcEEESaIS5_EED2Ev = comdat any

$_ZNSt16allocator_traitsISaINSt7__cxx1112basic_stringIcSt11char_traitsIcESaIcEEEEE37select_on_container_copy_constructionERKS6_ = comdat any

$_ZNSaINSt7__cxx1112basic_stringIcSt11char_traitsIcESaIcEEEEC2ERKS5_ = comdat any

$_ZNSt12_Vector_baseINSt7__cxx1112basic_stringIcSt11char_traitsIcESaIcEEESaIS5_EE12_Vector_implC2ERKS6_ = comdat any

$_ZNSt12_Vector_baseINSt7__cxx1112basic_stringIcSt11char_traitsIcESaIcEEESaIS5_EE17_M_create_storageEm = comdat any

$_ZNSt12_Vector_baseINSt7__cxx1112basic_stringIcSt11char_traitsIcESaIcEEESaIS5_EE12_Vector_implD2Ev = comdat any

$_ZNSt12_Vector_baseINSt7__cxx1112basic_stringIcSt11char_traitsIcESaIcEEESaIS5_EE17_Vector_impl_dataC2Ev = comdat any

$_ZNSt12_Vector_baseINSt7__cxx1112basic_stringIcSt11char_traitsIcESaIcEEESaIS5_EE11_M_allocateEm = comdat any

$_ZNSt16allocator_traitsISaINSt7__cxx1112basic_stringIcSt11char_traitsIcESaIcEEEEE8allocateERS6_m = comdat any

$_ZNSt15__new_allocatorINSt7__cxx1112basic_stringIcSt11char_traitsIcESaIcEEEE8allocateEmPKv = comdat any

$_ZNKSt15__new_allocatorINSt7__cxx1112basic_stringIcSt11char_traitsIcESaIcEEEE11_M_max_sizeEv = comdat any

$_ZNSt15__new_allocatorINSt7__cxx1112basic_stringIcSt11char_traitsIcESaIcEEEED2Ev = comdat any

$_ZSt18uninitialized_copyIN9__gnu_cxx17__normal_iteratorIPKNSt7__cxx1112basic_stringIcSt11char_traitsIcESaIcEEESt6vectorIS7_SaIS7_EEEEPS7_ET0_T_SG_SF_ = comdat any

$_ZNSt20__uninitialized_copyILb0EE13__uninit_copyIN9__gnu_cxx17__normal_iteratorIPKNSt7__cxx1112basic_stringIcSt11char_traitsIcESaIcEEESt6vectorIS9_SaIS9_EEEEPS9_EET0_T_SI_SH_ = comdat any

$_ZSt16__do_uninit_copyIN9__gnu_cxx17__normal_iteratorIPKNSt7__cxx1112basic_stringIcSt11char_traitsIcESaIcEEESt6vectorIS7_SaIS7_EEEEPS7_ET0_T_SG_SF_ = comdat any

$_ZN9__gnu_cxxneIPKNSt7__cxx1112basic_stringIcSt11char_traitsIcESaIcEEESt6vectorIS6_SaIS6_EEEEbRKNS_17__normal_iteratorIT_T0_EESH_ = comdat any

$_ZSt10_ConstructINSt7__cxx1112basic_stringIcSt11char_traitsIcESaIcEEEJRKS5_EEvPT_DpOT0_ = comdat any

$_ZNK9__gnu_cxx17__normal_iteratorIPKNSt7__cxx1112basic_stringIcSt11char_traitsIcESaIcEEESt6vectorIS6_SaIS6_EEEdeEv = comdat any

$_ZN9__gnu_cxx17__normal_iteratorIPKNSt7__cxx1112basic_stringIcSt11char_traitsIcESaIcEEESt6vectorIS6_SaIS6_EEEppEv = comdat any

$_ZSt8_DestroyIPNSt7__cxx1112basic_stringIcSt11char_traitsIcESaIcEEEEvT_S7_ = comdat any

$__clang_call_terminate = comdat any

$_ZNK9__gnu_cxx17__normal_iteratorIPKNSt7__cxx1112basic_stringIcSt11char_traitsIcESaIcEEESt6vectorIS6_SaIS6_EEE4baseEv = comdat any

$_ZNSt12_Destroy_auxILb0EE9__destroyIPNSt7__cxx1112basic_stringIcSt11char_traitsIcESaIcEEEEEvT_S9_ = comdat any

$_ZSt8_DestroyINSt7__cxx1112basic_stringIcSt11char_traitsIcESaIcEEEEvPT_ = comdat any

$_ZN9__gnu_cxx17__normal_iteratorIPKNSt7__cxx1112basic_stringIcSt11char_traitsIcESaIcEEESt6vectorIS6_SaIS6_EEEC2ERKS8_ = comdat any

$_ZNSt12_Vector_baseINSt7__cxx1112basic_stringIcSt11char_traitsIcESaIcEEESaIS5_EE13_M_deallocateEPS5_m = comdat any

$_ZNSt16allocator_traitsISaINSt7__cxx1112basic_stringIcSt11char_traitsIcESaIcEEEEE10deallocateERS6_PS5_m = comdat any

$_ZNSt15__new_allocatorINSt7__cxx1112basic_stringIcSt11char_traitsIcESaIcEEEE10deallocateEPS5_m = comdat any

$_ZN5arrow7compute6KernelC2ERKS1_ = comdat any

$_ZNSt8functionIFN5arrow6StatusEPNS0_7compute13KernelContextEPSt6vectorINS0_5DatumESaIS6_EEEEC2ERKSB_ = comdat any

$_ZN5arrow7compute6KernelD2Ev = comdat any

$_ZNSt10shared_ptrIN5arrow7compute15KernelSignatureEEC2ERKS3_ = comdat any

$_ZNSt8functionIFN5arrow6ResultISt10unique_ptrINS0_7compute11KernelStateESt14default_deleteIS4_EEEEPNS3_13KernelContextERKNS3_14KernelInitArgsEEEC2ERKSF_ = comdat any

$_ZNSt10shared_ptrIN5arrow7compute11KernelStateEEC2ERKS3_ = comdat any

$_ZNSt10shared_ptrIN5arrow7compute15KernelSignatureEED2Ev = comdat any

$_ZNSt12__shared_ptrIN5arrow7compute15KernelSignatureELN9__gnu_cxx12_Lock_policyE2EEC2ERKS5_ = comdat any

$_ZNSt14__shared_countILN9__gnu_cxx12_Lock_policyE2EEC2ERKS2_ = comdat any

$_ZNSt16_Sp_counted_baseILN9__gnu_cxx12_Lock_policyE2EE15_M_add_ref_copyEv = comdat any

$_ZNKSt8functionIFN5arrow6ResultISt10unique_ptrINS0_7compute11KernelStateESt14default_deleteIS4_EEEEPNS3_13KernelContextERKNS3_14KernelInitArgsEEEcvbEv = comdat any

$_ZNSt14_Function_baseD2Ev = comdat any

$_ZNKSt14_Function_base8_M_emptyEv = comdat any

$_ZNSt12__shared_ptrIN5arrow7compute11KernelStateELN9__gnu_cxx12_Lock_policyE2EEC2ERKS5_ = comdat any

$_ZNSt14__shared_countILN9__gnu_cxx12_Lock_policyE2EED2Ev = comdat any

$_ZNSt16_Sp_counted_baseILN9__gnu_cxx12_Lock_policyE2EE10_M_releaseEv = comdat any

$_ZNSt16_Sp_counted_baseILN9__gnu_cxx12_Lock_policyE2EE24_M_release_last_use_coldEv = comdat any

$_ZNSt16_Sp_counted_baseILN9__gnu_cxx12_Lock_policyE2EE19_M_release_last_useEv = comdat any

$_ZNKSt8functionIFN5arrow6StatusEPNS0_7compute13KernelContextEPSt6vectorINS0_5DatumESaIS6_EEEEcvbEv = comdat any

$_ZNSt10shared_ptrIN5arrow7compute11KernelStateEED2Ev = comdat any

$_ZNSt8functionIFN5arrow6ResultISt10unique_ptrINS0_7compute11KernelStateESt14default_deleteIS4_EEEEPNS3_13KernelContextERKNS3_14KernelInitArgsEEED2Ev = comdat any

$_ZNSt12__shared_ptrIN5arrow7compute11KernelStateELN9__gnu_cxx12_Lock_policyE2EED2Ev = comdat any

$_ZNSt8functionIFN5arrow6StatusEPNS0_7compute13KernelContextEPSt6vectorINS0_5DatumESaIS6_EEEED2Ev = comdat any

$_ZN5arrow6Status11DeleteStateEv = comdat any

$_ZN5arrow4util19ToStringOstreamableINS_6StatusEED2Ev = comdat any

$_ZN5arrow4util18EqualityComparableINS_6StatusEED2Ev = comdat any

$_ZN5arrow6Status5StateD2Ev = comdat any

$_ZNSt10shared_ptrIN5arrow12StatusDetailEED2Ev = comdat any

$_ZNSt12__shared_ptrIN5arrow12StatusDetailELN9__gnu_cxx12_Lock_policyE2EED2Ev = comdat any

$_ZNSt12__shared_ptrIN5arrow7compute8FunctionELN9__gnu_cxx12_Lock_policyE2EED2Ev = comdat any

$_ZSt11make_sharedIN5arrow7compute14VectorFunctionEJRNSt7__cxx1112basic_stringIcSt11char_traitsIcESaIcEEENS1_5ArityENS1_11FunctionDocEEESt10shared_ptrINSt9enable_ifIXntsr8is_arrayIT_EE5valueESE_E4typeEEDpOT0_ = comdat any

$_ZN5arrow7compute5Arity5UnaryEv = comdat any

$_ZNSt10shared_ptrIN5arrow8DataTypeEEC2ERKS2_ = comdat any

$_ZNSt10shared_ptrIN5arrow8DataTypeEED2Ev = comdat any

$_ZNSaISt10shared_ptrIN5arrow8DataTypeEEEC2Ev = comdat any

$_ZNSt6vectorISt10shared_ptrIN5arrow8DataTypeEESaIS3_EEC2ESt16initializer_listIS3_ERKS4_ = comdat any

$_ZNSt6vectorISt10shared_ptrIN5arrow8DataTypeEESaIS3_EED2Ev = comdat any

$_ZNSaISt10shared_ptrIN5arrow8DataTypeEEED2Ev = comdat any

$_ZNKSt16initializer_listIN5arrow4Type4typeEE5beginEv = comdat any

$_ZNKSt16initializer_listIN5arrow4Type4typeEE3endEv = comdat any

$_ZN5arrow7compute9InputTypeC2ENS_4Type4typeE = comdat any

$_ZN5arrow7compute9InputTypeD2Ev = comdat any

$_ZNSaIN5arrow7compute9InputTypeEEC2Ev = comdat any

$_ZNSt6vectorIN5arrow7compute9InputTypeESaIS2_EEC2ESt16initializer_listIS2_ERKS3_ = comdat any

$_ZN5arrow7compute10OutputTypeC2ESt10shared_ptrINS_8DataTypeEE = comdat any

$_ZNSt10shared_ptrIN5arrow7compute15KernelSignatureEEaSEOS3_ = comdat any

$_ZN5arrow7compute10OutputTypeD2Ev = comdat any

$_ZNSt6vectorIN5arrow7compute9InputTypeESaIS2_EED2Ev = comdat any

$_ZNSaIN5arrow7compute9InputTypeEED2Ev = comdat any

$_ZNKSt19__shared_ptr_accessIN5arrow7compute14VectorFunctionELN9__gnu_cxx12_Lock_policyE2ELb0ELb0EEptEv = comdat any

$_ZNSt10shared_ptrIN5arrow7compute14VectorFunctionEEC2ISaIvEJRNSt7__cxx1112basic_stringIcSt11char_traitsIcESaIcEEENS1_5ArityENS1_11FunctionDocEEEESt20_Sp_alloc_shared_tagIT_EDpOT0_ = comdat any

$_ZNSt12__shared_ptrIN5arrow7compute14VectorFunctionELN9__gnu_cxx12_Lock_policyE2EEC2ISaIvEJRNSt7__cxx1112basic_stringIcSt11char_traitsIcESaIcEEENS1_5ArityENS1_11FunctionDocEEEESt20_Sp_alloc_shared_tagIT_EDpOT0_ = comdat any

$_ZNSt14__shared_countILN9__gnu_cxx12_Lock_policyE2EEC2IN5arrow7compute14VectorFunctionESaIvEJRNSt7__cxx1112basic_stringIcSt11char_traitsIcESaIcEEENS5_5ArityENS5_11FunctionDocEEEERPT_St20_Sp_alloc_shared_tagIT0_EDpOT1_ = comdat any

$_ZNSt12__shared_ptrIN5arrow7compute14VectorFunctionELN9__gnu_cxx12_Lock_policyE2EE31_M_enable_shared_from_this_withIS2_S2_EENSt9enable_ifIXntsr15__has_esft_baseIT0_EE5valueEvE4typeEPT_ = comdat any

$_ZNSaISt23_Sp_counted_ptr_inplaceIN5arrow7compute14VectorFunctionESaIvELN9__gnu_cxx12_Lock_policyE2EEEC2IvEERKSaIT_E = comdat any

$_ZSt18__allocate_guardedISaISt23_Sp_counted_ptr_inplaceIN5arrow7compute14VectorFunctionESaIvELN9__gnu_cxx12_Lock_policyE2EEEESt15__allocated_ptrIT_ERSA_ = comdat any

$_ZNSt15__allocated_ptrISaISt23_Sp_counted_ptr_inplaceIN5arrow7compute14VectorFunctionESaIvELN9__gnu_cxx12_Lock_policyE2EEEE3getEv = comdat any

$_ZNSt23_Sp_counted_ptr_inplaceIN5arrow7compute14VectorFunctionESaIvELN9__gnu_cxx12_Lock_policyE2EEC2IJRNSt7__cxx1112basic_stringIcSt11char_traitsIcESaIcEEENS1_5ArityENS1_11FunctionDocEEEES3_DpOT_ = comdat any

$_ZNSt15__allocated_ptrISaISt23_Sp_counted_ptr_inplaceIN5arrow7compute14VectorFunctionESaIvELN9__gnu_cxx12_Lock_policyE2EEEEaSEDn = comdat any

$_ZNSt23_Sp_counted_ptr_inplaceIN5arrow7compute14VectorFunctionESaIvELN9__gnu_cxx12_Lock_policyE2EE6_M_ptrEv = comdat any

$_ZNSt15__allocated_ptrISaISt23_Sp_counted_ptr_inplaceIN5arrow7compute14VectorFunctionESaIvELN9__gnu_cxx12_Lock_policyE2EEEED2Ev = comdat any

$_ZNSaISt23_Sp_counted_ptr_inplaceIN5arrow7compute14VectorFunctionESaIvELN9__gnu_cxx12_Lock_policyE2EEED2Ev = comdat any

$_ZNSt15__new_allocatorISt23_Sp_counted_ptr_inplaceIN5arrow7compute14VectorFunctionESaIvELN9__gnu_cxx12_Lock_policyE2EEEC2Ev = comdat any

$_ZNSt16allocator_traitsISaISt23_Sp_counted_ptr_inplaceIN5arrow7compute14VectorFunctionESaIvELN9__gnu_cxx12_Lock_policyE2EEEE8allocateERS8_m = comdat any

$_ZNSt15__allocated_ptrISaISt23_Sp_counted_ptr_inplaceIN5arrow7compute14VectorFunctionESaIvELN9__gnu_cxx12_Lock_policyE2EEEEC2ERS8_PS7_ = comdat any

$_ZNSt15__new_allocatorISt23_Sp_counted_ptr_inplaceIN5arrow7compute14VectorFunctionESaIvELN9__gnu_cxx12_Lock_policyE2EEE8allocateEmPKv = comdat any

$_ZNKSt15__new_allocatorISt23_Sp_counted_ptr_inplaceIN5arrow7compute14VectorFunctionESaIvELN9__gnu_cxx12_Lock_policyE2EEE11_M_max_sizeEv = comdat any

$_ZSt12__to_addressISt23_Sp_counted_ptr_inplaceIN5arrow7compute14VectorFunctionESaIvELN9__gnu_cxx12_Lock_policyE2EEEPT_S9_ = comdat any

$_ZNSt16_Sp_counted_baseILN9__gnu_cxx12_Lock_policyE2EEC2Ev = comdat any

$_ZNSt23_Sp_counted_ptr_inplaceIN5arrow7compute14VectorFunctionESaIvELN9__gnu_cxx12_Lock_policyE2EE5_ImplC2ES3_ = comdat any

$_ZNSt16allocator_traitsISaIvEE9constructIN5arrow7compute14VectorFunctionEJRNSt7__cxx1112basic_stringIcSt11char_traitsIcESaIcEEENS4_5ArityENS4_11FunctionDocEEEEvRS0_PT_DpOT0_ = comdat any

$_ZNSt23_Sp_counted_ptr_inplaceIN5arrow7compute14VectorFunctionESaIvELN9__gnu_cxx12_Lock_policyE2EED2Ev = comdat any

$_ZNSt23_Sp_counted_ptr_inplaceIN5arrow7compute14VectorFunctionESaIvELN9__gnu_cxx12_Lock_policyE2EED0Ev = comdat any

$_ZNSt23_Sp_counted_ptr_inplaceIN5arrow7compute14VectorFunctionESaIvELN9__gnu_cxx12_Lock_policyE2EE10_M_disposeEv = comdat any

$_ZNSt23_Sp_counted_ptr_inplaceIN5arrow7compute14VectorFunctionESaIvELN9__gnu_cxx12_Lock_policyE2EE10_M_destroyEv = comdat any

$_ZNSt23_Sp_counted_ptr_inplaceIN5arrow7compute14VectorFunctionESaIvELN9__gnu_cxx12_Lock_policyE2EE14_M_get_deleterERKSt9type_info = comdat any

$_ZNSt16_Sp_counted_baseILN9__gnu_cxx12_Lock_policyE2EED2Ev = comdat any

$_ZNSt16_Sp_counted_baseILN9__gnu_cxx12_Lock_policyE2EED0Ev = comdat any

$_ZNSt16_Sp_counted_baseILN9__gnu_cxx12_Lock_policyE2EE10_M_destroyEv = comdat any

$_ZNSt14_Sp_ebo_helperILi0ESaIvELb1EEC2ERKS0_ = comdat any

$_ZSt10_ConstructIN5arrow7compute14VectorFunctionEJRNSt7__cxx1112basic_stringIcSt11char_traitsIcESaIcEEENS1_5ArityENS1_11FunctionDocEEEvPT_DpOT0_ = comdat any

$_ZN5arrow7compute11FunctionDocC2EOS1_ = comdat any

$_ZN5arrow7compute14VectorFunctionC2ENSt7__cxx1112basic_stringIcSt11char_traitsIcESaIcEEERKNS0_5ArityENS0_11FunctionDocEPKNS0_15FunctionOptionsE = comdat any

$_ZN5arrow7compute6detail12FunctionImplINS0_12VectorKernelEEC2ENSt7__cxx1112basic_stringIcSt11char_traitsIcESaIcEEENS0_8Function4KindERKNS0_5ArityENS0_11FunctionDocEPKNS0_15FunctionOptionsE = comdat any

$_ZN5arrow7compute14VectorFunctionD2Ev = comdat any

$_ZN5arrow7compute14VectorFunctionD0Ev = comdat any

$_ZNK5arrow7compute6detail12FunctionImplINS0_12VectorKernelEE11num_kernelsEv = comdat any

$_ZN5arrow7compute8FunctionC2ENSt7__cxx1112basic_stringIcSt11char_traitsIcESaIcEEENS1_4KindERKNS0_5ArityENS0_11FunctionDocEPKNS0_15FunctionOptionsE = comdat any

$_ZNSt6vectorIN5arrow7compute12VectorKernelESaIS2_EEC2Ev = comdat any

$_ZN5arrow7compute6detail12FunctionImplINS0_12VectorKernelEED2Ev = comdat any

$_ZN5arrow7compute6detail12FunctionImplINS0_12VectorKernelEED0Ev = comdat any

$_ZNSt12_Vector_baseIN5arrow7compute12VectorKernelESaIS2_EEC2Ev = comdat any

$_ZNSt12_Vector_baseIN5arrow7compute12VectorKernelESaIS2_EE12_Vector_implC2Ev = comdat any

$_ZNSaIN5arrow7compute12VectorKernelEEC2Ev = comdat any

$_ZNSt12_Vector_baseIN5arrow7compute12VectorKernelESaIS2_EE17_Vector_impl_dataC2Ev = comdat any

$_ZNSt15__new_allocatorIN5arrow7compute12VectorKernelEEC2Ev = comdat any

$_ZNSt6vectorIN5arrow7compute12VectorKernelESaIS2_EED2Ev = comdat any

$_ZN5arrow7compute8FunctionD2Ev = comdat any

$_ZSt8_DestroyIPN5arrow7compute12VectorKernelES2_EvT_S4_RSaIT0_E = comdat any

$_ZNSt12_Vector_baseIN5arrow7compute12VectorKernelESaIS2_EE19_M_get_Tp_allocatorEv = comdat any

$_ZNSt12_Vector_baseIN5arrow7compute12VectorKernelESaIS2_EED2Ev = comdat any

$_ZSt8_DestroyIPN5arrow7compute12VectorKernelEEvT_S4_ = comdat any

$_ZNSt12_Destroy_auxILb0EE9__destroyIPN5arrow7compute12VectorKernelEEEvT_S6_ = comdat any

$_ZSt8_DestroyIN5arrow7compute12VectorKernelEEvPT_ = comdat any

$_ZNSt12_Vector_baseIN5arrow7compute12VectorKernelESaIS2_EE13_M_deallocateEPS2_m = comdat any

$_ZNSt12_Vector_baseIN5arrow7compute12VectorKernelESaIS2_EE12_Vector_implD2Ev = comdat any

$_ZNSt16allocator_traitsISaIN5arrow7compute12VectorKernelEEE10deallocateERS3_PS2_m = comdat any

$_ZNSt15__new_allocatorIN5arrow7compute12VectorKernelEE10deallocateEPS2_m = comdat any

$_ZNSaIN5arrow7compute12VectorKernelEED2Ev = comdat any

$_ZNSt15__new_allocatorIN5arrow7compute12VectorKernelEED2Ev = comdat any

$_ZNKSt6vectorIN5arrow7compute12VectorKernelESaIS2_EE4sizeEv = comdat any

$_ZNSt16allocator_traitsISaIvEE7destroyIN5arrow7compute14VectorFunctionEEEvRS0_PT_ = comdat any

$_ZNSt23_Sp_counted_ptr_inplaceIN5arrow7compute14VectorFunctionESaIvELN9__gnu_cxx12_Lock_policyE2EE5_Impl8_M_allocEv = comdat any

$_ZSt8_DestroyIN5arrow7compute14VectorFunctionEEvPT_ = comdat any

$_ZNSt14_Sp_ebo_helperILi0ESaIvELb1EE6_S_getERS1_ = comdat any

$_ZNSt19_Sp_make_shared_tag5_S_tiEv = comdat any

$_ZNKSt9type_infoeqERKS_ = comdat any

$_ZNKSt9type_info4nameEv = comdat any

$_ZN9__gnu_cxx16__aligned_bufferIN5arrow7compute14VectorFunctionEE6_M_ptrEv = comdat any

$_ZN9__gnu_cxx16__aligned_bufferIN5arrow7compute14VectorFunctionEE7_M_addrEv = comdat any

$_ZNSt16allocator_traitsISaISt23_Sp_counted_ptr_inplaceIN5arrow7compute14VectorFunctionESaIvELN9__gnu_cxx12_Lock_policyE2EEEE10deallocateERS8_PS7_m = comdat any

$_ZNSt15__new_allocatorISt23_Sp_counted_ptr_inplaceIN5arrow7compute14VectorFunctionESaIvELN9__gnu_cxx12_Lock_policyE2EEE10deallocateEPS7_m = comdat any

$_ZNSt15__new_allocatorISt23_Sp_counted_ptr_inplaceIN5arrow7compute14VectorFunctionESaIvELN9__gnu_cxx12_Lock_policyE2EEED2Ev = comdat any

$_ZN5arrow7compute5ArityC2Eib = comdat any

$_ZNSt10shared_ptrIN5arrow9ArrayDataEEC2Ev = comdat any

$_ZN5arrow8internal15GenericToStatusEONS_6StatusE = comdat any

$_ZNK5arrow7compute8ExecSpanixIiEERKNS0_9ExecValueET_ = comdat any

$_ZN5arrow9ArraySpanC2ERKS0_ = comdat any

$_ZN5arrow9ArraySpanD2Ev = comdat any

$_ZNSaIN5arrow9ArraySpanEEC2Ev = comdat any

$_ZNSt6vectorIN5arrow9ArraySpanESaIS1_EEC2ESt16initializer_listIS1_ERKS2_ = comdat any

$_ZNSt6vectorIN5arrow9ArraySpanESaIS1_EED2Ev = comdat any

$_ZNSaIN5arrow9ArraySpanEED2Ev = comdat any

$_ZNK5arrow6Status2okEv = comdat any

$_ZNSt7variantIJN5arrow9ArraySpanESt10shared_ptrINS0_9ArrayDataEEEEaSIS4_EENSt9enable_ifIXaaaa14__exactly_onceINSt9_Nth_typeIX16__accepted_indexIOT_EEJS1_S4_EE4typeEE18is_constructible_vISC_S9_E15is_assignable_vIRSC_S9_EERS5_E4typeESA_ = comdat any

$_ZN5arrow6Status2OKEv = comdat any

$_ZNSt10shared_ptrIN5arrow9ArrayDataEED2Ev = comdat any

$_ZNSt12__shared_ptrIN5arrow9ArrayDataELN9__gnu_cxx12_Lock_policyE2EEC2Ev = comdat any

$_ZN5arrow6StatusC2EOS0_ = comdat any

$_ZN5arrow14NumericBuilderINS_10UInt64TypeEEC2IS1_EENSt9enable_ifIXsr22is_parameter_free_typeIT_EE5valueEPNS_10MemoryPoolEE4typeEl = comdat any

$_ZN5arrow12ArrayBuilder7ReserveEl = comdat any

$_ZNKSt6vectorIN5arrow9ArraySpanESaIS1_EEixEm = comdat any

$_ZN5arrow14NumericBuilderINS_10UInt64TypeEE14FinishInternalEPSt10shared_ptrINS_9ArrayDataEE = comdat any

$_ZN5arrow14NumericBuilderINS_10UInt64TypeEED2Ev = comdat any

$_ZN5arrow12ArrayBuilderC2EPNS_10MemoryPoolEl = comdat any

$_ZN5arrow10TypeTraitsINS_10UInt64TypeEE14type_singletonEv = comdat any

$_ZN5arrow18TypedBufferBuilderImvEC2EPNS_10MemoryPoolEl = comdat any

$_ZN5arrow12ArrayBuilderD2Ev = comdat any

$_ZN5arrow14NumericBuilderINS_10UInt64TypeEED0Ev = comdat any

$_ZNK5arrow12ArrayBuilder6lengthEv = comdat any

$_ZN5arrow14NumericBuilderINS_10UInt64TypeEE6ResizeEl = comdat any

$_ZN5arrow14NumericBuilderINS_10UInt64TypeEE5ResetEv = comdat any

$_ZN5arrow14NumericBuilderINS_10UInt64TypeEE10AppendNullEv = comdat any

$_ZN5arrow14NumericBuilderINS_10UInt64TypeEE11AppendNullsEl = comdat any

$_ZN5arrow14NumericBuilderINS_10UInt64TypeEE16AppendEmptyValueEv = comdat any

$_ZN5arrow14NumericBuilderINS_10UInt64TypeEE17AppendEmptyValuesEl = comdat any

$_ZN5arrow14NumericBuilderINS_10UInt64TypeEE16AppendArraySliceERKNS_9ArraySpanEll = comdat any

$_ZNK5arrow14NumericBuilderINS_10UInt64TypeEE4typeEv = comdat any

$_ZN5arrow18TypedBufferBuilderIbvEC2EPNS_10MemoryPoolEl = comdat any

$_ZNSt6vectorISt10shared_ptrIN5arrow12ArrayBuilderEESaIS3_EEC2Ev = comdat any

$_ZN5arrow13BufferBuilderC2EPNS_10MemoryPoolEl = comdat any

$_ZNSt10shared_ptrIN5arrow15ResizableBufferEEC2Ev = comdat any

$_ZN5arrow4util11MakeNonNullIhEEPT_S3_ = comdat any

$_ZNSt10shared_ptrIN5arrow15ResizableBufferEED2Ev = comdat any

$_ZNSt12__shared_ptrIN5arrow15ResizableBufferELN9__gnu_cxx12_Lock_policyE2EEC2Ev = comdat any

$_ZNSt12_Vector_baseISt10shared_ptrIN5arrow12ArrayBuilderEESaIS3_EEC2Ev = comdat any

$_ZNSt12_Vector_baseISt10shared_ptrIN5arrow12ArrayBuilderEESaIS3_EE12_Vector_implC2Ev = comdat any

$_ZNSaISt10shared_ptrIN5arrow12ArrayBuilderEEEC2Ev = comdat any

$_ZNSt12_Vector_baseISt10shared_ptrIN5arrow12ArrayBuilderEESaIS3_EE17_Vector_impl_dataC2Ev = comdat any

$_ZNSt15__new_allocatorISt10shared_ptrIN5arrow12ArrayBuilderEEEC2Ev = comdat any

$_ZNSt6vectorISt10shared_ptrIN5arrow12ArrayBuilderEESaIS3_EED2Ev = comdat any

$_ZN5arrow18TypedBufferBuilderIbvED2Ev = comdat any

$_ZSt8_DestroyIPSt10shared_ptrIN5arrow12ArrayBuilderEES3_EvT_S5_RSaIT0_E = comdat any

$_ZNSt12_Vector_baseISt10shared_ptrIN5arrow12ArrayBuilderEESaIS3_EE19_M_get_Tp_allocatorEv = comdat any

$_ZNSt12_Vector_baseISt10shared_ptrIN5arrow12ArrayBuilderEESaIS3_EED2Ev = comdat any

$_ZSt8_DestroyIPSt10shared_ptrIN5arrow12ArrayBuilderEEEvT_S5_ = comdat any

$_ZNSt12_Destroy_auxILb0EE9__destroyIPSt10shared_ptrIN5arrow12ArrayBuilderEEEEvT_S7_ = comdat any

$_ZSt8_DestroyISt10shared_ptrIN5arrow12ArrayBuilderEEEvPT_ = comdat any

$_ZNSt10shared_ptrIN5arrow12ArrayBuilderEED2Ev = comdat any

$_ZNSt12__shared_ptrIN5arrow12ArrayBuilderELN9__gnu_cxx12_Lock_policyE2EED2Ev = comdat any

$_ZNSt12_Vector_baseISt10shared_ptrIN5arrow12ArrayBuilderEESaIS3_EE13_M_deallocateEPS3_m = comdat any

$_ZNSt12_Vector_baseISt10shared_ptrIN5arrow12ArrayBuilderEESaIS3_EE12_Vector_implD2Ev = comdat any

$_ZNSt16allocator_traitsISaISt10shared_ptrIN5arrow12ArrayBuilderEEEE10deallocateERS4_PS3_m = comdat any

$_ZNSt15__new_allocatorISt10shared_ptrIN5arrow12ArrayBuilderEEE10deallocateEPS3_m = comdat any

$_ZNSaISt10shared_ptrIN5arrow12ArrayBuilderEEED2Ev = comdat any

$_ZNSt15__new_allocatorISt10shared_ptrIN5arrow12ArrayBuilderEEED2Ev = comdat any

$_ZN5arrow13BufferBuilderD2Ev = comdat any

$_ZN5arrow12ArrayBuilder13CheckCapacityEl = comdat any

$_ZSt3maxIlERKT_S2_S2_ = comdat any

$_ZN5arrow18TypedBufferBuilderImvE6ResizeElb = comdat any

$_ZN5arrow6Status7InvalidIJRA46_KcRlRA2_S2_EEES0_DpOT_ = comdat any

$_ZN5arrow6Status7InvalidIJRA36_KcRlRA19_S2_S5_RA2_S2_EEES0_DpOT_ = comdat any

$_ZN5arrow6Status8FromArgsIJRA46_KcRlRA2_S2_EEES0_NS_10StatusCodeEDpOT_ = comdat any

$_ZN5arrow4util13StringBuilderIJRA46_KcRlRA2_S2_EEENSt7__cxx1112basic_stringIcSt11char_traitsIcESaIcEEEDpOT_ = comdat any

$_ZN5arrow4util22StringBuilderRecursiveIRA46_KcJRlRA2_S2_EEEvRSoOT_DpOT0_ = comdat any

$_ZN5arrow4util6detail19StringStreamWrapper6streamEv = comdat any

$_ZN5arrow4util22StringBuilderRecursiveIRA46_KcEEvRSoOT_ = comdat any

$_ZN5arrow4util22StringBuilderRecursiveIRlJRA2_KcEEEvRSoOT_DpOT0_ = comdat any

$_ZN5arrow4util22StringBuilderRecursiveIRlEEvRSoOT_ = comdat any

$_ZN5arrow4util22StringBuilderRecursiveIRA2_KcEEvRSoOT_ = comdat any

$_ZN5arrow6Status8FromArgsIJRA36_KcRlRA19_S2_S5_RA2_S2_EEES0_NS_10StatusCodeEDpOT_ = comdat any

$_ZN5arrow4util13StringBuilderIJRA36_KcRlRA19_S2_S5_RA2_S2_EEENSt7__cxx1112basic_stringIcSt11char_traitsIcESaIcEEEDpOT_ = comdat any

$_ZN5arrow4util22StringBuilderRecursiveIRA36_KcJRlRA19_S2_S5_RA2_S2_EEEvRSoOT_DpOT0_ = comdat any

$_ZN5arrow4util22StringBuilderRecursiveIRA36_KcEEvRSoOT_ = comdat any

$_ZN5arrow4util22StringBuilderRecursiveIRlJRA19_KcS2_RA2_S3_EEEvRSoOT_DpOT0_ = comdat any

$_ZN5arrow4util22StringBuilderRecursiveIRA19_KcJRlRA2_S2_EEEvRSoOT_DpOT0_ = comdat any

$_ZN5arrow4util22StringBuilderRecursiveIRA19_KcEEvRSoOT_ = comdat any

$_ZN5arrow13BufferBuilder6ResizeElb = comdat any

$_ZSteqIN5arrow15ResizableBufferEEbRKSt10shared_ptrIT_EDn = comdat any

$_ZNK5arrow6ResultISt10unique_ptrINS_15ResizableBufferESt14default_deleteIS2_EEE2okEv = comdat any

$_ZNK5arrow6ResultISt10unique_ptrINS_15ResizableBufferESt14default_deleteIS2_EEE6statusEv = comdat any

$_ZN5arrow6StatusC2ERKS0_ = comdat any

$_ZNO5arrow6ResultISt10unique_ptrINS_15ResizableBufferESt14default_deleteIS2_EEE11ValueUnsafeEv = comdat any

$_ZNSt10shared_ptrIN5arrow15ResizableBufferEEaSIS1_St14default_deleteIS1_EEENSt9enable_ifIXsr13is_assignableIRSt12__shared_ptrIS1_LN9__gnu_cxx12_Lock_policyE2EESt10unique_ptrIT_T0_EEE5valueERS2_E4typeEOSF_ = comdat any

$_ZNSt10unique_ptrIN5arrow15ResizableBufferESt14default_deleteIS1_EED2Ev = comdat any

$_ZN5arrow6ResultISt10unique_ptrINS_15ResizableBufferESt14default_deleteIS2_EEED2Ev = comdat any

$_ZNKSt19__shared_ptr_accessIN5arrow15ResizableBufferELN9__gnu_cxx12_Lock_policyE2ELb0ELb0EEptEv = comdat any

$_ZNK5arrow6Buffer8capacityEv = comdat any

$_ZN5arrow6Buffer12mutable_dataEv = comdat any

$_ZNKSt12__shared_ptrIN5arrow15ResizableBufferELN9__gnu_cxx12_Lock_policyE2EEcvbEv = comdat any

$_ZN5arrow6Status5StateC2ERKS1_ = comdat any

$_ZNSt10shared_ptrIN5arrow12StatusDetailEEC2ERKS2_ = comdat any

$_ZNSt12__shared_ptrIN5arrow12StatusDetailELN9__gnu_cxx12_Lock_policyE2EEC2ERKS4_ = comdat any

$_ZN5arrow6ResultISt10unique_ptrINS_15ResizableBufferESt14default_deleteIS2_EEE15MoveValueUnsafeEv = comdat any

$_ZN5arrow8internal14AlignedStorageISt10unique_ptrINS_15ResizableBufferESt14default_deleteIS3_EEE3getEv = comdat any

$_ZNSt10unique_ptrIN5arrow15ResizableBufferESt14default_deleteIS1_EEC2EOS4_ = comdat any

$_ZSt7launderISt10unique_ptrIN5arrow15ResizableBufferESt14default_deleteIS2_EEEPT_S7_ = comdat any

$_ZNSt15__uniq_ptr_dataIN5arrow15ResizableBufferESt14default_deleteIS1_ELb1ELb1EEC2EOS4_ = comdat any

$_ZNSt15__uniq_ptr_implIN5arrow15ResizableBufferESt14default_deleteIS1_EEC2EOS4_ = comdat any

$_ZNSt5tupleIJPN5arrow15ResizableBufferESt14default_deleteIS1_EEEC2EOS5_ = comdat any

$_ZNSt15__uniq_ptr_implIN5arrow15ResizableBufferESt14default_deleteIS1_EE6_M_ptrEv = comdat any

$_ZNSt11_Tuple_implILm0EJPN5arrow15ResizableBufferESt14default_deleteIS1_EEEC2EOS5_ = comdat any

$_ZNSt11_Tuple_implILm1EJSt14default_deleteIN5arrow15ResizableBufferEEEEC2EOS4_ = comdat any

$_ZSt3getILm0EJPN5arrow15ResizableBufferESt14default_deleteIS1_EEERNSt13tuple_elementIXT_ESt5tupleIJDpT0_EEE4typeERS9_ = comdat any

$_ZSt12__get_helperILm0EPN5arrow15ResizableBufferEJSt14default_deleteIS1_EEERT0_RSt11_Tuple_implIXT_EJS5_DpT1_EE = comdat any

$_ZNSt11_Tuple_implILm0EJPN5arrow15ResizableBufferESt14default_deleteIS1_EEE7_M_headERS5_ = comdat any

$_ZNSt10_Head_baseILm0EPN5arrow15ResizableBufferELb0EE7_M_headERS3_ = comdat any

$_ZNSt12__shared_ptrIN5arrow15ResizableBufferELN9__gnu_cxx12_Lock_policyE2EEaSIS1_St14default_deleteIS1_EEENSt9enable_ifIXsr6__and_ISt20__sp_compatible_withIPT_PS1_ESt14is_convertibleINSt10unique_ptrISA_T0_E7pointerESC_ESt21is_move_constructibleISG_EEE5valueERS4_E4typeEOSH_ = comdat any

$_ZNSt12__shared_ptrIN5arrow15ResizableBufferELN9__gnu_cxx12_Lock_policyE2EEC2IS1_St14default_deleteIS1_EvEEOSt10unique_ptrIT_T0_E = comdat any

$_ZNSt12__shared_ptrIN5arrow15ResizableBufferELN9__gnu_cxx12_Lock_policyE2EE4swapERS4_ = comdat any

$_ZNSt12__shared_ptrIN5arrow15ResizableBufferELN9__gnu_cxx12_Lock_policyE2EED2Ev = comdat any

$_ZNKSt10unique_ptrIN5arrow15ResizableBufferESt14default_deleteIS1_EE3getEv = comdat any

$_ZSt12__to_addressIN5arrow15ResizableBufferEEPT_S3_ = comdat any

$_ZNSt14__shared_countILN9__gnu_cxx12_Lock_policyE2EEC2IN5arrow15ResizableBufferESt14default_deleteIS5_EEEOSt10unique_ptrIT_T0_E = comdat any

$_ZNSt14__shared_countILN9__gnu_cxx12_Lock_policyE2EEaSERKS2_ = comdat any

$_ZNSt12__shared_ptrIN5arrow15ResizableBufferELN9__gnu_cxx12_Lock_policyE2EE31_M_enable_shared_from_this_withIS1_S1_EENSt9enable_ifIXntsr15__has_esft_baseIT0_EE5valueEvE4typeEPT_ = comdat any

$_ZNKSt15__uniq_ptr_implIN5arrow15ResizableBufferESt14default_deleteIS1_EE6_M_ptrEv = comdat any

$_ZSt3getILm0EJPN5arrow15ResizableBufferESt14default_deleteIS1_EEERKNSt13tuple_elementIXT_ESt5tupleIJDpT0_EEE4typeERKS9_ = comdat any

$_ZSt12__get_helperILm0EPN5arrow15ResizableBufferEJSt14default_deleteIS1_EEERKT0_RKSt11_Tuple_implIXT_EJS5_DpT1_EE = comdat any

$_ZNSt11_Tuple_implILm0EJPN5arrow15ResizableBufferESt14default_deleteIS1_EEE7_M_headERKS5_ = comdat any

$_ZNSt10_Head_baseILm0EPN5arrow15ResizableBufferELb0EE7_M_headERKS3_ = comdat any

$_ZNSaISt19_Sp_counted_deleterIPN5arrow15ResizableBufferESt14default_deleteIS1_ESaIvELN9__gnu_cxx12_Lock_policyE2EEEC2Ev = comdat any

$_ZNSt16allocator_traitsISaISt19_Sp_counted_deleterIPN5arrow15ResizableBufferESt14default_deleteIS2_ESaIvELN9__gnu_cxx12_Lock_policyE2EEEE8allocateERSA_m = comdat any

$_ZNSt16allocator_traitsISaISt19_Sp_counted_deleterIPN5arrow15ResizableBufferESt14default_deleteIS2_ESaIvELN9__gnu_cxx12_Lock_policyE2EEEE9constructIS9_JS3_S5_EEEvRSA_PT_DpOT0_ = comdat any

$_ZNSt10unique_ptrIN5arrow15ResizableBufferESt14default_deleteIS1_EE7releaseEv = comdat any

$_ZNSt10unique_ptrIN5arrow15ResizableBufferESt14default_deleteIS1_EE11get_deleterEv = comdat any

$_ZNSaISt19_Sp_counted_deleterIPN5arrow15ResizableBufferESt14default_deleteIS1_ESaIvELN9__gnu_cxx12_Lock_policyE2EEED2Ev = comdat any

$_ZNSt15__new_allocatorISt19_Sp_counted_deleterIPN5arrow15ResizableBufferESt14default_deleteIS2_ESaIvELN9__gnu_cxx12_Lock_policyE2EEEC2Ev = comdat any

$_ZNSt15__new_allocatorISt19_Sp_counted_deleterIPN5arrow15ResizableBufferESt14default_deleteIS2_ESaIvELN9__gnu_cxx12_Lock_policyE2EEE8allocateEmPKv = comdat any

$_ZNKSt15__new_allocatorISt19_Sp_counted_deleterIPN5arrow15ResizableBufferESt14default_deleteIS2_ESaIvELN9__gnu_cxx12_Lock_policyE2EEE11_M_max_sizeEv = comdat any

$_ZNSt15__new_allocatorISt19_Sp_counted_deleterIPN5arrow15ResizableBufferESt14default_deleteIS2_ESaIvELN9__gnu_cxx12_Lock_policyE2EEE9constructIS9_JS3_S5_EEEvPT_DpOT0_ = comdat any

$_ZNSt19_Sp_counted_deleterIPN5arrow15ResizableBufferESt14default_deleteIS1_ESaIvELN9__gnu_cxx12_Lock_policyE2EEC2ES2_S4_ = comdat any

$_ZNSt19_Sp_counted_deleterIPN5arrow15ResizableBufferESt14default_deleteIS1_ESaIvELN9__gnu_cxx12_Lock_policyE2EE5_ImplC2ES2_S4_RKS5_ = comdat any

$_ZNSt19_Sp_counted_deleterIPN5arrow15ResizableBufferESt14default_deleteIS1_ESaIvELN9__gnu_cxx12_Lock_policyE2EED2Ev = comdat any

$_ZNSt19_Sp_counted_deleterIPN5arrow15ResizableBufferESt14default_deleteIS1_ESaIvELN9__gnu_cxx12_Lock_policyE2EED0Ev = comdat any

$_ZNSt19_Sp_counted_deleterIPN5arrow15ResizableBufferESt14default_deleteIS1_ESaIvELN9__gnu_cxx12_Lock_policyE2EE10_M_disposeEv = comdat any

$_ZNSt19_Sp_counted_deleterIPN5arrow15ResizableBufferESt14default_deleteIS1_ESaIvELN9__gnu_cxx12_Lock_policyE2EE10_M_destroyEv = comdat any

$_ZNSt19_Sp_counted_deleterIPN5arrow15ResizableBufferESt14default_deleteIS1_ESaIvELN9__gnu_cxx12_Lock_policyE2EE14_M_get_deleterERKSt9type_info = comdat any

$_ZNSt14_Sp_ebo_helperILi0ESt14default_deleteIN5arrow15ResizableBufferEELb1EEC2EOS3_ = comdat any

$_ZNSt14_Sp_ebo_helperILi1ESaIvELb1EEC2ERKS0_ = comdat any

$_ZNSt19_Sp_counted_deleterIPN5arrow15ResizableBufferESt14default_deleteIS1_ESaIvELN9__gnu_cxx12_Lock_policyE2EE5_Impl6_M_delEv = comdat any

$_ZNKSt14default_deleteIN5arrow15ResizableBufferEEclEPS1_ = comdat any

$_ZNSt14_Sp_ebo_helperILi0ESt14default_deleteIN5arrow15ResizableBufferEELb1EE6_S_getERS4_ = comdat any

$_ZNSt19_Sp_counted_deleterIPN5arrow15ResizableBufferESt14default_deleteIS1_ESaIvELN9__gnu_cxx12_Lock_policyE2EE5_Impl8_M_allocEv = comdat any

$_ZNSaISt19_Sp_counted_deleterIPN5arrow15ResizableBufferESt14default_deleteIS1_ESaIvELN9__gnu_cxx12_Lock_policyE2EEEC2IvEERKSaIT_E = comdat any

$_ZNSt15__allocated_ptrISaISt19_Sp_counted_deleterIPN5arrow15ResizableBufferESt14default_deleteIS2_ESaIvELN9__gnu_cxx12_Lock_policyE2EEEEC2ERSA_PS9_ = comdat any

$_ZNSt15__allocated_ptrISaISt19_Sp_counted_deleterIPN5arrow15ResizableBufferESt14default_deleteIS2_ESaIvELN9__gnu_cxx12_Lock_policyE2EEEED2Ev = comdat any

$_ZNSt14_Sp_ebo_helperILi1ESaIvELb1EE6_S_getERS1_ = comdat any

$_ZNSt16allocator_traitsISaISt19_Sp_counted_deleterIPN5arrow15ResizableBufferESt14default_deleteIS2_ESaIvELN9__gnu_cxx12_Lock_policyE2EEEE10deallocateERSA_PS9_m = comdat any

$_ZNSt15__new_allocatorISt19_Sp_counted_deleterIPN5arrow15ResizableBufferESt14default_deleteIS2_ESaIvELN9__gnu_cxx12_Lock_policyE2EEE10deallocateEPS9_m = comdat any

$_ZNSt15__uniq_ptr_implIN5arrow15ResizableBufferESt14default_deleteIS1_EE7releaseEv = comdat any

$_ZNSt15__uniq_ptr_implIN5arrow15ResizableBufferESt14default_deleteIS1_EE10_M_deleterEv = comdat any

$_ZSt3getILm1EJPN5arrow15ResizableBufferESt14default_deleteIS1_EEERNSt13tuple_elementIXT_ESt5tupleIJDpT0_EEE4typeERS9_ = comdat any

$_ZSt12__get_helperILm1ESt14default_deleteIN5arrow15ResizableBufferEEJEERT0_RSt11_Tuple_implIXT_EJS4_DpT1_EE = comdat any

$_ZNSt11_Tuple_implILm1EJSt14default_deleteIN5arrow15ResizableBufferEEEE7_M_headERS4_ = comdat any

$_ZNSt10_Head_baseILm1ESt14default_deleteIN5arrow15ResizableBufferEELb1EE7_M_headERS4_ = comdat any

$_ZNSt15__new_allocatorISt19_Sp_counted_deleterIPN5arrow15ResizableBufferESt14default_deleteIS2_ESaIvELN9__gnu_cxx12_Lock_policyE2EEED2Ev = comdat any

$_ZSt4swapIPN5arrow15ResizableBufferEENSt9enable_ifIXsr6__and_ISt6__not_ISt15__is_tuple_likeIT_EESt21is_move_constructibleIS6_ESt18is_move_assignableIS6_EEE5valueEvE4typeERS6_SF_ = comdat any

$_ZNSt14__shared_countILN9__gnu_cxx12_Lock_policyE2EE7_M_swapERS2_ = comdat any

$_ZN5arrow6ResultISt10unique_ptrINS_15ResizableBufferESt14default_deleteIS2_EEE7DestroyEv = comdat any

$_ZN5arrow4util18EqualityComparableINS_6ResultISt10unique_ptrINS_15ResizableBufferESt14default_deleteIS4_EEEEED2Ev = comdat any

$_ZN5arrow8internal14AlignedStorageISt10unique_ptrINS_15ResizableBufferESt14default_deleteIS3_EEE7destroyEv = comdat any

$_ZNKSt19__shared_ptr_accessIN5arrow15ResizableBufferELN9__gnu_cxx12_Lock_policyE2ELb0ELb0EE6_M_getEv = comdat any

$_ZNKSt12__shared_ptrIN5arrow15ResizableBufferELN9__gnu_cxx12_Lock_policyE2EE3getEv = comdat any

$_ZN5arrow18TypedBufferBuilderImvE5ResetEv = comdat any

$_ZN5arrow13BufferBuilder5ResetEv = comdat any

$_ZNSt10shared_ptrIN5arrow15ResizableBufferEEC2EDn = comdat any

$_ZNSt10shared_ptrIN5arrow15ResizableBufferEEaSEOS2_ = comdat any

$_ZNSt12__shared_ptrIN5arrow15ResizableBufferELN9__gnu_cxx12_Lock_policyE2EEaSEOS4_ = comdat any

$_ZNSt12__shared_ptrIN5arrow15ResizableBufferELN9__gnu_cxx12_Lock_policyE2EEC2EOS4_ = comdat any

$_ZN5arrow18TypedBufferBuilderImvE12UnsafeAppendEm = comdat any

$_ZN5arrow12ArrayBuilder20UnsafeAppendToBitmapEb = comdat any

$_ZN5arrow13BufferBuilder12UnsafeAppendEPKvl = comdat any

$_ZN5arrow18TypedBufferBuilderIbvE12UnsafeAppendEb = comdat any

$_ZN5arrow18TypedBufferBuilderIbvE12mutable_dataEv = comdat any

$_ZN5arrow13BufferBuilder12mutable_dataEv = comdat any

$_ZN5arrow18TypedBufferBuilderImvE12UnsafeAppendElm = comdat any

$_ZN5arrow18TypedBufferBuilderImvE12mutable_dataEv = comdat any

$_ZNK5arrow18TypedBufferBuilderImvE6lengthEv = comdat any

$_ZN5arrow13BufferBuilder13UnsafeAdvanceEl = comdat any

$_ZSt4fillIPmmEvT_S1_RKT0_ = comdat any

$_ZNK5arrow13BufferBuilder6lengthEv = comdat any

$_ZSt8__fill_aIPmmEvT_S1_RKT0_ = comdat any

$_ZSt9__fill_a1IPmmEN9__gnu_cxx11__enable_ifIXsr11__is_scalarIT0_EE7__valueEvE6__typeET_S6_RKS3_ = comdat any

$_ZN5arrow14NumericBuilderINS_10UInt64TypeEE12AppendValuesEPKmlPKhl = comdat any

$_ZNK5arrow9ArraySpan9GetValuesImEEPKT_i = comdat any

$_ZNK5arrow9ArraySpan9GetValuesIhEEPKT_il = comdat any

$_ZN5arrow18TypedBufferBuilderImvE12UnsafeAppendEPKml = comdat any

$_ZN5arrow12ArrayBuilder20UnsafeAppendToBitmapEPKhll = comdat any

$_ZN5arrow18TypedBufferBuilderIbvE12UnsafeAppendEPKhll = comdat any

$_ZNK5arrow18TypedBufferBuilderIbvE11false_countEv = comdat any

$_ZNK5arrow9ArraySpan9GetValuesImEEPKT_il = comdat any

$_ZNK5arrow12ArrayBuilder8capacityEv = comdat any

$_ZN5arrow13BufferBuilder12GrowByFactorEll = comdat any

$_ZNK5arrow8DataType2idEv = comdat any

$_ZN5arrow8internal12checked_castIRKNS_8NullTypeERKNS_8DataTypeEEET_OT0_ = comdat any

$_ZN5arrow8internal12checked_castIRKNS_11BooleanTypeERKNS_8DataTypeEEET_OT0_ = comdat any

$_ZN5arrow8internal12checked_castIRKNS_8Int8TypeERKNS_8DataTypeEEET_OT0_ = comdat any

$_ZN5arrow8internal12checked_castIRKNS_9UInt8TypeERKNS_8DataTypeEEET_OT0_ = comdat any

$_ZN5arrow8internal12checked_castIRKNS_9Int16TypeERKNS_8DataTypeEEET_OT0_ = comdat any

$_ZN5arrow8internal12checked_castIRKNS_10UInt16TypeERKNS_8DataTypeEEET_OT0_ = comdat any

$_ZN5arrow8internal12checked_castIRKNS_9Int32TypeERKNS_8DataTypeEEET_OT0_ = comdat any

$_ZN5arrow8internal12checked_castIRKNS_10UInt32TypeERKNS_8DataTypeEEET_OT0_ = comdat any

$_ZN5arrow8internal12checked_castIRKNS_9Int64TypeERKNS_8DataTypeEEET_OT0_ = comdat any

$_ZN5arrow8internal12checked_castIRKNS_10UInt64TypeERKNS_8DataTypeEEET_OT0_ = comdat any

$_ZN5arrow8internal12checked_castIRKNS_13HalfFloatTypeERKNS_8DataTypeEEET_OT0_ = comdat any

$_ZN5arrow8internal12checked_castIRKNS_9FloatTypeERKNS_8DataTypeEEET_OT0_ = comdat any

$_ZN5arrow8internal12checked_castIRKNS_10DoubleTypeERKNS_8DataTypeEEET_OT0_ = comdat any

$_ZN5arrow8internal12checked_castIRKNS_10StringTypeERKNS_8DataTypeEEET_OT0_ = comdat any

$_ZN5arrow8internal12checked_castIRKNS_14StringViewTypeERKNS_8DataTypeEEET_OT0_ = comdat any

$_ZN5arrow8internal12checked_castIRKNS_10BinaryTypeERKNS_8DataTypeEEET_OT0_ = comdat any

$_ZN5arrow8internal12checked_castIRKNS_14BinaryViewTypeERKNS_8DataTypeEEET_OT0_ = comdat any

$_ZN5arrow8internal12checked_castIRKNS_15LargeStringTypeERKNS_8DataTypeEEET_OT0_ = comdat any

$_ZN5arrow8internal12checked_castIRKNS_15LargeBinaryTypeERKNS_8DataTypeEEET_OT0_ = comdat any

$_ZN5arrow8internal12checked_castIRKNS_19FixedSizeBinaryTypeERKNS_8DataTypeEEET_OT0_ = comdat any

$_ZN5arrow8internal12checked_castIRKNS_12DurationTypeERKNS_8DataTypeEEET_OT0_ = comdat any

$_ZN5arrow8internal12checked_castIRKNS_10Date32TypeERKNS_8DataTypeEEET_OT0_ = comdat any

$_ZN5arrow8internal12checked_castIRKNS_10Date64TypeERKNS_8DataTypeEEET_OT0_ = comdat any

$_ZN5arrow8internal12checked_castIRKNS_13TimestampTypeERKNS_8DataTypeEEET_OT0_ = comdat any

$_ZN5arrow8internal12checked_castIRKNS_10Time32TypeERKNS_8DataTypeEEET_OT0_ = comdat any

$_ZN5arrow8internal12checked_castIRKNS_10Time64TypeERKNS_8DataTypeEEET_OT0_ = comdat any

$_ZN5arrow8internal12checked_castIRKNS_24MonthDayNanoIntervalTypeERKNS_8DataTypeEEET_OT0_ = comdat any

$_ZN5arrow8internal12checked_castIRKNS_17MonthIntervalTypeERKNS_8DataTypeEEET_OT0_ = comdat any

$_ZN5arrow8internal12checked_castIRKNS_19DayTimeIntervalTypeERKNS_8DataTypeEEET_OT0_ = comdat any

$_ZN5arrow8internal12checked_castIRKNS_14Decimal128TypeERKNS_8DataTypeEEET_OT0_ = comdat any

$_ZN5arrow8internal12checked_castIRKNS_14Decimal256TypeERKNS_8DataTypeEEET_OT0_ = comdat any

$_ZN5arrow8internal12checked_castIRKNS_8ListTypeERKNS_8DataTypeEEET_OT0_ = comdat any

$_ZN5arrow8internal12checked_castIRKNS_13LargeListTypeERKNS_8DataTypeEEET_OT0_ = comdat any

$_ZN5arrow8internal12checked_castIRKNS_12ListViewTypeERKNS_8DataTypeEEET_OT0_ = comdat any

$_ZN5arrow8internal12checked_castIRKNS_17LargeListViewTypeERKNS_8DataTypeEEET_OT0_ = comdat any

$_ZN5arrow8internal12checked_castIRKNS_7MapTypeERKNS_8DataTypeEEET_OT0_ = comdat any

$_ZN5arrow8internal12checked_castIRKNS_17FixedSizeListTypeERKNS_8DataTypeEEET_OT0_ = comdat any

$_ZN5arrow8internal12checked_castIRKNS_10StructTypeERKNS_8DataTypeEEET_OT0_ = comdat any

$_ZN5arrow8internal12checked_castIRKNS_15SparseUnionTypeERKNS_8DataTypeEEET_OT0_ = comdat any

$_ZN5arrow8internal12checked_castIRKNS_14DenseUnionTypeERKNS_8DataTypeEEET_OT0_ = comdat any

$_ZN5arrow8internal12checked_castIRKNS_14DictionaryTypeERKNS_8DataTypeEEET_OT0_ = comdat any

$_ZN5arrow8internal12checked_castIRKNS_17RunEndEncodedTypeERKNS_8DataTypeEEET_OT0_ = comdat any

$_ZN5arrow8internal12checked_castIRKNS_13ExtensionTypeERKNS_8DataTypeEEET_OT0_ = comdat any

$_ZN5arrow6Status14NotImplementedIJRA21_KcEEES0_DpOT_ = comdat any

$_ZN5arrow6Status14NotImplementedIJNSt7__cxx1112basic_stringIcSt11char_traitsIcESaIcEEEEEES0_DpOT_ = comdat any

$_ZN5arrow6Status8FromArgsIJNSt7__cxx1112basic_stringIcSt11char_traitsIcESaIcEEEEEES0_NS_10StatusCodeEDpOT_ = comdat any

$_ZN5arrow4util13StringBuilderIJNSt7__cxx1112basic_stringIcSt11char_traitsIcESaIcEEEEEES7_DpOT_ = comdat any

$_ZN5arrow4util22StringBuilderRecursiveINSt7__cxx1112basic_stringIcSt11char_traitsIcESaIcEEEEEvRSoOT_ = comdat any

$_ZNKSt6vectorIN5arrow9ArraySpanESaIS1_EE5beginEv = comdat any

$_ZNKSt6vectorIN5arrow9ArraySpanESaIS1_EE3endEv = comdat any

$_ZN9__gnu_cxxneIPKN5arrow9ArraySpanESt6vectorIS2_SaIS2_EEEEbRKNS_17__normal_iteratorIT_T0_EESD_ = comdat any

$_ZNK9__gnu_cxx17__normal_iteratorIPKN5arrow9ArraySpanESt6vectorIS2_SaIS2_EEEdeEv = comdat any

$_ZN9__gnu_cxx17__normal_iteratorIPKN5arrow9ArraySpanESt6vectorIS2_SaIS2_EEEppEv = comdat any

$_ZN9__gnu_cxx17__normal_iteratorIPKN5arrow9ArraySpanESt6vectorIS2_SaIS2_EEEC2ERKS4_ = comdat any

$_ZNK9__gnu_cxx17__normal_iteratorIPKN5arrow9ArraySpanESt6vectorIS2_SaIS2_EEE4baseEv = comdat any

$_ZN5arrow8internal23OptionalBitBlockCounter9NextBlockEv = comdat any

$_ZNK5arrow8internal13BitBlockCount6AllSetEv = comdat any

$_ZNK5arrow8internal13BitBlockCount7NoneSetEv = comdat any

$_ZN5arrow8internal15BitBlockCounter8NextWordEv = comdat any

$_ZSt3minIlERKT_S2_S2_ = comdat any

$_ZN5arrow8internal6detail8LoadWordEPKh = comdat any

$_ZN5arrow8internal6detail9ShiftWordEmml = comdat any

$_ZN5arrow4util10SafeLoadAsImEENSt9enable_ifIXsr3stdE23is_trivially_copyable_vIT_EES3_E4typeEPKh = comdat any

$_ZN5arrow7compute8internal11GetViewTypeINS_11BooleanTypeEvE12LogicalValueEb = comdat any

$_ZN5arrow14NumericBuilderINS_10UInt64TypeEE12UnsafeAppendEm = comdat any

$_ZNK5arrow9ArraySpan9GetValuesIaEEPKT_i = comdat any

$_ZNK5arrow9ArraySpan9GetValuesIaEEPKT_il = comdat any

$_ZN5arrow7compute8internal11GetViewTypeINS_8Int8TypeEvE12LogicalValueEa = comdat any

$_ZNK5arrow9ArraySpan9GetValuesIhEEPKT_i = comdat any

$_ZN5arrow7compute8internal11GetViewTypeINS_9UInt8TypeEvE12LogicalValueEh = comdat any

$_ZNK5arrow9ArraySpan9GetValuesIsEEPKT_i = comdat any

$_ZNK5arrow9ArraySpan9GetValuesIsEEPKT_il = comdat any

$_ZN5arrow7compute8internal11GetViewTypeINS_9Int16TypeEvE12LogicalValueEs = comdat any

$_ZNK5arrow9ArraySpan9GetValuesItEEPKT_i = comdat any

$_ZNK5arrow9ArraySpan9GetValuesItEEPKT_il = comdat any

$_ZN5arrow7compute8internal11GetViewTypeINS_10UInt16TypeEvE12LogicalValueEt = comdat any

$_ZNK5arrow9ArraySpan9GetValuesIiEEPKT_i = comdat any

$_ZNK5arrow9ArraySpan9GetValuesIiEEPKT_il = comdat any

$_ZN5arrow7compute8internal11GetViewTypeINS_9Int32TypeEvE12LogicalValueEi = comdat any

$_ZNK5arrow9ArraySpan9GetValuesIjEEPKT_i = comdat any

$_ZNK5arrow9ArraySpan9GetValuesIjEEPKT_il = comdat any

$_ZN5arrow7compute8internal11GetViewTypeINS_10UInt32TypeEvE12LogicalValueEj = comdat any

$_ZNK5arrow9ArraySpan9GetValuesIlEEPKT_i = comdat any

$_ZNK5arrow9ArraySpan9GetValuesIlEEPKT_il = comdat any

$_ZN5arrow7compute8internal11GetViewTypeINS_9Int64TypeEvE12LogicalValueEl = comdat any

$_ZN5arrow7compute8internal11GetViewTypeINS_10UInt64TypeEvE12LogicalValueEm = comdat any

$_ZN5arrow7compute8internal11GetViewTypeINS_13HalfFloatTypeEvE12LogicalValueEt = comdat any

$_ZNK5arrow9ArraySpan9GetValuesIfEEPKT_i = comdat any

$_ZNK5arrow9ArraySpan9GetValuesIfEEPKT_il = comdat any

$_ZN5arrow7compute8internal11GetViewTypeINS_9FloatTypeEvE12LogicalValueEf = comdat any

$_ZNK5arrow9ArraySpan9GetValuesIdEEPKT_i = comdat any

$_ZNK5arrow9ArraySpan9GetValuesIdEEPKT_il = comdat any

$_ZN5arrow7compute8internal11GetViewTypeINS_10DoubleTypeEvE12LogicalValueEd = comdat any

$_ZN5arrow10Decimal128C2Ev = comdat any

$_ZN5arrow15BasicDecimal128C2Ev = comdat any

$_ZN5arrow19GenericBasicDecimalINS_15BasicDecimal128ELi128ELi2EEC2Ev = comdat any

$_ZNK5arrow9ArraySpan9GetValuesIcEEPKT_il = comdat any

$_ZNSt17basic_string_viewIcSt11char_traitsIcEEC2EPKcm = comdat any

$_ZN5arrow7compute8internal11GetViewTypeINS_14Decimal128TypeEvE12LogicalValueESt17basic_string_viewIcSt11char_traitsIcEE = comdat any

$_ZN5arrowneERKNS_19GenericBasicDecimalINS_15BasicDecimal128ELi128ELi2EEES4_ = comdat any

$_ZStneImLm2EEbRKSt5arrayIT_XT0_EES4_ = comdat any

$_ZSteqImLm2EEbRKSt5arrayIT_XT0_EES4_ = comdat any

$_ZSt5equalIPKmS1_EbT_S2_T0_ = comdat any

$_ZNKSt5arrayImLm2EE5beginEv = comdat any

$_ZNKSt5arrayImLm2EE3endEv = comdat any

$_ZSt11__equal_auxIPKmS1_EbT_S2_T0_ = comdat any

$_ZSt12__equal_aux1IPKmS1_EbT_S2_T0_ = comdat any

$_ZSt12__niter_baseIPKmET_S2_ = comdat any

$_ZNSt7__equalILb1EE5equalImEEbPKT_S4_S4_ = comdat any

$_ZSt8__memcmpImmEiPKT_PKT0_m = comdat any

$_ZNKSt5arrayImLm2EE4dataEv = comdat any

$_ZNSt14__array_traitsImLm2EE6_S_ptrERA2_Km = comdat any

$_ZNKSt17basic_string_viewIcSt11char_traitsIcEE4dataEv = comdat any

$_ZN5arrow10Decimal128CI2NS_19GenericBasicDecimalINS_15BasicDecimal128ELi128ELi2EEEEPKh = comdat any

$_ZN5arrow15BasicDecimal128CI2NS_19GenericBasicDecimalIS0_Li128ELi2EEEEPKh = comdat any

$_ZN5arrow19GenericBasicDecimalINS_15BasicDecimal128ELi128ELi2EEC2EPKh = comdat any

$_ZNSt5arrayImLm2EE4dataEv = comdat any

$_ZN5arrow10Decimal256C2Ev = comdat any

$_ZN5arrow15BasicDecimal256C2Ev = comdat any

$_ZN5arrow19GenericBasicDecimalINS_15BasicDecimal256ELi256ELi4EEC2Ev = comdat any

$_ZN5arrow7compute8internal11GetViewTypeINS_14Decimal256TypeEvE12LogicalValueESt17basic_string_viewIcSt11char_traitsIcEE = comdat any

$_ZN5arrowneERKNS_19GenericBasicDecimalINS_15BasicDecimal256ELi256ELi4EEES4_ = comdat any

$_ZStneImLm4EEbRKSt5arrayIT_XT0_EES4_ = comdat any

$_ZSteqImLm4EEbRKSt5arrayIT_XT0_EES4_ = comdat any

$_ZNKSt5arrayImLm4EE5beginEv = comdat any

$_ZNKSt5arrayImLm4EE3endEv = comdat any

$_ZNKSt5arrayImLm4EE4dataEv = comdat any

$_ZNSt14__array_traitsImLm4EE6_S_ptrERA4_Km = comdat any

$_ZN5arrow10Decimal256CI2NS_19GenericBasicDecimalINS_15BasicDecimal256ELi256ELi4EEEEPKh = comdat any

$_ZN5arrow15BasicDecimal256CI2NS_19GenericBasicDecimalIS0_Li256ELi4EEEEPKh = comdat any

$_ZN5arrow19GenericBasicDecimalINS_15BasicDecimal256ELi256ELi4EEC2EPKh = comdat any

$_ZNSt5arrayImLm4EE4dataEv = comdat any

$_ZN5arrow6Status8FromArgsIJRA21_KcEEES0_NS_10StatusCodeEDpOT_ = comdat any

$_ZN5arrow4util13StringBuilderIJRA21_KcEEENSt7__cxx1112basic_stringIcSt11char_traitsIcESaIcEEEDpOT_ = comdat any

$_ZN5arrow4util22StringBuilderRecursiveIRA21_KcEEvRSoOT_ = comdat any

$_ZN5arrow18TypedBufferBuilderIbvE16FinishWithLengthElb = comdat any

$_ZNK5arrow6ResultISt10shared_ptrINS_6BufferEEE2okEv = comdat any

$_ZNK5arrow6ResultISt10shared_ptrINS_6BufferEEE6statusEv = comdat any

$_ZNO5arrow6ResultISt10shared_ptrINS_6BufferEEE11ValueUnsafeEv = comdat any

$_ZN5arrow18TypedBufferBuilderImvE16FinishWithLengthElb = comdat any

$_ZNSt10shared_ptrIN5arrow6BufferEEC2ERKS2_ = comdat any

$_ZNSaISt10shared_ptrIN5arrow6BufferEEEC2Ev = comdat any

$_ZNSt6vectorISt10shared_ptrIN5arrow6BufferEESaIS3_EEC2ESt16initializer_listIS3_ERKS4_ = comdat any

$_ZNSt10shared_ptrIN5arrow9ArrayDataEEaSEOS2_ = comdat any

$_ZNSt6vectorISt10shared_ptrIN5arrow6BufferEESaIS3_EED2Ev = comdat any

$_ZNSaISt10shared_ptrIN5arrow6BufferEEED2Ev = comdat any

$_ZNSt10shared_ptrIN5arrow6BufferEED2Ev = comdat any

$_ZN5arrow6ResultISt10shared_ptrINS_6BufferEEED2Ev = comdat any

$_ZN5arrow8bit_util12BytesForBitsEl = comdat any

$_ZN5arrow13BufferBuilder16FinishWithLengthElb = comdat any

$_ZN5arrow13BufferBuilder6FinishEb = comdat any

$_ZNSt10shared_ptrIN5arrow6BufferEEC2Ev = comdat any

$_ZN5arrow13BufferBuilder6FinishEPSt10shared_ptrINS_6BufferEEb = comdat any

$_ZN5arrow6ResultISt10shared_ptrINS_6BufferEEEC2ERKNS_6StatusE = comdat any

$_ZN5arrow6ResultISt10shared_ptrINS_6BufferEEEC2EOS3_ = comdat any

$_ZNSt12__shared_ptrIN5arrow6BufferELN9__gnu_cxx12_Lock_policyE2EEC2Ev = comdat any

$_ZN5arrow6Buffer11ZeroPaddingEv = comdat any

$_ZNSt10shared_ptrIN5arrow6BufferEEaSINS0_15ResizableBufferEEENSt9enable_ifIXsr13is_assignableIRSt12__shared_ptrIS1_LN9__gnu_cxx12_Lock_policyE2EERKS_IT_EEE5valueERS2_E4typeESE_ = comdat any

$_ZSteqIN5arrow6BufferEEbRKSt10shared_ptrIT_EDn = comdat any

$_ZNK5arrow6ResultISt10unique_ptrINS_6BufferESt14default_deleteIS2_EEE2okEv = comdat any

$_ZNK5arrow6ResultISt10unique_ptrINS_6BufferESt14default_deleteIS2_EEE6statusEv = comdat any

$_ZNO5arrow6ResultISt10unique_ptrINS_6BufferESt14default_deleteIS2_EEE11ValueUnsafeEv = comdat any

$_ZNSt10shared_ptrIN5arrow6BufferEEaSIS1_St14default_deleteIS1_EEENSt9enable_ifIXsr13is_assignableIRSt12__shared_ptrIS1_LN9__gnu_cxx12_Lock_policyE2EESt10unique_ptrIT_T0_EEE5valueERS2_E4typeEOSF_ = comdat any

$_ZNSt10unique_ptrIN5arrow6BufferESt14default_deleteIS1_EED2Ev = comdat any

$_ZN5arrow6ResultISt10unique_ptrINS_6BufferESt14default_deleteIS2_EEED2Ev = comdat any

$_ZNSt12__shared_ptrIN5arrow6BufferELN9__gnu_cxx12_Lock_policyE2EEaSINS0_15ResizableBufferEEENSt9enable_ifIXsr20__sp_compatible_withIPT_PS1_EE5valueERS4_E4typeERKS_IS8_LS3_2EE = comdat any

$_ZNKSt12__shared_ptrIN5arrow6BufferELN9__gnu_cxx12_Lock_policyE2EEcvbEv = comdat any

$_ZN5arrow6ResultISt10unique_ptrINS_6BufferESt14default_deleteIS2_EEE15MoveValueUnsafeEv = comdat any

$_ZN5arrow8internal14AlignedStorageISt10unique_ptrINS_6BufferESt14default_deleteIS3_EEE3getEv = comdat any

$_ZNSt10unique_ptrIN5arrow6BufferESt14default_deleteIS1_EEC2EOS4_ = comdat any

$_ZSt7launderISt10unique_ptrIN5arrow6BufferESt14default_deleteIS2_EEEPT_S7_ = comdat any

$_ZNSt15__uniq_ptr_dataIN5arrow6BufferESt14default_deleteIS1_ELb1ELb1EEC2EOS4_ = comdat any

$_ZNSt15__uniq_ptr_implIN5arrow6BufferESt14default_deleteIS1_EEC2EOS4_ = comdat any

$_ZNSt5tupleIJPN5arrow6BufferESt14default_deleteIS1_EEEC2EOS5_ = comdat any

$_ZNSt15__uniq_ptr_implIN5arrow6BufferESt14default_deleteIS1_EE6_M_ptrEv = comdat any

$_ZNSt11_Tuple_implILm0EJPN5arrow6BufferESt14default_deleteIS1_EEEC2EOS5_ = comdat any

$_ZNSt11_Tuple_implILm1EJSt14default_deleteIN5arrow6BufferEEEEC2EOS4_ = comdat any

$_ZSt3getILm0EJPN5arrow6BufferESt14default_deleteIS1_EEERNSt13tuple_elementIXT_ESt5tupleIJDpT0_EEE4typeERS9_ = comdat any

$_ZSt12__get_helperILm0EPN5arrow6BufferEJSt14default_deleteIS1_EEERT0_RSt11_Tuple_implIXT_EJS5_DpT1_EE = comdat any

$_ZNSt11_Tuple_implILm0EJPN5arrow6BufferESt14default_deleteIS1_EEE7_M_headERS5_ = comdat any

$_ZNSt10_Head_baseILm0EPN5arrow6BufferELb0EE7_M_headERS3_ = comdat any

$_ZNSt12__shared_ptrIN5arrow6BufferELN9__gnu_cxx12_Lock_policyE2EEaSIS1_St14default_deleteIS1_EEENSt9enable_ifIXsr6__and_ISt20__sp_compatible_withIPT_PS1_ESt14is_convertibleINSt10unique_ptrISA_T0_E7pointerESC_ESt21is_move_constructibleISG_EEE5valueERS4_E4typeEOSH_ = comdat any

$_ZNSt12__shared_ptrIN5arrow6BufferELN9__gnu_cxx12_Lock_policyE2EEC2IS1_St14default_deleteIS1_EvEEOSt10unique_ptrIT_T0_E = comdat any

$_ZNSt12__shared_ptrIN5arrow6BufferELN9__gnu_cxx12_Lock_policyE2EE4swapERS4_ = comdat any

$_ZNSt12__shared_ptrIN5arrow6BufferELN9__gnu_cxx12_Lock_policyE2EED2Ev = comdat any

$_ZNKSt10unique_ptrIN5arrow6BufferESt14default_deleteIS1_EE3getEv = comdat any

$_ZSt12__to_addressIN5arrow6BufferEEPT_S3_ = comdat any

$_ZNSt14__shared_countILN9__gnu_cxx12_Lock_policyE2EEC2IN5arrow6BufferESt14default_deleteIS5_EEEOSt10unique_ptrIT_T0_E = comdat any

$_ZNSt12__shared_ptrIN5arrow6BufferELN9__gnu_cxx12_Lock_policyE2EE31_M_enable_shared_from_this_withIS1_S1_EENSt9enable_ifIXntsr15__has_esft_baseIT0_EE5valueEvE4typeEPT_ = comdat any

$_ZNKSt15__uniq_ptr_implIN5arrow6BufferESt14default_deleteIS1_EE6_M_ptrEv = comdat any

$_ZSt3getILm0EJPN5arrow6BufferESt14default_deleteIS1_EEERKNSt13tuple_elementIXT_ESt5tupleIJDpT0_EEE4typeERKS9_ = comdat any

$_ZSt12__get_helperILm0EPN5arrow6BufferEJSt14default_deleteIS1_EEERKT0_RKSt11_Tuple_implIXT_EJS5_DpT1_EE = comdat any

$_ZNSt11_Tuple_implILm0EJPN5arrow6BufferESt14default_deleteIS1_EEE7_M_headERKS5_ = comdat any

$_ZNSt10_Head_baseILm0EPN5arrow6BufferELb0EE7_M_headERKS3_ = comdat any

$_ZNSaISt19_Sp_counted_deleterIPN5arrow6BufferESt14default_deleteIS1_ESaIvELN9__gnu_cxx12_Lock_policyE2EEEC2Ev = comdat any

$_ZNSt16allocator_traitsISaISt19_Sp_counted_deleterIPN5arrow6BufferESt14default_deleteIS2_ESaIvELN9__gnu_cxx12_Lock_policyE2EEEE8allocateERSA_m = comdat any

$_ZNSt16allocator_traitsISaISt19_Sp_counted_deleterIPN5arrow6BufferESt14default_deleteIS2_ESaIvELN9__gnu_cxx12_Lock_policyE2EEEE9constructIS9_JS3_S5_EEEvRSA_PT_DpOT0_ = comdat any

$_ZNSt10unique_ptrIN5arrow6BufferESt14default_deleteIS1_EE7releaseEv = comdat any

$_ZNSt10unique_ptrIN5arrow6BufferESt14default_deleteIS1_EE11get_deleterEv = comdat any

$_ZNSaISt19_Sp_counted_deleterIPN5arrow6BufferESt14default_deleteIS1_ESaIvELN9__gnu_cxx12_Lock_policyE2EEED2Ev = comdat any

$_ZNSt15__new_allocatorISt19_Sp_counted_deleterIPN5arrow6BufferESt14default_deleteIS2_ESaIvELN9__gnu_cxx12_Lock_policyE2EEEC2Ev = comdat any

$_ZNSt15__new_allocatorISt19_Sp_counted_deleterIPN5arrow6BufferESt14default_deleteIS2_ESaIvELN9__gnu_cxx12_Lock_policyE2EEE8allocateEmPKv = comdat any

$_ZNKSt15__new_allocatorISt19_Sp_counted_deleterIPN5arrow6BufferESt14default_deleteIS2_ESaIvELN9__gnu_cxx12_Lock_policyE2EEE11_M_max_sizeEv = comdat any

$_ZNSt15__new_allocatorISt19_Sp_counted_deleterIPN5arrow6BufferESt14default_deleteIS2_ESaIvELN9__gnu_cxx12_Lock_policyE2EEE9constructIS9_JS3_S5_EEEvPT_DpOT0_ = comdat any

$_ZNSt19_Sp_counted_deleterIPN5arrow6BufferESt14default_deleteIS1_ESaIvELN9__gnu_cxx12_Lock_policyE2EEC2ES2_S4_ = comdat any

$_ZNSt19_Sp_counted_deleterIPN5arrow6BufferESt14default_deleteIS1_ESaIvELN9__gnu_cxx12_Lock_policyE2EE5_ImplC2ES2_S4_RKS5_ = comdat any

$_ZNSt19_Sp_counted_deleterIPN5arrow6BufferESt14default_deleteIS1_ESaIvELN9__gnu_cxx12_Lock_policyE2EED2Ev = comdat any

$_ZNSt19_Sp_counted_deleterIPN5arrow6BufferESt14default_deleteIS1_ESaIvELN9__gnu_cxx12_Lock_policyE2EED0Ev = comdat any

$_ZNSt19_Sp_counted_deleterIPN5arrow6BufferESt14default_deleteIS1_ESaIvELN9__gnu_cxx12_Lock_policyE2EE10_M_disposeEv = comdat any

$_ZNSt19_Sp_counted_deleterIPN5arrow6BufferESt14default_deleteIS1_ESaIvELN9__gnu_cxx12_Lock_policyE2EE10_M_destroyEv = comdat any

$_ZNSt19_Sp_counted_deleterIPN5arrow6BufferESt14default_deleteIS1_ESaIvELN9__gnu_cxx12_Lock_policyE2EE14_M_get_deleterERKSt9type_info = comdat any

$_ZNSt14_Sp_ebo_helperILi0ESt14default_deleteIN5arrow6BufferEELb1EEC2EOS3_ = comdat any

$_ZNSt19_Sp_counted_deleterIPN5arrow6BufferESt14default_deleteIS1_ESaIvELN9__gnu_cxx12_Lock_policyE2EE5_Impl6_M_delEv = comdat any

$_ZNKSt14default_deleteIN5arrow6BufferEEclEPS1_ = comdat any

$_ZNSt14_Sp_ebo_helperILi0ESt14default_deleteIN5arrow6BufferEELb1EE6_S_getERS4_ = comdat any

$_ZNSt19_Sp_counted_deleterIPN5arrow6BufferESt14default_deleteIS1_ESaIvELN9__gnu_cxx12_Lock_policyE2EE5_Impl8_M_allocEv = comdat any

$_ZNSaISt19_Sp_counted_deleterIPN5arrow6BufferESt14default_deleteIS1_ESaIvELN9__gnu_cxx12_Lock_policyE2EEEC2IvEERKSaIT_E = comdat any

$_ZNSt15__allocated_ptrISaISt19_Sp_counted_deleterIPN5arrow6BufferESt14default_deleteIS2_ESaIvELN9__gnu_cxx12_Lock_policyE2EEEEC2ERSA_PS9_ = comdat any

$_ZNSt15__allocated_ptrISaISt19_Sp_counted_deleterIPN5arrow6BufferESt14default_deleteIS2_ESaIvELN9__gnu_cxx12_Lock_policyE2EEEED2Ev = comdat any

$_ZNSt16allocator_traitsISaISt19_Sp_counted_deleterIPN5arrow6BufferESt14default_deleteIS2_ESaIvELN9__gnu_cxx12_Lock_policyE2EEEE10deallocateERSA_PS9_m = comdat any

$_ZNSt15__new_allocatorISt19_Sp_counted_deleterIPN5arrow6BufferESt14default_deleteIS2_ESaIvELN9__gnu_cxx12_Lock_policyE2EEE10deallocateEPS9_m = comdat any

$_ZNSt15__uniq_ptr_implIN5arrow6BufferESt14default_deleteIS1_EE7releaseEv = comdat any

$_ZNSt15__uniq_ptr_implIN5arrow6BufferESt14default_deleteIS1_EE10_M_deleterEv = comdat any

$_ZSt3getILm1EJPN5arrow6BufferESt14default_deleteIS1_EEERNSt13tuple_elementIXT_ESt5tupleIJDpT0_EEE4typeERS9_ = comdat any

$_ZSt12__get_helperILm1ESt14default_deleteIN5arrow6BufferEEJEERT0_RSt11_Tuple_implIXT_EJS4_DpT1_EE = comdat any

$_ZNSt11_Tuple_implILm1EJSt14default_deleteIN5arrow6BufferEEEE7_M_headERS4_ = comdat any

$_ZNSt10_Head_baseILm1ESt14default_deleteIN5arrow6BufferEELb1EE7_M_headERS4_ = comdat any

$_ZNSt15__new_allocatorISt19_Sp_counted_deleterIPN5arrow6BufferESt14default_deleteIS2_ESaIvELN9__gnu_cxx12_Lock_policyE2EEED2Ev = comdat any

$_ZSt4swapIPN5arrow6BufferEENSt9enable_ifIXsr6__and_ISt6__not_ISt15__is_tuple_likeIT_EESt21is_move_constructibleIS6_ESt18is_move_assignableIS6_EEE5valueEvE4typeERS6_SF_ = comdat any

$_ZN5arrow6ResultISt10unique_ptrINS_6BufferESt14default_deleteIS2_EEE7DestroyEv = comdat any

$_ZN5arrow4util18EqualityComparableINS_6ResultISt10unique_ptrINS_6BufferESt14default_deleteIS4_EEEEED2Ev = comdat any

$_ZN5arrow8internal14AlignedStorageISt10unique_ptrINS_6BufferESt14default_deleteIS3_EEE7destroyEv = comdat any

$_ZStplIcSt11char_traitsIcESaIcEENSt7__cxx1112basic_stringIT_T0_T1_EEOS8_S9_ = comdat any

$_ZN5arrow6StatusC2Ev = comdat any

$_ZN5arrow6ResultISt10shared_ptrINS_6BufferEEE14ConstructValueIS3_EEvOT_ = comdat any

$_ZN5arrow8internal14AlignedStorageISt10shared_ptrINS_6BufferEEE9constructIJS4_EEEvDpOT_ = comdat any

$_ZNSt10shared_ptrIN5arrow6BufferEEC2EOS2_ = comdat any

$_ZNSt12__shared_ptrIN5arrow6BufferELN9__gnu_cxx12_Lock_policyE2EEC2EOS4_ = comdat any

$_ZN5arrow6ResultISt10shared_ptrINS_6BufferEEE15MoveValueUnsafeEv = comdat any

$_ZN5arrow8internal14AlignedStorageISt10shared_ptrINS_6BufferEEE3getEv = comdat any

$_ZSt7launderISt10shared_ptrIN5arrow6BufferEEEPT_S5_ = comdat any

$_ZNSt12__shared_ptrIN5arrow6BufferELN9__gnu_cxx12_Lock_policyE2EEC2ERKS4_ = comdat any

$_ZNSt15__new_allocatorISt10shared_ptrIN5arrow6BufferEEEC2Ev = comdat any

$_ZNSt12_Vector_baseISt10shared_ptrIN5arrow6BufferEESaIS3_EEC2ERKS4_ = comdat any

$_ZNSt6vectorISt10shared_ptrIN5arrow6BufferEESaIS3_EE19_M_range_initializeIPKS3_EEvT_S9_St20forward_iterator_tag = comdat any

$_ZNKSt16initializer_listISt10shared_ptrIN5arrow6BufferEEE5beginEv = comdat any

$_ZNKSt16initializer_listISt10shared_ptrIN5arrow6BufferEEE3endEv = comdat any

$_ZNSt12_Vector_baseISt10shared_ptrIN5arrow6BufferEESaIS3_EED2Ev = comdat any

$_ZNSt12_Vector_baseISt10shared_ptrIN5arrow6BufferEESaIS3_EE12_Vector_implC2ERKS4_ = comdat any

$_ZNSt12_Vector_baseISt10shared_ptrIN5arrow6BufferEESaIS3_EE17_Vector_impl_dataC2Ev = comdat any

$_ZNSt15__new_allocatorISt10shared_ptrIN5arrow6BufferEEEC2ERKS4_ = comdat any

$_ZSt8distanceIPKSt10shared_ptrIN5arrow6BufferEEENSt15iterator_traitsIT_E15difference_typeES7_S7_ = comdat any

$_ZNSt12_Vector_baseISt10shared_ptrIN5arrow6BufferEESaIS3_EE11_M_allocateEm = comdat any

$_ZNSt6vectorISt10shared_ptrIN5arrow6BufferEESaIS3_EE17_S_check_init_lenEmRKS4_ = comdat any

$_ZNSt12_Vector_baseISt10shared_ptrIN5arrow6BufferEESaIS3_EE19_M_get_Tp_allocatorEv = comdat any

$_ZSt22__uninitialized_copy_aIPKSt10shared_ptrIN5arrow6BufferEEPS3_S3_ET0_T_S8_S7_RSaIT1_E = comdat any

$_ZSt10__distanceIPKSt10shared_ptrIN5arrow6BufferEEENSt15iterator_traitsIT_E15difference_typeES7_S7_St26random_access_iterator_tag = comdat any

$_ZSt19__iterator_categoryIPKSt10shared_ptrIN5arrow6BufferEEENSt15iterator_traitsIT_E17iterator_categoryERKS7_ = comdat any

$_ZNSt16allocator_traitsISaISt10shared_ptrIN5arrow6BufferEEEE8allocateERS4_m = comdat any

$_ZNSt15__new_allocatorISt10shared_ptrIN5arrow6BufferEEE8allocateEmPKv = comdat any

$_ZNKSt15__new_allocatorISt10shared_ptrIN5arrow6BufferEEE11_M_max_sizeEv = comdat any

$_ZNSt6vectorISt10shared_ptrIN5arrow6BufferEESaIS3_EE11_S_max_sizeERKS4_ = comdat any

$_ZNSaISt10shared_ptrIN5arrow6BufferEEEC2ERKS3_ = comdat any

$_ZNSt16allocator_traitsISaISt10shared_ptrIN5arrow6BufferEEEE8max_sizeERKS4_ = comdat any

$_ZSt3minImERKT_S2_S2_ = comdat any

$_ZNKSt15__new_allocatorISt10shared_ptrIN5arrow6BufferEEE8max_sizeEv = comdat any

$_ZSt18uninitialized_copyIPKSt10shared_ptrIN5arrow6BufferEEPS3_ET0_T_S8_S7_ = comdat any

$_ZNSt20__uninitialized_copyILb0EE13__uninit_copyIPKSt10shared_ptrIN5arrow6BufferEEPS5_EET0_T_SA_S9_ = comdat any

$_ZSt16__do_uninit_copyIPKSt10shared_ptrIN5arrow6BufferEEPS3_ET0_T_S8_S7_ = comdat any

$_ZSt10_ConstructISt10shared_ptrIN5arrow6BufferEEJRKS3_EEvPT_DpOT0_ = comdat any

$_ZSt8_DestroyIPSt10shared_ptrIN5arrow6BufferEEEvT_S5_ = comdat any

$_ZNSt12_Destroy_auxILb0EE9__destroyIPSt10shared_ptrIN5arrow6BufferEEEEvT_S7_ = comdat any

$_ZSt8_DestroyISt10shared_ptrIN5arrow6BufferEEEvPT_ = comdat any

$_ZNKSt16initializer_listISt10shared_ptrIN5arrow6BufferEEE4sizeEv = comdat any

$_ZNSt12_Vector_baseISt10shared_ptrIN5arrow6BufferEESaIS3_EE13_M_deallocateEPS3_m = comdat any

$_ZNSt12_Vector_baseISt10shared_ptrIN5arrow6BufferEESaIS3_EE12_Vector_implD2Ev = comdat any

$_ZNSt16allocator_traitsISaISt10shared_ptrIN5arrow6BufferEEEE10deallocateERS4_PS3_m = comdat any

$_ZNSt15__new_allocatorISt10shared_ptrIN5arrow6BufferEEE10deallocateEPS3_m = comdat any

$_ZNSt15__new_allocatorISt10shared_ptrIN5arrow6BufferEEED2Ev = comdat any

$_ZNSt12__shared_ptrIN5arrow9ArrayDataELN9__gnu_cxx12_Lock_policyE2EEaSEOS4_ = comdat any

$_ZNSt12__shared_ptrIN5arrow9ArrayDataELN9__gnu_cxx12_Lock_policyE2EEC2EOS4_ = comdat any

$_ZNSt12__shared_ptrIN5arrow9ArrayDataELN9__gnu_cxx12_Lock_policyE2EE4swapERS4_ = comdat any

$_ZNSt12__shared_ptrIN5arrow9ArrayDataELN9__gnu_cxx12_Lock_policyE2EED2Ev = comdat any

$_ZSt4swapIPN5arrow9ArrayDataEENSt9enable_ifIXsr6__and_ISt6__not_ISt15__is_tuple_likeIT_EESt21is_move_constructibleIS6_ESt18is_move_assignableIS6_EEE5valueEvE4typeERS6_SF_ = comdat any

$_ZSt8_DestroyIPSt10shared_ptrIN5arrow6BufferEES3_EvT_S5_RSaIT0_E = comdat any

$_ZN5arrow6ResultISt10shared_ptrINS_6BufferEEE7DestroyEv = comdat any

$_ZN5arrow4util18EqualityComparableINS_6ResultISt10shared_ptrINS_6BufferEEEEED2Ev = comdat any

$_ZN5arrow8internal14AlignedStorageISt10shared_ptrINS_6BufferEEE7destroyEv = comdat any

$_ZN5arrow18TypedBufferBuilderImvED2Ev = comdat any

$_ZNKSt6vectorIN5arrow7compute9ExecValueESaIS2_EEixEm = comdat any

$_ZNSt6vectorIN5arrow9ArraySpanESaIS1_EEC2ERKS3_ = comdat any

$_ZNKSt6vectorIN5arrow9ArraySpanESaIS1_EE4sizeEv = comdat any

$_ZN9__gnu_cxx14__alloc_traitsISaIN5arrow9ArraySpanEES2_E17_S_select_on_copyERKS3_ = comdat any

$_ZNKSt12_Vector_baseIN5arrow9ArraySpanESaIS1_EE19_M_get_Tp_allocatorEv = comdat any

$_ZNSt12_Vector_baseIN5arrow9ArraySpanESaIS1_EEC2EmRKS2_ = comdat any

$_ZSt22__uninitialized_copy_aIN9__gnu_cxx17__normal_iteratorIPKN5arrow9ArraySpanESt6vectorIS3_SaIS3_EEEEPS3_S3_ET0_T_SC_SB_RSaIT1_E = comdat any

$_ZNSt12_Vector_baseIN5arrow9ArraySpanESaIS1_EE19_M_get_Tp_allocatorEv = comdat any

$_ZNSt12_Vector_baseIN5arrow9ArraySpanESaIS1_EED2Ev = comdat any

$_ZNSt16allocator_traitsISaIN5arrow9ArraySpanEEE37select_on_container_copy_constructionERKS2_ = comdat any

$_ZNSaIN5arrow9ArraySpanEEC2ERKS1_ = comdat any

$_ZNSt15__new_allocatorIN5arrow9ArraySpanEEC2ERKS2_ = comdat any

$_ZNSt12_Vector_baseIN5arrow9ArraySpanESaIS1_EE12_Vector_implC2ERKS2_ = comdat any

$_ZNSt12_Vector_baseIN5arrow9ArraySpanESaIS1_EE17_M_create_storageEm = comdat any

$_ZNSt12_Vector_baseIN5arrow9ArraySpanESaIS1_EE12_Vector_implD2Ev = comdat any

$_ZNSt12_Vector_baseIN5arrow9ArraySpanESaIS1_EE17_Vector_impl_dataC2Ev = comdat any

$_ZNSt12_Vector_baseIN5arrow9ArraySpanESaIS1_EE11_M_allocateEm = comdat any

$_ZNSt16allocator_traitsISaIN5arrow9ArraySpanEEE8allocateERS2_m = comdat any

$_ZNSt15__new_allocatorIN5arrow9ArraySpanEE8allocateEmPKv = comdat any

$_ZNKSt15__new_allocatorIN5arrow9ArraySpanEE11_M_max_sizeEv = comdat any

$_ZNSt15__new_allocatorIN5arrow9ArraySpanEED2Ev = comdat any

$_ZSt18uninitialized_copyIN9__gnu_cxx17__normal_iteratorIPKN5arrow9ArraySpanESt6vectorIS3_SaIS3_EEEEPS3_ET0_T_SC_SB_ = comdat any

$_ZNSt20__uninitialized_copyILb0EE13__uninit_copyIN9__gnu_cxx17__normal_iteratorIPKN5arrow9ArraySpanESt6vectorIS5_SaIS5_EEEEPS5_EET0_T_SE_SD_ = comdat any

$_ZSt16__do_uninit_copyIN9__gnu_cxx17__normal_iteratorIPKN5arrow9ArraySpanESt6vectorIS3_SaIS3_EEEEPS3_ET0_T_SC_SB_ = comdat any

$_ZSt10_ConstructIN5arrow9ArraySpanEJRKS1_EEvPT_DpOT0_ = comdat any

$_ZSt8_DestroyIPN5arrow9ArraySpanEEvT_S3_ = comdat any

$_ZNSt12_Destroy_auxILb0EE9__destroyIPN5arrow9ArraySpanEEEvT_S5_ = comdat any

$_ZSt8_DestroyIN5arrow9ArraySpanEEvPT_ = comdat any

$_ZNSt12_Vector_baseIN5arrow9ArraySpanESaIS1_EE13_M_deallocateEPS1_m = comdat any

$_ZNSt16allocator_traitsISaIN5arrow9ArraySpanEEE10deallocateERS2_PS1_m = comdat any

$_ZNSt15__new_allocatorIN5arrow9ArraySpanEE10deallocateEPS1_m = comdat any

$_ZNSt15__new_allocatorIN5arrow9ArraySpanEEC2Ev = comdat any

$_ZNSt12_Vector_baseIN5arrow9ArraySpanESaIS1_EEC2ERKS2_ = comdat any

$_ZNSt6vectorIN5arrow9ArraySpanESaIS1_EE19_M_range_initializeIPKS1_EEvT_S7_St20forward_iterator_tag = comdat any

$_ZNKSt16initializer_listIN5arrow9ArraySpanEE5beginEv = comdat any

$_ZNKSt16initializer_listIN5arrow9ArraySpanEE3endEv = comdat any

$_ZSt8distanceIPKN5arrow9ArraySpanEENSt15iterator_traitsIT_E15difference_typeES5_S5_ = comdat any

$_ZNSt6vectorIN5arrow9ArraySpanESaIS1_EE17_S_check_init_lenEmRKS2_ = comdat any

$_ZSt22__uninitialized_copy_aIPKN5arrow9ArraySpanEPS1_S1_ET0_T_S6_S5_RSaIT1_E = comdat any

$_ZSt10__distanceIPKN5arrow9ArraySpanEENSt15iterator_traitsIT_E15difference_typeES5_S5_St26random_access_iterator_tag = comdat any

$_ZSt19__iterator_categoryIPKN5arrow9ArraySpanEENSt15iterator_traitsIT_E17iterator_categoryERKS5_ = comdat any

$_ZNSt6vectorIN5arrow9ArraySpanESaIS1_EE11_S_max_sizeERKS2_ = comdat any

$_ZNSt16allocator_traitsISaIN5arrow9ArraySpanEEE8max_sizeERKS2_ = comdat any

$_ZNKSt15__new_allocatorIN5arrow9ArraySpanEE8max_sizeEv = comdat any

$_ZSt18uninitialized_copyIPKN5arrow9ArraySpanEPS1_ET0_T_S6_S5_ = comdat any

$_ZNSt20__uninitialized_copyILb0EE13__uninit_copyIPKN5arrow9ArraySpanEPS3_EET0_T_S8_S7_ = comdat any

$_ZSt16__do_uninit_copyIPKN5arrow9ArraySpanEPS1_ET0_T_S6_S5_ = comdat any

$_ZNKSt16initializer_listIN5arrow9ArraySpanEE4sizeEv = comdat any

$_ZSt8_DestroyIPN5arrow9ArraySpanES1_EvT_S3_RSaIT0_E = comdat any

$_ZNKSt7variantIJN5arrow9ArraySpanESt10shared_ptrINS0_9ArrayDataEEEE5indexEv = comdat any

$_ZSt3getILm1EJN5arrow9ArraySpanESt10shared_ptrINS0_9ArrayDataEEEERNSt19variant_alternativeIXT_ESt7variantIJDpT0_EEE4typeERS9_ = comdat any

$_ZNSt7variantIJN5arrow9ArraySpanESt10shared_ptrINS0_9ArrayDataEEEE7emplaceILm1EJS4_EEENSt9enable_ifIX18is_constructible_vINSt9_Nth_typeIXT_EJS1_S4_EE4typeEDpT0_EERSA_E4typeEDpOSB_ = comdat any

$_ZSt26__throw_bad_variant_accessb = comdat any

$_ZNKSt7variantIJN5arrow9ArraySpanESt10shared_ptrINS0_9ArrayDataEEEE22valueless_by_exceptionEv = comdat any

$_ZNSt8__detail9__variant5__getILm1ERSt7variantIJN5arrow9ArraySpanESt10shared_ptrINS3_9ArrayDataEEEEEEDcOT0_ = comdat any

$_ZSt26__throw_bad_variant_accessPKc = comdat any

$_ZNSt18bad_variant_accessC2EPKc = comdat any

$_ZNSt18bad_variant_accessD2Ev = comdat any

$_ZNSt9exceptionC2Ev = comdat any

$_ZNSt18bad_variant_accessD0Ev = comdat any

$_ZNKSt18bad_variant_access4whatEv = comdat any

$_ZNKSt8__detail9__variant16_Variant_storageILb0EJN5arrow9ArraySpanESt10shared_ptrINS2_9ArrayDataEEEE8_M_validEv = comdat any

$_ZNSt8__detail9__variant7__get_nILm1ERNS0_15_Variadic_unionIJN5arrow9ArraySpanESt10shared_ptrINS3_9ArrayDataEEEEEEEDcOT0_ = comdat any

$_ZNRSt8__detail9__variant14_UninitializedISt10shared_ptrIN5arrow9ArrayDataEELb0EE6_M_getEv = comdat any

$_ZN9__gnu_cxx16__aligned_membufISt10shared_ptrIN5arrow9ArrayDataEEE6_M_ptrEv = comdat any

$_ZN9__gnu_cxx16__aligned_membufISt10shared_ptrIN5arrow9ArrayDataEEE7_M_addrEv = comdat any

$_ZNSt8__detail9__variant9__emplaceILm1ELb0EJN5arrow9ArraySpanESt10shared_ptrINS2_9ArrayDataEEEJS6_EEEvRNS0_16_Variant_storageIXT0_EJDpT1_EEEDpOT2_ = comdat any

$_ZNSt8__detail9__variant16_Variant_storageILb0EJN5arrow9ArraySpanESt10shared_ptrINS2_9ArrayDataEEEE8_M_resetEv = comdat any

$_ZSt10_ConstructISt10shared_ptrIN5arrow9ArrayDataEEJS3_EEvPT_DpOT0_ = comdat any

$_ZSt10__do_visitIvZNSt8__detail9__variant16_Variant_storageILb0EJN5arrow9ArraySpanESt10shared_ptrINS3_9ArrayDataEEEE8_M_resetEvEUlOT_E_JRSt7variantIJS4_S7_EEEEDcOT0_DpOT1_ = comdat any

$_ZSt14__variant_castIJN5arrow9ArraySpanESt10shared_ptrINS0_9ArrayDataEEERNSt8__detail9__variant16_Variant_storageILb0EJS1_S4_EEEEDcOT0_ = comdat any

$_ZZSt10__do_visitIvZNSt8__detail9__variant16_Variant_storageILb0EJN5arrow9ArraySpanESt10shared_ptrINS3_9ArrayDataEEEE8_M_resetEvEUlOT_E_JRSt7variantIJS4_S7_EEEEDcOT0_DpOT1_ENKUlSE_zE_clESE_z = comdat any

$_ZNSt8__detail9__variant17__gen_vtable_implINS0_12_Multi_arrayIPFvOZNS0_16_Variant_storageILb0EJN5arrow9ArraySpanESt10shared_ptrINS4_9ArrayDataEEEE8_M_resetEvEUlOT_E_RSt7variantIJS5_S8_EEEJEEESt16integer_sequenceImJLm0EEEE14__visit_invokeESD_SG_ = comdat any

$_ZNSt8__detail9__variant17__gen_vtable_implINS0_12_Multi_arrayIPFvOZNS0_16_Variant_storageILb0EJN5arrow9ArraySpanESt10shared_ptrINS4_9ArrayDataEEEE8_M_resetEvEUlOT_E_RSt7variantIJS5_S8_EEEJEEESt16integer_sequenceImJLm1EEEE14__visit_invokeESD_SG_ = comdat any

$_ZSt10__invoke_rIvZNSt8__detail9__variant16_Variant_storageILb0EJN5arrow9ArraySpanESt10shared_ptrINS3_9ArrayDataEEEE8_M_resetEvEUlOT_E_JRS4_EENSt9enable_ifIX16is_invocable_r_vIS9_T0_DpT1_EES9_E4typeEOSE_DpOSF_ = comdat any

$_ZNSt8__detail9__variant5__getILm0ERSt7variantIJN5arrow9ArraySpanESt10shared_ptrINS3_9ArrayDataEEEEEEDcOT0_ = comdat any

$_ZSt13__invoke_implIvZNSt8__detail9__variant16_Variant_storageILb0EJN5arrow9ArraySpanESt10shared_ptrINS3_9ArrayDataEEEE8_M_resetEvEUlOT_E_JRS4_EES9_St14__invoke_otherOT0_DpOT1_ = comdat any

$_ZZNSt8__detail9__variant16_Variant_storageILb0EJN5arrow9ArraySpanESt10shared_ptrINS2_9ArrayDataEEEE8_M_resetEvENUlOT_E_clIRS3_EEDaS9_ = comdat any

$_ZNSt8__detail9__variant7__get_nILm0ERNS0_15_Variadic_unionIJN5arrow9ArraySpanESt10shared_ptrINS3_9ArrayDataEEEEEEEDcOT0_ = comdat any

$_ZNRSt8__detail9__variant14_UninitializedIN5arrow9ArraySpanELb0EE6_M_getEv = comdat any

$_ZN9__gnu_cxx16__aligned_membufIN5arrow9ArraySpanEE6_M_ptrEv = comdat any

$_ZN9__gnu_cxx16__aligned_membufIN5arrow9ArraySpanEE7_M_addrEv = comdat any

$_ZSt10__invoke_rIvZNSt8__detail9__variant16_Variant_storageILb0EJN5arrow9ArraySpanESt10shared_ptrINS3_9ArrayDataEEEE8_M_resetEvEUlOT_E_JRS7_EENSt9enable_ifIX16is_invocable_r_vIS9_T0_DpT1_EES9_E4typeEOSE_DpOSF_ = comdat any

$_ZSt13__invoke_implIvZNSt8__detail9__variant16_Variant_storageILb0EJN5arrow9ArraySpanESt10shared_ptrINS3_9ArrayDataEEEE8_M_resetEvEUlOT_E_JRS7_EES9_St14__invoke_otherOT0_DpOT1_ = comdat any

$_ZZNSt8__detail9__variant16_Variant_storageILb0EJN5arrow9ArraySpanESt10shared_ptrINS2_9ArrayDataEEEE8_M_resetEvENUlOT_E_clIRS6_EEDaS9_ = comdat any

$_ZSt8_DestroyISt10shared_ptrIN5arrow9ArrayDataEEEvPT_ = comdat any

$_ZNSt10shared_ptrIN5arrow9ArrayDataEEC2EOS2_ = comdat any

$_ZNK5arrow7compute9ExecBatchixIiEERKNS_5DatumET_ = comdat any

$_ZNK5arrow5Datum13chunked_arrayEv = comdat any

$_ZNKSt19__shared_ptr_accessIN5arrow12ChunkedArrayELN9__gnu_cxx12_Lock_policyE2ELb0ELb0EEdeEv = comdat any

$_ZNSt6vectorIN5arrow9ArraySpanESaIS1_EEC2Ev = comdat any

$_ZNK5arrow12ChunkedArray10num_chunksEv = comdat any

$_ZNSt6vectorIN5arrow9ArraySpanESaIS1_EE9push_backEOS1_ = comdat any

$_ZNK5arrow12ChunkedArray5chunkEi = comdat any

$_ZNKSt19__shared_ptr_accessIN5arrow5ArrayELN9__gnu_cxx12_Lock_policyE2ELb0ELb0EEptEv = comdat any

$_ZNK5arrow5Array4dataEv = comdat any

$_ZNKSt19__shared_ptr_accessIN5arrow9ArrayDataELN9__gnu_cxx12_Lock_policyE2ELb0ELb0EEdeEv = comdat any

$_ZN5arrow9ArraySpanC2ERKNS_9ArrayDataE = comdat any

$_ZNK5arrow12ChunkedArray6lengthEv = comdat any

$_ZNSt7variantIJN5arrow5Datum5EmptyESt10shared_ptrINS0_6ScalarEES3_INS0_9ArrayDataEES3_INS0_12ChunkedArrayEES3_INS0_11RecordBatchEES3_INS0_5TableEEEEaSIS7_EENSt9enable_ifIXaaaa14__exactly_onceINSt9_Nth_typeIX16__accepted_indexIOT_EEJS2_S5_S7_S9_SB_SD_EE4typeEE18is_constructible_vISL_SI_E15is_assignable_vIRSL_SI_EERSE_E4typeESJ_ = comdat any

$_ZNKSt6vectorIN5arrow5DatumESaIS1_EEixEm = comdat any

$_ZSt3getISt10shared_ptrIN5arrow12ChunkedArrayEEJNS1_5Datum5EmptyES0_INS1_6ScalarEES0_INS1_9ArrayDataEES3_S0_INS1_11RecordBatchEES0_INS1_5TableEEEERKT_RKSt7variantIJDpT0_EE = comdat any

$_ZSt3getILm3EJN5arrow5Datum5EmptyESt10shared_ptrINS0_6ScalarEES3_INS0_9ArrayDataEES3_INS0_12ChunkedArrayEES3_INS0_11RecordBatchEES3_INS0_5TableEEEERKNSt19variant_alternativeIXT_ESt7variantIJDpT0_EEE4typeERKSI_ = comdat any

$_ZNKSt7variantIJN5arrow5Datum5EmptyESt10shared_ptrINS0_6ScalarEES3_INS0_9ArrayDataEES3_INS0_12ChunkedArrayEES3_INS0_11RecordBatchEES3_INS0_5TableEEEE5indexEv = comdat any

$_ZNKSt7variantIJN5arrow5Datum5EmptyESt10shared_ptrINS0_6ScalarEES3_INS0_9ArrayDataEES3_INS0_12ChunkedArrayEES3_INS0_11RecordBatchEES3_INS0_5TableEEEE22valueless_by_exceptionEv = comdat any

$_ZNSt8__detail9__variant5__getILm3ERKSt7variantIJN5arrow5Datum5EmptyESt10shared_ptrINS3_6ScalarEES6_INS3_9ArrayDataEES6_INS3_12ChunkedArrayEES6_INS3_11RecordBatchEES6_INS3_5TableEEEEEEDcOT0_ = comdat any

$_ZNKSt8__detail9__variant16_Variant_storageILb0EJN5arrow5Datum5EmptyESt10shared_ptrINS2_6ScalarEES5_INS2_9ArrayDataEES5_INS2_12ChunkedArrayEES5_INS2_11RecordBatchEES5_INS2_5TableEEEE8_M_validEv = comdat any

$_ZNSt8__detail9__variant7__get_nILm3ERKNS0_15_Variadic_unionIJN5arrow5Datum5EmptyESt10shared_ptrINS3_6ScalarEES6_INS3_9ArrayDataEES6_INS3_12ChunkedArrayEES6_INS3_11RecordBatchEES6_INS3_5TableEEEEEEEDcOT0_ = comdat any

$_ZNSt8__detail9__variant7__get_nILm0ERKNS0_15_Variadic_unionIJSt10shared_ptrIN5arrow12ChunkedArrayEES3_INS4_11RecordBatchEES3_INS4_5TableEEEEEEEDcOT0_ = comdat any

$_ZNKRSt8__detail9__variant14_UninitializedISt10shared_ptrIN5arrow12ChunkedArrayEELb0EE6_M_getEv = comdat any

$_ZNK9__gnu_cxx16__aligned_membufISt10shared_ptrIN5arrow12ChunkedArrayEEE6_M_ptrEv = comdat any

$_ZNK9__gnu_cxx16__aligned_membufISt10shared_ptrIN5arrow12ChunkedArrayEEE7_M_addrEv = comdat any

$_ZNKSt19__shared_ptr_accessIN5arrow12ChunkedArrayELN9__gnu_cxx12_Lock_policyE2ELb0ELb0EE6_M_getEv = comdat any

$_ZNKSt12__shared_ptrIN5arrow12ChunkedArrayELN9__gnu_cxx12_Lock_policyE2EE3getEv = comdat any

$_ZNSt12_Vector_baseIN5arrow9ArraySpanESaIS1_EEC2Ev = comdat any

$_ZNSt12_Vector_baseIN5arrow9ArraySpanESaIS1_EE12_Vector_implC2Ev = comdat any

$_ZNKSt6vectorISt10shared_ptrIN5arrow5ArrayEESaIS3_EE4sizeEv = comdat any

$_ZNSt6vectorIN5arrow9ArraySpanESaIS1_EE12emplace_backIJS1_EEERS1_DpOT_ = comdat any

$_ZNSt16allocator_traitsISaIN5arrow9ArraySpanEEE9constructIS1_JS1_EEEvRS2_PT_DpOT0_ = comdat any

$_ZNSt6vectorIN5arrow9ArraySpanESaIS1_EE17_M_realloc_insertIJS1_EEEvN9__gnu_cxx17__normal_iteratorIPS1_S3_EEDpOT_ = comdat any

$_ZNSt6vectorIN5arrow9ArraySpanESaIS1_EE3endEv = comdat any

$_ZNSt6vectorIN5arrow9ArraySpanESaIS1_EE4backEv = comdat any

$_ZNSt15__new_allocatorIN5arrow9ArraySpanEE9constructIS1_JS1_EEEvPT_DpOT0_ = comdat any

$_ZN5arrow9ArraySpanC2EOS0_ = comdat any

$_ZNSt6vectorIN5arrow9ArraySpanESaIS1_EEC2EOS3_ = comdat any

$_ZNSt12_Vector_baseIN5arrow9ArraySpanESaIS1_EEC2EOS3_ = comdat any

$_ZNSt12_Vector_baseIN5arrow9ArraySpanESaIS1_EE12_Vector_implC2EOS4_ = comdat any

$_ZNSt12_Vector_baseIN5arrow9ArraySpanESaIS1_EE17_Vector_impl_dataC2EOS4_ = comdat any

$_ZNKSt6vectorIN5arrow9ArraySpanESaIS1_EE12_M_check_lenEmPKc = comdat any

$_ZN9__gnu_cxxmiIPN5arrow9ArraySpanESt6vectorIS2_SaIS2_EEEENS_17__normal_iteratorIT_T0_E15difference_typeERKSA_SD_ = comdat any

$_ZNSt6vectorIN5arrow9ArraySpanESaIS1_EE5beginEv = comdat any

$_ZNSt6vectorIN5arrow9ArraySpanESaIS1_EE11_S_relocateEPS1_S4_S4_RS2_ = comdat any

$_ZNK9__gnu_cxx17__normal_iteratorIPN5arrow9ArraySpanESt6vectorIS2_SaIS2_EEE4baseEv = comdat any

$_ZNKSt6vectorIN5arrow9ArraySpanESaIS1_EE8max_sizeEv = comdat any

$_ZSt3maxImERKT_S2_S2_ = comdat any

$_ZN9__gnu_cxx17__normal_iteratorIPN5arrow9ArraySpanESt6vectorIS2_SaIS2_EEEC2ERKS3_ = comdat any

$_ZSt12__relocate_aIPN5arrow9ArraySpanES2_SaIS1_EET0_T_S5_S4_RT1_ = comdat any

$_ZSt14__relocate_a_1IPN5arrow9ArraySpanES2_SaIS1_EET0_T_S5_S4_RT1_ = comdat any

$_ZSt12__niter_baseIPN5arrow9ArraySpanEET_S3_ = comdat any

$_ZSt19__relocate_object_aIN5arrow9ArraySpanES1_SaIS1_EEvPT_PT0_RT1_ = comdat any

$_ZNSt16allocator_traitsISaIN5arrow9ArraySpanEEE7destroyIS1_EEvRS2_PT_ = comdat any

$_ZNSt15__new_allocatorIN5arrow9ArraySpanEE7destroyIS1_EEvPT_ = comdat any

$_ZNK9__gnu_cxx17__normal_iteratorIPN5arrow9ArraySpanESt6vectorIS2_SaIS2_EEEmiEl = comdat any

$_ZNK9__gnu_cxx17__normal_iteratorIPN5arrow9ArraySpanESt6vectorIS2_SaIS2_EEEdeEv = comdat any

$_ZNKSt6vectorISt10shared_ptrIN5arrow5ArrayEESaIS3_EEixEm = comdat any

$_ZNKSt19__shared_ptr_accessIN5arrow5ArrayELN9__gnu_cxx12_Lock_policyE2ELb0ELb0EE6_M_getEv = comdat any

$_ZNKSt12__shared_ptrIN5arrow5ArrayELN9__gnu_cxx12_Lock_policyE2EE3getEv = comdat any

$_ZNKSt19__shared_ptr_accessIN5arrow9ArrayDataELN9__gnu_cxx12_Lock_policyE2ELb0ELb0EE6_M_getEv = comdat any

$_ZNKSt12__shared_ptrIN5arrow9ArrayDataELN9__gnu_cxx12_Lock_policyE2EE3getEv = comdat any

$_ZN5arrow10BufferSpanC2Ev = comdat any

$_ZSt3getILm2EJN5arrow5Datum5EmptyESt10shared_ptrINS0_6ScalarEES3_INS0_9ArrayDataEES3_INS0_12ChunkedArrayEES3_INS0_11RecordBatchEES3_INS0_5TableEEEERNSt19variant_alternativeIXT_ESt7variantIJDpT0_EEE4typeERSI_ = comdat any

$_ZNSt7variantIJN5arrow5Datum5EmptyESt10shared_ptrINS0_6ScalarEES3_INS0_9ArrayDataEES3_INS0_12ChunkedArrayEES3_INS0_11RecordBatchEES3_INS0_5TableEEEE7emplaceILm2EJS7_EEENSt9enable_ifIX18is_constructible_vINSt9_Nth_typeIXT_EJS2_S5_S7_S9_SB_SD_EE4typeEDpT0_EERSJ_E4typeEDpOSK_ = comdat any

$_ZNSt8__detail9__variant5__getILm2ERSt7variantIJN5arrow5Datum5EmptyESt10shared_ptrINS3_6ScalarEES6_INS3_9ArrayDataEES6_INS3_12ChunkedArrayEES6_INS3_11RecordBatchEES6_INS3_5TableEEEEEEDcOT0_ = comdat any

$_ZNSt8__detail9__variant7__get_nILm2ERNS0_15_Variadic_unionIJN5arrow5Datum5EmptyESt10shared_ptrINS3_6ScalarEES6_INS3_9ArrayDataEES6_INS3_12ChunkedArrayEES6_INS3_11RecordBatchEES6_INS3_5TableEEEEEEEDcOT0_ = comdat any

$_ZNSt8__detail9__variant9__emplaceILm2ELb0EJN5arrow5Datum5EmptyESt10shared_ptrINS2_6ScalarEES5_INS2_9ArrayDataEES5_INS2_12ChunkedArrayEES5_INS2_11RecordBatchEES5_INS2_5TableEEEJS9_EEEvRNS0_16_Variant_storageIXT0_EJDpT1_EEEDpOT2_ = comdat any

$_ZNSt8__detail9__variant16_Variant_storageILb0EJN5arrow5Datum5EmptyESt10shared_ptrINS2_6ScalarEES5_INS2_9ArrayDataEES5_INS2_12ChunkedArrayEES5_INS2_11RecordBatchEES5_INS2_5TableEEEE8_M_resetEv = comdat any

$_ZSt10__do_visitIvZNSt8__detail9__variant16_Variant_storageILb0EJN5arrow5Datum5EmptyESt10shared_ptrINS3_6ScalarEES6_INS3_9ArrayDataEES6_INS3_12ChunkedArrayEES6_INS3_11RecordBatchEES6_INS3_5TableEEEE8_M_resetEvEUlOT_E_JRSt7variantIJS5_S8_SA_SC_SE_SG_EEEEDcOT0_DpOT1_ = comdat any

$_ZSt14__variant_castIJN5arrow5Datum5EmptyESt10shared_ptrINS0_6ScalarEES3_INS0_9ArrayDataEES3_INS0_12ChunkedArrayEES3_INS0_11RecordBatchEES3_INS0_5TableEEERNSt8__detail9__variant16_Variant_storageILb0EJS2_S5_S7_S9_SB_SD_EEEEDcOT0_ = comdat any

$_ZZSt10__do_visitIvZNSt8__detail9__variant16_Variant_storageILb0EJN5arrow5Datum5EmptyESt10shared_ptrINS3_6ScalarEES6_INS3_9ArrayDataEES6_INS3_12ChunkedArrayEES6_INS3_11RecordBatchEES6_INS3_5TableEEEE8_M_resetEvEUlOT_E_JRSt7variantIJS5_S8_SA_SC_SE_SG_EEEEDcOT0_DpOT1_ENKUlSN_zE_clESN_z = comdat any

$_ZNSt8__detail9__variant17__gen_vtable_implINS0_12_Multi_arrayIPFvOZNS0_16_Variant_storageILb0EJN5arrow5Datum5EmptyESt10shared_ptrINS4_6ScalarEES7_INS4_9ArrayDataEES7_INS4_12ChunkedArrayEES7_INS4_11RecordBatchEES7_INS4_5TableEEEE8_M_resetEvEUlOT_E_RSt7variantIJS6_S9_SB_SD_SF_SH_EEEJEEESt16integer_sequenceImJLm0EEEE14__visit_invokeESM_SP_ = comdat any

$_ZNSt8__detail9__variant17__gen_vtable_implINS0_12_Multi_arrayIPFvOZNS0_16_Variant_storageILb0EJN5arrow5Datum5EmptyESt10shared_ptrINS4_6ScalarEES7_INS4_9ArrayDataEES7_INS4_12ChunkedArrayEES7_INS4_11RecordBatchEES7_INS4_5TableEEEE8_M_resetEvEUlOT_E_RSt7variantIJS6_S9_SB_SD_SF_SH_EEEJEEESt16integer_sequenceImJLm1EEEE14__visit_invokeESM_SP_ = comdat any

$_ZNSt8__detail9__variant17__gen_vtable_implINS0_12_Multi_arrayIPFvOZNS0_16_Variant_storageILb0EJN5arrow5Datum5EmptyESt10shared_ptrINS4_6ScalarEES7_INS4_9ArrayDataEES7_INS4_12ChunkedArrayEES7_INS4_11RecordBatchEES7_INS4_5TableEEEE8_M_resetEvEUlOT_E_RSt7variantIJS6_S9_SB_SD_SF_SH_EEEJEEESt16integer_sequenceImJLm2EEEE14__visit_invokeESM_SP_ = comdat any

$_ZNSt8__detail9__variant17__gen_vtable_implINS0_12_Multi_arrayIPFvOZNS0_16_Variant_storageILb0EJN5arrow5Datum5EmptyESt10shared_ptrINS4_6ScalarEES7_INS4_9ArrayDataEES7_INS4_12ChunkedArrayEES7_INS4_11RecordBatchEES7_INS4_5TableEEEE8_M_resetEvEUlOT_E_RSt7variantIJS6_S9_SB_SD_SF_SH_EEEJEEESt16integer_sequenceImJLm3EEEE14__visit_invokeESM_SP_ = comdat any

$_ZNSt8__detail9__variant17__gen_vtable_implINS0_12_Multi_arrayIPFvOZNS0_16_Variant_storageILb0EJN5arrow5Datum5EmptyESt10shared_ptrINS4_6ScalarEES7_INS4_9ArrayDataEES7_INS4_12ChunkedArrayEES7_INS4_11RecordBatchEES7_INS4_5TableEEEE8_M_resetEvEUlOT_E_RSt7variantIJS6_S9_SB_SD_SF_SH_EEEJEEESt16integer_sequenceImJLm4EEEE14__visit_invokeESM_SP_ = comdat any

$_ZNSt8__detail9__variant17__gen_vtable_implINS0_12_Multi_arrayIPFvOZNS0_16_Variant_storageILb0EJN5arrow5Datum5EmptyESt10shared_ptrINS4_6ScalarEES7_INS4_9ArrayDataEES7_INS4_12ChunkedArrayEES7_INS4_11RecordBatchEES7_INS4_5TableEEEE8_M_resetEvEUlOT_E_RSt7variantIJS6_S9_SB_SD_SF_SH_EEEJEEESt16integer_sequenceImJLm5EEEE14__visit_invokeESM_SP_ = comdat any

$_ZSt10__invoke_rIvZNSt8__detail9__variant16_Variant_storageILb0EJN5arrow5Datum5EmptyESt10shared_ptrINS3_6ScalarEES6_INS3_9ArrayDataEES6_INS3_12ChunkedArrayEES6_INS3_11RecordBatchEES6_INS3_5TableEEEE8_M_resetEvEUlOT_E_JRS5_EENSt9enable_ifIX16is_invocable_r_vISI_T0_DpT1_EESI_E4typeEOSN_DpOSO_ = comdat any

$_ZNSt8__detail9__variant5__getILm0ERSt7variantIJN5arrow5Datum5EmptyESt10shared_ptrINS3_6ScalarEES6_INS3_9ArrayDataEES6_INS3_12ChunkedArrayEES6_INS3_11RecordBatchEES6_INS3_5TableEEEEEEDcOT0_ = comdat any

$_ZSt13__invoke_implIvZNSt8__detail9__variant16_Variant_storageILb0EJN5arrow5Datum5EmptyESt10shared_ptrINS3_6ScalarEES6_INS3_9ArrayDataEES6_INS3_12ChunkedArrayEES6_INS3_11RecordBatchEES6_INS3_5TableEEEE8_M_resetEvEUlOT_E_JRS5_EESI_St14__invoke_otherOT0_DpOT1_ = comdat any

$_ZZNSt8__detail9__variant16_Variant_storageILb0EJN5arrow5Datum5EmptyESt10shared_ptrINS2_6ScalarEES5_INS2_9ArrayDataEES5_INS2_12ChunkedArrayEES5_INS2_11RecordBatchEES5_INS2_5TableEEEE8_M_resetEvENUlOT_E_clIRS4_EEDaSI_ = comdat any

$_ZSt8_DestroyIN5arrow5Datum5EmptyEEvPT_ = comdat any

$_ZNSt8__detail9__variant7__get_nILm0ERNS0_15_Variadic_unionIJN5arrow5Datum5EmptyESt10shared_ptrINS3_6ScalarEES6_INS3_9ArrayDataEES6_INS3_12ChunkedArrayEES6_INS3_11RecordBatchEES6_INS3_5TableEEEEEEEDcOT0_ = comdat any

$_ZNRSt8__detail9__variant14_UninitializedIN5arrow5Datum5EmptyELb1EE6_M_getEv = comdat any

$_ZSt10__invoke_rIvZNSt8__detail9__variant16_Variant_storageILb0EJN5arrow5Datum5EmptyESt10shared_ptrINS3_6ScalarEES6_INS3_9ArrayDataEES6_INS3_12ChunkedArrayEES6_INS3_11RecordBatchEES6_INS3_5TableEEEE8_M_resetEvEUlOT_E_JRS8_EENSt9enable_ifIX16is_invocable_r_vISI_T0_DpT1_EESI_E4typeEOSN_DpOSO_ = comdat any

$_ZNSt8__detail9__variant5__getILm1ERSt7variantIJN5arrow5Datum5EmptyESt10shared_ptrINS3_6ScalarEES6_INS3_9ArrayDataEES6_INS3_12ChunkedArrayEES6_INS3_11RecordBatchEES6_INS3_5TableEEEEEEDcOT0_ = comdat any

$_ZSt13__invoke_implIvZNSt8__detail9__variant16_Variant_storageILb0EJN5arrow5Datum5EmptyESt10shared_ptrINS3_6ScalarEES6_INS3_9ArrayDataEES6_INS3_12ChunkedArrayEES6_INS3_11RecordBatchEES6_INS3_5TableEEEE8_M_resetEvEUlOT_E_JRS8_EESI_St14__invoke_otherOT0_DpOT1_ = comdat any

$_ZZNSt8__detail9__variant16_Variant_storageILb0EJN5arrow5Datum5EmptyESt10shared_ptrINS2_6ScalarEES5_INS2_9ArrayDataEES5_INS2_12ChunkedArrayEES5_INS2_11RecordBatchEES5_INS2_5TableEEEE8_M_resetEvENUlOT_E_clIRS7_EEDaSI_ = comdat any

$_ZSt8_DestroyISt10shared_ptrIN5arrow6ScalarEEEvPT_ = comdat any

$_ZNSt10shared_ptrIN5arrow6ScalarEED2Ev = comdat any

$_ZNSt12__shared_ptrIN5arrow6ScalarELN9__gnu_cxx12_Lock_policyE2EED2Ev = comdat any

$_ZNSt8__detail9__variant7__get_nILm1ERNS0_15_Variadic_unionIJN5arrow5Datum5EmptyESt10shared_ptrINS3_6ScalarEES6_INS3_9ArrayDataEES6_INS3_12ChunkedArrayEES6_INS3_11RecordBatchEES6_INS3_5TableEEEEEEEDcOT0_ = comdat any

$_ZNRSt8__detail9__variant14_UninitializedISt10shared_ptrIN5arrow6ScalarEELb0EE6_M_getEv = comdat any

$_ZN9__gnu_cxx16__aligned_membufISt10shared_ptrIN5arrow6ScalarEEE6_M_ptrEv = comdat any

$_ZN9__gnu_cxx16__aligned_membufISt10shared_ptrIN5arrow6ScalarEEE7_M_addrEv = comdat any

$_ZSt10__invoke_rIvZNSt8__detail9__variant16_Variant_storageILb0EJN5arrow5Datum5EmptyESt10shared_ptrINS3_6ScalarEES6_INS3_9ArrayDataEES6_INS3_12ChunkedArrayEES6_INS3_11RecordBatchEES6_INS3_5TableEEEE8_M_resetEvEUlOT_E_JRSA_EENSt9enable_ifIX16is_invocable_r_vISI_T0_DpT1_EESI_E4typeEOSN_DpOSO_ = comdat any

$_ZSt13__invoke_implIvZNSt8__detail9__variant16_Variant_storageILb0EJN5arrow5Datum5EmptyESt10shared_ptrINS3_6ScalarEES6_INS3_9ArrayDataEES6_INS3_12ChunkedArrayEES6_INS3_11RecordBatchEES6_INS3_5TableEEEE8_M_resetEvEUlOT_E_JRSA_EESI_St14__invoke_otherOT0_DpOT1_ = comdat any

$_ZZNSt8__detail9__variant16_Variant_storageILb0EJN5arrow5Datum5EmptyESt10shared_ptrINS2_6ScalarEES5_INS2_9ArrayDataEES5_INS2_12ChunkedArrayEES5_INS2_11RecordBatchEES5_INS2_5TableEEEE8_M_resetEvENUlOT_E_clIRS9_EEDaSI_ = comdat any

$_ZSt10__invoke_rIvZNSt8__detail9__variant16_Variant_storageILb0EJN5arrow5Datum5EmptyESt10shared_ptrINS3_6ScalarEES6_INS3_9ArrayDataEES6_INS3_12ChunkedArrayEES6_INS3_11RecordBatchEES6_INS3_5TableEEEE8_M_resetEvEUlOT_E_JRSC_EENSt9enable_ifIX16is_invocable_r_vISI_T0_DpT1_EESI_E4typeEOSN_DpOSO_ = comdat any

$_ZNSt8__detail9__variant5__getILm3ERSt7variantIJN5arrow5Datum5EmptyESt10shared_ptrINS3_6ScalarEES6_INS3_9ArrayDataEES6_INS3_12ChunkedArrayEES6_INS3_11RecordBatchEES6_INS3_5TableEEEEEEDcOT0_ = comdat any

$_ZSt13__invoke_implIvZNSt8__detail9__variant16_Variant_storageILb0EJN5arrow5Datum5EmptyESt10shared_ptrINS3_6ScalarEES6_INS3_9ArrayDataEES6_INS3_12ChunkedArrayEES6_INS3_11RecordBatchEES6_INS3_5TableEEEE8_M_resetEvEUlOT_E_JRSC_EESI_St14__invoke_otherOT0_DpOT1_ = comdat any

$_ZZNSt8__detail9__variant16_Variant_storageILb0EJN5arrow5Datum5EmptyESt10shared_ptrINS2_6ScalarEES5_INS2_9ArrayDataEES5_INS2_12ChunkedArrayEES5_INS2_11RecordBatchEES5_INS2_5TableEEEE8_M_resetEvENUlOT_E_clIRSB_EEDaSI_ = comdat any

$_ZSt8_DestroyISt10shared_ptrIN5arrow12ChunkedArrayEEEvPT_ = comdat any

$_ZNSt10shared_ptrIN5arrow12ChunkedArrayEED2Ev = comdat any

$_ZNSt12__shared_ptrIN5arrow12ChunkedArrayELN9__gnu_cxx12_Lock_policyE2EED2Ev = comdat any

$_ZNSt8__detail9__variant7__get_nILm3ERNS0_15_Variadic_unionIJN5arrow5Datum5EmptyESt10shared_ptrINS3_6ScalarEES6_INS3_9ArrayDataEES6_INS3_12ChunkedArrayEES6_INS3_11RecordBatchEES6_INS3_5TableEEEEEEEDcOT0_ = comdat any

$_ZNSt8__detail9__variant7__get_nILm0ERNS0_15_Variadic_unionIJSt10shared_ptrIN5arrow12ChunkedArrayEES3_INS4_11RecordBatchEES3_INS4_5TableEEEEEEEDcOT0_ = comdat any

$_ZNRSt8__detail9__variant14_UninitializedISt10shared_ptrIN5arrow12ChunkedArrayEELb0EE6_M_getEv = comdat any

$_ZN9__gnu_cxx16__aligned_membufISt10shared_ptrIN5arrow12ChunkedArrayEEE6_M_ptrEv = comdat any

$_ZN9__gnu_cxx16__aligned_membufISt10shared_ptrIN5arrow12ChunkedArrayEEE7_M_addrEv = comdat any

$_ZSt10__invoke_rIvZNSt8__detail9__variant16_Variant_storageILb0EJN5arrow5Datum5EmptyESt10shared_ptrINS3_6ScalarEES6_INS3_9ArrayDataEES6_INS3_12ChunkedArrayEES6_INS3_11RecordBatchEES6_INS3_5TableEEEE8_M_resetEvEUlOT_E_JRSE_EENSt9enable_ifIX16is_invocable_r_vISI_T0_DpT1_EESI_E4typeEOSN_DpOSO_ = comdat any

$_ZNSt8__detail9__variant5__getILm4ERSt7variantIJN5arrow5Datum5EmptyESt10shared_ptrINS3_6ScalarEES6_INS3_9ArrayDataEES6_INS3_12ChunkedArrayEES6_INS3_11RecordBatchEES6_INS3_5TableEEEEEEDcOT0_ = comdat any

$_ZSt13__invoke_implIvZNSt8__detail9__variant16_Variant_storageILb0EJN5arrow5Datum5EmptyESt10shared_ptrINS3_6ScalarEES6_INS3_9ArrayDataEES6_INS3_12ChunkedArrayEES6_INS3_11RecordBatchEES6_INS3_5TableEEEE8_M_resetEvEUlOT_E_JRSE_EESI_St14__invoke_otherOT0_DpOT1_ = comdat any

$_ZZNSt8__detail9__variant16_Variant_storageILb0EJN5arrow5Datum5EmptyESt10shared_ptrINS2_6ScalarEES5_INS2_9ArrayDataEES5_INS2_12ChunkedArrayEES5_INS2_11RecordBatchEES5_INS2_5TableEEEE8_M_resetEvENUlOT_E_clIRSD_EEDaSI_ = comdat any

$_ZSt8_DestroyISt10shared_ptrIN5arrow11RecordBatchEEEvPT_ = comdat any

$_ZNSt10shared_ptrIN5arrow11RecordBatchEED2Ev = comdat any

$_ZNSt12__shared_ptrIN5arrow11RecordBatchELN9__gnu_cxx12_Lock_policyE2EED2Ev = comdat any

$_ZNSt8__detail9__variant7__get_nILm4ERNS0_15_Variadic_unionIJN5arrow5Datum5EmptyESt10shared_ptrINS3_6ScalarEES6_INS3_9ArrayDataEES6_INS3_12ChunkedArrayEES6_INS3_11RecordBatchEES6_INS3_5TableEEEEEEEDcOT0_ = comdat any

$_ZNSt8__detail9__variant7__get_nILm1ERNS0_15_Variadic_unionIJSt10shared_ptrIN5arrow12ChunkedArrayEES3_INS4_11RecordBatchEES3_INS4_5TableEEEEEEEDcOT0_ = comdat any

$_ZNRSt8__detail9__variant14_UninitializedISt10shared_ptrIN5arrow11RecordBatchEELb0EE6_M_getEv = comdat any

$_ZN9__gnu_cxx16__aligned_membufISt10shared_ptrIN5arrow11RecordBatchEEE6_M_ptrEv = comdat any

$_ZN9__gnu_cxx16__aligned_membufISt10shared_ptrIN5arrow11RecordBatchEEE7_M_addrEv = comdat any

$_ZSt10__invoke_rIvZNSt8__detail9__variant16_Variant_storageILb0EJN5arrow5Datum5EmptyESt10shared_ptrINS3_6ScalarEES6_INS3_9ArrayDataEES6_INS3_12ChunkedArrayEES6_INS3_11RecordBatchEES6_INS3_5TableEEEE8_M_resetEvEUlOT_E_JRSG_EENSt9enable_ifIX16is_invocable_r_vISI_T0_DpT1_EESI_E4typeEOSN_DpOSO_ = comdat any

$_ZNSt8__detail9__variant5__getILm5ERSt7variantIJN5arrow5Datum5EmptyESt10shared_ptrINS3_6ScalarEES6_INS3_9ArrayDataEES6_INS3_12ChunkedArrayEES6_INS3_11RecordBatchEES6_INS3_5TableEEEEEEDcOT0_ = comdat any

$_ZSt13__invoke_implIvZNSt8__detail9__variant16_Variant_storageILb0EJN5arrow5Datum5EmptyESt10shared_ptrINS3_6ScalarEES6_INS3_9ArrayDataEES6_INS3_12ChunkedArrayEES6_INS3_11RecordBatchEES6_INS3_5TableEEEE8_M_resetEvEUlOT_E_JRSG_EESI_St14__invoke_otherOT0_DpOT1_ = comdat any

$_ZZNSt8__detail9__variant16_Variant_storageILb0EJN5arrow5Datum5EmptyESt10shared_ptrINS2_6ScalarEES5_INS2_9ArrayDataEES5_INS2_12ChunkedArrayEES5_INS2_11RecordBatchEES5_INS2_5TableEEEE8_M_resetEvENUlOT_E_clIRSF_EEDaSI_ = comdat any

$_ZSt8_DestroyISt10shared_ptrIN5arrow5TableEEEvPT_ = comdat any

$_ZNSt10shared_ptrIN5arrow5TableEED2Ev = comdat any

$_ZNSt12__shared_ptrIN5arrow5TableELN9__gnu_cxx12_Lock_policyE2EED2Ev = comdat any

$_ZNSt8__detail9__variant7__get_nILm5ERNS0_15_Variadic_unionIJN5arrow5Datum5EmptyESt10shared_ptrINS3_6ScalarEES6_INS3_9ArrayDataEES6_INS3_12ChunkedArrayEES6_INS3_11RecordBatchEES6_INS3_5TableEEEEEEEDcOT0_ = comdat any

$_ZNSt8__detail9__variant7__get_nILm2ERNS0_15_Variadic_unionIJSt10shared_ptrIN5arrow12ChunkedArrayEES3_INS4_11RecordBatchEES3_INS4_5TableEEEEEEEDcOT0_ = comdat any

$_ZNRSt8__detail9__variant14_UninitializedISt10shared_ptrIN5arrow5TableEELb0EE6_M_getEv = comdat any

$_ZN9__gnu_cxx16__aligned_membufISt10shared_ptrIN5arrow5TableEEE6_M_ptrEv = comdat any

$_ZN9__gnu_cxx16__aligned_membufISt10shared_ptrIN5arrow5TableEEE7_M_addrEv = comdat any

$_ZNKSt6vectorISt10shared_ptrIN5arrow8DataTypeEESaIS3_EE5beginEv = comdat any

$_ZNKSt6vectorISt10shared_ptrIN5arrow8DataTypeEESaIS3_EE3endEv = comdat any

$_ZN9__gnu_cxxneIPKSt10shared_ptrIN5arrow8DataTypeEESt6vectorIS4_SaIS4_EEEEbRKNS_17__normal_iteratorIT_T0_EESF_ = comdat any

$_ZNK9__gnu_cxx17__normal_iteratorIPKSt10shared_ptrIN5arrow8DataTypeEESt6vectorIS4_SaIS4_EEEdeEv = comdat any

$_ZN5arrow7compute9InputTypeC2ESt10shared_ptrINS_8DataTypeEE = comdat any

$_ZN9__gnu_cxx17__normal_iteratorIPKSt10shared_ptrIN5arrow8DataTypeEESt6vectorIS4_SaIS4_EEEppEv = comdat any

$_ZN9__gnu_cxx17__normal_iteratorIPKSt10shared_ptrIN5arrow8DataTypeEESt6vectorIS4_SaIS4_EEEC2ERKS6_ = comdat any

$_ZNK9__gnu_cxx17__normal_iteratorIPKSt10shared_ptrIN5arrow8DataTypeEESt6vectorIS4_SaIS4_EEE4baseEv = comdat any

$_ZNSt10shared_ptrIN5arrow8DataTypeEEC2EOS2_ = comdat any

$_ZNSt10shared_ptrIN5arrow7compute11TypeMatcherEEC2Ev = comdat any

$_ZNSt12__shared_ptrIN5arrow8DataTypeELN9__gnu_cxx12_Lock_policyE2EEC2EOS4_ = comdat any

$_ZNSt12__shared_ptrIN5arrow7compute11TypeMatcherELN9__gnu_cxx12_Lock_policyE2EEC2Ev = comdat any

$_ZNSt12__shared_ptrIN5arrow8DataTypeELN9__gnu_cxx12_Lock_policyE2EEC2ERKS4_ = comdat any

$_ZNSt12__shared_ptrIN5arrow8DataTypeELN9__gnu_cxx12_Lock_policyE2EED2Ev = comdat any

$_ZNSt15__new_allocatorISt10shared_ptrIN5arrow8DataTypeEEEC2Ev = comdat any

$_ZNSt12_Vector_baseISt10shared_ptrIN5arrow8DataTypeEESaIS3_EEC2ERKS4_ = comdat any

$_ZNSt6vectorISt10shared_ptrIN5arrow8DataTypeEESaIS3_EE19_M_range_initializeIPKS3_EEvT_S9_St20forward_iterator_tag = comdat any

$_ZNKSt16initializer_listISt10shared_ptrIN5arrow8DataTypeEEE5beginEv = comdat any

$_ZNKSt16initializer_listISt10shared_ptrIN5arrow8DataTypeEEE3endEv = comdat any

$_ZNSt12_Vector_baseISt10shared_ptrIN5arrow8DataTypeEESaIS3_EED2Ev = comdat any

$_ZNSt12_Vector_baseISt10shared_ptrIN5arrow8DataTypeEESaIS3_EE12_Vector_implC2ERKS4_ = comdat any

$_ZNSt12_Vector_baseISt10shared_ptrIN5arrow8DataTypeEESaIS3_EE17_Vector_impl_dataC2Ev = comdat any

$_ZNSt15__new_allocatorISt10shared_ptrIN5arrow8DataTypeEEEC2ERKS4_ = comdat any

$_ZSt8distanceIPKSt10shared_ptrIN5arrow8DataTypeEEENSt15iterator_traitsIT_E15difference_typeES7_S7_ = comdat any

$_ZNSt12_Vector_baseISt10shared_ptrIN5arrow8DataTypeEESaIS3_EE11_M_allocateEm = comdat any

$_ZNSt6vectorISt10shared_ptrIN5arrow8DataTypeEESaIS3_EE17_S_check_init_lenEmRKS4_ = comdat any

$_ZNSt12_Vector_baseISt10shared_ptrIN5arrow8DataTypeEESaIS3_EE19_M_get_Tp_allocatorEv = comdat any

$_ZSt22__uninitialized_copy_aIPKSt10shared_ptrIN5arrow8DataTypeEEPS3_S3_ET0_T_S8_S7_RSaIT1_E = comdat any

$_ZSt10__distanceIPKSt10shared_ptrIN5arrow8DataTypeEEENSt15iterator_traitsIT_E15difference_typeES7_S7_St26random_access_iterator_tag = comdat any

$_ZSt19__iterator_categoryIPKSt10shared_ptrIN5arrow8DataTypeEEENSt15iterator_traitsIT_E17iterator_categoryERKS7_ = comdat any

$_ZNSt16allocator_traitsISaISt10shared_ptrIN5arrow8DataTypeEEEE8allocateERS4_m = comdat any

$_ZNSt15__new_allocatorISt10shared_ptrIN5arrow8DataTypeEEE8allocateEmPKv = comdat any

$_ZNKSt15__new_allocatorISt10shared_ptrIN5arrow8DataTypeEEE11_M_max_sizeEv = comdat any

$_ZNSt6vectorISt10shared_ptrIN5arrow8DataTypeEESaIS3_EE11_S_max_sizeERKS4_ = comdat any

$_ZNSaISt10shared_ptrIN5arrow8DataTypeEEEC2ERKS3_ = comdat any

$_ZNSt16allocator_traitsISaISt10shared_ptrIN5arrow8DataTypeEEEE8max_sizeERKS4_ = comdat any

$_ZNKSt15__new_allocatorISt10shared_ptrIN5arrow8DataTypeEEE8max_sizeEv = comdat any

$_ZSt18uninitialized_copyIPKSt10shared_ptrIN5arrow8DataTypeEEPS3_ET0_T_S8_S7_ = comdat any

$_ZNSt20__uninitialized_copyILb0EE13__uninit_copyIPKSt10shared_ptrIN5arrow8DataTypeEEPS5_EET0_T_SA_S9_ = comdat any

$_ZSt16__do_uninit_copyIPKSt10shared_ptrIN5arrow8DataTypeEEPS3_ET0_T_S8_S7_ = comdat any

$_ZSt10_ConstructISt10shared_ptrIN5arrow8DataTypeEEJRKS3_EEvPT_DpOT0_ = comdat any

$_ZSt8_DestroyIPSt10shared_ptrIN5arrow8DataTypeEEEvT_S5_ = comdat any

$_ZNSt12_Destroy_auxILb0EE9__destroyIPSt10shared_ptrIN5arrow8DataTypeEEEEvT_S7_ = comdat any

$_ZSt8_DestroyISt10shared_ptrIN5arrow8DataTypeEEEvPT_ = comdat any

$_ZNKSt16initializer_listISt10shared_ptrIN5arrow8DataTypeEEE4sizeEv = comdat any

$_ZNSt12_Vector_baseISt10shared_ptrIN5arrow8DataTypeEESaIS3_EE13_M_deallocateEPS3_m = comdat any

$_ZNSt12_Vector_baseISt10shared_ptrIN5arrow8DataTypeEESaIS3_EE12_Vector_implD2Ev = comdat any

$_ZNSt16allocator_traitsISaISt10shared_ptrIN5arrow8DataTypeEEEE10deallocateERS4_PS3_m = comdat any

$_ZNSt15__new_allocatorISt10shared_ptrIN5arrow8DataTypeEEE10deallocateEPS3_m = comdat any

$_ZNSt15__new_allocatorISt10shared_ptrIN5arrow8DataTypeEEED2Ev = comdat any

$_ZSt8_DestroyIPSt10shared_ptrIN5arrow8DataTypeEES3_EvT_S5_RSaIT0_E = comdat any

$_ZNKSt16initializer_listIN5arrow4Type4typeEE4sizeEv = comdat any

$_ZN5arrow7compute9InputTypeC2ESt10shared_ptrINS0_11TypeMatcherEE = comdat any

$_ZNSt10shared_ptrIN5arrow7compute11TypeMatcherEED2Ev = comdat any

$_ZNSt10shared_ptrIN5arrow8DataTypeEEC2Ev = comdat any

$_ZNSt10shared_ptrIN5arrow7compute11TypeMatcherEEC2EOS3_ = comdat any

$_ZNSt12__shared_ptrIN5arrow8DataTypeELN9__gnu_cxx12_Lock_policyE2EEC2Ev = comdat any

$_ZNSt12__shared_ptrIN5arrow7compute11TypeMatcherELN9__gnu_cxx12_Lock_policyE2EEC2EOS5_ = comdat any

$_ZNSt12__shared_ptrIN5arrow7compute11TypeMatcherELN9__gnu_cxx12_Lock_policyE2EED2Ev = comdat any

$_ZNSt15__new_allocatorIN5arrow7compute9InputTypeEEC2Ev = comdat any

$_ZNSt12_Vector_baseIN5arrow7compute9InputTypeESaIS2_EEC2ERKS3_ = comdat any

$_ZNSt6vectorIN5arrow7compute9InputTypeESaIS2_EE19_M_range_initializeIPKS2_EEvT_S8_St20forward_iterator_tag = comdat any

$_ZNKSt16initializer_listIN5arrow7compute9InputTypeEE5beginEv = comdat any

$_ZNKSt16initializer_listIN5arrow7compute9InputTypeEE3endEv = comdat any

$_ZNSt12_Vector_baseIN5arrow7compute9InputTypeESaIS2_EED2Ev = comdat any

$_ZNSt12_Vector_baseIN5arrow7compute9InputTypeESaIS2_EE12_Vector_implC2ERKS3_ = comdat any

$_ZNSt12_Vector_baseIN5arrow7compute9InputTypeESaIS2_EE17_Vector_impl_dataC2Ev = comdat any

$_ZNSt15__new_allocatorIN5arrow7compute9InputTypeEEC2ERKS3_ = comdat any

$_ZSt8distanceIPKN5arrow7compute9InputTypeEENSt15iterator_traitsIT_E15difference_typeES6_S6_ = comdat any

$_ZNSt12_Vector_baseIN5arrow7compute9InputTypeESaIS2_EE11_M_allocateEm = comdat any

$_ZNSt6vectorIN5arrow7compute9InputTypeESaIS2_EE17_S_check_init_lenEmRKS3_ = comdat any

$_ZNSt12_Vector_baseIN5arrow7compute9InputTypeESaIS2_EE19_M_get_Tp_allocatorEv = comdat any

$_ZSt22__uninitialized_copy_aIPKN5arrow7compute9InputTypeEPS2_S2_ET0_T_S7_S6_RSaIT1_E = comdat any

$_ZSt10__distanceIPKN5arrow7compute9InputTypeEENSt15iterator_traitsIT_E15difference_typeES6_S6_St26random_access_iterator_tag = comdat any

$_ZSt19__iterator_categoryIPKN5arrow7compute9InputTypeEENSt15iterator_traitsIT_E17iterator_categoryERKS6_ = comdat any

$_ZNSt16allocator_traitsISaIN5arrow7compute9InputTypeEEE8allocateERS3_m = comdat any

$_ZNSt15__new_allocatorIN5arrow7compute9InputTypeEE8allocateEmPKv = comdat any

$_ZNKSt15__new_allocatorIN5arrow7compute9InputTypeEE11_M_max_sizeEv = comdat any

$_ZNSt6vectorIN5arrow7compute9InputTypeESaIS2_EE11_S_max_sizeERKS3_ = comdat any

$_ZNSaIN5arrow7compute9InputTypeEEC2ERKS2_ = comdat any

$_ZNSt16allocator_traitsISaIN5arrow7compute9InputTypeEEE8max_sizeERKS3_ = comdat any

$_ZNKSt15__new_allocatorIN5arrow7compute9InputTypeEE8max_sizeEv = comdat any

$_ZSt18uninitialized_copyIPKN5arrow7compute9InputTypeEPS2_ET0_T_S7_S6_ = comdat any

$_ZNSt20__uninitialized_copyILb0EE13__uninit_copyIPKN5arrow7compute9InputTypeEPS4_EET0_T_S9_S8_ = comdat any

$_ZSt16__do_uninit_copyIPKN5arrow7compute9InputTypeEPS2_ET0_T_S7_S6_ = comdat any

$_ZSt10_ConstructIN5arrow7compute9InputTypeEJRKS2_EEvPT_DpOT0_ = comdat any

$_ZSt8_DestroyIPN5arrow7compute9InputTypeEEvT_S4_ = comdat any

$_ZN5arrow7compute9InputTypeC2ERKS1_ = comdat any

$_ZN5arrow7compute9InputType8CopyIntoERKS1_ = comdat any

$_ZNSt10shared_ptrIN5arrow8DataTypeEEaSERKS2_ = comdat any

$_ZNSt10shared_ptrIN5arrow7compute11TypeMatcherEEaSERKS3_ = comdat any

$_ZNSt12__shared_ptrIN5arrow8DataTypeELN9__gnu_cxx12_Lock_policyE2EEaSERKS4_ = comdat any

$_ZNSt12__shared_ptrIN5arrow7compute11TypeMatcherELN9__gnu_cxx12_Lock_policyE2EEaSERKS5_ = comdat any

$_ZNSt12_Destroy_auxILb0EE9__destroyIPN5arrow7compute9InputTypeEEEvT_S6_ = comdat any

$_ZSt8_DestroyIN5arrow7compute9InputTypeEEvPT_ = comdat any

$_ZNKSt16initializer_listIN5arrow7compute9InputTypeEE4sizeEv = comdat any

$_ZNSt12_Vector_baseIN5arrow7compute9InputTypeESaIS2_EE13_M_deallocateEPS2_m = comdat any

$_ZNSt12_Vector_baseIN5arrow7compute9InputTypeESaIS2_EE12_Vector_implD2Ev = comdat any

$_ZNSt16allocator_traitsISaIN5arrow7compute9InputTypeEEE10deallocateERS3_PS2_m = comdat any

$_ZNSt15__new_allocatorIN5arrow7compute9InputTypeEE10deallocateEPS2_m = comdat any

$_ZNSt15__new_allocatorIN5arrow7compute9InputTypeEED2Ev = comdat any

$_ZNSt8functionIFN5arrow6ResultINS0_10TypeHolderEEEPNS0_7compute13KernelContextERKSt6vectorIS2_SaIS2_EEEEC2EDn = comdat any

$_ZNSt12__shared_ptrIN5arrow7compute15KernelSignatureELN9__gnu_cxx12_Lock_policyE2EEaSEOS5_ = comdat any

$_ZNSt12__shared_ptrIN5arrow7compute15KernelSignatureELN9__gnu_cxx12_Lock_policyE2EEC2EOS5_ = comdat any

$_ZNSt12__shared_ptrIN5arrow7compute15KernelSignatureELN9__gnu_cxx12_Lock_policyE2EE4swapERS5_ = comdat any

$_ZNSt12__shared_ptrIN5arrow7compute15KernelSignatureELN9__gnu_cxx12_Lock_policyE2EED2Ev = comdat any

$_ZSt4swapIPN5arrow7compute15KernelSignatureEENSt9enable_ifIXsr6__and_ISt6__not_ISt15__is_tuple_likeIT_EESt21is_move_constructibleIS7_ESt18is_move_assignableIS7_EEE5valueEvE4typeERS7_SG_ = comdat any

$_ZNSt8functionIFN5arrow6ResultINS0_10TypeHolderEEEPNS0_7compute13KernelContextERKSt6vectorIS2_SaIS2_EEEED2Ev = comdat any

$_ZSt8_DestroyIPN5arrow7compute9InputTypeES2_EvT_S4_RSaIT0_E = comdat any

$_ZNKSt19__shared_ptr_accessIN5arrow7compute14VectorFunctionELN9__gnu_cxx12_Lock_policyE2ELb0ELb0EE6_M_getEv = comdat any

$_ZNKSt12__shared_ptrIN5arrow7compute14VectorFunctionELN9__gnu_cxx12_Lock_policyE2EE3getEv = comdat any

$_ZNSt12__shared_ptrIN5arrow7compute14VectorFunctionELN9__gnu_cxx12_Lock_policyE2EED2Ev = comdat any

$_ZNSt11char_traitsIcE6lengthEPKc = comdat any

$_ZNSt7__cxx1112basic_stringIcSt11char_traitsIcESaIcEE12_M_constructIPKcEEvT_S8_St20forward_iterator_tag = comdat any

$_ZNSt7__cxx1112basic_stringIcSt11char_traitsIcESaIcEE12_Alloc_hiderD2Ev = comdat any

$_ZSt8distanceIPKcENSt15iterator_traitsIT_E15difference_typeES3_S3_ = comdat any

$_ZZNSt7__cxx1112basic_stringIcSt11char_traitsIcESaIcEE12_M_constructIPKcEEvT_S8_St20forward_iterator_tagEN6_GuardC2EPS4_ = comdat any

$_ZZNSt7__cxx1112basic_stringIcSt11char_traitsIcESaIcEE12_M_constructIPKcEEvT_S8_St20forward_iterator_tagEN6_GuardD2Ev = comdat any

$_ZSt10__distanceIPKcENSt15iterator_traitsIT_E15difference_typeES3_S3_St26random_access_iterator_tag = comdat any

$_ZSt19__iterator_categoryIPKcENSt15iterator_traitsIT_E17iterator_categoryERKS3_ = comdat any

$_ZSt8_DestroyIPNSt7__cxx1112basic_stringIcSt11char_traitsIcESaIcEEES5_EvT_S7_RSaIT0_E = comdat any

$_ZNSt15__new_allocatorINSt7__cxx1112basic_stringIcSt11char_traitsIcESaIcEEEEC2Ev = comdat any

$_ZNSt12_Vector_baseINSt7__cxx1112basic_stringIcSt11char_traitsIcESaIcEEESaIS5_EEC2ERKS6_ = comdat any

$_ZNSt6vectorINSt7__cxx1112basic_stringIcSt11char_traitsIcESaIcEEESaIS5_EE19_M_range_initializeIPKS5_EEvT_SB_St20forward_iterator_tag = comdat any

$_ZNKSt16initializer_listINSt7__cxx1112basic_stringIcSt11char_traitsIcESaIcEEEE5beginEv = comdat any

$_ZNKSt16initializer_listINSt7__cxx1112basic_stringIcSt11char_traitsIcESaIcEEEE3endEv = comdat any

$_ZSt8distanceIPKNSt7__cxx1112basic_stringIcSt11char_traitsIcESaIcEEEENSt15iterator_traitsIT_E15difference_typeES9_S9_ = comdat any

$_ZNSt6vectorINSt7__cxx1112basic_stringIcSt11char_traitsIcESaIcEEESaIS5_EE17_S_check_init_lenEmRKS6_ = comdat any

$_ZSt22__uninitialized_copy_aIPKNSt7__cxx1112basic_stringIcSt11char_traitsIcESaIcEEEPS5_S5_ET0_T_SA_S9_RSaIT1_E = comdat any

$_ZSt10__distanceIPKNSt7__cxx1112basic_stringIcSt11char_traitsIcESaIcEEEENSt15iterator_traitsIT_E15difference_typeES9_S9_St26random_access_iterator_tag = comdat any

$_ZSt19__iterator_categoryIPKNSt7__cxx1112basic_stringIcSt11char_traitsIcESaIcEEEENSt15iterator_traitsIT_E17iterator_categoryERKS9_ = comdat any

$_ZNSt6vectorINSt7__cxx1112basic_stringIcSt11char_traitsIcESaIcEEESaIS5_EE11_S_max_sizeERKS6_ = comdat any

$_ZNSt16allocator_traitsISaINSt7__cxx1112basic_stringIcSt11char_traitsIcESaIcEEEEE8max_sizeERKS6_ = comdat any

$_ZNKSt15__new_allocatorINSt7__cxx1112basic_stringIcSt11char_traitsIcESaIcEEEE8max_sizeEv = comdat any

$_ZSt18uninitialized_copyIPKNSt7__cxx1112basic_stringIcSt11char_traitsIcESaIcEEEPS5_ET0_T_SA_S9_ = comdat any

$_ZNSt20__uninitialized_copyILb0EE13__uninit_copyIPKNSt7__cxx1112basic_stringIcSt11char_traitsIcESaIcEEEPS7_EET0_T_SC_SB_ = comdat any

$_ZSt16__do_uninit_copyIPKNSt7__cxx1112basic_stringIcSt11char_traitsIcESaIcEEEPS5_ET0_T_SA_S9_ = comdat any

$_ZNKSt16initializer_listINSt7__cxx1112basic_stringIcSt11char_traitsIcESaIcEEEE4sizeEv = comdat any

$_ZSt8_DestroyIPN5arrow7compute8internal19SelectionKernelDataES3_EvT_S5_RSaIT0_E = comdat any

$_ZNSt12_Vector_baseIN5arrow7compute8internal19SelectionKernelDataESaIS3_EE19_M_get_Tp_allocatorEv = comdat any

$_ZNSt12_Vector_baseIN5arrow7compute8internal19SelectionKernelDataESaIS3_EED2Ev = comdat any

$_ZSt8_DestroyIPN5arrow7compute8internal19SelectionKernelDataEEvT_S5_ = comdat any

$_ZNSt12_Destroy_auxILb0EE9__destroyIPN5arrow7compute8internal19SelectionKernelDataEEEvT_S7_ = comdat any

$_ZSt8_DestroyIN5arrow7compute8internal19SelectionKernelDataEEvPT_ = comdat any

$_ZN5arrow7compute8internal19SelectionKernelDataD2Ev = comdat any

$_ZNSt12_Vector_baseIN5arrow7compute8internal19SelectionKernelDataESaIS3_EE13_M_deallocateEPS3_m = comdat any

$_ZNSt12_Vector_baseIN5arrow7compute8internal19SelectionKernelDataESaIS3_EE12_Vector_implD2Ev = comdat any

$_ZNSt16allocator_traitsISaIN5arrow7compute8internal19SelectionKernelDataEEE10deallocateERS4_PS3_m = comdat any

$_ZNSt15__new_allocatorIN5arrow7compute8internal19SelectionKernelDataEE10deallocateEPS3_m = comdat any

$_ZNSaIN5arrow7compute8internal19SelectionKernelDataEED2Ev = comdat any

$_ZNSt15__new_allocatorIN5arrow7compute8internal19SelectionKernelDataEED2Ev = comdat any

$_ZSt11make_uniqueIN5arrow7compute8internal14OptionsWrapperINS1_13FilterOptionsEEEJRKS4_EENSt8__detail9_MakeUniqIT_E15__single_objectEDpOT0_ = comdat any

$_ZN5arrow6ResultISt10unique_ptrINS_7compute11KernelStateESt14default_deleteIS3_EEEC2IS1_INS2_8internal14OptionsWrapperINS2_13FilterOptionsEEES4_ISC_EEvEEOT_ = comdat any

$_ZNSt10unique_ptrIN5arrow7compute8internal14OptionsWrapperINS1_13FilterOptionsEEESt14default_deleteIS5_EED2Ev = comdat any

$_ZN5arrow6Status7InvalidIJRA62_KcEEES0_DpOT_ = comdat any

$_ZN5arrow6ResultISt10unique_ptrINS_7compute11KernelStateESt14default_deleteIS3_EEEC2ERKNS_6StatusE = comdat any

$_ZN5arrow7compute13FilterOptionsC2ERKS1_ = comdat any

$_ZN5arrow7compute8internal14OptionsWrapperINS0_13FilterOptionsEEC2ES3_ = comdat any

$_ZNSt10unique_ptrIN5arrow7compute8internal14OptionsWrapperINS1_13FilterOptionsEEESt14default_deleteIS5_EEC2IS7_vEEPS5_ = comdat any

$_ZN5arrow7compute13FilterOptionsD2Ev = comdat any

$_ZN5arrow7compute15FunctionOptionsC2ERKS1_ = comdat any

$_ZN5arrow7compute13FilterOptionsD0Ev = comdat any

$_ZN5arrow7compute15FunctionOptionsD2Ev = comdat any

$_ZN5arrow7compute15FunctionOptionsD0Ev = comdat any

$_ZN5arrow4util18EqualityComparableINS_7compute15FunctionOptionsEED2Ev = comdat any

$_ZN5arrow7compute11KernelStateC2Ev = comdat any

$_ZN5arrow7compute13FilterOptionsC2EOS1_ = comdat any

$_ZN5arrow7compute8internal14OptionsWrapperINS0_13FilterOptionsEED2Ev = comdat any

$_ZN5arrow7compute8internal14OptionsWrapperINS0_13FilterOptionsEED0Ev = comdat any

$_ZN5arrow7compute11KernelStateD2Ev = comdat any

$_ZN5arrow7compute11KernelStateD0Ev = comdat any

$_ZNSt15__uniq_ptr_dataIN5arrow7compute8internal14OptionsWrapperINS1_13FilterOptionsEEESt14default_deleteIS5_ELb1ELb1EECI2St15__uniq_ptr_implIS5_S7_EEPS5_ = comdat any

$_ZNSt15__uniq_ptr_implIN5arrow7compute8internal14OptionsWrapperINS1_13FilterOptionsEEESt14default_deleteIS5_EEC2EPS5_ = comdat any

$_ZNSt5tupleIJPN5arrow7compute8internal14OptionsWrapperINS1_13FilterOptionsEEESt14default_deleteIS5_EEEC2ILb1ETnNSt9enable_ifIXclsr17_TupleConstraintsIXT_ES6_S8_EE37__is_implicitly_default_constructibleEEbE4typeELb1EEEv = comdat any

$_ZNSt15__uniq_ptr_implIN5arrow7compute8internal14OptionsWrapperINS1_13FilterOptionsEEESt14default_deleteIS5_EE6_M_ptrEv = comdat any

$_ZNSt11_Tuple_implILm0EJPN5arrow7compute8internal14OptionsWrapperINS1_13FilterOptionsEEESt14default_deleteIS5_EEEC2Ev = comdat any

$_ZNSt11_Tuple_implILm1EJSt14default_deleteIN5arrow7compute8internal14OptionsWrapperINS2_13FilterOptionsEEEEEEC2Ev = comdat any

$_ZNSt10_Head_baseILm0EPN5arrow7compute8internal14OptionsWrapperINS1_13FilterOptionsEEELb0EEC2Ev = comdat any

$_ZNSt10_Head_baseILm1ESt14default_deleteIN5arrow7compute8internal14OptionsWrapperINS2_13FilterOptionsEEEELb1EEC2Ev = comdat any

$_ZSt3getILm0EJPN5arrow7compute8internal14OptionsWrapperINS1_13FilterOptionsEEESt14default_deleteIS5_EEERNSt13tuple_elementIXT_ESt5tupleIJDpT0_EEE4typeERSD_ = comdat any

$_ZSt12__get_helperILm0EPN5arrow7compute8internal14OptionsWrapperINS1_13FilterOptionsEEEJSt14default_deleteIS5_EEERT0_RSt11_Tuple_implIXT_EJS9_DpT1_EE = comdat any

$_ZNSt11_Tuple_implILm0EJPN5arrow7compute8internal14OptionsWrapperINS1_13FilterOptionsEEESt14default_deleteIS5_EEE7_M_headERS9_ = comdat any

$_ZNSt10_Head_baseILm0EPN5arrow7compute8internal14OptionsWrapperINS1_13FilterOptionsEEELb0EE7_M_headERS7_ = comdat any

$_ZN5arrow6ResultISt10unique_ptrINS_7compute11KernelStateESt14default_deleteIS3_EEE14ConstructValueIS1_INS2_8internal14OptionsWrapperINS2_13FilterOptionsEEES4_ISC_EEEEvOT_ = comdat any

$_ZN5arrow8internal14AlignedStorageISt10unique_ptrINS_7compute11KernelStateESt14default_deleteIS4_EEE9constructIJS2_INS3_8internal14OptionsWrapperINS3_13FilterOptionsEEES5_ISD_EEEEEvDpOT_ = comdat any

$_ZNSt10unique_ptrIN5arrow7compute11KernelStateESt14default_deleteIS2_EEC2INS1_8internal14OptionsWrapperINS1_13FilterOptionsEEES3_ISA_EvEEOS_IT_T0_E = comdat any

$_ZNSt10unique_ptrIN5arrow7compute8internal14OptionsWrapperINS1_13FilterOptionsEEESt14default_deleteIS5_EE7releaseEv = comdat any

$_ZNSt10unique_ptrIN5arrow7compute8internal14OptionsWrapperINS1_13FilterOptionsEEESt14default_deleteIS5_EE11get_deleterEv = comdat any

$_ZNSt15__uniq_ptr_dataIN5arrow7compute11KernelStateESt14default_deleteIS2_ELb1ELb1EECI2St15__uniq_ptr_implIS2_S4_EIS3_INS1_8internal14OptionsWrapperINS1_13FilterOptionsEEEEEEPS2_OT_ = comdat any

$_ZNSt15__uniq_ptr_implIN5arrow7compute8internal14OptionsWrapperINS1_13FilterOptionsEEESt14default_deleteIS5_EE7releaseEv = comdat any

$_ZNSt15__uniq_ptr_implIN5arrow7compute8internal14OptionsWrapperINS1_13FilterOptionsEEESt14default_deleteIS5_EE10_M_deleterEv = comdat any

$_ZSt3getILm1EJPN5arrow7compute8internal14OptionsWrapperINS1_13FilterOptionsEEESt14default_deleteIS5_EEERNSt13tuple_elementIXT_ESt5tupleIJDpT0_EEE4typeERSD_ = comdat any

$_ZSt12__get_helperILm1ESt14default_deleteIN5arrow7compute8internal14OptionsWrapperINS2_13FilterOptionsEEEEJEERT0_RSt11_Tuple_implIXT_EJS8_DpT1_EE = comdat any

$_ZNSt11_Tuple_implILm1EJSt14default_deleteIN5arrow7compute8internal14OptionsWrapperINS2_13FilterOptionsEEEEEE7_M_headERS8_ = comdat any

$_ZNSt10_Head_baseILm1ESt14default_deleteIN5arrow7compute8internal14OptionsWrapperINS2_13FilterOptionsEEEELb1EE7_M_headERS8_ = comdat any

$_ZNSt15__uniq_ptr_implIN5arrow7compute11KernelStateESt14default_deleteIS2_EEC2IS3_INS1_8internal14OptionsWrapperINS1_13FilterOptionsEEEEEEPS2_OT_ = comdat any

$_ZNSt5tupleIJPN5arrow7compute11KernelStateESt14default_deleteIS2_EEEC2IRS3_S4_INS1_8internal14OptionsWrapperINS1_13FilterOptionsEEEETnNSt9enable_ifIXclsr4_TCCIXntcl14__is_alloc_argIT_EEEEE29__is_implicitly_constructibleISF_T0_EEEbE4typeELb1EEEOSF_OSG_ = comdat any

$_ZNSt11_Tuple_implILm0EJPN5arrow7compute11KernelStateESt14default_deleteIS2_EEEC2IRS3_JS4_INS1_8internal14OptionsWrapperINS1_13FilterOptionsEEEEEvEEOT_DpOT0_ = comdat any

$_ZNSt11_Tuple_implILm1EJSt14default_deleteIN5arrow7compute11KernelStateEEEEC2IS0_INS2_8internal14OptionsWrapperINS2_13FilterOptionsEEEEEEOT_ = comdat any

$_ZNSt10_Head_baseILm0EPN5arrow7compute11KernelStateELb0EEC2IRS3_EEOT_ = comdat any

$_ZNSt10_Head_baseILm1ESt14default_deleteIN5arrow7compute11KernelStateEELb1EEC2IS0_INS2_8internal14OptionsWrapperINS2_13FilterOptionsEEEEEEOT_ = comdat any

$_ZNSt14default_deleteIN5arrow7compute11KernelStateEEC2INS1_8internal14OptionsWrapperINS1_13FilterOptionsEEEvEERKS_IT_E = comdat any

$_ZNKSt14default_deleteIN5arrow7compute8internal14OptionsWrapperINS1_13FilterOptionsEEEEclEPS5_ = comdat any

$_ZN5arrow6Status8FromArgsIJRA62_KcEEES0_NS_10StatusCodeEDpOT_ = comdat any

$_ZN5arrow4util13StringBuilderIJRA62_KcEEENSt7__cxx1112basic_stringIcSt11char_traitsIcESaIcEEEDpOT_ = comdat any

$_ZN5arrow4util22StringBuilderRecursiveIRA62_KcEEvRSoOT_ = comdat any

$_ZNSt8functionIFN5arrow6ResultISt10unique_ptrINS0_7compute11KernelStateESt14default_deleteIS4_EEEEPNS3_13KernelContextERKNS3_14KernelInitArgsEEEC2IRSE_vEEOT_ = comdat any

$_ZNSt8functionIFN5arrow6ResultISt10unique_ptrINS0_7compute11KernelStateESt14default_deleteIS4_EEEEPNS3_13KernelContextERKNS3_14KernelInitArgsEEE4swapERSF_ = comdat any

$_ZNSt14_Function_base13_Base_managerIPFN5arrow6ResultISt10unique_ptrINS1_7compute11KernelStateESt14default_deleteIS5_EEEEPNS4_13KernelContextERKNS4_14KernelInitArgsEEE21_M_not_empty_functionISF_EEbPT_ = comdat any

$_ZNSt14_Function_base13_Base_managerIPFN5arrow6ResultISt10unique_ptrINS1_7compute11KernelStateESt14default_deleteIS5_EEEEPNS4_13KernelContextERKNS4_14KernelInitArgsEEE15_M_init_functorIRSF_EEvRSt9_Any_dataOT_ = comdat any

$_ZNSt17_Function_handlerIFN5arrow6ResultISt10unique_ptrINS0_7compute11KernelStateESt14default_deleteIS4_EEEEPNS3_13KernelContextERKNS3_14KernelInitArgsEEPSE_E9_M_invokeERKSt9_Any_dataOSA_SD_ = comdat any

$_ZNSt17_Function_handlerIFN5arrow6ResultISt10unique_ptrINS0_7compute11KernelStateESt14default_deleteIS4_EEEEPNS3_13KernelContextERKNS3_14KernelInitArgsEEPSE_E10_M_managerERSt9_Any_dataRKSH_St18_Manager_operation = comdat any

$_ZNSt14_Function_base13_Base_managerIPFN5arrow6ResultISt10unique_ptrINS1_7compute11KernelStateESt14default_deleteIS5_EEEEPNS4_13KernelContextERKNS4_14KernelInitArgsEEE9_M_createIRSF_EEvRSt9_Any_dataOT_St17integral_constantIbLb1EE = comdat any

$_ZNSt9_Any_data9_M_accessEv = comdat any

$_ZSt10__invoke_rIN5arrow6ResultISt10unique_ptrINS0_7compute11KernelStateESt14default_deleteIS4_EEEERPFS8_PNS3_13KernelContextERKNS3_14KernelInitArgsEEJSA_SD_EENSt9enable_ifIX16is_invocable_r_vIT_T0_DpT1_EESI_E4typeEOSJ_DpOSK_ = comdat any

$_ZNSt14_Function_base13_Base_managerIPFN5arrow6ResultISt10unique_ptrINS1_7compute11KernelStateESt14default_deleteIS5_EEEEPNS4_13KernelContextERKNS4_14KernelInitArgsEEE14_M_get_pointerERKSt9_Any_data = comdat any

$_ZSt13__invoke_implIN5arrow6ResultISt10unique_ptrINS0_7compute11KernelStateESt14default_deleteIS4_EEEERPFS8_PNS3_13KernelContextERKNS3_14KernelInitArgsEEJSA_SD_EET_St14__invoke_otherOT0_DpOT1_ = comdat any

$_ZNKSt9_Any_data9_M_accessIPFN5arrow6ResultISt10unique_ptrINS1_7compute11KernelStateESt14default_deleteIS5_EEEEPNS4_13KernelContextERKNS4_14KernelInitArgsEEEERKT_v = comdat any

$_ZNKSt9_Any_data9_M_accessEv = comdat any

$_ZNSt9_Any_data9_M_accessIPKSt9type_infoEERT_v = comdat any

$_ZNSt9_Any_data9_M_accessIPPFN5arrow6ResultISt10unique_ptrINS1_7compute11KernelStateESt14default_deleteIS5_EEEEPNS4_13KernelContextERKNS4_14KernelInitArgsEEEERT_v = comdat any

$_ZNSt14_Function_base13_Base_managerIPFN5arrow6ResultISt10unique_ptrINS1_7compute11KernelStateESt14default_deleteIS5_EEEEPNS4_13KernelContextERKNS4_14KernelInitArgsEEE10_M_managerERSt9_Any_dataRKSI_St18_Manager_operation = comdat any

$_ZNSt14_Function_base13_Base_managerIPFN5arrow6ResultISt10unique_ptrINS1_7compute11KernelStateESt14default_deleteIS5_EEEEPNS4_13KernelContextERKNS4_14KernelInitArgsEEE15_M_init_functorIRKSG_EEvRSt9_Any_dataOT_ = comdat any

$_ZNSt14_Function_base13_Base_managerIPFN5arrow6ResultISt10unique_ptrINS1_7compute11KernelStateESt14default_deleteIS5_EEEEPNS4_13KernelContextERKNS4_14KernelInitArgsEEE10_M_destroyERSt9_Any_dataSt17integral_constantIbLb1EE = comdat any

$_ZNSt14_Function_base13_Base_managerIPFN5arrow6ResultISt10unique_ptrINS1_7compute11KernelStateESt14default_deleteIS5_EEEEPNS4_13KernelContextERKNS4_14KernelInitArgsEEE9_M_createIRKSG_EEvRSt9_Any_dataOT_St17integral_constantIbLb1EE = comdat any

$_ZNSt9_Any_data9_M_accessIPFN5arrow6ResultISt10unique_ptrINS1_7compute11KernelStateESt14default_deleteIS5_EEEEPNS4_13KernelContextERKNS4_14KernelInitArgsEEEERT_v = comdat any

$_ZSt4swapISt9_Any_dataENSt9enable_ifIXsr6__and_ISt6__not_ISt15__is_tuple_likeIT_EESt21is_move_constructibleIS4_ESt18is_move_assignableIS4_EEE5valueEvE4typeERS4_SD_ = comdat any

$_ZSt4swapIPFbRSt9_Any_dataRKS0_St18_Manager_operationEENSt9enable_ifIXsr6__and_ISt6__not_ISt15__is_tuple_likeIT_EESt21is_move_constructibleISA_ESt18is_move_assignableISA_EEE5valueEvE4typeERSA_SJ_ = comdat any

$_ZSt4swapIPFN5arrow6ResultISt10unique_ptrINS0_7compute11KernelStateESt14default_deleteIS4_EEEERKSt9_Any_dataOPNS3_13KernelContextERKNS3_14KernelInitArgsEEENSt9enable_ifIXsr6__and_ISt6__not_ISt15__is_tuple_likeIT_EESt21is_move_constructibleISN_ESt18is_move_assignableISN_EEE5valueEvE4typeERSN_SW_ = comdat any

$_ZNSt15__uniq_ptr_implIN5arrow7compute8FunctionESt14default_deleteIS2_EE6_M_ptrEv = comdat any

$_ZNSt10unique_ptrIN5arrow7compute8FunctionESt14default_deleteIS2_EE11get_deleterEv = comdat any

$_ZNKSt14default_deleteIN5arrow7compute8FunctionEEclEPS2_ = comdat any

$_ZSt3getILm0EJPN5arrow7compute8FunctionESt14default_deleteIS2_EEERNSt13tuple_elementIXT_ESt5tupleIJDpT0_EEE4typeERSA_ = comdat any

$_ZSt12__get_helperILm0EPN5arrow7compute8FunctionEJSt14default_deleteIS2_EEERT0_RSt11_Tuple_implIXT_EJS6_DpT1_EE = comdat any

$_ZNSt11_Tuple_implILm0EJPN5arrow7compute8FunctionESt14default_deleteIS2_EEE7_M_headERS6_ = comdat any

$_ZNSt10_Head_baseILm0EPN5arrow7compute8FunctionELb0EE7_M_headERS4_ = comdat any

$_ZNSt15__uniq_ptr_implIN5arrow7compute8FunctionESt14default_deleteIS2_EE10_M_deleterEv = comdat any

$_ZSt3getILm1EJPN5arrow7compute8FunctionESt14default_deleteIS2_EEERNSt13tuple_elementIXT_ESt5tupleIJDpT0_EEE4typeERSA_ = comdat any

$_ZSt12__get_helperILm1ESt14default_deleteIN5arrow7compute8FunctionEEJEERT0_RSt11_Tuple_implIXT_EJS5_DpT1_EE = comdat any

$_ZNSt11_Tuple_implILm1EJSt14default_deleteIN5arrow7compute8FunctionEEEE7_M_headERS5_ = comdat any

$_ZNSt10_Head_baseILm1ESt14default_deleteIN5arrow7compute8FunctionEELb1EE7_M_headERS5_ = comdat any

$_ZNSt12__shared_ptrIN5arrow7compute8FunctionELN9__gnu_cxx12_Lock_policyE2EEC2IS2_St14default_deleteIS2_EvEEOSt10unique_ptrIT_T0_E = comdat any

$_ZNKSt10unique_ptrIN5arrow7compute8FunctionESt14default_deleteIS2_EE3getEv = comdat any

$_ZSt12__to_addressIN5arrow7compute8FunctionEEPT_S4_ = comdat any

$_ZNSt14__shared_countILN9__gnu_cxx12_Lock_policyE2EEC2IN5arrow7compute8FunctionESt14default_deleteIS6_EEEOSt10unique_ptrIT_T0_E = comdat any

$_ZNSt12__shared_ptrIN5arrow7compute8FunctionELN9__gnu_cxx12_Lock_policyE2EE31_M_enable_shared_from_this_withIS2_S2_EENSt9enable_ifIXntsr15__has_esft_baseIT0_EE5valueEvE4typeEPT_ = comdat any

$_ZNKSt15__uniq_ptr_implIN5arrow7compute8FunctionESt14default_deleteIS2_EE6_M_ptrEv = comdat any

$_ZSt3getILm0EJPN5arrow7compute8FunctionESt14default_deleteIS2_EEERKNSt13tuple_elementIXT_ESt5tupleIJDpT0_EEE4typeERKSA_ = comdat any

$_ZSt12__get_helperILm0EPN5arrow7compute8FunctionEJSt14default_deleteIS2_EEERKT0_RKSt11_Tuple_implIXT_EJS6_DpT1_EE = comdat any

$_ZNSt11_Tuple_implILm0EJPN5arrow7compute8FunctionESt14default_deleteIS2_EEE7_M_headERKS6_ = comdat any

$_ZNSt10_Head_baseILm0EPN5arrow7compute8FunctionELb0EE7_M_headERKS4_ = comdat any

$_ZNSaISt19_Sp_counted_deleterIPN5arrow7compute8FunctionESt14default_deleteIS2_ESaIvELN9__gnu_cxx12_Lock_policyE2EEEC2Ev = comdat any

$_ZNSt16allocator_traitsISaISt19_Sp_counted_deleterIPN5arrow7compute8FunctionESt14default_deleteIS3_ESaIvELN9__gnu_cxx12_Lock_policyE2EEEE8allocateERSB_m = comdat any

$_ZNSt16allocator_traitsISaISt19_Sp_counted_deleterIPN5arrow7compute8FunctionESt14default_deleteIS3_ESaIvELN9__gnu_cxx12_Lock_policyE2EEEE9constructISA_JS4_S6_EEEvRSB_PT_DpOT0_ = comdat any

$_ZNSt10unique_ptrIN5arrow7compute8FunctionESt14default_deleteIS2_EE7releaseEv = comdat any

$_ZNSaISt19_Sp_counted_deleterIPN5arrow7compute8FunctionESt14default_deleteIS2_ESaIvELN9__gnu_cxx12_Lock_policyE2EEED2Ev = comdat any

$_ZNSt15__new_allocatorISt19_Sp_counted_deleterIPN5arrow7compute8FunctionESt14default_deleteIS3_ESaIvELN9__gnu_cxx12_Lock_policyE2EEEC2Ev = comdat any

$_ZNSt15__new_allocatorISt19_Sp_counted_deleterIPN5arrow7compute8FunctionESt14default_deleteIS3_ESaIvELN9__gnu_cxx12_Lock_policyE2EEE8allocateEmPKv = comdat any

$_ZNKSt15__new_allocatorISt19_Sp_counted_deleterIPN5arrow7compute8FunctionESt14default_deleteIS3_ESaIvELN9__gnu_cxx12_Lock_policyE2EEE11_M_max_sizeEv = comdat any

$_ZNSt15__new_allocatorISt19_Sp_counted_deleterIPN5arrow7compute8FunctionESt14default_deleteIS3_ESaIvELN9__gnu_cxx12_Lock_policyE2EEE9constructISA_JS4_S6_EEEvPT_DpOT0_ = comdat any

$_ZNSt19_Sp_counted_deleterIPN5arrow7compute8FunctionESt14default_deleteIS2_ESaIvELN9__gnu_cxx12_Lock_policyE2EEC2ES3_S5_ = comdat any

$_ZNSt19_Sp_counted_deleterIPN5arrow7compute8FunctionESt14default_deleteIS2_ESaIvELN9__gnu_cxx12_Lock_policyE2EE5_ImplC2ES3_S5_RKS6_ = comdat any

$_ZNSt19_Sp_counted_deleterIPN5arrow7compute8FunctionESt14default_deleteIS2_ESaIvELN9__gnu_cxx12_Lock_policyE2EED2Ev = comdat any

$_ZNSt19_Sp_counted_deleterIPN5arrow7compute8FunctionESt14default_deleteIS2_ESaIvELN9__gnu_cxx12_Lock_policyE2EED0Ev = comdat any

$_ZNSt19_Sp_counted_deleterIPN5arrow7compute8FunctionESt14default_deleteIS2_ESaIvELN9__gnu_cxx12_Lock_policyE2EE10_M_disposeEv = comdat any

$_ZNSt19_Sp_counted_deleterIPN5arrow7compute8FunctionESt14default_deleteIS2_ESaIvELN9__gnu_cxx12_Lock_policyE2EE10_M_destroyEv = comdat any

$_ZNSt19_Sp_counted_deleterIPN5arrow7compute8FunctionESt14default_deleteIS2_ESaIvELN9__gnu_cxx12_Lock_policyE2EE14_M_get_deleterERKSt9type_info = comdat any

$_ZNSt14_Sp_ebo_helperILi0ESt14default_deleteIN5arrow7compute8FunctionEELb1EEC2EOS4_ = comdat any

$_ZNSt19_Sp_counted_deleterIPN5arrow7compute8FunctionESt14default_deleteIS2_ESaIvELN9__gnu_cxx12_Lock_policyE2EE5_Impl6_M_delEv = comdat any

$_ZNSt14_Sp_ebo_helperILi0ESt14default_deleteIN5arrow7compute8FunctionEELb1EE6_S_getERS5_ = comdat any

$_ZNSt19_Sp_counted_deleterIPN5arrow7compute8FunctionESt14default_deleteIS2_ESaIvELN9__gnu_cxx12_Lock_policyE2EE5_Impl8_M_allocEv = comdat any

$_ZNSaISt19_Sp_counted_deleterIPN5arrow7compute8FunctionESt14default_deleteIS2_ESaIvELN9__gnu_cxx12_Lock_policyE2EEEC2IvEERKSaIT_E = comdat any

$_ZNSt15__allocated_ptrISaISt19_Sp_counted_deleterIPN5arrow7compute8FunctionESt14default_deleteIS3_ESaIvELN9__gnu_cxx12_Lock_policyE2EEEEC2ERSB_PSA_ = comdat any

$_ZNSt15__allocated_ptrISaISt19_Sp_counted_deleterIPN5arrow7compute8FunctionESt14default_deleteIS3_ESaIvELN9__gnu_cxx12_Lock_policyE2EEEED2Ev = comdat any

$_ZNSt16allocator_traitsISaISt19_Sp_counted_deleterIPN5arrow7compute8FunctionESt14default_deleteIS3_ESaIvELN9__gnu_cxx12_Lock_policyE2EEEE10deallocateERSB_PSA_m = comdat any

$_ZNSt15__new_allocatorISt19_Sp_counted_deleterIPN5arrow7compute8FunctionESt14default_deleteIS3_ESaIvELN9__gnu_cxx12_Lock_policyE2EEE10deallocateEPSA_m = comdat any

$_ZNSt15__uniq_ptr_implIN5arrow7compute8FunctionESt14default_deleteIS2_EE7releaseEv = comdat any

$_ZNSt15__new_allocatorISt19_Sp_counted_deleterIPN5arrow7compute8FunctionESt14default_deleteIS3_ESaIvELN9__gnu_cxx12_Lock_policyE2EEED2Ev = comdat any

$_ZSt11make_uniqueIN5arrow7compute8internal14OptionsWrapperINS1_11TakeOptionsEEEJRKS4_EENSt8__detail9_MakeUniqIT_E15__single_objectEDpOT0_ = comdat any

$_ZN5arrow6ResultISt10unique_ptrINS_7compute11KernelStateESt14default_deleteIS3_EEEC2IS1_INS2_8internal14OptionsWrapperINS2_11TakeOptionsEEES4_ISC_EEvEEOT_ = comdat any

$_ZNSt10unique_ptrIN5arrow7compute8internal14OptionsWrapperINS1_11TakeOptionsEEESt14default_deleteIS5_EED2Ev = comdat any

$_ZN5arrow7compute11TakeOptionsC2ERKS1_ = comdat any

$_ZN5arrow7compute8internal14OptionsWrapperINS0_11TakeOptionsEEC2ES3_ = comdat any

$_ZNSt10unique_ptrIN5arrow7compute8internal14OptionsWrapperINS1_11TakeOptionsEEESt14default_deleteIS5_EEC2IS7_vEEPS5_ = comdat any

$_ZN5arrow7compute11TakeOptionsD2Ev = comdat any

$_ZN5arrow7compute11TakeOptionsD0Ev = comdat any

$_ZN5arrow7compute11TakeOptionsC2EOS1_ = comdat any

$_ZN5arrow7compute8internal14OptionsWrapperINS0_11TakeOptionsEED2Ev = comdat any

$_ZN5arrow7compute8internal14OptionsWrapperINS0_11TakeOptionsEED0Ev = comdat any

$_ZNSt15__uniq_ptr_dataIN5arrow7compute8internal14OptionsWrapperINS1_11TakeOptionsEEESt14default_deleteIS5_ELb1ELb1EECI2St15__uniq_ptr_implIS5_S7_EEPS5_ = comdat any

$_ZNSt15__uniq_ptr_implIN5arrow7compute8internal14OptionsWrapperINS1_11TakeOptionsEEESt14default_deleteIS5_EEC2EPS5_ = comdat any

$_ZNSt5tupleIJPN5arrow7compute8internal14OptionsWrapperINS1_11TakeOptionsEEESt14default_deleteIS5_EEEC2ILb1ETnNSt9enable_ifIXclsr17_TupleConstraintsIXT_ES6_S8_EE37__is_implicitly_default_constructibleEEbE4typeELb1EEEv = comdat any

$_ZNSt15__uniq_ptr_implIN5arrow7compute8internal14OptionsWrapperINS1_11TakeOptionsEEESt14default_deleteIS5_EE6_M_ptrEv = comdat any

$_ZNSt11_Tuple_implILm0EJPN5arrow7compute8internal14OptionsWrapperINS1_11TakeOptionsEEESt14default_deleteIS5_EEEC2Ev = comdat any

$_ZNSt11_Tuple_implILm1EJSt14default_deleteIN5arrow7compute8internal14OptionsWrapperINS2_11TakeOptionsEEEEEEC2Ev = comdat any

$_ZNSt10_Head_baseILm0EPN5arrow7compute8internal14OptionsWrapperINS1_11TakeOptionsEEELb0EEC2Ev = comdat any

$_ZNSt10_Head_baseILm1ESt14default_deleteIN5arrow7compute8internal14OptionsWrapperINS2_11TakeOptionsEEEELb1EEC2Ev = comdat any

$_ZSt3getILm0EJPN5arrow7compute8internal14OptionsWrapperINS1_11TakeOptionsEEESt14default_deleteIS5_EEERNSt13tuple_elementIXT_ESt5tupleIJDpT0_EEE4typeERSD_ = comdat any

$_ZSt12__get_helperILm0EPN5arrow7compute8internal14OptionsWrapperINS1_11TakeOptionsEEEJSt14default_deleteIS5_EEERT0_RSt11_Tuple_implIXT_EJS9_DpT1_EE = comdat any

$_ZNSt11_Tuple_implILm0EJPN5arrow7compute8internal14OptionsWrapperINS1_11TakeOptionsEEESt14default_deleteIS5_EEE7_M_headERS9_ = comdat any

$_ZNSt10_Head_baseILm0EPN5arrow7compute8internal14OptionsWrapperINS1_11TakeOptionsEEELb0EE7_M_headERS7_ = comdat any

$_ZN5arrow6ResultISt10unique_ptrINS_7compute11KernelStateESt14default_deleteIS3_EEE14ConstructValueIS1_INS2_8internal14OptionsWrapperINS2_11TakeOptionsEEES4_ISC_EEEEvOT_ = comdat any

$_ZN5arrow8internal14AlignedStorageISt10unique_ptrINS_7compute11KernelStateESt14default_deleteIS4_EEE9constructIJS2_INS3_8internal14OptionsWrapperINS3_11TakeOptionsEEES5_ISD_EEEEEvDpOT_ = comdat any

$_ZNSt10unique_ptrIN5arrow7compute11KernelStateESt14default_deleteIS2_EEC2INS1_8internal14OptionsWrapperINS1_11TakeOptionsEEES3_ISA_EvEEOS_IT_T0_E = comdat any

$_ZNSt10unique_ptrIN5arrow7compute8internal14OptionsWrapperINS1_11TakeOptionsEEESt14default_deleteIS5_EE7releaseEv = comdat any

$_ZNSt10unique_ptrIN5arrow7compute8internal14OptionsWrapperINS1_11TakeOptionsEEESt14default_deleteIS5_EE11get_deleterEv = comdat any

$_ZNSt15__uniq_ptr_dataIN5arrow7compute11KernelStateESt14default_deleteIS2_ELb1ELb1EECI2St15__uniq_ptr_implIS2_S4_EIS3_INS1_8internal14OptionsWrapperINS1_11TakeOptionsEEEEEEPS2_OT_ = comdat any

$_ZNSt15__uniq_ptr_implIN5arrow7compute8internal14OptionsWrapperINS1_11TakeOptionsEEESt14default_deleteIS5_EE7releaseEv = comdat any

$_ZNSt15__uniq_ptr_implIN5arrow7compute8internal14OptionsWrapperINS1_11TakeOptionsEEESt14default_deleteIS5_EE10_M_deleterEv = comdat any

$_ZSt3getILm1EJPN5arrow7compute8internal14OptionsWrapperINS1_11TakeOptionsEEESt14default_deleteIS5_EEERNSt13tuple_elementIXT_ESt5tupleIJDpT0_EEE4typeERSD_ = comdat any

$_ZSt12__get_helperILm1ESt14default_deleteIN5arrow7compute8internal14OptionsWrapperINS2_11TakeOptionsEEEEJEERT0_RSt11_Tuple_implIXT_EJS8_DpT1_EE = comdat any

$_ZNSt11_Tuple_implILm1EJSt14default_deleteIN5arrow7compute8internal14OptionsWrapperINS2_11TakeOptionsEEEEEE7_M_headERS8_ = comdat any

$_ZNSt10_Head_baseILm1ESt14default_deleteIN5arrow7compute8internal14OptionsWrapperINS2_11TakeOptionsEEEELb1EE7_M_headERS8_ = comdat any

$_ZNSt15__uniq_ptr_implIN5arrow7compute11KernelStateESt14default_deleteIS2_EEC2IS3_INS1_8internal14OptionsWrapperINS1_11TakeOptionsEEEEEEPS2_OT_ = comdat any

$_ZNSt5tupleIJPN5arrow7compute11KernelStateESt14default_deleteIS2_EEEC2IRS3_S4_INS1_8internal14OptionsWrapperINS1_11TakeOptionsEEEETnNSt9enable_ifIXclsr4_TCCIXntcl14__is_alloc_argIT_EEEEE29__is_implicitly_constructibleISF_T0_EEEbE4typeELb1EEEOSF_OSG_ = comdat any

$_ZNSt11_Tuple_implILm0EJPN5arrow7compute11KernelStateESt14default_deleteIS2_EEEC2IRS3_JS4_INS1_8internal14OptionsWrapperINS1_11TakeOptionsEEEEEvEEOT_DpOT0_ = comdat any

$_ZNSt11_Tuple_implILm1EJSt14default_deleteIN5arrow7compute11KernelStateEEEEC2IS0_INS2_8internal14OptionsWrapperINS2_11TakeOptionsEEEEEEOT_ = comdat any

$_ZNSt10_Head_baseILm1ESt14default_deleteIN5arrow7compute11KernelStateEELb1EEC2IS0_INS2_8internal14OptionsWrapperINS2_11TakeOptionsEEEEEEOT_ = comdat any

$_ZNSt14default_deleteIN5arrow7compute11KernelStateEEC2INS1_8internal14OptionsWrapperINS1_11TakeOptionsEEEvEERKS_IT_E = comdat any

$_ZNKSt14default_deleteIN5arrow7compute8internal14OptionsWrapperINS1_11TakeOptionsEEEEclEPS5_ = comdat any

$_ZN5arrow7compute12MetaFunctionC2ENSt7__cxx1112basic_stringIcSt11char_traitsIcESaIcEEERKNS0_5ArityENS0_11FunctionDocEPKNS0_15FunctionOptionsE = comdat any

$_ZNK5arrow7compute12MetaFunction11num_kernelsEv = comdat any

$_ZN5arrow7compute12MetaFunctionD2Ev = comdat any

$_ZNK5arrow5Datum4kindEv = comdat any

$_ZNSt10shared_ptrIN5arrow5ArrayEED2Ev = comdat any

$_ZNK5arrow5Datum12record_batchEv = comdat any

$_ZNK5arrow5Datum5tableEv = comdat any

$_ZN5arrow6Status14NotImplementedIJRA51_KcNSt7__cxx1112basic_stringIcSt11char_traitsIcESaIcEEEEEES0_DpOT_ = comdat any

$_ZN5arrow6ResultINS_5DatumEEC2ERKNS_6StatusE = comdat any

$_ZN5arrow6ResultINS_5DatumEEC2IRKSt10shared_ptrINS_5ArrayEEvEEOT_ = comdat any

$_ZNK5arrow5Array6lengthEv = comdat any

$_ZNK5arrow5Array4typeEv = comdat any

$_ZNK5arrow7compute11ExecContext11memory_poolEv = comdat any

$_ZN5arrow6ResultINS_5DatumEEC2ISt10shared_ptrINS_5ArrayEEvEEONS0_IT_EE = comdat any

$_ZN5arrow6ResultISt10shared_ptrINS_5ArrayEEED2Ev = comdat any

$_ZNKSt19__shared_ptr_accessIN5arrow8DataTypeELN9__gnu_cxx12_Lock_policyE2ELb0ELb0EEptEv = comdat any

$_ZSt11make_sharedIN5arrow9NullArrayEJiEESt10shared_ptrINSt9enable_ifIXntsr8is_arrayIT_EE5valueES4_E4typeEEDpOT0_ = comdat any

$_ZN5arrow6ResultINS_5DatumEEC2ISt10shared_ptrINS_9NullArrayEEvEEOT_ = comdat any

$_ZNSt10shared_ptrIN5arrow9NullArrayEED2Ev = comdat any

$_ZNKSt19__shared_ptr_accessIN5arrow5ArrayELN9__gnu_cxx12_Lock_policyE2ELb0ELb0EEdeEv = comdat any

$_ZNK5arrow6ResultISt10shared_ptrINS_12BooleanArrayEEE2okEv = comdat any

$_ZNK5arrow6ResultISt10shared_ptrINS_12BooleanArrayEEE6statusEv = comdat any

$_ZNO5arrow6ResultISt10shared_ptrINS_12BooleanArrayEEE11ValueUnsafeEv = comdat any

$_ZNSt10shared_ptrIN5arrow12BooleanArrayEEC2ERKS2_ = comdat any

$_ZN5arrow5DatumC2INS_12BooleanArrayELb1ELb0EvEESt10shared_ptrIT_E = comdat any

$_ZN5arrow7compute13FilterOptions8DefaultsEv = comdat any

$_ZN5arrow5DatumD2Ev = comdat any

$_ZNSt10shared_ptrIN5arrow12BooleanArrayEED2Ev = comdat any

$_ZN5arrow6ResultISt10shared_ptrINS_12BooleanArrayEEED2Ev = comdat any

$_ZN5arrow6ResultINS_5DatumEE14ConstructValueIRKSt10shared_ptrINS_5ArrayEEEEvOT_ = comdat any

$_ZN5arrow8internal14AlignedStorageINS_5DatumEE9constructIJRKSt10shared_ptrINS_5ArrayEEEEEvDpOT_ = comdat any

$_ZNKSt19__shared_ptr_accessIN5arrow9ArrayDataELN9__gnu_cxx12_Lock_policyE2ELb0ELb0EEptEv = comdat any

$_ZN5arrow6StatusaSEOS0_ = comdat any

$_ZN5arrow6ResultINS_5DatumEE14ConstructValueISt10shared_ptrINS_5ArrayEEEEvOT_ = comdat any

$_ZN5arrow6ResultISt10shared_ptrINS_5ArrayEEE15MoveValueUnsafeEv = comdat any

$_ZN5arrow6StatusaSERKS0_ = comdat any

$_ZN5arrow6Status8MoveFromERS0_ = comdat any

$_ZN5arrow8internal14AlignedStorageINS_5DatumEE9constructIJSt10shared_ptrINS_5ArrayEEEEEvDpOT_ = comdat any

$_ZN5arrow8internal14AlignedStorageISt10shared_ptrINS_5ArrayEEE3getEv = comdat any

$_ZNSt10shared_ptrIN5arrow5ArrayEEC2EOS2_ = comdat any

$_ZSt7launderISt10shared_ptrIN5arrow5ArrayEEEPT_S5_ = comdat any

$_ZNSt12__shared_ptrIN5arrow5ArrayELN9__gnu_cxx12_Lock_policyE2EEC2EOS4_ = comdat any

$_ZN5arrow6ResultISt10shared_ptrINS_5ArrayEEE7DestroyEv = comdat any

$_ZN5arrow4util18EqualityComparableINS_6ResultISt10shared_ptrINS_5ArrayEEEEED2Ev = comdat any

$_ZN5arrow8internal14AlignedStorageISt10shared_ptrINS_5ArrayEEE7destroyEv = comdat any

$_ZNKSt19__shared_ptr_accessIN5arrow8DataTypeELN9__gnu_cxx12_Lock_policyE2ELb0ELb0EE6_M_getEv = comdat any

$_ZNKSt12__shared_ptrIN5arrow8DataTypeELN9__gnu_cxx12_Lock_policyE2EE3getEv = comdat any

$_ZNSt10shared_ptrIN5arrow9NullArrayEEC2ISaIvEJiEEESt20_Sp_alloc_shared_tagIT_EDpOT0_ = comdat any

$_ZNSt12__shared_ptrIN5arrow9NullArrayELN9__gnu_cxx12_Lock_policyE2EEC2ISaIvEJiEEESt20_Sp_alloc_shared_tagIT_EDpOT0_ = comdat any

$_ZNSt14__shared_countILN9__gnu_cxx12_Lock_policyE2EEC2IN5arrow9NullArrayESaIvEJiEEERPT_St20_Sp_alloc_shared_tagIT0_EDpOT1_ = comdat any

$_ZNSt12__shared_ptrIN5arrow9NullArrayELN9__gnu_cxx12_Lock_policyE2EE31_M_enable_shared_from_this_withIS1_S1_EENSt9enable_ifIXntsr15__has_esft_baseIT0_EE5valueEvE4typeEPT_ = comdat any

$_ZNSaISt23_Sp_counted_ptr_inplaceIN5arrow9NullArrayESaIvELN9__gnu_cxx12_Lock_policyE2EEEC2IvEERKSaIT_E = comdat any

$_ZSt18__allocate_guardedISaISt23_Sp_counted_ptr_inplaceIN5arrow9NullArrayESaIvELN9__gnu_cxx12_Lock_policyE2EEEESt15__allocated_ptrIT_ERS9_ = comdat any

$_ZNSt15__allocated_ptrISaISt23_Sp_counted_ptr_inplaceIN5arrow9NullArrayESaIvELN9__gnu_cxx12_Lock_policyE2EEEE3getEv = comdat any

$_ZNSt23_Sp_counted_ptr_inplaceIN5arrow9NullArrayESaIvELN9__gnu_cxx12_Lock_policyE2EEC2IJiEEES2_DpOT_ = comdat any

$_ZNSt15__allocated_ptrISaISt23_Sp_counted_ptr_inplaceIN5arrow9NullArrayESaIvELN9__gnu_cxx12_Lock_policyE2EEEEaSEDn = comdat any

$_ZNSt23_Sp_counted_ptr_inplaceIN5arrow9NullArrayESaIvELN9__gnu_cxx12_Lock_policyE2EE6_M_ptrEv = comdat any

$_ZNSt15__allocated_ptrISaISt23_Sp_counted_ptr_inplaceIN5arrow9NullArrayESaIvELN9__gnu_cxx12_Lock_policyE2EEEED2Ev = comdat any

$_ZNSaISt23_Sp_counted_ptr_inplaceIN5arrow9NullArrayESaIvELN9__gnu_cxx12_Lock_policyE2EEED2Ev = comdat any

$_ZNSt15__new_allocatorISt23_Sp_counted_ptr_inplaceIN5arrow9NullArrayESaIvELN9__gnu_cxx12_Lock_policyE2EEEC2Ev = comdat any

$_ZNSt16allocator_traitsISaISt23_Sp_counted_ptr_inplaceIN5arrow9NullArrayESaIvELN9__gnu_cxx12_Lock_policyE2EEEE8allocateERS7_m = comdat any

$_ZNSt15__allocated_ptrISaISt23_Sp_counted_ptr_inplaceIN5arrow9NullArrayESaIvELN9__gnu_cxx12_Lock_policyE2EEEEC2ERS7_PS6_ = comdat any

$_ZNSt15__new_allocatorISt23_Sp_counted_ptr_inplaceIN5arrow9NullArrayESaIvELN9__gnu_cxx12_Lock_policyE2EEE8allocateEmPKv = comdat any

$_ZNKSt15__new_allocatorISt23_Sp_counted_ptr_inplaceIN5arrow9NullArrayESaIvELN9__gnu_cxx12_Lock_policyE2EEE11_M_max_sizeEv = comdat any

$_ZSt12__to_addressISt23_Sp_counted_ptr_inplaceIN5arrow9NullArrayESaIvELN9__gnu_cxx12_Lock_policyE2EEEPT_S8_ = comdat any

$_ZNSt23_Sp_counted_ptr_inplaceIN5arrow9NullArrayESaIvELN9__gnu_cxx12_Lock_policyE2EE5_ImplC2ES2_ = comdat any

$_ZNSt16allocator_traitsISaIvEE9constructIN5arrow9NullArrayEJiEEEvRS0_PT_DpOT0_ = comdat any

$_ZNSt23_Sp_counted_ptr_inplaceIN5arrow9NullArrayESaIvELN9__gnu_cxx12_Lock_policyE2EED2Ev = comdat any

$_ZNSt23_Sp_counted_ptr_inplaceIN5arrow9NullArrayESaIvELN9__gnu_cxx12_Lock_policyE2EED0Ev = comdat any

$_ZNSt23_Sp_counted_ptr_inplaceIN5arrow9NullArrayESaIvELN9__gnu_cxx12_Lock_policyE2EE10_M_disposeEv = comdat any

$_ZNSt23_Sp_counted_ptr_inplaceIN5arrow9NullArrayESaIvELN9__gnu_cxx12_Lock_policyE2EE10_M_destroyEv = comdat any

$_ZNSt23_Sp_counted_ptr_inplaceIN5arrow9NullArrayESaIvELN9__gnu_cxx12_Lock_policyE2EE14_M_get_deleterERKSt9type_info = comdat any

$_ZSt10_ConstructIN5arrow9NullArrayEJiEEvPT_DpOT0_ = comdat any

$_ZNSt16allocator_traitsISaIvEE7destroyIN5arrow9NullArrayEEEvRS0_PT_ = comdat any

$_ZNSt23_Sp_counted_ptr_inplaceIN5arrow9NullArrayESaIvELN9__gnu_cxx12_Lock_policyE2EE5_Impl8_M_allocEv = comdat any

$_ZSt8_DestroyIN5arrow9NullArrayEEvPT_ = comdat any

$_ZN9__gnu_cxx16__aligned_bufferIN5arrow9NullArrayEE6_M_ptrEv = comdat any

$_ZN9__gnu_cxx16__aligned_bufferIN5arrow9NullArrayEE7_M_addrEv = comdat any

$_ZNSt16allocator_traitsISaISt23_Sp_counted_ptr_inplaceIN5arrow9NullArrayESaIvELN9__gnu_cxx12_Lock_policyE2EEEE10deallocateERS7_PS6_m = comdat any

$_ZNSt15__new_allocatorISt23_Sp_counted_ptr_inplaceIN5arrow9NullArrayESaIvELN9__gnu_cxx12_Lock_policyE2EEE10deallocateEPS6_m = comdat any

$_ZNSt15__new_allocatorISt23_Sp_counted_ptr_inplaceIN5arrow9NullArrayESaIvELN9__gnu_cxx12_Lock_policyE2EEED2Ev = comdat any

$_ZN5arrow6ResultINS_5DatumEE14ConstructValueISt10shared_ptrINS_9NullArrayEEEEvOT_ = comdat any

$_ZN5arrow8internal14AlignedStorageINS_5DatumEE9constructIJSt10shared_ptrINS_9NullArrayEEEEEvDpOT_ = comdat any

$_ZNSt10shared_ptrIN5arrow9NullArrayEEC2EOS2_ = comdat any

$_ZN5arrow5DatumC2INS_9NullArrayELb1ELb0EvEESt10shared_ptrIT_E = comdat any

$_ZNSt12__shared_ptrIN5arrow9NullArrayELN9__gnu_cxx12_Lock_policyE2EEC2EOS4_ = comdat any

$_ZNSt10shared_ptrIN5arrow5ArrayEEC2INS0_9NullArrayEvEEOS_IT_E = comdat any

$_ZNSt12__shared_ptrIN5arrow5ArrayELN9__gnu_cxx12_Lock_policyE2EEC2INS0_9NullArrayEvEEOS_IT_LS3_2EE = comdat any

$_ZNSt12__shared_ptrIN5arrow9NullArrayELN9__gnu_cxx12_Lock_policyE2EED2Ev = comdat any

$_ZNK5arrow5Array11null_bitmapEv = comdat any

$_ZSt11make_sharedIN5arrow12BooleanArrayEJlRSt10shared_ptrINS0_6BufferEEDnilEES2_INSt9enable_ifIXntsr8is_arrayIT_EE5valueES7_E4typeEEDpOT0_ = comdat any

$_ZNK5arrow5Array6offsetEv = comdat any

$_ZN5arrow6ResultISt10shared_ptrINS_12BooleanArrayEEEC2EOS3_ = comdat any

$_ZNSt6vectorISt10shared_ptrIN5arrow6BufferEESaIS3_EEixEm = comdat any

$_ZNSt10shared_ptrIN5arrow12BooleanArrayEEC2ISaIvEJlRS_INS0_6BufferEEDnilEEESt20_Sp_alloc_shared_tagIT_EDpOT0_ = comdat any

$_ZNSt12__shared_ptrIN5arrow12BooleanArrayELN9__gnu_cxx12_Lock_policyE2EEC2ISaIvEJlRSt10shared_ptrINS0_6BufferEEDnilEEESt20_Sp_alloc_shared_tagIT_EDpOT0_ = comdat any

$_ZNSt14__shared_countILN9__gnu_cxx12_Lock_policyE2EEC2IN5arrow12BooleanArrayESaIvEJlRSt10shared_ptrINS4_6BufferEEDnilEEERPT_St20_Sp_alloc_shared_tagIT0_EDpOT1_ = comdat any

$_ZNSt12__shared_ptrIN5arrow12BooleanArrayELN9__gnu_cxx12_Lock_policyE2EE31_M_enable_shared_from_this_withIS1_S1_EENSt9enable_ifIXntsr15__has_esft_baseIT0_EE5valueEvE4typeEPT_ = comdat any

$_ZNSaISt23_Sp_counted_ptr_inplaceIN5arrow12BooleanArrayESaIvELN9__gnu_cxx12_Lock_policyE2EEEC2IvEERKSaIT_E = comdat any

$_ZSt18__allocate_guardedISaISt23_Sp_counted_ptr_inplaceIN5arrow12BooleanArrayESaIvELN9__gnu_cxx12_Lock_policyE2EEEESt15__allocated_ptrIT_ERS9_ = comdat any

$_ZNSt15__allocated_ptrISaISt23_Sp_counted_ptr_inplaceIN5arrow12BooleanArrayESaIvELN9__gnu_cxx12_Lock_policyE2EEEE3getEv = comdat any

$_ZNSt23_Sp_counted_ptr_inplaceIN5arrow12BooleanArrayESaIvELN9__gnu_cxx12_Lock_policyE2EEC2IJlRSt10shared_ptrINS0_6BufferEEDnilEEES2_DpOT_ = comdat any

$_ZNSt15__allocated_ptrISaISt23_Sp_counted_ptr_inplaceIN5arrow12BooleanArrayESaIvELN9__gnu_cxx12_Lock_policyE2EEEEaSEDn = comdat any

$_ZNSt23_Sp_counted_ptr_inplaceIN5arrow12BooleanArrayESaIvELN9__gnu_cxx12_Lock_policyE2EE6_M_ptrEv = comdat any

$_ZNSt15__allocated_ptrISaISt23_Sp_counted_ptr_inplaceIN5arrow12BooleanArrayESaIvELN9__gnu_cxx12_Lock_policyE2EEEED2Ev = comdat any

$_ZNSaISt23_Sp_counted_ptr_inplaceIN5arrow12BooleanArrayESaIvELN9__gnu_cxx12_Lock_policyE2EEED2Ev = comdat any

$_ZNSt15__new_allocatorISt23_Sp_counted_ptr_inplaceIN5arrow12BooleanArrayESaIvELN9__gnu_cxx12_Lock_policyE2EEEC2Ev = comdat any

$_ZNSt16allocator_traitsISaISt23_Sp_counted_ptr_inplaceIN5arrow12BooleanArrayESaIvELN9__gnu_cxx12_Lock_policyE2EEEE8allocateERS7_m = comdat any

$_ZNSt15__allocated_ptrISaISt23_Sp_counted_ptr_inplaceIN5arrow12BooleanArrayESaIvELN9__gnu_cxx12_Lock_policyE2EEEEC2ERS7_PS6_ = comdat any

$_ZNSt15__new_allocatorISt23_Sp_counted_ptr_inplaceIN5arrow12BooleanArrayESaIvELN9__gnu_cxx12_Lock_policyE2EEE8allocateEmPKv = comdat any

$_ZNKSt15__new_allocatorISt23_Sp_counted_ptr_inplaceIN5arrow12BooleanArrayESaIvELN9__gnu_cxx12_Lock_policyE2EEE11_M_max_sizeEv = comdat any

$_ZSt12__to_addressISt23_Sp_counted_ptr_inplaceIN5arrow12BooleanArrayESaIvELN9__gnu_cxx12_Lock_policyE2EEEPT_S8_ = comdat any

$_ZNSt23_Sp_counted_ptr_inplaceIN5arrow12BooleanArrayESaIvELN9__gnu_cxx12_Lock_policyE2EE5_ImplC2ES2_ = comdat any

$_ZNSt16allocator_traitsISaIvEE9constructIN5arrow12BooleanArrayEJlRSt10shared_ptrINS3_6BufferEEDnilEEEvRS0_PT_DpOT0_ = comdat any

$_ZNSt23_Sp_counted_ptr_inplaceIN5arrow12BooleanArrayESaIvELN9__gnu_cxx12_Lock_policyE2EED2Ev = comdat any

$_ZNSt23_Sp_counted_ptr_inplaceIN5arrow12BooleanArrayESaIvELN9__gnu_cxx12_Lock_policyE2EED0Ev = comdat any

$_ZNSt23_Sp_counted_ptr_inplaceIN5arrow12BooleanArrayESaIvELN9__gnu_cxx12_Lock_policyE2EE10_M_disposeEv = comdat any

$_ZNSt23_Sp_counted_ptr_inplaceIN5arrow12BooleanArrayESaIvELN9__gnu_cxx12_Lock_policyE2EE10_M_destroyEv = comdat any

$_ZNSt23_Sp_counted_ptr_inplaceIN5arrow12BooleanArrayESaIvELN9__gnu_cxx12_Lock_policyE2EE14_M_get_deleterERKSt9type_info = comdat any

$_ZSt10_ConstructIN5arrow12BooleanArrayEJlRSt10shared_ptrINS0_6BufferEEDnilEEvPT_DpOT0_ = comdat any

$_ZNSt10shared_ptrIN5arrow6BufferEEC2EDn = comdat any

$_ZNSt16allocator_traitsISaIvEE7destroyIN5arrow12BooleanArrayEEEvRS0_PT_ = comdat any

$_ZNSt23_Sp_counted_ptr_inplaceIN5arrow12BooleanArrayESaIvELN9__gnu_cxx12_Lock_policyE2EE5_Impl8_M_allocEv = comdat any

$_ZSt8_DestroyIN5arrow12BooleanArrayEEvPT_ = comdat any

$_ZN9__gnu_cxx16__aligned_bufferIN5arrow12BooleanArrayEE6_M_ptrEv = comdat any

$_ZN9__gnu_cxx16__aligned_bufferIN5arrow12BooleanArrayEE7_M_addrEv = comdat any

$_ZNSt16allocator_traitsISaISt23_Sp_counted_ptr_inplaceIN5arrow12BooleanArrayESaIvELN9__gnu_cxx12_Lock_policyE2EEEE10deallocateERS7_PS6_m = comdat any

$_ZNSt15__new_allocatorISt23_Sp_counted_ptr_inplaceIN5arrow12BooleanArrayESaIvELN9__gnu_cxx12_Lock_policyE2EEE10deallocateEPS6_m = comdat any

$_ZNSt15__new_allocatorISt23_Sp_counted_ptr_inplaceIN5arrow12BooleanArrayESaIvELN9__gnu_cxx12_Lock_policyE2EEED2Ev = comdat any

$_ZN5arrow6ResultISt10shared_ptrINS_12BooleanArrayEEE14ConstructValueIS3_EEvOT_ = comdat any

$_ZN5arrow8internal14AlignedStorageISt10shared_ptrINS_12BooleanArrayEEE9constructIJS4_EEEvDpOT_ = comdat any

$_ZNSt10shared_ptrIN5arrow12BooleanArrayEEC2EOS2_ = comdat any

$_ZNSt12__shared_ptrIN5arrow12BooleanArrayELN9__gnu_cxx12_Lock_policyE2EEC2EOS4_ = comdat any

$_ZN5arrow6ResultISt10shared_ptrINS_12BooleanArrayEEE15MoveValueUnsafeEv = comdat any

$_ZN5arrow8internal14AlignedStorageISt10shared_ptrINS_12BooleanArrayEEE3getEv = comdat any

$_ZSt7launderISt10shared_ptrIN5arrow12BooleanArrayEEEPT_S5_ = comdat any

$_ZNSt12__shared_ptrIN5arrow12BooleanArrayELN9__gnu_cxx12_Lock_policyE2EEC2ERKS4_ = comdat any

$_ZNSt10shared_ptrIN5arrow5ArrayEEC2INS0_12BooleanArrayEvEEOS_IT_E = comdat any

$_ZNSt12__shared_ptrIN5arrow5ArrayELN9__gnu_cxx12_Lock_policyE2EEC2INS0_12BooleanArrayEvEEOS_IT_LS3_2EE = comdat any

$_ZNSt7variantIJN5arrow5Datum5EmptyESt10shared_ptrINS0_6ScalarEES3_INS0_9ArrayDataEES3_INS0_12ChunkedArrayEES3_INS0_11RecordBatchEES3_INS0_5TableEEEED2Ev = comdat any

$_ZNSt8__detail9__variant13_Variant_baseIJN5arrow5Datum5EmptyESt10shared_ptrINS2_6ScalarEES5_INS2_9ArrayDataEES5_INS2_12ChunkedArrayEES5_INS2_11RecordBatchEES5_INS2_5TableEEEED2Ev = comdat any

$_ZNSt8__detail9__variant17_Move_assign_baseILb0EJN5arrow5Datum5EmptyESt10shared_ptrINS2_6ScalarEES5_INS2_9ArrayDataEES5_INS2_12ChunkedArrayEES5_INS2_11RecordBatchEES5_INS2_5TableEEEED2Ev = comdat any

$_ZNSt8__detail9__variant17_Copy_assign_baseILb0EJN5arrow5Datum5EmptyESt10shared_ptrINS2_6ScalarEES5_INS2_9ArrayDataEES5_INS2_12ChunkedArrayEES5_INS2_11RecordBatchEES5_INS2_5TableEEEED2Ev = comdat any

$_ZNSt8__detail9__variant15_Move_ctor_baseILb0EJN5arrow5Datum5EmptyESt10shared_ptrINS2_6ScalarEES5_INS2_9ArrayDataEES5_INS2_12ChunkedArrayEES5_INS2_11RecordBatchEES5_INS2_5TableEEEED2Ev = comdat any

$_ZNSt8__detail9__variant15_Copy_ctor_baseILb0EJN5arrow5Datum5EmptyESt10shared_ptrINS2_6ScalarEES5_INS2_9ArrayDataEES5_INS2_12ChunkedArrayEES5_INS2_11RecordBatchEES5_INS2_5TableEEEED2Ev = comdat any

$_ZNSt8__detail9__variant16_Variant_storageILb0EJN5arrow5Datum5EmptyESt10shared_ptrINS2_6ScalarEES5_INS2_9ArrayDataEES5_INS2_12ChunkedArrayEES5_INS2_11RecordBatchEES5_INS2_5TableEEEED2Ev = comdat any

$_ZNSt12__shared_ptrIN5arrow12BooleanArrayELN9__gnu_cxx12_Lock_policyE2EED2Ev = comdat any

$_ZN5arrow6ResultISt10shared_ptrINS_12BooleanArrayEEE7DestroyEv = comdat any

$_ZN5arrow4util18EqualityComparableINS_6ResultISt10shared_ptrINS_12BooleanArrayEEEEED2Ev = comdat any

$_ZN5arrow8internal14AlignedStorageISt10shared_ptrINS_12BooleanArrayEEE7destroyEv = comdat any

$_ZNSt12__shared_ptrIN5arrow5ArrayELN9__gnu_cxx12_Lock_policyE2EED2Ev = comdat any

$_ZNKSt19__shared_ptr_accessIN5arrow12ChunkedArrayELN9__gnu_cxx12_Lock_policyE2ELb0ELb0EEptEv = comdat any

$_ZNK5arrow12ChunkedArray10null_countEv = comdat any

$_ZN5arrow6ResultINS_5DatumEEC2IRKSt10shared_ptrINS_12ChunkedArrayEEvEEOT_ = comdat any

$_ZNK5arrow12ChunkedArray4typeEv = comdat any

$_ZN5arrow6ResultINS_5DatumEEC2ISt10shared_ptrINS_12ChunkedArrayEEvEEONS0_IT_EE = comdat any

$_ZN5arrow6ResultISt10shared_ptrINS_12ChunkedArrayEEED2Ev = comdat any

$_ZNSt6vectorISt10shared_ptrIN5arrow5ArrayEESaIS3_EEC2Ev = comdat any

$_ZNK5arrow12ChunkedArray6chunksEv = comdat any

$_ZNKSt6vectorISt10shared_ptrIN5arrow5ArrayEESaIS3_EE5beginEv = comdat any

$_ZNKSt6vectorISt10shared_ptrIN5arrow5ArrayEESaIS3_EE3endEv = comdat any

$_ZN9__gnu_cxxneIPKSt10shared_ptrIN5arrow5ArrayEESt6vectorIS4_SaIS4_EEEEbRKNS_17__normal_iteratorIT_T0_EESF_ = comdat any

$_ZNK9__gnu_cxx17__normal_iteratorIPKSt10shared_ptrIN5arrow5ArrayEESt6vectorIS4_SaIS4_EEEdeEv = comdat any

$_ZNK5arrow6ResultINS_5DatumEE2okEv = comdat any

$_ZNK5arrow6ResultINS_5DatumEE6statusEv = comdat any

$_ZNO5arrow6ResultINS_5DatumEE11ValueUnsafeEv = comdat any

$_ZNSt6vectorISt10shared_ptrIN5arrow5ArrayEESaIS3_EE9push_backEOS3_ = comdat any

$_ZN5arrow6ResultINS_5DatumEED2Ev = comdat any

$_ZN9__gnu_cxx17__normal_iteratorIPKSt10shared_ptrIN5arrow5ArrayEESt6vectorIS4_SaIS4_EEEppEv = comdat any

$_ZSt11make_sharedIN5arrow12ChunkedArrayEJSt6vectorISt10shared_ptrINS0_5ArrayEESaIS5_EEEES3_INSt9enable_ifIXntsr8is_arrayIT_EE5valueES9_E4typeEEDpOT0_ = comdat any

$_ZN5arrow6ResultINS_5DatumEEC2ISt10shared_ptrINS_12ChunkedArrayEEvEEOT_ = comdat any

$_ZNSt6vectorISt10shared_ptrIN5arrow5ArrayEESaIS3_EED2Ev = comdat any

$_ZN5arrow6ResultINS_5DatumEE14ConstructValueIRKSt10shared_ptrINS_12ChunkedArrayEEEEvOT_ = comdat any

$_ZN5arrow8internal14AlignedStorageINS_5DatumEE9constructIJRKSt10shared_ptrINS_12ChunkedArrayEEEEEvDpOT_ = comdat any

$_ZNSt10shared_ptrIN5arrow12ChunkedArrayEEC2ERKS2_ = comdat any

$_ZNSt12__shared_ptrIN5arrow12ChunkedArrayELN9__gnu_cxx12_Lock_policyE2EEC2ERKS4_ = comdat any

$_ZN5arrow6ResultINS_5DatumEE14ConstructValueISt10shared_ptrINS_12ChunkedArrayEEEEvOT_ = comdat any

$_ZN5arrow6ResultISt10shared_ptrINS_12ChunkedArrayEEE15MoveValueUnsafeEv = comdat any

$_ZN5arrow8internal14AlignedStorageINS_5DatumEE9constructIJSt10shared_ptrINS_12ChunkedArrayEEEEEvDpOT_ = comdat any

$_ZNSt10shared_ptrIN5arrow12ChunkedArrayEEC2EOS2_ = comdat any

$_ZNSt12__shared_ptrIN5arrow12ChunkedArrayELN9__gnu_cxx12_Lock_policyE2EEC2EOS4_ = comdat any

$_ZN5arrow8internal14AlignedStorageISt10shared_ptrINS_12ChunkedArrayEEE3getEv = comdat any

$_ZSt7launderISt10shared_ptrIN5arrow12ChunkedArrayEEEPT_S5_ = comdat any

$_ZN5arrow6ResultISt10shared_ptrINS_12ChunkedArrayEEE7DestroyEv = comdat any

$_ZN5arrow4util18EqualityComparableINS_6ResultISt10shared_ptrINS_12ChunkedArrayEEEEED2Ev = comdat any

$_ZN5arrow8internal14AlignedStorageISt10shared_ptrINS_12ChunkedArrayEEE7destroyEv = comdat any

$_ZNSt12_Vector_baseISt10shared_ptrIN5arrow5ArrayEESaIS3_EEC2Ev = comdat any

$_ZNSt12_Vector_baseISt10shared_ptrIN5arrow5ArrayEESaIS3_EE12_Vector_implC2Ev = comdat any

$_ZNSaISt10shared_ptrIN5arrow5ArrayEEEC2Ev = comdat any

$_ZNSt12_Vector_baseISt10shared_ptrIN5arrow5ArrayEESaIS3_EE17_Vector_impl_dataC2Ev = comdat any

$_ZNSt15__new_allocatorISt10shared_ptrIN5arrow5ArrayEEEC2Ev = comdat any

$_ZN9__gnu_cxx17__normal_iteratorIPKSt10shared_ptrIN5arrow5ArrayEESt6vectorIS4_SaIS4_EEEC2ERKS6_ = comdat any

$_ZNK9__gnu_cxx17__normal_iteratorIPKSt10shared_ptrIN5arrow5ArrayEESt6vectorIS4_SaIS4_EEE4baseEv = comdat any

$_ZN5arrow6ResultINS_5DatumEE15MoveValueUnsafeEv = comdat any

$_ZN5arrow8internal14AlignedStorageINS_5DatumEE3getEv = comdat any

$_ZN5arrow5DatumC2EOS0_ = comdat any

$_ZSt7launderIN5arrow5DatumEEPT_S3_ = comdat any

$_ZNSt7variantIJN5arrow5Datum5EmptyESt10shared_ptrINS0_6ScalarEES3_INS0_9ArrayDataEES3_INS0_12ChunkedArrayEES3_INS0_11RecordBatchEES3_INS0_5TableEEEEC2EOSE_ = comdat any

$_ZNSt8__detail9__variant13_Variant_baseIJN5arrow5Datum5EmptyESt10shared_ptrINS2_6ScalarEES5_INS2_9ArrayDataEES5_INS2_12ChunkedArrayEES5_INS2_11RecordBatchEES5_INS2_5TableEEEEC2EOSG_ = comdat any

$_ZNSt8__detail9__variant17_Move_assign_baseILb0EJN5arrow5Datum5EmptyESt10shared_ptrINS2_6ScalarEES5_INS2_9ArrayDataEES5_INS2_12ChunkedArrayEES5_INS2_11RecordBatchEES5_INS2_5TableEEEEC2EOSG_ = comdat any

$_ZNSt8__detail9__variant17_Copy_assign_baseILb0EJN5arrow5Datum5EmptyESt10shared_ptrINS2_6ScalarEES5_INS2_9ArrayDataEES5_INS2_12ChunkedArrayEES5_INS2_11RecordBatchEES5_INS2_5TableEEEEC2EOSG_ = comdat any

$_ZNSt8__detail9__variant15_Move_ctor_baseILb0EJN5arrow5Datum5EmptyESt10shared_ptrINS2_6ScalarEES5_INS2_9ArrayDataEES5_INS2_12ChunkedArrayEES5_INS2_11RecordBatchEES5_INS2_5TableEEEEC2EOSG_ = comdat any

$_ZNSt8__detail9__variant15_Copy_ctor_baseILb0EJN5arrow5Datum5EmptyESt10shared_ptrINS2_6ScalarEES5_INS2_9ArrayDataEES5_INS2_12ChunkedArrayEES5_INS2_11RecordBatchEES5_INS2_5TableEEEEC2Ev = comdat any

$_ZNSt8__detail9__variant15__raw_idx_visitIZNS0_15_Move_ctor_baseILb0EJN5arrow5Datum5EmptyESt10shared_ptrINS3_6ScalarEES6_INS3_9ArrayDataEES6_INS3_12ChunkedArrayEES6_INS3_11RecordBatchEES6_INS3_5TableEEEEC1EOSH_EUlOT_T0_E_JSt7variantIJS5_S8_SA_SC_SE_SG_EEEEEvSK_DpOT0_ = comdat any

$_ZSt14__variant_castIJN5arrow5Datum5EmptyESt10shared_ptrINS0_6ScalarEES3_INS0_9ArrayDataEES3_INS0_12ChunkedArrayEES3_INS0_11RecordBatchEES3_INS0_5TableEEENSt8__detail9__variant15_Move_ctor_baseILb0EJS2_S5_S7_S9_SB_SD_EEEEDcOT0_ = comdat any

$_ZNSt8__detail9__variant16_Variant_storageILb0EJN5arrow5Datum5EmptyESt10shared_ptrINS2_6ScalarEES5_INS2_9ArrayDataEES5_INS2_12ChunkedArrayEES5_INS2_11RecordBatchEES5_INS2_5TableEEEEC2Ev = comdat any

$_ZNSt8__detail9__variant15_Variadic_unionIJN5arrow5Datum5EmptyESt10shared_ptrINS2_6ScalarEES5_INS2_9ArrayDataEES5_INS2_12ChunkedArrayEES5_INS2_11RecordBatchEES5_INS2_5TableEEEEC2Ev = comdat any

$_ZNSt8__detail9__variant15_Variadic_unionIJSt10shared_ptrIN5arrow6ScalarEES2_INS3_9ArrayDataEES2_INS3_12ChunkedArrayEES2_INS3_11RecordBatchEES2_INS3_5TableEEEEC2Ev = comdat any

$_ZNSt8__detail9__variant15_Variadic_unionIJSt10shared_ptrIN5arrow9ArrayDataEES2_INS3_12ChunkedArrayEES2_INS3_11RecordBatchEES2_INS3_5TableEEEEC2Ev = comdat any

$_ZNSt8__detail9__variant15_Variadic_unionIJSt10shared_ptrIN5arrow12ChunkedArrayEES2_INS3_11RecordBatchEES2_INS3_5TableEEEEC2Ev = comdat any

$_ZNSt8__detail9__variant15_Variadic_unionIJSt10shared_ptrIN5arrow11RecordBatchEES2_INS3_5TableEEEEC2Ev = comdat any

$_ZNSt8__detail9__variant15_Variadic_unionIJSt10shared_ptrIN5arrow5TableEEEEC2Ev = comdat any

$_ZSt10__do_visitINSt8__detail9__variant20__variant_idx_cookieEZNS1_15_Move_ctor_baseILb0EJN5arrow5Datum5EmptyESt10shared_ptrINS4_6ScalarEES7_INS4_9ArrayDataEES7_INS4_12ChunkedArrayEES7_INS4_11RecordBatchEES7_INS4_5TableEEEEC1EOSI_EUlOT_T0_E_JSt7variantIJS6_S9_SB_SD_SF_SH_EEEEDcOSM_DpOT1_ = comdat any

$_ZZSt10__do_visitINSt8__detail9__variant20__variant_idx_cookieEZNS1_15_Move_ctor_baseILb0EJN5arrow5Datum5EmptyESt10shared_ptrINS4_6ScalarEES7_INS4_9ArrayDataEES7_INS4_12ChunkedArrayEES7_INS4_11RecordBatchEES7_INS4_5TableEEEEC1EOSI_EUlOT_T0_E_JSt7variantIJS6_S9_SB_SD_SF_SH_EEEEDcOSM_DpOT1_ENKUlRSP_zE_clESU_z = comdat any

$_ZNSt8__detail9__variant17__gen_vtable_implINS0_12_Multi_arrayIPFNS0_20__variant_idx_cookieEOZNS0_15_Move_ctor_baseILb0EJN5arrow5Datum5EmptyESt10shared_ptrINS5_6ScalarEES8_INS5_9ArrayDataEES8_INS5_12ChunkedArrayEES8_INS5_11RecordBatchEES8_INS5_5TableEEEEC1EOSJ_EUlOT_T0_E_OSt7variantIJS7_SA_SC_SE_SG_SI_EEEJEEESt16integer_sequenceImJLm0EEEE14__visit_invokeESP_SS_ = comdat any

$_ZNSt8__detail9__variant17__gen_vtable_implINS0_12_Multi_arrayIPFNS0_20__variant_idx_cookieEOZNS0_15_Move_ctor_baseILb0EJN5arrow5Datum5EmptyESt10shared_ptrINS5_6ScalarEES8_INS5_9ArrayDataEES8_INS5_12ChunkedArrayEES8_INS5_11RecordBatchEES8_INS5_5TableEEEEC1EOSJ_EUlOT_T0_E_OSt7variantIJS7_SA_SC_SE_SG_SI_EEEJEEESt16integer_sequenceImJLm1EEEE14__visit_invokeESP_SS_ = comdat any

$_ZNSt8__detail9__variant17__gen_vtable_implINS0_12_Multi_arrayIPFNS0_20__variant_idx_cookieEOZNS0_15_Move_ctor_baseILb0EJN5arrow5Datum5EmptyESt10shared_ptrINS5_6ScalarEES8_INS5_9ArrayDataEES8_INS5_12ChunkedArrayEES8_INS5_11RecordBatchEES8_INS5_5TableEEEEC1EOSJ_EUlOT_T0_E_OSt7variantIJS7_SA_SC_SE_SG_SI_EEEJEEESt16integer_sequenceImJLm2EEEE14__visit_invokeESP_SS_ = comdat any

$_ZNSt8__detail9__variant17__gen_vtable_implINS0_12_Multi_arrayIPFNS0_20__variant_idx_cookieEOZNS0_15_Move_ctor_baseILb0EJN5arrow5Datum5EmptyESt10shared_ptrINS5_6ScalarEES8_INS5_9ArrayDataEES8_INS5_12ChunkedArrayEES8_INS5_11RecordBatchEES8_INS5_5TableEEEEC1EOSJ_EUlOT_T0_E_OSt7variantIJS7_SA_SC_SE_SG_SI_EEEJEEESt16integer_sequenceImJLm3EEEE14__visit_invokeESP_SS_ = comdat any

$_ZNSt8__detail9__variant17__gen_vtable_implINS0_12_Multi_arrayIPFNS0_20__variant_idx_cookieEOZNS0_15_Move_ctor_baseILb0EJN5arrow5Datum5EmptyESt10shared_ptrINS5_6ScalarEES8_INS5_9ArrayDataEES8_INS5_12ChunkedArrayEES8_INS5_11RecordBatchEES8_INS5_5TableEEEEC1EOSJ_EUlOT_T0_E_OSt7variantIJS7_SA_SC_SE_SG_SI_EEEJEEESt16integer_sequenceImJLm4EEEE14__visit_invokeESP_SS_ = comdat any

$_ZNSt8__detail9__variant17__gen_vtable_implINS0_12_Multi_arrayIPFNS0_20__variant_idx_cookieEOZNS0_15_Move_ctor_baseILb0EJN5arrow5Datum5EmptyESt10shared_ptrINS5_6ScalarEES8_INS5_9ArrayDataEES8_INS5_12ChunkedArrayEES8_INS5_11RecordBatchEES8_INS5_5TableEEEEC1EOSJ_EUlOT_T0_E_OSt7variantIJS7_SA_SC_SE_SG_SI_EEEJEEESt16integer_sequenceImJLm5EEEE14__visit_invokeESP_SS_ = comdat any

$_ZNSt8__detail9__variant17__gen_vtable_implINS0_12_Multi_arrayIPFNS0_20__variant_idx_cookieEOZNS0_15_Move_ctor_baseILb0EJN5arrow5Datum5EmptyESt10shared_ptrINS5_6ScalarEES8_INS5_9ArrayDataEES8_INS5_12ChunkedArrayEES8_INS5_11RecordBatchEES8_INS5_5TableEEEEC1EOSJ_EUlOT_T0_E_OSt7variantIJS7_SA_SC_SE_SG_SI_EEEJEEESt16integer_sequenceImJLm18446744073709551615EEEE14__visit_invokeESP_SS_ = comdat any

$_ZSt8__invokeIZNSt8__detail9__variant15_Move_ctor_baseILb0EJN5arrow5Datum5EmptyESt10shared_ptrINS3_6ScalarEES6_INS3_9ArrayDataEES6_INS3_12ChunkedArrayEES6_INS3_11RecordBatchEES6_INS3_5TableEEEEC1EOSH_EUlOT_T0_E_JS5_St17integral_constantImLm0EEEENSt15__invoke_resultISJ_JDpT0_EE4typeESK_DpOSQ_ = comdat any

$_ZNSt8__detail9__variant17__gen_vtable_implINS0_12_Multi_arrayIPFNS0_20__variant_idx_cookieEOZNS0_15_Move_ctor_baseILb0EJN5arrow5Datum5EmptyESt10shared_ptrINS5_6ScalarEES8_INS5_9ArrayDataEES8_INS5_12ChunkedArrayEES8_INS5_11RecordBatchEES8_INS5_5TableEEEEC1EOSJ_EUlOT_T0_E_OSt7variantIJS7_SA_SC_SE_SG_SI_EEEJEEESt16integer_sequenceImJLm0EEEE28__element_by_index_or_cookieILm0ESR_EEDcOSN_ = comdat any

$_ZSt13__invoke_implIvZNSt8__detail9__variant15_Move_ctor_baseILb0EJN5arrow5Datum5EmptyESt10shared_ptrINS3_6ScalarEES6_INS3_9ArrayDataEES6_INS3_12ChunkedArrayEES6_INS3_11RecordBatchEES6_INS3_5TableEEEEC1EOSH_EUlOT_T0_E_JS5_St17integral_constantImLm0EEEESJ_St14__invoke_otherOSL_DpOT1_ = comdat any

$_ZZNSt8__detail9__variant15_Move_ctor_baseILb0EJN5arrow5Datum5EmptyESt10shared_ptrINS2_6ScalarEES5_INS2_9ArrayDataEES5_INS2_12ChunkedArrayEES5_INS2_11RecordBatchEES5_INS2_5TableEEEEC1EOSG_ENUlOT_T0_E_clIS4_St17integral_constantImLm0EEEEDaSJ_SK_ = comdat any

$_ZSt10_ConstructINSt8__detail9__variant15_Variadic_unionIJN5arrow5Datum5EmptyESt10shared_ptrINS3_6ScalarEES6_INS3_9ArrayDataEES6_INS3_12ChunkedArrayEES6_INS3_11RecordBatchEES6_INS3_5TableEEEEEJRKSt16in_place_index_tILm0EES5_EEvPT_DpOT0_ = comdat any

$_ZNSt8__detail9__variant15_Variadic_unionIJN5arrow5Datum5EmptyESt10shared_ptrINS2_6ScalarEES5_INS2_9ArrayDataEES5_INS2_12ChunkedArrayEES5_INS2_11RecordBatchEES5_INS2_5TableEEEEC2IJS4_EEESt16in_place_index_tILm0EEDpOT_ = comdat any

$_ZNSt8__detail9__variant14_UninitializedIN5arrow5Datum5EmptyELb1EEC2IJS4_EEESt16in_place_index_tILm0EEDpOT_ = comdat any

$_ZNSt8__detail9__variant5__getILm0ESt7variantIJN5arrow5Datum5EmptyESt10shared_ptrINS3_6ScalarEES6_INS3_9ArrayDataEES6_INS3_12ChunkedArrayEES6_INS3_11RecordBatchEES6_INS3_5TableEEEEEEDcOT0_ = comdat any

$_ZNSt8__detail9__variant7__get_nILm0ENS0_15_Variadic_unionIJN5arrow5Datum5EmptyESt10shared_ptrINS3_6ScalarEES6_INS3_9ArrayDataEES6_INS3_12ChunkedArrayEES6_INS3_11RecordBatchEES6_INS3_5TableEEEEEEEDcOT0_ = comdat any

$_ZNOSt8__detail9__variant14_UninitializedIN5arrow5Datum5EmptyELb1EE6_M_getEv = comdat any

$_ZSt8__invokeIZNSt8__detail9__variant15_Move_ctor_baseILb0EJN5arrow5Datum5EmptyESt10shared_ptrINS3_6ScalarEES6_INS3_9ArrayDataEES6_INS3_12ChunkedArrayEES6_INS3_11RecordBatchEES6_INS3_5TableEEEEC1EOSH_EUlOT_T0_E_JS8_St17integral_constantImLm1EEEENSt15__invoke_resultISJ_JDpT0_EE4typeESK_DpOSQ_ = comdat any

$_ZNSt8__detail9__variant17__gen_vtable_implINS0_12_Multi_arrayIPFNS0_20__variant_idx_cookieEOZNS0_15_Move_ctor_baseILb0EJN5arrow5Datum5EmptyESt10shared_ptrINS5_6ScalarEES8_INS5_9ArrayDataEES8_INS5_12ChunkedArrayEES8_INS5_11RecordBatchEES8_INS5_5TableEEEEC1EOSJ_EUlOT_T0_E_OSt7variantIJS7_SA_SC_SE_SG_SI_EEEJEEESt16integer_sequenceImJLm1EEEE28__element_by_index_or_cookieILm1ESR_EEDcOSN_ = comdat any

$_ZSt13__invoke_implIvZNSt8__detail9__variant15_Move_ctor_baseILb0EJN5arrow5Datum5EmptyESt10shared_ptrINS3_6ScalarEES6_INS3_9ArrayDataEES6_INS3_12ChunkedArrayEES6_INS3_11RecordBatchEES6_INS3_5TableEEEEC1EOSH_EUlOT_T0_E_JS8_St17integral_constantImLm1EEEESJ_St14__invoke_otherOSL_DpOT1_ = comdat any

$_ZZNSt8__detail9__variant15_Move_ctor_baseILb0EJN5arrow5Datum5EmptyESt10shared_ptrINS2_6ScalarEES5_INS2_9ArrayDataEES5_INS2_12ChunkedArrayEES5_INS2_11RecordBatchEES5_INS2_5TableEEEEC1EOSG_ENUlOT_T0_E_clIS7_St17integral_constantImLm1EEEEDaSJ_SK_ = comdat any

$_ZSt10_ConstructINSt8__detail9__variant15_Variadic_unionIJN5arrow5Datum5EmptyESt10shared_ptrINS3_6ScalarEES6_INS3_9ArrayDataEES6_INS3_12ChunkedArrayEES6_INS3_11RecordBatchEES6_INS3_5TableEEEEEJRKSt16in_place_index_tILm1EES8_EEvPT_DpOT0_ = comdat any

$_ZNSt8__detail9__variant15_Variadic_unionIJN5arrow5Datum5EmptyESt10shared_ptrINS2_6ScalarEES5_INS2_9ArrayDataEES5_INS2_12ChunkedArrayEES5_INS2_11RecordBatchEES5_INS2_5TableEEEEC2ILm1EJS7_EEESt16in_place_index_tIXT_EEDpOT0_ = comdat any

$_ZNSt8__detail9__variant15_Variadic_unionIJSt10shared_ptrIN5arrow6ScalarEES2_INS3_9ArrayDataEES2_INS3_12ChunkedArrayEES2_INS3_11RecordBatchEES2_INS3_5TableEEEEC2IJS5_EEESt16in_place_index_tILm0EEDpOT_ = comdat any

$_ZNSt8__detail9__variant14_UninitializedISt10shared_ptrIN5arrow6ScalarEELb0EEC2IJS5_EEESt16in_place_index_tILm0EEDpOT_ = comdat any

$_ZNSt10shared_ptrIN5arrow6ScalarEEC2EOS2_ = comdat any

$_ZNSt12__shared_ptrIN5arrow6ScalarELN9__gnu_cxx12_Lock_policyE2EEC2EOS4_ = comdat any

$_ZNSt8__detail9__variant5__getILm1ESt7variantIJN5arrow5Datum5EmptyESt10shared_ptrINS3_6ScalarEES6_INS3_9ArrayDataEES6_INS3_12ChunkedArrayEES6_INS3_11RecordBatchEES6_INS3_5TableEEEEEEDcOT0_ = comdat any

$_ZNSt8__detail9__variant7__get_nILm1ENS0_15_Variadic_unionIJN5arrow5Datum5EmptyESt10shared_ptrINS3_6ScalarEES6_INS3_9ArrayDataEES6_INS3_12ChunkedArrayEES6_INS3_11RecordBatchEES6_INS3_5TableEEEEEEEDcOT0_ = comdat any

$_ZNOSt8__detail9__variant14_UninitializedISt10shared_ptrIN5arrow6ScalarEELb0EE6_M_getEv = comdat any

$_ZSt8__invokeIZNSt8__detail9__variant15_Move_ctor_baseILb0EJN5arrow5Datum5EmptyESt10shared_ptrINS3_6ScalarEES6_INS3_9ArrayDataEES6_INS3_12ChunkedArrayEES6_INS3_11RecordBatchEES6_INS3_5TableEEEEC1EOSH_EUlOT_T0_E_JSA_St17integral_constantImLm2EEEENSt15__invoke_resultISJ_JDpT0_EE4typeESK_DpOSQ_ = comdat any

$_ZNSt8__detail9__variant17__gen_vtable_implINS0_12_Multi_arrayIPFNS0_20__variant_idx_cookieEOZNS0_15_Move_ctor_baseILb0EJN5arrow5Datum5EmptyESt10shared_ptrINS5_6ScalarEES8_INS5_9ArrayDataEES8_INS5_12ChunkedArrayEES8_INS5_11RecordBatchEES8_INS5_5TableEEEEC1EOSJ_EUlOT_T0_E_OSt7variantIJS7_SA_SC_SE_SG_SI_EEEJEEESt16integer_sequenceImJLm2EEEE28__element_by_index_or_cookieILm2ESR_EEDcOSN_ = comdat any

$_ZSt13__invoke_implIvZNSt8__detail9__variant15_Move_ctor_baseILb0EJN5arrow5Datum5EmptyESt10shared_ptrINS3_6ScalarEES6_INS3_9ArrayDataEES6_INS3_12ChunkedArrayEES6_INS3_11RecordBatchEES6_INS3_5TableEEEEC1EOSH_EUlOT_T0_E_JSA_St17integral_constantImLm2EEEESJ_St14__invoke_otherOSL_DpOT1_ = comdat any

$_ZZNSt8__detail9__variant15_Move_ctor_baseILb0EJN5arrow5Datum5EmptyESt10shared_ptrINS2_6ScalarEES5_INS2_9ArrayDataEES5_INS2_12ChunkedArrayEES5_INS2_11RecordBatchEES5_INS2_5TableEEEEC1EOSG_ENUlOT_T0_E_clIS9_St17integral_constantImLm2EEEEDaSJ_SK_ = comdat any

$_ZSt10_ConstructINSt8__detail9__variant15_Variadic_unionIJN5arrow5Datum5EmptyESt10shared_ptrINS3_6ScalarEES6_INS3_9ArrayDataEES6_INS3_12ChunkedArrayEES6_INS3_11RecordBatchEES6_INS3_5TableEEEEEJRKSt16in_place_index_tILm2EESA_EEvPT_DpOT0_ = comdat any

$_ZNSt8__detail9__variant15_Variadic_unionIJN5arrow5Datum5EmptyESt10shared_ptrINS2_6ScalarEES5_INS2_9ArrayDataEES5_INS2_12ChunkedArrayEES5_INS2_11RecordBatchEES5_INS2_5TableEEEEC2ILm2EJS9_EEESt16in_place_index_tIXT_EEDpOT0_ = comdat any

$_ZNSt8__detail9__variant15_Variadic_unionIJSt10shared_ptrIN5arrow6ScalarEES2_INS3_9ArrayDataEES2_INS3_12ChunkedArrayEES2_INS3_11RecordBatchEES2_INS3_5TableEEEEC2ILm1EJS7_EEESt16in_place_index_tIXT_EEDpOT0_ = comdat any

$_ZNSt8__detail9__variant15_Variadic_unionIJSt10shared_ptrIN5arrow9ArrayDataEES2_INS3_12ChunkedArrayEES2_INS3_11RecordBatchEES2_INS3_5TableEEEEC2IJS5_EEESt16in_place_index_tILm0EEDpOT_ = comdat any

$_ZNSt8__detail9__variant14_UninitializedISt10shared_ptrIN5arrow9ArrayDataEELb0EEC2IJS5_EEESt16in_place_index_tILm0EEDpOT_ = comdat any

$_ZNSt8__detail9__variant5__getILm2ESt7variantIJN5arrow5Datum5EmptyESt10shared_ptrINS3_6ScalarEES6_INS3_9ArrayDataEES6_INS3_12ChunkedArrayEES6_INS3_11RecordBatchEES6_INS3_5TableEEEEEEDcOT0_ = comdat any

$_ZNSt8__detail9__variant7__get_nILm2ENS0_15_Variadic_unionIJN5arrow5Datum5EmptyESt10shared_ptrINS3_6ScalarEES6_INS3_9ArrayDataEES6_INS3_12ChunkedArrayEES6_INS3_11RecordBatchEES6_INS3_5TableEEEEEEEDcOT0_ = comdat any

$_ZNOSt8__detail9__variant14_UninitializedISt10shared_ptrIN5arrow9ArrayDataEELb0EE6_M_getEv = comdat any

$_ZSt8__invokeIZNSt8__detail9__variant15_Move_ctor_baseILb0EJN5arrow5Datum5EmptyESt10shared_ptrINS3_6ScalarEES6_INS3_9ArrayDataEES6_INS3_12ChunkedArrayEES6_INS3_11RecordBatchEES6_INS3_5TableEEEEC1EOSH_EUlOT_T0_E_JSC_St17integral_constantImLm3EEEENSt15__invoke_resultISJ_JDpT0_EE4typeESK_DpOSQ_ = comdat any

$_ZNSt8__detail9__variant17__gen_vtable_implINS0_12_Multi_arrayIPFNS0_20__variant_idx_cookieEOZNS0_15_Move_ctor_baseILb0EJN5arrow5Datum5EmptyESt10shared_ptrINS5_6ScalarEES8_INS5_9ArrayDataEES8_INS5_12ChunkedArrayEES8_INS5_11RecordBatchEES8_INS5_5TableEEEEC1EOSJ_EUlOT_T0_E_OSt7variantIJS7_SA_SC_SE_SG_SI_EEEJEEESt16integer_sequenceImJLm3EEEE28__element_by_index_or_cookieILm3ESR_EEDcOSN_ = comdat any

$_ZSt13__invoke_implIvZNSt8__detail9__variant15_Move_ctor_baseILb0EJN5arrow5Datum5EmptyESt10shared_ptrINS3_6ScalarEES6_INS3_9ArrayDataEES6_INS3_12ChunkedArrayEES6_INS3_11RecordBatchEES6_INS3_5TableEEEEC1EOSH_EUlOT_T0_E_JSC_St17integral_constantImLm3EEEESJ_St14__invoke_otherOSL_DpOT1_ = comdat any

$_ZZNSt8__detail9__variant15_Move_ctor_baseILb0EJN5arrow5Datum5EmptyESt10shared_ptrINS2_6ScalarEES5_INS2_9ArrayDataEES5_INS2_12ChunkedArrayEES5_INS2_11RecordBatchEES5_INS2_5TableEEEEC1EOSG_ENUlOT_T0_E_clISB_St17integral_constantImLm3EEEEDaSJ_SK_ = comdat any

$_ZSt10_ConstructINSt8__detail9__variant15_Variadic_unionIJN5arrow5Datum5EmptyESt10shared_ptrINS3_6ScalarEES6_INS3_9ArrayDataEES6_INS3_12ChunkedArrayEES6_INS3_11RecordBatchEES6_INS3_5TableEEEEEJRKSt16in_place_index_tILm3EESC_EEvPT_DpOT0_ = comdat any

$_ZNSt8__detail9__variant15_Variadic_unionIJN5arrow5Datum5EmptyESt10shared_ptrINS2_6ScalarEES5_INS2_9ArrayDataEES5_INS2_12ChunkedArrayEES5_INS2_11RecordBatchEES5_INS2_5TableEEEEC2ILm3EJSB_EEESt16in_place_index_tIXT_EEDpOT0_ = comdat any

$_ZNSt8__detail9__variant15_Variadic_unionIJSt10shared_ptrIN5arrow6ScalarEES2_INS3_9ArrayDataEES2_INS3_12ChunkedArrayEES2_INS3_11RecordBatchEES2_INS3_5TableEEEEC2ILm2EJS9_EEESt16in_place_index_tIXT_EEDpOT0_ = comdat any

$_ZNSt8__detail9__variant15_Variadic_unionIJSt10shared_ptrIN5arrow9ArrayDataEES2_INS3_12ChunkedArrayEES2_INS3_11RecordBatchEES2_INS3_5TableEEEEC2ILm1EJS7_EEESt16in_place_index_tIXT_EEDpOT0_ = comdat any

$_ZNSt8__detail9__variant15_Variadic_unionIJSt10shared_ptrIN5arrow12ChunkedArrayEES2_INS3_11RecordBatchEES2_INS3_5TableEEEEC2IJS5_EEESt16in_place_index_tILm0EEDpOT_ = comdat any

$_ZNSt8__detail9__variant14_UninitializedISt10shared_ptrIN5arrow12ChunkedArrayEELb0EEC2IJS5_EEESt16in_place_index_tILm0EEDpOT_ = comdat any

$_ZNSt8__detail9__variant5__getILm3ESt7variantIJN5arrow5Datum5EmptyESt10shared_ptrINS3_6ScalarEES6_INS3_9ArrayDataEES6_INS3_12ChunkedArrayEES6_INS3_11RecordBatchEES6_INS3_5TableEEEEEEDcOT0_ = comdat any

$_ZNSt8__detail9__variant7__get_nILm3ENS0_15_Variadic_unionIJN5arrow5Datum5EmptyESt10shared_ptrINS3_6ScalarEES6_INS3_9ArrayDataEES6_INS3_12ChunkedArrayEES6_INS3_11RecordBatchEES6_INS3_5TableEEEEEEEDcOT0_ = comdat any

$_ZNSt8__detail9__variant7__get_nILm0ENS0_15_Variadic_unionIJSt10shared_ptrIN5arrow12ChunkedArrayEES3_INS4_11RecordBatchEES3_INS4_5TableEEEEEEEDcOT0_ = comdat any

$_ZNOSt8__detail9__variant14_UninitializedISt10shared_ptrIN5arrow12ChunkedArrayEELb0EE6_M_getEv = comdat any

$_ZSt8__invokeIZNSt8__detail9__variant15_Move_ctor_baseILb0EJN5arrow5Datum5EmptyESt10shared_ptrINS3_6ScalarEES6_INS3_9ArrayDataEES6_INS3_12ChunkedArrayEES6_INS3_11RecordBatchEES6_INS3_5TableEEEEC1EOSH_EUlOT_T0_E_JSE_St17integral_constantImLm4EEEENSt15__invoke_resultISJ_JDpT0_EE4typeESK_DpOSQ_ = comdat any

$_ZNSt8__detail9__variant17__gen_vtable_implINS0_12_Multi_arrayIPFNS0_20__variant_idx_cookieEOZNS0_15_Move_ctor_baseILb0EJN5arrow5Datum5EmptyESt10shared_ptrINS5_6ScalarEES8_INS5_9ArrayDataEES8_INS5_12ChunkedArrayEES8_INS5_11RecordBatchEES8_INS5_5TableEEEEC1EOSJ_EUlOT_T0_E_OSt7variantIJS7_SA_SC_SE_SG_SI_EEEJEEESt16integer_sequenceImJLm4EEEE28__element_by_index_or_cookieILm4ESR_EEDcOSN_ = comdat any

$_ZSt13__invoke_implIvZNSt8__detail9__variant15_Move_ctor_baseILb0EJN5arrow5Datum5EmptyESt10shared_ptrINS3_6ScalarEES6_INS3_9ArrayDataEES6_INS3_12ChunkedArrayEES6_INS3_11RecordBatchEES6_INS3_5TableEEEEC1EOSH_EUlOT_T0_E_JSE_St17integral_constantImLm4EEEESJ_St14__invoke_otherOSL_DpOT1_ = comdat any

$_ZZNSt8__detail9__variant15_Move_ctor_baseILb0EJN5arrow5Datum5EmptyESt10shared_ptrINS2_6ScalarEES5_INS2_9ArrayDataEES5_INS2_12ChunkedArrayEES5_INS2_11RecordBatchEES5_INS2_5TableEEEEC1EOSG_ENUlOT_T0_E_clISD_St17integral_constantImLm4EEEEDaSJ_SK_ = comdat any

$_ZSt10_ConstructINSt8__detail9__variant15_Variadic_unionIJN5arrow5Datum5EmptyESt10shared_ptrINS3_6ScalarEES6_INS3_9ArrayDataEES6_INS3_12ChunkedArrayEES6_INS3_11RecordBatchEES6_INS3_5TableEEEEEJRKSt16in_place_index_tILm4EESE_EEvPT_DpOT0_ = comdat any

$_ZNSt8__detail9__variant15_Variadic_unionIJN5arrow5Datum5EmptyESt10shared_ptrINS2_6ScalarEES5_INS2_9ArrayDataEES5_INS2_12ChunkedArrayEES5_INS2_11RecordBatchEES5_INS2_5TableEEEEC2ILm4EJSD_EEESt16in_place_index_tIXT_EEDpOT0_ = comdat any

$_ZNSt8__detail9__variant15_Variadic_unionIJSt10shared_ptrIN5arrow6ScalarEES2_INS3_9ArrayDataEES2_INS3_12ChunkedArrayEES2_INS3_11RecordBatchEES2_INS3_5TableEEEEC2ILm3EJSB_EEESt16in_place_index_tIXT_EEDpOT0_ = comdat any

$_ZNSt8__detail9__variant15_Variadic_unionIJSt10shared_ptrIN5arrow9ArrayDataEES2_INS3_12ChunkedArrayEES2_INS3_11RecordBatchEES2_INS3_5TableEEEEC2ILm2EJS9_EEESt16in_place_index_tIXT_EEDpOT0_ = comdat any

$_ZNSt8__detail9__variant15_Variadic_unionIJSt10shared_ptrIN5arrow12ChunkedArrayEES2_INS3_11RecordBatchEES2_INS3_5TableEEEEC2ILm1EJS7_EEESt16in_place_index_tIXT_EEDpOT0_ = comdat any

$_ZNSt8__detail9__variant15_Variadic_unionIJSt10shared_ptrIN5arrow11RecordBatchEES2_INS3_5TableEEEEC2IJS5_EEESt16in_place_index_tILm0EEDpOT_ = comdat any

$_ZNSt8__detail9__variant14_UninitializedISt10shared_ptrIN5arrow11RecordBatchEELb0EEC2IJS5_EEESt16in_place_index_tILm0EEDpOT_ = comdat any

$_ZNSt10shared_ptrIN5arrow11RecordBatchEEC2EOS2_ = comdat any

$_ZNSt12__shared_ptrIN5arrow11RecordBatchELN9__gnu_cxx12_Lock_policyE2EEC2EOS4_ = comdat any

$_ZNSt8__detail9__variant5__getILm4ESt7variantIJN5arrow5Datum5EmptyESt10shared_ptrINS3_6ScalarEES6_INS3_9ArrayDataEES6_INS3_12ChunkedArrayEES6_INS3_11RecordBatchEES6_INS3_5TableEEEEEEDcOT0_ = comdat any

$_ZNSt8__detail9__variant7__get_nILm4ENS0_15_Variadic_unionIJN5arrow5Datum5EmptyESt10shared_ptrINS3_6ScalarEES6_INS3_9ArrayDataEES6_INS3_12ChunkedArrayEES6_INS3_11RecordBatchEES6_INS3_5TableEEEEEEEDcOT0_ = comdat any

$_ZNSt8__detail9__variant7__get_nILm1ENS0_15_Variadic_unionIJSt10shared_ptrIN5arrow12ChunkedArrayEES3_INS4_11RecordBatchEES3_INS4_5TableEEEEEEEDcOT0_ = comdat any

$_ZNOSt8__detail9__variant14_UninitializedISt10shared_ptrIN5arrow11RecordBatchEELb0EE6_M_getEv = comdat any

$_ZSt8__invokeIZNSt8__detail9__variant15_Move_ctor_baseILb0EJN5arrow5Datum5EmptyESt10shared_ptrINS3_6ScalarEES6_INS3_9ArrayDataEES6_INS3_12ChunkedArrayEES6_INS3_11RecordBatchEES6_INS3_5TableEEEEC1EOSH_EUlOT_T0_E_JSG_St17integral_constantImLm5EEEENSt15__invoke_resultISJ_JDpT0_EE4typeESK_DpOSQ_ = comdat any

$_ZNSt8__detail9__variant17__gen_vtable_implINS0_12_Multi_arrayIPFNS0_20__variant_idx_cookieEOZNS0_15_Move_ctor_baseILb0EJN5arrow5Datum5EmptyESt10shared_ptrINS5_6ScalarEES8_INS5_9ArrayDataEES8_INS5_12ChunkedArrayEES8_INS5_11RecordBatchEES8_INS5_5TableEEEEC1EOSJ_EUlOT_T0_E_OSt7variantIJS7_SA_SC_SE_SG_SI_EEEJEEESt16integer_sequenceImJLm5EEEE28__element_by_index_or_cookieILm5ESR_EEDcOSN_ = comdat any

$_ZSt13__invoke_implIvZNSt8__detail9__variant15_Move_ctor_baseILb0EJN5arrow5Datum5EmptyESt10shared_ptrINS3_6ScalarEES6_INS3_9ArrayDataEES6_INS3_12ChunkedArrayEES6_INS3_11RecordBatchEES6_INS3_5TableEEEEC1EOSH_EUlOT_T0_E_JSG_St17integral_constantImLm5EEEESJ_St14__invoke_otherOSL_DpOT1_ = comdat any

$_ZZNSt8__detail9__variant15_Move_ctor_baseILb0EJN5arrow5Datum5EmptyESt10shared_ptrINS2_6ScalarEES5_INS2_9ArrayDataEES5_INS2_12ChunkedArrayEES5_INS2_11RecordBatchEES5_INS2_5TableEEEEC1EOSG_ENUlOT_T0_E_clISF_St17integral_constantImLm5EEEEDaSJ_SK_ = comdat any

$_ZSt10_ConstructINSt8__detail9__variant15_Variadic_unionIJN5arrow5Datum5EmptyESt10shared_ptrINS3_6ScalarEES6_INS3_9ArrayDataEES6_INS3_12ChunkedArrayEES6_INS3_11RecordBatchEES6_INS3_5TableEEEEEJRKSt16in_place_index_tILm5EESG_EEvPT_DpOT0_ = comdat any

$_ZNSt8__detail9__variant15_Variadic_unionIJN5arrow5Datum5EmptyESt10shared_ptrINS2_6ScalarEES5_INS2_9ArrayDataEES5_INS2_12ChunkedArrayEES5_INS2_11RecordBatchEES5_INS2_5TableEEEEC2ILm5EJSF_EEESt16in_place_index_tIXT_EEDpOT0_ = comdat any

$_ZNSt8__detail9__variant15_Variadic_unionIJSt10shared_ptrIN5arrow6ScalarEES2_INS3_9ArrayDataEES2_INS3_12ChunkedArrayEES2_INS3_11RecordBatchEES2_INS3_5TableEEEEC2ILm4EJSD_EEESt16in_place_index_tIXT_EEDpOT0_ = comdat any

$_ZNSt8__detail9__variant15_Variadic_unionIJSt10shared_ptrIN5arrow9ArrayDataEES2_INS3_12ChunkedArrayEES2_INS3_11RecordBatchEES2_INS3_5TableEEEEC2ILm3EJSB_EEESt16in_place_index_tIXT_EEDpOT0_ = comdat any

$_ZNSt8__detail9__variant15_Variadic_unionIJSt10shared_ptrIN5arrow12ChunkedArrayEES2_INS3_11RecordBatchEES2_INS3_5TableEEEEC2ILm2EJS9_EEESt16in_place_index_tIXT_EEDpOT0_ = comdat any

$_ZNSt8__detail9__variant15_Variadic_unionIJSt10shared_ptrIN5arrow11RecordBatchEES2_INS3_5TableEEEEC2ILm1EJS7_EEESt16in_place_index_tIXT_EEDpOT0_ = comdat any

$_ZNSt8__detail9__variant15_Variadic_unionIJSt10shared_ptrIN5arrow5TableEEEEC2IJS5_EEESt16in_place_index_tILm0EEDpOT_ = comdat any

$_ZNSt8__detail9__variant14_UninitializedISt10shared_ptrIN5arrow5TableEELb0EEC2IJS5_EEESt16in_place_index_tILm0EEDpOT_ = comdat any

$_ZNSt10shared_ptrIN5arrow5TableEEC2EOS2_ = comdat any

$_ZNSt12__shared_ptrIN5arrow5TableELN9__gnu_cxx12_Lock_policyE2EEC2EOS4_ = comdat any

$_ZNSt8__detail9__variant5__getILm5ESt7variantIJN5arrow5Datum5EmptyESt10shared_ptrINS3_6ScalarEES6_INS3_9ArrayDataEES6_INS3_12ChunkedArrayEES6_INS3_11RecordBatchEES6_INS3_5TableEEEEEEDcOT0_ = comdat any

$_ZNSt8__detail9__variant7__get_nILm5ENS0_15_Variadic_unionIJN5arrow5Datum5EmptyESt10shared_ptrINS3_6ScalarEES6_INS3_9ArrayDataEES6_INS3_12ChunkedArrayEES6_INS3_11RecordBatchEES6_INS3_5TableEEEEEEEDcOT0_ = comdat any

$_ZNSt8__detail9__variant7__get_nILm2ENS0_15_Variadic_unionIJSt10shared_ptrIN5arrow12ChunkedArrayEES3_INS4_11RecordBatchEES3_INS4_5TableEEEEEEEDcOT0_ = comdat any

$_ZNOSt8__detail9__variant14_UninitializedISt10shared_ptrIN5arrow5TableEELb0EE6_M_getEv = comdat any

$_ZSt8__invokeIZNSt8__detail9__variant15_Move_ctor_baseILb0EJN5arrow5Datum5EmptyESt10shared_ptrINS3_6ScalarEES6_INS3_9ArrayDataEES6_INS3_12ChunkedArrayEES6_INS3_11RecordBatchEES6_INS3_5TableEEEEC1EOSH_EUlOT_T0_E_JNS1_16__variant_cookieESt17integral_constantImLm18446744073709551615EEEENSt15__invoke_resultISJ_JDpT0_EE4typeESK_DpOSR_ = comdat any

$_ZNSt8__detail9__variant17__gen_vtable_implINS0_12_Multi_arrayIPFNS0_20__variant_idx_cookieEOZNS0_15_Move_ctor_baseILb0EJN5arrow5Datum5EmptyESt10shared_ptrINS5_6ScalarEES8_INS5_9ArrayDataEES8_INS5_12ChunkedArrayEES8_INS5_11RecordBatchEES8_INS5_5TableEEEEC1EOSJ_EUlOT_T0_E_OSt7variantIJS7_SA_SC_SE_SG_SI_EEEJEEESt16integer_sequenceImJLm18446744073709551615EEEE28__element_by_index_or_cookieILm18446744073709551615ESR_EEDcOSN_ = comdat any

$_ZSt13__invoke_implIvZNSt8__detail9__variant15_Move_ctor_baseILb0EJN5arrow5Datum5EmptyESt10shared_ptrINS3_6ScalarEES6_INS3_9ArrayDataEES6_INS3_12ChunkedArrayEES6_INS3_11RecordBatchEES6_INS3_5TableEEEEC1EOSH_EUlOT_T0_E_JNS1_16__variant_cookieESt17integral_constantImLm18446744073709551615EEEESJ_St14__invoke_otherOSL_DpOT1_ = comdat any

$_ZZNSt8__detail9__variant15_Move_ctor_baseILb0EJN5arrow5Datum5EmptyESt10shared_ptrINS2_6ScalarEES5_INS2_9ArrayDataEES5_INS2_12ChunkedArrayEES5_INS2_11RecordBatchEES5_INS2_5TableEEEEC1EOSG_ENUlOT_T0_E_clINS0_16__variant_cookieESt17integral_constantImLm18446744073709551615EEEEDaSJ_SK_ = comdat any

$_ZNSt6vectorISt10shared_ptrIN5arrow5ArrayEESaIS3_EE12emplace_backIJS3_EEERS3_DpOT_ = comdat any

$_ZNSt16allocator_traitsISaISt10shared_ptrIN5arrow5ArrayEEEE9constructIS3_JS3_EEEvRS4_PT_DpOT0_ = comdat any

$_ZNSt6vectorISt10shared_ptrIN5arrow5ArrayEESaIS3_EE17_M_realloc_insertIJS3_EEEvN9__gnu_cxx17__normal_iteratorIPS3_S5_EEDpOT_ = comdat any

$_ZNSt6vectorISt10shared_ptrIN5arrow5ArrayEESaIS3_EE3endEv = comdat any

$_ZNSt6vectorISt10shared_ptrIN5arrow5ArrayEESaIS3_EE4backEv = comdat any

$_ZNSt15__new_allocatorISt10shared_ptrIN5arrow5ArrayEEE9constructIS3_JS3_EEEvPT_DpOT0_ = comdat any

$_ZNKSt6vectorISt10shared_ptrIN5arrow5ArrayEESaIS3_EE12_M_check_lenEmPKc = comdat any

$_ZN9__gnu_cxxmiIPSt10shared_ptrIN5arrow5ArrayEESt6vectorIS4_SaIS4_EEEENS_17__normal_iteratorIT_T0_E15difference_typeERKSC_SF_ = comdat any

$_ZNSt6vectorISt10shared_ptrIN5arrow5ArrayEESaIS3_EE5beginEv = comdat any

$_ZNSt12_Vector_baseISt10shared_ptrIN5arrow5ArrayEESaIS3_EE11_M_allocateEm = comdat any

$_ZNSt6vectorISt10shared_ptrIN5arrow5ArrayEESaIS3_EE11_S_relocateEPS3_S6_S6_RS4_ = comdat any

$_ZNK9__gnu_cxx17__normal_iteratorIPSt10shared_ptrIN5arrow5ArrayEESt6vectorIS4_SaIS4_EEE4baseEv = comdat any

$_ZNSt12_Vector_baseISt10shared_ptrIN5arrow5ArrayEESaIS3_EE19_M_get_Tp_allocatorEv = comdat any

$_ZNSt12_Vector_baseISt10shared_ptrIN5arrow5ArrayEESaIS3_EE13_M_deallocateEPS3_m = comdat any

$_ZNKSt6vectorISt10shared_ptrIN5arrow5ArrayEESaIS3_EE8max_sizeEv = comdat any

$_ZNSt6vectorISt10shared_ptrIN5arrow5ArrayEESaIS3_EE11_S_max_sizeERKS4_ = comdat any

$_ZNKSt12_Vector_baseISt10shared_ptrIN5arrow5ArrayEESaIS3_EE19_M_get_Tp_allocatorEv = comdat any

$_ZNSt16allocator_traitsISaISt10shared_ptrIN5arrow5ArrayEEEE8max_sizeERKS4_ = comdat any

$_ZNKSt15__new_allocatorISt10shared_ptrIN5arrow5ArrayEEE8max_sizeEv = comdat any

$_ZNKSt15__new_allocatorISt10shared_ptrIN5arrow5ArrayEEE11_M_max_sizeEv = comdat any

$_ZN9__gnu_cxx17__normal_iteratorIPSt10shared_ptrIN5arrow5ArrayEESt6vectorIS4_SaIS4_EEEC2ERKS5_ = comdat any

$_ZNSt16allocator_traitsISaISt10shared_ptrIN5arrow5ArrayEEEE8allocateERS4_m = comdat any

$_ZNSt15__new_allocatorISt10shared_ptrIN5arrow5ArrayEEE8allocateEmPKv = comdat any

$_ZSt12__relocate_aIPSt10shared_ptrIN5arrow5ArrayEES4_SaIS3_EET0_T_S7_S6_RT1_ = comdat any

$_ZSt14__relocate_a_1IPSt10shared_ptrIN5arrow5ArrayEES4_SaIS3_EET0_T_S7_S6_RT1_ = comdat any

$_ZSt12__niter_baseIPSt10shared_ptrIN5arrow5ArrayEEET_S5_ = comdat any

$_ZSt19__relocate_object_aISt10shared_ptrIN5arrow5ArrayEES3_SaIS3_EEvPT_PT0_RT1_ = comdat any

$_ZNSt16allocator_traitsISaISt10shared_ptrIN5arrow5ArrayEEEE7destroyIS3_EEvRS4_PT_ = comdat any

$_ZNSt15__new_allocatorISt10shared_ptrIN5arrow5ArrayEEE7destroyIS3_EEvPT_ = comdat any

$_ZNSt16allocator_traitsISaISt10shared_ptrIN5arrow5ArrayEEEE10deallocateERS4_PS3_m = comdat any

$_ZNSt15__new_allocatorISt10shared_ptrIN5arrow5ArrayEEE10deallocateEPS3_m = comdat any

$_ZNK9__gnu_cxx17__normal_iteratorIPSt10shared_ptrIN5arrow5ArrayEESt6vectorIS4_SaIS4_EEEmiEl = comdat any

$_ZNK9__gnu_cxx17__normal_iteratorIPSt10shared_ptrIN5arrow5ArrayEESt6vectorIS4_SaIS4_EEEdeEv = comdat any

$_ZN5arrow6ResultINS_5DatumEE7DestroyEv = comdat any

$_ZN5arrow4util18EqualityComparableINS_6ResultINS_5DatumEEEED2Ev = comdat any

$_ZN5arrow8internal14AlignedStorageINS_5DatumEE7destroyEv = comdat any

$_ZNSt10shared_ptrIN5arrow12ChunkedArrayEEC2ISaIvEJSt6vectorIS_INS0_5ArrayEESaIS7_EEEEESt20_Sp_alloc_shared_tagIT_EDpOT0_ = comdat any

$_ZNSt12__shared_ptrIN5arrow12ChunkedArrayELN9__gnu_cxx12_Lock_policyE2EEC2ISaIvEJSt6vectorISt10shared_ptrINS0_5ArrayEESaISA_EEEEESt20_Sp_alloc_shared_tagIT_EDpOT0_ = comdat any

$_ZNSt14__shared_countILN9__gnu_cxx12_Lock_policyE2EEC2IN5arrow12ChunkedArrayESaIvEJSt6vectorISt10shared_ptrINS4_5ArrayEESaISA_EEEEERPT_St20_Sp_alloc_shared_tagIT0_EDpOT1_ = comdat any

$_ZNSt12__shared_ptrIN5arrow12ChunkedArrayELN9__gnu_cxx12_Lock_policyE2EE31_M_enable_shared_from_this_withIS1_S1_EENSt9enable_ifIXntsr15__has_esft_baseIT0_EE5valueEvE4typeEPT_ = comdat any

$_ZNSaISt23_Sp_counted_ptr_inplaceIN5arrow12ChunkedArrayESaIvELN9__gnu_cxx12_Lock_policyE2EEEC2IvEERKSaIT_E = comdat any

$_ZSt18__allocate_guardedISaISt23_Sp_counted_ptr_inplaceIN5arrow12ChunkedArrayESaIvELN9__gnu_cxx12_Lock_policyE2EEEESt15__allocated_ptrIT_ERS9_ = comdat any

$_ZNSt15__allocated_ptrISaISt23_Sp_counted_ptr_inplaceIN5arrow12ChunkedArrayESaIvELN9__gnu_cxx12_Lock_policyE2EEEE3getEv = comdat any

$_ZNSt23_Sp_counted_ptr_inplaceIN5arrow12ChunkedArrayESaIvELN9__gnu_cxx12_Lock_policyE2EEC2IJSt6vectorISt10shared_ptrINS0_5ArrayEESaISA_EEEEES2_DpOT_ = comdat any

$_ZNSt15__allocated_ptrISaISt23_Sp_counted_ptr_inplaceIN5arrow12ChunkedArrayESaIvELN9__gnu_cxx12_Lock_policyE2EEEEaSEDn = comdat any

$_ZNSt23_Sp_counted_ptr_inplaceIN5arrow12ChunkedArrayESaIvELN9__gnu_cxx12_Lock_policyE2EE6_M_ptrEv = comdat any

$_ZNSt15__allocated_ptrISaISt23_Sp_counted_ptr_inplaceIN5arrow12ChunkedArrayESaIvELN9__gnu_cxx12_Lock_policyE2EEEED2Ev = comdat any

$_ZNSaISt23_Sp_counted_ptr_inplaceIN5arrow12ChunkedArrayESaIvELN9__gnu_cxx12_Lock_policyE2EEED2Ev = comdat any

$_ZNSt15__new_allocatorISt23_Sp_counted_ptr_inplaceIN5arrow12ChunkedArrayESaIvELN9__gnu_cxx12_Lock_policyE2EEEC2Ev = comdat any

$_ZNSt16allocator_traitsISaISt23_Sp_counted_ptr_inplaceIN5arrow12ChunkedArrayESaIvELN9__gnu_cxx12_Lock_policyE2EEEE8allocateERS7_m = comdat any

$_ZNSt15__allocated_ptrISaISt23_Sp_counted_ptr_inplaceIN5arrow12ChunkedArrayESaIvELN9__gnu_cxx12_Lock_policyE2EEEEC2ERS7_PS6_ = comdat any

$_ZNSt15__new_allocatorISt23_Sp_counted_ptr_inplaceIN5arrow12ChunkedArrayESaIvELN9__gnu_cxx12_Lock_policyE2EEE8allocateEmPKv = comdat any

$_ZNKSt15__new_allocatorISt23_Sp_counted_ptr_inplaceIN5arrow12ChunkedArrayESaIvELN9__gnu_cxx12_Lock_policyE2EEE11_M_max_sizeEv = comdat any

$_ZSt12__to_addressISt23_Sp_counted_ptr_inplaceIN5arrow12ChunkedArrayESaIvELN9__gnu_cxx12_Lock_policyE2EEEPT_S8_ = comdat any

$_ZNSt23_Sp_counted_ptr_inplaceIN5arrow12ChunkedArrayESaIvELN9__gnu_cxx12_Lock_policyE2EE5_ImplC2ES2_ = comdat any

$_ZNSt16allocator_traitsISaIvEE9constructIN5arrow12ChunkedArrayEJSt6vectorISt10shared_ptrINS3_5ArrayEESaIS8_EEEEEvRS0_PT_DpOT0_ = comdat any

$_ZNSt23_Sp_counted_ptr_inplaceIN5arrow12ChunkedArrayESaIvELN9__gnu_cxx12_Lock_policyE2EED2Ev = comdat any

$_ZNSt23_Sp_counted_ptr_inplaceIN5arrow12ChunkedArrayESaIvELN9__gnu_cxx12_Lock_policyE2EED0Ev = comdat any

$_ZNSt23_Sp_counted_ptr_inplaceIN5arrow12ChunkedArrayESaIvELN9__gnu_cxx12_Lock_policyE2EE10_M_disposeEv = comdat any

$_ZNSt23_Sp_counted_ptr_inplaceIN5arrow12ChunkedArrayESaIvELN9__gnu_cxx12_Lock_policyE2EE10_M_destroyEv = comdat any

$_ZNSt23_Sp_counted_ptr_inplaceIN5arrow12ChunkedArrayESaIvELN9__gnu_cxx12_Lock_policyE2EE14_M_get_deleterERKSt9type_info = comdat any

$_ZSt10_ConstructIN5arrow12ChunkedArrayEJSt6vectorISt10shared_ptrINS0_5ArrayEESaIS5_EEEEvPT_DpOT0_ = comdat any

$_ZNSt6vectorISt10shared_ptrIN5arrow5ArrayEESaIS3_EEC2EOS5_ = comdat any

$_ZNSt10shared_ptrIN5arrow8DataTypeEEC2EDn = comdat any

$_ZNSt12_Vector_baseISt10shared_ptrIN5arrow5ArrayEESaIS3_EEC2EOS5_ = comdat any

$_ZNSt12_Vector_baseISt10shared_ptrIN5arrow5ArrayEESaIS3_EE12_Vector_implC2EOS6_ = comdat any

$_ZNSaISt10shared_ptrIN5arrow5ArrayEEEC2ERKS3_ = comdat any

$_ZNSt12_Vector_baseISt10shared_ptrIN5arrow5ArrayEESaIS3_EE17_Vector_impl_dataC2EOS6_ = comdat any

$_ZNSt15__new_allocatorISt10shared_ptrIN5arrow5ArrayEEEC2ERKS4_ = comdat any

$_ZNSt16allocator_traitsISaIvEE7destroyIN5arrow12ChunkedArrayEEEvRS0_PT_ = comdat any

$_ZNSt23_Sp_counted_ptr_inplaceIN5arrow12ChunkedArrayESaIvELN9__gnu_cxx12_Lock_policyE2EE5_Impl8_M_allocEv = comdat any

$_ZSt8_DestroyIN5arrow12ChunkedArrayEEvPT_ = comdat any

$_ZN5arrow12ChunkedArrayD2Ev = comdat any

$_ZN5arrow8internal13ChunkResolverD2Ev = comdat any

$_ZNSt6vectorIlSaIlEED2Ev = comdat any

$_ZSt8_DestroyIPllEvT_S1_RSaIT0_E = comdat any

$_ZNSt12_Vector_baseIlSaIlEE19_M_get_Tp_allocatorEv = comdat any

$_ZNSt12_Vector_baseIlSaIlEED2Ev = comdat any

$_ZSt8_DestroyIPlEvT_S1_ = comdat any

$_ZNSt12_Destroy_auxILb1EE9__destroyIPlEEvT_S3_ = comdat any

$_ZNSt12_Vector_baseIlSaIlEE13_M_deallocateEPlm = comdat any

$_ZNSt12_Vector_baseIlSaIlEE12_Vector_implD2Ev = comdat any

$_ZNSt16allocator_traitsISaIlEE10deallocateERS0_Plm = comdat any

$_ZNSt15__new_allocatorIlE10deallocateEPlm = comdat any

$_ZNSaIlED2Ev = comdat any

$_ZNSt15__new_allocatorIlED2Ev = comdat any

$_ZN9__gnu_cxx16__aligned_bufferIN5arrow12ChunkedArrayEE6_M_ptrEv = comdat any

$_ZN9__gnu_cxx16__aligned_bufferIN5arrow12ChunkedArrayEE7_M_addrEv = comdat any

$_ZNSt16allocator_traitsISaISt23_Sp_counted_ptr_inplaceIN5arrow12ChunkedArrayESaIvELN9__gnu_cxx12_Lock_policyE2EEEE10deallocateERS7_PS6_m = comdat any

$_ZNSt15__new_allocatorISt23_Sp_counted_ptr_inplaceIN5arrow12ChunkedArrayESaIvELN9__gnu_cxx12_Lock_policyE2EEE10deallocateEPS6_m = comdat any

$_ZNSt15__new_allocatorISt23_Sp_counted_ptr_inplaceIN5arrow12ChunkedArrayESaIvELN9__gnu_cxx12_Lock_policyE2EEED2Ev = comdat any

$_ZSt8_DestroyIPSt10shared_ptrIN5arrow5ArrayEES3_EvT_S5_RSaIT0_E = comdat any

$_ZNSt12_Vector_baseISt10shared_ptrIN5arrow5ArrayEESaIS3_EED2Ev = comdat any

$_ZSt8_DestroyIPSt10shared_ptrIN5arrow5ArrayEEEvT_S5_ = comdat any

$_ZNSt12_Destroy_auxILb0EE9__destroyIPSt10shared_ptrIN5arrow5ArrayEEEEvT_S7_ = comdat any

$_ZSt8_DestroyISt10shared_ptrIN5arrow5ArrayEEEvPT_ = comdat any

$_ZNSt12_Vector_baseISt10shared_ptrIN5arrow5ArrayEESaIS3_EE12_Vector_implD2Ev = comdat any

$_ZNSaISt10shared_ptrIN5arrow5ArrayEEED2Ev = comdat any

$_ZNSt15__new_allocatorISt10shared_ptrIN5arrow5ArrayEEED2Ev = comdat any

$_ZNKSt19__shared_ptr_accessIN5arrow11RecordBatchELN9__gnu_cxx12_Lock_policyE2ELb0ELb0EEptEv = comdat any

$_ZN5arrow6ResultINS_5DatumEEC2IRKSt10shared_ptrINS_11RecordBatchEEvEEOT_ = comdat any

$_ZNK5arrow11RecordBatch8num_rowsEv = comdat any

$_ZNKSt19__shared_ptr_accessIN5arrow6BufferELN9__gnu_cxx12_Lock_policyE2ELb0ELb0EEptEv = comdat any

$_ZNK5arrow5Array16null_bitmap_dataEv = comdat any

$_ZNK5arrow6Buffer4dataEv = comdat any

$_ZSt11make_sharedIN5arrow12BooleanArrayEJlRSt10shared_ptrINS0_6BufferEEEES2_INSt9enable_ifIXntsr8is_arrayIT_EE5valueES7_E4typeEEDpOT0_ = comdat any

$_ZNKSt19__shared_ptr_accessIN5arrow12BooleanArrayELN9__gnu_cxx12_Lock_policyE2ELb0ELb0EEptEv = comdat any

$_ZNK5arrow11RecordBatch6schemaEv = comdat any

$_ZNSt10shared_ptrIN5arrow6SchemaEEC2ERKS2_ = comdat any

$_ZN5arrow6ResultINS_5DatumEEC2ISt10shared_ptrINS_11RecordBatchEEvEEONS0_IT_EE = comdat any

$_ZN5arrow6ResultISt10shared_ptrINS_11RecordBatchEEED2Ev = comdat any

$_ZNSt10shared_ptrIN5arrow6SchemaEED2Ev = comdat any

$_ZNSt10shared_ptrIN5arrow11RecordBatchEEC2ERKS2_ = comdat any

$_ZNKSt19__shared_ptr_accessIN5arrow11RecordBatchELN9__gnu_cxx12_Lock_policyE2ELb0ELb0EE6_M_getEv = comdat any

$_ZNKSt12__shared_ptrIN5arrow11RecordBatchELN9__gnu_cxx12_Lock_policyE2EE3getEv = comdat any

$_ZN5arrow6ResultINS_5DatumEE14ConstructValueIRKSt10shared_ptrINS_11RecordBatchEEEEvOT_ = comdat any

$_ZN5arrow8internal14AlignedStorageINS_5DatumEE9constructIJRKSt10shared_ptrINS_11RecordBatchEEEEEvDpOT_ = comdat any

$_ZNKSt19__shared_ptr_accessIN5arrow6BufferELN9__gnu_cxx12_Lock_policyE2ELb0ELb0EE6_M_getEv = comdat any

$_ZNKSt12__shared_ptrIN5arrow6BufferELN9__gnu_cxx12_Lock_policyE2EE3getEv = comdat any

$_ZNSt10shared_ptrIN5arrow12BooleanArrayEEC2ISaIvEJlRS_INS0_6BufferEEEEESt20_Sp_alloc_shared_tagIT_EDpOT0_ = comdat any

$_ZNSt12__shared_ptrIN5arrow12BooleanArrayELN9__gnu_cxx12_Lock_policyE2EEC2ISaIvEJlRSt10shared_ptrINS0_6BufferEEEEESt20_Sp_alloc_shared_tagIT_EDpOT0_ = comdat any

$_ZNSt14__shared_countILN9__gnu_cxx12_Lock_policyE2EEC2IN5arrow12BooleanArrayESaIvEJlRSt10shared_ptrINS4_6BufferEEEEERPT_St20_Sp_alloc_shared_tagIT0_EDpOT1_ = comdat any

$_ZNSt23_Sp_counted_ptr_inplaceIN5arrow12BooleanArrayESaIvELN9__gnu_cxx12_Lock_policyE2EEC2IJlRSt10shared_ptrINS0_6BufferEEEEES2_DpOT_ = comdat any

$_ZNSt16allocator_traitsISaIvEE9constructIN5arrow12BooleanArrayEJlRSt10shared_ptrINS3_6BufferEEEEEvRS0_PT_DpOT0_ = comdat any

$_ZSt10_ConstructIN5arrow12BooleanArrayEJlRSt10shared_ptrINS0_6BufferEEEEvPT_DpOT0_ = comdat any

$_ZNKSt19__shared_ptr_accessIN5arrow12BooleanArrayELN9__gnu_cxx12_Lock_policyE2ELb0ELb0EE6_M_getEv = comdat any

$_ZNKSt12__shared_ptrIN5arrow12BooleanArrayELN9__gnu_cxx12_Lock_policyE2EE3getEv = comdat any

$_ZNSt12__shared_ptrIN5arrow6SchemaELN9__gnu_cxx12_Lock_policyE2EEC2ERKS4_ = comdat any

$_ZN5arrow6ResultINS_5DatumEE14ConstructValueISt10shared_ptrINS_11RecordBatchEEEEvOT_ = comdat any

$_ZN5arrow6ResultISt10shared_ptrINS_11RecordBatchEEE15MoveValueUnsafeEv = comdat any

$_ZN5arrow8internal14AlignedStorageINS_5DatumEE9constructIJSt10shared_ptrINS_11RecordBatchEEEEEvDpOT_ = comdat any

$_ZN5arrow8internal14AlignedStorageISt10shared_ptrINS_11RecordBatchEEE3getEv = comdat any

$_ZSt7launderISt10shared_ptrIN5arrow11RecordBatchEEEPT_S5_ = comdat any

$_ZN5arrow6ResultISt10shared_ptrINS_11RecordBatchEEE7DestroyEv = comdat any

$_ZN5arrow4util18EqualityComparableINS_6ResultISt10shared_ptrINS_11RecordBatchEEEEED2Ev = comdat any

$_ZN5arrow8internal14AlignedStorageISt10shared_ptrINS_11RecordBatchEEE7destroyEv = comdat any

$_ZNSt12__shared_ptrIN5arrow6SchemaELN9__gnu_cxx12_Lock_policyE2EED2Ev = comdat any

$_ZNSt12__shared_ptrIN5arrow11RecordBatchELN9__gnu_cxx12_Lock_policyE2EEC2ERKS4_ = comdat any

$_ZSt3getISt10shared_ptrIN5arrow11RecordBatchEEJNS1_5Datum5EmptyES0_INS1_6ScalarEES0_INS1_9ArrayDataEES0_INS1_12ChunkedArrayEES3_S0_INS1_5TableEEEERKT_RKSt7variantIJDpT0_EE = comdat any

$_ZSt3getILm4EJN5arrow5Datum5EmptyESt10shared_ptrINS0_6ScalarEES3_INS0_9ArrayDataEES3_INS0_12ChunkedArrayEES3_INS0_11RecordBatchEES3_INS0_5TableEEEERKNSt19variant_alternativeIXT_ESt7variantIJDpT0_EEE4typeERKSI_ = comdat any

$_ZNSt8__detail9__variant5__getILm4ERKSt7variantIJN5arrow5Datum5EmptyESt10shared_ptrINS3_6ScalarEES6_INS3_9ArrayDataEES6_INS3_12ChunkedArrayEES6_INS3_11RecordBatchEES6_INS3_5TableEEEEEEDcOT0_ = comdat any

$_ZNSt8__detail9__variant7__get_nILm4ERKNS0_15_Variadic_unionIJN5arrow5Datum5EmptyESt10shared_ptrINS3_6ScalarEES6_INS3_9ArrayDataEES6_INS3_12ChunkedArrayEES6_INS3_11RecordBatchEES6_INS3_5TableEEEEEEEDcOT0_ = comdat any

$_ZNSt8__detail9__variant7__get_nILm1ERKNS0_15_Variadic_unionIJSt10shared_ptrIN5arrow12ChunkedArrayEES3_INS4_11RecordBatchEES3_INS4_5TableEEEEEEEDcOT0_ = comdat any

$_ZNKRSt8__detail9__variant14_UninitializedISt10shared_ptrIN5arrow11RecordBatchEELb0EE6_M_getEv = comdat any

$_ZNK9__gnu_cxx16__aligned_membufISt10shared_ptrIN5arrow11RecordBatchEEE6_M_ptrEv = comdat any

$_ZNK9__gnu_cxx16__aligned_membufISt10shared_ptrIN5arrow11RecordBatchEEE7_M_addrEv = comdat any

$_ZNKSt19__shared_ptr_accessIN5arrow5TableELN9__gnu_cxx12_Lock_policyE2ELb0ELb0EEptEv = comdat any

$_ZNK5arrow5Table8num_rowsEv = comdat any

$_ZN5arrow6ResultINS_5DatumEEC2IRKSt10shared_ptrINS_5TableEEvEEOT_ = comdat any

$_ZNKSt6vectorISt10shared_ptrIN5arrow12ChunkedArrayEESaIS3_EE5beginEv = comdat any

$_ZNKSt6vectorISt10shared_ptrIN5arrow12ChunkedArrayEESaIS3_EE3endEv = comdat any

$_ZN9__gnu_cxxneIPKSt10shared_ptrIN5arrow12ChunkedArrayEESt6vectorIS4_SaIS4_EEEEbRKNS_17__normal_iteratorIT_T0_EESF_ = comdat any

$_ZNK9__gnu_cxx17__normal_iteratorIPKSt10shared_ptrIN5arrow12ChunkedArrayEESt6vectorIS4_SaIS4_EEEdeEv = comdat any

$_ZN9__gnu_cxx17__normal_iteratorIPKSt10shared_ptrIN5arrow12ChunkedArrayEESt6vectorIS4_SaIS4_EEEppEv = comdat any

$_ZNSt6vectorISt10shared_ptrIN5arrow11RecordBatchEESaIS3_EEC2Ev = comdat any

$_ZNKSt19__shared_ptr_accessIN5arrow5TableELN9__gnu_cxx12_Lock_policyE2ELb0ELb0EEdeEv = comdat any

$_ZN5arrow17RecordBatchReader4NextEv = comdat any

$_ZNK5arrow6ResultISt10shared_ptrINS_11RecordBatchEEE2okEv = comdat any

$_ZNK5arrow6ResultISt10shared_ptrINS_11RecordBatchEEE6statusEv = comdat any

$_ZNO5arrow6ResultISt10shared_ptrINS_11RecordBatchEEE11ValueUnsafeEv = comdat any

$_ZSteqIN5arrow11RecordBatchEEbRKSt10shared_ptrIT_EDn = comdat any

$_ZNSt6vectorISt10shared_ptrIN5arrow11RecordBatchEESaIS3_EE9push_backERKS3_ = comdat any

$_ZNK5arrow5Table6schemaEv = comdat any

$_ZN5arrow6ResultINS_5DatumEEC2ISt10shared_ptrINS_5TableEEvEEONS0_IT_EE = comdat any

$_ZN5arrow6ResultISt10shared_ptrINS_5TableEEED2Ev = comdat any

$_ZN5arrow16TableBatchReaderD2Ev = comdat any

$_ZNSt6vectorISt10shared_ptrIN5arrow11RecordBatchEESaIS3_EED2Ev = comdat any

$_ZNKSt19__shared_ptr_accessIN5arrow5TableELN9__gnu_cxx12_Lock_policyE2ELb0ELb0EE6_M_getEv = comdat any

$_ZNKSt12__shared_ptrIN5arrow5TableELN9__gnu_cxx12_Lock_policyE2EE3getEv = comdat any

$_ZN5arrow6ResultINS_5DatumEE14ConstructValueIRKSt10shared_ptrINS_5TableEEEEvOT_ = comdat any

$_ZN5arrow8internal14AlignedStorageINS_5DatumEE9constructIJRKSt10shared_ptrINS_5TableEEEEEvDpOT_ = comdat any

$_ZNSt10shared_ptrIN5arrow5TableEEC2ERKS2_ = comdat any

$_ZNSt12__shared_ptrIN5arrow5TableELN9__gnu_cxx12_Lock_policyE2EEC2ERKS4_ = comdat any

$_ZN9__gnu_cxx17__normal_iteratorIPKSt10shared_ptrIN5arrow12ChunkedArrayEESt6vectorIS4_SaIS4_EEEC2ERKS6_ = comdat any

$_ZNK9__gnu_cxx17__normal_iteratorIPKSt10shared_ptrIN5arrow12ChunkedArrayEESt6vectorIS4_SaIS4_EEE4baseEv = comdat any

$_ZNSt12_Vector_baseISt10shared_ptrIN5arrow11RecordBatchEESaIS3_EEC2Ev = comdat any

$_ZNSt12_Vector_baseISt10shared_ptrIN5arrow11RecordBatchEESaIS3_EE12_Vector_implC2Ev = comdat any

$_ZNSaISt10shared_ptrIN5arrow11RecordBatchEEEC2Ev = comdat any

$_ZNSt12_Vector_baseISt10shared_ptrIN5arrow11RecordBatchEESaIS3_EE17_Vector_impl_dataC2Ev = comdat any

$_ZNSt15__new_allocatorISt10shared_ptrIN5arrow11RecordBatchEEEC2Ev = comdat any

$_ZNSt10shared_ptrIN5arrow11RecordBatchEEC2Ev = comdat any

$_ZN5arrow6ResultISt10shared_ptrINS_11RecordBatchEEEC2ERKNS_6StatusE = comdat any

$_ZN5arrow6ResultISt10shared_ptrINS_11RecordBatchEEEC2EOS3_ = comdat any

$_ZNSt12__shared_ptrIN5arrow11RecordBatchELN9__gnu_cxx12_Lock_policyE2EEC2Ev = comdat any

$_ZN5arrow6ResultISt10shared_ptrINS_11RecordBatchEEE14ConstructValueIS3_EEvOT_ = comdat any

$_ZN5arrow8internal14AlignedStorageISt10shared_ptrINS_11RecordBatchEEE9constructIJS4_EEEvDpOT_ = comdat any

$_ZNKSt12__shared_ptrIN5arrow11RecordBatchELN9__gnu_cxx12_Lock_policyE2EEcvbEv = comdat any

$_ZNSt16allocator_traitsISaISt10shared_ptrIN5arrow11RecordBatchEEEE9constructIS3_JRKS3_EEEvRS4_PT_DpOT0_ = comdat any

$_ZNSt6vectorISt10shared_ptrIN5arrow11RecordBatchEESaIS3_EE17_M_realloc_insertIJRKS3_EEEvN9__gnu_cxx17__normal_iteratorIPS3_S5_EEDpOT_ = comdat any

$_ZNSt6vectorISt10shared_ptrIN5arrow11RecordBatchEESaIS3_EE3endEv = comdat any

$_ZNSt15__new_allocatorISt10shared_ptrIN5arrow11RecordBatchEEE9constructIS3_JRKS3_EEEvPT_DpOT0_ = comdat any

$_ZNKSt6vectorISt10shared_ptrIN5arrow11RecordBatchEESaIS3_EE12_M_check_lenEmPKc = comdat any

$_ZN9__gnu_cxxmiIPSt10shared_ptrIN5arrow11RecordBatchEESt6vectorIS4_SaIS4_EEEENS_17__normal_iteratorIT_T0_E15difference_typeERKSC_SF_ = comdat any

$_ZNSt6vectorISt10shared_ptrIN5arrow11RecordBatchEESaIS3_EE5beginEv = comdat any

$_ZNSt12_Vector_baseISt10shared_ptrIN5arrow11RecordBatchEESaIS3_EE11_M_allocateEm = comdat any

$_ZNSt6vectorISt10shared_ptrIN5arrow11RecordBatchEESaIS3_EE11_S_relocateEPS3_S6_S6_RS4_ = comdat any

$_ZNK9__gnu_cxx17__normal_iteratorIPSt10shared_ptrIN5arrow11RecordBatchEESt6vectorIS4_SaIS4_EEE4baseEv = comdat any

$_ZNSt12_Vector_baseISt10shared_ptrIN5arrow11RecordBatchEESaIS3_EE19_M_get_Tp_allocatorEv = comdat any

$_ZNSt12_Vector_baseISt10shared_ptrIN5arrow11RecordBatchEESaIS3_EE13_M_deallocateEPS3_m = comdat any

$_ZNKSt6vectorISt10shared_ptrIN5arrow11RecordBatchEESaIS3_EE8max_sizeEv = comdat any

$_ZNKSt6vectorISt10shared_ptrIN5arrow11RecordBatchEESaIS3_EE4sizeEv = comdat any

$_ZNSt6vectorISt10shared_ptrIN5arrow11RecordBatchEESaIS3_EE11_S_max_sizeERKS4_ = comdat any

$_ZNKSt12_Vector_baseISt10shared_ptrIN5arrow11RecordBatchEESaIS3_EE19_M_get_Tp_allocatorEv = comdat any

$_ZNSt16allocator_traitsISaISt10shared_ptrIN5arrow11RecordBatchEEEE8max_sizeERKS4_ = comdat any

$_ZNKSt15__new_allocatorISt10shared_ptrIN5arrow11RecordBatchEEE8max_sizeEv = comdat any

$_ZNKSt15__new_allocatorISt10shared_ptrIN5arrow11RecordBatchEEE11_M_max_sizeEv = comdat any

$_ZN9__gnu_cxx17__normal_iteratorIPSt10shared_ptrIN5arrow11RecordBatchEESt6vectorIS4_SaIS4_EEEC2ERKS5_ = comdat any

$_ZNSt16allocator_traitsISaISt10shared_ptrIN5arrow11RecordBatchEEEE8allocateERS4_m = comdat any

$_ZNSt15__new_allocatorISt10shared_ptrIN5arrow11RecordBatchEEE8allocateEmPKv = comdat any

$_ZSt12__relocate_aIPSt10shared_ptrIN5arrow11RecordBatchEES4_SaIS3_EET0_T_S7_S6_RT1_ = comdat any

$_ZSt14__relocate_a_1IPSt10shared_ptrIN5arrow11RecordBatchEES4_SaIS3_EET0_T_S7_S6_RT1_ = comdat any

$_ZSt12__niter_baseIPSt10shared_ptrIN5arrow11RecordBatchEEET_S5_ = comdat any

$_ZSt19__relocate_object_aISt10shared_ptrIN5arrow11RecordBatchEES3_SaIS3_EEvPT_PT0_RT1_ = comdat any

$_ZNSt16allocator_traitsISaISt10shared_ptrIN5arrow11RecordBatchEEEE9constructIS3_JS3_EEEvRS4_PT_DpOT0_ = comdat any

$_ZNSt16allocator_traitsISaISt10shared_ptrIN5arrow11RecordBatchEEEE7destroyIS3_EEvRS4_PT_ = comdat any

$_ZNSt15__new_allocatorISt10shared_ptrIN5arrow11RecordBatchEEE9constructIS3_JS3_EEEvPT_DpOT0_ = comdat any

$_ZNSt15__new_allocatorISt10shared_ptrIN5arrow11RecordBatchEEE7destroyIS3_EEvPT_ = comdat any

$_ZNSt16allocator_traitsISaISt10shared_ptrIN5arrow11RecordBatchEEEE10deallocateERS4_PS3_m = comdat any

$_ZNSt15__new_allocatorISt10shared_ptrIN5arrow11RecordBatchEEE10deallocateEPS3_m = comdat any

$_ZN5arrow6ResultINS_5DatumEE14ConstructValueISt10shared_ptrINS_5TableEEEEvOT_ = comdat any

$_ZN5arrow6ResultISt10shared_ptrINS_5TableEEE15MoveValueUnsafeEv = comdat any

$_ZN5arrow8internal14AlignedStorageINS_5DatumEE9constructIJSt10shared_ptrINS_5TableEEEEEvDpOT_ = comdat any

$_ZN5arrow8internal14AlignedStorageISt10shared_ptrINS_5TableEEE3getEv = comdat any

$_ZSt7launderISt10shared_ptrIN5arrow5TableEEEPT_S5_ = comdat any

$_ZN5arrow6ResultISt10shared_ptrINS_5TableEEE7DestroyEv = comdat any

$_ZN5arrow4util18EqualityComparableINS_6ResultISt10shared_ptrINS_5TableEEEEED2Ev = comdat any

$_ZN5arrow8internal14AlignedStorageISt10shared_ptrINS_5TableEEE7destroyEv = comdat any

$_ZNSt6vectorIiSaIiEED2Ev = comdat any

$_ZNSt6vectorIPN5arrow12ChunkedArrayESaIS2_EED2Ev = comdat any

$_ZSt8_DestroyIPiiEvT_S1_RSaIT0_E = comdat any

$_ZNSt12_Vector_baseIiSaIiEE19_M_get_Tp_allocatorEv = comdat any

$_ZNSt12_Vector_baseIiSaIiEED2Ev = comdat any

$_ZSt8_DestroyIPiEvT_S1_ = comdat any

$_ZNSt12_Destroy_auxILb1EE9__destroyIPiEEvT_S3_ = comdat any

$_ZNSt12_Vector_baseIiSaIiEE13_M_deallocateEPim = comdat any

$_ZNSt12_Vector_baseIiSaIiEE12_Vector_implD2Ev = comdat any

$_ZNSt16allocator_traitsISaIiEE10deallocateERS0_Pim = comdat any

$_ZNSt15__new_allocatorIiE10deallocateEPim = comdat any

$_ZNSaIiED2Ev = comdat any

$_ZNSt15__new_allocatorIiED2Ev = comdat any

$_ZSt8_DestroyIPPN5arrow12ChunkedArrayES2_EvT_S4_RSaIT0_E = comdat any

$_ZNSt12_Vector_baseIPN5arrow12ChunkedArrayESaIS2_EE19_M_get_Tp_allocatorEv = comdat any

$_ZNSt12_Vector_baseIPN5arrow12ChunkedArrayESaIS2_EED2Ev = comdat any

$_ZSt8_DestroyIPPN5arrow12ChunkedArrayEEvT_S4_ = comdat any

$_ZNSt12_Destroy_auxILb1EE9__destroyIPPN5arrow12ChunkedArrayEEEvT_S6_ = comdat any

$_ZNSt12_Vector_baseIPN5arrow12ChunkedArrayESaIS2_EE13_M_deallocateEPS2_m = comdat any

$_ZNSt12_Vector_baseIPN5arrow12ChunkedArrayESaIS2_EE12_Vector_implD2Ev = comdat any

$_ZNSt16allocator_traitsISaIPN5arrow12ChunkedArrayEEE10deallocateERS3_PS2_m = comdat any

$_ZNSt15__new_allocatorIPN5arrow12ChunkedArrayEE10deallocateEPS2_m = comdat any

$_ZNSaIPN5arrow12ChunkedArrayEED2Ev = comdat any

$_ZNSt15__new_allocatorIPN5arrow12ChunkedArrayEED2Ev = comdat any

$_ZSt8_DestroyIPSt10shared_ptrIN5arrow11RecordBatchEES3_EvT_S5_RSaIT0_E = comdat any

$_ZNSt12_Vector_baseISt10shared_ptrIN5arrow11RecordBatchEESaIS3_EED2Ev = comdat any

$_ZSt8_DestroyIPSt10shared_ptrIN5arrow11RecordBatchEEEvT_S5_ = comdat any

$_ZNSt12_Destroy_auxILb0EE9__destroyIPSt10shared_ptrIN5arrow11RecordBatchEEEEvT_S7_ = comdat any

$_ZNSt12_Vector_baseISt10shared_ptrIN5arrow11RecordBatchEESaIS3_EE12_Vector_implD2Ev = comdat any

$_ZNSaISt10shared_ptrIN5arrow11RecordBatchEEED2Ev = comdat any

$_ZNSt15__new_allocatorISt10shared_ptrIN5arrow11RecordBatchEEED2Ev = comdat any

$_ZSt3getISt10shared_ptrIN5arrow5TableEEJNS1_5Datum5EmptyES0_INS1_6ScalarEES0_INS1_9ArrayDataEES0_INS1_12ChunkedArrayEES0_INS1_11RecordBatchEES3_EERKT_RKSt7variantIJDpT0_EE = comdat any

$_ZSt3getILm5EJN5arrow5Datum5EmptyESt10shared_ptrINS0_6ScalarEES3_INS0_9ArrayDataEES3_INS0_12ChunkedArrayEES3_INS0_11RecordBatchEES3_INS0_5TableEEEERKNSt19variant_alternativeIXT_ESt7variantIJDpT0_EEE4typeERKSI_ = comdat any

$_ZNSt8__detail9__variant5__getILm5ERKSt7variantIJN5arrow5Datum5EmptyESt10shared_ptrINS3_6ScalarEES6_INS3_9ArrayDataEES6_INS3_12ChunkedArrayEES6_INS3_11RecordBatchEES6_INS3_5TableEEEEEEDcOT0_ = comdat any

$_ZNSt8__detail9__variant7__get_nILm5ERKNS0_15_Variadic_unionIJN5arrow5Datum5EmptyESt10shared_ptrINS3_6ScalarEES6_INS3_9ArrayDataEES6_INS3_12ChunkedArrayEES6_INS3_11RecordBatchEES6_INS3_5TableEEEEEEEDcOT0_ = comdat any

$_ZNSt8__detail9__variant7__get_nILm2ERKNS0_15_Variadic_unionIJSt10shared_ptrIN5arrow12ChunkedArrayEES3_INS4_11RecordBatchEES3_INS4_5TableEEEEEEEDcOT0_ = comdat any

$_ZNKRSt8__detail9__variant14_UninitializedISt10shared_ptrIN5arrow5TableEELb0EE6_M_getEv = comdat any

$_ZNK9__gnu_cxx16__aligned_membufISt10shared_ptrIN5arrow5TableEEE6_M_ptrEv = comdat any

$_ZNK9__gnu_cxx16__aligned_membufISt10shared_ptrIN5arrow5TableEEE7_M_addrEv = comdat any

$_ZN5arrow6Status8FromArgsIJRA51_KcNSt7__cxx1112basic_stringIcSt11char_traitsIcESaIcEEEEEES0_NS_10StatusCodeEDpOT_ = comdat any

$_ZN5arrow4util13StringBuilderIJRA51_KcNSt7__cxx1112basic_stringIcSt11char_traitsIcESaIcEEEEEESA_DpOT_ = comdat any

$_ZN5arrow4util22StringBuilderRecursiveIRA51_KcJNSt7__cxx1112basic_stringIcSt11char_traitsIcESaIcEEEEEEvRSoOT_DpOT0_ = comdat any

$_ZN5arrow4util22StringBuilderRecursiveIRA51_KcEEvRSoOT_ = comdat any

$_ZNSt12__shared_ptrIN5arrow7compute8FunctionELN9__gnu_cxx12_Lock_policyE2EEC2INS1_14VectorFunctionEvEEOS_IT_LS4_2EE = comdat any

$_ZTVSt23_Sp_counted_ptr_inplaceIN5arrow7compute14VectorFunctionESaIvELN9__gnu_cxx12_Lock_policyE2EE = comdat any

$_ZTSSt23_Sp_counted_ptr_inplaceIN5arrow7compute14VectorFunctionESaIvELN9__gnu_cxx12_Lock_policyE2EE = comdat any

$_ZTSSt16_Sp_counted_baseILN9__gnu_cxx12_Lock_policyE2EE = comdat any

$_ZTSSt11_Mutex_baseILN9__gnu_cxx12_Lock_policyE2EE = comdat any

$_ZTISt11_Mutex_baseILN9__gnu_cxx12_Lock_policyE2EE = comdat any

$_ZTISt16_Sp_counted_baseILN9__gnu_cxx12_Lock_policyE2EE = comdat any

$_ZTISt23_Sp_counted_ptr_inplaceIN5arrow7compute14VectorFunctionESaIvELN9__gnu_cxx12_Lock_policyE2EE = comdat any

$_ZTVSt16_Sp_counted_baseILN9__gnu_cxx12_Lock_policyE2EE = comdat any

$_ZTVN5arrow7compute14VectorFunctionE = comdat any

$_ZTSN5arrow7compute14VectorFunctionE = comdat any

$_ZTSN5arrow7compute6detail12FunctionImplINS0_12VectorKernelEEE = comdat any

$_ZTIN5arrow7compute6detail12FunctionImplINS0_12VectorKernelEEE = comdat any

$_ZTIN5arrow7compute14VectorFunctionE = comdat any

$_ZTVN5arrow7compute6detail12FunctionImplINS0_12VectorKernelEEE = comdat any

$_ZTSSt19_Sp_make_shared_tag = comdat any

$_ZTISt19_Sp_make_shared_tag = comdat any

$_ZZNSt19_Sp_make_shared_tag5_S_tiEvE5__tag = comdat any

$_ZTVN5arrow14NumericBuilderINS_10UInt64TypeEEE = comdat any

$_ZTSN5arrow14NumericBuilderINS_10UInt64TypeEEE = comdat any

$_ZTSN5arrow8internal20ArrayBuilderExtraOpsINS_14NumericBuilderINS_10UInt64TypeEEEmEE = comdat any

$_ZTIN5arrow8internal20ArrayBuilderExtraOpsINS_14NumericBuilderINS_10UInt64TypeEEEmEE = comdat any

$_ZTIN5arrow14NumericBuilderINS_10UInt64TypeEEE = comdat any

$_ZTVSt19_Sp_counted_deleterIPN5arrow15ResizableBufferESt14default_deleteIS1_ESaIvELN9__gnu_cxx12_Lock_policyE2EE = comdat any

$_ZTSSt19_Sp_counted_deleterIPN5arrow15ResizableBufferESt14default_deleteIS1_ESaIvELN9__gnu_cxx12_Lock_policyE2EE = comdat any

$_ZTISt19_Sp_counted_deleterIPN5arrow15ResizableBufferESt14default_deleteIS1_ESaIvELN9__gnu_cxx12_Lock_policyE2EE = comdat any

$_ZTSSt14default_deleteIN5arrow15ResizableBufferEE = comdat any

$_ZTISt14default_deleteIN5arrow15ResizableBufferEE = comdat any

$_ZZN5arrow8internal23OptionalBitBlockCounter9NextBlockEvE13kMaxBlockSize = comdat any

$_ZTVSt19_Sp_counted_deleterIPN5arrow6BufferESt14default_deleteIS1_ESaIvELN9__gnu_cxx12_Lock_policyE2EE = comdat any

$_ZTSSt19_Sp_counted_deleterIPN5arrow6BufferESt14default_deleteIS1_ESaIvELN9__gnu_cxx12_Lock_policyE2EE = comdat any

$_ZTISt19_Sp_counted_deleterIPN5arrow6BufferESt14default_deleteIS1_ESaIvELN9__gnu_cxx12_Lock_policyE2EE = comdat any

$_ZTSSt14default_deleteIN5arrow6BufferEE = comdat any

$_ZTISt14default_deleteIN5arrow6BufferEE = comdat any

$_ZTSSt18bad_variant_access = comdat any

$_ZTISt18bad_variant_access = comdat any

$_ZTVSt18bad_variant_access = comdat any

$_ZTVN5arrow7compute13FilterOptionsE = comdat any

$_ZTSN5arrow7compute13FilterOptionsE = comdat any

$_ZTSN5arrow7compute15FunctionOptionsE = comdat any

$_ZTSN5arrow4util18EqualityComparableINS_7compute15FunctionOptionsEEE = comdat any

$_ZTIN5arrow4util18EqualityComparableINS_7compute15FunctionOptionsEEE = comdat any

$_ZTIN5arrow7compute15FunctionOptionsE = comdat any

$_ZTIN5arrow7compute13FilterOptionsE = comdat any

$_ZTVN5arrow7compute15FunctionOptionsE = comdat any

$_ZTVN5arrow7compute8internal14OptionsWrapperINS0_13FilterOptionsEEE = comdat any

$_ZTSN5arrow7compute8internal14OptionsWrapperINS0_13FilterOptionsEEE = comdat any

$_ZTSN5arrow7compute11KernelStateE = comdat any

$_ZTIN5arrow7compute11KernelStateE = comdat any

$_ZTIN5arrow7compute8internal14OptionsWrapperINS0_13FilterOptionsEEE = comdat any

$_ZTVN5arrow7compute11KernelStateE = comdat any

$_ZTSPFN5arrow6ResultISt10unique_ptrINS_7compute11KernelStateESt14default_deleteIS3_EEEEPNS2_13KernelContextERKNS2_14KernelInitArgsEE = comdat any

$_ZTSFN5arrow6ResultISt10unique_ptrINS_7compute11KernelStateESt14default_deleteIS3_EEEEPNS2_13KernelContextERKNS2_14KernelInitArgsEE = comdat any

$_ZTIFN5arrow6ResultISt10unique_ptrINS_7compute11KernelStateESt14default_deleteIS3_EEEEPNS2_13KernelContextERKNS2_14KernelInitArgsEE = comdat any

$_ZTIPFN5arrow6ResultISt10unique_ptrINS_7compute11KernelStateESt14default_deleteIS3_EEEEPNS2_13KernelContextERKNS2_14KernelInitArgsEE = comdat any

$_ZTVSt19_Sp_counted_deleterIPN5arrow7compute8FunctionESt14default_deleteIS2_ESaIvELN9__gnu_cxx12_Lock_policyE2EE = comdat any

$_ZTSSt19_Sp_counted_deleterIPN5arrow7compute8FunctionESt14default_deleteIS2_ESaIvELN9__gnu_cxx12_Lock_policyE2EE = comdat any

$_ZTISt19_Sp_counted_deleterIPN5arrow7compute8FunctionESt14default_deleteIS2_ESaIvELN9__gnu_cxx12_Lock_policyE2EE = comdat any

$_ZTSSt14default_deleteIN5arrow7compute8FunctionEE = comdat any

$_ZTISt14default_deleteIN5arrow7compute8FunctionEE = comdat any

$_ZTVN5arrow7compute11TakeOptionsE = comdat any

$_ZTSN5arrow7compute11TakeOptionsE = comdat any

$_ZTIN5arrow7compute11TakeOptionsE = comdat any

$_ZTVN5arrow7compute8internal14OptionsWrapperINS0_11TakeOptionsEEE = comdat any

$_ZTSN5arrow7compute8internal14OptionsWrapperINS0_11TakeOptionsEEE = comdat any

$_ZTIN5arrow7compute8internal14OptionsWrapperINS0_11TakeOptionsEEE = comdat any

$_ZTVSt23_Sp_counted_ptr_inplaceIN5arrow9NullArrayESaIvELN9__gnu_cxx12_Lock_policyE2EE = comdat any

$_ZTSSt23_Sp_counted_ptr_inplaceIN5arrow9NullArrayESaIvELN9__gnu_cxx12_Lock_policyE2EE = comdat any

$_ZTISt23_Sp_counted_ptr_inplaceIN5arrow9NullArrayESaIvELN9__gnu_cxx12_Lock_policyE2EE = comdat any

$_ZTVSt23_Sp_counted_ptr_inplaceIN5arrow12BooleanArrayESaIvELN9__gnu_cxx12_Lock_policyE2EE = comdat any

$_ZTSSt23_Sp_counted_ptr_inplaceIN5arrow12BooleanArrayESaIvELN9__gnu_cxx12_Lock_policyE2EE = comdat any

$_ZTISt23_Sp_counted_ptr_inplaceIN5arrow12BooleanArrayESaIvELN9__gnu_cxx12_Lock_policyE2EE = comdat any

$_ZSt14in_place_indexILm0EE = comdat any

$_ZSt14in_place_indexILm1EE = comdat any

$_ZSt14in_place_indexILm2EE = comdat any

$_ZSt14in_place_indexILm3EE = comdat any

$_ZSt14in_place_indexILm4EE = comdat any

$_ZSt14in_place_indexILm5EE = comdat any

$_ZTVSt23_Sp_counted_ptr_inplaceIN5arrow12ChunkedArrayESaIvELN9__gnu_cxx12_Lock_policyE2EE = comdat any

$_ZTSSt23_Sp_counted_ptr_inplaceIN5arrow12ChunkedArrayESaIvELN9__gnu_cxx12_Lock_policyE2EE = comdat any

$_ZTISt23_Sp_counted_ptr_inplaceIN5arrow12ChunkedArrayESaIvELN9__gnu_cxx12_Lock_policyE2EE = comdat any

@_ZN5arrow7compute8internal12_GLOBAL__N_113drop_null_docE = internal global %"struct.arrow::compute::FunctionDoc" zeroinitializer, align 8
@.str = private unnamed_addr constant [26 x i8] c"Drop nulls from the input\00", align 1
@.str.1 = private unnamed_addr constant [211 x i8] c"The output is populated with values from the input (Array, ChunkedArray,\0ARecordBatch, or Table) without the null values.\0AFor the RecordBatch and Table cases, `drop_null` drops the full row if\0Athere is any null.\00", align 1
@.str.2 = private unnamed_addr constant [6 x i8] c"input\00", align 1
@.str.3 = private unnamed_addr constant [1 x i8] zeroinitializer, align 1
@__dso_handle = external hidden global i8
@_ZN5arrow7compute8internal12_GLOBAL__N_116array_filter_docE = internal global %"struct.arrow::compute::FunctionDoc" zeroinitializer, align 8
@.str.5 = private unnamed_addr constant [39 x i8] c"Filter with a boolean selection filter\00", align 1
@.str.6 = private unnamed_addr constant [179 x i8] c"The output is populated with values from the input `array` at positions\0Awhere the selection filter is non-zero.  Nulls in the selection filter\0Aare handled based on FilterOptions.\00", align 1
@.str.7 = private unnamed_addr constant [6 x i8] c"array\00", align 1
@.str.8 = private unnamed_addr constant [17 x i8] c"selection_filter\00", align 1
@.str.9 = private unnamed_addr constant [14 x i8] c"FilterOptions\00", align 1
@_ZN5arrow7compute8internal12_GLOBAL__N_114array_take_docE = internal global %"struct.arrow::compute::FunctionDoc" zeroinitializer, align 8
@.str.11 = private unnamed_addr constant [64 x i8] c"Select values from an array based on indices from another array\00", align 1
@.str.12 = private unnamed_addr constant [135 x i8] c"The output is populated with values from the input array at positions\0Agiven by `indices`.  Nulls in `indices` emit null in the output.\00", align 1
@.str.13 = private unnamed_addr constant [8 x i8] c"indices\00", align 1
@.str.14 = private unnamed_addr constant [12 x i8] c"TakeOptions\00", align 1
@_ZN5arrow7compute8internal12_GLOBAL__N_119indices_nonzero_docE = internal global %"struct.arrow::compute::FunctionDoc" zeroinitializer, align 8
@.str.16 = private unnamed_addr constant [64 x i8] c"Return the indices of the values in the array that are non-zero\00", align 1
@.str.17 = private unnamed_addr constant [125 x i8] c"For each input value, check if it's zero, false or null. Emit the index\0Aof the value in the array if it's none of the those.\00", align 1
@.str.18 = private unnamed_addr constant [7 x i8] c"values\00", align 1
@.str.19 = private unnamed_addr constant [13 x i8] c"array_filter\00", align 1
@.str.20 = private unnamed_addr constant [11 x i8] c"array_take\00", align 1
@.str.21 = private unnamed_addr constant [16 x i8] c"indices_nonzero\00", align 1
@__libc_single_threaded = external global i8, align 1
@_ZTVSt23_Sp_counted_ptr_inplaceIN5arrow7compute14VectorFunctionESaIvELN9__gnu_cxx12_Lock_policyE2EE = linkonce_odr unnamed_addr constant { [7 x ptr] } { [7 x ptr] [ptr null, ptr @_ZTISt23_Sp_counted_ptr_inplaceIN5arrow7compute14VectorFunctionESaIvELN9__gnu_cxx12_Lock_policyE2EE, ptr @_ZNSt23_Sp_counted_ptr_inplaceIN5arrow7compute14VectorFunctionESaIvELN9__gnu_cxx12_Lock_policyE2EED2Ev, ptr @_ZNSt23_Sp_counted_ptr_inplaceIN5arrow7compute14VectorFunctionESaIvELN9__gnu_cxx12_Lock_policyE2EED0Ev, ptr @_ZNSt23_Sp_counted_ptr_inplaceIN5arrow7compute14VectorFunctionESaIvELN9__gnu_cxx12_Lock_policyE2EE10_M_disposeEv, ptr @_ZNSt23_Sp_counted_ptr_inplaceIN5arrow7compute14VectorFunctionESaIvELN9__gnu_cxx12_Lock_policyE2EE10_M_destroyEv, ptr @_ZNSt23_Sp_counted_ptr_inplaceIN5arrow7compute14VectorFunctionESaIvELN9__gnu_cxx12_Lock_policyE2EE14_M_get_deleterERKSt9type_info] }, comdat, align 8
@_ZTVN10__cxxabiv120__si_class_type_infoE = external global [0 x ptr]
@_ZTSSt23_Sp_counted_ptr_inplaceIN5arrow7compute14VectorFunctionESaIvELN9__gnu_cxx12_Lock_policyE2EE = linkonce_odr constant [96 x i8] c"St23_Sp_counted_ptr_inplaceIN5arrow7compute14VectorFunctionESaIvELN9__gnu_cxx12_Lock_policyE2EE\00", comdat, align 1
@_ZTSSt16_Sp_counted_baseILN9__gnu_cxx12_Lock_policyE2EE = linkonce_odr constant [52 x i8] c"St16_Sp_counted_baseILN9__gnu_cxx12_Lock_policyE2EE\00", comdat, align 1
@_ZTVN10__cxxabiv117__class_type_infoE = external global [0 x ptr]
@_ZTSSt11_Mutex_baseILN9__gnu_cxx12_Lock_policyE2EE = linkonce_odr constant [47 x i8] c"St11_Mutex_baseILN9__gnu_cxx12_Lock_policyE2EE\00", comdat, align 1
@_ZTISt11_Mutex_baseILN9__gnu_cxx12_Lock_policyE2EE = linkonce_odr constant { ptr, ptr } { ptr getelementptr inbounds (ptr, ptr @_ZTVN10__cxxabiv117__class_type_infoE, i64 2), ptr @_ZTSSt11_Mutex_baseILN9__gnu_cxx12_Lock_policyE2EE }, comdat, align 8
@_ZTISt16_Sp_counted_baseILN9__gnu_cxx12_Lock_policyE2EE = linkonce_odr constant { ptr, ptr, ptr } { ptr getelementptr inbounds (ptr, ptr @_ZTVN10__cxxabiv120__si_class_type_infoE, i64 2), ptr @_ZTSSt16_Sp_counted_baseILN9__gnu_cxx12_Lock_policyE2EE, ptr @_ZTISt11_Mutex_baseILN9__gnu_cxx12_Lock_policyE2EE }, comdat, align 8
@_ZTISt23_Sp_counted_ptr_inplaceIN5arrow7compute14VectorFunctionESaIvELN9__gnu_cxx12_Lock_policyE2EE = linkonce_odr constant { ptr, ptr, ptr } { ptr getelementptr inbounds (ptr, ptr @_ZTVN10__cxxabiv120__si_class_type_infoE, i64 2), ptr @_ZTSSt23_Sp_counted_ptr_inplaceIN5arrow7compute14VectorFunctionESaIvELN9__gnu_cxx12_Lock_policyE2EE, ptr @_ZTISt16_Sp_counted_baseILN9__gnu_cxx12_Lock_policyE2EE }, comdat, align 8
@_ZTVSt16_Sp_counted_baseILN9__gnu_cxx12_Lock_policyE2EE = linkonce_odr unnamed_addr constant { [7 x ptr] } { [7 x ptr] [ptr null, ptr @_ZTISt16_Sp_counted_baseILN9__gnu_cxx12_Lock_policyE2EE, ptr @_ZNSt16_Sp_counted_baseILN9__gnu_cxx12_Lock_policyE2EED2Ev, ptr @_ZNSt16_Sp_counted_baseILN9__gnu_cxx12_Lock_policyE2EED0Ev, ptr @__cxa_pure_virtual, ptr @_ZNSt16_Sp_counted_baseILN9__gnu_cxx12_Lock_policyE2EE10_M_destroyEv, ptr @__cxa_pure_virtual] }, comdat, align 8
@_ZTVN5arrow7compute14VectorFunctionE = linkonce_odr unnamed_addr constant { [11 x ptr] } { [11 x ptr] [ptr null, ptr @_ZTIN5arrow7compute14VectorFunctionE, ptr @_ZN5arrow7compute14VectorFunctionD2Ev, ptr @_ZN5arrow7compute14VectorFunctionD0Ev, ptr @_ZNK5arrow7compute6detail12FunctionImplINS0_12VectorKernelEE11num_kernelsEv, ptr @_ZNK5arrow7compute8Function13DispatchExactERKSt6vectorINS_10TypeHolderESaIS3_EE, ptr @_ZNK5arrow7compute8Function12DispatchBestEPSt6vectorINS_10TypeHolderESaIS3_EE, ptr @_ZNK5arrow7compute8Function15GetBestExecutorESt6vectorINS_10TypeHolderESaIS3_EE, ptr @_ZNK5arrow7compute8Function7ExecuteERKSt6vectorINS_5DatumESaIS3_EEPKNS0_15FunctionOptionsEPNS0_11ExecContextE, ptr @_ZNK5arrow7compute8Function7ExecuteERKNS0_9ExecBatchEPKNS0_15FunctionOptionsEPNS0_11ExecContextE, ptr @_ZNK5arrow7compute8Function8ValidateEv] }, comdat, align 8
@_ZTSN5arrow7compute14VectorFunctionE = linkonce_odr constant [33 x i8] c"N5arrow7compute14VectorFunctionE\00", comdat, align 1
@_ZTSN5arrow7compute6detail12FunctionImplINS0_12VectorKernelEEE = linkonce_odr constant [59 x i8] c"N5arrow7compute6detail12FunctionImplINS0_12VectorKernelEEE\00", comdat, align 1
@_ZTIN5arrow7compute8FunctionE = external constant ptr
@_ZTIN5arrow7compute6detail12FunctionImplINS0_12VectorKernelEEE = linkonce_odr constant { ptr, ptr, ptr } { ptr getelementptr inbounds (ptr, ptr @_ZTVN10__cxxabiv120__si_class_type_infoE, i64 2), ptr @_ZTSN5arrow7compute6detail12FunctionImplINS0_12VectorKernelEEE, ptr @_ZTIN5arrow7compute8FunctionE }, comdat, align 8
@_ZTIN5arrow7compute14VectorFunctionE = linkonce_odr constant { ptr, ptr, ptr } { ptr getelementptr inbounds (ptr, ptr @_ZTVN10__cxxabiv120__si_class_type_infoE, i64 2), ptr @_ZTSN5arrow7compute14VectorFunctionE, ptr @_ZTIN5arrow7compute6detail12FunctionImplINS0_12VectorKernelEEE }, comdat, align 8
@_ZTVN5arrow7compute6detail12FunctionImplINS0_12VectorKernelEEE = linkonce_odr unnamed_addr constant { [11 x ptr] } { [11 x ptr] [ptr null, ptr @_ZTIN5arrow7compute6detail12FunctionImplINS0_12VectorKernelEEE, ptr @_ZN5arrow7compute6detail12FunctionImplINS0_12VectorKernelEED2Ev, ptr @_ZN5arrow7compute6detail12FunctionImplINS0_12VectorKernelEED0Ev, ptr @_ZNK5arrow7compute6detail12FunctionImplINS0_12VectorKernelEE11num_kernelsEv, ptr @_ZNK5arrow7compute8Function13DispatchExactERKSt6vectorINS_10TypeHolderESaIS3_EE, ptr @_ZNK5arrow7compute8Function12DispatchBestEPSt6vectorINS_10TypeHolderESaIS3_EE, ptr @_ZNK5arrow7compute8Function15GetBestExecutorESt6vectorINS_10TypeHolderESaIS3_EE, ptr @_ZNK5arrow7compute8Function7ExecuteERKSt6vectorINS_5DatumESaIS3_EEPKNS0_15FunctionOptionsEPNS0_11ExecContextE, ptr @_ZNK5arrow7compute8Function7ExecuteERKNS0_9ExecBatchEPKNS0_15FunctionOptionsEPNS0_11ExecContextE, ptr @_ZNK5arrow7compute8Function8ValidateEv] }, comdat, align 8
@_ZTVN5arrow7compute8FunctionE = external unnamed_addr constant { [11 x ptr] }, align 8
@_ZTSSt19_Sp_make_shared_tag = linkonce_odr constant [24 x i8] c"St19_Sp_make_shared_tag\00", comdat, align 1
@_ZTISt19_Sp_make_shared_tag = linkonce_odr constant { ptr, ptr } { ptr getelementptr inbounds (ptr, ptr @_ZTVN10__cxxabiv117__class_type_infoE, i64 2), ptr @_ZTSSt19_Sp_make_shared_tag }, comdat, align 8
@_ZZNSt19_Sp_make_shared_tag5_S_tiEvE5__tag = linkonce_odr constant [16 x i8] zeroinitializer, comdat, align 8
@_ZTVN5arrow14NumericBuilderINS_10UInt64TypeEEE = linkonce_odr unnamed_addr constant { [16 x ptr] } { [16 x ptr] [ptr null, ptr @_ZTIN5arrow14NumericBuilderINS_10UInt64TypeEEE, ptr @_ZN5arrow14NumericBuilderINS_10UInt64TypeEED2Ev, ptr @_ZN5arrow14NumericBuilderINS_10UInt64TypeEED0Ev, ptr @_ZNK5arrow12ArrayBuilder6lengthEv, ptr @_ZN5arrow14NumericBuilderINS_10UInt64TypeEE6ResizeEl, ptr @_ZN5arrow14NumericBuilderINS_10UInt64TypeEE5ResetEv, ptr @_ZN5arrow14NumericBuilderINS_10UInt64TypeEE10AppendNullEv, ptr @_ZN5arrow14NumericBuilderINS_10UInt64TypeEE11AppendNullsEl, ptr @_ZN5arrow14NumericBuilderINS_10UInt64TypeEE16AppendEmptyValueEv, ptr @_ZN5arrow14NumericBuilderINS_10UInt64TypeEE17AppendEmptyValuesEl, ptr @_ZN5arrow12ArrayBuilder12AppendScalarERKNS_6ScalarEl, ptr @_ZN5arrow12ArrayBuilder13AppendScalarsERKSt6vectorISt10shared_ptrINS_6ScalarEESaIS4_EE, ptr @_ZN5arrow14NumericBuilderINS_10UInt64TypeEE16AppendArraySliceERKNS_9ArraySpanEll, ptr @_ZN5arrow14NumericBuilderINS_10UInt64TypeEE14FinishInternalEPSt10shared_ptrINS_9ArrayDataEE, ptr @_ZNK5arrow14NumericBuilderINS_10UInt64TypeEE4typeEv] }, comdat, align 8
@_ZTVN10__cxxabiv121__vmi_class_type_infoE = external global [0 x ptr]
@_ZTSN5arrow14NumericBuilderINS_10UInt64TypeEEE = linkonce_odr constant [43 x i8] c"N5arrow14NumericBuilderINS_10UInt64TypeEEE\00", comdat, align 1
@_ZTIN5arrow12ArrayBuilderE = external constant ptr
@_ZTSN5arrow8internal20ArrayBuilderExtraOpsINS_14NumericBuilderINS_10UInt64TypeEEEmEE = linkonce_odr constant [81 x i8] c"N5arrow8internal20ArrayBuilderExtraOpsINS_14NumericBuilderINS_10UInt64TypeEEEmEE\00", comdat, align 1
@_ZTIN5arrow8internal20ArrayBuilderExtraOpsINS_14NumericBuilderINS_10UInt64TypeEEEmEE = linkonce_odr constant { ptr, ptr } { ptr getelementptr inbounds (ptr, ptr @_ZTVN10__cxxabiv117__class_type_infoE, i64 2), ptr @_ZTSN5arrow8internal20ArrayBuilderExtraOpsINS_14NumericBuilderINS_10UInt64TypeEEEmEE }, comdat, align 8
@_ZTIN5arrow14NumericBuilderINS_10UInt64TypeEEE = linkonce_odr constant { ptr, ptr, i32, i32, ptr, i64, ptr, i64 } { ptr getelementptr inbounds (ptr, ptr @_ZTVN10__cxxabiv121__vmi_class_type_infoE, i64 2), ptr @_ZTSN5arrow14NumericBuilderINS_10UInt64TypeEEE, i32 0, i32 2, ptr @_ZTIN5arrow12ArrayBuilderE, i64 2, ptr @_ZTIN5arrow8internal20ArrayBuilderExtraOpsINS_14NumericBuilderINS_10UInt64TypeEEEmEE, i64 2 }, comdat, align 8
@_ZTVN5arrow12ArrayBuilderE = external unnamed_addr constant { [16 x ptr] }, align 8
@_ZN5arrow4util8internalL14kNonNullFillerE = internal constant i8 0, align 1
@_ZN5arrowL19kMinBuilderCapacityE = internal constant i64 32, align 8
@.str.22 = private unnamed_addr constant [46 x i8] c"Resize capacity must be positive (requested: \00", align 1
@.str.23 = private unnamed_addr constant [2 x i8] c")\00", align 1
@.str.24 = private unnamed_addr constant [36 x i8] c"Resize cannot downsize (requested: \00", align 1
@.str.25 = private unnamed_addr constant [19 x i8] c", current length: \00", align 1
@_ZTVSt19_Sp_counted_deleterIPN5arrow15ResizableBufferESt14default_deleteIS1_ESaIvELN9__gnu_cxx12_Lock_policyE2EE = linkonce_odr unnamed_addr constant { [7 x ptr] } { [7 x ptr] [ptr null, ptr @_ZTISt19_Sp_counted_deleterIPN5arrow15ResizableBufferESt14default_deleteIS1_ESaIvELN9__gnu_cxx12_Lock_policyE2EE, ptr @_ZNSt19_Sp_counted_deleterIPN5arrow15ResizableBufferESt14default_deleteIS1_ESaIvELN9__gnu_cxx12_Lock_policyE2EED2Ev, ptr @_ZNSt19_Sp_counted_deleterIPN5arrow15ResizableBufferESt14default_deleteIS1_ESaIvELN9__gnu_cxx12_Lock_policyE2EED0Ev, ptr @_ZNSt19_Sp_counted_deleterIPN5arrow15ResizableBufferESt14default_deleteIS1_ESaIvELN9__gnu_cxx12_Lock_policyE2EE10_M_disposeEv, ptr @_ZNSt19_Sp_counted_deleterIPN5arrow15ResizableBufferESt14default_deleteIS1_ESaIvELN9__gnu_cxx12_Lock_policyE2EE10_M_destroyEv, ptr @_ZNSt19_Sp_counted_deleterIPN5arrow15ResizableBufferESt14default_deleteIS1_ESaIvELN9__gnu_cxx12_Lock_policyE2EE14_M_get_deleterERKSt9type_info] }, comdat, align 8
@_ZTSSt19_Sp_counted_deleterIPN5arrow15ResizableBufferESt14default_deleteIS1_ESaIvELN9__gnu_cxx12_Lock_policyE2EE = linkonce_odr constant [109 x i8] c"St19_Sp_counted_deleterIPN5arrow15ResizableBufferESt14default_deleteIS1_ESaIvELN9__gnu_cxx12_Lock_policyE2EE\00", comdat, align 1
@_ZTISt19_Sp_counted_deleterIPN5arrow15ResizableBufferESt14default_deleteIS1_ESaIvELN9__gnu_cxx12_Lock_policyE2EE = linkonce_odr constant { ptr, ptr, ptr } { ptr getelementptr inbounds (ptr, ptr @_ZTVN10__cxxabiv120__si_class_type_infoE, i64 2), ptr @_ZTSSt19_Sp_counted_deleterIPN5arrow15ResizableBufferESt14default_deleteIS1_ESaIvELN9__gnu_cxx12_Lock_policyE2EE, ptr @_ZTISt16_Sp_counted_baseILN9__gnu_cxx12_Lock_policyE2EE }, comdat, align 8
@_ZTSSt14default_deleteIN5arrow15ResizableBufferEE = linkonce_odr constant [46 x i8] c"St14default_deleteIN5arrow15ResizableBufferEE\00", comdat, align 1
@_ZTISt14default_deleteIN5arrow15ResizableBufferEE = linkonce_odr constant { ptr, ptr } { ptr getelementptr inbounds (ptr, ptr @_ZTVN10__cxxabiv117__class_type_infoE, i64 2), ptr @_ZTSSt14default_deleteIN5arrow15ResizableBufferEE }, comdat, align 8
@_ZN5arrow8bit_utilL8kBitmaskE = internal constant [8 x i8] c"\01\02\04\08\10 @\80", align 1
@.str.26 = private unnamed_addr constant [21 x i8] c"Type not implemented\00", align 1
@_ZZN5arrow8internal23OptionalBitBlockCounter9NextBlockEvE13kMaxBlockSize = linkonce_odr constant i64 32767, comdat, align 8
@_ZTVSt19_Sp_counted_deleterIPN5arrow6BufferESt14default_deleteIS1_ESaIvELN9__gnu_cxx12_Lock_policyE2EE = linkonce_odr unnamed_addr constant { [7 x ptr] } { [7 x ptr] [ptr null, ptr @_ZTISt19_Sp_counted_deleterIPN5arrow6BufferESt14default_deleteIS1_ESaIvELN9__gnu_cxx12_Lock_policyE2EE, ptr @_ZNSt19_Sp_counted_deleterIPN5arrow6BufferESt14default_deleteIS1_ESaIvELN9__gnu_cxx12_Lock_policyE2EED2Ev, ptr @_ZNSt19_Sp_counted_deleterIPN5arrow6BufferESt14default_deleteIS1_ESaIvELN9__gnu_cxx12_Lock_policyE2EED0Ev, ptr @_ZNSt19_Sp_counted_deleterIPN5arrow6BufferESt14default_deleteIS1_ESaIvELN9__gnu_cxx12_Lock_policyE2EE10_M_disposeEv, ptr @_ZNSt19_Sp_counted_deleterIPN5arrow6BufferESt14default_deleteIS1_ESaIvELN9__gnu_cxx12_Lock_policyE2EE10_M_destroyEv, ptr @_ZNSt19_Sp_counted_deleterIPN5arrow6BufferESt14default_deleteIS1_ESaIvELN9__gnu_cxx12_Lock_policyE2EE14_M_get_deleterERKSt9type_info] }, comdat, align 8
@_ZTSSt19_Sp_counted_deleterIPN5arrow6BufferESt14default_deleteIS1_ESaIvELN9__gnu_cxx12_Lock_policyE2EE = linkonce_odr constant [99 x i8] c"St19_Sp_counted_deleterIPN5arrow6BufferESt14default_deleteIS1_ESaIvELN9__gnu_cxx12_Lock_policyE2EE\00", comdat, align 1
@_ZTISt19_Sp_counted_deleterIPN5arrow6BufferESt14default_deleteIS1_ESaIvELN9__gnu_cxx12_Lock_policyE2EE = linkonce_odr constant { ptr, ptr, ptr } { ptr getelementptr inbounds (ptr, ptr @_ZTVN10__cxxabiv120__si_class_type_infoE, i64 2), ptr @_ZTSSt19_Sp_counted_deleterIPN5arrow6BufferESt14default_deleteIS1_ESaIvELN9__gnu_cxx12_Lock_policyE2EE, ptr @_ZTISt16_Sp_counted_baseILN9__gnu_cxx12_Lock_policyE2EE }, comdat, align 8
@_ZTSSt14default_deleteIN5arrow6BufferEE = linkonce_odr constant [36 x i8] c"St14default_deleteIN5arrow6BufferEE\00", comdat, align 1
@_ZTISt14default_deleteIN5arrow6BufferEE = linkonce_odr constant { ptr, ptr } { ptr getelementptr inbounds (ptr, ptr @_ZTVN10__cxxabiv117__class_type_infoE, i64 2), ptr @_ZTSSt14default_deleteIN5arrow6BufferEE }, comdat, align 8
@.str.27 = private unnamed_addr constant [38 x i8] c"Constructed with a non-error status: \00", align 1
@.str.28 = private unnamed_addr constant [49 x i8] c"cannot create std::vector larger than max_size()\00", align 1
@.str.29 = private unnamed_addr constant [31 x i8] c"std::get: variant is valueless\00", align 1
@.str.30 = private unnamed_addr constant [34 x i8] c"std::get: wrong index for variant\00", align 1
@_ZTSSt18bad_variant_access = linkonce_odr constant [23 x i8] c"St18bad_variant_access\00", comdat, align 1
@_ZTISt9exception = external constant ptr
@_ZTISt18bad_variant_access = linkonce_odr constant { ptr, ptr, ptr } { ptr getelementptr inbounds (ptr, ptr @_ZTVN10__cxxabiv120__si_class_type_infoE, i64 2), ptr @_ZTSSt18bad_variant_access, ptr @_ZTISt9exception }, comdat, align 8
@_ZTVSt18bad_variant_access = linkonce_odr unnamed_addr constant { [5 x ptr] } { [5 x ptr] [ptr null, ptr @_ZTISt18bad_variant_access, ptr @_ZNSt18bad_variant_accessD2Ev, ptr @_ZNSt18bad_variant_accessD0Ev, ptr @_ZNKSt18bad_variant_access4whatEv] }, comdat, align 8
@_ZTVSt9exception = external unnamed_addr constant { [5 x ptr] }, align 8
@.str.31 = private unnamed_addr constant [26 x i8] c"vector::_M_realloc_insert\00", align 1
@.str.32 = private unnamed_addr constant [50 x i8] c"basic_string: construction from null is not valid\00", align 1
@.str.33 = private unnamed_addr constant [62 x i8] c"Attempted to initialize KernelState from null FunctionOptions\00", align 1
@_ZTVN5arrow7compute13FilterOptionsE = linkonce_odr unnamed_addr constant { [4 x ptr] } { [4 x ptr] [ptr null, ptr @_ZTIN5arrow7compute13FilterOptionsE, ptr @_ZN5arrow7compute13FilterOptionsD2Ev, ptr @_ZN5arrow7compute13FilterOptionsD0Ev] }, comdat, align 8
@_ZTSN5arrow7compute13FilterOptionsE = linkonce_odr constant [32 x i8] c"N5arrow7compute13FilterOptionsE\00", comdat, align 1
@_ZTSN5arrow7compute15FunctionOptionsE = linkonce_odr constant [34 x i8] c"N5arrow7compute15FunctionOptionsE\00", comdat, align 1
@_ZTSN5arrow4util18EqualityComparableINS_7compute15FunctionOptionsEEE = linkonce_odr constant [65 x i8] c"N5arrow4util18EqualityComparableINS_7compute15FunctionOptionsEEE\00", comdat, align 1
@_ZTIN5arrow4util18EqualityComparableINS_7compute15FunctionOptionsEEE = linkonce_odr constant { ptr, ptr } { ptr getelementptr inbounds (ptr, ptr @_ZTVN10__cxxabiv117__class_type_infoE, i64 2), ptr @_ZTSN5arrow4util18EqualityComparableINS_7compute15FunctionOptionsEEE }, comdat, align 8
@_ZTIN5arrow7compute15FunctionOptionsE = linkonce_odr constant { ptr, ptr, ptr } { ptr getelementptr inbounds (ptr, ptr @_ZTVN10__cxxabiv120__si_class_type_infoE, i64 2), ptr @_ZTSN5arrow7compute15FunctionOptionsE, ptr @_ZTIN5arrow4util18EqualityComparableINS_7compute15FunctionOptionsEEE }, comdat, align 8
@_ZTIN5arrow7compute13FilterOptionsE = linkonce_odr constant { ptr, ptr, ptr } { ptr getelementptr inbounds (ptr, ptr @_ZTVN10__cxxabiv120__si_class_type_infoE, i64 2), ptr @_ZTSN5arrow7compute13FilterOptionsE, ptr @_ZTIN5arrow7compute15FunctionOptionsE }, comdat, align 8
@_ZTVN5arrow7compute15FunctionOptionsE = linkonce_odr unnamed_addr constant { [4 x ptr] } { [4 x ptr] [ptr null, ptr @_ZTIN5arrow7compute15FunctionOptionsE, ptr @_ZN5arrow7compute15FunctionOptionsD2Ev, ptr @_ZN5arrow7compute15FunctionOptionsD0Ev] }, comdat, align 8
@_ZTVN5arrow7compute8internal14OptionsWrapperINS0_13FilterOptionsEEE = linkonce_odr unnamed_addr constant { [4 x ptr] } { [4 x ptr] [ptr null, ptr @_ZTIN5arrow7compute8internal14OptionsWrapperINS0_13FilterOptionsEEE, ptr @_ZN5arrow7compute8internal14OptionsWrapperINS0_13FilterOptionsEED2Ev, ptr @_ZN5arrow7compute8internal14OptionsWrapperINS0_13FilterOptionsEED0Ev] }, comdat, align 8
@_ZTSN5arrow7compute8internal14OptionsWrapperINS0_13FilterOptionsEEE = linkonce_odr constant [64 x i8] c"N5arrow7compute8internal14OptionsWrapperINS0_13FilterOptionsEEE\00", comdat, align 1
@_ZTSN5arrow7compute11KernelStateE = linkonce_odr constant [30 x i8] c"N5arrow7compute11KernelStateE\00", comdat, align 1
@_ZTIN5arrow7compute11KernelStateE = linkonce_odr constant { ptr, ptr } { ptr getelementptr inbounds (ptr, ptr @_ZTVN10__cxxabiv117__class_type_infoE, i64 2), ptr @_ZTSN5arrow7compute11KernelStateE }, comdat, align 8
@_ZTIN5arrow7compute8internal14OptionsWrapperINS0_13FilterOptionsEEE = linkonce_odr constant { ptr, ptr, ptr } { ptr getelementptr inbounds (ptr, ptr @_ZTVN10__cxxabiv120__si_class_type_infoE, i64 2), ptr @_ZTSN5arrow7compute8internal14OptionsWrapperINS0_13FilterOptionsEEE, ptr @_ZTIN5arrow7compute11KernelStateE }, comdat, align 8
@_ZTVN5arrow7compute11KernelStateE = linkonce_odr unnamed_addr constant { [4 x ptr] } { [4 x ptr] [ptr null, ptr @_ZTIN5arrow7compute11KernelStateE, ptr @_ZN5arrow7compute11KernelStateD2Ev, ptr @_ZN5arrow7compute11KernelStateD0Ev] }, comdat, align 8
@_ZTVN10__cxxabiv119__pointer_type_infoE = external global [0 x ptr]
@_ZTSPFN5arrow6ResultISt10unique_ptrINS_7compute11KernelStateESt14default_deleteIS3_EEEEPNS2_13KernelContextERKNS2_14KernelInitArgsEE = linkonce_odr constant [129 x i8] c"PFN5arrow6ResultISt10unique_ptrINS_7compute11KernelStateESt14default_deleteIS3_EEEEPNS2_13KernelContextERKNS2_14KernelInitArgsEE\00", comdat, align 1
@_ZTVN10__cxxabiv120__function_type_infoE = external global [0 x ptr]
@_ZTSFN5arrow6ResultISt10unique_ptrINS_7compute11KernelStateESt14default_deleteIS3_EEEEPNS2_13KernelContextERKNS2_14KernelInitArgsEE = linkonce_odr constant [128 x i8] c"FN5arrow6ResultISt10unique_ptrINS_7compute11KernelStateESt14default_deleteIS3_EEEEPNS2_13KernelContextERKNS2_14KernelInitArgsEE\00", comdat, align 1
@_ZTIFN5arrow6ResultISt10unique_ptrINS_7compute11KernelStateESt14default_deleteIS3_EEEEPNS2_13KernelContextERKNS2_14KernelInitArgsEE = linkonce_odr constant { ptr, ptr } { ptr getelementptr inbounds (ptr, ptr @_ZTVN10__cxxabiv120__function_type_infoE, i64 2), ptr @_ZTSFN5arrow6ResultISt10unique_ptrINS_7compute11KernelStateESt14default_deleteIS3_EEEEPNS2_13KernelContextERKNS2_14KernelInitArgsEE }, comdat, align 8
@_ZTIPFN5arrow6ResultISt10unique_ptrINS_7compute11KernelStateESt14default_deleteIS3_EEEEPNS2_13KernelContextERKNS2_14KernelInitArgsEE = linkonce_odr constant { ptr, ptr, i32, ptr } { ptr getelementptr inbounds (ptr, ptr @_ZTVN10__cxxabiv119__pointer_type_infoE, i64 2), ptr @_ZTSPFN5arrow6ResultISt10unique_ptrINS_7compute11KernelStateESt14default_deleteIS3_EEEEPNS2_13KernelContextERKNS2_14KernelInitArgsEE, i32 0, ptr @_ZTIFN5arrow6ResultISt10unique_ptrINS_7compute11KernelStateESt14default_deleteIS3_EEEEPNS2_13KernelContextERKNS2_14KernelInitArgsEE }, comdat, align 8
@_ZTVSt19_Sp_counted_deleterIPN5arrow7compute8FunctionESt14default_deleteIS2_ESaIvELN9__gnu_cxx12_Lock_policyE2EE = linkonce_odr unnamed_addr constant { [7 x ptr] } { [7 x ptr] [ptr null, ptr @_ZTISt19_Sp_counted_deleterIPN5arrow7compute8FunctionESt14default_deleteIS2_ESaIvELN9__gnu_cxx12_Lock_policyE2EE, ptr @_ZNSt19_Sp_counted_deleterIPN5arrow7compute8FunctionESt14default_deleteIS2_ESaIvELN9__gnu_cxx12_Lock_policyE2EED2Ev, ptr @_ZNSt19_Sp_counted_deleterIPN5arrow7compute8FunctionESt14default_deleteIS2_ESaIvELN9__gnu_cxx12_Lock_policyE2EED0Ev, ptr @_ZNSt19_Sp_counted_deleterIPN5arrow7compute8FunctionESt14default_deleteIS2_ESaIvELN9__gnu_cxx12_Lock_policyE2EE10_M_disposeEv, ptr @_ZNSt19_Sp_counted_deleterIPN5arrow7compute8FunctionESt14default_deleteIS2_ESaIvELN9__gnu_cxx12_Lock_policyE2EE10_M_destroyEv, ptr @_ZNSt19_Sp_counted_deleterIPN5arrow7compute8FunctionESt14default_deleteIS2_ESaIvELN9__gnu_cxx12_Lock_policyE2EE14_M_get_deleterERKSt9type_info] }, comdat, align 8
@_ZTSSt19_Sp_counted_deleterIPN5arrow7compute8FunctionESt14default_deleteIS2_ESaIvELN9__gnu_cxx12_Lock_policyE2EE = linkonce_odr constant [109 x i8] c"St19_Sp_counted_deleterIPN5arrow7compute8FunctionESt14default_deleteIS2_ESaIvELN9__gnu_cxx12_Lock_policyE2EE\00", comdat, align 1
@_ZTISt19_Sp_counted_deleterIPN5arrow7compute8FunctionESt14default_deleteIS2_ESaIvELN9__gnu_cxx12_Lock_policyE2EE = linkonce_odr constant { ptr, ptr, ptr } { ptr getelementptr inbounds (ptr, ptr @_ZTVN10__cxxabiv120__si_class_type_infoE, i64 2), ptr @_ZTSSt19_Sp_counted_deleterIPN5arrow7compute8FunctionESt14default_deleteIS2_ESaIvELN9__gnu_cxx12_Lock_policyE2EE, ptr @_ZTISt16_Sp_counted_baseILN9__gnu_cxx12_Lock_policyE2EE }, comdat, align 8
@_ZTSSt14default_deleteIN5arrow7compute8FunctionEE = linkonce_odr constant [46 x i8] c"St14default_deleteIN5arrow7compute8FunctionEE\00", comdat, align 1
@_ZTISt14default_deleteIN5arrow7compute8FunctionEE = linkonce_odr constant { ptr, ptr } { ptr getelementptr inbounds (ptr, ptr @_ZTVN10__cxxabiv117__class_type_infoE, i64 2), ptr @_ZTSSt14default_deleteIN5arrow7compute8FunctionEE }, comdat, align 8
@_ZTVN5arrow7compute11TakeOptionsE = linkonce_odr unnamed_addr constant { [4 x ptr] } { [4 x ptr] [ptr null, ptr @_ZTIN5arrow7compute11TakeOptionsE, ptr @_ZN5arrow7compute11TakeOptionsD2Ev, ptr @_ZN5arrow7compute11TakeOptionsD0Ev] }, comdat, align 8
@_ZTSN5arrow7compute11TakeOptionsE = linkonce_odr constant [30 x i8] c"N5arrow7compute11TakeOptionsE\00", comdat, align 1
@_ZTIN5arrow7compute11TakeOptionsE = linkonce_odr constant { ptr, ptr, ptr } { ptr getelementptr inbounds (ptr, ptr @_ZTVN10__cxxabiv120__si_class_type_infoE, i64 2), ptr @_ZTSN5arrow7compute11TakeOptionsE, ptr @_ZTIN5arrow7compute15FunctionOptionsE }, comdat, align 8
@_ZTVN5arrow7compute8internal14OptionsWrapperINS0_11TakeOptionsEEE = linkonce_odr unnamed_addr constant { [4 x ptr] } { [4 x ptr] [ptr null, ptr @_ZTIN5arrow7compute8internal14OptionsWrapperINS0_11TakeOptionsEEE, ptr @_ZN5arrow7compute8internal14OptionsWrapperINS0_11TakeOptionsEED2Ev, ptr @_ZN5arrow7compute8internal14OptionsWrapperINS0_11TakeOptionsEED0Ev] }, comdat, align 8
@_ZTSN5arrow7compute8internal14OptionsWrapperINS0_11TakeOptionsEEE = linkonce_odr constant [62 x i8] c"N5arrow7compute8internal14OptionsWrapperINS0_11TakeOptionsEEE\00", comdat, align 1
@_ZTIN5arrow7compute8internal14OptionsWrapperINS0_11TakeOptionsEEE = linkonce_odr constant { ptr, ptr, ptr } { ptr getelementptr inbounds (ptr, ptr @_ZTVN10__cxxabiv120__si_class_type_infoE, i64 2), ptr @_ZTSN5arrow7compute8internal14OptionsWrapperINS0_11TakeOptionsEEE, ptr @_ZTIN5arrow7compute11KernelStateE }, comdat, align 8
@_ZTVSt23_Sp_counted_ptr_inplaceIN5arrow7compute8internal12_GLOBAL__N_120DropNullMetaFunctionESaIvELN9__gnu_cxx12_Lock_policyE2EE = internal unnamed_addr constant { [7 x ptr] } { [7 x ptr] [ptr null, ptr @_ZTISt23_Sp_counted_ptr_inplaceIN5arrow7compute8internal12_GLOBAL__N_120DropNullMetaFunctionESaIvELN9__gnu_cxx12_Lock_policyE2EE, ptr @_ZNSt23_Sp_counted_ptr_inplaceIN5arrow7compute8internal12_GLOBAL__N_120DropNullMetaFunctionESaIvELN9__gnu_cxx12_Lock_policyE2EED2Ev, ptr @_ZNSt23_Sp_counted_ptr_inplaceIN5arrow7compute8internal12_GLOBAL__N_120DropNullMetaFunctionESaIvELN9__gnu_cxx12_Lock_policyE2EED0Ev, ptr @_ZNSt23_Sp_counted_ptr_inplaceIN5arrow7compute8internal12_GLOBAL__N_120DropNullMetaFunctionESaIvELN9__gnu_cxx12_Lock_policyE2EE10_M_disposeEv, ptr @_ZNSt23_Sp_counted_ptr_inplaceIN5arrow7compute8internal12_GLOBAL__N_120DropNullMetaFunctionESaIvELN9__gnu_cxx12_Lock_policyE2EE10_M_destroyEv, ptr @_ZNSt23_Sp_counted_ptr_inplaceIN5arrow7compute8internal12_GLOBAL__N_120DropNullMetaFunctionESaIvELN9__gnu_cxx12_Lock_policyE2EE14_M_get_deleterERKSt9type_info] }, align 8
@_ZTSSt23_Sp_counted_ptr_inplaceIN5arrow7compute8internal12_GLOBAL__N_120DropNullMetaFunctionESaIvELN9__gnu_cxx12_Lock_policyE2EE = internal constant [125 x i8] c"St23_Sp_counted_ptr_inplaceIN5arrow7compute8internal12_GLOBAL__N_120DropNullMetaFunctionESaIvELN9__gnu_cxx12_Lock_policyE2EE\00", align 1
@_ZTISt23_Sp_counted_ptr_inplaceIN5arrow7compute8internal12_GLOBAL__N_120DropNullMetaFunctionESaIvELN9__gnu_cxx12_Lock_policyE2EE = internal constant { ptr, ptr, ptr } { ptr getelementptr inbounds (ptr, ptr @_ZTVN10__cxxabiv120__si_class_type_infoE, i64 2), ptr @_ZTSSt23_Sp_counted_ptr_inplaceIN5arrow7compute8internal12_GLOBAL__N_120DropNullMetaFunctionESaIvELN9__gnu_cxx12_Lock_policyE2EE, ptr @_ZTISt16_Sp_counted_baseILN9__gnu_cxx12_Lock_policyE2EE }, align 8
@.str.34 = private unnamed_addr constant [10 x i8] c"drop_null\00", align 1
@_ZTVN5arrow7compute8internal12_GLOBAL__N_120DropNullMetaFunctionE = internal unnamed_addr constant { [12 x ptr] } { [12 x ptr] [ptr null, ptr @_ZTIN5arrow7compute8internal12_GLOBAL__N_120DropNullMetaFunctionE, ptr @_ZN5arrow7compute8internal12_GLOBAL__N_120DropNullMetaFunctionD2Ev, ptr @_ZN5arrow7compute8internal12_GLOBAL__N_120DropNullMetaFunctionD0Ev, ptr @_ZNK5arrow7compute12MetaFunction11num_kernelsEv, ptr @_ZNK5arrow7compute8Function13DispatchExactERKSt6vectorINS_10TypeHolderESaIS3_EE, ptr @_ZNK5arrow7compute8Function12DispatchBestEPSt6vectorINS_10TypeHolderESaIS3_EE, ptr @_ZNK5arrow7compute8Function15GetBestExecutorESt6vectorINS_10TypeHolderESaIS3_EE, ptr @_ZNK5arrow7compute12MetaFunction7ExecuteERKSt6vectorINS_5DatumESaIS3_EEPKNS0_15FunctionOptionsEPNS0_11ExecContextE, ptr @_ZNK5arrow7compute12MetaFunction7ExecuteERKNS0_9ExecBatchEPKNS0_15FunctionOptionsEPNS0_11ExecContextE, ptr @_ZNK5arrow7compute8Function8ValidateEv, ptr @_ZNK5arrow7compute8internal12_GLOBAL__N_120DropNullMetaFunction11ExecuteImplERKSt6vectorINS_5DatumESaIS5_EEPKNS0_15FunctionOptionsEPNS0_11ExecContextE] }, align 8
@_ZTSN5arrow7compute8internal12_GLOBAL__N_120DropNullMetaFunctionE = internal constant [62 x i8] c"N5arrow7compute8internal12_GLOBAL__N_120DropNullMetaFunctionE\00", align 1
@_ZTIN5arrow7compute12MetaFunctionE = external constant ptr
@_ZTIN5arrow7compute8internal12_GLOBAL__N_120DropNullMetaFunctionE = internal constant { ptr, ptr, ptr } { ptr getelementptr inbounds (ptr, ptr @_ZTVN10__cxxabiv120__si_class_type_infoE, i64 2), ptr @_ZTSN5arrow7compute8internal12_GLOBAL__N_120DropNullMetaFunctionE, ptr @_ZTIN5arrow7compute12MetaFunctionE }, align 8
@_ZTVN5arrow7compute12MetaFunctionE = external unnamed_addr constant { [12 x ptr] }, align 8
@.str.35 = private unnamed_addr constant [51 x i8] c"Unsupported types for drop_null operation: values=\00", align 1
@_ZTVSt23_Sp_counted_ptr_inplaceIN5arrow9NullArrayESaIvELN9__gnu_cxx12_Lock_policyE2EE = linkonce_odr unnamed_addr constant { [7 x ptr] } { [7 x ptr] [ptr null, ptr @_ZTISt23_Sp_counted_ptr_inplaceIN5arrow9NullArrayESaIvELN9__gnu_cxx12_Lock_policyE2EE, ptr @_ZNSt23_Sp_counted_ptr_inplaceIN5arrow9NullArrayESaIvELN9__gnu_cxx12_Lock_policyE2EED2Ev, ptr @_ZNSt23_Sp_counted_ptr_inplaceIN5arrow9NullArrayESaIvELN9__gnu_cxx12_Lock_policyE2EED0Ev, ptr @_ZNSt23_Sp_counted_ptr_inplaceIN5arrow9NullArrayESaIvELN9__gnu_cxx12_Lock_policyE2EE10_M_disposeEv, ptr @_ZNSt23_Sp_counted_ptr_inplaceIN5arrow9NullArrayESaIvELN9__gnu_cxx12_Lock_policyE2EE10_M_destroyEv, ptr @_ZNSt23_Sp_counted_ptr_inplaceIN5arrow9NullArrayESaIvELN9__gnu_cxx12_Lock_policyE2EE14_M_get_deleterERKSt9type_info] }, comdat, align 8
@_ZTSSt23_Sp_counted_ptr_inplaceIN5arrow9NullArrayESaIvELN9__gnu_cxx12_Lock_policyE2EE = linkonce_odr constant [82 x i8] c"St23_Sp_counted_ptr_inplaceIN5arrow9NullArrayESaIvELN9__gnu_cxx12_Lock_policyE2EE\00", comdat, align 1
@_ZTISt23_Sp_counted_ptr_inplaceIN5arrow9NullArrayESaIvELN9__gnu_cxx12_Lock_policyE2EE = linkonce_odr constant { ptr, ptr, ptr } { ptr getelementptr inbounds (ptr, ptr @_ZTVN10__cxxabiv120__si_class_type_infoE, i64 2), ptr @_ZTSSt23_Sp_counted_ptr_inplaceIN5arrow9NullArrayESaIvELN9__gnu_cxx12_Lock_policyE2EE, ptr @_ZTISt16_Sp_counted_baseILN9__gnu_cxx12_Lock_policyE2EE }, comdat, align 8
@_ZTVSt23_Sp_counted_ptr_inplaceIN5arrow12BooleanArrayESaIvELN9__gnu_cxx12_Lock_policyE2EE = linkonce_odr unnamed_addr constant { [7 x ptr] } { [7 x ptr] [ptr null, ptr @_ZTISt23_Sp_counted_ptr_inplaceIN5arrow12BooleanArrayESaIvELN9__gnu_cxx12_Lock_policyE2EE, ptr @_ZNSt23_Sp_counted_ptr_inplaceIN5arrow12BooleanArrayESaIvELN9__gnu_cxx12_Lock_policyE2EED2Ev, ptr @_ZNSt23_Sp_counted_ptr_inplaceIN5arrow12BooleanArrayESaIvELN9__gnu_cxx12_Lock_policyE2EED0Ev, ptr @_ZNSt23_Sp_counted_ptr_inplaceIN5arrow12BooleanArrayESaIvELN9__gnu_cxx12_Lock_policyE2EE10_M_disposeEv, ptr @_ZNSt23_Sp_counted_ptr_inplaceIN5arrow12BooleanArrayESaIvELN9__gnu_cxx12_Lock_policyE2EE10_M_destroyEv, ptr @_ZNSt23_Sp_counted_ptr_inplaceIN5arrow12BooleanArrayESaIvELN9__gnu_cxx12_Lock_policyE2EE14_M_get_deleterERKSt9type_info] }, comdat, align 8
@_ZTSSt23_Sp_counted_ptr_inplaceIN5arrow12BooleanArrayESaIvELN9__gnu_cxx12_Lock_policyE2EE = linkonce_odr constant [86 x i8] c"St23_Sp_counted_ptr_inplaceIN5arrow12BooleanArrayESaIvELN9__gnu_cxx12_Lock_policyE2EE\00", comdat, align 1
@_ZTISt23_Sp_counted_ptr_inplaceIN5arrow12BooleanArrayESaIvELN9__gnu_cxx12_Lock_policyE2EE = linkonce_odr constant { ptr, ptr, ptr } { ptr getelementptr inbounds (ptr, ptr @_ZTVN10__cxxabiv120__si_class_type_infoE, i64 2), ptr @_ZTSSt23_Sp_counted_ptr_inplaceIN5arrow12BooleanArrayESaIvELN9__gnu_cxx12_Lock_policyE2EE, ptr @_ZTISt16_Sp_counted_baseILN9__gnu_cxx12_Lock_policyE2EE }, comdat, align 8
@_ZSt14in_place_indexILm0EE = linkonce_odr constant %"struct.std::in_place_index_t" zeroinitializer, comdat, align 1
@_ZSt14in_place_indexILm1EE = linkonce_odr constant %"struct.std::in_place_index_t.445" zeroinitializer, comdat, align 1
@_ZSt14in_place_indexILm2EE = linkonce_odr constant %"struct.std::in_place_index_t.447" zeroinitializer, comdat, align 1
@_ZSt14in_place_indexILm3EE = linkonce_odr constant %"struct.std::in_place_index_t.449" zeroinitializer, comdat, align 1
@_ZSt14in_place_indexILm4EE = linkonce_odr constant %"struct.std::in_place_index_t.451" zeroinitializer, comdat, align 1
@_ZSt14in_place_indexILm5EE = linkonce_odr constant %"struct.std::in_place_index_t.453" zeroinitializer, comdat, align 1
@_ZTVSt23_Sp_counted_ptr_inplaceIN5arrow12ChunkedArrayESaIvELN9__gnu_cxx12_Lock_policyE2EE = linkonce_odr unnamed_addr constant { [7 x ptr] } { [7 x ptr] [ptr null, ptr @_ZTISt23_Sp_counted_ptr_inplaceIN5arrow12ChunkedArrayESaIvELN9__gnu_cxx12_Lock_policyE2EE, ptr @_ZNSt23_Sp_counted_ptr_inplaceIN5arrow12ChunkedArrayESaIvELN9__gnu_cxx12_Lock_policyE2EED2Ev, ptr @_ZNSt23_Sp_counted_ptr_inplaceIN5arrow12ChunkedArrayESaIvELN9__gnu_cxx12_Lock_policyE2EED0Ev, ptr @_ZNSt23_Sp_counted_ptr_inplaceIN5arrow12ChunkedArrayESaIvELN9__gnu_cxx12_Lock_policyE2EE10_M_disposeEv, ptr @_ZNSt23_Sp_counted_ptr_inplaceIN5arrow12ChunkedArrayESaIvELN9__gnu_cxx12_Lock_policyE2EE10_M_destroyEv, ptr @_ZNSt23_Sp_counted_ptr_inplaceIN5arrow12ChunkedArrayESaIvELN9__gnu_cxx12_Lock_policyE2EE14_M_get_deleterERKSt9type_info] }, comdat, align 8
@_ZTSSt23_Sp_counted_ptr_inplaceIN5arrow12ChunkedArrayESaIvELN9__gnu_cxx12_Lock_policyE2EE = linkonce_odr constant [86 x i8] c"St23_Sp_counted_ptr_inplaceIN5arrow12ChunkedArrayESaIvELN9__gnu_cxx12_Lock_policyE2EE\00", comdat, align 1
@_ZTISt23_Sp_counted_ptr_inplaceIN5arrow12ChunkedArrayESaIvELN9__gnu_cxx12_Lock_policyE2EE = linkonce_odr constant { ptr, ptr, ptr } { ptr getelementptr inbounds (ptr, ptr @_ZTVN10__cxxabiv120__si_class_type_infoE, i64 2), ptr @_ZTSSt23_Sp_counted_ptr_inplaceIN5arrow12ChunkedArrayESaIvELN9__gnu_cxx12_Lock_policyE2EE, ptr @_ZTISt16_Sp_counted_baseILN9__gnu_cxx12_Lock_policyE2EE }, comdat, align 8
@_ZTVN5arrow16TableBatchReaderE = external unnamed_addr constant { [8 x ptr] }, align 8
@llvm.global_ctors = appending global [1 x { i32, ptr, ptr }] [{ i32, ptr, ptr } { i32 65535, ptr @_GLOBAL__sub_I_vector_selection.cc, ptr null }]

; Function Attrs: uwtable
define internal void @__cxx_global_var_init() #0 section ".text.startup" personality ptr @__gxx_personality_v0 {
entry:
  %agg.tmp = alloca %"class.std::__cxx11::basic_string", align 8
  %ref.tmp = alloca %"class.std::allocator", align 1
  %exn.slot = alloca ptr, align 8
  %ehselector.slot = alloca i32, align 4
  %agg.tmp1 = alloca %"class.std::__cxx11::basic_string", align 8
  %ref.tmp2 = alloca %"class.std::allocator", align 1
  %agg.tmp5 = alloca %"class.std::vector", align 8
  %agg.tmp6 = alloca %"class.std::initializer_list", align 8
  %ref.tmp7 = alloca [1 x %"class.std::__cxx11::basic_string"], align 8
  %arrayinit.endOfInit = alloca ptr, align 8
  %ref.tmp8 = alloca %"class.std::allocator", align 1
  %cleanup.isactive = alloca i1, align 1
  %ref.tmp11 = alloca %"class.std::allocator.0", align 1
  %agg.tmp14 = alloca %"class.std::__cxx11::basic_string", align 8
  %ref.tmp15 = alloca %"class.std::allocator", align 1
  call void @_ZNSaIcEC1Ev(ptr noundef nonnull align 1 dereferenceable(1) %ref.tmp) #4
  invoke void @_ZNSt7__cxx1112basic_stringIcSt11char_traitsIcESaIcEEC2IS3_EEPKcRKS3_(ptr noundef nonnull align 8 dereferenceable(32) %agg.tmp, ptr noundef @.str, ptr noundef nonnull align 1 dereferenceable(1) %ref.tmp)
          to label %invoke.cont unwind label %lpad

invoke.cont:                                      ; preds = %entry
  call void @_ZNSaIcEC1Ev(ptr noundef nonnull align 1 dereferenceable(1) %ref.tmp2) #4
  invoke void @_ZNSt7__cxx1112basic_stringIcSt11char_traitsIcESaIcEEC2IS3_EEPKcRKS3_(ptr noundef nonnull align 8 dereferenceable(32) %agg.tmp1, ptr noundef @.str.1, ptr noundef nonnull align 1 dereferenceable(1) %ref.tmp2)
          to label %invoke.cont4 unwind label %lpad3

invoke.cont4:                                     ; preds = %invoke.cont
  %arrayinit.begin = getelementptr inbounds [1 x %"class.std::__cxx11::basic_string"], ptr %ref.tmp7, i64 0, i64 0
  store i1 true, ptr %cleanup.isactive, align 1
  store ptr %arrayinit.begin, ptr %arrayinit.endOfInit, align 8
  call void @_ZNSaIcEC1Ev(ptr noundef nonnull align 1 dereferenceable(1) %ref.tmp8) #4
  invoke void @_ZNSt7__cxx1112basic_stringIcSt11char_traitsIcESaIcEEC2IS3_EEPKcRKS3_(ptr noundef nonnull align 8 dereferenceable(32) %arrayinit.begin, ptr noundef @.str.2, ptr noundef nonnull align 1 dereferenceable(1) %ref.tmp8)
          to label %invoke.cont10 unwind label %lpad9

invoke.cont10:                                    ; preds = %invoke.cont4
  store i1 false, ptr %cleanup.isactive, align 1
  %_M_array = getelementptr inbounds %"class.std::initializer_list", ptr %agg.tmp6, i32 0, i32 0
  %arraystart = getelementptr inbounds [1 x %"class.std::__cxx11::basic_string"], ptr %ref.tmp7, i64 0, i64 0
  store ptr %arraystart, ptr %_M_array, align 8
  %_M_len = getelementptr inbounds %"class.std::initializer_list", ptr %agg.tmp6, i32 0, i32 1
  store i64 1, ptr %_M_len, align 8
  call void @_ZNSaINSt7__cxx1112basic_stringIcSt11char_traitsIcESaIcEEEEC2Ev(ptr noundef nonnull align 1 dereferenceable(1) %ref.tmp11) #4
  %0 = getelementptr inbounds { ptr, i64 }, ptr %agg.tmp6, i32 0, i32 0
  %1 = load ptr, ptr %0, align 8
  %2 = getelementptr inbounds { ptr, i64 }, ptr %agg.tmp6, i32 0, i32 1
  %3 = load i64, ptr %2, align 8
  invoke void @_ZNSt6vectorINSt7__cxx1112basic_stringIcSt11char_traitsIcESaIcEEESaIS5_EEC2ESt16initializer_listIS5_ERKS6_(ptr noundef nonnull align 8 dereferenceable(24) %agg.tmp5, ptr %1, i64 %3, ptr noundef nonnull align 1 dereferenceable(1) %ref.tmp11)
          to label %invoke.cont13 unwind label %lpad12

invoke.cont13:                                    ; preds = %invoke.cont10
  call void @_ZNSaIcEC1Ev(ptr noundef nonnull align 1 dereferenceable(1) %ref.tmp15) #4
  invoke void @_ZNSt7__cxx1112basic_stringIcSt11char_traitsIcESaIcEEC2IS3_EEPKcRKS3_(ptr noundef nonnull align 8 dereferenceable(32) %agg.tmp14, ptr noundef @.str.3, ptr noundef nonnull align 1 dereferenceable(1) %ref.tmp15)
          to label %invoke.cont17 unwind label %lpad16

invoke.cont17:                                    ; preds = %invoke.cont13
  invoke void @_ZN5arrow7compute11FunctionDocC2ENSt7__cxx1112basic_stringIcSt11char_traitsIcESaIcEEES7_St6vectorIS7_SaIS7_EES7_b(ptr noundef nonnull align 8 dereferenceable(121) @_ZN5arrow7compute8internal12_GLOBAL__N_113drop_null_docE, ptr noundef %agg.tmp, ptr noundef %agg.tmp1, ptr noundef %agg.tmp5, ptr noundef %agg.tmp14, i1 noundef zeroext false)
          to label %invoke.cont19 unwind label %lpad18

invoke.cont19:                                    ; preds = %invoke.cont17
  call void @_ZNSt7__cxx1112basic_stringIcSt11char_traitsIcESaIcEED1Ev(ptr noundef nonnull align 8 dereferenceable(32) %agg.tmp14) #4
  call void @_ZNSaIcED1Ev(ptr noundef nonnull align 1 dereferenceable(1) %ref.tmp15) #4
  call void @_ZNSt6vectorINSt7__cxx1112basic_stringIcSt11char_traitsIcESaIcEEESaIS5_EED2Ev(ptr noundef nonnull align 8 dereferenceable(24) %agg.tmp5) #4
  call void @_ZNSaINSt7__cxx1112basic_stringIcSt11char_traitsIcESaIcEEEED2Ev(ptr noundef nonnull align 1 dereferenceable(1) %ref.tmp11) #4
  %array.begin = getelementptr inbounds [1 x %"class.std::__cxx11::basic_string"], ptr %ref.tmp7, i32 0, i32 0
  %4 = getelementptr inbounds %"class.std::__cxx11::basic_string", ptr %array.begin, i64 1
  br label %arraydestroy.body

arraydestroy.body:                                ; preds = %arraydestroy.body, %invoke.cont19
  %arraydestroy.elementPast = phi ptr [ %4, %invoke.cont19 ], [ %arraydestroy.element, %arraydestroy.body ]
  %arraydestroy.element = getelementptr inbounds %"class.std::__cxx11::basic_string", ptr %arraydestroy.elementPast, i64 -1
  call void @_ZNSt7__cxx1112basic_stringIcSt11char_traitsIcESaIcEED1Ev(ptr noundef nonnull align 8 dereferenceable(32) %arraydestroy.element) #4
  %arraydestroy.done = icmp eq ptr %arraydestroy.element, %array.begin
  br i1 %arraydestroy.done, label %arraydestroy.done22, label %arraydestroy.body

arraydestroy.done22:                              ; preds = %arraydestroy.body
  call void @_ZNSaIcED1Ev(ptr noundef nonnull align 1 dereferenceable(1) %ref.tmp8) #4
  call void @_ZNSt7__cxx1112basic_stringIcSt11char_traitsIcESaIcEED1Ev(ptr noundef nonnull align 8 dereferenceable(32) %agg.tmp1) #4
  call void @_ZNSaIcED1Ev(ptr noundef nonnull align 1 dereferenceable(1) %ref.tmp2) #4
  call void @_ZNSt7__cxx1112basic_stringIcSt11char_traitsIcESaIcEED1Ev(ptr noundef nonnull align 8 dereferenceable(32) %agg.tmp) #4
  call void @_ZNSaIcED1Ev(ptr noundef nonnull align 1 dereferenceable(1) %ref.tmp) #4
  %5 = call i32 @__cxa_atexit(ptr @_ZN5arrow7compute11FunctionDocD2Ev, ptr @_ZN5arrow7compute8internal12_GLOBAL__N_113drop_null_docE, ptr @__dso_handle) #4
  ret void

lpad:                                             ; preds = %entry
  %6 = landingpad { ptr, i32 }
          cleanup
  %7 = extractvalue { ptr, i32 } %6, 0
  store ptr %7, ptr %exn.slot, align 8
  %8 = extractvalue { ptr, i32 } %6, 1
  store i32 %8, ptr %ehselector.slot, align 4
  br label %ehcleanup40

lpad3:                                            ; preds = %invoke.cont
  %9 = landingpad { ptr, i32 }
          cleanup
  %10 = extractvalue { ptr, i32 } %9, 0
  store ptr %10, ptr %exn.slot, align 8
  %11 = extractvalue { ptr, i32 } %9, 1
  store i32 %11, ptr %ehselector.slot, align 4
  br label %ehcleanup38

lpad9:                                            ; preds = %invoke.cont4
  %12 = landingpad { ptr, i32 }
          cleanup
  %13 = extractvalue { ptr, i32 } %12, 0
  store ptr %13, ptr %exn.slot, align 8
  %14 = extractvalue { ptr, i32 } %12, 1
  store i32 %14, ptr %ehselector.slot, align 4
  br label %ehcleanup30

lpad12:                                           ; preds = %invoke.cont10
  %15 = landingpad { ptr, i32 }
          cleanup
  %16 = extractvalue { ptr, i32 } %15, 0
  store ptr %16, ptr %exn.slot, align 8
  %17 = extractvalue { ptr, i32 } %15, 1
  store i32 %17, ptr %ehselector.slot, align 4
  br label %ehcleanup21

lpad16:                                           ; preds = %invoke.cont13
  %18 = landingpad { ptr, i32 }
          cleanup
  %19 = extractvalue { ptr, i32 } %18, 0
  store ptr %19, ptr %exn.slot, align 8
  %20 = extractvalue { ptr, i32 } %18, 1
  store i32 %20, ptr %ehselector.slot, align 4
  br label %ehcleanup

lpad18:                                           ; preds = %invoke.cont17
  %21 = landingpad { ptr, i32 }
          cleanup
  %22 = extractvalue { ptr, i32 } %21, 0
  store ptr %22, ptr %exn.slot, align 8
  %23 = extractvalue { ptr, i32 } %21, 1
  store i32 %23, ptr %ehselector.slot, align 4
  call void @_ZNSt7__cxx1112basic_stringIcSt11char_traitsIcESaIcEED1Ev(ptr noundef nonnull align 8 dereferenceable(32) %agg.tmp14) #4
  br label %ehcleanup

ehcleanup:                                        ; preds = %lpad18, %lpad16
  call void @_ZNSaIcED1Ev(ptr noundef nonnull align 1 dereferenceable(1) %ref.tmp15) #4
  call void @_ZNSt6vectorINSt7__cxx1112basic_stringIcSt11char_traitsIcESaIcEEESaIS5_EED2Ev(ptr noundef nonnull align 8 dereferenceable(24) %agg.tmp5) #4
  br label %ehcleanup21

ehcleanup21:                                      ; preds = %ehcleanup, %lpad12
  call void @_ZNSaINSt7__cxx1112basic_stringIcSt11char_traitsIcESaIcEEEED2Ev(ptr noundef nonnull align 1 dereferenceable(1) %ref.tmp11) #4
  %array.begin24 = getelementptr inbounds [1 x %"class.std::__cxx11::basic_string"], ptr %ref.tmp7, i32 0, i32 0
  %24 = getelementptr inbounds %"class.std::__cxx11::basic_string", ptr %array.begin24, i64 1
  br label %arraydestroy.body25

arraydestroy.body25:                              ; preds = %arraydestroy.body25, %ehcleanup21
  %arraydestroy.elementPast26 = phi ptr [ %24, %ehcleanup21 ], [ %arraydestroy.element27, %arraydestroy.body25 ]
  %arraydestroy.element27 = getelementptr inbounds %"class.std::__cxx11::basic_string", ptr %arraydestroy.elementPast26, i64 -1
  call void @_ZNSt7__cxx1112basic_stringIcSt11char_traitsIcESaIcEED1Ev(ptr noundef nonnull align 8 dereferenceable(32) %arraydestroy.element27) #4
  %arraydestroy.done28 = icmp eq ptr %arraydestroy.element27, %array.begin24
  br i1 %arraydestroy.done28, label %arraydestroy.done29, label %arraydestroy.body25

arraydestroy.done29:                              ; preds = %arraydestroy.body25
  br label %ehcleanup30

ehcleanup30:                                      ; preds = %arraydestroy.done29, %lpad9
  call void @_ZNSaIcED1Ev(ptr noundef nonnull align 1 dereferenceable(1) %ref.tmp8) #4
  %cleanup.is_active = load i1, ptr %cleanup.isactive, align 1
  br i1 %cleanup.is_active, label %cleanup.action, label %cleanup.done

cleanup.action:                                   ; preds = %ehcleanup30
  %25 = load ptr, ptr %arrayinit.endOfInit, align 8
  %arraydestroy.isempty = icmp eq ptr %arrayinit.begin, %25
  br i1 %arraydestroy.isempty, label %arraydestroy.done36, label %arraydestroy.body32

arraydestroy.body32:                              ; preds = %arraydestroy.body32, %cleanup.action
  %arraydestroy.elementPast33 = phi ptr [ %25, %cleanup.action ], [ %arraydestroy.element34, %arraydestroy.body32 ]
  %arraydestroy.element34 = getelementptr inbounds %"class.std::__cxx11::basic_string", ptr %arraydestroy.elementPast33, i64 -1
  call void @_ZNSt7__cxx1112basic_stringIcSt11char_traitsIcESaIcEED1Ev(ptr noundef nonnull align 8 dereferenceable(32) %arraydestroy.element34) #4
  %arraydestroy.done35 = icmp eq ptr %arraydestroy.element34, %arrayinit.begin
  br i1 %arraydestroy.done35, label %arraydestroy.done36, label %arraydestroy.body32

arraydestroy.done36:                              ; preds = %arraydestroy.body32, %cleanup.action
  br label %cleanup.done

cleanup.done:                                     ; preds = %arraydestroy.done36, %ehcleanup30
  call void @_ZNSt7__cxx1112basic_stringIcSt11char_traitsIcESaIcEED1Ev(ptr noundef nonnull align 8 dereferenceable(32) %agg.tmp1) #4
  br label %ehcleanup38

ehcleanup38:                                      ; preds = %cleanup.done, %lpad3
  call void @_ZNSaIcED1Ev(ptr noundef nonnull align 1 dereferenceable(1) %ref.tmp2) #4
  call void @_ZNSt7__cxx1112basic_stringIcSt11char_traitsIcESaIcEED1Ev(ptr noundef nonnull align 8 dereferenceable(32) %agg.tmp) #4
  br label %ehcleanup40

ehcleanup40:                                      ; preds = %ehcleanup38, %lpad
  call void @_ZNSaIcED1Ev(ptr noundef nonnull align 1 dereferenceable(1) %ref.tmp) #4
  br label %eh.resume

eh.resume:                                        ; preds = %ehcleanup40
  %exn = load ptr, ptr %exn.slot, align 8
  %sel = load i32, ptr %ehselector.slot, align 4
  %lpad.val = insertvalue { ptr, i32 } poison, ptr %exn, 0
  %lpad.val41 = insertvalue { ptr, i32 } %lpad.val, i32 %sel, 1
  resume { ptr, i32 } %lpad.val41
}

; Function Attrs: nounwind
declare void @_ZNSaIcEC1Ev(ptr noundef nonnull align 1 dereferenceable(1)) unnamed_addr #1

; Function Attrs: mustprogress uwtable
define linkonce_odr void @_ZNSt7__cxx1112basic_stringIcSt11char_traitsIcESaIcEEC2IS3_EEPKcRKS3_(ptr noundef nonnull align 8 dereferenceable(32) %this, ptr noundef %__s, ptr noundef nonnull align 1 dereferenceable(1) %__a) unnamed_addr #2 comdat align 2 personality ptr @__gxx_personality_v0 {
entry:
  %this.addr = alloca ptr, align 8
  %__s.addr = alloca ptr, align 8
  %__a.addr = alloca ptr, align 8
  %exn.slot = alloca ptr, align 8
  %ehselector.slot = alloca i32, align 4
  %__end = alloca ptr, align 8
  store ptr %this, ptr %this.addr, align 8
  store ptr %__s, ptr %__s.addr, align 8
  store ptr %__a, ptr %__a.addr, align 8
  %this1 = load ptr, ptr %this.addr, align 8
  %_M_dataplus = getelementptr inbounds %"class.std::__cxx11::basic_string", ptr %this1, i32 0, i32 0
  %call = call noundef ptr @_ZNSt7__cxx1112basic_stringIcSt11char_traitsIcESaIcEE13_M_local_dataEv(ptr noundef nonnull align 8 dereferenceable(32) %this1)
  %0 = load ptr, ptr %__a.addr, align 8
  call void @_ZNSt7__cxx1112basic_stringIcSt11char_traitsIcESaIcEE12_Alloc_hiderC1EPcRKS3_(ptr noundef nonnull align 8 dereferenceable(8) %_M_dataplus, ptr noundef %call, ptr noundef nonnull align 1 dereferenceable(1) %0)
  %1 = load ptr, ptr %__s.addr, align 8
  %cmp = icmp eq ptr %1, null
  br i1 %cmp, label %if.then, label %if.end

if.then:                                          ; preds = %entry
  invoke void @_ZSt19__throw_logic_errorPKc(ptr noundef @.str.32) #15
          to label %invoke.cont unwind label %lpad

invoke.cont:                                      ; preds = %if.then
  unreachable

lpad:                                             ; preds = %invoke.cont2, %if.end, %if.then
  %2 = landingpad { ptr, i32 }
          cleanup
  %3 = extractvalue { ptr, i32 } %2, 0
  store ptr %3, ptr %exn.slot, align 8
  %4 = extractvalue { ptr, i32 } %2, 1
  store i32 %4, ptr %ehselector.slot, align 4
  call void @_ZNSt7__cxx1112basic_stringIcSt11char_traitsIcESaIcEE12_Alloc_hiderD2Ev(ptr noundef nonnull align 8 dereferenceable(8) %_M_dataplus) #4
  br label %eh.resume

if.end:                                           ; preds = %entry
  %5 = load ptr, ptr %__s.addr, align 8
  %6 = load ptr, ptr %__s.addr, align 8
  %call3 = invoke noundef i64 @_ZNSt11char_traitsIcE6lengthEPKc(ptr noundef %6)
          to label %invoke.cont2 unwind label %lpad

invoke.cont2:                                     ; preds = %if.end
  %add.ptr = getelementptr inbounds i8, ptr %5, i64 %call3
  store ptr %add.ptr, ptr %__end, align 8
  %7 = load ptr, ptr %__s.addr, align 8
  %8 = load ptr, ptr %__end, align 8
  invoke void @_ZNSt7__cxx1112basic_stringIcSt11char_traitsIcESaIcEE12_M_constructIPKcEEvT_S8_St20forward_iterator_tag(ptr noundef nonnull align 8 dereferenceable(32) %this1, ptr noundef %7, ptr noundef %8)
          to label %invoke.cont4 unwind label %lpad

invoke.cont4:                                     ; preds = %invoke.cont2
  ret void

eh.resume:                                        ; preds = %lpad
  %exn = load ptr, ptr %exn.slot, align 8
  %sel = load i32, ptr %ehselector.slot, align 4
  %lpad.val = insertvalue { ptr, i32 } poison, ptr %exn, 0
  %lpad.val5 = insertvalue { ptr, i32 } %lpad.val, i32 %sel, 1
  resume { ptr, i32 } %lpad.val5
}

declare i32 @__gxx_personality_v0(...)

; Function Attrs: mustprogress nounwind uwtable
define linkonce_odr void @_ZNSaINSt7__cxx1112basic_stringIcSt11char_traitsIcESaIcEEEEC2Ev(ptr noundef nonnull align 1 dereferenceable(1) %this) unnamed_addr #3 comdat align 2 {
entry:
  %this.addr = alloca ptr, align 8
  store ptr %this, ptr %this.addr, align 8
  %this1 = load ptr, ptr %this.addr, align 8
  call void @_ZNSt15__new_allocatorINSt7__cxx1112basic_stringIcSt11char_traitsIcESaIcEEEEC2Ev(ptr noundef nonnull align 1 dereferenceable(1) %this1) #4
  ret void
}

; Function Attrs: mustprogress uwtable
define linkonce_odr void @_ZNSt6vectorINSt7__cxx1112basic_stringIcSt11char_traitsIcESaIcEEESaIS5_EEC2ESt16initializer_listIS5_ERKS6_(ptr noundef nonnull align 8 dereferenceable(24) %this, ptr %__l.coerce0, i64 %__l.coerce1, ptr noundef nonnull align 1 dereferenceable(1) %__a) unnamed_addr #2 comdat align 2 personality ptr @__gxx_personality_v0 {
entry:
  %__l = alloca %"class.std::initializer_list", align 8
  %this.addr = alloca ptr, align 8
  %__a.addr = alloca ptr, align 8
  %exn.slot = alloca ptr, align 8
  %ehselector.slot = alloca i32, align 4
  %0 = getelementptr inbounds { ptr, i64 }, ptr %__l, i32 0, i32 0
  store ptr %__l.coerce0, ptr %0, align 8
  %1 = getelementptr inbounds { ptr, i64 }, ptr %__l, i32 0, i32 1
  store i64 %__l.coerce1, ptr %1, align 8
  store ptr %this, ptr %this.addr, align 8
  store ptr %__a, ptr %__a.addr, align 8
  %this1 = load ptr, ptr %this.addr, align 8
  %2 = load ptr, ptr %__a.addr, align 8
  call void @_ZNSt12_Vector_baseINSt7__cxx1112basic_stringIcSt11char_traitsIcESaIcEEESaIS5_EEC2ERKS6_(ptr noundef nonnull align 8 dereferenceable(24) %this1, ptr noundef nonnull align 1 dereferenceable(1) %2) #4
  %call = call noundef ptr @_ZNKSt16initializer_listINSt7__cxx1112basic_stringIcSt11char_traitsIcESaIcEEEE5beginEv(ptr noundef nonnull align 8 dereferenceable(16) %__l) #4
  %call2 = call noundef ptr @_ZNKSt16initializer_listINSt7__cxx1112basic_stringIcSt11char_traitsIcESaIcEEEE3endEv(ptr noundef nonnull align 8 dereferenceable(16) %__l) #4
  invoke void @_ZNSt6vectorINSt7__cxx1112basic_stringIcSt11char_traitsIcESaIcEEESaIS5_EE19_M_range_initializeIPKS5_EEvT_SB_St20forward_iterator_tag(ptr noundef nonnull align 8 dereferenceable(24) %this1, ptr noundef %call, ptr noundef %call2)
          to label %invoke.cont unwind label %lpad

invoke.cont:                                      ; preds = %entry
  ret void

lpad:                                             ; preds = %entry
  %3 = landingpad { ptr, i32 }
          cleanup
  %4 = extractvalue { ptr, i32 } %3, 0
  store ptr %4, ptr %exn.slot, align 8
  %5 = extractvalue { ptr, i32 } %3, 1
  store i32 %5, ptr %ehselector.slot, align 4
  call void @_ZNSt12_Vector_baseINSt7__cxx1112basic_stringIcSt11char_traitsIcESaIcEEESaIS5_EED2Ev(ptr noundef nonnull align 8 dereferenceable(24) %this1) #4
  br label %eh.resume

eh.resume:                                        ; preds = %lpad
  %exn = load ptr, ptr %exn.slot, align 8
  %sel = load i32, ptr %ehselector.slot, align 4
  %lpad.val = insertvalue { ptr, i32 } poison, ptr %exn, 0
  %lpad.val3 = insertvalue { ptr, i32 } %lpad.val, i32 %sel, 1
  resume { ptr, i32 } %lpad.val3
}

; Function Attrs: mustprogress nounwind uwtable
define linkonce_odr void @_ZN5arrow7compute11FunctionDocC2ENSt7__cxx1112basic_stringIcSt11char_traitsIcESaIcEEES7_St6vectorIS7_SaIS7_EES7_b(ptr noundef nonnull align 8 dereferenceable(121) %this, ptr noundef %summary, ptr noundef %description, ptr noundef %arg_names, ptr noundef %options_class, i1 noundef zeroext %options_required) unnamed_addr #3 comdat align 2 {
entry:
  %this.addr = alloca ptr, align 8
  %summary.indirect_addr = alloca ptr, align 8
  %description.indirect_addr = alloca ptr, align 8
  %arg_names.indirect_addr = alloca ptr, align 8
  %options_class.indirect_addr = alloca ptr, align 8
  %options_required.addr = alloca i8, align 1
  store ptr %this, ptr %this.addr, align 8
  store ptr %summary, ptr %summary.indirect_addr, align 8
  store ptr %description, ptr %description.indirect_addr, align 8
  store ptr %arg_names, ptr %arg_names.indirect_addr, align 8
  store ptr %options_class, ptr %options_class.indirect_addr, align 8
  %frombool = zext i1 %options_required to i8
  store i8 %frombool, ptr %options_required.addr, align 1
  %this1 = load ptr, ptr %this.addr, align 8
  %summary2 = getelementptr inbounds %"struct.arrow::compute::FunctionDoc", ptr %this1, i32 0, i32 0
  call void @_ZNSt7__cxx1112basic_stringIcSt11char_traitsIcESaIcEEC1EOS4_(ptr noundef nonnull align 8 dereferenceable(32) %summary2, ptr noundef nonnull align 8 dereferenceable(32) %summary) #4
  %description3 = getelementptr inbounds %"struct.arrow::compute::FunctionDoc", ptr %this1, i32 0, i32 1
  call void @_ZNSt7__cxx1112basic_stringIcSt11char_traitsIcESaIcEEC1EOS4_(ptr noundef nonnull align 8 dereferenceable(32) %description3, ptr noundef nonnull align 8 dereferenceable(32) %description) #4
  %arg_names4 = getelementptr inbounds %"struct.arrow::compute::FunctionDoc", ptr %this1, i32 0, i32 2
  call void @_ZNSt6vectorINSt7__cxx1112basic_stringIcSt11char_traitsIcESaIcEEESaIS5_EEC2EOS7_(ptr noundef nonnull align 8 dereferenceable(24) %arg_names4, ptr noundef nonnull align 8 dereferenceable(24) %arg_names) #4
  %options_class5 = getelementptr inbounds %"struct.arrow::compute::FunctionDoc", ptr %this1, i32 0, i32 3
  call void @_ZNSt7__cxx1112basic_stringIcSt11char_traitsIcESaIcEEC1EOS4_(ptr noundef nonnull align 8 dereferenceable(32) %options_class5, ptr noundef nonnull align 8 dereferenceable(32) %options_class) #4
  %options_required6 = getelementptr inbounds %"struct.arrow::compute::FunctionDoc", ptr %this1, i32 0, i32 4
  %0 = load i8, ptr %options_required.addr, align 1
  %tobool = trunc i8 %0 to i1
  %frombool7 = zext i1 %tobool to i8
  store i8 %frombool7, ptr %options_required6, align 8
  ret void
}

; Function Attrs: nounwind
declare void @_ZNSt7__cxx1112basic_stringIcSt11char_traitsIcESaIcEED1Ev(ptr noundef nonnull align 8 dereferenceable(32)) unnamed_addr #1

; Function Attrs: nounwind
declare void @_ZNSaIcED1Ev(ptr noundef nonnull align 1 dereferenceable(1)) unnamed_addr #1

; Function Attrs: mustprogress nounwind uwtable
define linkonce_odr void @_ZNSt6vectorINSt7__cxx1112basic_stringIcSt11char_traitsIcESaIcEEESaIS5_EED2Ev(ptr noundef nonnull align 8 dereferenceable(24) %this) unnamed_addr #3 comdat align 2 personality ptr @__gxx_personality_v0 {
entry:
  %this.addr = alloca ptr, align 8
  store ptr %this, ptr %this.addr, align 8
  %this1 = load ptr, ptr %this.addr, align 8
  %_M_impl = getelementptr inbounds %"struct.std::_Vector_base", ptr %this1, i32 0, i32 0
  %_M_start = getelementptr inbounds %"struct.std::_Vector_base<std::__cxx11::basic_string<char>, std::allocator<std::__cxx11::basic_string<char>>>::_Vector_impl_data", ptr %_M_impl, i32 0, i32 0
  %0 = load ptr, ptr %_M_start, align 8
  %_M_impl2 = getelementptr inbounds %"struct.std::_Vector_base", ptr %this1, i32 0, i32 0
  %_M_finish = getelementptr inbounds %"struct.std::_Vector_base<std::__cxx11::basic_string<char>, std::allocator<std::__cxx11::basic_string<char>>>::_Vector_impl_data", ptr %_M_impl2, i32 0, i32 1
  %1 = load ptr, ptr %_M_finish, align 8
  %call = call noundef nonnull align 1 dereferenceable(1) ptr @_ZNSt12_Vector_baseINSt7__cxx1112basic_stringIcSt11char_traitsIcESaIcEEESaIS5_EE19_M_get_Tp_allocatorEv(ptr noundef nonnull align 8 dereferenceable(24) %this1) #4
  invoke void @_ZSt8_DestroyIPNSt7__cxx1112basic_stringIcSt11char_traitsIcESaIcEEES5_EvT_S7_RSaIT0_E(ptr noundef %0, ptr noundef %1, ptr noundef nonnull align 1 dereferenceable(1) %call)
          to label %invoke.cont unwind label %terminate.lpad

invoke.cont:                                      ; preds = %entry
  call void @_ZNSt12_Vector_baseINSt7__cxx1112basic_stringIcSt11char_traitsIcESaIcEEESaIS5_EED2Ev(ptr noundef nonnull align 8 dereferenceable(24) %this1) #4
  ret void

terminate.lpad:                                   ; preds = %entry
  %2 = landingpad { ptr, i32 }
          catch ptr null
  %3 = extractvalue { ptr, i32 } %2, 0
  call void @__clang_call_terminate(ptr %3) #16
  unreachable
}

; Function Attrs: mustprogress nounwind uwtable
define linkonce_odr void @_ZNSaINSt7__cxx1112basic_stringIcSt11char_traitsIcESaIcEEEED2Ev(ptr noundef nonnull align 1 dereferenceable(1) %this) unnamed_addr #3 comdat align 2 {
entry:
  %this.addr = alloca ptr, align 8
  store ptr %this, ptr %this.addr, align 8
  %this1 = load ptr, ptr %this.addr, align 8
  call void @_ZNSt15__new_allocatorINSt7__cxx1112basic_stringIcSt11char_traitsIcESaIcEEEED2Ev(ptr noundef nonnull align 1 dereferenceable(1) %this1) #4
  ret void
}

; Function Attrs: mustprogress nounwind uwtable
define linkonce_odr void @_ZN5arrow7compute11FunctionDocD2Ev(ptr noundef nonnull align 8 dereferenceable(121) %this) unnamed_addr #3 comdat align 2 {
entry:
  %this.addr = alloca ptr, align 8
  store ptr %this, ptr %this.addr, align 8
  %this1 = load ptr, ptr %this.addr, align 8
  %options_class = getelementptr inbounds %"struct.arrow::compute::FunctionDoc", ptr %this1, i32 0, i32 3
  call void @_ZNSt7__cxx1112basic_stringIcSt11char_traitsIcESaIcEED1Ev(ptr noundef nonnull align 8 dereferenceable(32) %options_class) #4
  %arg_names = getelementptr inbounds %"struct.arrow::compute::FunctionDoc", ptr %this1, i32 0, i32 2
  call void @_ZNSt6vectorINSt7__cxx1112basic_stringIcSt11char_traitsIcESaIcEEESaIS5_EED2Ev(ptr noundef nonnull align 8 dereferenceable(24) %arg_names) #4
  %description = getelementptr inbounds %"struct.arrow::compute::FunctionDoc", ptr %this1, i32 0, i32 1
  call void @_ZNSt7__cxx1112basic_stringIcSt11char_traitsIcESaIcEED1Ev(ptr noundef nonnull align 8 dereferenceable(32) %description) #4
  %summary = getelementptr inbounds %"struct.arrow::compute::FunctionDoc", ptr %this1, i32 0, i32 0
  call void @_ZNSt7__cxx1112basic_stringIcSt11char_traitsIcESaIcEED1Ev(ptr noundef nonnull align 8 dereferenceable(32) %summary) #4
  ret void
}

; Function Attrs: nounwind
declare i32 @__cxa_atexit(ptr, ptr, ptr) #4

; Function Attrs: uwtable
define internal void @__cxx_global_var_init.4() #0 section ".text.startup" personality ptr @__gxx_personality_v0 {
entry:
  %agg.tmp = alloca %"class.std::__cxx11::basic_string", align 8
  %ref.tmp = alloca %"class.std::allocator", align 1
  %exn.slot = alloca ptr, align 8
  %ehselector.slot = alloca i32, align 4
  %agg.tmp1 = alloca %"class.std::__cxx11::basic_string", align 8
  %ref.tmp2 = alloca %"class.std::allocator", align 1
  %agg.tmp5 = alloca %"class.std::vector", align 8
  %agg.tmp6 = alloca %"class.std::initializer_list", align 8
  %ref.tmp7 = alloca [2 x %"class.std::__cxx11::basic_string"], align 8
  %arrayinit.endOfInit = alloca ptr, align 8
  %ref.tmp8 = alloca %"class.std::allocator", align 1
  %ref.tmp11 = alloca %"class.std::allocator", align 1
  %cleanup.isactive = alloca i1, align 1
  %ref.tmp14 = alloca %"class.std::allocator.0", align 1
  %agg.tmp17 = alloca %"class.std::__cxx11::basic_string", align 8
  %ref.tmp18 = alloca %"class.std::allocator", align 1
  call void @_ZNSaIcEC1Ev(ptr noundef nonnull align 1 dereferenceable(1) %ref.tmp) #4
  invoke void @_ZNSt7__cxx1112basic_stringIcSt11char_traitsIcESaIcEEC2IS3_EEPKcRKS3_(ptr noundef nonnull align 8 dereferenceable(32) %agg.tmp, ptr noundef @.str.5, ptr noundef nonnull align 1 dereferenceable(1) %ref.tmp)
          to label %invoke.cont unwind label %lpad

invoke.cont:                                      ; preds = %entry
  call void @_ZNSaIcEC1Ev(ptr noundef nonnull align 1 dereferenceable(1) %ref.tmp2) #4
  invoke void @_ZNSt7__cxx1112basic_stringIcSt11char_traitsIcESaIcEEC2IS3_EEPKcRKS3_(ptr noundef nonnull align 8 dereferenceable(32) %agg.tmp1, ptr noundef @.str.6, ptr noundef nonnull align 1 dereferenceable(1) %ref.tmp2)
          to label %invoke.cont4 unwind label %lpad3

invoke.cont4:                                     ; preds = %invoke.cont
  %arrayinit.begin = getelementptr inbounds [2 x %"class.std::__cxx11::basic_string"], ptr %ref.tmp7, i64 0, i64 0
  store i1 true, ptr %cleanup.isactive, align 1
  store ptr %arrayinit.begin, ptr %arrayinit.endOfInit, align 8
  call void @_ZNSaIcEC1Ev(ptr noundef nonnull align 1 dereferenceable(1) %ref.tmp8) #4
  invoke void @_ZNSt7__cxx1112basic_stringIcSt11char_traitsIcESaIcEEC2IS3_EEPKcRKS3_(ptr noundef nonnull align 8 dereferenceable(32) %arrayinit.begin, ptr noundef @.str.7, ptr noundef nonnull align 1 dereferenceable(1) %ref.tmp8)
          to label %invoke.cont10 unwind label %lpad9

invoke.cont10:                                    ; preds = %invoke.cont4
  %arrayinit.element = getelementptr inbounds %"class.std::__cxx11::basic_string", ptr %arrayinit.begin, i64 1
  store ptr %arrayinit.element, ptr %arrayinit.endOfInit, align 8
  call void @_ZNSaIcEC1Ev(ptr noundef nonnull align 1 dereferenceable(1) %ref.tmp11) #4
  invoke void @_ZNSt7__cxx1112basic_stringIcSt11char_traitsIcESaIcEEC2IS3_EEPKcRKS3_(ptr noundef nonnull align 8 dereferenceable(32) %arrayinit.element, ptr noundef @.str.8, ptr noundef nonnull align 1 dereferenceable(1) %ref.tmp11)
          to label %invoke.cont13 unwind label %lpad12

invoke.cont13:                                    ; preds = %invoke.cont10
  store i1 false, ptr %cleanup.isactive, align 1
  %_M_array = getelementptr inbounds %"class.std::initializer_list", ptr %agg.tmp6, i32 0, i32 0
  %arraystart = getelementptr inbounds [2 x %"class.std::__cxx11::basic_string"], ptr %ref.tmp7, i64 0, i64 0
  store ptr %arraystart, ptr %_M_array, align 8
  %_M_len = getelementptr inbounds %"class.std::initializer_list", ptr %agg.tmp6, i32 0, i32 1
  store i64 2, ptr %_M_len, align 8
  call void @_ZNSaINSt7__cxx1112basic_stringIcSt11char_traitsIcESaIcEEEEC2Ev(ptr noundef nonnull align 1 dereferenceable(1) %ref.tmp14) #4
  %0 = getelementptr inbounds { ptr, i64 }, ptr %agg.tmp6, i32 0, i32 0
  %1 = load ptr, ptr %0, align 8
  %2 = getelementptr inbounds { ptr, i64 }, ptr %agg.tmp6, i32 0, i32 1
  %3 = load i64, ptr %2, align 8
  invoke void @_ZNSt6vectorINSt7__cxx1112basic_stringIcSt11char_traitsIcESaIcEEESaIS5_EEC2ESt16initializer_listIS5_ERKS6_(ptr noundef nonnull align 8 dereferenceable(24) %agg.tmp5, ptr %1, i64 %3, ptr noundef nonnull align 1 dereferenceable(1) %ref.tmp14)
          to label %invoke.cont16 unwind label %lpad15

invoke.cont16:                                    ; preds = %invoke.cont13
  call void @_ZNSaIcEC1Ev(ptr noundef nonnull align 1 dereferenceable(1) %ref.tmp18) #4
  invoke void @_ZNSt7__cxx1112basic_stringIcSt11char_traitsIcESaIcEEC2IS3_EEPKcRKS3_(ptr noundef nonnull align 8 dereferenceable(32) %agg.tmp17, ptr noundef @.str.9, ptr noundef nonnull align 1 dereferenceable(1) %ref.tmp18)
          to label %invoke.cont20 unwind label %lpad19

invoke.cont20:                                    ; preds = %invoke.cont16
  invoke void @_ZN5arrow7compute11FunctionDocC2ENSt7__cxx1112basic_stringIcSt11char_traitsIcESaIcEEES7_St6vectorIS7_SaIS7_EES7_b(ptr noundef nonnull align 8 dereferenceable(121) @_ZN5arrow7compute8internal12_GLOBAL__N_116array_filter_docE, ptr noundef %agg.tmp, ptr noundef %agg.tmp1, ptr noundef %agg.tmp5, ptr noundef %agg.tmp17, i1 noundef zeroext false)
          to label %invoke.cont22 unwind label %lpad21

invoke.cont22:                                    ; preds = %invoke.cont20
  call void @_ZNSt7__cxx1112basic_stringIcSt11char_traitsIcESaIcEED1Ev(ptr noundef nonnull align 8 dereferenceable(32) %agg.tmp17) #4
  call void @_ZNSaIcED1Ev(ptr noundef nonnull align 1 dereferenceable(1) %ref.tmp18) #4
  call void @_ZNSt6vectorINSt7__cxx1112basic_stringIcSt11char_traitsIcESaIcEEESaIS5_EED2Ev(ptr noundef nonnull align 8 dereferenceable(24) %agg.tmp5) #4
  call void @_ZNSaINSt7__cxx1112basic_stringIcSt11char_traitsIcESaIcEEEED2Ev(ptr noundef nonnull align 1 dereferenceable(1) %ref.tmp14) #4
  %array.begin = getelementptr inbounds [2 x %"class.std::__cxx11::basic_string"], ptr %ref.tmp7, i32 0, i32 0
  %4 = getelementptr inbounds %"class.std::__cxx11::basic_string", ptr %array.begin, i64 2
  br label %arraydestroy.body

arraydestroy.body:                                ; preds = %arraydestroy.body, %invoke.cont22
  %arraydestroy.elementPast = phi ptr [ %4, %invoke.cont22 ], [ %arraydestroy.element, %arraydestroy.body ]
  %arraydestroy.element = getelementptr inbounds %"class.std::__cxx11::basic_string", ptr %arraydestroy.elementPast, i64 -1
  call void @_ZNSt7__cxx1112basic_stringIcSt11char_traitsIcESaIcEED1Ev(ptr noundef nonnull align 8 dereferenceable(32) %arraydestroy.element) #4
  %arraydestroy.done = icmp eq ptr %arraydestroy.element, %array.begin
  br i1 %arraydestroy.done, label %arraydestroy.done25, label %arraydestroy.body

arraydestroy.done25:                              ; preds = %arraydestroy.body
  call void @_ZNSaIcED1Ev(ptr noundef nonnull align 1 dereferenceable(1) %ref.tmp11) #4
  call void @_ZNSaIcED1Ev(ptr noundef nonnull align 1 dereferenceable(1) %ref.tmp8) #4
  call void @_ZNSt7__cxx1112basic_stringIcSt11char_traitsIcESaIcEED1Ev(ptr noundef nonnull align 8 dereferenceable(32) %agg.tmp1) #4
  call void @_ZNSaIcED1Ev(ptr noundef nonnull align 1 dereferenceable(1) %ref.tmp2) #4
  call void @_ZNSt7__cxx1112basic_stringIcSt11char_traitsIcESaIcEED1Ev(ptr noundef nonnull align 8 dereferenceable(32) %agg.tmp) #4
  call void @_ZNSaIcED1Ev(ptr noundef nonnull align 1 dereferenceable(1) %ref.tmp) #4
  %5 = call i32 @__cxa_atexit(ptr @_ZN5arrow7compute11FunctionDocD2Ev, ptr @_ZN5arrow7compute8internal12_GLOBAL__N_116array_filter_docE, ptr @__dso_handle) #4
  ret void

lpad:                                             ; preds = %entry
  %6 = landingpad { ptr, i32 }
          cleanup
  %7 = extractvalue { ptr, i32 } %6, 0
  store ptr %7, ptr %exn.slot, align 8
  %8 = extractvalue { ptr, i32 } %6, 1
  store i32 %8, ptr %ehselector.slot, align 4
  br label %ehcleanup44

lpad3:                                            ; preds = %invoke.cont
  %9 = landingpad { ptr, i32 }
          cleanup
  %10 = extractvalue { ptr, i32 } %9, 0
  store ptr %10, ptr %exn.slot, align 8
  %11 = extractvalue { ptr, i32 } %9, 1
  store i32 %11, ptr %ehselector.slot, align 4
  br label %ehcleanup42

lpad9:                                            ; preds = %invoke.cont4
  %12 = landingpad { ptr, i32 }
          cleanup
  %13 = extractvalue { ptr, i32 } %12, 0
  store ptr %13, ptr %exn.slot, align 8
  %14 = extractvalue { ptr, i32 } %12, 1
  store i32 %14, ptr %ehselector.slot, align 4
  br label %ehcleanup34

lpad12:                                           ; preds = %invoke.cont10
  %15 = landingpad { ptr, i32 }
          cleanup
  %16 = extractvalue { ptr, i32 } %15, 0
  store ptr %16, ptr %exn.slot, align 8
  %17 = extractvalue { ptr, i32 } %15, 1
  store i32 %17, ptr %ehselector.slot, align 4
  br label %ehcleanup33

lpad15:                                           ; preds = %invoke.cont13
  %18 = landingpad { ptr, i32 }
          cleanup
  %19 = extractvalue { ptr, i32 } %18, 0
  store ptr %19, ptr %exn.slot, align 8
  %20 = extractvalue { ptr, i32 } %18, 1
  store i32 %20, ptr %ehselector.slot, align 4
  br label %ehcleanup24

lpad19:                                           ; preds = %invoke.cont16
  %21 = landingpad { ptr, i32 }
          cleanup
  %22 = extractvalue { ptr, i32 } %21, 0
  store ptr %22, ptr %exn.slot, align 8
  %23 = extractvalue { ptr, i32 } %21, 1
  store i32 %23, ptr %ehselector.slot, align 4
  br label %ehcleanup

lpad21:                                           ; preds = %invoke.cont20
  %24 = landingpad { ptr, i32 }
          cleanup
  %25 = extractvalue { ptr, i32 } %24, 0
  store ptr %25, ptr %exn.slot, align 8
  %26 = extractvalue { ptr, i32 } %24, 1
  store i32 %26, ptr %ehselector.slot, align 4
  call void @_ZNSt7__cxx1112basic_stringIcSt11char_traitsIcESaIcEED1Ev(ptr noundef nonnull align 8 dereferenceable(32) %agg.tmp17) #4
  br label %ehcleanup

ehcleanup:                                        ; preds = %lpad21, %lpad19
  call void @_ZNSaIcED1Ev(ptr noundef nonnull align 1 dereferenceable(1) %ref.tmp18) #4
  call void @_ZNSt6vectorINSt7__cxx1112basic_stringIcSt11char_traitsIcESaIcEEESaIS5_EED2Ev(ptr noundef nonnull align 8 dereferenceable(24) %agg.tmp5) #4
  br label %ehcleanup24

ehcleanup24:                                      ; preds = %ehcleanup, %lpad15
  call void @_ZNSaINSt7__cxx1112basic_stringIcSt11char_traitsIcESaIcEEEED2Ev(ptr noundef nonnull align 1 dereferenceable(1) %ref.tmp14) #4
  %array.begin27 = getelementptr inbounds [2 x %"class.std::__cxx11::basic_string"], ptr %ref.tmp7, i32 0, i32 0
  %27 = getelementptr inbounds %"class.std::__cxx11::basic_string", ptr %array.begin27, i64 2
  br label %arraydestroy.body28

arraydestroy.body28:                              ; preds = %arraydestroy.body28, %ehcleanup24
  %arraydestroy.elementPast29 = phi ptr [ %27, %ehcleanup24 ], [ %arraydestroy.element30, %arraydestroy.body28 ]
  %arraydestroy.element30 = getelementptr inbounds %"class.std::__cxx11::basic_string", ptr %arraydestroy.elementPast29, i64 -1
  call void @_ZNSt7__cxx1112basic_stringIcSt11char_traitsIcESaIcEED1Ev(ptr noundef nonnull align 8 dereferenceable(32) %arraydestroy.element30) #4
  %arraydestroy.done31 = icmp eq ptr %arraydestroy.element30, %array.begin27
  br i1 %arraydestroy.done31, label %arraydestroy.done32, label %arraydestroy.body28

arraydestroy.done32:                              ; preds = %arraydestroy.body28
  br label %ehcleanup33

ehcleanup33:                                      ; preds = %arraydestroy.done32, %lpad12
  call void @_ZNSaIcED1Ev(ptr noundef nonnull align 1 dereferenceable(1) %ref.tmp11) #4
  br label %ehcleanup34

ehcleanup34:                                      ; preds = %ehcleanup33, %lpad9
  call void @_ZNSaIcED1Ev(ptr noundef nonnull align 1 dereferenceable(1) %ref.tmp8) #4
  %cleanup.is_active = load i1, ptr %cleanup.isactive, align 1
  br i1 %cleanup.is_active, label %cleanup.action, label %cleanup.done

cleanup.action:                                   ; preds = %ehcleanup34
  %28 = load ptr, ptr %arrayinit.endOfInit, align 8
  %arraydestroy.isempty = icmp eq ptr %arrayinit.begin, %28
  br i1 %arraydestroy.isempty, label %arraydestroy.done40, label %arraydestroy.body36

arraydestroy.body36:                              ; preds = %arraydestroy.body36, %cleanup.action
  %arraydestroy.elementPast37 = phi ptr [ %28, %cleanup.action ], [ %arraydestroy.element38, %arraydestroy.body36 ]
  %arraydestroy.element38 = getelementptr inbounds %"class.std::__cxx11::basic_string", ptr %arraydestroy.elementPast37, i64 -1
  call void @_ZNSt7__cxx1112basic_stringIcSt11char_traitsIcESaIcEED1Ev(ptr noundef nonnull align 8 dereferenceable(32) %arraydestroy.element38) #4
  %arraydestroy.done39 = icmp eq ptr %arraydestroy.element38, %arrayinit.begin
  br i1 %arraydestroy.done39, label %arraydestroy.done40, label %arraydestroy.body36

arraydestroy.done40:                              ; preds = %arraydestroy.body36, %cleanup.action
  br label %cleanup.done

cleanup.done:                                     ; preds = %arraydestroy.done40, %ehcleanup34
  call void @_ZNSt7__cxx1112basic_stringIcSt11char_traitsIcESaIcEED1Ev(ptr noundef nonnull align 8 dereferenceable(32) %agg.tmp1) #4
  br label %ehcleanup42

ehcleanup42:                                      ; preds = %cleanup.done, %lpad3
  call void @_ZNSaIcED1Ev(ptr noundef nonnull align 1 dereferenceable(1) %ref.tmp2) #4
  call void @_ZNSt7__cxx1112basic_stringIcSt11char_traitsIcESaIcEED1Ev(ptr noundef nonnull align 8 dereferenceable(32) %agg.tmp) #4
  br label %ehcleanup44

ehcleanup44:                                      ; preds = %ehcleanup42, %lpad
  call void @_ZNSaIcED1Ev(ptr noundef nonnull align 1 dereferenceable(1) %ref.tmp) #4
  br label %eh.resume

eh.resume:                                        ; preds = %ehcleanup44
  %exn = load ptr, ptr %exn.slot, align 8
  %sel = load i32, ptr %ehselector.slot, align 4
  %lpad.val = insertvalue { ptr, i32 } poison, ptr %exn, 0
  %lpad.val45 = insertvalue { ptr, i32 } %lpad.val, i32 %sel, 1
  resume { ptr, i32 } %lpad.val45
}

; Function Attrs: uwtable
define internal void @__cxx_global_var_init.10() #0 section ".text.startup" personality ptr @__gxx_personality_v0 {
entry:
  %agg.tmp = alloca %"class.std::__cxx11::basic_string", align 8
  %ref.tmp = alloca %"class.std::allocator", align 1
  %exn.slot = alloca ptr, align 8
  %ehselector.slot = alloca i32, align 4
  %agg.tmp1 = alloca %"class.std::__cxx11::basic_string", align 8
  %ref.tmp2 = alloca %"class.std::allocator", align 1
  %agg.tmp5 = alloca %"class.std::vector", align 8
  %agg.tmp6 = alloca %"class.std::initializer_list", align 8
  %ref.tmp7 = alloca [2 x %"class.std::__cxx11::basic_string"], align 8
  %arrayinit.endOfInit = alloca ptr, align 8
  %ref.tmp8 = alloca %"class.std::allocator", align 1
  %ref.tmp11 = alloca %"class.std::allocator", align 1
  %cleanup.isactive = alloca i1, align 1
  %ref.tmp14 = alloca %"class.std::allocator.0", align 1
  %agg.tmp17 = alloca %"class.std::__cxx11::basic_string", align 8
  %ref.tmp18 = alloca %"class.std::allocator", align 1
  call void @_ZNSaIcEC1Ev(ptr noundef nonnull align 1 dereferenceable(1) %ref.tmp) #4
  invoke void @_ZNSt7__cxx1112basic_stringIcSt11char_traitsIcESaIcEEC2IS3_EEPKcRKS3_(ptr noundef nonnull align 8 dereferenceable(32) %agg.tmp, ptr noundef @.str.11, ptr noundef nonnull align 1 dereferenceable(1) %ref.tmp)
          to label %invoke.cont unwind label %lpad

invoke.cont:                                      ; preds = %entry
  call void @_ZNSaIcEC1Ev(ptr noundef nonnull align 1 dereferenceable(1) %ref.tmp2) #4
  invoke void @_ZNSt7__cxx1112basic_stringIcSt11char_traitsIcESaIcEEC2IS3_EEPKcRKS3_(ptr noundef nonnull align 8 dereferenceable(32) %agg.tmp1, ptr noundef @.str.12, ptr noundef nonnull align 1 dereferenceable(1) %ref.tmp2)
          to label %invoke.cont4 unwind label %lpad3

invoke.cont4:                                     ; preds = %invoke.cont
  %arrayinit.begin = getelementptr inbounds [2 x %"class.std::__cxx11::basic_string"], ptr %ref.tmp7, i64 0, i64 0
  store i1 true, ptr %cleanup.isactive, align 1
  store ptr %arrayinit.begin, ptr %arrayinit.endOfInit, align 8
  call void @_ZNSaIcEC1Ev(ptr noundef nonnull align 1 dereferenceable(1) %ref.tmp8) #4
  invoke void @_ZNSt7__cxx1112basic_stringIcSt11char_traitsIcESaIcEEC2IS3_EEPKcRKS3_(ptr noundef nonnull align 8 dereferenceable(32) %arrayinit.begin, ptr noundef @.str.7, ptr noundef nonnull align 1 dereferenceable(1) %ref.tmp8)
          to label %invoke.cont10 unwind label %lpad9

invoke.cont10:                                    ; preds = %invoke.cont4
  %arrayinit.element = getelementptr inbounds %"class.std::__cxx11::basic_string", ptr %arrayinit.begin, i64 1
  store ptr %arrayinit.element, ptr %arrayinit.endOfInit, align 8
  call void @_ZNSaIcEC1Ev(ptr noundef nonnull align 1 dereferenceable(1) %ref.tmp11) #4
  invoke void @_ZNSt7__cxx1112basic_stringIcSt11char_traitsIcESaIcEEC2IS3_EEPKcRKS3_(ptr noundef nonnull align 8 dereferenceable(32) %arrayinit.element, ptr noundef @.str.13, ptr noundef nonnull align 1 dereferenceable(1) %ref.tmp11)
          to label %invoke.cont13 unwind label %lpad12

invoke.cont13:                                    ; preds = %invoke.cont10
  store i1 false, ptr %cleanup.isactive, align 1
  %_M_array = getelementptr inbounds %"class.std::initializer_list", ptr %agg.tmp6, i32 0, i32 0
  %arraystart = getelementptr inbounds [2 x %"class.std::__cxx11::basic_string"], ptr %ref.tmp7, i64 0, i64 0
  store ptr %arraystart, ptr %_M_array, align 8
  %_M_len = getelementptr inbounds %"class.std::initializer_list", ptr %agg.tmp6, i32 0, i32 1
  store i64 2, ptr %_M_len, align 8
  call void @_ZNSaINSt7__cxx1112basic_stringIcSt11char_traitsIcESaIcEEEEC2Ev(ptr noundef nonnull align 1 dereferenceable(1) %ref.tmp14) #4
  %0 = getelementptr inbounds { ptr, i64 }, ptr %agg.tmp6, i32 0, i32 0
  %1 = load ptr, ptr %0, align 8
  %2 = getelementptr inbounds { ptr, i64 }, ptr %agg.tmp6, i32 0, i32 1
  %3 = load i64, ptr %2, align 8
  invoke void @_ZNSt6vectorINSt7__cxx1112basic_stringIcSt11char_traitsIcESaIcEEESaIS5_EEC2ESt16initializer_listIS5_ERKS6_(ptr noundef nonnull align 8 dereferenceable(24) %agg.tmp5, ptr %1, i64 %3, ptr noundef nonnull align 1 dereferenceable(1) %ref.tmp14)
          to label %invoke.cont16 unwind label %lpad15

invoke.cont16:                                    ; preds = %invoke.cont13
  call void @_ZNSaIcEC1Ev(ptr noundef nonnull align 1 dereferenceable(1) %ref.tmp18) #4
  invoke void @_ZNSt7__cxx1112basic_stringIcSt11char_traitsIcESaIcEEC2IS3_EEPKcRKS3_(ptr noundef nonnull align 8 dereferenceable(32) %agg.tmp17, ptr noundef @.str.14, ptr noundef nonnull align 1 dereferenceable(1) %ref.tmp18)
          to label %invoke.cont20 unwind label %lpad19

invoke.cont20:                                    ; preds = %invoke.cont16
  invoke void @_ZN5arrow7compute11FunctionDocC2ENSt7__cxx1112basic_stringIcSt11char_traitsIcESaIcEEES7_St6vectorIS7_SaIS7_EES7_b(ptr noundef nonnull align 8 dereferenceable(121) @_ZN5arrow7compute8internal12_GLOBAL__N_114array_take_docE, ptr noundef %agg.tmp, ptr noundef %agg.tmp1, ptr noundef %agg.tmp5, ptr noundef %agg.tmp17, i1 noundef zeroext false)
          to label %invoke.cont22 unwind label %lpad21

invoke.cont22:                                    ; preds = %invoke.cont20
  call void @_ZNSt7__cxx1112basic_stringIcSt11char_traitsIcESaIcEED1Ev(ptr noundef nonnull align 8 dereferenceable(32) %agg.tmp17) #4
  call void @_ZNSaIcED1Ev(ptr noundef nonnull align 1 dereferenceable(1) %ref.tmp18) #4
  call void @_ZNSt6vectorINSt7__cxx1112basic_stringIcSt11char_traitsIcESaIcEEESaIS5_EED2Ev(ptr noundef nonnull align 8 dereferenceable(24) %agg.tmp5) #4
  call void @_ZNSaINSt7__cxx1112basic_stringIcSt11char_traitsIcESaIcEEEED2Ev(ptr noundef nonnull align 1 dereferenceable(1) %ref.tmp14) #4
  %array.begin = getelementptr inbounds [2 x %"class.std::__cxx11::basic_string"], ptr %ref.tmp7, i32 0, i32 0
  %4 = getelementptr inbounds %"class.std::__cxx11::basic_string", ptr %array.begin, i64 2
  br label %arraydestroy.body

arraydestroy.body:                                ; preds = %arraydestroy.body, %invoke.cont22
  %arraydestroy.elementPast = phi ptr [ %4, %invoke.cont22 ], [ %arraydestroy.element, %arraydestroy.body ]
  %arraydestroy.element = getelementptr inbounds %"class.std::__cxx11::basic_string", ptr %arraydestroy.elementPast, i64 -1
  call void @_ZNSt7__cxx1112basic_stringIcSt11char_traitsIcESaIcEED1Ev(ptr noundef nonnull align 8 dereferenceable(32) %arraydestroy.element) #4
  %arraydestroy.done = icmp eq ptr %arraydestroy.element, %array.begin
  br i1 %arraydestroy.done, label %arraydestroy.done25, label %arraydestroy.body

arraydestroy.done25:                              ; preds = %arraydestroy.body
  call void @_ZNSaIcED1Ev(ptr noundef nonnull align 1 dereferenceable(1) %ref.tmp11) #4
  call void @_ZNSaIcED1Ev(ptr noundef nonnull align 1 dereferenceable(1) %ref.tmp8) #4
  call void @_ZNSt7__cxx1112basic_stringIcSt11char_traitsIcESaIcEED1Ev(ptr noundef nonnull align 8 dereferenceable(32) %agg.tmp1) #4
  call void @_ZNSaIcED1Ev(ptr noundef nonnull align 1 dereferenceable(1) %ref.tmp2) #4
  call void @_ZNSt7__cxx1112basic_stringIcSt11char_traitsIcESaIcEED1Ev(ptr noundef nonnull align 8 dereferenceable(32) %agg.tmp) #4
  call void @_ZNSaIcED1Ev(ptr noundef nonnull align 1 dereferenceable(1) %ref.tmp) #4
  %5 = call i32 @__cxa_atexit(ptr @_ZN5arrow7compute11FunctionDocD2Ev, ptr @_ZN5arrow7compute8internal12_GLOBAL__N_114array_take_docE, ptr @__dso_handle) #4
  ret void

lpad:                                             ; preds = %entry
  %6 = landingpad { ptr, i32 }
          cleanup
  %7 = extractvalue { ptr, i32 } %6, 0
  store ptr %7, ptr %exn.slot, align 8
  %8 = extractvalue { ptr, i32 } %6, 1
  store i32 %8, ptr %ehselector.slot, align 4
  br label %ehcleanup44

lpad3:                                            ; preds = %invoke.cont
  %9 = landingpad { ptr, i32 }
          cleanup
  %10 = extractvalue { ptr, i32 } %9, 0
  store ptr %10, ptr %exn.slot, align 8
  %11 = extractvalue { ptr, i32 } %9, 1
  store i32 %11, ptr %ehselector.slot, align 4
  br label %ehcleanup42

lpad9:                                            ; preds = %invoke.cont4
  %12 = landingpad { ptr, i32 }
          cleanup
  %13 = extractvalue { ptr, i32 } %12, 0
  store ptr %13, ptr %exn.slot, align 8
  %14 = extractvalue { ptr, i32 } %12, 1
  store i32 %14, ptr %ehselector.slot, align 4
  br label %ehcleanup34

lpad12:                                           ; preds = %invoke.cont10
  %15 = landingpad { ptr, i32 }
          cleanup
  %16 = extractvalue { ptr, i32 } %15, 0
  store ptr %16, ptr %exn.slot, align 8
  %17 = extractvalue { ptr, i32 } %15, 1
  store i32 %17, ptr %ehselector.slot, align 4
  br label %ehcleanup33

lpad15:                                           ; preds = %invoke.cont13
  %18 = landingpad { ptr, i32 }
          cleanup
  %19 = extractvalue { ptr, i32 } %18, 0
  store ptr %19, ptr %exn.slot, align 8
  %20 = extractvalue { ptr, i32 } %18, 1
  store i32 %20, ptr %ehselector.slot, align 4
  br label %ehcleanup24

lpad19:                                           ; preds = %invoke.cont16
  %21 = landingpad { ptr, i32 }
          cleanup
  %22 = extractvalue { ptr, i32 } %21, 0
  store ptr %22, ptr %exn.slot, align 8
  %23 = extractvalue { ptr, i32 } %21, 1
  store i32 %23, ptr %ehselector.slot, align 4
  br label %ehcleanup

lpad21:                                           ; preds = %invoke.cont20
  %24 = landingpad { ptr, i32 }
          cleanup
  %25 = extractvalue { ptr, i32 } %24, 0
  store ptr %25, ptr %exn.slot, align 8
  %26 = extractvalue { ptr, i32 } %24, 1
  store i32 %26, ptr %ehselector.slot, align 4
  call void @_ZNSt7__cxx1112basic_stringIcSt11char_traitsIcESaIcEED1Ev(ptr noundef nonnull align 8 dereferenceable(32) %agg.tmp17) #4
  br label %ehcleanup

ehcleanup:                                        ; preds = %lpad21, %lpad19
  call void @_ZNSaIcED1Ev(ptr noundef nonnull align 1 dereferenceable(1) %ref.tmp18) #4
  call void @_ZNSt6vectorINSt7__cxx1112basic_stringIcSt11char_traitsIcESaIcEEESaIS5_EED2Ev(ptr noundef nonnull align 8 dereferenceable(24) %agg.tmp5) #4
  br label %ehcleanup24

ehcleanup24:                                      ; preds = %ehcleanup, %lpad15
  call void @_ZNSaINSt7__cxx1112basic_stringIcSt11char_traitsIcESaIcEEEED2Ev(ptr noundef nonnull align 1 dereferenceable(1) %ref.tmp14) #4
  %array.begin27 = getelementptr inbounds [2 x %"class.std::__cxx11::basic_string"], ptr %ref.tmp7, i32 0, i32 0
  %27 = getelementptr inbounds %"class.std::__cxx11::basic_string", ptr %array.begin27, i64 2
  br label %arraydestroy.body28

arraydestroy.body28:                              ; preds = %arraydestroy.body28, %ehcleanup24
  %arraydestroy.elementPast29 = phi ptr [ %27, %ehcleanup24 ], [ %arraydestroy.element30, %arraydestroy.body28 ]
  %arraydestroy.element30 = getelementptr inbounds %"class.std::__cxx11::basic_string", ptr %arraydestroy.elementPast29, i64 -1
  call void @_ZNSt7__cxx1112basic_stringIcSt11char_traitsIcESaIcEED1Ev(ptr noundef nonnull align 8 dereferenceable(32) %arraydestroy.element30) #4
  %arraydestroy.done31 = icmp eq ptr %arraydestroy.element30, %array.begin27
  br i1 %arraydestroy.done31, label %arraydestroy.done32, label %arraydestroy.body28

arraydestroy.done32:                              ; preds = %arraydestroy.body28
  br label %ehcleanup33

ehcleanup33:                                      ; preds = %arraydestroy.done32, %lpad12
  call void @_ZNSaIcED1Ev(ptr noundef nonnull align 1 dereferenceable(1) %ref.tmp11) #4
  br label %ehcleanup34

ehcleanup34:                                      ; preds = %ehcleanup33, %lpad9
  call void @_ZNSaIcED1Ev(ptr noundef nonnull align 1 dereferenceable(1) %ref.tmp8) #4
  %cleanup.is_active = load i1, ptr %cleanup.isactive, align 1
  br i1 %cleanup.is_active, label %cleanup.action, label %cleanup.done

cleanup.action:                                   ; preds = %ehcleanup34
  %28 = load ptr, ptr %arrayinit.endOfInit, align 8
  %arraydestroy.isempty = icmp eq ptr %arrayinit.begin, %28
  br i1 %arraydestroy.isempty, label %arraydestroy.done40, label %arraydestroy.body36

arraydestroy.body36:                              ; preds = %arraydestroy.body36, %cleanup.action
  %arraydestroy.elementPast37 = phi ptr [ %28, %cleanup.action ], [ %arraydestroy.element38, %arraydestroy.body36 ]
  %arraydestroy.element38 = getelementptr inbounds %"class.std::__cxx11::basic_string", ptr %arraydestroy.elementPast37, i64 -1
  call void @_ZNSt7__cxx1112basic_stringIcSt11char_traitsIcESaIcEED1Ev(ptr noundef nonnull align 8 dereferenceable(32) %arraydestroy.element38) #4
  %arraydestroy.done39 = icmp eq ptr %arraydestroy.element38, %arrayinit.begin
  br i1 %arraydestroy.done39, label %arraydestroy.done40, label %arraydestroy.body36

arraydestroy.done40:                              ; preds = %arraydestroy.body36, %cleanup.action
  br label %cleanup.done

cleanup.done:                                     ; preds = %arraydestroy.done40, %ehcleanup34
  call void @_ZNSt7__cxx1112basic_stringIcSt11char_traitsIcESaIcEED1Ev(ptr noundef nonnull align 8 dereferenceable(32) %agg.tmp1) #4
  br label %ehcleanup42

ehcleanup42:                                      ; preds = %cleanup.done, %lpad3
  call void @_ZNSaIcED1Ev(ptr noundef nonnull align 1 dereferenceable(1) %ref.tmp2) #4
  call void @_ZNSt7__cxx1112basic_stringIcSt11char_traitsIcESaIcEED1Ev(ptr noundef nonnull align 8 dereferenceable(32) %agg.tmp) #4
  br label %ehcleanup44

ehcleanup44:                                      ; preds = %ehcleanup42, %lpad
  call void @_ZNSaIcED1Ev(ptr noundef nonnull align 1 dereferenceable(1) %ref.tmp) #4
  br label %eh.resume

eh.resume:                                        ; preds = %ehcleanup44
  %exn = load ptr, ptr %exn.slot, align 8
  %sel = load i32, ptr %ehselector.slot, align 4
  %lpad.val = insertvalue { ptr, i32 } poison, ptr %exn, 0
  %lpad.val45 = insertvalue { ptr, i32 } %lpad.val, i32 %sel, 1
  resume { ptr, i32 } %lpad.val45
}

; Function Attrs: uwtable
define internal void @__cxx_global_var_init.15() #0 section ".text.startup" personality ptr @__gxx_personality_v0 {
entry:
  %agg.tmp = alloca %"class.std::__cxx11::basic_string", align 8
  %ref.tmp = alloca %"class.std::allocator", align 1
  %exn.slot = alloca ptr, align 8
  %ehselector.slot = alloca i32, align 4
  %agg.tmp1 = alloca %"class.std::__cxx11::basic_string", align 8
  %ref.tmp2 = alloca %"class.std::allocator", align 1
  %agg.tmp5 = alloca %"class.std::vector", align 8
  %agg.tmp6 = alloca %"class.std::initializer_list", align 8
  %ref.tmp7 = alloca [1 x %"class.std::__cxx11::basic_string"], align 8
  %arrayinit.endOfInit = alloca ptr, align 8
  %ref.tmp8 = alloca %"class.std::allocator", align 1
  %cleanup.isactive = alloca i1, align 1
  %ref.tmp11 = alloca %"class.std::allocator.0", align 1
  %agg.tmp14 = alloca %"class.std::__cxx11::basic_string", align 8
  %ref.tmp15 = alloca %"class.std::allocator", align 1
  call void @_ZNSaIcEC1Ev(ptr noundef nonnull align 1 dereferenceable(1) %ref.tmp) #4
  invoke void @_ZNSt7__cxx1112basic_stringIcSt11char_traitsIcESaIcEEC2IS3_EEPKcRKS3_(ptr noundef nonnull align 8 dereferenceable(32) %agg.tmp, ptr noundef @.str.16, ptr noundef nonnull align 1 dereferenceable(1) %ref.tmp)
          to label %invoke.cont unwind label %lpad

invoke.cont:                                      ; preds = %entry
  call void @_ZNSaIcEC1Ev(ptr noundef nonnull align 1 dereferenceable(1) %ref.tmp2) #4
  invoke void @_ZNSt7__cxx1112basic_stringIcSt11char_traitsIcESaIcEEC2IS3_EEPKcRKS3_(ptr noundef nonnull align 8 dereferenceable(32) %agg.tmp1, ptr noundef @.str.17, ptr noundef nonnull align 1 dereferenceable(1) %ref.tmp2)
          to label %invoke.cont4 unwind label %lpad3

invoke.cont4:                                     ; preds = %invoke.cont
  %arrayinit.begin = getelementptr inbounds [1 x %"class.std::__cxx11::basic_string"], ptr %ref.tmp7, i64 0, i64 0
  store i1 true, ptr %cleanup.isactive, align 1
  store ptr %arrayinit.begin, ptr %arrayinit.endOfInit, align 8
  call void @_ZNSaIcEC1Ev(ptr noundef nonnull align 1 dereferenceable(1) %ref.tmp8) #4
  invoke void @_ZNSt7__cxx1112basic_stringIcSt11char_traitsIcESaIcEEC2IS3_EEPKcRKS3_(ptr noundef nonnull align 8 dereferenceable(32) %arrayinit.begin, ptr noundef @.str.18, ptr noundef nonnull align 1 dereferenceable(1) %ref.tmp8)
          to label %invoke.cont10 unwind label %lpad9

invoke.cont10:                                    ; preds = %invoke.cont4
  store i1 false, ptr %cleanup.isactive, align 1
  %_M_array = getelementptr inbounds %"class.std::initializer_list", ptr %agg.tmp6, i32 0, i32 0
  %arraystart = getelementptr inbounds [1 x %"class.std::__cxx11::basic_string"], ptr %ref.tmp7, i64 0, i64 0
  store ptr %arraystart, ptr %_M_array, align 8
  %_M_len = getelementptr inbounds %"class.std::initializer_list", ptr %agg.tmp6, i32 0, i32 1
  store i64 1, ptr %_M_len, align 8
  call void @_ZNSaINSt7__cxx1112basic_stringIcSt11char_traitsIcESaIcEEEEC2Ev(ptr noundef nonnull align 1 dereferenceable(1) %ref.tmp11) #4
  %0 = getelementptr inbounds { ptr, i64 }, ptr %agg.tmp6, i32 0, i32 0
  %1 = load ptr, ptr %0, align 8
  %2 = getelementptr inbounds { ptr, i64 }, ptr %agg.tmp6, i32 0, i32 1
  %3 = load i64, ptr %2, align 8
  invoke void @_ZNSt6vectorINSt7__cxx1112basic_stringIcSt11char_traitsIcESaIcEEESaIS5_EEC2ESt16initializer_listIS5_ERKS6_(ptr noundef nonnull align 8 dereferenceable(24) %agg.tmp5, ptr %1, i64 %3, ptr noundef nonnull align 1 dereferenceable(1) %ref.tmp11)
          to label %invoke.cont13 unwind label %lpad12

invoke.cont13:                                    ; preds = %invoke.cont10
  call void @_ZNSaIcEC1Ev(ptr noundef nonnull align 1 dereferenceable(1) %ref.tmp15) #4
  invoke void @_ZNSt7__cxx1112basic_stringIcSt11char_traitsIcESaIcEEC2IS3_EEPKcRKS3_(ptr noundef nonnull align 8 dereferenceable(32) %agg.tmp14, ptr noundef @.str.3, ptr noundef nonnull align 1 dereferenceable(1) %ref.tmp15)
          to label %invoke.cont17 unwind label %lpad16

invoke.cont17:                                    ; preds = %invoke.cont13
  invoke void @_ZN5arrow7compute11FunctionDocC2ENSt7__cxx1112basic_stringIcSt11char_traitsIcESaIcEEES7_St6vectorIS7_SaIS7_EES7_b(ptr noundef nonnull align 8 dereferenceable(121) @_ZN5arrow7compute8internal12_GLOBAL__N_119indices_nonzero_docE, ptr noundef %agg.tmp, ptr noundef %agg.tmp1, ptr noundef %agg.tmp5, ptr noundef %agg.tmp14, i1 noundef zeroext false)
          to label %invoke.cont19 unwind label %lpad18

invoke.cont19:                                    ; preds = %invoke.cont17
  call void @_ZNSt7__cxx1112basic_stringIcSt11char_traitsIcESaIcEED1Ev(ptr noundef nonnull align 8 dereferenceable(32) %agg.tmp14) #4
  call void @_ZNSaIcED1Ev(ptr noundef nonnull align 1 dereferenceable(1) %ref.tmp15) #4
  call void @_ZNSt6vectorINSt7__cxx1112basic_stringIcSt11char_traitsIcESaIcEEESaIS5_EED2Ev(ptr noundef nonnull align 8 dereferenceable(24) %agg.tmp5) #4
  call void @_ZNSaINSt7__cxx1112basic_stringIcSt11char_traitsIcESaIcEEEED2Ev(ptr noundef nonnull align 1 dereferenceable(1) %ref.tmp11) #4
  %array.begin = getelementptr inbounds [1 x %"class.std::__cxx11::basic_string"], ptr %ref.tmp7, i32 0, i32 0
  %4 = getelementptr inbounds %"class.std::__cxx11::basic_string", ptr %array.begin, i64 1
  br label %arraydestroy.body

arraydestroy.body:                                ; preds = %arraydestroy.body, %invoke.cont19
  %arraydestroy.elementPast = phi ptr [ %4, %invoke.cont19 ], [ %arraydestroy.element, %arraydestroy.body ]
  %arraydestroy.element = getelementptr inbounds %"class.std::__cxx11::basic_string", ptr %arraydestroy.elementPast, i64 -1
  call void @_ZNSt7__cxx1112basic_stringIcSt11char_traitsIcESaIcEED1Ev(ptr noundef nonnull align 8 dereferenceable(32) %arraydestroy.element) #4
  %arraydestroy.done = icmp eq ptr %arraydestroy.element, %array.begin
  br i1 %arraydestroy.done, label %arraydestroy.done22, label %arraydestroy.body

arraydestroy.done22:                              ; preds = %arraydestroy.body
  call void @_ZNSaIcED1Ev(ptr noundef nonnull align 1 dereferenceable(1) %ref.tmp8) #4
  call void @_ZNSt7__cxx1112basic_stringIcSt11char_traitsIcESaIcEED1Ev(ptr noundef nonnull align 8 dereferenceable(32) %agg.tmp1) #4
  call void @_ZNSaIcED1Ev(ptr noundef nonnull align 1 dereferenceable(1) %ref.tmp2) #4
  call void @_ZNSt7__cxx1112basic_stringIcSt11char_traitsIcESaIcEED1Ev(ptr noundef nonnull align 8 dereferenceable(32) %agg.tmp) #4
  call void @_ZNSaIcED1Ev(ptr noundef nonnull align 1 dereferenceable(1) %ref.tmp) #4
  %5 = call i32 @__cxa_atexit(ptr @_ZN5arrow7compute11FunctionDocD2Ev, ptr @_ZN5arrow7compute8internal12_GLOBAL__N_119indices_nonzero_docE, ptr @__dso_handle) #4
  ret void

lpad:                                             ; preds = %entry
  %6 = landingpad { ptr, i32 }
          cleanup
  %7 = extractvalue { ptr, i32 } %6, 0
  store ptr %7, ptr %exn.slot, align 8
  %8 = extractvalue { ptr, i32 } %6, 1
  store i32 %8, ptr %ehselector.slot, align 4
  br label %ehcleanup40

lpad3:                                            ; preds = %invoke.cont
  %9 = landingpad { ptr, i32 }
          cleanup
  %10 = extractvalue { ptr, i32 } %9, 0
  store ptr %10, ptr %exn.slot, align 8
  %11 = extractvalue { ptr, i32 } %9, 1
  store i32 %11, ptr %ehselector.slot, align 4
  br label %ehcleanup38

lpad9:                                            ; preds = %invoke.cont4
  %12 = landingpad { ptr, i32 }
          cleanup
  %13 = extractvalue { ptr, i32 } %12, 0
  store ptr %13, ptr %exn.slot, align 8
  %14 = extractvalue { ptr, i32 } %12, 1
  store i32 %14, ptr %ehselector.slot, align 4
  br label %ehcleanup30

lpad12:                                           ; preds = %invoke.cont10
  %15 = landingpad { ptr, i32 }
          cleanup
  %16 = extractvalue { ptr, i32 } %15, 0
  store ptr %16, ptr %exn.slot, align 8
  %17 = extractvalue { ptr, i32 } %15, 1
  store i32 %17, ptr %ehselector.slot, align 4
  br label %ehcleanup21

lpad16:                                           ; preds = %invoke.cont13
  %18 = landingpad { ptr, i32 }
          cleanup
  %19 = extractvalue { ptr, i32 } %18, 0
  store ptr %19, ptr %exn.slot, align 8
  %20 = extractvalue { ptr, i32 } %18, 1
  store i32 %20, ptr %ehselector.slot, align 4
  br label %ehcleanup

lpad18:                                           ; preds = %invoke.cont17
  %21 = landingpad { ptr, i32 }
          cleanup
  %22 = extractvalue { ptr, i32 } %21, 0
  store ptr %22, ptr %exn.slot, align 8
  %23 = extractvalue { ptr, i32 } %21, 1
  store i32 %23, ptr %ehselector.slot, align 4
  call void @_ZNSt7__cxx1112basic_stringIcSt11char_traitsIcESaIcEED1Ev(ptr noundef nonnull align 8 dereferenceable(32) %agg.tmp14) #4
  br label %ehcleanup

ehcleanup:                                        ; preds = %lpad18, %lpad16
  call void @_ZNSaIcED1Ev(ptr noundef nonnull align 1 dereferenceable(1) %ref.tmp15) #4
  call void @_ZNSt6vectorINSt7__cxx1112basic_stringIcSt11char_traitsIcESaIcEEESaIS5_EED2Ev(ptr noundef nonnull align 8 dereferenceable(24) %agg.tmp5) #4
  br label %ehcleanup21

ehcleanup21:                                      ; preds = %ehcleanup, %lpad12
  call void @_ZNSaINSt7__cxx1112basic_stringIcSt11char_traitsIcESaIcEEEED2Ev(ptr noundef nonnull align 1 dereferenceable(1) %ref.tmp11) #4
  %array.begin24 = getelementptr inbounds [1 x %"class.std::__cxx11::basic_string"], ptr %ref.tmp7, i32 0, i32 0
  %24 = getelementptr inbounds %"class.std::__cxx11::basic_string", ptr %array.begin24, i64 1
  br label %arraydestroy.body25

arraydestroy.body25:                              ; preds = %arraydestroy.body25, %ehcleanup21
  %arraydestroy.elementPast26 = phi ptr [ %24, %ehcleanup21 ], [ %arraydestroy.element27, %arraydestroy.body25 ]
  %arraydestroy.element27 = getelementptr inbounds %"class.std::__cxx11::basic_string", ptr %arraydestroy.elementPast26, i64 -1
  call void @_ZNSt7__cxx1112basic_stringIcSt11char_traitsIcESaIcEED1Ev(ptr noundef nonnull align 8 dereferenceable(32) %arraydestroy.element27) #4
  %arraydestroy.done28 = icmp eq ptr %arraydestroy.element27, %array.begin24
  br i1 %arraydestroy.done28, label %arraydestroy.done29, label %arraydestroy.body25

arraydestroy.done29:                              ; preds = %arraydestroy.body25
  br label %ehcleanup30

ehcleanup30:                                      ; preds = %arraydestroy.done29, %lpad9
  call void @_ZNSaIcED1Ev(ptr noundef nonnull align 1 dereferenceable(1) %ref.tmp8) #4
  %cleanup.is_active = load i1, ptr %cleanup.isactive, align 1
  br i1 %cleanup.is_active, label %cleanup.action, label %cleanup.done

cleanup.action:                                   ; preds = %ehcleanup30
  %25 = load ptr, ptr %arrayinit.endOfInit, align 8
  %arraydestroy.isempty = icmp eq ptr %arrayinit.begin, %25
  br i1 %arraydestroy.isempty, label %arraydestroy.done36, label %arraydestroy.body32

arraydestroy.body32:                              ; preds = %arraydestroy.body32, %cleanup.action
  %arraydestroy.elementPast33 = phi ptr [ %25, %cleanup.action ], [ %arraydestroy.element34, %arraydestroy.body32 ]
  %arraydestroy.element34 = getelementptr inbounds %"class.std::__cxx11::basic_string", ptr %arraydestroy.elementPast33, i64 -1
  call void @_ZNSt7__cxx1112basic_stringIcSt11char_traitsIcESaIcEED1Ev(ptr noundef nonnull align 8 dereferenceable(32) %arraydestroy.element34) #4
  %arraydestroy.done35 = icmp eq ptr %arraydestroy.element34, %arrayinit.begin
  br i1 %arraydestroy.done35, label %arraydestroy.done36, label %arraydestroy.body32

arraydestroy.done36:                              ; preds = %arraydestroy.body32, %cleanup.action
  br label %cleanup.done

cleanup.done:                                     ; preds = %arraydestroy.done36, %ehcleanup30
  call void @_ZNSt7__cxx1112basic_stringIcSt11char_traitsIcESaIcEED1Ev(ptr noundef nonnull align 8 dereferenceable(32) %agg.tmp1) #4
  br label %ehcleanup38

ehcleanup38:                                      ; preds = %cleanup.done, %lpad3
  call void @_ZNSaIcED1Ev(ptr noundef nonnull align 1 dereferenceable(1) %ref.tmp2) #4
  call void @_ZNSt7__cxx1112basic_stringIcSt11char_traitsIcESaIcEED1Ev(ptr noundef nonnull align 8 dereferenceable(32) %agg.tmp) #4
  br label %ehcleanup40

ehcleanup40:                                      ; preds = %ehcleanup38, %lpad
  call void @_ZNSaIcED1Ev(ptr noundef nonnull align 1 dereferenceable(1) %ref.tmp) #4
  br label %eh.resume

eh.resume:                                        ; preds = %ehcleanup40
  %exn = load ptr, ptr %exn.slot, align 8
  %sel = load i32, ptr %ehselector.slot, align 4
  %lpad.val = insertvalue { ptr, i32 } poison, ptr %exn, 0
  %lpad.val41 = insertvalue { ptr, i32 } %lpad.val, i32 %sel, 1
  resume { ptr, i32 } %lpad.val41
}

; Function Attrs: mustprogress uwtable
define void @_ZN5arrow7compute8internal23RegisterVectorSelectionEPNS0_16FunctionRegistryE(ptr noundef %registry) #2 personality ptr @__gxx_personality_v0 {
entry:
  %registry.addr = alloca ptr, align 8
  %filter_kernels = alloca %"class.std::vector.3", align 8
  %exn.slot = alloca ptr, align 8
  %ehselector.slot = alloca i32, align 4
  %filter_base = alloca %"struct.arrow::compute::VectorKernel", align 8
  %ref.tmp = alloca %"class.std::__cxx11::basic_string", align 8
  %ref.tmp1 = alloca %"class.std::allocator", align 1
  %agg.tmp = alloca %"struct.arrow::compute::FunctionDoc", align 8
  %agg.tmp6 = alloca %"struct.arrow::compute::VectorKernel", align 8
  %agg.tmp.ensured = alloca %"class.arrow::Status", align 8
  %agg.tmp15 = alloca %"class.std::shared_ptr.20", align 8
  %ref.tmp16 = alloca %"class.std::unique_ptr.23", align 8
  %take_kernels = alloca %"class.std::vector.3", align 8
  %take_base = alloca %"struct.arrow::compute::VectorKernel", align 8
  %ref.tmp30 = alloca %"class.std::__cxx11::basic_string", align 8
  %ref.tmp31 = alloca %"class.std::allocator", align 1
  %agg.tmp34 = alloca %"struct.arrow::compute::FunctionDoc", align 8
  %agg.tmp37 = alloca %"struct.arrow::compute::VectorKernel", align 8
  %agg.tmp.ensured48 = alloca %"class.arrow::Status", align 8
  %agg.tmp49 = alloca %"class.std::shared_ptr.20", align 8
  %ref.tmp50 = alloca %"class.std::unique_ptr.23", align 8
  %agg.tmp.ensured63 = alloca %"class.arrow::Status", align 8
  %agg.tmp64 = alloca %"class.std::shared_ptr.20", align 8
  %ref.tmp65 = alloca %"class.std::shared_ptr.31", align 8
  %agg.tmp.ensured75 = alloca %"class.arrow::Status", align 8
  %agg.tmp76 = alloca %"class.std::shared_ptr.20", align 8
  %ref.tmp77 = alloca %"class.std::shared_ptr.34", align 8
  %agg.tmp78 = alloca %"class.std::__cxx11::basic_string", align 8
  %ref.tmp79 = alloca %"class.std::allocator", align 1
  %agg.tmp82 = alloca %"struct.arrow::compute::FunctionDoc", align 8
  store ptr %registry, ptr %registry.addr, align 8
  call void @_ZNSt6vectorIN5arrow7compute8internal19SelectionKernelDataESaIS3_EEC2Ev(ptr noundef nonnull align 8 dereferenceable(24) %filter_kernels) #4
  invoke void @_ZN5arrow7compute8internal21PopulateFilterKernelsEPSt6vectorINS1_19SelectionKernelDataESaIS3_EE(ptr noundef %filter_kernels)
          to label %invoke.cont unwind label %lpad

invoke.cont:                                      ; preds = %entry
  call void @_ZN5arrow7compute12VectorKernelC2Ev(ptr noundef nonnull align 8 dereferenceable(131) %filter_base) #4
  %init = getelementptr inbounds %"struct.arrow::compute::Kernel", ptr %filter_base, i32 0, i32 1
  %call = call noundef nonnull align 8 dereferenceable(32) ptr @_ZNSt8functionIFN5arrow6ResultISt10unique_ptrINS0_7compute11KernelStateESt14default_deleteIS4_EEEEPNS3_13KernelContextERKNS3_14KernelInitArgsEEEaSIRSE_EENSt9enable_ifIXsrNSF_9_CallableIT_NSI_IXntsr7is_sameINSt9remove_cvINSt16remove_referenceISK_E4typeEE4typeESF_EE5valueESt5decayISK_EE4type4typeESt15__invoke_resultIRSV_JSA_SD_EEEE5valueERSF_E4typeEOSK_(ptr noundef nonnull align 8 dereferenceable(32) %init, ptr noundef nonnull @_ZN5arrow7compute8internal14OptionsWrapperINS0_13FilterOptionsEE4InitEPNS0_13KernelContextERKNS0_14KernelInitArgsE) #4
  call void @_ZNSaIcEC1Ev(ptr noundef nonnull align 1 dereferenceable(1) %ref.tmp1) #4
  invoke void @_ZNSt7__cxx1112basic_stringIcSt11char_traitsIcESaIcEEC2IS3_EEPKcRKS3_(ptr noundef nonnull align 8 dereferenceable(32) %ref.tmp, ptr noundef @.str.19, ptr noundef nonnull align 1 dereferenceable(1) %ref.tmp1)
          to label %invoke.cont3 unwind label %lpad2

invoke.cont3:                                     ; preds = %invoke.cont
  invoke void @_ZN5arrow7compute11FunctionDocC2ERKS1_(ptr noundef nonnull align 8 dereferenceable(121) %agg.tmp, ptr noundef nonnull align 8 dereferenceable(121) @_ZN5arrow7compute8internal12_GLOBAL__N_116array_filter_docE)
          to label %invoke.cont5 unwind label %lpad4

invoke.cont5:                                     ; preds = %invoke.cont3
  invoke void @_ZN5arrow7compute12VectorKernelC2ERKS1_(ptr noundef nonnull align 8 dereferenceable(131) %agg.tmp6, ptr noundef nonnull align 8 dereferenceable(131) %filter_base)
          to label %invoke.cont8 unwind label %lpad7

invoke.cont8:                                     ; preds = %invoke.cont5
  %call11 = invoke noundef ptr @_ZN5arrow7compute8internal23GetDefaultFilterOptionsEv()
          to label %invoke.cont10 unwind label %lpad9

invoke.cont10:                                    ; preds = %invoke.cont8
  %0 = load ptr, ptr %registry.addr, align 8
  invoke void @_ZN5arrow7compute8internal25RegisterSelectionFunctionERKNSt7__cxx1112basic_stringIcSt11char_traitsIcESaIcEEENS0_11FunctionDocENS0_12VectorKernelEOSt6vectorINS1_19SelectionKernelDataESaISD_EEPKNS0_15FunctionOptionsEPNS0_16FunctionRegistryE(ptr noundef nonnull align 8 dereferenceable(32) %ref.tmp, ptr noundef %agg.tmp, ptr noundef %agg.tmp6, ptr noundef nonnull align 8 dereferenceable(24) %filter_kernels, ptr noundef %call11, ptr noundef %0)
          to label %invoke.cont12 unwind label %lpad9

invoke.cont12:                                    ; preds = %invoke.cont10
  call void @_ZN5arrow7compute12VectorKernelD2Ev(ptr noundef nonnull align 8 dereferenceable(131) %agg.tmp6) #4
  call void @_ZN5arrow7compute11FunctionDocD2Ev(ptr noundef nonnull align 8 dereferenceable(121) %agg.tmp) #4
  call void @_ZNSt7__cxx1112basic_stringIcSt11char_traitsIcESaIcEED1Ev(ptr noundef nonnull align 8 dereferenceable(32) %ref.tmp) #4
  call void @_ZNSaIcED1Ev(ptr noundef nonnull align 1 dereferenceable(1) %ref.tmp1) #4
  %1 = load ptr, ptr %registry.addr, align 8
  invoke void @_ZN5arrow7compute8internal22MakeFilterMetaFunctionEv(ptr sret(%"class.std::unique_ptr.23") align 8 %ref.tmp16)
          to label %invoke.cont18 unwind label %lpad17

invoke.cont18:                                    ; preds = %invoke.cont12
  invoke void @_ZNSt10shared_ptrIN5arrow7compute8FunctionEEC2IS2_St14default_deleteIS2_EvEEOSt10unique_ptrIT_T0_E(ptr noundef nonnull align 8 dereferenceable(16) %agg.tmp15, ptr noundef nonnull align 8 dereferenceable(8) %ref.tmp16)
          to label %invoke.cont20 unwind label %lpad19

invoke.cont20:                                    ; preds = %invoke.cont18
  invoke void @_ZN5arrow7compute16FunctionRegistry11AddFunctionESt10shared_ptrINS0_8FunctionEEb(ptr sret(%"class.arrow::Status") align 8 %agg.tmp.ensured, ptr noundef nonnull align 8 dereferenceable(8) %1, ptr noundef %agg.tmp15, i1 noundef zeroext false)
          to label %invoke.cont22 unwind label %lpad21

invoke.cont22:                                    ; preds = %invoke.cont20
  call void @_ZN5arrow6StatusD2Ev(ptr noundef nonnull align 8 dereferenceable(8) %agg.tmp.ensured) #4
  call void @_ZNSt10shared_ptrIN5arrow7compute8FunctionEED2Ev(ptr noundef nonnull align 8 dereferenceable(16) %agg.tmp15) #4
  call void @_ZNSt10unique_ptrIN5arrow7compute8FunctionESt14default_deleteIS2_EED2Ev(ptr noundef nonnull align 8 dereferenceable(8) %ref.tmp16) #4
  br label %while.cond

while.cond:                                       ; preds = %while.body, %invoke.cont22
  br i1 false, label %while.body, label %while.end

while.body:                                       ; preds = %while.cond
  br label %while.cond, !llvm.loop !4

lpad:                                             ; preds = %entry
  %2 = landingpad { ptr, i32 }
          cleanup
  %3 = extractvalue { ptr, i32 } %2, 0
  store ptr %3, ptr %exn.slot, align 8
  %4 = extractvalue { ptr, i32 } %2, 1
  store i32 %4, ptr %ehselector.slot, align 4
  br label %ehcleanup101

lpad2:                                            ; preds = %invoke.cont
  %5 = landingpad { ptr, i32 }
          cleanup
  %6 = extractvalue { ptr, i32 } %5, 0
  store ptr %6, ptr %exn.slot, align 8
  %7 = extractvalue { ptr, i32 } %5, 1
  store i32 %7, ptr %ehselector.slot, align 4
  br label %ehcleanup14

lpad4:                                            ; preds = %invoke.cont3
  %8 = landingpad { ptr, i32 }
          cleanup
  %9 = extractvalue { ptr, i32 } %8, 0
  store ptr %9, ptr %exn.slot, align 8
  %10 = extractvalue { ptr, i32 } %8, 1
  store i32 %10, ptr %ehselector.slot, align 4
  br label %ehcleanup13

lpad7:                                            ; preds = %invoke.cont5
  %11 = landingpad { ptr, i32 }
          cleanup
  %12 = extractvalue { ptr, i32 } %11, 0
  store ptr %12, ptr %exn.slot, align 8
  %13 = extractvalue { ptr, i32 } %11, 1
  store i32 %13, ptr %ehselector.slot, align 4
  br label %ehcleanup

lpad9:                                            ; preds = %invoke.cont10, %invoke.cont8
  %14 = landingpad { ptr, i32 }
          cleanup
  %15 = extractvalue { ptr, i32 } %14, 0
  store ptr %15, ptr %exn.slot, align 8
  %16 = extractvalue { ptr, i32 } %14, 1
  store i32 %16, ptr %ehselector.slot, align 4
  call void @_ZN5arrow7compute12VectorKernelD2Ev(ptr noundef nonnull align 8 dereferenceable(131) %agg.tmp6) #4
  br label %ehcleanup

ehcleanup:                                        ; preds = %lpad9, %lpad7
  call void @_ZN5arrow7compute11FunctionDocD2Ev(ptr noundef nonnull align 8 dereferenceable(121) %agg.tmp) #4
  br label %ehcleanup13

ehcleanup13:                                      ; preds = %ehcleanup, %lpad4
  call void @_ZNSt7__cxx1112basic_stringIcSt11char_traitsIcESaIcEED1Ev(ptr noundef nonnull align 8 dereferenceable(32) %ref.tmp) #4
  br label %ehcleanup14

ehcleanup14:                                      ; preds = %ehcleanup13, %lpad2
  call void @_ZNSaIcED1Ev(ptr noundef nonnull align 1 dereferenceable(1) %ref.tmp1) #4
  br label %ehcleanup100

lpad17:                                           ; preds = %invoke.cont12
  %17 = landingpad { ptr, i32 }
          cleanup
  %18 = extractvalue { ptr, i32 } %17, 0
  store ptr %18, ptr %exn.slot, align 8
  %19 = extractvalue { ptr, i32 } %17, 1
  store i32 %19, ptr %ehselector.slot, align 4
  br label %ehcleanup100

lpad19:                                           ; preds = %invoke.cont18
  %20 = landingpad { ptr, i32 }
          cleanup
  %21 = extractvalue { ptr, i32 } %20, 0
  store ptr %21, ptr %exn.slot, align 8
  %22 = extractvalue { ptr, i32 } %20, 1
  store i32 %22, ptr %ehselector.slot, align 4
  br label %ehcleanup24

lpad21:                                           ; preds = %invoke.cont20
  %23 = landingpad { ptr, i32 }
          cleanup
  %24 = extractvalue { ptr, i32 } %23, 0
  store ptr %24, ptr %exn.slot, align 8
  %25 = extractvalue { ptr, i32 } %23, 1
  store i32 %25, ptr %ehselector.slot, align 4
  call void @_ZNSt10shared_ptrIN5arrow7compute8FunctionEED2Ev(ptr noundef nonnull align 8 dereferenceable(16) %agg.tmp15) #4
  br label %ehcleanup24

ehcleanup24:                                      ; preds = %lpad21, %lpad19
  call void @_ZNSt10unique_ptrIN5arrow7compute8FunctionESt14default_deleteIS2_EED2Ev(ptr noundef nonnull align 8 dereferenceable(8) %ref.tmp16) #4
  br label %ehcleanup100

while.end:                                        ; preds = %while.cond
  call void @_ZNSt6vectorIN5arrow7compute8internal19SelectionKernelDataESaIS3_EEC2Ev(ptr noundef nonnull align 8 dereferenceable(24) %take_kernels) #4
  invoke void @_ZN5arrow7compute8internal19PopulateTakeKernelsEPSt6vectorINS1_19SelectionKernelDataESaIS3_EE(ptr noundef %take_kernels)
          to label %invoke.cont27 unwind label %lpad26

invoke.cont27:                                    ; preds = %while.end
  call void @_ZN5arrow7compute12VectorKernelC2Ev(ptr noundef nonnull align 8 dereferenceable(131) %take_base) #4
  %init28 = getelementptr inbounds %"struct.arrow::compute::Kernel", ptr %take_base, i32 0, i32 1
  %call29 = call noundef nonnull align 8 dereferenceable(32) ptr @_ZNSt8functionIFN5arrow6ResultISt10unique_ptrINS0_7compute11KernelStateESt14default_deleteIS4_EEEEPNS3_13KernelContextERKNS3_14KernelInitArgsEEEaSIRSE_EENSt9enable_ifIXsrNSF_9_CallableIT_NSI_IXntsr7is_sameINSt9remove_cvINSt16remove_referenceISK_E4typeEE4typeESF_EE5valueESt5decayISK_EE4type4typeESt15__invoke_resultIRSV_JSA_SD_EEEE5valueERSF_E4typeEOSK_(ptr noundef nonnull align 8 dereferenceable(32) %init28, ptr noundef nonnull @_ZN5arrow7compute8internal14OptionsWrapperINS0_11TakeOptionsEE4InitEPNS0_13KernelContextERKNS0_14KernelInitArgsE) #4
  %can_execute_chunkwise = getelementptr inbounds %"struct.arrow::compute::VectorKernel", ptr %take_base, i32 0, i32 7
  store i8 0, ptr %can_execute_chunkwise, align 1
  call void @_ZNSaIcEC1Ev(ptr noundef nonnull align 1 dereferenceable(1) %ref.tmp31) #4
  invoke void @_ZNSt7__cxx1112basic_stringIcSt11char_traitsIcESaIcEEC2IS3_EEPKcRKS3_(ptr noundef nonnull align 8 dereferenceable(32) %ref.tmp30, ptr noundef @.str.20, ptr noundef nonnull align 1 dereferenceable(1) %ref.tmp31)
          to label %invoke.cont33 unwind label %lpad32

invoke.cont33:                                    ; preds = %invoke.cont27
  invoke void @_ZN5arrow7compute11FunctionDocC2ERKS1_(ptr noundef nonnull align 8 dereferenceable(121) %agg.tmp34, ptr noundef nonnull align 8 dereferenceable(121) @_ZN5arrow7compute8internal12_GLOBAL__N_114array_take_docE)
          to label %invoke.cont36 unwind label %lpad35

invoke.cont36:                                    ; preds = %invoke.cont33
  invoke void @_ZN5arrow7compute12VectorKernelC2ERKS1_(ptr noundef nonnull align 8 dereferenceable(131) %agg.tmp37, ptr noundef nonnull align 8 dereferenceable(131) %take_base)
          to label %invoke.cont39 unwind label %lpad38

invoke.cont39:                                    ; preds = %invoke.cont36
  %call42 = invoke noundef ptr @_ZN5arrow7compute8internal21GetDefaultTakeOptionsEv()
          to label %invoke.cont41 unwind label %lpad40

invoke.cont41:                                    ; preds = %invoke.cont39
  %26 = load ptr, ptr %registry.addr, align 8
  invoke void @_ZN5arrow7compute8internal25RegisterSelectionFunctionERKNSt7__cxx1112basic_stringIcSt11char_traitsIcESaIcEEENS0_11FunctionDocENS0_12VectorKernelEOSt6vectorINS1_19SelectionKernelDataESaISD_EEPKNS0_15FunctionOptionsEPNS0_16FunctionRegistryE(ptr noundef nonnull align 8 dereferenceable(32) %ref.tmp30, ptr noundef %agg.tmp34, ptr noundef %agg.tmp37, ptr noundef nonnull align 8 dereferenceable(24) %take_kernels, ptr noundef %call42, ptr noundef %26)
          to label %invoke.cont43 unwind label %lpad40

invoke.cont43:                                    ; preds = %invoke.cont41
  call void @_ZN5arrow7compute12VectorKernelD2Ev(ptr noundef nonnull align 8 dereferenceable(131) %agg.tmp37) #4
  call void @_ZN5arrow7compute11FunctionDocD2Ev(ptr noundef nonnull align 8 dereferenceable(121) %agg.tmp34) #4
  call void @_ZNSt7__cxx1112basic_stringIcSt11char_traitsIcESaIcEED1Ev(ptr noundef nonnull align 8 dereferenceable(32) %ref.tmp30) #4
  call void @_ZNSaIcED1Ev(ptr noundef nonnull align 1 dereferenceable(1) %ref.tmp31) #4
  %27 = load ptr, ptr %registry.addr, align 8
  invoke void @_ZN5arrow7compute8internal20MakeTakeMetaFunctionEv(ptr sret(%"class.std::unique_ptr.23") align 8 %ref.tmp50)
          to label %invoke.cont52 unwind label %lpad51

invoke.cont52:                                    ; preds = %invoke.cont43
  invoke void @_ZNSt10shared_ptrIN5arrow7compute8FunctionEEC2IS2_St14default_deleteIS2_EvEEOSt10unique_ptrIT_T0_E(ptr noundef nonnull align 8 dereferenceable(16) %agg.tmp49, ptr noundef nonnull align 8 dereferenceable(8) %ref.tmp50)
          to label %invoke.cont54 unwind label %lpad53

invoke.cont54:                                    ; preds = %invoke.cont52
  invoke void @_ZN5arrow7compute16FunctionRegistry11AddFunctionESt10shared_ptrINS0_8FunctionEEb(ptr sret(%"class.arrow::Status") align 8 %agg.tmp.ensured48, ptr noundef nonnull align 8 dereferenceable(8) %27, ptr noundef %agg.tmp49, i1 noundef zeroext false)
          to label %invoke.cont56 unwind label %lpad55

invoke.cont56:                                    ; preds = %invoke.cont54
  call void @_ZN5arrow6StatusD2Ev(ptr noundef nonnull align 8 dereferenceable(8) %agg.tmp.ensured48) #4
  call void @_ZNSt10shared_ptrIN5arrow7compute8FunctionEED2Ev(ptr noundef nonnull align 8 dereferenceable(16) %agg.tmp49) #4
  call void @_ZNSt10unique_ptrIN5arrow7compute8FunctionESt14default_deleteIS2_EED2Ev(ptr noundef nonnull align 8 dereferenceable(8) %ref.tmp50) #4
  br label %while.cond59

while.cond59:                                     ; preds = %while.body60, %invoke.cont56
  br i1 false, label %while.body60, label %while.end62

while.body60:                                     ; preds = %while.cond59
  br label %while.cond59, !llvm.loop !6

lpad26:                                           ; preds = %while.end
  %28 = landingpad { ptr, i32 }
          cleanup
  %29 = extractvalue { ptr, i32 } %28, 0
  store ptr %29, ptr %exn.slot, align 8
  %30 = extractvalue { ptr, i32 } %28, 1
  store i32 %30, ptr %ehselector.slot, align 4
  br label %ehcleanup99

lpad32:                                           ; preds = %invoke.cont27
  %31 = landingpad { ptr, i32 }
          cleanup
  %32 = extractvalue { ptr, i32 } %31, 0
  store ptr %32, ptr %exn.slot, align 8
  %33 = extractvalue { ptr, i32 } %31, 1
  store i32 %33, ptr %ehselector.slot, align 4
  br label %ehcleanup47

lpad35:                                           ; preds = %invoke.cont33
  %34 = landingpad { ptr, i32 }
          cleanup
  %35 = extractvalue { ptr, i32 } %34, 0
  store ptr %35, ptr %exn.slot, align 8
  %36 = extractvalue { ptr, i32 } %34, 1
  store i32 %36, ptr %ehselector.slot, align 4
  br label %ehcleanup46

lpad38:                                           ; preds = %invoke.cont36
  %37 = landingpad { ptr, i32 }
          cleanup
  %38 = extractvalue { ptr, i32 } %37, 0
  store ptr %38, ptr %exn.slot, align 8
  %39 = extractvalue { ptr, i32 } %37, 1
  store i32 %39, ptr %ehselector.slot, align 4
  br label %ehcleanup45

lpad40:                                           ; preds = %invoke.cont41, %invoke.cont39
  %40 = landingpad { ptr, i32 }
          cleanup
  %41 = extractvalue { ptr, i32 } %40, 0
  store ptr %41, ptr %exn.slot, align 8
  %42 = extractvalue { ptr, i32 } %40, 1
  store i32 %42, ptr %ehselector.slot, align 4
  call void @_ZN5arrow7compute12VectorKernelD2Ev(ptr noundef nonnull align 8 dereferenceable(131) %agg.tmp37) #4
  br label %ehcleanup45

ehcleanup45:                                      ; preds = %lpad40, %lpad38
  call void @_ZN5arrow7compute11FunctionDocD2Ev(ptr noundef nonnull align 8 dereferenceable(121) %agg.tmp34) #4
  br label %ehcleanup46

ehcleanup46:                                      ; preds = %ehcleanup45, %lpad35
  call void @_ZNSt7__cxx1112basic_stringIcSt11char_traitsIcESaIcEED1Ev(ptr noundef nonnull align 8 dereferenceable(32) %ref.tmp30) #4
  br label %ehcleanup47

ehcleanup47:                                      ; preds = %ehcleanup46, %lpad32
  call void @_ZNSaIcED1Ev(ptr noundef nonnull align 1 dereferenceable(1) %ref.tmp31) #4
  br label %ehcleanup98

lpad51:                                           ; preds = %while.end62, %invoke.cont43
  %43 = landingpad { ptr, i32 }
          cleanup
  %44 = extractvalue { ptr, i32 } %43, 0
  store ptr %44, ptr %exn.slot, align 8
  %45 = extractvalue { ptr, i32 } %43, 1
  store i32 %45, ptr %ehselector.slot, align 4
  br label %ehcleanup98

lpad53:                                           ; preds = %invoke.cont52
  %46 = landingpad { ptr, i32 }
          cleanup
  %47 = extractvalue { ptr, i32 } %46, 0
  store ptr %47, ptr %exn.slot, align 8
  %48 = extractvalue { ptr, i32 } %46, 1
  store i32 %48, ptr %ehselector.slot, align 4
  br label %ehcleanup58

lpad55:                                           ; preds = %invoke.cont54
  %49 = landingpad { ptr, i32 }
          cleanup
  %50 = extractvalue { ptr, i32 } %49, 0
  store ptr %50, ptr %exn.slot, align 8
  %51 = extractvalue { ptr, i32 } %49, 1
  store i32 %51, ptr %ehselector.slot, align 4
  call void @_ZNSt10shared_ptrIN5arrow7compute8FunctionEED2Ev(ptr noundef nonnull align 8 dereferenceable(16) %agg.tmp49) #4
  br label %ehcleanup58

ehcleanup58:                                      ; preds = %lpad55, %lpad53
  call void @_ZNSt10unique_ptrIN5arrow7compute8FunctionESt14default_deleteIS2_EED2Ev(ptr noundef nonnull align 8 dereferenceable(8) %ref.tmp50) #4
  br label %ehcleanup98

while.end62:                                      ; preds = %while.cond59
  %52 = load ptr, ptr %registry.addr, align 8
  invoke void @_ZSt11make_sharedIN5arrow7compute8internal12_GLOBAL__N_120DropNullMetaFunctionEJEESt10shared_ptrINSt9enable_ifIXntsr8is_arrayIT_EE5valueES7_E4typeEEDpOT0_(ptr sret(%"class.std::shared_ptr.31") align 8 %ref.tmp65)
          to label %invoke.cont66 unwind label %lpad51

invoke.cont66:                                    ; preds = %while.end62
  call void @_ZNSt10shared_ptrIN5arrow7compute8FunctionEEC2INS1_8internal12_GLOBAL__N_120DropNullMetaFunctionEvEEOS_IT_E(ptr noundef nonnull align 8 dereferenceable(16) %agg.tmp64, ptr noundef nonnull align 8 dereferenceable(16) %ref.tmp65) #4
  invoke void @_ZN5arrow7compute16FunctionRegistry11AddFunctionESt10shared_ptrINS0_8FunctionEEb(ptr sret(%"class.arrow::Status") align 8 %agg.tmp.ensured63, ptr noundef nonnull align 8 dereferenceable(8) %52, ptr noundef %agg.tmp64, i1 noundef zeroext false)
          to label %invoke.cont68 unwind label %lpad67

invoke.cont68:                                    ; preds = %invoke.cont66
  call void @_ZN5arrow6StatusD2Ev(ptr noundef nonnull align 8 dereferenceable(8) %agg.tmp.ensured63) #4
  call void @_ZNSt10shared_ptrIN5arrow7compute8FunctionEED2Ev(ptr noundef nonnull align 8 dereferenceable(16) %agg.tmp64) #4
  call void @_ZNSt10shared_ptrIN5arrow7compute8internal12_GLOBAL__N_120DropNullMetaFunctionEED2Ev(ptr noundef nonnull align 8 dereferenceable(16) %ref.tmp65) #4
  br label %while.cond71

while.cond71:                                     ; preds = %while.body72, %invoke.cont68
  br i1 false, label %while.body72, label %while.end74

while.body72:                                     ; preds = %while.cond71
  br label %while.cond71, !llvm.loop !7

lpad67:                                           ; preds = %invoke.cont66
  %53 = landingpad { ptr, i32 }
          cleanup
  %54 = extractvalue { ptr, i32 } %53, 0
  store ptr %54, ptr %exn.slot, align 8
  %55 = extractvalue { ptr, i32 } %53, 1
  store i32 %55, ptr %ehselector.slot, align 4
  call void @_ZNSt10shared_ptrIN5arrow7compute8FunctionEED2Ev(ptr noundef nonnull align 8 dereferenceable(16) %agg.tmp64) #4
  call void @_ZNSt10shared_ptrIN5arrow7compute8internal12_GLOBAL__N_120DropNullMetaFunctionEED2Ev(ptr noundef nonnull align 8 dereferenceable(16) %ref.tmp65) #4
  br label %ehcleanup98

while.end74:                                      ; preds = %while.cond71
  %56 = load ptr, ptr %registry.addr, align 8
  call void @_ZNSaIcEC1Ev(ptr noundef nonnull align 1 dereferenceable(1) %ref.tmp79) #4
  invoke void @_ZNSt7__cxx1112basic_stringIcSt11char_traitsIcESaIcEEC2IS3_EEPKcRKS3_(ptr noundef nonnull align 8 dereferenceable(32) %agg.tmp78, ptr noundef @.str.21, ptr noundef nonnull align 1 dereferenceable(1) %ref.tmp79)
          to label %invoke.cont81 unwind label %lpad80

invoke.cont81:                                    ; preds = %while.end74
  invoke void @_ZN5arrow7compute11FunctionDocC2ERKS1_(ptr noundef nonnull align 8 dereferenceable(121) %agg.tmp82, ptr noundef nonnull align 8 dereferenceable(121) @_ZN5arrow7compute8internal12_GLOBAL__N_119indices_nonzero_docE)
          to label %invoke.cont84 unwind label %lpad83

invoke.cont84:                                    ; preds = %invoke.cont81
  invoke void @_ZN5arrow7compute8internal12_GLOBAL__N_126MakeIndicesNonZeroFunctionENSt7__cxx1112basic_stringIcSt11char_traitsIcESaIcEEENS0_11FunctionDocE(ptr sret(%"class.std::shared_ptr.34") align 8 %ref.tmp77, ptr noundef %agg.tmp78, ptr noundef %agg.tmp82)
          to label %invoke.cont86 unwind label %lpad85

invoke.cont86:                                    ; preds = %invoke.cont84
  call void @_ZNSt10shared_ptrIN5arrow7compute8FunctionEEC2INS1_14VectorFunctionEvEEOS_IT_E(ptr noundef nonnull align 8 dereferenceable(16) %agg.tmp76, ptr noundef nonnull align 8 dereferenceable(16) %ref.tmp77) #4
  invoke void @_ZN5arrow7compute16FunctionRegistry11AddFunctionESt10shared_ptrINS0_8FunctionEEb(ptr sret(%"class.arrow::Status") align 8 %agg.tmp.ensured75, ptr noundef nonnull align 8 dereferenceable(8) %56, ptr noundef %agg.tmp76, i1 noundef zeroext false)
          to label %invoke.cont88 unwind label %lpad87

invoke.cont88:                                    ; preds = %invoke.cont86
  call void @_ZN5arrow6StatusD2Ev(ptr noundef nonnull align 8 dereferenceable(8) %agg.tmp.ensured75) #4
  call void @_ZNSt10shared_ptrIN5arrow7compute8FunctionEED2Ev(ptr noundef nonnull align 8 dereferenceable(16) %agg.tmp76) #4
  call void @_ZNSt10shared_ptrIN5arrow7compute14VectorFunctionEED2Ev(ptr noundef nonnull align 8 dereferenceable(16) %ref.tmp77) #4
  call void @_ZN5arrow7compute11FunctionDocD2Ev(ptr noundef nonnull align 8 dereferenceable(121) %agg.tmp82) #4
  call void @_ZNSt7__cxx1112basic_stringIcSt11char_traitsIcESaIcEED1Ev(ptr noundef nonnull align 8 dereferenceable(32) %agg.tmp78) #4
  call void @_ZNSaIcED1Ev(ptr noundef nonnull align 1 dereferenceable(1) %ref.tmp79) #4
  br label %while.cond94

while.cond94:                                     ; preds = %while.body95, %invoke.cont88
  br i1 false, label %while.body95, label %while.end97

while.body95:                                     ; preds = %while.cond94
  br label %while.cond94, !llvm.loop !8

lpad80:                                           ; preds = %while.end74
  %57 = landingpad { ptr, i32 }
          cleanup
  %58 = extractvalue { ptr, i32 } %57, 0
  store ptr %58, ptr %exn.slot, align 8
  %59 = extractvalue { ptr, i32 } %57, 1
  store i32 %59, ptr %ehselector.slot, align 4
  br label %ehcleanup93

lpad83:                                           ; preds = %invoke.cont81
  %60 = landingpad { ptr, i32 }
          cleanup
  %61 = extractvalue { ptr, i32 } %60, 0
  store ptr %61, ptr %exn.slot, align 8
  %62 = extractvalue { ptr, i32 } %60, 1
  store i32 %62, ptr %ehselector.slot, align 4
  br label %ehcleanup92

lpad85:                                           ; preds = %invoke.cont84
  %63 = landingpad { ptr, i32 }
          cleanup
  %64 = extractvalue { ptr, i32 } %63, 0
  store ptr %64, ptr %exn.slot, align 8
  %65 = extractvalue { ptr, i32 } %63, 1
  store i32 %65, ptr %ehselector.slot, align 4
  br label %ehcleanup91

lpad87:                                           ; preds = %invoke.cont86
  %66 = landingpad { ptr, i32 }
          cleanup
  %67 = extractvalue { ptr, i32 } %66, 0
  store ptr %67, ptr %exn.slot, align 8
  %68 = extractvalue { ptr, i32 } %66, 1
  store i32 %68, ptr %ehselector.slot, align 4
  call void @_ZNSt10shared_ptrIN5arrow7compute8FunctionEED2Ev(ptr noundef nonnull align 8 dereferenceable(16) %agg.tmp76) #4
  call void @_ZNSt10shared_ptrIN5arrow7compute14VectorFunctionEED2Ev(ptr noundef nonnull align 8 dereferenceable(16) %ref.tmp77) #4
  br label %ehcleanup91

ehcleanup91:                                      ; preds = %lpad87, %lpad85
  call void @_ZN5arrow7compute11FunctionDocD2Ev(ptr noundef nonnull align 8 dereferenceable(121) %agg.tmp82) #4
  br label %ehcleanup92

ehcleanup92:                                      ; preds = %ehcleanup91, %lpad83
  call void @_ZNSt7__cxx1112basic_stringIcSt11char_traitsIcESaIcEED1Ev(ptr noundef nonnull align 8 dereferenceable(32) %agg.tmp78) #4
  br label %ehcleanup93

ehcleanup93:                                      ; preds = %ehcleanup92, %lpad80
  call void @_ZNSaIcED1Ev(ptr noundef nonnull align 1 dereferenceable(1) %ref.tmp79) #4
  br label %ehcleanup98

while.end97:                                      ; preds = %while.cond94
  call void @_ZN5arrow7compute12VectorKernelD2Ev(ptr noundef nonnull align 8 dereferenceable(131) %take_base) #4
  call void @_ZNSt6vectorIN5arrow7compute8internal19SelectionKernelDataESaIS3_EED2Ev(ptr noundef nonnull align 8 dereferenceable(24) %take_kernels) #4
  call void @_ZN5arrow7compute12VectorKernelD2Ev(ptr noundef nonnull align 8 dereferenceable(131) %filter_base) #4
  call void @_ZNSt6vectorIN5arrow7compute8internal19SelectionKernelDataESaIS3_EED2Ev(ptr noundef nonnull align 8 dereferenceable(24) %filter_kernels) #4
  ret void

ehcleanup98:                                      ; preds = %ehcleanup93, %lpad67, %ehcleanup58, %lpad51, %ehcleanup47
  call void @_ZN5arrow7compute12VectorKernelD2Ev(ptr noundef nonnull align 8 dereferenceable(131) %take_base) #4
  br label %ehcleanup99

ehcleanup99:                                      ; preds = %ehcleanup98, %lpad26
  call void @_ZNSt6vectorIN5arrow7compute8internal19SelectionKernelDataESaIS3_EED2Ev(ptr noundef nonnull align 8 dereferenceable(24) %take_kernels) #4
  br label %ehcleanup100

ehcleanup100:                                     ; preds = %ehcleanup99, %ehcleanup24, %lpad17, %ehcleanup14
  call void @_ZN5arrow7compute12VectorKernelD2Ev(ptr noundef nonnull align 8 dereferenceable(131) %filter_base) #4
  br label %ehcleanup101

ehcleanup101:                                     ; preds = %ehcleanup100, %lpad
  call void @_ZNSt6vectorIN5arrow7compute8internal19SelectionKernelDataESaIS3_EED2Ev(ptr noundef nonnull align 8 dereferenceable(24) %filter_kernels) #4
  br label %eh.resume

eh.resume:                                        ; preds = %ehcleanup101
  %exn = load ptr, ptr %exn.slot, align 8
  %sel = load i32, ptr %ehselector.slot, align 4
  %lpad.val = insertvalue { ptr, i32 } poison, ptr %exn, 0
  %lpad.val102 = insertvalue { ptr, i32 } %lpad.val, i32 %sel, 1
  resume { ptr, i32 } %lpad.val102
}

; Function Attrs: mustprogress nounwind uwtable
define linkonce_odr void @_ZNSt6vectorIN5arrow7compute8internal19SelectionKernelDataESaIS3_EEC2Ev(ptr noundef nonnull align 8 dereferenceable(24) %this) unnamed_addr #3 comdat align 2 {
entry:
  %this.addr = alloca ptr, align 8
  store ptr %this, ptr %this.addr, align 8
  %this1 = load ptr, ptr %this.addr, align 8
  call void @_ZNSt12_Vector_baseIN5arrow7compute8internal19SelectionKernelDataESaIS3_EEC2Ev(ptr noundef nonnull align 8 dereferenceable(24) %this1) #4
  ret void
}

declare void @_ZN5arrow7compute8internal21PopulateFilterKernelsEPSt6vectorINS1_19SelectionKernelDataESaIS3_EE(ptr noundef) #5

; Function Attrs: mustprogress nounwind uwtable
define linkonce_odr void @_ZN5arrow7compute12VectorKernelC2Ev(ptr noundef nonnull align 8 dereferenceable(131) %this) unnamed_addr #3 comdat align 2 {
entry:
  %this.addr = alloca ptr, align 8
  store ptr %this, ptr %this.addr, align 8
  %this1 = load ptr, ptr %this.addr, align 8
  call void @_ZN5arrow7compute6KernelC2Ev(ptr noundef nonnull align 8 dereferenceable(72) %this1) #4
  %exec_chunked = getelementptr inbounds %"struct.arrow::compute::VectorKernel", ptr %this1, i32 0, i32 2
  store ptr null, ptr %exec_chunked, align 8
  %finalize = getelementptr inbounds %"struct.arrow::compute::VectorKernel", ptr %this1, i32 0, i32 3
  call void @_ZNSt8functionIFN5arrow6StatusEPNS0_7compute13KernelContextEPSt6vectorINS0_5DatumESaIS6_EEEEC2Ev(ptr noundef nonnull align 8 dereferenceable(32) %finalize) #4
  %null_handling = getelementptr inbounds %"struct.arrow::compute::VectorKernel", ptr %this1, i32 0, i32 4
  store i32 2, ptr %null_handling, align 8
  %mem_allocation = getelementptr inbounds %"struct.arrow::compute::VectorKernel", ptr %this1, i32 0, i32 5
  store i32 1, ptr %mem_allocation, align 4
  %can_write_into_slices = getelementptr inbounds %"struct.arrow::compute::VectorKernel", ptr %this1, i32 0, i32 6
  store i8 1, ptr %can_write_into_slices, align 8
  %can_execute_chunkwise = getelementptr inbounds %"struct.arrow::compute::VectorKernel", ptr %this1, i32 0, i32 7
  store i8 1, ptr %can_execute_chunkwise, align 1
  %output_chunked = getelementptr inbounds %"struct.arrow::compute::VectorKernel", ptr %this1, i32 0, i32 8
  store i8 1, ptr %output_chunked, align 2
  ret void
}

; Function Attrs: mustprogress uwtable
define linkonce_odr void @_ZN5arrow7compute8internal14OptionsWrapperINS0_13FilterOptionsEE4InitEPNS0_13KernelContextERKNS0_14KernelInitArgsE(ptr noalias sret(%"class.arrow::Result") align 8 %agg.result, ptr noundef %ctx, ptr noundef nonnull align 8 dereferenceable(24) %args) #2 comdat align 2 {
entry:
  %result.ptr = alloca ptr, align 8
  %ctx.addr = alloca ptr, align 8
  %args.addr = alloca ptr, align 8
  %options = alloca ptr, align 8
  %ref.tmp = alloca %"class.std::unique_ptr.358", align 8
  %ref.tmp2 = alloca %"class.arrow::Status", align 8
  store ptr %agg.result, ptr %result.ptr, align 8
  store ptr %ctx, ptr %ctx.addr, align 8
  store ptr %args, ptr %args.addr, align 8
  %0 = load ptr, ptr %args.addr, align 8
  %options1 = getelementptr inbounds %"struct.arrow::compute::KernelInitArgs", ptr %0, i32 0, i32 2
  %1 = load ptr, ptr %options1, align 8
  store ptr %1, ptr %options, align 8
  %2 = load ptr, ptr %options, align 8
  %tobool = icmp ne ptr %2, null
  br i1 %tobool, label %if.then, label %if.end

if.then:                                          ; preds = %entry
  %3 = load ptr, ptr %options, align 8
  call void @_ZSt11make_uniqueIN5arrow7compute8internal14OptionsWrapperINS1_13FilterOptionsEEEJRKS4_EENSt8__detail9_MakeUniqIT_E15__single_objectEDpOT0_(ptr sret(%"class.std::unique_ptr.358") align 8 %ref.tmp, ptr noundef nonnull align 8 dereferenceable(20) %3)
  call void @_ZN5arrow6ResultISt10unique_ptrINS_7compute11KernelStateESt14default_deleteIS3_EEEC2IS1_INS2_8internal14OptionsWrapperINS2_13FilterOptionsEEES4_ISC_EEvEEOT_(ptr noundef nonnull align 8 dereferenceable(16) %agg.result, ptr noundef nonnull align 8 dereferenceable(8) %ref.tmp) #4
  call void @_ZNSt10unique_ptrIN5arrow7compute8internal14OptionsWrapperINS1_13FilterOptionsEEESt14default_deleteIS5_EED2Ev(ptr noundef nonnull align 8 dereferenceable(8) %ref.tmp) #4
  br label %return

if.end:                                           ; preds = %entry
  call void @_ZN5arrow6Status7InvalidIJRA62_KcEEES0_DpOT_(ptr sret(%"class.arrow::Status") align 8 %ref.tmp2, ptr noundef nonnull align 1 dereferenceable(62) @.str.33)
  call void @_ZN5arrow6ResultISt10unique_ptrINS_7compute11KernelStateESt14default_deleteIS3_EEEC2ERKNS_6StatusE(ptr noundef nonnull align 8 dereferenceable(16) %agg.result, ptr noundef nonnull align 8 dereferenceable(8) %ref.tmp2) #4
  call void @_ZN5arrow6StatusD2Ev(ptr noundef nonnull align 8 dereferenceable(8) %ref.tmp2) #4
  br label %return

return:                                           ; preds = %if.end, %if.then
  ret void
}

; Function Attrs: mustprogress nounwind uwtable
define linkonce_odr noundef nonnull align 8 dereferenceable(32) ptr @_ZNSt8functionIFN5arrow6ResultISt10unique_ptrINS0_7compute11KernelStateESt14default_deleteIS4_EEEEPNS3_13KernelContextERKNS3_14KernelInitArgsEEEaSIRSE_EENSt9enable_ifIXsrNSF_9_CallableIT_NSI_IXntsr7is_sameINSt9remove_cvINSt16remove_referenceISK_E4typeEE4typeESF_EE5valueESt5decayISK_EE4type4typeESt15__invoke_resultIRSV_JSA_SD_EEEE5valueERSF_E4typeEOSK_(ptr noundef nonnull align 8 dereferenceable(32) %this, ptr noundef nonnull %__f) #3 comdat align 2 {
entry:
  %this.addr = alloca ptr, align 8
  %__f.addr = alloca ptr, align 8
  %ref.tmp = alloca %"class.std::function", align 8
  store ptr %this, ptr %this.addr, align 8
  store ptr %__f, ptr %__f.addr, align 8
  %this1 = load ptr, ptr %this.addr, align 8
  %0 = load ptr, ptr %__f.addr, align 8
  call void @_ZNSt8functionIFN5arrow6ResultISt10unique_ptrINS0_7compute11KernelStateESt14default_deleteIS4_EEEEPNS3_13KernelContextERKNS3_14KernelInitArgsEEEC2IRSE_vEEOT_(ptr noundef nonnull align 8 dereferenceable(32) %ref.tmp, ptr noundef nonnull %0) #4
  call void @_ZNSt8functionIFN5arrow6ResultISt10unique_ptrINS0_7compute11KernelStateESt14default_deleteIS4_EEEEPNS3_13KernelContextERKNS3_14KernelInitArgsEEE4swapERSF_(ptr noundef nonnull align 8 dereferenceable(32) %ref.tmp, ptr noundef nonnull align 8 dereferenceable(32) %this1) #4
  call void @_ZNSt8functionIFN5arrow6ResultISt10unique_ptrINS0_7compute11KernelStateESt14default_deleteIS4_EEEEPNS3_13KernelContextERKNS3_14KernelInitArgsEEED2Ev(ptr noundef nonnull align 8 dereferenceable(32) %ref.tmp) #4
  ret ptr %this1
}

declare void @_ZN5arrow7compute8internal25RegisterSelectionFunctionERKNSt7__cxx1112basic_stringIcSt11char_traitsIcESaIcEEENS0_11FunctionDocENS0_12VectorKernelEOSt6vectorINS1_19SelectionKernelDataESaISD_EEPKNS0_15FunctionOptionsEPNS0_16FunctionRegistryE(ptr noundef nonnull align 8 dereferenceable(32), ptr noundef, ptr noundef, ptr noundef nonnull align 8 dereferenceable(24), ptr noundef, ptr noundef) #5

; Function Attrs: mustprogress uwtable
define linkonce_odr void @_ZN5arrow7compute11FunctionDocC2ERKS1_(ptr noundef nonnull align 8 dereferenceable(121) %this, ptr noundef nonnull align 8 dereferenceable(121) %0) unnamed_addr #2 comdat align 2 personality ptr @__gxx_personality_v0 {
entry:
  %this.addr = alloca ptr, align 8
  %.addr = alloca ptr, align 8
  %exn.slot = alloca ptr, align 8
  %ehselector.slot = alloca i32, align 4
  store ptr %this, ptr %this.addr, align 8
  store ptr %0, ptr %.addr, align 8
  %this1 = load ptr, ptr %this.addr, align 8
  %summary = getelementptr inbounds %"struct.arrow::compute::FunctionDoc", ptr %this1, i32 0, i32 0
  %1 = load ptr, ptr %.addr, align 8
  %summary2 = getelementptr inbounds %"struct.arrow::compute::FunctionDoc", ptr %1, i32 0, i32 0
  call void @_ZNSt7__cxx1112basic_stringIcSt11char_traitsIcESaIcEEC1ERKS4_(ptr noundef nonnull align 8 dereferenceable(32) %summary, ptr noundef nonnull align 8 dereferenceable(32) %summary2)
  %description = getelementptr inbounds %"struct.arrow::compute::FunctionDoc", ptr %this1, i32 0, i32 1
  %2 = load ptr, ptr %.addr, align 8
  %description3 = getelementptr inbounds %"struct.arrow::compute::FunctionDoc", ptr %2, i32 0, i32 1
  invoke void @_ZNSt7__cxx1112basic_stringIcSt11char_traitsIcESaIcEEC1ERKS4_(ptr noundef nonnull align 8 dereferenceable(32) %description, ptr noundef nonnull align 8 dereferenceable(32) %description3)
          to label %invoke.cont unwind label %lpad

invoke.cont:                                      ; preds = %entry
  %arg_names = getelementptr inbounds %"struct.arrow::compute::FunctionDoc", ptr %this1, i32 0, i32 2
  %3 = load ptr, ptr %.addr, align 8
  %arg_names4 = getelementptr inbounds %"struct.arrow::compute::FunctionDoc", ptr %3, i32 0, i32 2
  invoke void @_ZNSt6vectorINSt7__cxx1112basic_stringIcSt11char_traitsIcESaIcEEESaIS5_EEC2ERKS7_(ptr noundef nonnull align 8 dereferenceable(24) %arg_names, ptr noundef nonnull align 8 dereferenceable(24) %arg_names4)
          to label %invoke.cont6 unwind label %lpad5

invoke.cont6:                                     ; preds = %invoke.cont
  %options_class = getelementptr inbounds %"struct.arrow::compute::FunctionDoc", ptr %this1, i32 0, i32 3
  %4 = load ptr, ptr %.addr, align 8
  %options_class7 = getelementptr inbounds %"struct.arrow::compute::FunctionDoc", ptr %4, i32 0, i32 3
  invoke void @_ZNSt7__cxx1112basic_stringIcSt11char_traitsIcESaIcEEC1ERKS4_(ptr noundef nonnull align 8 dereferenceable(32) %options_class, ptr noundef nonnull align 8 dereferenceable(32) %options_class7)
          to label %invoke.cont9 unwind label %lpad8

invoke.cont9:                                     ; preds = %invoke.cont6
  %options_required = getelementptr inbounds %"struct.arrow::compute::FunctionDoc", ptr %this1, i32 0, i32 4
  %5 = load ptr, ptr %.addr, align 8
  %options_required10 = getelementptr inbounds %"struct.arrow::compute::FunctionDoc", ptr %5, i32 0, i32 4
  %6 = load i8, ptr %options_required10, align 8
  %tobool = trunc i8 %6 to i1
  %frombool = zext i1 %tobool to i8
  store i8 %frombool, ptr %options_required, align 8
  ret void

lpad:                                             ; preds = %entry
  %7 = landingpad { ptr, i32 }
          cleanup
  %8 = extractvalue { ptr, i32 } %7, 0
  store ptr %8, ptr %exn.slot, align 8
  %9 = extractvalue { ptr, i32 } %7, 1
  store i32 %9, ptr %ehselector.slot, align 4
  br label %ehcleanup11

lpad5:                                            ; preds = %invoke.cont
  %10 = landingpad { ptr, i32 }
          cleanup
  %11 = extractvalue { ptr, i32 } %10, 0
  store ptr %11, ptr %exn.slot, align 8
  %12 = extractvalue { ptr, i32 } %10, 1
  store i32 %12, ptr %ehselector.slot, align 4
  br label %ehcleanup

lpad8:                                            ; preds = %invoke.cont6
  %13 = landingpad { ptr, i32 }
          cleanup
  %14 = extractvalue { ptr, i32 } %13, 0
  store ptr %14, ptr %exn.slot, align 8
  %15 = extractvalue { ptr, i32 } %13, 1
  store i32 %15, ptr %ehselector.slot, align 4
  call void @_ZNSt6vectorINSt7__cxx1112basic_stringIcSt11char_traitsIcESaIcEEESaIS5_EED2Ev(ptr noundef nonnull align 8 dereferenceable(24) %arg_names) #4
  br label %ehcleanup

ehcleanup:                                        ; preds = %lpad8, %lpad5
  call void @_ZNSt7__cxx1112basic_stringIcSt11char_traitsIcESaIcEED1Ev(ptr noundef nonnull align 8 dereferenceable(32) %description) #4
  br label %ehcleanup11

ehcleanup11:                                      ; preds = %ehcleanup, %lpad
  call void @_ZNSt7__cxx1112basic_stringIcSt11char_traitsIcESaIcEED1Ev(ptr noundef nonnull align 8 dereferenceable(32) %summary) #4
  br label %eh.resume

eh.resume:                                        ; preds = %ehcleanup11
  %exn = load ptr, ptr %exn.slot, align 8
  %sel = load i32, ptr %ehselector.slot, align 4
  %lpad.val = insertvalue { ptr, i32 } poison, ptr %exn, 0
  %lpad.val12 = insertvalue { ptr, i32 } %lpad.val, i32 %sel, 1
  resume { ptr, i32 } %lpad.val12
}

; Function Attrs: mustprogress uwtable
define linkonce_odr void @_ZN5arrow7compute12VectorKernelC2ERKS1_(ptr noundef nonnull align 8 dereferenceable(131) %this, ptr noundef nonnull align 8 dereferenceable(131) %0) unnamed_addr #2 comdat align 2 personality ptr @__gxx_personality_v0 {
entry:
  %this.addr = alloca ptr, align 8
  %.addr = alloca ptr, align 8
  %exn.slot = alloca ptr, align 8
  %ehselector.slot = alloca i32, align 4
  store ptr %this, ptr %this.addr, align 8
  store ptr %0, ptr %.addr, align 8
  %this1 = load ptr, ptr %this.addr, align 8
  %1 = load ptr, ptr %.addr, align 8
  call void @_ZN5arrow7compute6KernelC2ERKS1_(ptr noundef nonnull align 8 dereferenceable(72) %this1, ptr noundef nonnull align 8 dereferenceable(72) %1)
  %exec = getelementptr inbounds %"struct.arrow::compute::VectorKernel", ptr %this1, i32 0, i32 1
  %2 = load ptr, ptr %.addr, align 8
  %exec2 = getelementptr inbounds %"struct.arrow::compute::VectorKernel", ptr %2, i32 0, i32 1
  call void @llvm.memcpy.p0.p0.i64(ptr align 8 %exec, ptr align 8 %exec2, i64 16, i1 false)
  %finalize = getelementptr inbounds %"struct.arrow::compute::VectorKernel", ptr %this1, i32 0, i32 3
  %3 = load ptr, ptr %.addr, align 8
  %finalize3 = getelementptr inbounds %"struct.arrow::compute::VectorKernel", ptr %3, i32 0, i32 3
  invoke void @_ZNSt8functionIFN5arrow6StatusEPNS0_7compute13KernelContextEPSt6vectorINS0_5DatumESaIS6_EEEEC2ERKSB_(ptr noundef nonnull align 8 dereferenceable(32) %finalize, ptr noundef nonnull align 8 dereferenceable(32) %finalize3)
          to label %invoke.cont unwind label %lpad

invoke.cont:                                      ; preds = %entry
  %null_handling = getelementptr inbounds %"struct.arrow::compute::VectorKernel", ptr %this1, i32 0, i32 4
  %4 = load ptr, ptr %.addr, align 8
  %null_handling4 = getelementptr inbounds %"struct.arrow::compute::VectorKernel", ptr %4, i32 0, i32 4
  call void @llvm.memcpy.p0.p0.i64(ptr align 8 %null_handling, ptr align 8 %null_handling4, i64 11, i1 false)
  ret void

lpad:                                             ; preds = %entry
  %5 = landingpad { ptr, i32 }
          cleanup
  %6 = extractvalue { ptr, i32 } %5, 0
  store ptr %6, ptr %exn.slot, align 8
  %7 = extractvalue { ptr, i32 } %5, 1
  store i32 %7, ptr %ehselector.slot, align 4
  call void @_ZN5arrow7compute6KernelD2Ev(ptr noundef nonnull align 8 dereferenceable(72) %this1) #4
  br label %eh.resume

eh.resume:                                        ; preds = %lpad
  %exn = load ptr, ptr %exn.slot, align 8
  %sel = load i32, ptr %ehselector.slot, align 4
  %lpad.val = insertvalue { ptr, i32 } poison, ptr %exn, 0
  %lpad.val5 = insertvalue { ptr, i32 } %lpad.val, i32 %sel, 1
  resume { ptr, i32 } %lpad.val5
}

declare noundef ptr @_ZN5arrow7compute8internal23GetDefaultFilterOptionsEv() #5

; Function Attrs: mustprogress nounwind uwtable
define linkonce_odr void @_ZN5arrow7compute12VectorKernelD2Ev(ptr noundef nonnull align 8 dereferenceable(131) %this) unnamed_addr #3 comdat align 2 {
entry:
  %this.addr = alloca ptr, align 8
  store ptr %this, ptr %this.addr, align 8
  %this1 = load ptr, ptr %this.addr, align 8
  %finalize = getelementptr inbounds %"struct.arrow::compute::VectorKernel", ptr %this1, i32 0, i32 3
  call void @_ZNSt8functionIFN5arrow6StatusEPNS0_7compute13KernelContextEPSt6vectorINS0_5DatumESaIS6_EEEED2Ev(ptr noundef nonnull align 8 dereferenceable(32) %finalize) #4
  call void @_ZN5arrow7compute6KernelD2Ev(ptr noundef nonnull align 8 dereferenceable(72) %this1) #4
  ret void
}

declare void @_ZN5arrow7compute16FunctionRegistry11AddFunctionESt10shared_ptrINS0_8FunctionEEb(ptr sret(%"class.arrow::Status") align 8, ptr noundef nonnull align 8 dereferenceable(8), ptr noundef, i1 noundef zeroext) #5

declare void @_ZN5arrow7compute8internal22MakeFilterMetaFunctionEv(ptr sret(%"class.std::unique_ptr.23") align 8) #5

; Function Attrs: mustprogress uwtable
define linkonce_odr void @_ZNSt10shared_ptrIN5arrow7compute8FunctionEEC2IS2_St14default_deleteIS2_EvEEOSt10unique_ptrIT_T0_E(ptr noundef nonnull align 8 dereferenceable(16) %this, ptr noundef nonnull align 8 dereferenceable(8) %__r) unnamed_addr #2 comdat align 2 {
entry:
  %this.addr = alloca ptr, align 8
  %__r.addr = alloca ptr, align 8
  store ptr %this, ptr %this.addr, align 8
  store ptr %__r, ptr %__r.addr, align 8
  %this1 = load ptr, ptr %this.addr, align 8
  %0 = load ptr, ptr %__r.addr, align 8
  call void @_ZNSt12__shared_ptrIN5arrow7compute8FunctionELN9__gnu_cxx12_Lock_policyE2EEC2IS2_St14default_deleteIS2_EvEEOSt10unique_ptrIT_T0_E(ptr noundef nonnull align 8 dereferenceable(16) %this1, ptr noundef nonnull align 8 dereferenceable(8) %0)
  ret void
}

; Function Attrs: mustprogress nounwind uwtable
define linkonce_odr void @_ZN5arrow6StatusD2Ev(ptr noundef nonnull align 8 dereferenceable(8) %this) unnamed_addr #3 comdat align 2 personality ptr @__gxx_personality_v0 {
entry:
  %this.addr = alloca ptr, align 8
  store ptr %this, ptr %this.addr, align 8
  %this1 = load ptr, ptr %this.addr, align 8
  %state_ = getelementptr inbounds %"class.arrow::Status", ptr %this1, i32 0, i32 0
  %0 = load ptr, ptr %state_, align 8
  %cmp = icmp ne ptr %0, null
  %lnot = xor i1 %cmp, true
  %lnot2 = xor i1 %lnot, true
  br i1 %lnot2, label %if.then, label %if.end

if.then:                                          ; preds = %entry
  invoke void @_ZN5arrow6Status11DeleteStateEv(ptr noundef nonnull align 8 dereferenceable(8) %this1)
          to label %invoke.cont unwind label %terminate.lpad

invoke.cont:                                      ; preds = %if.then
  br label %if.end

if.end:                                           ; preds = %invoke.cont, %entry
  call void @_ZN5arrow4util19ToStringOstreamableINS_6StatusEED2Ev(ptr noundef nonnull align 1 dereferenceable(1) %this1) #4
  call void @_ZN5arrow4util18EqualityComparableINS_6StatusEED2Ev(ptr noundef nonnull align 1 dereferenceable(1) %this1) #4
  ret void

terminate.lpad:                                   ; preds = %if.then
  %1 = landingpad { ptr, i32 }
          catch ptr null
  %2 = extractvalue { ptr, i32 } %1, 0
  call void @__clang_call_terminate(ptr %2) #16
  unreachable
}

; Function Attrs: mustprogress nounwind uwtable
define linkonce_odr void @_ZNSt10shared_ptrIN5arrow7compute8FunctionEED2Ev(ptr noundef nonnull align 8 dereferenceable(16) %this) unnamed_addr #3 comdat align 2 {
entry:
  %this.addr = alloca ptr, align 8
  store ptr %this, ptr %this.addr, align 8
  %this1 = load ptr, ptr %this.addr, align 8
  call void @_ZNSt12__shared_ptrIN5arrow7compute8FunctionELN9__gnu_cxx12_Lock_policyE2EED2Ev(ptr noundef nonnull align 8 dereferenceable(16) %this1) #4
  ret void
}

; Function Attrs: mustprogress nounwind uwtable
define linkonce_odr void @_ZNSt10unique_ptrIN5arrow7compute8FunctionESt14default_deleteIS2_EED2Ev(ptr noundef nonnull align 8 dereferenceable(8) %this) unnamed_addr #3 comdat align 2 personality ptr @__gxx_personality_v0 {
entry:
  %this.addr = alloca ptr, align 8
  %__ptr = alloca ptr, align 8
  store ptr %this, ptr %this.addr, align 8
  %this1 = load ptr, ptr %this.addr, align 8
  %_M_t = getelementptr inbounds %"class.std::unique_ptr.23", ptr %this1, i32 0, i32 0
  %call = call noundef nonnull align 8 dereferenceable(8) ptr @_ZNSt15__uniq_ptr_implIN5arrow7compute8FunctionESt14default_deleteIS2_EE6_M_ptrEv(ptr noundef nonnull align 8 dereferenceable(8) %_M_t) #4
  store ptr %call, ptr %__ptr, align 8
  %0 = load ptr, ptr %__ptr, align 8
  %1 = load ptr, ptr %0, align 8
  %cmp = icmp ne ptr %1, null
  br i1 %cmp, label %if.then, label %if.end

if.then:                                          ; preds = %entry
  %call2 = call noundef nonnull align 1 dereferenceable(1) ptr @_ZNSt10unique_ptrIN5arrow7compute8FunctionESt14default_deleteIS2_EE11get_deleterEv(ptr noundef nonnull align 8 dereferenceable(8) %this1) #4
  %2 = load ptr, ptr %__ptr, align 8
  %3 = load ptr, ptr %2, align 8
  invoke void @_ZNKSt14default_deleteIN5arrow7compute8FunctionEEclEPS2_(ptr noundef nonnull align 1 dereferenceable(1) %call2, ptr noundef %3)
          to label %invoke.cont unwind label %terminate.lpad

invoke.cont:                                      ; preds = %if.then
  br label %if.end

if.end:                                           ; preds = %invoke.cont, %entry
  %4 = load ptr, ptr %__ptr, align 8
  store ptr null, ptr %4, align 8
  ret void

terminate.lpad:                                   ; preds = %if.then
  %5 = landingpad { ptr, i32 }
          catch ptr null
  %6 = extractvalue { ptr, i32 } %5, 0
  call void @__clang_call_terminate(ptr %6) #16
  unreachable
}

declare void @_ZN5arrow7compute8internal19PopulateTakeKernelsEPSt6vectorINS1_19SelectionKernelDataESaIS3_EE(ptr noundef) #5

; Function Attrs: mustprogress uwtable
define linkonce_odr void @_ZN5arrow7compute8internal14OptionsWrapperINS0_11TakeOptionsEE4InitEPNS0_13KernelContextERKNS0_14KernelInitArgsE(ptr noalias sret(%"class.arrow::Result") align 8 %agg.result, ptr noundef %ctx, ptr noundef nonnull align 8 dereferenceable(24) %args) #2 comdat align 2 {
entry:
  %result.ptr = alloca ptr, align 8
  %ctx.addr = alloca ptr, align 8
  %args.addr = alloca ptr, align 8
  %options = alloca ptr, align 8
  %ref.tmp = alloca %"class.std::unique_ptr.386", align 8
  %ref.tmp2 = alloca %"class.arrow::Status", align 8
  store ptr %agg.result, ptr %result.ptr, align 8
  store ptr %ctx, ptr %ctx.addr, align 8
  store ptr %args, ptr %args.addr, align 8
  %0 = load ptr, ptr %args.addr, align 8
  %options1 = getelementptr inbounds %"struct.arrow::compute::KernelInitArgs", ptr %0, i32 0, i32 2
  %1 = load ptr, ptr %options1, align 8
  store ptr %1, ptr %options, align 8
  %2 = load ptr, ptr %options, align 8
  %tobool = icmp ne ptr %2, null
  br i1 %tobool, label %if.then, label %if.end

if.then:                                          ; preds = %entry
  %3 = load ptr, ptr %options, align 8
  call void @_ZSt11make_uniqueIN5arrow7compute8internal14OptionsWrapperINS1_11TakeOptionsEEEJRKS4_EENSt8__detail9_MakeUniqIT_E15__single_objectEDpOT0_(ptr sret(%"class.std::unique_ptr.386") align 8 %ref.tmp, ptr noundef nonnull align 8 dereferenceable(17) %3)
  call void @_ZN5arrow6ResultISt10unique_ptrINS_7compute11KernelStateESt14default_deleteIS3_EEEC2IS1_INS2_8internal14OptionsWrapperINS2_11TakeOptionsEEES4_ISC_EEvEEOT_(ptr noundef nonnull align 8 dereferenceable(16) %agg.result, ptr noundef nonnull align 8 dereferenceable(8) %ref.tmp) #4
  call void @_ZNSt10unique_ptrIN5arrow7compute8internal14OptionsWrapperINS1_11TakeOptionsEEESt14default_deleteIS5_EED2Ev(ptr noundef nonnull align 8 dereferenceable(8) %ref.tmp) #4
  br label %return

if.end:                                           ; preds = %entry
  call void @_ZN5arrow6Status7InvalidIJRA62_KcEEES0_DpOT_(ptr sret(%"class.arrow::Status") align 8 %ref.tmp2, ptr noundef nonnull align 1 dereferenceable(62) @.str.33)
  call void @_ZN5arrow6ResultISt10unique_ptrINS_7compute11KernelStateESt14default_deleteIS3_EEEC2ERKNS_6StatusE(ptr noundef nonnull align 8 dereferenceable(16) %agg.result, ptr noundef nonnull align 8 dereferenceable(8) %ref.tmp2) #4
  call void @_ZN5arrow6StatusD2Ev(ptr noundef nonnull align 8 dereferenceable(8) %ref.tmp2) #4
  br label %return

return:                                           ; preds = %if.end, %if.then
  ret void
}

declare noundef ptr @_ZN5arrow7compute8internal21GetDefaultTakeOptionsEv() #5

declare void @_ZN5arrow7compute8internal20MakeTakeMetaFunctionEv(ptr sret(%"class.std::unique_ptr.23") align 8) #5

; Function Attrs: mustprogress uwtable
define internal void @_ZSt11make_sharedIN5arrow7compute8internal12_GLOBAL__N_120DropNullMetaFunctionEJEESt10shared_ptrINSt9enable_ifIXntsr8is_arrayIT_EE5valueES7_E4typeEEDpOT0_(ptr noalias sret(%"class.std::shared_ptr.31") align 8 %agg.result) #2 {
entry:
  %result.ptr = alloca ptr, align 8
  %__a = alloca %"class.std::allocator.67", align 1
  %agg.tmp = alloca %"struct.std::_Sp_alloc_shared_tag", align 8
  store ptr %agg.result, ptr %result.ptr, align 8
  %_M_a = getelementptr inbounds %"struct.std::_Sp_alloc_shared_tag", ptr %agg.tmp, i32 0, i32 0
  store ptr %__a, ptr %_M_a, align 8
  %coerce.dive = getelementptr inbounds %"struct.std::_Sp_alloc_shared_tag", ptr %agg.tmp, i32 0, i32 0
  %0 = load ptr, ptr %coerce.dive, align 8
  call void @_ZNSt10shared_ptrIN5arrow7compute8internal12_GLOBAL__N_120DropNullMetaFunctionEEC2ISaIvEJEEESt20_Sp_alloc_shared_tagIT_EDpOT0_(ptr noundef nonnull align 8 dereferenceable(16) %agg.result, ptr %0)
  ret void
}

; Function Attrs: mustprogress nounwind uwtable
define internal void @_ZNSt10shared_ptrIN5arrow7compute8FunctionEEC2INS1_8internal12_GLOBAL__N_120DropNullMetaFunctionEvEEOS_IT_E(ptr noundef nonnull align 8 dereferenceable(16) %this, ptr noundef nonnull align 8 dereferenceable(16) %__r) unnamed_addr #3 align 2 {
entry:
  %this.addr = alloca ptr, align 8
  %__r.addr = alloca ptr, align 8
  store ptr %this, ptr %this.addr, align 8
  store ptr %__r, ptr %__r.addr, align 8
  %this1 = load ptr, ptr %this.addr, align 8
  %0 = load ptr, ptr %__r.addr, align 8
  call void @_ZNSt12__shared_ptrIN5arrow7compute8FunctionELN9__gnu_cxx12_Lock_policyE2EEC2INS1_8internal12_GLOBAL__N_120DropNullMetaFunctionEvEEOS_IT_LS4_2EE(ptr noundef nonnull align 8 dereferenceable(16) %this1, ptr noundef nonnull align 8 dereferenceable(16) %0) #4
  ret void
}

; Function Attrs: mustprogress nounwind uwtable
define internal void @_ZNSt10shared_ptrIN5arrow7compute8internal12_GLOBAL__N_120DropNullMetaFunctionEED2Ev(ptr noundef nonnull align 8 dereferenceable(16) %this) unnamed_addr #3 align 2 {
entry:
  %this.addr = alloca ptr, align 8
  store ptr %this, ptr %this.addr, align 8
  %this1 = load ptr, ptr %this.addr, align 8
  call void @_ZNSt12__shared_ptrIN5arrow7compute8internal12_GLOBAL__N_120DropNullMetaFunctionELN9__gnu_cxx12_Lock_policyE2EED2Ev(ptr noundef nonnull align 8 dereferenceable(16) %this1) #4
  ret void
}

; Function Attrs: mustprogress uwtable
define internal void @_ZN5arrow7compute8internal12_GLOBAL__N_126MakeIndicesNonZeroFunctionENSt7__cxx1112basic_stringIcSt11char_traitsIcESaIcEEENS0_11FunctionDocE(ptr noalias sret(%"class.std::shared_ptr.34") align 8 %agg.result, ptr noundef %name, ptr noundef %doc) #2 personality ptr @__gxx_personality_v0 {
entry:
  %result.ptr = alloca ptr, align 8
  %name.indirect_addr = alloca ptr, align 8
  %doc.indirect_addr = alloca ptr, align 8
  %nrvo = alloca i1, align 1
  %ref.tmp = alloca %"struct.arrow::compute::Arity", align 4
  %kernel = alloca %"struct.arrow::compute::VectorKernel", align 8
  %AddKernels = alloca %class.anon, align 8
  %exn.slot = alloca ptr, align 8
  %ehselector.slot = alloca i32, align 4
  %ref.tmp3 = alloca %"class.std::vector.40", align 8
  %agg.tmp = alloca %"class.std::initializer_list.45", align 8
  %ref.tmp4 = alloca [1 x %"class.std::shared_ptr.46"], align 8
  %arrayinit.endOfInit = alloca ptr, align 8
  %ref.tmp9 = alloca %"class.std::allocator.42", align 1
  %__range3 = alloca ptr, align 8
  %ref.tmp26 = alloca %"class.std::initializer_list.49", align 8
  %ref.tmp27 = alloca [2 x i32], align 4
  %__begin3 = alloca ptr, align 8
  %__end3 = alloca ptr, align 8
  %ty = alloca ptr, align 8
  %ref.tmp34 = alloca %"class.std::shared_ptr", align 8
  %agg.tmp35 = alloca %"class.std::vector.50", align 8
  %agg.tmp36 = alloca %"class.std::initializer_list.58", align 8
  %ref.tmp37 = alloca [1 x %"class.arrow::compute::InputType"], align 8
  %arrayinit.endOfInit39 = alloca ptr, align 8
  %ref.tmp52 = alloca %"class.std::allocator.52", align 1
  %agg.tmp55 = alloca %"class.arrow::compute::OutputType", align 8
  %agg.tmp56 = alloca %"class.std::shared_ptr.46", align 8
  %agg.tmp.ensured = alloca %"class.arrow::Status", align 8
  %agg.tmp83 = alloca %"struct.arrow::compute::VectorKernel", align 8
  store ptr %agg.result, ptr %result.ptr, align 8
  store ptr %name, ptr %name.indirect_addr, align 8
  store ptr %doc, ptr %doc.indirect_addr, align 8
  store i1 false, ptr %nrvo, align 1
  %call = call i64 @_ZN5arrow7compute5Arity5UnaryEv()
  store i64 %call, ptr %ref.tmp, align 4
  call void @_ZSt11make_sharedIN5arrow7compute14VectorFunctionEJRNSt7__cxx1112basic_stringIcSt11char_traitsIcESaIcEEENS1_5ArityENS1_11FunctionDocEEESt10shared_ptrINSt9enable_ifIXntsr8is_arrayIT_EE5valueESE_E4typeEEDpOT0_(ptr sret(%"class.std::shared_ptr.34") align 8 %agg.result, ptr noundef nonnull align 8 dereferenceable(32) %name, ptr noundef nonnull align 4 dereferenceable(5) %ref.tmp, ptr noundef nonnull align 8 dereferenceable(121) %doc)
  call void @_ZN5arrow7compute12VectorKernelC2Ev(ptr noundef nonnull align 8 dereferenceable(131) %kernel) #4
  %null_handling = getelementptr inbounds %"struct.arrow::compute::VectorKernel", ptr %kernel, i32 0, i32 4
  store i32 3, ptr %null_handling, align 8
  %mem_allocation = getelementptr inbounds %"struct.arrow::compute::VectorKernel", ptr %kernel, i32 0, i32 5
  store i32 1, ptr %mem_allocation, align 4
  %output_chunked = getelementptr inbounds %"struct.arrow::compute::VectorKernel", ptr %kernel, i32 0, i32 8
  store i8 0, ptr %output_chunked, align 2
  %exec = getelementptr inbounds %"struct.arrow::compute::VectorKernel", ptr %kernel, i32 0, i32 1
  store ptr @_ZN5arrow7compute8internal12_GLOBAL__N_118IndicesNonZeroExecEPNS0_13KernelContextERKNS0_8ExecSpanEPNS0_10ExecResultE, ptr %exec, align 8
  %exec_chunked = getelementptr inbounds %"struct.arrow::compute::VectorKernel", ptr %kernel, i32 0, i32 2
  store ptr @_ZN5arrow7compute8internal12_GLOBAL__N_125IndicesNonZeroExecChunkedEPNS0_13KernelContextERKNS0_9ExecBatchEPNS_5DatumE, ptr %exec_chunked, align 8
  %can_execute_chunkwise = getelementptr inbounds %"struct.arrow::compute::VectorKernel", ptr %kernel, i32 0, i32 7
  store i8 0, ptr %can_execute_chunkwise, align 1
  %0 = getelementptr inbounds %class.anon, ptr %AddKernels, i32 0, i32 0
  store ptr %kernel, ptr %0, align 8
  %1 = getelementptr inbounds %class.anon, ptr %AddKernels, i32 0, i32 1
  store ptr %agg.result, ptr %1, align 8
  %call1 = invoke noundef nonnull align 8 dereferenceable(24) ptr @_ZN5arrow12NumericTypesEv()
          to label %invoke.cont unwind label %lpad

invoke.cont:                                      ; preds = %entry
  invoke void @"_ZZN5arrow7compute8internal12_GLOBAL__N_126MakeIndicesNonZeroFunctionENSt7__cxx1112basic_stringIcSt11char_traitsIcESaIcEEENS0_11FunctionDocEENK3$_0clERKSt6vectorISt10shared_ptrINS_8DataTypeEESaISE_EE"(ptr noundef nonnull align 8 dereferenceable(16) %AddKernels, ptr noundef nonnull align 8 dereferenceable(24) %call1)
          to label %invoke.cont2 unwind label %lpad

invoke.cont2:                                     ; preds = %invoke.cont
  %arrayinit.begin = getelementptr inbounds [1 x %"class.std::shared_ptr.46"], ptr %ref.tmp4, i64 0, i64 0
  store ptr %arrayinit.begin, ptr %arrayinit.endOfInit, align 8
  %call7 = invoke noundef nonnull align 8 dereferenceable(16) ptr @_ZN5arrow7booleanEv()
          to label %invoke.cont6 unwind label %lpad5

invoke.cont6:                                     ; preds = %invoke.cont2
  call void @_ZNSt10shared_ptrIN5arrow8DataTypeEEC2ERKS2_(ptr noundef nonnull align 8 dereferenceable(16) %arrayinit.begin, ptr noundef nonnull align 8 dereferenceable(16) %call7) #4
  %_M_array = getelementptr inbounds %"class.std::initializer_list.45", ptr %agg.tmp, i32 0, i32 0
  %arraystart = getelementptr inbounds [1 x %"class.std::shared_ptr.46"], ptr %ref.tmp4, i64 0, i64 0
  store ptr %arraystart, ptr %_M_array, align 8
  %_M_len = getelementptr inbounds %"class.std::initializer_list.45", ptr %agg.tmp, i32 0, i32 1
  store i64 1, ptr %_M_len, align 8
  call void @_ZNSaISt10shared_ptrIN5arrow8DataTypeEEEC2Ev(ptr noundef nonnull align 1 dereferenceable(1) %ref.tmp9) #4
  %2 = getelementptr inbounds { ptr, i64 }, ptr %agg.tmp, i32 0, i32 0
  %3 = load ptr, ptr %2, align 8
  %4 = getelementptr inbounds { ptr, i64 }, ptr %agg.tmp, i32 0, i32 1
  %5 = load i64, ptr %4, align 8
  invoke void @_ZNSt6vectorISt10shared_ptrIN5arrow8DataTypeEESaIS3_EEC2ESt16initializer_listIS3_ERKS4_(ptr noundef nonnull align 8 dereferenceable(24) %ref.tmp3, ptr %3, i64 %5, ptr noundef nonnull align 1 dereferenceable(1) %ref.tmp9)
          to label %invoke.cont11 unwind label %lpad10

invoke.cont11:                                    ; preds = %invoke.cont6
  invoke void @"_ZZN5arrow7compute8internal12_GLOBAL__N_126MakeIndicesNonZeroFunctionENSt7__cxx1112basic_stringIcSt11char_traitsIcESaIcEEENS0_11FunctionDocEENK3$_0clERKSt6vectorISt10shared_ptrINS_8DataTypeEESaISE_EE"(ptr noundef nonnull align 8 dereferenceable(16) %AddKernels, ptr noundef nonnull align 8 dereferenceable(24) %ref.tmp3)
          to label %invoke.cont13 unwind label %lpad12

invoke.cont13:                                    ; preds = %invoke.cont11
  call void @_ZNSt6vectorISt10shared_ptrIN5arrow8DataTypeEESaIS3_EED2Ev(ptr noundef nonnull align 8 dereferenceable(24) %ref.tmp3) #4
  call void @_ZNSaISt10shared_ptrIN5arrow8DataTypeEEED2Ev(ptr noundef nonnull align 1 dereferenceable(1) %ref.tmp9) #4
  %array.begin = getelementptr inbounds [1 x %"class.std::shared_ptr.46"], ptr %ref.tmp4, i32 0, i32 0
  %6 = getelementptr inbounds %"class.std::shared_ptr.46", ptr %array.begin, i64 1
  br label %arraydestroy.body14

arraydestroy.body14:                              ; preds = %arraydestroy.body14, %invoke.cont13
  %arraydestroy.elementPast15 = phi ptr [ %6, %invoke.cont13 ], [ %arraydestroy.element16, %arraydestroy.body14 ]
  %arraydestroy.element16 = getelementptr inbounds %"class.std::shared_ptr.46", ptr %arraydestroy.elementPast15, i64 -1
  call void @_ZNSt10shared_ptrIN5arrow8DataTypeEED2Ev(ptr noundef nonnull align 8 dereferenceable(16) %arraydestroy.element16) #4
  %arraydestroy.done17 = icmp eq ptr %arraydestroy.element16, %array.begin
  br i1 %arraydestroy.done17, label %arraydestroy.done18, label %arraydestroy.body14

arraydestroy.done18:                              ; preds = %arraydestroy.body14
  %arrayinit.begin28 = getelementptr inbounds [2 x i32], ptr %ref.tmp27, i64 0, i64 0
  store i32 23, ptr %arrayinit.begin28, align 4
  %arrayinit.element = getelementptr inbounds i32, ptr %arrayinit.begin28, i64 1
  store i32 24, ptr %arrayinit.element, align 4
  %_M_array29 = getelementptr inbounds %"class.std::initializer_list.49", ptr %ref.tmp26, i32 0, i32 0
  %arraystart30 = getelementptr inbounds [2 x i32], ptr %ref.tmp27, i64 0, i64 0
  store ptr %arraystart30, ptr %_M_array29, align 8
  %_M_len31 = getelementptr inbounds %"class.std::initializer_list.49", ptr %ref.tmp26, i32 0, i32 1
  store i64 2, ptr %_M_len31, align 8
  store ptr %ref.tmp26, ptr %__range3, align 8
  %7 = load ptr, ptr %__range3, align 8
  %call32 = call noundef ptr @_ZNKSt16initializer_listIN5arrow4Type4typeEE5beginEv(ptr noundef nonnull align 8 dereferenceable(16) %7) #4
  store ptr %call32, ptr %__begin3, align 8
  %8 = load ptr, ptr %__range3, align 8
  %call33 = call noundef ptr @_ZNKSt16initializer_listIN5arrow4Type4typeEE3endEv(ptr noundef nonnull align 8 dereferenceable(16) %8) #4
  store ptr %call33, ptr %__end3, align 8
  br label %for.cond

for.cond:                                         ; preds = %for.inc, %arraydestroy.done18
  %9 = load ptr, ptr %__begin3, align 8
  %10 = load ptr, ptr %__end3, align 8
  %cmp = icmp ne ptr %9, %10
  br i1 %cmp, label %for.body, label %for.end

for.body:                                         ; preds = %for.cond
  %11 = load ptr, ptr %__begin3, align 8
  store ptr %11, ptr %ty, align 8
  %arrayinit.begin38 = getelementptr inbounds [1 x %"class.arrow::compute::InputType"], ptr %ref.tmp37, i64 0, i64 0
  store ptr %arrayinit.begin38, ptr %arrayinit.endOfInit39, align 8
  %12 = load ptr, ptr %ty, align 8
  %13 = load i32, ptr %12, align 4
  invoke void @_ZN5arrow7compute9InputTypeC2ENS_4Type4typeE(ptr noundef nonnull align 8 dereferenceable(40) %arrayinit.begin38, i32 noundef %13)
          to label %invoke.cont41 unwind label %lpad40

invoke.cont41:                                    ; preds = %for.body
  %_M_array49 = getelementptr inbounds %"class.std::initializer_list.58", ptr %agg.tmp36, i32 0, i32 0
  %arraystart50 = getelementptr inbounds [1 x %"class.arrow::compute::InputType"], ptr %ref.tmp37, i64 0, i64 0
  store ptr %arraystart50, ptr %_M_array49, align 8
  %_M_len51 = getelementptr inbounds %"class.std::initializer_list.58", ptr %agg.tmp36, i32 0, i32 1
  store i64 1, ptr %_M_len51, align 8
  call void @_ZNSaIN5arrow7compute9InputTypeEEC2Ev(ptr noundef nonnull align 1 dereferenceable(1) %ref.tmp52) #4
  %14 = getelementptr inbounds { ptr, i64 }, ptr %agg.tmp36, i32 0, i32 0
  %15 = load ptr, ptr %14, align 8
  %16 = getelementptr inbounds { ptr, i64 }, ptr %agg.tmp36, i32 0, i32 1
  %17 = load i64, ptr %16, align 8
  invoke void @_ZNSt6vectorIN5arrow7compute9InputTypeESaIS2_EEC2ESt16initializer_listIS2_ERKS3_(ptr noundef nonnull align 8 dereferenceable(24) %agg.tmp35, ptr %15, i64 %17, ptr noundef nonnull align 1 dereferenceable(1) %ref.tmp52)
          to label %invoke.cont54 unwind label %lpad53

invoke.cont54:                                    ; preds = %invoke.cont41
  %call59 = invoke noundef nonnull align 8 dereferenceable(16) ptr @_ZN5arrow6uint64Ev()
          to label %invoke.cont58 unwind label %lpad57

invoke.cont58:                                    ; preds = %invoke.cont54
  call void @_ZNSt10shared_ptrIN5arrow8DataTypeEEC2ERKS2_(ptr noundef nonnull align 8 dereferenceable(16) %agg.tmp56, ptr noundef nonnull align 8 dereferenceable(16) %call59) #4
  invoke void @_ZN5arrow7compute10OutputTypeC2ESt10shared_ptrINS_8DataTypeEE(ptr noundef nonnull align 8 dereferenceable(56) %agg.tmp55, ptr noundef %agg.tmp56)
          to label %invoke.cont61 unwind label %lpad60

invoke.cont61:                                    ; preds = %invoke.cont58
  invoke void @_ZN5arrow7compute15KernelSignature4MakeESt6vectorINS0_9InputTypeESaIS3_EENS0_10OutputTypeEb(ptr sret(%"class.std::shared_ptr") align 8 %ref.tmp34, ptr noundef %agg.tmp35, ptr noundef %agg.tmp55, i1 noundef zeroext false)
          to label %invoke.cont63 unwind label %lpad62

invoke.cont63:                                    ; preds = %invoke.cont61
  %signature = getelementptr inbounds %"struct.arrow::compute::Kernel", ptr %kernel, i32 0, i32 0
  %call64 = call noundef nonnull align 8 dereferenceable(16) ptr @_ZNSt10shared_ptrIN5arrow7compute15KernelSignatureEEaSEOS3_(ptr noundef nonnull align 8 dereferenceable(16) %signature, ptr noundef nonnull align 8 dereferenceable(16) %ref.tmp34) #4
  call void @_ZNSt10shared_ptrIN5arrow7compute15KernelSignatureEED2Ev(ptr noundef nonnull align 8 dereferenceable(16) %ref.tmp34) #4
  call void @_ZN5arrow7compute10OutputTypeD2Ev(ptr noundef nonnull align 8 dereferenceable(56) %agg.tmp55) #4
  call void @_ZNSt10shared_ptrIN5arrow8DataTypeEED2Ev(ptr noundef nonnull align 8 dereferenceable(16) %agg.tmp56) #4
  call void @_ZNSt6vectorIN5arrow7compute9InputTypeESaIS2_EED2Ev(ptr noundef nonnull align 8 dereferenceable(24) %agg.tmp35) #4
  call void @_ZNSaIN5arrow7compute9InputTypeEED2Ev(ptr noundef nonnull align 1 dereferenceable(1) %ref.tmp52) #4
  %array.begin69 = getelementptr inbounds [1 x %"class.arrow::compute::InputType"], ptr %ref.tmp37, i32 0, i32 0
  %18 = getelementptr inbounds %"class.arrow::compute::InputType", ptr %array.begin69, i64 1
  br label %arraydestroy.body70

arraydestroy.body70:                              ; preds = %arraydestroy.body70, %invoke.cont63
  %arraydestroy.elementPast71 = phi ptr [ %18, %invoke.cont63 ], [ %arraydestroy.element72, %arraydestroy.body70 ]
  %arraydestroy.element72 = getelementptr inbounds %"class.arrow::compute::InputType", ptr %arraydestroy.elementPast71, i64 -1
  call void @_ZN5arrow7compute9InputTypeD2Ev(ptr noundef nonnull align 8 dereferenceable(40) %arraydestroy.element72) #4
  %arraydestroy.done73 = icmp eq ptr %arraydestroy.element72, %array.begin69
  br i1 %arraydestroy.done73, label %arraydestroy.done74, label %arraydestroy.body70

arraydestroy.done74:                              ; preds = %arraydestroy.body70
  %call82 = call noundef ptr @_ZNKSt19__shared_ptr_accessIN5arrow7compute14VectorFunctionELN9__gnu_cxx12_Lock_policyE2ELb0ELb0EEptEv(ptr noundef nonnull align 1 dereferenceable(1) %agg.result) #4
  invoke void @_ZN5arrow7compute12VectorKernelC2ERKS1_(ptr noundef nonnull align 8 dereferenceable(131) %agg.tmp83, ptr noundef nonnull align 8 dereferenceable(131) %kernel)
          to label %invoke.cont84 unwind label %lpad

invoke.cont84:                                    ; preds = %arraydestroy.done74
  invoke void @_ZN5arrow7compute14VectorFunction9AddKernelENS0_12VectorKernelE(ptr sret(%"class.arrow::Status") align 8 %agg.tmp.ensured, ptr noundef nonnull align 8 dereferenceable(216) %call82, ptr noundef %agg.tmp83)
          to label %invoke.cont86 unwind label %lpad85

invoke.cont86:                                    ; preds = %invoke.cont84
  call void @_ZN5arrow6StatusD2Ev(ptr noundef nonnull align 8 dereferenceable(8) %agg.tmp.ensured) #4
  call void @_ZN5arrow7compute12VectorKernelD2Ev(ptr noundef nonnull align 8 dereferenceable(131) %agg.tmp83) #4
  br label %while.cond

while.cond:                                       ; preds = %while.body, %invoke.cont86
  br i1 false, label %while.body, label %while.end

while.body:                                       ; preds = %while.cond
  br label %while.cond, !llvm.loop !9

lpad:                                             ; preds = %arraydestroy.done74, %invoke.cont, %entry
  %19 = landingpad { ptr, i32 }
          cleanup
  %20 = extractvalue { ptr, i32 } %19, 0
  store ptr %20, ptr %exn.slot, align 8
  %21 = extractvalue { ptr, i32 } %19, 1
  store i32 %21, ptr %ehselector.slot, align 4
  br label %ehcleanup89

lpad5:                                            ; preds = %invoke.cont2
  %22 = landingpad { ptr, i32 }
          cleanup
  %23 = extractvalue { ptr, i32 } %22, 0
  store ptr %23, ptr %exn.slot, align 8
  %24 = extractvalue { ptr, i32 } %22, 1
  store i32 %24, ptr %ehselector.slot, align 4
  %25 = load ptr, ptr %arrayinit.endOfInit, align 8
  %arraydestroy.isempty = icmp eq ptr %arrayinit.begin, %25
  br i1 %arraydestroy.isempty, label %arraydestroy.done8, label %arraydestroy.body

arraydestroy.body:                                ; preds = %arraydestroy.body, %lpad5
  %arraydestroy.elementPast = phi ptr [ %25, %lpad5 ], [ %arraydestroy.element, %arraydestroy.body ]
  %arraydestroy.element = getelementptr inbounds %"class.std::shared_ptr.46", ptr %arraydestroy.elementPast, i64 -1
  call void @_ZNSt10shared_ptrIN5arrow8DataTypeEED2Ev(ptr noundef nonnull align 8 dereferenceable(16) %arraydestroy.element) #4
  %arraydestroy.done = icmp eq ptr %arraydestroy.element, %arrayinit.begin
  br i1 %arraydestroy.done, label %arraydestroy.done8, label %arraydestroy.body

arraydestroy.done8:                               ; preds = %arraydestroy.body, %lpad5
  br label %ehcleanup89

lpad10:                                           ; preds = %invoke.cont6
  %26 = landingpad { ptr, i32 }
          cleanup
  %27 = extractvalue { ptr, i32 } %26, 0
  store ptr %27, ptr %exn.slot, align 8
  %28 = extractvalue { ptr, i32 } %26, 1
  store i32 %28, ptr %ehselector.slot, align 4
  br label %ehcleanup

lpad12:                                           ; preds = %invoke.cont11
  %29 = landingpad { ptr, i32 }
          cleanup
  %30 = extractvalue { ptr, i32 } %29, 0
  store ptr %30, ptr %exn.slot, align 8
  %31 = extractvalue { ptr, i32 } %29, 1
  store i32 %31, ptr %ehselector.slot, align 4
  call void @_ZNSt6vectorISt10shared_ptrIN5arrow8DataTypeEESaIS3_EED2Ev(ptr noundef nonnull align 8 dereferenceable(24) %ref.tmp3) #4
  br label %ehcleanup

ehcleanup:                                        ; preds = %lpad12, %lpad10
  call void @_ZNSaISt10shared_ptrIN5arrow8DataTypeEEED2Ev(ptr noundef nonnull align 1 dereferenceable(1) %ref.tmp9) #4
  %array.begin20 = getelementptr inbounds [1 x %"class.std::shared_ptr.46"], ptr %ref.tmp4, i32 0, i32 0
  %32 = getelementptr inbounds %"class.std::shared_ptr.46", ptr %array.begin20, i64 1
  br label %arraydestroy.body21

arraydestroy.body21:                              ; preds = %arraydestroy.body21, %ehcleanup
  %arraydestroy.elementPast22 = phi ptr [ %32, %ehcleanup ], [ %arraydestroy.element23, %arraydestroy.body21 ]
  %arraydestroy.element23 = getelementptr inbounds %"class.std::shared_ptr.46", ptr %arraydestroy.elementPast22, i64 -1
  call void @_ZNSt10shared_ptrIN5arrow8DataTypeEED2Ev(ptr noundef nonnull align 8 dereferenceable(16) %arraydestroy.element23) #4
  %arraydestroy.done24 = icmp eq ptr %arraydestroy.element23, %array.begin20
  br i1 %arraydestroy.done24, label %arraydestroy.done25, label %arraydestroy.body21

arraydestroy.done25:                              ; preds = %arraydestroy.body21
  br label %ehcleanup89

lpad40:                                           ; preds = %for.body
  %33 = landingpad { ptr, i32 }
          cleanup
  %34 = extractvalue { ptr, i32 } %33, 0
  store ptr %34, ptr %exn.slot, align 8
  %35 = extractvalue { ptr, i32 } %33, 1
  store i32 %35, ptr %ehselector.slot, align 4
  %36 = load ptr, ptr %arrayinit.endOfInit39, align 8
  %arraydestroy.isempty43 = icmp eq ptr %arrayinit.begin38, %36
  br i1 %arraydestroy.isempty43, label %arraydestroy.done48, label %arraydestroy.body44

arraydestroy.body44:                              ; preds = %arraydestroy.body44, %lpad40
  %arraydestroy.elementPast45 = phi ptr [ %36, %lpad40 ], [ %arraydestroy.element46, %arraydestroy.body44 ]
  %arraydestroy.element46 = getelementptr inbounds %"class.arrow::compute::InputType", ptr %arraydestroy.elementPast45, i64 -1
  call void @_ZN5arrow7compute9InputTypeD2Ev(ptr noundef nonnull align 8 dereferenceable(40) %arraydestroy.element46) #4
  %arraydestroy.done47 = icmp eq ptr %arraydestroy.element46, %arrayinit.begin38
  br i1 %arraydestroy.done47, label %arraydestroy.done48, label %arraydestroy.body44

arraydestroy.done48:                              ; preds = %arraydestroy.body44, %lpad40
  br label %ehcleanup89

lpad53:                                           ; preds = %invoke.cont41
  %37 = landingpad { ptr, i32 }
          cleanup
  %38 = extractvalue { ptr, i32 } %37, 0
  store ptr %38, ptr %exn.slot, align 8
  %39 = extractvalue { ptr, i32 } %37, 1
  store i32 %39, ptr %ehselector.slot, align 4
  br label %ehcleanup68

lpad57:                                           ; preds = %invoke.cont54
  %40 = landingpad { ptr, i32 }
          cleanup
  %41 = extractvalue { ptr, i32 } %40, 0
  store ptr %41, ptr %exn.slot, align 8
  %42 = extractvalue { ptr, i32 } %40, 1
  store i32 %42, ptr %ehselector.slot, align 4
  br label %ehcleanup67

lpad60:                                           ; preds = %invoke.cont58
  %43 = landingpad { ptr, i32 }
          cleanup
  %44 = extractvalue { ptr, i32 } %43, 0
  store ptr %44, ptr %exn.slot, align 8
  %45 = extractvalue { ptr, i32 } %43, 1
  store i32 %45, ptr %ehselector.slot, align 4
  br label %ehcleanup66

lpad62:                                           ; preds = %invoke.cont61
  %46 = landingpad { ptr, i32 }
          cleanup
  %47 = extractvalue { ptr, i32 } %46, 0
  store ptr %47, ptr %exn.slot, align 8
  %48 = extractvalue { ptr, i32 } %46, 1
  store i32 %48, ptr %ehselector.slot, align 4
  call void @_ZN5arrow7compute10OutputTypeD2Ev(ptr noundef nonnull align 8 dereferenceable(56) %agg.tmp55) #4
  br label %ehcleanup66

ehcleanup66:                                      ; preds = %lpad62, %lpad60
  call void @_ZNSt10shared_ptrIN5arrow8DataTypeEED2Ev(ptr noundef nonnull align 8 dereferenceable(16) %agg.tmp56) #4
  br label %ehcleanup67

ehcleanup67:                                      ; preds = %ehcleanup66, %lpad57
  call void @_ZNSt6vectorIN5arrow7compute9InputTypeESaIS2_EED2Ev(ptr noundef nonnull align 8 dereferenceable(24) %agg.tmp35) #4
  br label %ehcleanup68

ehcleanup68:                                      ; preds = %ehcleanup67, %lpad53
  call void @_ZNSaIN5arrow7compute9InputTypeEED2Ev(ptr noundef nonnull align 1 dereferenceable(1) %ref.tmp52) #4
  %array.begin76 = getelementptr inbounds [1 x %"class.arrow::compute::InputType"], ptr %ref.tmp37, i32 0, i32 0
  %49 = getelementptr inbounds %"class.arrow::compute::InputType", ptr %array.begin76, i64 1
  br label %arraydestroy.body77

arraydestroy.body77:                              ; preds = %arraydestroy.body77, %ehcleanup68
  %arraydestroy.elementPast78 = phi ptr [ %49, %ehcleanup68 ], [ %arraydestroy.element79, %arraydestroy.body77 ]
  %arraydestroy.element79 = getelementptr inbounds %"class.arrow::compute::InputType", ptr %arraydestroy.elementPast78, i64 -1
  call void @_ZN5arrow7compute9InputTypeD2Ev(ptr noundef nonnull align 8 dereferenceable(40) %arraydestroy.element79) #4
  %arraydestroy.done80 = icmp eq ptr %arraydestroy.element79, %array.begin76
  br i1 %arraydestroy.done80, label %arraydestroy.done81, label %arraydestroy.body77

arraydestroy.done81:                              ; preds = %arraydestroy.body77
  br label %ehcleanup89

lpad85:                                           ; preds = %invoke.cont84
  %50 = landingpad { ptr, i32 }
          cleanup
  %51 = extractvalue { ptr, i32 } %50, 0
  store ptr %51, ptr %exn.slot, align 8
  %52 = extractvalue { ptr, i32 } %50, 1
  store i32 %52, ptr %ehselector.slot, align 4
  call void @_ZN5arrow7compute12VectorKernelD2Ev(ptr noundef nonnull align 8 dereferenceable(131) %agg.tmp83) #4
  br label %ehcleanup89

while.end:                                        ; preds = %while.cond
  br label %for.inc

for.inc:                                          ; preds = %while.end
  %53 = load ptr, ptr %__begin3, align 8
  %incdec.ptr = getelementptr inbounds i32, ptr %53, i32 1
  store ptr %incdec.ptr, ptr %__begin3, align 8
  br label %for.cond

for.end:                                          ; preds = %for.cond
  store i1 true, ptr %nrvo, align 1
  call void @_ZN5arrow7compute12VectorKernelD2Ev(ptr noundef nonnull align 8 dereferenceable(131) %kernel) #4
  %nrvo.val = load i1, ptr %nrvo, align 1
  br i1 %nrvo.val, label %nrvo.skipdtor, label %nrvo.unused

ehcleanup89:                                      ; preds = %lpad85, %arraydestroy.done81, %arraydestroy.done48, %arraydestroy.done25, %arraydestroy.done8, %lpad
  call void @_ZN5arrow7compute12VectorKernelD2Ev(ptr noundef nonnull align 8 dereferenceable(131) %kernel) #4
  call void @_ZNSt10shared_ptrIN5arrow7compute14VectorFunctionEED2Ev(ptr noundef nonnull align 8 dereferenceable(16) %agg.result) #4
  br label %eh.resume

nrvo.unused:                                      ; preds = %for.end
  call void @_ZNSt10shared_ptrIN5arrow7compute14VectorFunctionEED2Ev(ptr noundef nonnull align 8 dereferenceable(16) %agg.result) #4
  br label %nrvo.skipdtor

nrvo.skipdtor:                                    ; preds = %nrvo.unused, %for.end
  ret void

eh.resume:                                        ; preds = %ehcleanup89
  %exn = load ptr, ptr %exn.slot, align 8
  %sel = load i32, ptr %ehselector.slot, align 4
  %lpad.val = insertvalue { ptr, i32 } poison, ptr %exn, 0
  %lpad.val91 = insertvalue { ptr, i32 } %lpad.val, i32 %sel, 1
  resume { ptr, i32 } %lpad.val91
}

; Function Attrs: mustprogress nounwind uwtable
define linkonce_odr void @_ZNSt10shared_ptrIN5arrow7compute8FunctionEEC2INS1_14VectorFunctionEvEEOS_IT_E(ptr noundef nonnull align 8 dereferenceable(16) %this, ptr noundef nonnull align 8 dereferenceable(16) %__r) unnamed_addr #3 comdat align 2 {
entry:
  %this.addr = alloca ptr, align 8
  %__r.addr = alloca ptr, align 8
  store ptr %this, ptr %this.addr, align 8
  store ptr %__r, ptr %__r.addr, align 8
  %this1 = load ptr, ptr %this.addr, align 8
  %0 = load ptr, ptr %__r.addr, align 8
  call void @_ZNSt12__shared_ptrIN5arrow7compute8FunctionELN9__gnu_cxx12_Lock_policyE2EEC2INS1_14VectorFunctionEvEEOS_IT_LS4_2EE(ptr noundef nonnull align 8 dereferenceable(16) %this1, ptr noundef nonnull align 8 dereferenceable(16) %0) #4
  ret void
}

; Function Attrs: mustprogress nounwind uwtable
define linkonce_odr void @_ZNSt10shared_ptrIN5arrow7compute14VectorFunctionEED2Ev(ptr noundef nonnull align 8 dereferenceable(16) %this) unnamed_addr #3 comdat align 2 {
entry:
  %this.addr = alloca ptr, align 8
  store ptr %this, ptr %this.addr, align 8
  %this1 = load ptr, ptr %this.addr, align 8
  call void @_ZNSt12__shared_ptrIN5arrow7compute14VectorFunctionELN9__gnu_cxx12_Lock_policyE2EED2Ev(ptr noundef nonnull align 8 dereferenceable(16) %this1) #4
  ret void
}

; Function Attrs: mustprogress nounwind uwtable
define linkonce_odr void @_ZNSt6vectorIN5arrow7compute8internal19SelectionKernelDataESaIS3_EED2Ev(ptr noundef nonnull align 8 dereferenceable(24) %this) unnamed_addr #3 comdat align 2 personality ptr @__gxx_personality_v0 {
entry:
  %this.addr = alloca ptr, align 8
  store ptr %this, ptr %this.addr, align 8
  %this1 = load ptr, ptr %this.addr, align 8
  %_M_impl = getelementptr inbounds %"struct.std::_Vector_base.4", ptr %this1, i32 0, i32 0
  %_M_start = getelementptr inbounds %"struct.std::_Vector_base<arrow::compute::internal::SelectionKernelData, std::allocator<arrow::compute::internal::SelectionKernelData>>::_Vector_impl_data", ptr %_M_impl, i32 0, i32 0
  %0 = load ptr, ptr %_M_start, align 8
  %_M_impl2 = getelementptr inbounds %"struct.std::_Vector_base.4", ptr %this1, i32 0, i32 0
  %_M_finish = getelementptr inbounds %"struct.std::_Vector_base<arrow::compute::internal::SelectionKernelData, std::allocator<arrow::compute::internal::SelectionKernelData>>::_Vector_impl_data", ptr %_M_impl2, i32 0, i32 1
  %1 = load ptr, ptr %_M_finish, align 8
  %call = call noundef nonnull align 1 dereferenceable(1) ptr @_ZNSt12_Vector_baseIN5arrow7compute8internal19SelectionKernelDataESaIS3_EE19_M_get_Tp_allocatorEv(ptr noundef nonnull align 8 dereferenceable(24) %this1) #4
  invoke void @_ZSt8_DestroyIPN5arrow7compute8internal19SelectionKernelDataES3_EvT_S5_RSaIT0_E(ptr noundef %0, ptr noundef %1, ptr noundef nonnull align 1 dereferenceable(1) %call)
          to label %invoke.cont unwind label %terminate.lpad

invoke.cont:                                      ; preds = %entry
  call void @_ZNSt12_Vector_baseIN5arrow7compute8internal19SelectionKernelDataESaIS3_EED2Ev(ptr noundef nonnull align 8 dereferenceable(24) %this1) #4
  ret void

terminate.lpad:                                   ; preds = %entry
  %2 = landingpad { ptr, i32 }
          catch ptr null
  %3 = extractvalue { ptr, i32 } %2, 0
  call void @__clang_call_terminate(ptr %3) #16
  unreachable
}

; Function Attrs: nounwind
declare void @_ZNSt7__cxx1112basic_stringIcSt11char_traitsIcESaIcEEC1EOS4_(ptr noundef nonnull align 8 dereferenceable(32), ptr noundef nonnull align 8 dereferenceable(32)) unnamed_addr #1

; Function Attrs: mustprogress nounwind uwtable
define linkonce_odr void @_ZNSt6vectorINSt7__cxx1112basic_stringIcSt11char_traitsIcESaIcEEESaIS5_EEC2EOS7_(ptr noundef nonnull align 8 dereferenceable(24) %this, ptr noundef nonnull align 8 dereferenceable(24) %0) unnamed_addr #3 comdat align 2 {
entry:
  %this.addr = alloca ptr, align 8
  %.addr = alloca ptr, align 8
  store ptr %this, ptr %this.addr, align 8
  store ptr %0, ptr %.addr, align 8
  %this1 = load ptr, ptr %this.addr, align 8
  %1 = load ptr, ptr %.addr, align 8
  call void @_ZNSt12_Vector_baseINSt7__cxx1112basic_stringIcSt11char_traitsIcESaIcEEESaIS5_EEC2EOS7_(ptr noundef nonnull align 8 dereferenceable(24) %this1, ptr noundef nonnull align 8 dereferenceable(24) %1) #4
  ret void
}

; Function Attrs: mustprogress nounwind uwtable
define linkonce_odr void @_ZNSt12_Vector_baseINSt7__cxx1112basic_stringIcSt11char_traitsIcESaIcEEESaIS5_EEC2EOS7_(ptr noundef nonnull align 8 dereferenceable(24) %this, ptr noundef nonnull align 8 dereferenceable(24) %0) unnamed_addr #3 comdat align 2 {
entry:
  %this.addr = alloca ptr, align 8
  %.addr = alloca ptr, align 8
  store ptr %this, ptr %this.addr, align 8
  store ptr %0, ptr %.addr, align 8
  %this1 = load ptr, ptr %this.addr, align 8
  %_M_impl = getelementptr inbounds %"struct.std::_Vector_base", ptr %this1, i32 0, i32 0
  %1 = load ptr, ptr %.addr, align 8
  %_M_impl2 = getelementptr inbounds %"struct.std::_Vector_base", ptr %1, i32 0, i32 0
  call void @_ZNSt12_Vector_baseINSt7__cxx1112basic_stringIcSt11char_traitsIcESaIcEEESaIS5_EE12_Vector_implC2EOS8_(ptr noundef nonnull align 8 dereferenceable(24) %_M_impl, ptr noundef nonnull align 8 dereferenceable(24) %_M_impl2) #4
  ret void
}

; Function Attrs: mustprogress nounwind uwtable
define linkonce_odr void @_ZNSt12_Vector_baseINSt7__cxx1112basic_stringIcSt11char_traitsIcESaIcEEESaIS5_EE12_Vector_implC2EOS8_(ptr noundef nonnull align 8 dereferenceable(24) %this, ptr noundef nonnull align 8 dereferenceable(24) %__x) unnamed_addr #3 comdat align 2 {
entry:
  %this.addr = alloca ptr, align 8
  %__x.addr = alloca ptr, align 8
  store ptr %this, ptr %this.addr, align 8
  store ptr %__x, ptr %__x.addr, align 8
  %this1 = load ptr, ptr %this.addr, align 8
  %0 = load ptr, ptr %__x.addr, align 8
  call void @_ZNSaINSt7__cxx1112basic_stringIcSt11char_traitsIcESaIcEEEEC2ERKS5_(ptr noundef nonnull align 1 dereferenceable(1) %this1, ptr noundef nonnull align 1 dereferenceable(1) %0) #4
  %1 = load ptr, ptr %__x.addr, align 8
  call void @_ZNSt12_Vector_baseINSt7__cxx1112basic_stringIcSt11char_traitsIcESaIcEEESaIS5_EE17_Vector_impl_dataC2EOS8_(ptr noundef nonnull align 8 dereferenceable(24) %this1, ptr noundef nonnull align 8 dereferenceable(24) %1) #4
  ret void
}

; Function Attrs: mustprogress nounwind uwtable
define linkonce_odr void @_ZNSt12_Vector_baseINSt7__cxx1112basic_stringIcSt11char_traitsIcESaIcEEESaIS5_EE17_Vector_impl_dataC2EOS8_(ptr noundef nonnull align 8 dereferenceable(24) %this, ptr noundef nonnull align 8 dereferenceable(24) %__x) unnamed_addr #3 comdat align 2 {
entry:
  %this.addr = alloca ptr, align 8
  %__x.addr = alloca ptr, align 8
  store ptr %this, ptr %this.addr, align 8
  store ptr %__x, ptr %__x.addr, align 8
  %this1 = load ptr, ptr %this.addr, align 8
  %_M_start = getelementptr inbounds %"struct.std::_Vector_base<std::__cxx11::basic_string<char>, std::allocator<std::__cxx11::basic_string<char>>>::_Vector_impl_data", ptr %this1, i32 0, i32 0
  %0 = load ptr, ptr %__x.addr, align 8
  %_M_start2 = getelementptr inbounds %"struct.std::_Vector_base<std::__cxx11::basic_string<char>, std::allocator<std::__cxx11::basic_string<char>>>::_Vector_impl_data", ptr %0, i32 0, i32 0
  %1 = load ptr, ptr %_M_start2, align 8
  store ptr %1, ptr %_M_start, align 8
  %_M_finish = getelementptr inbounds %"struct.std::_Vector_base<std::__cxx11::basic_string<char>, std::allocator<std::__cxx11::basic_string<char>>>::_Vector_impl_data", ptr %this1, i32 0, i32 1
  %2 = load ptr, ptr %__x.addr, align 8
  %_M_finish3 = getelementptr inbounds %"struct.std::_Vector_base<std::__cxx11::basic_string<char>, std::allocator<std::__cxx11::basic_string<char>>>::_Vector_impl_data", ptr %2, i32 0, i32 1
  %3 = load ptr, ptr %_M_finish3, align 8
  store ptr %3, ptr %_M_finish, align 8
  %_M_end_of_storage = getelementptr inbounds %"struct.std::_Vector_base<std::__cxx11::basic_string<char>, std::allocator<std::__cxx11::basic_string<char>>>::_Vector_impl_data", ptr %this1, i32 0, i32 2
  %4 = load ptr, ptr %__x.addr, align 8
  %_M_end_of_storage4 = getelementptr inbounds %"struct.std::_Vector_base<std::__cxx11::basic_string<char>, std::allocator<std::__cxx11::basic_string<char>>>::_Vector_impl_data", ptr %4, i32 0, i32 2
  %5 = load ptr, ptr %_M_end_of_storage4, align 8
  store ptr %5, ptr %_M_end_of_storage, align 8
  %6 = load ptr, ptr %__x.addr, align 8
  %_M_end_of_storage5 = getelementptr inbounds %"struct.std::_Vector_base<std::__cxx11::basic_string<char>, std::allocator<std::__cxx11::basic_string<char>>>::_Vector_impl_data", ptr %6, i32 0, i32 2
  store ptr null, ptr %_M_end_of_storage5, align 8
  %7 = load ptr, ptr %__x.addr, align 8
  %_M_finish6 = getelementptr inbounds %"struct.std::_Vector_base<std::__cxx11::basic_string<char>, std::allocator<std::__cxx11::basic_string<char>>>::_Vector_impl_data", ptr %7, i32 0, i32 1
  store ptr null, ptr %_M_finish6, align 8
  %8 = load ptr, ptr %__x.addr, align 8
  %_M_start7 = getelementptr inbounds %"struct.std::_Vector_base<std::__cxx11::basic_string<char>, std::allocator<std::__cxx11::basic_string<char>>>::_Vector_impl_data", ptr %8, i32 0, i32 0
  store ptr null, ptr %_M_start7, align 8
  ret void
}

; Function Attrs: mustprogress nounwind uwtable
define linkonce_odr void @_ZNSt15__new_allocatorINSt7__cxx1112basic_stringIcSt11char_traitsIcESaIcEEEEC2ERKS6_(ptr noundef nonnull align 1 dereferenceable(1) %this, ptr noundef nonnull align 1 dereferenceable(1) %0) unnamed_addr #3 comdat align 2 {
entry:
  %this.addr = alloca ptr, align 8
  %.addr = alloca ptr, align 8
  store ptr %this, ptr %this.addr, align 8
  store ptr %0, ptr %.addr, align 8
  ret void
}

; Function Attrs: mustprogress nounwind uwtable
define linkonce_odr void @_ZNSt12_Vector_baseIN5arrow7compute8internal19SelectionKernelDataESaIS3_EEC2Ev(ptr noundef nonnull align 8 dereferenceable(24) %this) unnamed_addr #3 comdat align 2 {
entry:
  %this.addr = alloca ptr, align 8
  store ptr %this, ptr %this.addr, align 8
  %this1 = load ptr, ptr %this.addr, align 8
  %_M_impl = getelementptr inbounds %"struct.std::_Vector_base.4", ptr %this1, i32 0, i32 0
  call void @_ZNSt12_Vector_baseIN5arrow7compute8internal19SelectionKernelDataESaIS3_EE12_Vector_implC2Ev(ptr noundef nonnull align 8 dereferenceable(24) %_M_impl) #4
  ret void
}

; Function Attrs: mustprogress nounwind uwtable
define linkonce_odr void @_ZNSt12_Vector_baseIN5arrow7compute8internal19SelectionKernelDataESaIS3_EE12_Vector_implC2Ev(ptr noundef nonnull align 8 dereferenceable(24) %this) unnamed_addr #3 comdat align 2 {
entry:
  %this.addr = alloca ptr, align 8
  store ptr %this, ptr %this.addr, align 8
  %this1 = load ptr, ptr %this.addr, align 8
  call void @_ZNSaIN5arrow7compute8internal19SelectionKernelDataEEC2Ev(ptr noundef nonnull align 1 dereferenceable(1) %this1) #4
  call void @_ZNSt12_Vector_baseIN5arrow7compute8internal19SelectionKernelDataESaIS3_EE17_Vector_impl_dataC2Ev(ptr noundef nonnull align 8 dereferenceable(24) %this1) #4
  ret void
}

; Function Attrs: mustprogress nounwind uwtable
define linkonce_odr void @_ZNSaIN5arrow7compute8internal19SelectionKernelDataEEC2Ev(ptr noundef nonnull align 1 dereferenceable(1) %this) unnamed_addr #3 comdat align 2 {
entry:
  %this.addr = alloca ptr, align 8
  store ptr %this, ptr %this.addr, align 8
  %this1 = load ptr, ptr %this.addr, align 8
  call void @_ZNSt15__new_allocatorIN5arrow7compute8internal19SelectionKernelDataEEC2Ev(ptr noundef nonnull align 1 dereferenceable(1) %this1) #4
  ret void
}

; Function Attrs: mustprogress nounwind uwtable
define linkonce_odr void @_ZNSt12_Vector_baseIN5arrow7compute8internal19SelectionKernelDataESaIS3_EE17_Vector_impl_dataC2Ev(ptr noundef nonnull align 8 dereferenceable(24) %this) unnamed_addr #3 comdat align 2 {
entry:
  %this.addr = alloca ptr, align 8
  store ptr %this, ptr %this.addr, align 8
  %this1 = load ptr, ptr %this.addr, align 8
  %_M_start = getelementptr inbounds %"struct.std::_Vector_base<arrow::compute::internal::SelectionKernelData, std::allocator<arrow::compute::internal::SelectionKernelData>>::_Vector_impl_data", ptr %this1, i32 0, i32 0
  store ptr null, ptr %_M_start, align 8
  %_M_finish = getelementptr inbounds %"struct.std::_Vector_base<arrow::compute::internal::SelectionKernelData, std::allocator<arrow::compute::internal::SelectionKernelData>>::_Vector_impl_data", ptr %this1, i32 0, i32 1
  store ptr null, ptr %_M_finish, align 8
  %_M_end_of_storage = getelementptr inbounds %"struct.std::_Vector_base<arrow::compute::internal::SelectionKernelData, std::allocator<arrow::compute::internal::SelectionKernelData>>::_Vector_impl_data", ptr %this1, i32 0, i32 2
  store ptr null, ptr %_M_end_of_storage, align 8
  ret void
}

; Function Attrs: mustprogress nounwind uwtable
define linkonce_odr void @_ZNSt15__new_allocatorIN5arrow7compute8internal19SelectionKernelDataEEC2Ev(ptr noundef nonnull align 1 dereferenceable(1) %this) unnamed_addr #3 comdat align 2 {
entry:
  %this.addr = alloca ptr, align 8
  store ptr %this, ptr %this.addr, align 8
  ret void
}

; Function Attrs: mustprogress nounwind uwtable
define linkonce_odr void @_ZN5arrow7compute6KernelC2Ev(ptr noundef nonnull align 8 dereferenceable(72) %this) unnamed_addr #3 comdat align 2 {
entry:
  %this.addr = alloca ptr, align 8
  store ptr %this, ptr %this.addr, align 8
  %this1 = load ptr, ptr %this.addr, align 8
  %signature = getelementptr inbounds %"struct.arrow::compute::Kernel", ptr %this1, i32 0, i32 0
  call void @_ZNSt10shared_ptrIN5arrow7compute15KernelSignatureEEC2Ev(ptr noundef nonnull align 8 dereferenceable(16) %signature) #4
  %init = getelementptr inbounds %"struct.arrow::compute::Kernel", ptr %this1, i32 0, i32 1
  call void @_ZNSt8functionIFN5arrow6ResultISt10unique_ptrINS0_7compute11KernelStateESt14default_deleteIS4_EEEEPNS3_13KernelContextERKNS3_14KernelInitArgsEEEC2Ev(ptr noundef nonnull align 8 dereferenceable(32) %init) #4
  %parallelizable = getelementptr inbounds %"struct.arrow::compute::Kernel", ptr %this1, i32 0, i32 2
  store i8 1, ptr %parallelizable, align 8
  %simd_level = getelementptr inbounds %"struct.arrow::compute::Kernel", ptr %this1, i32 0, i32 3
  store i32 0, ptr %simd_level, align 4
  %data = getelementptr inbounds %"struct.arrow::compute::Kernel", ptr %this1, i32 0, i32 4
  call void @_ZNSt10shared_ptrIN5arrow7compute11KernelStateEEC2Ev(ptr noundef nonnull align 8 dereferenceable(16) %data) #4
  ret void
}

; Function Attrs: mustprogress nounwind uwtable
define linkonce_odr void @_ZNSt8functionIFN5arrow6StatusEPNS0_7compute13KernelContextEPSt6vectorINS0_5DatumESaIS6_EEEEC2Ev(ptr noundef nonnull align 8 dereferenceable(32) %this) unnamed_addr #3 comdat align 2 {
entry:
  %this.addr = alloca ptr, align 8
  store ptr %this, ptr %this.addr, align 8
  %this1 = load ptr, ptr %this.addr, align 8
  %0 = getelementptr inbounds i8, ptr %this1, i64 0
  call void @llvm.memset.p0.i64(ptr align 8 %0, i8 0, i64 24, i1 false)
  call void @_ZNSt14_Function_baseC2Ev(ptr noundef nonnull align 8 dereferenceable(24) %this1) #4
  %_M_invoker = getelementptr inbounds %"class.std::function.11", ptr %this1, i32 0, i32 1
  store ptr null, ptr %_M_invoker, align 8
  ret void
}

; Function Attrs: mustprogress nounwind uwtable
define linkonce_odr void @_ZNSt10shared_ptrIN5arrow7compute15KernelSignatureEEC2Ev(ptr noundef nonnull align 8 dereferenceable(16) %this) unnamed_addr #3 comdat align 2 {
entry:
  %this.addr = alloca ptr, align 8
  store ptr %this, ptr %this.addr, align 8
  %this1 = load ptr, ptr %this.addr, align 8
  call void @_ZNSt12__shared_ptrIN5arrow7compute15KernelSignatureELN9__gnu_cxx12_Lock_policyE2EEC2Ev(ptr noundef nonnull align 8 dereferenceable(16) %this1) #4
  ret void
}

; Function Attrs: mustprogress nounwind uwtable
define linkonce_odr void @_ZNSt8functionIFN5arrow6ResultISt10unique_ptrINS0_7compute11KernelStateESt14default_deleteIS4_EEEEPNS3_13KernelContextERKNS3_14KernelInitArgsEEEC2Ev(ptr noundef nonnull align 8 dereferenceable(32) %this) unnamed_addr #3 comdat align 2 {
entry:
  %this.addr = alloca ptr, align 8
  store ptr %this, ptr %this.addr, align 8
  %this1 = load ptr, ptr %this.addr, align 8
  %0 = getelementptr inbounds i8, ptr %this1, i64 0
  call void @llvm.memset.p0.i64(ptr align 8 %0, i8 0, i64 24, i1 false)
  call void @_ZNSt14_Function_baseC2Ev(ptr noundef nonnull align 8 dereferenceable(24) %this1) #4
  %_M_invoker = getelementptr inbounds %"class.std::function", ptr %this1, i32 0, i32 1
  store ptr null, ptr %_M_invoker, align 8
  ret void
}

; Function Attrs: mustprogress nounwind uwtable
define linkonce_odr void @_ZNSt10shared_ptrIN5arrow7compute11KernelStateEEC2Ev(ptr noundef nonnull align 8 dereferenceable(16) %this) unnamed_addr #3 comdat align 2 {
entry:
  %this.addr = alloca ptr, align 8
  store ptr %this, ptr %this.addr, align 8
  %this1 = load ptr, ptr %this.addr, align 8
  call void @_ZNSt12__shared_ptrIN5arrow7compute11KernelStateELN9__gnu_cxx12_Lock_policyE2EEC2Ev(ptr noundef nonnull align 8 dereferenceable(16) %this1) #4
  ret void
}

; Function Attrs: mustprogress nounwind uwtable
define linkonce_odr void @_ZNSt12__shared_ptrIN5arrow7compute15KernelSignatureELN9__gnu_cxx12_Lock_policyE2EEC2Ev(ptr noundef nonnull align 8 dereferenceable(16) %this) unnamed_addr #3 comdat align 2 {
entry:
  %this.addr = alloca ptr, align 8
  store ptr %this, ptr %this.addr, align 8
  %this1 = load ptr, ptr %this.addr, align 8
  %_M_ptr = getelementptr inbounds %"class.std::__shared_ptr", ptr %this1, i32 0, i32 0
  store ptr null, ptr %_M_ptr, align 8
  %_M_refcount = getelementptr inbounds %"class.std::__shared_ptr", ptr %this1, i32 0, i32 1
  call void @_ZNSt14__shared_countILN9__gnu_cxx12_Lock_policyE2EEC2Ev(ptr noundef nonnull align 8 dereferenceable(8) %_M_refcount) #4
  ret void
}

; Function Attrs: mustprogress nounwind uwtable
define linkonce_odr void @_ZNSt14__shared_countILN9__gnu_cxx12_Lock_policyE2EEC2Ev(ptr noundef nonnull align 8 dereferenceable(8) %this) unnamed_addr #3 comdat align 2 {
entry:
  %this.addr = alloca ptr, align 8
  store ptr %this, ptr %this.addr, align 8
  %this1 = load ptr, ptr %this.addr, align 8
  %_M_pi = getelementptr inbounds %"class.std::__shared_count", ptr %this1, i32 0, i32 0
  store ptr null, ptr %_M_pi, align 8
  ret void
}

; Function Attrs: nocallback nofree nounwind willreturn memory(argmem: write)
declare void @llvm.memset.p0.i64(ptr nocapture writeonly, i8, i64, i1 immarg) #6

; Function Attrs: mustprogress nounwind uwtable
define linkonce_odr void @_ZNSt14_Function_baseC2Ev(ptr noundef nonnull align 8 dereferenceable(24) %this) unnamed_addr #3 comdat align 2 {
entry:
  %this.addr = alloca ptr, align 8
  store ptr %this, ptr %this.addr, align 8
  %this1 = load ptr, ptr %this.addr, align 8
  %_M_functor = getelementptr inbounds %"class.std::_Function_base", ptr %this1, i32 0, i32 0
  store ptr null, ptr %_M_functor, align 8
  %_M_manager = getelementptr inbounds %"class.std::_Function_base", ptr %this1, i32 0, i32 1
  store ptr null, ptr %_M_manager, align 8
  ret void
}

; Function Attrs: mustprogress nounwind uwtable
define linkonce_odr void @_ZNSt12__shared_ptrIN5arrow7compute11KernelStateELN9__gnu_cxx12_Lock_policyE2EEC2Ev(ptr noundef nonnull align 8 dereferenceable(16) %this) unnamed_addr #3 comdat align 2 {
entry:
  %this.addr = alloca ptr, align 8
  store ptr %this, ptr %this.addr, align 8
  %this1 = load ptr, ptr %this.addr, align 8
  %_M_ptr = getelementptr inbounds %"class.std::__shared_ptr.9", ptr %this1, i32 0, i32 0
  store ptr null, ptr %_M_ptr, align 8
  %_M_refcount = getelementptr inbounds %"class.std::__shared_ptr.9", ptr %this1, i32 0, i32 1
  call void @_ZNSt14__shared_countILN9__gnu_cxx12_Lock_policyE2EEC2Ev(ptr noundef nonnull align 8 dereferenceable(8) %_M_refcount) #4
  ret void
}

declare void @_ZNSt7__cxx1112basic_stringIcSt11char_traitsIcESaIcEEC1ERKS4_(ptr noundef nonnull align 8 dereferenceable(32), ptr noundef nonnull align 8 dereferenceable(32)) unnamed_addr #5

; Function Attrs: mustprogress uwtable
define linkonce_odr void @_ZNSt6vectorINSt7__cxx1112basic_stringIcSt11char_traitsIcESaIcEEESaIS5_EEC2ERKS7_(ptr noundef nonnull align 8 dereferenceable(24) %this, ptr noundef nonnull align 8 dereferenceable(24) %__x) unnamed_addr #2 comdat align 2 personality ptr @__gxx_personality_v0 {
entry:
  %this.addr = alloca ptr, align 8
  %__x.addr = alloca ptr, align 8
  %ref.tmp = alloca %"class.std::allocator.0", align 1
  %exn.slot = alloca ptr, align 8
  %ehselector.slot = alloca i32, align 4
  %agg.tmp = alloca %"class.__gnu_cxx::__normal_iterator", align 8
  %agg.tmp4 = alloca %"class.__gnu_cxx::__normal_iterator", align 8
  store ptr %this, ptr %this.addr, align 8
  store ptr %__x, ptr %__x.addr, align 8
  %this1 = load ptr, ptr %this.addr, align 8
  %0 = load ptr, ptr %__x.addr, align 8
  %call = call noundef i64 @_ZNKSt6vectorINSt7__cxx1112basic_stringIcSt11char_traitsIcESaIcEEESaIS5_EE4sizeEv(ptr noundef nonnull align 8 dereferenceable(24) %0) #4
  %1 = load ptr, ptr %__x.addr, align 8
  %call2 = call noundef nonnull align 1 dereferenceable(1) ptr @_ZNKSt12_Vector_baseINSt7__cxx1112basic_stringIcSt11char_traitsIcESaIcEEESaIS5_EE19_M_get_Tp_allocatorEv(ptr noundef nonnull align 8 dereferenceable(24) %1) #4
  call void @_ZN9__gnu_cxx14__alloc_traitsISaINSt7__cxx1112basic_stringIcSt11char_traitsIcESaIcEEEES6_E17_S_select_on_copyERKS7_(ptr sret(%"class.std::allocator.0") align 1 %ref.tmp, ptr noundef nonnull align 1 dereferenceable(1) %call2)
  invoke void @_ZNSt12_Vector_baseINSt7__cxx1112basic_stringIcSt11char_traitsIcESaIcEEESaIS5_EEC2EmRKS6_(ptr noundef nonnull align 8 dereferenceable(24) %this1, i64 noundef %call, ptr noundef nonnull align 1 dereferenceable(1) %ref.tmp)
          to label %invoke.cont unwind label %lpad

invoke.cont:                                      ; preds = %entry
  call void @_ZNSaINSt7__cxx1112basic_stringIcSt11char_traitsIcESaIcEEEED2Ev(ptr noundef nonnull align 1 dereferenceable(1) %ref.tmp) #4
  %2 = load ptr, ptr %__x.addr, align 8
  %call3 = call ptr @_ZNKSt6vectorINSt7__cxx1112basic_stringIcSt11char_traitsIcESaIcEEESaIS5_EE5beginEv(ptr noundef nonnull align 8 dereferenceable(24) %2) #4
  %coerce.dive = getelementptr inbounds %"class.__gnu_cxx::__normal_iterator", ptr %agg.tmp, i32 0, i32 0
  store ptr %call3, ptr %coerce.dive, align 8
  %3 = load ptr, ptr %__x.addr, align 8
  %call5 = call ptr @_ZNKSt6vectorINSt7__cxx1112basic_stringIcSt11char_traitsIcESaIcEEESaIS5_EE3endEv(ptr noundef nonnull align 8 dereferenceable(24) %3) #4
  %coerce.dive6 = getelementptr inbounds %"class.__gnu_cxx::__normal_iterator", ptr %agg.tmp4, i32 0, i32 0
  store ptr %call5, ptr %coerce.dive6, align 8
  %_M_impl = getelementptr inbounds %"struct.std::_Vector_base", ptr %this1, i32 0, i32 0
  %_M_start = getelementptr inbounds %"struct.std::_Vector_base<std::__cxx11::basic_string<char>, std::allocator<std::__cxx11::basic_string<char>>>::_Vector_impl_data", ptr %_M_impl, i32 0, i32 0
  %4 = load ptr, ptr %_M_start, align 8
  %call7 = call noundef nonnull align 1 dereferenceable(1) ptr @_ZNSt12_Vector_baseINSt7__cxx1112basic_stringIcSt11char_traitsIcESaIcEEESaIS5_EE19_M_get_Tp_allocatorEv(ptr noundef nonnull align 8 dereferenceable(24) %this1) #4
  %coerce.dive8 = getelementptr inbounds %"class.__gnu_cxx::__normal_iterator", ptr %agg.tmp, i32 0, i32 0
  %5 = load ptr, ptr %coerce.dive8, align 8
  %coerce.dive9 = getelementptr inbounds %"class.__gnu_cxx::__normal_iterator", ptr %agg.tmp4, i32 0, i32 0
  %6 = load ptr, ptr %coerce.dive9, align 8
  %call12 = invoke noundef ptr @_ZSt22__uninitialized_copy_aIN9__gnu_cxx17__normal_iteratorIPKNSt7__cxx1112basic_stringIcSt11char_traitsIcESaIcEEESt6vectorIS7_SaIS7_EEEEPS7_S7_ET0_T_SG_SF_RSaIT1_E(ptr %5, ptr %6, ptr noundef %4, ptr noundef nonnull align 1 dereferenceable(1) %call7)
          to label %invoke.cont11 unwind label %lpad10

invoke.cont11:                                    ; preds = %invoke.cont
  %_M_impl13 = getelementptr inbounds %"struct.std::_Vector_base", ptr %this1, i32 0, i32 0
  %_M_finish = getelementptr inbounds %"struct.std::_Vector_base<std::__cxx11::basic_string<char>, std::allocator<std::__cxx11::basic_string<char>>>::_Vector_impl_data", ptr %_M_impl13, i32 0, i32 1
  store ptr %call12, ptr %_M_finish, align 8
  ret void

lpad:                                             ; preds = %entry
  %7 = landingpad { ptr, i32 }
          cleanup
  %8 = extractvalue { ptr, i32 } %7, 0
  store ptr %8, ptr %exn.slot, align 8
  %9 = extractvalue { ptr, i32 } %7, 1
  store i32 %9, ptr %ehselector.slot, align 4
  call void @_ZNSaINSt7__cxx1112basic_stringIcSt11char_traitsIcESaIcEEEED2Ev(ptr noundef nonnull align 1 dereferenceable(1) %ref.tmp) #4
  br label %eh.resume

lpad10:                                           ; preds = %invoke.cont
  %10 = landingpad { ptr, i32 }
          cleanup
  %11 = extractvalue { ptr, i32 } %10, 0
  store ptr %11, ptr %exn.slot, align 8
  %12 = extractvalue { ptr, i32 } %10, 1
  store i32 %12, ptr %ehselector.slot, align 4
  call void @_ZNSt12_Vector_baseINSt7__cxx1112basic_stringIcSt11char_traitsIcESaIcEEESaIS5_EED2Ev(ptr noundef nonnull align 8 dereferenceable(24) %this1) #4
  br label %eh.resume

eh.resume:                                        ; preds = %lpad10, %lpad
  %exn = load ptr, ptr %exn.slot, align 8
  %sel = load i32, ptr %ehselector.slot, align 4
  %lpad.val = insertvalue { ptr, i32 } poison, ptr %exn, 0
  %lpad.val14 = insertvalue { ptr, i32 } %lpad.val, i32 %sel, 1
  resume { ptr, i32 } %lpad.val14
}

; Function Attrs: mustprogress nounwind uwtable
define linkonce_odr noundef i64 @_ZNKSt6vectorINSt7__cxx1112basic_stringIcSt11char_traitsIcESaIcEEESaIS5_EE4sizeEv(ptr noundef nonnull align 8 dereferenceable(24) %this) #3 comdat align 2 {
entry:
  %this.addr = alloca ptr, align 8
  store ptr %this, ptr %this.addr, align 8
  %this1 = load ptr, ptr %this.addr, align 8
  %_M_impl = getelementptr inbounds %"struct.std::_Vector_base", ptr %this1, i32 0, i32 0
  %_M_finish = getelementptr inbounds %"struct.std::_Vector_base<std::__cxx11::basic_string<char>, std::allocator<std::__cxx11::basic_string<char>>>::_Vector_impl_data", ptr %_M_impl, i32 0, i32 1
  %0 = load ptr, ptr %_M_finish, align 8
  %_M_impl2 = getelementptr inbounds %"struct.std::_Vector_base", ptr %this1, i32 0, i32 0
  %_M_start = getelementptr inbounds %"struct.std::_Vector_base<std::__cxx11::basic_string<char>, std::allocator<std::__cxx11::basic_string<char>>>::_Vector_impl_data", ptr %_M_impl2, i32 0, i32 0
  %1 = load ptr, ptr %_M_start, align 8
  %sub.ptr.lhs.cast = ptrtoint ptr %0 to i64
  %sub.ptr.rhs.cast = ptrtoint ptr %1 to i64
  %sub.ptr.sub = sub i64 %sub.ptr.lhs.cast, %sub.ptr.rhs.cast
  %sub.ptr.div = sdiv exact i64 %sub.ptr.sub, 32
  ret i64 %sub.ptr.div
}

; Function Attrs: mustprogress uwtable
define linkonce_odr void @_ZN9__gnu_cxx14__alloc_traitsISaINSt7__cxx1112basic_stringIcSt11char_traitsIcESaIcEEEES6_E17_S_select_on_copyERKS7_(ptr noalias sret(%"class.std::allocator.0") align 1 %agg.result, ptr noundef nonnull align 1 dereferenceable(1) %__a) #2 comdat align 2 {
entry:
  %result.ptr = alloca ptr, align 8
  %__a.addr = alloca ptr, align 8
  store ptr %agg.result, ptr %result.ptr, align 8
  store ptr %__a, ptr %__a.addr, align 8
  %0 = load ptr, ptr %__a.addr, align 8
  call void @_ZNSt16allocator_traitsISaINSt7__cxx1112basic_stringIcSt11char_traitsIcESaIcEEEEE37select_on_container_copy_constructionERKS6_(ptr sret(%"class.std::allocator.0") align 1 %agg.result, ptr noundef nonnull align 1 dereferenceable(1) %0)
  ret void
}

; Function Attrs: mustprogress nounwind uwtable
define linkonce_odr noundef nonnull align 1 dereferenceable(1) ptr @_ZNKSt12_Vector_baseINSt7__cxx1112basic_stringIcSt11char_traitsIcESaIcEEESaIS5_EE19_M_get_Tp_allocatorEv(ptr noundef nonnull align 8 dereferenceable(24) %this) #3 comdat align 2 {
entry:
  %this.addr = alloca ptr, align 8
  store ptr %this, ptr %this.addr, align 8
  %this1 = load ptr, ptr %this.addr, align 8
  %_M_impl = getelementptr inbounds %"struct.std::_Vector_base", ptr %this1, i32 0, i32 0
  ret ptr %_M_impl
}

; Function Attrs: mustprogress uwtable
define linkonce_odr void @_ZNSt12_Vector_baseINSt7__cxx1112basic_stringIcSt11char_traitsIcESaIcEEESaIS5_EEC2EmRKS6_(ptr noundef nonnull align 8 dereferenceable(24) %this, i64 noundef %__n, ptr noundef nonnull align 1 dereferenceable(1) %__a) unnamed_addr #2 comdat align 2 personality ptr @__gxx_personality_v0 {
entry:
  %this.addr = alloca ptr, align 8
  %__n.addr = alloca i64, align 8
  %__a.addr = alloca ptr, align 8
  %exn.slot = alloca ptr, align 8
  %ehselector.slot = alloca i32, align 4
  store ptr %this, ptr %this.addr, align 8
  store i64 %__n, ptr %__n.addr, align 8
  store ptr %__a, ptr %__a.addr, align 8
  %this1 = load ptr, ptr %this.addr, align 8
  %_M_impl = getelementptr inbounds %"struct.std::_Vector_base", ptr %this1, i32 0, i32 0
  %0 = load ptr, ptr %__a.addr, align 8
  call void @_ZNSt12_Vector_baseINSt7__cxx1112basic_stringIcSt11char_traitsIcESaIcEEESaIS5_EE12_Vector_implC2ERKS6_(ptr noundef nonnull align 8 dereferenceable(24) %_M_impl, ptr noundef nonnull align 1 dereferenceable(1) %0) #4
  %1 = load i64, ptr %__n.addr, align 8
  invoke void @_ZNSt12_Vector_baseINSt7__cxx1112basic_stringIcSt11char_traitsIcESaIcEEESaIS5_EE17_M_create_storageEm(ptr noundef nonnull align 8 dereferenceable(24) %this1, i64 noundef %1)
          to label %invoke.cont unwind label %lpad

invoke.cont:                                      ; preds = %entry
  ret void

lpad:                                             ; preds = %entry
  %2 = landingpad { ptr, i32 }
          cleanup
  %3 = extractvalue { ptr, i32 } %2, 0
  store ptr %3, ptr %exn.slot, align 8
  %4 = extractvalue { ptr, i32 } %2, 1
  store i32 %4, ptr %ehselector.slot, align 4
  call void @_ZNSt12_Vector_baseINSt7__cxx1112basic_stringIcSt11char_traitsIcESaIcEEESaIS5_EE12_Vector_implD2Ev(ptr noundef nonnull align 8 dereferenceable(24) %_M_impl) #4
  br label %eh.resume

eh.resume:                                        ; preds = %lpad
  %exn = load ptr, ptr %exn.slot, align 8
  %sel = load i32, ptr %ehselector.slot, align 4
  %lpad.val = insertvalue { ptr, i32 } poison, ptr %exn, 0
  %lpad.val2 = insertvalue { ptr, i32 } %lpad.val, i32 %sel, 1
  resume { ptr, i32 } %lpad.val2
}

; Function Attrs: mustprogress uwtable
define linkonce_odr noundef ptr @_ZSt22__uninitialized_copy_aIN9__gnu_cxx17__normal_iteratorIPKNSt7__cxx1112basic_stringIcSt11char_traitsIcESaIcEEESt6vectorIS7_SaIS7_EEEEPS7_S7_ET0_T_SG_SF_RSaIT1_E(ptr %__first.coerce, ptr %__last.coerce, ptr noundef %__result, ptr noundef nonnull align 1 dereferenceable(1) %0) #2 comdat {
entry:
  %__first = alloca %"class.__gnu_cxx::__normal_iterator", align 8
  %__last = alloca %"class.__gnu_cxx::__normal_iterator", align 8
  %__result.addr = alloca ptr, align 8
  %.addr = alloca ptr, align 8
  %agg.tmp = alloca %"class.__gnu_cxx::__normal_iterator", align 8
  %agg.tmp2 = alloca %"class.__gnu_cxx::__normal_iterator", align 8
  %coerce.dive = getelementptr inbounds %"class.__gnu_cxx::__normal_iterator", ptr %__first, i32 0, i32 0
  store ptr %__first.coerce, ptr %coerce.dive, align 8
  %coerce.dive1 = getelementptr inbounds %"class.__gnu_cxx::__normal_iterator", ptr %__last, i32 0, i32 0
  store ptr %__last.coerce, ptr %coerce.dive1, align 8
  store ptr %__result, ptr %__result.addr, align 8
  store ptr %0, ptr %.addr, align 8
  call void @llvm.memcpy.p0.p0.i64(ptr align 8 %agg.tmp, ptr align 8 %__first, i64 8, i1 false)
  call void @llvm.memcpy.p0.p0.i64(ptr align 8 %agg.tmp2, ptr align 8 %__last, i64 8, i1 false)
  %1 = load ptr, ptr %__result.addr, align 8
  %coerce.dive3 = getelementptr inbounds %"class.__gnu_cxx::__normal_iterator", ptr %agg.tmp, i32 0, i32 0
  %2 = load ptr, ptr %coerce.dive3, align 8
  %coerce.dive4 = getelementptr inbounds %"class.__gnu_cxx::__normal_iterator", ptr %agg.tmp2, i32 0, i32 0
  %3 = load ptr, ptr %coerce.dive4, align 8
  %call = call noundef ptr @_ZSt18uninitialized_copyIN9__gnu_cxx17__normal_iteratorIPKNSt7__cxx1112basic_stringIcSt11char_traitsIcESaIcEEESt6vectorIS7_SaIS7_EEEEPS7_ET0_T_SG_SF_(ptr %2, ptr %3, ptr noundef %1)
  ret ptr %call
}

; Function Attrs: mustprogress nounwind uwtable
define linkonce_odr ptr @_ZNKSt6vectorINSt7__cxx1112basic_stringIcSt11char_traitsIcESaIcEEESaIS5_EE5beginEv(ptr noundef nonnull align 8 dereferenceable(24) %this) #3 comdat align 2 {
entry:
  %retval = alloca %"class.__gnu_cxx::__normal_iterator", align 8
  %this.addr = alloca ptr, align 8
  store ptr %this, ptr %this.addr, align 8
  %this1 = load ptr, ptr %this.addr, align 8
  %_M_impl = getelementptr inbounds %"struct.std::_Vector_base", ptr %this1, i32 0, i32 0
  %_M_start = getelementptr inbounds %"struct.std::_Vector_base<std::__cxx11::basic_string<char>, std::allocator<std::__cxx11::basic_string<char>>>::_Vector_impl_data", ptr %_M_impl, i32 0, i32 0
  call void @_ZN9__gnu_cxx17__normal_iteratorIPKNSt7__cxx1112basic_stringIcSt11char_traitsIcESaIcEEESt6vectorIS6_SaIS6_EEEC2ERKS8_(ptr noundef nonnull align 8 dereferenceable(8) %retval, ptr noundef nonnull align 8 dereferenceable(8) %_M_start) #4
  %coerce.dive = getelementptr inbounds %"class.__gnu_cxx::__normal_iterator", ptr %retval, i32 0, i32 0
  %0 = load ptr, ptr %coerce.dive, align 8
  ret ptr %0
}

; Function Attrs: mustprogress nounwind uwtable
define linkonce_odr ptr @_ZNKSt6vectorINSt7__cxx1112basic_stringIcSt11char_traitsIcESaIcEEESaIS5_EE3endEv(ptr noundef nonnull align 8 dereferenceable(24) %this) #3 comdat align 2 {
entry:
  %retval = alloca %"class.__gnu_cxx::__normal_iterator", align 8
  %this.addr = alloca ptr, align 8
  store ptr %this, ptr %this.addr, align 8
  %this1 = load ptr, ptr %this.addr, align 8
  %_M_impl = getelementptr inbounds %"struct.std::_Vector_base", ptr %this1, i32 0, i32 0
  %_M_finish = getelementptr inbounds %"struct.std::_Vector_base<std::__cxx11::basic_string<char>, std::allocator<std::__cxx11::basic_string<char>>>::_Vector_impl_data", ptr %_M_impl, i32 0, i32 1
  call void @_ZN9__gnu_cxx17__normal_iteratorIPKNSt7__cxx1112basic_stringIcSt11char_traitsIcESaIcEEESt6vectorIS6_SaIS6_EEEC2ERKS8_(ptr noundef nonnull align 8 dereferenceable(8) %retval, ptr noundef nonnull align 8 dereferenceable(8) %_M_finish) #4
  %coerce.dive = getelementptr inbounds %"class.__gnu_cxx::__normal_iterator", ptr %retval, i32 0, i32 0
  %0 = load ptr, ptr %coerce.dive, align 8
  ret ptr %0
}

; Function Attrs: mustprogress nounwind uwtable
define linkonce_odr noundef nonnull align 1 dereferenceable(1) ptr @_ZNSt12_Vector_baseINSt7__cxx1112basic_stringIcSt11char_traitsIcESaIcEEESaIS5_EE19_M_get_Tp_allocatorEv(ptr noundef nonnull align 8 dereferenceable(24) %this) #3 comdat align 2 {
entry:
  %this.addr = alloca ptr, align 8
  store ptr %this, ptr %this.addr, align 8
  %this1 = load ptr, ptr %this.addr, align 8
  %_M_impl = getelementptr inbounds %"struct.std::_Vector_base", ptr %this1, i32 0, i32 0
  ret ptr %_M_impl
}

; Function Attrs: mustprogress nounwind uwtable
define linkonce_odr void @_ZNSt12_Vector_baseINSt7__cxx1112basic_stringIcSt11char_traitsIcESaIcEEESaIS5_EED2Ev(ptr noundef nonnull align 8 dereferenceable(24) %this) unnamed_addr #3 comdat align 2 personality ptr @__gxx_personality_v0 {
entry:
  %this.addr = alloca ptr, align 8
  store ptr %this, ptr %this.addr, align 8
  %this1 = load ptr, ptr %this.addr, align 8
  %_M_impl = getelementptr inbounds %"struct.std::_Vector_base", ptr %this1, i32 0, i32 0
  %_M_start = getelementptr inbounds %"struct.std::_Vector_base<std::__cxx11::basic_string<char>, std::allocator<std::__cxx11::basic_string<char>>>::_Vector_impl_data", ptr %_M_impl, i32 0, i32 0
  %0 = load ptr, ptr %_M_start, align 8
  %_M_impl2 = getelementptr inbounds %"struct.std::_Vector_base", ptr %this1, i32 0, i32 0
  %_M_end_of_storage = getelementptr inbounds %"struct.std::_Vector_base<std::__cxx11::basic_string<char>, std::allocator<std::__cxx11::basic_string<char>>>::_Vector_impl_data", ptr %_M_impl2, i32 0, i32 2
  %1 = load ptr, ptr %_M_end_of_storage, align 8
  %_M_impl3 = getelementptr inbounds %"struct.std::_Vector_base", ptr %this1, i32 0, i32 0
  %_M_start4 = getelementptr inbounds %"struct.std::_Vector_base<std::__cxx11::basic_string<char>, std::allocator<std::__cxx11::basic_string<char>>>::_Vector_impl_data", ptr %_M_impl3, i32 0, i32 0
  %2 = load ptr, ptr %_M_start4, align 8
  %sub.ptr.lhs.cast = ptrtoint ptr %1 to i64
  %sub.ptr.rhs.cast = ptrtoint ptr %2 to i64
  %sub.ptr.sub = sub i64 %sub.ptr.lhs.cast, %sub.ptr.rhs.cast
  %sub.ptr.div = sdiv exact i64 %sub.ptr.sub, 32
  invoke void @_ZNSt12_Vector_baseINSt7__cxx1112basic_stringIcSt11char_traitsIcESaIcEEESaIS5_EE13_M_deallocateEPS5_m(ptr noundef nonnull align 8 dereferenceable(24) %this1, ptr noundef %0, i64 noundef %sub.ptr.div)
          to label %invoke.cont unwind label %terminate.lpad

invoke.cont:                                      ; preds = %entry
  %_M_impl5 = getelementptr inbounds %"struct.std::_Vector_base", ptr %this1, i32 0, i32 0
  call void @_ZNSt12_Vector_baseINSt7__cxx1112basic_stringIcSt11char_traitsIcESaIcEEESaIS5_EE12_Vector_implD2Ev(ptr noundef nonnull align 8 dereferenceable(24) %_M_impl5) #4
  ret void

terminate.lpad:                                   ; preds = %entry
  %3 = landingpad { ptr, i32 }
          catch ptr null
  %4 = extractvalue { ptr, i32 } %3, 0
  call void @__clang_call_terminate(ptr %4) #16
  unreachable
}

; Function Attrs: mustprogress nounwind uwtable
define linkonce_odr void @_ZNSt16allocator_traitsISaINSt7__cxx1112basic_stringIcSt11char_traitsIcESaIcEEEEE37select_on_container_copy_constructionERKS6_(ptr noalias sret(%"class.std::allocator.0") align 1 %agg.result, ptr noundef nonnull align 1 dereferenceable(1) %__rhs) #3 comdat align 2 {
entry:
  %result.ptr = alloca ptr, align 8
  %__rhs.addr = alloca ptr, align 8
  store ptr %agg.result, ptr %result.ptr, align 8
  store ptr %__rhs, ptr %__rhs.addr, align 8
  %0 = load ptr, ptr %__rhs.addr, align 8
  call void @_ZNSaINSt7__cxx1112basic_stringIcSt11char_traitsIcESaIcEEEEC2ERKS5_(ptr noundef nonnull align 1 dereferenceable(1) %agg.result, ptr noundef nonnull align 1 dereferenceable(1) %0) #4
  ret void
}

; Function Attrs: mustprogress nounwind uwtable
define linkonce_odr void @_ZNSaINSt7__cxx1112basic_stringIcSt11char_traitsIcESaIcEEEEC2ERKS5_(ptr noundef nonnull align 1 dereferenceable(1) %this, ptr noundef nonnull align 1 dereferenceable(1) %__a) unnamed_addr #3 comdat align 2 {
entry:
  %this.addr = alloca ptr, align 8
  %__a.addr = alloca ptr, align 8
  store ptr %this, ptr %this.addr, align 8
  store ptr %__a, ptr %__a.addr, align 8
  %this1 = load ptr, ptr %this.addr, align 8
  %0 = load ptr, ptr %__a.addr, align 8
  call void @_ZNSt15__new_allocatorINSt7__cxx1112basic_stringIcSt11char_traitsIcESaIcEEEEC2ERKS6_(ptr noundef nonnull align 1 dereferenceable(1) %this1, ptr noundef nonnull align 1 dereferenceable(1) %0) #4
  ret void
}

; Function Attrs: mustprogress nounwind uwtable
define linkonce_odr void @_ZNSt12_Vector_baseINSt7__cxx1112basic_stringIcSt11char_traitsIcESaIcEEESaIS5_EE12_Vector_implC2ERKS6_(ptr noundef nonnull align 8 dereferenceable(24) %this, ptr noundef nonnull align 1 dereferenceable(1) %__a) unnamed_addr #3 comdat align 2 {
entry:
  %this.addr = alloca ptr, align 8
  %__a.addr = alloca ptr, align 8
  store ptr %this, ptr %this.addr, align 8
  store ptr %__a, ptr %__a.addr, align 8
  %this1 = load ptr, ptr %this.addr, align 8
  %0 = load ptr, ptr %__a.addr, align 8
  call void @_ZNSaINSt7__cxx1112basic_stringIcSt11char_traitsIcESaIcEEEEC2ERKS5_(ptr noundef nonnull align 1 dereferenceable(1) %this1, ptr noundef nonnull align 1 dereferenceable(1) %0) #4
  call void @_ZNSt12_Vector_baseINSt7__cxx1112basic_stringIcSt11char_traitsIcESaIcEEESaIS5_EE17_Vector_impl_dataC2Ev(ptr noundef nonnull align 8 dereferenceable(24) %this1) #4
  ret void
}

; Function Attrs: mustprogress uwtable
define linkonce_odr void @_ZNSt12_Vector_baseINSt7__cxx1112basic_stringIcSt11char_traitsIcESaIcEEESaIS5_EE17_M_create_storageEm(ptr noundef nonnull align 8 dereferenceable(24) %this, i64 noundef %__n) #2 comdat align 2 {
entry:
  %this.addr = alloca ptr, align 8
  %__n.addr = alloca i64, align 8
  store ptr %this, ptr %this.addr, align 8
  store i64 %__n, ptr %__n.addr, align 8
  %this1 = load ptr, ptr %this.addr, align 8
  %0 = load i64, ptr %__n.addr, align 8
  %call = call noundef ptr @_ZNSt12_Vector_baseINSt7__cxx1112basic_stringIcSt11char_traitsIcESaIcEEESaIS5_EE11_M_allocateEm(ptr noundef nonnull align 8 dereferenceable(24) %this1, i64 noundef %0)
  %_M_impl = getelementptr inbounds %"struct.std::_Vector_base", ptr %this1, i32 0, i32 0
  %_M_start = getelementptr inbounds %"struct.std::_Vector_base<std::__cxx11::basic_string<char>, std::allocator<std::__cxx11::basic_string<char>>>::_Vector_impl_data", ptr %_M_impl, i32 0, i32 0
  store ptr %call, ptr %_M_start, align 8
  %_M_impl2 = getelementptr inbounds %"struct.std::_Vector_base", ptr %this1, i32 0, i32 0
  %_M_start3 = getelementptr inbounds %"struct.std::_Vector_base<std::__cxx11::basic_string<char>, std::allocator<std::__cxx11::basic_string<char>>>::_Vector_impl_data", ptr %_M_impl2, i32 0, i32 0
  %1 = load ptr, ptr %_M_start3, align 8
  %_M_impl4 = getelementptr inbounds %"struct.std::_Vector_base", ptr %this1, i32 0, i32 0
  %_M_finish = getelementptr inbounds %"struct.std::_Vector_base<std::__cxx11::basic_string<char>, std::allocator<std::__cxx11::basic_string<char>>>::_Vector_impl_data", ptr %_M_impl4, i32 0, i32 1
  store ptr %1, ptr %_M_finish, align 8
  %_M_impl5 = getelementptr inbounds %"struct.std::_Vector_base", ptr %this1, i32 0, i32 0
  %_M_start6 = getelementptr inbounds %"struct.std::_Vector_base<std::__cxx11::basic_string<char>, std::allocator<std::__cxx11::basic_string<char>>>::_Vector_impl_data", ptr %_M_impl5, i32 0, i32 0
  %2 = load ptr, ptr %_M_start6, align 8
  %3 = load i64, ptr %__n.addr, align 8
  %add.ptr = getelementptr inbounds %"class.std::__cxx11::basic_string", ptr %2, i64 %3
  %_M_impl7 = getelementptr inbounds %"struct.std::_Vector_base", ptr %this1, i32 0, i32 0
  %_M_end_of_storage = getelementptr inbounds %"struct.std::_Vector_base<std::__cxx11::basic_string<char>, std::allocator<std::__cxx11::basic_string<char>>>::_Vector_impl_data", ptr %_M_impl7, i32 0, i32 2
  store ptr %add.ptr, ptr %_M_end_of_storage, align 8
  ret void
}

; Function Attrs: mustprogress nounwind uwtable
define linkonce_odr void @_ZNSt12_Vector_baseINSt7__cxx1112basic_stringIcSt11char_traitsIcESaIcEEESaIS5_EE12_Vector_implD2Ev(ptr noundef nonnull align 8 dereferenceable(24) %this) unnamed_addr #3 comdat align 2 {
entry:
  %this.addr = alloca ptr, align 8
  store ptr %this, ptr %this.addr, align 8
  %this1 = load ptr, ptr %this.addr, align 8
  call void @_ZNSaINSt7__cxx1112basic_stringIcSt11char_traitsIcESaIcEEEED2Ev(ptr noundef nonnull align 1 dereferenceable(1) %this1) #4
  ret void
}

; Function Attrs: mustprogress nounwind uwtable
define linkonce_odr void @_ZNSt12_Vector_baseINSt7__cxx1112basic_stringIcSt11char_traitsIcESaIcEEESaIS5_EE17_Vector_impl_dataC2Ev(ptr noundef nonnull align 8 dereferenceable(24) %this) unnamed_addr #3 comdat align 2 {
entry:
  %this.addr = alloca ptr, align 8
  store ptr %this, ptr %this.addr, align 8
  %this1 = load ptr, ptr %this.addr, align 8
  %_M_start = getelementptr inbounds %"struct.std::_Vector_base<std::__cxx11::basic_string<char>, std::allocator<std::__cxx11::basic_string<char>>>::_Vector_impl_data", ptr %this1, i32 0, i32 0
  store ptr null, ptr %_M_start, align 8
  %_M_finish = getelementptr inbounds %"struct.std::_Vector_base<std::__cxx11::basic_string<char>, std::allocator<std::__cxx11::basic_string<char>>>::_Vector_impl_data", ptr %this1, i32 0, i32 1
  store ptr null, ptr %_M_finish, align 8
  %_M_end_of_storage = getelementptr inbounds %"struct.std::_Vector_base<std::__cxx11::basic_string<char>, std::allocator<std::__cxx11::basic_string<char>>>::_Vector_impl_data", ptr %this1, i32 0, i32 2
  store ptr null, ptr %_M_end_of_storage, align 8
  ret void
}

; Function Attrs: mustprogress uwtable
define linkonce_odr noundef ptr @_ZNSt12_Vector_baseINSt7__cxx1112basic_stringIcSt11char_traitsIcESaIcEEESaIS5_EE11_M_allocateEm(ptr noundef nonnull align 8 dereferenceable(24) %this, i64 noundef %__n) #2 comdat align 2 {
entry:
  %this.addr = alloca ptr, align 8
  %__n.addr = alloca i64, align 8
  store ptr %this, ptr %this.addr, align 8
  store i64 %__n, ptr %__n.addr, align 8
  %this1 = load ptr, ptr %this.addr, align 8
  %0 = load i64, ptr %__n.addr, align 8
  %cmp = icmp ne i64 %0, 0
  br i1 %cmp, label %cond.true, label %cond.false

cond.true:                                        ; preds = %entry
  %_M_impl = getelementptr inbounds %"struct.std::_Vector_base", ptr %this1, i32 0, i32 0
  %1 = load i64, ptr %__n.addr, align 8
  %call = call noundef ptr @_ZNSt16allocator_traitsISaINSt7__cxx1112basic_stringIcSt11char_traitsIcESaIcEEEEE8allocateERS6_m(ptr noundef nonnull align 1 dereferenceable(1) %_M_impl, i64 noundef %1)
  br label %cond.end

cond.false:                                       ; preds = %entry
  br label %cond.end

cond.end:                                         ; preds = %cond.false, %cond.true
  %cond = phi ptr [ %call, %cond.true ], [ null, %cond.false ]
  ret ptr %cond
}

; Function Attrs: mustprogress uwtable
define linkonce_odr noundef ptr @_ZNSt16allocator_traitsISaINSt7__cxx1112basic_stringIcSt11char_traitsIcESaIcEEEEE8allocateERS6_m(ptr noundef nonnull align 1 dereferenceable(1) %__a, i64 noundef %__n) #2 comdat align 2 {
entry:
  %__a.addr = alloca ptr, align 8
  %__n.addr = alloca i64, align 8
  store ptr %__a, ptr %__a.addr, align 8
  store i64 %__n, ptr %__n.addr, align 8
  %0 = load ptr, ptr %__a.addr, align 8
  %1 = load i64, ptr %__n.addr, align 8
  %call = call noundef ptr @_ZNSt15__new_allocatorINSt7__cxx1112basic_stringIcSt11char_traitsIcESaIcEEEE8allocateEmPKv(ptr noundef nonnull align 1 dereferenceable(1) %0, i64 noundef %1, ptr noundef null)
  ret ptr %call
}

; Function Attrs: mustprogress uwtable
define linkonce_odr noundef ptr @_ZNSt15__new_allocatorINSt7__cxx1112basic_stringIcSt11char_traitsIcESaIcEEEE8allocateEmPKv(ptr noundef nonnull align 1 dereferenceable(1) %this, i64 noundef %__n, ptr noundef %0) #2 comdat align 2 {
entry:
  %this.addr = alloca ptr, align 8
  %__n.addr = alloca i64, align 8
  %.addr = alloca ptr, align 8
  store ptr %this, ptr %this.addr, align 8
  store i64 %__n, ptr %__n.addr, align 8
  store ptr %0, ptr %.addr, align 8
  %this1 = load ptr, ptr %this.addr, align 8
  %1 = load i64, ptr %__n.addr, align 8
  %call = call noundef i64 @_ZNKSt15__new_allocatorINSt7__cxx1112basic_stringIcSt11char_traitsIcESaIcEEEE11_M_max_sizeEv(ptr noundef nonnull align 1 dereferenceable(1) %this1) #4
  %cmp = icmp ugt i64 %1, %call
  br i1 %cmp, label %if.then, label %if.end4

if.then:                                          ; preds = %entry
  %2 = load i64, ptr %__n.addr, align 8
  %cmp2 = icmp ugt i64 %2, 576460752303423487
  br i1 %cmp2, label %if.then3, label %if.end

if.then3:                                         ; preds = %if.then
  call void @_ZSt28__throw_bad_array_new_lengthv() #15
  unreachable

if.end:                                           ; preds = %if.then
  call void @_ZSt17__throw_bad_allocv() #15
  unreachable

if.end4:                                          ; preds = %entry
  %3 = load i64, ptr %__n.addr, align 8
  %mul = mul i64 %3, 32
  %call5 = call noalias noundef nonnull ptr @_Znwm(i64 noundef %mul) #17
  ret ptr %call5
}

; Function Attrs: mustprogress nounwind uwtable
define linkonce_odr noundef i64 @_ZNKSt15__new_allocatorINSt7__cxx1112basic_stringIcSt11char_traitsIcESaIcEEEE11_M_max_sizeEv(ptr noundef nonnull align 1 dereferenceable(1) %this) #3 comdat align 2 {
entry:
  %this.addr = alloca ptr, align 8
  store ptr %this, ptr %this.addr, align 8
  ret i64 288230376151711743
}

; Function Attrs: noreturn
declare void @_ZSt28__throw_bad_array_new_lengthv() #7

; Function Attrs: noreturn
declare void @_ZSt17__throw_bad_allocv() #7

; Function Attrs: nobuiltin allocsize(0)
declare noundef nonnull ptr @_Znwm(i64 noundef) #8

; Function Attrs: mustprogress nounwind uwtable
define linkonce_odr void @_ZNSt15__new_allocatorINSt7__cxx1112basic_stringIcSt11char_traitsIcESaIcEEEED2Ev(ptr noundef nonnull align 1 dereferenceable(1) %this) unnamed_addr #3 comdat align 2 {
entry:
  %this.addr = alloca ptr, align 8
  store ptr %this, ptr %this.addr, align 8
  ret void
}

; Function Attrs: mustprogress uwtable
define linkonce_odr noundef ptr @_ZSt18uninitialized_copyIN9__gnu_cxx17__normal_iteratorIPKNSt7__cxx1112basic_stringIcSt11char_traitsIcESaIcEEESt6vectorIS7_SaIS7_EEEEPS7_ET0_T_SG_SF_(ptr %__first.coerce, ptr %__last.coerce, ptr noundef %__result) #2 comdat {
entry:
  %__first = alloca %"class.__gnu_cxx::__normal_iterator", align 8
  %__last = alloca %"class.__gnu_cxx::__normal_iterator", align 8
  %__result.addr = alloca ptr, align 8
  %__can_memmove = alloca i8, align 1
  %__assignable = alloca i8, align 1
  %agg.tmp = alloca %"class.__gnu_cxx::__normal_iterator", align 8
  %agg.tmp2 = alloca %"class.__gnu_cxx::__normal_iterator", align 8
  %coerce.dive = getelementptr inbounds %"class.__gnu_cxx::__normal_iterator", ptr %__first, i32 0, i32 0
  store ptr %__first.coerce, ptr %coerce.dive, align 8
  %coerce.dive1 = getelementptr inbounds %"class.__gnu_cxx::__normal_iterator", ptr %__last, i32 0, i32 0
  store ptr %__last.coerce, ptr %coerce.dive1, align 8
  store ptr %__result, ptr %__result.addr, align 8
  store i8 0, ptr %__can_memmove, align 1
  store i8 0, ptr %__assignable, align 1
  call void @llvm.memcpy.p0.p0.i64(ptr align 8 %agg.tmp, ptr align 8 %__first, i64 8, i1 false)
  call void @llvm.memcpy.p0.p0.i64(ptr align 8 %agg.tmp2, ptr align 8 %__last, i64 8, i1 false)
  %0 = load ptr, ptr %__result.addr, align 8
  %coerce.dive3 = getelementptr inbounds %"class.__gnu_cxx::__normal_iterator", ptr %agg.tmp, i32 0, i32 0
  %1 = load ptr, ptr %coerce.dive3, align 8
  %coerce.dive4 = getelementptr inbounds %"class.__gnu_cxx::__normal_iterator", ptr %agg.tmp2, i32 0, i32 0
  %2 = load ptr, ptr %coerce.dive4, align 8
  %call = call noundef ptr @_ZNSt20__uninitialized_copyILb0EE13__uninit_copyIN9__gnu_cxx17__normal_iteratorIPKNSt7__cxx1112basic_stringIcSt11char_traitsIcESaIcEEESt6vectorIS9_SaIS9_EEEEPS9_EET0_T_SI_SH_(ptr %1, ptr %2, ptr noundef %0)
  ret ptr %call
}

; Function Attrs: nocallback nofree nounwind willreturn memory(argmem: readwrite)
declare void @llvm.memcpy.p0.p0.i64(ptr noalias nocapture writeonly, ptr noalias nocapture readonly, i64, i1 immarg) #9

; Function Attrs: mustprogress uwtable
define linkonce_odr noundef ptr @_ZNSt20__uninitialized_copyILb0EE13__uninit_copyIN9__gnu_cxx17__normal_iteratorIPKNSt7__cxx1112basic_stringIcSt11char_traitsIcESaIcEEESt6vectorIS9_SaIS9_EEEEPS9_EET0_T_SI_SH_(ptr %__first.coerce, ptr %__last.coerce, ptr noundef %__result) #2 comdat align 2 {
entry:
  %__first = alloca %"class.__gnu_cxx::__normal_iterator", align 8
  %__last = alloca %"class.__gnu_cxx::__normal_iterator", align 8
  %__result.addr = alloca ptr, align 8
  %agg.tmp = alloca %"class.__gnu_cxx::__normal_iterator", align 8
  %agg.tmp2 = alloca %"class.__gnu_cxx::__normal_iterator", align 8
  %coerce.dive = getelementptr inbounds %"class.__gnu_cxx::__normal_iterator", ptr %__first, i32 0, i32 0
  store ptr %__first.coerce, ptr %coerce.dive, align 8
  %coerce.dive1 = getelementptr inbounds %"class.__gnu_cxx::__normal_iterator", ptr %__last, i32 0, i32 0
  store ptr %__last.coerce, ptr %coerce.dive1, align 8
  store ptr %__result, ptr %__result.addr, align 8
  call void @llvm.memcpy.p0.p0.i64(ptr align 8 %agg.tmp, ptr align 8 %__first, i64 8, i1 false)
  call void @llvm.memcpy.p0.p0.i64(ptr align 8 %agg.tmp2, ptr align 8 %__last, i64 8, i1 false)
  %0 = load ptr, ptr %__result.addr, align 8
  %coerce.dive3 = getelementptr inbounds %"class.__gnu_cxx::__normal_iterator", ptr %agg.tmp, i32 0, i32 0
  %1 = load ptr, ptr %coerce.dive3, align 8
  %coerce.dive4 = getelementptr inbounds %"class.__gnu_cxx::__normal_iterator", ptr %agg.tmp2, i32 0, i32 0
  %2 = load ptr, ptr %coerce.dive4, align 8
  %call = call noundef ptr @_ZSt16__do_uninit_copyIN9__gnu_cxx17__normal_iteratorIPKNSt7__cxx1112basic_stringIcSt11char_traitsIcESaIcEEESt6vectorIS7_SaIS7_EEEEPS7_ET0_T_SG_SF_(ptr %1, ptr %2, ptr noundef %0)
  ret ptr %call
}

; Function Attrs: mustprogress uwtable
define linkonce_odr noundef ptr @_ZSt16__do_uninit_copyIN9__gnu_cxx17__normal_iteratorIPKNSt7__cxx1112basic_stringIcSt11char_traitsIcESaIcEEESt6vectorIS7_SaIS7_EEEEPS7_ET0_T_SG_SF_(ptr %__first.coerce, ptr %__last.coerce, ptr noundef %__result) #2 comdat personality ptr @__gxx_personality_v0 {
entry:
  %__first = alloca %"class.__gnu_cxx::__normal_iterator", align 8
  %__last = alloca %"class.__gnu_cxx::__normal_iterator", align 8
  %__result.addr = alloca ptr, align 8
  %__cur = alloca ptr, align 8
  %exn.slot = alloca ptr, align 8
  %ehselector.slot = alloca i32, align 4
  %coerce.dive = getelementptr inbounds %"class.__gnu_cxx::__normal_iterator", ptr %__first, i32 0, i32 0
  store ptr %__first.coerce, ptr %coerce.dive, align 8
  %coerce.dive1 = getelementptr inbounds %"class.__gnu_cxx::__normal_iterator", ptr %__last, i32 0, i32 0
  store ptr %__last.coerce, ptr %coerce.dive1, align 8
  store ptr %__result, ptr %__result.addr, align 8
  %0 = load ptr, ptr %__result.addr, align 8
  store ptr %0, ptr %__cur, align 8
  br label %for.cond

for.cond:                                         ; preds = %for.inc, %entry
  %call = call noundef zeroext i1 @_ZN9__gnu_cxxneIPKNSt7__cxx1112basic_stringIcSt11char_traitsIcESaIcEEESt6vectorIS6_SaIS6_EEEEbRKNS_17__normal_iteratorIT_T0_EESH_(ptr noundef nonnull align 8 dereferenceable(8) %__first, ptr noundef nonnull align 8 dereferenceable(8) %__last) #4
  br i1 %call, label %for.body, label %for.end

for.body:                                         ; preds = %for.cond
  %1 = load ptr, ptr %__cur, align 8
  %call2 = call noundef nonnull align 8 dereferenceable(32) ptr @_ZNK9__gnu_cxx17__normal_iteratorIPKNSt7__cxx1112basic_stringIcSt11char_traitsIcESaIcEEESt6vectorIS6_SaIS6_EEEdeEv(ptr noundef nonnull align 8 dereferenceable(8) %__first) #4
  invoke void @_ZSt10_ConstructINSt7__cxx1112basic_stringIcSt11char_traitsIcESaIcEEEJRKS5_EEvPT_DpOT0_(ptr noundef %1, ptr noundef nonnull align 8 dereferenceable(32) %call2)
          to label %invoke.cont unwind label %lpad

invoke.cont:                                      ; preds = %for.body
  br label %for.inc

for.inc:                                          ; preds = %invoke.cont
  %call3 = call noundef nonnull align 8 dereferenceable(8) ptr @_ZN9__gnu_cxx17__normal_iteratorIPKNSt7__cxx1112basic_stringIcSt11char_traitsIcESaIcEEESt6vectorIS6_SaIS6_EEEppEv(ptr noundef nonnull align 8 dereferenceable(8) %__first) #4
  %2 = load ptr, ptr %__cur, align 8
  %incdec.ptr = getelementptr inbounds %"class.std::__cxx11::basic_string", ptr %2, i32 1
  store ptr %incdec.ptr, ptr %__cur, align 8
  br label %for.cond, !llvm.loop !10

lpad:                                             ; preds = %for.body
  %3 = landingpad { ptr, i32 }
          catch ptr null
  %4 = extractvalue { ptr, i32 } %3, 0
  store ptr %4, ptr %exn.slot, align 8
  %5 = extractvalue { ptr, i32 } %3, 1
  store i32 %5, ptr %ehselector.slot, align 4
  br label %catch

catch:                                            ; preds = %lpad
  %exn = load ptr, ptr %exn.slot, align 8
  %6 = call ptr @__cxa_begin_catch(ptr %exn) #4
  %7 = load ptr, ptr %__result.addr, align 8
  %8 = load ptr, ptr %__cur, align 8
  invoke void @_ZSt8_DestroyIPNSt7__cxx1112basic_stringIcSt11char_traitsIcESaIcEEEEvT_S7_(ptr noundef %7, ptr noundef %8)
          to label %invoke.cont5 unwind label %lpad4

invoke.cont5:                                     ; preds = %catch
  invoke void @__cxa_rethrow() #15
          to label %unreachable unwind label %lpad4

for.end:                                          ; preds = %for.cond
  %9 = load ptr, ptr %__cur, align 8
  ret ptr %9

lpad4:                                            ; preds = %invoke.cont5, %catch
  %10 = landingpad { ptr, i32 }
          cleanup
  %11 = extractvalue { ptr, i32 } %10, 0
  store ptr %11, ptr %exn.slot, align 8
  %12 = extractvalue { ptr, i32 } %10, 1
  store i32 %12, ptr %ehselector.slot, align 4
  invoke void @__cxa_end_catch()
          to label %invoke.cont6 unwind label %terminate.lpad

invoke.cont6:                                     ; preds = %lpad4
  br label %eh.resume

try.cont:                                         ; No predecessors!
  call void @llvm.trap()
  unreachable

eh.resume:                                        ; preds = %invoke.cont6
  %exn7 = load ptr, ptr %exn.slot, align 8
  %sel = load i32, ptr %ehselector.slot, align 4
  %lpad.val = insertvalue { ptr, i32 } poison, ptr %exn7, 0
  %lpad.val8 = insertvalue { ptr, i32 } %lpad.val, i32 %sel, 1
  resume { ptr, i32 } %lpad.val8

terminate.lpad:                                   ; preds = %lpad4
  %13 = landingpad { ptr, i32 }
          catch ptr null
  %14 = extractvalue { ptr, i32 } %13, 0
  call void @__clang_call_terminate(ptr %14) #16
  unreachable

unreachable:                                      ; preds = %invoke.cont5
  unreachable
}

; Function Attrs: mustprogress nounwind uwtable
define linkonce_odr noundef zeroext i1 @_ZN9__gnu_cxxneIPKNSt7__cxx1112basic_stringIcSt11char_traitsIcESaIcEEESt6vectorIS6_SaIS6_EEEEbRKNS_17__normal_iteratorIT_T0_EESH_(ptr noundef nonnull align 8 dereferenceable(8) %__lhs, ptr noundef nonnull align 8 dereferenceable(8) %__rhs) #3 comdat {
entry:
  %__lhs.addr = alloca ptr, align 8
  %__rhs.addr = alloca ptr, align 8
  store ptr %__lhs, ptr %__lhs.addr, align 8
  store ptr %__rhs, ptr %__rhs.addr, align 8
  %0 = load ptr, ptr %__lhs.addr, align 8
  %call = call noundef nonnull align 8 dereferenceable(8) ptr @_ZNK9__gnu_cxx17__normal_iteratorIPKNSt7__cxx1112basic_stringIcSt11char_traitsIcESaIcEEESt6vectorIS6_SaIS6_EEE4baseEv(ptr noundef nonnull align 8 dereferenceable(8) %0) #4
  %1 = load ptr, ptr %call, align 8
  %2 = load ptr, ptr %__rhs.addr, align 8
  %call1 = call noundef nonnull align 8 dereferenceable(8) ptr @_ZNK9__gnu_cxx17__normal_iteratorIPKNSt7__cxx1112basic_stringIcSt11char_traitsIcESaIcEEESt6vectorIS6_SaIS6_EEE4baseEv(ptr noundef nonnull align 8 dereferenceable(8) %2) #4
  %3 = load ptr, ptr %call1, align 8
  %cmp = icmp ne ptr %1, %3
  ret i1 %cmp
}

; Function Attrs: mustprogress uwtable
define linkonce_odr void @_ZSt10_ConstructINSt7__cxx1112basic_stringIcSt11char_traitsIcESaIcEEEJRKS5_EEvPT_DpOT0_(ptr noundef %__p, ptr noundef nonnull align 8 dereferenceable(32) %__args) #2 comdat {
entry:
  %__p.addr = alloca ptr, align 8
  %__args.addr = alloca ptr, align 8
  store ptr %__p, ptr %__p.addr, align 8
  store ptr %__args, ptr %__args.addr, align 8
  %0 = load ptr, ptr %__p.addr, align 8
  %1 = load ptr, ptr %__args.addr, align 8
  call void @_ZNSt7__cxx1112basic_stringIcSt11char_traitsIcESaIcEEC1ERKS4_(ptr noundef nonnull align 8 dereferenceable(32) %0, ptr noundef nonnull align 8 dereferenceable(32) %1)
  ret void
}

; Function Attrs: mustprogress nounwind uwtable
define linkonce_odr noundef nonnull align 8 dereferenceable(32) ptr @_ZNK9__gnu_cxx17__normal_iteratorIPKNSt7__cxx1112basic_stringIcSt11char_traitsIcESaIcEEESt6vectorIS6_SaIS6_EEEdeEv(ptr noundef nonnull align 8 dereferenceable(8) %this) #3 comdat align 2 {
entry:
  %this.addr = alloca ptr, align 8
  store ptr %this, ptr %this.addr, align 8
  %this1 = load ptr, ptr %this.addr, align 8
  %_M_current = getelementptr inbounds %"class.__gnu_cxx::__normal_iterator", ptr %this1, i32 0, i32 0
  %0 = load ptr, ptr %_M_current, align 8
  ret ptr %0
}

; Function Attrs: mustprogress nounwind uwtable
define linkonce_odr noundef nonnull align 8 dereferenceable(8) ptr @_ZN9__gnu_cxx17__normal_iteratorIPKNSt7__cxx1112basic_stringIcSt11char_traitsIcESaIcEEESt6vectorIS6_SaIS6_EEEppEv(ptr noundef nonnull align 8 dereferenceable(8) %this) #3 comdat align 2 {
entry:
  %this.addr = alloca ptr, align 8
  store ptr %this, ptr %this.addr, align 8
  %this1 = load ptr, ptr %this.addr, align 8
  %_M_current = getelementptr inbounds %"class.__gnu_cxx::__normal_iterator", ptr %this1, i32 0, i32 0
  %0 = load ptr, ptr %_M_current, align 8
  %incdec.ptr = getelementptr inbounds %"class.std::__cxx11::basic_string", ptr %0, i32 1
  store ptr %incdec.ptr, ptr %_M_current, align 8
  ret ptr %this1
}

declare ptr @__cxa_begin_catch(ptr)

; Function Attrs: mustprogress uwtable
define linkonce_odr void @_ZSt8_DestroyIPNSt7__cxx1112basic_stringIcSt11char_traitsIcESaIcEEEEvT_S7_(ptr noundef %__first, ptr noundef %__last) #2 comdat {
entry:
  %__first.addr = alloca ptr, align 8
  %__last.addr = alloca ptr, align 8
  store ptr %__first, ptr %__first.addr, align 8
  store ptr %__last, ptr %__last.addr, align 8
  %0 = load ptr, ptr %__first.addr, align 8
  %1 = load ptr, ptr %__last.addr, align 8
  call void @_ZNSt12_Destroy_auxILb0EE9__destroyIPNSt7__cxx1112basic_stringIcSt11char_traitsIcESaIcEEEEEvT_S9_(ptr noundef %0, ptr noundef %1)
  ret void
}

declare void @__cxa_rethrow()

declare void @__cxa_end_catch()

; Function Attrs: noreturn nounwind uwtable
define linkonce_odr hidden void @__clang_call_terminate(ptr noundef %0) #10 comdat {
  %2 = call ptr @__cxa_begin_catch(ptr %0) #4
  call void @_ZSt9terminatev() #16
  unreachable
}

declare void @_ZSt9terminatev()

; Function Attrs: cold noreturn nounwind memory(inaccessiblemem: write)
declare void @llvm.trap() #11

; Function Attrs: mustprogress nounwind uwtable
define linkonce_odr noundef nonnull align 8 dereferenceable(8) ptr @_ZNK9__gnu_cxx17__normal_iteratorIPKNSt7__cxx1112basic_stringIcSt11char_traitsIcESaIcEEESt6vectorIS6_SaIS6_EEE4baseEv(ptr noundef nonnull align 8 dereferenceable(8) %this) #3 comdat align 2 {
entry:
  %this.addr = alloca ptr, align 8
  store ptr %this, ptr %this.addr, align 8
  %this1 = load ptr, ptr %this.addr, align 8
  %_M_current = getelementptr inbounds %"class.__gnu_cxx::__normal_iterator", ptr %this1, i32 0, i32 0
  ret ptr %_M_current
}

; Function Attrs: mustprogress uwtable
define linkonce_odr void @_ZNSt12_Destroy_auxILb0EE9__destroyIPNSt7__cxx1112basic_stringIcSt11char_traitsIcESaIcEEEEEvT_S9_(ptr noundef %__first, ptr noundef %__last) #2 comdat align 2 {
entry:
  %__first.addr = alloca ptr, align 8
  %__last.addr = alloca ptr, align 8
  store ptr %__first, ptr %__first.addr, align 8
  store ptr %__last, ptr %__last.addr, align 8
  br label %for.cond

for.cond:                                         ; preds = %for.inc, %entry
  %0 = load ptr, ptr %__first.addr, align 8
  %1 = load ptr, ptr %__last.addr, align 8
  %cmp = icmp ne ptr %0, %1
  br i1 %cmp, label %for.body, label %for.end

for.body:                                         ; preds = %for.cond
  %2 = load ptr, ptr %__first.addr, align 8
  call void @_ZSt8_DestroyINSt7__cxx1112basic_stringIcSt11char_traitsIcESaIcEEEEvPT_(ptr noundef %2)
  br label %for.inc

for.inc:                                          ; preds = %for.body
  %3 = load ptr, ptr %__first.addr, align 8
  %incdec.ptr = getelementptr inbounds %"class.std::__cxx11::basic_string", ptr %3, i32 1
  store ptr %incdec.ptr, ptr %__first.addr, align 8
  br label %for.cond, !llvm.loop !11

for.end:                                          ; preds = %for.cond
  ret void
}

; Function Attrs: mustprogress nounwind uwtable
define linkonce_odr void @_ZSt8_DestroyINSt7__cxx1112basic_stringIcSt11char_traitsIcESaIcEEEEvPT_(ptr noundef %__pointer) #3 comdat {
entry:
  %__pointer.addr = alloca ptr, align 8
  store ptr %__pointer, ptr %__pointer.addr, align 8
  %0 = load ptr, ptr %__pointer.addr, align 8
  call void @_ZNSt7__cxx1112basic_stringIcSt11char_traitsIcESaIcEED1Ev(ptr noundef nonnull align 8 dereferenceable(32) %0) #4
  ret void
}

; Function Attrs: mustprogress nounwind uwtable
define linkonce_odr void @_ZN9__gnu_cxx17__normal_iteratorIPKNSt7__cxx1112basic_stringIcSt11char_traitsIcESaIcEEESt6vectorIS6_SaIS6_EEEC2ERKS8_(ptr noundef nonnull align 8 dereferenceable(8) %this, ptr noundef nonnull align 8 dereferenceable(8) %__i) unnamed_addr #3 comdat align 2 {
entry:
  %this.addr = alloca ptr, align 8
  %__i.addr = alloca ptr, align 8
  store ptr %this, ptr %this.addr, align 8
  store ptr %__i, ptr %__i.addr, align 8
  %this1 = load ptr, ptr %this.addr, align 8
  %_M_current = getelementptr inbounds %"class.__gnu_cxx::__normal_iterator", ptr %this1, i32 0, i32 0
  %0 = load ptr, ptr %__i.addr, align 8
  %1 = load ptr, ptr %0, align 8
  store ptr %1, ptr %_M_current, align 8
  ret void
}

; Function Attrs: mustprogress uwtable
define linkonce_odr void @_ZNSt12_Vector_baseINSt7__cxx1112basic_stringIcSt11char_traitsIcESaIcEEESaIS5_EE13_M_deallocateEPS5_m(ptr noundef nonnull align 8 dereferenceable(24) %this, ptr noundef %__p, i64 noundef %__n) #2 comdat align 2 {
entry:
  %this.addr = alloca ptr, align 8
  %__p.addr = alloca ptr, align 8
  %__n.addr = alloca i64, align 8
  store ptr %this, ptr %this.addr, align 8
  store ptr %__p, ptr %__p.addr, align 8
  store i64 %__n, ptr %__n.addr, align 8
  %this1 = load ptr, ptr %this.addr, align 8
  %0 = load ptr, ptr %__p.addr, align 8
  %tobool = icmp ne ptr %0, null
  br i1 %tobool, label %if.then, label %if.end

if.then:                                          ; preds = %entry
  %_M_impl = getelementptr inbounds %"struct.std::_Vector_base", ptr %this1, i32 0, i32 0
  %1 = load ptr, ptr %__p.addr, align 8
  %2 = load i64, ptr %__n.addr, align 8
  call void @_ZNSt16allocator_traitsISaINSt7__cxx1112basic_stringIcSt11char_traitsIcESaIcEEEEE10deallocateERS6_PS5_m(ptr noundef nonnull align 1 dereferenceable(1) %_M_impl, ptr noundef %1, i64 noundef %2)
  br label %if.end

if.end:                                           ; preds = %if.then, %entry
  ret void
}

; Function Attrs: mustprogress uwtable
define linkonce_odr void @_ZNSt16allocator_traitsISaINSt7__cxx1112basic_stringIcSt11char_traitsIcESaIcEEEEE10deallocateERS6_PS5_m(ptr noundef nonnull align 1 dereferenceable(1) %__a, ptr noundef %__p, i64 noundef %__n) #2 comdat align 2 {
entry:
  %__a.addr = alloca ptr, align 8
  %__p.addr = alloca ptr, align 8
  %__n.addr = alloca i64, align 8
  store ptr %__a, ptr %__a.addr, align 8
  store ptr %__p, ptr %__p.addr, align 8
  store i64 %__n, ptr %__n.addr, align 8
  %0 = load ptr, ptr %__a.addr, align 8
  %1 = load ptr, ptr %__p.addr, align 8
  %2 = load i64, ptr %__n.addr, align 8
  call void @_ZNSt15__new_allocatorINSt7__cxx1112basic_stringIcSt11char_traitsIcESaIcEEEE10deallocateEPS5_m(ptr noundef nonnull align 1 dereferenceable(1) %0, ptr noundef %1, i64 noundef %2)
  ret void
}

; Function Attrs: mustprogress nounwind uwtable
define linkonce_odr void @_ZNSt15__new_allocatorINSt7__cxx1112basic_stringIcSt11char_traitsIcESaIcEEEE10deallocateEPS5_m(ptr noundef nonnull align 1 dereferenceable(1) %this, ptr noundef %__p, i64 noundef %__n) #3 comdat align 2 {
entry:
  %this.addr = alloca ptr, align 8
  %__p.addr = alloca ptr, align 8
  %__n.addr = alloca i64, align 8
  store ptr %this, ptr %this.addr, align 8
  store ptr %__p, ptr %__p.addr, align 8
  store i64 %__n, ptr %__n.addr, align 8
  %0 = load ptr, ptr %__p.addr, align 8
