; ModuleID = 'bench/grpc/original/channel_init.cc.ll'
source_filename = "bench/grpc/original/channel_init.cc.ll"
target datalayout = "e-m:e-p270:32:32-p271:32:32-p272:64:64-i64:64-i128:128-f80:128-n8:16:32:64-S128"
target triple = "x86_64-unknown-linux-gnu"

%"class.std::ios_base::Init" = type { i8 }
%"class.grpc_core::TraceFlag" = type <{ ptr, ptr, %"struct.std::atomic", [7 x i8] }>
%"struct.std::atomic" = type { %"struct.std::__atomic_base" }
%"struct.std::__atomic_base" = type { i8 }
%"struct.std::piecewise_construct_t" = type { i8 }
%"class.grpc_core::ChannelInit::FilterRegistration" = type { ptr, %"class.std::vector", %"class.std::vector", %"class.std::vector.0", i8, i8, [6 x i8], %"class.grpc_core::SourceLocation" }
%"class.std::vector" = type { %"struct.std::_Vector_base" }
%"struct.std::_Vector_base" = type { %"struct.std::_Vector_base<const grpc_channel_filter *, std::allocator<const grpc_channel_filter *>>::_Vector_impl" }
%"struct.std::_Vector_base<const grpc_channel_filter *, std::allocator<const grpc_channel_filter *>>::_Vector_impl" = type { %"struct.std::_Vector_base<const grpc_channel_filter *, std::allocator<const grpc_channel_filter *>>::_Vector_impl_data" }
%"struct.std::_Vector_base<const grpc_channel_filter *, std::allocator<const grpc_channel_filter *>>::_Vector_impl_data" = type { ptr, ptr, ptr }
%"class.std::vector.0" = type { %"struct.std::_Vector_base.1" }
%"struct.std::_Vector_base.1" = type { %"struct.std::_Vector_base<absl::lts_20230802::AnyInvocable<bool (const grpc_core::ChannelArgs &) const>, std::allocator<absl::lts_20230802::AnyInvocable<bool (const grpc_core::ChannelArgs &) const>>>::_Vector_impl" }
%"struct.std::_Vector_base<absl::lts_20230802::AnyInvocable<bool (const grpc_core::ChannelArgs &) const>, std::allocator<absl::lts_20230802::AnyInvocable<bool (const grpc_core::ChannelArgs &) const>>>::_Vector_impl" = type { %"struct.std::_Vector_base<absl::lts_20230802::AnyInvocable<bool (const grpc_core::ChannelArgs &) const>, std::allocator<absl::lts_20230802::AnyInvocable<bool (const grpc_core::ChannelArgs &) const>>>::_Vector_impl_data" }
%"struct.std::_Vector_base<absl::lts_20230802::AnyInvocable<bool (const grpc_core::ChannelArgs &) const>, std::allocator<absl::lts_20230802::AnyInvocable<bool (const grpc_core::ChannelArgs &) const>>>::_Vector_impl_data" = type { ptr, ptr, ptr }
%"class.grpc_core::SourceLocation" = type <{ ptr, i32, [4 x i8] }>
%"class.absl::lts_20230802::internal_any_invocable::CoreImpl" = type { %"union.absl::lts_20230802::internal_any_invocable::TypeErasedState", ptr, ptr }
%"union.absl::lts_20230802::internal_any_invocable::TypeErasedState" = type { %struct.anon }
%struct.anon = type { ptr, i64 }
%"class.absl::lts_20230802::AnyInvocable" = type { %"class.absl::lts_20230802::internal_any_invocable::Impl" }
%"class.absl::lts_20230802::internal_any_invocable::Impl" = type { %"class.absl::lts_20230802::internal_any_invocable::CoreImpl" }
%class.anon = type { %"class.absl::lts_20230802::AnyInvocable" }
%"class.std::unique_ptr" = type { %"struct.std::__uniq_ptr_data" }
%"struct.std::__uniq_ptr_data" = type { %"class.std::__uniq_ptr_impl" }
%"class.std::__uniq_ptr_impl" = type { %"class.std::tuple" }
%"class.std::tuple" = type { %"struct.std::_Tuple_impl" }
%"struct.std::_Tuple_impl" = type { %"struct.std::_Head_base.18" }
%"struct.std::_Head_base.18" = type { ptr }
%"class.std::vector.9" = type { %"struct.std::_Vector_base.10" }
%"struct.std::_Vector_base.10" = type { %"struct.std::_Vector_base<std::unique_ptr<grpc_core::ChannelInit::FilterRegistration>, std::allocator<std::unique_ptr<grpc_core::ChannelInit::FilterRegistration>>>::_Vector_impl" }
%"struct.std::_Vector_base<std::unique_ptr<grpc_core::ChannelInit::FilterRegistration>, std::allocator<std::unique_ptr<grpc_core::ChannelInit::FilterRegistration>>>::_Vector_impl" = type { %"struct.std::_Vector_base<std::unique_ptr<grpc_core::ChannelInit::FilterRegistration>, std::allocator<std::unique_ptr<grpc_core::ChannelInit::FilterRegistration>>>::_Vector_impl_data" }
%"struct.std::_Vector_base<std::unique_ptr<grpc_core::ChannelInit::FilterRegistration>, std::allocator<std::unique_ptr<grpc_core::ChannelInit::FilterRegistration>>>::_Vector_impl_data" = type { ptr, ptr, ptr }
%"struct.grpc_core::ChannelInit::StackConfig" = type { %"class.std::vector.19", %"class.std::vector.19", %"class.std::vector.24" }
%"class.std::vector.19" = type { %"struct.std::_Vector_base.20" }
%"struct.std::_Vector_base.20" = type { %"struct.std::_Vector_base<grpc_core::ChannelInit::Filter, std::allocator<grpc_core::ChannelInit::Filter>>::_Vector_impl" }
%"struct.std::_Vector_base<grpc_core::ChannelInit::Filter, std::allocator<grpc_core::ChannelInit::Filter>>::_Vector_impl" = type { %"struct.std::_Vector_base<grpc_core::ChannelInit::Filter, std::allocator<grpc_core::ChannelInit::Filter>>::_Vector_impl_data" }
%"struct.std::_Vector_base<grpc_core::ChannelInit::Filter, std::allocator<grpc_core::ChannelInit::Filter>>::_Vector_impl_data" = type { ptr, ptr, ptr }
%"class.std::vector.24" = type { %"struct.std::_Vector_base.25" }
%"struct.std::_Vector_base.25" = type { %"struct.std::_Vector_base<absl::lts_20230802::AnyInvocable<void (grpc_core::ChannelStackBuilder &) const>, std::allocator<absl::lts_20230802::AnyInvocable<void (grpc_core::ChannelStackBuilder &) const>>>::_Vector_impl" }
%"struct.std::_Vector_base<absl::lts_20230802::AnyInvocable<void (grpc_core::ChannelStackBuilder &) const>, std::allocator<absl::lts_20230802::AnyInvocable<void (grpc_core::ChannelStackBuilder &) const>>>::_Vector_impl" = type { %"struct.std::_Vector_base<absl::lts_20230802::AnyInvocable<void (grpc_core::ChannelStackBuilder &) const>, std::allocator<absl::lts_20230802::AnyInvocable<void (grpc_core::ChannelStackBuilder &) const>>>::_Vector_impl_data" }
%"struct.std::_Vector_base<absl::lts_20230802::AnyInvocable<void (grpc_core::ChannelStackBuilder &) const>, std::allocator<absl::lts_20230802::AnyInvocable<void (grpc_core::ChannelStackBuilder &) const>>>::_Vector_impl_data" = type { ptr, ptr, ptr }
%"class.std::basic_string_view" = type { i64, ptr }
%"class.std::tuple.94" = type { %"struct.std::_Tuple_impl.95" }
%"struct.std::_Tuple_impl.95" = type { %"struct.std::_Head_base.96" }
%"struct.std::_Head_base.96" = type { ptr }
%"class.std::tuple.97" = type { i8 }
%"class.std::__cxx11::basic_string" = type { %"struct.std::__cxx11::basic_string<char>::_Alloc_hider", i64, %union.anon }
%"struct.std::__cxx11::basic_string<char>::_Alloc_hider" = type { ptr }
%union.anon = type { i64, [8 x i8] }
%"class.absl::lts_20230802::AlphaNum" = type { %"class.std::basic_string_view", [32 x i8] }
%"class.std::map" = type { %"class.std::_Rb_tree" }
%"class.std::_Rb_tree" = type { %"struct.std::_Rb_tree<const grpc_channel_filter *, std::pair<const grpc_channel_filter *const, grpc_core::ChannelInit::FilterRegistration *>, std::_Select1st<std::pair<const grpc_channel_filter *const, grpc_core::ChannelInit::FilterRegistration *>>, std::less<const grpc_channel_filter *>>::_Rb_tree_impl" }
%"struct.std::_Rb_tree<const grpc_channel_filter *, std::pair<const grpc_channel_filter *const, grpc_core::ChannelInit::FilterRegistration *>, std::_Select1st<std::pair<const grpc_channel_filter *const, grpc_core::ChannelInit::FilterRegistration *>>, std::less<const grpc_channel_filter *>>::_Rb_tree_impl" = type { %"struct.std::_Rb_tree_key_compare", %"struct.std::_Rb_tree_header" }
%"struct.std::_Rb_tree_key_compare" = type { %"struct.std::less" }
%"struct.std::less" = type { i8 }
%"struct.std::_Rb_tree_header" = type { %"struct.std::_Rb_tree_node_base", i64 }
%"struct.std::_Rb_tree_node_base" = type { i32, ptr, ptr, ptr }
%"class.std::map.32" = type { %"class.std::_Rb_tree.33" }
%"class.std::_Rb_tree.33" = type { %"struct.std::_Rb_tree<const grpc_channel_filter *, std::pair<const grpc_channel_filter *const, std::set<const grpc_channel_filter *, grpc_core::(anonymous namespace)::CompareChannelFiltersByName>>, std::_Select1st<std::pair<const grpc_channel_filter *const, std::set<const grpc_channel_filter *, grpc_core::(anonymous namespace)::CompareChannelFiltersByName>>>, grpc_core::(anonymous namespace)::CompareChannelFiltersByName>::_Rb_tree_impl" }
%"struct.std::_Rb_tree<const grpc_channel_filter *, std::pair<const grpc_channel_filter *const, std::set<const grpc_channel_filter *, grpc_core::(anonymous namespace)::CompareChannelFiltersByName>>, std::_Select1st<std::pair<const grpc_channel_filter *const, std::set<const grpc_channel_filter *, grpc_core::(anonymous namespace)::CompareChannelFiltersByName>>>, grpc_core::(anonymous namespace)::CompareChannelFiltersByName>::_Rb_tree_impl" = type { %"struct.std::_Rb_tree_key_compare.37", %"struct.std::_Rb_tree_header" }
%"struct.std::_Rb_tree_key_compare.37" = type { %"struct.grpc_core::(anonymous namespace)::CompareChannelFiltersByName" }
%"struct.grpc_core::(anonymous namespace)::CompareChannelFiltersByName" = type { i8 }
%"class.std::map.53" = type { %"class.std::_Rb_tree.54" }
%"class.std::_Rb_tree.54" = type { %"struct.std::_Rb_tree<const grpc_channel_filter *, std::pair<const grpc_channel_filter *const, std::__cxx11::basic_string<char>>, std::_Select1st<std::pair<const grpc_channel_filter *const, std::__cxx11::basic_string<char>>>, std::less<const grpc_channel_filter *>>::_Rb_tree_impl" }
%"struct.std::_Rb_tree<const grpc_channel_filter *, std::pair<const grpc_channel_filter *const, std::__cxx11::basic_string<char>>, std::_Select1st<std::pair<const grpc_channel_filter *const, std::__cxx11::basic_string<char>>>, std::less<const grpc_channel_filter *>>::_Rb_tree_impl" = type { %"struct.std::_Rb_tree_key_compare", %"struct.std::_Rb_tree_header" }
%class.anon.58 = type { ptr, ptr, ptr, ptr }
%"class.std::allocator.38" = type { i8 }
%"struct.std::_Rb_tree_node.81" = type { %"struct.std::_Rb_tree_node_base", %"struct.__gnu_cxx::__aligned_membuf.82" }
%"struct.__gnu_cxx::__aligned_membuf.82" = type { [16 x i8] }
%"struct.grpc_core::ChannelInit::Filter" = type { ptr, %"class.std::vector.0", %"class.grpc_core::SourceLocation" }
%"struct.std::_Rb_tree_node.69" = type { %"struct.std::_Rb_tree_node_base", %"struct.__gnu_cxx::__aligned_membuf.70" }
%"struct.__gnu_cxx::__aligned_membuf.70" = type { [8 x i8] }
%"struct.std::_Rb_tree_node" = type { %"struct.std::_Rb_tree_node_base", %"struct.__gnu_cxx::__aligned_membuf" }
%"struct.__gnu_cxx::__aligned_membuf" = type { [56 x i8] }
%"class.absl::lts_20230802::AnyInvocable.14" = type { %"class.absl::lts_20230802::internal_any_invocable::Impl.15" }
%"class.absl::lts_20230802::internal_any_invocable::Impl.15" = type { %"class.absl::lts_20230802::internal_any_invocable::CoreImpl.16" }
%"class.absl::lts_20230802::internal_any_invocable::CoreImpl.16" = type { %"union.absl::lts_20230802::internal_any_invocable::TypeErasedState", ptr, ptr }
%"struct.std::_Rb_tree_node.77" = type { %"struct.std::_Rb_tree_node_base", %"struct.__gnu_cxx::__aligned_membuf.78" }
%"struct.__gnu_cxx::__aligned_membuf.78" = type { [40 x i8] }
%"class.grpc_core::ChannelInit" = type { [6 x %"struct.grpc_core::ChannelInit::StackConfig"] }
%"class.grpc_core::ChannelInit::Builder" = type { [6 x %"class.std::vector.9"], [6 x [2 x %"class.absl::lts_20230802::AnyInvocable.14"]] }
%"class.grpc_core::ChannelStackBuilder" = type { ptr, ptr, i32, %"class.std::__cxx11::basic_string", %"class.grpc_core::ChannelArgs", %"class.std::vector" }
%"class.grpc_core::ChannelArgs" = type { %"class.grpc_core::AVL" }
%"class.grpc_core::AVL" = type { %"class.grpc_core::RefCountedPtr" }
%"class.grpc_core::RefCountedPtr" = type { ptr }
%"struct.std::_Rb_tree<const grpc_channel_filter *, std::pair<const grpc_channel_filter *const, std::__cxx11::basic_string<char>>, std::_Select1st<std::pair<const grpc_channel_filter *const, std::__cxx11::basic_string<char>>>, std::less<const grpc_channel_filter *>>::_Auto_node" = type { ptr, ptr }
%class.anon.6 = type <{ ptr, i8, [7 x i8] }>

$_ZNSt10unique_ptrIN9grpc_core11ChannelInit18FilterRegistrationESt14default_deleteIS2_EED2Ev = comdat any

$_ZNSt3mapIPK19grpc_channel_filterPN9grpc_core11ChannelInit18FilterRegistrationESt4lessIS2_ESaISt4pairIKS2_S6_EEEixERSA_ = comdat any

$_ZN4absl12lts_202308026StrCatIJiA10_cPKcA2_ciEEENSt7__cxx1112basic_stringIcSt11char_traitsIcESaIcEEERKNS0_8AlphaNumESE_SE_SE_SE_DpRKT_ = comdat any

$_ZNSt3mapIPK19grpc_channel_filterNSt7__cxx1112basic_stringIcSt11char_traitsIcESaIcEEESt4lessIS2_ESaISt4pairIKS2_S8_EEED2Ev = comdat any

$_ZNSt6vectorIN4absl12lts_2023080212AnyInvocableIKFvRN9grpc_core19ChannelStackBuilderEEEESaIS7_EED2Ev = comdat any

$_ZNSt6vectorIN9grpc_core11ChannelInit6FilterESaIS2_EED2Ev = comdat any

$_ZNSt3mapIPK19grpc_channel_filterPN9grpc_core11ChannelInit18FilterRegistrationESt4lessIS2_ESaISt4pairIKS2_S6_EEED2Ev = comdat any

$_ZN9grpc_core11ChannelInit11StackConfigaSEOS1_ = comdat any

$_ZN9grpc_core11ChannelInit11StackConfigD2Ev = comdat any

$_ZN4absl12lts_2023080222internal_any_invocable12EmptyManagerENS1_14FunctionToCallEPNS1_15TypeErasedStateES4_ = comdat any

$__clang_call_terminate = comdat any

$_ZNSt8_Rb_treeIPK19grpc_channel_filterSt4pairIKS2_NSt7__cxx1112basic_stringIcSt11char_traitsIcESaIcEEEESt10_Select1stISB_ESt4lessIS2_ESaISB_EE22_M_emplace_hint_uniqueIJRS2_SA_EEESt17_Rb_tree_iteratorISB_ESt23_Rb_tree_const_iteratorISB_EDpOT_ = comdat any

$_ZNSt8_Rb_treeIPK19grpc_channel_filterSt4pairIKS2_NSt7__cxx1112basic_stringIcSt11char_traitsIcESaIcEEEESt10_Select1stISB_ESt4lessIS2_ESaISB_EE29_M_get_insert_hint_unique_posESt23_Rb_tree_const_iteratorISB_ERS4_ = comdat any

$_ZNSt8_Rb_treeIPK19grpc_channel_filterSt4pairIKS2_NSt7__cxx1112basic_stringIcSt11char_traitsIcESaIcEEEESt10_Select1stISB_ESt4lessIS2_ESaISB_EE10_Auto_nodeD2Ev = comdat any

$_ZNSt8_Rb_treeIPK19grpc_channel_filterSt4pairIKS2_NSt7__cxx1112basic_stringIcSt11char_traitsIcESaIcEEEESt10_Select1stISB_ESt4lessIS2_ESaISB_EE8_M_eraseEPSt13_Rb_tree_nodeISB_E = comdat any

$_ZNSt8_Rb_treeIPK19grpc_channel_filterSt4pairIKS2_PN9grpc_core11ChannelInit18FilterRegistrationEESt10_Select1stIS9_ESt4lessIS2_ESaIS9_EE8_M_eraseEPSt13_Rb_tree_nodeIS9_E = comdat any

$_ZNSt6vectorIN4absl12lts_2023080212AnyInvocableIKFbRKN9grpc_core11ChannelArgsEEEESaIS8_EE17_M_realloc_insertIJS8_EEEvN9__gnu_cxx17__normal_iteratorIPS8_SA_EEDpOT_ = comdat any

$_ZN4absl12lts_2023080222internal_any_invocable19LocalManagerTrivialENS1_14FunctionToCallEPNS1_15TypeErasedStateES4_ = comdat any

$_ZNSt8_Rb_treeIPK19grpc_channel_filterSt4pairIKS2_PN9grpc_core11ChannelInit18FilterRegistrationEESt10_Select1stIS9_ESt4lessIS2_ESaIS9_EE29_M_get_insert_hint_unique_posESt23_Rb_tree_const_iteratorIS9_ERS4_ = comdat any

$_ZNSt6vectorIN9grpc_core11ChannelInit6FilterESaIS2_EE17_M_realloc_insertIJRKPK19grpc_channel_filterS_IN4absl12lts_2023080212AnyInvocableIKFbRKNS0_11ChannelArgsEEEESaISI_EERNS0_14SourceLocationEEEEvN9__gnu_cxx17__normal_iteratorIPS2_S4_EEDpOT_ = comdat any

$_ZNSt6vectorIN9grpc_core11ChannelInit6FilterESaIS2_EE17_M_realloc_insertIJRPK19grpc_channel_filterS_IN4absl12lts_2023080212AnyInvocableIKFbRKNS0_11ChannelArgsEEEESaISH_EERNS0_14SourceLocationEEEEvN9__gnu_cxx17__normal_iteratorIPS2_S4_EEDpOT_ = comdat any

$_ZNSt6vectorIN4absl12lts_2023080212AnyInvocableIKFvRN9grpc_core19ChannelStackBuilderEEEESaIS7_EE17_M_realloc_insertIJS7_EEEvN9__gnu_cxx17__normal_iteratorIPS7_S9_EEDpOT_ = comdat any

$_ZNSt8_Rb_treeIPK19grpc_channel_filterSt4pairIKS2_NSt7__cxx1112basic_stringIcSt11char_traitsIcESaIcEEEESt10_Select1stISB_ESt4lessIS2_ESaISB_EE22_M_emplace_hint_uniqueIJRKSt21piecewise_construct_tSt5tupleIJRS4_EESM_IJEEEEESt17_Rb_tree_iteratorISB_ESt23_Rb_tree_const_iteratorISB_EDpOT_ = comdat any

$_ZSt19piecewise_construct = comdat any

@_ZStL8__ioinit = internal global %"class.std::ios_base::Init" zeroinitializer, align 1
@__dso_handle = external hidden global i8
@_ZN9grpc_core21NameFromChannelFilterE = local_unnamed_addr global ptr null, align 8
@.str = private unnamed_addr constant [42 x i8] c"Duplicate registration of channel filter \00", align 1
@.str.1 = private unnamed_addr constant [9 x i8] c"\0Afirst: \00", align 1
@.str.2 = private unnamed_addr constant [2 x i8] c":\00", align 1
@.str.3 = private unnamed_addr constant [10 x i8] c"\0Asecond: \00", align 1
@.str.4 = private unnamed_addr constant [124 x i8] c"generated/home/dtcxzyw/WorkSpace/Projects/compilers/llvm-opt-benchmark/bench/grpc/grpc/src/core/lib/surface/channel_init.cc\00", align 1
@.str.5 = private unnamed_addr constant [29 x i8] c"registration->after_.empty()\00", align 1
@.str.6 = private unnamed_addr constant [30 x i8] c"registration->before_.empty()\00", align 1
@.str.7 = private unnamed_addr constant [27 x i8] c"!registration->before_all_\00", align 1
@.str.8 = private unnamed_addr constant [56 x i8] c"filter_to_registration.count(registration->filter_) > 0\00", align 1
@.str.9 = private unnamed_addr constant [3 x i8] c"%s\00", align 1
@.str.10 = private unnamed_addr constant [8 x i8] c"Filter \00", align 1
@.str.11 = private unnamed_addr constant [59 x i8] c" not registered, but is referenced in the after clause of \00", align 1
@.str.12 = private unnamed_addr constant [30 x i8] c" when building channel stack \00", align 1
@.str.13 = private unnamed_addr constant [60 x i8] c" not registered, but is referenced in the before clause of \00", align 1
@grpc_trace_channel_stack = external local_unnamed_addr global %"class.grpc_core::TraceFlag", align 8
@_ZZN9grpc_core11ChannelInit16BuildStackConfigERKSt6vectorISt10unique_ptrINS0_18FilterRegistrationESt14default_deleteIS3_EESaIS6_EEPN4absl12lts_2023080212AnyInvocableIKFvRNS_19ChannelStackBuilderEEEE23grpc_channel_stack_typeE1m = internal unnamed_addr global ptr null, align 8
@_ZGVZN9grpc_core11ChannelInit16BuildStackConfigERKSt6vectorISt10unique_ptrINS0_18FilterRegistrationESt14default_deleteIS3_EESaIS6_EEPN4absl12lts_2023080212AnyInvocableIKFvRNS_19ChannelStackBuilderEEEE23grpc_channel_stack_typeE1m = internal global i64 0, align 8
@.str.14 = private unnamed_addr constant [26 x i8] c"ORDERED CHANNEL STACK %s:\00", align 1
@.str.15 = private unnamed_addr constant [7 x i8] c"after \00", align 1
@.str.16 = private unnamed_addr constant [3 x i8] c", \00", align 1
@.str.17 = private unnamed_addr constant [3 x i8] c"  \00", align 1
@.str.18 = private unnamed_addr constant [11 x i8] c"[terminal]\00", align 1
@.str.19 = private unnamed_addr constant [201 x i8] c"No terminal filters registered for channel stack type %s; this is common for unit tests messing with CoreConfiguration, but will result in a ChannelInit::CreateStack that never completes successfully.\00", align 1
@.str.20 = private unnamed_addr constant [55 x i8] c" terminating filters found creating a channel of type \00", align 1
@.str.21 = private unnamed_addr constant [17 x i8] c" with arguments \00", align 1
@.str.22 = private unnamed_addr constant [55 x i8] c" (we insist upon one and only one terminating filter)\0A\00", align 1
@.str.23 = private unnamed_addr constant [38 x i8] c"  No terminal filters were registered\00", align 1
@.str.24 = private unnamed_addr constant [15 x i8] c" registered @ \00", align 1
@.str.25 = private unnamed_addr constant [13 x i8] c": enabled = \00", align 1
@.str.26 = private unnamed_addr constant [5 x i8] c"true\00", align 1
@.str.27 = private unnamed_addr constant [6 x i8] c"false\00", align 1
@.str.28 = private unnamed_addr constant [2 x i8] c"\0A\00", align 1
@.str.29 = private unnamed_addr constant [58 x i8] c"Unresolvable graph of channel filters - remaining graph:\0A\00", align 1
@.str.30 = private unnamed_addr constant [11 x i8] c"original:\0A\00", align 1
@.str.31 = private unnamed_addr constant [4 x i8] c" ->\00", align 1
@.str.32 = private unnamed_addr constant [2 x i8] c" \00", align 1
@.str.35 = private unnamed_addr constant [26 x i8] c"vector::_M_realloc_insert\00", align 1
@_ZSt19piecewise_construct = linkonce_odr constant %"struct.std::piecewise_construct_t" zeroinitializer, comdat, align 1
@.str.36 = private unnamed_addr constant [1 x i8] zeroinitializer, align 1
@llvm.global_ctors = appending global [1 x { i32, ptr, ptr }] [{ i32, ptr, ptr } { i32 65535, ptr @_GLOBAL__sub_I_channel_init.cc, ptr null }]

declare void @_ZNSt8ios_base4InitC1Ev(ptr noundef nonnull align 1 dereferenceable(1)) unnamed_addr #0

; Function Attrs: nounwind
declare void @_ZNSt8ios_base4InitD1Ev(ptr noundef nonnull align 1 dereferenceable(1)) unnamed_addr #1

; Function Attrs: nofree nounwind
declare i32 @__cxa_atexit(ptr, ptr, ptr) local_unnamed_addr #2

; Function Attrs: mustprogress uwtable
define noundef nonnull align 8 dereferenceable(104) ptr @_ZN9grpc_core11ChannelInit18FilterRegistration5AfterESt16initializer_listIPK19grpc_channel_filterE(ptr noundef nonnull returned align 8 dereferenceable(104) %this, ptr readonly %filters.coerce0, i64 %filters.coerce1) local_unnamed_addr #3 align 2 {
entry:
  %add.ptr.i = getelementptr inbounds ptr, ptr %filters.coerce0, i64 %filters.coerce1
  %cmp.not6 = icmp eq i64 %filters.coerce1, 0
  br i1 %cmp.not6, label %for.end, label %for.body.lr.ph

for.body.lr.ph:                                   ; preds = %entry
  %after_ = getelementptr inbounds %"class.grpc_core::ChannelInit::FilterRegistration", ptr %this, i64 0, i32 1
  %_M_finish.i = getelementptr inbounds %"class.grpc_core::ChannelInit::FilterRegistration", ptr %this, i64 0, i32 1, i32 0, i32 0, i32 0, i32 1
  %_M_end_of_storage.i = getelementptr inbounds %"class.grpc_core::ChannelInit::FilterRegistration", ptr %this, i64 0, i32 1, i32 0, i32 0, i32 0, i32 2
  %.pre = load ptr, ptr %_M_finish.i, align 8
  br label %for.body

for.body:                                         ; preds = %for.body.lr.ph, %_ZNSt6vectorIPK19grpc_channel_filterSaIS2_EE9push_backERKS2_.exit
  %0 = phi ptr [ %.pre, %for.body.lr.ph ], [ %6, %_ZNSt6vectorIPK19grpc_channel_filterSaIS2_EE9push_backERKS2_.exit ]
  %__begin1.07 = phi ptr [ %filters.coerce0, %for.body.lr.ph ], [ %incdec.ptr, %_ZNSt6vectorIPK19grpc_channel_filterSaIS2_EE9push_backERKS2_.exit ]
  %1 = load ptr, ptr %__begin1.07, align 8
  %2 = load ptr, ptr %_M_end_of_storage.i, align 8
  %cmp.not.i = icmp eq ptr %0, %2
  br i1 %cmp.not.i, label %if.else.i, label %if.then.i

if.then.i:                                        ; preds = %for.body
  store ptr %1, ptr %0, align 8
  %3 = load ptr, ptr %_M_finish.i, align 8
  %incdec.ptr.i = getelementptr inbounds ptr, ptr %3, i64 1
  store ptr %incdec.ptr.i, ptr %_M_finish.i, align 8
  br label %_ZNSt6vectorIPK19grpc_channel_filterSaIS2_EE9push_backERKS2_.exit

if.else.i:                                        ; preds = %for.body
  %4 = load ptr, ptr %after_, align 8
  %sub.ptr.lhs.cast.i.i.i.i = ptrtoint ptr %0 to i64
  %sub.ptr.rhs.cast.i.i.i.i = ptrtoint ptr %4 to i64
  %sub.ptr.sub.i.i.i.i = sub i64 %sub.ptr.lhs.cast.i.i.i.i, %sub.ptr.rhs.cast.i.i.i.i
  %cmp.i.i.i = icmp eq i64 %sub.ptr.sub.i.i.i.i, 9223372036854775800
  br i1 %cmp.i.i.i, label %if.then.i.i.i, label %_ZNKSt6vectorIPK19grpc_channel_filterSaIS2_EE12_M_check_lenEmPKc.exit.i.i

if.then.i.i.i:                                    ; preds = %if.else.i
  tail call void @_ZSt20__throw_length_errorPKc(ptr noundef nonnull @.str.35) #18
  unreachable

_ZNKSt6vectorIPK19grpc_channel_filterSaIS2_EE12_M_check_lenEmPKc.exit.i.i: ; preds = %if.else.i
  %sub.ptr.div.i.i.i.i = ashr exact i64 %sub.ptr.sub.i.i.i.i, 3
  %.sroa.speculated.i.i.i = tail call i64 @llvm.umax.i64(i64 %sub.ptr.div.i.i.i.i, i64 1)
  %add.i.i.i = add i64 %.sroa.speculated.i.i.i, %sub.ptr.div.i.i.i.i
  %cmp7.i.i.i = icmp ult i64 %add.i.i.i, %sub.ptr.div.i.i.i.i
  %5 = tail call i64 @llvm.umin.i64(i64 %add.i.i.i, i64 1152921504606846975)
  %cond.i.i.i = select i1 %cmp7.i.i.i, i64 1152921504606846975, i64 %5
  %cmp.not.i.i.i = icmp eq i64 %cond.i.i.i, 0
  br i1 %cmp.not.i.i.i, label %_ZNSt12_Vector_baseIPK19grpc_channel_filterSaIS2_EE11_M_allocateEm.exit.i.i, label %cond.true.i.i.i

cond.true.i.i.i:                                  ; preds = %_ZNKSt6vectorIPK19grpc_channel_filterSaIS2_EE12_M_check_lenEmPKc.exit.i.i
  %mul.i.i.i.i.i = shl nuw nsw i64 %cond.i.i.i, 3
  %call5.i.i.i.i.i = tail call noalias noundef nonnull ptr @_Znwm(i64 noundef %mul.i.i.i.i.i) #19
  br label %_ZNSt12_Vector_baseIPK19grpc_channel_filterSaIS2_EE11_M_allocateEm.exit.i.i

_ZNSt12_Vector_baseIPK19grpc_channel_filterSaIS2_EE11_M_allocateEm.exit.i.i: ; preds = %cond.true.i.i.i, %_ZNKSt6vectorIPK19grpc_channel_filterSaIS2_EE12_M_check_lenEmPKc.exit.i.i
  %cond.i10.i.i = phi ptr [ %call5.i.i.i.i.i, %cond.true.i.i.i ], [ null, %_ZNKSt6vectorIPK19grpc_channel_filterSaIS2_EE12_M_check_lenEmPKc.exit.i.i ]
  %add.ptr.i.i = getelementptr inbounds ptr, ptr %cond.i10.i.i, i64 %sub.ptr.div.i.i.i.i
  store ptr %1, ptr %add.ptr.i.i, align 8
  %cmp.i.i.i.i.i = icmp sgt i64 %sub.ptr.sub.i.i.i.i, 0
  br i1 %cmp.i.i.i.i.i, label %if.then.i.i.i.i.i, label %_ZNSt6vectorIPK19grpc_channel_filterSaIS2_EE11_S_relocateEPS2_S5_S5_RS3_.exit17.i.i

if.then.i.i.i.i.i:                                ; preds = %_ZNSt12_Vector_baseIPK19grpc_channel_filterSaIS2_EE11_M_allocateEm.exit.i.i
  tail call void @llvm.memmove.p0.p0.i64(ptr nonnull align 8 %cond.i10.i.i, ptr align 8 %4, i64 %sub.ptr.sub.i.i.i.i, i1 false)
  br label %_ZNSt6vectorIPK19grpc_channel_filterSaIS2_EE11_S_relocateEPS2_S5_S5_RS3_.exit17.i.i

_ZNSt6vectorIPK19grpc_channel_filterSaIS2_EE11_S_relocateEPS2_S5_S5_RS3_.exit17.i.i: ; preds = %if.then.i.i.i.i.i, %_ZNSt12_Vector_baseIPK19grpc_channel_filterSaIS2_EE11_M_allocateEm.exit.i.i
  %add.ptr.i.i.i.i.i = getelementptr inbounds i8, ptr %cond.i10.i.i, i64 %sub.ptr.sub.i.i.i.i
  %incdec.ptr.i.i = getelementptr inbounds ptr, ptr %add.ptr.i.i.i.i.i, i64 1
  %tobool.not.i.i.i = icmp eq ptr %4, null
  br i1 %tobool.not.i.i.i, label %_ZNSt6vectorIPK19grpc_channel_filterSaIS2_EE17_M_realloc_insertIJRKS2_EEEvN9__gnu_cxx17__normal_iteratorIPS2_S4_EEDpOT_.exit.i, label %if.then.i18.i.i

if.then.i18.i.i:                                  ; preds = %_ZNSt6vectorIPK19grpc_channel_filterSaIS2_EE11_S_relocateEPS2_S5_S5_RS3_.exit17.i.i
  tail call void @_ZdlPv(ptr noundef nonnull %4) #20
  br label %_ZNSt6vectorIPK19grpc_channel_filterSaIS2_EE17_M_realloc_insertIJRKS2_EEEvN9__gnu_cxx17__normal_iteratorIPS2_S4_EEDpOT_.exit.i

_ZNSt6vectorIPK19grpc_channel_filterSaIS2_EE17_M_realloc_insertIJRKS2_EEEvN9__gnu_cxx17__normal_iteratorIPS2_S4_EEDpOT_.exit.i: ; preds = %if.then.i18.i.i, %_ZNSt6vectorIPK19grpc_channel_filterSaIS2_EE11_S_relocateEPS2_S5_S5_RS3_.exit17.i.i
  store ptr %cond.i10.i.i, ptr %after_, align 8
  store ptr %incdec.ptr.i.i, ptr %_M_finish.i, align 8
  %add.ptr19.i.i = getelementptr inbounds ptr, ptr %cond.i10.i.i, i64 %cond.i.i.i
  store ptr %add.ptr19.i.i, ptr %_M_end_of_storage.i, align 8
  br label %_ZNSt6vectorIPK19grpc_channel_filterSaIS2_EE9push_backERKS2_.exit

_ZNSt6vectorIPK19grpc_channel_filterSaIS2_EE9push_backERKS2_.exit: ; preds = %if.then.i, %_ZNSt6vectorIPK19grpc_channel_filterSaIS2_EE17_M_realloc_insertIJRKS2_EEEvN9__gnu_cxx17__normal_iteratorIPS2_S4_EEDpOT_.exit.i
  %6 = phi ptr [ %incdec.ptr.i, %if.then.i ], [ %incdec.ptr.i.i, %_ZNSt6vectorIPK19grpc_channel_filterSaIS2_EE17_M_realloc_insertIJRKS2_EEEvN9__gnu_cxx17__normal_iteratorIPS2_S4_EEDpOT_.exit.i ]
  %incdec.ptr = getelementptr inbounds ptr, ptr %__begin1.07, i64 1
  %cmp.not = icmp eq ptr %incdec.ptr, %add.ptr.i
  br i1 %cmp.not, label %for.end, label %for.body

for.end:                                          ; preds = %_ZNSt6vectorIPK19grpc_channel_filterSaIS2_EE9push_backERKS2_.exit, %entry
  ret ptr %this
}

; Function Attrs: mustprogress uwtable
define noundef nonnull align 8 dereferenceable(104) ptr @_ZN9grpc_core11ChannelInit18FilterRegistration6BeforeESt16initializer_listIPK19grpc_channel_filterE(ptr noundef nonnull returned align 8 dereferenceable(104) %this, ptr readonly %filters.coerce0, i64 %filters.coerce1) local_unnamed_addr #3 align 2 {
entry:
  %add.ptr.i = getelementptr inbounds ptr, ptr %filters.coerce0, i64 %filters.coerce1
  %cmp.not6 = icmp eq i64 %filters.coerce1, 0
  br i1 %cmp.not6, label %for.end, label %for.body.lr.ph

for.body.lr.ph:                                   ; preds = %entry
  %before_ = getelementptr inbounds %"class.grpc_core::ChannelInit::FilterRegistration", ptr %this, i64 0, i32 2
  %_M_finish.i = getelementptr inbounds %"class.grpc_core::ChannelInit::FilterRegistration", ptr %this, i64 0, i32 2, i32 0, i32 0, i32 0, i32 1
  %_M_end_of_storage.i = getelementptr inbounds %"class.grpc_core::ChannelInit::FilterRegistration", ptr %this, i64 0, i32 2, i32 0, i32 0, i32 0, i32 2
  %.pre = load ptr, ptr %_M_finish.i, align 8
  br label %for.body

for.body:                                         ; preds = %for.body.lr.ph, %_ZNSt6vectorIPK19grpc_channel_filterSaIS2_EE9push_backERKS2_.exit
  %0 = phi ptr [ %.pre, %for.body.lr.ph ], [ %6, %_ZNSt6vectorIPK19grpc_channel_filterSaIS2_EE9push_backERKS2_.exit ]
  %__begin1.07 = phi ptr [ %filters.coerce0, %for.body.lr.ph ], [ %incdec.ptr, %_ZNSt6vectorIPK19grpc_channel_filterSaIS2_EE9push_backERKS2_.exit ]
  %1 = load ptr, ptr %__begin1.07, align 8
  %2 = load ptr, ptr %_M_end_of_storage.i, align 8
  %cmp.not.i = icmp eq ptr %0, %2
  br i1 %cmp.not.i, label %if.else.i, label %if.then.i

if.then.i:                                        ; preds = %for.body
  store ptr %1, ptr %0, align 8
  %3 = load ptr, ptr %_M_finish.i, align 8
  %incdec.ptr.i = getelementptr inbounds ptr, ptr %3, i64 1
  store ptr %incdec.ptr.i, ptr %_M_finish.i, align 8
  br label %_ZNSt6vectorIPK19grpc_channel_filterSaIS2_EE9push_backERKS2_.exit

if.else.i:                                        ; preds = %for.body
  %4 = load ptr, ptr %before_, align 8
  %sub.ptr.lhs.cast.i.i.i.i = ptrtoint ptr %0 to i64
  %sub.ptr.rhs.cast.i.i.i.i = ptrtoint ptr %4 to i64
  %sub.ptr.sub.i.i.i.i = sub i64 %sub.ptr.lhs.cast.i.i.i.i, %sub.ptr.rhs.cast.i.i.i.i
  %cmp.i.i.i = icmp eq i64 %sub.ptr.sub.i.i.i.i, 9223372036854775800
  br i1 %cmp.i.i.i, label %if.then.i.i.i, label %_ZNKSt6vectorIPK19grpc_channel_filterSaIS2_EE12_M_check_lenEmPKc.exit.i.i

if.then.i.i.i:                                    ; preds = %if.else.i
  tail call void @_ZSt20__throw_length_errorPKc(ptr noundef nonnull @.str.35) #18
  unreachable

_ZNKSt6vectorIPK19grpc_channel_filterSaIS2_EE12_M_check_lenEmPKc.exit.i.i: ; preds = %if.else.i
  %sub.ptr.div.i.i.i.i = ashr exact i64 %sub.ptr.sub.i.i.i.i, 3
  %.sroa.speculated.i.i.i = tail call i64 @llvm.umax.i64(i64 %sub.ptr.div.i.i.i.i, i64 1)
  %add.i.i.i = add i64 %.sroa.speculated.i.i.i, %sub.ptr.div.i.i.i.i
  %cmp7.i.i.i = icmp ult i64 %add.i.i.i, %sub.ptr.div.i.i.i.i
  %5 = tail call i64 @llvm.umin.i64(i64 %add.i.i.i, i64 1152921504606846975)
  %cond.i.i.i = select i1 %cmp7.i.i.i, i64 1152921504606846975, i64 %5
  %cmp.not.i.i.i = icmp eq i64 %cond.i.i.i, 0
  br i1 %cmp.not.i.i.i, label %_ZNSt12_Vector_baseIPK19grpc_channel_filterSaIS2_EE11_M_allocateEm.exit.i.i, label %cond.true.i.i.i

cond.true.i.i.i:                                  ; preds = %_ZNKSt6vectorIPK19grpc_channel_filterSaIS2_EE12_M_check_lenEmPKc.exit.i.i
  %mul.i.i.i.i.i = shl nuw nsw i64 %cond.i.i.i, 3
  %call5.i.i.i.i.i = tail call noalias noundef nonnull ptr @_Znwm(i64 noundef %mul.i.i.i.i.i) #19
  br label %_ZNSt12_Vector_baseIPK19grpc_channel_filterSaIS2_EE11_M_allocateEm.exit.i.i

_ZNSt12_Vector_baseIPK19grpc_channel_filterSaIS2_EE11_M_allocateEm.exit.i.i: ; preds = %cond.true.i.i.i, %_ZNKSt6vectorIPK19grpc_channel_filterSaIS2_EE12_M_check_lenEmPKc.exit.i.i
  %cond.i10.i.i = phi ptr [ %call5.i.i.i.i.i, %cond.true.i.i.i ], [ null, %_ZNKSt6vectorIPK19grpc_channel_filterSaIS2_EE12_M_check_lenEmPKc.exit.i.i ]
  %add.ptr.i.i = getelementptr inbounds ptr, ptr %cond.i10.i.i, i64 %sub.ptr.div.i.i.i.i
  store ptr %1, ptr %add.ptr.i.i, align 8
  %cmp.i.i.i.i.i = icmp sgt i64 %sub.ptr.sub.i.i.i.i, 0
  br i1 %cmp.i.i.i.i.i, label %if.then.i.i.i.i.i, label %_ZNSt6vectorIPK19grpc_channel_filterSaIS2_EE11_S_relocateEPS2_S5_S5_RS3_.exit17.i.i

if.then.i.i.i.i.i:                                ; preds = %_ZNSt12_Vector_baseIPK19grpc_channel_filterSaIS2_EE11_M_allocateEm.exit.i.i
  tail call void @llvm.memmove.p0.p0.i64(ptr nonnull align 8 %cond.i10.i.i, ptr align 8 %4, i64 %sub.ptr.sub.i.i.i.i, i1 false)
  br label %_ZNSt6vectorIPK19grpc_channel_filterSaIS2_EE11_S_relocateEPS2_S5_S5_RS3_.exit17.i.i

_ZNSt6vectorIPK19grpc_channel_filterSaIS2_EE11_S_relocateEPS2_S5_S5_RS3_.exit17.i.i: ; preds = %if.then.i.i.i.i.i, %_ZNSt12_Vector_baseIPK19grpc_channel_filterSaIS2_EE11_M_allocateEm.exit.i.i
  %add.ptr.i.i.i.i.i = getelementptr inbounds i8, ptr %cond.i10.i.i, i64 %sub.ptr.sub.i.i.i.i
  %incdec.ptr.i.i = getelementptr inbounds ptr, ptr %add.ptr.i.i.i.i.i, i64 1
  %tobool.not.i.i.i = icmp eq ptr %4, null
  br i1 %tobool.not.i.i.i, label %_ZNSt6vectorIPK19grpc_channel_filterSaIS2_EE17_M_realloc_insertIJRKS2_EEEvN9__gnu_cxx17__normal_iteratorIPS2_S4_EEDpOT_.exit.i, label %if.then.i18.i.i

if.then.i18.i.i:                                  ; preds = %_ZNSt6vectorIPK19grpc_channel_filterSaIS2_EE11_S_relocateEPS2_S5_S5_RS3_.exit17.i.i
  tail call void @_ZdlPv(ptr noundef nonnull %4) #20
  br label %_ZNSt6vectorIPK19grpc_channel_filterSaIS2_EE17_M_realloc_insertIJRKS2_EEEvN9__gnu_cxx17__normal_iteratorIPS2_S4_EEDpOT_.exit.i

_ZNSt6vectorIPK19grpc_channel_filterSaIS2_EE17_M_realloc_insertIJRKS2_EEEvN9__gnu_cxx17__normal_iteratorIPS2_S4_EEDpOT_.exit.i: ; preds = %if.then.i18.i.i, %_ZNSt6vectorIPK19grpc_channel_filterSaIS2_EE11_S_relocateEPS2_S5_S5_RS3_.exit17.i.i
  store ptr %cond.i10.i.i, ptr %before_, align 8
  store ptr %incdec.ptr.i.i, ptr %_M_finish.i, align 8
  %add.ptr19.i.i = getelementptr inbounds ptr, ptr %cond.i10.i.i, i64 %cond.i.i.i
  store ptr %add.ptr19.i.i, ptr %_M_end_of_storage.i, align 8
  br label %_ZNSt6vectorIPK19grpc_channel_filterSaIS2_EE9push_backERKS2_.exit

_ZNSt6vectorIPK19grpc_channel_filterSaIS2_EE9push_backERKS2_.exit: ; preds = %if.then.i, %_ZNSt6vectorIPK19grpc_channel_filterSaIS2_EE17_M_realloc_insertIJRKS2_EEEvN9__gnu_cxx17__normal_iteratorIPS2_S4_EEDpOT_.exit.i
  %6 = phi ptr [ %incdec.ptr.i, %if.then.i ], [ %incdec.ptr.i.i, %_ZNSt6vectorIPK19grpc_channel_filterSaIS2_EE17_M_realloc_insertIJRKS2_EEEvN9__gnu_cxx17__normal_iteratorIPS2_S4_EEDpOT_.exit.i ]
  %incdec.ptr = getelementptr inbounds ptr, ptr %__begin1.07, i64 1
  %cmp.not = icmp eq ptr %incdec.ptr, %add.ptr.i
  br i1 %cmp.not, label %for.end, label %for.body

for.end:                                          ; preds = %_ZNSt6vectorIPK19grpc_channel_filterSaIS2_EE9push_backERKS2_.exit, %entry
  ret ptr %this
}

; Function Attrs: mustprogress uwtable
define noundef nonnull align 8 dereferenceable(104) ptr @_ZN9grpc_core11ChannelInit18FilterRegistration2IfEN4absl12lts_2023080212AnyInvocableIKFbRKNS_11ChannelArgsEEEE(ptr noundef nonnull returned align 8 dereferenceable(104) %this, ptr noundef %predicate) local_unnamed_addr #3 align 2 {
entry:
  %_M_finish.i = getelementptr inbounds %"class.grpc_core::ChannelInit::FilterRegistration", ptr %this, i64 0, i32 3, i32 0, i32 0, i32 0, i32 1
  %0 = load ptr, ptr %_M_finish.i, align 8
  %_M_end_of_storage.i = getelementptr inbounds %"class.grpc_core::ChannelInit::FilterRegistration", ptr %this, i64 0, i32 3, i32 0, i32 0, i32 0, i32 2
  %1 = load ptr, ptr %_M_end_of_storage.i, align 8
  %cmp.not.i = icmp eq ptr %0, %1
  br i1 %cmp.not.i, label %if.else.i, label %if.then.i

if.then.i:                                        ; preds = %entry
  %manager_.i.i.i.i.i.i = getelementptr inbounds %"class.absl::lts_20230802::internal_any_invocable::CoreImpl", ptr %predicate, i64 0, i32 1
  %2 = load ptr, ptr %manager_.i.i.i.i.i.i, align 16
  tail call void %2(i1 noundef zeroext false, ptr noundef nonnull %predicate, ptr noundef nonnull %0) #21
  %3 = load ptr, ptr %manager_.i.i.i.i.i.i, align 16
  %manager_5.i.i.i.i.i.i = getelementptr inbounds %"class.absl::lts_20230802::internal_any_invocable::CoreImpl", ptr %0, i64 0, i32 1
  store ptr %3, ptr %manager_5.i.i.i.i.i.i, align 16
  %invoker_.i.i.i.i.i.i = getelementptr inbounds %"class.absl::lts_20230802::internal_any_invocable::CoreImpl", ptr %predicate, i64 0, i32 2
  %4 = load ptr, ptr %invoker_.i.i.i.i.i.i, align 8
  %invoker_6.i.i.i.i.i.i = getelementptr inbounds %"class.absl::lts_20230802::internal_any_invocable::CoreImpl", ptr %0, i64 0, i32 2
  store ptr %4, ptr %invoker_6.i.i.i.i.i.i, align 8
  store ptr @_ZN4absl12lts_2023080222internal_any_invocable12EmptyManagerENS1_14FunctionToCallEPNS1_15TypeErasedStateES4_, ptr %manager_.i.i.i.i.i.i, align 16
  store ptr null, ptr %invoker_.i.i.i.i.i.i, align 8
  %5 = load ptr, ptr %_M_finish.i, align 8
  %incdec.ptr.i = getelementptr inbounds %"class.absl::lts_20230802::AnyInvocable", ptr %5, i64 1
  store ptr %incdec.ptr.i, ptr %_M_finish.i, align 8
  br label %_ZNSt6vectorIN4absl12lts_2023080212AnyInvocableIKFbRKN9grpc_core11ChannelArgsEEEESaIS8_EE12emplace_backIJS8_EEERS8_DpOT_.exit

if.else.i:                                        ; preds = %entry
  %predicates_ = getelementptr inbounds %"class.grpc_core::ChannelInit::FilterRegistration", ptr %this, i64 0, i32 3
  tail call void @_ZNSt6vectorIN4absl12lts_2023080212AnyInvocableIKFbRKN9grpc_core11ChannelArgsEEEESaIS8_EE17_M_realloc_insertIJS8_EEEvN9__gnu_cxx17__normal_iteratorIPS8_SA_EEDpOT_(ptr noundef nonnull align 8 dereferenceable(24) %predicates_, ptr %0, ptr noundef nonnull align 16 dereferenceable(32) %predicate)
  br label %_ZNSt6vectorIN4absl12lts_2023080212AnyInvocableIKFbRKN9grpc_core11ChannelArgsEEEESaIS8_EE12emplace_backIJS8_EEERS8_DpOT_.exit

_ZNSt6vectorIN4absl12lts_2023080212AnyInvocableIKFbRKN9grpc_core11ChannelArgsEEEESaIS8_EE12emplace_backIJS8_EEERS8_DpOT_.exit: ; preds = %if.then.i, %if.else.i
  ret ptr %this
}

; Function Attrs: mustprogress uwtable
define noundef nonnull align 8 dereferenceable(104) ptr @_ZN9grpc_core11ChannelInit18FilterRegistration5IfNotEN4absl12lts_2023080212AnyInvocableIKFbRKNS_11ChannelArgsEEEE(ptr noundef nonnull returned align 8 dereferenceable(104) %this, ptr noundef %predicate) local_unnamed_addr #3 align 2 personality ptr @__gxx_personality_v0 {
entry:
  %ref.tmp = alloca %class.anon, align 16
  %predicates_ = getelementptr inbounds %"class.grpc_core::ChannelInit::FilterRegistration", ptr %this, i64 0, i32 3
  %manager_.i.i.i = getelementptr inbounds %"class.absl::lts_20230802::internal_any_invocable::CoreImpl", ptr %predicate, i64 0, i32 1
  %0 = load ptr, ptr %manager_.i.i.i, align 16
  call void %0(i1 noundef zeroext false, ptr noundef nonnull %predicate, ptr noundef nonnull %ref.tmp) #21
  %1 = load ptr, ptr %manager_.i.i.i, align 16
  %manager_5.i.i.i = getelementptr inbounds %"class.absl::lts_20230802::internal_any_invocable::CoreImpl", ptr %ref.tmp, i64 0, i32 1
  store ptr %1, ptr %manager_5.i.i.i, align 16
  %invoker_.i.i.i = getelementptr inbounds %"class.absl::lts_20230802::internal_any_invocable::CoreImpl", ptr %predicate, i64 0, i32 2
  %2 = load ptr, ptr %invoker_.i.i.i, align 8
  %invoker_6.i.i.i = getelementptr inbounds %"class.absl::lts_20230802::internal_any_invocable::CoreImpl", ptr %ref.tmp, i64 0, i32 2
  store ptr %2, ptr %invoker_6.i.i.i, align 8
  store ptr @_ZN4absl12lts_2023080222internal_any_invocable12EmptyManagerENS1_14FunctionToCallEPNS1_15TypeErasedStateES4_, ptr %manager_.i.i.i, align 16
  store ptr null, ptr %invoker_.i.i.i, align 8
  %_M_finish.i = getelementptr inbounds %"class.grpc_core::ChannelInit::FilterRegistration", ptr %this, i64 0, i32 3, i32 0, i32 0, i32 0, i32 1
  %3 = load ptr, ptr %_M_finish.i, align 8
  %_M_end_of_storage.i = getelementptr inbounds %"class.grpc_core::ChannelInit::FilterRegistration", ptr %this, i64 0, i32 3, i32 0, i32 0, i32 0, i32 2
  %4 = load ptr, ptr %_M_end_of_storage.i, align 8
  %cmp.not.i = icmp eq ptr %3, %4
  br i1 %cmp.not.i, label %if.else.i, label %if.then.i

if.then.i:                                        ; preds = %entry
  %call.i.i.i.i.i.i.i.i.i1 = invoke noalias noundef nonnull dereferenceable(32) ptr @_Znwm(i64 noundef 32) #19
          to label %call.i.i.i.i.i.i.i.i.i.noexc unwind label %lpad

call.i.i.i.i.i.i.i.i.i.noexc:                     ; preds = %if.then.i
  call void %1(i1 noundef zeroext false, ptr noundef nonnull %ref.tmp, ptr noundef nonnull %call.i.i.i.i.i.i.i.i.i1) #21
  %manager_5.i.i.i.i.i.i.i.i.i.i.i.i.i = getelementptr inbounds %"class.absl::lts_20230802::internal_any_invocable::CoreImpl", ptr %call.i.i.i.i.i.i.i.i.i1, i64 0, i32 1
  %5 = load <2 x ptr>, ptr %manager_5.i.i.i, align 16
  store <2 x ptr> %5, ptr %manager_5.i.i.i.i.i.i.i.i.i.i.i.i.i, align 16
  store ptr @_ZN4absl12lts_2023080222internal_any_invocable12EmptyManagerENS1_14FunctionToCallEPNS1_15TypeErasedStateES4_, ptr %manager_5.i.i.i, align 16
  store ptr null, ptr %invoker_6.i.i.i, align 8
  store ptr %call.i.i.i.i.i.i.i.i.i1, ptr %3, align 16
  %manager_.i.i.i.i.i.i.i.i.i = getelementptr inbounds %"class.absl::lts_20230802::internal_any_invocable::CoreImpl", ptr %3, i64 0, i32 1
  store ptr @"_ZN4absl12lts_2023080222internal_any_invocable23RemoteManagerNontrivialIZN9grpc_core11ChannelInit18FilterRegistration5IfNotENS0_12AnyInvocableIKFbRKNS3_11ChannelArgsEEEEE3$_0EEvNS1_14FunctionToCallEPNS1_15TypeErasedStateESF_", ptr %manager_.i.i.i.i.i.i.i.i.i, align 16
  %invoker_.i.i.i.i.i.i.i.i = getelementptr inbounds %"class.absl::lts_20230802::internal_any_invocable::CoreImpl", ptr %3, i64 0, i32 2
  store ptr @"_ZN4absl12lts_2023080222internal_any_invocable13RemoteInvokerILb0EbRKZN9grpc_core11ChannelInit18FilterRegistration5IfNotENS0_12AnyInvocableIKFbRKNS3_11ChannelArgsEEEEE3$_0JS9_EEET0_PNS1_15TypeErasedStateEDpNS1_18ForwardedParameterIT2_E4typeE", ptr %invoker_.i.i.i.i.i.i.i.i, align 8
  %6 = load ptr, ptr %_M_finish.i, align 8
  %incdec.ptr.i = getelementptr inbounds %"class.absl::lts_20230802::AnyInvocable", ptr %6, i64 1
  store ptr %incdec.ptr.i, ptr %_M_finish.i, align 8
  br label %invoke.cont

if.else.i:                                        ; preds = %entry
  %7 = load ptr, ptr %predicates_, align 8
  %sub.ptr.lhs.cast.i.i.i.i = ptrtoint ptr %3 to i64
  %sub.ptr.rhs.cast.i.i.i.i = ptrtoint ptr %7 to i64
  %sub.ptr.sub.i.i.i.i = sub i64 %sub.ptr.lhs.cast.i.i.i.i, %sub.ptr.rhs.cast.i.i.i.i
  %cmp.i.i.i = icmp eq i64 %sub.ptr.sub.i.i.i.i, 9223372036854775776
  br i1 %cmp.i.i.i, label %if.then.i.i.i, label %_ZNKSt6vectorIN4absl12lts_2023080212AnyInvocableIKFbRKN9grpc_core11ChannelArgsEEEESaIS8_EE12_M_check_lenEmPKc.exit.i.i

if.then.i.i.i:                                    ; preds = %if.else.i
  invoke void @_ZSt20__throw_length_errorPKc(ptr noundef nonnull @.str.35) #18
          to label %.noexc unwind label %lpad

.noexc:                                           ; preds = %if.then.i.i.i
  unreachable

_ZNKSt6vectorIN4absl12lts_2023080212AnyInvocableIKFbRKN9grpc_core11ChannelArgsEEEESaIS8_EE12_M_check_lenEmPKc.exit.i.i: ; preds = %if.else.i
  %sub.ptr.div.i.i.i.i = ashr exact i64 %sub.ptr.sub.i.i.i.i, 5
  %.sroa.speculated.i.i.i = call i64 @llvm.umax.i64(i64 %sub.ptr.div.i.i.i.i, i64 1)
  %add.i.i.i = add i64 %.sroa.speculated.i.i.i, %sub.ptr.div.i.i.i.i
  %cmp7.i.i.i = icmp ult i64 %add.i.i.i, %sub.ptr.div.i.i.i.i
  %8 = call i64 @llvm.umin.i64(i64 %add.i.i.i, i64 288230376151711743)
  %cond.i.i.i = select i1 %cmp7.i.i.i, i64 288230376151711743, i64 %8
  %cmp.not.i.i.i = icmp eq i64 %cond.i.i.i, 0
  br i1 %cmp.not.i.i.i, label %_ZNSt12_Vector_baseIN4absl12lts_2023080212AnyInvocableIKFbRKN9grpc_core11ChannelArgsEEEESaIS8_EE11_M_allocateEm.exit.i.i, label %cond.true.i.i.i

cond.true.i.i.i:                                  ; preds = %_ZNKSt6vectorIN4absl12lts_2023080212AnyInvocableIKFbRKN9grpc_core11ChannelArgsEEEESaIS8_EE12_M_check_lenEmPKc.exit.i.i
  %mul.i.i.i.i.i = shl nuw nsw i64 %cond.i.i.i, 5
  %call5.i.i.i.i.i2 = invoke noalias noundef nonnull ptr @_Znwm(i64 noundef %mul.i.i.i.i.i) #19
          to label %_ZNSt12_Vector_baseIN4absl12lts_2023080212AnyInvocableIKFbRKN9grpc_core11ChannelArgsEEEESaIS8_EE11_M_allocateEm.exit.i.i unwind label %lpad

_ZNSt12_Vector_baseIN4absl12lts_2023080212AnyInvocableIKFbRKN9grpc_core11ChannelArgsEEEESaIS8_EE11_M_allocateEm.exit.i.i: ; preds = %cond.true.i.i.i, %_ZNKSt6vectorIN4absl12lts_2023080212AnyInvocableIKFbRKN9grpc_core11ChannelArgsEEEESaIS8_EE12_M_check_lenEmPKc.exit.i.i
  %cond.i17.i.i = phi ptr [ null, %_ZNKSt6vectorIN4absl12lts_2023080212AnyInvocableIKFbRKN9grpc_core11ChannelArgsEEEESaIS8_EE12_M_check_lenEmPKc.exit.i.i ], [ %call5.i.i.i.i.i2, %cond.true.i.i.i ]
  %add.ptr.i.i = getelementptr inbounds %"class.absl::lts_20230802::AnyInvocable", ptr %cond.i17.i.i, i64 %sub.ptr.div.i.i.i.i
  %call.i.i.i.i.i.i.i.i18.i.i = invoke noalias noundef nonnull dereferenceable(32) ptr @_Znwm(i64 noundef 32) #19
          to label %invoke.cont.i.i unwind label %lpad.i.i

invoke.cont.i.i:                                  ; preds = %_ZNSt12_Vector_baseIN4absl12lts_2023080212AnyInvocableIKFbRKN9grpc_core11ChannelArgsEEEESaIS8_EE11_M_allocateEm.exit.i.i
  call void %1(i1 noundef zeroext false, ptr noundef nonnull %ref.tmp, ptr noundef nonnull %call.i.i.i.i.i.i.i.i18.i.i) #21
  %manager_5.i.i.i.i.i.i.i.i.i.i.i.i.i.i = getelementptr inbounds %"class.absl::lts_20230802::internal_any_invocable::CoreImpl", ptr %call.i.i.i.i.i.i.i.i18.i.i, i64 0, i32 1
  %9 = load <2 x ptr>, ptr %manager_5.i.i.i, align 16
  store <2 x ptr> %9, ptr %manager_5.i.i.i.i.i.i.i.i.i.i.i.i.i.i, align 16
  store ptr @_ZN4absl12lts_2023080222internal_any_invocable12EmptyManagerENS1_14FunctionToCallEPNS1_15TypeErasedStateES4_, ptr %manager_5.i.i.i, align 16
  store ptr null, ptr %invoker_6.i.i.i, align 8
  store ptr %call.i.i.i.i.i.i.i.i18.i.i, ptr %add.ptr.i.i, align 16
  %manager_.i.i.i.i.i.i.i.i.i.i = getelementptr inbounds %"class.absl::lts_20230802::internal_any_invocable::CoreImpl", ptr %add.ptr.i.i, i64 0, i32 1
  store ptr @"_ZN4absl12lts_2023080222internal_any_invocable23RemoteManagerNontrivialIZN9grpc_core11ChannelInit18FilterRegistration5IfNotENS0_12AnyInvocableIKFbRKNS3_11ChannelArgsEEEEE3$_0EEvNS1_14FunctionToCallEPNS1_15TypeErasedStateESF_", ptr %manager_.i.i.i.i.i.i.i.i.i.i, align 16
  %invoker_.i.i.i.i.i.i.i.i.i = getelementptr inbounds %"class.absl::lts_20230802::internal_any_invocable::CoreImpl", ptr %add.ptr.i.i, i64 0, i32 2
  store ptr @"_ZN4absl12lts_2023080222internal_any_invocable13RemoteInvokerILb0EbRKZN9grpc_core11ChannelInit18FilterRegistration5IfNotENS0_12AnyInvocableIKFbRKNS3_11ChannelArgsEEEEE3$_0JS9_EEET0_PNS1_15TypeErasedStateEDpNS1_18ForwardedParameterIT2_E4typeE", ptr %invoker_.i.i.i.i.i.i.i.i.i, align 8
  %cmp.not5.i.i.i.i.i = icmp eq ptr %7, %3
  br i1 %cmp.not5.i.i.i.i.i, label %_ZNSt6vectorIN4absl12lts_2023080212AnyInvocableIKFbRKN9grpc_core11ChannelArgsEEEESaIS8_EE11_S_relocateEPS8_SB_SB_RS9_.exit31.i.i, label %for.body.i.i.i.i.i

for.body.i.i.i.i.i:                               ; preds = %invoke.cont.i.i, %for.body.i.i.i.i.i
  %__cur.07.i.i.i.i.i = phi ptr [ %incdec.ptr1.i.i.i.i.i, %for.body.i.i.i.i.i ], [ %cond.i17.i.i, %invoke.cont.i.i ]
  %__first.addr.06.i.i.i.i.i = phi ptr [ %incdec.ptr.i.i.i.i.i, %for.body.i.i.i.i.i ], [ %7, %invoke.cont.i.i ]
  call void @llvm.experimental.noalias.scope.decl(metadata !4)
  call void @llvm.experimental.noalias.scope.decl(metadata !7)
  %manager_.i.i.i.i.i.i.i.i.i.i.i = getelementptr inbounds %"class.absl::lts_20230802::internal_any_invocable::CoreImpl", ptr %__first.addr.06.i.i.i.i.i, i64 0, i32 1
  %10 = load ptr, ptr %manager_.i.i.i.i.i.i.i.i.i.i.i, align 16, !alias.scope !7, !noalias !4
  call void %10(i1 noundef zeroext false, ptr noundef nonnull %__first.addr.06.i.i.i.i.i, ptr noundef nonnull %__cur.07.i.i.i.i.i) #21
  %manager_5.i.i.i.i.i.i.i.i.i.i.i = getelementptr inbounds %"class.absl::lts_20230802::internal_any_invocable::CoreImpl", ptr %__cur.07.i.i.i.i.i, i64 0, i32 1
  %invoker_.i.i.i.i.i.i.i.i.i.i.i = getelementptr inbounds %"class.absl::lts_20230802::internal_any_invocable::CoreImpl", ptr %__first.addr.06.i.i.i.i.i, i64 0, i32 2
  %11 = load <2 x ptr>, ptr %manager_.i.i.i.i.i.i.i.i.i.i.i, align 16, !alias.scope !7, !noalias !4
  store <2 x ptr> %11, ptr %manager_5.i.i.i.i.i.i.i.i.i.i.i, align 16, !alias.scope !4, !noalias !7
  store ptr @_ZN4absl12lts_2023080222internal_any_invocable12EmptyManagerENS1_14FunctionToCallEPNS1_15TypeErasedStateES4_, ptr %manager_.i.i.i.i.i.i.i.i.i.i.i, align 16, !alias.scope !7, !noalias !4
  store ptr null, ptr %invoker_.i.i.i.i.i.i.i.i.i.i.i, align 8, !alias.scope !7, !noalias !4
  %incdec.ptr.i.i.i.i.i = getelementptr inbounds %"class.absl::lts_20230802::AnyInvocable", ptr %__first.addr.06.i.i.i.i.i, i64 1
  %incdec.ptr1.i.i.i.i.i = getelementptr inbounds %"class.absl::lts_20230802::AnyInvocable", ptr %__cur.07.i.i.i.i.i, i64 1
  %cmp.not.i.i.i.i.i = icmp eq ptr %incdec.ptr.i.i.i.i.i, %3
  br i1 %cmp.not.i.i.i.i.i, label %_ZNSt6vectorIN4absl12lts_2023080212AnyInvocableIKFbRKN9grpc_core11ChannelArgsEEEESaIS8_EE11_S_relocateEPS8_SB_SB_RS9_.exit31.i.i, label %for.body.i.i.i.i.i, !llvm.loop !9

_ZNSt6vectorIN4absl12lts_2023080212AnyInvocableIKFbRKN9grpc_core11ChannelArgsEEEESaIS8_EE11_S_relocateEPS8_SB_SB_RS9_.exit31.i.i: ; preds = %for.body.i.i.i.i.i, %invoke.cont.i.i
  %__cur.0.lcssa.i.i.i.i.i = phi ptr [ %cond.i17.i.i, %invoke.cont.i.i ], [ %incdec.ptr1.i.i.i.i.i, %for.body.i.i.i.i.i ]
  %incdec.ptr.i.i = getelementptr inbounds %"class.absl::lts_20230802::AnyInvocable", ptr %__cur.0.lcssa.i.i.i.i.i, i64 1
  %tobool.not.i.i.i = icmp eq ptr %7, null
  br i1 %tobool.not.i.i.i, label %"_ZNSt6vectorIN4absl12lts_2023080212AnyInvocableIKFbRKN9grpc_core11ChannelArgsEEEESaIS8_EE17_M_realloc_insertIJZNS3_11ChannelInit18FilterRegistration5IfNotES8_E3$_0EEEvN9__gnu_cxx17__normal_iteratorIPS8_SA_EEDpOT_.exit.i", label %if.then.i32.i.i

if.then.i32.i.i:                                  ; preds = %_ZNSt6vectorIN4absl12lts_2023080212AnyInvocableIKFbRKN9grpc_core11ChannelArgsEEEESaIS8_EE11_S_relocateEPS8_SB_SB_RS9_.exit31.i.i
  call void @_ZdlPv(ptr noundef nonnull %7) #20
  br label %"_ZNSt6vectorIN4absl12lts_2023080212AnyInvocableIKFbRKN9grpc_core11ChannelArgsEEEESaIS8_EE17_M_realloc_insertIJZNS3_11ChannelInit18FilterRegistration5IfNotES8_E3$_0EEEvN9__gnu_cxx17__normal_iteratorIPS8_SA_EEDpOT_.exit.i"

lpad.i.i:                                         ; preds = %_ZNSt12_Vector_baseIN4absl12lts_2023080212AnyInvocableIKFbRKN9grpc_core11ChannelArgsEEEESaIS8_EE11_M_allocateEm.exit.i.i
  %12 = landingpad { ptr, i32 }
          catch ptr null
  %13 = extractvalue { ptr, i32 } %12, 0
  %14 = call ptr @__cxa_begin_catch(ptr %13) #21
  %tobool.not.i.i = icmp eq ptr %cond.i17.i.i, null
  br i1 %tobool.not.i.i, label %if.end.thread.i.i, label %if.then.i34.i.i

if.end.thread.i.i:                                ; preds = %lpad.i.i
  %manager_.i.i.i.i.i.i.i = getelementptr inbounds %"class.absl::lts_20230802::internal_any_invocable::CoreImpl", ptr %add.ptr.i.i, i64 0, i32 1
  %15 = load ptr, ptr %manager_.i.i.i.i.i.i.i, align 16
  call void %15(i1 noundef zeroext true, ptr noundef nonnull %add.ptr.i.i, ptr noundef nonnull %add.ptr.i.i) #21
  br label %invoke.cont19.i.i

lpad17.i.i:                                       ; preds = %invoke.cont19.i.i
  %16 = landingpad { ptr, i32 }
          cleanup
  invoke void @__cxa_end_catch()
          to label %lpad.body unwind label %terminate.lpad.i.i

if.then.i34.i.i:                                  ; preds = %lpad.i.i
  call void @_ZdlPv(ptr noundef nonnull %cond.i17.i.i) #20
  br label %invoke.cont19.i.i

invoke.cont19.i.i:                                ; preds = %if.then.i34.i.i, %if.end.thread.i.i
  invoke void @__cxa_rethrow() #18
          to label %unreachable.i.i unwind label %lpad17.i.i

terminate.lpad.i.i:                               ; preds = %lpad17.i.i
  %17 = landingpad { ptr, i32 }
          catch ptr null
  %18 = extractvalue { ptr, i32 } %17, 0
  call void @__clang_call_terminate(ptr %18) #22
  unreachable

unreachable.i.i:                                  ; preds = %invoke.cont19.i.i
  unreachable

"_ZNSt6vectorIN4absl12lts_2023080212AnyInvocableIKFbRKN9grpc_core11ChannelArgsEEEESaIS8_EE17_M_realloc_insertIJZNS3_11ChannelInit18FilterRegistration5IfNotES8_E3$_0EEEvN9__gnu_cxx17__normal_iteratorIPS8_SA_EEDpOT_.exit.i": ; preds = %if.then.i32.i.i, %_ZNSt6vectorIN4absl12lts_2023080212AnyInvocableIKFbRKN9grpc_core11ChannelArgsEEEESaIS8_EE11_S_relocateEPS8_SB_SB_RS9_.exit31.i.i
  store ptr %cond.i17.i.i, ptr %predicates_, align 8
  store ptr %incdec.ptr.i.i, ptr %_M_finish.i, align 8
  %add.ptr26.i.i = getelementptr inbounds %"class.absl::lts_20230802::AnyInvocable", ptr %cond.i17.i.i, i64 %cond.i.i.i
  store ptr %add.ptr26.i.i, ptr %_M_end_of_storage.i, align 8
  br label %invoke.cont

invoke.cont:                                      ; preds = %"_ZNSt6vectorIN4absl12lts_2023080212AnyInvocableIKFbRKN9grpc_core11ChannelArgsEEEESaIS8_EE17_M_realloc_insertIJZNS3_11ChannelInit18FilterRegistration5IfNotES8_E3$_0EEEvN9__gnu_cxx17__normal_iteratorIPS8_SA_EEDpOT_.exit.i", %call.i.i.i.i.i.i.i.i.i.noexc
  %19 = load ptr, ptr %manager_5.i.i.i, align 16
  call void %19(i1 noundef zeroext true, ptr noundef nonnull %ref.tmp, ptr noundef nonnull %ref.tmp) #21
  ret ptr %this

lpad:                                             ; preds = %cond.true.i.i.i, %if.then.i.i.i, %if.then.i
  %20 = landingpad { ptr, i32 }
          cleanup
  br label %lpad.body

lpad.body:                                        ; preds = %lpad17.i.i, %lpad
  %eh.lpad-body = phi { ptr, i32 } [ %20, %lpad ], [ %16, %lpad17.i.i ]
  %21 = load ptr, ptr %manager_5.i.i.i, align 16
  call void %21(i1 noundef zeroext true, ptr noundef nonnull %ref.tmp, ptr noundef nonnull %ref.tmp) #21
  resume { ptr, i32 } %eh.lpad-body
}

declare i32 @__gxx_personality_v0(...)

; Function Attrs: mustprogress uwtable
define noundef nonnull align 8 dereferenceable(104) ptr @_ZN9grpc_core11ChannelInit18FilterRegistration15IfHasChannelArgEPKc(ptr noundef nonnull returned align 8 dereferenceable(104) %this, ptr noundef %arg) local_unnamed_addr #3 align 2 personality ptr @__gxx_personality_v0 {
entry:
  %agg.tmp = alloca %"class.absl::lts_20230802::AnyInvocable", align 16
  %0 = ptrtoint ptr %arg to i64
  store i64 %0, ptr %agg.tmp, align 16
  %invoker_.i.i.i.i.i = getelementptr inbounds %"class.absl::lts_20230802::internal_any_invocable::CoreImpl", ptr %agg.tmp, i64 0, i32 2
  store ptr @"_ZN4absl12lts_2023080222internal_any_invocable12LocalInvokerILb0EbRKZN9grpc_core11ChannelInit18FilterRegistration15IfHasChannelArgEPKcE3$_0JRKNS3_11ChannelArgsEEEET0_PNS1_15TypeErasedStateEDpNS1_18ForwardedParameterIT2_E4typeE", ptr %invoker_.i.i.i.i.i, align 8
  %manager_.i.i.i.i.i.i = getelementptr inbounds %"class.absl::lts_20230802::internal_any_invocable::CoreImpl", ptr %agg.tmp, i64 0, i32 1
  store ptr @_ZN4absl12lts_2023080222internal_any_invocable19LocalManagerTrivialENS1_14FunctionToCallEPNS1_15TypeErasedStateES4_, ptr %manager_.i.i.i.i.i.i, align 16
  %_M_finish.i.i = getelementptr inbounds %"class.grpc_core::ChannelInit::FilterRegistration", ptr %this, i64 0, i32 3, i32 0, i32 0, i32 0, i32 1
  %1 = load ptr, ptr %_M_finish.i.i, align 8
  %_M_end_of_storage.i.i = getelementptr inbounds %"class.grpc_core::ChannelInit::FilterRegistration", ptr %this, i64 0, i32 3, i32 0, i32 0, i32 0, i32 2
  %2 = load ptr, ptr %_M_end_of_storage.i.i, align 8
  %cmp.not.i.i = icmp eq ptr %1, %2
  br i1 %cmp.not.i.i, label %if.else.i.i, label %if.then.i.i

if.then.i.i:                                      ; preds = %entry
  call void @llvm.memcpy.p0.p0.i64(ptr noundef nonnull align 16 dereferenceable(16) %1, ptr noundef nonnull align 16 dereferenceable(16) %agg.tmp, i64 16, i1 false)
  %manager_5.i.i.i.i.i.i.i = getelementptr inbounds %"class.absl::lts_20230802::internal_any_invocable::CoreImpl", ptr %1, i64 0, i32 1
  store ptr @_ZN4absl12lts_2023080222internal_any_invocable19LocalManagerTrivialENS1_14FunctionToCallEPNS1_15TypeErasedStateES4_, ptr %manager_5.i.i.i.i.i.i.i, align 16
  %invoker_6.i.i.i.i.i.i.i = getelementptr inbounds %"class.absl::lts_20230802::internal_any_invocable::CoreImpl", ptr %1, i64 0, i32 2
  store ptr @"_ZN4absl12lts_2023080222internal_any_invocable12LocalInvokerILb0EbRKZN9grpc_core11ChannelInit18FilterRegistration15IfHasChannelArgEPKcE3$_0JRKNS3_11ChannelArgsEEEET0_PNS1_15TypeErasedStateEDpNS1_18ForwardedParameterIT2_E4typeE", ptr %invoker_6.i.i.i.i.i.i.i, align 8
  store ptr @_ZN4absl12lts_2023080222internal_any_invocable12EmptyManagerENS1_14FunctionToCallEPNS1_15TypeErasedStateES4_, ptr %manager_.i.i.i.i.i.i, align 16
  store ptr null, ptr %invoker_.i.i.i.i.i, align 8
  %3 = load ptr, ptr %_M_finish.i.i, align 8
  %incdec.ptr.i.i = getelementptr inbounds %"class.absl::lts_20230802::AnyInvocable", ptr %3, i64 1
  store ptr %incdec.ptr.i.i, ptr %_M_finish.i.i, align 8
  br label %invoke.cont

if.else.i.i:                                      ; preds = %entry
  %predicates_.i = getelementptr inbounds %"class.grpc_core::ChannelInit::FilterRegistration", ptr %this, i64 0, i32 3
  invoke void @_ZNSt6vectorIN4absl12lts_2023080212AnyInvocableIKFbRKN9grpc_core11ChannelArgsEEEESaIS8_EE17_M_realloc_insertIJS8_EEEvN9__gnu_cxx17__normal_iteratorIPS8_SA_EEDpOT_(ptr noundef nonnull align 8 dereferenceable(24) %predicates_.i, ptr %1, ptr noundef nonnull align 16 dereferenceable(32) %agg.tmp)
          to label %if.else.i.i.invoke.cont_crit_edge unwind label %lpad

if.else.i.i.invoke.cont_crit_edge:                ; preds = %if.else.i.i
  %.pre = load ptr, ptr %manager_.i.i.i.i.i.i, align 16
  br label %invoke.cont

invoke.cont:                                      ; preds = %if.else.i.i.invoke.cont_crit_edge, %if.then.i.i
  %4 = phi ptr [ %.pre, %if.else.i.i.invoke.cont_crit_edge ], [ @_ZN4absl12lts_2023080222internal_any_invocable12EmptyManagerENS1_14FunctionToCallEPNS1_15TypeErasedStateES4_, %if.then.i.i ]
  call void %4(i1 noundef zeroext true, ptr noundef nonnull %agg.tmp, ptr noundef nonnull %agg.tmp) #21
  ret ptr %this

lpad:                                             ; preds = %if.else.i.i
  %5 = landingpad { ptr, i32 }
          cleanup
  %6 = load ptr, ptr %manager_.i.i.i.i.i.i, align 16
  call void %6(i1 noundef zeroext true, ptr noundef nonnull %agg.tmp, ptr noundef nonnull %agg.tmp) #21
  resume { ptr, i32 } %5
}

; Function Attrs: mustprogress uwtable
define noundef nonnull align 8 dereferenceable(104) ptr @_ZN9grpc_core11ChannelInit18FilterRegistration12IfChannelArgEPKcb(ptr noundef nonnull returned align 8 dereferenceable(104) %this, ptr noundef %arg, i1 noundef zeroext %default_value) local_unnamed_addr #3 align 2 personality ptr @__gxx_personality_v0 {
entry:
  %agg.tmp = alloca %"class.absl::lts_20230802::AnyInvocable", align 16
  %frombool = zext i1 %default_value to i8
  store ptr %arg, ptr %agg.tmp, align 16
  %ref.tmp.sroa.2.0.agg.tmp.sroa_idx = getelementptr inbounds i8, ptr %agg.tmp, i64 8
  store i8 %frombool, ptr %ref.tmp.sroa.2.0.agg.tmp.sroa_idx, align 8
  %invoker_.i.i.i.i.i = getelementptr inbounds %"class.absl::lts_20230802::internal_any_invocable::CoreImpl", ptr %agg.tmp, i64 0, i32 2
  store ptr @"_ZN4absl12lts_2023080222internal_any_invocable12LocalInvokerILb0EbRKZN9grpc_core11ChannelInit18FilterRegistration12IfChannelArgEPKcbE3$_0JRKNS3_11ChannelArgsEEEET0_PNS1_15TypeErasedStateEDpNS1_18ForwardedParameterIT2_E4typeE", ptr %invoker_.i.i.i.i.i, align 8
  %manager_.i.i.i.i.i.i = getelementptr inbounds %"class.absl::lts_20230802::internal_any_invocable::CoreImpl", ptr %agg.tmp, i64 0, i32 1
  store ptr @_ZN4absl12lts_2023080222internal_any_invocable19LocalManagerTrivialENS1_14FunctionToCallEPNS1_15TypeErasedStateES4_, ptr %manager_.i.i.i.i.i.i, align 16
  %_M_finish.i.i = getelementptr inbounds %"class.grpc_core::ChannelInit::FilterRegistration", ptr %this, i64 0, i32 3, i32 0, i32 0, i32 0, i32 1
  %0 = load ptr, ptr %_M_finish.i.i, align 8
  %_M_end_of_storage.i.i = getelementptr inbounds %"class.grpc_core::ChannelInit::FilterRegistration", ptr %this, i64 0, i32 3, i32 0, i32 0, i32 0, i32 2
  %1 = load ptr, ptr %_M_end_of_storage.i.i, align 8
  %cmp.not.i.i = icmp eq ptr %0, %1
  br i1 %cmp.not.i.i, label %if.else.i.i, label %if.then.i.i

if.then.i.i:                                      ; preds = %entry
  call void @llvm.memcpy.p0.p0.i64(ptr noundef nonnull align 16 dereferenceable(16) %0, ptr noundef nonnull align 16 dereferenceable(16) %agg.tmp, i64 16, i1 false)
  %manager_5.i.i.i.i.i.i.i = getelementptr inbounds %"class.absl::lts_20230802::internal_any_invocable::CoreImpl", ptr %0, i64 0, i32 1
  store ptr @_ZN4absl12lts_2023080222internal_any_invocable19LocalManagerTrivialENS1_14FunctionToCallEPNS1_15TypeErasedStateES4_, ptr %manager_5.i.i.i.i.i.i.i, align 16
  %invoker_6.i.i.i.i.i.i.i = getelementptr inbounds %"class.absl::lts_20230802::internal_any_invocable::CoreImpl", ptr %0, i64 0, i32 2
  store ptr @"_ZN4absl12lts_2023080222internal_any_invocable12LocalInvokerILb0EbRKZN9grpc_core11ChannelInit18FilterRegistration12IfChannelArgEPKcbE3$_0JRKNS3_11ChannelArgsEEEET0_PNS1_15TypeErasedStateEDpNS1_18ForwardedParameterIT2_E4typeE", ptr %invoker_6.i.i.i.i.i.i.i, align 8
  store ptr @_ZN4absl12lts_2023080222internal_any_invocable12EmptyManagerENS1_14FunctionToCallEPNS1_15TypeErasedStateES4_, ptr %manager_.i.i.i.i.i.i, align 16
  store ptr null, ptr %invoker_.i.i.i.i.i, align 8
  %2 = load ptr, ptr %_M_finish.i.i, align 8
  %incdec.ptr.i.i = getelementptr inbounds %"class.absl::lts_20230802::AnyInvocable", ptr %2, i64 1
  store ptr %incdec.ptr.i.i, ptr %_M_finish.i.i, align 8
  br label %invoke.cont

if.else.i.i:                                      ; preds = %entry
  %predicates_.i = getelementptr inbounds %"class.grpc_core::ChannelInit::FilterRegistration", ptr %this, i64 0, i32 3
  invoke void @_ZNSt6vectorIN4absl12lts_2023080212AnyInvocableIKFbRKN9grpc_core11ChannelArgsEEEESaIS8_EE17_M_realloc_insertIJS8_EEEvN9__gnu_cxx17__normal_iteratorIPS8_SA_EEDpOT_(ptr noundef nonnull align 8 dereferenceable(24) %predicates_.i, ptr %0, ptr noundef nonnull align 16 dereferenceable(32) %agg.tmp)
          to label %if.else.i.i.invoke.cont_crit_edge unwind label %lpad

if.else.i.i.invoke.cont_crit_edge:                ; preds = %if.else.i.i
  %.pre = load ptr, ptr %manager_.i.i.i.i.i.i, align 16
  br label %invoke.cont

invoke.cont:                                      ; preds = %if.else.i.i.invoke.cont_crit_edge, %if.then.i.i
  %3 = phi ptr [ %.pre, %if.else.i.i.invoke.cont_crit_edge ], [ @_ZN4absl12lts_2023080222internal_any_invocable12EmptyManagerENS1_14FunctionToCallEPNS1_15TypeErasedStateES4_, %if.then.i.i ]
  call void %3(i1 noundef zeroext true, ptr noundef nonnull %agg.tmp, ptr noundef nonnull %agg.tmp) #21
  ret ptr %this

lpad:                                             ; preds = %if.else.i.i
  %4 = landingpad { ptr, i32 }
          cleanup
  %5 = load ptr, ptr %manager_.i.i.i.i.i.i, align 16
  call void %5(i1 noundef zeroext true, ptr noundef nonnull %agg.tmp, ptr noundef nonnull %agg.tmp) #21
  resume { ptr, i32 } %4
}

; Function Attrs: mustprogress uwtable
define noundef nonnull align 8 dereferenceable(104) ptr @_ZN9grpc_core11ChannelInit18FilterRegistration23ExcludeFromMinimalStackEv(ptr noundef nonnull returned align 8 dereferenceable(104) %this) local_unnamed_addr #3 align 2 personality ptr @__gxx_personality_v0 {
entry:
  %agg.tmp = alloca %"class.absl::lts_20230802::AnyInvocable", align 16
  %invoker_.i.i.i.i.i = getelementptr inbounds %"class.absl::lts_20230802::internal_any_invocable::CoreImpl", ptr %agg.tmp, i64 0, i32 2
  store ptr @"_ZN4absl12lts_2023080222internal_any_invocable12LocalInvokerILb0EbRKZN9grpc_core11ChannelInit18FilterRegistration23ExcludeFromMinimalStackEvE3$_0JRKNS3_11ChannelArgsEEEET0_PNS1_15TypeErasedStateEDpNS1_18ForwardedParameterIT2_E4typeE", ptr %invoker_.i.i.i.i.i, align 8
  %manager_.i.i.i.i.i.i = getelementptr inbounds %"class.absl::lts_20230802::internal_any_invocable::CoreImpl", ptr %agg.tmp, i64 0, i32 1
  store ptr @_ZN4absl12lts_2023080222internal_any_invocable19LocalManagerTrivialENS1_14FunctionToCallEPNS1_15TypeErasedStateES4_, ptr %manager_.i.i.i.i.i.i, align 16
  %_M_finish.i.i = getelementptr inbounds %"class.grpc_core::ChannelInit::FilterRegistration", ptr %this, i64 0, i32 3, i32 0, i32 0, i32 0, i32 1
  %0 = load ptr, ptr %_M_finish.i.i, align 8
  %_M_end_of_storage.i.i = getelementptr inbounds %"class.grpc_core::ChannelInit::FilterRegistration", ptr %this, i64 0, i32 3, i32 0, i32 0, i32 0, i32 2
  %1 = load ptr, ptr %_M_end_of_storage.i.i, align 8
  %cmp.not.i.i = icmp eq ptr %0, %1
  br i1 %cmp.not.i.i, label %if.else.i.i, label %if.then.i.i

if.then.i.i:                                      ; preds = %entry
  %manager_5.i.i.i.i.i.i.i = getelementptr inbounds %"class.absl::lts_20230802::internal_any_invocable::CoreImpl", ptr %0, i64 0, i32 1
  store ptr @_ZN4absl12lts_2023080222internal_any_invocable19LocalManagerTrivialENS1_14FunctionToCallEPNS1_15TypeErasedStateES4_, ptr %manager_5.i.i.i.i.i.i.i, align 16
  %invoker_6.i.i.i.i.i.i.i = getelementptr inbounds %"class.absl::lts_20230802::internal_any_invocable::CoreImpl", ptr %0, i64 0, i32 2
  store ptr @"_ZN4absl12lts_2023080222internal_any_invocable12LocalInvokerILb0EbRKZN9grpc_core11ChannelInit18FilterRegistration23ExcludeFromMinimalStackEvE3$_0JRKNS3_11ChannelArgsEEEET0_PNS1_15TypeErasedStateEDpNS1_18ForwardedParameterIT2_E4typeE", ptr %invoker_6.i.i.i.i.i.i.i, align 8
  store ptr @_ZN4absl12lts_2023080222internal_any_invocable12EmptyManagerENS1_14FunctionToCallEPNS1_15TypeErasedStateES4_, ptr %manager_.i.i.i.i.i.i, align 16
  store ptr null, ptr %invoker_.i.i.i.i.i, align 8
  %2 = load ptr, ptr %_M_finish.i.i, align 8
  %incdec.ptr.i.i = getelementptr inbounds %"class.absl::lts_20230802::AnyInvocable", ptr %2, i64 1
  store ptr %incdec.ptr.i.i, ptr %_M_finish.i.i, align 8
  br label %invoke.cont

if.else.i.i:                                      ; preds = %entry
  %predicates_.i = getelementptr inbounds %"class.grpc_core::ChannelInit::FilterRegistration", ptr %this, i64 0, i32 3
  invoke void @_ZNSt6vectorIN4absl12lts_2023080212AnyInvocableIKFbRKN9grpc_core11ChannelArgsEEEESaIS8_EE17_M_realloc_insertIJS8_EEEvN9__gnu_cxx17__normal_iteratorIPS8_SA_EEDpOT_(ptr noundef nonnull align 8 dereferenceable(24) %predicates_.i, ptr %0, ptr noundef nonnull align 16 dereferenceable(32) %agg.tmp)
          to label %if.else.i.i.invoke.cont_crit_edge unwind label %lpad

if.else.i.i.invoke.cont_crit_edge:                ; preds = %if.else.i.i
  %.pre = load ptr, ptr %manager_.i.i.i.i.i.i, align 16
  br label %invoke.cont

invoke.cont:                                      ; preds = %if.else.i.i.invoke.cont_crit_edge, %if.then.i.i
  %3 = phi ptr [ %.pre, %if.else.i.i.invoke.cont_crit_edge ], [ @_ZN4absl12lts_2023080222internal_any_invocable12EmptyManagerENS1_14FunctionToCallEPNS1_15TypeErasedStateES4_, %if.then.i.i ]
  call void %3(i1 noundef zeroext true, ptr noundef nonnull %agg.tmp, ptr noundef nonnull %agg.tmp) #21
  ret ptr %this

lpad:                                             ; preds = %if.else.i.i
  %4 = landingpad { ptr, i32 }
          cleanup
  %5 = load ptr, ptr %manager_.i.i.i.i.i.i, align 16
  call void %5(i1 noundef zeroext true, ptr noundef nonnull %agg.tmp, ptr noundef nonnull %agg.tmp) #21
  resume { ptr, i32 } %4
}

; Function Attrs: mustprogress uwtable
define noundef nonnull align 8 dereferenceable(104) ptr @_ZN9grpc_core11ChannelInit7Builder14RegisterFilterE23grpc_channel_stack_typePK19grpc_channel_filterNS_14SourceLocationE(ptr nocapture noundef nonnull align 16 dereferenceable(528) %this, i32 noundef %type, ptr noundef %filter, ptr %registration_source.coerce0, i32 %registration_source.coerce1) local_unnamed_addr #3 align 2 personality ptr @__gxx_personality_v0 {
entry:
  %ref.tmp = alloca %"class.std::unique_ptr", align 8
  %idxprom = zext i32 %type to i64
  %arrayidx = getelementptr inbounds [6 x %"class.std::vector.9"], ptr %this, i64 0, i64 %idxprom
  tail call void @llvm.experimental.noalias.scope.decl(metadata !11)
  %call.i = tail call noalias noundef nonnull dereferenceable(104) ptr @_Znwm(i64 noundef 104) #19, !noalias !11
  store ptr %filter, ptr %call.i, align 8, !noalias !11
  %after_.i.i = getelementptr inbounds %"class.grpc_core::ChannelInit::FilterRegistration", ptr %call.i, i64 0, i32 1
  %registration_source_.i.i = getelementptr inbounds %"class.grpc_core::ChannelInit::FilterRegistration", ptr %call.i, i64 0, i32 7
  tail call void @llvm.memset.p0.i64(ptr noundef nonnull align 8 dereferenceable(74) %after_.i.i, i8 0, i64 74, i1 false), !noalias !11
  store ptr %registration_source.coerce0, ptr %registration_source_.i.i, align 8, !noalias !11
  %registration_source.sroa.2.0.registration_source_.sroa_idx.i.i = getelementptr inbounds %"class.grpc_core::ChannelInit::FilterRegistration", ptr %call.i, i64 0, i32 7, i32 1
  store i32 %registration_source.coerce1, ptr %registration_source.sroa.2.0.registration_source_.sroa_idx.i.i, align 8, !noalias !11
  store ptr %call.i, ptr %ref.tmp, align 8, !alias.scope !11
  %_M_finish.i = getelementptr inbounds %"struct.std::_Vector_base<std::unique_ptr<grpc_core::ChannelInit::FilterRegistration>, std::allocator<std::unique_ptr<grpc_core::ChannelInit::FilterRegistration>>>::_Vector_impl_data", ptr %arrayidx, i64 0, i32 1
  %0 = load ptr, ptr %_M_finish.i, align 8
  %_M_end_of_storage.i = getelementptr inbounds %"struct.std::_Vector_base<std::unique_ptr<grpc_core::ChannelInit::FilterRegistration>, std::allocator<std::unique_ptr<grpc_core::ChannelInit::FilterRegistration>>>::_Vector_impl_data", ptr %arrayidx, i64 0, i32 2
  %1 = load ptr, ptr %_M_end_of_storage.i, align 8
  %cmp.not.i = icmp eq ptr %0, %1
  %2 = ptrtoint ptr %call.i to i64
  br i1 %cmp.not.i, label %if.else.i, label %invoke.cont.thread

invoke.cont.thread:                               ; preds = %entry
  store i64 %2, ptr %0, align 8
  %3 = load ptr, ptr %_M_finish.i, align 8
  %incdec.ptr.i = getelementptr inbounds %"class.std::unique_ptr", ptr %3, i64 1
  store ptr %incdec.ptr.i, ptr %_M_finish.i, align 8
  br label %_ZNSt10unique_ptrIN9grpc_core11ChannelInit18FilterRegistrationESt14default_deleteIS2_EED2Ev.exit

if.else.i:                                        ; preds = %entry
  %4 = load ptr, ptr %arrayidx, align 8
  %sub.ptr.lhs.cast.i.i.i = ptrtoint ptr %0 to i64
  %sub.ptr.rhs.cast.i.i.i = ptrtoint ptr %4 to i64
  %sub.ptr.sub.i.i.i = sub i64 %sub.ptr.lhs.cast.i.i.i, %sub.ptr.rhs.cast.i.i.i
  %cmp.i.i = icmp eq i64 %sub.ptr.sub.i.i.i, 9223372036854775800
  br i1 %cmp.i.i, label %if.then.i.i, label %_ZNKSt6vectorISt10unique_ptrIN9grpc_core11ChannelInit18FilterRegistrationESt14default_deleteIS3_EESaIS6_EE12_M_check_lenEmPKc.exit.i

if.then.i.i:                                      ; preds = %if.else.i
  invoke void @_ZSt20__throw_length_errorPKc(ptr noundef nonnull @.str.35) #18
          to label %.noexc5 unwind label %lpad

.noexc5:                                          ; preds = %if.then.i.i
  unreachable

_ZNKSt6vectorISt10unique_ptrIN9grpc_core11ChannelInit18FilterRegistrationESt14default_deleteIS3_EESaIS6_EE12_M_check_lenEmPKc.exit.i: ; preds = %if.else.i
  %sub.ptr.div.i.i.i = ashr exact i64 %sub.ptr.sub.i.i.i, 3
  %.sroa.speculated.i.i = tail call i64 @llvm.umax.i64(i64 %sub.ptr.div.i.i.i, i64 1)
  %add.i.i = add i64 %.sroa.speculated.i.i, %sub.ptr.div.i.i.i
  %cmp7.i.i = icmp ult i64 %add.i.i, %sub.ptr.div.i.i.i
  %5 = tail call i64 @llvm.umin.i64(i64 %add.i.i, i64 1152921504606846975)
  %cond.i.i = select i1 %cmp7.i.i, i64 1152921504606846975, i64 %5
  %cmp.not.i.i = icmp eq i64 %cond.i.i, 0
  br i1 %cmp.not.i.i, label %_ZNSt12_Vector_baseISt10unique_ptrIN9grpc_core11ChannelInit18FilterRegistrationESt14default_deleteIS3_EESaIS6_EE11_M_allocateEm.exit.i, label %cond.true.i.i

cond.true.i.i:                                    ; preds = %_ZNKSt6vectorISt10unique_ptrIN9grpc_core11ChannelInit18FilterRegistrationESt14default_deleteIS3_EESaIS6_EE12_M_check_lenEmPKc.exit.i
  %mul.i.i.i.i = shl nuw nsw i64 %cond.i.i, 3
  %call5.i.i.i.i6 = invoke noalias noundef nonnull ptr @_Znwm(i64 noundef %mul.i.i.i.i) #19
          to label %_ZNSt12_Vector_baseISt10unique_ptrIN9grpc_core11ChannelInit18FilterRegistrationESt14default_deleteIS3_EESaIS6_EE11_M_allocateEm.exit.i unwind label %lpad

_ZNSt12_Vector_baseISt10unique_ptrIN9grpc_core11ChannelInit18FilterRegistrationESt14default_deleteIS3_EESaIS6_EE11_M_allocateEm.exit.i: ; preds = %cond.true.i.i, %_ZNKSt6vectorISt10unique_ptrIN9grpc_core11ChannelInit18FilterRegistrationESt14default_deleteIS3_EESaIS6_EE12_M_check_lenEmPKc.exit.i
  %cond.i10.i = phi ptr [ null, %_ZNKSt6vectorISt10unique_ptrIN9grpc_core11ChannelInit18FilterRegistrationESt14default_deleteIS3_EESaIS6_EE12_M_check_lenEmPKc.exit.i ], [ %call5.i.i.i.i6, %cond.true.i.i ]
  %add.ptr.i = getelementptr inbounds %"class.std::unique_ptr", ptr %cond.i10.i, i64 %sub.ptr.div.i.i.i
  store i64 %2, ptr %add.ptr.i, align 8
  %cmp.not5.i.i.i.i = icmp eq ptr %4, %0
  br i1 %cmp.not5.i.i.i.i, label %_ZNSt6vectorISt10unique_ptrIN9grpc_core11ChannelInit18FilterRegistrationESt14default_deleteIS3_EESaIS6_EE11_S_relocateEPS6_S9_S9_RS7_.exit19.i, label %for.body.i.i.i.i

for.body.i.i.i.i:                                 ; preds = %_ZNSt12_Vector_baseISt10unique_ptrIN9grpc_core11ChannelInit18FilterRegistrationESt14default_deleteIS3_EESaIS6_EE11_M_allocateEm.exit.i, %for.body.i.i.i.i
  %__cur.07.i.i.i.i = phi ptr [ %incdec.ptr1.i.i.i.i, %for.body.i.i.i.i ], [ %cond.i10.i, %_ZNSt12_Vector_baseISt10unique_ptrIN9grpc_core11ChannelInit18FilterRegistrationESt14default_deleteIS3_EESaIS6_EE11_M_allocateEm.exit.i ]
  %__first.addr.06.i.i.i.i = phi ptr [ %incdec.ptr.i.i.i.i, %for.body.i.i.i.i ], [ %4, %_ZNSt12_Vector_baseISt10unique_ptrIN9grpc_core11ChannelInit18FilterRegistrationESt14default_deleteIS3_EESaIS6_EE11_M_allocateEm.exit.i ]
  tail call void @llvm.experimental.noalias.scope.decl(metadata !14)
  tail call void @llvm.experimental.noalias.scope.decl(metadata !17)
  %6 = load i64, ptr %__first.addr.06.i.i.i.i, align 8, !alias.scope !17, !noalias !14
  store i64 %6, ptr %__cur.07.i.i.i.i, align 8, !alias.scope !14, !noalias !17
  store ptr null, ptr %__first.addr.06.i.i.i.i, align 8, !alias.scope !17, !noalias !14
  %incdec.ptr.i.i.i.i = getelementptr inbounds %"class.std::unique_ptr", ptr %__first.addr.06.i.i.i.i, i64 1
  %incdec.ptr1.i.i.i.i = getelementptr inbounds %"class.std::unique_ptr", ptr %__cur.07.i.i.i.i, i64 1
  %cmp.not.i.i.i.i = icmp eq ptr %incdec.ptr.i.i.i.i, %0
  br i1 %cmp.not.i.i.i.i, label %_ZNSt6vectorISt10unique_ptrIN9grpc_core11ChannelInit18FilterRegistrationESt14default_deleteIS3_EESaIS6_EE11_S_relocateEPS6_S9_S9_RS7_.exit19.i, label %for.body.i.i.i.i, !llvm.loop !19

_ZNSt6vectorISt10unique_ptrIN9grpc_core11ChannelInit18FilterRegistrationESt14default_deleteIS3_EESaIS6_EE11_S_relocateEPS6_S9_S9_RS7_.exit19.i: ; preds = %for.body.i.i.i.i, %_ZNSt12_Vector_baseISt10unique_ptrIN9grpc_core11ChannelInit18FilterRegistrationESt14default_deleteIS3_EESaIS6_EE11_M_allocateEm.exit.i
  %__cur.0.lcssa.i.i.i.i = phi ptr [ %cond.i10.i, %_ZNSt12_Vector_baseISt10unique_ptrIN9grpc_core11ChannelInit18FilterRegistrationESt14default_deleteIS3_EESaIS6_EE11_M_allocateEm.exit.i ], [ %incdec.ptr1.i.i.i.i, %for.body.i.i.i.i ]
  %incdec.ptr.i3 = getelementptr %"class.std::unique_ptr", ptr %__cur.0.lcssa.i.i.i.i, i64 1
  %tobool.not.i.i = icmp eq ptr %4, null
  br i1 %tobool.not.i.i, label %invoke.cont, label %if.then.i20.i

if.then.i20.i:                                    ; preds = %_ZNSt6vectorISt10unique_ptrIN9grpc_core11ChannelInit18FilterRegistrationESt14default_deleteIS3_EESaIS6_EE11_S_relocateEPS6_S9_S9_RS7_.exit19.i
  tail call void @_ZdlPv(ptr noundef nonnull %4) #20
  br label %invoke.cont

invoke.cont:                                      ; preds = %_ZNSt6vectorISt10unique_ptrIN9grpc_core11ChannelInit18FilterRegistrationESt14default_deleteIS3_EESaIS6_EE11_S_relocateEPS6_S9_S9_RS7_.exit19.i, %if.then.i20.i
  store ptr %cond.i10.i, ptr %arrayidx, align 8
  store ptr %incdec.ptr.i3, ptr %_M_finish.i, align 8
  %add.ptr19.i = getelementptr inbounds %"class.std::unique_ptr", ptr %cond.i10.i, i64 %cond.i.i
  store ptr %add.ptr19.i, ptr %_M_end_of_storage.i, align 8
  br label %_ZNSt10unique_ptrIN9grpc_core11ChannelInit18FilterRegistrationESt14default_deleteIS2_EED2Ev.exit

_ZNSt10unique_ptrIN9grpc_core11ChannelInit18FilterRegistrationESt14default_deleteIS2_EED2Ev.exit: ; preds = %invoke.cont, %invoke.cont.thread
  %7 = phi ptr [ %3, %invoke.cont.thread ], [ %__cur.0.lcssa.i.i.i.i, %invoke.cont ]
  store ptr null, ptr %ref.tmp, align 8
  %8 = load ptr, ptr %7, align 8
  ret ptr %8

lpad:                                             ; preds = %cond.true.i.i, %if.then.i.i
  %9 = landingpad { ptr, i32 }
          cleanup
  call void @_ZNSt10unique_ptrIN9grpc_core11ChannelInit18FilterRegistrationESt14default_deleteIS2_EED2Ev(ptr noundef nonnull align 8 dereferenceable(8) %ref.tmp) #21
  resume { ptr, i32 } %9
}

; Function Attrs: mustprogress nounwind uwtable
define linkonce_odr void @_ZNSt10unique_ptrIN9grpc_core11ChannelInit18FilterRegistrationESt14default_deleteIS2_EED2Ev(ptr noundef nonnull align 8 dereferenceable(8) %this) unnamed_addr #4 comdat align 2 personality ptr @__gxx_personality_v0 {
entry:
  %0 = load ptr, ptr %this, align 8
  %cmp.not = icmp eq ptr %0, null
  br i1 %cmp.not, label %if.end, label %delete.notnull.i

delete.notnull.i:                                 ; preds = %entry
  %predicates_.i.i = getelementptr inbounds %"class.grpc_core::ChannelInit::FilterRegistration", ptr %0, i64 0, i32 3
  %1 = load ptr, ptr %predicates_.i.i, align 8
  %_M_finish.i.i.i = getelementptr inbounds %"class.grpc_core::ChannelInit::FilterRegistration", ptr %0, i64 0, i32 3, i32 0, i32 0, i32 0, i32 1
  %2 = load ptr, ptr %_M_finish.i.i.i, align 8
  %cmp.not3.i.i.i.i.i.i = icmp eq ptr %1, %2
  br i1 %cmp.not3.i.i.i.i.i.i, label %invoke.cont.i.i.i, label %for.body.i.i.i.i.i.i

for.body.i.i.i.i.i.i:                             ; preds = %delete.notnull.i, %for.body.i.i.i.i.i.i
  %__first.addr.04.i.i.i.i.i.i = phi ptr [ %incdec.ptr.i.i.i.i.i.i, %for.body.i.i.i.i.i.i ], [ %1, %delete.notnull.i ]
  %manager_.i.i.i.i.i.i.i.i.i.i = getelementptr inbounds %"class.absl::lts_20230802::internal_any_invocable::CoreImpl", ptr %__first.addr.04.i.i.i.i.i.i, i64 0, i32 1
  %3 = load ptr, ptr %manager_.i.i.i.i.i.i.i.i.i.i, align 16
  tail call void %3(i1 noundef zeroext true, ptr noundef nonnull %__first.addr.04.i.i.i.i.i.i, ptr noundef nonnull %__first.addr.04.i.i.i.i.i.i) #21
  %incdec.ptr.i.i.i.i.i.i = getelementptr inbounds %"class.absl::lts_20230802::AnyInvocable", ptr %__first.addr.04.i.i.i.i.i.i, i64 1
  %cmp.not.i.i.i.i.i.i = icmp eq ptr %incdec.ptr.i.i.i.i.i.i, %2
  br i1 %cmp.not.i.i.i.i.i.i, label %invoke.contthread-pre-split.i.i.i, label %for.body.i.i.i.i.i.i, !llvm.loop !20

invoke.contthread-pre-split.i.i.i:                ; preds = %for.body.i.i.i.i.i.i
  %.pr.i.i.i = load ptr, ptr %predicates_.i.i, align 8
  br label %invoke.cont.i.i.i

invoke.cont.i.i.i:                                ; preds = %invoke.contthread-pre-split.i.i.i, %delete.notnull.i
  %4 = phi ptr [ %.pr.i.i.i, %invoke.contthread-pre-split.i.i.i ], [ %1, %delete.notnull.i ]
  %tobool.not.i.i.i.i.i = icmp eq ptr %4, null
  br i1 %tobool.not.i.i.i.i.i, label %_ZNSt6vectorIN4absl12lts_2023080212AnyInvocableIKFbRKN9grpc_core11ChannelArgsEEEESaIS8_EED2Ev.exit.i.i, label %if.then.i.i.i.i.i

if.then.i.i.i.i.i:                                ; preds = %invoke.cont.i.i.i
  tail call void @_ZdlPv(ptr noundef nonnull %4) #20
  br label %_ZNSt6vectorIN4absl12lts_2023080212AnyInvocableIKFbRKN9grpc_core11ChannelArgsEEEESaIS8_EED2Ev.exit.i.i

_ZNSt6vectorIN4absl12lts_2023080212AnyInvocableIKFbRKN9grpc_core11ChannelArgsEEEESaIS8_EED2Ev.exit.i.i: ; preds = %if.then.i.i.i.i.i, %invoke.cont.i.i.i
  %before_.i.i = getelementptr inbounds %"class.grpc_core::ChannelInit::FilterRegistration", ptr %0, i64 0, i32 2
  %5 = load ptr, ptr %before_.i.i, align 8
  %tobool.not.i.i.i2.i.i = icmp eq ptr %5, null
  br i1 %tobool.not.i.i.i2.i.i, label %_ZNSt6vectorIPK19grpc_channel_filterSaIS2_EED2Ev.exit.i.i, label %if.then.i.i.i3.i.i

if.then.i.i.i3.i.i:                               ; preds = %_ZNSt6vectorIN4absl12lts_2023080212AnyInvocableIKFbRKN9grpc_core11ChannelArgsEEEESaIS8_EED2Ev.exit.i.i
  tail call void @_ZdlPv(ptr noundef nonnull %5) #20
  br label %_ZNSt6vectorIPK19grpc_channel_filterSaIS2_EED2Ev.exit.i.i

_ZNSt6vectorIPK19grpc_channel_filterSaIS2_EED2Ev.exit.i.i: ; preds = %if.then.i.i.i3.i.i, %_ZNSt6vectorIN4absl12lts_2023080212AnyInvocableIKFbRKN9grpc_core11ChannelArgsEEEESaIS8_EED2Ev.exit.i.i
  %after_.i.i = getelementptr inbounds %"class.grpc_core::ChannelInit::FilterRegistration", ptr %0, i64 0, i32 1
  %6 = load ptr, ptr %after_.i.i, align 8
  %tobool.not.i.i.i5.i.i = icmp eq ptr %6, null
  br i1 %tobool.not.i.i.i5.i.i, label %_ZNKSt14default_deleteIN9grpc_core11ChannelInit18FilterRegistrationEEclEPS2_.exit, label %if.then.i.i.i6.i.i

if.then.i.i.i6.i.i:                               ; preds = %_ZNSt6vectorIPK19grpc_channel_filterSaIS2_EED2Ev.exit.i.i
  tail call void @_ZdlPv(ptr noundef nonnull %6) #20
  br label %_ZNKSt14default_deleteIN9grpc_core11ChannelInit18FilterRegistrationEEclEPS2_.exit

_ZNKSt14default_deleteIN9grpc_core11ChannelInit18FilterRegistrationEEclEPS2_.exit: ; preds = %_ZNSt6vectorIPK19grpc_channel_filterSaIS2_EED2Ev.exit.i.i, %if.then.i.i.i6.i.i
  tail call void @_ZdlPv(ptr noundef nonnull %0) #20
  br label %if.end

if.end:                                           ; preds = %_ZNKSt14default_deleteIN9grpc_core11ChannelInit18FilterRegistrationEEclEPS2_.exit, %entry
  store ptr null, ptr %this, align 8
  ret void
}

; Function Attrs: mustprogress uwtable
define void @_ZN9grpc_core11ChannelInit16BuildStackConfigERKSt6vectorISt10unique_ptrINS0_18FilterRegistrationESt14default_deleteIS3_EESaIS6_EEPN4absl12lts_2023080212AnyInvocableIKFvRNS_19ChannelStackBuilderEEEE23grpc_channel_stack_type(ptr noalias nocapture writeonly sret(%"struct.grpc_core::ChannelInit::StackConfig") align 8 %agg.result, ptr nocapture noundef nonnull readonly align 8 dereferenceable(24) %registrations, ptr noundef %post_processors, i32 noundef %type) local_unnamed_addr #3 align 2 personality ptr @__gxx_personality_v0 {
entry:
  %ref.tmp.i588 = alloca [5 x %"class.std::basic_string_view"], align 8
  %ref.tmp9.i543 = alloca %"class.std::tuple.94", align 8
  %ref.tmp10.i544 = alloca %"class.std::tuple.97", align 1
  %ref.tmp9.i = alloca %"class.std::tuple.94", align 8
  %ref.tmp10.i = alloca %"class.std::tuple.97", align 1
  %ref.tmp13.i = alloca %"class.std::__cxx11::basic_string", align 8
  %ref.tmp14.i = alloca %"class.absl::lts_20230802::AlphaNum", align 8
  %ref.tmp15.i = alloca %"class.absl::lts_20230802::AlphaNum", align 8
  %ref.tmp16.i = alloca %"class.std::__cxx11::basic_string", align 8
  %ref.tmp17.i = alloca %"class.absl::lts_20230802::AlphaNum", align 8
  %ref.tmp19.i = alloca %"class.absl::lts_20230802::AlphaNum", align 8
  %ref.tmp20.i = alloca %"class.std::__cxx11::basic_string", align 8
  %ref.tmp.i235 = alloca [6 x %"class.std::basic_string_view"], align 8
  %ref.tmp.i = alloca [6 x %"class.std::basic_string_view"], align 8
  %filter_to_registration = alloca %"class.std::map", align 8
  %dependencies = alloca %"class.std::map.32", align 8
  %terminal_filters = alloca %"class.std::vector.19", align 8
  %ref.tmp = alloca %"class.std::__cxx11::basic_string", align 8
  %ref.tmp13 = alloca %"class.absl::lts_20230802::AlphaNum", align 8
  %ref.tmp15 = alloca %"class.absl::lts_20230802::AlphaNum", align 8
  %ref.tmp21 = alloca %"class.absl::lts_20230802::AlphaNum", align 8
  %ref.tmp23 = alloca %"class.absl::lts_20230802::AlphaNum", align 8
  %ref.tmp27 = alloca %"class.absl::lts_20230802::AlphaNum", align 8
  %ref.tmp29 = alloca i32, align 4
  %ref.tmp32 = alloca ptr, align 8
  %ref.tmp35 = alloca i32, align 4
  %ref.tmp131 = alloca %"class.std::__cxx11::basic_string", align 8
  %before = alloca ptr, align 8
  %ref.tmp182 = alloca %"class.std::__cxx11::basic_string", align 8
  %original = alloca %"class.std::map.32", align 8
  %filters = alloca %"class.std::vector.19", align 16
  %filter = alloca ptr, align 8
  %post_processor_functions = alloca %"class.std::vector.24", align 16
  %loc_strs = alloca %"class.std::map.53", align 8
  %max_loc_str_len = alloca i64, align 8
  %max_filter_name_len = alloca i64, align 8
  %add_loc_str = alloca %class.anon.58, align 8
  %ref.tmp358 = alloca %"class.std::__cxx11::basic_string", align 8
  %ref.tmp359 = alloca %"class.absl::lts_20230802::AlphaNum", align 8
  %ref.tmp362 = alloca %"class.absl::lts_20230802::AlphaNum", align 8
  %ref.tmp363 = alloca %"class.std::__cxx11::basic_string", align 8
  %ref.tmp366 = alloca %"class.std::allocator.38", align 1
  %after_str = alloca %"class.std::__cxx11::basic_string", align 8
  %ref.tmp404 = alloca %"class.std::__cxx11::basic_string", align 8
  %ref.tmp405 = alloca %"class.absl::lts_20230802::AlphaNum", align 8
  %ref.tmp406 = alloca %"class.std::__cxx11::basic_string", align 8
  %ref.tmp414 = alloca %"class.std::allocator.38", align 1
  %ref.tmp419 = alloca %"class.absl::lts_20230802::AlphaNum", align 8
  %ref.tmp421 = alloca %"class.absl::lts_20230802::AlphaNum", align 8
  %ref.tmp422 = alloca %"class.std::__cxx11::basic_string", align 8
  %filter_str = alloca %"class.std::__cxx11::basic_string", align 8
  %ref.tmp436 = alloca %"class.absl::lts_20230802::AlphaNum", align 8
  %ref.tmp438 = alloca %"class.absl::lts_20230802::AlphaNum", align 8
  %ref.tmp443 = alloca %"class.absl::lts_20230802::AlphaNum", align 8
  %ref.tmp448 = alloca %"class.absl::lts_20230802::AlphaNum", align 8
  %filter_str471 = alloca %"class.std::__cxx11::basic_string", align 8
  %ref.tmp485 = alloca %"class.std::__cxx11::basic_string", align 8
  %ref.tmp492 = alloca %"class.std::allocator.38", align 1
  %0 = getelementptr inbounds i8, ptr %filter_to_registration, i64 8
  store i32 0, ptr %0, align 8
  %_M_parent.i.i.i.i.i = getelementptr inbounds i8, ptr %filter_to_registration, i64 16
  store ptr null, ptr %_M_parent.i.i.i.i.i, align 8
  %_M_left.i.i.i.i.i = getelementptr inbounds i8, ptr %filter_to_registration, i64 24
  store ptr %0, ptr %_M_left.i.i.i.i.i, align 8
  %_M_right.i.i.i.i.i = getelementptr inbounds i8, ptr %filter_to_registration, i64 32
  store ptr %0, ptr %_M_right.i.i.i.i.i, align 8
  %_M_node_count.i.i.i.i.i = getelementptr inbounds i8, ptr %filter_to_registration, i64 40
  store i64 0, ptr %_M_node_count.i.i.i.i.i, align 8
  %1 = getelementptr inbounds i8, ptr %dependencies, i64 8
  store i32 0, ptr %1, align 8
  %_M_parent.i.i.i.i.i75 = getelementptr inbounds i8, ptr %dependencies, i64 16
  store ptr null, ptr %_M_parent.i.i.i.i.i75, align 8
  %_M_left.i.i.i.i.i76 = getelementptr inbounds i8, ptr %dependencies, i64 24
  store ptr %1, ptr %_M_left.i.i.i.i.i76, align 8
  %_M_right.i.i.i.i.i77 = getelementptr inbounds i8, ptr %dependencies, i64 32
  store ptr %1, ptr %_M_right.i.i.i.i.i77, align 8
  %_M_node_count.i.i.i.i.i78 = getelementptr inbounds i8, ptr %dependencies, i64 40
  store i64 0, ptr %_M_node_count.i.i.i.i.i78, align 8
  call void @llvm.memset.p0.i64(ptr noundef nonnull align 8 dereferenceable(24) %terminal_filters, i8 0, i64 24, i1 false)
  %2 = load ptr, ptr %registrations, align 8
  %_M_finish.i = getelementptr inbounds %"struct.std::_Vector_base<std::unique_ptr<grpc_core::ChannelInit::FilterRegistration>, std::allocator<std::unique_ptr<grpc_core::ChannelInit::FilterRegistration>>>::_Vector_impl_data", ptr %registrations, i64 0, i32 1
  %3 = load ptr, ptr %_M_finish.i, align 8
  %cmp.i.not783 = icmp eq ptr %2, %3
  br i1 %cmp.i.not783, label %for.end254, label %for.body.lr.ph

for.body.lr.ph:                                   ; preds = %entry
  %_M_finish.i98 = getelementptr inbounds %"struct.std::_Vector_base<grpc_core::ChannelInit::Filter, std::allocator<grpc_core::ChannelInit::Filter>>::_Vector_impl_data", ptr %terminal_filters, i64 0, i32 1
  %_M_end_of_storage.i = getelementptr inbounds %"struct.std::_Vector_base<grpc_core::ChannelInit::Filter, std::allocator<grpc_core::ChannelInit::Filter>>::_Vector_impl_data", ptr %terminal_filters, i64 0, i32 2
  br label %for.body

for.body:                                         ; preds = %for.body.lr.ph, %for.inc
  %__begin1.sroa.0.0784 = phi ptr [ %2, %for.body.lr.ph ], [ %incdec.ptr.i100, %for.inc ]
  %4 = load ptr, ptr %__begin1.sroa.0.0784, align 8
  %5 = load ptr, ptr %_M_parent.i.i.i.i.i, align 8
  %cmp.not5.i.i.i = icmp eq ptr %5, null
  br i1 %cmp.not5.i.i.i, label %if.end, label %while.body.lr.ph.i.i.i

while.body.lr.ph.i.i.i:                           ; preds = %for.body
  %6 = load ptr, ptr %4, align 8
  br label %while.body.i.i.i

while.body.i.i.i:                                 ; preds = %while.body.i.i.i, %while.body.lr.ph.i.i.i
  %__x.addr.07.i.i.i = phi ptr [ %5, %while.body.lr.ph.i.i.i ], [ %__x.addr.1.i.i.i, %while.body.i.i.i ]
  %__y.addr.06.i.i.i = phi ptr [ %0, %while.body.lr.ph.i.i.i ], [ %__y.addr.1.i.i.i, %while.body.i.i.i ]
  %_M_storage.i.i.i.i.i = getelementptr inbounds %"struct.std::_Rb_tree_node.81", ptr %__x.addr.07.i.i.i, i64 0, i32 1
  %7 = load ptr, ptr %_M_storage.i.i.i.i.i, align 8
  %cmp.i.i.i.i = icmp ult ptr %7, %6
  %_M_right.i.i.i.i = getelementptr inbounds %"struct.std::_Rb_tree_node_base", ptr %__x.addr.07.i.i.i, i64 0, i32 3
  %_M_left.i.i.i.i = getelementptr inbounds %"struct.std::_Rb_tree_node_base", ptr %__x.addr.07.i.i.i, i64 0, i32 2
  %__y.addr.1.i.i.i = select i1 %cmp.i.i.i.i, ptr %__y.addr.06.i.i.i, ptr %__x.addr.07.i.i.i
  %__x.addr.1.in.i.i.i = select i1 %cmp.i.i.i.i, ptr %_M_right.i.i.i.i, ptr %_M_left.i.i.i.i
  %__x.addr.1.i.i.i = load ptr, ptr %__x.addr.1.in.i.i.i, align 8
  %cmp.not.i.i.i = icmp eq ptr %__x.addr.1.i.i.i, null
  br i1 %cmp.not.i.i.i, label %_ZNKSt8_Rb_treeIPK19grpc_channel_filterSt4pairIKS2_PN9grpc_core11ChannelInit18FilterRegistrationEESt10_Select1stIS9_ESt4lessIS2_ESaIS9_EE14_M_lower_boundEPKSt13_Rb_tree_nodeIS9_EPKSt18_Rb_tree_node_baseRS4_.exit.i.i, label %while.body.i.i.i, !llvm.loop !21

_ZNKSt8_Rb_treeIPK19grpc_channel_filterSt4pairIKS2_PN9grpc_core11ChannelInit18FilterRegistrationEESt10_Select1stIS9_ESt4lessIS2_ESaIS9_EE14_M_lower_boundEPKSt13_Rb_tree_nodeIS9_EPKSt18_Rb_tree_node_baseRS4_.exit.i.i: ; preds = %while.body.i.i.i
  %cmp.i.i.i = icmp eq ptr %__y.addr.1.i.i.i, %0
  br i1 %cmp.i.i.i, label %if.end, label %invoke.cont

invoke.cont:                                      ; preds = %_ZNKSt8_Rb_treeIPK19grpc_channel_filterSt4pairIKS2_PN9grpc_core11ChannelInit18FilterRegistrationEESt10_Select1stIS9_ESt4lessIS2_ESaIS9_EE14_M_lower_boundEPKSt13_Rb_tree_nodeIS9_EPKSt18_Rb_tree_node_baseRS4_.exit.i.i
  %_M_storage.i.i.i.i.i.le = getelementptr inbounds %"struct.std::_Rb_tree_node.81", ptr %__x.addr.07.i.i.i, i64 0, i32 1
  %__y.addr.06.i.i.i.sroa.gep = getelementptr inbounds %"struct.std::_Rb_tree_node.81", ptr %__y.addr.06.i.i.i, i64 0, i32 1
  %__y.addr.1.i.i.i.sroa.sel = select i1 %cmp.i.i.i.i, ptr %__y.addr.06.i.i.i.sroa.gep, ptr %_M_storage.i.i.i.i.i.le
  %8 = load ptr, ptr %__y.addr.1.i.i.i.sroa.sel, align 8
  %cmp.i4.i.i.not = icmp ult ptr %6, %8
  br i1 %cmp.i4.i.i.not, label %if.end, label %if.then

if.then:                                          ; preds = %invoke.cont
  %call10 = invoke noundef nonnull align 8 dereferenceable(8) ptr @_ZNSt3mapIPK19grpc_channel_filterPN9grpc_core11ChannelInit18FilterRegistrationESt4lessIS2_ESaISt4pairIKS2_S6_EEEixERSA_(ptr noundef nonnull align 8 dereferenceable(48) %filter_to_registration, ptr noundef nonnull align 8 dereferenceable(8) %4)
          to label %invoke.cont14 unwind label %lpad.loopexit.split-lp742.loopexit.split-lp.loopexit.split-lp.loopexit.split-lp.loopexit.split-lp.loopexit.split-lp.loopexit.split-lp

invoke.cont14:                                    ; preds = %if.then
  %9 = load ptr, ptr %call10, align 8
  %registration_source_ = getelementptr inbounds %"class.grpc_core::ChannelInit::FilterRegistration", ptr %9, i64 0, i32 7
  %first.sroa.0.0.copyload = load ptr, ptr %registration_source_, align 8
  %first.sroa.2.0.registration_source_.sroa_idx = getelementptr inbounds %"class.grpc_core::ChannelInit::FilterRegistration", ptr %9, i64 0, i32 7, i32 1
  %first.sroa.2.0.copyload = load i32, ptr %first.sroa.2.0.registration_source_.sroa_idx, align 8
  %10 = load ptr, ptr %__begin1.sroa.0.0784, align 8
  %registration_source_12 = getelementptr inbounds %"class.grpc_core::ChannelInit::FilterRegistration", ptr %10, i64 0, i32 7
  %second.sroa.0.0.copyload = load ptr, ptr %registration_source_12, align 8
  %second.sroa.2.0.registration_source_12.sroa_idx = getelementptr inbounds %"class.grpc_core::ChannelInit::FilterRegistration", ptr %10, i64 0, i32 7, i32 1
  %second.sroa.2.0.copyload = load i32, ptr %second.sroa.2.0.registration_source_12.sroa_idx, align 8
  store i64 41, ptr %ref.tmp13, align 8
  %11 = getelementptr inbounds { i64, ptr }, ptr %ref.tmp13, i64 0, i32 1
  store ptr @.str, ptr %11, align 8
  %12 = load ptr, ptr @_ZN9grpc_core21NameFromChannelFilterE, align 8
  %13 = load ptr, ptr %10, align 8
  %call19 = invoke noundef ptr %12(ptr noundef %13)
          to label %invoke.cont18 unwind label %lpad.loopexit.split-lp742.loopexit.split-lp.loopexit.split-lp.loopexit.split-lp.loopexit.split-lp.loopexit.split-lp.loopexit.split-lp

invoke.cont18:                                    ; preds = %invoke.cont14
  %tobool.not.i.i = icmp eq ptr %call19, null
  br i1 %tobool.not.i.i, label %invoke.cont22, label %cond.true.i.i

cond.true.i.i:                                    ; preds = %invoke.cont18
  %call.i.i.i.i80 = call noundef i64 @strlen(ptr noundef nonnull dereferenceable(1) %call19) #21
  br label %invoke.cont22

invoke.cont22:                                    ; preds = %invoke.cont18, %cond.true.i.i
  %retval.sroa.0.0.i.i81 = phi i64 [ %call.i.i.i.i80, %cond.true.i.i ], [ 0, %invoke.cont18 ]
  store i64 %retval.sroa.0.0.i.i81, ptr %ref.tmp15, align 8
  %14 = getelementptr inbounds { i64, ptr }, ptr %ref.tmp15, i64 0, i32 1
  store ptr %call19, ptr %14, align 8
  store i64 8, ptr %ref.tmp21, align 8
  %15 = getelementptr inbounds { i64, ptr }, ptr %ref.tmp21, i64 0, i32 1
  store ptr @.str.1, ptr %15, align 8
  %tobool.not.i.i85 = icmp eq ptr %first.sroa.0.0.copyload, null
  br i1 %tobool.not.i.i85, label %invoke.cont28, label %cond.true.i.i86

cond.true.i.i86:                                  ; preds = %invoke.cont22
  %call.i.i.i.i87 = call noundef i64 @strlen(ptr noundef nonnull dereferenceable(1) %first.sroa.0.0.copyload) #21
  br label %invoke.cont28

invoke.cont28:                                    ; preds = %invoke.cont22, %cond.true.i.i86
  %retval.sroa.0.0.i.i88 = phi i64 [ %call.i.i.i.i87, %cond.true.i.i86 ], [ 0, %invoke.cont22 ]
  store i64 %retval.sroa.0.0.i.i88, ptr %ref.tmp23, align 8
  %16 = getelementptr inbounds { i64, ptr }, ptr %ref.tmp23, i64 0, i32 1
  store ptr %first.sroa.0.0.copyload, ptr %16, align 8
  store i64 1, ptr %ref.tmp27, align 8
  %17 = getelementptr inbounds { i64, ptr }, ptr %ref.tmp27, i64 0, i32 1
  store ptr @.str.2, ptr %17, align 8
  store i32 %first.sroa.2.0.copyload, ptr %ref.tmp29, align 4
  store ptr %second.sroa.0.0.copyload, ptr %ref.tmp32, align 8
  store i32 %second.sroa.2.0.copyload, ptr %ref.tmp35, align 4
  invoke void @_ZN4absl12lts_202308026StrCatIJiA10_cPKcA2_ciEEENSt7__cxx1112basic_stringIcSt11char_traitsIcESaIcEEERKNS0_8AlphaNumESE_SE_SE_SE_DpRKT_(ptr nonnull sret(%"class.std::__cxx11::basic_string") align 8 %ref.tmp, ptr noundef nonnull align 8 dereferenceable(48) %ref.tmp13, ptr noundef nonnull align 8 dereferenceable(48) %ref.tmp15, ptr noundef nonnull align 8 dereferenceable(48) %ref.tmp21, ptr noundef nonnull align 8 dereferenceable(48) %ref.tmp23, ptr noundef nonnull align 8 dereferenceable(48) %ref.tmp27, ptr noundef nonnull align 4 dereferenceable(4) %ref.tmp29, ptr noundef nonnull align 1 dereferenceable(10) @.str.3, ptr noundef nonnull align 8 dereferenceable(8) %ref.tmp32, ptr noundef nonnull align 1 dereferenceable(2) @.str.2, ptr noundef nonnull align 4 dereferenceable(4) %ref.tmp35)
          to label %invoke.cont38 unwind label %lpad.loopexit.split-lp742.loopexit.split-lp.loopexit.split-lp.loopexit.split-lp.loopexit.split-lp.loopexit.split-lp.loopexit.split-lp

invoke.cont38:                                    ; preds = %invoke.cont28
  %call39 = call { i64, ptr } @_ZNKSt7__cxx1112basic_stringIcSt11char_traitsIcESaIcEEcvSt17basic_string_viewIcS2_EEv(ptr noundef nonnull align 8 dereferenceable(32) %ref.tmp) #21
  %18 = extractvalue { i64, ptr } %call39, 0
  %19 = extractvalue { i64, ptr } %call39, 1
  invoke void @_ZN9grpc_core5CrashESt17basic_string_viewIcSt11char_traitsIcEENS_14SourceLocationE(i64 %18, ptr %19, ptr nonnull @.str.4, i32 134) #18
          to label %invoke.cont43 unwind label %lpad41

invoke.cont43:                                    ; preds = %invoke.cont38
  unreachable

lpad.loopexit741:                                 ; preds = %while.body.i.i.i325, %call.i.i.i.i328.noexc
  %lpad.loopexit743 = landingpad { ptr, i32 }
          cleanup
  br label %ehcleanup524

lpad.loopexit.split-lp742.loopexit:               ; preds = %call.i.i.i.i269.noexc, %while.body.i.i.i266
  %lpad.loopexit746 = landingpad { ptr, i32 }
          cleanup
  br label %ehcleanup524

lpad.loopexit.split-lp742.loopexit.split-lp.loopexit: ; preds = %while.body.i.i.i175, %call.i.i.i.i177.noexc
  %lpad.loopexit749 = landingpad { ptr, i32 }
          cleanup
  br label %ehcleanup524

lpad.loopexit.split-lp742.loopexit.split-lp.loopexit.split-lp.loopexit: ; preds = %_ZNSt8_Rb_treeIPK19grpc_channel_filterS2_St9_IdentityIS2_EN9grpc_core12_GLOBAL__N_127CompareChannelFiltersByNameESaIS2_EE10_M_insert_IRKS2_NS9_11_Alloc_nodeEEESt17_Rb_tree_iteratorIS2_EPSt18_Rb_tree_node_baseSH_OT_RT0_.exit.i.i353, %call.i.i7.i.i.noexc371, %lor.rhs.i.i.i349, %call.i7.i.i.i.noexc367, %if.end12.i.i.i336, %if.end238
  %lpad.loopexit752 = landingpad { ptr, i32 }
          cleanup
  br label %ehcleanup524

lpad.loopexit.split-lp742.loopexit.split-lp.loopexit.split-lp.loopexit.split-lp.loopexit: ; preds = %invoke.cont184, %invoke.cont190, %invoke.cont198, %if.end206, %_ZN4absl12lts_202308028AlphaNumC2EPKc.exit.i258, %if.end12.i.i.i277, %call.i7.i.i.i.noexc308, %lor.rhs.i.i.i290, %call.i.i7.i.i.noexc312, %_ZNSt8_Rb_treeIPK19grpc_channel_filterS2_St9_IdentityIS2_EN9grpc_core12_GLOBAL__N_127CompareChannelFiltersByNameESaIS2_EE10_M_insert_IRKS2_NS9_11_Alloc_nodeEEESt17_Rb_tree_iteratorIS2_EPSt18_Rb_tree_node_baseSH_OT_RT0_.exit.i.i294
  %lpad.loopexit755 = landingpad { ptr, i32 }
          cleanup
  br label %ehcleanup524

lpad.loopexit.split-lp742.loopexit.split-lp.loopexit.split-lp.loopexit.split-lp.loopexit.split-lp.loopexit: ; preds = %_ZNSt8_Rb_treeIPK19grpc_channel_filterS2_St9_IdentityIS2_EN9grpc_core12_GLOBAL__N_127CompareChannelFiltersByNameESaIS2_EE10_M_insert_IRKS2_NS9_11_Alloc_nodeEEESt17_Rb_tree_iteratorIS2_EPSt18_Rb_tree_node_baseSH_OT_RT0_.exit.i.i, %call.i.i7.i.i.noexc, %lor.rhs.i.i.i, %call.i7.i.i.i.noexc, %if.end12.i.i.i, %_ZN4absl12lts_202308028AlphaNumC2EPKc.exit.i, %if.end155, %invoke.cont147, %invoke.cont139, %invoke.cont133
  %lpad.loopexit758 = landingpad { ptr, i32 }
          cleanup
  br label %ehcleanup524

lpad.loopexit.split-lp742.loopexit.split-lp.loopexit.split-lp.loopexit.split-lp.loopexit.split-lp.loopexit.split-lp.loopexit: ; preds = %if.end, %if.else, %if.else.i
  %lpad.loopexit761 = landingpad { ptr, i32 }
          cleanup
  br label %ehcleanup524

lpad.loopexit.split-lp742.loopexit.split-lp.loopexit.split-lp.loopexit.split-lp.loopexit.split-lp.loopexit.split-lp.loopexit.split-lp: ; preds = %if.then.i.i384, %if.then53.invoke, %if.then, %invoke.cont14, %invoke.cont28
  %lpad.loopexit.split-lp762 = landingpad { ptr, i32 }
          cleanup
  br label %ehcleanup524

lpad41:                                           ; preds = %invoke.cont38
  %20 = landingpad { ptr, i32 }
          cleanup
  call void @_ZNSt7__cxx1112basic_stringIcSt11char_traitsIcESaIcEED1Ev(ptr noundef nonnull align 8 dereferenceable(32) %ref.tmp) #21
  br label %ehcleanup524

if.end:                                           ; preds = %for.body, %_ZNKSt8_Rb_treeIPK19grpc_channel_filterSt4pairIKS2_PN9grpc_core11ChannelInit18FilterRegistrationEESt10_Select1stIS9_ESt4lessIS2_ESaIS9_EE14_M_lower_boundEPKSt13_Rb_tree_nodeIS9_EPKSt18_Rb_tree_node_baseRS4_.exit.i.i, %invoke.cont
  %call48 = invoke noundef nonnull align 8 dereferenceable(8) ptr @_ZNSt3mapIPK19grpc_channel_filterPN9grpc_core11ChannelInit18FilterRegistrationESt4lessIS2_ESaISt4pairIKS2_S6_EEEixERSA_(ptr noundef nonnull align 8 dereferenceable(48) %filter_to_registration, ptr noundef nonnull align 8 dereferenceable(8) %4)
          to label %invoke.cont47 unwind label %lpad.loopexit.split-lp742.loopexit.split-lp.loopexit.split-lp.loopexit.split-lp.loopexit.split-lp.loopexit.split-lp.loopexit

invoke.cont47:                                    ; preds = %if.end
  store ptr %4, ptr %call48, align 8
  %21 = load ptr, ptr %__begin1.sroa.0.0784, align 8
  %terminal_ = getelementptr inbounds %"class.grpc_core::ChannelInit::FilterRegistration", ptr %21, i64 0, i32 4
  %22 = load i8, ptr %terminal_, align 8
  %23 = and i8 %22, 1
  %tobool.not = icmp eq i8 %23, 0
  br i1 %tobool.not, label %if.else, label %do.body

do.body:                                          ; preds = %invoke.cont47
  %after_ = getelementptr inbounds %"class.grpc_core::ChannelInit::FilterRegistration", ptr %21, i64 0, i32 1
  %24 = load ptr, ptr %after_, align 8
  %_M_finish.i.i = getelementptr inbounds %"class.grpc_core::ChannelInit::FilterRegistration", ptr %21, i64 0, i32 1, i32 0, i32 0, i32 0, i32 1
  %25 = load ptr, ptr %_M_finish.i.i, align 8
  %cmp.i.i95 = icmp eq ptr %24, %25
  br i1 %cmp.i.i95, label %do.body56, label %if.then53.invoke

if.then53.invoke:                                 ; preds = %do.body65, %do.body56, %do.body, %invoke.cont108, %_ZNKSt8_Rb_treeIPK19grpc_channel_filterSt4pairIKS2_PN9grpc_core11ChannelInit18FilterRegistrationEESt10_Select1stIS9_ESt4lessIS2_ESaIS9_EE14_M_lower_boundEPKSt13_Rb_tree_nodeIS9_EPKSt18_Rb_tree_node_baseRS4_.exit.i.i118, %do.body105
  %26 = phi i32 [ 153, %do.body105 ], [ 153, %_ZNKSt8_Rb_treeIPK19grpc_channel_filterSt4pairIKS2_PN9grpc_core11ChannelInit18FilterRegistrationEESt10_Select1stIS9_ESt4lessIS2_ESaIS9_EE14_M_lower_boundEPKSt13_Rb_tree_nodeIS9_EPKSt18_Rb_tree_node_baseRS4_.exit.i.i118 ], [ 153, %invoke.cont108 ], [ 141, %do.body ], [ 142, %do.body56 ], [ 143, %do.body65 ]
  %27 = phi ptr [ @.str.8, %do.body105 ], [ @.str.8, %_ZNKSt8_Rb_treeIPK19grpc_channel_filterSt4pairIKS2_PN9grpc_core11ChannelInit18FilterRegistrationEESt10_Select1stIS9_ESt4lessIS2_ESaIS9_EE14_M_lower_boundEPKSt13_Rb_tree_nodeIS9_EPKSt18_Rb_tree_node_baseRS4_.exit.i.i118 ], [ @.str.8, %invoke.cont108 ], [ @.str.5, %do.body ], [ @.str.6, %do.body56 ], [ @.str.7, %do.body65 ]
  invoke void @gpr_assertion_failed(ptr noundef nonnull @.str.4, i32 noundef %26, ptr noundef nonnull %27) #18
          to label %if.then53.cont unwind label %lpad.loopexit.split-lp742.loopexit.split-lp.loopexit.split-lp.loopexit.split-lp.loopexit.split-lp.loopexit.split-lp.loopexit.split-lp

if.then53.cont:                                   ; preds = %if.then53.invoke
  unreachable

do.body56:                                        ; preds = %do.body
  %before_ = getelementptr inbounds %"class.grpc_core::ChannelInit::FilterRegistration", ptr %21, i64 0, i32 2
  %28 = load ptr, ptr %before_, align 8
  %_M_finish.i.i96 = getelementptr inbounds %"class.grpc_core::ChannelInit::FilterRegistration", ptr %21, i64 0, i32 2, i32 0, i32 0, i32 0, i32 1
  %29 = load ptr, ptr %_M_finish.i.i96, align 8
  %cmp.i.i97 = icmp eq ptr %28, %29
  br i1 %cmp.i.i97, label %do.body65, label %if.then53.invoke

do.body65:                                        ; preds = %do.body56
  %before_all_ = getelementptr inbounds %"class.grpc_core::ChannelInit::FilterRegistration", ptr %21, i64 0, i32 5
  %30 = load i8, ptr %before_all_, align 1
  %31 = and i8 %30, 1
  %tobool67.not = icmp eq i8 %31, 0
  br i1 %tobool67.not, label %do.end74, label %if.then53.invoke

do.end74:                                         ; preds = %do.body65
  %predicates_ = getelementptr inbounds %"class.grpc_core::ChannelInit::FilterRegistration", ptr %21, i64 0, i32 3
  %registration_source_79 = getelementptr inbounds %"class.grpc_core::ChannelInit::FilterRegistration", ptr %21, i64 0, i32 7
  %32 = load ptr, ptr %_M_finish.i98, align 8
  %33 = load ptr, ptr %_M_end_of_storage.i, align 8
  %cmp.not.i = icmp eq ptr %32, %33
  br i1 %cmp.not.i, label %if.else.i, label %if.then.i

if.then.i:                                        ; preds = %do.end74
  %34 = load ptr, ptr %21, align 8
  %_M_end_of_storage4.i.i.i.i.i.i.i = getelementptr inbounds %"class.grpc_core::ChannelInit::FilterRegistration", ptr %21, i64 0, i32 3, i32 0, i32 0, i32 0, i32 2
  %35 = load ptr, ptr %_M_end_of_storage4.i.i.i.i.i.i.i, align 8
  %agg.tmp6.sroa.2.0..sroa_idx.i.i.i = getelementptr inbounds %"class.grpc_core::ChannelInit::FilterRegistration", ptr %21, i64 0, i32 7, i32 1
  %predicates3.i.i.i.i = getelementptr inbounds %"struct.grpc_core::ChannelInit::Filter", ptr %32, i64 0, i32 1
  %36 = load <2 x ptr>, ptr %predicates_, align 8
  call void @llvm.memset.p0.i64(ptr noundef nonnull align 8 dereferenceable(24) %predicates_, i8 0, i64 24, i1 false)
  %agg.tmp6.sroa.0.0.copyload.i.i.i = load ptr, ptr %registration_source_79, align 8
  %agg.tmp6.sroa.2.0.copyload.i.i.i = load i32, ptr %agg.tmp6.sroa.2.0..sroa_idx.i.i.i, align 8
  store ptr %34, ptr %32, align 8
  store <2 x ptr> %36, ptr %predicates3.i.i.i.i, align 8
  %_M_end_of_storage.i.i.i.i.i.i.i.i = getelementptr inbounds %"struct.grpc_core::ChannelInit::Filter", ptr %32, i64 0, i32 1, i32 0, i32 0, i32 0, i32 2
  store ptr %35, ptr %_M_end_of_storage.i.i.i.i.i.i.i.i, align 8
  %registration_source4.i.i.i.i = getelementptr inbounds %"struct.grpc_core::ChannelInit::Filter", ptr %32, i64 0, i32 2
  store ptr %agg.tmp6.sroa.0.0.copyload.i.i.i, ptr %registration_source4.i.i.i.i, align 8
  %registration_source.sroa.2.0.registration_source4.sroa_idx.i.i.i.i = getelementptr inbounds %"struct.grpc_core::ChannelInit::Filter", ptr %32, i64 0, i32 2, i32 1
  store i32 %agg.tmp6.sroa.2.0.copyload.i.i.i, ptr %registration_source.sroa.2.0.registration_source4.sroa_idx.i.i.i.i, align 8
  %37 = load ptr, ptr %_M_finish.i98, align 8
  %incdec.ptr.i = getelementptr inbounds %"struct.grpc_core::ChannelInit::Filter", ptr %37, i64 1
  store ptr %incdec.ptr.i, ptr %_M_finish.i98, align 8
  br label %for.inc

if.else.i:                                        ; preds = %do.end74
  invoke void @_ZNSt6vectorIN9grpc_core11ChannelInit6FilterESaIS2_EE17_M_realloc_insertIJRKPK19grpc_channel_filterS_IN4absl12lts_2023080212AnyInvocableIKFbRKNS0_11ChannelArgsEEEESaISI_EERNS0_14SourceLocationEEEEvN9__gnu_cxx17__normal_iteratorIPS2_S4_EEDpOT_(ptr noundef nonnull align 8 dereferenceable(24) %terminal_filters, ptr %32, ptr noundef nonnull align 8 dereferenceable(8) %21, ptr noundef nonnull align 8 dereferenceable(24) %predicates_, ptr noundef nonnull align 8 dereferenceable(12) %registration_source_79)
          to label %for.inc unwind label %lpad.loopexit.split-lp742.loopexit.split-lp.loopexit.split-lp.loopexit.split-lp.loopexit.split-lp.loopexit.split-lp.loopexit

if.else:                                          ; preds = %invoke.cont47
  %call85 = invoke fastcc noundef nonnull align 8 dereferenceable(48) ptr @_ZNSt3mapIPK19grpc_channel_filterSt3setIS2_N9grpc_core12_GLOBAL__N_127CompareChannelFiltersByNameESaIS2_EES6_SaISt4pairIKS2_S8_EEEixERSA_(ptr noundef nonnull align 8 dereferenceable(48) %dependencies, ptr noundef nonnull align 8 dereferenceable(8) %21)
          to label %for.inc unwind label %lpad.loopexit.split-lp742.loopexit.split-lp.loopexit.split-lp.loopexit.split-lp.loopexit.split-lp.loopexit.split-lp.loopexit

for.inc:                                          ; preds = %if.else.i, %if.then.i, %if.else
  %incdec.ptr.i100 = getelementptr inbounds %"class.std::unique_ptr", ptr %__begin1.sroa.0.0784, i64 1
  %cmp.i.not = icmp eq ptr %incdec.ptr.i100, %3
  br i1 %cmp.i.not, label %for.end, label %for.body

for.end:                                          ; preds = %for.inc
  %.pre = load ptr, ptr %registrations, align 8
  %.pre831 = load ptr, ptr %_M_finish.i, align 8
  %cmp.i102.not791 = icmp eq ptr %.pre, %.pre831
  br i1 %cmp.i102.not791, label %for.end254, label %for.body97.lr.ph

for.body97.lr.ph:                                 ; preds = %for.end
  %38 = getelementptr inbounds { i64, ptr }, ptr %ref.tmp.i, i64 0, i32 1
  %arrayinit.element.i = getelementptr inbounds %"class.std::basic_string_view", ptr %ref.tmp.i, i64 1
  %39 = getelementptr inbounds %"class.std::basic_string_view", ptr %ref.tmp.i, i64 1, i32 1
  %arrayinit.element2.i = getelementptr inbounds %"class.std::basic_string_view", ptr %ref.tmp.i, i64 2
  %40 = getelementptr inbounds %"class.std::basic_string_view", ptr %ref.tmp.i, i64 2, i32 1
  %arrayinit.element4.i = getelementptr inbounds %"class.std::basic_string_view", ptr %ref.tmp.i, i64 3
  %41 = getelementptr inbounds %"class.std::basic_string_view", ptr %ref.tmp.i, i64 3, i32 1
  %arrayinit.element6.i = getelementptr inbounds %"class.std::basic_string_view", ptr %ref.tmp.i, i64 4
  %42 = getelementptr inbounds %"class.std::basic_string_view", ptr %ref.tmp.i, i64 4, i32 1
  %arrayinit.element8.i = getelementptr inbounds %"class.std::basic_string_view", ptr %ref.tmp.i, i64 5
  %43 = getelementptr inbounds %"class.std::basic_string_view", ptr %ref.tmp.i, i64 5, i32 1
  %44 = getelementptr inbounds { i64, ptr }, ptr %ref.tmp.i235, i64 0, i32 1
  %arrayinit.element.i239 = getelementptr inbounds %"class.std::basic_string_view", ptr %ref.tmp.i235, i64 1
  %45 = getelementptr inbounds %"class.std::basic_string_view", ptr %ref.tmp.i235, i64 1, i32 1
  %arrayinit.element2.i243 = getelementptr inbounds %"class.std::basic_string_view", ptr %ref.tmp.i235, i64 2
  %46 = getelementptr inbounds %"class.std::basic_string_view", ptr %ref.tmp.i235, i64 2, i32 1
  %arrayinit.element4.i247 = getelementptr inbounds %"class.std::basic_string_view", ptr %ref.tmp.i235, i64 3
  %47 = getelementptr inbounds %"class.std::basic_string_view", ptr %ref.tmp.i235, i64 3, i32 1
  %arrayinit.element6.i251 = getelementptr inbounds %"class.std::basic_string_view", ptr %ref.tmp.i235, i64 4
  %48 = getelementptr inbounds %"class.std::basic_string_view", ptr %ref.tmp.i235, i64 4, i32 1
  %arrayinit.element8.i260 = getelementptr inbounds %"class.std::basic_string_view", ptr %ref.tmp.i235, i64 5
  %49 = getelementptr inbounds %"class.std::basic_string_view", ptr %ref.tmp.i235, i64 5, i32 1
  br label %for.body97

for.body97:                                       ; preds = %for.body97.lr.ph, %for.inc252
  %__begin189.sroa.0.0792 = phi ptr [ %.pre, %for.body97.lr.ph ], [ %incdec.ptr.i379, %for.inc252 ]
  %50 = load ptr, ptr %__begin189.sroa.0.0792, align 8
  %terminal_101 = getelementptr inbounds %"class.grpc_core::ChannelInit::FilterRegistration", ptr %50, i64 0, i32 4
  %51 = load i8, ptr %terminal_101, align 8
  %52 = and i8 %51, 1
  %tobool102.not = icmp eq i8 %52, 0
  br i1 %tobool102.not, label %do.body105, label %for.inc252

do.body105:                                       ; preds = %for.body97
  %53 = load ptr, ptr %_M_parent.i.i.i.i.i, align 8
  %cmp.not5.i.i.i105 = icmp eq ptr %53, null
  br i1 %cmp.not5.i.i.i105, label %if.then53.invoke, label %while.body.lr.ph.i.i.i106

while.body.lr.ph.i.i.i106:                        ; preds = %do.body105
  %54 = load ptr, ptr %50, align 8
  br label %while.body.i.i.i107

while.body.i.i.i107:                              ; preds = %while.body.i.i.i107, %while.body.lr.ph.i.i.i106
  %__x.addr.07.i.i.i108 = phi ptr [ %53, %while.body.lr.ph.i.i.i106 ], [ %__x.addr.1.i.i.i116, %while.body.i.i.i107 ]
  %__y.addr.06.i.i.i109 = phi ptr [ %0, %while.body.lr.ph.i.i.i106 ], [ %__y.addr.1.i.i.i114, %while.body.i.i.i107 ]
  %_M_storage.i.i.i.i.i110 = getelementptr inbounds %"struct.std::_Rb_tree_node.81", ptr %__x.addr.07.i.i.i108, i64 0, i32 1
  %55 = load ptr, ptr %_M_storage.i.i.i.i.i110, align 8
  %cmp.i.i.i.i111 = icmp ult ptr %55, %54
  %_M_right.i.i.i.i112 = getelementptr inbounds %"struct.std::_Rb_tree_node_base", ptr %__x.addr.07.i.i.i108, i64 0, i32 3
  %_M_left.i.i.i.i113 = getelementptr inbounds %"struct.std::_Rb_tree_node_base", ptr %__x.addr.07.i.i.i108, i64 0, i32 2
  %__y.addr.1.i.i.i114 = select i1 %cmp.i.i.i.i111, ptr %__y.addr.06.i.i.i109, ptr %__x.addr.07.i.i.i108
  %__x.addr.1.in.i.i.i115 = select i1 %cmp.i.i.i.i111, ptr %_M_right.i.i.i.i112, ptr %_M_left.i.i.i.i113
  %__x.addr.1.i.i.i116 = load ptr, ptr %__x.addr.1.in.i.i.i115, align 8
  %cmp.not.i.i.i117 = icmp eq ptr %__x.addr.1.i.i.i116, null
  br i1 %cmp.not.i.i.i117, label %_ZNKSt8_Rb_treeIPK19grpc_channel_filterSt4pairIKS2_PN9grpc_core11ChannelInit18FilterRegistrationEESt10_Select1stIS9_ESt4lessIS2_ESaIS9_EE14_M_lower_boundEPKSt13_Rb_tree_nodeIS9_EPKSt18_Rb_tree_node_baseRS4_.exit.i.i118, label %while.body.i.i.i107, !llvm.loop !21

_ZNKSt8_Rb_treeIPK19grpc_channel_filterSt4pairIKS2_PN9grpc_core11ChannelInit18FilterRegistrationEESt10_Select1stIS9_ESt4lessIS2_ESaIS9_EE14_M_lower_boundEPKSt13_Rb_tree_nodeIS9_EPKSt18_Rb_tree_node_baseRS4_.exit.i.i118: ; preds = %while.body.i.i.i107
  %cmp.i.i.i119 = icmp eq ptr %__y.addr.1.i.i.i114, %0
  br i1 %cmp.i.i.i119, label %if.then53.invoke, label %invoke.cont108

invoke.cont108:                                   ; preds = %_ZNKSt8_Rb_treeIPK19grpc_channel_filterSt4pairIKS2_PN9grpc_core11ChannelInit18FilterRegistrationEESt10_Select1stIS9_ESt4lessIS2_ESaIS9_EE14_M_lower_boundEPKSt13_Rb_tree_nodeIS9_EPKSt18_Rb_tree_node_baseRS4_.exit.i.i118
  %_M_storage.i.i.i.i.i110.le = getelementptr inbounds %"struct.std::_Rb_tree_node.81", ptr %__x.addr.07.i.i.i108, i64 0, i32 1
  %__y.addr.06.i.i.i109.sroa.gep = getelementptr inbounds %"struct.std::_Rb_tree_node.81", ptr %__y.addr.06.i.i.i109, i64 0, i32 1
  %__y.addr.1.i.i.i114.sroa.sel = select i1 %cmp.i.i.i.i111, ptr %__y.addr.06.i.i.i109.sroa.gep, ptr %_M_storage.i.i.i.i.i110.le
  %56 = load ptr, ptr %__y.addr.1.i.i.i114.sroa.sel, align 8
  %cmp.i4.i.i122.not = icmp ult ptr %54, %56
  br i1 %cmp.i4.i.i122.not, label %if.then53.invoke, label %do.end116

do.end116:                                        ; preds = %invoke.cont108
  %after_118 = getelementptr inbounds %"class.grpc_core::ChannelInit::FilterRegistration", ptr %50, i64 0, i32 1
  %57 = load ptr, ptr %after_118, align 8
  %_M_finish.i128 = getelementptr inbounds %"class.grpc_core::ChannelInit::FilterRegistration", ptr %50, i64 0, i32 1, i32 0, i32 0, i32 0, i32 1
  %58 = load ptr, ptr %_M_finish.i128, align 8
  %cmp.i129.not785 = icmp eq ptr %57, %58
  br i1 %cmp.i129.not785, label %for.end164, label %for.body125

for.body125:                                      ; preds = %do.end116, %for.inc162
  %__begin2.sroa.0.0786 = phi ptr [ %incdec.ptr.i188, %for.inc162 ], [ %57, %do.end116 ]
  %59 = load ptr, ptr %__begin2.sroa.0.0786, align 8
  %60 = load ptr, ptr %_M_parent.i.i.i.i.i, align 8
  %cmp.not5.i.i.i132 = icmp eq ptr %60, null
  br i1 %cmp.not5.i.i.i132, label %invoke.cont133, label %while.body.i.i.i134

while.body.i.i.i134:                              ; preds = %for.body125, %while.body.i.i.i134
  %__x.addr.07.i.i.i135 = phi ptr [ %__x.addr.1.i.i.i143, %while.body.i.i.i134 ], [ %60, %for.body125 ]
  %__y.addr.06.i.i.i136 = phi ptr [ %__y.addr.1.i.i.i141, %while.body.i.i.i134 ], [ %0, %for.body125 ]
  %_M_storage.i.i.i.i.i137 = getelementptr inbounds %"struct.std::_Rb_tree_node.81", ptr %__x.addr.07.i.i.i135, i64 0, i32 1
  %61 = load ptr, ptr %_M_storage.i.i.i.i.i137, align 8
  %cmp.i.i.i.i138 = icmp ult ptr %61, %59
  %_M_right.i.i.i.i139 = getelementptr inbounds %"struct.std::_Rb_tree_node_base", ptr %__x.addr.07.i.i.i135, i64 0, i32 3
  %_M_left.i.i.i.i140 = getelementptr inbounds %"struct.std::_Rb_tree_node_base", ptr %__x.addr.07.i.i.i135, i64 0, i32 2
  %__y.addr.1.i.i.i141 = select i1 %cmp.i.i.i.i138, ptr %__y.addr.06.i.i.i136, ptr %__x.addr.07.i.i.i135
  %__x.addr.1.in.i.i.i142 = select i1 %cmp.i.i.i.i138, ptr %_M_right.i.i.i.i139, ptr %_M_left.i.i.i.i140
  %__x.addr.1.i.i.i143 = load ptr, ptr %__x.addr.1.in.i.i.i142, align 8
  %cmp.not.i.i.i144 = icmp eq ptr %__x.addr.1.i.i.i143, null
  br i1 %cmp.not.i.i.i144, label %_ZNKSt8_Rb_treeIPK19grpc_channel_filterSt4pairIKS2_PN9grpc_core11ChannelInit18FilterRegistrationEESt10_Select1stIS9_ESt4lessIS2_ESaIS9_EE14_M_lower_boundEPKSt13_Rb_tree_nodeIS9_EPKSt18_Rb_tree_node_baseRS4_.exit.i.i145, label %while.body.i.i.i134, !llvm.loop !21

_ZNKSt8_Rb_treeIPK19grpc_channel_filterSt4pairIKS2_PN9grpc_core11ChannelInit18FilterRegistrationEESt10_Select1stIS9_ESt4lessIS2_ESaIS9_EE14_M_lower_boundEPKSt13_Rb_tree_nodeIS9_EPKSt18_Rb_tree_node_baseRS4_.exit.i.i145: ; preds = %while.body.i.i.i134
  %cmp.i.i.i146 = icmp eq ptr %__y.addr.1.i.i.i141, %0
  br i1 %cmp.i.i.i146, label %invoke.cont133, label %invoke.cont127

invoke.cont127:                                   ; preds = %_ZNKSt8_Rb_treeIPK19grpc_channel_filterSt4pairIKS2_PN9grpc_core11ChannelInit18FilterRegistrationEESt10_Select1stIS9_ESt4lessIS2_ESaIS9_EE14_M_lower_boundEPKSt13_Rb_tree_nodeIS9_EPKSt18_Rb_tree_node_baseRS4_.exit.i.i145
  %_M_storage.i.i.i.i.i137.le = getelementptr inbounds %"struct.std::_Rb_tree_node.81", ptr %__x.addr.07.i.i.i135, i64 0, i32 1
  %__y.addr.06.i.i.i136.sroa.gep = getelementptr inbounds %"struct.std::_Rb_tree_node.81", ptr %__y.addr.06.i.i.i136, i64 0, i32 1
  %__y.addr.1.i.i.i141.sroa.sel = select i1 %cmp.i.i.i.i138, ptr %__y.addr.06.i.i.i136.sroa.gep, ptr %_M_storage.i.i.i.i.i137.le
  %62 = load ptr, ptr %__y.addr.1.i.i.i141.sroa.sel, align 8
  %cmp.i4.i.i149.not = icmp ult ptr %59, %62
  br i1 %cmp.i4.i.i149.not, label %invoke.cont133, label %if.end155

invoke.cont133:                                   ; preds = %for.body125, %_ZNKSt8_Rb_treeIPK19grpc_channel_filterSt4pairIKS2_PN9grpc_core11ChannelInit18FilterRegistrationEESt10_Select1stIS9_ESt4lessIS2_ESaIS9_EE14_M_lower_boundEPKSt13_Rb_tree_nodeIS9_EPKSt18_Rb_tree_node_baseRS4_.exit.i.i145, %invoke.cont127
  %63 = load ptr, ptr @_ZN9grpc_core21NameFromChannelFilterE, align 8
  %call136 = invoke noundef ptr %63(ptr noundef %59)
          to label %invoke.cont135 unwind label %lpad.loopexit.split-lp742.loopexit.split-lp.loopexit.split-lp.loopexit.split-lp.loopexit.split-lp.loopexit

invoke.cont135:                                   ; preds = %invoke.cont133
  %tobool.not.i.i158 = icmp eq ptr %call136, null
  br i1 %tobool.not.i.i158, label %invoke.cont139, label %cond.true.i.i159

cond.true.i.i159:                                 ; preds = %invoke.cont135
  %call.i.i.i.i160 = call noundef i64 @strlen(ptr noundef nonnull dereferenceable(1) %call136) #21
  br label %invoke.cont139

invoke.cont139:                                   ; preds = %invoke.cont135, %cond.true.i.i159
  %retval.sroa.0.0.i.i161 = phi i64 [ %call.i.i.i.i160, %cond.true.i.i159 ], [ 0, %invoke.cont135 ]
  %64 = load ptr, ptr @_ZN9grpc_core21NameFromChannelFilterE, align 8
  %65 = load ptr, ptr %__begin189.sroa.0.0792, align 8
  %66 = load ptr, ptr %65, align 8
  %call144 = invoke noundef ptr %64(ptr noundef %66)
          to label %invoke.cont143 unwind label %lpad.loopexit.split-lp742.loopexit.split-lp.loopexit.split-lp.loopexit.split-lp.loopexit.split-lp.loopexit

invoke.cont143:                                   ; preds = %invoke.cont139
  %tobool.not.i.i166 = icmp eq ptr %call144, null
  br i1 %tobool.not.i.i166, label %invoke.cont147, label %cond.true.i.i167

cond.true.i.i167:                                 ; preds = %invoke.cont143
  %call.i.i.i.i168 = call noundef i64 @strlen(ptr noundef nonnull dereferenceable(1) %call144) #21
  br label %invoke.cont147

invoke.cont147:                                   ; preds = %invoke.cont143, %cond.true.i.i167
  %retval.sroa.0.0.i.i169 = phi i64 [ %call.i.i.i.i168, %cond.true.i.i167 ], [ 0, %invoke.cont143 ]
  %call150 = invoke noundef ptr @_Z30grpc_channel_stack_type_string23grpc_channel_stack_type(i32 noundef %type)
          to label %invoke.cont149 unwind label %lpad.loopexit.split-lp742.loopexit.split-lp.loopexit.split-lp.loopexit.split-lp.loopexit.split-lp.loopexit

invoke.cont149:                                   ; preds = %invoke.cont147
  call void @llvm.lifetime.start.p0(i64 96, ptr nonnull %ref.tmp.i)
  store i64 7, ptr %ref.tmp.i, align 8, !noalias !22
  store ptr @.str.10, ptr %38, align 8, !noalias !22
  store i64 %retval.sroa.0.0.i.i161, ptr %arrayinit.element.i, align 8, !noalias !22
  store ptr %call136, ptr %39, align 8, !noalias !22
  store i64 58, ptr %arrayinit.element2.i, align 8, !noalias !22
  store ptr @.str.11, ptr %40, align 8, !noalias !22
  store i64 %retval.sroa.0.0.i.i169, ptr %arrayinit.element4.i, align 8, !noalias !22
  store ptr %call144, ptr %41, align 8, !noalias !22
  store i64 29, ptr %arrayinit.element6.i, align 8, !noalias !22
  store ptr @.str.12, ptr %42, align 8, !noalias !22
  %tobool.not.i.i.i = icmp eq ptr %call150, null
  br i1 %tobool.not.i.i.i, label %_ZN4absl12lts_202308028AlphaNumC2EPKc.exit.i, label %cond.true.i.i.i

cond.true.i.i.i:                                  ; preds = %invoke.cont149
  %call.i.i.i.i.i = call noundef i64 @strlen(ptr noundef nonnull dereferenceable(1) %call150) #21, !noalias !22
  br label %_ZN4absl12lts_202308028AlphaNumC2EPKc.exit.i

_ZN4absl12lts_202308028AlphaNumC2EPKc.exit.i:     ; preds = %cond.true.i.i.i, %invoke.cont149
  %retval.sroa.0.0.i.i.i = phi i64 [ %call.i.i.i.i.i, %cond.true.i.i.i ], [ 0, %invoke.cont149 ]
  store i64 %retval.sroa.0.0.i.i.i, ptr %arrayinit.element8.i, align 8, !noalias !22
  store ptr %call150, ptr %43, align 8, !noalias !22
  invoke void @_ZN4absl12lts_2023080216strings_internal9CatPiecesB5cxx11ESt16initializer_listISt17basic_string_viewIcSt11char_traitsIcEEE(ptr nonnull sret(%"class.std::__cxx11::basic_string") align 8 %ref.tmp131, ptr nonnull %ref.tmp.i, i64 6)
          to label %invoke.cont151 unwind label %lpad.loopexit.split-lp742.loopexit.split-lp.loopexit.split-lp.loopexit.split-lp.loopexit.split-lp.loopexit

invoke.cont151:                                   ; preds = %_ZN4absl12lts_202308028AlphaNumC2EPKc.exit.i
  call void @llvm.lifetime.end.p0(i64 96, ptr nonnull %ref.tmp.i)
  %call152 = call noundef ptr @_ZNKSt7__cxx1112basic_stringIcSt11char_traitsIcESaIcEE5c_strEv(ptr noundef nonnull align 8 dereferenceable(32) %ref.tmp131) #21
  invoke void (ptr, i32, i32, ptr, ...) @gpr_log(ptr noundef nonnull @.str.4, i32 noundef 157, i32 noundef 0, ptr noundef nonnull @.str.9, ptr noundef %call152)
          to label %invoke.cont154 unwind label %lpad153

invoke.cont154:                                   ; preds = %invoke.cont151
  call void @_ZNSt7__cxx1112basic_stringIcSt11char_traitsIcESaIcEED1Ev(ptr noundef nonnull align 8 dereferenceable(32) %ref.tmp131) #21
  br label %for.inc162

lpad153:                                          ; preds = %invoke.cont151
  %67 = landingpad { ptr, i32 }
          cleanup
  call void @_ZNSt7__cxx1112basic_stringIcSt11char_traitsIcESaIcEED1Ev(ptr noundef nonnull align 8 dereferenceable(32) %ref.tmp131) #21
  br label %ehcleanup524

if.end155:                                        ; preds = %invoke.cont127
  %68 = load ptr, ptr %__begin189.sroa.0.0792, align 8
  %call159 = invoke fastcc noundef nonnull align 8 dereferenceable(48) ptr @_ZNSt3mapIPK19grpc_channel_filterSt3setIS2_N9grpc_core12_GLOBAL__N_127CompareChannelFiltersByNameESaIS2_EES6_SaISt4pairIKS2_S8_EEEixERSA_(ptr noundef nonnull align 8 dereferenceable(48) %dependencies, ptr noundef nonnull align 8 dereferenceable(8) %68)
          to label %invoke.cont158 unwind label %lpad.loopexit.split-lp742.loopexit.split-lp.loopexit.split-lp.loopexit.split-lp.loopexit.split-lp.loopexit

invoke.cont158:                                   ; preds = %if.end155
  %69 = getelementptr inbounds i8, ptr %call159, i64 16
  %add.ptr.i.i.i.i = getelementptr inbounds i8, ptr %call159, i64 8
  %__x.024.i.i.i = load ptr, ptr %69, align 8
  %cmp.not25.i.i.i = icmp eq ptr %__x.024.i.i.i, null
  br i1 %cmp.not25.i.i.i, label %if.then.i.i.i, label %while.body.i.i.i175

while.body.i.i.i175:                              ; preds = %invoke.cont158, %call2.i.i.i.i.noexc
  %__x.026.i.i.i = phi ptr [ %__x.0.i.i.i, %call2.i.i.i.i.noexc ], [ %__x.024.i.i.i, %invoke.cont158 ]
  %_M_storage.i.i.i.i.i176 = getelementptr inbounds %"struct.std::_Rb_tree_node.69", ptr %__x.026.i.i.i, i64 0, i32 1
  %70 = load ptr, ptr %_M_storage.i.i.i.i.i176, align 8
  %71 = load ptr, ptr @_ZN9grpc_core21NameFromChannelFilterE, align 8
  %call.i.i.i.i177181 = invoke noundef ptr %71(ptr noundef %59)
          to label %call.i.i.i.i177.noexc unwind label %lpad.loopexit.split-lp742.loopexit.split-lp.loopexit

call.i.i.i.i177.noexc:                            ; preds = %while.body.i.i.i175
  %72 = load ptr, ptr @_ZN9grpc_core21NameFromChannelFilterE, align 8
  %call2.i.i.i.i182 = invoke noundef ptr %72(ptr noundef %70)
          to label %call2.i.i.i.i.noexc unwind label %lpad.loopexit.split-lp742.loopexit.split-lp.loopexit

call2.i.i.i.i.noexc:                              ; preds = %call.i.i.i.i177.noexc
  %call3.i.i.i.i = call i32 @strcmp(ptr noundef nonnull dereferenceable(1) %call.i.i.i.i177181, ptr noundef nonnull dereferenceable(1) %call2.i.i.i.i182) #23
  %cmp.i.i.i.i178 = icmp slt i32 %call3.i.i.i.i, 0
  %cond.in.v.i.i.i = select i1 %cmp.i.i.i.i178, i64 16, i64 24
  %cond.in.i.i.i = getelementptr i8, ptr %__x.026.i.i.i, i64 %cond.in.v.i.i.i
  %__x.0.i.i.i = load ptr, ptr %cond.in.i.i.i, align 8
  %cmp.not.i.i.i179 = icmp eq ptr %__x.0.i.i.i, null
  br i1 %cmp.not.i.i.i179, label %while.end.i.i.i, label %while.body.i.i.i175, !llvm.loop !25

while.end.i.i.i:                                  ; preds = %call2.i.i.i.i.noexc
  br i1 %cmp.i.i.i.i178, label %if.then.i.i.i, label %if.end12.i.i.i

if.then.i.i.i:                                    ; preds = %while.end.i.i.i, %invoke.cont158
  %__y.0.lcssa30.i.i.i = phi ptr [ %__x.026.i.i.i, %while.end.i.i.i ], [ %add.ptr.i.i.i.i, %invoke.cont158 ]
  %73 = getelementptr inbounds i8, ptr %call159, i64 24
  %this.val4.i.i.i = load ptr, ptr %73, align 8
  %cmp.i5.i.i.i = icmp eq ptr %__y.0.lcssa30.i.i.i, %this.val4.i.i.i
  br i1 %cmp.i5.i.i.i, label %if.then.i.i, label %if.else.i.i.i

if.else.i.i.i:                                    ; preds = %if.then.i.i.i
  %call.i6.i.i.i = call noundef ptr @_ZSt18_Rb_tree_decrementPSt18_Rb_tree_node_base(ptr noundef nonnull %__y.0.lcssa30.i.i.i) #23
  br label %if.end12.i.i.i

if.end12.i.i.i:                                   ; preds = %if.else.i.i.i, %while.end.i.i.i
  %__y.0.lcssa31.i.i.i = phi ptr [ %__y.0.lcssa30.i.i.i, %if.else.i.i.i ], [ %__x.026.i.i.i, %while.end.i.i.i ]
  %__j.sroa.0.0.i.i.i = phi ptr [ %call.i6.i.i.i, %if.else.i.i.i ], [ %__x.026.i.i.i, %while.end.i.i.i ]
  %_M_storage.i.i.i.i.i.i = getelementptr inbounds %"struct.std::_Rb_tree_node.69", ptr %__j.sroa.0.0.i.i.i, i64 0, i32 1
  %74 = load ptr, ptr %_M_storage.i.i.i.i.i.i, align 8
  %75 = load ptr, ptr @_ZN9grpc_core21NameFromChannelFilterE, align 8
  %call.i7.i.i.i183 = invoke noundef ptr %75(ptr noundef %74)
          to label %call.i7.i.i.i.noexc unwind label %lpad.loopexit.split-lp742.loopexit.split-lp.loopexit.split-lp.loopexit.split-lp.loopexit.split-lp.loopexit

call.i7.i.i.i.noexc:                              ; preds = %if.end12.i.i.i
  %76 = load ptr, ptr @_ZN9grpc_core21NameFromChannelFilterE, align 8
  %call2.i8.i.i.i184 = invoke noundef ptr %76(ptr noundef %59)
          to label %call2.i8.i.i.i.noexc unwind label %lpad.loopexit.split-lp742.loopexit.split-lp.loopexit.split-lp.loopexit.split-lp.loopexit.split-lp.loopexit

call2.i8.i.i.i.noexc:                             ; preds = %call.i7.i.i.i.noexc
  %call3.i9.i.i.i = call i32 @strcmp(ptr noundef nonnull dereferenceable(1) %call.i7.i.i.i183, ptr noundef nonnull dereferenceable(1) %call2.i8.i.i.i184) #23
  %cmp.i10.i.i.i = icmp slt i32 %call3.i9.i.i.i, 0
  br i1 %cmp.i10.i.i.i, label %if.then.i.i, label %for.inc162

if.then.i.i:                                      ; preds = %call2.i8.i.i.i.noexc, %if.then.i.i.i
  %retval.sroa.4.0.i.ph.i.i = phi ptr [ %__y.0.lcssa30.i.i.i, %if.then.i.i.i ], [ %__y.0.lcssa31.i.i.i, %call2.i8.i.i.i.noexc ]
  %cmp2.i.i.i = icmp eq ptr %add.ptr.i.i.i.i, %retval.sroa.4.0.i.ph.i.i
  br i1 %cmp2.i.i.i, label %_ZNSt8_Rb_treeIPK19grpc_channel_filterS2_St9_IdentityIS2_EN9grpc_core12_GLOBAL__N_127CompareChannelFiltersByNameESaIS2_EE10_M_insert_IRKS2_NS9_11_Alloc_nodeEEESt17_Rb_tree_iteratorIS2_EPSt18_Rb_tree_node_baseSH_OT_RT0_.exit.i.i, label %lor.rhs.i.i.i

lor.rhs.i.i.i:                                    ; preds = %if.then.i.i
  %_M_storage.i.i.i.i6.i.i = getelementptr inbounds %"struct.std::_Rb_tree_node.69", ptr %retval.sroa.4.0.i.ph.i.i, i64 0, i32 1
  %77 = load ptr, ptr %_M_storage.i.i.i.i6.i.i, align 8
  %78 = load ptr, ptr @_ZN9grpc_core21NameFromChannelFilterE, align 8
  %call.i.i7.i.i185 = invoke noundef ptr %78(ptr noundef %59)
          to label %call.i.i7.i.i.noexc unwind label %lpad.loopexit.split-lp742.loopexit.split-lp.loopexit.split-lp.loopexit.split-lp.loopexit.split-lp.loopexit

call.i.i7.i.i.noexc:                              ; preds = %lor.rhs.i.i.i
  %79 = load ptr, ptr @_ZN9grpc_core21NameFromChannelFilterE, align 8
  %call2.i.i8.i.i186 = invoke noundef ptr %79(ptr noundef %77)
          to label %call2.i.i8.i.i.noexc unwind label %lpad.loopexit.split-lp742.loopexit.split-lp.loopexit.split-lp.loopexit.split-lp.loopexit.split-lp.loopexit

call2.i.i8.i.i.noexc:                             ; preds = %call.i.i7.i.i.noexc
  %call3.i.i9.i.i = call i32 @strcmp(ptr noundef nonnull dereferenceable(1) %call.i.i7.i.i185, ptr noundef nonnull dereferenceable(1) %call2.i.i8.i.i186) #23
  %cmp.i.i10.i.i = icmp slt i32 %call3.i.i9.i.i, 0
  br label %_ZNSt8_Rb_treeIPK19grpc_channel_filterS2_St9_IdentityIS2_EN9grpc_core12_GLOBAL__N_127CompareChannelFiltersByNameESaIS2_EE10_M_insert_IRKS2_NS9_11_Alloc_nodeEEESt17_Rb_tree_iteratorIS2_EPSt18_Rb_tree_node_baseSH_OT_RT0_.exit.i.i

_ZNSt8_Rb_treeIPK19grpc_channel_filterS2_St9_IdentityIS2_EN9grpc_core12_GLOBAL__N_127CompareChannelFiltersByNameESaIS2_EE10_M_insert_IRKS2_NS9_11_Alloc_nodeEEESt17_Rb_tree_iteratorIS2_EPSt18_Rb_tree_node_baseSH_OT_RT0_.exit.i.i: ; preds = %call2.i.i8.i.i.noexc, %if.then.i.i
  %80 = phi i1 [ true, %if.then.i.i ], [ %cmp.i.i10.i.i, %call2.i.i8.i.i.noexc ]
  %call5.i.i.i.i.i.i.i.i187 = invoke noalias noundef nonnull dereferenceable(40) ptr @_Znwm(i64 noundef 40) #19
          to label %call5.i.i.i.i.i.i.i.i.noexc unwind label %lpad.loopexit.split-lp742.loopexit.split-lp.loopexit.split-lp.loopexit.split-lp.loopexit.split-lp.loopexit

call5.i.i.i.i.i.i.i.i.noexc:                      ; preds = %_ZNSt8_Rb_treeIPK19grpc_channel_filterS2_St9_IdentityIS2_EN9grpc_core12_GLOBAL__N_127CompareChannelFiltersByNameESaIS2_EE10_M_insert_IRKS2_NS9_11_Alloc_nodeEEESt17_Rb_tree_iteratorIS2_EPSt18_Rb_tree_node_baseSH_OT_RT0_.exit.i.i
  %_M_storage.i.i.i.i.i.i.i = getelementptr inbounds %"struct.std::_Rb_tree_node.69", ptr %call5.i.i.i.i.i.i.i.i187, i64 0, i32 1
  store ptr %59, ptr %_M_storage.i.i.i.i.i.i.i, align 8
  call void @_ZSt29_Rb_tree_insert_and_rebalancebPSt18_Rb_tree_node_baseS0_RS_(i1 noundef zeroext %80, ptr noundef nonnull %call5.i.i.i.i.i.i.i.i187, ptr noundef nonnull %retval.sroa.4.0.i.ph.i.i, ptr noundef nonnull align 8 dereferenceable(32) %add.ptr.i.i.i.i) #21
  %_M_node_count.i.i.i = getelementptr inbounds i8, ptr %call159, i64 40
  %81 = load i64, ptr %_M_node_count.i.i.i, align 8
  %inc.i.i.i = add i64 %81, 1
  store i64 %inc.i.i.i, ptr %_M_node_count.i.i.i, align 8
  br label %for.inc162

for.inc162:                                       ; preds = %call5.i.i.i.i.i.i.i.i.noexc, %call2.i8.i.i.i.noexc, %invoke.cont154
  %incdec.ptr.i188 = getelementptr inbounds ptr, ptr %__begin2.sroa.0.0786, i64 1
  %cmp.i129.not = icmp eq ptr %incdec.ptr.i188, %58
  br i1 %cmp.i129.not, label %for.end164.loopexit, label %for.body125

for.end164.loopexit:                              ; preds = %for.inc162
  %.pre832 = load ptr, ptr %__begin189.sroa.0.0792, align 8
  br label %for.end164

for.end164:                                       ; preds = %for.end164.loopexit, %do.end116
  %82 = phi ptr [ %.pre832, %for.end164.loopexit ], [ %50, %do.end116 ]
  %before_167 = getelementptr inbounds %"class.grpc_core::ChannelInit::FilterRegistration", ptr %82, i64 0, i32 2
  %83 = load ptr, ptr %before_167, align 8
  %_M_finish.i189 = getelementptr inbounds %"class.grpc_core::ChannelInit::FilterRegistration", ptr %82, i64 0, i32 2, i32 0, i32 0, i32 0, i32 1
  %84 = load ptr, ptr %_M_finish.i189, align 8
  %cmp.i190.not787 = icmp eq ptr %83, %84
  br i1 %cmp.i190.not787, label %for.end216, label %for.body176

for.body176:                                      ; preds = %for.end164, %for.inc214
  %__begin2168.sroa.0.0788 = phi ptr [ %incdec.ptr.i319, %for.inc214 ], [ %83, %for.end164 ]
  %85 = load ptr, ptr %__begin2168.sroa.0.0788, align 8
  store ptr %85, ptr %before, align 8
  %86 = load ptr, ptr %_M_parent.i.i.i.i.i, align 8
  %cmp.not5.i.i.i193 = icmp eq ptr %86, null
  br i1 %cmp.not5.i.i.i193, label %invoke.cont184, label %while.body.i.i.i195

while.body.i.i.i195:                              ; preds = %for.body176, %while.body.i.i.i195
  %__x.addr.07.i.i.i196 = phi ptr [ %__x.addr.1.i.i.i204, %while.body.i.i.i195 ], [ %86, %for.body176 ]
  %__y.addr.06.i.i.i197 = phi ptr [ %__y.addr.1.i.i.i202, %while.body.i.i.i195 ], [ %0, %for.body176 ]
  %_M_storage.i.i.i.i.i198 = getelementptr inbounds %"struct.std::_Rb_tree_node.81", ptr %__x.addr.07.i.i.i196, i64 0, i32 1
  %87 = load ptr, ptr %_M_storage.i.i.i.i.i198, align 8
  %cmp.i.i.i.i199 = icmp ult ptr %87, %85
  %_M_right.i.i.i.i200 = getelementptr inbounds %"struct.std::_Rb_tree_node_base", ptr %__x.addr.07.i.i.i196, i64 0, i32 3
  %_M_left.i.i.i.i201 = getelementptr inbounds %"struct.std::_Rb_tree_node_base", ptr %__x.addr.07.i.i.i196, i64 0, i32 2
  %__y.addr.1.i.i.i202 = select i1 %cmp.i.i.i.i199, ptr %__y.addr.06.i.i.i197, ptr %__x.addr.07.i.i.i196
  %__x.addr.1.in.i.i.i203 = select i1 %cmp.i.i.i.i199, ptr %_M_right.i.i.i.i200, ptr %_M_left.i.i.i.i201
  %__x.addr.1.i.i.i204 = load ptr, ptr %__x.addr.1.in.i.i.i203, align 8
  %cmp.not.i.i.i205 = icmp eq ptr %__x.addr.1.i.i.i204, null
  br i1 %cmp.not.i.i.i205, label %_ZNKSt8_Rb_treeIPK19grpc_channel_filterSt4pairIKS2_PN9grpc_core11ChannelInit18FilterRegistrationEESt10_Select1stIS9_ESt4lessIS2_ESaIS9_EE14_M_lower_boundEPKSt13_Rb_tree_nodeIS9_EPKSt18_Rb_tree_node_baseRS4_.exit.i.i206, label %while.body.i.i.i195, !llvm.loop !21

_ZNKSt8_Rb_treeIPK19grpc_channel_filterSt4pairIKS2_PN9grpc_core11ChannelInit18FilterRegistrationEESt10_Select1stIS9_ESt4lessIS2_ESaIS9_EE14_M_lower_boundEPKSt13_Rb_tree_nodeIS9_EPKSt18_Rb_tree_node_baseRS4_.exit.i.i206: ; preds = %while.body.i.i.i195
  %cmp.i.i.i207 = icmp eq ptr %__y.addr.1.i.i.i202, %0
  br i1 %cmp.i.i.i207, label %invoke.cont184, label %invoke.cont178

invoke.cont178:                                   ; preds = %_ZNKSt8_Rb_treeIPK19grpc_channel_filterSt4pairIKS2_PN9grpc_core11ChannelInit18FilterRegistrationEESt10_Select1stIS9_ESt4lessIS2_ESaIS9_EE14_M_lower_boundEPKSt13_Rb_tree_nodeIS9_EPKSt18_Rb_tree_node_baseRS4_.exit.i.i206
  %_M_storage.i.i.i.i.i198.le = getelementptr inbounds %"struct.std::_Rb_tree_node.81", ptr %__x.addr.07.i.i.i196, i64 0, i32 1
  %__y.addr.06.i.i.i197.sroa.gep = getelementptr inbounds %"struct.std::_Rb_tree_node.81", ptr %__y.addr.06.i.i.i197, i64 0, i32 1
  %__y.addr.1.i.i.i202.sroa.sel = select i1 %cmp.i.i.i.i199, ptr %__y.addr.06.i.i.i197.sroa.gep, ptr %_M_storage.i.i.i.i.i198.le
  %88 = load ptr, ptr %__y.addr.1.i.i.i202.sroa.sel, align 8
  %cmp.i4.i.i210.not = icmp ult ptr %85, %88
  br i1 %cmp.i4.i.i210.not, label %invoke.cont184, label %if.end206

invoke.cont184:                                   ; preds = %for.body176, %_ZNKSt8_Rb_treeIPK19grpc_channel_filterSt4pairIKS2_PN9grpc_core11ChannelInit18FilterRegistrationEESt10_Select1stIS9_ESt4lessIS2_ESaIS9_EE14_M_lower_boundEPKSt13_Rb_tree_nodeIS9_EPKSt18_Rb_tree_node_baseRS4_.exit.i.i206, %invoke.cont178
  %89 = load ptr, ptr @_ZN9grpc_core21NameFromChannelFilterE, align 8
  %call187 = invoke noundef ptr %89(ptr noundef %85)
          to label %invoke.cont186 unwind label %lpad.loopexit.split-lp742.loopexit.split-lp.loopexit.split-lp.loopexit.split-lp.loopexit

invoke.cont186:                                   ; preds = %invoke.cont184
  %tobool.not.i.i219 = icmp eq ptr %call187, null
  br i1 %tobool.not.i.i219, label %invoke.cont190, label %cond.true.i.i220

cond.true.i.i220:                                 ; preds = %invoke.cont186
  %call.i.i.i.i221 = call noundef i64 @strlen(ptr noundef nonnull dereferenceable(1) %call187) #21
  br label %invoke.cont190

invoke.cont190:                                   ; preds = %invoke.cont186, %cond.true.i.i220
  %retval.sroa.0.0.i.i222 = phi i64 [ %call.i.i.i.i221, %cond.true.i.i220 ], [ 0, %invoke.cont186 ]
  %90 = load ptr, ptr @_ZN9grpc_core21NameFromChannelFilterE, align 8
  %91 = load ptr, ptr %__begin189.sroa.0.0792, align 8
  %92 = load ptr, ptr %91, align 8
  %call195 = invoke noundef ptr %90(ptr noundef %92)
          to label %invoke.cont194 unwind label %lpad.loopexit.split-lp742.loopexit.split-lp.loopexit.split-lp.loopexit.split-lp.loopexit

invoke.cont194:                                   ; preds = %invoke.cont190
  %tobool.not.i.i227 = icmp eq ptr %call195, null
  br i1 %tobool.not.i.i227, label %invoke.cont198, label %cond.true.i.i228

cond.true.i.i228:                                 ; preds = %invoke.cont194
  %call.i.i.i.i229 = call noundef i64 @strlen(ptr noundef nonnull dereferenceable(1) %call195) #21
  br label %invoke.cont198

invoke.cont198:                                   ; preds = %invoke.cont194, %cond.true.i.i228
  %retval.sroa.0.0.i.i230 = phi i64 [ %call.i.i.i.i229, %cond.true.i.i228 ], [ 0, %invoke.cont194 ]
  %call201 = invoke noundef ptr @_Z30grpc_channel_stack_type_string23grpc_channel_stack_type(i32 noundef %type)
          to label %invoke.cont200 unwind label %lpad.loopexit.split-lp742.loopexit.split-lp.loopexit.split-lp.loopexit.split-lp.loopexit

invoke.cont200:                                   ; preds = %invoke.cont198
  call void @llvm.lifetime.start.p0(i64 96, ptr nonnull %ref.tmp.i235)
  store i64 7, ptr %ref.tmp.i235, align 8, !noalias !26
  store ptr @.str.10, ptr %44, align 8, !noalias !26
  store i64 %retval.sroa.0.0.i.i222, ptr %arrayinit.element.i239, align 8, !noalias !26
  store ptr %call187, ptr %45, align 8, !noalias !26
  store i64 59, ptr %arrayinit.element2.i243, align 8, !noalias !26
  store ptr @.str.13, ptr %46, align 8, !noalias !26
  store i64 %retval.sroa.0.0.i.i230, ptr %arrayinit.element4.i247, align 8, !noalias !26
  store ptr %call195, ptr %47, align 8, !noalias !26
  store i64 29, ptr %arrayinit.element6.i251, align 8, !noalias !26
  store ptr @.str.12, ptr %48, align 8, !noalias !26
  %tobool.not.i.i.i255 = icmp eq ptr %call201, null
  br i1 %tobool.not.i.i.i255, label %_ZN4absl12lts_202308028AlphaNumC2EPKc.exit.i258, label %cond.true.i.i.i256

cond.true.i.i.i256:                               ; preds = %invoke.cont200
  %call.i.i.i.i.i257 = call noundef i64 @strlen(ptr noundef nonnull dereferenceable(1) %call201) #21, !noalias !26
  br label %_ZN4absl12lts_202308028AlphaNumC2EPKc.exit.i258

_ZN4absl12lts_202308028AlphaNumC2EPKc.exit.i258:  ; preds = %cond.true.i.i.i256, %invoke.cont200
  %retval.sroa.0.0.i.i.i259 = phi i64 [ %call.i.i.i.i.i257, %cond.true.i.i.i256 ], [ 0, %invoke.cont200 ]
  store i64 %retval.sroa.0.0.i.i.i259, ptr %arrayinit.element8.i260, align 8, !noalias !26
  store ptr %call201, ptr %49, align 8, !noalias !26
  invoke void @_ZN4absl12lts_2023080216strings_internal9CatPiecesB5cxx11ESt16initializer_listISt17basic_string_viewIcSt11char_traitsIcEEE(ptr nonnull sret(%"class.std::__cxx11::basic_string") align 8 %ref.tmp182, ptr nonnull %ref.tmp.i235, i64 6)
          to label %invoke.cont202 unwind label %lpad.loopexit.split-lp742.loopexit.split-lp.loopexit.split-lp.loopexit.split-lp.loopexit

invoke.cont202:                                   ; preds = %_ZN4absl12lts_202308028AlphaNumC2EPKc.exit.i258
  call void @llvm.lifetime.end.p0(i64 96, ptr nonnull %ref.tmp.i235)
  %call203 = call noundef ptr @_ZNKSt7__cxx1112basic_stringIcSt11char_traitsIcESaIcEE5c_strEv(ptr noundef nonnull align 8 dereferenceable(32) %ref.tmp182) #21
  invoke void (ptr, i32, i32, ptr, ...) @gpr_log(ptr noundef nonnull @.str.4, i32 noundef 172, i32 noundef 0, ptr noundef nonnull @.str.9, ptr noundef %call203)
          to label %invoke.cont205 unwind label %lpad204

invoke.cont205:                                   ; preds = %invoke.cont202
  call void @_ZNSt7__cxx1112basic_stringIcSt11char_traitsIcESaIcEED1Ev(ptr noundef nonnull align 8 dereferenceable(32) %ref.tmp182) #21
  br label %for.inc214

lpad204:                                          ; preds = %invoke.cont202
  %93 = landingpad { ptr, i32 }
          cleanup
  call void @_ZNSt7__cxx1112basic_stringIcSt11char_traitsIcESaIcEED1Ev(ptr noundef nonnull align 8 dereferenceable(32) %ref.tmp182) #21
  br label %ehcleanup524

if.end206:                                        ; preds = %invoke.cont178
  %call208 = invoke fastcc noundef nonnull align 8 dereferenceable(48) ptr @_ZNSt3mapIPK19grpc_channel_filterSt3setIS2_N9grpc_core12_GLOBAL__N_127CompareChannelFiltersByNameESaIS2_EES6_SaISt4pairIKS2_S8_EEEixERSA_(ptr noundef nonnull align 8 dereferenceable(48) %dependencies, ptr noundef nonnull align 8 dereferenceable(8) %before)
          to label %invoke.cont207 unwind label %lpad.loopexit.split-lp742.loopexit.split-lp.loopexit.split-lp.loopexit.split-lp.loopexit

invoke.cont207:                                   ; preds = %if.end206
  %94 = load ptr, ptr %__begin189.sroa.0.0792, align 8
  %95 = getelementptr inbounds i8, ptr %call208, i64 16
  %add.ptr.i.i.i.i263 = getelementptr inbounds i8, ptr %call208, i64 8
  %__x.024.i.i.i264 = load ptr, ptr %95, align 8
  %cmp.not25.i.i.i265 = icmp eq ptr %__x.024.i.i.i264, null
  br i1 %cmp.not25.i.i.i265, label %if.then.i.i.i299, label %while.body.i.i.i266

while.body.i.i.i266:                              ; preds = %invoke.cont207, %call2.i.i.i.i.noexc306
  %__x.026.i.i.i267 = phi ptr [ %__x.0.i.i.i274, %call2.i.i.i.i.noexc306 ], [ %__x.024.i.i.i264, %invoke.cont207 ]
  %96 = load ptr, ptr %94, align 8
  %_M_storage.i.i.i.i.i268 = getelementptr inbounds %"struct.std::_Rb_tree_node.69", ptr %__x.026.i.i.i267, i64 0, i32 1
  %97 = load ptr, ptr %_M_storage.i.i.i.i.i268, align 8
  %98 = load ptr, ptr @_ZN9grpc_core21NameFromChannelFilterE, align 8
  %call.i.i.i.i269305 = invoke noundef ptr %98(ptr noundef %96)
          to label %call.i.i.i.i269.noexc unwind label %lpad.loopexit.split-lp742.loopexit

call.i.i.i.i269.noexc:                            ; preds = %while.body.i.i.i266
  %99 = load ptr, ptr @_ZN9grpc_core21NameFromChannelFilterE, align 8
  %call2.i.i.i.i307 = invoke noundef ptr %99(ptr noundef %97)
          to label %call2.i.i.i.i.noexc306 unwind label %lpad.loopexit.split-lp742.loopexit

call2.i.i.i.i.noexc306:                           ; preds = %call.i.i.i.i269.noexc
  %call3.i.i.i.i270 = call i32 @strcmp(ptr noundef nonnull dereferenceable(1) %call.i.i.i.i269305, ptr noundef nonnull dereferenceable(1) %call2.i.i.i.i307) #23
  %cmp.i.i.i.i271 = icmp slt i32 %call3.i.i.i.i270, 0
  %cond.in.v.i.i.i272 = select i1 %cmp.i.i.i.i271, i64 16, i64 24
  %cond.in.i.i.i273 = getelementptr i8, ptr %__x.026.i.i.i267, i64 %cond.in.v.i.i.i272
  %__x.0.i.i.i274 = load ptr, ptr %cond.in.i.i.i273, align 8
  %cmp.not.i.i.i275 = icmp eq ptr %__x.0.i.i.i274, null
  br i1 %cmp.not.i.i.i275, label %while.end.i.i.i276, label %while.body.i.i.i266, !llvm.loop !25

while.end.i.i.i276:                               ; preds = %call2.i.i.i.i.noexc306
  br i1 %cmp.i.i.i.i271, label %if.then.i.i.i299, label %if.end12.i.i.i277

if.then.i.i.i299:                                 ; preds = %while.end.i.i.i276, %invoke.cont207
  %__y.0.lcssa30.i.i.i300 = phi ptr [ %__x.026.i.i.i267, %while.end.i.i.i276 ], [ %add.ptr.i.i.i.i263, %invoke.cont207 ]
  %100 = getelementptr inbounds i8, ptr %call208, i64 24
  %this.val4.i.i.i301 = load ptr, ptr %100, align 8
  %cmp.i5.i.i.i302 = icmp eq ptr %__y.0.lcssa30.i.i.i300, %this.val4.i.i.i301
  br i1 %cmp.i5.i.i.i302, label %if.then.i.i287, label %if.else.i.i.i303

if.else.i.i.i303:                                 ; preds = %if.then.i.i.i299
  %call.i6.i.i.i304 = call noundef ptr @_ZSt18_Rb_tree_decrementPSt18_Rb_tree_node_base(ptr noundef nonnull %__y.0.lcssa30.i.i.i300) #23
  br label %if.end12.i.i.i277

if.end12.i.i.i277:                                ; preds = %if.else.i.i.i303, %while.end.i.i.i276
  %__y.0.lcssa31.i.i.i278 = phi ptr [ %__y.0.lcssa30.i.i.i300, %if.else.i.i.i303 ], [ %__x.026.i.i.i267, %while.end.i.i.i276 ]
  %__j.sroa.0.0.i.i.i279 = phi ptr [ %call.i6.i.i.i304, %if.else.i.i.i303 ], [ %__x.026.i.i.i267, %while.end.i.i.i276 ]
  %_M_storage.i.i.i.i.i.i280 = getelementptr inbounds %"struct.std::_Rb_tree_node.69", ptr %__j.sroa.0.0.i.i.i279, i64 0, i32 1
  %101 = load ptr, ptr %_M_storage.i.i.i.i.i.i280, align 8
  %102 = load ptr, ptr %94, align 8
  %103 = load ptr, ptr @_ZN9grpc_core21NameFromChannelFilterE, align 8
  %call.i7.i.i.i309 = invoke noundef ptr %103(ptr noundef %101)
          to label %call.i7.i.i.i.noexc308 unwind label %lpad.loopexit.split-lp742.loopexit.split-lp.loopexit.split-lp.loopexit.split-lp.loopexit

call.i7.i.i.i.noexc308:                           ; preds = %if.end12.i.i.i277
  %104 = load ptr, ptr @_ZN9grpc_core21NameFromChannelFilterE, align 8
  %call2.i8.i.i.i311 = invoke noundef ptr %104(ptr noundef %102)
          to label %call2.i8.i.i.i.noexc310 unwind label %lpad.loopexit.split-lp742.loopexit.split-lp.loopexit.split-lp.loopexit.split-lp.loopexit

call2.i8.i.i.i.noexc310:                          ; preds = %call.i7.i.i.i.noexc308
  %call3.i9.i.i.i281 = call i32 @strcmp(ptr noundef nonnull dereferenceable(1) %call.i7.i.i.i309, ptr noundef nonnull dereferenceable(1) %call2.i8.i.i.i311) #23
  %cmp.i10.i.i.i282 = icmp slt i32 %call3.i9.i.i.i281, 0
  br i1 %cmp.i10.i.i.i282, label %if.then.i.i287, label %for.inc214

if.then.i.i287:                                   ; preds = %call2.i8.i.i.i.noexc310, %if.then.i.i.i299
  %retval.sroa.4.0.i.ph.i.i288 = phi ptr [ %__y.0.lcssa30.i.i.i300, %if.then.i.i.i299 ], [ %__y.0.lcssa31.i.i.i278, %call2.i8.i.i.i.noexc310 ]
  %cmp2.i.i.i289 = icmp eq ptr %add.ptr.i.i.i.i263, %retval.sroa.4.0.i.ph.i.i288
  br i1 %cmp2.i.i.i289, label %_ZNSt8_Rb_treeIPK19grpc_channel_filterS2_St9_IdentityIS2_EN9grpc_core12_GLOBAL__N_127CompareChannelFiltersByNameESaIS2_EE10_M_insert_IRKS2_NS9_11_Alloc_nodeEEESt17_Rb_tree_iteratorIS2_EPSt18_Rb_tree_node_baseSH_OT_RT0_.exit.i.i294, label %lor.rhs.i.i.i290

lor.rhs.i.i.i290:                                 ; preds = %if.then.i.i287
  %105 = load ptr, ptr %94, align 8
  %_M_storage.i.i.i.i6.i.i291 = getelementptr inbounds %"struct.std::_Rb_tree_node.69", ptr %retval.sroa.4.0.i.ph.i.i288, i64 0, i32 1
  %106 = load ptr, ptr %_M_storage.i.i.i.i6.i.i291, align 8
  %107 = load ptr, ptr @_ZN9grpc_core21NameFromChannelFilterE, align 8
  %call.i.i7.i.i313 = invoke noundef ptr %107(ptr noundef %105)
          to label %call.i.i7.i.i.noexc312 unwind label %lpad.loopexit.split-lp742.loopexit.split-lp.loopexit.split-lp.loopexit.split-lp.loopexit

call.i.i7.i.i.noexc312:                           ; preds = %lor.rhs.i.i.i290
  %108 = load ptr, ptr @_ZN9grpc_core21NameFromChannelFilterE, align 8
  %call2.i.i8.i.i315 = invoke noundef ptr %108(ptr noundef %106)
          to label %call2.i.i8.i.i.noexc314 unwind label %lpad.loopexit.split-lp742.loopexit.split-lp.loopexit.split-lp.loopexit.split-lp.loopexit

call2.i.i8.i.i.noexc314:                          ; preds = %call.i.i7.i.i.noexc312
  %call3.i.i9.i.i292 = call i32 @strcmp(ptr noundef nonnull dereferenceable(1) %call.i.i7.i.i313, ptr noundef nonnull dereferenceable(1) %call2.i.i8.i.i315) #23
  %cmp.i.i10.i.i293 = icmp slt i32 %call3.i.i9.i.i292, 0
  br label %_ZNSt8_Rb_treeIPK19grpc_channel_filterS2_St9_IdentityIS2_EN9grpc_core12_GLOBAL__N_127CompareChannelFiltersByNameESaIS2_EE10_M_insert_IRKS2_NS9_11_Alloc_nodeEEESt17_Rb_tree_iteratorIS2_EPSt18_Rb_tree_node_baseSH_OT_RT0_.exit.i.i294

_ZNSt8_Rb_treeIPK19grpc_channel_filterS2_St9_IdentityIS2_EN9grpc_core12_GLOBAL__N_127CompareChannelFiltersByNameESaIS2_EE10_M_insert_IRKS2_NS9_11_Alloc_nodeEEESt17_Rb_tree_iteratorIS2_EPSt18_Rb_tree_node_baseSH_OT_RT0_.exit.i.i294: ; preds = %call2.i.i8.i.i.noexc314, %if.then.i.i287
  %109 = phi i1 [ true, %if.then.i.i287 ], [ %cmp.i.i10.i.i293, %call2.i.i8.i.i.noexc314 ]
  %__v.val.i.i.i295 = load ptr, ptr %94, align 8
  %call5.i.i.i.i.i.i.i.i317 = invoke noalias noundef nonnull dereferenceable(40) ptr @_Znwm(i64 noundef 40) #19
          to label %call5.i.i.i.i.i.i.i.i.noexc316 unwind label %lpad.loopexit.split-lp742.loopexit.split-lp.loopexit.split-lp.loopexit.split-lp.loopexit

call5.i.i.i.i.i.i.i.i.noexc316:                   ; preds = %_ZNSt8_Rb_treeIPK19grpc_channel_filterS2_St9_IdentityIS2_EN9grpc_core12_GLOBAL__N_127CompareChannelFiltersByNameESaIS2_EE10_M_insert_IRKS2_NS9_11_Alloc_nodeEEESt17_Rb_tree_iteratorIS2_EPSt18_Rb_tree_node_baseSH_OT_RT0_.exit.i.i294
  %_M_storage.i.i.i.i.i.i.i296 = getelementptr inbounds %"struct.std::_Rb_tree_node.69", ptr %call5.i.i.i.i.i.i.i.i317, i64 0, i32 1
  store ptr %__v.val.i.i.i295, ptr %_M_storage.i.i.i.i.i.i.i296, align 8
  call void @_ZSt29_Rb_tree_insert_and_rebalancebPSt18_Rb_tree_node_baseS0_RS_(i1 noundef zeroext %109, ptr noundef nonnull %call5.i.i.i.i.i.i.i.i317, ptr noundef nonnull %retval.sroa.4.0.i.ph.i.i288, ptr noundef nonnull align 8 dereferenceable(32) %add.ptr.i.i.i.i263) #21
  %_M_node_count.i.i.i297 = getelementptr inbounds i8, ptr %call208, i64 40
  %110 = load i64, ptr %_M_node_count.i.i.i297, align 8
  %inc.i.i.i298 = add i64 %110, 1
  store i64 %inc.i.i.i298, ptr %_M_node_count.i.i.i297, align 8
  br label %for.inc214

for.inc214:                                       ; preds = %call5.i.i.i.i.i.i.i.i.noexc316, %call2.i8.i.i.i.noexc310, %invoke.cont205
  %incdec.ptr.i319 = getelementptr inbounds ptr, ptr %__begin2168.sroa.0.0788, i64 1
  %cmp.i190.not = icmp eq ptr %incdec.ptr.i319, %84
  br i1 %cmp.i190.not, label %for.end216.loopexit, label %for.body176

for.end216.loopexit:                              ; preds = %for.inc214
  %.pre833 = load ptr, ptr %__begin189.sroa.0.0792, align 8
  br label %for.end216

for.end216:                                       ; preds = %for.end216.loopexit, %for.end164
  %111 = phi ptr [ %.pre833, %for.end216.loopexit ], [ %82, %for.end164 ]
  %before_all_218 = getelementptr inbounds %"class.grpc_core::ChannelInit::FilterRegistration", ptr %111, i64 0, i32 5
  %112 = load i8, ptr %before_all_218, align 1
  %113 = and i8 %112, 1
  %tobool219.not = icmp eq i8 %113, 0
  br i1 %tobool219.not, label %for.inc252, label %if.then220

if.then220:                                       ; preds = %for.end216
  %114 = load ptr, ptr %registrations, align 8
  %115 = load ptr, ptr %_M_finish.i, align 8
  %cmp.i321.not789 = icmp eq ptr %114, %115
  br i1 %cmp.i321.not789, label %for.inc252, label %for.body227

for.body227:                                      ; preds = %if.then220, %for.inc248
  %__begin3.sroa.0.0790 = phi ptr [ %incdec.ptr.i378, %for.inc248 ], [ %114, %if.then220 ]
  %116 = load ptr, ptr %__begin3.sroa.0.0790, align 8
  %117 = load ptr, ptr %__begin189.sroa.0.0792, align 8
  %cmp231 = icmp eq ptr %116, %117
  br i1 %cmp231, label %for.inc248, label %if.end233

if.end233:                                        ; preds = %for.body227
  %terminal_235 = getelementptr inbounds %"class.grpc_core::ChannelInit::FilterRegistration", ptr %116, i64 0, i32 4
  %118 = load i8, ptr %terminal_235, align 8
  %119 = and i8 %118, 1
  %tobool236.not = icmp eq i8 %119, 0
  br i1 %tobool236.not, label %if.end238, label %for.inc248

if.end238:                                        ; preds = %if.end233
  %call242 = invoke fastcc noundef nonnull align 8 dereferenceable(48) ptr @_ZNSt3mapIPK19grpc_channel_filterSt3setIS2_N9grpc_core12_GLOBAL__N_127CompareChannelFiltersByNameESaIS2_EES6_SaISt4pairIKS2_S8_EEEixERSA_(ptr noundef nonnull align 8 dereferenceable(48) %dependencies, ptr noundef nonnull align 8 dereferenceable(8) %116)
          to label %invoke.cont241 unwind label %lpad.loopexit.split-lp742.loopexit.split-lp.loopexit.split-lp.loopexit

invoke.cont241:                                   ; preds = %if.end238
  %120 = load ptr, ptr %__begin189.sroa.0.0792, align 8
  %121 = getelementptr inbounds i8, ptr %call242, i64 16
  %add.ptr.i.i.i.i322 = getelementptr inbounds i8, ptr %call242, i64 8
  %__x.024.i.i.i323 = load ptr, ptr %121, align 8
  %cmp.not25.i.i.i324 = icmp eq ptr %__x.024.i.i.i323, null
  br i1 %cmp.not25.i.i.i324, label %if.then.i.i.i358, label %while.body.i.i.i325

while.body.i.i.i325:                              ; preds = %invoke.cont241, %call2.i.i.i.i.noexc365
  %__x.026.i.i.i326 = phi ptr [ %__x.0.i.i.i333, %call2.i.i.i.i.noexc365 ], [ %__x.024.i.i.i323, %invoke.cont241 ]
  %122 = load ptr, ptr %120, align 8
  %_M_storage.i.i.i.i.i327 = getelementptr inbounds %"struct.std::_Rb_tree_node.69", ptr %__x.026.i.i.i326, i64 0, i32 1
  %123 = load ptr, ptr %_M_storage.i.i.i.i.i327, align 8
  %124 = load ptr, ptr @_ZN9grpc_core21NameFromChannelFilterE, align 8
  %call.i.i.i.i328364 = invoke noundef ptr %124(ptr noundef %122)
          to label %call.i.i.i.i328.noexc unwind label %lpad.loopexit741

call.i.i.i.i328.noexc:                            ; preds = %while.body.i.i.i325
  %125 = load ptr, ptr @_ZN9grpc_core21NameFromChannelFilterE, align 8
  %call2.i.i.i.i366 = invoke noundef ptr %125(ptr noundef %123)
          to label %call2.i.i.i.i.noexc365 unwind label %lpad.loopexit741

call2.i.i.i.i.noexc365:                           ; preds = %call.i.i.i.i328.noexc
  %call3.i.i.i.i329 = call i32 @strcmp(ptr noundef nonnull dereferenceable(1) %call.i.i.i.i328364, ptr noundef nonnull dereferenceable(1) %call2.i.i.i.i366) #23
  %cmp.i.i.i.i330 = icmp slt i32 %call3.i.i.i.i329, 0
  %cond.in.v.i.i.i331 = select i1 %cmp.i.i.i.i330, i64 16, i64 24
  %cond.in.i.i.i332 = getelementptr i8, ptr %__x.026.i.i.i326, i64 %cond.in.v.i.i.i331
  %__x.0.i.i.i333 = load ptr, ptr %cond.in.i.i.i332, align 8
  %cmp.not.i.i.i334 = icmp eq ptr %__x.0.i.i.i333, null
  br i1 %cmp.not.i.i.i334, label %while.end.i.i.i335, label %while.body.i.i.i325, !llvm.loop !25

while.end.i.i.i335:                               ; preds = %call2.i.i.i.i.noexc365
  br i1 %cmp.i.i.i.i330, label %if.then.i.i.i358, label %if.end12.i.i.i336

if.then.i.i.i358:                                 ; preds = %while.end.i.i.i335, %invoke.cont241
  %__y.0.lcssa30.i.i.i359 = phi ptr [ %__x.026.i.i.i326, %while.end.i.i.i335 ], [ %add.ptr.i.i.i.i322, %invoke.cont241 ]
  %126 = getelementptr inbounds i8, ptr %call242, i64 24
  %this.val4.i.i.i360 = load ptr, ptr %126, align 8
  %cmp.i5.i.i.i361 = icmp eq ptr %__y.0.lcssa30.i.i.i359, %this.val4.i.i.i360
  br i1 %cmp.i5.i.i.i361, label %if.then.i.i346, label %if.else.i.i.i362

if.else.i.i.i362:                                 ; preds = %if.then.i.i.i358
  %call.i6.i.i.i363 = call noundef ptr @_ZSt18_Rb_tree_decrementPSt18_Rb_tree_node_base(ptr noundef nonnull %__y.0.lcssa30.i.i.i359) #23
  br label %if.end12.i.i.i336

if.end12.i.i.i336:                                ; preds = %if.else.i.i.i362, %while.end.i.i.i335
  %__y.0.lcssa31.i.i.i337 = phi ptr [ %__y.0.lcssa30.i.i.i359, %if.else.i.i.i362 ], [ %__x.026.i.i.i326, %while.end.i.i.i335 ]
  %__j.sroa.0.0.i.i.i338 = phi ptr [ %call.i6.i.i.i363, %if.else.i.i.i362 ], [ %__x.026.i.i.i326, %while.end.i.i.i335 ]
  %_M_storage.i.i.i.i.i.i339 = getelementptr inbounds %"struct.std::_Rb_tree_node.69", ptr %__j.sroa.0.0.i.i.i338, i64 0, i32 1
  %127 = load ptr, ptr %_M_storage.i.i.i.i.i.i339, align 8
  %128 = load ptr, ptr %120, align 8
  %129 = load ptr, ptr @_ZN9grpc_core21NameFromChannelFilterE, align 8
  %call.i7.i.i.i368 = invoke noundef ptr %129(ptr noundef %127)
          to label %call.i7.i.i.i.noexc367 unwind label %lpad.loopexit.split-lp742.loopexit.split-lp.loopexit.split-lp.loopexit

call.i7.i.i.i.noexc367:                           ; preds = %if.end12.i.i.i336
  %130 = load ptr, ptr @_ZN9grpc_core21NameFromChannelFilterE, align 8
  %call2.i8.i.i.i370 = invoke noundef ptr %130(ptr noundef %128)
          to label %call2.i8.i.i.i.noexc369 unwind label %lpad.loopexit.split-lp742.loopexit.split-lp.loopexit.split-lp.loopexit

call2.i8.i.i.i.noexc369:                          ; preds = %call.i7.i.i.i.noexc367
  %call3.i9.i.i.i340 = call i32 @strcmp(ptr noundef nonnull dereferenceable(1) %call.i7.i.i.i368, ptr noundef nonnull dereferenceable(1) %call2.i8.i.i.i370) #23
  %cmp.i10.i.i.i341 = icmp slt i32 %call3.i9.i.i.i340, 0
  br i1 %cmp.i10.i.i.i341, label %if.then.i.i346, label %for.inc248

if.then.i.i346:                                   ; preds = %call2.i8.i.i.i.noexc369, %if.then.i.i.i358
  %retval.sroa.4.0.i.ph.i.i347 = phi ptr [ %__y.0.lcssa30.i.i.i359, %if.then.i.i.i358 ], [ %__y.0.lcssa31.i.i.i337, %call2.i8.i.i.i.noexc369 ]
  %cmp2.i.i.i348 = icmp eq ptr %add.ptr.i.i.i.i322, %retval.sroa.4.0.i.ph.i.i347
  br i1 %cmp2.i.i.i348, label %_ZNSt8_Rb_treeIPK19grpc_channel_filterS2_St9_IdentityIS2_EN9grpc_core12_GLOBAL__N_127CompareChannelFiltersByNameESaIS2_EE10_M_insert_IRKS2_NS9_11_Alloc_nodeEEESt17_Rb_tree_iteratorIS2_EPSt18_Rb_tree_node_baseSH_OT_RT0_.exit.i.i353, label %lor.rhs.i.i.i349

lor.rhs.i.i.i349:                                 ; preds = %if.then.i.i346
  %131 = load ptr, ptr %120, align 8
  %_M_storage.i.i.i.i6.i.i350 = getelementptr inbounds %"struct.std::_Rb_tree_node.69", ptr %retval.sroa.4.0.i.ph.i.i347, i64 0, i32 1
  %132 = load ptr, ptr %_M_storage.i.i.i.i6.i.i350, align 8
  %133 = load ptr, ptr @_ZN9grpc_core21NameFromChannelFilterE, align 8
  %call.i.i7.i.i372 = invoke noundef ptr %133(ptr noundef %131)
          to label %call.i.i7.i.i.noexc371 unwind label %lpad.loopexit.split-lp742.loopexit.split-lp.loopexit.split-lp.loopexit

call.i.i7.i.i.noexc371:                           ; preds = %lor.rhs.i.i.i349
  %134 = load ptr, ptr @_ZN9grpc_core21NameFromChannelFilterE, align 8
  %call2.i.i8.i.i374 = invoke noundef ptr %134(ptr noundef %132)
          to label %call2.i.i8.i.i.noexc373 unwind label %lpad.loopexit.split-lp742.loopexit.split-lp.loopexit.split-lp.loopexit

call2.i.i8.i.i.noexc373:                          ; preds = %call.i.i7.i.i.noexc371
  %call3.i.i9.i.i351 = call i32 @strcmp(ptr noundef nonnull dereferenceable(1) %call.i.i7.i.i372, ptr noundef nonnull dereferenceable(1) %call2.i.i8.i.i374) #23
  %cmp.i.i10.i.i352 = icmp slt i32 %call3.i.i9.i.i351, 0
  br label %_ZNSt8_Rb_treeIPK19grpc_channel_filterS2_St9_IdentityIS2_EN9grpc_core12_GLOBAL__N_127CompareChannelFiltersByNameESaIS2_EE10_M_insert_IRKS2_NS9_11_Alloc_nodeEEESt17_Rb_tree_iteratorIS2_EPSt18_Rb_tree_node_baseSH_OT_RT0_.exit.i.i353

_ZNSt8_Rb_treeIPK19grpc_channel_filterS2_St9_IdentityIS2_EN9grpc_core12_GLOBAL__N_127CompareChannelFiltersByNameESaIS2_EE10_M_insert_IRKS2_NS9_11_Alloc_nodeEEESt17_Rb_tree_iteratorIS2_EPSt18_Rb_tree_node_baseSH_OT_RT0_.exit.i.i353: ; preds = %call2.i.i8.i.i.noexc373, %if.then.i.i346
  %135 = phi i1 [ true, %if.then.i.i346 ], [ %cmp.i.i10.i.i352, %call2.i.i8.i.i.noexc373 ]
  %__v.val.i.i.i354 = load ptr, ptr %120, align 8
  %call5.i.i.i.i.i.i.i.i376 = invoke noalias noundef nonnull dereferenceable(40) ptr @_Znwm(i64 noundef 40) #19
          to label %call5.i.i.i.i.i.i.i.i.noexc375 unwind label %lpad.loopexit.split-lp742.loopexit.split-lp.loopexit.split-lp.loopexit

call5.i.i.i.i.i.i.i.i.noexc375:                   ; preds = %_ZNSt8_Rb_treeIPK19grpc_channel_filterS2_St9_IdentityIS2_EN9grpc_core12_GLOBAL__N_127CompareChannelFiltersByNameESaIS2_EE10_M_insert_IRKS2_NS9_11_Alloc_nodeEEESt17_Rb_tree_iteratorIS2_EPSt18_Rb_tree_node_baseSH_OT_RT0_.exit.i.i353
  %_M_storage.i.i.i.i.i.i.i355 = getelementptr inbounds %"struct.std::_Rb_tree_node.69", ptr %call5.i.i.i.i.i.i.i.i376, i64 0, i32 1
  store ptr %__v.val.i.i.i354, ptr %_M_storage.i.i.i.i.i.i.i355, align 8
  call void @_ZSt29_Rb_tree_insert_and_rebalancebPSt18_Rb_tree_node_baseS0_RS_(i1 noundef zeroext %135, ptr noundef nonnull %call5.i.i.i.i.i.i.i.i376, ptr noundef nonnull %retval.sroa.4.0.i.ph.i.i347, ptr noundef nonnull align 8 dereferenceable(32) %add.ptr.i.i.i.i322) #21
  %_M_node_count.i.i.i356 = getelementptr inbounds i8, ptr %call242, i64 40
  %136 = load i64, ptr %_M_node_count.i.i.i356, align 8
  %inc.i.i.i357 = add i64 %136, 1
  store i64 %inc.i.i.i357, ptr %_M_node_count.i.i.i356, align 8
  br label %for.inc248

for.inc248:                                       ; preds = %call5.i.i.i.i.i.i.i.i.noexc375, %call2.i8.i.i.i.noexc369, %if.end233, %for.body227
  %incdec.ptr.i378 = getelementptr inbounds %"class.std::unique_ptr", ptr %__begin3.sroa.0.0790, i64 1
  %cmp.i321.not = icmp eq ptr %incdec.ptr.i378, %115
  br i1 %cmp.i321.not, label %for.inc252, label %for.body227

for.inc252:                                       ; preds = %for.inc248, %if.then220, %for.end216, %for.body97
  %incdec.ptr.i379 = getelementptr inbounds %"class.std::unique_ptr", ptr %__begin189.sroa.0.0792, i64 1
  %cmp.i102.not = icmp eq ptr %incdec.ptr.i379, %.pre831
  br i1 %cmp.i102.not, label %for.end254, label %for.body97

for.end254:                                       ; preds = %for.inc252, %entry, %for.end
  %137 = getelementptr inbounds i8, ptr %original, i64 8
  store i32 0, ptr %137, align 8
  %_M_parent.i.i.i.i.i380 = getelementptr inbounds i8, ptr %original, i64 16
  store ptr null, ptr %_M_parent.i.i.i.i.i380, align 8
  %_M_left.i.i.i.i.i381 = getelementptr inbounds i8, ptr %original, i64 24
  store ptr %137, ptr %_M_left.i.i.i.i.i381, align 8
  %_M_right.i.i.i.i.i382 = getelementptr inbounds i8, ptr %original, i64 32
  store ptr %137, ptr %_M_right.i.i.i.i.i382, align 8
  %_M_node_count.i.i.i.i.i383 = getelementptr inbounds i8, ptr %original, i64 40
  store i64 0, ptr %_M_node_count.i.i.i.i.i383, align 8
  %__x.val.i.i = load ptr, ptr %_M_parent.i.i.i.i.i75, align 8
  %cmp.not.i.i = icmp eq ptr %__x.val.i.i, null
  br i1 %cmp.not.i.i, label %for.end254.invoke.cont255_crit_edge, label %if.then.i.i384

for.end254.invoke.cont255_crit_edge:              ; preds = %for.end254
  %dependencies.val795.pre = load i64, ptr %_M_node_count.i.i.i.i.i78, align 8
  br label %invoke.cont255

if.then.i.i384:                                   ; preds = %for.end254
  %call3.i.i5.i.i385 = invoke fastcc noundef ptr @_ZNSt8_Rb_treeIPK19grpc_channel_filterSt4pairIKS2_St3setIS2_N9grpc_core12_GLOBAL__N_127CompareChannelFiltersByNameESaIS2_EEESt10_Select1stISB_ES8_SaISB_EE7_M_copyILb0ENSF_11_Alloc_nodeEEEPSt13_Rb_tree_nodeISB_ESK_PSt18_Rb_tree_node_baseRT0_(ptr noundef nonnull %__x.val.i.i, ptr noundef nonnull %137)
          to label %while.cond.i.i.i.i.i.i unwind label %lpad.loopexit.split-lp742.loopexit.split-lp.loopexit.split-lp.loopexit.split-lp.loopexit.split-lp.loopexit.split-lp.loopexit.split-lp

while.cond.i.i.i.i.i.i:                           ; preds = %if.then.i.i384, %while.cond.i.i.i.i.i.i
  %__x.addr.0.i.i.i.i.i.i = phi ptr [ %138, %while.cond.i.i.i.i.i.i ], [ %call3.i.i5.i.i385, %if.then.i.i384 ]
  %_M_left.i.i.i.i.i.i = getelementptr inbounds %"struct.std::_Rb_tree_node_base", ptr %__x.addr.0.i.i.i.i.i.i, i64 0, i32 2
  %138 = load ptr, ptr %_M_left.i.i.i.i.i.i, align 8
  %cmp.not.i.i.i.i.i.i = icmp eq ptr %138, null
  br i1 %cmp.not.i.i.i.i.i.i, label %_ZNSt8_Rb_treeIPK19grpc_channel_filterSt4pairIKS2_St3setIS2_N9grpc_core12_GLOBAL__N_127CompareChannelFiltersByNameESaIS2_EEESt10_Select1stISB_ES8_SaISB_EE10_S_minimumEPSt18_Rb_tree_node_base.exit.i.i.i.i, label %while.cond.i.i.i.i.i.i, !llvm.loop !29

_ZNSt8_Rb_treeIPK19grpc_channel_filterSt4pairIKS2_St3setIS2_N9grpc_core12_GLOBAL__N_127CompareChannelFiltersByNameESaIS2_EEESt10_Select1stISB_ES8_SaISB_EE10_S_minimumEPSt18_Rb_tree_node_base.exit.i.i.i.i: ; preds = %while.cond.i.i.i.i.i.i
  store ptr %__x.addr.0.i.i.i.i.i.i, ptr %_M_left.i.i.i.i.i381, align 8
  br label %while.cond.i.i4.i.i.i.i

while.cond.i.i4.i.i.i.i:                          ; preds = %while.cond.i.i4.i.i.i.i, %_ZNSt8_Rb_treeIPK19grpc_channel_filterSt4pairIKS2_St3setIS2_N9grpc_core12_GLOBAL__N_127CompareChannelFiltersByNameESaIS2_EEESt10_Select1stISB_ES8_SaISB_EE10_S_minimumEPSt18_Rb_tree_node_base.exit.i.i.i.i
  %__x.addr.0.i.i5.i.i.i.i = phi ptr [ %call3.i.i5.i.i385, %_ZNSt8_Rb_treeIPK19grpc_channel_filterSt4pairIKS2_St3setIS2_N9grpc_core12_GLOBAL__N_127CompareChannelFiltersByNameESaIS2_EEESt10_Select1stISB_ES8_SaISB_EE10_S_minimumEPSt18_Rb_tree_node_base.exit.i.i.i.i ], [ %139, %while.cond.i.i4.i.i.i.i ]
  %_M_right.i.i.i.i.i.i = getelementptr inbounds %"struct.std::_Rb_tree_node_base", ptr %__x.addr.0.i.i5.i.i.i.i, i64 0, i32 3
  %139 = load ptr, ptr %_M_right.i.i.i.i.i.i, align 8
  %cmp.not.i.i6.i.i.i.i = icmp eq ptr %139, null
  br i1 %cmp.not.i.i6.i.i.i.i, label %invoke.cont.i.i, label %while.cond.i.i4.i.i.i.i, !llvm.loop !30

invoke.cont.i.i:                                  ; preds = %while.cond.i.i4.i.i.i.i
  store ptr %__x.addr.0.i.i5.i.i.i.i, ptr %_M_right.i.i.i.i.i382, align 8
  %140 = load i64, ptr %_M_node_count.i.i.i.i.i78, align 8
  store i64 %140, ptr %_M_node_count.i.i.i.i.i383, align 8
  store ptr %call3.i.i5.i.i385, ptr %_M_parent.i.i.i.i.i380, align 8
  br label %invoke.cont255

invoke.cont255:                                   ; preds = %for.end254.invoke.cont255_crit_edge, %invoke.cont.i.i
  %dependencies.val795 = phi i64 [ %dependencies.val795.pre, %for.end254.invoke.cont255_crit_edge ], [ %140, %invoke.cont.i.i ]
  call void @llvm.memset.p0.i64(ptr noundef nonnull align 16 dereferenceable(24) %filters, i8 0, i64 24, i1 false)
  %cmp.i.i386796 = icmp eq i64 %dependencies.val795, 0
  br i1 %cmp.i.i386796, label %while.end, label %while.body.lr.ph

while.body.lr.ph:                                 ; preds = %invoke.cont255
  %_M_finish.i392 = getelementptr inbounds %"struct.std::_Vector_base<grpc_core::ChannelInit::Filter, std::allocator<grpc_core::ChannelInit::Filter>>::_Vector_impl_data", ptr %filters, i64 0, i32 1
  %_M_end_of_storage.i393 = getelementptr inbounds %"struct.std::_Vector_base<grpc_core::ChannelInit::Filter, std::allocator<grpc_core::ChannelInit::Filter>>::_Vector_impl_data", ptr %filters, i64 0, i32 2
  br label %while.body

while.cond.loopexit:                              ; preds = %for.inc283, %invoke.cont267
  %dependencies.val = load i64, ptr %_M_node_count.i.i.i.i.i78, align 8
  %cmp.i.i386 = icmp eq i64 %dependencies.val, 0
  br i1 %cmp.i.i386, label %while.end, label %while.body, !llvm.loop !31

while.body:                                       ; preds = %while.body.lr.ph, %while.cond.loopexit
  call void @llvm.lifetime.start.p0(i64 32, ptr nonnull %ref.tmp13.i)
  call void @llvm.lifetime.start.p0(i64 48, ptr nonnull %ref.tmp14.i)
  call void @llvm.lifetime.start.p0(i64 48, ptr nonnull %ref.tmp15.i)
  call void @llvm.lifetime.start.p0(i64 32, ptr nonnull %ref.tmp16.i)
  call void @llvm.lifetime.start.p0(i64 48, ptr nonnull %ref.tmp17.i)
  call void @llvm.lifetime.start.p0(i64 48, ptr nonnull %ref.tmp19.i)
  call void @llvm.lifetime.start.p0(i64 32, ptr nonnull %ref.tmp20.i)
  %.val.i = load ptr, ptr %_M_left.i.i.i.i.i76, align 8
  %cmp.i.not11.i = icmp eq ptr %.val.i, %1
  br i1 %cmp.i.not11.i, label %invoke.cont18.i, label %for.body.i

for.body.i:                                       ; preds = %while.body, %for.inc.i
  %it.sroa.0.012.i = phi ptr [ %call.i.i, %for.inc.i ], [ %.val.i, %while.body ]
  %141 = getelementptr %"struct.std::_Rb_tree_node", ptr %it.sroa.0.012.i, i64 0, i32 1, i32 0, i64 48
  %second.val.i = load i64, ptr %141, align 8
  %cmp.i.i.i388 = icmp eq i64 %second.val.i, 0
  br i1 %cmp.i.i.i388, label %invoke.cont259, label %for.inc.i

for.inc.i:                                        ; preds = %for.body.i
  %call.i.i = call noundef ptr @_ZSt18_Rb_tree_incrementPSt18_Rb_tree_node_base(ptr noundef nonnull %it.sroa.0.012.i) #23
  %cmp.i.not.i = icmp eq ptr %call.i.i, %1
  br i1 %cmp.i.not.i, label %invoke.cont18.i, label %for.body.i, !llvm.loop !32

invoke.cont18.i:                                  ; preds = %while.body, %for.inc.i
  store i64 57, ptr %ref.tmp14.i, align 8
  %142 = getelementptr inbounds { i64, ptr }, ptr %ref.tmp14.i, i64 0, i32 1
  store ptr @.str.29, ptr %142, align 8
  invoke fastcc void @"_ZZN9grpc_core11ChannelInit16BuildStackConfigERKSt6vectorISt10unique_ptrINS0_18FilterRegistrationESt14default_deleteIS3_EESaIS6_EEPN4absl12lts_2023080212AnyInvocableIKFvRNS_19ChannelStackBuilderEEEE23grpc_channel_stack_typeENK3$_3clB5cxx11ERKSt3mapIPK19grpc_channel_filterSt3setISO_NS_12_GLOBAL__N_127CompareChannelFiltersByNameESaISO_EESR_SaISt4pairIKSO_ST_EEE"(ptr noalias nonnull align 8 %ref.tmp16.i, ptr noundef nonnull align 8 dereferenceable(48) %dependencies)
          to label %.noexc391 unwind label %lpad258.loopexit.split-lp.loopexit.split-lp.loopexit.split-lp.loopexit.split-lp

.noexc391:                                        ; preds = %invoke.cont18.i
  %call.i6.i = call { i64, ptr } @_ZNKSt7__cxx1112basic_stringIcSt11char_traitsIcESaIcEEcvSt17basic_string_viewIcS2_EEv(ptr noundef nonnull align 8 dereferenceable(32) %ref.tmp16.i) #21
  %143 = extractvalue { i64, ptr } %call.i6.i, 0
  store i64 %143, ptr %ref.tmp15.i, align 8
  %144 = getelementptr inbounds { i64, ptr }, ptr %ref.tmp15.i, i64 0, i32 1
  %145 = extractvalue { i64, ptr } %call.i6.i, 1
  store ptr %145, ptr %144, align 8
  store i64 10, ptr %ref.tmp17.i, align 8
  %146 = getelementptr inbounds { i64, ptr }, ptr %ref.tmp17.i, i64 0, i32 1
  store ptr @.str.30, ptr %146, align 8
  invoke fastcc void @"_ZZN9grpc_core11ChannelInit16BuildStackConfigERKSt6vectorISt10unique_ptrINS0_18FilterRegistrationESt14default_deleteIS3_EESaIS6_EEPN4absl12lts_2023080212AnyInvocableIKFvRNS_19ChannelStackBuilderEEEE23grpc_channel_stack_typeENK3$_3clB5cxx11ERKSt3mapIPK19grpc_channel_filterSt3setISO_NS_12_GLOBAL__N_127CompareChannelFiltersByNameESaISO_EESR_SaISt4pairIKSO_ST_EEE"(ptr noalias nonnull align 8 %ref.tmp20.i, ptr noundef nonnull align 8 dereferenceable(48) %original)
          to label %invoke.cont21.i unwind label %lpad.i

invoke.cont21.i:                                  ; preds = %.noexc391
  %call.i8.i = call { i64, ptr } @_ZNKSt7__cxx1112basic_stringIcSt11char_traitsIcESaIcEEcvSt17basic_string_viewIcS2_EEv(ptr noundef nonnull align 8 dereferenceable(32) %ref.tmp20.i) #21
  %147 = extractvalue { i64, ptr } %call.i8.i, 0
  store i64 %147, ptr %ref.tmp19.i, align 8
  %148 = getelementptr inbounds { i64, ptr }, ptr %ref.tmp19.i, i64 0, i32 1
  %149 = extractvalue { i64, ptr } %call.i8.i, 1
  store ptr %149, ptr %148, align 8
  invoke void @_ZN4absl12lts_202308026StrCatB5cxx11ERKNS0_8AlphaNumES3_S3_S3_(ptr nonnull sret(%"class.std::__cxx11::basic_string") align 8 %ref.tmp13.i, ptr noundef nonnull align 8 dereferenceable(48) %ref.tmp14.i, ptr noundef nonnull align 8 dereferenceable(48) %ref.tmp15.i, ptr noundef nonnull align 8 dereferenceable(48) %ref.tmp17.i, ptr noundef nonnull align 8 dereferenceable(48) %ref.tmp19.i)
          to label %invoke.cont24.i unwind label %lpad22.i

invoke.cont24.i:                                  ; preds = %invoke.cont21.i
  %call25.i = call { i64, ptr } @_ZNKSt7__cxx1112basic_stringIcSt11char_traitsIcESaIcEEcvSt17basic_string_viewIcS2_EEv(ptr noundef nonnull align 8 dereferenceable(32) %ref.tmp13.i) #21
  %150 = extractvalue { i64, ptr } %call25.i, 0
  %151 = extractvalue { i64, ptr } %call25.i, 1
  invoke void @_ZN9grpc_core5CrashESt17basic_string_viewIcSt11char_traitsIcEENS_14SourceLocationE(i64 %150, ptr %151, ptr nonnull @.str.4, i32 217) #18
          to label %invoke.cont29.i unwind label %lpad27.i

invoke.cont29.i:                                  ; preds = %invoke.cont24.i
  unreachable

lpad.i:                                           ; preds = %.noexc391
  %152 = landingpad { ptr, i32 }
          cleanup
  br label %ehcleanup30.i

lpad22.i:                                         ; preds = %invoke.cont21.i
  %153 = landingpad { ptr, i32 }
          cleanup
  br label %ehcleanup.i

lpad27.i:                                         ; preds = %invoke.cont24.i
  %154 = landingpad { ptr, i32 }
          cleanup
  call void @_ZNSt7__cxx1112basic_stringIcSt11char_traitsIcESaIcEED1Ev(ptr noundef nonnull align 8 dereferenceable(32) %ref.tmp13.i) #21
  br label %ehcleanup.i

ehcleanup.i:                                      ; preds = %lpad27.i, %lpad22.i
  %.pn.i = phi { ptr, i32 } [ %154, %lpad27.i ], [ %153, %lpad22.i ]
  call void @_ZNSt7__cxx1112basic_stringIcSt11char_traitsIcESaIcEED1Ev(ptr noundef nonnull align 8 dereferenceable(32) %ref.tmp20.i) #21
  br label %ehcleanup30.i

ehcleanup30.i:                                    ; preds = %ehcleanup.i, %lpad.i
  %.pn.pn.i = phi { ptr, i32 } [ %.pn.i, %ehcleanup.i ], [ %152, %lpad.i ]
  call void @_ZNSt7__cxx1112basic_stringIcSt11char_traitsIcESaIcEED1Ev(ptr noundef nonnull align 8 dereferenceable(32) %ref.tmp16.i) #21
  br label %ehcleanup522

invoke.cont259:                                   ; preds = %for.body.i
  %_M_storage.i.i.i = getelementptr inbounds %"struct.std::_Rb_tree_node", ptr %it.sroa.0.012.i, i64 0, i32 1
  %155 = load ptr, ptr %_M_storage.i.i.i, align 8
  %call.i1.i.i.i = call noundef nonnull ptr @_ZSt28_Rb_tree_rebalance_for_erasePSt18_Rb_tree_node_baseRS_(ptr noundef nonnull %it.sroa.0.012.i, ptr noundef nonnull align 8 dereferenceable(32) %1) #21
  %156 = getelementptr inbounds %"struct.std::_Rb_tree_node", ptr %call.i1.i.i.i, i64 0, i32 1, i32 0, i64 24
  %this.val.i.i.i.i.i.i.i.i.i.i.i = load ptr, ptr %156, align 8
  call fastcc void @_ZNSt8_Rb_treeIPK19grpc_channel_filterS2_St9_IdentityIS2_EN9grpc_core12_GLOBAL__N_127CompareChannelFiltersByNameESaIS2_EE8_M_eraseEPSt13_Rb_tree_nodeIS2_E(ptr noundef %this.val.i.i.i.i.i.i.i.i.i.i.i)
  call void @_ZdlPv(ptr noundef nonnull %call.i1.i.i.i) #20
  %157 = load i64, ptr %_M_node_count.i.i.i.i.i78, align 8
  %dec.i.i.i.i = add i64 %157, -1
  store i64 %dec.i.i.i.i, ptr %_M_node_count.i.i.i.i.i78, align 8
  call void @llvm.lifetime.end.p0(i64 32, ptr nonnull %ref.tmp13.i)
  call void @llvm.lifetime.end.p0(i64 48, ptr nonnull %ref.tmp14.i)
  call void @llvm.lifetime.end.p0(i64 48, ptr nonnull %ref.tmp15.i)
  call void @llvm.lifetime.end.p0(i64 32, ptr nonnull %ref.tmp16.i)
  call void @llvm.lifetime.end.p0(i64 48, ptr nonnull %ref.tmp17.i)
  call void @llvm.lifetime.end.p0(i64 48, ptr nonnull %ref.tmp19.i)
  call void @llvm.lifetime.end.p0(i64 32, ptr nonnull %ref.tmp20.i)
  store ptr %155, ptr %filter, align 8
  %call262 = invoke noundef nonnull align 8 dereferenceable(8) ptr @_ZNSt3mapIPK19grpc_channel_filterPN9grpc_core11ChannelInit18FilterRegistrationESt4lessIS2_ESaISt4pairIKS2_S6_EEEixERSA_(ptr noundef nonnull align 8 dereferenceable(48) %filter_to_registration, ptr noundef nonnull align 8 dereferenceable(8) %filter)
          to label %invoke.cont261 unwind label %lpad258.loopexit.split-lp.loopexit.split-lp.loopexit.split-lp.loopexit

invoke.cont261:                                   ; preds = %invoke.cont259
  %158 = load ptr, ptr %call262, align 8
  %call265 = invoke noundef nonnull align 8 dereferenceable(8) ptr @_ZNSt3mapIPK19grpc_channel_filterPN9grpc_core11ChannelInit18FilterRegistrationESt4lessIS2_ESaISt4pairIKS2_S6_EEEixERSA_(ptr noundef nonnull align 8 dereferenceable(48) %filter_to_registration, ptr noundef nonnull align 8 dereferenceable(8) %filter)
          to label %invoke.cont264 unwind label %lpad258.loopexit.split-lp.loopexit.split-lp.loopexit.split-lp.loopexit

invoke.cont264:                                   ; preds = %invoke.cont261
  %predicates_263 = getelementptr inbounds %"class.grpc_core::ChannelInit::FilterRegistration", ptr %158, i64 0, i32 3
  %159 = load ptr, ptr %call265, align 8
  %registration_source_266 = getelementptr inbounds %"class.grpc_core::ChannelInit::FilterRegistration", ptr %159, i64 0, i32 7
  %160 = load ptr, ptr %_M_finish.i392, align 8
  %161 = load ptr, ptr %_M_end_of_storage.i393, align 16
  %cmp.not.i394 = icmp eq ptr %160, %161
  br i1 %cmp.not.i394, label %if.else.i408, label %if.then.i395

if.then.i395:                                     ; preds = %invoke.cont264
  %162 = load ptr, ptr %filter, align 8
  %_M_end_of_storage4.i.i.i.i.i.i.i397 = getelementptr inbounds %"class.grpc_core::ChannelInit::FilterRegistration", ptr %158, i64 0, i32 3, i32 0, i32 0, i32 0, i32 2
  %163 = load ptr, ptr %_M_end_of_storage4.i.i.i.i.i.i.i397, align 8
  %agg.tmp6.sroa.2.0..sroa_idx.i.i.i399 = getelementptr inbounds %"class.grpc_core::ChannelInit::FilterRegistration", ptr %159, i64 0, i32 7, i32 1
  %predicates3.i.i.i.i401 = getelementptr inbounds %"struct.grpc_core::ChannelInit::Filter", ptr %160, i64 0, i32 1
  %164 = load <2 x ptr>, ptr %predicates_263, align 8
  call void @llvm.memset.p0.i64(ptr noundef nonnull align 8 dereferenceable(24) %predicates_263, i8 0, i64 24, i1 false)
  %agg.tmp6.sroa.0.0.copyload.i.i.i398 = load ptr, ptr %registration_source_266, align 8
  %agg.tmp6.sroa.2.0.copyload.i.i.i400 = load i32, ptr %agg.tmp6.sroa.2.0..sroa_idx.i.i.i399, align 8
  store ptr %162, ptr %160, align 8
  store <2 x ptr> %164, ptr %predicates3.i.i.i.i401, align 8
  %_M_end_of_storage.i.i.i.i.i.i.i.i403 = getelementptr inbounds %"struct.grpc_core::ChannelInit::Filter", ptr %160, i64 0, i32 1, i32 0, i32 0, i32 0, i32 2
  store ptr %163, ptr %_M_end_of_storage.i.i.i.i.i.i.i.i403, align 8
  %registration_source4.i.i.i.i404 = getelementptr inbounds %"struct.grpc_core::ChannelInit::Filter", ptr %160, i64 0, i32 2
  store ptr %agg.tmp6.sroa.0.0.copyload.i.i.i398, ptr %registration_source4.i.i.i.i404, align 8
  %registration_source.sroa.2.0.registration_source4.sroa_idx.i.i.i.i405 = getelementptr inbounds %"struct.grpc_core::ChannelInit::Filter", ptr %160, i64 0, i32 2, i32 1
  store i32 %agg.tmp6.sroa.2.0.copyload.i.i.i400, ptr %registration_source.sroa.2.0.registration_source4.sroa_idx.i.i.i.i405, align 8
  %165 = load ptr, ptr %_M_finish.i392, align 8
  %incdec.ptr.i406 = getelementptr inbounds %"struct.grpc_core::ChannelInit::Filter", ptr %165, i64 1
  store ptr %incdec.ptr.i406, ptr %_M_finish.i392, align 8
  br label %invoke.cont267

if.else.i408:                                     ; preds = %invoke.cont264
  invoke void @_ZNSt6vectorIN9grpc_core11ChannelInit6FilterESaIS2_EE17_M_realloc_insertIJRPK19grpc_channel_filterS_IN4absl12lts_2023080212AnyInvocableIKFbRKNS0_11ChannelArgsEEEESaISH_EERNS0_14SourceLocationEEEEvN9__gnu_cxx17__normal_iteratorIPS2_S4_EEDpOT_(ptr noundef nonnull align 8 dereferenceable(24) %filters, ptr %160, ptr noundef nonnull align 8 dereferenceable(8) %filter, ptr noundef nonnull align 8 dereferenceable(24) %predicates_263, ptr noundef nonnull align 8 dereferenceable(12) %registration_source_266)
          to label %invoke.cont267 unwind label %lpad258.loopexit.split-lp.loopexit.split-lp.loopexit.split-lp.loopexit

invoke.cont267:                                   ; preds = %if.else.i408, %if.then.i395
  %dependencies.val71 = load ptr, ptr %_M_left.i.i.i.i.i76, align 8
  %cmp.i411.not793 = icmp eq ptr %dependencies.val71, %1
  br i1 %cmp.i411.not793, label %while.cond.loopexit, label %for.body278

for.body278:                                      ; preds = %invoke.cont267, %for.inc283
  %__begin2270.sroa.0.0794 = phi ptr [ %call.i, %for.inc283 ], [ %dependencies.val71, %invoke.cont267 ]
  %166 = getelementptr inbounds %"struct.std::_Rb_tree_node", ptr %__begin2270.sroa.0.0794, i64 0, i32 1, i32 0, i64 24
  %add.ptr.i.i.i.i412 = getelementptr inbounds %"struct.std::_Rb_tree_node", ptr %__begin2270.sroa.0.0794, i64 0, i32 1, i32 0, i64 16
  %__x.044.i.i.i = load ptr, ptr %166, align 8
  %cmp.not45.i.i.i = icmp eq ptr %__x.044.i.i.i, null
  br i1 %cmp.not45.i.i.i, label %_ZNSt8_Rb_treeIPK19grpc_channel_filterS2_St9_IdentityIS2_EN9grpc_core12_GLOBAL__N_127CompareChannelFiltersByNameESaIS2_EE11equal_rangeERKS2_.exit.i.i, label %while.body.i.i.i413

while.body.i.i.i413:                              ; preds = %for.body278, %if.end19.i.i.i
  %__x.047.i.i.i = phi ptr [ %__x.0.i.i.i425, %if.end19.i.i.i ], [ %__x.044.i.i.i, %for.body278 ]
  %__y.046.i.i.i = phi ptr [ %__y.1.i.i.i, %if.end19.i.i.i ], [ %add.ptr.i.i.i.i412, %for.body278 ]
  %_M_storage.i.i.i.i.i414 = getelementptr inbounds %"struct.std::_Rb_tree_node.69", ptr %__x.047.i.i.i, i64 0, i32 1
  %167 = load ptr, ptr %_M_storage.i.i.i.i.i414, align 8
  %168 = load ptr, ptr %filter, align 8
  %169 = load ptr, ptr @_ZN9grpc_core21NameFromChannelFilterE, align 8
  %call.i.i.i.i415427 = invoke noundef ptr %169(ptr noundef %167)
          to label %call.i.i.i.i415.noexc unwind label %lpad258.loopexit.split-lp.loopexit.split-lp.loopexit

call.i.i.i.i415.noexc:                            ; preds = %while.body.i.i.i413
  %170 = load ptr, ptr @_ZN9grpc_core21NameFromChannelFilterE, align 8
  %call2.i.i.i.i429 = invoke noundef ptr %170(ptr noundef %168)
          to label %call2.i.i.i.i.noexc428 unwind label %lpad258.loopexit.split-lp.loopexit.split-lp.loopexit

call2.i.i.i.i.noexc428:                           ; preds = %call.i.i.i.i415.noexc
  %call3.i.i.i.i416 = call i32 @strcmp(ptr noundef nonnull dereferenceable(1) %call.i.i.i.i415427, ptr noundef nonnull dereferenceable(1) %call2.i.i.i.i429) #23
  %cmp.i.i.i.i417 = icmp slt i32 %call3.i.i.i.i416, 0
  br i1 %cmp.i.i.i.i417, label %if.end19.i.i.i, label %if.else.i.i.i418

if.else.i.i.i418:                                 ; preds = %call2.i.i.i.i.noexc428
  %171 = load ptr, ptr %filter, align 8
  %172 = load ptr, ptr %_M_storage.i.i.i.i.i414, align 8
  %173 = load ptr, ptr @_ZN9grpc_core21NameFromChannelFilterE, align 8
  %call.i21.i.i.i430 = invoke noundef ptr %173(ptr noundef %171)
          to label %call.i21.i.i.i.noexc unwind label %lpad258.loopexit.split-lp.loopexit.split-lp.loopexit

call.i21.i.i.i.noexc:                             ; preds = %if.else.i.i.i418
  %174 = load ptr, ptr @_ZN9grpc_core21NameFromChannelFilterE, align 8
  %call2.i22.i.i.i431 = invoke noundef ptr %174(ptr noundef %172)
          to label %call2.i22.i.i.i.noexc unwind label %lpad258.loopexit.split-lp.loopexit.split-lp.loopexit

call2.i22.i.i.i.noexc:                            ; preds = %call.i21.i.i.i.noexc
  %call3.i23.i.i.i = call i32 @strcmp(ptr noundef nonnull dereferenceable(1) %call.i21.i.i.i430, ptr noundef nonnull dereferenceable(1) %call2.i22.i.i.i431) #23
  %cmp.i24.i.i.i = icmp slt i32 %call3.i23.i.i.i, 0
  br i1 %cmp.i24.i.i.i, label %if.end19.i.i.i, label %if.else12.i.i.i

if.else12.i.i.i:                                  ; preds = %call2.i22.i.i.i.noexc
  %175 = getelementptr i8, ptr %__x.047.i.i.i, i64 16
  %__x.0.val18.i.i.i = load ptr, ptr %175, align 8
  %176 = getelementptr i8, ptr %__x.047.i.i.i, i64 24
  %__x.0.val.i.i.i = load ptr, ptr %176, align 8
  %cmp.not1.i.i.i.i = icmp eq ptr %__x.0.val18.i.i.i, null
  br i1 %cmp.not1.i.i.i.i, label %_ZNSt8_Rb_treeIPK19grpc_channel_filterS2_St9_IdentityIS2_EN9grpc_core12_GLOBAL__N_127CompareChannelFiltersByNameESaIS2_EE14_M_lower_boundEPSt13_Rb_tree_nodeIS2_EPSt18_Rb_tree_node_baseRKS2_.exit.i.i.i, label %while.body.i.i.i.i

while.body.i.i.i.i:                               ; preds = %if.else12.i.i.i, %call2.i.i.i.i.i.noexc
  %__x.addr.03.i.i.i.i = phi ptr [ %__x.addr.1.i.i.i.i, %call2.i.i.i.i.i.noexc ], [ %__x.0.val18.i.i.i, %if.else12.i.i.i ]
  %__y.addr.02.i.i.i.i = phi ptr [ %__y.addr.1.i.i.i.i, %call2.i.i.i.i.i.noexc ], [ %__x.047.i.i.i, %if.else12.i.i.i ]
  %_M_storage.i.i.i.i.i.i419 = getelementptr inbounds %"struct.std::_Rb_tree_node.69", ptr %__x.addr.03.i.i.i.i, i64 0, i32 1
  %177 = load ptr, ptr %_M_storage.i.i.i.i.i.i419, align 8
  %178 = load ptr, ptr %filter, align 8
  %179 = load ptr, ptr @_ZN9grpc_core21NameFromChannelFilterE, align 8
  %call.i.i.i.i.i420432 = invoke noundef ptr %179(ptr noundef %177)
          to label %call.i.i.i.i.i420.noexc unwind label %lpad258.loopexit.split-lp.loopexit

call.i.i.i.i.i420.noexc:                          ; preds = %while.body.i.i.i.i
  %180 = load ptr, ptr @_ZN9grpc_core21NameFromChannelFilterE, align 8
  %call2.i.i.i.i.i433 = invoke noundef ptr %180(ptr noundef %178)
          to label %call2.i.i.i.i.i.noexc unwind label %lpad258.loopexit.split-lp.loopexit

call2.i.i.i.i.i.noexc:                            ; preds = %call.i.i.i.i.i420.noexc
  %call3.i.i.i.i.i = call i32 @strcmp(ptr noundef nonnull dereferenceable(1) %call.i.i.i.i.i420432, ptr noundef nonnull dereferenceable(1) %call2.i.i.i.i.i433) #23
  %cmp.i.i.i.i.i = icmp slt i32 %call3.i.i.i.i.i, 0
  %__y.addr.1.i.i.i.i = select i1 %cmp.i.i.i.i.i, ptr %__y.addr.02.i.i.i.i, ptr %__x.addr.03.i.i.i.i
  %__x.addr.1.in.v.i.i.i.i = select i1 %cmp.i.i.i.i.i, i64 24, i64 16
  %__x.addr.1.in.i.i.i.i = getelementptr i8, ptr %__x.addr.03.i.i.i.i, i64 %__x.addr.1.in.v.i.i.i.i
  %__x.addr.1.i.i.i.i = load ptr, ptr %__x.addr.1.in.i.i.i.i, align 8
  %cmp.not.i.i.i.i = icmp eq ptr %__x.addr.1.i.i.i.i, null
  br i1 %cmp.not.i.i.i.i, label %_ZNSt8_Rb_treeIPK19grpc_channel_filterS2_St9_IdentityIS2_EN9grpc_core12_GLOBAL__N_127CompareChannelFiltersByNameESaIS2_EE14_M_lower_boundEPSt13_Rb_tree_nodeIS2_EPSt18_Rb_tree_node_baseRKS2_.exit.i.i.i, label %while.body.i.i.i.i, !llvm.loop !33

_ZNSt8_Rb_treeIPK19grpc_channel_filterS2_St9_IdentityIS2_EN9grpc_core12_GLOBAL__N_127CompareChannelFiltersByNameESaIS2_EE14_M_lower_boundEPSt13_Rb_tree_nodeIS2_EPSt18_Rb_tree_node_baseRKS2_.exit.i.i.i: ; preds = %call2.i.i.i.i.i.noexc, %if.else12.i.i.i
  %__y.addr.0.lcssa.i.i.i.i = phi ptr [ %__x.047.i.i.i, %if.else12.i.i.i ], [ %__y.addr.1.i.i.i.i, %call2.i.i.i.i.i.noexc ]
  %cmp.not1.i25.i.i.i = icmp eq ptr %__x.0.val.i.i.i, null
  br i1 %cmp.not1.i25.i.i.i, label %_ZNSt8_Rb_treeIPK19grpc_channel_filterS2_St9_IdentityIS2_EN9grpc_core12_GLOBAL__N_127CompareChannelFiltersByNameESaIS2_EE11equal_rangeERKS2_.exit.i.i, label %while.body.i26.i.i.i

while.body.i26.i.i.i:                             ; preds = %_ZNSt8_Rb_treeIPK19grpc_channel_filterS2_St9_IdentityIS2_EN9grpc_core12_GLOBAL__N_127CompareChannelFiltersByNameESaIS2_EE14_M_lower_boundEPSt13_Rb_tree_nodeIS2_EPSt18_Rb_tree_node_baseRKS2_.exit.i.i.i, %call2.i.i31.i.i.i.noexc
  %__x.addr.03.i27.i.i.i = phi ptr [ %__x.addr.1.i37.i.i.i, %call2.i.i31.i.i.i.noexc ], [ %__x.0.val.i.i.i, %_ZNSt8_Rb_treeIPK19grpc_channel_filterS2_St9_IdentityIS2_EN9grpc_core12_GLOBAL__N_127CompareChannelFiltersByNameESaIS2_EE14_M_lower_boundEPSt13_Rb_tree_nodeIS2_EPSt18_Rb_tree_node_baseRKS2_.exit.i.i.i ]
  %__y.addr.02.i28.i.i.i = phi ptr [ %__y.addr.1.i34.i.i.i, %call2.i.i31.i.i.i.noexc ], [ %__y.046.i.i.i, %_ZNSt8_Rb_treeIPK19grpc_channel_filterS2_St9_IdentityIS2_EN9grpc_core12_GLOBAL__N_127CompareChannelFiltersByNameESaIS2_EE14_M_lower_boundEPSt13_Rb_tree_nodeIS2_EPSt18_Rb_tree_node_baseRKS2_.exit.i.i.i ]
  %181 = load ptr, ptr %filter, align 8
  %_M_storage.i.i.i29.i.i.i = getelementptr inbounds %"struct.std::_Rb_tree_node.69", ptr %__x.addr.03.i27.i.i.i, i64 0, i32 1
  %182 = load ptr, ptr %_M_storage.i.i.i29.i.i.i, align 8
  %183 = load ptr, ptr @_ZN9grpc_core21NameFromChannelFilterE, align 8
  %call.i.i30.i.i.i434 = invoke noundef ptr %183(ptr noundef %181)
          to label %call.i.i30.i.i.i.noexc unwind label %lpad258.loopexit

call.i.i30.i.i.i.noexc:                           ; preds = %while.body.i26.i.i.i
  %184 = load ptr, ptr @_ZN9grpc_core21NameFromChannelFilterE, align 8
  %call2.i.i31.i.i.i435 = invoke noundef ptr %184(ptr noundef %182)
          to label %call2.i.i31.i.i.i.noexc unwind label %lpad258.loopexit

call2.i.i31.i.i.i.noexc:                          ; preds = %call.i.i30.i.i.i.noexc
  %call3.i.i32.i.i.i = call i32 @strcmp(ptr noundef nonnull dereferenceable(1) %call.i.i30.i.i.i434, ptr noundef nonnull dereferenceable(1) %call2.i.i31.i.i.i435) #23
  %cmp.i.i33.i.i.i = icmp slt i32 %call3.i.i32.i.i.i, 0
  %__y.addr.1.i34.i.i.i = select i1 %cmp.i.i33.i.i.i, ptr %__x.addr.03.i27.i.i.i, ptr %__y.addr.02.i28.i.i.i
  %__x.addr.1.in.v.i35.i.i.i = select i1 %cmp.i.i33.i.i.i, i64 16, i64 24
  %__x.addr.1.in.i36.i.i.i = getelementptr i8, ptr %__x.addr.03.i27.i.i.i, i64 %__x.addr.1.in.v.i35.i.i.i
  %__x.addr.1.i37.i.i.i = load ptr, ptr %__x.addr.1.in.i36.i.i.i, align 8
  %cmp.not.i38.i.i.i = icmp eq ptr %__x.addr.1.i37.i.i.i, null
  br i1 %cmp.not.i38.i.i.i, label %_ZNSt8_Rb_treeIPK19grpc_channel_filterS2_St9_IdentityIS2_EN9grpc_core12_GLOBAL__N_127CompareChannelFiltersByNameESaIS2_EE11equal_rangeERKS2_.exit.i.i, label %while.body.i26.i.i.i, !llvm.loop !34

if.end19.i.i.i:                                   ; preds = %call2.i22.i.i.i.noexc, %call2.i.i.i.i.noexc428
  %.sink.i.i.i = phi i64 [ 24, %call2.i.i.i.i.noexc428 ], [ 16, %call2.i22.i.i.i.noexc ]
  %__y.1.i.i.i = phi ptr [ %__y.046.i.i.i, %call2.i.i.i.i.noexc428 ], [ %__x.047.i.i.i, %call2.i22.i.i.i.noexc ]
  %185 = getelementptr i8, ptr %__x.047.i.i.i, i64 %.sink.i.i.i
  %__x.0.i.i.i425 = load ptr, ptr %185, align 8
  %cmp.not.i.i.i426 = icmp eq ptr %__x.0.i.i.i425, null
  br i1 %cmp.not.i.i.i426, label %_ZNSt8_Rb_treeIPK19grpc_channel_filterS2_St9_IdentityIS2_EN9grpc_core12_GLOBAL__N_127CompareChannelFiltersByNameESaIS2_EE11equal_rangeERKS2_.exit.i.i, label %while.body.i.i.i413, !llvm.loop !35

_ZNSt8_Rb_treeIPK19grpc_channel_filterS2_St9_IdentityIS2_EN9grpc_core12_GLOBAL__N_127CompareChannelFiltersByNameESaIS2_EE11equal_rangeERKS2_.exit.i.i: ; preds = %if.end19.i.i.i, %call2.i.i31.i.i.i.noexc, %_ZNSt8_Rb_treeIPK19grpc_channel_filterS2_St9_IdentityIS2_EN9grpc_core12_GLOBAL__N_127CompareChannelFiltersByNameESaIS2_EE14_M_lower_boundEPSt13_Rb_tree_nodeIS2_EPSt18_Rb_tree_node_baseRKS2_.exit.i.i.i, %for.body278
  %retval.sroa.0.0.i.i.i421 = phi ptr [ %__y.addr.0.lcssa.i.i.i.i, %_ZNSt8_Rb_treeIPK19grpc_channel_filterS2_St9_IdentityIS2_EN9grpc_core12_GLOBAL__N_127CompareChannelFiltersByNameESaIS2_EE14_M_lower_boundEPSt13_Rb_tree_nodeIS2_EPSt18_Rb_tree_node_baseRKS2_.exit.i.i.i ], [ %add.ptr.i.i.i.i412, %for.body278 ], [ %__y.addr.0.lcssa.i.i.i.i, %call2.i.i31.i.i.i.noexc ], [ %__y.1.i.i.i, %if.end19.i.i.i ]
  %retval.sroa.3.0.i.i.i = phi ptr [ %__y.046.i.i.i, %_ZNSt8_Rb_treeIPK19grpc_channel_filterS2_St9_IdentityIS2_EN9grpc_core12_GLOBAL__N_127CompareChannelFiltersByNameESaIS2_EE14_M_lower_boundEPSt13_Rb_tree_nodeIS2_EPSt18_Rb_tree_node_baseRKS2_.exit.i.i.i ], [ %add.ptr.i.i.i.i412, %for.body278 ], [ %__y.addr.1.i34.i.i.i, %call2.i.i31.i.i.i.noexc ], [ %__y.1.i.i.i, %if.end19.i.i.i ]
  %186 = getelementptr inbounds %"struct.std::_Rb_tree_node", ptr %__begin2270.sroa.0.0794, i64 0, i32 1, i32 0, i64 48
  %187 = getelementptr inbounds %"struct.std::_Rb_tree_node", ptr %__begin2270.sroa.0.0794, i64 0, i32 1, i32 0, i64 32
  %this.val.i.i.i = load ptr, ptr %187, align 8
  %cmp.i.i2.i.i = icmp eq ptr %this.val.i.i.i, %retval.sroa.0.0.i.i.i421
  %cmp.i1.i.i.i = icmp eq ptr %add.ptr.i.i.i.i412, %retval.sroa.3.0.i.i.i
  %or.cond.i.i.i = select i1 %cmp.i.i2.i.i, i1 %cmp.i1.i.i.i, i1 false
  br i1 %or.cond.i.i.i, label %if.then.i.i.i423, label %if.else.i4.i.i

if.then.i.i.i423:                                 ; preds = %_ZNSt8_Rb_treeIPK19grpc_channel_filterS2_St9_IdentityIS2_EN9grpc_core12_GLOBAL__N_127CompareChannelFiltersByNameESaIS2_EE11equal_rangeERKS2_.exit.i.i
  %this.val.i.i.i.i = load ptr, ptr %166, align 8
  call fastcc void @_ZNSt8_Rb_treeIPK19grpc_channel_filterS2_St9_IdentityIS2_EN9grpc_core12_GLOBAL__N_127CompareChannelFiltersByNameESaIS2_EE8_M_eraseEPSt13_Rb_tree_nodeIS2_E(ptr noundef %this.val.i.i.i.i)
  store ptr null, ptr %166, align 8
  store ptr %add.ptr.i.i.i.i412, ptr %187, align 8
  %_M_right.i.i.i.i.i424 = getelementptr inbounds %"struct.std::_Rb_tree_node", ptr %__begin2270.sroa.0.0794, i64 0, i32 1, i32 0, i64 40
  store ptr %add.ptr.i.i.i.i412, ptr %_M_right.i.i.i.i.i424, align 8
  store i64 0, ptr %186, align 8
  br label %for.inc283

if.else.i4.i.i:                                   ; preds = %_ZNSt8_Rb_treeIPK19grpc_channel_filterS2_St9_IdentityIS2_EN9grpc_core12_GLOBAL__N_127CompareChannelFiltersByNameESaIS2_EE11equal_rangeERKS2_.exit.i.i
  %cmp.i3.not8.i.i.i = icmp eq ptr %retval.sroa.0.0.i.i.i421, %retval.sroa.3.0.i.i.i
  br i1 %cmp.i3.not8.i.i.i, label %for.inc283, label %while.body.i5.i.i

while.body.i5.i.i:                                ; preds = %if.else.i4.i.i, %while.body.i5.i.i
  %__first.sroa.0.09.i.i.i = phi ptr [ %call.i.i6.i.i, %while.body.i5.i.i ], [ %retval.sroa.0.0.i.i.i421, %if.else.i4.i.i ]
  %call.i.i6.i.i = call noundef ptr @_ZSt18_Rb_tree_incrementPKSt18_Rb_tree_node_base(ptr noundef %__first.sroa.0.09.i.i.i) #23
  %call.i5.i.i.i = call noundef nonnull ptr @_ZSt28_Rb_tree_rebalance_for_erasePSt18_Rb_tree_node_baseRS_(ptr noundef %__first.sroa.0.09.i.i.i, ptr noundef nonnull align 8 dereferenceable(32) %add.ptr.i.i.i.i412) #21
  call void @_ZdlPv(ptr noundef nonnull %call.i5.i.i.i) #20
  %188 = load i64, ptr %186, align 8
  %dec.i.i.i.i422 = add i64 %188, -1
  store i64 %dec.i.i.i.i422, ptr %186, align 8
  %cmp.i3.not.i.i.i = icmp eq ptr %call.i.i6.i.i, %retval.sroa.3.0.i.i.i
  br i1 %cmp.i3.not.i.i.i, label %for.inc283, label %while.body.i5.i.i, !llvm.loop !36

for.inc283:                                       ; preds = %while.body.i5.i.i, %if.else.i4.i.i, %if.then.i.i.i423
  %call.i = call noundef ptr @_ZSt18_Rb_tree_incrementPSt18_Rb_tree_node_base(ptr noundef nonnull %__begin2270.sroa.0.0794) #23
  %cmp.i411.not = icmp eq ptr %call.i, %1
  br i1 %cmp.i411.not, label %while.cond.loopexit, label %for.body278

lpad258.loopexit:                                 ; preds = %while.body.i26.i.i.i, %call.i.i30.i.i.i.noexc
  %lpad.loopexit727 = landingpad { ptr, i32 }
          cleanup
  br label %ehcleanup522

lpad258.loopexit.split-lp.loopexit:               ; preds = %call.i.i.i.i.i420.noexc, %while.body.i.i.i.i
  %lpad.loopexit730 = landingpad { ptr, i32 }
          cleanup
  br label %ehcleanup522

lpad258.loopexit.split-lp.loopexit.split-lp.loopexit: ; preds = %while.body.i.i.i413, %call.i.i.i.i415.noexc, %if.else.i.i.i418, %call.i21.i.i.i.noexc
  %lpad.loopexit733 = landingpad { ptr, i32 }
          cleanup
  br label %ehcleanup522

lpad258.loopexit.split-lp.loopexit.split-lp.loopexit.split-lp.loopexit: ; preds = %if.else.i408, %invoke.cont261, %invoke.cont259
  %lpad.loopexit738 = landingpad { ptr, i32 }
          cleanup
  br label %ehcleanup522

lpad258.loopexit.split-lp.loopexit.split-lp.loopexit.split-lp.loopexit.split-lp: ; preds = %invoke.cont18.i
  %lpad.loopexit.split-lp739 = landingpad { ptr, i32 }
          cleanup
  br label %ehcleanup522

while.end:                                        ; preds = %while.cond.loopexit, %invoke.cont255
  call void @llvm.memset.p0.i64(ptr noundef nonnull align 16 dereferenceable(24) %post_processor_functions, i8 0, i64 24, i1 false)
  %_M_finish.i437 = getelementptr inbounds %"struct.std::_Vector_base<absl::lts_20230802::AnyInvocable<void (grpc_core::ChannelStackBuilder &) const>, std::allocator<absl::lts_20230802::AnyInvocable<void (grpc_core::ChannelStackBuilder &) const>>>::_Vector_impl_data", ptr %post_processor_functions, i64 0, i32 1
  %_M_end_of_storage.i438 = getelementptr inbounds %"struct.std::_Vector_base<absl::lts_20230802::AnyInvocable<void (grpc_core::ChannelStackBuilder &) const>, std::allocator<absl::lts_20230802::AnyInvocable<void (grpc_core::ChannelStackBuilder &) const>>>::_Vector_impl_data", ptr %post_processor_functions, i64 0, i32 2
  br label %for.body288

for.body288:                                      ; preds = %while.end, %for.inc297
  %cmp287 = phi i1 [ true, %while.end ], [ false, %for.inc297 ]
  %indvars.iv = phi i64 [ 0, %while.end ], [ 1, %for.inc297 ]
  %arrayidx = getelementptr inbounds %"class.absl::lts_20230802::AnyInvocable.14", ptr %post_processors, i64 %indvars.iv
  %invoker_.i.i = getelementptr inbounds %"class.absl::lts_20230802::internal_any_invocable::CoreImpl.16", ptr %arrayidx, i64 0, i32 2
  %189 = load ptr, ptr %invoker_.i.i, align 8
  %cmp.i.not.i436 = icmp eq ptr %189, null
  br i1 %cmp.i.not.i436, label %for.inc297, label %if.end291

if.end291:                                        ; preds = %for.body288
  %190 = load ptr, ptr %_M_finish.i437, align 8
  %191 = load ptr, ptr %_M_end_of_storage.i438, align 16
  %cmp.not.i439 = icmp eq ptr %190, %191
  br i1 %cmp.not.i439, label %if.else.i443, label %if.then.i440

if.then.i440:                                     ; preds = %if.end291
  %manager_.i.i.i.i.i.i = getelementptr inbounds %"class.absl::lts_20230802::internal_any_invocable::CoreImpl.16", ptr %arrayidx, i64 0, i32 1
  %192 = load ptr, ptr %manager_.i.i.i.i.i.i, align 16
  call void %192(i1 noundef zeroext false, ptr noundef nonnull %arrayidx, ptr noundef nonnull %190) #21
  %193 = load ptr, ptr %manager_.i.i.i.i.i.i, align 16
  %manager_5.i.i.i.i.i.i = getelementptr inbounds %"class.absl::lts_20230802::internal_any_invocable::CoreImpl.16", ptr %190, i64 0, i32 1
  store ptr %193, ptr %manager_5.i.i.i.i.i.i, align 16
  %194 = load ptr, ptr %invoker_.i.i, align 8
  %invoker_6.i.i.i.i.i.i = getelementptr inbounds %"class.absl::lts_20230802::internal_any_invocable::CoreImpl.16", ptr %190, i64 0, i32 2
  store ptr %194, ptr %invoker_6.i.i.i.i.i.i, align 8
  store ptr @_ZN4absl12lts_2023080222internal_any_invocable12EmptyManagerENS1_14FunctionToCallEPNS1_15TypeErasedStateES4_, ptr %manager_.i.i.i.i.i.i, align 16
  store ptr null, ptr %invoker_.i.i, align 8
  %195 = load ptr, ptr %_M_finish.i437, align 8
  %incdec.ptr.i441 = getelementptr inbounds %"class.absl::lts_20230802::AnyInvocable.14", ptr %195, i64 1
  store ptr %incdec.ptr.i441, ptr %_M_finish.i437, align 8
  br label %for.inc297

if.else.i443:                                     ; preds = %if.end291
  invoke void @_ZNSt6vectorIN4absl12lts_2023080212AnyInvocableIKFvRN9grpc_core19ChannelStackBuilderEEEESaIS7_EE17_M_realloc_insertIJS7_EEEvN9__gnu_cxx17__normal_iteratorIPS7_S9_EEDpOT_(ptr noundef nonnull align 8 dereferenceable(24) %post_processor_functions, ptr %190, ptr noundef nonnull align 16 dereferenceable(32) %arrayidx)
          to label %for.inc297 unwind label %lpad294.loopexit

for.inc297:                                       ; preds = %if.else.i443, %if.then.i440, %for.body288
  br i1 %cmp287, label %for.body288, label %for.end298, !llvm.loop !37

lpad294.loopexit:                                 ; preds = %if.else.i443
  %lpad.loopexit725 = landingpad { ptr, i32 }
          cleanup
  br label %ehcleanup521

lpad294.loopexit.split-lp:                        ; preds = %if.then514, %invoke.cont515, %init.end
  %lpad.loopexit.split-lp = landingpad { ptr, i32 }
          cleanup
  br label %ehcleanup521

for.end298:                                       ; preds = %for.inc297
  %196 = load atomic i8, ptr getelementptr inbounds (%"class.grpc_core::TraceFlag", ptr @grpc_trace_channel_stack, i64 0, i32 2) monotonic, align 8
  %197 = and i8 %196, 1
  %tobool.i.i.i.not = icmp eq i8 %197, 0
  br i1 %tobool.i.i.i.not, label %if.end511, label %if.then301

if.then301:                                       ; preds = %for.end298
  %198 = load atomic i8, ptr @_ZGVZN9grpc_core11ChannelInit16BuildStackConfigERKSt6vectorISt10unique_ptrINS0_18FilterRegistrationESt14default_deleteIS3_EESaIS6_EEPN4absl12lts_2023080212AnyInvocableIKFvRNS_19ChannelStackBuilderEEEE23grpc_channel_stack_typeE1m acquire, align 8
  %guard.uninitialized = icmp eq i8 %198, 0
  br i1 %guard.uninitialized, label %init.check, label %init.end, !prof !38

init.check:                                       ; preds = %if.then301
  %199 = call i32 @__cxa_guard_acquire(ptr nonnull @_ZGVZN9grpc_core11ChannelInit16BuildStackConfigERKSt6vectorISt10unique_ptrINS0_18FilterRegistrationESt14default_deleteIS3_EESaIS6_EEPN4absl12lts_2023080212AnyInvocableIKFvRNS_19ChannelStackBuilderEEEE23grpc_channel_stack_typeE1m) #21
  %tobool302.not = icmp eq i32 %199, 0
  br i1 %tobool302.not, label %init.end, label %init

init:                                             ; preds = %init.check
  %call305 = invoke noalias noundef nonnull dereferenceable(8) ptr @_Znwm(i64 noundef 8) #19
          to label %invoke.cont304 unwind label %lpad303

invoke.cont304:                                   ; preds = %init
  store i64 0, ptr %call305, align 8
  store ptr %call305, ptr @_ZZN9grpc_core11ChannelInit16BuildStackConfigERKSt6vectorISt10unique_ptrINS0_18FilterRegistrationESt14default_deleteIS3_EESaIS6_EEPN4absl12lts_2023080212AnyInvocableIKFvRNS_19ChannelStackBuilderEEEE23grpc_channel_stack_typeE1m, align 8
  call void @__cxa_guard_release(ptr nonnull @_ZGVZN9grpc_core11ChannelInit16BuildStackConfigERKSt6vectorISt10unique_ptrINS0_18FilterRegistrationESt14default_deleteIS3_EESaIS6_EEPN4absl12lts_2023080212AnyInvocableIKFvRNS_19ChannelStackBuilderEEEE23grpc_channel_stack_typeE1m) #21
  br label %init.end

init.end:                                         ; preds = %invoke.cont304, %init.check, %if.then301
  %200 = load ptr, ptr @_ZZN9grpc_core11ChannelInit16BuildStackConfigERKSt6vectorISt10unique_ptrINS0_18FilterRegistrationESt14default_deleteIS3_EESaIS6_EEPN4absl12lts_2023080212AnyInvocableIKFvRNS_19ChannelStackBuilderEEEE23grpc_channel_stack_typeE1m, align 8
  invoke void @_ZN4absl12lts_202308025Mutex4LockEv(ptr noundef nonnull align 8 dereferenceable(8) %200)
          to label %invoke.cont308 unwind label %lpad294.loopexit.split-lp

invoke.cont308:                                   ; preds = %init.end
  %call311 = invoke noundef ptr @_Z30grpc_channel_stack_type_string23grpc_channel_stack_type(i32 noundef %type)
          to label %invoke.cont310 unwind label %lpad309

invoke.cont310:                                   ; preds = %invoke.cont308
  invoke void (ptr, i32, i32, ptr, ...) @gpr_log(ptr noundef nonnull @.str.4, i32 noundef 251, i32 noundef 1, ptr noundef nonnull @.str.14, ptr noundef %call311)
          to label %invoke.cont312 unwind label %lpad309

invoke.cont312:                                   ; preds = %invoke.cont310
  %201 = getelementptr inbounds i8, ptr %loc_strs, i64 8
  store i32 0, ptr %201, align 8
  %_M_parent.i.i.i.i.i447 = getelementptr inbounds i8, ptr %loc_strs, i64 16
  store ptr null, ptr %_M_parent.i.i.i.i.i447, align 8
  %_M_left.i.i.i.i.i448 = getelementptr inbounds i8, ptr %loc_strs, i64 24
  store ptr %201, ptr %_M_left.i.i.i.i.i448, align 8
  %_M_right.i.i.i.i.i449 = getelementptr inbounds i8, ptr %loc_strs, i64 32
  store ptr %201, ptr %_M_right.i.i.i.i.i449, align 8
  %_M_node_count.i.i.i.i.i450 = getelementptr inbounds i8, ptr %loc_strs, i64 40
  store i64 0, ptr %_M_node_count.i.i.i.i.i450, align 8
  store i64 0, ptr %max_loc_str_len, align 8
  store i64 0, ptr %max_filter_name_len, align 8
  store ptr %max_loc_str_len, ptr %add_loc_str, align 8
  %202 = getelementptr inbounds %class.anon.58, ptr %add_loc_str, i64 0, i32 1
  store ptr %loc_strs, ptr %202, align 8
  %203 = getelementptr inbounds %class.anon.58, ptr %add_loc_str, i64 0, i32 2
  store ptr %filter_to_registration, ptr %203, align 8
  %204 = getelementptr inbounds %class.anon.58, ptr %add_loc_str, i64 0, i32 3
  store ptr %max_filter_name_len, ptr %204, align 8
  %205 = load ptr, ptr %filters, align 16
  %_M_finish.i451 = getelementptr inbounds %"struct.std::_Vector_base<grpc_core::ChannelInit::Filter, std::allocator<grpc_core::ChannelInit::Filter>>::_Vector_impl_data", ptr %filters, i64 0, i32 1
  %206 = load ptr, ptr %_M_finish.i451, align 8
  %cmp.i452.not798 = icmp eq ptr %205, %206
  br i1 %cmp.i452.not798, label %for.end330, label %for.body322

for.body322:                                      ; preds = %invoke.cont312, %for.inc328
  %__begin2314.sroa.0.0799 = phi ptr [ %incdec.ptr.i453, %for.inc328 ], [ %205, %invoke.cont312 ]
  %207 = load ptr, ptr %__begin2314.sroa.0.0799, align 8
  invoke fastcc void @"_ZZN9grpc_core11ChannelInit16BuildStackConfigERKSt6vectorISt10unique_ptrINS0_18FilterRegistrationESt14default_deleteIS3_EESaIS6_EEPN4absl12lts_2023080212AnyInvocableIKFvRNS_19ChannelStackBuilderEEEE23grpc_channel_stack_typeENK3$_1clEPK19grpc_channel_filter"(ptr noundef nonnull align 8 dereferenceable(32) %add_loc_str, ptr noundef %207)
          to label %for.inc328 unwind label %lpad326.loopexit.split-lp.loopexit.split-lp.loopexit.split-lp.loopexit.split-lp

for.inc328:                                       ; preds = %for.body322
  %incdec.ptr.i453 = getelementptr inbounds %"struct.grpc_core::ChannelInit::Filter", ptr %__begin2314.sroa.0.0799, i64 1
  %cmp.i452.not = icmp eq ptr %incdec.ptr.i453, %206
  br i1 %cmp.i452.not, label %for.end330, label %for.body322

lpad303:                                          ; preds = %init
  %208 = landingpad { ptr, i32 }
          cleanup
  call void @__cxa_guard_abort(ptr nonnull @_ZGVZN9grpc_core11ChannelInit16BuildStackConfigERKSt6vectorISt10unique_ptrINS0_18FilterRegistrationESt14default_deleteIS3_EESaIS6_EEPN4absl12lts_2023080212AnyInvocableIKFvRNS_19ChannelStackBuilderEEEE23grpc_channel_stack_typeE1m) #21
  br label %ehcleanup521

lpad309:                                          ; preds = %invoke.cont310, %invoke.cont308
  %209 = landingpad { ptr, i32 }
          cleanup
  br label %ehcleanup510

lpad326.loopexit:                                 ; preds = %invoke.cont476, %invoke.cont483, %if.then.i567
  %lpad.loopexit = landingpad { ptr, i32 }
          cleanup
  br label %ehcleanup509

lpad326.loopexit.split-lp.loopexit:               ; preds = %call.i.i.i.i474.noexc, %while.body.i.i.i472
  %lpad.loopexit717 = landingpad { ptr, i32 }
          cleanup
  br label %ehcleanup509

lpad326.loopexit.split-lp.loopexit.split-lp.loopexit: ; preds = %lor.lhs.false.i.i482, %call.i.i.i.noexc
  %lpad.loopexit720 = landingpad { ptr, i32 }
          cleanup
  br label %ehcleanup509

lpad326.loopexit.split-lp.loopexit.split-lp.loopexit.split-lp.loopexit: ; preds = %for.body340
  %lpad.loopexit722 = landingpad { ptr, i32 }
          cleanup
  br label %ehcleanup509

lpad326.loopexit.split-lp.loopexit.split-lp.loopexit.split-lp.loopexit.split-lp: ; preds = %for.body322
  %lpad.loopexit.split-lp723 = landingpad { ptr, i32 }
          cleanup
  br label %ehcleanup509

for.end330:                                       ; preds = %for.inc328, %invoke.cont312
  %210 = load ptr, ptr %terminal_filters, align 8
  %_M_finish.i454 = getelementptr inbounds %"struct.std::_Vector_base<grpc_core::ChannelInit::Filter, std::allocator<grpc_core::ChannelInit::Filter>>::_Vector_impl_data", ptr %terminal_filters, i64 0, i32 1
  %211 = load ptr, ptr %_M_finish.i454, align 8
  %cmp.i455.not800 = icmp eq ptr %210, %211
  br i1 %cmp.i455.not800, label %for.end346, label %for.body340

for.body340:                                      ; preds = %for.end330, %for.inc344
  %__begin2332.sroa.0.0801 = phi ptr [ %incdec.ptr.i456, %for.inc344 ], [ %210, %for.end330 ]
  %212 = load ptr, ptr %__begin2332.sroa.0.0801, align 8
  invoke fastcc void @"_ZZN9grpc_core11ChannelInit16BuildStackConfigERKSt6vectorISt10unique_ptrINS0_18FilterRegistrationESt14default_deleteIS3_EESaIS6_EEPN4absl12lts_2023080212AnyInvocableIKFvRNS_19ChannelStackBuilderEEEE23grpc_channel_stack_typeENK3$_1clEPK19grpc_channel_filter"(ptr noundef nonnull align 8 dereferenceable(32) %add_loc_str, ptr noundef %212)
          to label %for.inc344 unwind label %lpad326.loopexit.split-lp.loopexit.split-lp.loopexit.split-lp.loopexit

for.inc344:                                       ; preds = %for.body340
  %incdec.ptr.i456 = getelementptr inbounds %"struct.grpc_core::ChannelInit::Filter", ptr %__begin2332.sroa.0.0801, i64 1
  %cmp.i455.not = icmp eq ptr %incdec.ptr.i456, %211
  br i1 %cmp.i455.not, label %for.end346, label %for.body340

for.end346:                                       ; preds = %for.inc344, %for.end330
  %213 = load ptr, ptr %_M_left.i.i.i.i.i448, align 8
  %cmp.i458.not802 = icmp eq ptr %213, %201
  br i1 %cmp.i458.not802, label %for.end378, label %for.body356.lr.ph

for.body356.lr.ph:                                ; preds = %for.end346
  %214 = getelementptr inbounds { i64, ptr }, ptr %ref.tmp359, i64 0, i32 1
  %215 = getelementptr inbounds { i64, ptr }, ptr %ref.tmp362, i64 0, i32 1
  br label %for.body356

for.body356:                                      ; preds = %for.body356.lr.ph, %invoke.cont371
  %__begin2348.sroa.0.0803 = phi ptr [ %213, %for.body356.lr.ph ], [ %call.i467, %invoke.cont371 ]
  %second360 = getelementptr inbounds %"struct.std::_Rb_tree_node.77", ptr %__begin2348.sroa.0.0803, i64 0, i32 1, i32 0, i64 8
  %call.i460 = call { i64, ptr } @_ZNKSt7__cxx1112basic_stringIcSt11char_traitsIcESaIcEEcvSt17basic_string_viewIcS2_EEv(ptr noundef nonnull align 8 dereferenceable(32) %second360) #21
  %216 = extractvalue { i64, ptr } %call.i460, 0
  store i64 %216, ptr %ref.tmp359, align 8
  %217 = extractvalue { i64, ptr } %call.i460, 1
  store ptr %217, ptr %214, align 8
  %218 = load i64, ptr %max_loc_str_len, align 8
  %add = add i64 %218, 2
  %call365 = call noundef i64 @_ZNKSt7__cxx1112basic_stringIcSt11char_traitsIcESaIcEE6lengthEv(ptr noundef nonnull align 8 dereferenceable(32) %second360) #21
  %sub = sub i64 %add, %call365
  call void @_ZNSaIcEC1Ev(ptr noundef nonnull align 1 dereferenceable(1) %ref.tmp366) #21
  %call.i461463 = invoke noundef ptr @_ZNSt7__cxx1112basic_stringIcSt11char_traitsIcESaIcEE13_M_local_dataEv(ptr noundef nonnull align 8 dereferenceable(32) %ref.tmp363)
          to label %call.i461.noexc unwind label %lpad367

call.i461.noexc:                                  ; preds = %for.body356
  invoke void @_ZNSt7__cxx1112basic_stringIcSt11char_traitsIcESaIcEE12_Alloc_hiderC1EPcRKS3_(ptr noundef nonnull align 8 dereferenceable(8) %ref.tmp363, ptr noundef %call.i461463, ptr noundef nonnull align 1 dereferenceable(1) %ref.tmp366)
          to label %.noexc464 unwind label %lpad367

.noexc464:                                        ; preds = %call.i461.noexc
  invoke void @_ZNSt7__cxx1112basic_stringIcSt11char_traitsIcESaIcEE12_M_constructEmc(ptr noundef nonnull align 8 dereferenceable(32) %ref.tmp363, i64 noundef %sub, i8 noundef signext 32)
          to label %invoke.cont368 unwind label %lpad.i462

lpad.i462:                                        ; preds = %.noexc464
  %219 = landingpad { ptr, i32 }
          cleanup
  call void @_ZNSaIcED2Ev(ptr noundef nonnull align 1 dereferenceable(1) %ref.tmp363) #21
  br label %ehcleanup375

invoke.cont368:                                   ; preds = %.noexc464
  %call.i466 = call { i64, ptr } @_ZNKSt7__cxx1112basic_stringIcSt11char_traitsIcESaIcEEcvSt17basic_string_viewIcS2_EEv(ptr noundef nonnull align 8 dereferenceable(32) %ref.tmp363) #21
  %220 = extractvalue { i64, ptr } %call.i466, 0
  store i64 %220, ptr %ref.tmp362, align 8
  %221 = extractvalue { i64, ptr } %call.i466, 1
  store ptr %221, ptr %215, align 8
  invoke void @_ZN4absl12lts_202308026StrCatB5cxx11ERKNS0_8AlphaNumES3_(ptr nonnull sret(%"class.std::__cxx11::basic_string") align 8 %ref.tmp358, ptr noundef nonnull align 8 dereferenceable(48) %ref.tmp359, ptr noundef nonnull align 8 dereferenceable(48) %ref.tmp362)
          to label %invoke.cont371 unwind label %lpad369

invoke.cont371:                                   ; preds = %invoke.cont368
  %call373 = call noundef nonnull align 8 dereferenceable(32) ptr @_ZNSt7__cxx1112basic_stringIcSt11char_traitsIcESaIcEEaSEOS4_(ptr noundef nonnull align 8 dereferenceable(32) %second360, ptr noundef nonnull align 8 dereferenceable(32) %ref.tmp358) #21
  call void @_ZNSt7__cxx1112basic_stringIcSt11char_traitsIcESaIcEED1Ev(ptr noundef nonnull align 8 dereferenceable(32) %ref.tmp358) #21
  call void @_ZNSt7__cxx1112basic_stringIcSt11char_traitsIcESaIcEED1Ev(ptr noundef nonnull align 8 dereferenceable(32) %ref.tmp363) #21
  call void @_ZNSaIcED1Ev(ptr noundef nonnull align 1 dereferenceable(1) %ref.tmp366) #21
  %call.i467 = call noundef ptr @_ZSt18_Rb_tree_incrementPSt18_Rb_tree_node_base(ptr noundef %__begin2348.sroa.0.0803) #23
  %cmp.i458.not = icmp eq ptr %call.i467, %201
  br i1 %cmp.i458.not, label %for.end378, label %for.body356

lpad367:                                          ; preds = %call.i461.noexc, %for.body356
  %222 = landingpad { ptr, i32 }
          cleanup
  br label %ehcleanup375

lpad369:                                          ; preds = %invoke.cont368
  %223 = landingpad { ptr, i32 }
          cleanup
  call void @_ZNSt7__cxx1112basic_stringIcSt11char_traitsIcESaIcEED1Ev(ptr noundef nonnull align 8 dereferenceable(32) %ref.tmp363) #21
  br label %ehcleanup375

ehcleanup375:                                     ; preds = %lpad367, %lpad.i462, %lpad369
  %.pn60 = phi { ptr, i32 } [ %223, %lpad369 ], [ %222, %lpad367 ], [ %219, %lpad.i462 ]
  call void @_ZNSaIcED1Ev(ptr noundef nonnull align 1 dereferenceable(1) %ref.tmp366) #21
  br label %ehcleanup509

for.end378:                                       ; preds = %invoke.cont371, %for.end346
  %224 = load ptr, ptr %filters, align 16
  %225 = load ptr, ptr %_M_finish.i451, align 8
  %cmp.i469.not804 = icmp eq ptr %224, %225
  br i1 %cmp.i469.not804, label %for.end458, label %for.body388.lr.ph

for.body388.lr.ph:                                ; preds = %for.end378
  %226 = getelementptr inbounds { i64, ptr }, ptr %ref.tmp405, i64 0, i32 1
  %227 = getelementptr inbounds { i64, ptr }, ptr %ref.tmp419, i64 0, i32 1
  %228 = getelementptr inbounds { i64, ptr }, ptr %ref.tmp421, i64 0, i32 1
  %229 = getelementptr inbounds { i64, ptr }, ptr %ref.tmp436, i64 0, i32 1
  %230 = getelementptr inbounds { i64, ptr }, ptr %ref.tmp438, i64 0, i32 1
  %231 = getelementptr inbounds { i64, ptr }, ptr %ref.tmp443, i64 0, i32 1
  %232 = getelementptr inbounds { i64, ptr }, ptr %ref.tmp448, i64 0, i32 1
  br label %for.body388

for.body388:                                      ; preds = %for.body388.lr.ph, %invoke.cont453
  %__begin2380.sroa.0.0805 = phi ptr [ %224, %for.body388.lr.ph ], [ %incdec.ptr.i537, %invoke.cont453 ]
  %this.val.i.i470 = load ptr, ptr %_M_parent.i.i.i.i.i380, align 8
  %cmp.not1.i.i.i = icmp eq ptr %this.val.i.i470, null
  br i1 %cmp.not1.i.i.i, label %invoke.cont392.thread, label %while.body.i.i.i472

while.body.i.i.i472:                              ; preds = %for.body388, %call2.i.i.i.i.noexc488
  %__x.addr.03.i.i.i = phi ptr [ %__x.addr.1.i.i.i479, %call2.i.i.i.i.noexc488 ], [ %this.val.i.i470, %for.body388 ]
  %__y.addr.02.i.i.i = phi ptr [ %__y.addr.1.i.i.i477, %call2.i.i.i.i.noexc488 ], [ %137, %for.body388 ]
  %_M_storage.i.i.i.i.i473 = getelementptr inbounds %"struct.std::_Rb_tree_node", ptr %__x.addr.03.i.i.i, i64 0, i32 1
  %233 = load ptr, ptr %_M_storage.i.i.i.i.i473, align 8
  %234 = load ptr, ptr %__begin2380.sroa.0.0805, align 8
  %235 = load ptr, ptr @_ZN9grpc_core21NameFromChannelFilterE, align 8
  %call.i.i.i.i474487 = invoke noundef ptr %235(ptr noundef %233)
          to label %call.i.i.i.i474.noexc unwind label %lpad326.loopexit.split-lp.loopexit

call.i.i.i.i474.noexc:                            ; preds = %while.body.i.i.i472
  %236 = load ptr, ptr @_ZN9grpc_core21NameFromChannelFilterE, align 8
  %call2.i.i.i.i489 = invoke noundef ptr %236(ptr noundef %234)
          to label %call2.i.i.i.i.noexc488 unwind label %lpad326.loopexit.split-lp.loopexit

call2.i.i.i.i.noexc488:                           ; preds = %call.i.i.i.i474.noexc
  %call3.i.i.i.i475 = call i32 @strcmp(ptr noundef nonnull dereferenceable(1) %call.i.i.i.i474487, ptr noundef nonnull dereferenceable(1) %call2.i.i.i.i489) #23
  %cmp.i.i.i.i476 = icmp slt i32 %call3.i.i.i.i475, 0
  %__y.addr.1.i.i.i477 = select i1 %cmp.i.i.i.i476, ptr %__y.addr.02.i.i.i, ptr %__x.addr.03.i.i.i
  %__x.addr.1.in.v.i.i.i = select i1 %cmp.i.i.i.i476, i64 24, i64 16
  %__x.addr.1.in.i.i.i478 = getelementptr i8, ptr %__x.addr.03.i.i.i, i64 %__x.addr.1.in.v.i.i.i
  %__x.addr.1.i.i.i479 = load ptr, ptr %__x.addr.1.in.i.i.i478, align 8
  %cmp.not.i.i.i480 = icmp eq ptr %__x.addr.1.i.i.i479, null
  br i1 %cmp.not.i.i.i480, label %_ZNKSt8_Rb_treeIPK19grpc_channel_filterSt4pairIKS2_St3setIS2_N9grpc_core12_GLOBAL__N_127CompareChannelFiltersByNameESaIS2_EEESt10_Select1stISB_ES8_SaISB_EE14_M_lower_boundEPKSt13_Rb_tree_nodeISB_EPKSt18_Rb_tree_node_baseRS4_.exit.i.i, label %while.body.i.i.i472, !llvm.loop !39

_ZNKSt8_Rb_treeIPK19grpc_channel_filterSt4pairIKS2_St3setIS2_N9grpc_core12_GLOBAL__N_127CompareChannelFiltersByNameESaIS2_EEESt10_Select1stISB_ES8_SaISB_EE14_M_lower_boundEPKSt13_Rb_tree_nodeISB_EPKSt18_Rb_tree_node_baseRS4_.exit.i.i: ; preds = %call2.i.i.i.i.noexc488
  %cmp.i.i.i481 = icmp eq ptr %__y.addr.1.i.i.i477, %137
  br i1 %cmp.i.i.i481, label %invoke.cont392.thread, label %lor.lhs.false.i.i482

lor.lhs.false.i.i482:                             ; preds = %_ZNKSt8_Rb_treeIPK19grpc_channel_filterSt4pairIKS2_St3setIS2_N9grpc_core12_GLOBAL__N_127CompareChannelFiltersByNameESaIS2_EEESt10_Select1stISB_ES8_SaISB_EE14_M_lower_boundEPKSt13_Rb_tree_nodeISB_EPKSt18_Rb_tree_node_baseRS4_.exit.i.i
  %_M_storage.i.i.i.i.i473.le = getelementptr inbounds %"struct.std::_Rb_tree_node", ptr %__x.addr.03.i.i.i, i64 0, i32 1
  %237 = load ptr, ptr %__begin2380.sroa.0.0805, align 8
  %__y.addr.02.i.i.i.sroa.gep = getelementptr inbounds %"struct.std::_Rb_tree_node", ptr %__y.addr.02.i.i.i, i64 0, i32 1
  %__y.addr.1.i.i.i477.sroa.sel = select i1 %cmp.i.i.i.i476, ptr %__y.addr.02.i.i.i.sroa.gep, ptr %_M_storage.i.i.i.i.i473.le
  %238 = load ptr, ptr %__y.addr.1.i.i.i477.sroa.sel, align 8
  %239 = load ptr, ptr @_ZN9grpc_core21NameFromChannelFilterE, align 8
  %call.i.i.i490 = invoke noundef ptr %239(ptr noundef %237)
          to label %call.i.i.i.noexc unwind label %lpad326.loopexit.split-lp.loopexit.split-lp.loopexit

call.i.i.i.noexc:                                 ; preds = %lor.lhs.false.i.i482
  %240 = load ptr, ptr @_ZN9grpc_core21NameFromChannelFilterE, align 8
  %call2.i.i.i491 = invoke noundef ptr %240(ptr noundef %238)
          to label %invoke.cont392 unwind label %lpad326.loopexit.split-lp.loopexit.split-lp.loopexit

invoke.cont392.thread:                            ; preds = %_ZNKSt8_Rb_treeIPK19grpc_channel_filterSt4pairIKS2_St3setIS2_N9grpc_core12_GLOBAL__N_127CompareChannelFiltersByNameESaIS2_EEESt10_Select1stISB_ES8_SaISB_EE14_M_lower_boundEPKSt13_Rb_tree_nodeISB_EPKSt18_Rb_tree_node_baseRS4_.exit.i.i, %for.body388
  call void @_ZNSt7__cxx1112basic_stringIcSt11char_traitsIcESaIcEEC1Ev(ptr noundef nonnull align 8 dereferenceable(32) %after_str) #21
  br label %invoke.cont437

invoke.cont392:                                   ; preds = %call.i.i.i.noexc
  %call3.i.i.i = call i32 @strcmp(ptr noundef nonnull dereferenceable(1) %call.i.i.i490, ptr noundef nonnull dereferenceable(1) %call2.i.i.i491) #23
  %cmp.i4.i.i484 = icmp slt i32 %call3.i.i.i, 0
  call void @_ZNSt7__cxx1112basic_stringIcSt11char_traitsIcESaIcEEC1Ev(ptr noundef nonnull align 8 dereferenceable(32) %after_str) #21
  br i1 %cmp.i4.i.i484, label %invoke.cont437, label %land.rhs

land.rhs:                                         ; preds = %invoke.cont392
  %241 = getelementptr %"struct.std::_Rb_tree_node", ptr %__y.addr.1.i.i.i477, i64 0, i32 1, i32 0, i64 48
  %second400.val = load i64, ptr %241, align 8
  %cmp.i.i495 = icmp eq i64 %second400.val, 0
  br i1 %cmp.i.i495, label %invoke.cont437, label %if.then403

if.then403:                                       ; preds = %land.rhs
  %242 = load i64, ptr %max_filter_name_len, align 8
  %243 = load ptr, ptr @_ZN9grpc_core21NameFromChannelFilterE, align 8
  %244 = load ptr, ptr %__begin2380.sroa.0.0805, align 8
  %call411 = invoke noundef ptr %243(ptr noundef %244)
          to label %invoke.cont410 unwind label %lpad409

invoke.cont410:                                   ; preds = %if.then403
  %add407 = add i64 %242, 1
  %call412 = call i64 @strlen(ptr noundef nonnull dereferenceable(1) %call411) #23
  %sub413 = sub i64 %add407, %call412
  call void @_ZNSaIcEC1Ev(ptr noundef nonnull align 1 dereferenceable(1) %ref.tmp414) #21
  %call.i496498 = invoke noundef ptr @_ZNSt7__cxx1112basic_stringIcSt11char_traitsIcESaIcEE13_M_local_dataEv(ptr noundef nonnull align 8 dereferenceable(32) %ref.tmp406)
          to label %call.i496.noexc unwind label %lpad415

call.i496.noexc:                                  ; preds = %invoke.cont410
  invoke void @_ZNSt7__cxx1112basic_stringIcSt11char_traitsIcESaIcEE12_Alloc_hiderC1EPcRKS3_(ptr noundef nonnull align 8 dereferenceable(8) %ref.tmp406, ptr noundef %call.i496498, ptr noundef nonnull align 1 dereferenceable(1) %ref.tmp414)
          to label %.noexc499 unwind label %lpad415

.noexc499:                                        ; preds = %call.i496.noexc
  invoke void @_ZNSt7__cxx1112basic_stringIcSt11char_traitsIcESaIcEE12_M_constructEmc(ptr noundef nonnull align 8 dereferenceable(32) %ref.tmp406, i64 noundef %sub413, i8 noundef signext 32)
          to label %invoke.cont420 unwind label %lpad.i497

lpad.i497:                                        ; preds = %.noexc499
  %245 = landingpad { ptr, i32 }
          cleanup
  call void @_ZNSaIcED2Ev(ptr noundef nonnull align 1 dereferenceable(1) %ref.tmp406) #21
  br label %ehcleanup434

invoke.cont420:                                   ; preds = %.noexc499
  %call.i502 = call { i64, ptr } @_ZNKSt7__cxx1112basic_stringIcSt11char_traitsIcESaIcEEcvSt17basic_string_viewIcS2_EEv(ptr noundef nonnull align 8 dereferenceable(32) %ref.tmp406) #21
  %246 = extractvalue { i64, ptr } %call.i502, 0
  store i64 %246, ptr %ref.tmp405, align 8
  %247 = extractvalue { i64, ptr } %call.i502, 1
  store ptr %247, ptr %226, align 8
  store i64 6, ptr %ref.tmp419, align 8
  store ptr @.str.15, ptr %227, align 8
  %248 = getelementptr inbounds %"struct.std::_Rb_tree_node", ptr %__y.addr.1.i.i.i477, i64 0, i32 1, i32 0, i64 32
  %range.val.i.i = load ptr, ptr %248, align 8, !noalias !40
  %add.ptr.i.i.i.i.i = getelementptr inbounds %"struct.std::_Rb_tree_node", ptr %__y.addr.1.i.i.i477, i64 0, i32 1, i32 0, i64 16
  call void @_ZNSt7__cxx1112basic_stringIcSt11char_traitsIcESaIcEEC1Ev(ptr noundef nonnull align 8 dereferenceable(32) %ref.tmp422) #21
  %cmp.i.not3.i.i.i = icmp eq ptr %range.val.i.i, %add.ptr.i.i.i.i.i
  br i1 %cmp.i.not3.i.i.i, label %invoke.cont427, label %for.body.i.i.i

for.body.i.i.i:                                   ; preds = %invoke.cont420, %invoke.cont6.i.i.i
  %it.sroa.0.06.i.i.i = phi ptr [ %call.i.i.i.i509, %invoke.cont6.i.i.i ], [ %range.val.i.i, %invoke.cont420 ]
  %sep.sroa.0.05.i.i.i = phi i64 [ 2, %invoke.cont6.i.i.i ], [ 0, %invoke.cont420 ]
  %sep.sroa.3.04.i.i.i = phi ptr [ @.str.16, %invoke.cont6.i.i.i ], [ @.str.36, %invoke.cont420 ]
  %call4.i.i.i = invoke noundef nonnull align 8 dereferenceable(32) ptr @_ZNSt7__cxx1112basic_stringIcSt11char_traitsIcESaIcEE6appendEPKcm(ptr noundef nonnull align 8 dereferenceable(32) %ref.tmp422, ptr noundef nonnull %sep.sroa.3.04.i.i.i, i64 noundef %sep.sroa.0.05.i.i.i)
          to label %invoke.cont.i.i.i unwind label %lpad.i.i.i

invoke.cont.i.i.i:                                ; preds = %for.body.i.i.i
  %_M_storage.i.i.i.i.i508 = getelementptr inbounds %"struct.std::_Rb_tree_node.69", ptr %it.sroa.0.06.i.i.i, i64 0, i32 1
  %249 = load ptr, ptr %_M_storage.i.i.i.i.i508, align 8
  %250 = load ptr, ptr @_ZN9grpc_core21NameFromChannelFilterE, align 8, !noalias !45
  %call.i2.i.i.i = invoke noundef ptr %250(ptr noundef %249)
          to label %call.i.noexc.i.i.i unwind label %lpad.i.i.i

call.i.noexc.i.i.i:                               ; preds = %invoke.cont.i.i.i
  %call2.i3.i.i.i = invoke noundef nonnull align 8 dereferenceable(32) ptr @_ZNSt7__cxx1112basic_stringIcSt11char_traitsIcESaIcEE6appendEPKc(ptr noundef nonnull align 8 dereferenceable(32) %ref.tmp422, ptr noundef %call.i2.i.i.i)
          to label %invoke.cont6.i.i.i unwind label %lpad.i.i.i

invoke.cont6.i.i.i:                               ; preds = %call.i.noexc.i.i.i
  %call.i.i.i.i509 = call noundef ptr @_ZSt18_Rb_tree_incrementPKSt18_Rb_tree_node_base(ptr noundef nonnull %it.sroa.0.06.i.i.i) #23
  %cmp.i.not.i.i.i = icmp eq ptr %call.i.i.i.i509, %add.ptr.i.i.i.i.i
  br i1 %cmp.i.not.i.i.i, label %invoke.cont427, label %for.body.i.i.i, !llvm.loop !48

lpad.i.i.i:                                       ; preds = %call.i.noexc.i.i.i, %invoke.cont.i.i.i, %for.body.i.i.i
  %251 = landingpad { ptr, i32 }
          cleanup
  br label %ehcleanup433

invoke.cont427:                                   ; preds = %invoke.cont6.i.i.i, %invoke.cont420
  %call.i511 = call { i64, ptr } @_ZNKSt7__cxx1112basic_stringIcSt11char_traitsIcESaIcEEcvSt17basic_string_viewIcS2_EEv(ptr noundef nonnull align 8 dereferenceable(32) %ref.tmp422) #21
  %252 = extractvalue { i64, ptr } %call.i511, 0
  store i64 %252, ptr %ref.tmp421, align 8
  %253 = extractvalue { i64, ptr } %call.i511, 1
  store ptr %253, ptr %228, align 8
  invoke void @_ZN4absl12lts_202308026StrCatB5cxx11ERKNS0_8AlphaNumES3_S3_(ptr nonnull sret(%"class.std::__cxx11::basic_string") align 8 %ref.tmp404, ptr noundef nonnull align 8 dereferenceable(48) %ref.tmp405, ptr noundef nonnull align 8 dereferenceable(48) %ref.tmp419, ptr noundef nonnull align 8 dereferenceable(48) %ref.tmp421)
          to label %invoke.cont430 unwind label %lpad428

invoke.cont430:                                   ; preds = %invoke.cont427
  %call431 = call noundef nonnull align 8 dereferenceable(32) ptr @_ZNSt7__cxx1112basic_stringIcSt11char_traitsIcESaIcEEaSEOS4_(ptr noundef nonnull align 8 dereferenceable(32) %after_str, ptr noundef nonnull align 8 dereferenceable(32) %ref.tmp404) #21
  call void @_ZNSt7__cxx1112basic_stringIcSt11char_traitsIcESaIcEED1Ev(ptr noundef nonnull align 8 dereferenceable(32) %ref.tmp404) #21
  call void @_ZNSt7__cxx1112basic_stringIcSt11char_traitsIcESaIcEED1Ev(ptr noundef nonnull align 8 dereferenceable(32) %ref.tmp422) #21
  call void @_ZNSt7__cxx1112basic_stringIcSt11char_traitsIcESaIcEED1Ev(ptr noundef nonnull align 8 dereferenceable(32) %ref.tmp406) #21
  call void @_ZNSaIcED1Ev(ptr noundef nonnull align 1 dereferenceable(1) %ref.tmp414) #21
  br label %invoke.cont437

lpad409:                                          ; preds = %if.then.i528, %invoke.cont447, %invoke.cont440, %if.then403
  %254 = landingpad { ptr, i32 }
          cleanup
  br label %ehcleanup455

lpad415:                                          ; preds = %call.i496.noexc, %invoke.cont410
  %255 = landingpad { ptr, i32 }
          cleanup
  br label %ehcleanup434

lpad428:                                          ; preds = %invoke.cont427
  %256 = landingpad { ptr, i32 }
          cleanup
  br label %ehcleanup433

ehcleanup433:                                     ; preds = %lpad.i.i.i, %lpad428
  %.pn55 = phi { ptr, i32 } [ %256, %lpad428 ], [ %251, %lpad.i.i.i ]
  call void @_ZNSt7__cxx1112basic_stringIcSt11char_traitsIcESaIcEED1Ev(ptr noundef nonnull align 8 dereferenceable(32) %ref.tmp422) #21
  call void @_ZNSt7__cxx1112basic_stringIcSt11char_traitsIcESaIcEED1Ev(ptr noundef nonnull align 8 dereferenceable(32) %ref.tmp406) #21
  br label %ehcleanup434

ehcleanup434:                                     ; preds = %lpad415, %lpad.i497, %ehcleanup433
  %.pn55.pn = phi { ptr, i32 } [ %.pn55, %ehcleanup433 ], [ %255, %lpad415 ], [ %245, %lpad.i497 ]
  call void @_ZNSaIcED1Ev(ptr noundef nonnull align 1 dereferenceable(1) %ref.tmp414) #21
  br label %ehcleanup455

invoke.cont437:                                   ; preds = %land.rhs, %invoke.cont430, %invoke.cont392, %invoke.cont392.thread
  store i64 2, ptr %ref.tmp436, align 8
  store ptr @.str.17, ptr %229, align 8
  call void @llvm.lifetime.start.p0(i64 8, ptr nonnull %ref.tmp9.i)
  call void @llvm.lifetime.start.p0(i64 1, ptr nonnull %ref.tmp10.i)
  %257 = load ptr, ptr %_M_parent.i.i.i.i.i447, align 8
  %cmp.not5.i.i.i.i = icmp eq ptr %257, null
  br i1 %cmp.not5.i.i.i.i, label %if.then.i528, label %while.body.lr.ph.i.i.i.i

while.body.lr.ph.i.i.i.i:                         ; preds = %invoke.cont437
  %258 = load ptr, ptr %__begin2380.sroa.0.0805, align 8
  br label %while.body.i.i.i.i517

while.body.i.i.i.i517:                            ; preds = %while.body.i.i.i.i517, %while.body.lr.ph.i.i.i.i
  %__x.addr.07.i.i.i.i = phi ptr [ %257, %while.body.lr.ph.i.i.i.i ], [ %__x.addr.1.i.i.i.i524, %while.body.i.i.i.i517 ]
  %__y.addr.06.i.i.i.i = phi ptr [ %201, %while.body.lr.ph.i.i.i.i ], [ %__y.addr.1.i.i.i.i522, %while.body.i.i.i.i517 ]
  %_M_storage.i.i.i.i.i.i518 = getelementptr inbounds %"struct.std::_Rb_tree_node.77", ptr %__x.addr.07.i.i.i.i, i64 0, i32 1
  %259 = load ptr, ptr %_M_storage.i.i.i.i.i.i518, align 8
  %cmp.i.i.i.i.i519 = icmp ult ptr %259, %258
  %_M_right.i.i.i.i.i520 = getelementptr inbounds %"struct.std::_Rb_tree_node_base", ptr %__x.addr.07.i.i.i.i, i64 0, i32 3
  %_M_left.i.i.i.i.i521 = getelementptr inbounds %"struct.std::_Rb_tree_node_base", ptr %__x.addr.07.i.i.i.i, i64 0, i32 2
  %__y.addr.1.i.i.i.i522 = select i1 %cmp.i.i.i.i.i519, ptr %__y.addr.06.i.i.i.i, ptr %__x.addr.07.i.i.i.i
  %__x.addr.1.in.i.i.i.i523 = select i1 %cmp.i.i.i.i.i519, ptr %_M_right.i.i.i.i.i520, ptr %_M_left.i.i.i.i.i521
  %__x.addr.1.i.i.i.i524 = load ptr, ptr %__x.addr.1.in.i.i.i.i523, align 8
  %cmp.not.i.i.i.i525 = icmp eq ptr %__x.addr.1.i.i.i.i524, null
  br i1 %cmp.not.i.i.i.i525, label %_ZNSt3mapIPK19grpc_channel_filterNSt7__cxx1112basic_stringIcSt11char_traitsIcESaIcEEESt4lessIS2_ESaISt4pairIKS2_S8_EEE11lower_boundERSC_.exit.i, label %while.body.i.i.i.i517, !llvm.loop !49

_ZNSt3mapIPK19grpc_channel_filterNSt7__cxx1112basic_stringIcSt11char_traitsIcESaIcEEESt4lessIS2_ESaISt4pairIKS2_S8_EEE11lower_boundERSC_.exit.i: ; preds = %while.body.i.i.i.i517
  %cmp.i.i526 = icmp eq ptr %__y.addr.1.i.i.i.i522, %201
  br i1 %cmp.i.i526, label %if.then.i528, label %lor.rhs.i

lor.rhs.i:                                        ; preds = %_ZNSt3mapIPK19grpc_channel_filterNSt7__cxx1112basic_stringIcSt11char_traitsIcESaIcEEESt4lessIS2_ESaISt4pairIKS2_S8_EEE11lower_boundERSC_.exit.i
  %_M_storage.i.i.i.i.i.i518.le = getelementptr inbounds %"struct.std::_Rb_tree_node.77", ptr %__x.addr.07.i.i.i.i, i64 0, i32 1
  %__y.addr.06.i.i.i.i.sroa.gep = getelementptr inbounds %"struct.std::_Rb_tree_node.77", ptr %__y.addr.06.i.i.i.i, i64 0, i32 1
  %__y.addr.1.i.i.i.i522.sroa.sel = select i1 %cmp.i.i.i.i.i519, ptr %__y.addr.06.i.i.i.i.sroa.gep, ptr %_M_storage.i.i.i.i.i.i518.le
  %260 = load ptr, ptr %__y.addr.1.i.i.i.i522.sroa.sel, align 8
  %cmp.i3.i = icmp ult ptr %258, %260
  br i1 %cmp.i3.i, label %if.then.i528, label %invoke.cont440

if.then.i528:                                     ; preds = %lor.rhs.i, %_ZNSt3mapIPK19grpc_channel_filterNSt7__cxx1112basic_stringIcSt11char_traitsIcESaIcEEESt4lessIS2_ESaISt4pairIKS2_S8_EEE11lower_boundERSC_.exit.i, %invoke.cont437
  %__y.addr.0.lcssa.i.i.i10.i = phi ptr [ %201, %_ZNSt3mapIPK19grpc_channel_filterNSt7__cxx1112basic_stringIcSt11char_traitsIcESaIcEEESt4lessIS2_ESaISt4pairIKS2_S8_EEE11lower_boundERSC_.exit.i ], [ %__y.addr.1.i.i.i.i522, %lor.rhs.i ], [ %201, %invoke.cont437 ]
  store ptr %__begin2380.sroa.0.0805, ptr %ref.tmp9.i, align 8
  %call12.i529 = invoke ptr @_ZNSt8_Rb_treeIPK19grpc_channel_filterSt4pairIKS2_NSt7__cxx1112basic_stringIcSt11char_traitsIcESaIcEEEESt10_Select1stISB_ESt4lessIS2_ESaISB_EE22_M_emplace_hint_uniqueIJRKSt21piecewise_construct_tSt5tupleIJRS4_EESM_IJEEEEESt17_Rb_tree_iteratorISB_ESt23_Rb_tree_const_iteratorISB_EDpOT_(ptr noundef nonnull align 8 dereferenceable(48) %loc_strs, ptr %__y.addr.0.lcssa.i.i.i10.i, ptr noundef nonnull align 1 dereferenceable(1) @_ZSt19piecewise_construct, ptr noundef nonnull align 8 dereferenceable(8) %ref.tmp9.i, ptr noundef nonnull align 1 dereferenceable(1) %ref.tmp10.i)
          to label %invoke.cont440 unwind label %lpad409

invoke.cont440:                                   ; preds = %lor.rhs.i, %if.then.i528
  %__i.sroa.0.0.i = phi ptr [ %__y.addr.1.i.i.i.i522, %lor.rhs.i ], [ %call12.i529, %if.then.i528 ]
  %second.i = getelementptr inbounds %"struct.std::_Rb_tree_node.77", ptr %__i.sroa.0.0.i, i64 0, i32 1, i32 0, i64 8
  call void @llvm.lifetime.end.p0(i64 8, ptr nonnull %ref.tmp9.i)
  call void @llvm.lifetime.end.p0(i64 1, ptr nonnull %ref.tmp10.i)
  %call.i530 = call { i64, ptr } @_ZNKSt7__cxx1112basic_stringIcSt11char_traitsIcESaIcEEcvSt17basic_string_viewIcS2_EEv(ptr noundef nonnull align 8 dereferenceable(32) %second.i) #21
  %261 = extractvalue { i64, ptr } %call.i530, 0
  store i64 %261, ptr %ref.tmp438, align 8
  %262 = extractvalue { i64, ptr } %call.i530, 1
  store ptr %262, ptr %230, align 8
  %263 = load ptr, ptr @_ZN9grpc_core21NameFromChannelFilterE, align 8
  %264 = load ptr, ptr %__begin2380.sroa.0.0805, align 8
  %call446 = invoke noundef ptr %263(ptr noundef %264)
          to label %invoke.cont445 unwind label %lpad409

invoke.cont445:                                   ; preds = %invoke.cont440
  %tobool.not.i.i531 = icmp eq ptr %call446, null
  br i1 %tobool.not.i.i531, label %invoke.cont447, label %cond.true.i.i532

cond.true.i.i532:                                 ; preds = %invoke.cont445
  %call.i.i.i.i533 = call noundef i64 @strlen(ptr noundef nonnull dereferenceable(1) %call446) #21
  br label %invoke.cont447

invoke.cont447:                                   ; preds = %cond.true.i.i532, %invoke.cont445
  %retval.sroa.0.0.i.i534 = phi i64 [ %call.i.i.i.i533, %cond.true.i.i532 ], [ 0, %invoke.cont445 ]
  store i64 %retval.sroa.0.0.i.i534, ptr %ref.tmp443, align 8
  store ptr %call446, ptr %231, align 8
  %call.i536 = call { i64, ptr } @_ZNKSt7__cxx1112basic_stringIcSt11char_traitsIcESaIcEEcvSt17basic_string_viewIcS2_EEv(ptr noundef nonnull align 8 dereferenceable(32) %after_str) #21
  %265 = extractvalue { i64, ptr } %call.i536, 0
  store i64 %265, ptr %ref.tmp448, align 8
  %266 = extractvalue { i64, ptr } %call.i536, 1
  store ptr %266, ptr %232, align 8
  invoke void @_ZN4absl12lts_202308026StrCatB5cxx11ERKNS0_8AlphaNumES3_S3_S3_(ptr nonnull sret(%"class.std::__cxx11::basic_string") align 8 %filter_str, ptr noundef nonnull align 8 dereferenceable(48) %ref.tmp436, ptr noundef nonnull align 8 dereferenceable(48) %ref.tmp438, ptr noundef nonnull align 8 dereferenceable(48) %ref.tmp443, ptr noundef nonnull align 8 dereferenceable(48) %ref.tmp448)
          to label %invoke.cont450 unwind label %lpad409

invoke.cont450:                                   ; preds = %invoke.cont447
  %call451 = call noundef ptr @_ZNKSt7__cxx1112basic_stringIcSt11char_traitsIcESaIcEE5c_strEv(ptr noundef nonnull align 8 dereferenceable(32) %filter_str) #21
  invoke void (ptr, i32, i32, ptr, ...) @gpr_log(ptr noundef nonnull @.str.4, i32 noundef 314, i32 noundef 1, ptr noundef nonnull @.str.9, ptr noundef %call451)
          to label %invoke.cont453 unwind label %lpad452

invoke.cont453:                                   ; preds = %invoke.cont450
  call void @_ZNSt7__cxx1112basic_stringIcSt11char_traitsIcESaIcEED1Ev(ptr noundef nonnull align 8 dereferenceable(32) %filter_str) #21
  call void @_ZNSt7__cxx1112basic_stringIcSt11char_traitsIcESaIcEED1Ev(ptr noundef nonnull align 8 dereferenceable(32) %after_str) #21
  %incdec.ptr.i537 = getelementptr inbounds %"struct.grpc_core::ChannelInit::Filter", ptr %__begin2380.sroa.0.0805, i64 1
  %cmp.i469.not = icmp eq ptr %incdec.ptr.i537, %225
  br i1 %cmp.i469.not, label %for.end458, label %for.body388

lpad452:                                          ; preds = %invoke.cont450
  %267 = landingpad { ptr, i32 }
          cleanup
  call void @_ZNSt7__cxx1112basic_stringIcSt11char_traitsIcESaIcEED1Ev(ptr noundef nonnull align 8 dereferenceable(32) %filter_str) #21
  br label %ehcleanup455

ehcleanup455:                                     ; preds = %lpad452, %ehcleanup434, %lpad409
  %.pn58 = phi { ptr, i32 } [ %267, %lpad452 ], [ %254, %lpad409 ], [ %.pn55.pn, %ehcleanup434 ]
  call void @_ZNSt7__cxx1112basic_stringIcSt11char_traitsIcESaIcEED1Ev(ptr noundef nonnull align 8 dereferenceable(32) %after_str) #21
  br label %ehcleanup509

for.end458:                                       ; preds = %invoke.cont453, %for.end378
  %268 = load ptr, ptr %terminal_filters, align 8
  %269 = load ptr, ptr %_M_finish.i454, align 8
  %cmp.i539.not806 = icmp eq ptr %268, %269
  br i1 %cmp.i539.not806, label %for.end508, label %invoke.cont473.lr.ph

invoke.cont473.lr.ph:                             ; preds = %for.end458
  %270 = getelementptr inbounds { i64, ptr }, ptr %ref.tmp.i588, i64 0, i32 1
  %arrayinit.element.i592 = getelementptr inbounds %"class.std::basic_string_view", ptr %ref.tmp.i588, i64 1
  %271 = getelementptr inbounds %"class.std::basic_string_view", ptr %ref.tmp.i588, i64 1, i32 1
  %arrayinit.element2.i596 = getelementptr inbounds %"class.std::basic_string_view", ptr %ref.tmp.i588, i64 2
  %272 = getelementptr inbounds %"class.std::basic_string_view", ptr %ref.tmp.i588, i64 2, i32 1
  %arrayinit.element4.i600 = getelementptr inbounds %"class.std::basic_string_view", ptr %ref.tmp.i588, i64 3
  %273 = getelementptr inbounds %"class.std::basic_string_view", ptr %ref.tmp.i588, i64 3, i32 1
  %arrayinit.element6.i604 = getelementptr inbounds %"class.std::basic_string_view", ptr %ref.tmp.i588, i64 4
  %274 = getelementptr inbounds %"class.std::basic_string_view", ptr %ref.tmp.i588, i64 4, i32 1
  br label %invoke.cont473

invoke.cont473:                                   ; preds = %invoke.cont473.lr.ph, %invoke.cont504
  %__begin2460.sroa.0.0807 = phi ptr [ %268, %invoke.cont473.lr.ph ], [ %incdec.ptr.i609, %invoke.cont504 ]
  call void @llvm.lifetime.start.p0(i64 8, ptr nonnull %ref.tmp9.i543)
  call void @llvm.lifetime.start.p0(i64 1, ptr nonnull %ref.tmp10.i544)
  %275 = load ptr, ptr %_M_parent.i.i.i.i.i447, align 8
  %cmp.not5.i.i.i.i547 = icmp eq ptr %275, null
  br i1 %cmp.not5.i.i.i.i547, label %if.then.i567, label %while.body.lr.ph.i.i.i.i548

while.body.lr.ph.i.i.i.i548:                      ; preds = %invoke.cont473
  %276 = load ptr, ptr %__begin2460.sroa.0.0807, align 8
  br label %while.body.i.i.i.i549

while.body.i.i.i.i549:                            ; preds = %while.body.i.i.i.i549, %while.body.lr.ph.i.i.i.i548
  %__x.addr.07.i.i.i.i550 = phi ptr [ %275, %while.body.lr.ph.i.i.i.i548 ], [ %__x.addr.1.i.i.i.i558, %while.body.i.i.i.i549 ]
  %__y.addr.06.i.i.i.i551 = phi ptr [ %201, %while.body.lr.ph.i.i.i.i548 ], [ %__y.addr.1.i.i.i.i556, %while.body.i.i.i.i549 ]
  %_M_storage.i.i.i.i.i.i552 = getelementptr inbounds %"struct.std::_Rb_tree_node.77", ptr %__x.addr.07.i.i.i.i550, i64 0, i32 1
  %277 = load ptr, ptr %_M_storage.i.i.i.i.i.i552, align 8
  %cmp.i.i.i.i.i553 = icmp ult ptr %277, %276
  %_M_right.i.i.i.i.i554 = getelementptr inbounds %"struct.std::_Rb_tree_node_base", ptr %__x.addr.07.i.i.i.i550, i64 0, i32 3
  %_M_left.i.i.i.i.i555 = getelementptr inbounds %"struct.std::_Rb_tree_node_base", ptr %__x.addr.07.i.i.i.i550, i64 0, i32 2
  %__y.addr.1.i.i.i.i556 = select i1 %cmp.i.i.i.i.i553, ptr %__y.addr.06.i.i.i.i551, ptr %__x.addr.07.i.i.i.i550
  %__x.addr.1.in.i.i.i.i557 = select i1 %cmp.i.i.i.i.i553, ptr %_M_right.i.i.i.i.i554, ptr %_M_left.i.i.i.i.i555
  %__x.addr.1.i.i.i.i558 = load ptr, ptr %__x.addr.1.in.i.i.i.i557, align 8
  %cmp.not.i.i.i.i559 = icmp eq ptr %__x.addr.1.i.i.i.i558, null
  br i1 %cmp.not.i.i.i.i559, label %_ZNSt3mapIPK19grpc_channel_filterNSt7__cxx1112basic_stringIcSt11char_traitsIcESaIcEEESt4lessIS2_ESaISt4pairIKS2_S8_EEE11lower_boundERSC_.exit.i560, label %while.body.i.i.i.i549, !llvm.loop !49

_ZNSt3mapIPK19grpc_channel_filterNSt7__cxx1112basic_stringIcSt11char_traitsIcESaIcEEESt4lessIS2_ESaISt4pairIKS2_S8_EEE11lower_boundERSC_.exit.i560: ; preds = %while.body.i.i.i.i549
  %cmp.i.i561 = icmp eq ptr %__y.addr.1.i.i.i.i556, %201
  br i1 %cmp.i.i561, label %if.then.i567, label %lor.rhs.i562

lor.rhs.i562:                                     ; preds = %_ZNSt3mapIPK19grpc_channel_filterNSt7__cxx1112basic_stringIcSt11char_traitsIcESaIcEEESt4lessIS2_ESaISt4pairIKS2_S8_EEE11lower_boundERSC_.exit.i560
  %_M_storage.i.i.i.i.i.i552.le = getelementptr inbounds %"struct.std::_Rb_tree_node.77", ptr %__x.addr.07.i.i.i.i550, i64 0, i32 1
  %__y.addr.06.i.i.i.i551.sroa.gep = getelementptr inbounds %"struct.std::_Rb_tree_node.77", ptr %__y.addr.06.i.i.i.i551, i64 0, i32 1
  %__y.addr.1.i.i.i.i556.sroa.sel = select i1 %cmp.i.i.i.i.i553, ptr %__y.addr.06.i.i.i.i551.sroa.gep, ptr %_M_storage.i.i.i.i.i.i552.le
  %278 = load ptr, ptr %__y.addr.1.i.i.i.i556.sroa.sel, align 8
  %cmp.i3.i564 = icmp ult ptr %276, %278
  br i1 %cmp.i3.i564, label %if.then.i567, label %invoke.cont476

if.then.i567:                                     ; preds = %lor.rhs.i562, %_ZNSt3mapIPK19grpc_channel_filterNSt7__cxx1112basic_stringIcSt11char_traitsIcESaIcEEESt4lessIS2_ESaISt4pairIKS2_S8_EEE11lower_boundERSC_.exit.i560, %invoke.cont473
  %__y.addr.0.lcssa.i.i.i10.i568 = phi ptr [ %201, %_ZNSt3mapIPK19grpc_channel_filterNSt7__cxx1112basic_stringIcSt11char_traitsIcESaIcEEESt4lessIS2_ESaISt4pairIKS2_S8_EEE11lower_boundERSC_.exit.i560 ], [ %__y.addr.1.i.i.i.i556, %lor.rhs.i562 ], [ %201, %invoke.cont473 ]
  store ptr %__begin2460.sroa.0.0807, ptr %ref.tmp9.i543, align 8
  %call12.i570 = invoke ptr @_ZNSt8_Rb_treeIPK19grpc_channel_filterSt4pairIKS2_NSt7__cxx1112basic_stringIcSt11char_traitsIcESaIcEEEESt10_Select1stISB_ESt4lessIS2_ESaISB_EE22_M_emplace_hint_uniqueIJRKSt21piecewise_construct_tSt5tupleIJRS4_EESM_IJEEEEESt17_Rb_tree_iteratorISB_ESt23_Rb_tree_const_iteratorISB_EDpOT_(ptr noundef nonnull align 8 dereferenceable(48) %loc_strs, ptr %__y.addr.0.lcssa.i.i.i10.i568, ptr noundef nonnull align 1 dereferenceable(1) @_ZSt19piecewise_construct, ptr noundef nonnull align 8 dereferenceable(8) %ref.tmp9.i543, ptr noundef nonnull align 1 dereferenceable(1) %ref.tmp10.i544)
          to label %invoke.cont476 unwind label %lpad326.loopexit

invoke.cont476:                                   ; preds = %lor.rhs.i562, %if.then.i567
  %__i.sroa.0.0.i565 = phi ptr [ %__y.addr.1.i.i.i.i556, %lor.rhs.i562 ], [ %call12.i570, %if.then.i567 ]
  %second.i566 = getelementptr inbounds %"struct.std::_Rb_tree_node.77", ptr %__i.sroa.0.0.i565, i64 0, i32 1, i32 0, i64 8
  call void @llvm.lifetime.end.p0(i64 8, ptr nonnull %ref.tmp9.i543)
  call void @llvm.lifetime.end.p0(i64 1, ptr nonnull %ref.tmp10.i544)
  %call.i572 = call { i64, ptr } @_ZNKSt7__cxx1112basic_stringIcSt11char_traitsIcESaIcEEcvSt17basic_string_viewIcS2_EEv(ptr noundef nonnull align 8 dereferenceable(32) %second.i566) #21
  %279 = extractvalue { i64, ptr } %call.i572, 0
  %280 = extractvalue { i64, ptr } %call.i572, 1
  %281 = load ptr, ptr @_ZN9grpc_core21NameFromChannelFilterE, align 8
  %282 = load ptr, ptr %__begin2460.sroa.0.0807, align 8
  %call482 = invoke noundef ptr %281(ptr noundef %282)
          to label %invoke.cont481 unwind label %lpad326.loopexit

invoke.cont481:                                   ; preds = %invoke.cont476
  %tobool.not.i.i573 = icmp eq ptr %call482, null
  br i1 %tobool.not.i.i573, label %invoke.cont483, label %cond.true.i.i574

cond.true.i.i574:                                 ; preds = %invoke.cont481
  %call.i.i.i.i575 = call noundef i64 @strlen(ptr noundef nonnull dereferenceable(1) %call482) #21
  br label %invoke.cont483

invoke.cont483:                                   ; preds = %cond.true.i.i574, %invoke.cont481
  %retval.sroa.0.0.i.i576 = phi i64 [ %call.i.i.i.i575, %cond.true.i.i574 ], [ 0, %invoke.cont481 ]
  %283 = load i64, ptr %max_filter_name_len, align 8
  %284 = load ptr, ptr @_ZN9grpc_core21NameFromChannelFilterE, align 8
  %285 = load ptr, ptr %__begin2460.sroa.0.0807, align 8
  %call489 = invoke noundef ptr %284(ptr noundef %285)
          to label %invoke.cont488 unwind label %lpad326.loopexit

invoke.cont488:                                   ; preds = %invoke.cont483
  %add486 = add i64 %283, 1
  %call490 = call i64 @strlen(ptr noundef nonnull dereferenceable(1) %call489) #23
  %sub491 = sub i64 %add486, %call490
  call void @_ZNSaIcEC1Ev(ptr noundef nonnull align 1 dereferenceable(1) %ref.tmp492) #21
  %call.i578580 = invoke noundef ptr @_ZNSt7__cxx1112basic_stringIcSt11char_traitsIcESaIcEE13_M_local_dataEv(ptr noundef nonnull align 8 dereferenceable(32) %ref.tmp485)
          to label %call.i578.noexc unwind label %lpad493

call.i578.noexc:                                  ; preds = %invoke.cont488
  invoke void @_ZNSt7__cxx1112basic_stringIcSt11char_traitsIcESaIcEE12_Alloc_hiderC1EPcRKS3_(ptr noundef nonnull align 8 dereferenceable(8) %ref.tmp485, ptr noundef %call.i578580, ptr noundef nonnull align 1 dereferenceable(1) %ref.tmp492)
          to label %.noexc581 unwind label %lpad493

.noexc581:                                        ; preds = %call.i578.noexc
  invoke void @_ZNSt7__cxx1112basic_stringIcSt11char_traitsIcESaIcEE12_M_constructEmc(ptr noundef nonnull align 8 dereferenceable(32) %ref.tmp485, i64 noundef %sub491, i8 noundef signext 32)
          to label %invoke.cont498 unwind label %lpad.i579

lpad.i579:                                        ; preds = %.noexc581
  %286 = landingpad { ptr, i32 }
          cleanup
  call void @_ZNSaIcED2Ev(ptr noundef nonnull align 1 dereferenceable(1) %ref.tmp485) #21
  br label %ehcleanup501

invoke.cont498:                                   ; preds = %.noexc581
  %call.i584 = call { i64, ptr } @_ZNKSt7__cxx1112basic_stringIcSt11char_traitsIcESaIcEEcvSt17basic_string_viewIcS2_EEv(ptr noundef nonnull align 8 dereferenceable(32) %ref.tmp485) #21
  %287 = extractvalue { i64, ptr } %call.i584, 0
  %288 = extractvalue { i64, ptr } %call.i584, 1
  call void @llvm.lifetime.start.p0(i64 80, ptr nonnull %ref.tmp.i588)
  store i64 2, ptr %ref.tmp.i588, align 8, !noalias !50
  store ptr @.str.17, ptr %270, align 8, !noalias !50
  store i64 %279, ptr %arrayinit.element.i592, align 8, !noalias !50
  store ptr %280, ptr %271, align 8, !noalias !50
  store i64 %retval.sroa.0.0.i.i576, ptr %arrayinit.element2.i596, align 8, !noalias !50
  store ptr %call482, ptr %272, align 8, !noalias !50
  store i64 %287, ptr %arrayinit.element4.i600, align 8, !noalias !50
  store ptr %288, ptr %273, align 8, !noalias !50
  store i64 10, ptr %arrayinit.element6.i604, align 8, !noalias !50
  store ptr @.str.18, ptr %274, align 8, !noalias !50
  invoke void @_ZN4absl12lts_2023080216strings_internal9CatPiecesB5cxx11ESt16initializer_listISt17basic_string_viewIcSt11char_traitsIcEEE(ptr nonnull sret(%"class.std::__cxx11::basic_string") align 8 %filter_str471, ptr nonnull %ref.tmp.i588, i64 5)
          to label %invoke.cont499 unwind label %lpad495

invoke.cont499:                                   ; preds = %invoke.cont498
  call void @llvm.lifetime.end.p0(i64 80, ptr nonnull %ref.tmp.i588)
  call void @_ZNSt7__cxx1112basic_stringIcSt11char_traitsIcESaIcEED1Ev(ptr noundef nonnull align 8 dereferenceable(32) %ref.tmp485) #21
  call void @_ZNSaIcED1Ev(ptr noundef nonnull align 1 dereferenceable(1) %ref.tmp492) #21
  %call502 = call noundef ptr @_ZNKSt7__cxx1112basic_stringIcSt11char_traitsIcESaIcEE5c_strEv(ptr noundef nonnull align 8 dereferenceable(32) %filter_str471) #21
  invoke void (ptr, i32, i32, ptr, ...) @gpr_log(ptr noundef nonnull @.str.4, i32 noundef 326, i32 noundef 1, ptr noundef nonnull @.str.9, ptr noundef %call502)
          to label %invoke.cont504 unwind label %lpad503

invoke.cont504:                                   ; preds = %invoke.cont499
  call void @_ZNSt7__cxx1112basic_stringIcSt11char_traitsIcESaIcEED1Ev(ptr noundef nonnull align 8 dereferenceable(32) %filter_str471) #21
  %incdec.ptr.i609 = getelementptr inbounds %"struct.grpc_core::ChannelInit::Filter", ptr %__begin2460.sroa.0.0807, i64 1
  %cmp.i539.not = icmp eq ptr %incdec.ptr.i609, %269
  br i1 %cmp.i539.not, label %for.end508, label %invoke.cont473

lpad493:                                          ; preds = %call.i578.noexc, %invoke.cont488
  %289 = landingpad { ptr, i32 }
          cleanup
  br label %ehcleanup501

lpad495:                                          ; preds = %invoke.cont498
  %290 = landingpad { ptr, i32 }
          cleanup
  call void @_ZNSt7__cxx1112basic_stringIcSt11char_traitsIcESaIcEED1Ev(ptr noundef nonnull align 8 dereferenceable(32) %ref.tmp485) #21
  br label %ehcleanup501

ehcleanup501:                                     ; preds = %lpad493, %lpad.i579, %lpad495
  %.pn = phi { ptr, i32 } [ %290, %lpad495 ], [ %289, %lpad493 ], [ %286, %lpad.i579 ]
  call void @_ZNSaIcED1Ev(ptr noundef nonnull align 1 dereferenceable(1) %ref.tmp492) #21
  br label %ehcleanup509

lpad503:                                          ; preds = %invoke.cont499
  %291 = landingpad { ptr, i32 }
          cleanup
  call void @_ZNSt7__cxx1112basic_stringIcSt11char_traitsIcESaIcEED1Ev(ptr noundef nonnull align 8 dereferenceable(32) %filter_str471) #21
  br label %ehcleanup509

for.end508:                                       ; preds = %invoke.cont504, %for.end458
  %292 = load ptr, ptr %_M_parent.i.i.i.i.i447, align 8
  invoke void @_ZNSt8_Rb_treeIPK19grpc_channel_filterSt4pairIKS2_NSt7__cxx1112basic_stringIcSt11char_traitsIcESaIcEEEESt10_Select1stISB_ESt4lessIS2_ESaISB_EE8_M_eraseEPSt13_Rb_tree_nodeISB_E(ptr noundef nonnull align 8 dereferenceable(48) %loc_strs, ptr noundef %292)
          to label %_ZNSt3mapIPK19grpc_channel_filterNSt7__cxx1112basic_stringIcSt11char_traitsIcESaIcEEESt4lessIS2_ESaISt4pairIKS2_S8_EEED2Ev.exit unwind label %terminate.lpad.i.i

terminate.lpad.i.i:                               ; preds = %for.end508
  %293 = landingpad { ptr, i32 }
