; ModuleID = 'bench/grpc/original/connected_channel.cc.ll'
source_filename = "bench/grpc/original/connected_channel.cc.ll"
target datalayout = "e-m:e-p270:32:32-p271:32:32-p272:64:64-i64:64-i128:128-f80:128-n8:16:32:64-S128"
target triple = "x86_64-unknown-linux-gnu"

%"class.std::ios_base::Init" = type { i8 }
%struct.grpc_channel_filter = type { ptr, ptr, ptr, ptr, i64, ptr, ptr, ptr, i64, ptr, ptr, ptr, ptr, ptr }
%"class.grpc_core::NoDestruct" = type { [8 x i8] }
%"class.grpc_core::TraceFlag" = type <{ ptr, ptr, %"struct.std::atomic.191", [7 x i8] }>
%"struct.std::atomic.191" = type { %"struct.std::__atomic_base.192" }
%"struct.std::__atomic_base.192" = type { i8 }
%"struct.grpc_core::arena_promise_detail::Vtable" = type { ptr, ptr }
%"class.absl::lts_20230802::AnyInvocable.51" = type { %"class.absl::lts_20230802::internal_any_invocable::Impl.52" }
%"class.absl::lts_20230802::internal_any_invocable::Impl.52" = type { %"class.absl::lts_20230802::internal_any_invocable::CoreImpl.53" }
%"class.absl::lts_20230802::internal_any_invocable::CoreImpl.53" = type { %"union.absl::lts_20230802::internal_any_invocable::TypeErasedState", ptr, ptr }
%"union.absl::lts_20230802::internal_any_invocable::TypeErasedState" = type { %struct.anon }
%struct.anon = type { ptr, i64 }
%"class.absl::lts_20230802::Status" = type { i64 }
%"class.grpc_core::ArenaPromise" = type { %"struct.grpc_core::arena_promise_detail::VtableAndArg" }
%"struct.grpc_core::arena_promise_detail::VtableAndArg" = type { ptr, [8 x i8], %"struct.grpc_core::arena_promise_detail::ArgType" }
%"struct.grpc_core::arena_promise_detail::ArgType" = type { [8 x i8], [8 x i8] }
%"class.std::function" = type { %"class.std::_Function_base", ptr }
%"class.std::_Function_base" = type { %"union.std::_Any_data", ptr }
%"union.std::_Any_data" = type { %"union.std::_Nocopy_types" }
%"union.std::_Nocopy_types" = type { { i64, i64 } }
%"class.grpc_core::ManualConstructor" = type { [64 x i8] }
%"struct.grpc_core::LbCostBinMetadata::ValueType" = type { double, %"class.std::__cxx11::basic_string" }
%"class.std::__cxx11::basic_string" = type { %"struct.std::__cxx11::basic_string<char>::_Alloc_hider", i64, %union.anon }
%"struct.std::__cxx11::basic_string<char>::_Alloc_hider" = type { ptr }
%union.anon = type { i64, [8 x i8] }
%class.anon.361 = type { %"class.grpc_core::promise_detail::Seq.274", %"class.grpc_core::promise_detail::Loop", %"class.grpc_core::promise_detail::Map.281", i8, i8, i8, [5 x i8] }
%"class.grpc_core::promise_detail::Seq.274" = type { %"struct.grpc_core::promise_detail::SeqState.275" }
%"struct.grpc_core::promise_detail::SeqState.275" = type <{ %union.anon.276, i8, [7 x i8] }>
%union.anon.276 = type { %"struct.grpc_core::promise_detail::SeqState<grpc_core::promise_detail::SeqTraits, (lambda at /home/dtcxzyw/WorkSpace/Projects/compilers/llvm-opt-benchmark/bench/grpc/grpc/src/core/lib/transport/batch_builder.h:243:14), (lambda at /home/dtcxzyw/WorkSpace/Projects/compilers/llvm-opt-benchmark/bench/grpc/grpc/src/core/lib/channel/connected_channel.cc:495:7)>::Running0" }
%"struct.grpc_core::promise_detail::SeqState<grpc_core::promise_detail::SeqTraits, (lambda at /home/dtcxzyw/WorkSpace/Projects/compilers/llvm-opt-benchmark/bench/grpc/grpc/src/core/lib/transport/batch_builder.h:243:14), (lambda at /home/dtcxzyw/WorkSpace/Projects/compilers/llvm-opt-benchmark/bench/grpc/grpc/src/core/lib/channel/connected_channel.cc:495:7)>::Running0" = type { %"class.grpc_core::promise_detail::PromiseLike.232", %"class.grpc_core::promise_detail::OncePromiseFactory.277" }
%"class.grpc_core::promise_detail::PromiseLike.232" = type { %class.anon.233 }
%class.anon.233 = type { %"class.grpc_core::RefCountedPtr.234", %class.anon.235 }
%"class.grpc_core::RefCountedPtr.234" = type { ptr }
%class.anon.235 = type { ptr }
%"class.grpc_core::promise_detail::OncePromiseFactory.277" = type { %class.anon.278 }
%class.anon.278 = type { %"class.grpc_core::ClientInitialMetadataOutstandingToken" }
%"class.grpc_core::ClientInitialMetadataOutstandingToken" = type { ptr }
%"class.grpc_core::promise_detail::Loop" = type <{ %"class.grpc_core::promise_detail::RepeatedPromiseFactory.289", %union.anon.291, i8, [7 x i8] }>
%"class.grpc_core::promise_detail::RepeatedPromiseFactory.289" = type { %class.anon.290 }
%class.anon.290 = type { %"class.grpc_core::RefCountedPtr.197", i8, %"class.grpc_core::PipeSender" }
%"class.grpc_core::RefCountedPtr.197" = type { ptr }
%"class.grpc_core::PipeSender" = type { %"class.grpc_core::RefCountedPtr.201" }
%"class.grpc_core::RefCountedPtr.201" = type { ptr }
%union.anon.291 = type { %"class.grpc_core::promise_detail::PromiseLike.292" }
%"class.grpc_core::promise_detail::PromiseLike.292" = type { %"class.grpc_core::promise_detail::Seq.293" }
%"class.grpc_core::promise_detail::Seq.293" = type { %"struct.grpc_core::promise_detail::SeqState.294" }
%"struct.grpc_core::promise_detail::SeqState.294" = type <{ %union.anon.295, i8, [7 x i8] }>
%union.anon.295 = type { %"struct.grpc_core::promise_detail::SeqState<grpc_core::promise_detail::SeqTraits, (lambda at /home/dtcxzyw/WorkSpace/Projects/compilers/llvm-opt-benchmark/bench/grpc/grpc/src/core/lib/transport/batch_builder.h:243:14), (lambda at /home/dtcxzyw/WorkSpace/Projects/compilers/llvm-opt-benchmark/bench/grpc/grpc/src/core/lib/channel/connected_channel.cc:377:9)>::Running0", [8 x i8] }
%"struct.grpc_core::promise_detail::SeqState<grpc_core::promise_detail::SeqTraits, (lambda at /home/dtcxzyw/WorkSpace/Projects/compilers/llvm-opt-benchmark/bench/grpc/grpc/src/core/lib/transport/batch_builder.h:243:14), (lambda at /home/dtcxzyw/WorkSpace/Projects/compilers/llvm-opt-benchmark/bench/grpc/grpc/src/core/lib/channel/connected_channel.cc:377:9)>::Running0" = type { %"class.grpc_core::promise_detail::PromiseLike.296", %"class.grpc_core::promise_detail::OncePromiseFactory.300" }
%"class.grpc_core::promise_detail::PromiseLike.296" = type { %class.anon.297 }
%class.anon.297 = type { %"class.grpc_core::RefCountedPtr.234", %"class.grpc_core::promise_detail::Map.298" }
%"class.grpc_core::promise_detail::Map.298" = type { %"class.grpc_core::promise_detail::PromiseLike.247", %class.anon.299 }
%"class.grpc_core::promise_detail::PromiseLike.247" = type { %class.anon.248 }
%class.anon.248 = type { ptr }
%class.anon.299 = type { ptr }
%"class.grpc_core::promise_detail::OncePromiseFactory.300" = type { %class.anon.301 }
%class.anon.301 = type { i8, ptr }
%"class.grpc_core::promise_detail::Map.281" = type <{ %"class.grpc_core::promise_detail::PromiseLike.282", %class.anon.286, [7 x i8] }>
%"class.grpc_core::promise_detail::PromiseLike.282" = type { %class.anon.283 }
%class.anon.283 = type { %"class.grpc_core::RefCountedPtr.234", %"class.grpc_core::promise_detail::Map.284" }
%"class.grpc_core::promise_detail::Map.284" = type { %"class.grpc_core::promise_detail::PromiseLike.247", %class.anon.285 }
%class.anon.285 = type { ptr }
%class.anon.286 = type { i8 }
%"struct.grpc_core::BatchBuilder::Target" = type { ptr, ptr, ptr }
%"class.std::unique_ptr" = type { %"struct.std::__uniq_ptr_data" }
%"struct.std::__uniq_ptr_data" = type { %"class.std::__uniq_ptr_impl" }
%"class.std::__uniq_ptr_impl" = type { %"class.std::tuple" }
%"class.std::tuple" = type { %"struct.std::_Tuple_impl" }
%"struct.std::_Tuple_impl" = type { %"struct.std::_Tuple_impl.56", %"struct.std::_Head_base.57" }
%"struct.std::_Tuple_impl.56" = type { %"struct.std::_Head_base" }
%"struct.std::_Head_base" = type { %"class.grpc_core::Arena::PooledDeleter" }
%"class.grpc_core::Arena::PooledDeleter" = type { i8 }
%"struct.std::_Head_base.57" = type { ptr }
%"class.grpc_core::Party::BulkSpawner" = type { ptr, i64, [16 x ptr] }
%"class.grpc_core::promise_detail::TrySeq.241" = type { %"struct.grpc_core::promise_detail::SeqState.242" }
%"struct.grpc_core::promise_detail::SeqState.242" = type { %union.anon.243, i8, [7 x i8] }
%union.anon.243 = type <{ %"struct.grpc_core::promise_detail::SeqState<grpc_core::promise_detail::TrySeqTraits, (lambda at /home/dtcxzyw/WorkSpace/Projects/compilers/llvm-opt-benchmark/bench/grpc/grpc/src/core/lib/transport/batch_builder.h:243:14), (lambda at /home/dtcxzyw/WorkSpace/Projects/compilers/llvm-opt-benchmark/bench/grpc/grpc/src/core/lib/channel/connected_channel.cc:472:14)>::Running0", [8 x i8] }>
%"struct.grpc_core::promise_detail::SeqState<grpc_core::promise_detail::TrySeqTraits, (lambda at /home/dtcxzyw/WorkSpace/Projects/compilers/llvm-opt-benchmark/bench/grpc/grpc/src/core/lib/transport/batch_builder.h:243:14), (lambda at /home/dtcxzyw/WorkSpace/Projects/compilers/llvm-opt-benchmark/bench/grpc/grpc/src/core/lib/channel/connected_channel.cc:472:14)>::Running0" = type { %"class.grpc_core::promise_detail::PromiseLike.244", %"class.grpc_core::promise_detail::OncePromiseFactory.250" }
%"class.grpc_core::promise_detail::PromiseLike.244" = type { %class.anon.245 }
%class.anon.245 = type { %"class.grpc_core::RefCountedPtr.234", %"class.grpc_core::promise_detail::Map.246" }
%"class.grpc_core::promise_detail::Map.246" = type { %"class.grpc_core::promise_detail::PromiseLike.247", %class.anon.249 }
%class.anon.249 = type { ptr }
%"class.grpc_core::promise_detail::OncePromiseFactory.250" = type { %class.anon.251 }
%class.anon.251 = type { ptr }
%"class.grpc_core::promise_detail::TrySeq" = type { %"struct.grpc_core::promise_detail::SeqState" }
%"struct.grpc_core::promise_detail::SeqState" = type <{ %union.anon.200, i8, [7 x i8] }>
%union.anon.200 = type { %"struct.grpc_core::promise_detail::SeqState<grpc_core::promise_detail::TrySeqTraits, grpc_core::for_each_detail::ForEach<grpc_core::PipeReceiver<std::unique_ptr<grpc_core::Message, grpc_core::Arena::PooledDeleter>>, (lambda at /home/dtcxzyw/WorkSpace/Projects/compilers/llvm-opt-benchmark/bench/grpc/grpc/src/core/lib/channel/connected_channel.cc:428:18)>, (lambda at /home/dtcxzyw/WorkSpace/Projects/compilers/llvm-opt-benchmark/bench/grpc/grpc/src/core/lib/channel/connected_channel.cc:459:14)>::Running0" }
%"struct.grpc_core::promise_detail::SeqState<grpc_core::promise_detail::TrySeqTraits, grpc_core::for_each_detail::ForEach<grpc_core::PipeReceiver<std::unique_ptr<grpc_core::Message, grpc_core::Arena::PooledDeleter>>, (lambda at /home/dtcxzyw/WorkSpace/Projects/compilers/llvm-opt-benchmark/bench/grpc/grpc/src/core/lib/channel/connected_channel.cc:428:18)>, (lambda at /home/dtcxzyw/WorkSpace/Projects/compilers/llvm-opt-benchmark/bench/grpc/grpc/src/core/lib/channel/connected_channel.cc:459:14)>::Running0" = type { %"class.grpc_core::promise_detail::PromiseLike", %"class.grpc_core::promise_detail::OncePromiseFactory.236" }
%"class.grpc_core::promise_detail::PromiseLike" = type { %"class.grpc_core::for_each_detail::ForEach" }
%"class.grpc_core::for_each_detail::ForEach" = type { %"class.grpc_core::PipeReceiver", %"class.grpc_core::promise_detail::RepeatedPromiseFactory", i8, %union.anon.203 }
%"class.grpc_core::PipeReceiver" = type { %"class.grpc_core::RefCountedPtr.201" }
%"class.grpc_core::promise_detail::RepeatedPromiseFactory" = type { %class.anon.202 }
%class.anon.202 = type { %"class.grpc_core::RefCountedPtr.197" }
%union.anon.203 = type { %"struct.grpc_core::for_each_detail::ForEach<grpc_core::PipeReceiver<std::unique_ptr<grpc_core::Message, grpc_core::Arena::PooledDeleter>>, (lambda at /home/dtcxzyw/WorkSpace/Projects/compilers/llvm-opt-benchmark/bench/grpc/grpc/src/core/lib/channel/connected_channel.cc:428:18)>::InAction", [24 x i8] }
%"struct.grpc_core::for_each_detail::ForEach<grpc_core::PipeReceiver<std::unique_ptr<grpc_core::Message, grpc_core::Arena::PooledDeleter>>, (lambda at /home/dtcxzyw/WorkSpace/Projects/compilers/llvm-opt-benchmark/bench/grpc/grpc/src/core/lib/channel/connected_channel.cc:428:18)>::InAction" = type { %"class.grpc_core::promise_detail::PromiseLike.232", %"class.grpc_core::NextResult" }
%"class.grpc_core::NextResult" = type <{ %"class.grpc_core::RefCountedPtr.201", i8, [7 x i8] }>
%"class.grpc_core::promise_detail::OncePromiseFactory.236" = type { %class.anon.237 }
%class.anon.237 = type { %"class.grpc_core::RefCountedPtr.197" }
%"class.grpc_core::promise_detail::Seq" = type { %"struct.grpc_core::promise_detail::SeqState.204" }
%"struct.grpc_core::promise_detail::SeqState.204" = type <{ %union.anon.205, i8, [7 x i8] }>
%union.anon.205 = type { %"class.grpc_core::promise_detail::PromiseLike.208" }
%"class.grpc_core::promise_detail::PromiseLike.208" = type { %"class.grpc_core::promise_detail::If" }
%"class.grpc_core::promise_detail::If" = type { i8, %union.anon.209 }
%union.anon.209 = type { %"class.grpc_core::promise_detail::PromiseLike.210" }
%"class.grpc_core::promise_detail::PromiseLike.210" = type { %"class.grpc_core::promise_detail::Map" }
%"class.grpc_core::promise_detail::Map" = type { %"class.grpc_core::promise_detail::PromiseLike.211", %class.anon.229 }
%"class.grpc_core::promise_detail::PromiseLike.211" = type { %"class.grpc_core::InterceptorList<std::unique_ptr<grpc_core::Message, grpc_core::Arena::PooledDeleter>>::RunPromise.base", [7 x i8] }
%"class.grpc_core::InterceptorList<std::unique_ptr<grpc_core::Message, grpc_core::Arena::PooledDeleter>>::RunPromise.base" = type <{ %union.anon.212, i8 }>
%union.anon.212 = type { %"struct.grpc_core::InterceptorList<std::unique_ptr<grpc_core::Message, grpc_core::Arena::PooledDeleter>>::RunPromise::AsyncResolution" }
%"struct.grpc_core::InterceptorList<std::unique_ptr<grpc_core::Message, grpc_core::Arena::PooledDeleter>>::RunPromise::AsyncResolution" = type { ptr, %"class.std::unique_ptr.213" }
%"class.std::unique_ptr.213" = type { %"struct.std::__uniq_ptr_data.214" }
%"struct.std::__uniq_ptr_data.214" = type { %"class.std::__uniq_ptr_impl.215" }
%"class.std::__uniq_ptr_impl.215" = type { %"class.std::tuple.216" }
%"class.std::tuple.216" = type { %"struct.std::_Tuple_impl.217" }
%"struct.std::_Tuple_impl.217" = type { %"struct.std::_Tuple_impl.218", %"struct.std::_Head_base.220" }
%"struct.std::_Tuple_impl.218" = type { %"struct.std::_Head_base.219" }
%"struct.std::_Head_base.219" = type { %"class.grpc_core::Arena::ArrayPooledDeleter" }
%"class.grpc_core::Arena::ArrayPooledDeleter" = type { i8 }
%"struct.std::_Head_base.220" = type { ptr }
%class.anon.229 = type { %"class.grpc_core::RefCountedPtr.201" }
%"class.std::unique_ptr.170" = type { %"struct.std::__uniq_ptr_data.171" }
%"struct.std::__uniq_ptr_data.171" = type { %"class.std::__uniq_ptr_impl.172" }
%"class.std::__uniq_ptr_impl.172" = type { %"class.std::tuple.173" }
%"class.std::tuple.173" = type { %"struct.std::_Tuple_impl.174" }
%"struct.std::_Tuple_impl.174" = type { %"struct.std::_Head_base.177" }
%"struct.std::_Head_base.177" = type { ptr }
%"class.grpc_core::promise_detail::Map.359" = type { %"class.grpc_core::promise_detail::PromiseLike.360", %class.anon.364 }
%"class.grpc_core::promise_detail::PromiseLike.360" = type { %class.anon.base.362, [5 x i8] }
%class.anon.base.362 = type { %"class.grpc_core::promise_detail::Seq.274", %"class.grpc_core::promise_detail::Loop", %"class.grpc_core::promise_detail::Map.281", i8, i8, i8 }
%class.anon.364 = type { %"class.std::unique_ptr.170" }
%"struct.grpc_core::CallArgs" = type { %"class.std::unique_ptr", %"class.grpc_core::ClientInitialMetadataOutstandingToken", ptr, ptr, ptr, ptr }
%"class.absl::lts_20230802::AnyInvocable.369" = type { %"class.absl::lts_20230802::internal_any_invocable::Impl.370" }
%"class.absl::lts_20230802::internal_any_invocable::Impl.370" = type { %"class.absl::lts_20230802::internal_any_invocable::CoreImpl.371" }
%"class.absl::lts_20230802::internal_any_invocable::CoreImpl.371" = type { %"union.absl::lts_20230802::internal_any_invocable::TypeErasedState", ptr, ptr }
%struct.grpc_polling_entity = type <{ %union.anon.199, i32, [4 x i8] }>
%union.anon.199 = type { ptr }
%"class.grpc_core::Poll.391" = type { i8, %union.anon.392 }
%union.anon.392 = type { %"class.absl::lts_20230802::Status" }
%"class.grpc_core::promise_detail::PromiseLike.389" = type { %"class.grpc_core::promise_detail::TrySeq" }
%"class.std::unique_ptr.222" = type { %"struct.std::__uniq_ptr_data.223" }
%"struct.std::__uniq_ptr_data.223" = type { %"class.std::__uniq_ptr_impl.224" }
%"class.std::__uniq_ptr_impl.224" = type { %"class.std::tuple.225" }
%"class.std::tuple.225" = type { %"struct.std::_Tuple_impl.226" }
%"struct.std::_Tuple_impl.226" = type { %"struct.std::_Tuple_impl.56", %"struct.std::_Head_base.227" }
%"struct.std::_Head_base.227" = type { ptr }
%"class.grpc_core::Poll.393" = type { i8, [7 x i8], %union.anon.394 }
%union.anon.394 = type { %"class.grpc_core::NextResult" }
%"class.grpc_core::Poll.395" = type { i8, [7 x i8], %union.anon.396 }
%union.anon.396 = type { %"class.std::optional" }
%"class.std::optional" = type { %"struct.std::_Optional_base" }
%"struct.std::_Optional_base" = type { %"struct.std::_Optional_payload" }
%"struct.std::_Optional_payload" = type { %"struct.std::_Optional_payload.base", [7 x i8] }
%"struct.std::_Optional_payload.base" = type { %"struct.std::_Optional_payload_base.base" }
%"struct.std::_Optional_payload_base.base" = type <{ %"union.std::_Optional_payload_base<std::unique_ptr<grpc_core::Message, grpc_core::Arena::PooledDeleter>>::_Storage", i8 }>
%"union.std::_Optional_payload_base<std::unique_ptr<grpc_core::Message, grpc_core::Arena::PooledDeleter>>::_Storage" = type { %"class.std::unique_ptr.222" }
%class.anon.397 = type { %"class.grpc_core::RefCountedPtr.201", %"class.std::optional" }
%"class.grpc_core::promise_detail::OncePromiseFactory.398" = type { %class.anon.397 }
%"class.grpc_core::InterceptorList<std::unique_ptr<grpc_core::Message, grpc_core::Arena::PooledDeleter>>::RunPromise" = type <{ %union.anon.212, i8, [7 x i8] }>
%"class.absl::lts_20230802::str_format_internal::FormatArgImpl" = type { %"union.absl::lts_20230802::str_format_internal::FormatArgImpl::Data", ptr }
%"union.absl::lts_20230802::str_format_internal::FormatArgImpl::Data" = type { ptr }
%"struct.std::__cxx11::basic_string<char>::__sv_wrapper" = type { %"class.std::basic_string_view" }
%"class.std::basic_string_view" = type { i64, ptr }
%"class.std::allocator.23" = type { i8 }
%"class.grpc_core::Poll.426" = type { i8, %union.anon.427 }
%union.anon.427 = type { i8 }
%"class.grpc_core::pipe_detail::Push" = type { %"class.grpc_core::RefCountedPtr.255", %"class.std::variant" }
%"class.grpc_core::RefCountedPtr.255" = type { ptr }
%"class.std::variant" = type { %"struct.std::__detail::__variant::_Variant_base.base", [7 x i8] }
%"struct.std::__detail::__variant::_Variant_base.base" = type { %"struct.std::__detail::__variant::_Move_assign_base.base" }
%"struct.std::__detail::__variant::_Move_assign_base.base" = type { %"struct.std::__detail::__variant::_Copy_assign_base.base" }
%"struct.std::__detail::__variant::_Copy_assign_base.base" = type { %"struct.std::__detail::__variant::_Move_ctor_base.base" }
%"struct.std::__detail::__variant::_Move_ctor_base.base" = type { %"struct.std::__detail::__variant::_Copy_ctor_base.base" }
%"struct.std::__detail::__variant::_Copy_ctor_base.base" = type { %"struct.std::__detail::__variant::_Variant_storage.base" }
%"struct.std::__detail::__variant::_Variant_storage.base" = type { %"union.std::__detail::__variant::_Variadic_union", i8 }
%"union.std::__detail::__variant::_Variadic_union" = type { %"struct.std::__detail::__variant::_Uninitialized" }
%"struct.std::__detail::__variant::_Uninitialized" = type { %"struct.__gnu_cxx::__aligned_membuf" }
%"struct.__gnu_cxx::__aligned_membuf" = type { [16 x i8] }
%"class.grpc_core::promise_detail::Map.253" = type <{ %"class.grpc_core::promise_detail::PromiseLike.254", %class.anon.260, [7 x i8] }>
%"class.grpc_core::promise_detail::PromiseLike.254" = type { %"class.grpc_core::pipe_detail::Push" }
%class.anon.260 = type { i8 }
%"class.grpc_core::Poll.408" = type { i8, %union.anon.409 }
%union.anon.409 = type { %"class.absl::lts_20230802::StatusOr" }
%"class.absl::lts_20230802::StatusOr" = type { %"class.absl::lts_20230802::internal_statusor::StatusOrData" }
%"class.absl::lts_20230802::internal_statusor::StatusOrData" = type { %union.anon.410, %union.anon.411 }
%union.anon.410 = type { %"class.absl::lts_20230802::Status" }
%union.anon.411 = type { %"class.std::unique_ptr" }
%"class.grpc_core::promise_detail::PromiseLike.252" = type { %"class.grpc_core::promise_detail::Map.base", [7 x i8] }
%"class.grpc_core::promise_detail::Map.base" = type <{ %"class.grpc_core::promise_detail::PromiseLike.254", %class.anon.260 }>
%"class.grpc_core::promise_detail::PromiseLike.406" = type { %"class.grpc_core::promise_detail::TrySeq.241" }
%"class.grpc_core::metadata_detail::DebugStringBuilder" = type { %"class.std::__cxx11::basic_string" }
%class.anon.413 = type { ptr }
%"class.grpc_core::Slice" = type { %"class.grpc_core::slice_detail::BaseSlice" }
%"class.grpc_core::slice_detail::BaseSlice" = type { %struct.grpc_slice }
%struct.grpc_slice = type { ptr, %"union.grpc_slice::grpc_slice_data" }
%"union.grpc_slice::grpc_slice_data" = type { %"struct.grpc_slice::grpc_slice_data::grpc_slice_refcounted", [8 x i8] }
%"struct.grpc_slice::grpc_slice_data::grpc_slice_refcounted" = type { i64, ptr }
%"class.grpc_core::Timestamp" = type { i64 }
%struct._Guard = type { ptr }
%"class.grpc_core::CompressionAlgorithmSet" = type { %"class.grpc_core::BitSet.101" }
%"class.grpc_core::BitSet.101" = type { [1 x i8] }
%"class.grpc_core::Poll.434" = type { i8, %union.anon.435 }
%union.anon.435 = type { %"class.std::unique_ptr" }
%"class.grpc_core::pipe_detail::Push.308" = type { %"class.grpc_core::RefCountedPtr.201", %"class.std::variant.309" }
%"class.std::variant.309" = type { %"struct.std::__detail::__variant::_Variant_base.base.326", [7 x i8] }
%"struct.std::__detail::__variant::_Variant_base.base.326" = type { %"struct.std::__detail::__variant::_Move_assign_base.base.325" }
%"struct.std::__detail::__variant::_Move_assign_base.base.325" = type { %"struct.std::__detail::__variant::_Copy_assign_base.base.324" }
%"struct.std::__detail::__variant::_Copy_assign_base.base.324" = type { %"struct.std::__detail::__variant::_Move_ctor_base.base.323" }
%"struct.std::__detail::__variant::_Move_ctor_base.base.323" = type { %"struct.std::__detail::__variant::_Copy_ctor_base.base.322" }
%"struct.std::__detail::__variant::_Copy_ctor_base.base.322" = type { %"struct.std::__detail::__variant::_Variant_storage.base.321" }
%"struct.std::__detail::__variant::_Variant_storage.base.321" = type { %"union.std::__detail::__variant::_Variadic_union.316", i8 }
%"union.std::__detail::__variant::_Variadic_union.316" = type { %"struct.std::__detail::__variant::_Uninitialized.317" }
%"struct.std::__detail::__variant::_Uninitialized.317" = type { %"struct.__gnu_cxx::__aligned_membuf.318" }
%"struct.__gnu_cxx::__aligned_membuf.318" = type { [16 x i8] }
%"class.grpc_core::promise_detail::Map.306" = type <{ %"class.grpc_core::promise_detail::PromiseLike.307", %class.anon.331, [7 x i8] }>
%"class.grpc_core::promise_detail::PromiseLike.307" = type { %"class.grpc_core::pipe_detail::Push.308" }
%class.anon.331 = type { i8 }
%"class.grpc_core::promise_detail::PromiseLike.305" = type { %"class.grpc_core::promise_detail::Map.base.333", [7 x i8] }
%"class.grpc_core::promise_detail::Map.base.333" = type <{ %"class.grpc_core::promise_detail::PromiseLike.307", %class.anon.331 }>
%"class.grpc_core::promise_detail::If.303" = type { i8, [7 x i8], %union.anon.304 }
%union.anon.304 = type { %"class.grpc_core::promise_detail::PromiseLike.305" }
%"class.absl::lts_20230802::StatusOr.454" = type { %"class.absl::lts_20230802::internal_statusor::StatusOrData.455" }
%"class.absl::lts_20230802::internal_statusor::StatusOrData.455" = type { %union.anon.456, %union.anon.457 }
%union.anon.456 = type { %"class.absl::lts_20230802::Status" }
%union.anon.457 = type { %"class.std::optional" }
%"class.grpc_core::Poll.452" = type { i8, %union.anon.453 }
%union.anon.453 = type { %"class.absl::lts_20230802::StatusOr.454" }
%"class.grpc_core::promise_detail::PromiseLike.302" = type { %"class.grpc_core::promise_detail::If.303" }
%"class.grpc_core::Poll.436" = type { i8, [7 x i8], %union.anon.437 }
%union.anon.437 = type { %"class.std::variant.336" }
%"class.std::variant.336" = type { %"struct.std::__detail::__variant::_Variant_base.base.353", [7 x i8] }
%"struct.std::__detail::__variant::_Variant_base.base.353" = type { %"struct.std::__detail::__variant::_Move_assign_base.base.352" }
%"struct.std::__detail::__variant::_Move_assign_base.base.352" = type { %"struct.std::__detail::__variant::_Copy_assign_base.base.351" }
%"struct.std::__detail::__variant::_Copy_assign_base.base.351" = type { %"struct.std::__detail::__variant::_Move_ctor_base.base.350" }
%"struct.std::__detail::__variant::_Move_ctor_base.base.350" = type { %"struct.std::__detail::__variant::_Copy_ctor_base.base.349" }
%"struct.std::__detail::__variant::_Copy_ctor_base.base.349" = type { %"struct.std::__detail::__variant::_Variant_storage.base.348" }
%"struct.std::__detail::__variant::_Variant_storage.base.348" = type { %"union.std::__detail::__variant::_Variadic_union.343", i8 }
%"union.std::__detail::__variant::_Variadic_union.343" = type { %"union.std::__detail::__variant::_Variadic_union.345" }
%"union.std::__detail::__variant::_Variadic_union.345" = type { %"struct.std::__detail::__variant::_Uninitialized.346" }
%"struct.std::__detail::__variant::_Uninitialized.346" = type { %"struct.__gnu_cxx::__aligned_membuf.347" }
%"struct.__gnu_cxx::__aligned_membuf.347" = type { [8 x i8] }
%"class.grpc_core::SliceBuffer" = type { %struct.grpc_slice_buffer }
%struct.grpc_slice_buffer = type { ptr, ptr, i64, i64, i64, [7 x %struct.grpc_slice] }
%"class.grpc_core::promise_detail::Seq.594" = type { %"struct.grpc_core::promise_detail::SeqState.595" }
%"struct.grpc_core::promise_detail::SeqState.595" = type <{ %union.anon.596, i8, [15 x i8] }>
%union.anon.596 = type { %"struct.grpc_core::promise_detail::SeqState<grpc_core::promise_detail::SeqTraits, grpc_core::promise_detail::TrySeq<(lambda at /home/dtcxzyw/WorkSpace/Projects/compilers/llvm-opt-benchmark/bench/grpc/grpc/src/core/lib/transport/batch_builder.h:243:14), (lambda at /home/dtcxzyw/WorkSpace/Projects/compilers/llvm-opt-benchmark/bench/grpc/grpc/src/core/lib/channel/connected_channel.cc:617:14)>, (lambda at /home/dtcxzyw/WorkSpace/Projects/compilers/llvm-opt-benchmark/bench/grpc/grpc/src/core/lib/channel/connected_channel.cc:710:33)>::Running0" }
%"struct.grpc_core::promise_detail::SeqState<grpc_core::promise_detail::SeqTraits, grpc_core::promise_detail::TrySeq<(lambda at /home/dtcxzyw/WorkSpace/Projects/compilers/llvm-opt-benchmark/bench/grpc/grpc/src/core/lib/transport/batch_builder.h:243:14), (lambda at /home/dtcxzyw/WorkSpace/Projects/compilers/llvm-opt-benchmark/bench/grpc/grpc/src/core/lib/channel/connected_channel.cc:617:14)>, (lambda at /home/dtcxzyw/WorkSpace/Projects/compilers/llvm-opt-benchmark/bench/grpc/grpc/src/core/lib/channel/connected_channel.cc:710:33)>::Running0" = type { %"class.grpc_core::promise_detail::PromiseLike.597", %"class.grpc_core::promise_detail::OncePromiseFactory.598" }
%"class.grpc_core::promise_detail::PromiseLike.597" = type { %"class.grpc_core::promise_detail::TrySeq.481" }
%"class.grpc_core::promise_detail::TrySeq.481" = type { %"struct.grpc_core::promise_detail::SeqState.482" }
%"struct.grpc_core::promise_detail::SeqState.482" = type <{ %union.anon.483, i8, [15 x i8] }>
%union.anon.483 = type { %"struct.grpc_core::promise_detail::SeqState<grpc_core::promise_detail::TrySeqTraits, (lambda at /home/dtcxzyw/WorkSpace/Projects/compilers/llvm-opt-benchmark/bench/grpc/grpc/src/core/lib/transport/batch_builder.h:243:14), (lambda at /home/dtcxzyw/WorkSpace/Projects/compilers/llvm-opt-benchmark/bench/grpc/grpc/src/core/lib/channel/connected_channel.cc:617:14)>::Running0", [8 x i8] }
%"struct.grpc_core::promise_detail::SeqState<grpc_core::promise_detail::TrySeqTraits, (lambda at /home/dtcxzyw/WorkSpace/Projects/compilers/llvm-opt-benchmark/bench/grpc/grpc/src/core/lib/transport/batch_builder.h:243:14), (lambda at /home/dtcxzyw/WorkSpace/Projects/compilers/llvm-opt-benchmark/bench/grpc/grpc/src/core/lib/channel/connected_channel.cc:617:14)>::Running0" = type { %"class.grpc_core::promise_detail::PromiseLike.244", %"class.grpc_core::promise_detail::OncePromiseFactory.484" }
%"class.grpc_core::promise_detail::OncePromiseFactory.484" = type { %class.anon.485 }
%class.anon.485 = type { %"class.std::function", %class.anon.480, ptr }
%class.anon.480 = type { %"class.grpc_core::RefCountedPtr.201" }
%"class.grpc_core::promise_detail::OncePromiseFactory.598" = type { %class.anon.493 }
%class.anon.493 = type { ptr, %"class.grpc_core::RefCountedPtr.197" }
%class.anon.604 = type { %"class.std::unique_ptr.576", %"class.std::unique_ptr.584", %"class.std::unique_ptr.170" }
%"class.std::unique_ptr.576" = type { %"struct.std::__uniq_ptr_data.577" }
%"struct.std::__uniq_ptr_data.577" = type { %"class.std::__uniq_ptr_impl.578" }
%"class.std::__uniq_ptr_impl.578" = type { %"class.std::tuple.579" }
%"class.std::tuple.579" = type { %"struct.std::_Tuple_impl.580" }
%"struct.std::_Tuple_impl.580" = type { %"struct.std::_Head_base.583" }
%"struct.std::_Head_base.583" = type { ptr }
%"class.std::unique_ptr.584" = type { %"struct.std::__uniq_ptr_data.585" }
%"struct.std::__uniq_ptr_data.585" = type { %"class.std::__uniq_ptr_impl.586" }
%"class.std::__uniq_ptr_impl.586" = type { %"class.std::tuple.587" }
%"class.std::tuple.587" = type { %"struct.std::_Tuple_impl.588" }
%"struct.std::_Tuple_impl.588" = type { %"struct.std::_Head_base.591" }
%"struct.std::_Head_base.591" = type { ptr }
%"class.grpc_core::promise_detail::Seq.566" = type { %"struct.grpc_core::promise_detail::SeqState.567" }
%"struct.grpc_core::promise_detail::SeqState.567" = type <{ %union.anon.568, i8, [7 x i8] }>
%union.anon.568 = type { %"struct.grpc_core::promise_detail::SeqState<grpc_core::promise_detail::SeqTraits, (lambda at /home/dtcxzyw/WorkSpace/Projects/compilers/llvm-opt-benchmark/bench/grpc/grpc/src/core/lib/transport/batch_builder.h:243:14), (lambda at /home/dtcxzyw/WorkSpace/Projects/compilers/llvm-opt-benchmark/bench/grpc/grpc/src/core/lib/channel/connected_channel.cc:774:11)>::Running0" }
%"struct.grpc_core::promise_detail::SeqState<grpc_core::promise_detail::SeqTraits, (lambda at /home/dtcxzyw/WorkSpace/Projects/compilers/llvm-opt-benchmark/bench/grpc/grpc/src/core/lib/transport/batch_builder.h:243:14), (lambda at /home/dtcxzyw/WorkSpace/Projects/compilers/llvm-opt-benchmark/bench/grpc/grpc/src/core/lib/channel/connected_channel.cc:774:11)>::Running0" = type { %"class.grpc_core::promise_detail::PromiseLike.282", %"class.grpc_core::promise_detail::OncePromiseFactory.569" }
%"class.grpc_core::promise_detail::OncePromiseFactory.569" = type { %class.anon.570 }
%class.anon.570 = type { ptr }
%"class.grpc_core::promise_detail::Race.552" = type { %"class.grpc_core::promise_detail::Map.553", %"class.grpc_core::promise_detail::Race.557" }
%"class.grpc_core::promise_detail::Map.553" = type <{ %"class.grpc_core::promise_detail::PromiseLike.496", %class.anon.554, [7 x i8] }>
%"class.grpc_core::promise_detail::PromiseLike.496" = type { %class.anon.497 }
%class.anon.497 = type { ptr }
%class.anon.554 = type { i8 }
%"class.grpc_core::promise_detail::Race.557" = type { %"class.grpc_core::promise_detail::TrySeq.558" }
%"class.grpc_core::promise_detail::TrySeq.558" = type { %"struct.grpc_core::promise_detail::SeqState.559" }
%"struct.grpc_core::promise_detail::SeqState.559" = type <{ %union.anon.560, i8, [7 x i8] }>
%union.anon.560 = type { %"struct.grpc_core::promise_detail::SeqState<grpc_core::promise_detail::TrySeqTraits, grpc_core::promise_detail::Seq<grpc_core::promise_detail::Race<grpc_core::promise_detail::Map<(lambda at /home/dtcxzyw/WorkSpace/Projects/compilers/llvm-opt-benchmark/bench/grpc/grpc/src/core/lib/promise/latch.h:226:12), (lambda at /home/dtcxzyw/WorkSpace/Projects/compilers/llvm-opt-benchmark/bench/grpc/grpc/src/core/lib/channel/connected_channel.cc:741:16)>, grpc_core::promise_detail::Seq<grpc_core::pipe_detail::Next<std::unique_ptr<grpc_metadata_batch, grpc_core::Arena::PooledDeleter>>, (lambda at /home/dtcxzyw/WorkSpace/Projects/compilers/llvm-opt-benchmark/bench/grpc/grpc/src/core/lib/promise/pipe.h:575:47)>>, (lambda at /home/dtcxzyw/WorkSpace/Projects/compilers/llvm-opt-benchmark/bench/grpc/grpc/src/core/lib/channel/connected_channel.cc:743:7)>, grpc_core::for_each_detail::ForEach<grpc_core::PipeReceiver<std::unique_ptr<grpc_core::Message, grpc_core::Arena::PooledDeleter>>, (lambda at /home/dtcxzyw/WorkSpace/Projects/compilers/llvm-opt-benchmark/bench/grpc/grpc/src/core/lib/channel/connected_channel.cc:428:18)>>::Running0" }
%"struct.grpc_core::promise_detail::SeqState<grpc_core::promise_detail::TrySeqTraits, grpc_core::promise_detail::Seq<grpc_core::promise_detail::Race<grpc_core::promise_detail::Map<(lambda at /home/dtcxzyw/WorkSpace/Projects/compilers/llvm-opt-benchmark/bench/grpc/grpc/src/core/lib/promise/latch.h:226:12), (lambda at /home/dtcxzyw/WorkSpace/Projects/compilers/llvm-opt-benchmark/bench/grpc/grpc/src/core/lib/channel/connected_channel.cc:741:16)>, grpc_core::promise_detail::Seq<grpc_core::pipe_detail::Next<std::unique_ptr<grpc_metadata_batch, grpc_core::Arena::PooledDeleter>>, (lambda at /home/dtcxzyw/WorkSpace/Projects/compilers/llvm-opt-benchmark/bench/grpc/grpc/src/core/lib/promise/pipe.h:575:47)>>, (lambda at /home/dtcxzyw/WorkSpace/Projects/compilers/llvm-opt-benchmark/bench/grpc/grpc/src/core/lib/channel/connected_channel.cc:743:7)>, grpc_core::for_each_detail::ForEach<grpc_core::PipeReceiver<std::unique_ptr<grpc_core::Message, grpc_core::Arena::PooledDeleter>>, (lambda at /home/dtcxzyw/WorkSpace/Projects/compilers/llvm-opt-benchmark/bench/grpc/grpc/src/core/lib/channel/connected_channel.cc:428:18)>>::Running0" = type { %"class.grpc_core::promise_detail::PromiseLike.561", %"class.grpc_core::promise_detail::OncePromiseFactory.562" }
%"class.grpc_core::promise_detail::PromiseLike.561" = type { %"class.grpc_core::promise_detail::Seq.508" }
%"class.grpc_core::promise_detail::Seq.508" = type { %"struct.grpc_core::promise_detail::SeqState.509" }
%"struct.grpc_core::promise_detail::SeqState.509" = type <{ %union.anon.510, i8, [7 x i8] }>
%union.anon.510 = type { %"struct.grpc_core::promise_detail::SeqState<grpc_core::promise_detail::SeqTraits, grpc_core::promise_detail::Race<grpc_core::promise_detail::Map<(lambda at /home/dtcxzyw/WorkSpace/Projects/compilers/llvm-opt-benchmark/bench/grpc/grpc/src/core/lib/promise/latch.h:226:12), (lambda at /home/dtcxzyw/WorkSpace/Projects/compilers/llvm-opt-benchmark/bench/grpc/grpc/src/core/lib/channel/connected_channel.cc:741:16)>, grpc_core::promise_detail::Seq<grpc_core::pipe_detail::Next<std::unique_ptr<grpc_metadata_batch, grpc_core::Arena::PooledDeleter>>, (lambda at /home/dtcxzyw/WorkSpace/Projects/compilers/llvm-opt-benchmark/bench/grpc/grpc/src/core/lib/promise/pipe.h:575:47)>>, (lambda at /home/dtcxzyw/WorkSpace/Projects/compilers/llvm-opt-benchmark/bench/grpc/grpc/src/core/lib/channel/connected_channel.cc:743:7)>::Running0" }
%"struct.grpc_core::promise_detail::SeqState<grpc_core::promise_detail::SeqTraits, grpc_core::promise_detail::Race<grpc_core::promise_detail::Map<(lambda at /home/dtcxzyw/WorkSpace/Projects/compilers/llvm-opt-benchmark/bench/grpc/grpc/src/core/lib/promise/latch.h:226:12), (lambda at /home/dtcxzyw/WorkSpace/Projects/compilers/llvm-opt-benchmark/bench/grpc/grpc/src/core/lib/channel/connected_channel.cc:741:16)>, grpc_core::promise_detail::Seq<grpc_core::pipe_detail::Next<std::unique_ptr<grpc_metadata_batch, grpc_core::Arena::PooledDeleter>>, (lambda at /home/dtcxzyw/WorkSpace/Projects/compilers/llvm-opt-benchmark/bench/grpc/grpc/src/core/lib/promise/pipe.h:575:47)>>, (lambda at /home/dtcxzyw/WorkSpace/Projects/compilers/llvm-opt-benchmark/bench/grpc/grpc/src/core/lib/channel/connected_channel.cc:743:7)>::Running0" = type { %"class.grpc_core::promise_detail::PromiseLike.511", %"class.grpc_core::promise_detail::OncePromiseFactory.547" }
%"class.grpc_core::promise_detail::PromiseLike.511" = type { %"class.grpc_core::promise_detail::Race.512" }
%"class.grpc_core::promise_detail::Race.512" = type { %"class.grpc_core::promise_detail::Map.513", %"class.grpc_core::promise_detail::Race.517" }
%"class.grpc_core::promise_detail::Map.513" = type <{ %"class.grpc_core::promise_detail::PromiseLike.496", %class.anon.514, [7 x i8] }>
%class.anon.514 = type { i8 }
%"class.grpc_core::promise_detail::Race.517" = type { %"class.grpc_core::promise_detail::Seq.518" }
%"class.grpc_core::promise_detail::Seq.518" = type { %"struct.grpc_core::promise_detail::SeqState.519" }
%"struct.grpc_core::promise_detail::SeqState.519" = type <{ %union.anon.520, i8, [7 x i8] }>
%union.anon.520 = type { %"class.grpc_core::promise_detail::PromiseLike.525" }
%"class.grpc_core::promise_detail::PromiseLike.525" = type { %"class.grpc_core::promise_detail::If.526" }
%"class.grpc_core::promise_detail::If.526" = type { i8, %union.anon.527 }
%union.anon.527 = type { %"class.grpc_core::promise_detail::PromiseLike.528" }
%"class.grpc_core::promise_detail::PromiseLike.528" = type { %"class.grpc_core::promise_detail::Map.529" }
%"class.grpc_core::promise_detail::Map.529" = type { %"class.grpc_core::promise_detail::PromiseLike.530", %class.anon.543 }
%"class.grpc_core::promise_detail::PromiseLike.530" = type { %"class.grpc_core::InterceptorList<std::unique_ptr<grpc_metadata_batch, grpc_core::Arena::PooledDeleter>>::RunPromise.base", [7 x i8] }
%"class.grpc_core::InterceptorList<std::unique_ptr<grpc_metadata_batch, grpc_core::Arena::PooledDeleter>>::RunPromise.base" = type <{ %union.anon.531, i8 }>
%union.anon.531 = type { %"struct.grpc_core::InterceptorList<std::unique_ptr<grpc_metadata_batch, grpc_core::Arena::PooledDeleter>>::RunPromise::AsyncResolution" }
%"struct.grpc_core::InterceptorList<std::unique_ptr<grpc_metadata_batch, grpc_core::Arena::PooledDeleter>>::RunPromise::AsyncResolution" = type { ptr, %"class.std::unique_ptr.213" }
%class.anon.543 = type { %"class.grpc_core::RefCountedPtr.255" }
%"class.grpc_core::promise_detail::OncePromiseFactory.547" = type { %class.anon.548 }
%class.anon.548 = type { ptr, %"class.grpc_core::RefCountedPtr.197" }
%"class.grpc_core::promise_detail::OncePromiseFactory.562" = type { %"class.grpc_core::for_each_detail::ForEach" }
%"class.grpc_core::promise_detail::Race.494" = type { %"class.grpc_core::promise_detail::Map.495", %"class.grpc_core::promise_detail::Race.501" }
%"class.grpc_core::promise_detail::Map.495" = type <{ %"class.grpc_core::promise_detail::PromiseLike.496", %class.anon.498, [7 x i8] }>
%class.anon.498 = type { i8 }
%"class.grpc_core::promise_detail::Race.501" = type { %"class.grpc_core::promise_detail::Map.502" }
%"class.grpc_core::promise_detail::Map.502" = type { %"class.grpc_core::promise_detail::PromiseLike.503", %class.anon.505 }
%"class.grpc_core::promise_detail::PromiseLike.503" = type { %"class.grpc_core::promise_detail::Loop.base", [7 x i8] }
%"class.grpc_core::promise_detail::Loop.base" = type <{ %"class.grpc_core::promise_detail::RepeatedPromiseFactory.289", %union.anon.291, i8 }>
%class.anon.505 = type { ptr }
%"class.grpc_core::promise_detail::Map.592" = type { %"class.grpc_core::promise_detail::PromiseLike.593", %class.anon.604, [8 x i8] }
%"class.grpc_core::promise_detail::PromiseLike.593" = type { %"class.grpc_core::promise_detail::Seq.594" }
%"class.grpc_core::promise_detail::PromiseLike.612" = type { %"class.grpc_core::promise_detail::Race.494" }
%"class.grpc_core::NextResult.621" = type <{ %"class.grpc_core::RefCountedPtr.255", i8, [7 x i8] }>
%"class.grpc_core::Poll.619" = type { i8, [7 x i8], %union.anon.620 }
%union.anon.620 = type { %"class.grpc_core::NextResult.621" }
%"class.grpc_core::promise_detail::PromiseLike.617" = type { %"class.grpc_core::promise_detail::Race.552" }
%"class.grpc_core::Poll.623" = type { i8, [7 x i8], %union.anon.624 }
%union.anon.624 = type { %"class.std::optional.532" }
%"class.std::optional.532" = type { %"struct.std::_Optional_base.533" }
%"struct.std::_Optional_base.533" = type { %"struct.std::_Optional_payload.535" }
%"struct.std::_Optional_payload.535" = type { %"struct.std::_Optional_payload.base.539", [7 x i8] }
%"struct.std::_Optional_payload.base.539" = type { %"struct.std::_Optional_payload_base.base.538" }
%"struct.std::_Optional_payload_base.base.538" = type <{ %"union.std::_Optional_payload_base<std::unique_ptr<grpc_metadata_batch, grpc_core::Arena::PooledDeleter>>::_Storage", i8 }>
%"union.std::_Optional_payload_base<std::unique_ptr<grpc_metadata_batch, grpc_core::Arena::PooledDeleter>>::_Storage" = type { %"class.std::unique_ptr" }
%class.anon.625 = type { %"class.grpc_core::RefCountedPtr.255", %"class.std::optional.532" }
%"class.grpc_core::promise_detail::OncePromiseFactory.626" = type { %class.anon.625 }
%"class.grpc_core::InterceptorList<std::unique_ptr<grpc_metadata_batch, grpc_core::Arena::PooledDeleter>>::RunPromise" = type <{ %union.anon.531, i8, [7 x i8] }>
%"class.grpc_core::promise_detail::PromiseLike.637" = type { %"class.grpc_core::promise_detail::Seq.566" }
%"class.grpc_core::promise_detail::Map.600" = type { %"class.grpc_core::promise_detail::PromiseLike.601", %class.anon.602 }
%"class.grpc_core::promise_detail::PromiseLike.601" = type { %class.anon.235 }
%class.anon.602 = type { ptr, %"class.grpc_core::RefCountedPtr.234" }
%class.anon.489 = type { %"class.grpc_core::ArenaPromise", %class.anon.480, [8 x i8] }
%"class.grpc_core::promise_detail::Race" = type { %class.anon.487, [8 x i8], %"class.grpc_core::promise_detail::Race.488" }
%class.anon.487 = type { ptr }
%"class.grpc_core::promise_detail::Race.488" = type { %class.anon.489 }
%"class.grpc_core::promise_detail::PromiseLike.486" = type { %"class.grpc_core::promise_detail::Race" }

$_ZN9grpc_core19NoDestructSingletonINS_14promise_detail10UnwakeableEE6value_E = comdat any

$__clang_call_terminate = comdat any

$_ZN9grpc_core8CallArgsD2Ev = comdat any

$_ZNSt10unique_ptrI19grpc_metadata_batchN9grpc_core5Arena13PooledDeleterEED2Ev = comdat any

$_ZN9grpc_core11MetadataMapI19grpc_metadata_batchJNS_16HttpPathMetadataENS_21HttpAuthorityMetadataENS_18HttpMethodMetadataENS_18HttpStatusMetadataENS_18HttpSchemeMetadataENS_19ContentTypeMetadataENS_10TeMetadataENS_20GrpcEncodingMetadataENS_27GrpcInternalEncodingRequestENS_26GrpcAcceptEncodingMetadataENS_18GrpcStatusMetadataENS_19GrpcTimeoutMetadataENS_31GrpcPreviousRpcAttemptsMetadataENS_27GrpcRetryPushbackMsMetadataENS_17UserAgentMetadataENS_19GrpcMessageMetadataENS_12HostMetadataENS_30EndpointLoadMetricsBinMetadataENS_26GrpcServerStatsBinMetadataENS_20GrpcTraceBinMetadataENS_19GrpcTagsBinMetadataENS_25GrpcLbClientStatsMetadataENS_17LbCostBinMetadataENS_15LbTokenMetadataENS_18XEnvoyPeerMetadataENS_22GrpcStreamNetworkStateENS_10PeerStringENS_17GrpcStatusContextENS_18GrpcStatusFromWireENS_20GrpcCallWasCancelledENS_12WaitForReadyENS_16GrpcTrailersOnlyENS_10GrpcTarPitENS_20GrpcRegisteredMethodEEED2Ev = comdat any

$_ZN9grpc_core5SliceD2Ev = comdat any

$_ZN9grpc_core5TableIJNS_15metadata_detail5ValueINS_17LbCostBinMetadataEvEENS2_INS_17GrpcStatusContextEvEENS2_INS_18XEnvoyPeerMetadataEvEENS2_INS_15LbTokenMetadataEvEENS2_INS_10PeerStringEvEENS2_INS_19GrpcTagsBinMetadataEvEENS2_INS_20GrpcTraceBinMetadataEvEENS2_INS_26GrpcServerStatsBinMetadataEvEENS2_INS_30EndpointLoadMetricsBinMetadataEvEENS2_INS_12HostMetadataEvEENS2_INS_19GrpcMessageMetadataEvEENS2_INS_17UserAgentMetadataEvEENS2_INS_21HttpAuthorityMetadataEvEENS2_INS_16HttpPathMetadataEvEENS2_INS_27GrpcRetryPushbackMsMetadataEvEENS2_INS_19GrpcTimeoutMetadataEvEENS2_INS_25GrpcLbClientStatsMetadataEvEENS2_INS_20GrpcRegisteredMethodEvEENS2_INS_27GrpcInternalEncodingRequestEvEENS2_INS_20GrpcEncodingMetadataEvEENS2_INS_18HttpStatusMetadataEvEENS2_INS_31GrpcPreviousRpcAttemptsMetadataEvEENS2_INS_18GrpcStatusMetadataEvEENS2_INS_12WaitForReadyEvEENS2_INS_26GrpcAcceptEncodingMetadataEvEENS2_INS_20GrpcCallWasCancelledEvEENS2_INS_18GrpcStatusFromWireEvEENS2_INS_10TeMetadataEvEENS2_INS_19ContentTypeMetadataEvEENS2_INS_18HttpSchemeMetadataEvEENS2_INS_16GrpcTrailersOnlyEvEENS2_INS_18HttpMethodMetadataEvEENS2_INS_10GrpcTarPitEvEENS2_INS_22GrpcStreamNetworkStateEvEEEE8DestructIJLm0ELm1ELm2ELm3ELm4ELm5ELm6ELm7ELm8ELm9ELm10ELm11ELm12ELm13ELm14ELm15ELm16ELm17ELm18ELm19ELm20ELm21ELm22ELm23ELm24ELm25ELm26ELm27ELm28ELm29ELm30ELm31ELm32ELm33EEEEvN4absl12lts_2023080216integer_sequenceImJXspT_EEEE = comdat any

$_ZN4absl12lts_202308026StatusD2Ev = comdat any

$_ZZN9grpc_core12BatchBuilder5Batch8RefUntilINS_14promise_detail3MapIZNS_5LatchIN4absl12lts_202308026StatusEE4WaitEvEUlvE_ZNS0_22ReceiveInitialMetadataENS0_6TargetEEUlS8_E_EEEEDaT_ENUlvE_D2Ev = comdat any

$_ZZN9grpc_core12BatchBuilder5Batch8RefUntilIZNS_5LatchIN4absl12lts_202308026StatusEE11WaitAndCopyEvEUlvE_EEDaT_ENUlvE_D2Ev = comdat any

$_ZZN9grpc_core12BatchBuilder5Batch8RefUntilINS_14promise_detail3MapIZNS_5LatchIN4absl12lts_202308026StatusEE4WaitEvEUlvE_ZNS0_23ReceiveTrailingMetadataENS0_6TargetEEUlS8_E_EEEEDaT_ENUlvE_D2Ev = comdat any

$_ZN9grpc_core13RefCountedPtrINS_11CallContextEED2Ev = comdat any

$_ZN4absl12lts_2023080222internal_any_invocable19LocalManagerTrivialENS1_14FunctionToCallEPNS1_15TypeErasedStateES4_ = comdat any

$_ZN9grpc_core5Party11BulkSpawnerD2Ev = comdat any

$_ZN9grpc_core4PollIN4absl12lts_202308026StatusEED2Ev = comdat any

$_ZN9grpc_core14promise_detail11PromiseLikeIZNS_12BatchBuilder5Batch8RefUntilIZNS_5LatchIN4absl12lts_202308026StatusEE11WaitAndCopyEvEUlvE_EEDaT_EUlvE_vED2Ev = comdat any

$_ZN9grpc_core14promise_detail8SeqStateINS0_9SeqTraitsENS_11pipe_detail4NextISt10unique_ptrINS_7MessageENS_5Arena13PooledDeleterEEEEJZNS_12PipeReceiverIS9_E4NextEvEUlSt8optionalIS9_EE_EE8PollOnceEv = comdat any

$_ZN9grpc_core10NextResultISt10unique_ptrINS_7MessageENS_5Arena13PooledDeleterEEED2Ev = comdat any

$_ZN9grpc_core4PollISt8optionalISt10unique_ptrINS_7MessageENS_5Arena13PooledDeleterEEEED2Ev = comdat any

$_ZNSt10unique_ptrIN9grpc_core7MessageENS0_5Arena13PooledDeleterEED2Ev = comdat any

$_ZN9grpc_core11pipe_detail6CenterISt10unique_ptrINS_7MessageENS_5Arena13PooledDeleterEEE7AckNextEv = comdat any

$_ZN9grpc_core13RefCountedPtrINS_11pipe_detail6CenterISt10unique_ptrINS_7MessageENS_5Arena13PooledDeleterEEEEED2Ev = comdat any

$_ZN9grpc_core14promise_detail18PromiseFactoryImplISt8optionalISt10unique_ptrINS_7MessageENS_5Arena13PooledDeleterEEEZNS_12PipeReceiverIS7_E4NextEvEUlS8_E_EENSt9enable_ifIXsr14IsVoidCallableINS0_9ResultOfTIFT0_T_EvE1TEEE5valueENS0_11PromiseLikeIDTclclsr3stdE7declvalISE_EEclsr3stdE7declvalISF_EEEEvEEE4typeEOSE_OSF_ = comdat any

$_ZZN9grpc_core12PipeReceiverISt10unique_ptrINS_7MessageENS_5Arena13PooledDeleterEEE4NextEvENKUlSt8optionalIS5_EE_clES8_ = comdat any

$_ZN9grpc_core14promise_detail2IfIbZZNS_12PipeReceiverISt10unique_ptrINS_7MessageENS_5Arena13PooledDeleterEEE4NextEvENKUlSt8optionalIS7_EE_clESA_EUlvE_ZZNS8_4NextEvENKSB_clESA_EUlvE0_ED2Ev = comdat any

$_ZNSt8optionalISt10unique_ptrIN9grpc_core7MessageENS1_5Arena13PooledDeleterEEED2Ev = comdat any

$_ZZZN9grpc_core12PipeReceiverISt10unique_ptrINS_7MessageENS_5Arena13PooledDeleterEEE4NextEvENKUlSt8optionalIS5_EE_clES8_ENUlvE_D2Ev = comdat any

$_ZN9grpc_core14promise_detail2IfIbZZNS_12PipeReceiverISt10unique_ptrINS_7MessageENS_5Arena13PooledDeleterEEE4NextEvENKUlSt8optionalIS7_EE_clESA_EUlvE_ZZNS8_4NextEvENKSB_clESA_EUlvE0_EC2EbSC_SD_ = comdat any

$_ZZZN9grpc_core12PipeReceiverISt10unique_ptrINS_7MessageENS_5Arena13PooledDeleterEEE4NextEvENKUlSt8optionalIS5_EE_clES8_ENUlvE_clEv = comdat any

$_ZN9grpc_core15InterceptorListISt10unique_ptrINS_7MessageENS_5Arena13PooledDeleterEEE3RunESt8optionalIS5_E = comdat any

$_ZN9grpc_core15InterceptorListISt10unique_ptrINS_7MessageENS_5Arena13PooledDeleterEEE10RunPromiseD2Ev = comdat any

$_ZN9grpc_core15InterceptorListISt10unique_ptrINS_7MessageENS_5Arena13PooledDeleterEEE10RunPromiseC2EmPNS6_3MapESt8optionalIS5_E = comdat any

$_ZN9grpc_core14promise_detail3MapINS_15InterceptorListISt10unique_ptrINS_7MessageENS_5Arena13PooledDeleterEEE10RunPromiseEZZZNS_12PipeReceiverIS7_E4NextEvENKUlSt8optionalIS7_EE_clESD_ENUlvE_clEvEUlSD_E_EclEv = comdat any

$_ZZZZN9grpc_core12PipeReceiverISt10unique_ptrINS_7MessageENS_5Arena13PooledDeleterEEE4NextEvENKUlSt8optionalIS5_EE_clES8_ENUlvE_clEvENUlS8_E_clES8_ = comdat any

$_ZN9grpc_core15InterceptorListISt10unique_ptrINS_7MessageENS_5Arena13PooledDeleterEEE10RunPromiseclEv = comdat any

$_ZN9grpc_core11pipe_detail6CenterISt10unique_ptrINS_7MessageENS_5Arena13PooledDeleterEEE13MarkCancelledEv = comdat any

$_ZN9grpc_core14promise_detail8SeqStateINS0_9SeqTraitsENS_11pipe_detail4NextISt10unique_ptrINS_7MessageENS_5Arena13PooledDeleterEEEEJZNS_12PipeReceiverIS9_E4NextEvEUlSt8optionalIS9_EE_EED2Ev = comdat any

$_ZN9grpc_core12BatchBuilder11SendMessageENS0_6TargetESt10unique_ptrINS_7MessageENS_5Arena13PooledDeleterEE = comdat any

$_ZN9grpc_core12BatchBuilder5Batch24GetInitializedCompletionINS0_12PendingSendsEEEPT_MS1_S5_ = comdat any

$_ZN9grpc_core5Arena9NewPooledINS_12BatchBuilder12PendingSendsEJNS_13RefCountedPtrINS2_5BatchEEEEEEPT_DpOT0_ = comdat any

$_ZN9grpc_core13RefCountedPtrINS_12BatchBuilder5BatchEED2Ev = comdat any

$_ZNK9grpc_core12BatchBuilder12PendingSends4nameEv = comdat any

$_ZN9grpc_core12BatchBuilder26SendClientTrailingMetadataENS0_6TargetE = comdat any

$_ZN9grpc_core12PipeReceiverISt10unique_ptrINS_7MessageENS_5Arena13PooledDeleterEEED2Ev = comdat any

$_ZN9grpc_core4PollIN4absl12lts_202308028StatusOrISt10unique_ptrI19grpc_metadata_batchNS_5Arena13PooledDeleterEEEEED2Ev = comdat any

$_ZN4absl12lts_202308028StatusOrISt10unique_ptrI19grpc_metadata_batchN9grpc_core5Arena13PooledDeleterEEED2Ev = comdat any

$_ZNK9grpc_core11MetadataMapI19grpc_metadata_batchJNS_16HttpPathMetadataENS_21HttpAuthorityMetadataENS_18HttpMethodMetadataENS_18HttpStatusMetadataENS_18HttpSchemeMetadataENS_19ContentTypeMetadataENS_10TeMetadataENS_20GrpcEncodingMetadataENS_27GrpcInternalEncodingRequestENS_26GrpcAcceptEncodingMetadataENS_18GrpcStatusMetadataENS_19GrpcTimeoutMetadataENS_31GrpcPreviousRpcAttemptsMetadataENS_27GrpcRetryPushbackMsMetadataENS_17UserAgentMetadataENS_19GrpcMessageMetadataENS_12HostMetadataENS_30EndpointLoadMetricsBinMetadataENS_26GrpcServerStatsBinMetadataENS_20GrpcTraceBinMetadataENS_19GrpcTagsBinMetadataENS_25GrpcLbClientStatsMetadataENS_17LbCostBinMetadataENS_15LbTokenMetadataENS_18XEnvoyPeerMetadataENS_22GrpcStreamNetworkStateENS_10PeerStringENS_17GrpcStatusContextENS_18GrpcStatusFromWireENS_20GrpcCallWasCancelledENS_12WaitForReadyENS_16GrpcTrailersOnlyENS_10GrpcTarPitENS_20GrpcRegisteredMethodEEE11DebugStringB5cxx11Ev = comdat any

$_ZN9grpc_core11pipe_detail4PushISt10unique_ptrI19grpc_metadata_batchNS_5Arena13PooledDeleterEEED2Ev = comdat any

$_ZNK9grpc_core5TableIJNS_15metadata_detail5ValueINS_17LbCostBinMetadataEvEENS2_INS_17GrpcStatusContextEvEENS2_INS_18XEnvoyPeerMetadataEvEENS2_INS_15LbTokenMetadataEvEENS2_INS_10PeerStringEvEENS2_INS_19GrpcTagsBinMetadataEvEENS2_INS_20GrpcTraceBinMetadataEvEENS2_INS_26GrpcServerStatsBinMetadataEvEENS2_INS_30EndpointLoadMetricsBinMetadataEvEENS2_INS_12HostMetadataEvEENS2_INS_19GrpcMessageMetadataEvEENS2_INS_17UserAgentMetadataEvEENS2_INS_21HttpAuthorityMetadataEvEENS2_INS_16HttpPathMetadataEvEENS2_INS_27GrpcRetryPushbackMsMetadataEvEENS2_INS_19GrpcTimeoutMetadataEvEENS2_INS_25GrpcLbClientStatsMetadataEvEENS2_INS_20GrpcRegisteredMethodEvEENS2_INS_27GrpcInternalEncodingRequestEvEENS2_INS_20GrpcEncodingMetadataEvEENS2_INS_18HttpStatusMetadataEvEENS2_INS_31GrpcPreviousRpcAttemptsMetadataEvEENS2_INS_18GrpcStatusMetadataEvEENS2_INS_12WaitForReadyEvEENS2_INS_26GrpcAcceptEncodingMetadataEvEENS2_INS_20GrpcCallWasCancelledEvEENS2_INS_18GrpcStatusFromWireEvEENS2_INS_10TeMetadataEvEENS2_INS_19ContentTypeMetadataEvEENS2_INS_18HttpSchemeMetadataEvEENS2_INS_16GrpcTrailersOnlyEvEENS2_INS_18HttpMethodMetadataEvEENS2_INS_10GrpcTarPitEvEENS2_INS_22GrpcStreamNetworkStateEvEEEE11ForEachImplINS1_10LogWrapperEJLm0ELm1ELm2ELm3ELm4ELm5ELm6ELm7ELm8ELm9ELm10ELm11ELm12ELm13ELm14ELm15ELm16ELm17ELm18ELm19ELm20ELm21ELm22ELm23ELm24ELm25ELm26ELm27ELm28ELm29ELm30ELm31ELm32ELm33EEEEvT_N4absl12lts_2023080216integer_sequenceImJXspT0_EEEE = comdat any

$_ZNK9grpc_core15metadata_detail5ValueINS_17LbCostBinMetadataEvE5LogToEN4absl12lts_2023080211FunctionRefIFvSt17basic_string_viewIcSt11char_traitsIcEESA_EEE = comdat any

$_ZN9grpc_core15metadata_detail22AdaptDisplayValueToLogINS_5SliceEE8ToStringB5cxx11ES2_ = comdat any

$_ZNK9grpc_core15metadata_detail5ValueINS_18XEnvoyPeerMetadataEvE5LogToEN4absl12lts_2023080211FunctionRefIFvSt17basic_string_viewIcSt11char_traitsIcEESA_EEE = comdat any

$_ZNK9grpc_core15metadata_detail5ValueINS_15LbTokenMetadataEvE5LogToEN4absl12lts_2023080211FunctionRefIFvSt17basic_string_viewIcSt11char_traitsIcEESA_EEE = comdat any

$_ZNK9grpc_core15metadata_detail5ValueINS_10PeerStringEvE5LogToEN4absl12lts_2023080211FunctionRefIFvSt17basic_string_viewIcSt11char_traitsIcEESA_EEE = comdat any

$_ZNK9grpc_core15metadata_detail5ValueINS_19GrpcTagsBinMetadataEvE5LogToEN4absl12lts_2023080211FunctionRefIFvSt17basic_string_viewIcSt11char_traitsIcEESA_EEE = comdat any

$_ZNK9grpc_core15metadata_detail5ValueINS_20GrpcTraceBinMetadataEvE5LogToEN4absl12lts_2023080211FunctionRefIFvSt17basic_string_viewIcSt11char_traitsIcEESA_EEE = comdat any

$_ZNK9grpc_core15metadata_detail5ValueINS_26GrpcServerStatsBinMetadataEvE5LogToEN4absl12lts_2023080211FunctionRefIFvSt17basic_string_viewIcSt11char_traitsIcEESA_EEE = comdat any

$_ZNK9grpc_core15metadata_detail5ValueINS_30EndpointLoadMetricsBinMetadataEvE5LogToEN4absl12lts_2023080211FunctionRefIFvSt17basic_string_viewIcSt11char_traitsIcEESA_EEE = comdat any

$_ZNK9grpc_core15metadata_detail5ValueINS_12HostMetadataEvE5LogToEN4absl12lts_2023080211FunctionRefIFvSt17basic_string_viewIcSt11char_traitsIcEESA_EEE = comdat any

$_ZNK9grpc_core15metadata_detail5ValueINS_19GrpcMessageMetadataEvE5LogToEN4absl12lts_2023080211FunctionRefIFvSt17basic_string_viewIcSt11char_traitsIcEESA_EEE = comdat any

$_ZNK9grpc_core15metadata_detail5ValueINS_17UserAgentMetadataEvE5LogToEN4absl12lts_2023080211FunctionRefIFvSt17basic_string_viewIcSt11char_traitsIcEESA_EEE = comdat any

$_ZNK9grpc_core15metadata_detail5ValueINS_21HttpAuthorityMetadataEvE5LogToEN4absl12lts_2023080211FunctionRefIFvSt17basic_string_viewIcSt11char_traitsIcEESA_EEE = comdat any

$_ZNK9grpc_core15metadata_detail5ValueINS_16HttpPathMetadataEvE5LogToEN4absl12lts_2023080211FunctionRefIFvSt17basic_string_viewIcSt11char_traitsIcEESA_EEE = comdat any

$_ZNSt7__cxx119to_stringEl = comdat any

$_ZNK9grpc_core15metadata_detail5ValueINS_19GrpcTimeoutMetadataEvE5LogToEN4absl12lts_2023080211FunctionRefIFvSt17basic_string_viewIcSt11char_traitsIcEESA_EEE = comdat any

$_ZN9grpc_core15metadata_detail22AdaptDisplayValueToLogIPKcE8ToStringB5cxx11ES3_ = comdat any

$_ZNSt7__cxx1112basic_stringIcSt11char_traitsIcESaIcEE12_M_constructIPKcEEvT_S8_St20forward_iterator_tag = comdat any

$_ZZNSt7__cxx1112basic_stringIcSt11char_traitsIcESaIcEE12_M_constructIPKcEEvT_S8_St20forward_iterator_tagEN6_GuardD2Ev = comdat any

$_ZNK9grpc_core15metadata_detail5ValueINS_20GrpcRegisteredMethodEvE5LogToEN4absl12lts_2023080211FunctionRefIFvSt17basic_string_viewIcSt11char_traitsIcEESA_EEE = comdat any

$_ZNSt7__cxx119to_stringEj = comdat any

$_ZNSt7__cxx119to_stringEi = comdat any

$_ZNK9grpc_core15metadata_detail5ValueINS_12WaitForReadyEvE5LogToEN4absl12lts_2023080211FunctionRefIFvSt17basic_string_viewIcSt11char_traitsIcEESA_EEE = comdat any

$_ZNK9grpc_core15metadata_detail5ValueINS_26GrpcAcceptEncodingMetadataEvE5LogToEN4absl12lts_2023080211FunctionRefIFvSt17basic_string_viewIcSt11char_traitsIcEESA_EEE = comdat any

$_ZNK9grpc_core15metadata_detail5ValueINS_20GrpcCallWasCancelledEvE5LogToEN4absl12lts_2023080211FunctionRefIFvSt17basic_string_viewIcSt11char_traitsIcEESA_EEE = comdat any

$_ZNK9grpc_core15metadata_detail5ValueINS_18GrpcStatusFromWireEvE5LogToEN4absl12lts_2023080211FunctionRefIFvSt17basic_string_viewIcSt11char_traitsIcEESA_EEE = comdat any

$_ZNK9grpc_core15metadata_detail5ValueINS_16GrpcTrailersOnlyEvE5LogToEN4absl12lts_2023080211FunctionRefIFvSt17basic_string_viewIcSt11char_traitsIcEESA_EEE = comdat any

$_ZNK9grpc_core15metadata_detail5ValueINS_10GrpcTarPitEvE5LogToEN4absl12lts_2023080211FunctionRefIFvSt17basic_string_viewIcSt11char_traitsIcEESA_EEE = comdat any

$_ZNK9grpc_core15metadata_detail5ValueINS_22GrpcStreamNetworkStateEvE5LogToEN4absl12lts_2023080211FunctionRefIFvSt17basic_string_viewIcSt11char_traitsIcEESA_EEE = comdat any

$_ZN4absl12lts_2023080219functional_internal12InvokeObjectIZNK9grpc_core11MetadataMapI19grpc_metadata_batchJNS3_16HttpPathMetadataENS3_21HttpAuthorityMetadataENS3_18HttpMethodMetadataENS3_18HttpStatusMetadataENS3_18HttpSchemeMetadataENS3_19ContentTypeMetadataENS3_10TeMetadataENS3_20GrpcEncodingMetadataENS3_27GrpcInternalEncodingRequestENS3_26GrpcAcceptEncodingMetadataENS3_18GrpcStatusMetadataENS3_19GrpcTimeoutMetadataENS3_31GrpcPreviousRpcAttemptsMetadataENS3_27GrpcRetryPushbackMsMetadataENS3_17UserAgentMetadataENS3_19GrpcMessageMetadataENS3_12HostMetadataENS3_30EndpointLoadMetricsBinMetadataENS3_26GrpcServerStatsBinMetadataENS3_20GrpcTraceBinMetadataENS3_19GrpcTagsBinMetadataENS3_25GrpcLbClientStatsMetadataENS3_17LbCostBinMetadataENS3_15LbTokenMetadataENS3_18XEnvoyPeerMetadataENS3_22GrpcStreamNetworkStateENS3_10PeerStringENS3_17GrpcStatusContextENS3_18GrpcStatusFromWireENS3_20GrpcCallWasCancelledENS3_12WaitForReadyENS3_16GrpcTrailersOnlyENS3_10GrpcTarPitENS3_20GrpcRegisteredMethodEEE11DebugStringB5cxx11EvEUlSt17basic_string_viewIcSt11char_traitsIcEES18_E_vJS18_S18_EEET0_NS1_7VoidPtrEDpNS1_8ForwardTIT1_E4typeE = comdat any

$_ZN9grpc_core13RefCountedPtrINS_11pipe_detail6CenterISt10unique_ptrI19grpc_metadata_batchNS_5Arena13PooledDeleterEEEEED2Ev = comdat any

$_ZN9grpc_core11pipe_detail4PushISt10unique_ptrI19grpc_metadata_batchNS_5Arena13PooledDeleterEEEclEv = comdat any

$_ZN9grpc_core11pipe_detail6CenterISt10unique_ptrI19grpc_metadata_batchNS_5Arena13PooledDeleterEEE4PushEPS6_ = comdat any

$_ZNSt18bad_variant_accessD2Ev = comdat any

$_ZNSt18bad_variant_accessD0Ev = comdat any

$_ZNKSt18bad_variant_access4whatEv = comdat any

$_ZN9grpc_core12BatchBuilder22ReceiveInitialMetadataENS0_6TargetE = comdat any

$_ZN9grpc_core12BatchBuilder5Batch24GetInitializedCompletionINS0_29PendingReceiveInitialMetadataEEEPT_MS1_S5_ = comdat any

$_ZN9grpc_core5Arena9NewPooledINS_12BatchBuilder29PendingReceiveInitialMetadataEJNS_13RefCountedPtrINS2_5BatchEEEEEEPT_DpOT0_ = comdat any

$_ZNK9grpc_core12BatchBuilder29PendingReceiveInitialMetadata4nameEv = comdat any

$_ZN9grpc_core12BatchBuilder17PendingCompletionD2Ev = comdat any

$_ZN9grpc_core12BatchBuilder19SendInitialMetadataENS0_6TargetESt10unique_ptrI19grpc_metadata_batchNS_5Arena13PooledDeleterEE = comdat any

$_ZN9grpc_core12BatchBuilder23ReceiveTrailingMetadataENS0_6TargetE = comdat any

$_ZN9grpc_core12BatchBuilder5Batch24GetInitializedCompletionINS0_30PendingReceiveTrailingMetadataEEEPT_MS1_S5_ = comdat any

$_ZN9grpc_core5Arena9NewPooledINS_12BatchBuilder30PendingReceiveTrailingMetadataEJNS_13RefCountedPtrINS2_5BatchEEEEEEPT_DpOT0_ = comdat any

$_ZNK9grpc_core12BatchBuilder30PendingReceiveTrailingMetadata4nameEv = comdat any

$_ZN9grpc_core10PipeSenderISt10unique_ptrINS_7MessageENS_5Arena13PooledDeleterEEED2Ev = comdat any

$_ZN9grpc_core11pipe_detail6CenterISt10unique_ptrINS_7MessageENS_5Arena13PooledDeleterEEE10MarkClosedEv = comdat any

$_ZN9grpc_core20arena_promise_detail4NullISt10unique_ptrI19grpc_metadata_batchNS_5Arena13PooledDeleterEEE8PollOnceEPNS0_7ArgTypeE = comdat any

$_ZN9grpc_core20arena_promise_detail4NullISt10unique_ptrI19grpc_metadata_batchNS_5Arena13PooledDeleterEEE7DestroyEPNS0_7ArgTypeE = comdat any

$_ZN9grpc_core4PollISt10unique_ptrI19grpc_metadata_batchNS_5Arena13PooledDeleterEEED2Ev = comdat any

$_ZNSt7variantIJN9grpc_core8ContinueEN4absl12lts_202308026StatusEEED2Ev = comdat any

$_ZN9grpc_core4PollISt7variantIJNS_8ContinueEN4absl12lts_202308026StatusEEEED2Ev = comdat any

$_ZN9grpc_core12BatchBuilder14ReceiveMessageENS0_6TargetE = comdat any

$_ZN9grpc_core12BatchBuilder5Batch24GetInitializedCompletionINS0_21PendingReceiveMessageEEEPT_MS1_S5_ = comdat any

$_ZN9grpc_core5Arena9NewPooledINS_12BatchBuilder21PendingReceiveMessageEJNS_13RefCountedPtrINS2_5BatchEEEEEEPT_DpOT0_ = comdat any

$_ZNK9grpc_core12BatchBuilder21PendingReceiveMessage4nameEv = comdat any

$_ZN9grpc_core11pipe_detail4PushISt10unique_ptrINS_7MessageENS_5Arena13PooledDeleterEEED2Ev = comdat any

$_ZN9grpc_core4PollIN4absl12lts_202308028StatusOrISt8optionalISt10unique_ptrINS_7MessageENS_5Arena13PooledDeleterEEEEEED2Ev = comdat any

$_ZN9grpc_core14promise_detail3MapIZNS_5LatchIN4absl12lts_202308026StatusEE4WaitEvEUlvE_ZNS_12BatchBuilder14ReceiveMessageENS8_6TargetEEUlS5_E_EclEv = comdat any

$_ZN4absl12lts_202308028StatusOrISt8optionalISt10unique_ptrIN9grpc_core7MessageENS4_5Arena13PooledDeleterEEEED2Ev = comdat any

$_ZN9grpc_core5Arena10MakePooledINS_7MessageEJNS_11SliceBufferERjEEESt10unique_ptrIT_NS_12arena_detail7IfArrayIS6_NS0_13PooledDeleterENS0_18ArrayPooledDeleterEE6ResultEEDpOT0_ = comdat any

$_ZNK4absl12lts_202308026Status8ToStringB5cxx11ENS0_18StatusToStringModeE = comdat any

$_ZN9grpc_core10PipeSenderISt10unique_ptrINS_7MessageENS_5Arena13PooledDeleterEEE14CloseWithErrorEv = comdat any

$_ZN9grpc_core10PipeSenderISt10unique_ptrINS_7MessageENS_5Arena13PooledDeleterEEE5CloseEv = comdat any

$_ZN9grpc_core11pipe_detail4PushISt10unique_ptrINS_7MessageENS_5Arena13PooledDeleterEEEclEv = comdat any

$_ZN9grpc_core11pipe_detail6CenterISt10unique_ptrINS_7MessageENS_5Arena13PooledDeleterEEE4PushEPS6_ = comdat any

$_ZZN9grpc_core12PipeReceiverISt10unique_ptrINS_7MessageENS_5Arena13PooledDeleterEEE10AwaitEmptyEvENUlvE_D2Ev = comdat any

$_ZN9grpc_core10PipeSenderISt10unique_ptrI19grpc_metadata_batchNS_5Arena13PooledDeleterEEED2Ev = comdat any

$_ZN9grpc_core11pipe_detail6CenterISt10unique_ptrI19grpc_metadata_batchNS_5Arena13PooledDeleterEEE10MarkClosedEv = comdat any

$_ZN9grpc_core12PipeReceiverISt10unique_ptrI19grpc_metadata_batchNS_5Arena13PooledDeleterEEED2Ev = comdat any

$_ZN9grpc_core11pipe_detail6CenterISt10unique_ptrI19grpc_metadata_batchNS_5Arena13PooledDeleterEEE13MarkCancelledEv = comdat any

$_ZN9grpc_core14promise_detail8SeqStateINS0_9SeqTraitsENS_11pipe_detail4NextISt10unique_ptrI19grpc_metadata_batchNS_5Arena13PooledDeleterEEEEJZNS_12PipeReceiverIS9_E4NextEvEUlSt8optionalIS9_EE_EED2Ev = comdat any

$_ZN9grpc_core15InterceptorListISt10unique_ptrI19grpc_metadata_batchNS_5Arena13PooledDeleterEEE10RunPromiseD2Ev = comdat any

$_ZNSt8optionalISt10unique_ptrI19grpc_metadata_batchN9grpc_core5Arena13PooledDeleterEEED2Ev = comdat any

$_ZN9grpc_core10NextResultISt10unique_ptrI19grpc_metadata_batchNS_5Arena13PooledDeleterEEED2Ev = comdat any

$_ZN9grpc_core11pipe_detail6CenterISt10unique_ptrI19grpc_metadata_batchNS_5Arena13PooledDeleterEEE7AckNextEv = comdat any

$_ZN9grpc_core14promise_detail8SeqStateINS0_9SeqTraitsENS_11pipe_detail4NextISt10unique_ptrI19grpc_metadata_batchNS_5Arena13PooledDeleterEEEEJZNS_12PipeReceiverIS9_E4NextEvEUlSt8optionalIS9_EE_EE8PollOnceEv = comdat any

$_ZN9grpc_core4PollISt8optionalISt10unique_ptrI19grpc_metadata_batchNS_5Arena13PooledDeleterEEEED2Ev = comdat any

$_ZN9grpc_core14promise_detail18PromiseFactoryImplISt8optionalISt10unique_ptrI19grpc_metadata_batchNS_5Arena13PooledDeleterEEEZNS_12PipeReceiverIS7_E4NextEvEUlS8_E_EENSt9enable_ifIXsr14IsVoidCallableINS0_9ResultOfTIFT0_T_EvE1TEEE5valueENS0_11PromiseLikeIDTclclsr3stdE7declvalISE_EEclsr3stdE7declvalISF_EEEEvEEE4typeEOSE_OSF_ = comdat any

$_ZZN9grpc_core12PipeReceiverISt10unique_ptrI19grpc_metadata_batchNS_5Arena13PooledDeleterEEE4NextEvENKUlSt8optionalIS5_EE_clES8_ = comdat any

$_ZZZN9grpc_core12PipeReceiverISt10unique_ptrI19grpc_metadata_batchNS_5Arena13PooledDeleterEEE4NextEvENKUlSt8optionalIS5_EE_clES8_ENUlvE_D2Ev = comdat any

$_ZN9grpc_core14promise_detail2IfIbZZNS_12PipeReceiverISt10unique_ptrI19grpc_metadata_batchNS_5Arena13PooledDeleterEEE4NextEvENKUlSt8optionalIS7_EE_clESA_EUlvE_ZZNS8_4NextEvENKSB_clESA_EUlvE0_EC2EbSC_SD_ = comdat any

$_ZN9grpc_core14promise_detail18PromiseFactoryImplIZZNS_12PipeReceiverISt10unique_ptrI19grpc_metadata_batchNS_5Arena13PooledDeleterEEE4NextEvENKUlSt8optionalIS7_EE_clESA_EUlvE_EENSt9enable_ifIXsr14IsVoidCallableINS0_9ResultOfTIFT_vEvE1TEEE5valueENS0_11PromiseLikeIDTclclsr3stdE7declvalISF_EEEEvEEE4typeEOSF_ = comdat any

$_ZZZN9grpc_core12PipeReceiverISt10unique_ptrI19grpc_metadata_batchNS_5Arena13PooledDeleterEEE4NextEvENKUlSt8optionalIS5_EE_clES8_ENUlvE_clEv = comdat any

$_ZN9grpc_core15InterceptorListISt10unique_ptrI19grpc_metadata_batchNS_5Arena13PooledDeleterEEE10RunPromiseC2EmPNS6_3MapESt8optionalIS5_E = comdat any

$_ZN9grpc_core14promise_detail3MapINS_15InterceptorListISt10unique_ptrI19grpc_metadata_batchNS_5Arena13PooledDeleterEEE10RunPromiseEZZZNS_12PipeReceiverIS7_E4NextEvENKUlSt8optionalIS7_EE_clESD_ENUlvE_clEvEUlSD_E_EclEv = comdat any

$_ZZZZN9grpc_core12PipeReceiverISt10unique_ptrI19grpc_metadata_batchNS_5Arena13PooledDeleterEEE4NextEvENKUlSt8optionalIS5_EE_clES8_ENUlvE_clEvENUlS8_E_clES8_ = comdat any

$_ZN9grpc_core15InterceptorListISt10unique_ptrI19grpc_metadata_batchNS_5Arena13PooledDeleterEEE10RunPromiseclEv = comdat any

$_ZN9grpc_core14promise_detail3MapIZNS_5LatchIN4absl12lts_202308026StatusEE11WaitAndCopyEvEUlvE_ZNS_12BatchBuilder26SendServerTrailingMetadataENS8_6TargetESt10unique_ptrI19grpc_metadata_batchNS_5Arena13PooledDeleterEEbEUlS5_E_ED2Ev = comdat any

$_ZN9grpc_core12BatchBuilder26SendServerTrailingMetadataENS0_6TargetESt10unique_ptrI19grpc_metadata_batchNS_5Arena13PooledDeleterEEb = comdat any

$_ZN9grpc_core14promise_detail3MapIZNS_5LatchIN4absl12lts_202308026StatusEE11WaitAndCopyEvEUlvE_ZNS_12BatchBuilder26SendServerTrailingMetadataENS8_6TargetESt10unique_ptrI19grpc_metadata_batchNS_5Arena13PooledDeleterEEbEUlS5_E_EclEv = comdat any

$_ZZN9grpc_core12BatchBuilder26SendServerTrailingMetadataENS0_6TargetESt10unique_ptrI19grpc_metadata_batchNS_5Arena13PooledDeleterEEbENKUlN4absl12lts_202308026StatusEE_clES9_ = comdat any

$_ZN4absl12lts_2023080222internal_any_invocable12LocalInvokerILb0EbRKPFbRKN9grpc_core11ChannelArgsEEJS6_EEET0_PNS1_15TypeErasedStateEDpNS1_18ForwardedParameterIT2_E4typeE = comdat any

$_ZN9grpc_core14promise_detail7ContextINS_5ArenaEE8current_E = comdat any

$_ZTSN9grpc_core10OrphanableE = comdat any

$_ZTIN9grpc_core10OrphanableE = comdat any

$_ZN9grpc_core14promise_detail7ContextINS_11CallContextEE8current_E = comdat any

$_ZTSN9grpc_core5Party11ParticipantE = comdat any

$_ZTIN9grpc_core5Party11ParticipantE = comdat any

$_ZTVN9grpc_core12BatchBuilder12PendingSendsE = comdat any

$_ZTSN9grpc_core12BatchBuilder12PendingSendsE = comdat any

$_ZTSN9grpc_core12BatchBuilder17PendingCompletionE = comdat any

$_ZTIN9grpc_core12BatchBuilder17PendingCompletionE = comdat any

$_ZTIN9grpc_core12BatchBuilder12PendingSendsE = comdat any

$_ZZNSt8__detail18__to_chars_10_implImEEvPcjT_E8__digits = comdat any

$_ZZNSt8__detail18__to_chars_10_implIjEEvPcjT_E8__digits = comdat any

$_ZTSSt18bad_variant_access = comdat any

$_ZTISt18bad_variant_access = comdat any

$_ZTVSt18bad_variant_access = comdat any

$_ZN9grpc_core14promise_detail7ContextINS_12BatchBuilderEE8current_E = comdat any

$_ZTVN9grpc_core12BatchBuilder29PendingReceiveInitialMetadataE = comdat any

$_ZTSN9grpc_core12BatchBuilder29PendingReceiveInitialMetadataE = comdat any

$_ZTSN9grpc_core12BatchBuilder22PendingReceiveMetadataE = comdat any

$_ZTIN9grpc_core12BatchBuilder22PendingReceiveMetadataE = comdat any

$_ZTIN9grpc_core12BatchBuilder29PendingReceiveInitialMetadataE = comdat any

$_ZTVN9grpc_core12BatchBuilder22PendingReceiveMetadataE = comdat any

$_ZTVN9grpc_core12BatchBuilder17PendingCompletionE = comdat any

$_ZTVN9grpc_core12BatchBuilder30PendingReceiveTrailingMetadataE = comdat any

$_ZTSN9grpc_core12BatchBuilder30PendingReceiveTrailingMetadataE = comdat any

$_ZTIN9grpc_core12BatchBuilder30PendingReceiveTrailingMetadataE = comdat any

$_ZN9grpc_core20arena_promise_detail4NullISt10unique_ptrI19grpc_metadata_batchNS_5Arena13PooledDeleterEEE6vtableE = comdat any

$_ZTVN9grpc_core12BatchBuilder21PendingReceiveMessageE = comdat any

$_ZTSN9grpc_core12BatchBuilder21PendingReceiveMessageE = comdat any

$_ZTIN9grpc_core12BatchBuilder21PendingReceiveMessageE = comdat any

$_ZN9grpc_core14promise_detail7ContextINS_16CallFinalizationEE8current_E = comdat any

$_ZTSN9grpc_core16CallFinalization9FinalizerE = comdat any

$_ZTIN9grpc_core16CallFinalization9FinalizerE = comdat any

@_ZStL8__ioinit = internal global %"class.std::ios_base::Init" zeroinitializer, align 1
@__dso_handle = external hidden global i8
@_ZN9grpc_core12_GLOBAL__N_128kPromiseBasedTransportFilterE = internal global %struct.grpc_channel_filter zeroinitializer, align 8
@_ZN9grpc_core12_GLOBAL__N_121kClientEmulatedFilterE = internal global %struct.grpc_channel_filter zeroinitializer, align 8
@_ZN9grpc_core12_GLOBAL__N_121kServerEmulatedFilterE = internal global %struct.grpc_channel_filter zeroinitializer, align 8
@.str = private unnamed_addr constant [129 x i8] c"generated/home/dtcxzyw/WorkSpace/Projects/compilers/llvm-opt-benchmark/bench/grpc/grpc/src/core/lib/channel/connected_channel.cc\00", align 1
@_ZN9grpc_core19NoDestructSingletonINS_14promise_detail10UnwakeableEE6value_E = linkonce_odr global %"class.grpc_core::NoDestruct" zeroinitializer, comdat, align 8
@_ZGVN9grpc_core19NoDestructSingletonINS_14promise_detail10UnwakeableEE6value_E = linkonce_odr local_unnamed_addr global i64 0, comdat($_ZN9grpc_core19NoDestructSingletonINS_14promise_detail10UnwakeableEE6value_E), align 8
@.str.5 = private unnamed_addr constant [24 x i8] c"grpc.internal.transport\00", align 1
@_ZTVN9grpc_core14promise_detail10UnwakeableE = external unnamed_addr constant { [6 x ptr] }, align 8
@_ZTVN10__cxxabiv117__class_type_infoE = external global [0 x ptr]
@.str.6 = private unnamed_addr constant [10 x i8] c"connected\00", align 1
@.str.7 = private unnamed_addr constant [14 x i8] c"unimplemented\00", align 1
@_ZN9grpc_core8Activity19g_current_activity_E = external thread_local global ptr, align 8
@.str.8 = private unnamed_addr constant [28 x i8] c"recv_initial_metadata_ready\00", align 1
@.str.9 = private unnamed_addr constant [19 x i8] c"recv_message_ready\00", align 1
@.str.10 = private unnamed_addr constant [29 x i8] c"recv_trailing_metadata_ready\00", align 1
@.str.11 = private unnamed_addr constant [28 x i8] c"on_complete (cancel_stream)\00", align 1
@.str.12 = private unnamed_addr constant [12 x i8] c"on_complete\00", align 1
@.str.13 = private unnamed_addr constant [26 x i8] c"passed batch to transport\00", align 1
@.str.14 = private unnamed_addr constant [15 x i8] c"return nullptr\00", align 1
@.str.15 = private unnamed_addr constant [14 x i8] c"args->is_last\00", align 1
@.str.16 = private unnamed_addr constant [19 x i8] c"set_polling_entity\00", align 1
@.str.17 = private unnamed_addr constant [14 x i8] c"send_messages\00", align 1
@.str.18 = private unnamed_addr constant [22 x i8] c"recv_initial_metadata\00", align 1
@.str.19 = private unnamed_addr constant [118 x i8] c"generated/home/dtcxzyw/WorkSpace/Projects/compilers/llvm-opt-benchmark/bench/grpc/grpc/src/core/lib/promise/context.h\00", align 1
@.str.20 = private unnamed_addr constant [13 x i8] c"p != nullptr\00", align 1
@_ZN9grpc_core14promise_detail7ContextINS_5ArenaEE8current_E = linkonce_odr thread_local global ptr null, comdat, align 8
@_ZTVN9grpc_core12_GLOBAL__N_122ConnectedChannelStreamE = internal unnamed_addr constant { [5 x ptr] } { [5 x ptr] [ptr null, ptr @_ZTIN9grpc_core12_GLOBAL__N_122ConnectedChannelStreamE, ptr @_ZN9grpc_core12_GLOBAL__N_122ConnectedChannelStream6OrphanEv, ptr @_ZN9grpc_core12_GLOBAL__N_122ConnectedChannelStreamD2Ev, ptr @_ZN9grpc_core12_GLOBAL__N_122ConnectedChannelStreamD0Ev] }, align 8
@_ZTVN10__cxxabiv120__si_class_type_infoE = external global [0 x ptr]
@_ZTSN9grpc_core12_GLOBAL__N_122ConnectedChannelStreamE = internal constant [51 x i8] c"N9grpc_core12_GLOBAL__N_122ConnectedChannelStreamE\00", align 1
@_ZTSN9grpc_core10OrphanableE = linkonce_odr constant [25 x i8] c"N9grpc_core10OrphanableE\00", comdat, align 1
@_ZTIN9grpc_core10OrphanableE = linkonce_odr constant { ptr, ptr } { ptr getelementptr inbounds (ptr, ptr @_ZTVN10__cxxabiv117__class_type_infoE, i64 2), ptr @_ZTSN9grpc_core10OrphanableE }, comdat, align 8
@_ZTIN9grpc_core12_GLOBAL__N_122ConnectedChannelStreamE = internal constant { ptr, ptr, ptr } { ptr getelementptr inbounds (ptr, ptr @_ZTVN10__cxxabiv120__si_class_type_infoE, i64 2), ptr @_ZTSN9grpc_core12_GLOBAL__N_122ConnectedChannelStreamE, ptr @_ZTIN9grpc_core10OrphanableE }, align 8
@_ZN9grpc_core14promise_detail7ContextINS_11CallContextEE8current_E = linkonce_odr thread_local global ptr null, comdat, align 8
@.str.22 = private unnamed_addr constant [13 x i8] c"call_context\00", align 1
@grpc_call_trace = external local_unnamed_addr global %"class.grpc_core::TraceFlag", align 8
@.str.23 = private unnamed_addr constant [42 x i8] c"%s[connected] Orphan stream, finished: %d\00", align 1
@.str.24 = private unnamed_addr constant [7 x i8] c"finish\00", align 1
@_ZTVN9grpc_core5Party15ParticipantImplIZNS_12_GLOBAL__N_122ConnectedChannelStream6OrphanEvEUlvE_ZNS3_6OrphanEvEUlNS_5EmptyEE_EE = internal unnamed_addr constant { [4 x ptr] } { [4 x ptr] [ptr null, ptr @_ZTIN9grpc_core5Party15ParticipantImplIZNS_12_GLOBAL__N_122ConnectedChannelStream6OrphanEvEUlvE_ZNS3_6OrphanEvEUlNS_5EmptyEE_EE, ptr @_ZN9grpc_core5Party15ParticipantImplIZNS_12_GLOBAL__N_122ConnectedChannelStream6OrphanEvEUlvE_ZNS3_6OrphanEvEUlNS_5EmptyEE_E22PollParticipantPromiseEv, ptr @_ZN9grpc_core5Party15ParticipantImplIZNS_12_GLOBAL__N_122ConnectedChannelStream6OrphanEvEUlvE_ZNS3_6OrphanEvEUlNS_5EmptyEE_E7DestroyEv] }, align 8
@_ZTSN9grpc_core5Party15ParticipantImplIZNS_12_GLOBAL__N_122ConnectedChannelStream6OrphanEvEUlvE_ZNS3_6OrphanEvEUlNS_5EmptyEE_EE = internal constant [124 x i8] c"N9grpc_core5Party15ParticipantImplIZNS_12_GLOBAL__N_122ConnectedChannelStream6OrphanEvEUlvE_ZNS3_6OrphanEvEUlNS_5EmptyEE_EE\00", align 1
@_ZTSN9grpc_core5Party11ParticipantE = linkonce_odr constant [32 x i8] c"N9grpc_core5Party11ParticipantE\00", comdat, align 1
@_ZTIN9grpc_core5Party11ParticipantE = linkonce_odr constant { ptr, ptr } { ptr getelementptr inbounds (ptr, ptr @_ZTVN10__cxxabiv117__class_type_infoE, i64 2), ptr @_ZTSN9grpc_core5Party11ParticipantE }, comdat, align 8
@_ZTIN9grpc_core5Party15ParticipantImplIZNS_12_GLOBAL__N_122ConnectedChannelStream6OrphanEvEUlvE_ZNS3_6OrphanEvEUlNS_5EmptyEE_EE = internal constant { ptr, ptr, ptr } { ptr getelementptr inbounds (ptr, ptr @_ZTVN10__cxxabiv120__si_class_type_infoE, i64 2), ptr @_ZTSN9grpc_core5Party15ParticipantImplIZNS_12_GLOBAL__N_122ConnectedChannelStream6OrphanEvEUlvE_ZNS3_6OrphanEvEUlNS_5EmptyEE_EE, ptr @_ZTIN9grpc_core5Party11ParticipantE }, align 8
@"_ZTVN9grpc_core5Party15ParticipantImplIZNS_5LatchI19grpc_polling_entityE4WaitEvEUlvE_ZNS_12_GLOBAL__N_121MakeClientCallPromiseEPNS_9TransportENS_8CallArgsESt8functionIFNS_12ArenaPromiseISt10unique_ptrI19grpc_metadata_batchNS_5Arena13PooledDeleterEEEES9_EEE3$_2EE" = internal unnamed_addr constant { [4 x ptr] } { [4 x ptr] [ptr null, ptr @"_ZTIN9grpc_core5Party15ParticipantImplIZNS_5LatchI19grpc_polling_entityE4WaitEvEUlvE_ZNS_12_GLOBAL__N_121MakeClientCallPromiseEPNS_9TransportENS_8CallArgsESt8functionIFNS_12ArenaPromiseISt10unique_ptrI19grpc_metadata_batchNS_5Arena13PooledDeleterEEEES9_EEE3$_2EE", ptr @"_ZN9grpc_core5Party15ParticipantImplIZNS_5LatchI19grpc_polling_entityE4WaitEvEUlvE_ZNS_12_GLOBAL__N_121MakeClientCallPromiseEPNS_9TransportENS_8CallArgsESt8functionIFNS_12ArenaPromiseISt10unique_ptrI19grpc_metadata_batchNS_5Arena13PooledDeleterEEEES9_EEE3$_2E22PollParticipantPromiseEv", ptr @"_ZN9grpc_core5Party15ParticipantImplIZNS_5LatchI19grpc_polling_entityE4WaitEvEUlvE_ZNS_12_GLOBAL__N_121MakeClientCallPromiseEPNS_9TransportENS_8CallArgsESt8functionIFNS_12ArenaPromiseISt10unique_ptrI19grpc_metadata_batchNS_5Arena13PooledDeleterEEEES9_EEE3$_2E7DestroyEv"] }, align 8
@"_ZTSN9grpc_core5Party15ParticipantImplIZNS_5LatchI19grpc_polling_entityE4WaitEvEUlvE_ZNS_12_GLOBAL__N_121MakeClientCallPromiseEPNS_9TransportENS_8CallArgsESt8functionIFNS_12ArenaPromiseISt10unique_ptrI19grpc_metadata_batchNS_5Arena13PooledDeleterEEEES9_EEE3$_2EE" = internal constant [259 x i8] c"N9grpc_core5Party15ParticipantImplIZNS_5LatchI19grpc_polling_entityE4WaitEvEUlvE_ZNS_12_GLOBAL__N_121MakeClientCallPromiseEPNS_9TransportENS_8CallArgsESt8functionIFNS_12ArenaPromiseISt10unique_ptrI19grpc_metadata_batchNS_5Arena13PooledDeleterEEEES9_EEE3$_2EE\00", align 1
@"_ZTIN9grpc_core5Party15ParticipantImplIZNS_5LatchI19grpc_polling_entityE4WaitEvEUlvE_ZNS_12_GLOBAL__N_121MakeClientCallPromiseEPNS_9TransportENS_8CallArgsESt8functionIFNS_12ArenaPromiseISt10unique_ptrI19grpc_metadata_batchNS_5Arena13PooledDeleterEEEES9_EEE3$_2EE" = internal constant { ptr, ptr, ptr } { ptr getelementptr inbounds (ptr, ptr @_ZTVN10__cxxabiv120__si_class_type_infoE, i64 2), ptr @"_ZTSN9grpc_core5Party15ParticipantImplIZNS_5LatchI19grpc_polling_entityE4WaitEvEUlvE_ZNS_12_GLOBAL__N_121MakeClientCallPromiseEPNS_9TransportENS_8CallArgsESt8functionIFNS_12ArenaPromiseISt10unique_ptrI19grpc_metadata_batchNS_5Arena13PooledDeleterEEEES9_EEE3$_2EE", ptr @_ZTIN9grpc_core5Party11ParticipantE }, align 8
@"_ZTVN9grpc_core5Party15ParticipantImplINS_14promise_detail6TrySeqINS_15for_each_detail7ForEachINS_12PipeReceiverISt10unique_ptrINS_7MessageENS_5Arena13PooledDeleterEEEEZNS_12_GLOBAL__N_122ConnectedChannelStream12SendMessagesEPSC_E3$_0EEJZNSD_21MakeClientCallPromiseEPNS_9TransportENS_8CallArgsESt8functionIFNS_12ArenaPromiseIS7_I19grpc_metadata_batchSA_EEESK_EEE3$_3EEEZNSD_21MakeClientCallPromiseESJ_SK_SR_E3$_4EE" = internal unnamed_addr constant { [4 x ptr] } { [4 x ptr] [ptr null, ptr @"_ZTIN9grpc_core5Party15ParticipantImplINS_14promise_detail6TrySeqINS_15for_each_detail7ForEachINS_12PipeReceiverISt10unique_ptrINS_7MessageENS_5Arena13PooledDeleterEEEEZNS_12_GLOBAL__N_122ConnectedChannelStream12SendMessagesEPSC_E3$_0EEJZNSD_21MakeClientCallPromiseEPNS_9TransportENS_8CallArgsESt8functionIFNS_12ArenaPromiseIS7_I19grpc_metadata_batchSA_EEESK_EEE3$_3EEEZNSD_21MakeClientCallPromiseESJ_SK_SR_E3$_4EE", ptr @"_ZN9grpc_core5Party15ParticipantImplINS_14promise_detail6TrySeqINS_15for_each_detail7ForEachINS_12PipeReceiverISt10unique_ptrINS_7MessageENS_5Arena13PooledDeleterEEEEZNS_12_GLOBAL__N_122ConnectedChannelStream12SendMessagesEPSC_E3$_0EEJZNSD_21MakeClientCallPromiseEPNS_9TransportENS_8CallArgsESt8functionIFNS_12ArenaPromiseIS7_I19grpc_metadata_batchSA_EEESK_EEE3$_3EEEZNSD_21MakeClientCallPromiseESJ_SK_SR_E3$_4E22PollParticipantPromiseEv", ptr @"_ZN9grpc_core5Party15ParticipantImplINS_14promise_detail6TrySeqINS_15for_each_detail7ForEachINS_12PipeReceiverISt10unique_ptrINS_7MessageENS_5Arena13PooledDeleterEEEEZNS_12_GLOBAL__N_122ConnectedChannelStream12SendMessagesEPSC_E3$_0EEJZNSD_21MakeClientCallPromiseEPNS_9TransportENS_8CallArgsESt8functionIFNS_12ArenaPromiseIS7_I19grpc_metadata_batchSA_EEESK_EEE3$_3EEEZNSD_21MakeClientCallPromiseESJ_SK_SR_E3$_4E7DestroyEv"] }, align 8
@"_ZTSN9grpc_core5Party15ParticipantImplINS_14promise_detail6TrySeqINS_15for_each_detail7ForEachINS_12PipeReceiverISt10unique_ptrINS_7MessageENS_5Arena13PooledDeleterEEEEZNS_12_GLOBAL__N_122ConnectedChannelStream12SendMessagesEPSC_E3$_0EEJZNSD_21MakeClientCallPromiseEPNS_9TransportENS_8CallArgsESt8functionIFNS_12ArenaPromiseIS7_I19grpc_metadata_batchSA_EEESK_EEE3$_3EEEZNSD_21MakeClientCallPromiseESJ_SK_SR_E3$_4EE" = internal constant [411 x i8] c"N9grpc_core5Party15ParticipantImplINS_14promise_detail6TrySeqINS_15for_each_detail7ForEachINS_12PipeReceiverISt10unique_ptrINS_7MessageENS_5Arena13PooledDeleterEEEEZNS_12_GLOBAL__N_122ConnectedChannelStream12SendMessagesEPSC_E3$_0EEJZNSD_21MakeClientCallPromiseEPNS_9TransportENS_8CallArgsESt8functionIFNS_12ArenaPromiseIS7_I19grpc_metadata_batchSA_EEESK_EEE3$_3EEEZNSD_21MakeClientCallPromiseESJ_SK_SR_E3$_4EE\00", align 1
@"_ZTIN9grpc_core5Party15ParticipantImplINS_14promise_detail6TrySeqINS_15for_each_detail7ForEachINS_12PipeReceiverISt10unique_ptrINS_7MessageENS_5Arena13PooledDeleterEEEEZNS_12_GLOBAL__N_122ConnectedChannelStream12SendMessagesEPSC_E3$_0EEJZNSD_21MakeClientCallPromiseEPNS_9TransportENS_8CallArgsESt8functionIFNS_12ArenaPromiseIS7_I19grpc_metadata_batchSA_EEESK_EEE3$_3EEEZNSD_21MakeClientCallPromiseESJ_SK_SR_E3$_4EE" = internal constant { ptr, ptr, ptr } { ptr getelementptr inbounds (ptr, ptr @_ZTVN10__cxxabiv120__si_class_type_infoE, i64 2), ptr @"_ZTSN9grpc_core5Party15ParticipantImplINS_14promise_detail6TrySeqINS_15for_each_detail7ForEachINS_12PipeReceiverISt10unique_ptrINS_7MessageENS_5Arena13PooledDeleterEEEEZNS_12_GLOBAL__N_122ConnectedChannelStream12SendMessagesEPSC_E3$_0EEJZNSD_21MakeClientCallPromiseEPNS_9TransportENS_8CallArgsESt8functionIFNS_12ArenaPromiseIS7_I19grpc_metadata_batchSA_EEESK_EEE3$_3EEEZNSD_21MakeClientCallPromiseESJ_SK_SR_E3$_4EE", ptr @_ZTIN9grpc_core5Party11ParticipantE }, align 8
@.str.27 = private unnamed_addr constant [21 x i8] c"return absl::nullopt\00", align 1
@.str.28 = private unnamed_addr constant [115 x i8] c"generated/home/dtcxzyw/WorkSpace/Projects/compilers/llvm-opt-benchmark/bench/grpc/grpc/src/core/lib/promise/pipe.h\00", align 1
@.str.29 = private unnamed_addr constant [19 x i8] c"center_ != nullptr\00", align 1
@.str.30 = private unnamed_addr constant [126 x i8] c"generated/home/dtcxzyw/WorkSpace/Projects/compilers/llvm-opt-benchmark/bench/grpc/grpc/src/core/lib/transport/batch_builder.h\00", align 1
@.str.31 = private unnamed_addr constant [25 x i8] c"%sQueue send message: %s\00", align 1
@.str.32 = private unnamed_addr constant [26 x i8] c"%s[connected] [batch %p] \00", align 1
@.str.33 = private unnamed_addr constant [32 x i8] c"%sAdd batch closure for %s @ %s\00", align 1
@_ZTVN9grpc_core12BatchBuilder12PendingSendsE = linkonce_odr unnamed_addr constant { [3 x ptr] } { [3 x ptr] [ptr null, ptr @_ZTIN9grpc_core12BatchBuilder12PendingSendsE, ptr @_ZNK9grpc_core12BatchBuilder12PendingSends4nameEv] }, comdat, align 8
@_ZTSN9grpc_core12BatchBuilder12PendingSendsE = linkonce_odr constant [41 x i8] c"N9grpc_core12BatchBuilder12PendingSendsE\00", comdat, align 1
@_ZTSN9grpc_core12BatchBuilder17PendingCompletionE = linkonce_odr constant [46 x i8] c"N9grpc_core12BatchBuilder17PendingCompletionE\00", comdat, align 1
@_ZTIN9grpc_core12BatchBuilder17PendingCompletionE = linkonce_odr constant { ptr, ptr } { ptr getelementptr inbounds (ptr, ptr @_ZTVN10__cxxabiv117__class_type_infoE, i64 2), ptr @_ZTSN9grpc_core12BatchBuilder17PendingCompletionE }, comdat, align 8
@_ZTIN9grpc_core12BatchBuilder12PendingSendsE = linkonce_odr constant { ptr, ptr, ptr } { ptr getelementptr inbounds (ptr, ptr @_ZTVN10__cxxabiv120__si_class_type_infoE, i64 2), ptr @_ZTSN9grpc_core12BatchBuilder12PendingSendsE, ptr @_ZTIN9grpc_core12BatchBuilder17PendingCompletionE }, comdat, align 8
@.str.34 = private unnamed_addr constant [6 x i8] c"sends\00", align 1
@.str.35 = private unnamed_addr constant [31 x i8] c"%sQueue send trailing metadata\00", align 1
@"_ZTVN9grpc_core5Party15ParticipantImplINS_14promise_detail6TrySeqIZNS_12BatchBuilder5Batch8RefUntilINS2_3MapIZNS_5LatchIN4absl12lts_202308026StatusEE4WaitEvEUlvE_ZNS4_22ReceiveInitialMetadataENS4_6TargetEEUlSB_E_EEEEDaT_EUlvE_JZNS_12_GLOBAL__N_121MakeClientCallPromiseEPNS_9TransportENS_8CallArgsESt8functionIFNS_12ArenaPromiseISt10unique_ptrI19grpc_metadata_batchNS_5Arena13PooledDeleterEEEESM_EEE3$_0EEEZNSJ_21MakeClientCallPromiseESL_SM_SW_E3$_5EE" = internal unnamed_addr constant { [4 x ptr] } { [4 x ptr] [ptr null, ptr @"_ZTIN9grpc_core5Party15ParticipantImplINS_14promise_detail6TrySeqIZNS_12BatchBuilder5Batch8RefUntilINS2_3MapIZNS_5LatchIN4absl12lts_202308026StatusEE4WaitEvEUlvE_ZNS4_22ReceiveInitialMetadataENS4_6TargetEEUlSB_E_EEEEDaT_EUlvE_JZNS_12_GLOBAL__N_121MakeClientCallPromiseEPNS_9TransportENS_8CallArgsESt8functionIFNS_12ArenaPromiseISt10unique_ptrI19grpc_metadata_batchNS_5Arena13PooledDeleterEEEESM_EEE3$_0EEEZNSJ_21MakeClientCallPromiseESL_SM_SW_E3$_5EE", ptr @"_ZN9grpc_core5Party15ParticipantImplINS_14promise_detail6TrySeqIZNS_12BatchBuilder5Batch8RefUntilINS2_3MapIZNS_5LatchIN4absl12lts_202308026StatusEE4WaitEvEUlvE_ZNS4_22ReceiveInitialMetadataENS4_6TargetEEUlSB_E_EEEEDaT_EUlvE_JZNS_12_GLOBAL__N_121MakeClientCallPromiseEPNS_9TransportENS_8CallArgsESt8functionIFNS_12ArenaPromiseISt10unique_ptrI19grpc_metadata_batchNS_5Arena13PooledDeleterEEEESM_EEE3$_0EEEZNSJ_21MakeClientCallPromiseESL_SM_SW_E3$_5E22PollParticipantPromiseEv", ptr @"_ZN9grpc_core5Party15ParticipantImplINS_14promise_detail6TrySeqIZNS_12BatchBuilder5Batch8RefUntilINS2_3MapIZNS_5LatchIN4absl12lts_202308026StatusEE4WaitEvEUlvE_ZNS4_22ReceiveInitialMetadataENS4_6TargetEEUlSB_E_EEEEDaT_EUlvE_JZNS_12_GLOBAL__N_121MakeClientCallPromiseEPNS_9TransportENS_8CallArgsESt8functionIFNS_12ArenaPromiseISt10unique_ptrI19grpc_metadata_batchNS_5Arena13PooledDeleterEEEESM_EEE3$_0EEEZNSJ_21MakeClientCallPromiseESL_SM_SW_E3$_5E7DestroyEv"] }, align 8
@"_ZTSN9grpc_core5Party15ParticipantImplINS_14promise_detail6TrySeqIZNS_12BatchBuilder5Batch8RefUntilINS2_3MapIZNS_5LatchIN4absl12lts_202308026StatusEE4WaitEvEUlvE_ZNS4_22ReceiveInitialMetadataENS4_6TargetEEUlSB_E_EEEEDaT_EUlvE_JZNS_12_GLOBAL__N_121MakeClientCallPromiseEPNS_9TransportENS_8CallArgsESt8functionIFNS_12ArenaPromiseISt10unique_ptrI19grpc_metadata_batchNS_5Arena13PooledDeleterEEEESM_EEE3$_0EEEZNSJ_21MakeClientCallPromiseESL_SM_SW_E3$_5EE" = internal constant [447 x i8] c"N9grpc_core5Party15ParticipantImplINS_14promise_detail6TrySeqIZNS_12BatchBuilder5Batch8RefUntilINS2_3MapIZNS_5LatchIN4absl12lts_202308026StatusEE4WaitEvEUlvE_ZNS4_22ReceiveInitialMetadataENS4_6TargetEEUlSB_E_EEEEDaT_EUlvE_JZNS_12_GLOBAL__N_121MakeClientCallPromiseEPNS_9TransportENS_8CallArgsESt8functionIFNS_12ArenaPromiseISt10unique_ptrI19grpc_metadata_batchNS_5Arena13PooledDeleterEEEESM_EEE3$_0EEEZNSJ_21MakeClientCallPromiseESL_SM_SW_E3$_5EE\00", align 1
@"_ZTIN9grpc_core5Party15ParticipantImplINS_14promise_detail6TrySeqIZNS_12BatchBuilder5Batch8RefUntilINS2_3MapIZNS_5LatchIN4absl12lts_202308026StatusEE4WaitEvEUlvE_ZNS4_22ReceiveInitialMetadataENS4_6TargetEEUlSB_E_EEEEDaT_EUlvE_JZNS_12_GLOBAL__N_121MakeClientCallPromiseEPNS_9TransportENS_8CallArgsESt8functionIFNS_12ArenaPromiseISt10unique_ptrI19grpc_metadata_batchNS_5Arena13PooledDeleterEEEESM_EEE3$_0EEEZNSJ_21MakeClientCallPromiseESL_SM_SW_E3$_5EE" = internal constant { ptr, ptr, ptr } { ptr getelementptr inbounds (ptr, ptr @_ZTVN10__cxxabiv120__si_class_type_infoE, i64 2), ptr @"_ZTSN9grpc_core5Party15ParticipantImplINS_14promise_detail6TrySeqIZNS_12BatchBuilder5Batch8RefUntilINS2_3MapIZNS_5LatchIN4absl12lts_202308026StatusEE4WaitEvEUlvE_ZNS4_22ReceiveInitialMetadataENS4_6TargetEEUlSB_E_EEEEDaT_EUlvE_JZNS_12_GLOBAL__N_121MakeClientCallPromiseEPNS_9TransportENS_8CallArgsESt8functionIFNS_12ArenaPromiseISt10unique_ptrI19grpc_metadata_batchNS_5Arena13PooledDeleterEEEESM_EEE3$_0EEEZNSJ_21MakeClientCallPromiseESL_SM_SW_E3$_5EE", ptr @_ZTIN9grpc_core5Party11ParticipantE }, align 8
@.str.36 = private unnamed_addr constant [50 x i8] c"%s[connected] Publish client initial metadata: %s\00", align 1
@.str.37 = private unnamed_addr constant [12 x i8] c"lb-cost-bin\00", align 1
@.str.38 = private unnamed_addr constant [18 x i8] c"GrpcStatusContext\00", align 1
@.str.39 = private unnamed_addr constant [22 x i8] c"x-envoy-peer-metadata\00", align 1
@.str.40 = private unnamed_addr constant [9 x i8] c"lb-token\00", align 1
@.str.41 = private unnamed_addr constant [11 x i8] c"PeerString\00", align 1
@.str.42 = private unnamed_addr constant [14 x i8] c"grpc-tags-bin\00", align 1
@.str.43 = private unnamed_addr constant [15 x i8] c"grpc-trace-bin\00", align 1
@.str.44 = private unnamed_addr constant [22 x i8] c"grpc-server-stats-bin\00", align 1
@.str.45 = private unnamed_addr constant [26 x i8] c"endpoint-load-metrics-bin\00", align 1
@.str.46 = private unnamed_addr constant [5 x i8] c"host\00", align 1
@.str.47 = private unnamed_addr constant [13 x i8] c"grpc-message\00", align 1
@.str.48 = private unnamed_addr constant [11 x i8] c"user-agent\00", align 1
@.str.49 = private unnamed_addr constant [11 x i8] c":authority\00", align 1
@.str.50 = private unnamed_addr constant [6 x i8] c":path\00", align 1
@_ZZNSt8__detail18__to_chars_10_implImEEvPcjT_E8__digits = linkonce_odr local_unnamed_addr constant [201 x i8] c"00010203040506070809101112131415161718192021222324252627282930313233343536373839404142434445464748495051525354555657585960616263646566676869707172737475767778798081828384858687888990919293949596979899\00", comdat, align 16
@.str.51 = private unnamed_addr constant [23 x i8] c"grpc-retry-pushback-ms\00", align 1
@.str.52 = private unnamed_addr constant [13 x i8] c"grpc-timeout\00", align 1
@.str.53 = private unnamed_addr constant [50 x i8] c"basic_string: construction from null is not valid\00", align 1
@.str.54 = private unnamed_addr constant [20 x i8] c"grpclb_client_stats\00", align 1
@.str.55 = private unnamed_addr constant [20 x i8] c"<internal-lb-stats>\00", align 1
@.str.56 = private unnamed_addr constant [21 x i8] c"GrpcRegisteredMethod\00", align 1
@.str.57 = private unnamed_addr constant [31 x i8] c"grpc-internal-encoding-request\00", align 1
@.str.58 = private unnamed_addr constant [26 x i8] c"<discarded-invalid-value>\00", align 1
@.str.59 = private unnamed_addr constant [14 x i8] c"grpc-encoding\00", align 1
@_ZZNSt8__detail18__to_chars_10_implIjEEvPcjT_E8__digits = linkonce_odr local_unnamed_addr constant [201 x i8] c"00010203040506070809101112131415161718192021222324252627282930313233343536373839404142434445464748495051525354555657585960616263646566676869707172737475767778798081828384858687888990919293949596979899\00", comdat, align 16
@.str.60 = private unnamed_addr constant [8 x i8] c":status\00", align 1
@.str.61 = private unnamed_addr constant [27 x i8] c"grpc-previous-rpc-attempts\00", align 1
@.str.62 = private unnamed_addr constant [12 x i8] c"grpc-status\00", align 1
@.str.63 = private unnamed_addr constant [13 x i8] c"WaitForReady\00", align 1
@.str.64 = private unnamed_addr constant [21 x i8] c"grpc-accept-encoding\00", align 1
@.str.65 = private unnamed_addr constant [21 x i8] c"GrpcCallWasCancelled\00", align 1
@.str.66 = private unnamed_addr constant [5 x i8] c"true\00", align 1
@.str.67 = private unnamed_addr constant [6 x i8] c"false\00", align 1
@.str.68 = private unnamed_addr constant [19 x i8] c"GrpcStatusFromWire\00", align 1
@.str.69 = private unnamed_addr constant [3 x i8] c"te\00", align 1
@.str.70 = private unnamed_addr constant [13 x i8] c"content-type\00", align 1
@.str.71 = private unnamed_addr constant [8 x i8] c":scheme\00", align 1
@.str.72 = private unnamed_addr constant [17 x i8] c"GrpcTrailersOnly\00", align 1
@.str.73 = private unnamed_addr constant [8 x i8] c":method\00", align 1
@.str.74 = private unnamed_addr constant [11 x i8] c"GrpcTarPit\00", align 1
@.str.75 = private unnamed_addr constant [7 x i8] c"tarpit\00", align 1
@.str.76 = private unnamed_addr constant [23 x i8] c"GrpcStreamNetworkState\00", align 1
@.str.77 = private unnamed_addr constant [13 x i8] c"return false\00", align 1
@.str.78 = private unnamed_addr constant [31 x i8] c"std::get: variant is valueless\00", align 1
@.str.79 = private unnamed_addr constant [34 x i8] c"std::get: wrong index for variant\00", align 1
@_ZTSSt18bad_variant_access = linkonce_odr constant [23 x i8] c"St18bad_variant_access\00", comdat, align 1
@_ZTISt9exception = external constant ptr
@_ZTISt18bad_variant_access = linkonce_odr constant { ptr, ptr, ptr } { ptr getelementptr inbounds (ptr, ptr @_ZTVN10__cxxabiv120__si_class_type_infoE, i64 2), ptr @_ZTSSt18bad_variant_access, ptr @_ZTISt9exception }, comdat, align 8
@_ZTVSt18bad_variant_access = linkonce_odr unnamed_addr constant { [5 x ptr] } { [5 x ptr] [ptr null, ptr @_ZTISt18bad_variant_access, ptr @_ZNSt18bad_variant_accessD2Ev, ptr @_ZNSt18bad_variant_accessD0Ev, ptr @_ZNKSt18bad_variant_access4whatEv] }, comdat, align 8
@_ZN9grpc_core14promise_detail7ContextINS_12BatchBuilderEE8current_E = linkonce_odr thread_local global ptr null, comdat, align 8
@.str.80 = private unnamed_addr constant [33 x i8] c"%sQueue receive initial metadata\00", align 1
@_ZTVN9grpc_core12BatchBuilder29PendingReceiveInitialMetadataE = linkonce_odr unnamed_addr constant { [3 x ptr] } { [3 x ptr] [ptr null, ptr @_ZTIN9grpc_core12BatchBuilder29PendingReceiveInitialMetadataE, ptr @_ZNK9grpc_core12BatchBuilder29PendingReceiveInitialMetadata4nameEv] }, comdat, align 8
@_ZTSN9grpc_core12BatchBuilder29PendingReceiveInitialMetadataE = linkonce_odr constant [58 x i8] c"N9grpc_core12BatchBuilder29PendingReceiveInitialMetadataE\00", comdat, align 1
@_ZTSN9grpc_core12BatchBuilder22PendingReceiveMetadataE = linkonce_odr constant [51 x i8] c"N9grpc_core12BatchBuilder22PendingReceiveMetadataE\00", comdat, align 1
@_ZTIN9grpc_core12BatchBuilder22PendingReceiveMetadataE = linkonce_odr constant { ptr, ptr, ptr } { ptr getelementptr inbounds (ptr, ptr @_ZTVN10__cxxabiv120__si_class_type_infoE, i64 2), ptr @_ZTSN9grpc_core12BatchBuilder22PendingReceiveMetadataE, ptr @_ZTIN9grpc_core12BatchBuilder17PendingCompletionE }, comdat, align 8
@_ZTIN9grpc_core12BatchBuilder29PendingReceiveInitialMetadataE = linkonce_odr constant { ptr, ptr, ptr } { ptr getelementptr inbounds (ptr, ptr @_ZTVN10__cxxabiv120__si_class_type_infoE, i64 2), ptr @_ZTSN9grpc_core12BatchBuilder29PendingReceiveInitialMetadataE, ptr @_ZTIN9grpc_core12BatchBuilder22PendingReceiveMetadataE }, comdat, align 8
@_ZTVN9grpc_core12BatchBuilder22PendingReceiveMetadataE = linkonce_odr unnamed_addr constant { [3 x ptr] } { [3 x ptr] [ptr null, ptr @_ZTIN9grpc_core12BatchBuilder22PendingReceiveMetadataE, ptr @__cxa_pure_virtual] }, comdat, align 8
@_ZTVN9grpc_core12BatchBuilder17PendingCompletionE = linkonce_odr unnamed_addr constant { [3 x ptr] } { [3 x ptr] [ptr null, ptr @_ZTIN9grpc_core12BatchBuilder17PendingCompletionE, ptr @__cxa_pure_virtual] }, comdat, align 8
@.str.81 = private unnamed_addr constant [25 x i8] c"receive_initial_metadata\00", align 1
@.str.82 = private unnamed_addr constant [34 x i8] c"%sQueue send initial metadata: %s\00", align 1
@.str.83 = private unnamed_addr constant [34 x i8] c"%sQueue receive trailing metadata\00", align 1
@_ZTVN9grpc_core12BatchBuilder30PendingReceiveTrailingMetadataE = linkonce_odr unnamed_addr constant { [3 x ptr] } { [3 x ptr] [ptr null, ptr @_ZTIN9grpc_core12BatchBuilder30PendingReceiveTrailingMetadataE, ptr @_ZNK9grpc_core12BatchBuilder30PendingReceiveTrailingMetadata4nameEv] }, comdat, align 8
@_ZTSN9grpc_core12BatchBuilder30PendingReceiveTrailingMetadataE = linkonce_odr constant [59 x i8] c"N9grpc_core12BatchBuilder30PendingReceiveTrailingMetadataE\00", comdat, align 1
@_ZTIN9grpc_core12BatchBuilder30PendingReceiveTrailingMetadataE = linkonce_odr constant { ptr, ptr, ptr } { ptr getelementptr inbounds (ptr, ptr @_ZTVN10__cxxabiv120__si_class_type_infoE, i64 2), ptr @_ZTSN9grpc_core12BatchBuilder30PendingReceiveTrailingMetadataE, ptr @_ZTIN9grpc_core12BatchBuilder22PendingReceiveMetadataE }, comdat, align 8
@.str.84 = private unnamed_addr constant [26 x i8] c"receive_trailing_metadata\00", align 1
@_ZN9grpc_core20arena_promise_detail4NullISt10unique_ptrI19grpc_metadata_batchNS_5Arena13PooledDeleterEEE6vtableE = linkonce_odr constant %"struct.grpc_core::arena_promise_detail::Vtable" { ptr @_ZN9grpc_core20arena_promise_detail4NullISt10unique_ptrI19grpc_metadata_batchNS_5Arena13PooledDeleterEEE8PollOnceEPNS0_7ArgTypeE, ptr @_ZN9grpc_core20arena_promise_detail4NullISt10unique_ptrI19grpc_metadata_batchNS_5Arena13PooledDeleterEEE7DestroyEPNS0_7ArgTypeE }, comdat, align 8
@"_ZN9grpc_core20arena_promise_detail17AllocatedCallableISt10unique_ptrI19grpc_metadata_batchNS_5Arena13PooledDeleterEENS_14promise_detail3MapIZNS_12_GLOBAL__N_121MakeClientCallPromiseEPNS_9TransportENS_8CallArgsESt8functionIFNS_12ArenaPromiseIS6_EESC_EEE3$_7ZNS9_21MakeClientCallPromiseESB_SC_SH_E3$_8EEE6vtableE" = internal constant %"struct.grpc_core::arena_promise_detail::Vtable" { ptr @"_ZN9grpc_core20arena_promise_detail17AllocatedCallableISt10unique_ptrI19grpc_metadata_batchNS_5Arena13PooledDeleterEENS_14promise_detail3MapIZNS_12_GLOBAL__N_121MakeClientCallPromiseEPNS_9TransportENS_8CallArgsESt8functionIFNS_12ArenaPromiseIS6_EESC_EEE3$_7ZNS9_21MakeClientCallPromiseESB_SC_SH_E3$_8EEE8PollOnceEPNS0_7ArgTypeE", ptr @"_ZN9grpc_core20arena_promise_detail17AllocatedCallableISt10unique_ptrI19grpc_metadata_batchNS_5Arena13PooledDeleterEENS_14promise_detail3MapIZNS_12_GLOBAL__N_121MakeClientCallPromiseEPNS_9TransportENS_8CallArgsESt8functionIFNS_12ArenaPromiseIS6_EESC_EEE3$_7ZNS9_21MakeClientCallPromiseESB_SC_SH_E3$_8EEE7DestroyEPNS0_7ArgTypeE" }, align 8
@.str.85 = private unnamed_addr constant [24 x i8] c"%sQueue receive message\00", align 1
@_ZTVN9grpc_core12BatchBuilder21PendingReceiveMessageE = linkonce_odr unnamed_addr constant { [3 x ptr] } { [3 x ptr] [ptr null, ptr @_ZTIN9grpc_core12BatchBuilder21PendingReceiveMessageE, ptr @_ZNK9grpc_core12BatchBuilder21PendingReceiveMessage4nameEv] }, comdat, align 8
@_ZTSN9grpc_core12BatchBuilder21PendingReceiveMessageE = linkonce_odr constant [50 x i8] c"N9grpc_core12BatchBuilder21PendingReceiveMessageE\00", comdat, align 1
@_ZTIN9grpc_core12BatchBuilder21PendingReceiveMessageE = linkonce_odr constant { ptr, ptr, ptr } { ptr getelementptr inbounds (ptr, ptr @_ZTVN10__cxxabiv120__si_class_type_infoE, i64 2), ptr @_ZTSN9grpc_core12BatchBuilder21PendingReceiveMessageE, ptr @_ZTIN9grpc_core12BatchBuilder17PendingCompletionE }, comdat, align 8
@.str.86 = private unnamed_addr constant [16 x i8] c"receive_message\00", align 1
@.str.87 = private unnamed_addr constant [57 x i8] c"%s[connected] RecvMessage: received payload of %ld bytes\00", align 1
@.str.88 = private unnamed_addr constant [64 x i8] c"%s[connected] RecvMessage: reached end of stream with status:%s\00", align 1
@.str.89 = private unnamed_addr constant [3 x i8] c"OK\00", align 1
@.str.90 = private unnamed_addr constant [74 x i8] c"%s[connected] RecvMessage: failed to push message towards the application\00", align 1
@.str.91 = private unnamed_addr constant [14 x i8] c"recv_messages\00", align 1
@.str.92 = private unnamed_addr constant [36 x i8] c"send_initial_metadata_then_messages\00", align 1
@.str.93 = private unnamed_addr constant [23 x i8] c"recv_trailing_metadata\00", align 1
@_ZN9grpc_core14promise_detail7ContextINS_16CallFinalizationEE8current_E = linkonce_odr thread_local global ptr null, comdat, align 8
@"_ZTVN9grpc_core16CallFinalization13FuncFinalizerIZNS_12_GLOBAL__N_121MakeServerCallPromiseEPNS_9TransportENS_8CallArgsESt8functionIFNS_12ArenaPromiseISt10unique_ptrI19grpc_metadata_batchNS_5Arena13PooledDeleterEEEES5_EEE3$_4EE" = internal unnamed_addr constant { [3 x ptr] } { [3 x ptr] [ptr null, ptr @"_ZTIN9grpc_core16CallFinalization13FuncFinalizerIZNS_12_GLOBAL__N_121MakeServerCallPromiseEPNS_9TransportENS_8CallArgsESt8functionIFNS_12ArenaPromiseISt10unique_ptrI19grpc_metadata_batchNS_5Arena13PooledDeleterEEEES5_EEE3$_4EE", ptr @"_ZN9grpc_core16CallFinalization13FuncFinalizerIZNS_12_GLOBAL__N_121MakeServerCallPromiseEPNS_9TransportENS_8CallArgsESt8functionIFNS_12ArenaPromiseISt10unique_ptrI19grpc_metadata_batchNS_5Arena13PooledDeleterEEEES5_EEE3$_4E3RunEPK20grpc_call_final_info"] }, align 8
@"_ZTSN9grpc_core16CallFinalization13FuncFinalizerIZNS_12_GLOBAL__N_121MakeServerCallPromiseEPNS_9TransportENS_8CallArgsESt8functionIFNS_12ArenaPromiseISt10unique_ptrI19grpc_metadata_batchNS_5Arena13PooledDeleterEEEES5_EEE3$_4EE" = internal constant [223 x i8] c"N9grpc_core16CallFinalization13FuncFinalizerIZNS_12_GLOBAL__N_121MakeServerCallPromiseEPNS_9TransportENS_8CallArgsESt8functionIFNS_12ArenaPromiseISt10unique_ptrI19grpc_metadata_batchNS_5Arena13PooledDeleterEEEES5_EEE3$_4EE\00", align 1
@_ZTSN9grpc_core16CallFinalization9FinalizerE = linkonce_odr constant [41 x i8] c"N9grpc_core16CallFinalization9FinalizerE\00", comdat, align 1
@_ZTIN9grpc_core16CallFinalization9FinalizerE = linkonce_odr constant { ptr, ptr } { ptr getelementptr inbounds (ptr, ptr @_ZTVN10__cxxabiv117__class_type_infoE, i64 2), ptr @_ZTSN9grpc_core16CallFinalization9FinalizerE }, comdat, align 8
@"_ZTIN9grpc_core16CallFinalization13FuncFinalizerIZNS_12_GLOBAL__N_121MakeServerCallPromiseEPNS_9TransportENS_8CallArgsESt8functionIFNS_12ArenaPromiseISt10unique_ptrI19grpc_metadata_batchNS_5Arena13PooledDeleterEEEES5_EEE3$_4EE" = internal constant { ptr, ptr, ptr } { ptr getelementptr inbounds (ptr, ptr @_ZTVN10__cxxabiv120__si_class_type_infoE, i64 2), ptr @"_ZTSN9grpc_core16CallFinalization13FuncFinalizerIZNS_12_GLOBAL__N_121MakeServerCallPromiseEPNS_9TransportENS_8CallArgsESt8functionIFNS_12ArenaPromiseISt10unique_ptrI19grpc_metadata_batchNS_5Arena13PooledDeleterEEEES5_EEE3$_4EE", ptr @_ZTIN9grpc_core16CallFinalization9FinalizerE }, align 8
@"_ZTVN9grpc_core5Party15ParticipantImplIZNS_5LatchI19grpc_polling_entityE4WaitEvEUlvE_ZNS_12_GLOBAL__N_121MakeServerCallPromiseEPNS_9TransportENS_8CallArgsESt8functionIFNS_12ArenaPromiseISt10unique_ptrI19grpc_metadata_batchNS_5Arena13PooledDeleterEEEES9_EEE3$_5EE" = internal unnamed_addr constant { [4 x ptr] } { [4 x ptr] [ptr null, ptr @"_ZTIN9grpc_core5Party15ParticipantImplIZNS_5LatchI19grpc_polling_entityE4WaitEvEUlvE_ZNS_12_GLOBAL__N_121MakeServerCallPromiseEPNS_9TransportENS_8CallArgsESt8functionIFNS_12ArenaPromiseISt10unique_ptrI19grpc_metadata_batchNS_5Arena13PooledDeleterEEEES9_EEE3$_5EE", ptr @"_ZN9grpc_core5Party15ParticipantImplIZNS_5LatchI19grpc_polling_entityE4WaitEvEUlvE_ZNS_12_GLOBAL__N_121MakeServerCallPromiseEPNS_9TransportENS_8CallArgsESt8functionIFNS_12ArenaPromiseISt10unique_ptrI19grpc_metadata_batchNS_5Arena13PooledDeleterEEEES9_EEE3$_5E22PollParticipantPromiseEv", ptr @"_ZN9grpc_core5Party15ParticipantImplIZNS_5LatchI19grpc_polling_entityE4WaitEvEUlvE_ZNS_12_GLOBAL__N_121MakeServerCallPromiseEPNS_9TransportENS_8CallArgsESt8functionIFNS_12ArenaPromiseISt10unique_ptrI19grpc_metadata_batchNS_5Arena13PooledDeleterEEEES9_EEE3$_5E7DestroyEv"] }, align 8
@"_ZTSN9grpc_core5Party15ParticipantImplIZNS_5LatchI19grpc_polling_entityE4WaitEvEUlvE_ZNS_12_GLOBAL__N_121MakeServerCallPromiseEPNS_9TransportENS_8CallArgsESt8functionIFNS_12ArenaPromiseISt10unique_ptrI19grpc_metadata_batchNS_5Arena13PooledDeleterEEEES9_EEE3$_5EE" = internal constant [259 x i8] c"N9grpc_core5Party15ParticipantImplIZNS_5LatchI19grpc_polling_entityE4WaitEvEUlvE_ZNS_12_GLOBAL__N_121MakeServerCallPromiseEPNS_9TransportENS_8CallArgsESt8functionIFNS_12ArenaPromiseISt10unique_ptrI19grpc_metadata_batchNS_5Arena13PooledDeleterEEEES9_EEE3$_5EE\00", align 1
@"_ZTIN9grpc_core5Party15ParticipantImplIZNS_5LatchI19grpc_polling_entityE4WaitEvEUlvE_ZNS_12_GLOBAL__N_121MakeServerCallPromiseEPNS_9TransportENS_8CallArgsESt8functionIFNS_12ArenaPromiseISt10unique_ptrI19grpc_metadata_batchNS_5Arena13PooledDeleterEEEES9_EEE3$_5EE" = internal constant { ptr, ptr, ptr } { ptr getelementptr inbounds (ptr, ptr @_ZTVN10__cxxabiv120__si_class_type_infoE, i64 2), ptr @"_ZTSN9grpc_core5Party15ParticipantImplIZNS_5LatchI19grpc_polling_entityE4WaitEvEUlvE_ZNS_12_GLOBAL__N_121MakeServerCallPromiseEPNS_9TransportENS_8CallArgsESt8functionIFNS_12ArenaPromiseISt10unique_ptrI19grpc_metadata_batchNS_5Arena13PooledDeleterEEEES9_EEE3$_5EE", ptr @_ZTIN9grpc_core5Party11ParticipantE }, align 8
@"_ZTVN9grpc_core5Party15ParticipantImplINS_14promise_detail4RaceIJNS2_3MapIZNS_25ExternallyObservableLatchIvE4WaitEvEUlvE_ZNS_12_GLOBAL__N_121MakeServerCallPromiseEPNS_9TransportENS_8CallArgsESt8functionIFNS_12ArenaPromiseISt10unique_ptrI19grpc_metadata_batchNS_5Arena13PooledDeleterEEEESB_EEE3$_6EENS4_INS2_4LoopIZNS8_22ConnectedChannelStream12RecvMessagesEPNS_10PipeSenderISE_INS_7MessageESH_EEEbE3$_0EEZNS8_21MakeServerCallPromiseESA_SB_SL_E3$_7EEEEEZNS8_21MakeServerCallPromiseESA_SB_SL_E3$_8EE" = internal unnamed_addr constant { [4 x ptr] } { [4 x ptr] [ptr null, ptr @"_ZTIN9grpc_core5Party15ParticipantImplINS_14promise_detail4RaceIJNS2_3MapIZNS_25ExternallyObservableLatchIvE4WaitEvEUlvE_ZNS_12_GLOBAL__N_121MakeServerCallPromiseEPNS_9TransportENS_8CallArgsESt8functionIFNS_12ArenaPromiseISt10unique_ptrI19grpc_metadata_batchNS_5Arena13PooledDeleterEEEESB_EEE3$_6EENS4_INS2_4LoopIZNS8_22ConnectedChannelStream12RecvMessagesEPNS_10PipeSenderISE_INS_7MessageESH_EEEbE3$_0EEZNS8_21MakeServerCallPromiseESA_SB_SL_E3$_7EEEEEZNS8_21MakeServerCallPromiseESA_SB_SL_E3$_8EE", ptr @"_ZN9grpc_core5Party15ParticipantImplINS_14promise_detail4RaceIJNS2_3MapIZNS_25ExternallyObservableLatchIvE4WaitEvEUlvE_ZNS_12_GLOBAL__N_121MakeServerCallPromiseEPNS_9TransportENS_8CallArgsESt8functionIFNS_12ArenaPromiseISt10unique_ptrI19grpc_metadata_batchNS_5Arena13PooledDeleterEEEESB_EEE3$_6EENS4_INS2_4LoopIZNS8_22ConnectedChannelStream12RecvMessagesEPNS_10PipeSenderISE_INS_7MessageESH_EEEbE3$_0EEZNS8_21MakeServerCallPromiseESA_SB_SL_E3$_7EEEEEZNS8_21MakeServerCallPromiseESA_SB_SL_E3$_8E22PollParticipantPromiseEv", ptr @"_ZN9grpc_core5Party15ParticipantImplINS_14promise_detail4RaceIJNS2_3MapIZNS_25ExternallyObservableLatchIvE4WaitEvEUlvE_ZNS_12_GLOBAL__N_121MakeServerCallPromiseEPNS_9TransportENS_8CallArgsESt8functionIFNS_12ArenaPromiseISt10unique_ptrI19grpc_metadata_batchNS_5Arena13PooledDeleterEEEESB_EEE3$_6EENS4_INS2_4LoopIZNS8_22ConnectedChannelStream12RecvMessagesEPNS_10PipeSenderISE_INS_7MessageESH_EEEbE3$_0EEZNS8_21MakeServerCallPromiseESA_SB_SL_E3$_7EEEEEZNS8_21MakeServerCallPromiseESA_SB_SL_E3$_8E7DestroyEv"] }, align 8
@"_ZTSN9grpc_core5Party15ParticipantImplINS_14promise_detail4RaceIJNS2_3MapIZNS_25ExternallyObservableLatchIvE4WaitEvEUlvE_ZNS_12_GLOBAL__N_121MakeServerCallPromiseEPNS_9TransportENS_8CallArgsESt8functionIFNS_12ArenaPromiseISt10unique_ptrI19grpc_metadata_batchNS_5Arena13PooledDeleterEEEESB_EEE3$_6EENS4_INS2_4LoopIZNS8_22ConnectedChannelStream12RecvMessagesEPNS_10PipeSenderISE_INS_7MessageESH_EEEbE3$_0EEZNS8_21MakeServerCallPromiseESA_SB_SL_E3$_7EEEEEZNS8_21MakeServerCallPromiseESA_SB_SL_E3$_8EE" = internal constant [494 x i8] c"N9grpc_core5Party15ParticipantImplINS_14promise_detail4RaceIJNS2_3MapIZNS_25ExternallyObservableLatchIvE4WaitEvEUlvE_ZNS_12_GLOBAL__N_121MakeServerCallPromiseEPNS_9TransportENS_8CallArgsESt8functionIFNS_12ArenaPromiseISt10unique_ptrI19grpc_metadata_batchNS_5Arena13PooledDeleterEEEESB_EEE3$_6EENS4_INS2_4LoopIZNS8_22ConnectedChannelStream12RecvMessagesEPNS_10PipeSenderISE_INS_7MessageESH_EEEbE3$_0EEZNS8_21MakeServerCallPromiseESA_SB_SL_E3$_7EEEEEZNS8_21MakeServerCallPromiseESA_SB_SL_E3$_8EE\00", align 1
@"_ZTIN9grpc_core5Party15ParticipantImplINS_14promise_detail4RaceIJNS2_3MapIZNS_25ExternallyObservableLatchIvE4WaitEvEUlvE_ZNS_12_GLOBAL__N_121MakeServerCallPromiseEPNS_9TransportENS_8CallArgsESt8functionIFNS_12ArenaPromiseISt10unique_ptrI19grpc_metadata_batchNS_5Arena13PooledDeleterEEEESB_EEE3$_6EENS4_INS2_4LoopIZNS8_22ConnectedChannelStream12RecvMessagesEPNS_10PipeSenderISE_INS_7MessageESH_EEEbE3$_0EEZNS8_21MakeServerCallPromiseESA_SB_SL_E3$_7EEEEEZNS8_21MakeServerCallPromiseESA_SB_SL_E3$_8EE" = internal constant { ptr, ptr, ptr } { ptr getelementptr inbounds (ptr, ptr @_ZTVN10__cxxabiv120__si_class_type_infoE, i64 2), ptr @"_ZTSN9grpc_core5Party15ParticipantImplINS_14promise_detail4RaceIJNS2_3MapIZNS_25ExternallyObservableLatchIvE4WaitEvEUlvE_ZNS_12_GLOBAL__N_121MakeServerCallPromiseEPNS_9TransportENS_8CallArgsESt8functionIFNS_12ArenaPromiseISt10unique_ptrI19grpc_metadata_batchNS_5Arena13PooledDeleterEEEESB_EEE3$_6EENS4_INS2_4LoopIZNS8_22ConnectedChannelStream12RecvMessagesEPNS_10PipeSenderISE_INS_7MessageESH_EEEbE3$_0EEZNS8_21MakeServerCallPromiseESA_SB_SL_E3$_7EEEEEZNS8_21MakeServerCallPromiseESA_SB_SL_E3$_8EE", ptr @_ZTIN9grpc_core5Party11ParticipantE }, align 8
@"_ZTVN9grpc_core5Party15ParticipantImplINS_14promise_detail4RaceIJNS2_3MapIZNS_25ExternallyObservableLatchIvE4WaitEvEUlvE_ZNS_12_GLOBAL__N_121MakeServerCallPromiseEPNS_9TransportENS_8CallArgsESt8functionIFNS_12ArenaPromiseISt10unique_ptrI19grpc_metadata_batchNS_5Arena13PooledDeleterEEEESB_EEE3$_9EENS2_6TrySeqINS2_3SeqINS3_IJNS4_IS7_ZNS8_21MakeServerCallPromiseESA_SB_SL_E3$_1EENSP_INS_11pipe_detail4NextISI_EEJZNS_12PipeReceiverISI_E4NextEvEUlSt8optionalISI_EE_EEEEEEJZNS8_21MakeServerCallPromiseESA_SB_SL_E3$_2EEEJNS_15for_each_detail7ForEachINSV_ISE_INS_7MessageESH_EEEZNS8_22ConnectedChannelStream12SendMessagesEPS18_E3$_0EEEEEEEEZNS8_21MakeServerCallPromiseESA_SB_SL_E4$_10EE" = internal unnamed_addr constant { [4 x ptr] } { [4 x ptr] [ptr null, ptr @"_ZTIN9grpc_core5Party15ParticipantImplINS_14promise_detail4RaceIJNS2_3MapIZNS_25ExternallyObservableLatchIvE4WaitEvEUlvE_ZNS_12_GLOBAL__N_121MakeServerCallPromiseEPNS_9TransportENS_8CallArgsESt8functionIFNS_12ArenaPromiseISt10unique_ptrI19grpc_metadata_batchNS_5Arena13PooledDeleterEEEESB_EEE3$_9EENS2_6TrySeqINS2_3SeqINS3_IJNS4_IS7_ZNS8_21MakeServerCallPromiseESA_SB_SL_E3$_1EENSP_INS_11pipe_detail4NextISI_EEJZNS_12PipeReceiverISI_E4NextEvEUlSt8optionalISI_EE_EEEEEEJZNS8_21MakeServerCallPromiseESA_SB_SL_E3$_2EEEJNS_15for_each_detail7ForEachINSV_ISE_INS_7MessageESH_EEEZNS8_22ConnectedChannelStream12SendMessagesEPS18_E3$_0EEEEEEEEZNS8_21MakeServerCallPromiseESA_SB_SL_E4$_10EE", ptr @"_ZN9grpc_core5Party15ParticipantImplINS_14promise_detail4RaceIJNS2_3MapIZNS_25ExternallyObservableLatchIvE4WaitEvEUlvE_ZNS_12_GLOBAL__N_121MakeServerCallPromiseEPNS_9TransportENS_8CallArgsESt8functionIFNS_12ArenaPromiseISt10unique_ptrI19grpc_metadata_batchNS_5Arena13PooledDeleterEEEESB_EEE3$_9EENS2_6TrySeqINS2_3SeqINS3_IJNS4_IS7_ZNS8_21MakeServerCallPromiseESA_SB_SL_E3$_1EENSP_INS_11pipe_detail4NextISI_EEJZNS_12PipeReceiverISI_E4NextEvEUlSt8optionalISI_EE_EEEEEEJZNS8_21MakeServerCallPromiseESA_SB_SL_E3$_2EEEJNS_15for_each_detail7ForEachINSV_ISE_INS_7MessageESH_EEEZNS8_22ConnectedChannelStream12SendMessagesEPS18_E3$_0EEEEEEEEZNS8_21MakeServerCallPromiseESA_SB_SL_E4$_10E22PollParticipantPromiseEv", ptr @"_ZN9grpc_core5Party15ParticipantImplINS_14promise_detail4RaceIJNS2_3MapIZNS_25ExternallyObservableLatchIvE4WaitEvEUlvE_ZNS_12_GLOBAL__N_121MakeServerCallPromiseEPNS_9TransportENS_8CallArgsESt8functionIFNS_12ArenaPromiseISt10unique_ptrI19grpc_metadata_batchNS_5Arena13PooledDeleterEEEESB_EEE3$_9EENS2_6TrySeqINS2_3SeqINS3_IJNS4_IS7_ZNS8_21MakeServerCallPromiseESA_SB_SL_E3$_1EENSP_INS_11pipe_detail4NextISI_EEJZNS_12PipeReceiverISI_E4NextEvEUlSt8optionalISI_EE_EEEEEEJZNS8_21MakeServerCallPromiseESA_SB_SL_E3$_2EEEJNS_15for_each_detail7ForEachINSV_ISE_INS_7MessageESH_EEEZNS8_22ConnectedChannelStream12SendMessagesEPS18_E3$_0EEEEEEEEZNS8_21MakeServerCallPromiseESA_SB_SL_E4$_10E7DestroyEv"] }, align 8
@"_ZTSN9grpc_core5Party15ParticipantImplINS_14promise_detail4RaceIJNS2_3MapIZNS_25ExternallyObservableLatchIvE4WaitEvEUlvE_ZNS_12_GLOBAL__N_121MakeServerCallPromiseEPNS_9TransportENS_8CallArgsESt8functionIFNS_12ArenaPromiseISt10unique_ptrI19grpc_metadata_batchNS_5Arena13PooledDeleterEEEESB_EEE3$_9EENS2_6TrySeqINS2_3SeqINS3_IJNS4_IS7_ZNS8_21MakeServerCallPromiseESA_SB_SL_E3$_1EENSP_INS_11pipe_detail4NextISI_EEJZNS_12PipeReceiverISI_E4NextEvEUlSt8optionalISI_EE_EEEEEEJZNS8_21MakeServerCallPromiseESA_SB_SL_E3$_2EEEJNS_15for_each_detail7ForEachINSV_ISE_INS_7MessageESH_EEEZNS8_22ConnectedChannelStream12SendMessagesEPS18_E3$_0EEEEEEEEZNS8_21MakeServerCallPromiseESA_SB_SL_E4$_10EE" = internal constant [677 x i8] c"N9grpc_core5Party15ParticipantImplINS_14promise_detail4RaceIJNS2_3MapIZNS_25ExternallyObservableLatchIvE4WaitEvEUlvE_ZNS_12_GLOBAL__N_121MakeServerCallPromiseEPNS_9TransportENS_8CallArgsESt8functionIFNS_12ArenaPromiseISt10unique_ptrI19grpc_metadata_batchNS_5Arena13PooledDeleterEEEESB_EEE3$_9EENS2_6TrySeqINS2_3SeqINS3_IJNS4_IS7_ZNS8_21MakeServerCallPromiseESA_SB_SL_E3$_1EENSP_INS_11pipe_detail4NextISI_EEJZNS_12PipeReceiverISI_E4NextEvEUlSt8optionalISI_EE_EEEEEEJZNS8_21MakeServerCallPromiseESA_SB_SL_E3$_2EEEJNS_15for_each_detail7ForEachINSV_ISE_INS_7MessageESH_EEEZNS8_22ConnectedChannelStream12SendMessagesEPS18_E3$_0EEEEEEEEZNS8_21MakeServerCallPromiseESA_SB_SL_E4$_10EE\00", align 1
@"_ZTIN9grpc_core5Party15ParticipantImplINS_14promise_detail4RaceIJNS2_3MapIZNS_25ExternallyObservableLatchIvE4WaitEvEUlvE_ZNS_12_GLOBAL__N_121MakeServerCallPromiseEPNS_9TransportENS_8CallArgsESt8functionIFNS_12ArenaPromiseISt10unique_ptrI19grpc_metadata_batchNS_5Arena13PooledDeleterEEEESB_EEE3$_9EENS2_6TrySeqINS2_3SeqINS3_IJNS4_IS7_ZNS8_21MakeServerCallPromiseESA_SB_SL_E3$_1EENSP_INS_11pipe_detail4NextISI_EEJZNS_12PipeReceiverISI_E4NextEvEUlSt8optionalISI_EE_EEEEEEJZNS8_21MakeServerCallPromiseESA_SB_SL_E3$_2EEEJNS_15for_each_detail7ForEachINSV_ISE_INS_7MessageESH_EEEZNS8_22ConnectedChannelStream12SendMessagesEPS18_E3$_0EEEEEEEEZNS8_21MakeServerCallPromiseESA_SB_SL_E4$_10EE" = internal constant { ptr, ptr, ptr } { ptr getelementptr inbounds (ptr, ptr @_ZTVN10__cxxabiv120__si_class_type_infoE, i64 2), ptr @"_ZTSN9grpc_core5Party15ParticipantImplINS_14promise_detail4RaceIJNS2_3MapIZNS_25ExternallyObservableLatchIvE4WaitEvEUlvE_ZNS_12_GLOBAL__N_121MakeServerCallPromiseEPNS_9TransportENS_8CallArgsESt8functionIFNS_12ArenaPromiseISt10unique_ptrI19grpc_metadata_batchNS_5Arena13PooledDeleterEEEESB_EEE3$_9EENS2_6TrySeqINS2_3SeqINS3_IJNS4_IS7_ZNS8_21MakeServerCallPromiseESA_SB_SL_E3$_1EENSP_INS_11pipe_detail4NextISI_EEJZNS_12PipeReceiverISI_E4NextEvEUlSt8optionalISI_EE_EEEEEEJZNS8_21MakeServerCallPromiseESA_SB_SL_E3$_2EEEJNS_15for_each_detail7ForEachINSV_ISE_INS_7MessageESH_EEEZNS8_22ConnectedChannelStream12SendMessagesEPS18_E3$_0EEEEEEEEZNS8_21MakeServerCallPromiseESA_SB_SL_E4$_10EE", ptr @_ZTIN9grpc_core5Party11ParticipantE }, align 8
@.str.94 = private unnamed_addr constant [32 x i8] c"connected/send_initial_metadata\00", align 1
@"_ZTVN9grpc_core5Party15ParticipantImplIZNS_12BatchBuilder5Batch8RefUntilIZNS_5LatchIN4absl12lts_202308026StatusEE11WaitAndCopyEvEUlvE_EEDaT_EUlvE_ZZNS_12_GLOBAL__N_121MakeServerCallPromiseEPNS_9TransportENS_8CallArgsESt8functionIFNS_12ArenaPromiseISt10unique_ptrI19grpc_metadata_batchNS_5Arena13PooledDeleterEEEESG_EEEN3$_2clENS_10NextResultISN_EEEUlS8_E_EE" = internal unnamed_addr constant { [4 x ptr] } { [4 x ptr] [ptr null, ptr @"_ZTIN9grpc_core5Party15ParticipantImplIZNS_12BatchBuilder5Batch8RefUntilIZNS_5LatchIN4absl12lts_202308026StatusEE11WaitAndCopyEvEUlvE_EEDaT_EUlvE_ZZNS_12_GLOBAL__N_121MakeServerCallPromiseEPNS_9TransportENS_8CallArgsESt8functionIFNS_12ArenaPromiseISt10unique_ptrI19grpc_metadata_batchNS_5Arena13PooledDeleterEEEESG_EEEN3$_2clENS_10NextResultISN_EEEUlS8_E_EE", ptr @"_ZN9grpc_core5Party15ParticipantImplIZNS_12BatchBuilder5Batch8RefUntilIZNS_5LatchIN4absl12lts_202308026StatusEE11WaitAndCopyEvEUlvE_EEDaT_EUlvE_ZZNS_12_GLOBAL__N_121MakeServerCallPromiseEPNS_9TransportENS_8CallArgsESt8functionIFNS_12ArenaPromiseISt10unique_ptrI19grpc_metadata_batchNS_5Arena13PooledDeleterEEEESG_EEEN3$_2clENS_10NextResultISN_EEEUlS8_E_E22PollParticipantPromiseEv", ptr @"_ZN9grpc_core5Party15ParticipantImplIZNS_12BatchBuilder5Batch8RefUntilIZNS_5LatchIN4absl12lts_202308026StatusEE11WaitAndCopyEvEUlvE_EEDaT_EUlvE_ZZNS_12_GLOBAL__N_121MakeServerCallPromiseEPNS_9TransportENS_8CallArgsESt8functionIFNS_12ArenaPromiseISt10unique_ptrI19grpc_metadata_batchNS_5Arena13PooledDeleterEEEESG_EEEN3$_2clENS_10NextResultISN_EEEUlS8_E_E7DestroyEv"] }, align 8
@"_ZTSN9grpc_core5Party15ParticipantImplIZNS_12BatchBuilder5Batch8RefUntilIZNS_5LatchIN4absl12lts_202308026StatusEE11WaitAndCopyEvEUlvE_EEDaT_EUlvE_ZZNS_12_GLOBAL__N_121MakeServerCallPromiseEPNS_9TransportENS_8CallArgsESt8functionIFNS_12ArenaPromiseISt10unique_ptrI19grpc_metadata_batchNS_5Arena13PooledDeleterEEEESG_EEEN3$_2clENS_10NextResultISN_EEEUlS8_E_EE" = internal constant [354 x i8] c"N9grpc_core5Party15ParticipantImplIZNS_12BatchBuilder5Batch8RefUntilIZNS_5LatchIN4absl12lts_202308026StatusEE11WaitAndCopyEvEUlvE_EEDaT_EUlvE_ZZNS_12_GLOBAL__N_121MakeServerCallPromiseEPNS_9TransportENS_8CallArgsESt8functionIFNS_12ArenaPromiseISt10unique_ptrI19grpc_metadata_batchNS_5Arena13PooledDeleterEEEESG_EEEN3$_2clENS_10NextResultISN_EEEUlS8_E_EE\00", align 1
@"_ZTIN9grpc_core5Party15ParticipantImplIZNS_12BatchBuilder5Batch8RefUntilIZNS_5LatchIN4absl12lts_202308026StatusEE11WaitAndCopyEvEUlvE_EEDaT_EUlvE_ZZNS_12_GLOBAL__N_121MakeServerCallPromiseEPNS_9TransportENS_8CallArgsESt8functionIFNS_12ArenaPromiseISt10unique_ptrI19grpc_metadata_batchNS_5Arena13PooledDeleterEEEESG_EEEN3$_2clENS_10NextResultISN_EEEUlS8_E_EE" = internal constant { ptr, ptr, ptr } { ptr getelementptr inbounds (ptr, ptr @_ZTVN10__cxxabiv120__si_class_type_infoE, i64 2), ptr @"_ZTSN9grpc_core5Party15ParticipantImplIZNS_12BatchBuilder5Batch8RefUntilIZNS_5LatchIN4absl12lts_202308026StatusEE11WaitAndCopyEvEUlvE_EEDaT_EUlvE_ZZNS_12_GLOBAL__N_121MakeServerCallPromiseEPNS_9TransportENS_8CallArgsESt8functionIFNS_12ArenaPromiseISt10unique_ptrI19grpc_metadata_batchNS_5Arena13PooledDeleterEEEESG_EEEN3$_2clENS_10NextResultISN_EEEUlS8_E_EE", ptr @_ZTIN9grpc_core5Party11ParticipantE }, align 8
@"_ZTVN9grpc_core5Party15ParticipantImplINS_14promise_detail3SeqIZNS_12BatchBuilder5Batch8RefUntilINS2_3MapIZNS_5LatchIN4absl12lts_202308026StatusEE4WaitEvEUlvE_ZNS4_23ReceiveTrailingMetadataENS4_6TargetEEUlSB_E_EEEEDaT_EUlvE_JZNS_12_GLOBAL__N_121MakeServerCallPromiseEPNS_9TransportENS_8CallArgsESt8functionIFNS_12ArenaPromiseISt10unique_ptrI19grpc_metadata_batchNS_5Arena13PooledDeleterEEEESM_EEE4$_11EEEZNSJ_21MakeServerCallPromiseESL_SM_SW_E4$_12EE" = internal unnamed_addr constant { [4 x ptr] } { [4 x ptr] [ptr null, ptr @"_ZTIN9grpc_core5Party15ParticipantImplINS_14promise_detail3SeqIZNS_12BatchBuilder5Batch8RefUntilINS2_3MapIZNS_5LatchIN4absl12lts_202308026StatusEE4WaitEvEUlvE_ZNS4_23ReceiveTrailingMetadataENS4_6TargetEEUlSB_E_EEEEDaT_EUlvE_JZNS_12_GLOBAL__N_121MakeServerCallPromiseEPNS_9TransportENS_8CallArgsESt8functionIFNS_12ArenaPromiseISt10unique_ptrI19grpc_metadata_batchNS_5Arena13PooledDeleterEEEESM_EEE4$_11EEEZNSJ_21MakeServerCallPromiseESL_SM_SW_E4$_12EE", ptr @"_ZN9grpc_core5Party15ParticipantImplINS_14promise_detail3SeqIZNS_12BatchBuilder5Batch8RefUntilINS2_3MapIZNS_5LatchIN4absl12lts_202308026StatusEE4WaitEvEUlvE_ZNS4_23ReceiveTrailingMetadataENS4_6TargetEEUlSB_E_EEEEDaT_EUlvE_JZNS_12_GLOBAL__N_121MakeServerCallPromiseEPNS_9TransportENS_8CallArgsESt8functionIFNS_12ArenaPromiseISt10unique_ptrI19grpc_metadata_batchNS_5Arena13PooledDeleterEEEESM_EEE4$_11EEEZNSJ_21MakeServerCallPromiseESL_SM_SW_E4$_12E22PollParticipantPromiseEv", ptr @"_ZN9grpc_core5Party15ParticipantImplINS_14promise_detail3SeqIZNS_12BatchBuilder5Batch8RefUntilINS2_3MapIZNS_5LatchIN4absl12lts_202308026StatusEE4WaitEvEUlvE_ZNS4_23ReceiveTrailingMetadataENS4_6TargetEEUlSB_E_EEEEDaT_EUlvE_JZNS_12_GLOBAL__N_121MakeServerCallPromiseEPNS_9TransportENS_8CallArgsESt8functionIFNS_12ArenaPromiseISt10unique_ptrI19grpc_metadata_batchNS_5Arena13PooledDeleterEEEESM_EEE4$_11EEEZNSJ_21MakeServerCallPromiseESL_SM_SW_E4$_12E7DestroyEv"] }, align 8
@"_ZTSN9grpc_core5Party15ParticipantImplINS_14promise_detail3SeqIZNS_12BatchBuilder5Batch8RefUntilINS2_3MapIZNS_5LatchIN4absl12lts_202308026StatusEE4WaitEvEUlvE_ZNS4_23ReceiveTrailingMetadataENS4_6TargetEEUlSB_E_EEEEDaT_EUlvE_JZNS_12_GLOBAL__N_121MakeServerCallPromiseEPNS_9TransportENS_8CallArgsESt8functionIFNS_12ArenaPromiseISt10unique_ptrI19grpc_metadata_batchNS_5Arena13PooledDeleterEEEESM_EEE4$_11EEEZNSJ_21MakeServerCallPromiseESL_SM_SW_E4$_12EE" = internal constant [447 x i8] c"N9grpc_core5Party15ParticipantImplINS_14promise_detail3SeqIZNS_12BatchBuilder5Batch8RefUntilINS2_3MapIZNS_5LatchIN4absl12lts_202308026StatusEE4WaitEvEUlvE_ZNS4_23ReceiveTrailingMetadataENS4_6TargetEEUlSB_E_EEEEDaT_EUlvE_JZNS_12_GLOBAL__N_121MakeServerCallPromiseEPNS_9TransportENS_8CallArgsESt8functionIFNS_12ArenaPromiseISt10unique_ptrI19grpc_metadata_batchNS_5Arena13PooledDeleterEEEESM_EEE4$_11EEEZNSJ_21MakeServerCallPromiseESL_SM_SW_E4$_12EE\00", align 1
@"_ZTIN9grpc_core5Party15ParticipantImplINS_14promise_detail3SeqIZNS_12BatchBuilder5Batch8RefUntilINS2_3MapIZNS_5LatchIN4absl12lts_202308026StatusEE4WaitEvEUlvE_ZNS4_23ReceiveTrailingMetadataENS4_6TargetEEUlSB_E_EEEEDaT_EUlvE_JZNS_12_GLOBAL__N_121MakeServerCallPromiseEPNS_9TransportENS_8CallArgsESt8functionIFNS_12ArenaPromiseISt10unique_ptrI19grpc_metadata_batchNS_5Arena13PooledDeleterEEEESM_EEE4$_11EEEZNSJ_21MakeServerCallPromiseESL_SM_SW_E4$_12EE" = internal constant { ptr, ptr, ptr } { ptr getelementptr inbounds (ptr, ptr @_ZTVN10__cxxabiv120__si_class_type_infoE, i64 2), ptr @"_ZTSN9grpc_core5Party15ParticipantImplINS_14promise_detail3SeqIZNS_12BatchBuilder5Batch8RefUntilINS2_3MapIZNS_5LatchIN4absl12lts_202308026StatusEE4WaitEvEUlvE_ZNS4_23ReceiveTrailingMetadataENS4_6TargetEEUlSB_E_EEEEDaT_EUlvE_JZNS_12_GLOBAL__N_121MakeServerCallPromiseEPNS_9TransportENS_8CallArgsESt8functionIFNS_12ArenaPromiseISt10unique_ptrI19grpc_metadata_batchNS_5Arena13PooledDeleterEEEESM_EEE4$_11EEEZNSJ_21MakeServerCallPromiseESL_SM_SW_E4$_12EE", ptr @_ZTIN9grpc_core5Party11ParticipantE }, align 8
@.str.96 = private unnamed_addr constant [59 x i8] c"%s[connected] Got trailing metadata; status=%s metadata=%s\00", align 1
@.str.97 = private unnamed_addr constant [7 x i8] c"<none>\00", align 1
@"_ZN9grpc_core20arena_promise_detail17AllocatedCallableISt10unique_ptrI19grpc_metadata_batchNS_5Arena13PooledDeleterEENS_14promise_detail3MapINS7_3SeqINS7_6TrySeqIZNS_12BatchBuilder5Batch8RefUntilINS8_IZNS_5LatchIN4absl12lts_202308026StatusEE4WaitEvEUlvE_ZNSB_22ReceiveInitialMetadataENSB_6TargetEEUlSH_E_EEEEDaT_EUlvE_JZNS_12_GLOBAL__N_121MakeServerCallPromiseEPNS_9TransportENS_8CallArgsESt8functionIFNS_12ArenaPromiseIS6_EESS_EEE3$_0EEEJZNSP_21MakeServerCallPromiseESR_SS_SX_E3$_3EEEZNSP_21MakeServerCallPromiseESR_SS_SX_E4$_13EEE6vtableE" = internal constant %"struct.grpc_core::arena_promise_detail::Vtable" { ptr @"_ZN9grpc_core20arena_promise_detail17AllocatedCallableISt10unique_ptrI19grpc_metadata_batchNS_5Arena13PooledDeleterEENS_14promise_detail3MapINS7_3SeqINS7_6TrySeqIZNS_12BatchBuilder5Batch8RefUntilINS8_IZNS_5LatchIN4absl12lts_202308026StatusEE4WaitEvEUlvE_ZNSB_22ReceiveInitialMetadataENSB_6TargetEEUlSH_E_EEEEDaT_EUlvE_JZNS_12_GLOBAL__N_121MakeServerCallPromiseEPNS_9TransportENS_8CallArgsESt8functionIFNS_12ArenaPromiseIS6_EESS_EEE3$_0EEEJZNSP_21MakeServerCallPromiseESR_SS_SX_E3$_3EEEZNSP_21MakeServerCallPromiseESR_SS_SX_E4$_13EEE8PollOnceEPNS0_7ArgTypeE", ptr @"_ZN9grpc_core20arena_promise_detail17AllocatedCallableISt10unique_ptrI19grpc_metadata_batchNS_5Arena13PooledDeleterEENS_14promise_detail3MapINS7_3SeqINS7_6TrySeqIZNS_12BatchBuilder5Batch8RefUntilINS8_IZNS_5LatchIN4absl12lts_202308026StatusEE4WaitEvEUlvE_ZNSB_22ReceiveInitialMetadataENSB_6TargetEEUlSH_E_EEEEDaT_EUlvE_JZNS_12_GLOBAL__N_121MakeServerCallPromiseEPNS_9TransportENS_8CallArgsESt8functionIFNS_12ArenaPromiseIS6_EESS_EEE3$_0EEEJZNSP_21MakeServerCallPromiseESR_SS_SX_E3$_3EEEZNSP_21MakeServerCallPromiseESR_SS_SX_E4$_13EEE7DestroyEPNS0_7ArgTypeE" }, align 8
@.str.98 = private unnamed_addr constant [15 x i8] c"return Empty{}\00", align 1
@.str.99 = private unnamed_addr constant [9 x i8] c"%s%s: %s\00", align 1
@.str.100 = private unnamed_addr constant [39 x i8] c"Send trailing metadata as cancellation\00", align 1
@.str.101 = private unnamed_addr constant [29 x i8] c"Queue send trailing metadata\00", align 1
@llvm.global_ctors = appending global [2 x { i32, ptr, ptr }] [{ i32, ptr, ptr } { i32 65535, ptr @__cxx_global_var_init.4, ptr @_ZN9grpc_core19NoDestructSingletonINS_14promise_detail10UnwakeableEE6value_E }, { i32, ptr, ptr } { i32 65535, ptr @_GLOBAL__sub_I_connected_channel.cc, ptr null }]
@llvm.used = appending global [1 x ptr] [ptr @_ZN9grpc_core19NoDestructSingletonINS_14promise_detail10UnwakeableEE6value_E], section "llvm.metadata"

declare void @_ZNSt8ios_base4InitC1Ev(ptr noundef nonnull align 1 dereferenceable(1)) unnamed_addr #0

; Function Attrs: nounwind
declare void @_ZNSt8ios_base4InitD1Ev(ptr noundef nonnull align 1 dereferenceable(1)) unnamed_addr #1

; Function Attrs: nofree nounwind
declare i32 @__cxa_atexit(ptr, ptr, ptr) local_unnamed_addr #2

; Function Attrs: mustprogress uwtable
define void @_ZN9grpc_core24RegisterConnectedChannelEPNS_17CoreConfiguration7BuilderE(ptr noundef %builder) local_unnamed_addr #3 personality ptr @__gxx_personality_v0 {
entry:
  %agg.tmp3 = alloca %"class.absl::lts_20230802::AnyInvocable.51", align 16
  %agg.tmp9 = alloca %"class.absl::lts_20230802::AnyInvocable.51", align 16
  %agg.tmp17 = alloca %"class.absl::lts_20230802::AnyInvocable.51", align 16
  %agg.tmp25 = alloca %"class.absl::lts_20230802::AnyInvocable.51", align 16
  %agg.tmp33 = alloca %"class.absl::lts_20230802::AnyInvocable.51", align 16
  %agg.tmp41 = alloca %"class.absl::lts_20230802::AnyInvocable.51", align 16
  %channel_init_.i = getelementptr inbounds i8, ptr %builder, i64 32
  %call1 = tail call noundef nonnull align 8 dereferenceable(104) ptr @_ZN9grpc_core11ChannelInit7Builder14RegisterFilterE23grpc_channel_stack_typePK19grpc_channel_filterNS_14SourceLocationE(ptr noundef nonnull align 16 dereferenceable(528) %channel_init_.i, i32 noundef 1, ptr noundef nonnull @_ZN9grpc_core12_GLOBAL__N_128kPromiseBasedTransportFilterE, ptr nonnull @.str, i32 927)
  %terminal_.i = getelementptr inbounds i8, ptr %call1, i64 80
  store i8 1, ptr %terminal_.i, align 8
  store ptr @_ZN9grpc_core12_GLOBAL__N_134TransportSupportsPromiseBasedCallsERKNS_11ChannelArgsE, ptr %agg.tmp3, align 16
  %invoker_.i.i.i.i.i = getelementptr inbounds i8, ptr %agg.tmp3, i64 24
  store ptr @_ZN4absl12lts_2023080222internal_any_invocable12LocalInvokerILb0EbRKPFbRKN9grpc_core11ChannelArgsEEJS6_EEET0_PNS1_15TypeErasedStateEDpNS1_18ForwardedParameterIT2_E4typeE, ptr %invoker_.i.i.i.i.i, align 8
  %manager_.i.i.i.i.i.i = getelementptr inbounds i8, ptr %agg.tmp3, i64 16
  store ptr @_ZN4absl12lts_2023080222internal_any_invocable19LocalManagerTrivialENS1_14FunctionToCallEPNS1_15TypeErasedStateES4_, ptr %manager_.i.i.i.i.i.i, align 16
  %call4 = invoke noundef nonnull align 8 dereferenceable(104) ptr @_ZN9grpc_core11ChannelInit18FilterRegistration2IfEN4absl12lts_2023080212AnyInvocableIKFbRKNS_11ChannelArgsEEEE(ptr noundef nonnull align 8 dereferenceable(104) %call1, ptr noundef nonnull %agg.tmp3)
          to label %invoke.cont unwind label %lpad

invoke.cont:                                      ; preds = %entry
  %0 = load ptr, ptr %manager_.i.i.i.i.i.i, align 16
  call void %0(i1 noundef zeroext true, ptr noundef nonnull %agg.tmp3, ptr noundef nonnull %agg.tmp3) #23
  %call7 = call noundef nonnull align 8 dereferenceable(104) ptr @_ZN9grpc_core11ChannelInit7Builder14RegisterFilterE23grpc_channel_stack_typePK19grpc_channel_filterNS_14SourceLocationE(ptr noundef nonnull align 16 dereferenceable(528) %channel_init_.i, i32 noundef 4, ptr noundef nonnull @_ZN9grpc_core12_GLOBAL__N_128kPromiseBasedTransportFilterE, ptr nonnull @.str, i32 931)
  %terminal_.i9 = getelementptr inbounds i8, ptr %call7, i64 80
  store i8 1, ptr %terminal_.i9, align 8
  store ptr @_ZN9grpc_core12_GLOBAL__N_134TransportSupportsPromiseBasedCallsERKNS_11ChannelArgsE, ptr %agg.tmp9, align 16
  %invoker_.i.i.i.i.i10 = getelementptr inbounds i8, ptr %agg.tmp9, i64 24
  store ptr @_ZN4absl12lts_2023080222internal_any_invocable12LocalInvokerILb0EbRKPFbRKN9grpc_core11ChannelArgsEEJS6_EEET0_PNS1_15TypeErasedStateEDpNS1_18ForwardedParameterIT2_E4typeE, ptr %invoker_.i.i.i.i.i10, align 8
  %manager_.i.i.i.i.i.i11 = getelementptr inbounds i8, ptr %agg.tmp9, i64 16
  store ptr @_ZN4absl12lts_2023080222internal_any_invocable19LocalManagerTrivialENS1_14FunctionToCallEPNS1_15TypeErasedStateES4_, ptr %manager_.i.i.i.i.i.i11, align 16
  %call12 = invoke noundef nonnull align 8 dereferenceable(104) ptr @_ZN9grpc_core11ChannelInit18FilterRegistration2IfEN4absl12lts_2023080212AnyInvocableIKFbRKNS_11ChannelArgsEEEE(ptr noundef nonnull align 8 dereferenceable(104) %call7, ptr noundef nonnull %agg.tmp9)
          to label %invoke.cont11 unwind label %lpad10

invoke.cont11:                                    ; preds = %invoke.cont
  %1 = load ptr, ptr %manager_.i.i.i.i.i.i11, align 16
  call void %1(i1 noundef zeroext true, ptr noundef nonnull %agg.tmp9, ptr noundef nonnull %agg.tmp9) #23
  %call15 = call noundef nonnull align 8 dereferenceable(104) ptr @_ZN9grpc_core11ChannelInit7Builder14RegisterFilterE23grpc_channel_stack_typePK19grpc_channel_filterNS_14SourceLocationE(ptr noundef nonnull align 16 dereferenceable(528) %channel_init_.i, i32 noundef 5, ptr noundef nonnull @_ZN9grpc_core12_GLOBAL__N_128kPromiseBasedTransportFilterE, ptr nonnull @.str, i32 936)
  %terminal_.i15 = getelementptr inbounds i8, ptr %call15, i64 80
  store i8 1, ptr %terminal_.i15, align 8
  store ptr @_ZN9grpc_core12_GLOBAL__N_134TransportSupportsPromiseBasedCallsERKNS_11ChannelArgsE, ptr %agg.tmp17, align 16
  %invoker_.i.i.i.i.i16 = getelementptr inbounds i8, ptr %agg.tmp17, i64 24
  store ptr @_ZN4absl12lts_2023080222internal_any_invocable12LocalInvokerILb0EbRKPFbRKN9grpc_core11ChannelArgsEEJS6_EEET0_PNS1_15TypeErasedStateEDpNS1_18ForwardedParameterIT2_E4typeE, ptr %invoker_.i.i.i.i.i16, align 8
  %manager_.i.i.i.i.i.i17 = getelementptr inbounds i8, ptr %agg.tmp17, i64 16
  store ptr @_ZN4absl12lts_2023080222internal_any_invocable19LocalManagerTrivialENS1_14FunctionToCallEPNS1_15TypeErasedStateES4_, ptr %manager_.i.i.i.i.i.i17, align 16
  %call20 = invoke noundef nonnull align 8 dereferenceable(104) ptr @_ZN9grpc_core11ChannelInit18FilterRegistration2IfEN4absl12lts_2023080212AnyInvocableIKFbRKNS_11ChannelArgsEEEE(ptr noundef nonnull align 8 dereferenceable(104) %call15, ptr noundef nonnull %agg.tmp17)
          to label %invoke.cont19 unwind label %lpad18

invoke.cont19:                                    ; preds = %invoke.cont11
  %2 = load ptr, ptr %manager_.i.i.i.i.i.i17, align 16
  call void %2(i1 noundef zeroext true, ptr noundef nonnull %agg.tmp17, ptr noundef nonnull %agg.tmp17) #23
  %call23 = call noundef nonnull align 8 dereferenceable(104) ptr @_ZN9grpc_core11ChannelInit7Builder14RegisterFilterE23grpc_channel_stack_typePK19grpc_channel_filterNS_14SourceLocationE(ptr noundef nonnull align 16 dereferenceable(528) %channel_init_.i, i32 noundef 1, ptr noundef nonnull @_ZN9grpc_core12_GLOBAL__N_121kClientEmulatedFilterE, ptr nonnull @.str, i32 942)
  %terminal_.i21 = getelementptr inbounds i8, ptr %call23, i64 80
  store i8 1, ptr %terminal_.i21, align 8
  store ptr @_ZN9grpc_core12_GLOBAL__N_134TransportSupportsPromiseBasedCallsERKNS_11ChannelArgsE, ptr %agg.tmp25, align 16
  %invoker_.i.i.i.i.i22 = getelementptr inbounds i8, ptr %agg.tmp25, i64 24
  store ptr @_ZN4absl12lts_2023080222internal_any_invocable12LocalInvokerILb0EbRKPFbRKN9grpc_core11ChannelArgsEEJS6_EEET0_PNS1_15TypeErasedStateEDpNS1_18ForwardedParameterIT2_E4typeE, ptr %invoker_.i.i.i.i.i22, align 8
  %manager_.i.i.i.i.i.i23 = getelementptr inbounds i8, ptr %agg.tmp25, i64 16
  store ptr @_ZN4absl12lts_2023080222internal_any_invocable19LocalManagerTrivialENS1_14FunctionToCallEPNS1_15TypeErasedStateES4_, ptr %manager_.i.i.i.i.i.i23, align 16
  %call28 = invoke noundef nonnull align 8 dereferenceable(104) ptr @_ZN9grpc_core11ChannelInit18FilterRegistration5IfNotEN4absl12lts_2023080212AnyInvocableIKFbRKNS_11ChannelArgsEEEE(ptr noundef nonnull align 8 dereferenceable(104) %call23, ptr noundef nonnull %agg.tmp25)
          to label %invoke.cont27 unwind label %lpad26

invoke.cont27:                                    ; preds = %invoke.cont19
  %3 = load ptr, ptr %manager_.i.i.i.i.i.i23, align 16
  call void %3(i1 noundef zeroext true, ptr noundef nonnull %agg.tmp25, ptr noundef nonnull %agg.tmp25) #23
  %call31 = call noundef nonnull align 8 dereferenceable(104) ptr @_ZN9grpc_core11ChannelInit7Builder14RegisterFilterE23grpc_channel_stack_typePK19grpc_channel_filterNS_14SourceLocationE(ptr noundef nonnull align 16 dereferenceable(528) %channel_init_.i, i32 noundef 4, ptr noundef nonnull @_ZN9grpc_core12_GLOBAL__N_121kClientEmulatedFilterE, ptr nonnull @.str, i32 946)
  %terminal_.i27 = getelementptr inbounds i8, ptr %call31, i64 80
  store i8 1, ptr %terminal_.i27, align 8
  store ptr @_ZN9grpc_core12_GLOBAL__N_134TransportSupportsPromiseBasedCallsERKNS_11ChannelArgsE, ptr %agg.tmp33, align 16
  %invoker_.i.i.i.i.i28 = getelementptr inbounds i8, ptr %agg.tmp33, i64 24
  store ptr @_ZN4absl12lts_2023080222internal_any_invocable12LocalInvokerILb0EbRKPFbRKN9grpc_core11ChannelArgsEEJS6_EEET0_PNS1_15TypeErasedStateEDpNS1_18ForwardedParameterIT2_E4typeE, ptr %invoker_.i.i.i.i.i28, align 8
  %manager_.i.i.i.i.i.i29 = getelementptr inbounds i8, ptr %agg.tmp33, i64 16
  store ptr @_ZN4absl12lts_2023080222internal_any_invocable19LocalManagerTrivialENS1_14FunctionToCallEPNS1_15TypeErasedStateES4_, ptr %manager_.i.i.i.i.i.i29, align 16
  %call36 = invoke noundef nonnull align 8 dereferenceable(104) ptr @_ZN9grpc_core11ChannelInit18FilterRegistration5IfNotEN4absl12lts_2023080212AnyInvocableIKFbRKNS_11ChannelArgsEEEE(ptr noundef nonnull align 8 dereferenceable(104) %call31, ptr noundef nonnull %agg.tmp33)
          to label %invoke.cont35 unwind label %lpad34

invoke.cont35:                                    ; preds = %invoke.cont27
  %4 = load ptr, ptr %manager_.i.i.i.i.i.i29, align 16
  call void %4(i1 noundef zeroext true, ptr noundef nonnull %agg.tmp33, ptr noundef nonnull %agg.tmp33) #23
  %call39 = call noundef nonnull align 8 dereferenceable(104) ptr @_ZN9grpc_core11ChannelInit7Builder14RegisterFilterE23grpc_channel_stack_typePK19grpc_channel_filterNS_14SourceLocationE(ptr noundef nonnull align 16 dereferenceable(528) %channel_init_.i, i32 noundef 5, ptr noundef nonnull @_ZN9grpc_core12_GLOBAL__N_121kServerEmulatedFilterE, ptr nonnull @.str, i32 950)
  %terminal_.i33 = getelementptr inbounds i8, ptr %call39, i64 80
  store i8 1, ptr %terminal_.i33, align 8
  store ptr @_ZN9grpc_core12_GLOBAL__N_134TransportSupportsPromiseBasedCallsERKNS_11ChannelArgsE, ptr %agg.tmp41, align 16
  %invoker_.i.i.i.i.i34 = getelementptr inbounds i8, ptr %agg.tmp41, i64 24
  store ptr @_ZN4absl12lts_2023080222internal_any_invocable12LocalInvokerILb0EbRKPFbRKN9grpc_core11ChannelArgsEEJS6_EEET0_PNS1_15TypeErasedStateEDpNS1_18ForwardedParameterIT2_E4typeE, ptr %invoker_.i.i.i.i.i34, align 8
  %manager_.i.i.i.i.i.i35 = getelementptr inbounds i8, ptr %agg.tmp41, i64 16
  store ptr @_ZN4absl12lts_2023080222internal_any_invocable19LocalManagerTrivialENS1_14FunctionToCallEPNS1_15TypeErasedStateES4_, ptr %manager_.i.i.i.i.i.i35, align 16
  %call44 = invoke noundef nonnull align 8 dereferenceable(104) ptr @_ZN9grpc_core11ChannelInit18FilterRegistration5IfNotEN4absl12lts_2023080212AnyInvocableIKFbRKNS_11ChannelArgsEEEE(ptr noundef nonnull align 8 dereferenceable(104) %call39, ptr noundef nonnull %agg.tmp41)
          to label %invoke.cont43 unwind label %lpad42

invoke.cont43:                                    ; preds = %invoke.cont35
  %5 = load ptr, ptr %manager_.i.i.i.i.i.i35, align 16
  call void %5(i1 noundef zeroext true, ptr noundef nonnull %agg.tmp41, ptr noundef nonnull %agg.tmp41) #23
  ret void

lpad:                                             ; preds = %entry
  %6 = landingpad { ptr, i32 }
          cleanup
  %7 = load ptr, ptr %manager_.i.i.i.i.i.i, align 16
  call void %7(i1 noundef zeroext true, ptr noundef nonnull %agg.tmp3, ptr noundef nonnull %agg.tmp3) #23
  br label %eh.resume

lpad10:                                           ; preds = %invoke.cont
  %8 = landingpad { ptr, i32 }
          cleanup
  %9 = load ptr, ptr %manager_.i.i.i.i.i.i11, align 16
  call void %9(i1 noundef zeroext true, ptr noundef nonnull %agg.tmp9, ptr noundef nonnull %agg.tmp9) #23
  br label %eh.resume

lpad18:                                           ; preds = %invoke.cont11
  %10 = landingpad { ptr, i32 }
          cleanup
  %11 = load ptr, ptr %manager_.i.i.i.i.i.i17, align 16
  call void %11(i1 noundef zeroext true, ptr noundef nonnull %agg.tmp17, ptr noundef nonnull %agg.tmp17) #23
  br label %eh.resume

lpad26:                                           ; preds = %invoke.cont19
  %12 = landingpad { ptr, i32 }
          cleanup
  %13 = load ptr, ptr %manager_.i.i.i.i.i.i23, align 16
  call void %13(i1 noundef zeroext true, ptr noundef nonnull %agg.tmp25, ptr noundef nonnull %agg.tmp25) #23
  br label %eh.resume

lpad34:                                           ; preds = %invoke.cont27
  %14 = landingpad { ptr, i32 }
          cleanup
  %15 = load ptr, ptr %manager_.i.i.i.i.i.i29, align 16
  call void %15(i1 noundef zeroext true, ptr noundef nonnull %agg.tmp33, ptr noundef nonnull %agg.tmp33) #23
  br label %eh.resume

lpad42:                                           ; preds = %invoke.cont35
  %16 = landingpad { ptr, i32 }
          cleanup
  %17 = load ptr, ptr %manager_.i.i.i.i.i.i35, align 16
  call void %17(i1 noundef zeroext true, ptr noundef nonnull %agg.tmp41, ptr noundef nonnull %agg.tmp41) #23
  br label %eh.resume

eh.resume:                                        ; preds = %lpad42, %lpad34, %lpad26, %lpad18, %lpad10, %lpad
  %.pn = phi { ptr, i32 } [ %16, %lpad42 ], [ %14, %lpad34 ], [ %12, %lpad26 ], [ %10, %lpad18 ], [ %8, %lpad10 ], [ %6, %lpad ]
  resume { ptr, i32 } %.pn
}

declare noundef nonnull align 8 dereferenceable(104) ptr @_ZN9grpc_core11ChannelInit7Builder14RegisterFilterE23grpc_channel_stack_typePK19grpc_channel_filterNS_14SourceLocationE(ptr noundef nonnull align 16 dereferenceable(528), i32 noundef, ptr noundef, ptr, i32) local_unnamed_addr #0

declare noundef nonnull align 8 dereferenceable(104) ptr @_ZN9grpc_core11ChannelInit18FilterRegistration2IfEN4absl12lts_2023080212AnyInvocableIKFbRKNS_11ChannelArgsEEEE(ptr noundef nonnull align 8 dereferenceable(104), ptr noundef) local_unnamed_addr #0

; Function Attrs: mustprogress uwtable
define internal noundef zeroext i1 @_ZN9grpc_core12_GLOBAL__N_134TransportSupportsPromiseBasedCallsERKNS_11ChannelArgsE(ptr noundef nonnull align 8 dereferenceable(8) %args) #3 personality ptr @__gxx_personality_v0 {
entry:
  %call.i.i = tail call noundef ptr @_ZNK9grpc_core11ChannelArgs14GetVoidPointerESt17basic_string_viewIcSt11char_traitsIcEE(ptr noundef nonnull align 8 dereferenceable(8) %args, i64 23, ptr nonnull @.str.5)
  %vtable = load ptr, ptr %call.i.i, align 8
  %vfn = getelementptr inbounds i8, ptr %vtable, i64 32
  %0 = load ptr, ptr %vfn, align 8
  %call1 = tail call noundef ptr %0(ptr noundef nonnull align 8 dereferenceable(8) %call.i.i)
  %cmp = icmp ne ptr %call1, null
  ret i1 %cmp
}

declare i32 @__gxx_personality_v0(...)

declare noundef nonnull align 8 dereferenceable(104) ptr @_ZN9grpc_core11ChannelInit18FilterRegistration5IfNotEN4absl12lts_2023080212AnyInvocableIKFbRKNS_11ChannelArgsEEEE(ptr noundef nonnull align 8 dereferenceable(104), ptr noundef) local_unnamed_addr #0

; Function Attrs: mustprogress nofree norecurse nosync nounwind willreturn memory(readwrite, argmem: none, inaccessiblemem: none) uwtable
define internal void @__cxx_global_var_init.4() #4 section ".text.startup" comdat($_ZN9grpc_core19NoDestructSingletonINS_14promise_detail10UnwakeableEE6value_E) {
entry:
  %0 = load i8, ptr @_ZGVN9grpc_core19NoDestructSingletonINS_14promise_detail10UnwakeableEE6value_E, align 8
  %guard.uninitialized = icmp eq i8 %0, 0
  br i1 %guard.uninitialized, label %init.check, label %init.end

init.check:                                       ; preds = %entry
  store i8 1, ptr @_ZGVN9grpc_core19NoDestructSingletonINS_14promise_detail10UnwakeableEE6value_E, align 8
  store ptr getelementptr inbounds ({ [6 x ptr] }, ptr @_ZTVN9grpc_core14promise_detail10UnwakeableE, i64 0, inrange i32 0, i64 2), ptr @_ZN9grpc_core19NoDestructSingletonINS_14promise_detail10UnwakeableEE6value_E, align 8
  br label %init.end

init.end:                                         ; preds = %init.check, %entry
  ret void
}

declare noundef ptr @_ZNK9grpc_core11ChannelArgs14GetVoidPointerESt17basic_string_viewIcSt11char_traitsIcEE(ptr noundef nonnull align 8 dereferenceable(8), i64, ptr) local_unnamed_addr #0

; Function Attrs: mustprogress nocallback nofree nounwind willreturn memory(argmem: readwrite)
declare void @llvm.memcpy.p0.p0.i64(ptr noalias nocapture writeonly, ptr noalias nocapture readonly, i64, i1 immarg) #5

; Function Attrs: noreturn nounwind uwtable
define linkonce_odr hidden void @__clang_call_terminate(ptr noundef %0) local_unnamed_addr #6 comdat {
  %2 = tail call ptr @__cxa_begin_catch(ptr %0) #23
  tail call void @_ZSt9terminatev() #24
  unreachable
}

declare ptr @__cxa_begin_catch(ptr) local_unnamed_addr

declare void @_ZSt9terminatev() local_unnamed_addr

; Function Attrs: mustprogress nofree nounwind willreturn memory(argmem: read)
declare i64 @strlen(ptr nocapture noundef) local_unnamed_addr #7

; Function Attrs: mustprogress nocallback nofree nounwind willreturn memory(argmem: write)
declare void @llvm.memset.p0.i64(ptr nocapture writeonly, i8, i64, i1 immarg) #8

declare void @__cxa_pure_virtual() unnamed_addr

; Function Attrs: mustprogress uwtable
define internal void @_ZL49connected_channel_start_transport_stream_op_batchP17grpc_call_elementP30grpc_transport_stream_op_batch(ptr nocapture noundef readonly %elem, ptr noundef %batch) #3 {
entry:
  %call_data = getelementptr inbounds i8, ptr %elem, i64 16
  %0 = load ptr, ptr %call_data, align 8
  %channel_data = getelementptr inbounds i8, ptr %elem, i64 8
  %1 = load ptr, ptr %channel_data, align 8
  %recv_initial_metadata = getelementptr inbounds i8, ptr %batch, i64 16
  %bf.load = load i8, ptr %recv_initial_metadata, align 8
  %2 = and i8 %bf.load, 8
  %bf.cast.not = icmp eq i8 %2, 0
  br i1 %bf.cast.not, label %if.end, label %if.then

if.then:                                          ; preds = %entry
  %recv_initial_metadata_ready = getelementptr inbounds i8, ptr %0, i64 344
  %payload = getelementptr inbounds i8, ptr %batch, i64 8
  %3 = load ptr, ptr %payload, align 8
  %recv_initial_metadata_ready2 = getelementptr inbounds i8, ptr %3, i64 48
  %4 = load ptr, ptr %recv_initial_metadata_ready2, align 8
  %original_closure1.i = getelementptr inbounds i8, ptr %0, i64 376
  store ptr %4, ptr %original_closure1.i, align 8
  %5 = load ptr, ptr %0, align 8
  %call_combiner2.i = getelementptr inbounds i8, ptr %0, i64 384
  store ptr %5, ptr %call_combiner2.i, align 8
  %reason3.i = getelementptr inbounds i8, ptr %0, i64 392
  store ptr @.str.8, ptr %reason3.i, align 8
  %cb1.i.i = getelementptr inbounds i8, ptr %0, i64 352
  store ptr @_ZL20run_in_call_combinerPvN4absl12lts_202308026StatusE, ptr %cb1.i.i, align 8
  %cb_arg2.i.i = getelementptr inbounds i8, ptr %0, i64 360
  store ptr %recv_initial_metadata_ready, ptr %cb_arg2.i.i, align 8
  %error_data.i.i = getelementptr inbounds i8, ptr %0, i64 368
  store i64 0, ptr %error_data.i.i, align 8
  store ptr %recv_initial_metadata_ready, ptr %recv_initial_metadata_ready2, align 8
  %bf.load3.pre = load i8, ptr %recv_initial_metadata, align 8
  br label %if.end

if.end:                                           ; preds = %if.then, %entry
  %bf.load3 = phi i8 [ %bf.load3.pre, %if.then ], [ %bf.load, %entry ]
  %6 = and i8 %bf.load3, 16
  %bf.cast6.not = icmp eq i8 %6, 0
  br i1 %bf.cast6.not, label %if.end12, label %if.then7

if.then7:                                         ; preds = %if.end
  %recv_message_ready = getelementptr inbounds i8, ptr %0, i64 400
  %payload9 = getelementptr inbounds i8, ptr %batch, i64 8
  %7 = load ptr, ptr %payload9, align 8
  %recv_message_ready11 = getelementptr inbounds i8, ptr %7, i64 88
  %8 = load ptr, ptr %recv_message_ready11, align 8
  %original_closure1.i23 = getelementptr inbounds i8, ptr %0, i64 432
  store ptr %8, ptr %original_closure1.i23, align 8
  %9 = load ptr, ptr %0, align 8
  %call_combiner2.i24 = getelementptr inbounds i8, ptr %0, i64 440
  store ptr %9, ptr %call_combiner2.i24, align 8
  %reason3.i25 = getelementptr inbounds i8, ptr %0, i64 448
  store ptr @.str.9, ptr %reason3.i25, align 8
  %cb1.i.i26 = getelementptr inbounds i8, ptr %0, i64 408
  store ptr @_ZL20run_in_call_combinerPvN4absl12lts_202308026StatusE, ptr %cb1.i.i26, align 8
  %cb_arg2.i.i27 = getelementptr inbounds i8, ptr %0, i64 416
  store ptr %recv_message_ready, ptr %cb_arg2.i.i27, align 8
  %error_data.i.i28 = getelementptr inbounds i8, ptr %0, i64 424
  store i64 0, ptr %error_data.i.i28, align 8
  store ptr %recv_message_ready, ptr %recv_message_ready11, align 8
  %bf.load13.pre = load i8, ptr %recv_initial_metadata, align 8
  br label %if.end12

if.end12:                                         ; preds = %if.then7, %if.end
  %bf.load13 = phi i8 [ %bf.load13.pre, %if.then7 ], [ %bf.load3, %if.end ]
  %10 = and i8 %bf.load13, 32
  %bf.cast16.not = icmp eq i8 %10, 0
  br i1 %bf.cast16.not, label %if.end22, label %if.then17

if.then17:                                        ; preds = %if.end12
  %recv_trailing_metadata_ready = getelementptr inbounds i8, ptr %0, i64 456
  %payload19 = getelementptr inbounds i8, ptr %batch, i64 8
  %11 = load ptr, ptr %payload19, align 8
  %recv_trailing_metadata_ready21 = getelementptr inbounds i8, ptr %11, i64 112
  %12 = load ptr, ptr %recv_trailing_metadata_ready21, align 8
  %original_closure1.i29 = getelementptr inbounds i8, ptr %0, i64 488
  store ptr %12, ptr %original_closure1.i29, align 8
  %13 = load ptr, ptr %0, align 8
  %call_combiner2.i30 = getelementptr inbounds i8, ptr %0, i64 496
  store ptr %13, ptr %call_combiner2.i30, align 8
  %reason3.i31 = getelementptr inbounds i8, ptr %0, i64 504
  store ptr @.str.10, ptr %reason3.i31, align 8
  %cb1.i.i32 = getelementptr inbounds i8, ptr %0, i64 464
  store ptr @_ZL20run_in_call_combinerPvN4absl12lts_202308026StatusE, ptr %cb1.i.i32, align 8
  %cb_arg2.i.i33 = getelementptr inbounds i8, ptr %0, i64 472
  store ptr %recv_trailing_metadata_ready, ptr %cb_arg2.i.i33, align 8
  %error_data.i.i34 = getelementptr inbounds i8, ptr %0, i64 480
  store i64 0, ptr %error_data.i.i34, align 8
  store ptr %recv_trailing_metadata_ready, ptr %recv_trailing_metadata_ready21, align 8
  %bf.load23.pre = load i8, ptr %recv_initial_metadata, align 8
  br label %if.end22

if.end22:                                         ; preds = %if.then17, %if.end12
  %bf.load23 = phi i8 [ %bf.load23.pre, %if.then17 ], [ %bf.load13, %if.end12 ]
  %14 = and i8 %bf.load23, 64
  %bf.cast26.not = icmp eq i8 %14, 0
  br i1 %bf.cast26.not, label %if.else, label %if.then27

if.then27:                                        ; preds = %if.end22
  %call = tail call ptr @gpr_malloc(i64 noundef 56)
  %15 = load ptr, ptr %batch, align 8
  br label %if.end35.sink.split

if.else:                                          ; preds = %if.end22
  %16 = load ptr, ptr %batch, align 8
  %cmp.not = icmp eq ptr %16, null
  br i1 %cmp.not, label %if.end35, label %if.then30

if.then30:                                        ; preds = %if.else
  %17 = and i8 %bf.load23, 1
  %bf.cast.not.i = icmp eq i8 %17, 0
  br i1 %bf.cast.not.i, label %if.end.i, label %_ZL19get_state_for_batchP27connected_channel_call_dataP30grpc_transport_stream_op_batch.exit

if.end.i:                                         ; preds = %if.then30
  %18 = and i8 %bf.load23, 4
  %bf.cast3.not.i = icmp eq i8 %18, 0
  br i1 %bf.cast3.not.i, label %if.end7.i, label %_ZL19get_state_for_batchP27connected_channel_call_dataP30grpc_transport_stream_op_batch.exit

if.end7.i:                                        ; preds = %if.end.i
  %19 = and i8 %bf.load23, 2
  %bf.cast11.not.i = icmp eq i8 %19, 0
  br i1 %bf.cast11.not.i, label %if.end15.i, label %_ZL19get_state_for_batchP27connected_channel_call_dataP30grpc_transport_stream_op_batch.exit

if.end15.i:                                       ; preds = %if.end7.i
  %20 = and i8 %bf.load23, 8
  %bf.cast19.not.i = icmp eq i8 %20, 0
  br i1 %bf.cast19.not.i, label %if.end23.i, label %_ZL19get_state_for_batchP27connected_channel_call_dataP30grpc_transport_stream_op_batch.exit

if.end23.i:                                       ; preds = %if.end15.i
  %21 = and i8 %bf.load23, 16
  %bf.cast27.not.i = icmp eq i8 %21, 0
  br i1 %bf.cast27.not.i, label %if.end31.i, label %_ZL19get_state_for_batchP27connected_channel_call_dataP30grpc_transport_stream_op_batch.exit

if.end31.i:                                       ; preds = %if.end23.i
  %22 = and i8 %bf.load23, 32
  %bf.cast35.not.i = icmp eq i8 %22, 0
  br i1 %bf.cast35.not.i, label %do.body.i, label %_ZL19get_state_for_batchP27connected_channel_call_dataP30grpc_transport_stream_op_batch.exit

do.body.i:                                        ; preds = %if.end31.i
  tail call void @gpr_unreachable_code(ptr noundef nonnull @.str.14, ptr noundef nonnull @.str, i32 noundef 133) #25
  unreachable

_ZL19get_state_for_batchP27connected_channel_call_dataP30grpc_transport_stream_op_batch.exit: ; preds = %if.then30, %if.end.i, %if.end7.i, %if.end15.i, %if.end23.i, %if.end31.i
  %.sink.i = phi i64 [ 8, %if.then30 ], [ 64, %if.end.i ], [ 120, %if.end7.i ], [ 176, %if.end15.i ], [ 232, %if.end23.i ], [ 288, %if.end31.i ]
  %arrayidx38.i = getelementptr inbounds i8, ptr %0, i64 %.sink.i
  br label %if.end35.sink.split

if.end35.sink.split:                              ; preds = %if.then27, %_ZL19get_state_for_batchP27connected_channel_call_dataP30grpc_transport_stream_op_batch.exit
  %arrayidx38.i.sink56 = phi ptr [ %arrayidx38.i, %_ZL19get_state_for_batchP27connected_channel_call_dataP30grpc_transport_stream_op_batch.exit ], [ %call, %if.then27 ]
  %.sink = phi ptr [ %16, %_ZL19get_state_for_batchP27connected_channel_call_dataP30grpc_transport_stream_op_batch.exit ], [ %15, %if.then27 ]
  %.str.12.sink = phi ptr [ @.str.12, %_ZL19get_state_for_batchP27connected_channel_call_dataP30grpc_transport_stream_op_batch.exit ], [ @.str.11, %if.then27 ]
  %_ZL20run_in_call_combinerPvN4absl12lts_202308026StatusE.sink = phi ptr [ @_ZL20run_in_call_combinerPvN4absl12lts_202308026StatusE, %_ZL19get_state_for_batchP27connected_channel_call_dataP30grpc_transport_stream_op_batch.exit ], [ @_ZL27run_cancel_in_call_combinerPvN4absl12lts_202308026StatusE, %if.then27 ]
  %original_closure1.i41 = getelementptr inbounds i8, ptr %arrayidx38.i.sink56, i64 32
  store ptr %.sink, ptr %original_closure1.i41, align 8
  %23 = load ptr, ptr %0, align 8
  %call_combiner2.i42 = getelementptr inbounds i8, ptr %arrayidx38.i.sink56, i64 40
  store ptr %23, ptr %call_combiner2.i42, align 8
  %reason3.i43 = getelementptr inbounds i8, ptr %arrayidx38.i.sink56, i64 48
  store ptr %.str.12.sink, ptr %reason3.i43, align 8
  %cb1.i.i44 = getelementptr inbounds i8, ptr %arrayidx38.i.sink56, i64 8
  store ptr %_ZL20run_in_call_combinerPvN4absl12lts_202308026StatusE.sink, ptr %cb1.i.i44, align 8
  %cb_arg2.i.i45 = getelementptr inbounds i8, ptr %arrayidx38.i.sink56, i64 16
  store ptr %arrayidx38.i.sink56, ptr %cb_arg2.i.i45, align 8
  %error_data.i.i46 = getelementptr inbounds i8, ptr %arrayidx38.i.sink56, i64 24
  store i64 0, ptr %error_data.i.i46, align 8
  store ptr %arrayidx38.i.sink56, ptr %batch, align 8
  br label %if.end35

if.end35:                                         ; preds = %if.end35.sink.split, %if.else
  %24 = load ptr, ptr %1, align 8
  %vtable = load ptr, ptr %24, align 8
  %vfn = getelementptr inbounds i8, ptr %vtable, i64 24
  %25 = load ptr, ptr %vfn, align 8
  %call36 = tail call noundef ptr %25(ptr noundef nonnull align 8 dereferenceable(8) %24)
  %add.ptr = getelementptr inbounds i8, ptr %0, i64 512
  %vtable37 = load ptr, ptr %call36, align 8
  %vfn38 = getelementptr inbounds i8, ptr %vtable37, i64 24
  %26 = load ptr, ptr %vfn38, align 8
  tail call void %26(ptr noundef nonnull align 8 dereferenceable(8) %call36, ptr noundef nonnull %add.ptr, ptr noundef nonnull %batch)
  %27 = load ptr, ptr %0, align 8
  tail call void @_ZN9grpc_core12CallCombiner4StopEPKc(ptr noundef nonnull align 8 dereferenceable(96) %27, ptr noundef nonnull @.str.13)
  ret void
}

; Function Attrs: mustprogress uwtable
define internal void @_ZL36connected_channel_start_transport_opP20grpc_channel_elementP17grpc_transport_op(ptr nocapture noundef readonly %elem, ptr noundef %op) #3 {
entry:
  %channel_data = getelementptr inbounds i8, ptr %elem, i64 8
  %0 = load ptr, ptr %channel_data, align 8
  %1 = load ptr, ptr %0, align 8
  %vtable = load ptr, ptr %1, align 8
  %vfn = getelementptr inbounds i8, ptr %vtable, i64 72
  %2 = load ptr, ptr %vfn, align 8
  tail call void %2(ptr noundef nonnull align 8 dereferenceable(8) %1, ptr noundef %op)
  ret void
}

; Function Attrs: mustprogress uwtable
define internal void @_ZL32connected_channel_init_call_elemP17grpc_call_elementPK22grpc_call_element_args(ptr noalias nocapture writeonly sret(%"class.absl::lts_20230802::Status") align 8 %agg.result, ptr nocapture noundef readonly %elem, ptr nocapture noundef readonly %args) #3 {
entry:
  %call_data = getelementptr inbounds i8, ptr %elem, i64 16
  %0 = load ptr, ptr %call_data, align 8
  %channel_data = getelementptr inbounds i8, ptr %elem, i64 8
  %1 = load ptr, ptr %channel_data, align 8
  %call_combiner = getelementptr inbounds i8, ptr %args, i64 56
  %2 = load ptr, ptr %call_combiner, align 8
  store ptr %2, ptr %0, align 8
  %3 = load ptr, ptr %1, align 8
  %vtable = load ptr, ptr %3, align 8
  %vfn = getelementptr inbounds i8, ptr %vtable, i64 24
  %4 = load ptr, ptr %vfn, align 8
  %call = tail call noundef ptr %4(ptr noundef nonnull align 8 dereferenceable(8) %3)
  %add.ptr = getelementptr inbounds i8, ptr %0, i64 512
  %5 = load ptr, ptr %args, align 8
  %server_transport_data = getelementptr inbounds i8, ptr %args, i64 8
  %6 = load ptr, ptr %server_transport_data, align 8
  %arena = getelementptr inbounds i8, ptr %args, i64 48
  %7 = load ptr, ptr %arena, align 8
  %vtable2 = load ptr, ptr %call, align 8
  %vfn3 = getelementptr inbounds i8, ptr %vtable2, i64 8
  %8 = load ptr, ptr %vfn3, align 8
  tail call void %8(ptr noundef nonnull align 8 dereferenceable(8) %call, ptr noundef nonnull %add.ptr, ptr noundef %5, ptr noundef %6, ptr noundef %7)
  store i64 0, ptr %agg.result, align 8, !alias.scope !4
  ret void
}

; Function Attrs: mustprogress uwtable
define internal void @_ZL26set_pollset_or_pollset_setP17grpc_call_elementP19grpc_polling_entity(ptr nocapture noundef readonly %elem, ptr noundef %pollent) #3 {
entry:
  %call_data = getelementptr inbounds i8, ptr %elem, i64 16
  %0 = load ptr, ptr %call_data, align 8
  %channel_data = getelementptr inbounds i8, ptr %elem, i64 8
  %1 = load ptr, ptr %channel_data, align 8
  %2 = load ptr, ptr %1, align 8
  %add.ptr = getelementptr inbounds i8, ptr %0, i64 512
  tail call void @_ZN9grpc_core9Transport16SetPollingEntityEP11grpc_streamP19grpc_polling_entity(ptr noundef nonnull align 8 dereferenceable(8) %2, ptr noundef nonnull %add.ptr, ptr noundef %pollent)
  ret void
}

; Function Attrs: mustprogress uwtable
define internal void @_ZL35connected_channel_destroy_call_elemP17grpc_call_elementPK20grpc_call_final_infoP12grpc_closure(ptr nocapture noundef readonly %elem, ptr nocapture readnone %0, ptr noundef %then_schedule_closure) #3 {
entry:
  %call_data = getelementptr inbounds i8, ptr %elem, i64 16
  %1 = load ptr, ptr %call_data, align 8
  %channel_data = getelementptr inbounds i8, ptr %elem, i64 8
  %2 = load ptr, ptr %channel_data, align 8
  %3 = load ptr, ptr %2, align 8
  %vtable = load ptr, ptr %3, align 8
  %vfn = getelementptr inbounds i8, ptr %vtable, i64 24
  %4 = load ptr, ptr %vfn, align 8
  %call = tail call noundef ptr %4(ptr noundef nonnull align 8 dereferenceable(8) %3)
  %add.ptr = getelementptr inbounds i8, ptr %1, i64 512
  %vtable1 = load ptr, ptr %call, align 8
  %vfn2 = getelementptr inbounds i8, ptr %vtable1, i64 32
  %5 = load ptr, ptr %vfn2, align 8
  tail call void %5(ptr noundef nonnull align 8 dereferenceable(8) %call, ptr noundef nonnull %add.ptr, ptr noundef %then_schedule_closure)
  ret void
}

; Function Attrs: mustprogress uwtable
define internal void @_ZL35connected_channel_init_channel_elemP20grpc_channel_elementP25grpc_channel_element_args(ptr noalias nocapture writeonly sret(%"class.absl::lts_20230802::Status") align 8 %agg.result, ptr nocapture noundef readonly %elem, ptr noundef %args) #3 personality ptr @__gxx_personality_v0 {
entry:
  %is_last = getelementptr inbounds i8, ptr %args, i64 20
  %0 = load i32, ptr %is_last, align 4
  %tobool.not = icmp eq i32 %0, 0
  br i1 %tobool.not, label %if.then, label %do.end

if.then:                                          ; preds = %entry
  tail call void @gpr_assertion_failed(ptr noundef nonnull @.str, i32 noundef 228, ptr noundef nonnull @.str.15) #25
  unreachable

do.end:                                           ; preds = %entry
  %channel_data = getelementptr inbounds i8, ptr %elem, i64 8
  %1 = load ptr, ptr %channel_data, align 8
  %channel_args = getelementptr inbounds i8, ptr %args, i64 8
  %call.i.i = tail call noundef ptr @_ZNK9grpc_core11ChannelArgs14GetVoidPointerESt17basic_string_viewIcSt11char_traitsIcEE(ptr noundef nonnull align 8 dereferenceable(8) %channel_args, i64 23, ptr nonnull @.str.5)
  store ptr %call.i.i, ptr %1, align 8
  store i64 0, ptr %agg.result, align 8, !alias.scope !7
  ret void
}

; Function Attrs: mustprogress uwtable
define internal void @_ZL38connected_channel_destroy_channel_elemP20grpc_channel_element(ptr nocapture noundef readonly %elem) #3 {
entry:
  %channel_data = getelementptr inbounds i8, ptr %elem, i64 8
  %0 = load ptr, ptr %channel_data, align 8
  %1 = load ptr, ptr %0, align 8
  %tobool.not = icmp eq ptr %1, null
  br i1 %tobool.not, label %if.end, label %if.then

if.then:                                          ; preds = %entry
  %vtable = load ptr, ptr %1, align 8
  %2 = load ptr, ptr %vtable, align 8
  tail call void %2(ptr noundef nonnull align 8 dereferenceable(8) %1)
  br label %if.end

if.end:                                           ; preds = %if.then, %entry
  ret void
}

; Function Attrs: mustprogress nofree norecurse nosync nounwind willreturn memory(none) uwtable
define internal void @_ZL34connected_channel_get_channel_infoP20grpc_channel_elementPK17grpc_channel_info(ptr nocapture readnone %0, ptr nocapture readnone %1) #9 {
entry:
  ret void
}

; Function Attrs: noreturn uwtable
define internal void @_ZZN9grpc_core12_GLOBAL__N_119MakeConnectedFilterIXadL_ZNS0_24MakeTransportCallPromiseEPNS_9TransportENS_8CallArgsESt8functionIFNS_12ArenaPromiseISt10unique_ptrI19grpc_metadata_batchNS_5Arena13PooledDeleterEEEES4_EEEEEE19grpc_channel_filtervENUlP20grpc_channel_elementS4_SE_E_8__invokeESH_S4_SE_(ptr noalias nocapture readnone sret(%"class.grpc_core::ArenaPromise") align 16 %agg.result, ptr nocapture readnone %elem, ptr nocapture noundef %call_args, ptr nocapture noundef %next) #10 align 2 personality ptr @__gxx_personality_v0 {
entry:
  %agg.tmp3.i = alloca %"class.std::function", align 8
  call void @llvm.lifetime.start.p0(i64 32, ptr nonnull %agg.tmp3.i)
  %0 = load i8, ptr %call_args, align 1
  %add.ptr.i.i.i.i.i.i.i = getelementptr inbounds i8, ptr %call_args, i64 8
  %1 = load i64, ptr %add.ptr.i.i.i.i.i.i.i, align 8
  %2 = inttoptr i64 %1 to ptr
  store ptr null, ptr %add.ptr.i.i.i.i.i.i.i, align 8
  %client_initial_metadata_outstanding3.i.i = getelementptr inbounds i8, ptr %call_args, i64 16
  %3 = load ptr, ptr %client_initial_metadata_outstanding3.i.i, align 8
  store ptr null, ptr %client_initial_metadata_outstanding3.i.i, align 8
  %_M_invoker.i.i = getelementptr inbounds i8, ptr %agg.tmp3.i, i64 24
  %_M_invoker2.i.i = getelementptr inbounds i8, ptr %next, i64 24
  call void @llvm.memset.p0.i64(ptr noundef nonnull align 8 dereferenceable(24) %agg.tmp3.i, i8 0, i64 24, i1 false)
  %4 = load ptr, ptr %_M_invoker2.i.i, align 8
  store ptr %4, ptr %_M_invoker.i.i, align 8
  %_M_manager.i.i.i.i = getelementptr inbounds i8, ptr %next, i64 16
  %5 = load ptr, ptr %_M_manager.i.i.i.i, align 8
  %tobool.not.i.i.not.i.i = icmp eq ptr %5, null
  br i1 %tobool.not.i.i.not.i.i, label %_ZNSt8functionIFN9grpc_core12ArenaPromiseISt10unique_ptrI19grpc_metadata_batchNS0_5Arena13PooledDeleterEEEENS0_8CallArgsEEEC2EOSA_.exit.i, label %if.then.i.i

if.then.i.i:                                      ; preds = %entry
  %_M_manager.i.i.i = getelementptr inbounds i8, ptr %agg.tmp3.i, i64 16
  call void @llvm.memcpy.p0.p0.i64(ptr noundef nonnull align 8 dereferenceable(16) %agg.tmp3.i, ptr noundef nonnull align 8 dereferenceable(16) %next, i64 16, i1 false)
  store ptr %5, ptr %_M_manager.i.i.i, align 8
  tail call void @llvm.memset.p0.i64(ptr noundef nonnull align 8 dereferenceable(16) %_M_manager.i.i.i.i, i8 0, i64 16, i1 false)
  br label %_ZNSt8functionIFN9grpc_core12ArenaPromiseISt10unique_ptrI19grpc_metadata_batchNS0_5Arena13PooledDeleterEEEENS0_8CallArgsEEEC2EOSA_.exit.i

_ZNSt8functionIFN9grpc_core12ArenaPromiseISt10unique_ptrI19grpc_metadata_batchNS0_5Arena13PooledDeleterEEEENS0_8CallArgsEEEC2EOSA_.exit.i: ; preds = %if.then.i.i, %entry
  invoke void @_ZN9grpc_core5CrashESt17basic_string_viewIcSt11char_traitsIcEENS_14SourceLocationE(i64 13, ptr nonnull @.str.7, ptr nonnull @.str, i32 889) #25
          to label %.noexc.i unwind label %lpad.i

.noexc.i:                                         ; preds = %_ZNSt8functionIFN9grpc_core12ArenaPromiseISt10unique_ptrI19grpc_metadata_batchNS0_5Arena13PooledDeleterEEEENS0_8CallArgsEEEC2EOSA_.exit.i
  unreachable

lpad.i:                                           ; preds = %_ZNSt8functionIFN9grpc_core12ArenaPromiseISt10unique_ptrI19grpc_metadata_batchNS0_5Arena13PooledDeleterEEEENS0_8CallArgsEEEC2EOSA_.exit.i
  %6 = landingpad { ptr, i32 }
          cleanup
  br i1 %tobool.not.i.i.not.i.i, label %_ZNSt8functionIFN9grpc_core12ArenaPromiseISt10unique_ptrI19grpc_metadata_batchNS0_5Arena13PooledDeleterEEEENS0_8CallArgsEEED2Ev.exit11.i, label %if.then.i.i8.i

if.then.i.i8.i:                                   ; preds = %lpad.i
  %call.i.i9.i = invoke noundef zeroext i1 %5(ptr noundef nonnull align 8 dereferenceable(16) %agg.tmp3.i, ptr noundef nonnull align 8 dereferenceable(16) %agg.tmp3.i, i32 noundef 3)
          to label %_ZNSt8functionIFN9grpc_core12ArenaPromiseISt10unique_ptrI19grpc_metadata_batchNS0_5Arena13PooledDeleterEEEENS0_8CallArgsEEED2Ev.exit11.i unwind label %terminate.lpad.i.i10.i

terminate.lpad.i.i10.i:                           ; preds = %if.then.i.i8.i
  %7 = landingpad { ptr, i32 }
          catch ptr null
  %8 = extractvalue { ptr, i32 } %7, 0
  call void @__clang_call_terminate(ptr %8) #24
  unreachable

_ZNSt8functionIFN9grpc_core12ArenaPromiseISt10unique_ptrI19grpc_metadata_batchNS0_5Arena13PooledDeleterEEEENS0_8CallArgsEEED2Ev.exit11.i: ; preds = %if.then.i.i8.i, %lpad.i
  %cmp.not.i.i = icmp eq ptr %3, null
  br i1 %cmp.not.i.i, label %_ZN9grpc_core37ClientInitialMetadataOutstandingTokenD2Ev.exit.i, label %if.then.i.i1

if.then.i.i1:                                     ; preds = %_ZNSt8functionIFN9grpc_core12ArenaPromiseISt10unique_ptrI19grpc_metadata_batchNS0_5Arena13PooledDeleterEEEENS0_8CallArgsEEED2Ev.exit11.i
  store i8 0, ptr %3, align 2
  %has_value_.i.i.i = getelementptr inbounds i8, ptr %3, i64 1
  store i8 1, ptr %has_value_.i.i.i, align 1
  %waiter_.i.i.i = getelementptr inbounds i8, ptr %3, i64 2
  %9 = load i16, ptr %waiter_.i.i.i, align 2
  %cmp.i.i.i.i = icmp eq i16 %9, 0
  br i1 %cmp.i.i.i.i, label %_ZN9grpc_core37ClientInitialMetadataOutstandingTokenD2Ev.exit.i, label %if.end.i.i.i.i

if.end.i.i.i.i:                                   ; preds = %if.then.i.i1
  br i1 icmp ne (ptr @_ZTHN9grpc_core8Activity19g_current_activity_E, ptr null), label %10, label %_ZN9grpc_core8Activity7currentEv.exit.i.i.i.i

10:                                               ; preds = %if.end.i.i.i.i
  invoke void @_ZTHN9grpc_core8Activity19g_current_activity_E()
          to label %.noexc.i.i unwind label %terminate.lpad.i.i

.noexc.i.i:                                       ; preds = %10
  %.pre.i.i.i.i = load i16, ptr %waiter_.i.i.i, align 2
  br label %_ZN9grpc_core8Activity7currentEv.exit.i.i.i.i

_ZN9grpc_core8Activity7currentEv.exit.i.i.i.i:    ; preds = %.noexc.i.i, %if.end.i.i.i.i
  %11 = phi i16 [ %9, %if.end.i.i.i.i ], [ %.pre.i.i.i.i, %.noexc.i.i ]
  %12 = call noundef align 8 ptr @llvm.threadlocal.address.p0(ptr align 8 @_ZN9grpc_core8Activity19g_current_activity_E)
  %13 = load ptr, ptr %12, align 8
  store i16 0, ptr %waiter_.i.i.i, align 2
  %vtable.i.i.i.i = load ptr, ptr %13, align 8
  %vfn.i.i.i.i = getelementptr inbounds i8, ptr %vtable.i.i.i.i, i64 24
  %14 = load ptr, ptr %vfn.i.i.i.i, align 8
  invoke void %14(ptr noundef nonnull align 8 dereferenceable(8) %13, i16 noundef zeroext %11)
          to label %_ZN9grpc_core37ClientInitialMetadataOutstandingTokenD2Ev.exit.i unwind label %terminate.lpad.i.i

terminate.lpad.i.i:                               ; preds = %_ZN9grpc_core8Activity7currentEv.exit.i.i.i.i, %10
  %15 = landingpad { ptr, i32 }
          catch ptr null
  %16 = extractvalue { ptr, i32 } %15, 0
  call void @__clang_call_terminate(ptr %16) #24
  unreachable

_ZN9grpc_core37ClientInitialMetadataOutstandingTokenD2Ev.exit.i: ; preds = %_ZN9grpc_core8Activity7currentEv.exit.i.i.i.i, %if.then.i.i1, %_ZNSt8functionIFN9grpc_core12ArenaPromiseISt10unique_ptrI19grpc_metadata_batchNS0_5Arena13PooledDeleterEEEENS0_8CallArgsEEED2Ev.exit11.i
  %cmp.not.i1.i = icmp eq i64 %1, 0
  %17 = and i8 %0, 1
  %tobool.not.i.i.i = icmp eq i8 %17, 0
  %or.cond = select i1 %cmp.not.i1.i, i1 true, i1 %tobool.not.i.i.i
  br i1 %or.cond, label %_ZN9grpc_core8CallArgsD2Ev.exit, label %delete.notnull.i.i.i

delete.notnull.i.i.i:                             ; preds = %_ZN9grpc_core37ClientInitialMetadataOutstandingTokenD2Ev.exit.i
  call void @_ZN9grpc_core11MetadataMapI19grpc_metadata_batchJNS_16HttpPathMetadataENS_21HttpAuthorityMetadataENS_18HttpMethodMetadataENS_18HttpStatusMetadataENS_18HttpSchemeMetadataENS_19ContentTypeMetadataENS_10TeMetadataENS_20GrpcEncodingMetadataENS_27GrpcInternalEncodingRequestENS_26GrpcAcceptEncodingMetadataENS_18GrpcStatusMetadataENS_19GrpcTimeoutMetadataENS_31GrpcPreviousRpcAttemptsMetadataENS_27GrpcRetryPushbackMsMetadataENS_17UserAgentMetadataENS_19GrpcMessageMetadataENS_12HostMetadataENS_30EndpointLoadMetricsBinMetadataENS_26GrpcServerStatsBinMetadataENS_20GrpcTraceBinMetadataENS_19GrpcTagsBinMetadataENS_25GrpcLbClientStatsMetadataENS_17LbCostBinMetadataENS_15LbTokenMetadataENS_18XEnvoyPeerMetadataENS_22GrpcStreamNetworkStateENS_10PeerStringENS_17GrpcStatusContextENS_18GrpcStatusFromWireENS_20GrpcCallWasCancelledENS_12WaitForReadyENS_16GrpcTrailersOnlyENS_10GrpcTarPitENS_20GrpcRegisteredMethodEEED2Ev(ptr noundef nonnull align 8 dereferenceable(568) %2) #23
  call void @_ZdlPv(ptr noundef nonnull %2) #26
  br label %_ZN9grpc_core8CallArgsD2Ev.exit

_ZN9grpc_core8CallArgsD2Ev.exit:                  ; preds = %_ZN9grpc_core37ClientInitialMetadataOutstandingTokenD2Ev.exit.i, %delete.notnull.i.i.i
  resume { ptr, i32 } %6
}

; Function Attrs: nounwind uwtable
define linkonce_odr void @_ZN9grpc_core8CallArgsD2Ev(ptr noundef nonnull align 8 dereferenceable(56) %this) unnamed_addr #11 comdat align 2 personality ptr @__gxx_personality_v0 {
entry:
  %client_initial_metadata_outstanding = getelementptr inbounds i8, ptr %this, i64 16
  %0 = load ptr, ptr %client_initial_metadata_outstanding, align 8
  %cmp.not.i = icmp eq ptr %0, null
  br i1 %cmp.not.i, label %_ZN9grpc_core37ClientInitialMetadataOutstandingTokenD2Ev.exit, label %if.then.i

if.then.i:                                        ; preds = %entry
  store i8 0, ptr %0, align 2
  %has_value_.i.i = getelementptr inbounds i8, ptr %0, i64 1
  store i8 1, ptr %has_value_.i.i, align 1
  %waiter_.i.i = getelementptr inbounds i8, ptr %0, i64 2
  %1 = load i16, ptr %waiter_.i.i, align 2
  %cmp.i.i.i = icmp eq i16 %1, 0
  br i1 %cmp.i.i.i, label %_ZN9grpc_core37ClientInitialMetadataOutstandingTokenD2Ev.exit, label %if.end.i.i.i

if.end.i.i.i:                                     ; preds = %if.then.i
  br i1 icmp ne (ptr @_ZTHN9grpc_core8Activity19g_current_activity_E, ptr null), label %2, label %_ZN9grpc_core8Activity7currentEv.exit.i.i.i

2:                                                ; preds = %if.end.i.i.i
  invoke void @_ZTHN9grpc_core8Activity19g_current_activity_E()
          to label %.noexc.i unwind label %terminate.lpad.i

.noexc.i:                                         ; preds = %2
  %.pre.i.i.i = load i16, ptr %waiter_.i.i, align 2
  br label %_ZN9grpc_core8Activity7currentEv.exit.i.i.i

_ZN9grpc_core8Activity7currentEv.exit.i.i.i:      ; preds = %.noexc.i, %if.end.i.i.i
  %3 = phi i16 [ %1, %if.end.i.i.i ], [ %.pre.i.i.i, %.noexc.i ]
  %4 = tail call noundef align 8 ptr @llvm.threadlocal.address.p0(ptr align 8 @_ZN9grpc_core8Activity19g_current_activity_E)
  %5 = load ptr, ptr %4, align 8
  store i16 0, ptr %waiter_.i.i, align 2
  %vtable.i.i.i = load ptr, ptr %5, align 8
  %vfn.i.i.i = getelementptr inbounds i8, ptr %vtable.i.i.i, i64 24
  %6 = load ptr, ptr %vfn.i.i.i, align 8
  invoke void %6(ptr noundef nonnull align 8 dereferenceable(8) %5, i16 noundef zeroext %3)
          to label %_ZN9grpc_core37ClientInitialMetadataOutstandingTokenD2Ev.exit unwind label %terminate.lpad.i

terminate.lpad.i:                                 ; preds = %_ZN9grpc_core8Activity7currentEv.exit.i.i.i, %2
  %7 = landingpad { ptr, i32 }
          catch ptr null
  %8 = extractvalue { ptr, i32 } %7, 0
  tail call void @__clang_call_terminate(ptr %8) #24
  unreachable

_ZN9grpc_core37ClientInitialMetadataOutstandingTokenD2Ev.exit: ; preds = %entry, %if.then.i, %_ZN9grpc_core8Activity7currentEv.exit.i.i.i
  %add.ptr.i.i.i.i.i = getelementptr inbounds i8, ptr %this, i64 8
  %9 = load ptr, ptr %add.ptr.i.i.i.i.i, align 8
  %cmp.not.i1 = icmp eq ptr %9, null
  br i1 %cmp.not.i1, label %_ZNSt10unique_ptrI19grpc_metadata_batchN9grpc_core5Arena13PooledDeleterEED2Ev.exit, label %if.then.i2

if.then.i2:                                       ; preds = %_ZN9grpc_core37ClientInitialMetadataOutstandingTokenD2Ev.exit
  %10 = load i8, ptr %this, align 8
  %11 = and i8 %10, 1
  %tobool.not.i.i = icmp eq i8 %11, 0
  br i1 %tobool.not.i.i, label %_ZNSt10unique_ptrI19grpc_metadata_batchN9grpc_core5Arena13PooledDeleterEED2Ev.exit, label %delete.notnull.i.i

delete.notnull.i.i:                               ; preds = %if.then.i2
  tail call void @_ZN9grpc_core11MetadataMapI19grpc_metadata_batchJNS_16HttpPathMetadataENS_21HttpAuthorityMetadataENS_18HttpMethodMetadataENS_18HttpStatusMetadataENS_18HttpSchemeMetadataENS_19ContentTypeMetadataENS_10TeMetadataENS_20GrpcEncodingMetadataENS_27GrpcInternalEncodingRequestENS_26GrpcAcceptEncodingMetadataENS_18GrpcStatusMetadataENS_19GrpcTimeoutMetadataENS_31GrpcPreviousRpcAttemptsMetadataENS_27GrpcRetryPushbackMsMetadataENS_17UserAgentMetadataENS_19GrpcMessageMetadataENS_12HostMetadataENS_30EndpointLoadMetricsBinMetadataENS_26GrpcServerStatsBinMetadataENS_20GrpcTraceBinMetadataENS_19GrpcTagsBinMetadataENS_25GrpcLbClientStatsMetadataENS_17LbCostBinMetadataENS_15LbTokenMetadataENS_18XEnvoyPeerMetadataENS_22GrpcStreamNetworkStateENS_10PeerStringENS_17GrpcStatusContextENS_18GrpcStatusFromWireENS_20GrpcCallWasCancelledENS_12WaitForReadyENS_16GrpcTrailersOnlyENS_10GrpcTarPitENS_20GrpcRegisteredMethodEEED2Ev(ptr noundef nonnull align 8 dereferenceable(568) %9) #23
  tail call void @_ZdlPv(ptr noundef nonnull %9) #26
  br label %_ZNSt10unique_ptrI19grpc_metadata_batchN9grpc_core5Arena13PooledDeleterEED2Ev.exit

_ZNSt10unique_ptrI19grpc_metadata_batchN9grpc_core5Arena13PooledDeleterEED2Ev.exit: ; preds = %_ZN9grpc_core37ClientInitialMetadataOutstandingTokenD2Ev.exit, %if.then.i2, %delete.notnull.i.i
  store ptr null, ptr %add.ptr.i.i.i.i.i, align 8
  ret void
}

; Function Attrs: noreturn
declare void @_ZN9grpc_core5CrashESt17basic_string_viewIcSt11char_traitsIcEENS_14SourceLocationE(i64, ptr, ptr, i32) local_unnamed_addr #12

; Function Attrs: mustprogress nounwind uwtable
define linkonce_odr void @_ZNSt10unique_ptrI19grpc_metadata_batchN9grpc_core5Arena13PooledDeleterEED2Ev(ptr noundef nonnull align 8 dereferenceable(16) %this) unnamed_addr #13 comdat align 2 personality ptr @__gxx_personality_v0 {
entry:
  %add.ptr.i.i.i.i = getelementptr inbounds i8, ptr %this, i64 8
  %0 = load ptr, ptr %add.ptr.i.i.i.i, align 8
  %cmp.not = icmp eq ptr %0, null
  br i1 %cmp.not, label %if.end, label %if.then

if.then:                                          ; preds = %entry
  %1 = load i8, ptr %this, align 8
  %2 = and i8 %1, 1
  %tobool.not.i = icmp eq i8 %2, 0
  br i1 %tobool.not.i, label %if.end, label %delete.notnull.i

delete.notnull.i:                                 ; preds = %if.then
  tail call void @_ZN9grpc_core11MetadataMapI19grpc_metadata_batchJNS_16HttpPathMetadataENS_21HttpAuthorityMetadataENS_18HttpMethodMetadataENS_18HttpStatusMetadataENS_18HttpSchemeMetadataENS_19ContentTypeMetadataENS_10TeMetadataENS_20GrpcEncodingMetadataENS_27GrpcInternalEncodingRequestENS_26GrpcAcceptEncodingMetadataENS_18GrpcStatusMetadataENS_19GrpcTimeoutMetadataENS_31GrpcPreviousRpcAttemptsMetadataENS_27GrpcRetryPushbackMsMetadataENS_17UserAgentMetadataENS_19GrpcMessageMetadataENS_12HostMetadataENS_30EndpointLoadMetricsBinMetadataENS_26GrpcServerStatsBinMetadataENS_20GrpcTraceBinMetadataENS_19GrpcTagsBinMetadataENS_25GrpcLbClientStatsMetadataENS_17LbCostBinMetadataENS_15LbTokenMetadataENS_18XEnvoyPeerMetadataENS_22GrpcStreamNetworkStateENS_10PeerStringENS_17GrpcStatusContextENS_18GrpcStatusFromWireENS_20GrpcCallWasCancelledENS_12WaitForReadyENS_16GrpcTrailersOnlyENS_10GrpcTarPitENS_20GrpcRegisteredMethodEEED2Ev(ptr noundef nonnull align 8 dereferenceable(568) %0) #23
  tail call void @_ZdlPv(ptr noundef nonnull %0) #26
  br label %if.end

if.end:                                           ; preds = %delete.notnull.i, %if.then, %entry
  store ptr null, ptr %add.ptr.i.i.i.i, align 8
  ret void
}

; Function Attrs: nobuiltin nounwind
declare void @_ZdlPv(ptr noundef) local_unnamed_addr #14

; Function Attrs: mustprogress nounwind uwtable
define linkonce_odr void @_ZN9grpc_core11MetadataMapI19grpc_metadata_batchJNS_16HttpPathMetadataENS_21HttpAuthorityMetadataENS_18HttpMethodMetadataENS_18HttpStatusMetadataENS_18HttpSchemeMetadataENS_19ContentTypeMetadataENS_10TeMetadataENS_20GrpcEncodingMetadataENS_27GrpcInternalEncodingRequestENS_26GrpcAcceptEncodingMetadataENS_18GrpcStatusMetadataENS_19GrpcTimeoutMetadataENS_31GrpcPreviousRpcAttemptsMetadataENS_27GrpcRetryPushbackMsMetadataENS_17UserAgentMetadataENS_19GrpcMessageMetadataENS_12HostMetadataENS_30EndpointLoadMetricsBinMetadataENS_26GrpcServerStatsBinMetadataENS_20GrpcTraceBinMetadataENS_19GrpcTagsBinMetadataENS_25GrpcLbClientStatsMetadataENS_17LbCostBinMetadataENS_15LbTokenMetadataENS_18XEnvoyPeerMetadataENS_22GrpcStreamNetworkStateENS_10PeerStringENS_17GrpcStatusContextENS_18GrpcStatusFromWireENS_20GrpcCallWasCancelledENS_12WaitForReadyENS_16GrpcTrailersOnlyENS_10GrpcTarPitENS_20GrpcRegisteredMethodEEED2Ev(ptr noundef nonnull align 8 dereferenceable(568) %this) unnamed_addr #13 comdat align 2 personality ptr @__gxx_personality_v0 {
entry:
  %first_.i.i.i = getelementptr inbounds i8, ptr %this, i64 552
  %chunk.010.i.i.i = load ptr, ptr %first_.i.i.i, align 8
  %cmp.not11.i.i.i = icmp eq ptr %chunk.010.i.i.i, null
  br i1 %cmp.not11.i.i.i, label %_ZN9grpc_core15metadata_detail10UnknownMapD2Ev.exit, label %land.rhs.i.i.i

land.rhs.i.i.i:                                   ; preds = %entry, %for.end.i.i.i
  %chunk.012.i.i.i = phi ptr [ %chunk.0.i.i.i, %for.end.i.i.i ], [ %chunk.010.i.i.i, %entry ]
  %count.i.i.i = getelementptr inbounds i8, ptr %chunk.012.i.i.i, i64 8
  %0 = load i64, ptr %count.i.i.i, align 8
  %cmp2.not.i.i.i = icmp eq i64 %0, 0
  br i1 %cmp2.not.i.i.i, label %while.end.loopexit.i.i.i, label %for.body.lr.ph.i.i.i

for.body.lr.ph.i.i.i:                             ; preds = %land.rhs.i.i.i
  %data.i.i.i = getelementptr inbounds i8, ptr %chunk.012.i.i.i, i64 16
  br label %for.body.i.i.i

for.body.i.i.i:                                   ; preds = %_ZN9grpc_core17ManualConstructorISt4pairINS_5SliceES2_EE7DestroyEv.exit.i.i.i, %for.body.lr.ph.i.i.i
  %i.09.i.i.i = phi i64 [ 0, %for.body.lr.ph.i.i.i ], [ %inc.i.i.i, %_ZN9grpc_core17ManualConstructorISt4pairINS_5SliceES2_EE7DestroyEv.exit.i.i.i ]
  %arrayidx.i.i.i = getelementptr inbounds [10 x %"class.grpc_core::ManualConstructor"], ptr %data.i.i.i, i64 0, i64 %i.09.i.i.i
  %second.i.i.i.i.i.i = getelementptr inbounds i8, ptr %arrayidx.i.i.i, i64 32
  %1 = load ptr, ptr %second.i.i.i.i.i.i, align 8
  %cmp.i.i.i.i.i.i.i.i = icmp ugt ptr %1, inttoptr (i64 1 to ptr)
  br i1 %cmp.i.i.i.i.i.i.i.i, label %if.then.i.i.i.i.i.i.i.i, label %_ZN9grpc_core5SliceD2Ev.exit.i.i.i.i.i.i

if.then.i.i.i.i.i.i.i.i:                          ; preds = %for.body.i.i.i
  %2 = atomicrmw sub ptr %1, i64 1 acq_rel, align 8
  %cmp.i.i.i.i.i.i.i.i.i = icmp eq i64 %2, 1
  br i1 %cmp.i.i.i.i.i.i.i.i.i, label %if.then.i.i.i.i.i.i.i.i.i, label %_ZN9grpc_core5SliceD2Ev.exit.i.i.i.i.i.i

if.then.i.i.i.i.i.i.i.i.i:                        ; preds = %if.then.i.i.i.i.i.i.i.i
  %destroyer_fn_.i.i.i.i.i.i.i.i.i = getelementptr inbounds i8, ptr %1, i64 8
  %3 = load ptr, ptr %destroyer_fn_.i.i.i.i.i.i.i.i.i, align 8
  invoke void %3(ptr noundef nonnull %1)
          to label %_ZN9grpc_core5SliceD2Ev.exit.i.i.i.i.i.i unwind label %terminate.lpad.i.i.i.i.i.i.i

terminate.lpad.i.i.i.i.i.i.i:                     ; preds = %if.then.i.i.i.i.i.i.i.i.i
  %4 = landingpad { ptr, i32 }
          catch ptr null
  %5 = extractvalue { ptr, i32 } %4, 0
  tail call void @__clang_call_terminate(ptr %5) #24
  unreachable

_ZN9grpc_core5SliceD2Ev.exit.i.i.i.i.i.i:         ; preds = %if.then.i.i.i.i.i.i.i.i.i, %if.then.i.i.i.i.i.i.i.i, %for.body.i.i.i
  %6 = load ptr, ptr %arrayidx.i.i.i, align 8
  %cmp.i.i1.i.i.i.i.i.i = icmp ugt ptr %6, inttoptr (i64 1 to ptr)
  br i1 %cmp.i.i1.i.i.i.i.i.i, label %if.then.i.i2.i.i.i.i.i.i, label %_ZN9grpc_core17ManualConstructorISt4pairINS_5SliceES2_EE7DestroyEv.exit.i.i.i

if.then.i.i2.i.i.i.i.i.i:                         ; preds = %_ZN9grpc_core5SliceD2Ev.exit.i.i.i.i.i.i
  %7 = atomicrmw sub ptr %6, i64 1 acq_rel, align 8
  %cmp.i.i.i3.i.i.i.i.i.i = icmp eq i64 %7, 1
  br i1 %cmp.i.i.i3.i.i.i.i.i.i, label %if.then.i.i.i4.i.i.i.i.i.i, label %_ZN9grpc_core17ManualConstructorISt4pairINS_5SliceES2_EE7DestroyEv.exit.i.i.i

if.then.i.i.i4.i.i.i.i.i.i:                       ; preds = %if.then.i.i2.i.i.i.i.i.i
  %destroyer_fn_.i.i.i5.i.i.i.i.i.i = getelementptr inbounds i8, ptr %6, i64 8
  %8 = load ptr, ptr %destroyer_fn_.i.i.i5.i.i.i.i.i.i, align 8
  invoke void %8(ptr noundef nonnull %6)
          to label %_ZN9grpc_core17ManualConstructorISt4pairINS_5SliceES2_EE7DestroyEv.exit.i.i.i unwind label %terminate.lpad.i6.i.i.i.i.i.i

terminate.lpad.i6.i.i.i.i.i.i:                    ; preds = %if.then.i.i.i4.i.i.i.i.i.i
  %9 = landingpad { ptr, i32 }
          catch ptr null
  %10 = extractvalue { ptr, i32 } %9, 0
  tail call void @__clang_call_terminate(ptr %10) #24
  unreachable

_ZN9grpc_core17ManualConstructorISt4pairINS_5SliceES2_EE7DestroyEv.exit.i.i.i: ; preds = %if.then.i.i.i4.i.i.i.i.i.i, %if.then.i.i2.i.i.i.i.i.i, %_ZN9grpc_core5SliceD2Ev.exit.i.i.i.i.i.i
  %inc.i.i.i = add nuw i64 %i.09.i.i.i, 1
  %11 = load i64, ptr %count.i.i.i, align 8
  %cmp4.i.i.i = icmp ult i64 %inc.i.i.i, %11
  br i1 %cmp4.i.i.i, label %for.body.i.i.i, label %for.end.i.i.i, !llvm.loop !10

for.end.i.i.i:                                    ; preds = %_ZN9grpc_core17ManualConstructorISt4pairINS_5SliceES2_EE7DestroyEv.exit.i.i.i
  store i64 0, ptr %count.i.i.i, align 8
  %chunk.0.i.i.i = load ptr, ptr %chunk.012.i.i.i, align 8
  %cmp.not.i.i.i = icmp eq ptr %chunk.0.i.i.i, null
  br i1 %cmp.not.i.i.i, label %while.end.loopexit.i.i.i, label %land.rhs.i.i.i, !llvm.loop !12

while.end.loopexit.i.i.i:                         ; preds = %for.end.i.i.i, %land.rhs.i.i.i
  %.pre.i.i.i = load ptr, ptr %first_.i.i.i, align 8
  br label %_ZN9grpc_core15metadata_detail10UnknownMapD2Ev.exit

_ZN9grpc_core15metadata_detail10UnknownMapD2Ev.exit: ; preds = %entry, %while.end.loopexit.i.i.i
  %12 = phi ptr [ %.pre.i.i.i, %while.end.loopexit.i.i.i ], [ null, %entry ]
  %append_.i.i.i = getelementptr inbounds i8, ptr %this, i64 560
  store ptr %12, ptr %append_.i.i.i, align 8
  invoke void @_ZN9grpc_core5TableIJNS_15metadata_detail5ValueINS_17LbCostBinMetadataEvEENS2_INS_17GrpcStatusContextEvEENS2_INS_18XEnvoyPeerMetadataEvEENS2_INS_15LbTokenMetadataEvEENS2_INS_10PeerStringEvEENS2_INS_19GrpcTagsBinMetadataEvEENS2_INS_20GrpcTraceBinMetadataEvEENS2_INS_26GrpcServerStatsBinMetadataEvEENS2_INS_30EndpointLoadMetricsBinMetadataEvEENS2_INS_12HostMetadataEvEENS2_INS_19GrpcMessageMetadataEvEENS2_INS_17UserAgentMetadataEvEENS2_INS_21HttpAuthorityMetadataEvEENS2_INS_16HttpPathMetadataEvEENS2_INS_27GrpcRetryPushbackMsMetadataEvEENS2_INS_19GrpcTimeoutMetadataEvEENS2_INS_25GrpcLbClientStatsMetadataEvEENS2_INS_20GrpcRegisteredMethodEvEENS2_INS_27GrpcInternalEncodingRequestEvEENS2_INS_20GrpcEncodingMetadataEvEENS2_INS_18HttpStatusMetadataEvEENS2_INS_31GrpcPreviousRpcAttemptsMetadataEvEENS2_INS_18GrpcStatusMetadataEvEENS2_INS_12WaitForReadyEvEENS2_INS_26GrpcAcceptEncodingMetadataEvEENS2_INS_20GrpcCallWasCancelledEvEENS2_INS_18GrpcStatusFromWireEvEENS2_INS_10TeMetadataEvEENS2_INS_19ContentTypeMetadataEvEENS2_INS_18HttpSchemeMetadataEvEENS2_INS_16GrpcTrailersOnlyEvEENS2_INS_18HttpMethodMetadataEvEENS2_INS_10GrpcTarPitEvEENS2_INS_22GrpcStreamNetworkStateEvEEEE8DestructIJLm0ELm1ELm2ELm3ELm4ELm5ELm6ELm7ELm8ELm9ELm10ELm11ELm12ELm13ELm14ELm15ELm16ELm17ELm18ELm19ELm20ELm21ELm22ELm23ELm24ELm25ELm26ELm27ELm28ELm29ELm30ELm31ELm32ELm33EEEEvN4absl12lts_2023080216integer_sequenceImJXspT_EEEE(ptr noundef nonnull align 8 dereferenceable(544) %this)
          to label %_ZN9grpc_core5TableIJNS_15metadata_detail5ValueINS_17LbCostBinMetadataEvEENS2_INS_17GrpcStatusContextEvEENS2_INS_18XEnvoyPeerMetadataEvEENS2_INS_15LbTokenMetadataEvEENS2_INS_10PeerStringEvEENS2_INS_19GrpcTagsBinMetadataEvEENS2_INS_20GrpcTraceBinMetadataEvEENS2_INS_26GrpcServerStatsBinMetadataEvEENS2_INS_30EndpointLoadMetricsBinMetadataEvEENS2_INS_12HostMetadataEvEENS2_INS_19GrpcMessageMetadataEvEENS2_INS_17UserAgentMetadataEvEENS2_INS_21HttpAuthorityMetadataEvEENS2_INS_16HttpPathMetadataEvEENS2_INS_27GrpcRetryPushbackMsMetadataEvEENS2_INS_19GrpcTimeoutMetadataEvEENS2_INS_25GrpcLbClientStatsMetadataEvEENS2_INS_20GrpcRegisteredMethodEvEENS2_INS_27GrpcInternalEncodingRequestEvEENS2_INS_20GrpcEncodingMetadataEvEENS2_INS_18HttpStatusMetadataEvEENS2_INS_31GrpcPreviousRpcAttemptsMetadataEvEENS2_INS_18GrpcStatusMetadataEvEENS2_INS_12WaitForReadyEvEENS2_INS_26GrpcAcceptEncodingMetadataEvEENS2_INS_20GrpcCallWasCancelledEvEENS2_INS_18GrpcStatusFromWireEvEENS2_INS_10TeMetadataEvEENS2_INS_19ContentTypeMetadataEvEENS2_INS_ unwind label %terminate.lpad.i

terminate.lpad.i:                                 ; preds = %_ZN9grpc_core15metadata_detail10UnknownMapD2Ev.exit
  %13 = landingpad { ptr, i32 }
          catch ptr null
  %14 = extractvalue { ptr, i32 } %13, 0
  tail call void @__clang_call_terminate(ptr %14) #24
  unreachable

_ZN9grpc_core5TableIJNS_15metadata_detail5ValueINS_17LbCostBinMetadataEvEENS2_INS_17GrpcStatusContextEvEENS2_INS_18XEnvoyPeerMetadataEvEENS2_INS_15LbTokenMetadataEvEENS2_INS_10PeerStringEvEENS2_INS_19GrpcTagsBinMetadataEvEENS2_INS_20GrpcTraceBinMetadataEvEENS2_INS_26GrpcServerStatsBinMetadataEvEENS2_INS_30EndpointLoadMetricsBinMetadataEvEENS2_INS_12HostMetadataEvEENS2_INS_19GrpcMessageMetadataEvEENS2_INS_17UserAgentMetadataEvEENS2_INS_21HttpAuthorityMetadataEvEENS2_INS_16HttpPathMetadataEvEENS2_INS_27GrpcRetryPushbackMsMetadataEvEENS2_INS_19GrpcTimeoutMetadataEvEENS2_INS_25GrpcLbClientStatsMetadataEvEENS2_INS_20GrpcRegisteredMethodEvEENS2_INS_27GrpcInternalEncodingRequestEvEENS2_INS_20GrpcEncodingMetadataEvEENS2_INS_18HttpStatusMetadataEvEENS2_INS_31GrpcPreviousRpcAttemptsMetadataEvEENS2_INS_18GrpcStatusMetadataEvEENS2_INS_12WaitForReadyEvEENS2_INS_26GrpcAcceptEncodingMetadataEvEENS2_INS_20GrpcCallWasCancelledEvEENS2_INS_18GrpcStatusFromWireEvEENS2_INS_10TeMetadataEvEENS2_INS_19ContentTypeMetadataEvEENS2_INS_: ; preds = %_ZN9grpc_core15metadata_detail10UnknownMapD2Ev.exit
  ret void
}

; Function Attrs: mustprogress nounwind uwtable
define linkonce_odr void @_ZN9grpc_core5SliceD2Ev(ptr noundef nonnull align 8 dereferenceable(32) %this) unnamed_addr #13 comdat align 2 personality ptr @__gxx_personality_v0 {
entry:
  %0 = load ptr, ptr %this, align 8
  %cmp.i = icmp ugt ptr %0, inttoptr (i64 1 to ptr)
  br i1 %cmp.i, label %if.then.i, label %invoke.cont3

if.then.i:                                        ; preds = %entry
  %1 = atomicrmw sub ptr %0, i64 1 acq_rel, align 8
  %cmp.i.i = icmp eq i64 %1, 1
  br i1 %cmp.i.i, label %if.then.i.i, label %invoke.cont3

if.then.i.i:                                      ; preds = %if.then.i
  %destroyer_fn_.i.i = getelementptr inbounds i8, ptr %0, i64 8
  %2 = load ptr, ptr %destroyer_fn_.i.i, align 8
  invoke void %2(ptr noundef nonnull %0)
          to label %invoke.cont3 unwind label %terminate.lpad

invoke.cont3:                                     ; preds = %if.then.i, %entry, %if.then.i.i
  ret void

terminate.lpad:                                   ; preds = %if.then.i.i
  %3 = landingpad { ptr, i32 }
          catch ptr null
  %4 = extractvalue { ptr, i32 } %3, 0
  tail call void @__clang_call_terminate(ptr %4) #24
  unreachable
}

; Function Attrs: mustprogress uwtable
define linkonce_odr void @_ZN9grpc_core5TableIJNS_15metadata_detail5ValueINS_17LbCostBinMetadataEvEENS2_INS_17GrpcStatusContextEvEENS2_INS_18XEnvoyPeerMetadataEvEENS2_INS_15LbTokenMetadataEvEENS2_INS_10PeerStringEvEENS2_INS_19GrpcTagsBinMetadataEvEENS2_INS_20GrpcTraceBinMetadataEvEENS2_INS_26GrpcServerStatsBinMetadataEvEENS2_INS_30EndpointLoadMetricsBinMetadataEvEENS2_INS_12HostMetadataEvEENS2_INS_19GrpcMessageMetadataEvEENS2_INS_17UserAgentMetadataEvEENS2_INS_21HttpAuthorityMetadataEvEENS2_INS_16HttpPathMetadataEvEENS2_INS_27GrpcRetryPushbackMsMetadataEvEENS2_INS_19GrpcTimeoutMetadataEvEENS2_INS_25GrpcLbClientStatsMetadataEvEENS2_INS_20GrpcRegisteredMethodEvEENS2_INS_27GrpcInternalEncodingRequestEvEENS2_INS_20GrpcEncodingMetadataEvEENS2_INS_18HttpStatusMetadataEvEENS2_INS_31GrpcPreviousRpcAttemptsMetadataEvEENS2_INS_18GrpcStatusMetadataEvEENS2_INS_12WaitForReadyEvEENS2_INS_26GrpcAcceptEncodingMetadataEvEENS2_INS_20GrpcCallWasCancelledEvEENS2_INS_18GrpcStatusFromWireEvEENS2_INS_10TeMetadataEvEENS2_INS_19ContentTypeMetadataEvEENS2_INS_18HttpSchemeMetadataEvEENS2_INS_16GrpcTrailersOnlyEvEENS2_INS_18HttpMethodMetadataEvEENS2_INS_10GrpcTarPitEvEENS2_INS_22GrpcStreamNetworkStateEvEEEE8DestructIJLm0ELm1ELm2ELm3ELm4ELm5ELm6ELm7ELm8ELm9ELm10ELm11ELm12ELm13ELm14ELm15ELm16ELm17ELm18ELm19ELm20ELm21ELm22ELm23ELm24ELm25ELm26ELm27ELm28ELm29ELm30ELm31ELm32ELm33EEEEvN4absl12lts_2023080216integer_sequenceImJXspT_EEEE(ptr noundef nonnull align 8 dereferenceable(544) %this) local_unnamed_addr #3 comdat align 2 personality ptr @__gxx_personality_v0 {
entry:
  %0 = load i16, ptr %this, align 8
  %and2.i.i.i = and i16 %0, 1
  %cmp.i.i.not.i = icmp eq i16 %and2.i.i.i, 0
  %u.i.i.i = getelementptr inbounds i8, ptr %this, i64 496
  br i1 %cmp.i.i.not.i, label %_ZN9grpc_core12table_detail17DestructIfNotNullINS_15metadata_detail5ValueINS_17LbCostBinMetadataEvEEEEvPT_.exit, label %if.then.i

if.then.i:                                        ; preds = %entry
  %1 = load i64, ptr %u.i.i.i, align 8
  %cmp.i.i.i.i = icmp eq i64 %1, 0
  br i1 %cmp.i.i.i.i, label %_ZN9grpc_core12table_detail17DestructIfNotNullINS_15metadata_detail5ValueINS_17LbCostBinMetadataEvEEEEvPT_.exit, label %if.end.i.i.i.i

if.end.i.i.i.i:                                   ; preds = %if.then.i
  %and.i.i.i.i.i.i = and i64 %1, 1
  %tobool.i.not.i.i.i.i.i = icmp eq i64 %and.i.i.i.i.i.i, 0
  %data_.i.i.i.i.i.i = getelementptr inbounds i8, ptr %this, i64 504
  %2 = load ptr, ptr %data_.i.i.i.i.i.i, align 8
  %cond.i.i.i.i.i = select i1 %tobool.i.not.i.i.i.i.i, ptr %data_.i.i.i.i.i.i, ptr %2
  %cmp.not3.i.i.i.i.i.i = icmp eq i64 %1, 1
  br i1 %cmp.not3.i.i.i.i.i.i, label %if.then.i.i.i.i.i.i, label %for.body.i.preheader.i.i.i.i.i

for.body.i.preheader.i.i.i.i.i:                   ; preds = %if.end.i.i.i.i
  %shr.i.i.i.i.i.i = lshr i64 %1, 1
  br label %for.body.i.i.i.i.i.i

for.body.i.i.i.i.i.i:                             ; preds = %for.body.i.i.i.i.i.i, %for.body.i.preheader.i.i.i.i.i
  %i.04.i.i.i.i.i.i = phi i64 [ %dec.i.i.i.i.i.i, %for.body.i.i.i.i.i.i ], [ %shr.i.i.i.i.i.i, %for.body.i.preheader.i.i.i.i.i ]
  %dec.i.i.i.i.i.i = add nsw i64 %i.04.i.i.i.i.i.i, -1
  %name.i.i.i.i.i.i.i.i.i = getelementptr inbounds %"struct.grpc_core::LbCostBinMetadata::ValueType", ptr %cond.i.i.i.i.i, i64 %dec.i.i.i.i.i.i, i32 1
  tail call void @_ZNSt7__cxx1112basic_stringIcSt11char_traitsIcESaIcEED1Ev(ptr noundef nonnull align 8 dereferenceable(32) %name.i.i.i.i.i.i.i.i.i) #23
  %cmp.not.i.i.i.i.i.i = icmp eq i64 %dec.i.i.i.i.i.i, 0
  br i1 %cmp.not.i.i.i.i.i.i, label %_ZN4absl12lts_2023080223inlined_vector_internal14DestroyAdapterISaIN9grpc_core17LbCostBinMetadata9ValueTypeEELb0EE15DestroyElementsERS6_PS5_m.exit.i.i.i.i.i, label %for.body.i.i.i.i.i.i, !llvm.loop !13

_ZN4absl12lts_2023080223inlined_vector_internal14DestroyAdapterISaIN9grpc_core17LbCostBinMetadata9ValueTypeEELb0EE15DestroyElementsERS6_PS5_m.exit.i.i.i.i.i: ; preds = %for.body.i.i.i.i.i.i
  %.pre.i.i.i.i.i = load i64, ptr %u.i.i.i, align 8
  %.pre2.i.i.i.i.i = and i64 %.pre.i.i.i.i.i, 1
  %tobool.i.not.i.i.i.i.i.i = icmp eq i64 %.pre2.i.i.i.i.i, 0
  br i1 %tobool.i.not.i.i.i.i.i.i, label %_ZN9grpc_core12table_detail17DestructIfNotNullINS_15metadata_detail5ValueINS_17LbCostBinMetadataEvEEEEvPT_.exit, label %_ZN4absl12lts_2023080223inlined_vector_internal14DestroyAdapterISaIN9grpc_core17LbCostBinMetadata9ValueTypeEELb0EE15DestroyElementsERS6_PS5_m.exit.i.i.if.then.i.i.i_crit_edge.i.i.i

_ZN4absl12lts_2023080223inlined_vector_internal14DestroyAdapterISaIN9grpc_core17LbCostBinMetadata9ValueTypeEELb0EE15DestroyElementsERS6_PS5_m.exit.i.i.if.then.i.i.i_crit_edge.i.i.i: ; preds = %_ZN4absl12lts_2023080223inlined_vector_internal14DestroyAdapterISaIN9grpc_core17LbCostBinMetadata9ValueTypeEELb0EE15DestroyElementsERS6_PS5_m.exit.i.i.i.i.i
  %.pre.i.i.i = load ptr, ptr %data_.i.i.i.i.i.i, align 8
  br label %if.then.i.i.i.i.i.i

if.then.i.i.i.i.i.i:                              ; preds = %_ZN4absl12lts_2023080223inlined_vector_internal14DestroyAdapterISaIN9grpc_core17LbCostBinMetadata9ValueTypeEELb0EE15DestroyElementsERS6_PS5_m.exit.i.i.if.then.i.i.i_crit_edge.i.i.i, %if.end.i.i.i.i
  %3 = phi ptr [ %.pre.i.i.i, %_ZN4absl12lts_2023080223inlined_vector_internal14DestroyAdapterISaIN9grpc_core17LbCostBinMetadata9ValueTypeEELb0EE15DestroyElementsERS6_PS5_m.exit.i.i.if.then.i.i.i_crit_edge.i.i.i ], [ %2, %if.end.i.i.i.i ]
  tail call void @_ZdlPv(ptr noundef %3) #26
  br label %_ZN9grpc_core12table_detail17DestructIfNotNullINS_15metadata_detail5ValueINS_17LbCostBinMetadataEvEEEEvPT_.exit

_ZN9grpc_core12table_detail17DestructIfNotNullINS_15metadata_detail5ValueINS_17LbCostBinMetadataEvEEEEvPT_.exit: ; preds = %entry, %if.then.i, %_ZN4absl12lts_2023080223inlined_vector_internal14DestroyAdapterISaIN9grpc_core17LbCostBinMetadata9ValueTypeEELb0EE15DestroyElementsERS6_PS5_m.exit.i.i.i.i.i, %if.then.i.i.i.i.i.i
  %4 = load i16, ptr %this, align 8
  %and2.i.i.i1 = and i16 %4, 2
  %cmp.i.i.not.i2 = icmp eq i16 %and2.i.i.i1, 0
  %u.i.i.i.i = getelementptr inbounds i8, ptr %this, i64 456
  br i1 %cmp.i.i.not.i2, label %_ZN9grpc_core12table_detail17DestructIfNotNullINS_15metadata_detail5ValueINS_17GrpcStatusContextEvEEEEvPT_.exit, label %if.then.i4

if.then.i4:                                       ; preds = %_ZN9grpc_core12table_detail17DestructIfNotNullINS_15metadata_detail5ValueINS_17LbCostBinMetadataEvEEEEvPT_.exit
  %5 = load i64, ptr %u.i.i.i.i, align 8
  %cmp.i.i.i.i5 = icmp eq i64 %5, 0
  br i1 %cmp.i.i.i.i5, label %_ZN9grpc_core12table_detail17DestructIfNotNullINS_15metadata_detail5ValueINS_17GrpcStatusContextEvEEEEvPT_.exit, label %if.end.i.i.i.i6

if.end.i.i.i.i6:                                  ; preds = %if.then.i4
  %and.i.i.i.i.i.i7 = and i64 %5, 1
  %tobool.i.not.i.i.i.i.i8 = icmp eq i64 %and.i.i.i.i.i.i7, 0
  %data_.i.i.i.i.i.i9 = getelementptr inbounds i8, ptr %this, i64 464
  %6 = load ptr, ptr %data_.i.i.i.i.i.i9, align 8
  %cond.i.i.i.i.i10 = select i1 %tobool.i.not.i.i.i.i.i8, ptr %data_.i.i.i.i.i.i9, ptr %6
  %cmp.not3.i.i.i.i.i.i11 = icmp eq i64 %5, 1
  br i1 %cmp.not3.i.i.i.i.i.i11, label %if.then.i.i.i.i.i.i22, label %for.body.i.preheader.i.i.i.i.i12

for.body.i.preheader.i.i.i.i.i12:                 ; preds = %if.end.i.i.i.i6
  %shr.i.i.i.i.i.i13 = lshr i64 %5, 1
  br label %for.body.i.i.i.i.i.i14

for.body.i.i.i.i.i.i14:                           ; preds = %for.body.i.i.i.i.i.i14, %for.body.i.preheader.i.i.i.i.i12
  %i.04.i.i.i.i.i.i15 = phi i64 [ %dec.i.i.i.i.i.i16, %for.body.i.i.i.i.i.i14 ], [ %shr.i.i.i.i.i.i13, %for.body.i.preheader.i.i.i.i.i12 ]
  %dec.i.i.i.i.i.i16 = add nsw i64 %i.04.i.i.i.i.i.i15, -1
  %add.ptr.i.i.i.i.i.i = getelementptr inbounds %"class.std::__cxx11::basic_string", ptr %cond.i.i.i.i.i10, i64 %dec.i.i.i.i.i.i16
  tail call void @_ZNSt7__cxx1112basic_stringIcSt11char_traitsIcESaIcEED1Ev(ptr noundef nonnull align 8 dereferenceable(32) %add.ptr.i.i.i.i.i.i) #23
  %cmp.not.i.i.i.i.i.i17 = icmp eq i64 %dec.i.i.i.i.i.i16, 0
  br i1 %cmp.not.i.i.i.i.i.i17, label %_ZN4absl12lts_2023080223inlined_vector_internal14DestroyAdapterISaINSt7__cxx1112basic_stringIcSt11char_traitsIcESaIcEEEELb0EE15DestroyElementsERS9_PS8_m.exit.i.i.i.i.i, label %for.body.i.i.i.i.i.i14, !llvm.loop !14

_ZN4absl12lts_2023080223inlined_vector_internal14DestroyAdapterISaINSt7__cxx1112basic_stringIcSt11char_traitsIcESaIcEEEELb0EE15DestroyElementsERS9_PS8_m.exit.i.i.i.i.i: ; preds = %for.body.i.i.i.i.i.i14
  %.pre.i.i.i.i.i18 = load i64, ptr %u.i.i.i.i, align 8
  %.pre2.i.i.i.i.i19 = and i64 %.pre.i.i.i.i.i18, 1
  %tobool.i.not.i.i.i.i.i.i20 = icmp eq i64 %.pre2.i.i.i.i.i19, 0
  br i1 %tobool.i.not.i.i.i.i.i.i20, label %_ZN9grpc_core12table_detail17DestructIfNotNullINS_15metadata_detail5ValueINS_17GrpcStatusContextEvEEEEvPT_.exit, label %_ZN4absl12lts_2023080223inlined_vector_internal14DestroyAdapterISaINSt7__cxx1112basic_stringIcSt11char_traitsIcESaIcEEEELb0EE15DestroyElementsERS9_PS8_m.exit.i.i.if.then.i.i.i_crit_edge.i.i.i

_ZN4absl12lts_2023080223inlined_vector_internal14DestroyAdapterISaINSt7__cxx1112basic_stringIcSt11char_traitsIcESaIcEEEELb0EE15DestroyElementsERS9_PS8_m.exit.i.i.if.then.i.i.i_crit_edge.i.i.i: ; preds = %_ZN4absl12lts_2023080223inlined_vector_internal14DestroyAdapterISaINSt7__cxx1112basic_stringIcSt11char_traitsIcESaIcEEEELb0EE15DestroyElementsERS9_PS8_m.exit.i.i.i.i.i
  %.pre.i.i.i21 = load ptr, ptr %data_.i.i.i.i.i.i9, align 8
  br label %if.then.i.i.i.i.i.i22

if.then.i.i.i.i.i.i22:                            ; preds = %_ZN4absl12lts_2023080223inlined_vector_internal14DestroyAdapterISaINSt7__cxx1112basic_stringIcSt11char_traitsIcESaIcEEEELb0EE15DestroyElementsERS9_PS8_m.exit.i.i.if.then.i.i.i_crit_edge.i.i.i, %if.end.i.i.i.i6
  %7 = phi ptr [ %.pre.i.i.i21, %_ZN4absl12lts_2023080223inlined_vector_internal14DestroyAdapterISaINSt7__cxx1112basic_stringIcSt11char_traitsIcESaIcEEEELb0EE15DestroyElementsERS9_PS8_m.exit.i.i.if.then.i.i.i_crit_edge.i.i.i ], [ %6, %if.end.i.i.i.i6 ]
  tail call void @_ZdlPv(ptr noundef %7) #26
  br label %_ZN9grpc_core12table_detail17DestructIfNotNullINS_15metadata_detail5ValueINS_17GrpcStatusContextEvEEEEvPT_.exit

_ZN9grpc_core12table_detail17DestructIfNotNullINS_15metadata_detail5ValueINS_17GrpcStatusContextEvEEEEvPT_.exit: ; preds = %_ZN9grpc_core12table_detail17DestructIfNotNullINS_15metadata_detail5ValueINS_17LbCostBinMetadataEvEEEEvPT_.exit, %if.then.i4, %_ZN4absl12lts_2023080223inlined_vector_internal14DestroyAdapterISaINSt7__cxx1112basic_stringIcSt11char_traitsIcESaIcEEEELb0EE15DestroyElementsERS9_PS8_m.exit.i.i.i.i.i, %if.then.i.i.i.i.i.i22
  %8 = load i16, ptr %this, align 8
  %and2.i.i.i23 = and i16 %8, 4
  %cmp.i.i.not.i24 = icmp eq i16 %and2.i.i.i23, 0
  br i1 %cmp.i.i.not.i24, label %_ZN9grpc_core12table_detail17DestructIfNotNullINS_15metadata_detail5ValueINS_18XEnvoyPeerMetadataEvEEEEvPT_.exit, label %if.then.i26

if.then.i26:                                      ; preds = %_ZN9grpc_core12table_detail17DestructIfNotNullINS_15metadata_detail5ValueINS_17GrpcStatusContextEvEEEEvPT_.exit
  %u.i.i.i.i.i = getelementptr inbounds i8, ptr %this, i64 424
  %9 = load ptr, ptr %u.i.i.i.i.i, align 8
  %cmp.i.i.i.i27 = icmp ugt ptr %9, inttoptr (i64 1 to ptr)
  br i1 %cmp.i.i.i.i27, label %if.then.i.i.i.i, label %_ZN9grpc_core12table_detail17DestructIfNotNullINS_15metadata_detail5ValueINS_18XEnvoyPeerMetadataEvEEEEvPT_.exit

if.then.i.i.i.i:                                  ; preds = %if.then.i26
  %10 = atomicrmw sub ptr %9, i64 1 acq_rel, align 8
  %cmp.i.i.i.i.i = icmp eq i64 %10, 1
  br i1 %cmp.i.i.i.i.i, label %if.then.i.i.i.i.i, label %_ZN9grpc_core12table_detail17DestructIfNotNullINS_15metadata_detail5ValueINS_18XEnvoyPeerMetadataEvEEEEvPT_.exit

if.then.i.i.i.i.i:                                ; preds = %if.then.i.i.i.i
  %destroyer_fn_.i.i.i.i.i = getelementptr inbounds i8, ptr %9, i64 8
  %11 = load ptr, ptr %destroyer_fn_.i.i.i.i.i, align 8
  invoke void %11(ptr noundef nonnull %9)
          to label %_ZN9grpc_core12table_detail17DestructIfNotNullINS_15metadata_detail5ValueINS_18XEnvoyPeerMetadataEvEEEEvPT_.exit unwind label %terminate.lpad.i.i.i

terminate.lpad.i.i.i:                             ; preds = %if.then.i.i.i.i.i
  %12 = landingpad { ptr, i32 }
          catch ptr null
  %13 = extractvalue { ptr, i32 } %12, 0
  tail call void @__clang_call_terminate(ptr %13) #24
  unreachable

_ZN9grpc_core12table_detail17DestructIfNotNullINS_15metadata_detail5ValueINS_18XEnvoyPeerMetadataEvEEEEvPT_.exit: ; preds = %_ZN9grpc_core12table_detail17DestructIfNotNullINS_15metadata_detail5ValueINS_17GrpcStatusContextEvEEEEvPT_.exit, %if.then.i26, %if.then.i.i.i.i, %if.then.i.i.i.i.i
  %14 = load i16, ptr %this, align 8
  %and2.i.i.i28 = and i16 %14, 8
  %cmp.i.i.not.i29 = icmp eq i16 %and2.i.i.i28, 0
  br i1 %cmp.i.i.not.i29, label %_ZN9grpc_core12table_detail17DestructIfNotNullINS_15metadata_detail5ValueINS_15LbTokenMetadataEvEEEEvPT_.exit, label %if.then.i31

if.then.i31:                                      ; preds = %_ZN9grpc_core12table_detail17DestructIfNotNullINS_15metadata_detail5ValueINS_18XEnvoyPeerMetadataEvEEEEvPT_.exit
  %u.i.i.i.i.i.i = getelementptr inbounds i8, ptr %this, i64 392
  %15 = load ptr, ptr %u.i.i.i.i.i.i, align 8
  %cmp.i.i.i.i32 = icmp ugt ptr %15, inttoptr (i64 1 to ptr)
  br i1 %cmp.i.i.i.i32, label %if.then.i.i.i.i33, label %_ZN9grpc_core12table_detail17DestructIfNotNullINS_15metadata_detail5ValueINS_15LbTokenMetadataEvEEEEvPT_.exit

if.then.i.i.i.i33:                                ; preds = %if.then.i31
  %16 = atomicrmw sub ptr %15, i64 1 acq_rel, align 8
  %cmp.i.i.i.i.i34 = icmp eq i64 %16, 1
  br i1 %cmp.i.i.i.i.i34, label %if.then.i.i.i.i.i35, label %_ZN9grpc_core12table_detail17DestructIfNotNullINS_15metadata_detail5ValueINS_15LbTokenMetadataEvEEEEvPT_.exit

if.then.i.i.i.i.i35:                              ; preds = %if.then.i.i.i.i33
  %destroyer_fn_.i.i.i.i.i36 = getelementptr inbounds i8, ptr %15, i64 8
  %17 = load ptr, ptr %destroyer_fn_.i.i.i.i.i36, align 8
  invoke void %17(ptr noundef nonnull %15)
          to label %_ZN9grpc_core12table_detail17DestructIfNotNullINS_15metadata_detail5ValueINS_15LbTokenMetadataEvEEEEvPT_.exit unwind label %terminate.lpad.i.i.i37

terminate.lpad.i.i.i37:                           ; preds = %if.then.i.i.i.i.i35
  %18 = landingpad { ptr, i32 }
          catch ptr null
  %19 = extractvalue { ptr, i32 } %18, 0
  tail call void @__clang_call_terminate(ptr %19) #24
  unreachable

_ZN9grpc_core12table_detail17DestructIfNotNullINS_15metadata_detail5ValueINS_15LbTokenMetadataEvEEEEvPT_.exit: ; preds = %_ZN9grpc_core12table_detail17DestructIfNotNullINS_15metadata_detail5ValueINS_18XEnvoyPeerMetadataEvEEEEvPT_.exit, %if.then.i31, %if.then.i.i.i.i33, %if.then.i.i.i.i.i35
  %20 = load i16, ptr %this, align 8
  %and2.i.i.i38 = and i16 %20, 16
  %cmp.i.i.not.i39 = icmp eq i16 %and2.i.i.i38, 0
  br i1 %cmp.i.i.not.i39, label %_ZN9grpc_core12table_detail17DestructIfNotNullINS_15metadata_detail5ValueINS_10PeerStringEvEEEEvPT_.exit, label %if.then.i41

if.then.i41:                                      ; preds = %_ZN9grpc_core12table_detail17DestructIfNotNullINS_15metadata_detail5ValueINS_15LbTokenMetadataEvEEEEvPT_.exit
  %u.i.i.i.i.i.i.i = getelementptr inbounds i8, ptr %this, i64 360
  %21 = load ptr, ptr %u.i.i.i.i.i.i.i, align 8
  %cmp.i.i.i.i42 = icmp ugt ptr %21, inttoptr (i64 1 to ptr)
  br i1 %cmp.i.i.i.i42, label %if.then.i.i.i.i43, label %_ZN9grpc_core12table_detail17DestructIfNotNullINS_15metadata_detail5ValueINS_10PeerStringEvEEEEvPT_.exit

if.then.i.i.i.i43:                                ; preds = %if.then.i41
  %22 = atomicrmw sub ptr %21, i64 1 acq_rel, align 8
  %cmp.i.i.i.i.i44 = icmp eq i64 %22, 1
  br i1 %cmp.i.i.i.i.i44, label %if.then.i.i.i.i.i45, label %_ZN9grpc_core12table_detail17DestructIfNotNullINS_15metadata_detail5ValueINS_10PeerStringEvEEEEvPT_.exit

if.then.i.i.i.i.i45:                              ; preds = %if.then.i.i.i.i43
  %destroyer_fn_.i.i.i.i.i46 = getelementptr inbounds i8, ptr %21, i64 8
  %23 = load ptr, ptr %destroyer_fn_.i.i.i.i.i46, align 8
  invoke void %23(ptr noundef nonnull %21)
          to label %_ZN9grpc_core12table_detail17DestructIfNotNullINS_15metadata_detail5ValueINS_10PeerStringEvEEEEvPT_.exit unwind label %terminate.lpad.i.i.i47

terminate.lpad.i.i.i47:                           ; preds = %if.then.i.i.i.i.i45
  %24 = landingpad { ptr, i32 }
          catch ptr null
  %25 = extractvalue { ptr, i32 } %24, 0
  tail call void @__clang_call_terminate(ptr %25) #24
  unreachable

_ZN9grpc_core12table_detail17DestructIfNotNullINS_15metadata_detail5ValueINS_10PeerStringEvEEEEvPT_.exit: ; preds = %_ZN9grpc_core12table_detail17DestructIfNotNullINS_15metadata_detail5ValueINS_15LbTokenMetadataEvEEEEvPT_.exit, %if.then.i41, %if.then.i.i.i.i43, %if.then.i.i.i.i.i45
  %26 = load i16, ptr %this, align 8
  %and2.i.i.i48 = and i16 %26, 32
  %cmp.i.i.not.i49 = icmp eq i16 %and2.i.i.i48, 0
  br i1 %cmp.i.i.not.i49, label %_ZN9grpc_core12table_detail17DestructIfNotNullINS_15metadata_detail5ValueINS_19GrpcTagsBinMetadataEvEEEEvPT_.exit, label %if.then.i51

if.then.i51:                                      ; preds = %_ZN9grpc_core12table_detail17DestructIfNotNullINS_15metadata_detail5ValueINS_10PeerStringEvEEEEvPT_.exit
  %u.i.i.i.i.i.i.i.i = getelementptr inbounds i8, ptr %this, i64 328
  %27 = load ptr, ptr %u.i.i.i.i.i.i.i.i, align 8
  %cmp.i.i.i.i52 = icmp ugt ptr %27, inttoptr (i64 1 to ptr)
  br i1 %cmp.i.i.i.i52, label %if.then.i.i.i.i53, label %_ZN9grpc_core12table_detail17DestructIfNotNullINS_15metadata_detail5ValueINS_19GrpcTagsBinMetadataEvEEEEvPT_.exit

if.then.i.i.i.i53:                                ; preds = %if.then.i51
  %28 = atomicrmw sub ptr %27, i64 1 acq_rel, align 8
  %cmp.i.i.i.i.i54 = icmp eq i64 %28, 1
  br i1 %cmp.i.i.i.i.i54, label %if.then.i.i.i.i.i55, label %_ZN9grpc_core12table_detail17DestructIfNotNullINS_15metadata_detail5ValueINS_19GrpcTagsBinMetadataEvEEEEvPT_.exit

if.then.i.i.i.i.i55:                              ; preds = %if.then.i.i.i.i53
  %destroyer_fn_.i.i.i.i.i56 = getelementptr inbounds i8, ptr %27, i64 8
  %29 = load ptr, ptr %destroyer_fn_.i.i.i.i.i56, align 8
  invoke void %29(ptr noundef nonnull %27)
          to label %_ZN9grpc_core12table_detail17DestructIfNotNullINS_15metadata_detail5ValueINS_19GrpcTagsBinMetadataEvEEEEvPT_.exit unwind label %terminate.lpad.i.i.i57

terminate.lpad.i.i.i57:                           ; preds = %if.then.i.i.i.i.i55
  %30 = landingpad { ptr, i32 }
          catch ptr null
  %31 = extractvalue { ptr, i32 } %30, 0
  tail call void @__clang_call_terminate(ptr %31) #24
  unreachable

_ZN9grpc_core12table_detail17DestructIfNotNullINS_15metadata_detail5ValueINS_19GrpcTagsBinMetadataEvEEEEvPT_.exit: ; preds = %_ZN9grpc_core12table_detail17DestructIfNotNullINS_15metadata_detail5ValueINS_10PeerStringEvEEEEvPT_.exit, %if.then.i51, %if.then.i.i.i.i53, %if.then.i.i.i.i.i55
  %32 = load i16, ptr %this, align 8
  %and2.i.i.i58 = and i16 %32, 64
  %cmp.i.i.not.i59 = icmp eq i16 %and2.i.i.i58, 0
  br i1 %cmp.i.i.not.i59, label %_ZN9grpc_core12table_detail17DestructIfNotNullINS_15metadata_detail5ValueINS_20GrpcTraceBinMetadataEvEEEEvPT_.exit, label %if.then.i61

if.then.i61:                                      ; preds = %_ZN9grpc_core12table_detail17DestructIfNotNullINS_15metadata_detail5ValueINS_19GrpcTagsBinMetadataEvEEEEvPT_.exit
  %u.i.i.i.i.i.i.i.i.i = getelementptr inbounds i8, ptr %this, i64 296
  %33 = load ptr, ptr %u.i.i.i.i.i.i.i.i.i, align 8
  %cmp.i.i.i.i62 = icmp ugt ptr %33, inttoptr (i64 1 to ptr)
  br i1 %cmp.i.i.i.i62, label %if.then.i.i.i.i63, label %_ZN9grpc_core12table_detail17DestructIfNotNullINS_15metadata_detail5ValueINS_20GrpcTraceBinMetadataEvEEEEvPT_.exit

if.then.i.i.i.i63:                                ; preds = %if.then.i61
  %34 = atomicrmw sub ptr %33, i64 1 acq_rel, align 8
  %cmp.i.i.i.i.i64 = icmp eq i64 %34, 1
  br i1 %cmp.i.i.i.i.i64, label %if.then.i.i.i.i.i65, label %_ZN9grpc_core12table_detail17DestructIfNotNullINS_15metadata_detail5ValueINS_20GrpcTraceBinMetadataEvEEEEvPT_.exit

if.then.i.i.i.i.i65:                              ; preds = %if.then.i.i.i.i63
  %destroyer_fn_.i.i.i.i.i66 = getelementptr inbounds i8, ptr %33, i64 8
  %35 = load ptr, ptr %destroyer_fn_.i.i.i.i.i66, align 8
  invoke void %35(ptr noundef nonnull %33)
          to label %_ZN9grpc_core12table_detail17DestructIfNotNullINS_15metadata_detail5ValueINS_20GrpcTraceBinMetadataEvEEEEvPT_.exit unwind label %terminate.lpad.i.i.i67

terminate.lpad.i.i.i67:                           ; preds = %if.then.i.i.i.i.i65
  %36 = landingpad { ptr, i32 }
          catch ptr null
  %37 = extractvalue { ptr, i32 } %36, 0
  tail call void @__clang_call_terminate(ptr %37) #24
  unreachable

_ZN9grpc_core12table_detail17DestructIfNotNullINS_15metadata_detail5ValueINS_20GrpcTraceBinMetadataEvEEEEvPT_.exit: ; preds = %_ZN9grpc_core12table_detail17DestructIfNotNullINS_15metadata_detail5ValueINS_19GrpcTagsBinMetadataEvEEEEvPT_.exit, %if.then.i61, %if.then.i.i.i.i63, %if.then.i.i.i.i.i65
  %38 = load i16, ptr %this, align 8
  %and2.i.i.i68 = and i16 %38, 128
  %cmp.i.i.not.i69 = icmp eq i16 %and2.i.i.i68, 0
  br i1 %cmp.i.i.not.i69, label %_ZN9grpc_core12table_detail17DestructIfNotNullINS_15metadata_detail5ValueINS_26GrpcServerStatsBinMetadataEvEEEEvPT_.exit, label %if.then.i71

if.then.i71:                                      ; preds = %_ZN9grpc_core12table_detail17DestructIfNotNullINS_15metadata_detail5ValueINS_20GrpcTraceBinMetadataEvEEEEvPT_.exit
  %u.i.i.i.i.i.i.i.i.i.i = getelementptr inbounds i8, ptr %this, i64 264
  %39 = load ptr, ptr %u.i.i.i.i.i.i.i.i.i.i, align 8
  %cmp.i.i.i.i72 = icmp ugt ptr %39, inttoptr (i64 1 to ptr)
  br i1 %cmp.i.i.i.i72, label %if.then.i.i.i.i73, label %_ZN9grpc_core12table_detail17DestructIfNotNullINS_15metadata_detail5ValueINS_26GrpcServerStatsBinMetadataEvEEEEvPT_.exit

if.then.i.i.i.i73:                                ; preds = %if.then.i71
  %40 = atomicrmw sub ptr %39, i64 1 acq_rel, align 8
  %cmp.i.i.i.i.i74 = icmp eq i64 %40, 1
  br i1 %cmp.i.i.i.i.i74, label %if.then.i.i.i.i.i75, label %_ZN9grpc_core12table_detail17DestructIfNotNullINS_15metadata_detail5ValueINS_26GrpcServerStatsBinMetadataEvEEEEvPT_.exit

if.then.i.i.i.i.i75:                              ; preds = %if.then.i.i.i.i73
  %destroyer_fn_.i.i.i.i.i76 = getelementptr inbounds i8, ptr %39, i64 8
  %41 = load ptr, ptr %destroyer_fn_.i.i.i.i.i76, align 8
  invoke void %41(ptr noundef nonnull %39)
          to label %_ZN9grpc_core12table_detail17DestructIfNotNullINS_15metadata_detail5ValueINS_26GrpcServerStatsBinMetadataEvEEEEvPT_.exit unwind label %terminate.lpad.i.i.i77

terminate.lpad.i.i.i77:                           ; preds = %if.then.i.i.i.i.i75
  %42 = landingpad { ptr, i32 }
          catch ptr null
  %43 = extractvalue { ptr, i32 } %42, 0
  tail call void @__clang_call_terminate(ptr %43) #24
  unreachable

_ZN9grpc_core12table_detail17DestructIfNotNullINS_15metadata_detail5ValueINS_26GrpcServerStatsBinMetadataEvEEEEvPT_.exit: ; preds = %_ZN9grpc_core12table_detail17DestructIfNotNullINS_15metadata_detail5ValueINS_20GrpcTraceBinMetadataEvEEEEvPT_.exit, %if.then.i71, %if.then.i.i.i.i73, %if.then.i.i.i.i.i75
  %44 = load i16, ptr %this, align 8
  %and2.i.i.i78 = and i16 %44, 256
  %cmp.i.i.not.i79 = icmp eq i16 %and2.i.i.i78, 0
  br i1 %cmp.i.i.not.i79, label %_ZN9grpc_core12table_detail17DestructIfNotNullINS_15metadata_detail5ValueINS_30EndpointLoadMetricsBinMetadataEvEEEEvPT_.exit, label %if.then.i81

if.then.i81:                                      ; preds = %_ZN9grpc_core12table_detail17DestructIfNotNullINS_15metadata_detail5ValueINS_26GrpcServerStatsBinMetadataEvEEEEvPT_.exit
  %u.i.i.i.i.i.i.i.i.i.i.i = getelementptr inbounds i8, ptr %this, i64 232
  %45 = load ptr, ptr %u.i.i.i.i.i.i.i.i.i.i.i, align 8
  %cmp.i.i.i.i82 = icmp ugt ptr %45, inttoptr (i64 1 to ptr)
  br i1 %cmp.i.i.i.i82, label %if.then.i.i.i.i83, label %_ZN9grpc_core12table_detail17DestructIfNotNullINS_15metadata_detail5ValueINS_30EndpointLoadMetricsBinMetadataEvEEEEvPT_.exit

if.then.i.i.i.i83:                                ; preds = %if.then.i81
  %46 = atomicrmw sub ptr %45, i64 1 acq_rel, align 8
  %cmp.i.i.i.i.i84 = icmp eq i64 %46, 1
  br i1 %cmp.i.i.i.i.i84, label %if.then.i.i.i.i.i85, label %_ZN9grpc_core12table_detail17DestructIfNotNullINS_15metadata_detail5ValueINS_30EndpointLoadMetricsBinMetadataEvEEEEvPT_.exit

if.then.i.i.i.i.i85:                              ; preds = %if.then.i.i.i.i83
  %destroyer_fn_.i.i.i.i.i86 = getelementptr inbounds i8, ptr %45, i64 8
  %47 = load ptr, ptr %destroyer_fn_.i.i.i.i.i86, align 8
  invoke void %47(ptr noundef nonnull %45)
          to label %_ZN9grpc_core12table_detail17DestructIfNotNullINS_15metadata_detail5ValueINS_30EndpointLoadMetricsBinMetadataEvEEEEvPT_.exit unwind label %terminate.lpad.i.i.i87

terminate.lpad.i.i.i87:                           ; preds = %if.then.i.i.i.i.i85
  %48 = landingpad { ptr, i32 }
          catch ptr null
  %49 = extractvalue { ptr, i32 } %48, 0
  tail call void @__clang_call_terminate(ptr %49) #24
  unreachable

_ZN9grpc_core12table_detail17DestructIfNotNullINS_15metadata_detail5ValueINS_30EndpointLoadMetricsBinMetadataEvEEEEvPT_.exit: ; preds = %_ZN9grpc_core12table_detail17DestructIfNotNullINS_15metadata_detail5ValueINS_26GrpcServerStatsBinMetadataEvEEEEvPT_.exit, %if.then.i81, %if.then.i.i.i.i83, %if.then.i.i.i.i.i85
  %50 = load i16, ptr %this, align 8
  %and2.i.i.i88 = and i16 %50, 512
  %cmp.i.i.not.i89 = icmp eq i16 %and2.i.i.i88, 0
  br i1 %cmp.i.i.not.i89, label %_ZN9grpc_core12table_detail17DestructIfNotNullINS_15metadata_detail5ValueINS_12HostMetadataEvEEEEvPT_.exit, label %if.then.i91

if.then.i91:                                      ; preds = %_ZN9grpc_core12table_detail17DestructIfNotNullINS_15metadata_detail5ValueINS_30EndpointLoadMetricsBinMetadataEvEEEEvPT_.exit
  %u.i.i.i.i.i.i.i.i.i.i.i.i = getelementptr inbounds i8, ptr %this, i64 200
  %51 = load ptr, ptr %u.i.i.i.i.i.i.i.i.i.i.i.i, align 8
  %cmp.i.i.i.i92 = icmp ugt ptr %51, inttoptr (i64 1 to ptr)
  br i1 %cmp.i.i.i.i92, label %if.then.i.i.i.i93, label %_ZN9grpc_core12table_detail17DestructIfNotNullINS_15metadata_detail5ValueINS_12HostMetadataEvEEEEvPT_.exit

if.then.i.i.i.i93:                                ; preds = %if.then.i91
  %52 = atomicrmw sub ptr %51, i64 1 acq_rel, align 8
  %cmp.i.i.i.i.i94 = icmp eq i64 %52, 1
  br i1 %cmp.i.i.i.i.i94, label %if.then.i.i.i.i.i95, label %_ZN9grpc_core12table_detail17DestructIfNotNullINS_15metadata_detail5ValueINS_12HostMetadataEvEEEEvPT_.exit

if.then.i.i.i.i.i95:                              ; preds = %if.then.i.i.i.i93
  %destroyer_fn_.i.i.i.i.i96 = getelementptr inbounds i8, ptr %51, i64 8
  %53 = load ptr, ptr %destroyer_fn_.i.i.i.i.i96, align 8
  invoke void %53(ptr noundef nonnull %51)
          to label %_ZN9grpc_core12table_detail17DestructIfNotNullINS_15metadata_detail5ValueINS_12HostMetadataEvEEEEvPT_.exit unwind label %terminate.lpad.i.i.i97

terminate.lpad.i.i.i97:                           ; preds = %if.then.i.i.i.i.i95
  %54 = landingpad { ptr, i32 }
          catch ptr null
  %55 = extractvalue { ptr, i32 } %54, 0
  tail call void @__clang_call_terminate(ptr %55) #24
  unreachable

_ZN9grpc_core12table_detail17DestructIfNotNullINS_15metadata_detail5ValueINS_12HostMetadataEvEEEEvPT_.exit: ; preds = %_ZN9grpc_core12table_detail17DestructIfNotNullINS_15metadata_detail5ValueINS_30EndpointLoadMetricsBinMetadataEvEEEEvPT_.exit, %if.then.i91, %if.then.i.i.i.i93, %if.then.i.i.i.i.i95
  %56 = load i16, ptr %this, align 8
  %and2.i.i.i98 = and i16 %56, 1024
  %cmp.i.i.not.i99 = icmp eq i16 %and2.i.i.i98, 0
  br i1 %cmp.i.i.not.i99, label %_ZN9grpc_core12table_detail17DestructIfNotNullINS_15metadata_detail5ValueINS_19GrpcMessageMetadataEvEEEEvPT_.exit, label %if.then.i101

if.then.i101:                                     ; preds = %_ZN9grpc_core12table_detail17DestructIfNotNullINS_15metadata_detail5ValueINS_12HostMetadataEvEEEEvPT_.exit
  %u.i.i.i.i.i.i.i.i.i.i.i.i.i = getelementptr inbounds i8, ptr %this, i64 168
  %57 = load ptr, ptr %u.i.i.i.i.i.i.i.i.i.i.i.i.i, align 8
  %cmp.i.i.i.i102 = icmp ugt ptr %57, inttoptr (i64 1 to ptr)
  br i1 %cmp.i.i.i.i102, label %if.then.i.i.i.i103, label %_ZN9grpc_core12table_detail17DestructIfNotNullINS_15metadata_detail5ValueINS_19GrpcMessageMetadataEvEEEEvPT_.exit

if.then.i.i.i.i103:                               ; preds = %if.then.i101
  %58 = atomicrmw sub ptr %57, i64 1 acq_rel, align 8
  %cmp.i.i.i.i.i104 = icmp eq i64 %58, 1
  br i1 %cmp.i.i.i.i.i104, label %if.then.i.i.i.i.i105, label %_ZN9grpc_core12table_detail17DestructIfNotNullINS_15metadata_detail5ValueINS_19GrpcMessageMetadataEvEEEEvPT_.exit

if.then.i.i.i.i.i105:                             ; preds = %if.then.i.i.i.i103
  %destroyer_fn_.i.i.i.i.i106 = getelementptr inbounds i8, ptr %57, i64 8
  %59 = load ptr, ptr %destroyer_fn_.i.i.i.i.i106, align 8
  invoke void %59(ptr noundef nonnull %57)
          to label %_ZN9grpc_core12table_detail17DestructIfNotNullINS_15metadata_detail5ValueINS_19GrpcMessageMetadataEvEEEEvPT_.exit unwind label %terminate.lpad.i.i.i107

terminate.lpad.i.i.i107:                          ; preds = %if.then.i.i.i.i.i105
  %60 = landingpad { ptr, i32 }
          catch ptr null
  %61 = extractvalue { ptr, i32 } %60, 0
  tail call void @__clang_call_terminate(ptr %61) #24
  unreachable

_ZN9grpc_core12table_detail17DestructIfNotNullINS_15metadata_detail5ValueINS_19GrpcMessageMetadataEvEEEEvPT_.exit: ; preds = %_ZN9grpc_core12table_detail17DestructIfNotNullINS_15metadata_detail5ValueINS_12HostMetadataEvEEEEvPT_.exit, %if.then.i101, %if.then.i.i.i.i103, %if.then.i.i.i.i.i105
  %62 = load i16, ptr %this, align 8
  %and2.i.i.i108 = and i16 %62, 2048
  %cmp.i.i.not.i109 = icmp eq i16 %and2.i.i.i108, 0
  br i1 %cmp.i.i.not.i109, label %_ZN9grpc_core12table_detail17DestructIfNotNullINS_15metadata_detail5ValueINS_17UserAgentMetadataEvEEEEvPT_.exit, label %if.then.i111

if.then.i111:                                     ; preds = %_ZN9grpc_core12table_detail17DestructIfNotNullINS_15metadata_detail5ValueINS_19GrpcMessageMetadataEvEEEEvPT_.exit
  %u.i.i.i.i.i.i.i.i.i.i.i.i.i.i = getelementptr inbounds i8, ptr %this, i64 136
  %63 = load ptr, ptr %u.i.i.i.i.i.i.i.i.i.i.i.i.i.i, align 8
  %cmp.i.i.i.i112 = icmp ugt ptr %63, inttoptr (i64 1 to ptr)
  br i1 %cmp.i.i.i.i112, label %if.then.i.i.i.i113, label %_ZN9grpc_core12table_detail17DestructIfNotNullINS_15metadata_detail5ValueINS_17UserAgentMetadataEvEEEEvPT_.exit

if.then.i.i.i.i113:                               ; preds = %if.then.i111
  %64 = atomicrmw sub ptr %63, i64 1 acq_rel, align 8
  %cmp.i.i.i.i.i114 = icmp eq i64 %64, 1
  br i1 %cmp.i.i.i.i.i114, label %if.then.i.i.i.i.i115, label %_ZN9grpc_core12table_detail17DestructIfNotNullINS_15metadata_detail5ValueINS_17UserAgentMetadataEvEEEEvPT_.exit

if.then.i.i.i.i.i115:                             ; preds = %if.then.i.i.i.i113
  %destroyer_fn_.i.i.i.i.i116 = getelementptr inbounds i8, ptr %63, i64 8
  %65 = load ptr, ptr %destroyer_fn_.i.i.i.i.i116, align 8
  invoke void %65(ptr noundef nonnull %63)
          to label %_ZN9grpc_core12table_detail17DestructIfNotNullINS_15metadata_detail5ValueINS_17UserAgentMetadataEvEEEEvPT_.exit unwind label %terminate.lpad.i.i.i117

terminate.lpad.i.i.i117:                          ; preds = %if.then.i.i.i.i.i115
  %66 = landingpad { ptr, i32 }
          catch ptr null
  %67 = extractvalue { ptr, i32 } %66, 0
  tail call void @__clang_call_terminate(ptr %67) #24
  unreachable

_ZN9grpc_core12table_detail17DestructIfNotNullINS_15metadata_detail5ValueINS_17UserAgentMetadataEvEEEEvPT_.exit: ; preds = %_ZN9grpc_core12table_detail17DestructIfNotNullINS_15metadata_detail5ValueINS_19GrpcMessageMetadataEvEEEEvPT_.exit, %if.then.i111, %if.then.i.i.i.i113, %if.then.i.i.i.i.i115
  %68 = load i16, ptr %this, align 8
  %and2.i.i.i118 = and i16 %68, 4096
  %cmp.i.i.not.i119 = icmp eq i16 %and2.i.i.i118, 0
  br i1 %cmp.i.i.not.i119, label %_ZN9grpc_core12table_detail17DestructIfNotNullINS_15metadata_detail5ValueINS_21HttpAuthorityMetadataEvEEEEvPT_.exit, label %if.then.i121

if.then.i121:                                     ; preds = %_ZN9grpc_core12table_detail17DestructIfNotNullINS_15metadata_detail5ValueINS_17UserAgentMetadataEvEEEEvPT_.exit
  %u.i.i.i.i.i.i.i.i.i.i.i.i.i.i.i = getelementptr inbounds i8, ptr %this, i64 104
  %69 = load ptr, ptr %u.i.i.i.i.i.i.i.i.i.i.i.i.i.i.i, align 8
  %cmp.i.i.i.i122 = icmp ugt ptr %69, inttoptr (i64 1 to ptr)
  br i1 %cmp.i.i.i.i122, label %if.then.i.i.i.i123, label %_ZN9grpc_core12table_detail17DestructIfNotNullINS_15metadata_detail5ValueINS_21HttpAuthorityMetadataEvEEEEvPT_.exit

if.then.i.i.i.i123:                               ; preds = %if.then.i121
  %70 = atomicrmw sub ptr %69, i64 1 acq_rel, align 8
  %cmp.i.i.i.i.i124 = icmp eq i64 %70, 1
  br i1 %cmp.i.i.i.i.i124, label %if.then.i.i.i.i.i125, label %_ZN9grpc_core12table_detail17DestructIfNotNullINS_15metadata_detail5ValueINS_21HttpAuthorityMetadataEvEEEEvPT_.exit

if.then.i.i.i.i.i125:                             ; preds = %if.then.i.i.i.i123
  %destroyer_fn_.i.i.i.i.i126 = getelementptr inbounds i8, ptr %69, i64 8
  %71 = load ptr, ptr %destroyer_fn_.i.i.i.i.i126, align 8
  invoke void %71(ptr noundef nonnull %69)
          to label %_ZN9grpc_core12table_detail17DestructIfNotNullINS_15metadata_detail5ValueINS_21HttpAuthorityMetadataEvEEEEvPT_.exit unwind label %terminate.lpad.i.i.i127

terminate.lpad.i.i.i127:                          ; preds = %if.then.i.i.i.i.i125
  %72 = landingpad { ptr, i32 }
          catch ptr null
  %73 = extractvalue { ptr, i32 } %72, 0
  tail call void @__clang_call_terminate(ptr %73) #24
  unreachable

_ZN9grpc_core12table_detail17DestructIfNotNullINS_15metadata_detail5ValueINS_21HttpAuthorityMetadataEvEEEEvPT_.exit: ; preds = %_ZN9grpc_core12table_detail17DestructIfNotNullINS_15metadata_detail5ValueINS_17UserAgentMetadataEvEEEEvPT_.exit, %if.then.i121, %if.then.i.i.i.i123, %if.then.i.i.i.i.i125
  %74 = load i16, ptr %this, align 8
  %and2.i.i.i128 = and i16 %74, 8192
  %cmp.i.i.not.i129 = icmp eq i16 %and2.i.i.i128, 0
  br i1 %cmp.i.i.not.i129, label %_ZN9grpc_core12table_detail17DestructIfNotNullINS_15metadata_detail5ValueINS_16HttpPathMetadataEvEEEEvPT_.exit, label %if.then.i131

if.then.i131:                                     ; preds = %_ZN9grpc_core12table_detail17DestructIfNotNullINS_15metadata_detail5ValueINS_21HttpAuthorityMetadataEvEEEEvPT_.exit
  %u.i.i.i.i.i.i.i.i.i.i.i.i.i.i.i.i = getelementptr inbounds i8, ptr %this, i64 72
  %75 = load ptr, ptr %u.i.i.i.i.i.i.i.i.i.i.i.i.i.i.i.i, align 8
  %cmp.i.i.i.i132 = icmp ugt ptr %75, inttoptr (i64 1 to ptr)
  br i1 %cmp.i.i.i.i132, label %if.then.i.i.i.i133, label %_ZN9grpc_core12table_detail17DestructIfNotNullINS_15metadata_detail5ValueINS_16HttpPathMetadataEvEEEEvPT_.exit

if.then.i.i.i.i133:                               ; preds = %if.then.i131
  %76 = atomicrmw sub ptr %75, i64 1 acq_rel, align 8
  %cmp.i.i.i.i.i134 = icmp eq i64 %76, 1
  br i1 %cmp.i.i.i.i.i134, label %if.then.i.i.i.i.i135, label %_ZN9grpc_core12table_detail17DestructIfNotNullINS_15metadata_detail5ValueINS_16HttpPathMetadataEvEEEEvPT_.exit

if.then.i.i.i.i.i135:                             ; preds = %if.then.i.i.i.i133
  %destroyer_fn_.i.i.i.i.i136 = getelementptr inbounds i8, ptr %75, i64 8
  %77 = load ptr, ptr %destroyer_fn_.i.i.i.i.i136, align 8
  invoke void %77(ptr noundef nonnull %75)
          to label %_ZN9grpc_core12table_detail17DestructIfNotNullINS_15metadata_detail5ValueINS_16HttpPathMetadataEvEEEEvPT_.exit unwind label %terminate.lpad.i.i.i137

terminate.lpad.i.i.i137:                          ; preds = %if.then.i.i.i.i.i135
  %78 = landingpad { ptr, i32 }
          catch ptr null
  %79 = extractvalue { ptr, i32 } %78, 0
  tail call void @__clang_call_terminate(ptr %79) #24
  unreachable

_ZN9grpc_core12table_detail17DestructIfNotNullINS_15metadata_detail5ValueINS_16HttpPathMetadataEvEEEEvPT_.exit: ; preds = %_ZN9grpc_core12table_detail17DestructIfNotNullINS_15metadata_detail5ValueINS_21HttpAuthorityMetadataEvEEEEvPT_.exit, %if.then.i131, %if.then.i.i.i.i133, %if.then.i.i.i.i.i135
  ret void
}

; Function Attrs: nounwind
declare void @_ZNSt7__cxx1112basic_stringIcSt11char_traitsIcESaIcEED1Ev(ptr noundef nonnull align 8 dereferenceable(32)) unnamed_addr #1

declare ptr @gpr_malloc(i64 noundef) local_unnamed_addr #0

declare void @_ZN9grpc_core12CallCombiner4StopEPKc(ptr noundef nonnull align 8 dereferenceable(96), ptr noundef) local_unnamed_addr #0

; Function Attrs: mustprogress uwtable
define internal void @_ZL27run_cancel_in_call_combinerPvN4absl12lts_202308026StatusE(ptr noundef %arg, ptr nocapture noundef readonly %error) #3 personality ptr @__gxx_personality_v0 {
entry:
  %agg.tmp.i = alloca %"class.absl::lts_20230802::Status", align 8
  %agg.tmp = alloca %"class.absl::lts_20230802::Status", align 8
  %0 = load i64, ptr %error, align 8
  store i64 %0, ptr %agg.tmp, align 8
  %and.i.i.i = and i64 %0, 1
  %cmp.i.i.i = icmp eq i64 %and.i.i.i, 0
  br i1 %cmp.i.i.i, label %_ZN4absl12lts_202308026StatusC2ERKS1_.exit.thread, label %if.then.i.i.i

_ZN4absl12lts_202308026StatusC2ERKS1_.exit.thread: ; preds = %entry
  call void @llvm.lifetime.start.p0(i64 8, ptr nonnull %agg.tmp.i)
  %call_combiner.i6 = getelementptr inbounds i8, ptr %arg, i64 40
  %1 = load ptr, ptr %call_combiner.i6, align 8
  %original_closure.i7 = getelementptr inbounds i8, ptr %arg, i64 32
  %2 = load ptr, ptr %original_closure.i7, align 8
  store i64 %0, ptr %agg.tmp.i, align 8
  br label %_ZN4absl12lts_202308026StatusC2ERKS1_.exit.i

if.then.i.i.i:                                    ; preds = %entry
  %sub.i.i.i = add nsw i64 %0, -1
  %3 = inttoptr i64 %sub.i.i.i to ptr
  %4 = atomicrmw add ptr %3, i32 1 monotonic, align 4
  call void @llvm.lifetime.start.p0(i64 8, ptr nonnull %agg.tmp.i)
  %call_combiner.i = getelementptr inbounds i8, ptr %arg, i64 40
  %5 = load ptr, ptr %call_combiner.i, align 8
  %original_closure.i = getelementptr inbounds i8, ptr %arg, i64 32
  %6 = load ptr, ptr %original_closure.i, align 8
  store i64 %0, ptr %agg.tmp.i, align 8
  %sub.i.i.i.i = add nsw i64 %0, -1
  %7 = inttoptr i64 %sub.i.i.i.i to ptr
  %8 = atomicrmw add ptr %7, i32 1 monotonic, align 4
  br label %_ZN4absl12lts_202308026StatusC2ERKS1_.exit.i

_ZN4absl12lts_202308026StatusC2ERKS1_.exit.i:     ; preds = %_ZN4absl12lts_202308026StatusC2ERKS1_.exit.thread, %if.then.i.i.i
  %9 = phi ptr [ %2, %_ZN4absl12lts_202308026StatusC2ERKS1_.exit.thread ], [ %6, %if.then.i.i.i ]
  %10 = phi ptr [ %1, %_ZN4absl12lts_202308026StatusC2ERKS1_.exit.thread ], [ %5, %if.then.i.i.i ]
  %reason.i = getelementptr inbounds i8, ptr %arg, i64 48
  %11 = load ptr, ptr %reason.i, align 8
  invoke void @_ZN9grpc_core12CallCombiner5StartEP12grpc_closureN4absl12lts_202308026StatusEPKc(ptr noundef nonnull align 8 dereferenceable(96) %10, ptr noundef %9, ptr noundef nonnull %agg.tmp.i, ptr noundef %11)
          to label %invoke.cont.i unwind label %lpad.i

invoke.cont.i:                                    ; preds = %_ZN4absl12lts_202308026StatusC2ERKS1_.exit.i
  %12 = load i64, ptr %agg.tmp.i, align 8
  %and.i.i.i3.i = and i64 %12, 1
  %cmp.i.i.i4.i = icmp eq i64 %and.i.i.i3.i, 0
  br i1 %cmp.i.i.i4.i, label %invoke.cont, label %if.then.i.i5.i

if.then.i.i5.i:                                   ; preds = %invoke.cont.i
  invoke void @_ZN4absl12lts_202308026Status15UnrefNonInlinedEm(i64 noundef %12)
          to label %invoke.cont unwind label %terminate.lpad.i.i

terminate.lpad.i.i:                               ; preds = %if.then.i.i5.i
  %13 = landingpad { ptr, i32 }
          catch ptr null
  %14 = extractvalue { ptr, i32 } %13, 0
  call void @__clang_call_terminate(ptr %14) #24
  unreachable

lpad.i:                                           ; preds = %_ZN4absl12lts_202308026StatusC2ERKS1_.exit.i
  %15 = landingpad { ptr, i32 }
          cleanup
  call void @_ZN4absl12lts_202308026StatusD2Ev(ptr noundef nonnull align 8 dereferenceable(8) %agg.tmp.i) #23
  call void @_ZN4absl12lts_202308026StatusD2Ev(ptr noundef nonnull align 8 dereferenceable(8) %agg.tmp) #23
  resume { ptr, i32 } %15

invoke.cont:                                      ; preds = %if.then.i.i5.i, %invoke.cont.i
  call void @llvm.lifetime.end.p0(i64 8, ptr nonnull %agg.tmp.i)
  br i1 %cmp.i.i.i, label %_ZN4absl12lts_202308026StatusD2Ev.exit, label %if.then.i.i4

if.then.i.i4:                                     ; preds = %invoke.cont
  invoke void @_ZN4absl12lts_202308026Status15UnrefNonInlinedEm(i64 noundef %0)
          to label %_ZN4absl12lts_202308026StatusD2Ev.exit unwind label %terminate.lpad.i

terminate.lpad.i:                                 ; preds = %if.then.i.i4
  %16 = landingpad { ptr, i32 }
          catch ptr null
  %17 = extractvalue { ptr, i32 } %16, 0
  call void @__clang_call_terminate(ptr %17) #24
  unreachable

_ZN4absl12lts_202308026StatusD2Ev.exit:           ; preds = %invoke.cont, %if.then.i.i4
  call void @gpr_free(ptr noundef nonnull %arg)
  ret void
}

; Function Attrs: mustprogress uwtable
define internal void @_ZL20run_in_call_combinerPvN4absl12lts_202308026StatusE(ptr nocapture noundef readonly %arg, ptr nocapture noundef readonly %error) #3 personality ptr @__gxx_personality_v0 {
entry:
  %agg.tmp = alloca %"class.absl::lts_20230802::Status", align 8
  %call_combiner = getelementptr inbounds i8, ptr %arg, i64 40
  %0 = load ptr, ptr %call_combiner, align 8
  %original_closure = getelementptr inbounds i8, ptr %arg, i64 32
  %1 = load ptr, ptr %original_closure, align 8
  %2 = load i64, ptr %error, align 8
  store i64 %2, ptr %agg.tmp, align 8
  %and.i.i.i = and i64 %2, 1
  %cmp.i.i.i = icmp eq i64 %and.i.i.i, 0
  br i1 %cmp.i.i.i, label %_ZN4absl12lts_202308026StatusC2ERKS1_.exit, label %if.then.i.i

if.then.i.i:                                      ; preds = %entry
  %sub.i.i.i = add nsw i64 %2, -1
  %3 = inttoptr i64 %sub.i.i.i to ptr
  %4 = atomicrmw add ptr %3, i32 1 monotonic, align 4
  br label %_ZN4absl12lts_202308026StatusC2ERKS1_.exit

_ZN4absl12lts_202308026StatusC2ERKS1_.exit:       ; preds = %entry, %if.then.i.i
  %reason = getelementptr inbounds i8, ptr %arg, i64 48
  %5 = load ptr, ptr %reason, align 8
  invoke void @_ZN9grpc_core12CallCombiner5StartEP12grpc_closureN4absl12lts_202308026StatusEPKc(ptr noundef nonnull align 8 dereferenceable(96) %0, ptr noundef %1, ptr noundef nonnull %agg.tmp, ptr noundef %5)
          to label %invoke.cont unwind label %lpad

invoke.cont:                                      ; preds = %_ZN4absl12lts_202308026StatusC2ERKS1_.exit
  %6 = load i64, ptr %agg.tmp, align 8
  %and.i.i.i3 = and i64 %6, 1
  %cmp.i.i.i4 = icmp eq i64 %and.i.i.i3, 0
  br i1 %cmp.i.i.i4, label %_ZN4absl12lts_202308026StatusD2Ev.exit, label %if.then.i.i5

if.then.i.i5:                                     ; preds = %invoke.cont
  invoke void @_ZN4absl12lts_202308026Status15UnrefNonInlinedEm(i64 noundef %6)
          to label %_ZN4absl12lts_202308026StatusD2Ev.exit unwind label %terminate.lpad.i

terminate.lpad.i:                                 ; preds = %if.then.i.i5
  %7 = landingpad { ptr, i32 }
          catch ptr null
  %8 = extractvalue { ptr, i32 } %7, 0
  call void @__clang_call_terminate(ptr %8) #24
  unreachable

_ZN4absl12lts_202308026StatusD2Ev.exit:           ; preds = %invoke.cont, %if.then.i.i5
  ret void

lpad:                                             ; preds = %_ZN4absl12lts_202308026StatusC2ERKS1_.exit
  %9 = landingpad { ptr, i32 }
          cleanup
  call void @_ZN4absl12lts_202308026StatusD2Ev(ptr noundef nonnull align 8 dereferenceable(8) %agg.tmp) #23
  resume { ptr, i32 } %9
}

; Function Attrs: mustprogress nounwind uwtable
define linkonce_odr void @_ZN4absl12lts_202308026StatusD2Ev(ptr noundef nonnull align 8 dereferenceable(8) %this) unnamed_addr #13 comdat align 2 personality ptr @__gxx_personality_v0 {
entry:
  %0 = load i64, ptr %this, align 8
  %and.i.i = and i64 %0, 1
  %cmp.i.i = icmp eq i64 %and.i.i, 0
  br i1 %cmp.i.i, label %invoke.cont, label %if.then.i

if.then.i:                                        ; preds = %entry
  invoke void @_ZN4absl12lts_202308026Status15UnrefNonInlinedEm(i64 noundef %0)
          to label %invoke.cont unwind label %terminate.lpad

invoke.cont:                                      ; preds = %entry, %if.then.i
  ret void

terminate.lpad:                                   ; preds = %if.then.i
  %1 = landingpad { ptr, i32 }
          catch ptr null
  %2 = extractvalue { ptr, i32 } %1, 0
  tail call void @__clang_call_terminate(ptr %2) #24
  unreachable
}

declare void @gpr_free(ptr noundef) local_unnamed_addr #0

declare void @_ZN4absl12lts_202308026Status15UnrefNonInlinedEm(i64 noundef) local_unnamed_addr #0

declare void @_ZN9grpc_core12CallCombiner5StartEP12grpc_closureN4absl12lts_202308026StatusEPKc(ptr noundef nonnull align 8 dereferenceable(96), ptr noundef, ptr noundef, ptr noundef) local_unnamed_addr #0

; Function Attrs: noreturn
declare void @gpr_unreachable_code(ptr noundef, ptr noundef, i32 noundef) local_unnamed_addr #12

declare void @_ZN9grpc_core9Transport16SetPollingEntityEP11grpc_streamP19grpc_polling_entity(ptr noundef nonnull align 8 dereferenceable(8), ptr noundef, ptr noundef) local_unnamed_addr #0

; Function Attrs: noreturn
declare void @gpr_assertion_failed(ptr noundef, i32 noundef, ptr noundef) local_unnamed_addr #12

; Function Attrs: mustprogress uwtable
define internal void @_ZZN9grpc_core12_GLOBAL__N_119MakeConnectedFilterIXadL_ZNS0_24MakeTransportCallPromiseEPNS_9TransportENS_8CallArgsESt8functionIFNS_12ArenaPromiseISt10unique_ptrI19grpc_metadata_batchNS_5Arena13PooledDeleterEEEES4_EEEEEE19grpc_channel_filtervENUlP18grpc_channel_stackP20grpc_channel_elementE_8__invokeESH_SJ_(ptr nocapture noundef %channel_stack, ptr nocapture noundef readonly %elem) #3 align 2 {
entry:
  %0 = getelementptr i8, ptr %elem, i64 8
  %elem.val = load ptr, ptr %0, align 8
  %elem.val.val = load ptr, ptr %elem.val, align 8
  %vtable.i = load ptr, ptr %elem.val.val, align 8
  %vfn.i = getelementptr inbounds i8, ptr %vtable.i, i64 24
  %1 = load ptr, ptr %vfn.i, align 8
  %call.i = tail call noundef ptr %1(ptr noundef nonnull align 8 dereferenceable(8) %elem.val.val)
  %vtable2.i = load ptr, ptr %call.i, align 8
  %2 = load ptr, ptr %vtable2.i, align 8
  %call4.i = tail call noundef i64 %2(ptr noundef nonnull align 8 dereferenceable(8) %call.i)
  %call_stack_size.i = getelementptr inbounds i8, ptr %channel_stack, i64 48
  %3 = load i64, ptr %call_stack_size.i, align 8
  %add.i = add i64 %3, %call4.i
  store i64 %add.i, ptr %call_stack_size.i, align 8
  ret void
}

; Function Attrs: uwtable
define internal void @_ZZN9grpc_core12_GLOBAL__N_119MakeConnectedFilterIXadL_ZNS0_21MakeClientCallPromiseEPNS_9TransportENS_8CallArgsESt8functionIFNS_12ArenaPromiseISt10unique_ptrI19grpc_metadata_batchNS_5Arena13PooledDeleterEEEES4_EEEEEE19grpc_channel_filtervENUlP20grpc_channel_elementS4_SE_E_8__invokeESH_S4_SE_(ptr noalias nocapture writeonly sret(%"class.grpc_core::ArenaPromise") align 16 %agg.result, ptr nocapture noundef readonly %elem, ptr nocapture noundef %call_args, ptr nocapture noundef %next) #15 align 2 personality ptr @__gxx_personality_v0 {
entry:
  %agg.tmp.i226.i.i = alloca %class.anon.361, align 8
  %agg.tmp105201.i.i = alloca %"struct.grpc_core::BatchBuilder::Target", align 8
  %agg.tmp2.i155.i.i = alloca %"class.std::unique_ptr", align 8
  %agg.tmp82154.i.i = alloca %"struct.grpc_core::BatchBuilder::Target", align 8
  %ref.tmp.i88.i.i = alloca %"class.grpc_core::Party::BulkSpawner", align 8
  %agg.tmp2.i89.i.i = alloca %"class.grpc_core::promise_detail::TrySeq.241", align 8
  %agg.tmp6582.i.i = alloca %"struct.grpc_core::BatchBuilder::Target", align 8
  %agg.tmp.i.i.i.i.i.i.i = alloca %"class.grpc_core::promise_detail::TrySeq", align 8
  %agg.tmp6.i.i.i.i.i = alloca %"class.grpc_core::promise_detail::TrySeq", align 8
  %ref.tmp.i45.i.i = alloca %"class.grpc_core::Party::BulkSpawner", align 8
  %agg.tmp2.i.i.i = alloca %"class.grpc_core::promise_detail::TrySeq", align 8
  %ref.tmp.i.i.i.i.i = alloca %"class.grpc_core::promise_detail::Seq", align 8
  %agg.tmp.i.i.i.i = alloca %"class.grpc_core::PipeReceiver", align 8
  %agg.tmp.i.i.i = alloca %"class.grpc_core::PipeReceiver", align 8
  %ref.tmp.i.i.i = alloca %"class.grpc_core::Party::BulkSpawner", align 8
  %transport.addr.i.i = alloca ptr, align 8
  %stream.i.i = alloca %"class.std::unique_ptr.170", align 8
  %agg.tmp40.i.i = alloca %"class.grpc_core::promise_detail::TrySeq", align 8
  %agg.tmp41.i.i = alloca %"class.grpc_core::for_each_detail::ForEach", align 8
  %server_initial_metadata.i.i = alloca %"class.std::unique_ptr", align 8
  %agg.tmp60.i.i = alloca %"class.grpc_core::promise_detail::TrySeq.241", align 8
  %agg.tmp61.i.i = alloca %class.anon.245, align 8
  %send_initial_metadata.i.i = alloca %"class.grpc_core::promise_detail::Seq.274", align 8
  %agg.tmp79.i.i = alloca %class.anon.233, align 8
  %agg.tmp85.i.i = alloca %"class.std::unique_ptr", align 8
  %server_trailing_metadata.i.i = alloca %"class.std::unique_ptr", align 8
  %recv_trailing_metadata.sroa.5.i.i = alloca %"class.grpc_core::promise_detail::Map.284", align 8
  %agg.tmp101.i.i = alloca %class.anon.283, align 8
  %recv_messages.i.i = alloca %"class.grpc_core::promise_detail::Loop", align 8
  %ref.tmp116.i.i = alloca %"class.grpc_core::promise_detail::Map.359", align 8
  %agg.tmp117.i.i = alloca %class.anon.361, align 8
  %agg.tmp118.i.i = alloca %class.anon.364, align 8
  %agg.tmp.i = alloca %"struct.grpc_core::CallArgs", align 8
  %agg.tmp3.i = alloca %"class.std::function", align 8
  %0 = getelementptr i8, ptr %elem, i64 8
  %elem.val = load ptr, ptr %0, align 8
  %elem.val.val = load ptr, ptr %elem.val, align 8
  tail call void @llvm.experimental.noalias.scope.decl(metadata !15)
  call void @llvm.lifetime.start.p0(i64 56, ptr nonnull %agg.tmp.i)
  call void @llvm.lifetime.start.p0(i64 32, ptr nonnull %agg.tmp3.i)
  %1 = load i8, ptr %call_args, align 1, !noalias !15
  store i8 %1, ptr %agg.tmp.i, align 8, !noalias !15
  %2 = getelementptr inbounds i8, ptr %agg.tmp.i, i64 8
  %add.ptr.i.i.i.i.i.i.i = getelementptr inbounds i8, ptr %call_args, i64 8
  %3 = load i64, ptr %add.ptr.i.i.i.i.i.i.i, align 8, !noalias !15
  store i64 %3, ptr %2, align 8, !noalias !15
  store ptr null, ptr %add.ptr.i.i.i.i.i.i.i, align 8, !noalias !15
  %client_initial_metadata_outstanding.i.i = getelementptr inbounds i8, ptr %agg.tmp.i, i64 16
  %client_initial_metadata_outstanding3.i.i = getelementptr inbounds i8, ptr %call_args, i64 16
  %4 = load ptr, ptr %client_initial_metadata_outstanding3.i.i, align 8, !noalias !15
  store ptr null, ptr %client_initial_metadata_outstanding3.i.i, align 8, !noalias !15
  store ptr %4, ptr %client_initial_metadata_outstanding.i.i, align 8, !noalias !15
  %polling_entity.i.i = getelementptr inbounds i8, ptr %agg.tmp.i, i64 24
  %polling_entity4.i.i = getelementptr inbounds i8, ptr %call_args, i64 24
  call void @llvm.memcpy.p0.p0.i64(ptr noundef nonnull align 8 dereferenceable(32) %polling_entity.i.i, ptr noundef nonnull align 8 dereferenceable(32) %polling_entity4.i.i, i64 32, i1 false), !noalias !15
  %_M_invoker.i.i = getelementptr inbounds i8, ptr %agg.tmp3.i, i64 24
  %_M_invoker2.i.i = getelementptr inbounds i8, ptr %next, i64 24
  call void @llvm.memset.p0.i64(ptr noundef nonnull align 8 dereferenceable(24) %agg.tmp3.i, i8 0, i64 24, i1 false), !noalias !15
  %5 = load ptr, ptr %_M_invoker2.i.i, align 8, !noalias !15
  store ptr %5, ptr %_M_invoker.i.i, align 8, !noalias !15
  %_M_manager.i.i.i.i = getelementptr inbounds i8, ptr %next, i64 16
  %6 = load ptr, ptr %_M_manager.i.i.i.i, align 8, !noalias !15
  %tobool.not.i.i.not.i.i = icmp eq ptr %6, null
  br i1 %tobool.not.i.i.not.i.i, label %_ZNSt8functionIFN9grpc_core12ArenaPromiseISt10unique_ptrI19grpc_metadata_batchNS0_5Arena13PooledDeleterEEEENS0_8CallArgsEEEC2EOSA_.exit.i, label %if.then.i.i

if.then.i.i:                                      ; preds = %entry
  %_M_manager.i.i.i = getelementptr inbounds i8, ptr %agg.tmp3.i, i64 16
  call void @llvm.memcpy.p0.p0.i64(ptr noundef nonnull align 8 dereferenceable(16) %agg.tmp3.i, ptr noundef nonnull align 8 dereferenceable(16) %next, i64 16, i1 false), !noalias !15
  store ptr %6, ptr %_M_manager.i.i.i, align 8, !noalias !15
  tail call void @llvm.memset.p0.i64(ptr noundef nonnull align 8 dereferenceable(16) %_M_manager.i.i.i.i, i8 0, i64 16, i1 false), !noalias !15
  br label %_ZNSt8functionIFN9grpc_core12ArenaPromiseISt10unique_ptrI19grpc_metadata_batchNS0_5Arena13PooledDeleterEEEENS0_8CallArgsEEEC2EOSA_.exit.i

_ZNSt8functionIFN9grpc_core12ArenaPromiseISt10unique_ptrI19grpc_metadata_batchNS0_5Arena13PooledDeleterEEEENS0_8CallArgsEEEC2EOSA_.exit.i: ; preds = %if.then.i.i, %entry
  tail call void @llvm.experimental.noalias.scope.decl(metadata !18)
  call void @llvm.lifetime.start.p0(i64 8, ptr nonnull %transport.addr.i.i), !noalias !15
  call void @llvm.lifetime.start.p0(i64 8, ptr nonnull %stream.i.i), !noalias !15
  call void @llvm.lifetime.start.p0(i64 96, ptr nonnull %agg.tmp40.i.i), !noalias !15
  call void @llvm.lifetime.start.p0(i64 80, ptr nonnull %agg.tmp41.i.i), !noalias !15
  call void @llvm.lifetime.start.p0(i64 16, ptr nonnull %server_initial_metadata.i.i), !noalias !15
  call void @llvm.lifetime.start.p0(i64 48, ptr nonnull %agg.tmp60.i.i), !noalias !15
  call void @llvm.lifetime.start.p0(i64 24, ptr nonnull %agg.tmp61.i.i), !noalias !15
  call void @llvm.lifetime.start.p0(i64 32, ptr nonnull %send_initial_metadata.i.i), !noalias !15
  call void @llvm.lifetime.start.p0(i64 16, ptr nonnull %agg.tmp79.i.i), !noalias !15
  call void @llvm.lifetime.start.p0(i64 16, ptr nonnull %agg.tmp85.i.i), !noalias !15
  call void @llvm.lifetime.start.p0(i64 16, ptr nonnull %server_trailing_metadata.i.i), !noalias !15
  call void @llvm.lifetime.start.p0(i64 16, ptr nonnull %recv_trailing_metadata.sroa.5.i.i)
  call void @llvm.lifetime.start.p0(i64 24, ptr nonnull %agg.tmp101.i.i), !noalias !15
  call void @llvm.lifetime.start.p0(i64 88, ptr nonnull %recv_messages.i.i), !noalias !15
  call void @llvm.lifetime.start.p0(i64 168, ptr nonnull %ref.tmp116.i.i), !noalias !15
  call void @llvm.lifetime.start.p0(i64 160, ptr nonnull %agg.tmp117.i.i), !noalias !15
  call void @llvm.lifetime.start.p0(i64 8, ptr nonnull %agg.tmp118.i.i), !noalias !15
  store ptr %elem.val.val, ptr %transport.addr.i.i, align 8, !noalias !21
  %7 = tail call align 8 ptr @llvm.threadlocal.address.p0(ptr align 8 @_ZN9grpc_core14promise_detail7ContextINS_5ArenaEE8current_E)
  %8 = load ptr, ptr %7, align 8, !noalias !21
  %cmp.not.i.i.i = icmp eq ptr %8, null
  br i1 %cmp.not.i.i.i, label %if.then.i.i.i, label %_ZN9grpc_core10GetContextINS_5ArenaEEEPT_v.exit.i.i

if.then.i.i.i:                                    ; preds = %_ZNSt8functionIFN9grpc_core12ArenaPromiseISt10unique_ptrI19grpc_metadata_batchNS0_5Arena13PooledDeleterEEEENS0_8CallArgsEEEC2EOSA_.exit.i
  invoke void @gpr_assertion_failed(ptr noundef nonnull @.str.19, i32 noundef 80, ptr noundef nonnull @.str.20) #25
          to label %.noexc.i unwind label %lpad.i, !noalias !15

.noexc.i:                                         ; preds = %if.then.i.i.i
  unreachable

_ZN9grpc_core10GetContextINS_5ArenaEEEPT_v.exit.i.i: ; preds = %_ZNSt8functionIFN9grpc_core12ArenaPromiseISt10unique_ptrI19grpc_metadata_batchNS0_5Arena13PooledDeleterEEEENS0_8CallArgsEEEC2EOSA_.exit.i
  %call1.i4.i = invoke fastcc noundef ptr @_ZN9grpc_core5Arena3NewINS_12_GLOBAL__N_122ConnectedChannelStreamEJRPNS_9TransportEEEEPT_DpOT0_(ptr noundef nonnull align 8 dereferenceable(48) %8, ptr noundef nonnull align 8 dereferenceable(8) %transport.addr.i.i)
          to label %call1.i.noexc.i unwind label %lpad.i, !noalias !15

call1.i.noexc.i:                                  ; preds = %_ZN9grpc_core10GetContextINS_5ArenaEEEPT_v.exit.i.i
  store ptr %call1.i4.i, ptr %stream.i.i, align 8, !noalias !21
  %9 = load ptr, ptr %7, align 8, !noalias !21
  %cmp.not.i29.i.i = icmp eq ptr %9, null
  br i1 %cmp.not.i29.i.i, label %if.then.i67.invoke.i.i, label %invoke.cont.i.i

invoke.cont.i.i:                                  ; preds = %call1.i.noexc.i
  %vtable.i.i = load ptr, ptr %elem.val.val, align 8, !noalias !21
  %vfn.i.i = getelementptr inbounds i8, ptr %vtable.i.i, i64 24
  %10 = load ptr, ptr %vfn.i.i, align 8, !noalias !21
  %call5.i.i = invoke noundef ptr %10(ptr noundef nonnull align 8 dereferenceable(8) %elem.val.val)
          to label %invoke.cont4.i.i unwind label %lpad.i.i, !noalias !21

invoke.cont4.i.i:                                 ; preds = %invoke.cont.i.i
  %vtable6.i.i = load ptr, ptr %call5.i.i, align 8, !noalias !21
  %11 = load ptr, ptr %vtable6.i.i, align 8, !noalias !21
  %call9.i.i = invoke noundef i64 %11(ptr noundef nonnull align 8 dereferenceable(8) %call5.i.i)
          to label %invoke.cont8.i.i unwind label %lpad.i.i, !noalias !21

invoke.cont8.i.i:                                 ; preds = %invoke.cont4.i.i
  %sub.i.i.i = add i64 %call9.i.i, 15
  %and.i.i.i = and i64 %sub.i.i.i, 4294967280
  %12 = atomicrmw add ptr %9, i64 %and.i.i.i monotonic, align 8, !noalias !21
  %add2.i.i.i = add i64 %12, %and.i.i.i
  %initial_zone_size_.i.i.i = getelementptr inbounds i8, ptr %9, i64 16
  %13 = load i64, ptr %initial_zone_size_.i.i.i, align 8, !noalias !21
  %cmp.not.i32.i.i = icmp ugt i64 %add2.i.i.i, %13
  br i1 %cmp.not.i32.i.i, label %if.else.i.i.i, label %if.then.i33.i.i

if.then.i33.i.i:                                  ; preds = %invoke.cont8.i.i
  %add.ptr.i.i.i = getelementptr inbounds i8, ptr %9, i64 48
  %add.ptr3.i.i.i = getelementptr inbounds i8, ptr %add.ptr.i.i.i, i64 %12
  br label %invoke.cont10.i.i

if.else.i.i.i:                                    ; preds = %invoke.cont8.i.i
  %call4.i34.i.i = invoke noundef ptr @_ZN9grpc_core5Arena9AllocZoneEm(ptr noundef nonnull align 8 dereferenceable(48) %9, i64 noundef %and.i.i.i)
          to label %invoke.cont10.i.i unwind label %lpad.i.i, !noalias !21

invoke.cont10.i.i:                                ; preds = %if.else.i.i.i, %if.then.i33.i.i
  %retval.0.i.i.i = phi ptr [ %add.ptr3.i.i.i, %if.then.i33.i.i ], [ %call4.i34.i.i, %if.else.i.i.i ]
  %stream_.i.i.i = getelementptr inbounds i8, ptr %call1.i4.i, i64 96
  %add.ptr.i.i.i.i.i.i.i.i.i = getelementptr inbounds i8, ptr %call1.i4.i, i64 104
  %14 = load ptr, ptr %add.ptr.i.i.i.i.i.i.i.i.i, align 8, !noalias !21
  store ptr %retval.0.i.i.i, ptr %add.ptr.i.i.i.i.i.i.i.i.i, align 8, !noalias !21
  %tobool.not.i.i.i.i.i = icmp eq ptr %14, null
  br i1 %tobool.not.i.i.i.i.i, label %_ZN9grpc_core12_GLOBAL__N_122ConnectedChannelStream9SetStreamEP11grpc_stream.exit.i.i, label %if.end.i.i.i.i.i.i

if.end.i.i.i.i.i.i:                               ; preds = %invoke.cont10.i.i
  %15 = load ptr, ptr %stream_.i.i.i, align 8, !noalias !21
  %16 = getelementptr i8, ptr %15, i64 8
  %.val.i.i.i.i.i.i = load ptr, ptr %16, align 8, !noalias !21
  %vtable.i.i.i.i.i.i = load ptr, ptr %.val.i.i.i.i.i.i, align 8, !noalias !21
  %vfn.i.i.i.i.i.i = getelementptr inbounds i8, ptr %vtable.i.i.i.i.i.i, i64 24
  %17 = load ptr, ptr %vfn.i.i.i.i.i.i, align 8, !noalias !21
  %call2.i3.i.i.i.i.i = invoke noundef ptr %17(ptr noundef nonnull align 8 dereferenceable(8) %.val.i.i.i.i.i.i)
          to label %call2.i.noexc.i.i.i.i.i unwind label %terminate.lpad.i.i.i.i.i, !noalias !21

call2.i.noexc.i.i.i.i.i:                          ; preds = %if.end.i.i.i.i.i.i
  %18 = load ptr, ptr %stream_.i.i.i, align 8, !noalias !21
  %stream_destroyed_.i.i.i.i.i.i.i = getelementptr inbounds i8, ptr %18, i64 24
  %vtable5.i.i.i.i.i.i = load ptr, ptr %call2.i3.i.i.i.i.i, align 8, !noalias !21
  %vfn6.i.i.i.i.i.i = getelementptr inbounds i8, ptr %vtable5.i.i.i.i.i.i, i64 32
  %19 = load ptr, ptr %vfn6.i.i.i.i.i.i, align 8, !noalias !21
  invoke void %19(ptr noundef nonnull align 8 dereferenceable(8) %call2.i3.i.i.i.i.i, ptr noundef nonnull %14, ptr noundef nonnull %stream_destroyed_.i.i.i.i.i.i.i)
          to label %_ZN9grpc_core12_GLOBAL__N_122ConnectedChannelStream9SetStreamEP11grpc_stream.exit.i.i unwind label %terminate.lpad.i.i.i.i.i, !noalias !21

terminate.lpad.i.i.i.i.i:                         ; preds = %call2.i.noexc.i.i.i.i.i, %if.end.i.i.i.i.i.i
  %20 = landingpad { ptr, i32 }
          catch ptr null
  %21 = extractvalue { ptr, i32 } %20, 0
  tail call void @__clang_call_terminate(ptr %21) #24
  unreachable

_ZN9grpc_core12_GLOBAL__N_122ConnectedChannelStream9SetStreamEP11grpc_stream.exit.i.i: ; preds = %call2.i.noexc.i.i.i.i.i, %invoke.cont10.i.i
  %vtable13.i.i = load ptr, ptr %elem.val.val, align 8, !noalias !21
  %vfn14.i.i = getelementptr inbounds i8, ptr %vtable13.i.i, i64 24
  %22 = load ptr, ptr %vfn14.i.i, align 8, !noalias !21
  %call16.i.i = invoke noundef ptr %22(ptr noundef nonnull align 8 dereferenceable(8) %elem.val.val)
          to label %invoke.cont15.i.i unwind label %lpad.i.i, !noalias !21

invoke.cont15.i.i:                                ; preds = %_ZN9grpc_core12_GLOBAL__N_122ConnectedChannelStream9SetStreamEP11grpc_stream.exit.i.i
  %stream_refcount_.i.i.i = getelementptr inbounds i8, ptr %call1.i4.i, i64 56
  %23 = load ptr, ptr %7, align 8, !noalias !21
  %cmp.not.i35.i.i = icmp eq ptr %23, null
  br i1 %cmp.not.i35.i.i, label %if.then.i67.invoke.i.i, label %invoke.cont23.i.i

invoke.cont23.i.i:                                ; preds = %invoke.cont15.i.i
  %call17.val.i.i = load ptr, ptr %add.ptr.i.i.i.i.i.i.i.i.i, align 8, !noalias !21
  %vtable25.i.i = load ptr, ptr %call16.i.i, align 8, !noalias !21
  %vfn26.i.i = getelementptr inbounds i8, ptr %vtable25.i.i, i64 8
  %24 = load ptr, ptr %vfn26.i.i, align 8, !noalias !21
  invoke void %24(ptr noundef nonnull align 8 dereferenceable(8) %call16.i.i, ptr noundef %call17.val.i.i, ptr noundef nonnull %stream_refcount_.i.i.i, ptr noundef null, ptr noundef nonnull %23)
          to label %invoke.cont27.i.i unwind label %lpad.i.i, !noalias !21

invoke.cont27.i.i:                                ; preds = %invoke.cont23.i.i
  br i1 icmp ne (ptr @_ZTHN9grpc_core8Activity19g_current_activity_E, ptr null), label %25, label %invoke.cont35.i.i

25:                                               ; preds = %invoke.cont27.i.i
  invoke void @_ZTHN9grpc_core8Activity19g_current_activity_E()
          to label %invoke.cont35.i.i unwind label %lpad.i.i, !noalias !21

invoke.cont35.i.i:                                ; preds = %25, %invoke.cont27.i.i
  %26 = tail call noundef align 8 ptr @llvm.threadlocal.address.p0(ptr align 8 @_ZN9grpc_core8Activity19g_current_activity_E)
  %27 = load ptr, ptr %26, align 8, !noalias !21
  %28 = load ptr, ptr %polling_entity.i.i, align 8, !noalias !21
  %29 = atomicrmw add ptr %stream_refcount_.i.i.i, i64 1 monotonic, align 8, !noalias !22
  call void @llvm.lifetime.start.p0(i64 144, ptr nonnull %ref.tmp.i.i.i), !noalias !21
  store ptr %27, ptr %ref.tmp.i.i.i, align 8, !noalias !21
  %num_participants_.i.i.i.i = getelementptr inbounds i8, ptr %ref.tmp.i.i.i, i64 8
  store i64 0, ptr %num_participants_.i.i.i.i, align 8, !noalias !21
  %call.i.i3.i.i.i = invoke noalias noundef nonnull dereferenceable(64) ptr @_Znwm(i64 noundef 64) #27
          to label %"_ZZN9grpc_core12_GLOBAL__N_121MakeClientCallPromiseEPNS_9TransportENS_8CallArgsESt8functionIFNS_12ArenaPromiseISt10unique_ptrI19grpc_metadata_batchNS_5Arena13PooledDeleterEEEES3_EEEN3$_2D2Ev.exit.i.i.i" unwind label %lpad.i.i.i, !noalias !21

"_ZZN9grpc_core12_GLOBAL__N_121MakeClientCallPromiseEPNS_9TransportENS_8CallArgsESt8functionIFNS_12ArenaPromiseISt10unique_ptrI19grpc_metadata_batchNS_5Arena13PooledDeleterEEEES3_EEEN3$_2D2Ev.exit.i.i.i": ; preds = %invoke.cont35.i.i
  %handle_.i.i.i.i.i.i.i = getelementptr inbounds i8, ptr %call.i.i3.i.i.i, i64 8
  store ptr null, ptr %handle_.i.i.i.i.i.i.i, align 8, !noalias !21
  %name_.i.i.i.i.i.i.i = getelementptr inbounds i8, ptr %call.i.i3.i.i.i, i64 16
  store i64 18, ptr %name_.i.i.i.i.i.i.i, align 8, !noalias !21
  %name.sroa.2.0.name_.sroa_idx.i.i.i.i.i.i.i = getelementptr inbounds i8, ptr %call.i.i3.i.i.i, i64 24
  store ptr @.str.16, ptr %name.sroa.2.0.name_.sroa_idx.i.i.i.i.i.i.i, align 8, !noalias !21
  store ptr getelementptr inbounds ({ [4 x ptr] }, ptr @"_ZTVN9grpc_core5Party15ParticipantImplIZNS_5LatchI19grpc_polling_entityE4WaitEvEUlvE_ZNS_12_GLOBAL__N_121MakeClientCallPromiseEPNS_9TransportENS_8CallArgsESt8functionIFNS_12ArenaPromiseISt10unique_ptrI19grpc_metadata_batchNS_5Arena13PooledDeleterEEEES9_EEE3$_2EE", i64 0, inrange i32 0, i64 2), ptr %call.i.i3.i.i.i, align 8, !noalias !21
  %on_complete_.i.i.i.i.i.i = getelementptr inbounds i8, ptr %call.i.i3.i.i.i, i64 40
  store ptr %elem.val.val, ptr %on_complete_.i.i.i.i.i.i, align 8, !noalias !21
  %30 = getelementptr inbounds i8, ptr %call.i.i3.i.i.i, i64 48
  store ptr %call1.i4.i, ptr %30, align 8, !noalias !21
  %started_.i.i.i.i.i.i = getelementptr inbounds i8, ptr %call.i.i3.i.i.i, i64 56
  store i8 0, ptr %started_.i.i.i.i.i.i, align 8, !noalias !21
  %31 = getelementptr inbounds i8, ptr %call.i.i3.i.i.i, i64 32
  store ptr %28, ptr %31, align 8, !noalias !21
  %participants_.i.i.i.i = getelementptr inbounds i8, ptr %ref.tmp.i.i.i, i64 16
  store i64 1, ptr %num_participants_.i.i.i.i, align 8, !noalias !21
  store ptr %call.i.i3.i.i.i, ptr %participants_.i.i.i.i, align 8, !noalias !21
  invoke void @_ZN9grpc_core5Party15AddParticipantsEPPNS0_11ParticipantEm(ptr noundef nonnull align 8 dereferenceable(168) %27, ptr noundef nonnull %participants_.i.i.i.i, i64 noundef 1)
          to label %"_ZZN9grpc_core12_GLOBAL__N_121MakeClientCallPromiseEPNS_9TransportENS_8CallArgsESt8functionIFNS_12ArenaPromiseISt10unique_ptrI19grpc_metadata_batchNS_5Arena13PooledDeleterEEEES3_EEEN3$_2D2Ev.exit.i.i" unwind label %terminate.lpad.i.i.i.i, !noalias !21

terminate.lpad.i.i.i.i:                           ; preds = %"_ZZN9grpc_core12_GLOBAL__N_121MakeClientCallPromiseEPNS_9TransportENS_8CallArgsESt8functionIFNS_12ArenaPromiseISt10unique_ptrI19grpc_metadata_batchNS_5Arena13PooledDeleterEEEES3_EEEN3$_2D2Ev.exit.i.i.i"
  %32 = landingpad { ptr, i32 }
          catch ptr null
  %33 = extractvalue { ptr, i32 } %32, 0
  call void @__clang_call_terminate(ptr %33) #24
  unreachable

lpad.i.i.i:                                       ; preds = %invoke.cont35.i.i
  %34 = landingpad { ptr, i32 }
          cleanup
  tail call fastcc void @"_ZZN9grpc_core12_GLOBAL__N_121MakeClientCallPromiseEPNS_9TransportENS_8CallArgsESt8functionIFNS_12ArenaPromiseISt10unique_ptrI19grpc_metadata_batchNS_5Arena13PooledDeleterEEEES3_EEEN3$_2D2Ev"(ptr nonnull %call1.i4.i) #23, !noalias !21
  call void @_ZN9grpc_core5Party11BulkSpawnerD2Ev(ptr noundef nonnull align 8 dereferenceable(144) %ref.tmp.i.i.i) #23, !noalias !21
  br label %ehcleanup131.i.i

"_ZZN9grpc_core12_GLOBAL__N_121MakeClientCallPromiseEPNS_9TransportENS_8CallArgsESt8functionIFNS_12ArenaPromiseISt10unique_ptrI19grpc_metadata_batchNS_5Arena13PooledDeleterEEEES3_EEEN3$_2D2Ev.exit.i.i": ; preds = %"_ZZN9grpc_core12_GLOBAL__N_121MakeClientCallPromiseEPNS_9TransportENS_8CallArgsESt8functionIFNS_12ArenaPromiseISt10unique_ptrI19grpc_metadata_batchNS_5Arena13PooledDeleterEEEES3_EEEN3$_2D2Ev.exit.i.i.i"
  call void @llvm.lifetime.end.p0(i64 144, ptr nonnull %ref.tmp.i.i.i), !noalias !21
  %client_to_server_messages.i.i = getelementptr inbounds i8, ptr %agg.tmp.i, i64 40
  %35 = load ptr, ptr %client_to_server_messages.i.i, align 8, !noalias !21
  call void @llvm.experimental.noalias.scope.decl(metadata !25)
  call void @llvm.lifetime.start.p0(i64 8, ptr nonnull %agg.tmp.i.i.i), !noalias !21
  %36 = load ptr, ptr %35, align 8, !noalias !28
  store ptr null, ptr %35, align 8, !noalias !28
  %37 = atomicrmw add ptr %stream_refcount_.i.i.i, i64 1 monotonic, align 8, !noalias !29
  call void @llvm.experimental.noalias.scope.decl(metadata !32)
  call void @llvm.lifetime.start.p0(i64 8, ptr nonnull %agg.tmp.i.i.i.i), !noalias !28
  store ptr null, ptr %agg.tmp.i.i.i, align 8, !noalias !35
  call void @llvm.lifetime.start.p0(i64 56, ptr nonnull %ref.tmp.i.i.i.i.i), !noalias !35
  store ptr %36, ptr %agg.tmp41.i.i, align 8, !alias.scope !36, !noalias !21
  store ptr null, ptr %agg.tmp.i.i.i.i, align 8, !noalias !35
  %action_factory_.i.i.i.i.i = getelementptr inbounds i8, ptr %agg.tmp41.i.i, i64 8
  store ptr %call1.i4.i, ptr %action_factory_.i.i.i.i.i, align 8, !alias.scope !36, !noalias !21
  %reading_next_.i.i.i.i.i = getelementptr inbounds i8, ptr %agg.tmp41.i.i, i64 16
  store i8 1, ptr %reading_next_.i.i.i.i.i, align 8, !alias.scope !36, !noalias !21
  call void @llvm.experimental.noalias.scope.decl(metadata !37)
  %cmp.not.i.i1.i.i.i.i.i = icmp eq ptr %36, null
  br i1 %cmp.not.i.i1.i.i.i.i.i, label %invoke.cont47.i.i, label %if.then.i3.i.i.i.i.i.i

if.then.i3.i.i.i.i.i.i:                           ; preds = %"_ZZN9grpc_core12_GLOBAL__N_121MakeClientCallPromiseEPNS_9TransportENS_8CallArgsESt8functionIFNS_12ArenaPromiseISt10unique_ptrI19grpc_metadata_batchNS_5Arena13PooledDeleterEEEES3_EEEN3$_2D2Ev.exit.i.i"
  %refs_.i.i.i.i.i.i.i.i = getelementptr inbounds i8, ptr %36, i64 40
  %38 = load i8, ptr %refs_.i.i.i.i.i.i.i.i, align 8, !noalias !40
  %inc.i.i5.i.i.i.i.i.i = add i8 %38, 2
  store i8 %inc.i.i5.i.i.i.i.i.i, ptr %refs_.i.i.i.i.i.i.i.i, align 8, !noalias !40
  br label %invoke.cont47.i.i

invoke.cont47.i.i:                                ; preds = %if.then.i3.i.i.i.i.i.i, %"_ZZN9grpc_core12_GLOBAL__N_121MakeClientCallPromiseEPNS_9TransportENS_8CallArgsESt8functionIFNS_12ArenaPromiseISt10unique_ptrI19grpc_metadata_batchNS_5Arena13PooledDeleterEEEES3_EEEN3$_2D2Ev.exit.i.i"
  %state.i.i.i.i.i.i.i.i.i = getelementptr inbounds i8, ptr %ref.tmp.i.i.i.i.i, i64 48
  store i8 0, ptr %state.i.i.i.i.i.i.i.i.i, align 8, !alias.scope !41, !noalias !35
  %next_factory.i.i.i.i.i.i.i.i.i = getelementptr inbounds i8, ptr %ref.tmp.i.i.i.i.i, i64 8
  %39 = getelementptr inbounds i8, ptr %agg.tmp41.i.i, i64 24
  %state.i.i.i.i.i.i.i.i = getelementptr inbounds i8, ptr %agg.tmp41.i.i, i64 72
  store i8 0, ptr %state.i.i.i.i.i.i.i.i, align 8, !alias.scope !36, !noalias !21
  store ptr %36, ptr %39, align 8, !alias.scope !36, !noalias !21
  store ptr null, ptr %ref.tmp.i.i.i.i.i, align 8, !noalias !35
  %next_factory.i.i.i.i.i.i.i.i = getelementptr inbounds i8, ptr %agg.tmp41.i.i, i64 32
  store ptr %36, ptr %next_factory.i.i.i.i.i.i.i.i, align 8, !alias.scope !36, !noalias !21
  store ptr null, ptr %next_factory.i.i.i.i.i.i.i.i.i, align 8, !noalias !35
  call void @_ZN9grpc_core14promise_detail8SeqStateINS0_9SeqTraitsENS_11pipe_detail4NextISt10unique_ptrINS_7MessageENS_5Arena13PooledDeleterEEEEJZNS_12PipeReceiverIS9_E4NextEvEUlSt8optionalIS9_EE_EED2Ev(ptr noundef nonnull align 8 dereferenceable(49) %ref.tmp.i.i.i.i.i) #23, !noalias !35
  call void @llvm.lifetime.end.p0(i64 56, ptr nonnull %ref.tmp.i.i.i.i.i), !noalias !35
  call void @_ZN9grpc_core12PipeReceiverISt10unique_ptrINS_7MessageENS_5Arena13PooledDeleterEEED2Ev(ptr noundef nonnull align 8 dereferenceable(8) %agg.tmp.i.i.i.i) #23, !noalias !35
  call void @llvm.lifetime.end.p0(i64 8, ptr nonnull %agg.tmp.i.i.i.i), !noalias !28
  call void @_ZN9grpc_core12PipeReceiverISt10unique_ptrINS_7MessageENS_5Arena13PooledDeleterEEED2Ev(ptr noundef nonnull align 8 dereferenceable(8) %agg.tmp.i.i.i) #23, !noalias !28
  call void @llvm.lifetime.end.p0(i64 8, ptr nonnull %agg.tmp.i.i.i), !noalias !21
  %40 = atomicrmw add ptr %stream_refcount_.i.i.i, i64 1 monotonic, align 8, !noalias !44
  %state.i.i.i.i.i = getelementptr inbounds i8, ptr %agg.tmp40.i.i, i64 88
  store i8 0, ptr %state.i.i.i.i.i, align 8, !alias.scope !47, !noalias !21
  %41 = load ptr, ptr %agg.tmp41.i.i, align 8, !noalias !21
  store ptr null, ptr %agg.tmp41.i.i, align 8, !noalias !21
  %action_factory_.i.i.i = getelementptr inbounds i8, ptr %agg.tmp40.i.i, i64 8
  %42 = load ptr, ptr %action_factory_.i.i.i.i.i, align 8, !noalias !21
  store ptr null, ptr %action_factory_.i.i.i.i.i, align 8, !noalias !21
  %reading_next_.i.i.i = getelementptr inbounds i8, ptr %agg.tmp40.i.i, i64 16
  store i8 1, ptr %reading_next_.i.i.i, align 8, !noalias !21
  %43 = getelementptr inbounds i8, ptr %agg.tmp40.i.i, i64 24
  %state.i.i.i.i272.i.i = getelementptr inbounds i8, ptr %agg.tmp40.i.i, i64 72
  %44 = load i8, ptr %state.i.i.i.i.i.i.i.i, align 8, !noalias !21
  store i8 %44, ptr %state.i.i.i.i272.i.i, align 8, !noalias !21
  switch i8 %44, label %sw.bb.i.i.i.i.i [
    i8 0, label %sw.bb.i.i.i.i277.i.i
    i8 1, label %sw.bb5.i.i.i.i274.i.i
  ]

sw.bb.i.i.i.i277.i.i:                             ; preds = %invoke.cont47.i.i
  %45 = load ptr, ptr %39, align 8, !noalias !21
  store ptr %45, ptr %43, align 8, !noalias !21
  store ptr null, ptr %39, align 8, !noalias !21
  br label %sw.bb.i.i.i.i.i

sw.bb5.i.i.i.i274.i.i:                            ; preds = %invoke.cont47.i.i
  %46 = load i8, ptr %39, align 8, !noalias !21
  %47 = and i8 %46, 1
  %tobool.not.i.i.i.i.i.i.i.i.i = icmp eq i8 %47, 0
  store i8 %47, ptr %43, align 8, !noalias !21
  %48 = getelementptr inbounds i8, ptr %agg.tmp40.i.i, i64 32
  br i1 %tobool.not.i.i.i.i.i.i.i.i.i, label %if.else.i.i.i.i.i.i.i.i.i, label %if.then.i.i.i.i.i.i.i275.i.i

if.then.i.i.i.i.i.i.i275.i.i:                     ; preds = %sw.bb5.i.i.i.i274.i.i
  %is_immediately_resolved_.i.i.i.i.i.i.i.i.i.i.i.i.i.i = getelementptr inbounds i8, ptr %agg.tmp40.i.i, i64 56
  %is_immediately_resolved_2.i.i.i.i.i.i.i.i.i.i.i.i.i.i = getelementptr inbounds i8, ptr %agg.tmp41.i.i, i64 56
  %49 = load i8, ptr %is_immediately_resolved_2.i.i.i.i.i.i.i.i.i.i.i.i.i.i, align 8, !noalias !21
  %50 = and i8 %49, 1
  %tobool.not.i.i.i.i.i.i.i.i.i.i.i.i.i.i = icmp eq i8 %50, 0
  store i8 %50, ptr %is_immediately_resolved_.i.i.i.i.i.i.i.i.i.i.i.i.i.i, align 8, !noalias !21
  br i1 %tobool.not.i.i.i.i.i.i.i.i.i.i.i.i.i.i, label %if.else.i.i.i.i.i.i.i.i.i.i.i.i276.i.i, label %if.then.i.i.i.i.i.i.i.i.i.i.i.i.i.i

if.then.i.i.i.i.i.i.i.i.i.i.i.i.i.i:              ; preds = %if.then.i.i.i.i.i.i.i275.i.i
  %_M_engaged.i.i.i.i.i.i.i.i.i.i.i.i.i.i.i.i.i = getelementptr inbounds i8, ptr %agg.tmp41.i.i, i64 48
  %_M_engaged.i.i.i.i.i.i.i.i.i.i.i.i.i.i.i.i.i.i.i.i = getelementptr inbounds i8, ptr %agg.tmp40.i.i, i64 48
  store i8 0, ptr %_M_engaged.i.i.i.i.i.i.i.i.i.i.i.i.i.i.i.i.i.i.i.i, align 8, !noalias !21
  %51 = load i8, ptr %_M_engaged.i.i.i.i.i.i.i.i.i.i.i.i.i.i.i.i.i, align 8, !noalias !21
  %52 = and i8 %51, 1
  %tobool.not.i.i.i.i.i.i.i.i.i.i.i.i.i.i.i.i.i.i.i.i = icmp eq i8 %52, 0
  br i1 %tobool.not.i.i.i.i.i.i.i.i.i.i.i.i.i.i.i.i.i.i.i.i, label %_ZN9grpc_core9ConstructINS_14promise_detail11PromiseLikeINS1_3MapINS_15InterceptorListISt10unique_ptrINS_7MessageENS_5Arena13PooledDeleterEEE10RunPromiseEZZZNS_12PipeReceiverIS9_E4NextEvENKUlSt8optionalIS9_EE_clESF_ENUlvE_clEvEUlSF_E_EEvEEJSK_EEEvPT_DpOT0_.exit.i.i.i.i.i.i.i.i.i, label %if.then.i.i.i.i.i.i.i.i.i.i.i.i.i.i.i.i.i.i.i.i

if.then.i.i.i.i.i.i.i.i.i.i.i.i.i.i.i.i.i.i.i.i:  ; preds = %if.then.i.i.i.i.i.i.i.i.i.i.i.i.i.i
  %53 = load i8, ptr %next_factory.i.i.i.i.i.i.i.i, align 8, !noalias !21
  store i8 %53, ptr %48, align 8, !noalias !21
  %54 = getelementptr inbounds i8, ptr %agg.tmp40.i.i, i64 40
  %add.ptr.i.i.i.i.i.i.i.i.i.i.i.i.i.i.i.i.i.i.i.i.i.i.i.i.i.i.i = getelementptr inbounds i8, ptr %agg.tmp41.i.i, i64 40
  %55 = load i64, ptr %add.ptr.i.i.i.i.i.i.i.i.i.i.i.i.i.i.i.i.i.i.i.i.i.i.i.i.i.i.i, align 8, !noalias !21
  store i64 %55, ptr %54, align 8, !noalias !21
  store ptr null, ptr %add.ptr.i.i.i.i.i.i.i.i.i.i.i.i.i.i.i.i.i.i.i.i.i.i.i.i.i.i.i, align 8, !noalias !21
  store i8 1, ptr %_M_engaged.i.i.i.i.i.i.i.i.i.i.i.i.i.i.i.i.i.i.i.i, align 8, !noalias !21
  br label %_ZN9grpc_core9ConstructINS_14promise_detail11PromiseLikeINS1_3MapINS_15InterceptorListISt10unique_ptrINS_7MessageENS_5Arena13PooledDeleterEEE10RunPromiseEZZZNS_12PipeReceiverIS9_E4NextEvENKUlSt8optionalIS9_EE_clESF_ENUlvE_clEvEUlSF_E_EEvEEJSK_EEEvPT_DpOT0_.exit.i.i.i.i.i.i.i.i.i

if.else.i.i.i.i.i.i.i.i.i.i.i.i276.i.i:           ; preds = %if.then.i.i.i.i.i.i.i275.i.i
  %56 = load ptr, ptr %next_factory.i.i.i.i.i.i.i.i, align 8, !noalias !21
  store ptr null, ptr %next_factory.i.i.i.i.i.i.i.i, align 8, !noalias !21
  store ptr %56, ptr %48, align 8, !noalias !21
  %space.i.i.i.i.i.i.i.i.i.i.i.i.i.i.i.i = getelementptr inbounds i8, ptr %agg.tmp40.i.i, i64 40
  %space3.i.i.i.i.i.i.i.i.i.i.i.i.i.i.i.i = getelementptr inbounds i8, ptr %agg.tmp41.i.i, i64 40
  %57 = load i8, ptr %space3.i.i.i.i.i.i.i.i.i.i.i.i.i.i.i.i, align 8, !noalias !21
  store i8 %57, ptr %space.i.i.i.i.i.i.i.i.i.i.i.i.i.i.i.i, align 8, !noalias !21
  %58 = getelementptr inbounds i8, ptr %agg.tmp40.i.i, i64 48
  %add.ptr.i.i.i.i.i.i.i.i.i.i.i.i.i.i.i.i.i.i.i.i.i = getelementptr inbounds i8, ptr %agg.tmp41.i.i, i64 48
  %59 = load i64, ptr %add.ptr.i.i.i.i.i.i.i.i.i.i.i.i.i.i.i.i.i.i.i.i.i, align 8, !noalias !21
  store i64 %59, ptr %58, align 8, !noalias !21
  store ptr null, ptr %add.ptr.i.i.i.i.i.i.i.i.i.i.i.i.i.i.i.i.i.i.i.i.i, align 8, !noalias !21
  br label %_ZN9grpc_core9ConstructINS_14promise_detail11PromiseLikeINS1_3MapINS_15InterceptorListISt10unique_ptrINS_7MessageENS_5Arena13PooledDeleterEEE10RunPromiseEZZZNS_12PipeReceiverIS9_E4NextEvENKUlSt8optionalIS9_EE_clESF_ENUlvE_clEvEUlSF_E_EEvEEJSK_EEEvPT_DpOT0_.exit.i.i.i.i.i.i.i.i.i

_ZN9grpc_core9ConstructINS_14promise_detail11PromiseLikeINS1_3MapINS_15InterceptorListISt10unique_ptrINS_7MessageENS_5Arena13PooledDeleterEEE10RunPromiseEZZZNS_12PipeReceiverIS9_E4NextEvENKUlSt8optionalIS9_EE_clESF_ENUlvE_clEvEUlSF_E_EEvEEJSK_EEEvPT_DpOT0_.exit.i.i.i.i.i.i.i.i.i: ; preds = %if.else.i.i.i.i.i.i.i.i.i.i.i.i276.i.i, %if.then.i.i.i.i.i.i.i.i.i.i.i.i.i.i.i.i.i.i.i.i, %if.then.i.i.i.i.i.i.i.i.i.i.i.i.i.i
  %fn_.i.i.i.i.i.i.i.i.i.i.i.i = getelementptr inbounds i8, ptr %agg.tmp40.i.i, i64 64
  %fn_3.i.i.i.i.i.i.i.i.i.i.i.i = getelementptr inbounds i8, ptr %agg.tmp41.i.i, i64 64
  %60 = load ptr, ptr %fn_3.i.i.i.i.i.i.i.i.i.i.i.i, align 8, !noalias !21
  store ptr %60, ptr %fn_.i.i.i.i.i.i.i.i.i.i.i.i, align 8, !noalias !21
  store ptr null, ptr %fn_3.i.i.i.i.i.i.i.i.i.i.i.i, align 8, !noalias !21
  br label %sw.bb.i.i.i.thread.i.i

if.else.i.i.i.i.i.i.i.i.i:                        ; preds = %sw.bb5.i.i.i.i274.i.i
  %61 = load i8, ptr %next_factory.i.i.i.i.i.i.i.i, align 8, !noalias !21
  store i8 %61, ptr %48, align 8, !noalias !21
  br label %sw.bb.i.i.i.thread.i.i

sw.bb.i.i.i.thread.i.i:                           ; preds = %if.else.i.i.i.i.i.i.i.i.i, %_ZN9grpc_core9ConstructINS_14promise_detail11PromiseLikeINS1_3MapINS_15InterceptorListISt10unique_ptrINS_7MessageENS_5Arena13PooledDeleterEEE10RunPromiseEZZZNS_12PipeReceiverIS9_E4NextEvENKUlSt8optionalIS9_EE_clESF_ENUlvE_clEvEUlSF_E_EEvEEJSK_EEEvPT_DpOT0_.exit.i.i.i.i.i.i.i.i.i
  %next_factory.i.i.i1.i.i = getelementptr inbounds i8, ptr %agg.tmp40.i.i, i64 80
  store ptr %call1.i4.i, ptr %next_factory.i.i.i1.i.i, align 8, !alias.scope !47, !noalias !21
  call void @llvm.lifetime.start.p0(i64 144, ptr nonnull %ref.tmp.i45.i.i), !noalias !21
  call void @llvm.lifetime.start.p0(i64 96, ptr nonnull %agg.tmp2.i.i.i), !noalias !21
  store ptr %27, ptr %ref.tmp.i45.i.i, align 8, !noalias !21
  %num_participants_.i.i462.i.i = getelementptr inbounds i8, ptr %ref.tmp.i45.i.i, i64 8
  store i64 0, ptr %num_participants_.i.i462.i.i, align 8, !noalias !21
  %state.i.i.i473.i.i = getelementptr inbounds i8, ptr %agg.tmp2.i.i.i, i64 88
  store i8 0, ptr %state.i.i.i473.i.i, align 8, !noalias !21
  store ptr %41, ptr %agg.tmp2.i.i.i, align 8, !noalias !21
  store ptr null, ptr %agg.tmp40.i.i, align 8, !noalias !21
  %action_factory_.i.i4.i.i = getelementptr inbounds i8, ptr %agg.tmp2.i.i.i, i64 8
  store ptr %42, ptr %action_factory_.i.i4.i.i, align 8, !noalias !21
  store ptr null, ptr %action_factory_.i.i.i, align 8, !noalias !21
  %reading_next_.i.i5.i.i = getelementptr inbounds i8, ptr %agg.tmp2.i.i.i, i64 16
  store i8 1, ptr %reading_next_.i.i5.i.i, align 8, !noalias !21
  %62 = getelementptr inbounds i8, ptr %agg.tmp2.i.i.i, i64 24
  %state.i.i.i.i11.i6.i.i = getelementptr inbounds i8, ptr %agg.tmp2.i.i.i, i64 72
  store i8 1, ptr %state.i.i.i.i11.i6.i.i, align 8, !noalias !21
  store i8 %47, ptr %62, align 8, !noalias !21
  %63 = getelementptr inbounds i8, ptr %agg.tmp2.i.i.i, i64 32
  br i1 %tobool.not.i.i.i.i.i.i.i.i.i, label %if.else.i.i.i.i.i.i.i.i.i.i, label %if.then.i.i.i.i.i.i.i13.i.i.i

sw.bb.i.i.i.i.i:                                  ; preds = %sw.bb.i.i.i.i277.i.i, %invoke.cont47.i.i
  %next_factory.i.i.i.i279.i.i = getelementptr inbounds i8, ptr %agg.tmp40.i.i, i64 32
  %64 = load ptr, ptr %next_factory.i.i.i.i.i.i.i.i, align 8, !noalias !21
  store ptr null, ptr %next_factory.i.i.i.i.i.i.i.i, align 8, !noalias !21
  %next_factory.i.i.i.i.i = getelementptr inbounds i8, ptr %agg.tmp40.i.i, i64 80
  store ptr %call1.i4.i, ptr %next_factory.i.i.i.i.i, align 8, !alias.scope !47, !noalias !21
  call void @llvm.lifetime.start.p0(i64 144, ptr nonnull %ref.tmp.i45.i.i), !noalias !21
  call void @llvm.lifetime.start.p0(i64 96, ptr nonnull %agg.tmp2.i.i.i), !noalias !21
  store ptr %27, ptr %ref.tmp.i45.i.i, align 8, !noalias !21
  %num_participants_.i.i46.i.i = getelementptr inbounds i8, ptr %ref.tmp.i45.i.i, i64 8
  store i64 0, ptr %num_participants_.i.i46.i.i, align 8, !noalias !21
  %state.i.i.i47.i.i = getelementptr inbounds i8, ptr %agg.tmp2.i.i.i, i64 88
  store i8 0, ptr %state.i.i.i47.i.i, align 8, !noalias !21
  store ptr %41, ptr %agg.tmp2.i.i.i, align 8, !noalias !21
  store ptr null, ptr %agg.tmp40.i.i, align 8, !noalias !21
  %action_factory_.i.i.i.i = getelementptr inbounds i8, ptr %agg.tmp2.i.i.i, i64 8
  store ptr %42, ptr %action_factory_.i.i.i.i, align 8, !noalias !21
  store ptr null, ptr %action_factory_.i.i.i, align 8, !noalias !21
  %reading_next_.i.i.i.i = getelementptr inbounds i8, ptr %agg.tmp2.i.i.i, i64 16
  store i8 1, ptr %reading_next_.i.i.i.i, align 8, !noalias !21
  %state.i.i.i.i11.i.i.i = getelementptr inbounds i8, ptr %agg.tmp2.i.i.i, i64 72
  store i8 %44, ptr %state.i.i.i.i11.i.i.i, align 8, !noalias !21
  %cond.i.i = icmp eq i8 %44, 0
  br i1 %cond.i.i, label %sw.bb.i.i.i.i15.i.i.i, label %tail0.i.i.i.i.i.i.i

sw.bb.i.i.i.i15.i.i.i:                            ; preds = %sw.bb.i.i.i.i.i
  %65 = getelementptr inbounds i8, ptr %agg.tmp2.i.i.i, i64 24
  %66 = load ptr, ptr %43, align 8, !noalias !21
  store ptr %66, ptr %65, align 8, !noalias !21
  store ptr null, ptr %43, align 8, !noalias !21
  %67 = ptrtoint ptr %66 to i64
  %68 = trunc i64 %67 to i8
  br label %tail0.i.i.i.i.i.i.i

if.then.i.i.i.i.i.i.i13.i.i.i:                    ; preds = %sw.bb.i.i.i.thread.i.i
  %is_immediately_resolved_.i.i.i.i.i.i.i.i.i.i.i.i.i.i.i = getelementptr inbounds i8, ptr %agg.tmp2.i.i.i, i64 56
  %is_immediately_resolved_2.i.i.i.i.i.i.i.i.i.i.i.i.i.i.i = getelementptr inbounds i8, ptr %agg.tmp40.i.i, i64 56
  %69 = load i8, ptr %is_immediately_resolved_2.i.i.i.i.i.i.i.i.i.i.i.i.i.i.i, align 8, !noalias !21
  %70 = and i8 %69, 1
  %tobool.not.i.i.i.i.i.i.i.i.i.i.i.i.i.i.i = icmp eq i8 %70, 0
  store i8 %70, ptr %is_immediately_resolved_.i.i.i.i.i.i.i.i.i.i.i.i.i.i.i, align 8, !noalias !21
  br i1 %tobool.not.i.i.i.i.i.i.i.i.i.i.i.i.i.i.i, label %if.else.i.i.i.i.i.i.i.i.i.i.i.i.i.i.i, label %if.then.i.i.i.i.i.i.i.i.i.i.i.i14.i.i.i

if.then.i.i.i.i.i.i.i.i.i.i.i.i14.i.i.i:          ; preds = %if.then.i.i.i.i.i.i.i13.i.i.i
  %_M_engaged.i.i.i.i.i.i.i.i.i.i.i.i.i.i.i.i.i.i = getelementptr inbounds i8, ptr %agg.tmp40.i.i, i64 48
  %_M_engaged.i.i.i.i.i.i.i.i.i.i.i.i.i.i.i.i.i.i.i.i.i = getelementptr inbounds i8, ptr %agg.tmp2.i.i.i, i64 48
  store i8 0, ptr %_M_engaged.i.i.i.i.i.i.i.i.i.i.i.i.i.i.i.i.i.i.i.i.i, align 8, !noalias !21
  %71 = load i8, ptr %_M_engaged.i.i.i.i.i.i.i.i.i.i.i.i.i.i.i.i.i.i, align 8, !noalias !21
  %72 = and i8 %71, 1
  %tobool.not.i.i.i.i.i.i.i.i.i.i.i.i.i.i.i.i.i.i.i.i.i = icmp eq i8 %72, 0
  br i1 %tobool.not.i.i.i.i.i.i.i.i.i.i.i.i.i.i.i.i.i.i.i.i.i, label %_ZN9grpc_core9ConstructINS_14promise_detail11PromiseLikeINS1_3MapINS_15InterceptorListISt10unique_ptrINS_7MessageENS_5Arena13PooledDeleterEEE10RunPromiseEZZZNS_12PipeReceiverIS9_E4NextEvENKUlSt8optionalIS9_EE_clESF_ENUlvE_clEvEUlSF_E_EEvEEJSK_EEEvPT_DpOT0_.exit.i.i.i.i.i.i.i.i.i.i, label %if.then.i.i.i.i.i.i.i.i.i.i.i.i.i.i.i.i.i.i.i.i.i

if.then.i.i.i.i.i.i.i.i.i.i.i.i.i.i.i.i.i.i.i.i.i: ; preds = %if.then.i.i.i.i.i.i.i.i.i.i.i.i14.i.i.i
  %73 = load i8, ptr %48, align 8, !noalias !21
  store i8 %73, ptr %63, align 8, !noalias !21
  %74 = getelementptr inbounds i8, ptr %agg.tmp2.i.i.i, i64 40
  %add.ptr.i.i.i.i.i.i.i.i.i.i.i.i.i.i.i.i.i.i.i.i.i.i.i.i.i.i.i.i = getelementptr inbounds i8, ptr %agg.tmp40.i.i, i64 40
  %75 = load i64, ptr %add.ptr.i.i.i.i.i.i.i.i.i.i.i.i.i.i.i.i.i.i.i.i.i.i.i.i.i.i.i.i, align 8, !noalias !21
  store i64 %75, ptr %74, align 8, !noalias !21
  store ptr null, ptr %add.ptr.i.i.i.i.i.i.i.i.i.i.i.i.i.i.i.i.i.i.i.i.i.i.i.i.i.i.i.i, align 8, !noalias !21
  store i8 1, ptr %_M_engaged.i.i.i.i.i.i.i.i.i.i.i.i.i.i.i.i.i.i.i.i.i, align 8, !noalias !21
  %76 = trunc i64 %75 to i8
  br label %_ZN9grpc_core9ConstructINS_14promise_detail11PromiseLikeINS1_3MapINS_15InterceptorListISt10unique_ptrINS_7MessageENS_5Arena13PooledDeleterEEE10RunPromiseEZZZNS_12PipeReceiverIS9_E4NextEvENKUlSt8optionalIS9_EE_clESF_ENUlvE_clEvEUlSF_E_EEvEEJSK_EEEvPT_DpOT0_.exit.i.i.i.i.i.i.i.i.i.i

if.else.i.i.i.i.i.i.i.i.i.i.i.i.i.i.i:            ; preds = %if.then.i.i.i.i.i.i.i13.i.i.i
  %77 = load ptr, ptr %48, align 8, !noalias !21
  store ptr null, ptr %48, align 8, !noalias !21
  store ptr %77, ptr %63, align 8, !noalias !21
  %space.i.i.i.i.i.i.i.i.i.i.i.i.i.i.i.i.i = getelementptr inbounds i8, ptr %agg.tmp2.i.i.i, i64 40
  %space3.i.i.i.i.i.i.i.i.i.i.i.i.i.i.i.i.i = getelementptr inbounds i8, ptr %agg.tmp40.i.i, i64 40
  %78 = load i8, ptr %space3.i.i.i.i.i.i.i.i.i.i.i.i.i.i.i.i.i, align 8, !noalias !21
  store i8 %78, ptr %space.i.i.i.i.i.i.i.i.i.i.i.i.i.i.i.i.i, align 8, !noalias !21
  %79 = getelementptr inbounds i8, ptr %agg.tmp2.i.i.i, i64 48
  %add.ptr.i.i.i.i.i.i.i.i.i.i.i.i.i.i.i.i.i.i.i.i.i.i = getelementptr inbounds i8, ptr %agg.tmp40.i.i, i64 48
  %80 = load i64, ptr %add.ptr.i.i.i.i.i.i.i.i.i.i.i.i.i.i.i.i.i.i.i.i.i.i, align 8, !noalias !21
  store i64 %80, ptr %79, align 8, !noalias !21
  store ptr null, ptr %add.ptr.i.i.i.i.i.i.i.i.i.i.i.i.i.i.i.i.i.i.i.i.i.i, align 8, !noalias !21
  %81 = trunc i64 %80 to i8
  %82 = ptrtoint ptr %77 to i64
  %83 = trunc i64 %82 to i8
  br label %_ZN9grpc_core9ConstructINS_14promise_detail11PromiseLikeINS1_3MapINS_15InterceptorListISt10unique_ptrINS_7MessageENS_5Arena13PooledDeleterEEE10RunPromiseEZZZNS_12PipeReceiverIS9_E4NextEvENKUlSt8optionalIS9_EE_clESF_ENUlvE_clEvEUlSF_E_EEvEEJSK_EEEvPT_DpOT0_.exit.i.i.i.i.i.i.i.i.i.i

_ZN9grpc_core9ConstructINS_14promise_detail11PromiseLikeINS1_3MapINS_15InterceptorListISt10unique_ptrINS_7MessageENS_5Arena13PooledDeleterEEE10RunPromiseEZZZNS_12PipeReceiverIS9_E4NextEvENKUlSt8optionalIS9_EE_clESF_ENUlvE_clEvEUlSF_E_EEvEEJSK_EEEvPT_DpOT0_.exit.i.i.i.i.i.i.i.i.i.i: ; preds = %if.else.i.i.i.i.i.i.i.i.i.i.i.i.i.i.i, %if.then.i.i.i.i.i.i.i.i.i.i.i.i.i.i.i.i.i.i.i.i.i, %if.then.i.i.i.i.i.i.i.i.i.i.i.i14.i.i.i
  %84 = phi i8 [ %83, %if.else.i.i.i.i.i.i.i.i.i.i.i.i.i.i.i ], [ %73, %if.then.i.i.i.i.i.i.i.i.i.i.i.i.i.i.i.i.i.i.i.i.i ], [ undef, %if.then.i.i.i.i.i.i.i.i.i.i.i.i14.i.i.i ]
  %85 = phi i8 [ %78, %if.else.i.i.i.i.i.i.i.i.i.i.i.i.i.i.i ], [ %76, %if.then.i.i.i.i.i.i.i.i.i.i.i.i.i.i.i.i.i.i.i.i.i ], [ undef, %if.then.i.i.i.i.i.i.i.i.i.i.i.i14.i.i.i ]
  %86 = phi i8 [ %81, %if.else.i.i.i.i.i.i.i.i.i.i.i.i.i.i.i ], [ 1, %if.then.i.i.i.i.i.i.i.i.i.i.i.i.i.i.i.i.i.i.i.i.i ], [ 0, %if.then.i.i.i.i.i.i.i.i.i.i.i.i14.i.i.i ]
  %fn_.i.i.i.i.i.i.i.i.i.i.i.i.i = getelementptr inbounds i8, ptr %agg.tmp2.i.i.i, i64 64
  %fn_3.i.i.i.i.i.i.i.i.i.i.i.i.i = getelementptr inbounds i8, ptr %agg.tmp40.i.i, i64 64
  %87 = load ptr, ptr %fn_3.i.i.i.i.i.i.i.i.i.i.i.i.i, align 8, !noalias !21
  store ptr %87, ptr %fn_.i.i.i.i.i.i.i.i.i.i.i.i.i, align 8, !noalias !21
  store ptr null, ptr %fn_3.i.i.i.i.i.i.i.i.i.i.i.i.i, align 8, !noalias !21
  br label %"_ZN9grpc_core14promise_detail6TrySeqINS_15for_each_detail7ForEachINS_12PipeReceiverISt10unique_ptrINS_7MessageENS_5Arena13PooledDeleterEEEEZNS_12_GLOBAL__N_122ConnectedChannelStream12SendMessagesEPSA_E3$_0EEJZNSB_21MakeClientCallPromiseEPNS_9TransportENS_8CallArgsESt8functionIFNS_12ArenaPromiseIS5_I19grpc_metadata_batchS8_EEESI_EEE3$_3EEC2EOSR_.exit.i.i.i"

if.else.i.i.i.i.i.i.i.i.i.i:                      ; preds = %sw.bb.i.i.i.thread.i.i
  %88 = load i8, ptr %48, align 8, !noalias !21
  store i8 %88, ptr %63, align 8, !noalias !21
  br label %"_ZN9grpc_core14promise_detail6TrySeqINS_15for_each_detail7ForEachINS_12PipeReceiverISt10unique_ptrINS_7MessageENS_5Arena13PooledDeleterEEEEZNS_12_GLOBAL__N_122ConnectedChannelStream12SendMessagesEPSA_E3$_0EEJZNSB_21MakeClientCallPromiseEPNS_9TransportENS_8CallArgsESt8functionIFNS_12ArenaPromiseIS5_I19grpc_metadata_batchS8_EEESI_EEE3$_3EEC2EOSR_.exit.i.i.i"

tail0.i.i.i.i.i.i.i:                              ; preds = %sw.bb.i.i.i.i15.i.i.i, %sw.bb.i.i.i.i.i
  %89 = phi i8 [ %68, %sw.bb.i.i.i.i15.i.i.i ], [ undef, %sw.bb.i.i.i.i.i ]
  %next_factory.i.i.i.i16.i.i.i = getelementptr inbounds i8, ptr %agg.tmp2.i.i.i, i64 32
  store ptr %64, ptr %next_factory.i.i.i.i16.i.i.i, align 8, !noalias !21
  store ptr null, ptr %next_factory.i.i.i.i279.i.i, align 8, !noalias !21
  %90 = ptrtoint ptr %64 to i64
  %91 = trunc i64 %90 to i8
  br label %"_ZN9grpc_core14promise_detail6TrySeqINS_15for_each_detail7ForEachINS_12PipeReceiverISt10unique_ptrINS_7MessageENS_5Arena13PooledDeleterEEEEZNS_12_GLOBAL__N_122ConnectedChannelStream12SendMessagesEPSA_E3$_0EEJZNSB_21MakeClientCallPromiseEPNS_9TransportENS_8CallArgsESt8functionIFNS_12ArenaPromiseIS5_I19grpc_metadata_batchS8_EEESI_EEE3$_3EEC2EOSR_.exit.i.i.i"

"_ZN9grpc_core14promise_detail6TrySeqINS_15for_each_detail7ForEachINS_12PipeReceiverISt10unique_ptrINS_7MessageENS_5Arena13PooledDeleterEEEEZNS_12_GLOBAL__N_122ConnectedChannelStream12SendMessagesEPSA_E3$_0EEJZNSB_21MakeClientCallPromiseEPNS_9TransportENS_8CallArgsESt8functionIFNS_12ArenaPromiseIS5_I19grpc_metadata_batchS8_EEESI_EEE3$_3EEC2EOSR_.exit.i.i.i": ; preds = %tail0.i.i.i.i.i.i.i, %if.else.i.i.i.i.i.i.i.i.i.i, %_ZN9grpc_core9ConstructINS_14promise_detail11PromiseLikeINS1_3MapINS_15InterceptorListISt10unique_ptrINS_7MessageENS_5Arena13PooledDeleterEEE10RunPromiseEZZZNS_12PipeReceiverIS9_E4NextEvENKUlSt8optionalIS9_EE_clESF_ENUlvE_clEvEUlSF_E_EEvEEJSK_EEEvPT_DpOT0_.exit.i.i.i.i.i.i.i.i.i.i
  %state.i.i.i4714.i.i = phi ptr [ %state.i.i.i47.i.i, %tail0.i.i.i.i.i.i.i ], [ %state.i.i.i473.i.i, %if.else.i.i.i.i.i.i.i.i.i.i ], [ %state.i.i.i473.i.i, %_ZN9grpc_core9ConstructINS_14promise_detail11PromiseLikeINS1_3MapINS_15InterceptorListISt10unique_ptrINS_7MessageENS_5Arena13PooledDeleterEEE10RunPromiseEZZZNS_12PipeReceiverIS9_E4NextEvENKUlSt8optionalIS9_EE_clESF_ENUlvE_clEvEUlSF_E_EEvEEJSK_EEEvPT_DpOT0_.exit.i.i.i.i.i.i.i.i.i.i ]
  %num_participants_.i.i4611.i.i = phi ptr [ %num_participants_.i.i46.i.i, %tail0.i.i.i.i.i.i.i ], [ %num_participants_.i.i462.i.i, %if.else.i.i.i.i.i.i.i.i.i.i ], [ %num_participants_.i.i462.i.i, %_ZN9grpc_core9ConstructINS_14promise_detail11PromiseLikeINS1_3MapINS_15InterceptorListISt10unique_ptrINS_7MessageENS_5Arena13PooledDeleterEEE10RunPromiseEZZZNS_12PipeReceiverIS9_E4NextEvENKUlSt8optionalIS9_EE_clESF_ENUlvE_clEvEUlSF_E_EEvEEJSK_EEEvPT_DpOT0_.exit.i.i.i.i.i.i.i.i.i.i ]
  %next_factory.i.i.i7.i.i = phi ptr [ %next_factory.i.i.i.i.i, %tail0.i.i.i.i.i.i.i ], [ %next_factory.i.i.i1.i.i, %if.else.i.i.i.i.i.i.i.i.i.i ], [ %next_factory.i.i.i1.i.i, %_ZN9grpc_core9ConstructINS_14promise_detail11PromiseLikeINS1_3MapINS_15InterceptorListISt10unique_ptrINS_7MessageENS_5Arena13PooledDeleterEEE10RunPromiseEZZZNS_12PipeReceiverIS9_E4NextEvENKUlSt8optionalIS9_EE_clESF_ENUlvE_clEvEUlSF_E_EEvEEJSK_EEEvPT_DpOT0_.exit.i.i.i.i.i.i.i.i.i.i ]
  %92 = phi i8 [ %91, %tail0.i.i.i.i.i.i.i ], [ %88, %if.else.i.i.i.i.i.i.i.i.i.i ], [ %84, %_ZN9grpc_core9ConstructINS_14promise_detail11PromiseLikeINS1_3MapINS_15InterceptorListISt10unique_ptrINS_7MessageENS_5Arena13PooledDeleterEEE10RunPromiseEZZZNS_12PipeReceiverIS9_E4NextEvENKUlSt8optionalIS9_EE_clESF_ENUlvE_clEvEUlSF_E_EEvEEJSK_EEEvPT_DpOT0_.exit.i.i.i.i.i.i.i.i.i.i ]
  %93 = phi ptr [ undef, %tail0.i.i.i.i.i.i.i ], [ undef, %if.else.i.i.i.i.i.i.i.i.i.i ], [ %87, %_ZN9grpc_core9ConstructINS_14promise_detail11PromiseLikeINS1_3MapINS_15InterceptorListISt10unique_ptrINS_7MessageENS_5Arena13PooledDeleterEEE10RunPromiseEZZZNS_12PipeReceiverIS9_E4NextEvENKUlSt8optionalIS9_EE_clESF_ENUlvE_clEvEUlSF_E_EEvEEJSK_EEEvPT_DpOT0_.exit.i.i.i.i.i.i.i.i.i.i ]
  %94 = phi i8 [ undef, %tail0.i.i.i.i.i.i.i ], [ undef, %if.else.i.i.i.i.i.i.i.i.i.i ], [ %85, %_ZN9grpc_core9ConstructINS_14promise_detail11PromiseLikeINS1_3MapINS_15InterceptorListISt10unique_ptrINS_7MessageENS_5Arena13PooledDeleterEEE10RunPromiseEZZZNS_12PipeReceiverIS9_E4NextEvENKUlSt8optionalIS9_EE_clESF_ENUlvE_clEvEUlSF_E_EEvEEJSK_EEEvPT_DpOT0_.exit.i.i.i.i.i.i.i.i.i.i ]
  %95 = phi i8 [ undef, %tail0.i.i.i.i.i.i.i ], [ undef, %if.else.i.i.i.i.i.i.i.i.i.i ], [ %86, %_ZN9grpc_core9ConstructINS_14promise_detail11PromiseLikeINS1_3MapINS_15InterceptorListISt10unique_ptrINS_7MessageENS_5Arena13PooledDeleterEEE10RunPromiseEZZZNS_12PipeReceiverIS9_E4NextEvENKUlSt8optionalIS9_EE_clESF_ENUlvE_clEvEUlSF_E_EEvEEJSK_EEEvPT_DpOT0_.exit.i.i.i.i.i.i.i.i.i.i ]
  %96 = phi i8 [ 0, %tail0.i.i.i.i.i.i.i ], [ 0, %if.else.i.i.i.i.i.i.i.i.i.i ], [ %70, %_ZN9grpc_core9ConstructINS_14promise_detail11PromiseLikeINS1_3MapINS_15InterceptorListISt10unique_ptrINS_7MessageENS_5Arena13PooledDeleterEEE10RunPromiseEZZZNS_12PipeReceiverIS9_E4NextEvENKUlSt8optionalIS9_EE_clESF_ENUlvE_clEvEUlSF_E_EEvEEJSK_EEEvPT_DpOT0_.exit.i.i.i.i.i.i.i.i.i.i ]
  %97 = phi i8 [ %89, %tail0.i.i.i.i.i.i.i ], [ 0, %if.else.i.i.i.i.i.i.i.i.i.i ], [ 1, %_ZN9grpc_core9ConstructINS_14promise_detail11PromiseLikeINS1_3MapINS_15InterceptorListISt10unique_ptrINS_7MessageENS_5Arena13PooledDeleterEEE10RunPromiseEZZZNS_12PipeReceiverIS9_E4NextEvENKUlSt8optionalIS9_EE_clESF_ENUlvE_clEvEUlSF_E_EEvEEJSK_EEEvPT_DpOT0_.exit.i.i.i.i.i.i.i.i.i.i ]
  %next_factory.i.i.i56.i.i = getelementptr inbounds i8, ptr %agg.tmp2.i.i.i, i64 80
  store ptr %call1.i4.i, ptr %next_factory.i.i.i56.i.i, align 8, !noalias !21
  store ptr null, ptr %next_factory.i.i.i7.i.i, align 8, !noalias !21
  call void @llvm.lifetime.start.p0(i64 96, ptr nonnull %agg.tmp6.i.i.i.i.i), !noalias !21
  %call.i.i2.i.i.i = invoke noalias noundef nonnull dereferenceable(136) ptr @_Znwm(i64 noundef 136) #27
          to label %sw.bb.i.i.i.i.i.i.i unwind label %lpad.i48.i.i, !noalias !21

sw.bb.i.i.i.i.i.i.i:                              ; preds = %"_ZN9grpc_core14promise_detail6TrySeqINS_15for_each_detail7ForEachINS_12PipeReceiverISt10unique_ptrINS_7MessageENS_5Arena13PooledDeleterEEEEZNS_12_GLOBAL__N_122ConnectedChannelStream12SendMessagesEPSA_E3$_0EEJZNSB_21MakeClientCallPromiseEPNS_9TransportENS_8CallArgsESt8functionIFNS_12ArenaPromiseIS5_I19grpc_metadata_batchS8_EEESI_EEE3$_3EEC2EOSR_.exit.i.i.i"
  %state.i.i.i.i.i.i.i = getelementptr inbounds i8, ptr %agg.tmp6.i.i.i.i.i, i64 88
  store i8 0, ptr %state.i.i.i.i.i.i.i, align 8, !noalias !21
  %reading_next_.i.i.i.i.i.i = getelementptr inbounds i8, ptr %agg.tmp6.i.i.i.i.i, i64 16
  call void @llvm.memset.p0.i64(ptr noundef nonnull align 8 dereferenceable(16) %agg.tmp2.i.i.i, i8 0, i64 16, i1 false), !noalias !21
  store i8 1, ptr %reading_next_.i.i.i.i.i.i, align 8, !noalias !21
  %98 = getelementptr inbounds i8, ptr %agg.tmp6.i.i.i.i.i, i64 24
  %state.i.i.i.i5.i.i.i.i.i = getelementptr inbounds i8, ptr %agg.tmp6.i.i.i.i.i, i64 72
  store i8 %44, ptr %state.i.i.i.i5.i.i.i.i.i, align 8, !noalias !21
  switch i8 %44, label %"_ZN9grpc_core14promise_detail6TrySeqINS_15for_each_detail7ForEachINS_12PipeReceiverISt10unique_ptrINS_7MessageENS_5Arena13PooledDeleterEEEEZNS_12_GLOBAL__N_122ConnectedChannelStream12SendMessagesEPSA_E3$_0EEJZNSB_21MakeClientCallPromiseEPNS_9TransportENS_8CallArgsESt8functionIFNS_12ArenaPromiseIS5_I19grpc_metadata_batchS8_EEESI_EEE3$_3EEC2EOSR_.exit.thread7.i.i.i.i.i" [
    i8 0, label %sw.bb.i.i.i.i8.i.i.i.i.i
    i8 1, label %sw.bb5.i.i.i.i.i.i.i.i.i
  ]

sw.bb.i.i.i.i8.i.i.i.i.i:                         ; preds = %sw.bb.i.i.i.i.i.i.i
  %99 = getelementptr inbounds i8, ptr %agg.tmp2.i.i.i, i64 24
  %100 = load ptr, ptr %99, align 8, !noalias !21
  store ptr %100, ptr %98, align 8, !noalias !21
  store ptr null, ptr %99, align 8, !noalias !21
  br label %"_ZN9grpc_core14promise_detail6TrySeqINS_15for_each_detail7ForEachINS_12PipeReceiverISt10unique_ptrINS_7MessageENS_5Arena13PooledDeleterEEEEZNS_12_GLOBAL__N_122ConnectedChannelStream12SendMessagesEPSA_E3$_0EEJZNSB_21MakeClientCallPromiseEPNS_9TransportENS_8CallArgsESt8functionIFNS_12ArenaPromiseIS5_I19grpc_metadata_batchS8_EEESI_EEE3$_3EEC2EOSR_.exit.thread7.i.i.i.i.i"

sw.bb5.i.i.i.i.i.i.i.i.i:                         ; preds = %sw.bb.i.i.i.i.i.i.i
  %101 = and i8 %97, 1
  %tobool.not.i.i.i.i.i.i.i.i.i.i.i.i = icmp eq i8 %101, 0
  store i8 %101, ptr %98, align 8, !noalias !21
  %102 = getelementptr inbounds i8, ptr %agg.tmp6.i.i.i.i.i, i64 32
  %103 = getelementptr inbounds i8, ptr %agg.tmp2.i.i.i, i64 32
  br i1 %tobool.not.i.i.i.i.i.i.i.i.i.i.i.i, label %if.else.i.i.i.i.i.i.i.i.i.i.i.i, label %if.then.i.i.i.i.i.i.i7.i.i.i.i.i

if.then.i.i.i.i.i.i.i7.i.i.i.i.i:                 ; preds = %sw.bb5.i.i.i.i.i.i.i.i.i
  %is_immediately_resolved_.i.i.i.i.i.i.i.i.i.i.i.i.i.i.i.i.i = getelementptr inbounds i8, ptr %agg.tmp6.i.i.i.i.i, i64 56
  %tobool.not.i.i.i.i.i.i.i.i.i.i.i.i.i.i.i.i.i = icmp eq i8 %96, 0
  store i8 %96, ptr %is_immediately_resolved_.i.i.i.i.i.i.i.i.i.i.i.i.i.i.i.i.i, align 8, !noalias !21
  br i1 %tobool.not.i.i.i.i.i.i.i.i.i.i.i.i.i.i.i.i.i, label %if.else.i.i.i.i.i.i.i.i.i.i.i.i.i.i.i.i.i, label %if.then.i.i.i.i.i.i.i.i.i.i.i.i.i.i.i.i.i

if.then.i.i.i.i.i.i.i.i.i.i.i.i.i.i.i.i.i:        ; preds = %if.then.i.i.i.i.i.i.i7.i.i.i.i.i
  %_M_engaged.i.i.i.i.i.i.i.i.i.i.i.i.i.i.i.i.i.i.i.i.i.i.i = getelementptr inbounds i8, ptr %agg.tmp6.i.i.i.i.i, i64 48
  store i8 0, ptr %_M_engaged.i.i.i.i.i.i.i.i.i.i.i.i.i.i.i.i.i.i.i.i.i.i.i, align 8, !noalias !21
  %104 = and i8 %95, 1
  %tobool.not.i.i.i.i.i.i.i.i.i.i.i.i.i.i.i.i.i.i.i.i.i.i.i = icmp eq i8 %104, 0
  br i1 %tobool.not.i.i.i.i.i.i.i.i.i.i.i.i.i.i.i.i.i.i.i.i.i.i.i, label %_ZN9grpc_core9ConstructINS_14promise_detail11PromiseLikeINS1_3MapINS_15InterceptorListISt10unique_ptrINS_7MessageENS_5Arena13PooledDeleterEEE10RunPromiseEZZZNS_12PipeReceiverIS9_E4NextEvENKUlSt8optionalIS9_EE_clESF_ENUlvE_clEvEUlSF_E_EEvEEJSK_EEEvPT_DpOT0_.exit.i.i.i.i.i.i.i.i.i.i.i.i, label %if.then.i.i.i.i.i.i.i.i.i.i.i.i.i.i.i.i.i.i.i.i.i.i.i

if.then.i.i.i.i.i.i.i.i.i.i.i.i.i.i.i.i.i.i.i.i.i.i.i: ; preds = %if.then.i.i.i.i.i.i.i.i.i.i.i.i.i.i.i.i.i
  store i8 %92, ptr %102, align 8, !noalias !21
  %105 = getelementptr inbounds i8, ptr %agg.tmp6.i.i.i.i.i, i64 40
  %add.ptr.i.i.i.i.i.i.i.i.i.i.i.i.i.i.i.i.i.i.i.i.i.i.i.i.i.i.i.i.i.i = getelementptr inbounds i8, ptr %agg.tmp2.i.i.i, i64 40
  %106 = load i64, ptr %add.ptr.i.i.i.i.i.i.i.i.i.i.i.i.i.i.i.i.i.i.i.i.i.i.i.i.i.i.i.i.i.i, align 8, !noalias !21
  store i64 %106, ptr %105, align 8, !noalias !21
  store ptr null, ptr %add.ptr.i.i.i.i.i.i.i.i.i.i.i.i.i.i.i.i.i.i.i.i.i.i.i.i.i.i.i.i.i.i, align 8, !noalias !21
  store i8 1, ptr %_M_engaged.i.i.i.i.i.i.i.i.i.i.i.i.i.i.i.i.i.i.i.i.i.i.i, align 8, !noalias !21
  %107 = trunc i64 %106 to i8
  br label %_ZN9grpc_core9ConstructINS_14promise_detail11PromiseLikeINS1_3MapINS_15InterceptorListISt10unique_ptrINS_7MessageENS_5Arena13PooledDeleterEEE10RunPromiseEZZZNS_12PipeReceiverIS9_E4NextEvENKUlSt8optionalIS9_EE_clESF_ENUlvE_clEvEUlSF_E_EEvEEJSK_EEEvPT_DpOT0_.exit.i.i.i.i.i.i.i.i.i.i.i.i

if.else.i.i.i.i.i.i.i.i.i.i.i.i.i.i.i.i.i:        ; preds = %if.then.i.i.i.i.i.i.i7.i.i.i.i.i
  %108 = load ptr, ptr %103, align 8, !noalias !21
  store ptr null, ptr %103, align 8, !noalias !21
  store ptr %108, ptr %102, align 8, !noalias !21
  %space.i.i.i.i.i.i.i.i.i.i.i.i.i.i.i.i.i.i.i = getelementptr inbounds i8, ptr %agg.tmp6.i.i.i.i.i, i64 40
  store i8 %94, ptr %space.i.i.i.i.i.i.i.i.i.i.i.i.i.i.i.i.i.i.i, align 8, !noalias !21
  %109 = getelementptr inbounds i8, ptr %agg.tmp6.i.i.i.i.i, i64 48
  %add.ptr.i.i.i.i.i.i.i.i.i.i.i.i.i.i.i.i.i.i.i.i.i.i.i.i = getelementptr inbounds i8, ptr %agg.tmp2.i.i.i, i64 48
  %110 = load i64, ptr %add.ptr.i.i.i.i.i.i.i.i.i.i.i.i.i.i.i.i.i.i.i.i.i.i.i.i, align 8, !noalias !21
  store i64 %110, ptr %109, align 8, !noalias !21
  store ptr null, ptr %add.ptr.i.i.i.i.i.i.i.i.i.i.i.i.i.i.i.i.i.i.i.i.i.i.i.i, align 8, !noalias !21
  %111 = ptrtoint ptr %108 to i64
  %112 = trunc i64 %111 to i8
  %113 = and i64 %110, 1
  %114 = icmp eq i64 %113, 0
  br label %_ZN9grpc_core9ConstructINS_14promise_detail11PromiseLikeINS1_3MapINS_15InterceptorListISt10unique_ptrINS_7MessageENS_5Arena13PooledDeleterEEE10RunPromiseEZZZNS_12PipeReceiverIS9_E4NextEvENKUlSt8optionalIS9_EE_clESF_ENUlvE_clEvEUlSF_E_EEvEEJSK_EEEvPT_DpOT0_.exit.i.i.i.i.i.i.i.i.i.i.i.i

_ZN9grpc_core9ConstructINS_14promise_detail11PromiseLikeINS1_3MapINS_15InterceptorListISt10unique_ptrINS_7MessageENS_5Arena13PooledDeleterEEE10RunPromiseEZZZNS_12PipeReceiverIS9_E4NextEvENKUlSt8optionalIS9_EE_clESF_ENUlvE_clEvEUlSF_E_EEvEEJSK_EEEvPT_DpOT0_.exit.i.i.i.i.i.i.i.i.i.i.i.i: ; preds = %if.else.i.i.i.i.i.i.i.i.i.i.i.i.i.i.i.i.i, %if.then.i.i.i.i.i.i.i.i.i.i.i.i.i.i.i.i.i.i.i.i.i.i.i, %if.then.i.i.i.i.i.i.i.i.i.i.i.i.i.i.i.i.i
  %115 = phi i8 [ %112, %if.else.i.i.i.i.i.i.i.i.i.i.i.i.i.i.i.i.i ], [ %92, %if.then.i.i.i.i.i.i.i.i.i.i.i.i.i.i.i.i.i.i.i.i.i.i.i ], [ undef, %if.then.i.i.i.i.i.i.i.i.i.i.i.i.i.i.i.i.i ]
  %116 = phi i8 [ %94, %if.else.i.i.i.i.i.i.i.i.i.i.i.i.i.i.i.i.i ], [ %107, %if.then.i.i.i.i.i.i.i.i.i.i.i.i.i.i.i.i.i.i.i.i.i.i.i ], [ undef, %if.then.i.i.i.i.i.i.i.i.i.i.i.i.i.i.i.i.i ]
  %117 = phi i1 [ %114, %if.else.i.i.i.i.i.i.i.i.i.i.i.i.i.i.i.i.i ], [ false, %if.then.i.i.i.i.i.i.i.i.i.i.i.i.i.i.i.i.i.i.i.i.i.i.i ], [ true, %if.then.i.i.i.i.i.i.i.i.i.i.i.i.i.i.i.i.i ]
  %fn_.i.i.i.i.i.i.i.i.i.i.i.i.i.i.i = getelementptr inbounds i8, ptr %agg.tmp6.i.i.i.i.i, i64 64
  %fn_3.i.i.i.i.i.i.i.i.i.i.i.i.i.i.i = getelementptr inbounds i8, ptr %agg.tmp2.i.i.i, i64 64
  store ptr %93, ptr %fn_.i.i.i.i.i.i.i.i.i.i.i.i.i.i.i, align 8, !noalias !21
  store ptr null, ptr %fn_3.i.i.i.i.i.i.i.i.i.i.i.i.i.i.i, align 8, !noalias !21
  br label %sw.bb5.i.i.i.i.i.i.i.i.i.i.i

if.else.i.i.i.i.i.i.i.i.i.i.i.i:                  ; preds = %sw.bb5.i.i.i.i.i.i.i.i.i
  store i8 %92, ptr %102, align 8, !noalias !21
  br label %sw.bb5.i.i.i.i.i.i.i.i.i.i.i

"_ZN9grpc_core14promise_detail6TrySeqINS_15for_each_detail7ForEachINS_12PipeReceiverISt10unique_ptrINS_7MessageENS_5Arena13PooledDeleterEEEEZNS_12_GLOBAL__N_122ConnectedChannelStream12SendMessagesEPSA_E3$_0EEJZNSB_21MakeClientCallPromiseEPNS_9TransportENS_8CallArgsESt8functionIFNS_12ArenaPromiseIS5_I19grpc_metadata_batchS8_EEESI_EEE3$_3EEC2EOSR_.exit.thread7.i.i.i.i.i": ; preds = %sw.bb.i.i.i.i8.i.i.i.i.i, %sw.bb.i.i.i.i.i.i.i
  %118 = phi ptr [ undef, %sw.bb.i.i.i.i.i.i.i ], [ %100, %sw.bb.i.i.i.i8.i.i.i.i.i ]
  %next_factory.i.i.i.i.i.i.i51.i.i = getelementptr inbounds i8, ptr %agg.tmp6.i.i.i.i.i, i64 32
  %next_factory6.i.i.i.i9.i.i.i.i.i = getelementptr inbounds i8, ptr %agg.tmp2.i.i.i, i64 32
  %119 = load ptr, ptr %next_factory6.i.i.i.i9.i.i.i.i.i, align 8, !noalias !21
  store ptr null, ptr %next_factory6.i.i.i.i9.i.i.i.i.i, align 8, !noalias !21
  %next_factory.i.i8.i.i.i.i.i = getelementptr inbounds i8, ptr %agg.tmp6.i.i.i.i.i, i64 80
  store ptr null, ptr %next_factory.i.i.i56.i.i, align 8, !noalias !21
  %handle_.i.i10.i.i.i.i.i = getelementptr inbounds i8, ptr %call.i.i2.i.i.i, i64 8
  store ptr null, ptr %handle_.i.i10.i.i.i.i.i, align 8, !noalias !21
  %name_.i.i11.i.i.i.i.i = getelementptr inbounds i8, ptr %call.i.i2.i.i.i, i64 16
  store i64 13, ptr %name_.i.i11.i.i.i.i.i, align 8, !noalias !21
  %name.sroa.2.0.name_.sroa_idx.i.i12.i.i.i.i.i = getelementptr inbounds i8, ptr %call.i.i2.i.i.i, i64 24
  store ptr @.str.17, ptr %name.sroa.2.0.name_.sroa_idx.i.i12.i.i.i.i.i, align 8, !noalias !21
  store ptr getelementptr inbounds ({ [4 x ptr] }, ptr @"_ZTVN9grpc_core5Party15ParticipantImplINS_14promise_detail6TrySeqINS_15for_each_detail7ForEachINS_12PipeReceiverISt10unique_ptrINS_7MessageENS_5Arena13PooledDeleterEEEEZNS_12_GLOBAL__N_122ConnectedChannelStream12SendMessagesEPSC_E3$_0EEJZNSD_21MakeClientCallPromiseEPNS_9TransportENS_8CallArgsESt8functionIFNS_12ArenaPromiseIS7_I19grpc_metadata_batchSA_EEESK_EEE3$_3EEEZNSD_21MakeClientCallPromiseESJ_SK_SR_E3$_4EE", i64 0, inrange i32 0, i64 2), ptr %call.i.i2.i.i.i, align 8, !noalias !21
  %started_.i13.i.i.i.i.i = getelementptr inbounds i8, ptr %call.i.i2.i.i.i, i64 128
  store i8 0, ptr %started_.i13.i.i.i.i.i, align 8, !noalias !21
  %120 = getelementptr inbounds i8, ptr %call.i.i2.i.i.i, i64 32
  call void @llvm.lifetime.start.p0(i64 96, ptr nonnull %agg.tmp.i.i.i.i.i.i.i), !noalias !21
  %state.i.i.i.i14.i.i.i.i.i = getelementptr inbounds i8, ptr %agg.tmp.i.i.i.i.i.i.i, i64 88
  store i8 0, ptr %state.i.i.i.i14.i.i.i.i.i, align 8, !noalias !21
  %action_factory_.i.i.i.i.i.i.i.i = getelementptr inbounds i8, ptr %agg.tmp.i.i.i.i.i.i.i, i64 8
  %reading_next_.i.i.i.i.i.i.i.i = getelementptr inbounds i8, ptr %agg.tmp.i.i.i.i.i.i.i, i64 16
  call void @llvm.memset.p0.i64(ptr noundef nonnull align 8 dereferenceable(16) %agg.tmp6.i.i.i.i.i, i8 0, i64 16, i1 false), !noalias !21
  store i8 1, ptr %reading_next_.i.i.i.i.i.i.i.i, align 8, !noalias !21
  %121 = getelementptr inbounds i8, ptr %agg.tmp.i.i.i.i.i.i.i, i64 24
  %state.i.i.i.i.i.i.i.i.i.i.i = getelementptr inbounds i8, ptr %agg.tmp.i.i.i.i.i.i.i, i64 72
  store i8 %44, ptr %state.i.i.i.i.i.i.i.i.i.i.i, align 8, !noalias !21
  %cond.i.i.i.i = icmp eq i8 %44, 0
  br i1 %cond.i.i.i.i, label %sw.bb.i.i.i.i.i.i.i.i.i.i.i, label %"_ZN9grpc_core14promise_detail6TrySeqINS_15for_each_detail7ForEachINS_12PipeReceiverISt10unique_ptrINS_7MessageENS_5Arena13PooledDeleterEEEEZNS_12_GLOBAL__N_122ConnectedChannelStream12SendMessagesEPSA_E3$_0EEJZNSB_21MakeClientCallPromiseEPNS_9TransportENS_8CallArgsESt8functionIFNS_12ArenaPromiseIS5_I19grpc_metadata_batchS8_EEESI_EEE3$_3EEC2EOSR_.exit.thread37.i.i.i.i.i.i.i"

sw.bb.i.i.i.i.i.i.i.i.i.i.i:                      ; preds = %"_ZN9grpc_core14promise_detail6TrySeqINS_15for_each_detail7ForEachINS_12PipeReceiverISt10unique_ptrINS_7MessageENS_5Arena13PooledDeleterEEEEZNS_12_GLOBAL__N_122ConnectedChannelStream12SendMessagesEPSA_E3$_0EEJZNSB_21MakeClientCallPromiseEPNS_9TransportENS_8CallArgsESt8functionIFNS_12ArenaPromiseIS5_I19grpc_metadata_batchS8_EEESI_EEE3$_3EEC2EOSR_.exit.thread7.i.i.i.i.i"
  store ptr %118, ptr %121, align 8, !noalias !21
  store ptr null, ptr %98, align 8, !noalias !21
  br label %"_ZN9grpc_core14promise_detail6TrySeqINS_15for_each_detail7ForEachINS_12PipeReceiverISt10unique_ptrINS_7MessageENS_5Arena13PooledDeleterEEEEZNS_12_GLOBAL__N_122ConnectedChannelStream12SendMessagesEPSA_E3$_0EEJZNSB_21MakeClientCallPromiseEPNS_9TransportENS_8CallArgsESt8functionIFNS_12ArenaPromiseIS5_I19grpc_metadata_batchS8_EEESI_EEE3$_3EEC2EOSR_.exit.thread37.i.i.i.i.i.i.i"

sw.bb5.i.i.i.i.i.i.i.i.i.i.i:                     ; preds = %if.else.i.i.i.i.i.i.i.i.i.i.i.i, %_ZN9grpc_core9ConstructINS_14promise_detail11PromiseLikeINS1_3MapINS_15InterceptorListISt10unique_ptrINS_7MessageENS_5Arena13PooledDeleterEEE10RunPromiseEZZZNS_12PipeReceiverIS9_E4NextEvENKUlSt8optionalIS9_EE_clESF_ENUlvE_clEvEUlSF_E_EEvEEJSK_EEEvPT_DpOT0_.exit.i.i.i.i.i.i.i.i.i.i.i.i
  %.ph.i.i.i.i = phi i8 [ %92, %if.else.i.i.i.i.i.i.i.i.i.i.i.i ], [ %115, %_ZN9grpc_core9ConstructINS_14promise_detail11PromiseLikeINS1_3MapINS_15InterceptorListISt10unique_ptrINS_7MessageENS_5Arena13PooledDeleterEEE10RunPromiseEZZZNS_12PipeReceiverIS9_E4NextEvENKUlSt8optionalIS9_EE_clESF_ENUlvE_clEvEUlSF_E_EEvEEJSK_EEEvPT_DpOT0_.exit.i.i.i.i.i.i.i.i.i.i.i.i ]
  %.ph3.i.i.i.i = phi i8 [ undef, %if.else.i.i.i.i.i.i.i.i.i.i.i.i ], [ %116, %_ZN9grpc_core9ConstructINS_14promise_detail11PromiseLikeINS1_3MapINS_15InterceptorListISt10unique_ptrINS_7MessageENS_5Arena13PooledDeleterEEE10RunPromiseEZZZNS_12PipeReceiverIS9_E4NextEvENKUlSt8optionalIS9_EE_clESF_ENUlvE_clEvEUlSF_E_EEvEEJSK_EEEvPT_DpOT0_.exit.i.i.i.i.i.i.i.i.i.i.i.i ]
  %.ph4.i.i.i.i = phi i1 [ true, %if.else.i.i.i.i.i.i.i.i.i.i.i.i ], [ %117, %_ZN9grpc_core9ConstructINS_14promise_detail11PromiseLikeINS1_3MapINS_15InterceptorListISt10unique_ptrINS_7MessageENS_5Arena13PooledDeleterEEE10RunPromiseEZZZNS_12PipeReceiverIS9_E4NextEvENKUlSt8optionalIS9_EE_clESF_ENUlvE_clEvEUlSF_E_EEvEEJSK_EEEvPT_DpOT0_.exit.i.i.i.i.i.i.i.i.i.i.i.i ]
  %.ph5.i.i.i.i = phi i8 [ 0, %if.else.i.i.i.i.i.i.i.i.i.i.i.i ], [ %96, %_ZN9grpc_core9ConstructINS_14promise_detail11PromiseLikeINS1_3MapINS_15InterceptorListISt10unique_ptrINS_7MessageENS_5Arena13PooledDeleterEEE10RunPromiseEZZZNS_12PipeReceiverIS9_E4NextEvENKUlSt8optionalIS9_EE_clESF_ENUlvE_clEvEUlSF_E_EEvEEJSK_EEEvPT_DpOT0_.exit.i.i.i.i.i.i.i.i.i.i.i.i ]
  %.ph6.i.i.i.i = phi i8 [ 0, %if.else.i.i.i.i.i.i.i.i.i.i.i.i ], [ 1, %_ZN9grpc_core9ConstructINS_14promise_detail11PromiseLikeINS1_3MapINS_15InterceptorListISt10unique_ptrINS_7MessageENS_5Arena13PooledDeleterEEE10RunPromiseEZZZNS_12PipeReceiverIS9_E4NextEvENKUlSt8optionalIS9_EE_clESF_ENUlvE_clEvEUlSF_E_EEvEEJSK_EEEvPT_DpOT0_.exit.i.i.i.i.i.i.i.i.i.i.i.i ]
  %next_factory.i.i8.i7.i.i.i.i = getelementptr inbounds i8, ptr %agg.tmp6.i.i.i.i.i, i64 80
  store ptr null, ptr %next_factory.i.i.i56.i.i, align 8, !noalias !21
  %handle_.i.i10.i9.i.i.i.i = getelementptr inbounds i8, ptr %call.i.i2.i.i.i, i64 8
  store ptr null, ptr %handle_.i.i10.i9.i.i.i.i, align 8, !noalias !21
  %name_.i.i11.i10.i.i.i.i = getelementptr inbounds i8, ptr %call.i.i2.i.i.i, i64 16
  store i64 13, ptr %name_.i.i11.i10.i.i.i.i, align 8, !noalias !21
  %name.sroa.2.0.name_.sroa_idx.i.i12.i11.i.i.i.i = getelementptr inbounds i8, ptr %call.i.i2.i.i.i, i64 24
  store ptr @.str.17, ptr %name.sroa.2.0.name_.sroa_idx.i.i12.i11.i.i.i.i, align 8, !noalias !21
  store ptr getelementptr inbounds ({ [4 x ptr] }, ptr @"_ZTVN9grpc_core5Party15ParticipantImplINS_14promise_detail6TrySeqINS_15for_each_detail7ForEachINS_12PipeReceiverISt10unique_ptrINS_7MessageENS_5Arena13PooledDeleterEEEEZNS_12_GLOBAL__N_122ConnectedChannelStream12SendMessagesEPSC_E3$_0EEJZNSD_21MakeClientCallPromiseEPNS_9TransportENS_8CallArgsESt8functionIFNS_12ArenaPromiseIS7_I19grpc_metadata_batchSA_EEESK_EEE3$_3EEEZNSD_21MakeClientCallPromiseESJ_SK_SR_E3$_4EE", i64 0, inrange i32 0, i64 2), ptr %call.i.i2.i.i.i, align 8, !noalias !21
  %started_.i13.i12.i.i.i.i = getelementptr inbounds i8, ptr %call.i.i2.i.i.i, i64 128
  store i8 0, ptr %started_.i13.i12.i.i.i.i, align 8, !noalias !21
  %122 = getelementptr inbounds i8, ptr %call.i.i2.i.i.i, i64 32
  call void @llvm.lifetime.start.p0(i64 96, ptr nonnull %agg.tmp.i.i.i.i.i.i.i), !noalias !21
  %state.i.i.i.i14.i13.i.i.i.i = getelementptr inbounds i8, ptr %agg.tmp.i.i.i.i.i.i.i, i64 88
  store i8 0, ptr %state.i.i.i.i14.i13.i.i.i.i, align 8, !noalias !21
  %action_factory_.i.i.i.i14.i.i.i.i = getelementptr inbounds i8, ptr %agg.tmp.i.i.i.i.i.i.i, i64 8
  %reading_next_.i.i.i.i15.i.i.i.i = getelementptr inbounds i8, ptr %agg.tmp.i.i.i.i.i.i.i, i64 16
  call void @llvm.memset.p0.i64(ptr noundef nonnull align 8 dereferenceable(16) %agg.tmp6.i.i.i.i.i, i8 0, i64 16, i1 false), !noalias !21
  store i8 1, ptr %reading_next_.i.i.i.i15.i.i.i.i, align 8, !noalias !21
  %123 = getelementptr inbounds i8, ptr %agg.tmp.i.i.i.i.i.i.i, i64 24
  %state.i.i.i.i.i.i.i16.i.i.i.i = getelementptr inbounds i8, ptr %agg.tmp.i.i.i.i.i.i.i, i64 72
  store i8 1, ptr %state.i.i.i.i.i.i.i16.i.i.i.i, align 8, !noalias !21
  store i8 %.ph6.i.i.i.i, ptr %123, align 8, !noalias !21
  %124 = getelementptr inbounds i8, ptr %agg.tmp.i.i.i.i.i.i.i, i64 32
  br i1 %tobool.not.i.i.i.i.i.i.i.i.i.i.i.i, label %if.else.i.i.i.i.i.i.i.i.i.i.i.i.i.i, label %if.then.i.i.i.i.i.i.i5.i.i.i.i.i.i.i

if.then.i.i.i.i.i.i.i5.i.i.i.i.i.i.i:             ; preds = %sw.bb5.i.i.i.i.i.i.i.i.i.i.i
  %is_immediately_resolved_.i.i.i.i.i.i.i.i.i.i.i.i.i.i.i.i.i.i.i = getelementptr inbounds i8, ptr %agg.tmp.i.i.i.i.i.i.i, i64 56
  %tobool.not.i.i.i.i.i.i.i.i.i.i.i.i.i.i.i.i.i.i.i = icmp eq i8 %.ph5.i.i.i.i, 0
  store i8 %.ph5.i.i.i.i, ptr %is_immediately_resolved_.i.i.i.i.i.i.i.i.i.i.i.i.i.i.i.i.i.i.i, align 8, !noalias !21
  br i1 %tobool.not.i.i.i.i.i.i.i.i.i.i.i.i.i.i.i.i.i.i.i, label %if.else.i.i.i.i.i.i.i.i.i.i.i.i.i.i.i.i.i.i.i, label %if.then.i.i.i.i.i.i.i.i.i.i.i.i.i.i.i.i.i.i.i

if.then.i.i.i.i.i.i.i.i.i.i.i.i.i.i.i.i.i.i.i:    ; preds = %if.then.i.i.i.i.i.i.i5.i.i.i.i.i.i.i
  %_M_engaged.i.i.i.i.i.i.i.i.i.i.i.i.i.i.i.i.i.i.i.i.i.i.i.i.i = getelementptr inbounds i8, ptr %agg.tmp.i.i.i.i.i.i.i, i64 48
  store i8 0, ptr %_M_engaged.i.i.i.i.i.i.i.i.i.i.i.i.i.i.i.i.i.i.i.i.i.i.i.i.i, align 8, !noalias !21
  br i1 %.ph4.i.i.i.i, label %_ZN9grpc_core9ConstructINS_14promise_detail11PromiseLikeINS1_3MapINS_15InterceptorListISt10unique_ptrINS_7MessageENS_5Arena13PooledDeleterEEE10RunPromiseEZZZNS_12PipeReceiverIS9_E4NextEvENKUlSt8optionalIS9_EE_clESF_ENUlvE_clEvEUlSF_E_EEvEEJSK_EEEvPT_DpOT0_.exit.i.i.i.i.i.i.i.i.i.i.i.i.i.i, label %if.then.i.i.i.i.i.i.i.i.i.i.i.i.i.i.i.i.i.i.i.i.i.i.i.i.i

if.then.i.i.i.i.i.i.i.i.i.i.i.i.i.i.i.i.i.i.i.i.i.i.i.i.i: ; preds = %if.then.i.i.i.i.i.i.i.i.i.i.i.i.i.i.i.i.i.i.i
  store i8 %.ph.i.i.i.i, ptr %124, align 8, !noalias !21
  %125 = getelementptr inbounds i8, ptr %agg.tmp.i.i.i.i.i.i.i, i64 40
  %add.ptr.i.i.i.i.i.i.i.i.i.i.i.i.i.i.i.i.i.i.i.i.i.i.i.i.i.i.i.i.i.i.i.i = getelementptr inbounds i8, ptr %agg.tmp6.i.i.i.i.i, i64 40
  %126 = load i64, ptr %add.ptr.i.i.i.i.i.i.i.i.i.i.i.i.i.i.i.i.i.i.i.i.i.i.i.i.i.i.i.i.i.i.i.i, align 8, !noalias !21
  store i64 %126, ptr %125, align 8, !noalias !21
  store ptr null, ptr %add.ptr.i.i.i.i.i.i.i.i.i.i.i.i.i.i.i.i.i.i.i.i.i.i.i.i.i.i.i.i.i.i.i.i, align 8, !noalias !21
  store i8 1, ptr %_M_engaged.i.i.i.i.i.i.i.i.i.i.i.i.i.i.i.i.i.i.i.i.i.i.i.i.i, align 8, !noalias !21
  %127 = trunc i64 %126 to i8
  br label %_ZN9grpc_core9ConstructINS_14promise_detail11PromiseLikeINS1_3MapINS_15InterceptorListISt10unique_ptrINS_7MessageENS_5Arena13PooledDeleterEEE10RunPromiseEZZZNS_12PipeReceiverIS9_E4NextEvENKUlSt8optionalIS9_EE_clESF_ENUlvE_clEvEUlSF_E_EEvEEJSK_EEEvPT_DpOT0_.exit.i.i.i.i.i.i.i.i.i.i.i.i.i.i

if.else.i.i.i.i.i.i.i.i.i.i.i.i.i.i.i.i.i.i.i:    ; preds = %if.then.i.i.i.i.i.i.i5.i.i.i.i.i.i.i
  %128 = load ptr, ptr %102, align 8, !noalias !21
  store ptr null, ptr %102, align 8, !noalias !21
  store ptr %128, ptr %124, align 8, !noalias !21
  %space.i.i.i.i.i.i.i.i.i.i.i.i.i.i.i.i.i.i.i.i.i = getelementptr inbounds i8, ptr %agg.tmp.i.i.i.i.i.i.i, i64 40
  store i8 %.ph3.i.i.i.i, ptr %space.i.i.i.i.i.i.i.i.i.i.i.i.i.i.i.i.i.i.i.i.i, align 8, !noalias !21
  %129 = getelementptr inbounds i8, ptr %agg.tmp.i.i.i.i.i.i.i, i64 48
  %add.ptr.i.i.i.i.i.i.i.i.i.i.i.i.i.i.i.i.i.i.i.i.i.i.i.i.i.i = getelementptr inbounds i8, ptr %agg.tmp6.i.i.i.i.i, i64 48
  %130 = load i64, ptr %add.ptr.i.i.i.i.i.i.i.i.i.i.i.i.i.i.i.i.i.i.i.i.i.i.i.i.i.i, align 8, !noalias !21
  store i64 %130, ptr %129, align 8, !noalias !21
  store ptr null, ptr %add.ptr.i.i.i.i.i.i.i.i.i.i.i.i.i.i.i.i.i.i.i.i.i.i.i.i.i.i, align 8, !noalias !21
  %131 = ptrtoint ptr %128 to i64
  %132 = trunc i64 %131 to i8
  %133 = and i64 %130, 1
  %134 = icmp eq i64 %133, 0
  br label %_ZN9grpc_core9ConstructINS_14promise_detail11PromiseLikeINS1_3MapINS_15InterceptorListISt10unique_ptrINS_7MessageENS_5Arena13PooledDeleterEEE10RunPromiseEZZZNS_12PipeReceiverIS9_E4NextEvENKUlSt8optionalIS9_EE_clESF_ENUlvE_clEvEUlSF_E_EEvEEJSK_EEEvPT_DpOT0_.exit.i.i.i.i.i.i.i.i.i.i.i.i.i.i

_ZN9grpc_core9ConstructINS_14promise_detail11PromiseLikeINS1_3MapINS_15InterceptorListISt10unique_ptrINS_7MessageENS_5Arena13PooledDeleterEEE10RunPromiseEZZZNS_12PipeReceiverIS9_E4NextEvENKUlSt8optionalIS9_EE_clESF_ENUlvE_clEvEUlSF_E_EEvEEJSK_EEEvPT_DpOT0_.exit.i.i.i.i.i.i.i.i.i.i.i.i.i.i: ; preds = %if.else.i.i.i.i.i.i.i.i.i.i.i.i.i.i.i.i.i.i.i, %if.then.i.i.i.i.i.i.i.i.i.i.i.i.i.i.i.i.i.i.i.i.i.i.i.i.i, %if.then.i.i.i.i.i.i.i.i.i.i.i.i.i.i.i.i.i.i.i
  %135 = phi i8 [ 0, %if.else.i.i.i.i.i.i.i.i.i.i.i.i.i.i.i.i.i.i.i ], [ 1, %if.then.i.i.i.i.i.i.i.i.i.i.i.i.i.i.i.i.i.i.i.i.i.i.i.i.i ], [ 1, %if.then.i.i.i.i.i.i.i.i.i.i.i.i.i.i.i.i.i.i.i ]
  %136 = phi i8 [ %132, %if.else.i.i.i.i.i.i.i.i.i.i.i.i.i.i.i.i.i.i.i ], [ %.ph.i.i.i.i, %if.then.i.i.i.i.i.i.i.i.i.i.i.i.i.i.i.i.i.i.i.i.i.i.i.i.i ], [ undef, %if.then.i.i.i.i.i.i.i.i.i.i.i.i.i.i.i.i.i.i.i ]
  %137 = phi i8 [ %.ph3.i.i.i.i, %if.else.i.i.i.i.i.i.i.i.i.i.i.i.i.i.i.i.i.i.i ], [ %127, %if.then.i.i.i.i.i.i.i.i.i.i.i.i.i.i.i.i.i.i.i.i.i.i.i.i.i ], [ undef, %if.then.i.i.i.i.i.i.i.i.i.i.i.i.i.i.i.i.i.i.i ]
  %138 = phi i1 [ %134, %if.else.i.i.i.i.i.i.i.i.i.i.i.i.i.i.i.i.i.i.i ], [ false, %if.then.i.i.i.i.i.i.i.i.i.i.i.i.i.i.i.i.i.i.i.i.i.i.i.i.i ], [ true, %if.then.i.i.i.i.i.i.i.i.i.i.i.i.i.i.i.i.i.i.i ]
  %fn_.i.i.i.i.i.i.i.i.i.i.i.i.i.i.i.i.i = getelementptr inbounds i8, ptr %agg.tmp.i.i.i.i.i.i.i, i64 64
  %fn_3.i.i.i.i.i.i.i.i.i.i.i.i.i.i.i.i.i = getelementptr inbounds i8, ptr %agg.tmp6.i.i.i.i.i, i64 64
  store ptr %93, ptr %fn_.i.i.i.i.i.i.i.i.i.i.i.i.i.i.i.i.i, align 8, !noalias !21
  store ptr null, ptr %fn_3.i.i.i.i.i.i.i.i.i.i.i.i.i.i.i.i.i, align 8, !noalias !21
  br label %sw.bb5.i.i.i.i11.i.i.i.i.i.i.i

if.else.i.i.i.i.i.i.i.i.i.i.i.i.i.i:              ; preds = %sw.bb5.i.i.i.i.i.i.i.i.i.i.i
  store i8 %.ph.i.i.i.i, ptr %124, align 8, !noalias !21
  br label %sw.bb5.i.i.i.i11.i.i.i.i.i.i.i

"_ZN9grpc_core14promise_detail6TrySeqINS_15for_each_detail7ForEachINS_12PipeReceiverISt10unique_ptrINS_7MessageENS_5Arena13PooledDeleterEEEEZNS_12_GLOBAL__N_122ConnectedChannelStream12SendMessagesEPSA_E3$_0EEJZNSB_21MakeClientCallPromiseEPNS_9TransportENS_8CallArgsESt8functionIFNS_12ArenaPromiseIS5_I19grpc_metadata_batchS8_EEESI_EEE3$_3EEC2EOSR_.exit.thread37.i.i.i.i.i.i.i": ; preds = %sw.bb.i.i.i.i.i.i.i.i.i.i.i, %"_ZN9grpc_core14promise_detail6TrySeqINS_15for_each_detail7ForEachINS_12PipeReceiverISt10unique_ptrINS_7MessageENS_5Arena13PooledDeleterEEEEZNS_12_GLOBAL__N_122ConnectedChannelStream12SendMessagesEPSA_E3$_0EEJZNSB_21MakeClientCallPromiseEPNS_9TransportENS_8CallArgsESt8functionIFNS_12ArenaPromiseIS5_I19grpc_metadata_batchS8_EEESI_EEE3$_3EEC2EOSR_.exit.thread7.i.i.i.i.i"
  %next_factory.i.i.i.i.i.i.i.i.i.i.i = getelementptr inbounds i8, ptr %agg.tmp.i.i.i.i.i.i.i, i64 32
  store ptr null, ptr %next_factory.i.i.i.i.i.i.i51.i.i, align 8, !noalias !21
  %next_factory.i.i38.i.i.i.i.i.i.i = getelementptr inbounds i8, ptr %agg.tmp.i.i.i.i.i.i.i, i64 80
  store ptr %call1.i4.i, ptr %next_factory.i.i38.i.i.i.i.i.i.i, align 8, !noalias !21
  store ptr null, ptr %next_factory.i.i8.i.i.i.i.i, align 8, !noalias !21
  %state.i.i.i40.i.i.i.i.i.i.i = getelementptr inbounds i8, ptr %call.i.i2.i.i.i, i64 120
  store i8 0, ptr %state.i.i.i40.i.i.i.i.i.i.i, align 8, !noalias !21
  store ptr %41, ptr %120, align 8, !noalias !21
  store ptr null, ptr %agg.tmp.i.i.i.i.i.i.i, align 8, !noalias !21
  %action_factory_.i6.i.i.i.i.i.i.i = getelementptr inbounds i8, ptr %call.i.i2.i.i.i, i64 40
  store ptr %42, ptr %action_factory_.i6.i.i.i.i.i.i.i, align 8, !noalias !21
  store ptr null, ptr %action_factory_.i.i.i.i.i.i.i.i, align 8, !noalias !21
  %reading_next_.i8.i.i.i.i.i.i.i = getelementptr inbounds i8, ptr %call.i.i2.i.i.i, i64 48
  store i8 1, ptr %reading_next_.i8.i.i.i.i.i.i.i, align 8, !noalias !21
  %state.i.i.i.i9.i.i.i.i.i.i.i = getelementptr inbounds i8, ptr %call.i.i2.i.i.i, i64 104
  store i8 %44, ptr %state.i.i.i.i9.i.i.i.i.i.i.i, align 8, !noalias !21
  br i1 %cond.i.i.i.i, label %sw.bb.i.i.i.i31.i.i.i.i.i.i.i, label %tail0.i.i.i.i32.i.i.i.i.i.i.i

sw.bb.i.i.i.i31.i.i.i.i.i.i.i:                    ; preds = %"_ZN9grpc_core14promise_detail6TrySeqINS_15for_each_detail7ForEachINS_12PipeReceiverISt10unique_ptrINS_7MessageENS_5Arena13PooledDeleterEEEEZNS_12_GLOBAL__N_122ConnectedChannelStream12SendMessagesEPSA_E3$_0EEJZNSB_21MakeClientCallPromiseEPNS_9TransportENS_8CallArgsESt8functionIFNS_12ArenaPromiseIS5_I19grpc_metadata_batchS8_EEESI_EEE3$_3EEC2EOSR_.exit.thread37.i.i.i.i.i.i.i"
  %139 = getelementptr inbounds i8, ptr %call.i.i2.i.i.i, i64 56
  store ptr %118, ptr %139, align 8, !noalias !21
  store ptr null, ptr %121, align 8, !noalias !21
  br label %tail0.i.i.i.i32.i.i.i.i.i.i.i

sw.bb5.i.i.i.i11.i.i.i.i.i.i.i:                   ; preds = %if.else.i.i.i.i.i.i.i.i.i.i.i.i.i.i, %_ZN9grpc_core9ConstructINS_14promise_detail11PromiseLikeINS1_3MapINS_15InterceptorListISt10unique_ptrINS_7MessageENS_5Arena13PooledDeleterEEE10RunPromiseEZZZNS_12PipeReceiverIS9_E4NextEvENKUlSt8optionalIS9_EE_clESF_ENUlvE_clEvEUlSF_E_EEvEEJSK_EEEvPT_DpOT0_.exit.i.i.i.i.i.i.i.i.i.i.i.i.i.i
  %.ph.i.i.i.i.i.i.i = phi i8 [ %.ph.i.i.i.i, %if.else.i.i.i.i.i.i.i.i.i.i.i.i.i.i ], [ %136, %_ZN9grpc_core9ConstructINS_14promise_detail11PromiseLikeINS1_3MapINS_15InterceptorListISt10unique_ptrINS_7MessageENS_5Arena13PooledDeleterEEE10RunPromiseEZZZNS_12PipeReceiverIS9_E4NextEvENKUlSt8optionalIS9_EE_clESF_ENUlvE_clEvEUlSF_E_EEvEEJSK_EEEvPT_DpOT0_.exit.i.i.i.i.i.i.i.i.i.i.i.i.i.i ]
  %.ph44.i.i.i.i.i.i.i = phi i8 [ undef, %if.else.i.i.i.i.i.i.i.i.i.i.i.i.i.i ], [ %137, %_ZN9grpc_core9ConstructINS_14promise_detail11PromiseLikeINS1_3MapINS_15InterceptorListISt10unique_ptrINS_7MessageENS_5Arena13PooledDeleterEEE10RunPromiseEZZZNS_12PipeReceiverIS9_E4NextEvENKUlSt8optionalIS9_EE_clESF_ENUlvE_clEvEUlSF_E_EEvEEJSK_EEEvPT_DpOT0_.exit.i.i.i.i.i.i.i.i.i.i.i.i.i.i ]
  %tobool.not.i.i.i.i.i.i.i.i.i.i.i.i.i.i.i.i.i.i20.ph.i.i.i.i.i.i.i = phi i1 [ true, %if.else.i.i.i.i.i.i.i.i.i.i.i.i.i.i ], [ %138, %_ZN9grpc_core9ConstructINS_14promise_detail11PromiseLikeINS1_3MapINS_15InterceptorListISt10unique_ptrINS_7MessageENS_5Arena13PooledDeleterEEE10RunPromiseEZZZNS_12PipeReceiverIS9_E4NextEvENKUlSt8optionalIS9_EE_clESF_ENUlvE_clEvEUlSF_E_EEvEEJSK_EEEvPT_DpOT0_.exit.i.i.i.i.i.i.i.i.i.i.i.i.i.i ]
  %.ph45.i.i.i.i.i.i.i = phi i8 [ 0, %if.else.i.i.i.i.i.i.i.i.i.i.i.i.i.i ], [ %135, %_ZN9grpc_core9ConstructINS_14promise_detail11PromiseLikeINS1_3MapINS_15InterceptorListISt10unique_ptrINS_7MessageENS_5Arena13PooledDeleterEEE10RunPromiseEZZZNS_12PipeReceiverIS9_E4NextEvENKUlSt8optionalIS9_EE_clESF_ENUlvE_clEvEUlSF_E_EEvEEJSK_EEEvPT_DpOT0_.exit.i.i.i.i.i.i.i.i.i.i.i.i.i.i ]
  %.ph46.i.i.i.i.i.i.i = phi i8 [ 0, %if.else.i.i.i.i.i.i.i.i.i.i.i.i.i.i ], [ 1, %_ZN9grpc_core9ConstructINS_14promise_detail11PromiseLikeINS1_3MapINS_15InterceptorListISt10unique_ptrINS_7MessageENS_5Arena13PooledDeleterEEE10RunPromiseEZZZNS_12PipeReceiverIS9_E4NextEvENKUlSt8optionalIS9_EE_clESF_ENUlvE_clEvEUlSF_E_EEvEEJSK_EEEvPT_DpOT0_.exit.i.i.i.i.i.i.i.i.i.i.i.i.i.i ]
  store ptr null, ptr %next_factory.i.i8.i7.i.i.i.i, align 8, !noalias !21
  %state.i.i.i4050.i.i.i.i.i.i.i = getelementptr inbounds i8, ptr %call.i.i2.i.i.i, i64 120
  store i8 0, ptr %state.i.i.i4050.i.i.i.i.i.i.i, align 8, !noalias !21
  store ptr %41, ptr %122, align 8, !noalias !21
  store ptr null, ptr %agg.tmp.i.i.i.i.i.i.i, align 8, !noalias !21
  %action_factory_.i651.i.i.i.i.i.i.i = getelementptr inbounds i8, ptr %call.i.i2.i.i.i, i64 40
  store ptr %42, ptr %action_factory_.i651.i.i.i.i.i.i.i, align 8, !noalias !21
  store ptr null, ptr %action_factory_.i.i.i.i14.i.i.i.i, align 8, !noalias !21
  %reading_next_.i852.i.i.i.i.i.i.i = getelementptr inbounds i8, ptr %call.i.i2.i.i.i, i64 48
  store i8 1, ptr %reading_next_.i852.i.i.i.i.i.i.i, align 8, !noalias !21
  %140 = getelementptr inbounds i8, ptr %call.i.i2.i.i.i, i64 56
  %state.i.i.i.i953.i.i.i.i.i.i.i = getelementptr inbounds i8, ptr %call.i.i2.i.i.i, i64 104
  store i8 1, ptr %state.i.i.i.i953.i.i.i.i.i.i.i, align 8, !noalias !21
  store i8 %.ph46.i.i.i.i.i.i.i, ptr %140, align 8, !noalias !21
  %141 = getelementptr inbounds i8, ptr %call.i.i2.i.i.i, i64 64
  br i1 %tobool.not.i.i.i.i.i.i.i.i.i.i.i.i, label %if.else.i.i.i.i.i.i.i30.i.i.i.i.i.i.i, label %if.then.i.i.i.i.i.i.i13.i.i.i.i.i.i.i

if.then.i.i.i.i.i.i.i13.i.i.i.i.i.i.i:            ; preds = %sw.bb5.i.i.i.i11.i.i.i.i.i.i.i
  %is_immediately_resolved_.i.i.i.i.i.i.i.i.i.i.i.i14.i.i.i.i.i.i.i = getelementptr inbounds i8, ptr %call.i.i2.i.i.i, i64 88
  %tobool.not.i.i.i.i.i.i.i.i.i.i.i.i16.i.i.i.i.i.i.i = icmp eq i8 %.ph45.i.i.i.i.i.i.i, 0
  store i8 %.ph45.i.i.i.i.i.i.i, ptr %is_immediately_resolved_.i.i.i.i.i.i.i.i.i.i.i.i14.i.i.i.i.i.i.i, align 8, !noalias !21
  br i1 %tobool.not.i.i.i.i.i.i.i.i.i.i.i.i16.i.i.i.i.i.i.i, label %if.else.i.i.i.i.i.i.i.i.i.i.i.i26.i.i.i.i.i.i.i, label %if.then.i.i.i.i.i.i.i.i.i.i.i.i17.i.i.i.i.i.i.i

if.then.i.i.i.i.i.i.i.i.i.i.i.i17.i.i.i.i.i.i.i:  ; preds = %if.then.i.i.i.i.i.i.i13.i.i.i.i.i.i.i
  %_M_engaged.i.i.i.i.i.i.i.i.i.i.i.i.i.i.i.i.i.i19.i.i.i.i.i.i.i = getelementptr inbounds i8, ptr %call.i.i2.i.i.i, i64 80
  store i8 0, ptr %_M_engaged.i.i.i.i.i.i.i.i.i.i.i.i.i.i.i.i.i.i19.i.i.i.i.i.i.i, align 8, !noalias !21
  br i1 %tobool.not.i.i.i.i.i.i.i.i.i.i.i.i.i.i.i.i.i.i20.ph.i.i.i.i.i.i.i, label %_ZN9grpc_core9ConstructINS_14promise_detail11PromiseLikeINS1_3MapINS_15InterceptorListISt10unique_ptrINS_7MessageENS_5Arena13PooledDeleterEEE10RunPromiseEZZZNS_12PipeReceiverIS9_E4NextEvENKUlSt8optionalIS9_EE_clESF_ENUlvE_clEvEUlSF_E_EEvEEJSK_EEEvPT_DpOT0_.exit.i.i.i.i.i.i.i23.i.i.i.i.i.i.i, label %if.then.i.i.i.i.i.i.i.i.i.i.i.i.i.i.i.i.i.i21.i.i.i.i.i.i.i

if.then.i.i.i.i.i.i.i.i.i.i.i.i.i.i.i.i.i.i21.i.i.i.i.i.i.i: ; preds = %if.then.i.i.i.i.i.i.i.i.i.i.i.i17.i.i.i.i.i.i.i
  store i8 %.ph.i.i.i.i.i.i.i, ptr %141, align 1, !noalias !21
  %142 = getelementptr inbounds i8, ptr %call.i.i2.i.i.i, i64 72
  %add.ptr.i.i.i.i.i.i.i.i.i.i.i.i.i.i.i.i.i.i.i.i.i.i.i.i.i22.i.i.i.i.i.i.i = getelementptr inbounds i8, ptr %agg.tmp.i.i.i.i.i.i.i, i64 40
  %143 = load i64, ptr %add.ptr.i.i.i.i.i.i.i.i.i.i.i.i.i.i.i.i.i.i.i.i.i.i.i.i.i22.i.i.i.i.i.i.i, align 8, !noalias !21
  store i64 %143, ptr %142, align 8, !noalias !21
  store ptr null, ptr %add.ptr.i.i.i.i.i.i.i.i.i.i.i.i.i.i.i.i.i.i.i.i.i.i.i.i.i22.i.i.i.i.i.i.i, align 8, !noalias !21
  store i8 1, ptr %_M_engaged.i.i.i.i.i.i.i.i.i.i.i.i.i.i.i.i.i.i19.i.i.i.i.i.i.i, align 8, !noalias !21
  br label %_ZN9grpc_core9ConstructINS_14promise_detail11PromiseLikeINS1_3MapINS_15InterceptorListISt10unique_ptrINS_7MessageENS_5Arena13PooledDeleterEEE10RunPromiseEZZZNS_12PipeReceiverIS9_E4NextEvENKUlSt8optionalIS9_EE_clESF_ENUlvE_clEvEUlSF_E_EEvEEJSK_EEEvPT_DpOT0_.exit.i.i.i.i.i.i.i23.i.i.i.i.i.i.i

if.else.i.i.i.i.i.i.i.i.i.i.i.i26.i.i.i.i.i.i.i:  ; preds = %if.then.i.i.i.i.i.i.i13.i.i.i.i.i.i.i
  %144 = load ptr, ptr %124, align 8, !noalias !21
  store ptr null, ptr %124, align 8, !noalias !21
  store ptr %144, ptr %141, align 8, !noalias !21
  %space.i.i.i.i.i.i.i.i.i.i.i.i.i.i27.i.i.i.i.i.i.i = getelementptr inbounds i8, ptr %call.i.i2.i.i.i, i64 72
  store i8 %.ph44.i.i.i.i.i.i.i, ptr %space.i.i.i.i.i.i.i.i.i.i.i.i.i.i27.i.i.i.i.i.i.i, align 1, !noalias !21
  %145 = getelementptr inbounds i8, ptr %call.i.i2.i.i.i, i64 80
  %add.ptr.i.i.i.i.i.i.i.i.i.i.i.i.i.i.i.i.i.i.i29.i.i.i.i.i.i.i = getelementptr inbounds i8, ptr %agg.tmp.i.i.i.i.i.i.i, i64 48
  %146 = load i64, ptr %add.ptr.i.i.i.i.i.i.i.i.i.i.i.i.i.i.i.i.i.i.i29.i.i.i.i.i.i.i, align 8, !noalias !21
  store i64 %146, ptr %145, align 8, !noalias !21
  store ptr null, ptr %add.ptr.i.i.i.i.i.i.i.i.i.i.i.i.i.i.i.i.i.i.i29.i.i.i.i.i.i.i, align 8, !noalias !21
  br label %_ZN9grpc_core9ConstructINS_14promise_detail11PromiseLikeINS1_3MapINS_15InterceptorListISt10unique_ptrINS_7MessageENS_5Arena13PooledDeleterEEE10RunPromiseEZZZNS_12PipeReceiverIS9_E4NextEvENKUlSt8optionalIS9_EE_clESF_ENUlvE_clEvEUlSF_E_EEvEEJSK_EEEvPT_DpOT0_.exit.i.i.i.i.i.i.i23.i.i.i.i.i.i.i

_ZN9grpc_core9ConstructINS_14promise_detail11PromiseLikeINS1_3MapINS_15InterceptorListISt10unique_ptrINS_7MessageENS_5Arena13PooledDeleterEEE10RunPromiseEZZZNS_12PipeReceiverIS9_E4NextEvENKUlSt8optionalIS9_EE_clESF_ENUlvE_clEvEUlSF_E_EEvEEJSK_EEEvPT_DpOT0_.exit.i.i.i.i.i.i.i23.i.i.i.i.i.i.i: ; preds = %if.else.i.i.i.i.i.i.i.i.i.i.i.i26.i.i.i.i.i.i.i, %if.then.i.i.i.i.i.i.i.i.i.i.i.i.i.i.i.i.i.i21.i.i.i.i.i.i.i, %if.then.i.i.i.i.i.i.i.i.i.i.i.i17.i.i.i.i.i.i.i
  %fn_.i.i.i.i.i.i.i.i.i.i24.i.i.i.i.i.i.i = getelementptr inbounds i8, ptr %call.i.i2.i.i.i, i64 96
  %fn_3.i.i.i.i.i.i.i.i.i.i25.i.i.i.i.i.i.i = getelementptr inbounds i8, ptr %agg.tmp.i.i.i.i.i.i.i, i64 64
  store ptr %93, ptr %fn_.i.i.i.i.i.i.i.i.i.i24.i.i.i.i.i.i.i, align 8, !noalias !21
  store ptr null, ptr %fn_3.i.i.i.i.i.i.i.i.i.i25.i.i.i.i.i.i.i, align 8, !noalias !21
  br label %"_ZN9grpc_core14promise_detail18OncePromiseFactoryIvNS0_6TrySeqINS_15for_each_detail7ForEachINS_12PipeReceiverISt10unique_ptrINS_7MessageENS_5Arena13PooledDeleterEEEEZNS_12_GLOBAL__N_122ConnectedChannelStream12SendMessagesEPSB_E3$_0EEJZNSC_21MakeClientCallPromiseEPNS_9TransportENS_8CallArgsESt8functionIFNS_12ArenaPromiseIS6_I19grpc_metadata_batchS9_EEESJ_EEE3$_3EEEEC2ESS_.exit.thread62.i.i.i.i.i.i.i"

if.else.i.i.i.i.i.i.i30.i.i.i.i.i.i.i:            ; preds = %sw.bb5.i.i.i.i11.i.i.i.i.i.i.i
  store i8 %.ph.i.i.i.i.i.i.i, ptr %141, align 1, !noalias !21
  br label %"_ZN9grpc_core14promise_detail18OncePromiseFactoryIvNS0_6TrySeqINS_15for_each_detail7ForEachINS_12PipeReceiverISt10unique_ptrINS_7MessageENS_5Arena13PooledDeleterEEEEZNS_12_GLOBAL__N_122ConnectedChannelStream12SendMessagesEPSB_E3$_0EEJZNSC_21MakeClientCallPromiseEPNS_9TransportENS_8CallArgsESt8functionIFNS_12ArenaPromiseIS6_I19grpc_metadata_batchS9_EEESJ_EEE3$_3EEEEC2ESS_.exit.thread62.i.i.i.i.i.i.i"

tail0.i.i.i.i32.i.i.i.i.i.i.i:                    ; preds = %sw.bb.i.i.i.i31.i.i.i.i.i.i.i, %"_ZN9grpc_core14promise_detail6TrySeqINS_15for_each_detail7ForEachINS_12PipeReceiverISt10unique_ptrINS_7MessageENS_5Arena13PooledDeleterEEEEZNS_12_GLOBAL__N_122ConnectedChannelStream12SendMessagesEPSA_E3$_0EEJZNSB_21MakeClientCallPromiseEPNS_9TransportENS_8CallArgsESt8functionIFNS_12ArenaPromiseIS5_I19grpc_metadata_batchS8_EEESI_EEE3$_3EEC2EOSR_.exit.thread37.i.i.i.i.i.i.i"
  %next_factory.i.i.i.i33.i.i.i.i.i.i.i = getelementptr inbounds i8, ptr %call.i.i2.i.i.i, i64 64
  store ptr %119, ptr %next_factory.i.i.i.i33.i.i.i.i.i.i.i, align 8, !noalias !21
  store ptr null, ptr %next_factory.i.i.i.i.i.i.i.i.i.i.i, align 8, !noalias !21
  br label %"_ZN9grpc_core14promise_detail18OncePromiseFactoryIvNS0_6TrySeqINS_15for_each_detail7ForEachINS_12PipeReceiverISt10unique_ptrINS_7MessageENS_5Arena13PooledDeleterEEEEZNS_12_GLOBAL__N_122ConnectedChannelStream12SendMessagesEPSB_E3$_0EEJZNSC_21MakeClientCallPromiseEPNS_9TransportENS_8CallArgsESt8functionIFNS_12ArenaPromiseIS6_I19grpc_metadata_batchS9_EEESJ_EEE3$_3EEEEC2ESS_.exit.thread62.i.i.i.i.i.i.i"

"_ZN9grpc_core14promise_detail18OncePromiseFactoryIvNS0_6TrySeqINS_15for_each_detail7ForEachINS_12PipeReceiverISt10unique_ptrINS_7MessageENS_5Arena13PooledDeleterEEEEZNS_12_GLOBAL__N_122ConnectedChannelStream12SendMessagesEPSB_E3$_0EEJZNSC_21MakeClientCallPromiseEPNS_9TransportENS_8CallArgsESt8functionIFNS_12ArenaPromiseIS6_I19grpc_metadata_batchS9_EEESJ_EEE3$_3EEEEC2ESS_.exit.thread62.i.i.i.i.i.i.i": ; preds = %tail0.i.i.i.i32.i.i.i.i.i.i.i, %if.else.i.i.i.i.i.i.i30.i.i.i.i.i.i.i, %_ZN9grpc_core9ConstructINS_14promise_detail11PromiseLikeINS1_3MapINS_15InterceptorListISt10unique_ptrINS_7MessageENS_5Arena13PooledDeleterEEE10RunPromiseEZZZNS_12PipeReceiverIS9_E4NextEvENKUlSt8optionalIS9_EE_clESF_ENUlvE_clEvEUlSF_E_EEvEEJSK_EEEvPT_DpOT0_.exit.i.i.i.i.i.i.i23.i.i.i.i.i.i.i
  %next_factory.i.i.i63.i.i.i.i.i.i.i = getelementptr inbounds i8, ptr %call.i.i2.i.i.i, i64 112
  %next_factory6.i.i.i64.i.i.i.i.i.i.i = getelementptr inbounds i8, ptr %agg.tmp.i.i.i.i.i.i.i, i64 80
  store ptr %call1.i4.i, ptr %next_factory.i.i.i63.i.i.i.i.i.i.i, align 8, !noalias !21
  store ptr null, ptr %next_factory6.i.i.i64.i.i.i.i.i.i.i, align 8, !noalias !21
  call fastcc void @"_ZN9grpc_core15for_each_detail7ForEachINS_12PipeReceiverISt10unique_ptrINS_7MessageENS_5Arena13PooledDeleterEEEEZNS_12_GLOBAL__N_122ConnectedChannelStream12SendMessagesEPS8_E3$_0ED2Ev"(ptr noundef nonnull align 8 dereferenceable(80) %agg.tmp.i.i.i.i.i.i.i) #23, !noalias !21
  %next_factory.val.i.i.pre.i.i.i.i.i.i.i = load ptr, ptr %next_factory6.i.i.i64.i.i.i.i.i.i.i, align 8, !noalias !21
  %cmp.not.i.i.i.i1.i.i.i.i.i.i.i.i.i = icmp eq ptr %next_factory.val.i.i.pre.i.i.i.i.i.i.i, null
  br i1 %cmp.not.i.i.i.i1.i.i.i.i.i.i.i.i.i, label %invoke.cont.i.i.i.i.i, label %if.then.i.i.i.i2.i.i.i.i.i.i.i.i.i

if.then.i.i.i.i2.i.i.i.i.i.i.i.i.i:               ; preds = %"_ZN9grpc_core14promise_detail18OncePromiseFactoryIvNS0_6TrySeqINS_15for_each_detail7ForEachINS_12PipeReceiverISt10unique_ptrINS_7MessageENS_5Arena13PooledDeleterEEEEZNS_12_GLOBAL__N_122ConnectedChannelStream12SendMessagesEPSB_E3$_0EEJZNSC_21MakeClientCallPromiseEPNS_9TransportENS_8CallArgsESt8functionIFNS_12ArenaPromiseIS6_I19grpc_metadata_batchS9_EEESJ_EEE3$_3EEEEC2ESS_.exit.thread62.i.i.i.i.i.i.i"
  %stream_refcount_.i.i.i.i.i.i.i.i.i.i.i.i.i.i = getelementptr inbounds i8, ptr %next_factory.val.i.i.pre.i.i.i.i.i.i.i, i64 56
  %147 = atomicrmw sub ptr %stream_refcount_.i.i.i.i.i.i.i.i.i.i.i.i.i.i, i64 1 acq_rel, align 8, !noalias !21
  %cmp.i.i.i.i.i.i.i.i.i.i.i.i.i.i.i.i = icmp eq i64 %147, 1
  br i1 %cmp.i.i.i.i.i.i.i.i.i.i.i.i.i.i.i.i, label %if.then.i.i.i.i.i.i.i.i.i.i.i.i.i.i.i, label %invoke.cont.i.i.i.i.i

if.then.i.i.i.i.i.i.i.i.i.i.i.i.i.i.i:            ; preds = %if.then.i.i.i.i2.i.i.i.i.i.i.i.i.i
  invoke void @_Z19grpc_stream_destroyP20grpc_stream_refcount(ptr noundef nonnull %stream_refcount_.i.i.i.i.i.i.i.i.i.i.i.i.i.i)
          to label %invoke.cont.i.i.i.i.i unwind label %terminate.lpad.i.i.i.i.i.i.i.i.i.i.i.i.i, !noalias !21

terminate.lpad.i.i.i.i.i.i.i.i.i.i.i.i.i:         ; preds = %if.then.i.i.i.i.i.i.i.i.i.i.i.i.i.i.i
  %148 = landingpad { ptr, i32 }
          catch ptr null
  %149 = extractvalue { ptr, i32 } %148, 0
  call void @__clang_call_terminate(ptr %149) #24
  unreachable

invoke.cont.i.i.i.i.i:                            ; preds = %if.then.i.i.i.i.i.i.i.i.i.i.i.i.i.i.i, %if.then.i.i.i.i2.i.i.i.i.i.i.i.i.i, %"_ZN9grpc_core14promise_detail18OncePromiseFactoryIvNS0_6TrySeqINS_15for_each_detail7ForEachINS_12PipeReceiverISt10unique_ptrINS_7MessageENS_5Arena13PooledDeleterEEEEZNS_12_GLOBAL__N_122ConnectedChannelStream12SendMessagesEPSB_E3$_0EEJZNSC_21MakeClientCallPromiseEPNS_9TransportENS_8CallArgsESt8functionIFNS_12ArenaPromiseIS6_I19grpc_metadata_batchS9_EEESJ_EEE3$_3EEEEC2ESS_.exit.thread62.i.i.i.i.i.i.i"
  call void @llvm.lifetime.end.p0(i64 96, ptr nonnull %agg.tmp.i.i.i.i.i.i.i), !noalias !21
  %150 = load i8, ptr %state.i.i.i.i.i.i.i, align 8, !noalias !21
  switch i8 %150, label %tail0.i.i3.i.i.i.i.i [
    i8 0, label %sw.bb.i.i2.i.i.i.i.i
    i8 1, label %sw.bb2.i.i.i.i.i.i.i
  ]

sw.bb.i.i2.i.i.i.i.i:                             ; preds = %invoke.cont.i.i.i.i.i
  call fastcc void @"_ZN9grpc_core15for_each_detail7ForEachINS_12PipeReceiverISt10unique_ptrINS_7MessageENS_5Arena13PooledDeleterEEEEZNS_12_GLOBAL__N_122ConnectedChannelStream12SendMessagesEPS8_E3$_0ED2Ev"(ptr noundef nonnull align 8 dereferenceable(80) %agg.tmp6.i.i.i.i.i) #23, !noalias !21
  br label %tail0.i.i3.i.i.i.i.i

sw.bb2.i.i.i.i.i.i.i:                             ; preds = %invoke.cont.i.i.i.i.i
  %151 = load ptr, ptr %agg.tmp6.i.i.i.i.i, align 8, !noalias !21
  %cmp.not.i.i.i.i.i.i.i.i.i.i.i = icmp eq ptr %151, null
  br i1 %cmp.not.i.i.i.i.i.i.i.i.i.i.i, label %invoke.cont.i.i.i, label %if.then.i.i.i.i.i.i.i.i.i.i.i

if.then.i.i.i.i.i.i.i.i.i.i.i:                    ; preds = %sw.bb2.i.i.i.i.i.i.i
  %refs.i.i.i.i.i.i.i.i.i.i.i.i = getelementptr inbounds i8, ptr %151, i64 112
  %152 = load i8, ptr %refs.i.i.i.i.i.i.i.i.i.i.i.i, align 8, !noalias !21
  %dec.i.i.i.i.i.i.i.i.i.i.i.i = add i8 %152, -1
  store i8 %dec.i.i.i.i.i.i.i.i.i.i.i.i, ptr %refs.i.i.i.i.i.i.i.i.i.i.i.i, align 8, !noalias !21
  %cmp.i.i.i.i.i.i.i.i.i.i.i.i = icmp eq i8 %dec.i.i.i.i.i.i.i.i.i.i.i.i, 0
  br i1 %cmp.i.i.i.i.i.i.i.i.i.i.i.i, label %if.then.i.i.i.i.i.i.i.i.i.i.i.i, label %invoke.cont.i.i.i

if.then.i.i.i.i.i.i.i.i.i.i.i.i:                  ; preds = %if.then.i.i.i.i.i.i.i.i.i.i.i
  call void @_ZN9grpc_core12BatchBuilder5BatchD1Ev(ptr noundef nonnull align 8 dereferenceable(120) %151) #23, !noalias !21
  call void @_ZdlPv(ptr noundef nonnull %151) #26, !noalias !21
  br label %invoke.cont.i.i.i

tail0.i.i3.i.i.i.i.i:                             ; preds = %sw.bb.i.i2.i.i.i.i.i, %invoke.cont.i.i.i.i.i
  %next_factory.i.i4.i.i.i.i.i = getelementptr inbounds i8, ptr %agg.tmp6.i.i.i.i.i, i64 80
  %next_factory.val.i.i.i.i.i.i.i = load ptr, ptr %next_factory.i.i4.i.i.i.i.i, align 8, !noalias !21
  %cmp.not.i.i.i.i1.i.i.i.i.i.i.i = icmp eq ptr %next_factory.val.i.i.i.i.i.i.i, null
  br i1 %cmp.not.i.i.i.i1.i.i.i.i.i.i.i, label %invoke.cont.i.i.i, label %if.then.i.i.i.i2.i.i.i.i.i.i.i

if.then.i.i.i.i2.i.i.i.i.i.i.i:                   ; preds = %tail0.i.i3.i.i.i.i.i
  %stream_refcount_.i.i.i.i.i.i.i.i.i.i.i.i = getelementptr inbounds i8, ptr %next_factory.val.i.i.i.i.i.i.i, i64 56
  %153 = atomicrmw sub ptr %stream_refcount_.i.i.i.i.i.i.i.i.i.i.i.i, i64 1 acq_rel, align 8, !noalias !21
  %cmp.i.i.i.i.i.i.i.i.i.i.i.i.i.i = icmp eq i64 %153, 1
  br i1 %cmp.i.i.i.i.i.i.i.i.i.i.i.i.i.i, label %if.then.i.i.i.i.i.i.i.i.i.i.i.i.i, label %invoke.cont.i.i.i

if.then.i.i.i.i.i.i.i.i.i.i.i.i.i:                ; preds = %if.then.i.i.i.i2.i.i.i.i.i.i.i
  invoke void @_Z19grpc_stream_destroyP20grpc_stream_refcount(ptr noundef nonnull %stream_refcount_.i.i.i.i.i.i.i.i.i.i.i.i)
          to label %invoke.cont.i.i.i unwind label %terminate.lpad.i.i.i.i.i.i.i.i.i.i.i, !noalias !21

terminate.lpad.i.i.i.i.i.i.i.i.i.i.i:             ; preds = %if.then.i.i.i.i.i.i.i.i.i.i.i.i.i
  %154 = landingpad { ptr, i32 }
          catch ptr null
  %155 = extractvalue { ptr, i32 } %154, 0
  call void @__clang_call_terminate(ptr %155) #24
  unreachable

invoke.cont.i.i.i:                                ; preds = %if.then.i.i.i.i.i.i.i.i.i.i.i.i.i, %if.then.i.i.i.i2.i.i.i.i.i.i.i, %tail0.i.i3.i.i.i.i.i, %if.then.i.i.i.i.i.i.i.i.i.i.i.i, %if.then.i.i.i.i.i.i.i.i.i.i.i, %sw.bb2.i.i.i.i.i.i.i
  call void @llvm.lifetime.end.p0(i64 96, ptr nonnull %agg.tmp6.i.i.i.i.i), !noalias !21
  %participants_.i.i49.i.i = getelementptr inbounds i8, ptr %ref.tmp.i45.i.i, i64 16
  %156 = load i64, ptr %num_participants_.i.i4611.i.i, align 8, !noalias !21
  %inc.i.i.i.i = add i64 %156, 1
  store i64 %inc.i.i.i.i, ptr %num_participants_.i.i4611.i.i, align 8, !noalias !21
  %arrayidx.i.i.i.i = getelementptr inbounds [16 x ptr], ptr %participants_.i.i49.i.i, i64 0, i64 %156
  store ptr %call.i.i2.i.i.i, ptr %arrayidx.i.i.i.i, align 8, !noalias !21
  %157 = load i8, ptr %state.i.i.i4714.i.i, align 8, !noalias !21
  switch i8 %157, label %tail0.i.i5.i.i.i [
    i8 0, label %sw.bb.i.i4.i.i.i
    i8 1, label %sw.bb2.i.i.i.i.i
  ]

sw.bb.i.i4.i.i.i:                                 ; preds = %invoke.cont.i.i.i
  call fastcc void @"_ZN9grpc_core15for_each_detail7ForEachINS_12PipeReceiverISt10unique_ptrINS_7MessageENS_5Arena13PooledDeleterEEEEZNS_12_GLOBAL__N_122ConnectedChannelStream12SendMessagesEPS8_E3$_0ED2Ev"(ptr noundef nonnull align 8 dereferenceable(80) %agg.tmp2.i.i.i) #23, !noalias !21
  br label %tail0.i.i5.i.i.i

sw.bb2.i.i.i.i.i:                                 ; preds = %invoke.cont.i.i.i
  %158 = load ptr, ptr %agg.tmp2.i.i.i, align 8, !noalias !21
  %cmp.not.i.i.i.i.i.i.i.i.i = icmp eq ptr %158, null
  br i1 %cmp.not.i.i.i.i.i.i.i.i.i, label %"_ZN9grpc_core14promise_detail6TrySeqINS_15for_each_detail7ForEachINS_12PipeReceiverISt10unique_ptrINS_7MessageENS_5Arena13PooledDeleterEEEEZNS_12_GLOBAL__N_122ConnectedChannelStream12SendMessagesEPSA_E3$_0EEJZNSB_21MakeClientCallPromiseEPNS_9TransportENS_8CallArgsESt8functionIFNS_12ArenaPromiseIS5_I19grpc_metadata_batchS8_EEESI_EEE3$_3EED2Ev.exit.i.i.i", label %if.then.i.i.i.i.i.i.i.i.i

if.then.i.i.i.i.i.i.i.i.i:                        ; preds = %sw.bb2.i.i.i.i.i
  %refs.i.i.i.i.i.i.i.i.i.i = getelementptr inbounds i8, ptr %158, i64 112
  %159 = load i8, ptr %refs.i.i.i.i.i.i.i.i.i.i, align 8, !noalias !21
  %dec.i.i.i.i.i.i.i.i.i.i = add i8 %159, -1
  store i8 %dec.i.i.i.i.i.i.i.i.i.i, ptr %refs.i.i.i.i.i.i.i.i.i.i, align 8, !noalias !21
  %cmp.i.i.i.i.i.i.i.i.i.i = icmp eq i8 %dec.i.i.i.i.i.i.i.i.i.i, 0
  br i1 %cmp.i.i.i.i.i.i.i.i.i.i, label %if.then.i.i.i.i.i.i.i.i.i.i, label %"_ZN9grpc_core14promise_detail6TrySeqINS_15for_each_detail7ForEachINS_12PipeReceiverISt10unique_ptrINS_7MessageENS_5Arena13PooledDeleterEEEEZNS_12_GLOBAL__N_122ConnectedChannelStream12SendMessagesEPSA_E3$_0EEJZNSB_21MakeClientCallPromiseEPNS_9TransportENS_8CallArgsESt8functionIFNS_12ArenaPromiseIS5_I19grpc_metadata_batchS8_EEESI_EEE3$_3EED2Ev.exit.i.i.i"

if.then.i.i.i.i.i.i.i.i.i.i:                      ; preds = %if.then.i.i.i.i.i.i.i.i.i
  call void @_ZN9grpc_core12BatchBuilder5BatchD1Ev(ptr noundef nonnull align 8 dereferenceable(120) %158) #23, !noalias !21
  call void @_ZdlPv(ptr noundef nonnull %158) #26, !noalias !21
  br label %"_ZN9grpc_core14promise_detail6TrySeqINS_15for_each_detail7ForEachINS_12PipeReceiverISt10unique_ptrINS_7MessageENS_5Arena13PooledDeleterEEEEZNS_12_GLOBAL__N_122ConnectedChannelStream12SendMessagesEPSA_E3$_0EEJZNSB_21MakeClientCallPromiseEPNS_9TransportENS_8CallArgsESt8functionIFNS_12ArenaPromiseIS5_I19grpc_metadata_batchS8_EEESI_EEE3$_3EED2Ev.exit.i.i.i"

tail0.i.i5.i.i.i:                                 ; preds = %sw.bb.i.i4.i.i.i, %invoke.cont.i.i.i
  %next_factory.val.i.i.i.i.i = load ptr, ptr %next_factory.i.i.i56.i.i, align 8, !noalias !21
  %cmp.not.i.i.i.i1.i.i.i.i.i = icmp eq ptr %next_factory.val.i.i.i.i.i, null
  br i1 %cmp.not.i.i.i.i1.i.i.i.i.i, label %"_ZN9grpc_core14promise_detail6TrySeqINS_15for_each_detail7ForEachINS_12PipeReceiverISt10unique_ptrINS_7MessageENS_5Arena13PooledDeleterEEEEZNS_12_GLOBAL__N_122ConnectedChannelStream12SendMessagesEPSA_E3$_0EEJZNSB_21MakeClientCallPromiseEPNS_9TransportENS_8CallArgsESt8functionIFNS_12ArenaPromiseIS5_I19grpc_metadata_batchS8_EEESI_EEE3$_3EED2Ev.exit.i.i.i", label %if.then.i.i.i.i2.i.i.i.i.i

if.then.i.i.i.i2.i.i.i.i.i:                       ; preds = %tail0.i.i5.i.i.i
  %stream_refcount_.i.i.i.i.i.i.i.i.i.i = getelementptr inbounds i8, ptr %next_factory.val.i.i.i.i.i, i64 56
  %160 = atomicrmw sub ptr %stream_refcount_.i.i.i.i.i.i.i.i.i.i, i64 1 acq_rel, align 8, !noalias !21
  %cmp.i.i.i.i.i.i.i.i.i7.i.i.i = icmp eq i64 %160, 1
  br i1 %cmp.i.i.i.i.i.i.i.i.i7.i.i.i, label %if.then.i.i.i.i.i.i.i.i8.i.i.i, label %"_ZN9grpc_core14promise_detail6TrySeqINS_15for_each_detail7ForEachINS_12PipeReceiverISt10unique_ptrINS_7MessageENS_5Arena13PooledDeleterEEEEZNS_12_GLOBAL__N_122ConnectedChannelStream12SendMessagesEPSA_E3$_0EEJZNSB_21MakeClientCallPromiseEPNS_9TransportENS_8CallArgsESt8functionIFNS_12ArenaPromiseIS5_I19grpc_metadata_batchS8_EEESI_EEE3$_3EED2Ev.exit.i.i.i"

if.then.i.i.i.i.i.i.i.i8.i.i.i:                   ; preds = %if.then.i.i.i.i2.i.i.i.i.i
  invoke void @_Z19grpc_stream_destroyP20grpc_stream_refcount(ptr noundef nonnull %stream_refcount_.i.i.i.i.i.i.i.i.i.i)
          to label %"_ZN9grpc_core14promise_detail6TrySeqINS_15for_each_detail7ForEachINS_12PipeReceiverISt10unique_ptrINS_7MessageENS_5Arena13PooledDeleterEEEEZNS_12_GLOBAL__N_122ConnectedChannelStream12SendMessagesEPSA_E3$_0EEJZNSB_21MakeClientCallPromiseEPNS_9TransportENS_8CallArgsESt8functionIFNS_12ArenaPromiseIS5_I19grpc_metadata_batchS8_EEESI_EEE3$_3EED2Ev.exit.i.i.i" unwind label %terminate.lpad.i.i.i.i.i.i.i.i.i, !noalias !21

terminate.lpad.i.i.i.i.i.i.i.i.i:                 ; preds = %if.then.i.i.i.i.i.i.i.i8.i.i.i
  %161 = landingpad { ptr, i32 }
          catch ptr null
  %162 = extractvalue { ptr, i32 } %161, 0
  call void @__clang_call_terminate(ptr %162) #24
  unreachable

"_ZN9grpc_core14promise_detail6TrySeqINS_15for_each_detail7ForEachINS_12PipeReceiverISt10unique_ptrINS_7MessageENS_5Arena13PooledDeleterEEEEZNS_12_GLOBAL__N_122ConnectedChannelStream12SendMessagesEPSA_E3$_0EEJZNSB_21MakeClientCallPromiseEPNS_9TransportENS_8CallArgsESt8functionIFNS_12ArenaPromiseIS5_I19grpc_metadata_batchS8_EEESI_EEE3$_3EED2Ev.exit.i.i.i": ; preds = %if.then.i.i.i.i.i.i.i.i8.i.i.i, %if.then.i.i.i.i2.i.i.i.i.i, %tail0.i.i5.i.i.i, %if.then.i.i.i.i.i.i.i.i.i.i, %if.then.i.i.i.i.i.i.i.i.i, %sw.bb2.i.i.i.i.i
  %163 = load ptr, ptr %ref.tmp.i45.i.i, align 8, !noalias !21
  %164 = load i64, ptr %num_participants_.i.i4611.i.i, align 8, !noalias !21
  invoke void @_ZN9grpc_core5Party15AddParticipantsEPPNS0_11ParticipantEm(ptr noundef nonnull align 8 dereferenceable(168) %163, ptr noundef nonnull %participants_.i.i49.i.i, i64 noundef %164)
          to label %invoke.cont52.i.i unwind label %terminate.lpad.i.i50.i.i, !noalias !21

terminate.lpad.i.i50.i.i:                         ; preds = %"_ZN9grpc_core14promise_detail6TrySeqINS_15for_each_detail7ForEachINS_12PipeReceiverISt10unique_ptrINS_7MessageENS_5Arena13PooledDeleterEEEEZNS_12_GLOBAL__N_122ConnectedChannelStream12SendMessagesEPSA_E3$_0EEJZNSB_21MakeClientCallPromiseEPNS_9TransportENS_8CallArgsESt8functionIFNS_12ArenaPromiseIS5_I19grpc_metadata_batchS8_EEESI_EEE3$_3EED2Ev.exit.i.i.i"
  %165 = landingpad { ptr, i32 }
          catch ptr null
  %166 = extractvalue { ptr, i32 } %165, 0
  call void @__clang_call_terminate(ptr %166) #24
  unreachable

lpad.i48.i.i:                                     ; preds = %"_ZN9grpc_core14promise_detail6TrySeqINS_15for_each_detail7ForEachINS_12PipeReceiverISt10unique_ptrINS_7MessageENS_5Arena13PooledDeleterEEEEZNS_12_GLOBAL__N_122ConnectedChannelStream12SendMessagesEPSA_E3$_0EEJZNSB_21MakeClientCallPromiseEPNS_9TransportENS_8CallArgsESt8functionIFNS_12ArenaPromiseIS5_I19grpc_metadata_batchS8_EEESI_EEE3$_3EEC2EOSR_.exit.i.i.i"
  %167 = landingpad { ptr, i32 }
          cleanup
  call fastcc void @"_ZN9grpc_core14promise_detail6TrySeqINS_15for_each_detail7ForEachINS_12PipeReceiverISt10unique_ptrINS_7MessageENS_5Arena13PooledDeleterEEEEZNS_12_GLOBAL__N_122ConnectedChannelStream12SendMessagesEPSA_E3$_0EEJZNSB_21MakeClientCallPromiseEPNS_9TransportENS_8CallArgsESt8functionIFNS_12ArenaPromiseIS5_I19grpc_metadata_batchS8_EEESI_EEE3$_3EED2Ev"(ptr noundef nonnull align 8 dereferenceable(96) %agg.tmp2.i.i.i) #23, !noalias !21
  call void @_ZN9grpc_core5Party11BulkSpawnerD2Ev(ptr noundef nonnull align 8 dereferenceable(144) %ref.tmp.i45.i.i) #23, !noalias !21
  call fastcc void @"_ZN9grpc_core14promise_detail6TrySeqINS_15for_each_detail7ForEachINS_12PipeReceiverISt10unique_ptrINS_7MessageENS_5Arena13PooledDeleterEEEEZNS_12_GLOBAL__N_122ConnectedChannelStream12SendMessagesEPSA_E3$_0EEJZNSB_21MakeClientCallPromiseEPNS_9TransportENS_8CallArgsESt8functionIFNS_12ArenaPromiseIS5_I19grpc_metadata_batchS8_EEESI_EEE3$_3EED2Ev"(ptr noundef nonnull align 8 dereferenceable(96) %agg.tmp40.i.i) #23, !noalias !21
  call fastcc void @"_ZN9grpc_core15for_each_detail7ForEachINS_12PipeReceiverISt10unique_ptrINS_7MessageENS_5Arena13PooledDeleterEEEEZNS_12_GLOBAL__N_122ConnectedChannelStream12SendMessagesEPS8_E3$_0ED2Ev"(ptr noundef nonnull align 8 dereferenceable(80) %agg.tmp41.i.i) #23, !noalias !21
  br label %ehcleanup131.i.i

invoke.cont52.i.i:                                ; preds = %"_ZN9grpc_core14promise_detail6TrySeqINS_15for_each_detail7ForEachINS_12PipeReceiverISt10unique_ptrINS_7MessageENS_5Arena13PooledDeleterEEEEZNS_12_GLOBAL__N_122ConnectedChannelStream12SendMessagesEPSA_E3$_0EEJZNSB_21MakeClientCallPromiseEPNS_9TransportENS_8CallArgsESt8functionIFNS_12ArenaPromiseIS5_I19grpc_metadata_batchS8_EEESI_EEE3$_3EED2Ev.exit.i.i.i"
  call void @llvm.lifetime.end.p0(i64 144, ptr nonnull %ref.tmp.i45.i.i), !noalias !21
  call void @llvm.lifetime.end.p0(i64 96, ptr nonnull %agg.tmp2.i.i.i), !noalias !21
  %168 = load i8, ptr %state.i.i.i.i.i, align 8, !noalias !21
  switch i8 %168, label %tail0.i.i.i.i [
    i8 0, label %sw.bb.i.i.i.i
    i8 1, label %sw.bb2.i.i.i.i
  ]

sw.bb.i.i.i.i:                                    ; preds = %invoke.cont52.i.i
  call fastcc void @"_ZN9grpc_core15for_each_detail7ForEachINS_12PipeReceiverISt10unique_ptrINS_7MessageENS_5Arena13PooledDeleterEEEEZNS_12_GLOBAL__N_122ConnectedChannelStream12SendMessagesEPS8_E3$_0ED2Ev"(ptr noundef nonnull align 8 dereferenceable(80) %agg.tmp40.i.i) #23, !noalias !21
  br label %tail0.i.i.i.i

sw.bb2.i.i.i.i:                                   ; preds = %invoke.cont52.i.i
  %169 = load ptr, ptr %agg.tmp40.i.i, align 8, !noalias !21
  %cmp.not.i.i.i.i.i.i.i.i = icmp eq ptr %169, null
  br i1 %cmp.not.i.i.i.i.i.i.i.i, label %"_ZZN9grpc_core12_GLOBAL__N_121MakeClientCallPromiseEPNS_9TransportENS_8CallArgsESt8functionIFNS_12ArenaPromiseISt10unique_ptrI19grpc_metadata_batchNS_5Arena13PooledDeleterEEEES3_EEEN3$_3D2Ev.exit.i.i", label %if.then.i.i.i.i.i.i.i.i

if.then.i.i.i.i.i.i.i.i:                          ; preds = %sw.bb2.i.i.i.i
  %refs.i.i.i.i.i.i.i.i.i = getelementptr inbounds i8, ptr %169, i64 112
  %170 = load i8, ptr %refs.i.i.i.i.i.i.i.i.i, align 8, !noalias !21
  %dec.i.i.i.i.i.i.i.i.i = add i8 %170, -1
  store i8 %dec.i.i.i.i.i.i.i.i.i, ptr %refs.i.i.i.i.i.i.i.i.i, align 8, !noalias !21
  %cmp.i.i.i.i.i.i.i.i.i = icmp eq i8 %dec.i.i.i.i.i.i.i.i.i, 0
  br i1 %cmp.i.i.i.i.i.i.i.i.i, label %if.then.i.i.i.i.i.i.i58.i.i, label %"_ZZN9grpc_core12_GLOBAL__N_121MakeClientCallPromiseEPNS_9TransportENS_8CallArgsESt8functionIFNS_12ArenaPromiseISt10unique_ptrI19grpc_metadata_batchNS_5Arena13PooledDeleterEEEES3_EEEN3$_3D2Ev.exit.i.i"

if.then.i.i.i.i.i.i.i58.i.i:                      ; preds = %if.then.i.i.i.i.i.i.i.i
  call void @_ZN9grpc_core12BatchBuilder5BatchD1Ev(ptr noundef nonnull align 8 dereferenceable(120) %169) #23, !noalias !21
  call void @_ZdlPv(ptr noundef nonnull %169) #26, !noalias !21
  br label %"_ZZN9grpc_core12_GLOBAL__N_121MakeClientCallPromiseEPNS_9TransportENS_8CallArgsESt8functionIFNS_12ArenaPromiseISt10unique_ptrI19grpc_metadata_batchNS_5Arena13PooledDeleterEEEES3_EEEN3$_3D2Ev.exit.i.i"

tail0.i.i.i.i:                                    ; preds = %sw.bb.i.i.i.i, %invoke.cont52.i.i
  %next_factory.val.i.i.i.i = load ptr, ptr %next_factory.i.i.i7.i.i, align 8, !noalias !21
  %cmp.not.i.i.i.i1.i.i.i.i = icmp eq ptr %next_factory.val.i.i.i.i, null
  br i1 %cmp.not.i.i.i.i1.i.i.i.i, label %"_ZZN9grpc_core12_GLOBAL__N_121MakeClientCallPromiseEPNS_9TransportENS_8CallArgsESt8functionIFNS_12ArenaPromiseISt10unique_ptrI19grpc_metadata_batchNS_5Arena13PooledDeleterEEEES3_EEEN3$_3D2Ev.exit.i.i", label %if.then.i.i.i.i2.i.i.i.i

if.then.i.i.i.i2.i.i.i.i:                         ; preds = %tail0.i.i.i.i
  %stream_refcount_.i.i.i.i.i.i.i.i.i = getelementptr inbounds i8, ptr %next_factory.val.i.i.i.i, i64 56
  %171 = atomicrmw sub ptr %stream_refcount_.i.i.i.i.i.i.i.i.i, i64 1 acq_rel, align 8, !noalias !21
  %cmp.i.i.i.i.i.i.i.i.i.i.i = icmp eq i64 %171, 1
  br i1 %cmp.i.i.i.i.i.i.i.i.i.i.i, label %if.then.i.i.i.i.i.i.i.i59.i.i, label %"_ZZN9grpc_core12_GLOBAL__N_121MakeClientCallPromiseEPNS_9TransportENS_8CallArgsESt8functionIFNS_12ArenaPromiseISt10unique_ptrI19grpc_metadata_batchNS_5Arena13PooledDeleterEEEES3_EEEN3$_3D2Ev.exit.i.i"

if.then.i.i.i.i.i.i.i.i59.i.i:                    ; preds = %if.then.i.i.i.i2.i.i.i.i
  invoke void @_Z19grpc_stream_destroyP20grpc_stream_refcount(ptr noundef nonnull %stream_refcount_.i.i.i.i.i.i.i.i.i)
          to label %"_ZZN9grpc_core12_GLOBAL__N_121MakeClientCallPromiseEPNS_9TransportENS_8CallArgsESt8functionIFNS_12ArenaPromiseISt10unique_ptrI19grpc_metadata_batchNS_5Arena13PooledDeleterEEEES3_EEEN3$_3D2Ev.exit.i.i" unwind label %terminate.lpad.i.i.i.i.i.i.i.i, !noalias !21

terminate.lpad.i.i.i.i.i.i.i.i:                   ; preds = %if.then.i.i.i.i.i.i.i.i59.i.i
  %172 = landingpad { ptr, i32 }
          catch ptr null
  %173 = extractvalue { ptr, i32 } %172, 0
  call void @__clang_call_terminate(ptr %173) #24
  unreachable

"_ZZN9grpc_core12_GLOBAL__N_121MakeClientCallPromiseEPNS_9TransportENS_8CallArgsESt8functionIFNS_12ArenaPromiseISt10unique_ptrI19grpc_metadata_batchNS_5Arena13PooledDeleterEEEES3_EEEN3$_3D2Ev.exit.i.i": ; preds = %if.then.i.i.i.i.i.i.i.i59.i.i, %if.then.i.i.i.i2.i.i.i.i, %tail0.i.i.i.i, %if.then.i.i.i.i.i.i.i58.i.i, %if.then.i.i.i.i.i.i.i.i, %sw.bb2.i.i.i.i
  call fastcc void @"_ZN9grpc_core15for_each_detail7ForEachINS_12PipeReceiverISt10unique_ptrINS_7MessageENS_5Arena13PooledDeleterEEEEZNS_12_GLOBAL__N_122ConnectedChannelStream12SendMessagesEPS8_E3$_0ED2Ev"(ptr noundef nonnull align 8 dereferenceable(80) %agg.tmp41.i.i) #23, !noalias !21
  %174 = load ptr, ptr %7, align 8, !noalias !21
  %cmp.not.i66.i.i = icmp eq ptr %174, null
  br i1 %cmp.not.i66.i.i, label %if.then.i67.invoke.i.i, label %invoke.cont56.i.i

if.then.i67.invoke.i.i:                           ; preds = %"_ZZN9grpc_core12_GLOBAL__N_121MakeClientCallPromiseEPNS_9TransportENS_8CallArgsESt8functionIFNS_12ArenaPromiseISt10unique_ptrI19grpc_metadata_batchNS_5Arena13PooledDeleterEEEES3_EEEN3$_3D2Ev.exit.i.i", %invoke.cont15.i.i, %call1.i.noexc.i
  invoke void @gpr_assertion_failed(ptr noundef nonnull @.str.19, i32 noundef 80, ptr noundef nonnull @.str.20) #25
          to label %if.then.i67.cont.i.i unwind label %lpad.i.i, !noalias !21

if.then.i67.cont.i.i:                             ; preds = %if.then.i67.invoke.i.i
  unreachable

invoke.cont56.i.i:                                ; preds = %"_ZZN9grpc_core12_GLOBAL__N_121MakeClientCallPromiseEPNS_9TransportENS_8CallArgsESt8functionIFNS_12ArenaPromiseISt10unique_ptrI19grpc_metadata_batchNS_5Arena13PooledDeleterEEEES3_EEEN3$_3D2Ev.exit.i.i"
  call void @llvm.experimental.noalias.scope.decl(metadata !50)
  %call.i75.i.i = invoke noalias noundef nonnull dereferenceable(568) ptr @_Znwm(i64 noundef 568) #27
          to label %invoke.cont58.i.i unwind label %lpad.i.i, !noalias !21

invoke.cont58.i.i:                                ; preds = %invoke.cont56.i.i
  call void @llvm.memset.p0.i64(ptr noundef nonnull align 8 dereferenceable(6) %call.i75.i.i, i8 0, i64 6, i1 false), !noalias !53
  %unknown_.i.i.i.i.i = getelementptr inbounds i8, ptr %call.i75.i.i, i64 544
  store ptr %174, ptr %unknown_.i.i.i.i.i, align 8, !noalias !53
  %first_.i.i.i.i.i.i.i = getelementptr inbounds i8, ptr %call.i75.i.i, i64 552
  call void @llvm.memset.p0.i64(ptr noundef nonnull align 8 dereferenceable(16) %first_.i.i.i.i.i.i.i, i8 0, i64 16, i1 false), !noalias !53
  store i8 1, ptr %server_initial_metadata.i.i, align 8, !alias.scope !50, !noalias !21
  %175 = getelementptr inbounds i8, ptr %server_initial_metadata.i.i, i64 8
  store ptr %call.i75.i.i, ptr %175, align 8, !alias.scope !50, !noalias !21
  %176 = call align 8 ptr @llvm.threadlocal.address.p0(ptr align 8 @_ZN9grpc_core14promise_detail7ContextINS_12BatchBuilderEE8current_E)
  %177 = load ptr, ptr %176, align 8, !noalias !21
  %cmp.not.i78.i.i = icmp eq ptr %177, null
  br i1 %cmp.not.i78.i.i, label %if.then.i146.invoke.i.i, label %invoke.cont63.i.i

invoke.cont63.i.i:                                ; preds = %invoke.cont58.i.i
  %stream.val21.i.i = load ptr, ptr %stream.i.i, align 8, !noalias !21
  %transport_.i.i.i = getelementptr inbounds i8, ptr %stream.val21.i.i, i64 8
  %178 = load ptr, ptr %transport_.i.i.i, align 8, !noalias !54
  %179 = getelementptr inbounds i8, ptr %stream.val21.i.i, i64 104
  %stream_.val.i.i.i = load ptr, ptr %179, align 8, !noalias !54
  %stream_refcount_.i81.i.i = getelementptr inbounds i8, ptr %stream.val21.i.i, i64 56
  call void @llvm.lifetime.start.p0(i64 24, ptr nonnull %agg.tmp6582.i.i), !noalias !21
  store ptr %178, ptr %agg.tmp6582.i.i, align 8, !noalias !21
  %agg.tmp65.sroa.2.0.agg.tmp6582.sroa_idx.i.i = getelementptr inbounds i8, ptr %agg.tmp6582.i.i, i64 8
  store ptr %stream_.val.i.i.i, ptr %agg.tmp65.sroa.2.0.agg.tmp6582.sroa_idx.i.i, align 8, !noalias !21
  %agg.tmp65.sroa.3.0.agg.tmp6582.sroa_idx.i.i = getelementptr inbounds i8, ptr %agg.tmp6582.i.i, i64 16
  store ptr %stream_refcount_.i81.i.i, ptr %agg.tmp65.sroa.3.0.agg.tmp6582.sroa_idx.i.i, align 8, !noalias !21
  %180 = ptrtoint ptr %stream.val21.i.i to i64
  invoke void @_ZN9grpc_core12BatchBuilder22ReceiveInitialMetadataENS0_6TargetE(ptr nonnull sret(%class.anon.245) align 8 %agg.tmp61.i.i, ptr noundef nonnull align 8 dereferenceable(48) %177, ptr noundef nonnull byval(%"struct.grpc_core::BatchBuilder::Target") align 8 %agg.tmp6582.i.i)
          to label %"_ZN9grpc_core14promise_detail6TrySeqIZNS_12BatchBuilder5Batch8RefUntilINS0_3MapIZNS_5LatchIN4absl12lts_202308026StatusEE4WaitEvEUlvE_ZNS2_22ReceiveInitialMetadataENS2_6TargetEEUlS9_E_EEEEDaT_EUlvE_JZNS_12_GLOBAL__N_121MakeClientCallPromiseEPNS_9TransportENS_8CallArgsESt8functionIFNS_12ArenaPromiseISt10unique_ptrI19grpc_metadata_batchNS_5Arena13PooledDeleterEEEESK_EEE3$_0EEC2EOSW_.exit.i.i.i" unwind label %lpad62.i.i, !noalias !21

"_ZN9grpc_core14promise_detail6TrySeqIZNS_12BatchBuilder5Batch8RefUntilINS0_3MapIZNS_5LatchIN4absl12lts_202308026StatusEE4WaitEvEUlvE_ZNS2_22ReceiveInitialMetadataENS2_6TargetEEUlS9_E_EEEEDaT_EUlvE_JZNS_12_GLOBAL__N_121MakeClientCallPromiseEPNS_9TransportENS_8CallArgsESt8functionIFNS_12ArenaPromiseISt10unique_ptrI19grpc_metadata_batchNS_5Arena13PooledDeleterEEEESK_EEE3$_0EEC2EOSW_.exit.i.i.i": ; preds = %invoke.cont63.i.i
  call void @llvm.lifetime.end.p0(i64 24, ptr nonnull %agg.tmp6582.i.i), !noalias !21
  %server_initial_metadata70.i.i = getelementptr inbounds i8, ptr %agg.tmp.i, i64 32
  %181 = load ptr, ptr %server_initial_metadata70.i.i, align 8, !noalias !21
  call void @llvm.experimental.noalias.scope.decl(metadata !57)
  %state.i.i.i84.i.i = getelementptr inbounds i8, ptr %agg.tmp60.i.i, i64 40
  store i8 0, ptr %state.i.i.i84.i.i, align 8, !alias.scope !57, !noalias !21
  %182 = load ptr, ptr %agg.tmp61.i.i, align 8, !noalias !60
  store ptr null, ptr %agg.tmp61.i.i, align 8, !noalias !60
  %183 = getelementptr inbounds i8, ptr %agg.tmp60.i.i, i64 8
  %184 = getelementptr inbounds i8, ptr %agg.tmp61.i.i, i64 8
  call void @llvm.memcpy.p0.p0.i64(ptr noundef nonnull align 8 dereferenceable(16) %183, ptr noundef nonnull align 8 dereferenceable(16) %184, i64 16, i1 false), !noalias !21
  %next_factory.i.i.i85.i.i = getelementptr inbounds i8, ptr %agg.tmp60.i.i, i64 24
  store ptr %181, ptr %next_factory.i.i.i85.i.i, align 8, !alias.scope !57, !noalias !21
  call void @llvm.lifetime.start.p0(i64 144, ptr nonnull %ref.tmp.i88.i.i), !noalias !21
  call void @llvm.lifetime.start.p0(i64 48, ptr nonnull %agg.tmp2.i89.i.i), !noalias !21
  store ptr %27, ptr %ref.tmp.i88.i.i, align 8, !noalias !21
  %num_participants_.i.i90.i.i = getelementptr inbounds i8, ptr %ref.tmp.i88.i.i, i64 8
  store i64 0, ptr %num_participants_.i.i90.i.i, align 8, !noalias !21
  %state.i.i.i91.i.i = getelementptr inbounds i8, ptr %agg.tmp2.i89.i.i, i64 40
  store i8 0, ptr %state.i.i.i91.i.i, align 8, !noalias !21
  store ptr %182, ptr %agg.tmp2.i89.i.i, align 8, !noalias !21
  store ptr null, ptr %agg.tmp60.i.i, align 8, !noalias !21
  %185 = getelementptr inbounds i8, ptr %agg.tmp2.i89.i.i, i64 8
  call void @llvm.memcpy.p0.p0.i64(ptr noundef nonnull align 8 dereferenceable(16) %185, ptr noundef nonnull align 8 dereferenceable(16) %184, i64 16, i1 false), !noalias !21
  %next_factory.i.i.i131.i.i = getelementptr inbounds i8, ptr %agg.tmp2.i89.i.i, i64 24
  %186 = ptrtoint ptr %181 to i64
  store i64 %186, ptr %next_factory.i.i.i131.i.i, align 8, !noalias !21
  %call.i.i2.i94.i.i = invoke noalias noundef nonnull dereferenceable(88) ptr @_Znwm(i64 noundef 88) #27
          to label %"_ZN9grpc_core14promise_detail6TrySeqIZNS_12BatchBuilder5Batch8RefUntilINS0_3MapIZNS_5LatchIN4absl12lts_202308026StatusEE4WaitEvEUlvE_ZNS2_22ReceiveInitialMetadataENS2_6TargetEEUlS9_E_EEEEDaT_EUlvE_JZNS_12_GLOBAL__N_121MakeClientCallPromiseEPNS_9TransportENS_8CallArgsESt8functionIFNS_12ArenaPromiseISt10unique_ptrI19grpc_metadata_batchNS_5Arena13PooledDeleterEEEESK_EEE3$_0EED2Ev.exit.i.i.i" unwind label %lpad.i95.i.i, !noalias !21

"_ZN9grpc_core14promise_detail6TrySeqIZNS_12BatchBuilder5Batch8RefUntilINS0_3MapIZNS_5LatchIN4absl12lts_202308026StatusEE4WaitEvEUlvE_ZNS2_22ReceiveInitialMetadataENS2_6TargetEEUlS9_E_EEEEDaT_EUlvE_JZNS_12_GLOBAL__N_121MakeClientCallPromiseEPNS_9TransportENS_8CallArgsESt8functionIFNS_12ArenaPromiseISt10unique_ptrI19grpc_metadata_batchNS_5Arena13PooledDeleterEEEESK_EEE3$_0EED2Ev.exit.i.i.i": ; preds = %"_ZN9grpc_core14promise_detail6TrySeqIZNS_12BatchBuilder5Batch8RefUntilINS0_3MapIZNS_5LatchIN4absl12lts_202308026StatusEE4WaitEvEUlvE_ZNS2_22ReceiveInitialMetadataENS2_6TargetEEUlS9_E_EEEEDaT_EUlvE_JZNS_12_GLOBAL__N_121MakeClientCallPromiseEPNS_9TransportENS_8CallArgsESt8functionIFNS_12ArenaPromiseISt10unique_ptrI19grpc_metadata_batchNS_5Arena13PooledDeleterEEEESK_EEE3$_0EEC2EOSW_.exit.i.i.i"
  store ptr null, ptr %agg.tmp2.i89.i.i, align 8, !noalias !21
  %handle_.i.i10.i.i.i117.i.i = getelementptr inbounds i8, ptr %call.i.i2.i94.i.i, i64 8
  store ptr null, ptr %handle_.i.i10.i.i.i117.i.i, align 8, !noalias !21
  %name_.i.i11.i.i.i118.i.i = getelementptr inbounds i8, ptr %call.i.i2.i94.i.i, i64 16
  store i64 21, ptr %name_.i.i11.i.i.i118.i.i, align 8, !noalias !21
  %name.sroa.2.0.name_.sroa_idx.i.i12.i.i.i119.i.i = getelementptr inbounds i8, ptr %call.i.i2.i94.i.i, i64 24
  store ptr @.str.18, ptr %name.sroa.2.0.name_.sroa_idx.i.i12.i.i.i119.i.i, align 8, !noalias !21
  store ptr getelementptr inbounds ({ [4 x ptr] }, ptr @"_ZTVN9grpc_core5Party15ParticipantImplINS_14promise_detail6TrySeqIZNS_12BatchBuilder5Batch8RefUntilINS2_3MapIZNS_5LatchIN4absl12lts_202308026StatusEE4WaitEvEUlvE_ZNS4_22ReceiveInitialMetadataENS4_6TargetEEUlSB_E_EEEEDaT_EUlvE_JZNS_12_GLOBAL__N_121MakeClientCallPromiseEPNS_9TransportENS_8CallArgsESt8functionIFNS_12ArenaPromiseISt10unique_ptrI19grpc_metadata_batchNS_5Arena13PooledDeleterEEEESM_EEE3$_0EEEZNSJ_21MakeClientCallPromiseESL_SM_SW_E3$_5EE", i64 0, inrange i32 0, i64 2), ptr %call.i.i2.i94.i.i, align 8, !noalias !21
  %started_.i13.i.i.i120.i.i = getelementptr inbounds i8, ptr %call.i.i2.i94.i.i, i64 80
  store i8 0, ptr %started_.i13.i.i.i120.i.i, align 8, !noalias !21
  %187 = getelementptr inbounds i8, ptr %call.i.i2.i94.i.i, i64 32
  %state.i.i.i9.i.i.i.i.i.i.i = getelementptr inbounds i8, ptr %call.i.i2.i94.i.i, i64 72
  store i8 0, ptr %state.i.i.i9.i.i.i.i.i.i.i, align 8, !noalias !21
  store ptr %182, ptr %187, align 8, !noalias !21
  %188 = getelementptr inbounds i8, ptr %call.i.i2.i94.i.i, i64 40
  call void @llvm.memcpy.p0.p0.i64(ptr noundef nonnull align 8 dereferenceable(16) %188, ptr noundef nonnull align 8 dereferenceable(16) %184, i64 16, i1 false), !noalias !21
  %next_factory.i.i.i11.i.i.i.i.i.i.i = getelementptr inbounds i8, ptr %call.i.i2.i94.i.i, i64 56
  store i64 %186, ptr %next_factory.i.i.i11.i.i.i.i.i.i.i, align 8, !noalias !21
  %participants_.i8.i.i.i = getelementptr inbounds i8, ptr %ref.tmp.i88.i.i, i64 16
  store i64 1, ptr %num_participants_.i.i90.i.i, align 8, !noalias !21
  store ptr %call.i.i2.i94.i.i, ptr %participants_.i8.i.i.i, align 8, !noalias !21
  invoke void @_ZN9grpc_core5Party15AddParticipantsEPPNS0_11ParticipantEm(ptr noundef nonnull align 8 dereferenceable(168) %27, ptr noundef nonnull %participants_.i8.i.i.i, i64 noundef 1)
          to label %invoke.cont76.i.i unwind label %terminate.lpad.i.i109.i.i, !noalias !21

terminate.lpad.i.i109.i.i:                        ; preds = %"_ZN9grpc_core14promise_detail6TrySeqIZNS_12BatchBuilder5Batch8RefUntilINS0_3MapIZNS_5LatchIN4absl12lts_202308026StatusEE4WaitEvEUlvE_ZNS2_22ReceiveInitialMetadataENS2_6TargetEEUlS9_E_EEEEDaT_EUlvE_JZNS_12_GLOBAL__N_121MakeClientCallPromiseEPNS_9TransportENS_8CallArgsESt8functionIFNS_12ArenaPromiseISt10unique_ptrI19grpc_metadata_batchNS_5Arena13PooledDeleterEEEESK_EEE3$_0EED2Ev.exit.i.i.i"
  %189 = landingpad { ptr, i32 }
          catch ptr null
  %190 = extractvalue { ptr, i32 } %189, 0
  call void @__clang_call_terminate(ptr %190) #24
  unreachable

lpad.i95.i.i:                                     ; preds = %"_ZN9grpc_core14promise_detail6TrySeqIZNS_12BatchBuilder5Batch8RefUntilINS0_3MapIZNS_5LatchIN4absl12lts_202308026StatusEE4WaitEvEUlvE_ZNS2_22ReceiveInitialMetadataENS2_6TargetEEUlS9_E_EEEEDaT_EUlvE_JZNS_12_GLOBAL__N_121MakeClientCallPromiseEPNS_9TransportENS_8CallArgsESt8functionIFNS_12ArenaPromiseISt10unique_ptrI19grpc_metadata_batchNS_5Arena13PooledDeleterEEEESK_EEE3$_0EEC2EOSW_.exit.i.i.i"
  %191 = landingpad { ptr, i32 }
          cleanup
  call fastcc void @"_ZN9grpc_core14promise_detail6TrySeqIZNS_12BatchBuilder5Batch8RefUntilINS0_3MapIZNS_5LatchIN4absl12lts_202308026StatusEE4WaitEvEUlvE_ZNS2_22ReceiveInitialMetadataENS2_6TargetEEUlS9_E_EEEEDaT_EUlvE_JZNS_12_GLOBAL__N_121MakeClientCallPromiseEPNS_9TransportENS_8CallArgsESt8functionIFNS_12ArenaPromiseISt10unique_ptrI19grpc_metadata_batchNS_5Arena13PooledDeleterEEEESK_EEE3$_0EED2Ev"(ptr noundef nonnull align 8 dereferenceable(48) %agg.tmp2.i89.i.i) #23, !noalias !21
  call void @_ZN9grpc_core5Party11BulkSpawnerD2Ev(ptr noundef nonnull align 8 dereferenceable(144) %ref.tmp.i88.i.i) #23, !noalias !21
  call fastcc void @"_ZN9grpc_core14promise_detail6TrySeqIZNS_12BatchBuilder5Batch8RefUntilINS0_3MapIZNS_5LatchIN4absl12lts_202308026StatusEE4WaitEvEUlvE_ZNS2_22ReceiveInitialMetadataENS2_6TargetEEUlS9_E_EEEEDaT_EUlvE_JZNS_12_GLOBAL__N_121MakeClientCallPromiseEPNS_9TransportENS_8CallArgsESt8functionIFNS_12ArenaPromiseISt10unique_ptrI19grpc_metadata_batchNS_5Arena13PooledDeleterEEEESK_EEE3$_0EED2Ev"(ptr noundef nonnull align 8 dereferenceable(48) %agg.tmp60.i.i) #23, !noalias !21
  call void @_ZZN9grpc_core12BatchBuilder5Batch8RefUntilINS_14promise_detail3MapIZNS_5LatchIN4absl12lts_202308026StatusEE4WaitEvEUlvE_ZNS0_22ReceiveInitialMetadataENS0_6TargetEEUlS8_E_EEEEDaT_ENUlvE_D2Ev(ptr noundef nonnull align 8 dereferenceable(24) %agg.tmp61.i.i) #23, !noalias !21
  br label %ehcleanup130.i.i

invoke.cont76.i.i:                                ; preds = %"_ZN9grpc_core14promise_detail6TrySeqIZNS_12BatchBuilder5Batch8RefUntilINS0_3MapIZNS_5LatchIN4absl12lts_202308026StatusEE4WaitEvEUlvE_ZNS2_22ReceiveInitialMetadataENS2_6TargetEEUlS9_E_EEEEDaT_EUlvE_JZNS_12_GLOBAL__N_121MakeClientCallPromiseEPNS_9TransportENS_8CallArgsESt8functionIFNS_12ArenaPromiseISt10unique_ptrI19grpc_metadata_batchNS_5Arena13PooledDeleterEEEESK_EEE3$_0EED2Ev.exit.i.i.i"
  call void @llvm.lifetime.end.p0(i64 144, ptr nonnull %ref.tmp.i88.i.i), !noalias !21
  call void @llvm.lifetime.end.p0(i64 48, ptr nonnull %agg.tmp2.i89.i.i), !noalias !21
  %192 = load i8, ptr %state.i.i.i84.i.i, align 8, !noalias !21
  switch i8 %192, label %"_ZN9grpc_core14promise_detail6TrySeqIZNS_12BatchBuilder5Batch8RefUntilINS0_3MapIZNS_5LatchIN4absl12lts_202308026StatusEE4WaitEvEUlvE_ZNS2_22ReceiveInitialMetadataENS2_6TargetEEUlS9_E_EEEEDaT_EUlvE_JZNS_12_GLOBAL__N_121MakeClientCallPromiseEPNS_9TransportENS_8CallArgsESt8functionIFNS_12ArenaPromiseISt10unique_ptrI19grpc_metadata_batchNS_5Arena13PooledDeleterEEEESK_EEE3$_0EED2Ev.exit.i.i" [
    i8 0, label %sw.bb.i.i136.i.i
    i8 1, label %sw.bb2.i.i135.i.i
  ]

sw.bb.i.i136.i.i:                                 ; preds = %invoke.cont76.i.i
  %193 = load ptr, ptr %agg.tmp60.i.i, align 8, !noalias !21
  %cmp.not.i.i.i.i.i.i137.i.i = icmp eq ptr %193, null
  br i1 %cmp.not.i.i.i.i.i.i137.i.i, label %"_ZN9grpc_core14promise_detail6TrySeqIZNS_12BatchBuilder5Batch8RefUntilINS0_3MapIZNS_5LatchIN4absl12lts_202308026StatusEE4WaitEvEUlvE_ZNS2_22ReceiveInitialMetadataENS2_6TargetEEUlS9_E_EEEEDaT_EUlvE_JZNS_12_GLOBAL__N_121MakeClientCallPromiseEPNS_9TransportENS_8CallArgsESt8functionIFNS_12ArenaPromiseISt10unique_ptrI19grpc_metadata_batchNS_5Arena13PooledDeleterEEEESK_EEE3$_0EED2Ev.exit.i.i", label %if.then.i.i.i.i.i.i138.i.i

if.then.i.i.i.i.i.i138.i.i:                       ; preds = %sw.bb.i.i136.i.i
  %refs.i.i.i.i.i.i.i139.i.i = getelementptr inbounds i8, ptr %193, i64 112
  %194 = load i8, ptr %refs.i.i.i.i.i.i.i139.i.i, align 8, !noalias !21
  %dec.i.i.i.i.i.i.i140.i.i = add i8 %194, -1
  store i8 %dec.i.i.i.i.i.i.i140.i.i, ptr %refs.i.i.i.i.i.i.i139.i.i, align 8, !noalias !21
  %cmp.i.i.i.i.i.i.i141.i.i = icmp eq i8 %dec.i.i.i.i.i.i.i140.i.i, 0
  br i1 %cmp.i.i.i.i.i.i.i141.i.i, label %if.then.i.i.i.i.i.i.i142.i.i, label %"_ZN9grpc_core14promise_detail6TrySeqIZNS_12BatchBuilder5Batch8RefUntilINS0_3MapIZNS_5LatchIN4absl12lts_202308026StatusEE4WaitEvEUlvE_ZNS2_22ReceiveInitialMetadataENS2_6TargetEEUlS9_E_EEEEDaT_EUlvE_JZNS_12_GLOBAL__N_121MakeClientCallPromiseEPNS_9TransportENS_8CallArgsESt8functionIFNS_12ArenaPromiseISt10unique_ptrI19grpc_metadata_batchNS_5Arena13PooledDeleterEEEESK_EEE3$_0EED2Ev.exit.i.i"

if.then.i.i.i.i.i.i.i142.i.i:                     ; preds = %if.then.i.i.i.i.i.i138.i.i
  call void @_ZN9grpc_core12BatchBuilder5BatchD1Ev(ptr noundef nonnull align 8 dereferenceable(120) %193) #23, !noalias !21
  call void @_ZdlPv(ptr noundef nonnull %193) #26, !noalias !21
  br label %"_ZN9grpc_core14promise_detail6TrySeqIZNS_12BatchBuilder5Batch8RefUntilINS0_3MapIZNS_5LatchIN4absl12lts_202308026StatusEE4WaitEvEUlvE_ZNS2_22ReceiveInitialMetadataENS2_6TargetEEUlS9_E_EEEEDaT_EUlvE_JZNS_12_GLOBAL__N_121MakeClientCallPromiseEPNS_9TransportENS_8CallArgsESt8functionIFNS_12ArenaPromiseISt10unique_ptrI19grpc_metadata_batchNS_5Arena13PooledDeleterEEEESK_EEE3$_0EED2Ev.exit.i.i"

sw.bb2.i.i135.i.i:                                ; preds = %invoke.cont76.i.i
  call void @_ZN9grpc_core11pipe_detail4PushISt10unique_ptrI19grpc_metadata_batchNS_5Arena13PooledDeleterEEED2Ev(ptr noundef nonnull align 8 dereferenceable(32) %agg.tmp60.i.i) #23, !noalias !21
  br label %"_ZN9grpc_core14promise_detail6TrySeqIZNS_12BatchBuilder5Batch8RefUntilINS0_3MapIZNS_5LatchIN4absl12lts_202308026StatusEE4WaitEvEUlvE_ZNS2_22ReceiveInitialMetadataENS2_6TargetEEUlS9_E_EEEEDaT_EUlvE_JZNS_12_GLOBAL__N_121MakeClientCallPromiseEPNS_9TransportENS_8CallArgsESt8functionIFNS_12ArenaPromiseISt10unique_ptrI19grpc_metadata_batchNS_5Arena13PooledDeleterEEEESK_EEE3$_0EED2Ev.exit.i.i"

"_ZN9grpc_core14promise_detail6TrySeqIZNS_12BatchBuilder5Batch8RefUntilINS0_3MapIZNS_5LatchIN4absl12lts_202308026StatusEE4WaitEvEUlvE_ZNS2_22ReceiveInitialMetadataENS2_6TargetEEUlS9_E_EEEEDaT_EUlvE_JZNS_12_GLOBAL__N_121MakeClientCallPromiseEPNS_9TransportENS_8CallArgsESt8functionIFNS_12ArenaPromiseISt10unique_ptrI19grpc_metadata_batchNS_5Arena13PooledDeleterEEEESK_EEE3$_0EED2Ev.exit.i.i": ; preds = %sw.bb2.i.i135.i.i, %if.then.i.i.i.i.i.i.i142.i.i, %if.then.i.i.i.i.i.i138.i.i, %sw.bb.i.i136.i.i, %invoke.cont76.i.i
  %195 = load ptr, ptr %agg.tmp61.i.i, align 8, !noalias !21
  %cmp.not.i.i143.i.i = icmp eq ptr %195, null
  br i1 %cmp.not.i.i143.i.i, label %_ZZN9grpc_core12BatchBuilder5Batch8RefUntilINS_14promise_detail3MapIZNS_5LatchIN4absl12lts_202308026StatusEE4WaitEvEUlvE_ZNS0_22ReceiveInitialMetadataENS0_6TargetEEUlS8_E_EEEEDaT_ENUlvE_D2Ev.exit.i.i, label %if.then.i.i144.i.i

if.then.i.i144.i.i:                               ; preds = %"_ZN9grpc_core14promise_detail6TrySeqIZNS_12BatchBuilder5Batch8RefUntilINS0_3MapIZNS_5LatchIN4absl12lts_202308026StatusEE4WaitEvEUlvE_ZNS2_22ReceiveInitialMetadataENS2_6TargetEEUlS9_E_EEEEDaT_EUlvE_JZNS_12_GLOBAL__N_121MakeClientCallPromiseEPNS_9TransportENS_8CallArgsESt8functionIFNS_12ArenaPromiseISt10unique_ptrI19grpc_metadata_batchNS_5Arena13PooledDeleterEEEESK_EEE3$_0EED2Ev.exit.i.i"
  %refs.i.i.i.i.i = getelementptr inbounds i8, ptr %195, i64 112
  %196 = load i8, ptr %refs.i.i.i.i.i, align 8, !noalias !21
  %dec.i.i.i.i.i = add i8 %196, -1
  store i8 %dec.i.i.i.i.i, ptr %refs.i.i.i.i.i, align 8, !noalias !21
  %cmp.i.i.i.i.i = icmp eq i8 %dec.i.i.i.i.i, 0
  br i1 %cmp.i.i.i.i.i, label %if.then.i.i.i.i.i, label %_ZZN9grpc_core12BatchBuilder5Batch8RefUntilINS_14promise_detail3MapIZNS_5LatchIN4absl12lts_202308026StatusEE4WaitEvEUlvE_ZNS0_22ReceiveInitialMetadataENS0_6TargetEEUlS8_E_EEEEDaT_ENUlvE_D2Ev.exit.i.i

if.then.i.i.i.i.i:                                ; preds = %if.then.i.i144.i.i
  call void @_ZN9grpc_core12BatchBuilder5BatchD1Ev(ptr noundef nonnull align 8 dereferenceable(120) %195) #23, !noalias !21
  call void @_ZdlPv(ptr noundef nonnull %195) #26, !noalias !21
  br label %_ZZN9grpc_core12BatchBuilder5Batch8RefUntilINS_14promise_detail3MapIZNS_5LatchIN4absl12lts_202308026StatusEE4WaitEvEUlvE_ZNS0_22ReceiveInitialMetadataENS0_6TargetEEUlS8_E_EEEEDaT_ENUlvE_D2Ev.exit.i.i

_ZZN9grpc_core12BatchBuilder5Batch8RefUntilINS_14promise_detail3MapIZNS_5LatchIN4absl12lts_202308026StatusEE4WaitEvEUlvE_ZNS0_22ReceiveInitialMetadataENS0_6TargetEEUlS8_E_EEEEDaT_ENUlvE_D2Ev.exit.i.i: ; preds = %if.then.i.i.i.i.i, %if.then.i.i144.i.i, %"_ZN9grpc_core14promise_detail6TrySeqIZNS_12BatchBuilder5Batch8RefUntilINS0_3MapIZNS_5LatchIN4absl12lts_202308026StatusEE4WaitEvEUlvE_ZNS2_22ReceiveInitialMetadataENS2_6TargetEEUlS9_E_EEEEDaT_EUlvE_JZNS_12_GLOBAL__N_121MakeClientCallPromiseEPNS_9TransportENS_8CallArgsESt8functionIFNS_12ArenaPromiseISt10unique_ptrI19grpc_metadata_batchNS_5Arena13PooledDeleterEEEESK_EEE3$_0EED2Ev.exit.i.i"
  %197 = load ptr, ptr %176, align 8, !noalias !21
  %cmp.not.i145.i.i = icmp eq ptr %197, null
  br i1 %cmp.not.i145.i.i, label %if.then.i146.invoke.i.i, label %invoke.cont80.i.i

if.then.i146.invoke.i.i:                          ; preds = %_ZZN9grpc_core12BatchBuilder5Batch8RefUntilINS_14promise_detail3MapIZNS_5LatchIN4absl12lts_202308026StatusEE4WaitEvEUlvE_ZNS0_22ReceiveInitialMetadataENS0_6TargetEEUlS8_E_EEEEDaT_ENUlvE_D2Ev.exit.i.i, %invoke.cont58.i.i
  invoke void @gpr_assertion_failed(ptr noundef nonnull @.str.19, i32 noundef 80, ptr noundef nonnull @.str.20) #25
          to label %if.then.i146.cont.i.i unwind label %lpad62.i.i, !noalias !21

if.then.i146.cont.i.i:                            ; preds = %if.then.i146.invoke.i.i
  unreachable

invoke.cont80.i.i:                                ; preds = %_ZZN9grpc_core12BatchBuilder5Batch8RefUntilINS_14promise_detail3MapIZNS_5LatchIN4absl12lts_202308026StatusEE4WaitEvEUlvE_ZNS0_22ReceiveInitialMetadataENS0_6TargetEEUlS8_E_EEEEDaT_ENUlvE_D2Ev.exit.i.i
  %198 = load ptr, ptr %transport_.i.i.i, align 8, !noalias !61
  %stream_.val.i151.i.i = load ptr, ptr %179, align 8, !noalias !61
  %199 = load i8, ptr %agg.tmp.i, align 8, !noalias !21
  store i8 %199, ptr %agg.tmp85.i.i, align 8, !noalias !21
  %200 = getelementptr inbounds i8, ptr %agg.tmp85.i.i, i64 8
  %201 = load i64, ptr %2, align 8, !noalias !21
  store ptr null, ptr %2, align 8, !noalias !21
  call void @llvm.lifetime.start.p0(i64 24, ptr nonnull %agg.tmp82154.i.i), !noalias !21
  call void @llvm.lifetime.start.p0(i64 16, ptr nonnull %agg.tmp2.i155.i.i), !noalias !21
  store ptr %198, ptr %agg.tmp82154.i.i, align 8, !noalias !21
  %agg.tmp82.sroa.2.0.agg.tmp82154.sroa_idx.i.i = getelementptr inbounds i8, ptr %agg.tmp82154.i.i, i64 8
  store ptr %stream_.val.i151.i.i, ptr %agg.tmp82.sroa.2.0.agg.tmp82154.sroa_idx.i.i, align 8, !noalias !21
  %agg.tmp82.sroa.3.0.agg.tmp82154.sroa_idx.i.i = getelementptr inbounds i8, ptr %agg.tmp82154.i.i, i64 16
  store ptr %stream_refcount_.i81.i.i, ptr %agg.tmp82.sroa.3.0.agg.tmp82154.sroa_idx.i.i, align 8, !noalias !21
  store i8 %199, ptr %agg.tmp2.i155.i.i, align 8, !noalias !64
  %202 = getelementptr inbounds i8, ptr %agg.tmp2.i155.i.i, i64 8
  store i64 %201, ptr %202, align 8, !noalias !64
  store ptr null, ptr %200, align 8, !noalias !64
  invoke void @_ZN9grpc_core12BatchBuilder19SendInitialMetadataENS0_6TargetESt10unique_ptrI19grpc_metadata_batchNS_5Arena13PooledDeleterEE(ptr nonnull sret(%class.anon.233) align 8 %agg.tmp79.i.i, ptr noundef nonnull align 8 dereferenceable(48) %197, ptr noundef nonnull byval(%"struct.grpc_core::BatchBuilder::Target") align 8 %agg.tmp82154.i.i, ptr noundef nonnull %agg.tmp2.i155.i.i)
          to label %invoke.cont.i157.i.i unwind label %lpad.i156.i.i, !noalias !21

invoke.cont.i157.i.i:                             ; preds = %invoke.cont80.i.i
  %203 = load ptr, ptr %202, align 8, !noalias !64
  %cmp.not.i.i158.i.i = icmp eq ptr %203, null
  br i1 %cmp.not.i.i158.i.i, label %_ZNSt10unique_ptrI19grpc_metadata_batchN9grpc_core5Arena13PooledDeleterEED2Ev.exit.i.i, label %if.then.i.i159.i.i

if.then.i.i159.i.i:                               ; preds = %invoke.cont.i157.i.i
  %204 = load i8, ptr %agg.tmp2.i155.i.i, align 8, !noalias !64
  %205 = and i8 %204, 1
  %tobool.not.i.i.i160.i.i = icmp eq i8 %205, 0
  br i1 %tobool.not.i.i.i160.i.i, label %_ZNSt10unique_ptrI19grpc_metadata_batchN9grpc_core5Arena13PooledDeleterEED2Ev.exit.i.i, label %delete.notnull.i.i.i.i.i

delete.notnull.i.i.i.i.i:                         ; preds = %if.then.i.i159.i.i
  call void @_ZN9grpc_core11MetadataMapI19grpc_metadata_batchJNS_16HttpPathMetadataENS_21HttpAuthorityMetadataENS_18HttpMethodMetadataENS_18HttpStatusMetadataENS_18HttpSchemeMetadataENS_19ContentTypeMetadataENS_10TeMetadataENS_20GrpcEncodingMetadataENS_27GrpcInternalEncodingRequestENS_26GrpcAcceptEncodingMetadataENS_18GrpcStatusMetadataENS_19GrpcTimeoutMetadataENS_31GrpcPreviousRpcAttemptsMetadataENS_27GrpcRetryPushbackMsMetadataENS_17UserAgentMetadataENS_19GrpcMessageMetadataENS_12HostMetadataENS_30EndpointLoadMetricsBinMetadataENS_26GrpcServerStatsBinMetadataENS_20GrpcTraceBinMetadataENS_19GrpcTagsBinMetadataENS_25GrpcLbClientStatsMetadataENS_17LbCostBinMetadataENS_15LbTokenMetadataENS_18XEnvoyPeerMetadataENS_22GrpcStreamNetworkStateENS_10PeerStringENS_17GrpcStatusContextENS_18GrpcStatusFromWireENS_20GrpcCallWasCancelledENS_12WaitForReadyENS_16GrpcTrailersOnlyENS_10GrpcTarPitENS_20GrpcRegisteredMethodEEED2Ev(ptr noundef nonnull align 8 dereferenceable(568) %203) #23, !noalias !21
  call void @_ZdlPv(ptr noundef nonnull %203) #26, !noalias !21
  br label %_ZNSt10unique_ptrI19grpc_metadata_batchN9grpc_core5Arena13PooledDeleterEED2Ev.exit.i.i

lpad.i156.i.i:                                    ; preds = %invoke.cont80.i.i
  %206 = landingpad { ptr, i32 }
          cleanup
  call void @_ZNSt10unique_ptrI19grpc_metadata_batchN9grpc_core5Arena13PooledDeleterEED2Ev(ptr noundef nonnull align 8 dereferenceable(16) %agg.tmp2.i155.i.i) #23, !noalias !21
  call void @_ZNSt10unique_ptrI19grpc_metadata_batchN9grpc_core5Arena13PooledDeleterEED2Ev(ptr noundef nonnull align 8 dereferenceable(16) %agg.tmp85.i.i) #23, !noalias !21
  br label %ehcleanup130.i.i

_ZNSt10unique_ptrI19grpc_metadata_batchN9grpc_core5Arena13PooledDeleterEED2Ev.exit.i.i: ; preds = %delete.notnull.i.i.i.i.i, %if.then.i.i159.i.i, %invoke.cont.i157.i.i
  call void @llvm.lifetime.end.p0(i64 24, ptr nonnull %agg.tmp82154.i.i), !noalias !21
  call void @llvm.lifetime.end.p0(i64 16, ptr nonnull %agg.tmp2.i155.i.i), !noalias !21
  %207 = load ptr, ptr %client_initial_metadata_outstanding.i.i, align 8, !noalias !21
  store ptr null, ptr %client_initial_metadata_outstanding.i.i, align 8, !noalias !21
  call void @llvm.experimental.noalias.scope.decl(metadata !67)
  %state.i.i.i162.i.i = getelementptr inbounds i8, ptr %send_initial_metadata.i.i, i64 24
  store i8 0, ptr %state.i.i.i162.i.i, align 8, !alias.scope !67, !noalias !21
  %208 = load ptr, ptr %agg.tmp79.i.i, align 8, !noalias !70
  store ptr %208, ptr %send_initial_metadata.i.i, align 8, !alias.scope !67, !noalias !21
  store ptr null, ptr %agg.tmp79.i.i, align 8, !noalias !70
  %209 = getelementptr inbounds i8, ptr %send_initial_metadata.i.i, i64 8
  %210 = getelementptr inbounds i8, ptr %agg.tmp79.i.i, i64 8
  %211 = load i64, ptr %210, align 8, !noalias !70
  store i64 %211, ptr %209, align 8, !alias.scope !67, !noalias !21
  %next_factory.i.i.i163.i.i = getelementptr inbounds i8, ptr %send_initial_metadata.i.i, i64 16
  store ptr %207, ptr %next_factory.i.i.i163.i.i, align 8, !alias.scope !67, !noalias !21
  store ptr null, ptr %200, align 8, !noalias !21
  %212 = load ptr, ptr %7, align 8, !noalias !21
  %cmp.not.i179.i.i = icmp eq ptr %212, null
  br i1 %cmp.not.i179.i.i, label %if.then.i180.i.i, label %invoke.cont98.i.i

if.then.i180.i.i:                                 ; preds = %_ZNSt10unique_ptrI19grpc_metadata_batchN9grpc_core5Arena13PooledDeleterEED2Ev.exit.i.i
  invoke void @gpr_assertion_failed(ptr noundef nonnull @.str.19, i32 noundef 80, ptr noundef nonnull @.str.20) #25
          to label %.noexc181.i.i unwind label %lpad94.i.i, !noalias !21

.noexc181.i.i:                                    ; preds = %if.then.i180.i.i
  unreachable

invoke.cont98.i.i:                                ; preds = %_ZNSt10unique_ptrI19grpc_metadata_batchN9grpc_core5Arena13PooledDeleterEED2Ev.exit.i.i
  call void @llvm.experimental.noalias.scope.decl(metadata !71)
  %call.i190.i.i = invoke noalias noundef nonnull dereferenceable(568) ptr @_Znwm(i64 noundef 568) #27
          to label %invoke.cont100.i.i unwind label %lpad94.i.i, !noalias !21

invoke.cont100.i.i:                               ; preds = %invoke.cont98.i.i
  call void @llvm.memset.p0.i64(ptr noundef nonnull align 8 dereferenceable(6) %call.i190.i.i, i8 0, i64 6, i1 false), !noalias !74
  %unknown_.i.i.i188.i.i = getelementptr inbounds i8, ptr %call.i190.i.i, i64 544
  store ptr %212, ptr %unknown_.i.i.i188.i.i, align 8, !noalias !74
  %first_.i.i.i.i.i189.i.i = getelementptr inbounds i8, ptr %call.i190.i.i, i64 552
  call void @llvm.memset.p0.i64(ptr noundef nonnull align 8 dereferenceable(16) %first_.i.i.i.i.i189.i.i, i8 0, i64 16, i1 false), !noalias !74
  store i8 1, ptr %server_trailing_metadata.i.i, align 8, !alias.scope !71, !noalias !21
  %213 = getelementptr inbounds i8, ptr %server_trailing_metadata.i.i, i64 8
  store ptr %call.i190.i.i, ptr %213, align 8, !alias.scope !71, !noalias !21
  %214 = load ptr, ptr %176, align 8, !noalias !21
  %cmp.not.i192.i.i = icmp eq ptr %214, null
  br i1 %cmp.not.i192.i.i, label %if.then.i193.i.i, label %invoke.cont103.i.i

if.then.i193.i.i:                                 ; preds = %invoke.cont100.i.i
  invoke void @gpr_assertion_failed(ptr noundef nonnull @.str.19, i32 noundef 80, ptr noundef nonnull @.str.20) #25
          to label %.noexc194.i.i unwind label %lpad102.i.i, !noalias !21

.noexc194.i.i:                                    ; preds = %if.then.i193.i.i
  unreachable

invoke.cont103.i.i:                               ; preds = %invoke.cont100.i.i
  %215 = load ptr, ptr %transport_.i.i.i, align 8, !noalias !75
  %stream_.val.i198.i.i = load ptr, ptr %179, align 8, !noalias !75
  call void @llvm.lifetime.start.p0(i64 24, ptr nonnull %agg.tmp105201.i.i), !noalias !21
  store ptr %215, ptr %agg.tmp105201.i.i, align 8, !noalias !21
  %agg.tmp105.sroa.2.0.agg.tmp105201.sroa_idx.i.i = getelementptr inbounds i8, ptr %agg.tmp105201.i.i, i64 8
  store ptr %stream_.val.i198.i.i, ptr %agg.tmp105.sroa.2.0.agg.tmp105201.sroa_idx.i.i, align 8, !noalias !21
  %agg.tmp105.sroa.3.0.agg.tmp105201.sroa_idx.i.i = getelementptr inbounds i8, ptr %agg.tmp105201.i.i, i64 16
  store ptr %stream_refcount_.i81.i.i, ptr %agg.tmp105.sroa.3.0.agg.tmp105201.sroa_idx.i.i, align 8, !noalias !21
  invoke void @_ZN9grpc_core12BatchBuilder23ReceiveTrailingMetadataENS0_6TargetE(ptr nonnull sret(%class.anon.283) align 8 %agg.tmp101.i.i, ptr noundef nonnull align 8 dereferenceable(48) %214, ptr noundef nonnull byval(%"struct.grpc_core::BatchBuilder::Target") align 8 %agg.tmp105201.i.i)
          to label %_ZZN9grpc_core12BatchBuilder5Batch8RefUntilINS_14promise_detail3MapIZNS_5LatchIN4absl12lts_202308026StatusEE4WaitEvEUlvE_ZNS0_23ReceiveTrailingMetadataENS0_6TargetEEUlS8_E_EEEEDaT_ENUlvE_D2Ev.exit.i.i unwind label %lpad102.i.i, !noalias !21

_ZZN9grpc_core12BatchBuilder5Batch8RefUntilINS_14promise_detail3MapIZNS_5LatchIN4absl12lts_202308026StatusEE4WaitEvEUlvE_ZNS0_23ReceiveTrailingMetadataENS0_6TargetEEUlS8_E_EEEEDaT_ENUlvE_D2Ev.exit.i.i: ; preds = %invoke.cont103.i.i
  call void @llvm.lifetime.end.p0(i64 24, ptr nonnull %agg.tmp105201.i.i), !noalias !21
  %216 = load ptr, ptr %agg.tmp101.i.i, align 8, !noalias !78
  store ptr null, ptr %agg.tmp101.i.i, align 8, !noalias !78
  %217 = getelementptr inbounds i8, ptr %agg.tmp101.i.i, i64 8
  call void @llvm.memcpy.p0.p0.i64(ptr noundef nonnull align 8 dereferenceable(16) %recv_trailing_metadata.sroa.5.i.i, ptr noundef nonnull align 8 dereferenceable(16) %217, i64 16, i1 false), !noalias !21
  %server_to_client_messages.i.i = getelementptr inbounds i8, ptr %agg.tmp.i, i64 48
  %218 = load ptr, ptr %server_to_client_messages.i.i, align 8, !noalias !21
  call fastcc void @_ZN9grpc_core12_GLOBAL__N_122ConnectedChannelStream12RecvMessagesEPNS_10PipeSenderISt10unique_ptrINS_7MessageENS_5Arena13PooledDeleterEEEEb(ptr noalias nonnull align 8 %recv_messages.i.i, ptr noundef nonnull align 8 dereferenceable(132) %stream.val21.i.i, ptr noundef %218, i1 noundef zeroext false), !noalias !21
  %state.i.i209.i.i = getelementptr inbounds i8, ptr %agg.tmp117.i.i, i64 24
  store i8 0, ptr %state.i.i209.i.i, align 8, !noalias !21
  store ptr null, ptr %send_initial_metadata.i.i, align 8, !noalias !21
  %219 = getelementptr inbounds i8, ptr %agg.tmp117.i.i, i64 8
  store i64 %211, ptr %219, align 8, !noalias !21
  %next_factory.i.i212.i.i = getelementptr inbounds i8, ptr %agg.tmp117.i.i, i64 16
  store ptr null, ptr %next_factory.i.i.i163.i.i, align 8, !noalias !21
  %220 = getelementptr inbounds i8, ptr %agg.tmp117.i.i, i64 32
  %221 = load ptr, ptr %recv_messages.i.i, align 8, !noalias !21
  store ptr null, ptr %recv_messages.i.i, align 8, !noalias !21
  %222 = getelementptr inbounds i8, ptr %agg.tmp117.i.i, i64 40
  %223 = getelementptr inbounds i8, ptr %recv_messages.i.i, i64 8
  %224 = load i8, ptr %223, align 8, !noalias !21
  %225 = and i8 %224, 1
  store i8 %225, ptr %222, align 8, !noalias !21
  %226 = getelementptr inbounds i8, ptr %agg.tmp117.i.i, i64 48
  %227 = getelementptr inbounds i8, ptr %recv_messages.i.i, i64 16
  %228 = load ptr, ptr %227, align 8, !noalias !21
  store ptr null, ptr %227, align 8, !noalias !21
  %started_.i.i.i = getelementptr inbounds i8, ptr %agg.tmp117.i.i, i64 112
  %started_3.i.i.i = getelementptr inbounds i8, ptr %recv_messages.i.i, i64 80
  %229 = load i8, ptr %started_3.i.i.i, align 8, !noalias !21
  %230 = and i8 %229, 1
  %tobool.not.i.i.i = icmp eq i8 %230, 0
  store i8 %230, ptr %started_.i.i.i, align 8, !noalias !21
  br i1 %tobool.not.i.i.i, label %"_ZZN9grpc_core12_GLOBAL__N_121MakeClientCallPromiseEPNS_9TransportENS_8CallArgsESt8functionIFNS_12ArenaPromiseISt10unique_ptrI19grpc_metadata_batchNS_5Arena13PooledDeleterEEEES3_EEEN3$_7C2EOSE_.exit.i.i.i", label %if.then.i213.i.i

if.then.i213.i.i:                                 ; preds = %_ZZN9grpc_core12BatchBuilder5Batch8RefUntilINS_14promise_detail3MapIZNS_5LatchIN4absl12lts_202308026StatusEE4WaitEvEUlvE_ZNS0_23ReceiveTrailingMetadataENS0_6TargetEEUlS8_E_EEEEDaT_ENUlvE_D2Ev.exit.i.i
  %231 = getelementptr inbounds i8, ptr %agg.tmp117.i.i, i64 56
  %232 = getelementptr inbounds i8, ptr %recv_messages.i.i, i64 24
  %state.i.i.i.i.i214.i.i = getelementptr inbounds i8, ptr %agg.tmp117.i.i, i64 104
  %state2.i.i.i.i.i.i.i = getelementptr inbounds i8, ptr %recv_messages.i.i, i64 72
  %233 = load i8, ptr %state2.i.i.i.i.i.i.i, align 8, !noalias !21
  store i8 %233, ptr %state.i.i.i.i.i214.i.i, align 8, !noalias !21
  switch i8 %233, label %tail0.i.i.i.i.i224.i.i [
    i8 0, label %sw.bb.i.i.i.i.i223.i.i
    i8 1, label %sw.bb5.i.i.i.i.i215.i.i
  ]

sw.bb.i.i.i.i.i223.i.i:                           ; preds = %if.then.i213.i.i
  %234 = load ptr, ptr %232, align 8, !noalias !21
  store ptr %234, ptr %231, align 8, !noalias !21
  store ptr null, ptr %232, align 8, !noalias !21
  %235 = getelementptr inbounds i8, ptr %agg.tmp117.i.i, i64 64
  %236 = getelementptr inbounds i8, ptr %recv_messages.i.i, i64 32
  call void @llvm.memcpy.p0.p0.i64(ptr noundef nonnull align 8 dereferenceable(16) %235, ptr noundef nonnull align 8 dereferenceable(16) %236, i64 16, i1 false), !noalias !21
  br label %tail0.i.i.i.i.i224.i.i

sw.bb5.i.i.i.i.i215.i.i:                          ; preds = %if.then.i213.i.i
  %237 = load i8, ptr %232, align 8, !noalias !21
  %238 = and i8 %237, 1
  %tobool.not.i.i.i.i.i.i.i.i216.i.i = icmp eq i8 %238, 0
  store i8 %238, ptr %231, align 8, !noalias !21
  br i1 %tobool.not.i.i.i.i.i.i.i.i216.i.i, label %if.else.i.i.i.i.i.i.i.i221.i.i, label %if.then.i.i.i.i.i.i.i.i217.i.i

if.then.i.i.i.i.i.i.i.i217.i.i:                   ; preds = %sw.bb5.i.i.i.i.i215.i.i
  %239 = getelementptr inbounds i8, ptr %agg.tmp117.i.i, i64 64
  %240 = getelementptr inbounds i8, ptr %recv_messages.i.i, i64 32
  %241 = load ptr, ptr %240, align 8, !noalias !21
  store ptr %241, ptr %239, align 8, !noalias !21
  store ptr null, ptr %240, align 8, !noalias !21
  %_M_index.i.i.i.i.i.i.i.i.i.i.i.i.i.i.i.i.i.i.i.i.i.i = getelementptr inbounds i8, ptr %agg.tmp117.i.i, i64 88
  %_M_index.i.i.i.i.i.i.i.i.i.i.i.i.i.i.i.i.i.i.i.i.i.i.i = getelementptr inbounds i8, ptr %recv_messages.i.i, i64 56
  %242 = load i8, ptr %_M_index.i.i.i.i.i.i.i.i.i.i.i.i.i.i.i.i.i.i.i.i.i.i.i, align 8, !noalias !21
  %switch.i.i.i.i.i.i.i.i.i.i.i.i.i.i.i.i.i.i.i.i.i.i = icmp eq i8 %242, 0
  br i1 %switch.i.i.i.i.i.i.i.i.i.i.i.i.i.i.i.i.i.i.i.i.i.i, label %sw.bb.i.i.i.i.i.i.i.i.i.i.i.i.i.i.i.i.i.i.i.i218.i.i, label %"_ZN9grpc_core9ConstructINS_14promise_detail11PromiseLikeINS1_3MapINS_11pipe_detail4PushISt10unique_ptrINS_7MessageENS_5Arena13PooledDeleterEEEEZZZZNS_12_GLOBAL__N_122ConnectedChannelStream12RecvMessagesEPNS_10PipeSenderISA_EEbEN3$_0clEvENUlN4absl12lts_202308028StatusOrISt8optionalISA_EEEE_clESN_ENKUlvE_clEvEUlbE_EEvEEJSS_EEEvPT_DpOT0_.exit.i.i.i.i.i.i.i.i.i.i"

sw.bb.i.i.i.i.i.i.i.i.i.i.i.i.i.i.i.i.i.i.i.i218.i.i: ; preds = %if.then.i.i.i.i.i.i.i.i217.i.i
  %state_3.i.i.i.i.i.i.i.i.i.i.i.i.i.i.i = getelementptr inbounds i8, ptr %recv_messages.i.i, i64 40
  %state_.i.i.i.i.i.i.i.i.i.i.i.i.i219.i.i = getelementptr inbounds i8, ptr %agg.tmp117.i.i, i64 72
  %243 = load i8, ptr %state_3.i.i.i.i.i.i.i.i.i.i.i.i.i.i.i, align 8, !noalias !21
  store i8 %243, ptr %state_.i.i.i.i.i.i.i.i.i.i.i.i.i219.i.i, align 8, !noalias !21
  %244 = getelementptr inbounds i8, ptr %agg.tmp117.i.i, i64 80
  %add.ptr.i.i.i.i.i.i.i.i.i.i.i.i.i.i.i.i.i.i.i.i.i.i.i.i.i.i.i.i.i.i.i.i220.i.i = getelementptr inbounds i8, ptr %recv_messages.i.i, i64 48
  %245 = load i64, ptr %add.ptr.i.i.i.i.i.i.i.i.i.i.i.i.i.i.i.i.i.i.i.i.i.i.i.i.i.i.i.i.i.i.i.i220.i.i, align 8, !noalias !21
  store i64 %245, ptr %244, align 8, !noalias !21
  store ptr null, ptr %add.ptr.i.i.i.i.i.i.i.i.i.i.i.i.i.i.i.i.i.i.i.i.i.i.i.i.i.i.i.i.i.i.i.i220.i.i, align 8, !noalias !21
  br label %"_ZN9grpc_core9ConstructINS_14promise_detail11PromiseLikeINS1_3MapINS_11pipe_detail4PushISt10unique_ptrINS_7MessageENS_5Arena13PooledDeleterEEEEZZZZNS_12_GLOBAL__N_122ConnectedChannelStream12RecvMessagesEPNS_10PipeSenderISA_EEbEN3$_0clEvENUlN4absl12lts_202308028StatusOrISt8optionalISA_EEEE_clESN_ENKUlvE_clEvEUlbE_EEvEEJSS_EEEvPT_DpOT0_.exit.i.i.i.i.i.i.i.i.i.i"

"_ZN9grpc_core9ConstructINS_14promise_detail11PromiseLikeINS1_3MapINS_11pipe_detail4PushISt10unique_ptrINS_7MessageENS_5Arena13PooledDeleterEEEEZZZZNS_12_GLOBAL__N_122ConnectedChannelStream12RecvMessagesEPNS_10PipeSenderISA_EEbEN3$_0clEvENUlN4absl12lts_202308028StatusOrISt8optionalISA_EEEE_clESN_ENKUlvE_clEvEUlbE_EEvEEJSS_EEEvPT_DpOT0_.exit.i.i.i.i.i.i.i.i.i.i": ; preds = %sw.bb.i.i.i.i.i.i.i.i.i.i.i.i.i.i.i.i.i.i.i.i218.i.i, %if.then.i.i.i.i.i.i.i.i217.i.i
  store i8 %242, ptr %_M_index.i.i.i.i.i.i.i.i.i.i.i.i.i.i.i.i.i.i.i.i.i.i, align 8, !noalias !21
  br label %"_ZZN9grpc_core12_GLOBAL__N_121MakeClientCallPromiseEPNS_9TransportENS_8CallArgsESt8functionIFNS_12ArenaPromiseISt10unique_ptrI19grpc_metadata_batchNS_5Arena13PooledDeleterEEEES3_EEEN3$_7C2EOSE_.exit.i.i.i"

if.else.i.i.i.i.i.i.i.i221.i.i:                   ; preds = %sw.bb5.i.i.i.i.i215.i.i
  %_M_index.i.i.i.i.i.i.i.i.i.i.i.i.i.i.i.i.i.i.i.i = getelementptr inbounds i8, ptr %agg.tmp117.i.i, i64 72
  %_M_index.i.i.i.i.i.i.i.i.i.i.i.i.i.i.i.i.i.i.i222.i.i = getelementptr inbounds i8, ptr %recv_messages.i.i, i64 40
  %246 = load i8, ptr %_M_index.i.i.i.i.i.i.i.i.i.i.i.i.i.i.i.i.i.i.i222.i.i, align 8, !noalias !21
  %switch.i.i.i.i.i.i.i.i.i.i.i.i.i.i.i.i.i.i.i.i = icmp eq i8 %246, 1
  br i1 %switch.i.i.i.i.i.i.i.i.i.i.i.i.i.i.i.i.i.i.i.i, label %sw.bb2.i.i.i.i.i.i.i.i.i.i.i.i.i.i.i.i.i.i.i.i, label %_ZN9grpc_core9ConstructINS_14promise_detail11PromiseLikeINS1_9ImmediateISt7variantIJNS_8ContinueEN4absl12lts_202308026StatusEEEEEvEEJSB_EEEvPT_DpOT0_.exit.i.i.i.i.i.i.i.i.i.i

sw.bb2.i.i.i.i.i.i.i.i.i.i.i.i.i.i.i.i.i.i.i.i:   ; preds = %if.else.i.i.i.i.i.i.i.i221.i.i
  %247 = getelementptr inbounds i8, ptr %recv_messages.i.i, i64 32
  %248 = getelementptr inbounds i8, ptr %agg.tmp117.i.i, i64 64
  %249 = load i64, ptr %247, align 8, !noalias !21
  store i64 %249, ptr %248, align 8, !noalias !21
  store i64 54, ptr %247, align 8, !noalias !21
  br label %_ZN9grpc_core9ConstructINS_14promise_detail11PromiseLikeINS1_9ImmediateISt7variantIJNS_8ContinueEN4absl12lts_202308026StatusEEEEEvEEJSB_EEEvPT_DpOT0_.exit.i.i.i.i.i.i.i.i.i.i

_ZN9grpc_core9ConstructINS_14promise_detail11PromiseLikeINS1_9ImmediateISt7variantIJNS_8ContinueEN4absl12lts_202308026StatusEEEEEvEEJSB_EEEvPT_DpOT0_.exit.i.i.i.i.i.i.i.i.i.i: ; preds = %sw.bb2.i.i.i.i.i.i.i.i.i.i.i.i.i.i.i.i.i.i.i.i, %if.else.i.i.i.i.i.i.i.i221.i.i
  store i8 %246, ptr %_M_index.i.i.i.i.i.i.i.i.i.i.i.i.i.i.i.i.i.i.i.i, align 8, !noalias !21
  br label %"_ZZN9grpc_core12_GLOBAL__N_121MakeClientCallPromiseEPNS_9TransportENS_8CallArgsESt8functionIFNS_12ArenaPromiseISt10unique_ptrI19grpc_metadata_batchNS_5Arena13PooledDeleterEEEES3_EEEN3$_7C2EOSE_.exit.i.i.i"

tail0.i.i.i.i.i224.i.i:                           ; preds = %sw.bb.i.i.i.i.i223.i.i, %if.then.i213.i.i
  %next_factory.i.i.i.i.i225.i.i = getelementptr inbounds i8, ptr %agg.tmp117.i.i, i64 80
  %next_factory7.i.i.i.i.i.i.i = getelementptr inbounds i8, ptr %recv_messages.i.i, i64 48
  call void @llvm.memcpy.p0.p0.i64(ptr noundef nonnull align 8 dereferenceable(16) %next_factory.i.i.i.i.i225.i.i, ptr noundef nonnull align 8 dereferenceable(16) %next_factory7.i.i.i.i.i.i.i, i64 16, i1 false), !noalias !21
  br label %"_ZZN9grpc_core12_GLOBAL__N_121MakeClientCallPromiseEPNS_9TransportENS_8CallArgsESt8functionIFNS_12ArenaPromiseISt10unique_ptrI19grpc_metadata_batchNS_5Arena13PooledDeleterEEEES3_EEEN3$_7C2EOSE_.exit.i.i.i"

"_ZZN9grpc_core12_GLOBAL__N_121MakeClientCallPromiseEPNS_9TransportENS_8CallArgsESt8functionIFNS_12ArenaPromiseISt10unique_ptrI19grpc_metadata_batchNS_5Arena13PooledDeleterEEEES3_EEEN3$_7C2EOSE_.exit.i.i.i": ; preds = %tail0.i.i.i.i.i224.i.i, %_ZN9grpc_core9ConstructINS_14promise_detail11PromiseLikeINS1_9ImmediateISt7variantIJNS_8ContinueEN4absl12lts_202308026StatusEEEEEvEEJSB_EEEvPT_DpOT0_.exit.i.i.i.i.i.i.i.i.i.i, %"_ZN9grpc_core9ConstructINS_14promise_detail11PromiseLikeINS1_3MapINS_11pipe_detail4PushISt10unique_ptrINS_7MessageENS_5Arena13PooledDeleterEEEEZZZZNS_12_GLOBAL__N_122ConnectedChannelStream12RecvMessagesEPNS_10PipeSenderISA_EEbEN3$_0clEvENUlN4absl12lts_202308028StatusOrISt8optionalISA_EEEE_clESN_ENKUlvE_clEvEUlbE_EEvEEJSS_EEEvPT_DpOT0_.exit.i.i.i.i.i.i.i.i.i.i", %_ZZN9grpc_core12BatchBuilder5Batch8RefUntilINS_14promise_detail3MapIZNS_5LatchIN4absl12lts_202308026StatusEE4WaitEvEUlvE_ZNS0_23ReceiveTrailingMetadataENS0_6TargetEEUlS8_E_EEEEDaT_ENUlvE_D2Ev.exit.i.i
  %250 = getelementptr inbounds i8, ptr %agg.tmp117.i.i, i64 120
  %251 = getelementptr inbounds i8, ptr %agg.tmp117.i.i, i64 128
  call void @llvm.memcpy.p0.p0.i64(ptr noundef nonnull align 8 dereferenceable(16) %251, ptr noundef nonnull align 8 dereferenceable(16) %recv_trailing_metadata.sroa.5.i.i, i64 16, i1 false), !noalias !21
  %252 = getelementptr inbounds i8, ptr %agg.tmp117.i.i, i64 152
  store i8 0, ptr %252, align 8, !noalias !21
  %253 = getelementptr inbounds i8, ptr %agg.tmp117.i.i, i64 153
  store i8 0, ptr %253, align 1, !noalias !21
  %254 = getelementptr inbounds i8, ptr %agg.tmp117.i.i, i64 154
  store i8 0, ptr %254, align 2, !noalias !21
  store ptr null, ptr %stream.i.i, align 8, !noalias !21
  call void @llvm.experimental.noalias.scope.decl(metadata !81)
  call void @llvm.lifetime.start.p0(i64 160, ptr nonnull %agg.tmp.i226.i.i), !noalias !21
  %state.i.i.i.i.i.i = getelementptr inbounds i8, ptr %agg.tmp.i226.i.i, i64 24
  store i8 0, ptr %state.i.i.i.i.i.i, align 8, !noalias !84
  store ptr null, ptr %agg.tmp117.i.i, align 8, !noalias !84
  %255 = getelementptr inbounds i8, ptr %agg.tmp.i226.i.i, i64 8
  store i64 %211, ptr %255, align 8, !noalias !84
  store ptr null, ptr %next_factory.i.i212.i.i, align 8, !noalias !84
  %256 = getelementptr inbounds i8, ptr %agg.tmp.i226.i.i, i64 32
  store ptr null, ptr %220, align 8, !noalias !84
  %257 = getelementptr inbounds i8, ptr %agg.tmp.i226.i.i, i64 40
  store i8 %225, ptr %257, align 8, !noalias !84
  %258 = getelementptr inbounds i8, ptr %agg.tmp.i226.i.i, i64 48
  store ptr null, ptr %226, align 8, !noalias !84
  %started_.i.i.i.i = getelementptr inbounds i8, ptr %agg.tmp.i226.i.i, i64 112
  store i8 %230, ptr %started_.i.i.i.i, align 8, !noalias !84
  br i1 %tobool.not.i.i.i, label %"_ZN9grpc_core14promise_detail3MapIZNS_12_GLOBAL__N_121MakeClientCallPromiseEPNS_9TransportENS_8CallArgsESt8functionIFNS_12ArenaPromiseISt10unique_ptrI19grpc_metadata_batchNS_5Arena13PooledDeleterEEEES5_EEE3$_7ZNS2_21MakeClientCallPromiseES4_S5_SF_E3$_8EC2ESG_SH_.exit.i.i.i", label %if.then.i.i228.i.i

if.then.i.i228.i.i:                               ; preds = %"_ZZN9grpc_core12_GLOBAL__N_121MakeClientCallPromiseEPNS_9TransportENS_8CallArgsESt8functionIFNS_12ArenaPromiseISt10unique_ptrI19grpc_metadata_batchNS_5Arena13PooledDeleterEEEES3_EEEN3$_7C2EOSE_.exit.i.i.i"
  %259 = getelementptr inbounds i8, ptr %agg.tmp.i226.i.i, i64 56
  %260 = getelementptr inbounds i8, ptr %agg.tmp117.i.i, i64 56
  %state.i.i.i.i.i1.i.i.i = getelementptr inbounds i8, ptr %agg.tmp.i226.i.i, i64 104
  %state2.i.i.i.i.i2.i.i.i = getelementptr inbounds i8, ptr %agg.tmp117.i.i, i64 104
  %261 = load i8, ptr %state2.i.i.i.i.i2.i.i.i, align 8, !noalias !84
  store i8 %261, ptr %state.i.i.i.i.i1.i.i.i, align 8, !noalias !84
  switch i8 %261, label %tail0.i.i.i.i.i5.i.i.i [
    i8 0, label %sw.bb.i.i.i.i.i4.i.i.i
    i8 1, label %sw.bb5.i.i.i.i.i3.i.i.i
  ]

sw.bb.i.i.i.i.i4.i.i.i:                           ; preds = %if.then.i.i228.i.i
  %262 = load ptr, ptr %260, align 8, !noalias !84
  store ptr %262, ptr %259, align 8, !noalias !84
  store ptr null, ptr %260, align 8, !noalias !84
  %263 = getelementptr inbounds i8, ptr %agg.tmp.i226.i.i, i64 64
  %264 = getelementptr inbounds i8, ptr %agg.tmp117.i.i, i64 64
  call void @llvm.memcpy.p0.p0.i64(ptr noundef nonnull align 8 dereferenceable(16) %263, ptr noundef nonnull align 8 dereferenceable(16) %264, i64 16, i1 false), !noalias !84
  %265 = ptrtoint ptr %262 to i64
  %266 = trunc i64 %265 to i8
  %267 = and i8 %266, 1
  br label %tail0.i.i.i.i.i5.i.i.i

sw.bb5.i.i.i.i.i3.i.i.i:                          ; preds = %if.then.i.i228.i.i
  %268 = load i8, ptr %260, align 8, !noalias !84
  %269 = and i8 %268, 1
  %tobool.not.i.i.i.i.i.i.i.i.i.i.i = icmp eq i8 %269, 0
  store i8 %269, ptr %259, align 8, !noalias !84
  br i1 %tobool.not.i.i.i.i.i.i.i.i.i.i.i, label %if.else.i.i.i.i.i.i.i.i.i.i.i, label %if.then.i.i.i.i.i.i.i.i.i229.i.i

if.then.i.i.i.i.i.i.i.i.i229.i.i:                 ; preds = %sw.bb5.i.i.i.i.i3.i.i.i
  %270 = getelementptr inbounds i8, ptr %agg.tmp.i226.i.i, i64 64
  %271 = getelementptr inbounds i8, ptr %agg.tmp117.i.i, i64 64
  %272 = load ptr, ptr %271, align 8, !noalias !84
  store ptr %272, ptr %270, align 8, !noalias !84
  store ptr null, ptr %271, align 8, !noalias !84
  %_M_index.i.i.i.i.i.i.i.i.i.i.i.i.i.i.i.i.i.i.i.i.i230.i.i = getelementptr inbounds i8, ptr %agg.tmp.i226.i.i, i64 88
  %_M_index.i.i.i.i.i.i.i.i.i.i.i.i.i.i.i.i.i.i.i.i.i.i.i.i = getelementptr inbounds i8, ptr %agg.tmp117.i.i, i64 88
  %273 = load i8, ptr %_M_index.i.i.i.i.i.i.i.i.i.i.i.i.i.i.i.i.i.i.i.i.i.i.i.i, align 8, !noalias !84
  %switch.i.i.i.i.i.i.i.i.i.i.i.i.i.i.i.i.i.i.i.i.i.i.i = icmp eq i8 %273, 0
  br i1 %switch.i.i.i.i.i.i.i.i.i.i.i.i.i.i.i.i.i.i.i.i.i.i.i, label %sw.bb.i.i.i.i.i.i.i.i.i.i.i.i.i.i.i.i.i.i.i.i.i.i.i, label %"_ZN9grpc_core9ConstructINS_14promise_detail11PromiseLikeINS1_3MapINS_11pipe_detail4PushISt10unique_ptrINS_7MessageENS_5Arena13PooledDeleterEEEEZZZZNS_12_GLOBAL__N_122ConnectedChannelStream12RecvMessagesEPNS_10PipeSenderISA_EEbEN3$_0clEvENUlN4absl12lts_202308028StatusOrISt8optionalISA_EEEE_clESN_ENKUlvE_clEvEUlbE_EEvEEJSS_EEEvPT_DpOT0_.exit.i.i.i.i.i.i.i.i.i.i.i"

sw.bb.i.i.i.i.i.i.i.i.i.i.i.i.i.i.i.i.i.i.i.i.i.i.i: ; preds = %if.then.i.i.i.i.i.i.i.i.i229.i.i
  %state_3.i.i.i.i.i.i.i.i.i.i.i.i.i.i.i.i = getelementptr inbounds i8, ptr %agg.tmp117.i.i, i64 72
  %state_.i.i.i.i.i.i.i.i.i.i.i.i.i.i.i.i = getelementptr inbounds i8, ptr %agg.tmp.i226.i.i, i64 72
  %274 = load i8, ptr %state_3.i.i.i.i.i.i.i.i.i.i.i.i.i.i.i.i, align 8, !noalias !84
  store i8 %274, ptr %state_.i.i.i.i.i.i.i.i.i.i.i.i.i.i.i.i, align 8, !noalias !84
  %275 = getelementptr inbounds i8, ptr %agg.tmp.i226.i.i, i64 80
  %add.ptr.i.i.i.i.i.i.i.i.i.i.i.i.i.i.i.i.i.i.i.i.i.i.i.i.i.i.i.i.i.i.i.i.i.i.i = getelementptr inbounds i8, ptr %agg.tmp117.i.i, i64 80
  %276 = load i64, ptr %add.ptr.i.i.i.i.i.i.i.i.i.i.i.i.i.i.i.i.i.i.i.i.i.i.i.i.i.i.i.i.i.i.i.i.i.i.i, align 8, !noalias !84
  store i64 %276, ptr %275, align 8, !noalias !84
  store ptr null, ptr %add.ptr.i.i.i.i.i.i.i.i.i.i.i.i.i.i.i.i.i.i.i.i.i.i.i.i.i.i.i.i.i.i.i.i.i.i.i, align 8, !noalias !84
  br label %"_ZN9grpc_core9ConstructINS_14promise_detail11PromiseLikeINS1_3MapINS_11pipe_detail4PushISt10unique_ptrINS_7MessageENS_5Arena13PooledDeleterEEEEZZZZNS_12_GLOBAL__N_122ConnectedChannelStream12RecvMessagesEPNS_10PipeSenderISA_EEbEN3$_0clEvENUlN4absl12lts_202308028StatusOrISt8optionalISA_EEEE_clESN_ENKUlvE_clEvEUlbE_EEvEEJSS_EEEvPT_DpOT0_.exit.i.i.i.i.i.i.i.i.i.i.i"

"_ZN9grpc_core9ConstructINS_14promise_detail11PromiseLikeINS1_3MapINS_11pipe_detail4PushISt10unique_ptrINS_7MessageENS_5Arena13PooledDeleterEEEEZZZZNS_12_GLOBAL__N_122ConnectedChannelStream12RecvMessagesEPNS_10PipeSenderISA_EEbEN3$_0clEvENUlN4absl12lts_202308028StatusOrISt8optionalISA_EEEE_clESN_ENKUlvE_clEvEUlbE_EEvEEJSS_EEEvPT_DpOT0_.exit.i.i.i.i.i.i.i.i.i.i.i": ; preds = %sw.bb.i.i.i.i.i.i.i.i.i.i.i.i.i.i.i.i.i.i.i.i.i.i.i, %if.then.i.i.i.i.i.i.i.i.i229.i.i
  store i8 %273, ptr %_M_index.i.i.i.i.i.i.i.i.i.i.i.i.i.i.i.i.i.i.i.i.i230.i.i, align 8, !noalias !84
  br label %"_ZN9grpc_core14promise_detail3MapIZNS_12_GLOBAL__N_121MakeClientCallPromiseEPNS_9TransportENS_8CallArgsESt8functionIFNS_12ArenaPromiseISt10unique_ptrI19grpc_metadata_batchNS_5Arena13PooledDeleterEEEES5_EEE3$_7ZNS2_21MakeClientCallPromiseES4_S5_SF_E3$_8EC2ESG_SH_.exit.i.i.i"

if.else.i.i.i.i.i.i.i.i.i.i.i:                    ; preds = %sw.bb5.i.i.i.i.i3.i.i.i
  %_M_index.i.i.i.i.i.i.i.i.i.i.i.i.i.i.i.i.i.i.i233.i.i = getelementptr inbounds i8, ptr %agg.tmp.i226.i.i, i64 72
  %_M_index.i.i.i.i.i.i.i.i.i.i.i.i.i.i.i.i.i.i.i.i234.i.i = getelementptr inbounds i8, ptr %agg.tmp117.i.i, i64 72
  %277 = load i8, ptr %_M_index.i.i.i.i.i.i.i.i.i.i.i.i.i.i.i.i.i.i.i.i234.i.i, align 8, !noalias !84
  %switch.i.i.i.i.i.i.i.i.i.i.i.i.i.i.i.i.i.i.i.i.i = icmp eq i8 %277, 1
  br i1 %switch.i.i.i.i.i.i.i.i.i.i.i.i.i.i.i.i.i.i.i.i.i, label %sw.bb2.i.i.i.i.i.i.i.i.i.i.i.i.i.i.i.i.i.i.i.i.i, label %_ZN9grpc_core9ConstructINS_14promise_detail11PromiseLikeINS1_9ImmediateISt7variantIJNS_8ContinueEN4absl12lts_202308026StatusEEEEEvEEJSB_EEEvPT_DpOT0_.exit.i.i.i.i.i.i.i.i.i.i.i

sw.bb2.i.i.i.i.i.i.i.i.i.i.i.i.i.i.i.i.i.i.i.i.i: ; preds = %if.else.i.i.i.i.i.i.i.i.i.i.i
  %278 = getelementptr inbounds i8, ptr %agg.tmp117.i.i, i64 64
  %279 = getelementptr inbounds i8, ptr %agg.tmp.i226.i.i, i64 64
  %280 = load i64, ptr %278, align 8, !noalias !84
  store i64 %280, ptr %279, align 8, !noalias !84
  store i64 54, ptr %278, align 8, !noalias !84
  br label %_ZN9grpc_core9ConstructINS_14promise_detail11PromiseLikeINS1_9ImmediateISt7variantIJNS_8ContinueEN4absl12lts_202308026StatusEEEEEvEEJSB_EEEvPT_DpOT0_.exit.i.i.i.i.i.i.i.i.i.i.i

_ZN9grpc_core9ConstructINS_14promise_detail11PromiseLikeINS1_9ImmediateISt7variantIJNS_8ContinueEN4absl12lts_202308026StatusEEEEEvEEJSB_EEEvPT_DpOT0_.exit.i.i.i.i.i.i.i.i.i.i.i: ; preds = %sw.bb2.i.i.i.i.i.i.i.i.i.i.i.i.i.i.i.i.i.i.i.i.i, %if.else.i.i.i.i.i.i.i.i.i.i.i
  store i8 %277, ptr %_M_index.i.i.i.i.i.i.i.i.i.i.i.i.i.i.i.i.i.i.i233.i.i, align 8, !noalias !84
  br label %"_ZN9grpc_core14promise_detail3MapIZNS_12_GLOBAL__N_121MakeClientCallPromiseEPNS_9TransportENS_8CallArgsESt8functionIFNS_12ArenaPromiseISt10unique_ptrI19grpc_metadata_batchNS_5Arena13PooledDeleterEEEES5_EEE3$_7ZNS2_21MakeClientCallPromiseES4_S5_SF_E3$_8EC2ESG_SH_.exit.i.i.i"

tail0.i.i.i.i.i5.i.i.i:                           ; preds = %sw.bb.i.i.i.i.i4.i.i.i, %if.then.i.i228.i.i
  %281 = phi i8 [ %267, %sw.bb.i.i.i.i.i4.i.i.i ], [ 0, %if.then.i.i228.i.i ]
  %next_factory.i.i.i.i.i6.i.i.i = getelementptr inbounds i8, ptr %agg.tmp.i226.i.i, i64 80
  %next_factory7.i.i.i.i.i.i.i.i = getelementptr inbounds i8, ptr %agg.tmp117.i.i, i64 80
  call void @llvm.memcpy.p0.p0.i64(ptr noundef nonnull align 8 dereferenceable(16) %next_factory.i.i.i.i.i6.i.i.i, ptr noundef nonnull align 8 dereferenceable(16) %next_factory7.i.i.i.i.i.i.i.i, i64 16, i1 false), !noalias !84
  br label %"_ZN9grpc_core14promise_detail3MapIZNS_12_GLOBAL__N_121MakeClientCallPromiseEPNS_9TransportENS_8CallArgsESt8functionIFNS_12ArenaPromiseISt10unique_ptrI19grpc_metadata_batchNS_5Arena13PooledDeleterEEEES5_EEE3$_7ZNS2_21MakeClientCallPromiseES4_S5_SF_E3$_8EC2ESG_SH_.exit.i.i.i"

"_ZN9grpc_core14promise_detail3MapIZNS_12_GLOBAL__N_121MakeClientCallPromiseEPNS_9TransportENS_8CallArgsESt8functionIFNS_12ArenaPromiseISt10unique_ptrI19grpc_metadata_batchNS_5Arena13PooledDeleterEEEES5_EEE3$_7ZNS2_21MakeClientCallPromiseES4_S5_SF_E3$_8EC2ESG_SH_.exit.i.i.i": ; preds = %tail0.i.i.i.i.i5.i.i.i, %_ZN9grpc_core9ConstructINS_14promise_detail11PromiseLikeINS1_9ImmediateISt7variantIJNS_8ContinueEN4absl12lts_202308026StatusEEEEEvEEJSB_EEEvPT_DpOT0_.exit.i.i.i.i.i.i.i.i.i.i.i, %"_ZN9grpc_core9ConstructINS_14promise_detail11PromiseLikeINS1_3MapINS_11pipe_detail4PushISt10unique_ptrINS_7MessageENS_5Arena13PooledDeleterEEEEZZZZNS_12_GLOBAL__N_122ConnectedChannelStream12RecvMessagesEPNS_10PipeSenderISA_EEbEN3$_0clEvENUlN4absl12lts_202308028StatusOrISt8optionalISA_EEEE_clESN_ENKUlvE_clEvEUlbE_EEvEEJSS_EEEvPT_DpOT0_.exit.i.i.i.i.i.i.i.i.i.i.i", %"_ZZN9grpc_core12_GLOBAL__N_121MakeClientCallPromiseEPNS_9TransportENS_8CallArgsESt8functionIFNS_12ArenaPromiseISt10unique_ptrI19grpc_metadata_batchNS_5Arena13PooledDeleterEEEES3_EEEN3$_7C2EOSE_.exit.i.i.i"
  %282 = phi i8 [ 0, %"_ZZN9grpc_core12_GLOBAL__N_121MakeClientCallPromiseEPNS_9TransportENS_8CallArgsESt8functionIFNS_12ArenaPromiseISt10unique_ptrI19grpc_metadata_batchNS_5Arena13PooledDeleterEEEES3_EEEN3$_7C2EOSE_.exit.i.i.i" ], [ 1, %"_ZN9grpc_core9ConstructINS_14promise_detail11PromiseLikeINS1_3MapINS_11pipe_detail4PushISt10unique_ptrINS_7MessageENS_5Arena13PooledDeleterEEEEZZZZNS_12_GLOBAL__N_122ConnectedChannelStream12RecvMessagesEPNS_10PipeSenderISA_EEbEN3$_0clEvENUlN4absl12lts_202308028StatusOrISt8optionalISA_EEEE_clESN_ENKUlvE_clEvEUlbE_EEvEEJSS_EEEvPT_DpOT0_.exit.i.i.i.i.i.i.i.i.i.i.i" ], [ 0, %_ZN9grpc_core9ConstructINS_14promise_detail11PromiseLikeINS1_9ImmediateISt7variantIJNS_8ContinueEN4absl12lts_202308026StatusEEEEEvEEJSB_EEEvPT_DpOT0_.exit.i.i.i.i.i.i.i.i.i.i.i ], [ %281, %tail0.i.i.i.i.i5.i.i.i ]
  %283 = phi i8 [ undef, %"_ZZN9grpc_core12_GLOBAL__N_121MakeClientCallPromiseEPNS_9TransportENS_8CallArgsESt8functionIFNS_12ArenaPromiseISt10unique_ptrI19grpc_metadata_batchNS_5Arena13PooledDeleterEEEES3_EEEN3$_7C2EOSE_.exit.i.i.i" ], [ 1, %"_ZN9grpc_core9ConstructINS_14promise_detail11PromiseLikeINS1_3MapINS_11pipe_detail4PushISt10unique_ptrINS_7MessageENS_5Arena13PooledDeleterEEEEZZZZNS_12_GLOBAL__N_122ConnectedChannelStream12RecvMessagesEPNS_10PipeSenderISA_EEbEN3$_0clEvENUlN4absl12lts_202308028StatusOrISt8optionalISA_EEEE_clESN_ENKUlvE_clEvEUlbE_EEvEEJSS_EEEvPT_DpOT0_.exit.i.i.i.i.i.i.i.i.i.i.i" ], [ 1, %_ZN9grpc_core9ConstructINS_14promise_detail11PromiseLikeINS1_9ImmediateISt7variantIJNS_8ContinueEN4absl12lts_202308026StatusEEEEEvEEJSB_EEEvPT_DpOT0_.exit.i.i.i.i.i.i.i.i.i.i.i ], [ %261, %tail0.i.i.i.i.i5.i.i.i ]
  %284 = getelementptr inbounds i8, ptr %agg.tmp.i226.i.i, i64 120
  store ptr null, ptr %250, align 8, !noalias !84
  %285 = getelementptr inbounds i8, ptr %agg.tmp.i226.i.i, i64 128
  call void @llvm.memcpy.p0.p0.i64(ptr noundef nonnull align 8 dereferenceable(16) %285, ptr noundef nonnull align 8 dereferenceable(16) %251, i64 16, i1 false), !noalias !84
  %286 = getelementptr inbounds i8, ptr %agg.tmp.i226.i.i, i64 152
  call void @llvm.memcpy.p0.p0.i64(ptr noundef nonnull align 8 dereferenceable(3) %286, ptr noundef nonnull align 8 dereferenceable(3) %252, i64 3, i1 false), !noalias !84
  store ptr null, ptr %agg.tmp118.i.i, align 8, !noalias !84
  %state.i.i.i.i.i.i231.i.i = getelementptr inbounds i8, ptr %ref.tmp116.i.i, i64 24
  store i8 0, ptr %state.i.i.i.i.i.i231.i.i, align 8, !alias.scope !81, !noalias !21
  store ptr %208, ptr %ref.tmp116.i.i, align 8, !alias.scope !81, !noalias !21
  store ptr null, ptr %agg.tmp.i226.i.i, align 8, !noalias !84
  %287 = getelementptr inbounds i8, ptr %ref.tmp116.i.i, i64 8
  store i64 %211, ptr %287, align 8, !alias.scope !81, !noalias !21
  %next_factory.i.i.i.i.i.i232.i.i = getelementptr inbounds i8, ptr %ref.tmp116.i.i, i64 16
  %next_factory6.i.i.i.i.i.i.i.i = getelementptr inbounds i8, ptr %agg.tmp.i226.i.i, i64 16
  store ptr null, ptr %next_factory6.i.i.i.i.i.i.i.i, align 8, !noalias !84
  store ptr %207, ptr %next_factory.i.i.i.i.i.i232.i.i, align 8, !alias.scope !81, !noalias !21
  %288 = getelementptr inbounds i8, ptr %ref.tmp116.i.i, i64 32
  store ptr %221, ptr %288, align 8, !alias.scope !81, !noalias !21
  store ptr null, ptr %256, align 8, !noalias !84
  %289 = getelementptr inbounds i8, ptr %ref.tmp116.i.i, i64 40
  store i8 %225, ptr %289, align 8, !alias.scope !81, !noalias !21
  %290 = getelementptr inbounds i8, ptr %ref.tmp116.i.i, i64 48
  store ptr %228, ptr %290, align 8, !alias.scope !81, !noalias !21
  store ptr null, ptr %258, align 8, !noalias !84
  %started_.i7.i.i.i = getelementptr inbounds i8, ptr %ref.tmp116.i.i, i64 112
  store i8 %230, ptr %started_.i7.i.i.i, align 8, !alias.scope !81, !noalias !21
  br i1 %tobool.not.i.i.i, label %invoke.cont120.i.i, label %if.then.i10.i.i.i

if.then.i10.i.i.i:                                ; preds = %"_ZN9grpc_core14promise_detail3MapIZNS_12_GLOBAL__N_121MakeClientCallPromiseEPNS_9TransportENS_8CallArgsESt8functionIFNS_12ArenaPromiseISt10unique_ptrI19grpc_metadata_batchNS_5Arena13PooledDeleterEEEES5_EEE3$_7ZNS2_21MakeClientCallPromiseES4_S5_SF_E3$_8EC2ESG_SH_.exit.i.i.i"
  %291 = getelementptr inbounds i8, ptr %ref.tmp116.i.i, i64 56
  %state.i.i.i.i.i11.i.i.i = getelementptr inbounds i8, ptr %ref.tmp116.i.i, i64 104
  store i8 %283, ptr %state.i.i.i.i.i11.i.i.i, align 8, !alias.scope !81, !noalias !21
  switch i8 %283, label %tail0.i.i.i.i.i33.i.i.i [
    i8 0, label %sw.bb.i.i.i.i.i32.i.i.i
    i8 1, label %sw.bb5.i.i.i.i.i13.i.i.i
  ]

sw.bb.i.i.i.i.i32.i.i.i:                          ; preds = %if.then.i10.i.i.i
  %292 = getelementptr inbounds i8, ptr %agg.tmp.i226.i.i, i64 56
  %293 = load ptr, ptr %292, align 8, !noalias !84
  store ptr %293, ptr %291, align 8, !alias.scope !81, !noalias !21
  store ptr null, ptr %292, align 8, !noalias !84
  %294 = getelementptr inbounds i8, ptr %ref.tmp116.i.i, i64 64
  %295 = getelementptr inbounds i8, ptr %agg.tmp.i226.i.i, i64 64
  call void @llvm.memcpy.p0.p0.i64(ptr noundef nonnull align 8 dereferenceable(16) %294, ptr noundef nonnull align 8 dereferenceable(16) %295, i64 16, i1 false), !noalias !21
  br label %tail0.i.i.i.i.i33.i.i.i

sw.bb5.i.i.i.i.i13.i.i.i:                         ; preds = %if.then.i10.i.i.i
  %tobool.not.i.i.i.i.i.i.i.i14.i.i.i = icmp eq i8 %282, 0
  store i8 %282, ptr %291, align 8, !alias.scope !81, !noalias !21
  br i1 %tobool.not.i.i.i.i.i.i.i.i14.i.i.i, label %if.else.i.i.i.i.i.i.i.i25.i.i.i, label %if.then.i.i.i.i.i.i.i.i15.i.i.i

if.then.i.i.i.i.i.i.i.i15.i.i.i:                  ; preds = %sw.bb5.i.i.i.i.i13.i.i.i
  %296 = getelementptr inbounds i8, ptr %ref.tmp116.i.i, i64 64
  %297 = getelementptr inbounds i8, ptr %agg.tmp.i226.i.i, i64 64
  %298 = load ptr, ptr %297, align 8, !noalias !84
  store ptr %298, ptr %296, align 8, !alias.scope !81, !noalias !21
  store ptr null, ptr %297, align 8, !noalias !84
  %_M_index.i.i.i.i.i.i.i.i.i.i.i.i.i.i.i.i.i.i.i.i16.i.i.i = getelementptr inbounds i8, ptr %ref.tmp116.i.i, i64 88
  %_M_index.i.i.i.i.i.i.i.i.i.i.i.i.i.i.i.i.i.i.i.i.i17.i.i.i = getelementptr inbounds i8, ptr %agg.tmp.i226.i.i, i64 88
  %299 = load i8, ptr %_M_index.i.i.i.i.i.i.i.i.i.i.i.i.i.i.i.i.i.i.i.i.i17.i.i.i, align 8, !noalias !84
  %switch.i.i.i.i.i.i.i.i.i.i.i.i.i.i.i.i.i.i.i.i18.i.i.i = icmp eq i8 %299, 0
  br i1 %switch.i.i.i.i.i.i.i.i.i.i.i.i.i.i.i.i.i.i.i.i18.i.i.i, label %sw.bb.i.i.i.i.i.i.i.i.i.i.i.i.i.i.i.i.i.i.i.i20.i.i.i, label %"_ZN9grpc_core9ConstructINS_14promise_detail11PromiseLikeINS1_3MapINS_11pipe_detail4PushISt10unique_ptrINS_7MessageENS_5Arena13PooledDeleterEEEEZZZZNS_12_GLOBAL__N_122ConnectedChannelStream12RecvMessagesEPNS_10PipeSenderISA_EEbEN3$_0clEvENUlN4absl12lts_202308028StatusOrISt8optionalISA_EEEE_clESN_ENKUlvE_clEvEUlbE_EEvEEJSS_EEEvPT_DpOT0_.exit.i.i.i.i.i.i.i.i19.i.i.i"

sw.bb.i.i.i.i.i.i.i.i.i.i.i.i.i.i.i.i.i.i.i.i20.i.i.i: ; preds = %if.then.i.i.i.i.i.i.i.i15.i.i.i
  %state_3.i.i.i.i.i.i.i.i.i.i.i.i.i21.i.i.i = getelementptr inbounds i8, ptr %agg.tmp.i226.i.i, i64 72
  %state_.i.i.i.i.i.i.i.i.i.i.i.i.i22.i.i.i = getelementptr inbounds i8, ptr %ref.tmp116.i.i, i64 72
  %300 = load i8, ptr %state_3.i.i.i.i.i.i.i.i.i.i.i.i.i21.i.i.i, align 8, !noalias !84
  store i8 %300, ptr %state_.i.i.i.i.i.i.i.i.i.i.i.i.i22.i.i.i, align 8, !alias.scope !81, !noalias !21
  %301 = getelementptr inbounds i8, ptr %ref.tmp116.i.i, i64 80
  %add.ptr.i.i.i.i.i.i.i.i.i.i.i.i.i.i.i.i.i.i.i.i.i.i.i.i.i.i.i.i.i.i.i.i23.i.i.i = getelementptr inbounds i8, ptr %agg.tmp.i226.i.i, i64 80
  %302 = load i64, ptr %add.ptr.i.i.i.i.i.i.i.i.i.i.i.i.i.i.i.i.i.i.i.i.i.i.i.i.i.i.i.i.i.i.i.i23.i.i.i, align 8, !noalias !84
  store i64 %302, ptr %301, align 8, !alias.scope !81, !noalias !21
  store ptr null, ptr %add.ptr.i.i.i.i.i.i.i.i.i.i.i.i.i.i.i.i.i.i.i.i.i.i.i.i.i.i.i.i.i.i.i.i23.i.i.i, align 8, !noalias !84
  br label %"_ZN9grpc_core9ConstructINS_14promise_detail11PromiseLikeINS1_3MapINS_11pipe_detail4PushISt10unique_ptrINS_7MessageENS_5Arena13PooledDeleterEEEEZZZZNS_12_GLOBAL__N_122ConnectedChannelStream12RecvMessagesEPNS_10PipeSenderISA_EEbEN3$_0clEvENUlN4absl12lts_202308028StatusOrISt8optionalISA_EEEE_clESN_ENKUlvE_clEvEUlbE_EEvEEJSS_EEEvPT_DpOT0_.exit.i.i.i.i.i.i.i.i19.i.i.i"

"_ZN9grpc_core9ConstructINS_14promise_detail11PromiseLikeINS1_3MapINS_11pipe_detail4PushISt10unique_ptrINS_7MessageENS_5Arena13PooledDeleterEEEEZZZZNS_12_GLOBAL__N_122ConnectedChannelStream12RecvMessagesEPNS_10PipeSenderISA_EEbEN3$_0clEvENUlN4absl12lts_202308028StatusOrISt8optionalISA_EEEE_clESN_ENKUlvE_clEvEUlbE_EEvEEJSS_EEEvPT_DpOT0_.exit.i.i.i.i.i.i.i.i19.i.i.i": ; preds = %sw.bb.i.i.i.i.i.i.i.i.i.i.i.i.i.i.i.i.i.i.i.i20.i.i.i, %if.then.i.i.i.i.i.i.i.i15.i.i.i
  store i8 %299, ptr %_M_index.i.i.i.i.i.i.i.i.i.i.i.i.i.i.i.i.i.i.i.i16.i.i.i, align 8, !alias.scope !81, !noalias !21
  br label %invoke.cont120.i.i

if.else.i.i.i.i.i.i.i.i25.i.i.i:                  ; preds = %sw.bb5.i.i.i.i.i13.i.i.i
  %_M_index.i.i.i.i.i.i.i.i.i.i.i.i.i.i.i.i.i.i26.i.i.i = getelementptr inbounds i8, ptr %ref.tmp116.i.i, i64 72
  %_M_index.i.i.i.i.i.i.i.i.i.i.i.i.i.i.i.i.i.i.i27.i.i.i = getelementptr inbounds i8, ptr %agg.tmp.i226.i.i, i64 72
  %303 = load i8, ptr %_M_index.i.i.i.i.i.i.i.i.i.i.i.i.i.i.i.i.i.i.i27.i.i.i, align 8, !noalias !84
  %switch.i.i.i.i.i.i.i.i.i.i.i.i.i.i.i.i.i.i28.i.i.i = icmp eq i8 %303, 1
  br i1 %switch.i.i.i.i.i.i.i.i.i.i.i.i.i.i.i.i.i.i28.i.i.i, label %sw.bb2.i.i.i.i.i.i.i.i.i.i.i.i.i.i.i.i.i.i30.i.i.i, label %_ZN9grpc_core9ConstructINS_14promise_detail11PromiseLikeINS1_9ImmediateISt7variantIJNS_8ContinueEN4absl12lts_202308026StatusEEEEEvEEJSB_EEEvPT_DpOT0_.exit.i.i.i.i.i.i.i.i29.i.i.i

sw.bb2.i.i.i.i.i.i.i.i.i.i.i.i.i.i.i.i.i.i30.i.i.i: ; preds = %if.else.i.i.i.i.i.i.i.i25.i.i.i
  %304 = getelementptr inbounds i8, ptr %agg.tmp.i226.i.i, i64 64
  %305 = getelementptr inbounds i8, ptr %ref.tmp116.i.i, i64 64
  %306 = load i64, ptr %304, align 8, !noalias !84
  store i64 %306, ptr %305, align 8, !alias.scope !81, !noalias !21
  store i64 54, ptr %304, align 8, !noalias !84
  br label %_ZN9grpc_core9ConstructINS_14promise_detail11PromiseLikeINS1_9ImmediateISt7variantIJNS_8ContinueEN4absl12lts_202308026StatusEEEEEvEEJSB_EEEvPT_DpOT0_.exit.i.i.i.i.i.i.i.i29.i.i.i

_ZN9grpc_core9ConstructINS_14promise_detail11PromiseLikeINS1_9ImmediateISt7variantIJNS_8ContinueEN4absl12lts_202308026StatusEEEEEvEEJSB_EEEvPT_DpOT0_.exit.i.i.i.i.i.i.i.i29.i.i.i: ; preds = %sw.bb2.i.i.i.i.i.i.i.i.i.i.i.i.i.i.i.i.i.i30.i.i.i, %if.else.i.i.i.i.i.i.i.i25.i.i.i
  store i8 %303, ptr %_M_index.i.i.i.i.i.i.i.i.i.i.i.i.i.i.i.i.i.i26.i.i.i, align 8, !alias.scope !81, !noalias !21
  br label %invoke.cont120.i.i

tail0.i.i.i.i.i33.i.i.i:                          ; preds = %sw.bb.i.i.i.i.i32.i.i.i, %if.then.i10.i.i.i
  %next_factory.i.i.i.i.i34.i.i.i = getelementptr inbounds i8, ptr %ref.tmp116.i.i, i64 80
  %next_factory7.i.i.i.i.i35.i.i.i = getelementptr inbounds i8, ptr %agg.tmp.i226.i.i, i64 80
  call void @llvm.memcpy.p0.p0.i64(ptr noundef nonnull align 8 dereferenceable(16) %next_factory.i.i.i.i.i34.i.i.i, ptr noundef nonnull align 8 dereferenceable(16) %next_factory7.i.i.i.i.i35.i.i.i, i64 16, i1 false), !noalias !21
  br label %invoke.cont120.i.i

invoke.cont120.i.i:                               ; preds = %tail0.i.i.i.i.i33.i.i.i, %_ZN9grpc_core9ConstructINS_14promise_detail11PromiseLikeINS1_9ImmediateISt7variantIJNS_8ContinueEN4absl12lts_202308026StatusEEEEEvEEJSB_EEEvPT_DpOT0_.exit.i.i.i.i.i.i.i.i29.i.i.i, %"_ZN9grpc_core9ConstructINS_14promise_detail11PromiseLikeINS1_3MapINS_11pipe_detail4PushISt10unique_ptrINS_7MessageENS_5Arena13PooledDeleterEEEEZZZZNS_12_GLOBAL__N_122ConnectedChannelStream12RecvMessagesEPNS_10PipeSenderISA_EEbEN3$_0clEvENUlN4absl12lts_202308028StatusOrISt8optionalISA_EEEE_clESN_ENKUlvE_clEvEUlbE_EEvEEJSS_EEEvPT_DpOT0_.exit.i.i.i.i.i.i.i.i19.i.i.i", %"_ZN9grpc_core14promise_detail3MapIZNS_12_GLOBAL__N_121MakeClientCallPromiseEPNS_9TransportENS_8CallArgsESt8functionIFNS_12ArenaPromiseISt10unique_ptrI19grpc_metadata_batchNS_5Arena13PooledDeleterEEEES5_EEE3$_7ZNS2_21MakeClientCallPromiseES4_S5_SF_E3$_8EC2ESG_SH_.exit.i.i.i"
  %307 = getelementptr inbounds i8, ptr %ref.tmp116.i.i, i64 120
  store ptr %216, ptr %307, align 8, !alias.scope !81, !noalias !21
  store ptr null, ptr %284, align 8, !noalias !84
  %308 = getelementptr inbounds i8, ptr %ref.tmp116.i.i, i64 128
  call void @llvm.memcpy.p0.p0.i64(ptr noundef nonnull align 8 dereferenceable(16) %308, ptr noundef nonnull align 8 dereferenceable(16) %285, i64 16, i1 false), !noalias !21
  %309 = getelementptr inbounds i8, ptr %ref.tmp116.i.i, i64 152
  call void @llvm.memcpy.p0.p0.i64(ptr noundef nonnull align 8 dereferenceable(3) %309, ptr noundef nonnull align 8 dereferenceable(3) %286, i64 3, i1 false), !noalias !21
  %fn_.i.i.i.i = getelementptr inbounds i8, ptr %ref.tmp116.i.i, i64 160
  store i64 %180, ptr %fn_.i.i.i.i, align 8, !alias.scope !81, !noalias !21
  call fastcc void @"_ZZN9grpc_core12_GLOBAL__N_121MakeClientCallPromiseEPNS_9TransportENS_8CallArgsESt8functionIFNS_12ArenaPromiseISt10unique_ptrI19grpc_metadata_batchNS_5Arena13PooledDeleterEEEES3_EEEN3$_7D2Ev"(ptr noundef nonnull align 8 dereferenceable(155) %agg.tmp.i226.i.i) #23, !noalias !84
  call void @llvm.lifetime.end.p0(i64 160, ptr nonnull %agg.tmp.i226.i.i), !noalias !21
  %arg.i.i.i = getelementptr inbounds i8, ptr %agg.result, i64 16
  store i64 0, ptr %arg.i.i.i, align 16, !alias.scope !21
  store ptr @"_ZN9grpc_core20arena_promise_detail17AllocatedCallableISt10unique_ptrI19grpc_metadata_batchNS_5Arena13PooledDeleterEENS_14promise_detail3MapIZNS_12_GLOBAL__N_121MakeClientCallPromiseEPNS_9TransportENS_8CallArgsESt8functionIFNS_12ArenaPromiseIS6_EESC_EEE3$_7ZNS9_21MakeClientCallPromiseESB_SC_SH_E3$_8EEE6vtableE", ptr %agg.result, align 16, !alias.scope !21
  %310 = load ptr, ptr %7, align 8, !noalias !21
  %cmp.not.i.i.i.i.i.i = icmp eq ptr %310, null
  br i1 %cmp.not.i.i.i.i.i.i, label %if.then.i.i.i.i236.i.i, label %_ZN9grpc_core10GetContextINS_5ArenaEEEPT_v.exit.i.i.i.i.i

if.then.i.i.i.i236.i.i:                           ; preds = %invoke.cont120.i.i
  invoke void @gpr_assertion_failed(ptr noundef nonnull @.str.19, i32 noundef 80, ptr noundef nonnull @.str.20) #25
          to label %.noexc237.i.i unwind label %lpad121.i.i, !noalias !21

.noexc237.i.i:                                    ; preds = %if.then.i.i.i.i236.i.i
  unreachable

_ZN9grpc_core10GetContextINS_5ArenaEEEPT_v.exit.i.i.i.i.i: ; preds = %invoke.cont120.i.i
  %311 = atomicrmw add ptr %310, i64 176 monotonic, align 8, !noalias !21
  %add2.i.i.i.i.i.i.i = add i64 %311, 176
  %initial_zone_size_.i.i.i.i.i.i.i = getelementptr inbounds i8, ptr %310, i64 16
  %312 = load i64, ptr %initial_zone_size_.i.i.i.i.i.i.i, align 8, !noalias !21
  %cmp.not.i.i.i.i.i.i.i = icmp ugt i64 %add2.i.i.i.i.i.i.i, %312
  br i1 %cmp.not.i.i.i.i.i.i.i, label %if.else.i.i.i.i.i.i.i, label %if.then.i.i.i.i.i.i.i

if.then.i.i.i.i.i.i.i:                            ; preds = %_ZN9grpc_core10GetContextINS_5ArenaEEEPT_v.exit.i.i.i.i.i
  %add.ptr.i.i.i.i.i235.i.i = getelementptr inbounds i8, ptr %310, i64 48
  %add.ptr3.i.i.i.i.i.i.i = getelementptr inbounds i8, ptr %add.ptr.i.i.i.i.i235.i.i, i64 %311
  br label %_ZN9grpc_core5Arena5AllocEm.exit.i.i.i.i.i.i

if.else.i.i.i.i.i.i.i:                            ; preds = %_ZN9grpc_core10GetContextINS_5ArenaEEEPT_v.exit.i.i.i.i.i
  %call4.i.i.i.i.i238.i.i = invoke noundef ptr @_ZN9grpc_core5Arena9AllocZoneEm(ptr noundef nonnull align 8 dereferenceable(48) %310, i64 noundef 176)
          to label %_ZN9grpc_core5Arena5AllocEm.exit.i.i.i.i.i.i unwind label %lpad121.i.i, !noalias !21

_ZN9grpc_core5Arena5AllocEm.exit.i.i.i.i.i.i:     ; preds = %if.else.i.i.i.i.i.i.i, %if.then.i.i.i.i.i.i.i
  %retval.0.i.i.i.i.i.i.i = phi ptr [ %add.ptr3.i.i.i.i.i.i.i, %if.then.i.i.i.i.i.i.i ], [ %call4.i.i.i.i.i238.i.i, %if.else.i.i.i.i.i.i.i ]
  %state.i.i.i.i.i.i.i.i.i.i.i.i = getelementptr inbounds i8, ptr %retval.0.i.i.i.i.i.i.i, i64 24
  %313 = load i8, ptr %state.i.i.i.i.i.i231.i.i, align 8, !noalias !21
  store i8 %313, ptr %state.i.i.i.i.i.i.i.i.i.i.i.i, align 8, !noalias !21
  switch i8 %313, label %tail0.i.i.i.i.i.i.i.i.i.i.i.i [
    i8 0, label %sw.bb.i.i.i.i.i.i.i.i.i.i.i.i
    i8 1, label %sw.bb5.i.i.i.i.i.i.i.i.i.i.i.i
  ]

sw.bb.i.i.i.i.i.i.i.i.i.i.i.i:                    ; preds = %_ZN9grpc_core5Arena5AllocEm.exit.i.i.i.i.i.i
  store ptr null, ptr %retval.0.i.i.i.i.i.i.i, align 8, !noalias !21
  %314 = load ptr, ptr %ref.tmp116.i.i, align 8, !noalias !21
  store ptr %314, ptr %retval.0.i.i.i.i.i.i.i, align 8, !noalias !21
  store ptr null, ptr %ref.tmp116.i.i, align 8, !noalias !21
  %315 = getelementptr inbounds i8, ptr %retval.0.i.i.i.i.i.i.i, i64 8
  %316 = load i64, ptr %287, align 8, !noalias !21
  store i64 %316, ptr %315, align 8, !noalias !21
  br label %tail0.i.i.i.i.i.i.i.i.i.i.i.i

sw.bb5.i.i.i.i.i.i.i.i.i.i.i.i:                   ; preds = %_ZN9grpc_core5Arena5AllocEm.exit.i.i.i.i.i.i
  %317 = load ptr, ptr %ref.tmp116.i.i, align 8, !noalias !21
  store ptr null, ptr %ref.tmp116.i.i, align 8, !noalias !21
  store ptr %317, ptr %retval.0.i.i.i.i.i.i.i, align 8, !noalias !21
  %arg_.i.i.i.i.i.i.i.i.i.i.i.i.i.i.i = getelementptr inbounds i8, ptr %retval.0.i.i.i.i.i.i.i, i64 8
  %318 = load i64, ptr %287, align 8, !noalias !21
  store i64 %318, ptr %arg_.i.i.i.i.i.i.i.i.i.i.i.i.i.i.i, align 8, !noalias !21
  store i64 54, ptr %287, align 8, !noalias !21
  br label %"_ZN9grpc_core12ArenaPromiseISt10unique_ptrI19grpc_metadata_batchNS_5Arena13PooledDeleterEEEC2INS_14promise_detail3MapIZNS_12_GLOBAL__N_121MakeClientCallPromiseEPNS_9TransportENS_8CallArgsESt8functionIFS6_SD_EEE3$_7ZNSA_21MakeClientCallPromiseESC_SD_SG_E3$_8EEvEEOT_.exit.i.i"

tail0.i.i.i.i.i.i.i.i.i.i.i.i:                    ; preds = %sw.bb.i.i.i.i.i.i.i.i.i.i.i.i, %_ZN9grpc_core5Arena5AllocEm.exit.i.i.i.i.i.i
  %next_factory.i.i.i.i.i.i.i.i.i.i.i.i = getelementptr inbounds i8, ptr %retval.0.i.i.i.i.i.i.i, i64 16
  %319 = load ptr, ptr %next_factory.i.i.i.i.i.i232.i.i, align 8, !noalias !21
  store ptr null, ptr %next_factory.i.i.i.i.i.i232.i.i, align 8, !noalias !21
  store ptr %319, ptr %next_factory.i.i.i.i.i.i.i.i.i.i.i.i, align 8, !noalias !21
  br label %"_ZN9grpc_core12ArenaPromiseISt10unique_ptrI19grpc_metadata_batchNS_5Arena13PooledDeleterEEEC2INS_14promise_detail3MapIZNS_12_GLOBAL__N_121MakeClientCallPromiseEPNS_9TransportENS_8CallArgsESt8functionIFS6_SD_EEE3$_7ZNSA_21MakeClientCallPromiseESC_SD_SG_E3$_8EEvEEOT_.exit.i.i"

"_ZN9grpc_core12ArenaPromiseISt10unique_ptrI19grpc_metadata_batchNS_5Arena13PooledDeleterEEEC2INS_14promise_detail3MapIZNS_12_GLOBAL__N_121MakeClientCallPromiseEPNS_9TransportENS_8CallArgsESt8functionIFS6_SD_EEE3$_7ZNSA_21MakeClientCallPromiseESC_SD_SG_E3$_8EEvEEOT_.exit.i.i": ; preds = %tail0.i.i.i.i.i.i.i.i.i.i.i.i, %sw.bb5.i.i.i.i.i.i.i.i.i.i.i.i
  %320 = getelementptr inbounds i8, ptr %retval.0.i.i.i.i.i.i.i, i64 32
  store ptr null, ptr %320, align 8, !noalias !21
  %321 = load ptr, ptr %288, align 8, !noalias !21
  store ptr %321, ptr %320, align 8, !noalias !21
  store ptr null, ptr %288, align 8, !noalias !21
  %322 = getelementptr inbounds i8, ptr %retval.0.i.i.i.i.i.i.i, i64 40
  %323 = load i8, ptr %289, align 8, !noalias !21
  %324 = and i8 %323, 1
  store i8 %324, ptr %322, align 8, !noalias !21
  %325 = getelementptr inbounds i8, ptr %retval.0.i.i.i.i.i.i.i, i64 48
  store ptr null, ptr %325, align 8, !noalias !21
  %326 = load ptr, ptr %290, align 8, !noalias !21
  store ptr %326, ptr %325, align 8, !noalias !21
  store ptr null, ptr %290, align 8, !noalias !21
  %started_.i281.i.i = getelementptr inbounds i8, ptr %retval.0.i.i.i.i.i.i.i, i64 112
  %327 = load i8, ptr %started_.i7.i.i.i, align 8, !noalias !21
  %328 = and i8 %327, 1
  %tobool.not.i283.i.i = icmp eq i8 %328, 0
  store i8 %328, ptr %started_.i281.i.i, align 8, !noalias !21
  br i1 %tobool.not.i283.i.i, label %"_ZZN9grpc_core12_GLOBAL__N_121MakeClientCallPromiseEPNS_9TransportENS_8CallArgsESt8functionIFNS_12ArenaPromiseISt10unique_ptrI19grpc_metadata_batchNS_5Arena13PooledDeleterEEEES3_EEEN3$_8D2Ev.exit.i.i", label %if.then.i284.i.i

if.then.i284.i.i:                                 ; preds = %"_ZN9grpc_core12ArenaPromiseISt10unique_ptrI19grpc_metadata_batchNS_5Arena13PooledDeleterEEEC2INS_14promise_detail3MapIZNS_12_GLOBAL__N_121MakeClientCallPromiseEPNS_9TransportENS_8CallArgsESt8functionIFS6_SD_EEE3$_7ZNSA_21MakeClientCallPromiseESC_SD_SG_E3$_8EEvEEOT_.exit.i.i"
  %329 = getelementptr inbounds i8, ptr %retval.0.i.i.i.i.i.i.i, i64 56
  %330 = getelementptr inbounds i8, ptr %ref.tmp116.i.i, i64 56
  %state.i.i.i.i.i285.i.i = getelementptr inbounds i8, ptr %retval.0.i.i.i.i.i.i.i, i64 104
  %state2.i.i.i.i.i286.i.i = getelementptr inbounds i8, ptr %ref.tmp116.i.i, i64 104
  %331 = load i8, ptr %state2.i.i.i.i.i286.i.i, align 8, !noalias !21
  store i8 %331, ptr %state.i.i.i.i.i285.i.i, align 8, !noalias !21
  switch i8 %331, label %tail0.i.i.i.i.i308.i.i [
    i8 0, label %sw.bb.i.i.i.i.i307.i.i
    i8 1, label %sw.bb5.i.i.i.i.i287.i.i
  ]

sw.bb.i.i.i.i.i307.i.i:                           ; preds = %if.then.i284.i.i
  store ptr null, ptr %329, align 8, !noalias !21
  %332 = load ptr, ptr %330, align 8, !noalias !21
  store ptr %332, ptr %329, align 8, !noalias !21
  store ptr null, ptr %330, align 8, !noalias !21
  %333 = getelementptr inbounds i8, ptr %retval.0.i.i.i.i.i.i.i, i64 64
  %334 = getelementptr inbounds i8, ptr %ref.tmp116.i.i, i64 64
  call void @llvm.memcpy.p0.p0.i64(ptr noundef nonnull align 8 dereferenceable(16) %333, ptr noundef nonnull align 8 dereferenceable(16) %334, i64 16, i1 false), !noalias !21
  br label %tail0.i.i.i.i.i308.i.i

sw.bb5.i.i.i.i.i287.i.i:                          ; preds = %if.then.i284.i.i
  %335 = load i8, ptr %330, align 8, !noalias !21
  %336 = and i8 %335, 1
  %tobool.not.i.i.i.i.i.i.i.i288.i.i = icmp eq i8 %336, 0
  store i8 %336, ptr %329, align 8, !noalias !21
  br i1 %tobool.not.i.i.i.i.i.i.i.i288.i.i, label %if.else.i.i.i.i.i.i.i.i300.i.i, label %if.then.i.i.i.i.i.i.i.i289.i.i

if.then.i.i.i.i.i.i.i.i289.i.i:                   ; preds = %sw.bb5.i.i.i.i.i287.i.i
  %337 = getelementptr inbounds i8, ptr %retval.0.i.i.i.i.i.i.i, i64 64
  %338 = getelementptr inbounds i8, ptr %ref.tmp116.i.i, i64 64
  store ptr null, ptr %337, align 8, !noalias !21
  %339 = load ptr, ptr %338, align 8, !noalias !21
  store ptr %339, ptr %337, align 8, !noalias !21
  store ptr null, ptr %338, align 8, !noalias !21
  %_M_index.i.i.i.i.i.i.i.i.i.i.i.i.i.i.i.i.i.i.i.i290.i.i = getelementptr inbounds i8, ptr %retval.0.i.i.i.i.i.i.i, i64 88
  store i8 -1, ptr %_M_index.i.i.i.i.i.i.i.i.i.i.i.i.i.i.i.i.i.i.i.i290.i.i, align 8, !noalias !21
  %_M_index.i.i.i.i.i.i.i.i.i.i.i.i.i.i.i.i.i.i.i.i.i291.i.i = getelementptr inbounds i8, ptr %ref.tmp116.i.i, i64 88
  %340 = load i8, ptr %_M_index.i.i.i.i.i.i.i.i.i.i.i.i.i.i.i.i.i.i.i.i.i291.i.i, align 8, !noalias !21
  %switch.i.i.i.i.i.i.i.i.i.i.i.i.i.i.i.i.i.i.i.i292.i.i = icmp eq i8 %340, 0
  br i1 %switch.i.i.i.i.i.i.i.i.i.i.i.i.i.i.i.i.i.i.i.i292.i.i, label %sw.bb.i.i.i.i.i.i.i.i.i.i.i.i.i.i.i.i.i.i.i.i295.i.i, label %"_ZN9grpc_core9ConstructINS_14promise_detail11PromiseLikeINS1_3MapINS_11pipe_detail4PushISt10unique_ptrINS_7MessageENS_5Arena13PooledDeleterEEEEZZZZNS_12_GLOBAL__N_122ConnectedChannelStream12RecvMessagesEPNS_10PipeSenderISA_EEbEN3$_0clEvENUlN4absl12lts_202308028StatusOrISt8optionalISA_EEEE_clESN_ENKUlvE_clEvEUlbE_EEvEEJSS_EEEvPT_DpOT0_.exit.i.i.i.i.i.i.i.i293.i.i"

sw.bb.i.i.i.i.i.i.i.i.i.i.i.i.i.i.i.i.i.i.i.i295.i.i: ; preds = %if.then.i.i.i.i.i.i.i.i289.i.i
  %state_3.i.i.i.i.i.i.i.i.i.i.i.i.i296.i.i = getelementptr inbounds i8, ptr %ref.tmp116.i.i, i64 72
  %state_.i.i.i.i.i.i.i.i.i.i.i.i.i297.i.i = getelementptr inbounds i8, ptr %retval.0.i.i.i.i.i.i.i, i64 72
  %341 = load i8, ptr %state_3.i.i.i.i.i.i.i.i.i.i.i.i.i296.i.i, align 8, !noalias !21
  store i8 %341, ptr %state_.i.i.i.i.i.i.i.i.i.i.i.i.i297.i.i, align 1, !noalias !21
  %342 = getelementptr inbounds i8, ptr %retval.0.i.i.i.i.i.i.i, i64 80
  %add.ptr.i.i.i.i.i.i.i.i.i.i.i.i.i.i.i.i.i.i.i.i.i.i.i.i.i.i.i.i.i.i.i.i298.i.i = getelementptr inbounds i8, ptr %ref.tmp116.i.i, i64 80
  %343 = load i64, ptr %add.ptr.i.i.i.i.i.i.i.i.i.i.i.i.i.i.i.i.i.i.i.i.i.i.i.i.i.i.i.i.i.i.i.i298.i.i, align 8, !noalias !21
  store i64 %343, ptr %342, align 8, !noalias !21
  store ptr null, ptr %add.ptr.i.i.i.i.i.i.i.i.i.i.i.i.i.i.i.i.i.i.i.i.i.i.i.i.i.i.i.i.i.i.i.i298.i.i, align 8, !noalias !21
  %.pre.i.i.i.i.i.i.i.i.i.i.i.i.i.i.i.i.i.i299.i.i = load i8, ptr %_M_index.i.i.i.i.i.i.i.i.i.i.i.i.i.i.i.i.i.i.i.i.i291.i.i, align 8, !noalias !21
  br label %"_ZN9grpc_core9ConstructINS_14promise_detail11PromiseLikeINS1_3MapINS_11pipe_detail4PushISt10unique_ptrINS_7MessageENS_5Arena13PooledDeleterEEEEZZZZNS_12_GLOBAL__N_122ConnectedChannelStream12RecvMessagesEPNS_10PipeSenderISA_EEbEN3$_0clEvENUlN4absl12lts_202308028StatusOrISt8optionalISA_EEEE_clESN_ENKUlvE_clEvEUlbE_EEvEEJSS_EEEvPT_DpOT0_.exit.i.i.i.i.i.i.i.i293.i.i"

"_ZN9grpc_core9ConstructINS_14promise_detail11PromiseLikeINS1_3MapINS_11pipe_detail4PushISt10unique_ptrINS_7MessageENS_5Arena13PooledDeleterEEEEZZZZNS_12_GLOBAL__N_122ConnectedChannelStream12RecvMessagesEPNS_10PipeSenderISA_EEbEN3$_0clEvENUlN4absl12lts_202308028StatusOrISt8optionalISA_EEEE_clESN_ENKUlvE_clEvEUlbE_EEvEEJSS_EEEvPT_DpOT0_.exit.i.i.i.i.i.i.i.i293.i.i": ; preds = %sw.bb.i.i.i.i.i.i.i.i.i.i.i.i.i.i.i.i.i.i.i.i295.i.i, %if.then.i.i.i.i.i.i.i.i289.i.i
  %344 = phi i8 [ %.pre.i.i.i.i.i.i.i.i.i.i.i.i.i.i.i.i.i.i299.i.i, %sw.bb.i.i.i.i.i.i.i.i.i.i.i.i.i.i.i.i.i.i.i.i295.i.i ], [ %340, %if.then.i.i.i.i.i.i.i.i289.i.i ]
  store i8 %344, ptr %_M_index.i.i.i.i.i.i.i.i.i.i.i.i.i.i.i.i.i.i.i.i290.i.i, align 8, !noalias !21
  br label %"_ZZN9grpc_core12_GLOBAL__N_121MakeClientCallPromiseEPNS_9TransportENS_8CallArgsESt8functionIFNS_12ArenaPromiseISt10unique_ptrI19grpc_metadata_batchNS_5Arena13PooledDeleterEEEES3_EEEN3$_8D2Ev.exit.i.i"

if.else.i.i.i.i.i.i.i.i300.i.i:                   ; preds = %sw.bb5.i.i.i.i.i287.i.i
  %_M_index.i.i.i.i.i.i.i.i.i.i.i.i.i.i.i.i.i.i301.i.i = getelementptr inbounds i8, ptr %retval.0.i.i.i.i.i.i.i, i64 72
  store i8 -1, ptr %_M_index.i.i.i.i.i.i.i.i.i.i.i.i.i.i.i.i.i.i301.i.i, align 8, !noalias !21
  %_M_index.i.i.i.i.i.i.i.i.i.i.i.i.i.i.i.i.i.i.i302.i.i = getelementptr inbounds i8, ptr %ref.tmp116.i.i, i64 72
  %345 = load i8, ptr %_M_index.i.i.i.i.i.i.i.i.i.i.i.i.i.i.i.i.i.i.i302.i.i, align 8, !noalias !21
  %switch.i.i.i.i.i.i.i.i.i.i.i.i.i.i.i.i.i.i303.i.i = icmp eq i8 %345, 1
  br i1 %switch.i.i.i.i.i.i.i.i.i.i.i.i.i.i.i.i.i.i303.i.i, label %sw.bb2.i.i.i.i.i.i.i.i.i.i.i.i.i.i.i.i.i.i305.i.i, label %_ZN9grpc_core9ConstructINS_14promise_detail11PromiseLikeINS1_9ImmediateISt7variantIJNS_8ContinueEN4absl12lts_202308026StatusEEEEEvEEJSB_EEEvPT_DpOT0_.exit.i.i.i.i.i.i.i.i304.i.i

sw.bb2.i.i.i.i.i.i.i.i.i.i.i.i.i.i.i.i.i.i305.i.i: ; preds = %if.else.i.i.i.i.i.i.i.i300.i.i
  %346 = getelementptr inbounds i8, ptr %ref.tmp116.i.i, i64 64
  %347 = getelementptr inbounds i8, ptr %retval.0.i.i.i.i.i.i.i, i64 64
  %348 = load i64, ptr %346, align 8, !noalias !21
  store i64 %348, ptr %347, align 8, !noalias !21
  store i64 54, ptr %346, align 8, !noalias !21
  %.pre.i.i.i.i.i.i.i.i.i.i.i.i.i.i.i.i306.i.i = load i8, ptr %_M_index.i.i.i.i.i.i.i.i.i.i.i.i.i.i.i.i.i.i.i302.i.i, align 8, !noalias !21
  br label %_ZN9grpc_core9ConstructINS_14promise_detail11PromiseLikeINS1_9ImmediateISt7variantIJNS_8ContinueEN4absl12lts_202308026StatusEEEEEvEEJSB_EEEvPT_DpOT0_.exit.i.i.i.i.i.i.i.i304.i.i

_ZN9grpc_core9ConstructINS_14promise_detail11PromiseLikeINS1_9ImmediateISt7variantIJNS_8ContinueEN4absl12lts_202308026StatusEEEEEvEEJSB_EEEvPT_DpOT0_.exit.i.i.i.i.i.i.i.i304.i.i: ; preds = %sw.bb2.i.i.i.i.i.i.i.i.i.i.i.i.i.i.i.i.i.i305.i.i, %if.else.i.i.i.i.i.i.i.i300.i.i
  %349 = phi i8 [ %.pre.i.i.i.i.i.i.i.i.i.i.i.i.i.i.i.i306.i.i, %sw.bb2.i.i.i.i.i.i.i.i.i.i.i.i.i.i.i.i.i.i305.i.i ], [ %345, %if.else.i.i.i.i.i.i.i.i300.i.i ]
  store i8 %349, ptr %_M_index.i.i.i.i.i.i.i.i.i.i.i.i.i.i.i.i.i.i301.i.i, align 8, !noalias !21
  br label %"_ZZN9grpc_core12_GLOBAL__N_121MakeClientCallPromiseEPNS_9TransportENS_8CallArgsESt8functionIFNS_12ArenaPromiseISt10unique_ptrI19grpc_metadata_batchNS_5Arena13PooledDeleterEEEES3_EEEN3$_8D2Ev.exit.i.i"

tail0.i.i.i.i.i308.i.i:                           ; preds = %sw.bb.i.i.i.i.i307.i.i, %if.then.i284.i.i
  %next_factory.i.i.i.i.i309.i.i = getelementptr inbounds i8, ptr %retval.0.i.i.i.i.i.i.i, i64 80
  %next_factory7.i.i.i.i.i310.i.i = getelementptr inbounds i8, ptr %ref.tmp116.i.i, i64 80
  call void @llvm.memcpy.p0.p0.i64(ptr noundef nonnull align 8 dereferenceable(16) %next_factory.i.i.i.i.i309.i.i, ptr noundef nonnull align 8 dereferenceable(16) %next_factory7.i.i.i.i.i310.i.i, i64 16, i1 false), !noalias !21
  br label %"_ZZN9grpc_core12_GLOBAL__N_121MakeClientCallPromiseEPNS_9TransportENS_8CallArgsESt8functionIFNS_12ArenaPromiseISt10unique_ptrI19grpc_metadata_batchNS_5Arena13PooledDeleterEEEES3_EEEN3$_8D2Ev.exit.i.i"

"_ZZN9grpc_core12_GLOBAL__N_121MakeClientCallPromiseEPNS_9TransportENS_8CallArgsESt8functionIFNS_12ArenaPromiseISt10unique_ptrI19grpc_metadata_batchNS_5Arena13PooledDeleterEEEES3_EEEN3$_8D2Ev.exit.i.i": ; preds = %tail0.i.i.i.i.i308.i.i, %_ZN9grpc_core9ConstructINS_14promise_detail11PromiseLikeINS1_9ImmediateISt7variantIJNS_8ContinueEN4absl12lts_202308026StatusEEEEEvEEJSB_EEEvPT_DpOT0_.exit.i.i.i.i.i.i.i.i304.i.i, %"_ZN9grpc_core9ConstructINS_14promise_detail11PromiseLikeINS1_3MapINS_11pipe_detail4PushISt10unique_ptrINS_7MessageENS_5Arena13PooledDeleterEEEEZZZZNS_12_GLOBAL__N_122ConnectedChannelStream12RecvMessagesEPNS_10PipeSenderISA_EEbEN3$_0clEvENUlN4absl12lts_202308028StatusOrISt8optionalISA_EEEE_clESN_ENKUlvE_clEvEUlbE_EEvEEJSS_EEEvPT_DpOT0_.exit.i.i.i.i.i.i.i.i293.i.i", %"_ZN9grpc_core12ArenaPromiseISt10unique_ptrI19grpc_metadata_batchNS_5Arena13PooledDeleterEEEC2INS_14promise_detail3MapIZNS_12_GLOBAL__N_121MakeClientCallPromiseEPNS_9TransportENS_8CallArgsESt8functionIFS6_SD_EEE3$_7ZNSA_21MakeClientCallPromiseESC_SD_SG_E3$_8EEvEEOT_.exit.i.i"
  %350 = getelementptr inbounds i8, ptr %retval.0.i.i.i.i.i.i.i, i64 120
  store ptr null, ptr %350, align 8, !noalias !21
  %351 = load ptr, ptr %307, align 8, !noalias !21
  store ptr %351, ptr %350, align 8, !noalias !21
  store ptr null, ptr %307, align 8, !noalias !21
  %352 = getelementptr inbounds i8, ptr %retval.0.i.i.i.i.i.i.i, i64 128
  call void @llvm.memcpy.p0.p0.i64(ptr noundef nonnull align 8 dereferenceable(16) %352, ptr noundef nonnull align 8 dereferenceable(16) %308, i64 16, i1 false), !noalias !21
  %353 = getelementptr inbounds i8, ptr %retval.0.i.i.i.i.i.i.i, i64 152
  call void @llvm.memcpy.p0.p0.i64(ptr noundef nonnull align 8 dereferenceable(3) %353, ptr noundef nonnull align 8 dereferenceable(3) %309, i64 3, i1 false), !noalias !21
  %fn_.i.i.i.i.i.i.i.i = getelementptr inbounds i8, ptr %retval.0.i.i.i.i.i.i.i, i64 160
  %__u.val.i.i.i.i.i.i.i.i.i.i.i.i = load i64, ptr %fn_.i.i.i.i, align 8, !noalias !21
  store i64 %__u.val.i.i.i.i.i.i.i.i.i.i.i.i, ptr %fn_.i.i.i.i.i.i.i.i, align 8, !noalias !21
  store ptr %retval.0.i.i.i.i.i.i.i, ptr %arg.i.i.i, align 16, !alias.scope !21
  store ptr null, ptr %fn_.i.i.i.i, align 8, !noalias !21
  call fastcc void @"_ZZN9grpc_core12_GLOBAL__N_121MakeClientCallPromiseEPNS_9TransportENS_8CallArgsESt8functionIFNS_12ArenaPromiseISt10unique_ptrI19grpc_metadata_batchNS_5Arena13PooledDeleterEEEES3_EEEN3$_7D2Ev"(ptr noundef nonnull align 8 dereferenceable(155) %ref.tmp116.i.i) #23, !noalias !21
  store ptr null, ptr %agg.tmp118.i.i, align 8, !noalias !21
  call fastcc void @"_ZZN9grpc_core12_GLOBAL__N_121MakeClientCallPromiseEPNS_9TransportENS_8CallArgsESt8functionIFNS_12ArenaPromiseISt10unique_ptrI19grpc_metadata_batchNS_5Arena13PooledDeleterEEEES3_EEEN3$_7D2Ev"(ptr noundef nonnull align 8 dereferenceable(155) %agg.tmp117.i.i) #23, !noalias !21
  %354 = load i8, ptr %started_3.i.i.i, align 8, !noalias !21
  %355 = and i8 %354, 1
  %tobool.not.i245.i.i = icmp eq i8 %355, 0
  br i1 %tobool.not.i245.i.i, label %if.end.i.i.i, label %if.then.i246.i.i

if.then.i246.i.i:                                 ; preds = %"_ZZN9grpc_core12_GLOBAL__N_121MakeClientCallPromiseEPNS_9TransportENS_8CallArgsESt8functionIFNS_12ArenaPromiseISt10unique_ptrI19grpc_metadata_batchNS_5Arena13PooledDeleterEEEES3_EEEN3$_8D2Ev.exit.i.i"
  %356 = getelementptr inbounds i8, ptr %recv_messages.i.i, i64 24
  call fastcc void @"_ZN9grpc_core14promise_detail3SeqIZNS_12BatchBuilder5Batch8RefUntilINS0_3MapIZNS_5LatchIN4absl12lts_202308026StatusEE4WaitEvEUlvE_ZNS2_14ReceiveMessageENS2_6TargetEEUlS9_E_EEEEDaT_EUlvE_JZZNS_12_GLOBAL__N_122ConnectedChannelStream12RecvMessagesEPNS_10PipeSenderISt10unique_ptrINS_7MessageENS_5Arena13PooledDeleterEEEEbEN3$_0clEvEUlNS8_8StatusOrISt8optionalISO_EEEE_EED2Ev"(ptr noundef nonnull align 8 dereferenceable(56) %356) #23, !noalias !21
  br label %if.end.i.i.i

if.end.i.i.i:                                     ; preds = %if.then.i246.i.i, %"_ZZN9grpc_core12_GLOBAL__N_121MakeClientCallPromiseEPNS_9TransportENS_8CallArgsESt8functionIFNS_12ArenaPromiseISt10unique_ptrI19grpc_metadata_batchNS_5Arena13PooledDeleterEEEES3_EEEN3$_8D2Ev.exit.i.i"
  call void @_ZN9grpc_core10PipeSenderISt10unique_ptrINS_7MessageENS_5Arena13PooledDeleterEEED2Ev(ptr noundef nonnull align 8 dereferenceable(8) %227) #23, !noalias !21
  %this.val.i.i.i.i.i = load ptr, ptr %recv_messages.i.i, align 8, !noalias !21
  %cmp.not.i.i.i.i247.i.i = icmp eq ptr %this.val.i.i.i.i.i, null
  br i1 %cmp.not.i.i.i.i247.i.i, label %"_ZN9grpc_core14promise_detail3MapIZNS_12BatchBuilder5Batch8RefUntilINS1_IZNS_5LatchIN4absl12lts_202308026StatusEE4WaitEvEUlvE_ZNS2_23ReceiveTrailingMetadataENS2_6TargetEEUlS8_E_EEEEDaT_EUlvE_ZNS_12_GLOBAL__N_121MakeClientCallPromiseEPNS_9TransportENS_8CallArgsESt8functionIFNS_12ArenaPromiseISt10unique_ptrI19grpc_metadata_batchNS_5Arena13PooledDeleterEEEESJ_EEE3$_6ED2Ev.exit.i.i", label %if.then.i.i.i.i248.i.i

if.then.i.i.i.i248.i.i:                           ; preds = %if.end.i.i.i
  %stream_refcount_.i.i.i.i.i.i.i = getelementptr inbounds i8, ptr %this.val.i.i.i.i.i, i64 56
  %357 = atomicrmw sub ptr %stream_refcount_.i.i.i.i.i.i.i, i64 1 acq_rel, align 8, !noalias !21
  %cmp.i.i.i.i.i.i.i249.i.i = icmp eq i64 %357, 1
  br i1 %cmp.i.i.i.i.i.i.i249.i.i, label %if.then.i.i.i.i.i.i250.i.i, label %"_ZN9grpc_core14promise_detail3MapIZNS_12BatchBuilder5Batch8RefUntilINS1_IZNS_5LatchIN4absl12lts_202308026StatusEE4WaitEvEUlvE_ZNS2_23ReceiveTrailingMetadataENS2_6TargetEEUlS8_E_EEEEDaT_EUlvE_ZNS_12_GLOBAL__N_121MakeClientCallPromiseEPNS_9TransportENS_8CallArgsESt8functionIFNS_12ArenaPromiseISt10unique_ptrI19grpc_metadata_batchNS_5Arena13PooledDeleterEEEESJ_EEE3$_6ED2Ev.exit.i.i"

if.then.i.i.i.i.i.i250.i.i:                       ; preds = %if.then.i.i.i.i248.i.i
  invoke void @_Z19grpc_stream_destroyP20grpc_stream_refcount(ptr noundef nonnull %stream_refcount_.i.i.i.i.i.i.i)
          to label %"_ZN9grpc_core14promise_detail3MapIZNS_12BatchBuilder5Batch8RefUntilINS1_IZNS_5LatchIN4absl12lts_202308026StatusEE4WaitEvEUlvE_ZNS2_23ReceiveTrailingMetadataENS2_6TargetEEUlS8_E_EEEEDaT_EUlvE_ZNS_12_GLOBAL__N_121MakeClientCallPromiseEPNS_9TransportENS_8CallArgsESt8functionIFNS_12ArenaPromiseISt10unique_ptrI19grpc_metadata_batchNS_5Arena13PooledDeleterEEEESJ_EEE3$_6ED2Ev.exit.i.i" unwind label %terminate.lpad.i.i.i.i.i.i, !noalias !21

terminate.lpad.i.i.i.i.i.i:                       ; preds = %if.then.i.i.i.i.i.i250.i.i
  %358 = landingpad { ptr, i32 }
          catch ptr null
  %359 = extractvalue { ptr, i32 } %358, 0
  call void @__clang_call_terminate(ptr %359) #24
  unreachable

"_ZN9grpc_core14promise_detail3MapIZNS_12BatchBuilder5Batch8RefUntilINS1_IZNS_5LatchIN4absl12lts_202308026StatusEE4WaitEvEUlvE_ZNS2_23ReceiveTrailingMetadataENS2_6TargetEEUlS8_E_EEEEDaT_EUlvE_ZNS_12_GLOBAL__N_121MakeClientCallPromiseEPNS_9TransportENS_8CallArgsESt8functionIFNS_12ArenaPromiseISt10unique_ptrI19grpc_metadata_batchNS_5Arena13PooledDeleterEEEESJ_EEE3$_6ED2Ev.exit.i.i": ; preds = %if.then.i.i.i.i.i.i250.i.i, %if.then.i.i.i.i248.i.i, %if.end.i.i.i
  %360 = load ptr, ptr %213, align 8, !noalias !21
  %cmp.not.i256.i.i = icmp eq ptr %360, null
  br i1 %cmp.not.i256.i.i, label %_ZNSt10unique_ptrI19grpc_metadata_batchN9grpc_core5Arena13PooledDeleterEED2Ev.exit261.i.i, label %if.then.i257.i.i

if.then.i257.i.i:                                 ; preds = %"_ZN9grpc_core14promise_detail3MapIZNS_12BatchBuilder5Batch8RefUntilINS1_IZNS_5LatchIN4absl12lts_202308026StatusEE4WaitEvEUlvE_ZNS2_23ReceiveTrailingMetadataENS2_6TargetEEUlS8_E_EEEEDaT_EUlvE_ZNS_12_GLOBAL__N_121MakeClientCallPromiseEPNS_9TransportENS_8CallArgsESt8functionIFNS_12ArenaPromiseISt10unique_ptrI19grpc_metadata_batchNS_5Arena13PooledDeleterEEEESJ_EEE3$_6ED2Ev.exit.i.i"
  %361 = load i8, ptr %server_trailing_metadata.i.i, align 8, !noalias !21
  %362 = and i8 %361, 1
  %tobool.not.i.i258.i.i = icmp eq i8 %362, 0
  br i1 %tobool.not.i.i258.i.i, label %_ZNSt10unique_ptrI19grpc_metadata_batchN9grpc_core5Arena13PooledDeleterEED2Ev.exit261.i.i, label %delete.notnull.i.i259.i.i

delete.notnull.i.i259.i.i:                        ; preds = %if.then.i257.i.i
  call void @_ZN9grpc_core11MetadataMapI19grpc_metadata_batchJNS_16HttpPathMetadataENS_21HttpAuthorityMetadataENS_18HttpMethodMetadataENS_18HttpStatusMetadataENS_18HttpSchemeMetadataENS_19ContentTypeMetadataENS_10TeMetadataENS_20GrpcEncodingMetadataENS_27GrpcInternalEncodingRequestENS_26GrpcAcceptEncodingMetadataENS_18GrpcStatusMetadataENS_19GrpcTimeoutMetadataENS_31GrpcPreviousRpcAttemptsMetadataENS_27GrpcRetryPushbackMsMetadataENS_17UserAgentMetadataENS_19GrpcMessageMetadataENS_12HostMetadataENS_30EndpointLoadMetricsBinMetadataENS_26GrpcServerStatsBinMetadataENS_20GrpcTraceBinMetadataENS_19GrpcTagsBinMetadataENS_25GrpcLbClientStatsMetadataENS_17LbCostBinMetadataENS_15LbTokenMetadataENS_18XEnvoyPeerMetadataENS_22GrpcStreamNetworkStateENS_10PeerStringENS_17GrpcStatusContextENS_18GrpcStatusFromWireENS_20GrpcCallWasCancelledENS_12WaitForReadyENS_16GrpcTrailersOnlyENS_10GrpcTarPitENS_20GrpcRegisteredMethodEEED2Ev(ptr noundef nonnull align 8 dereferenceable(568) %360) #23, !noalias !21
  call void @_ZdlPv(ptr noundef nonnull %360) #26, !noalias !21
  br label %_ZNSt10unique_ptrI19grpc_metadata_batchN9grpc_core5Arena13PooledDeleterEED2Ev.exit261.i.i

_ZNSt10unique_ptrI19grpc_metadata_batchN9grpc_core5Arena13PooledDeleterEED2Ev.exit261.i.i: ; preds = %delete.notnull.i.i259.i.i, %if.then.i257.i.i, %"_ZN9grpc_core14promise_detail3MapIZNS_12BatchBuilder5Batch8RefUntilINS1_IZNS_5LatchIN4absl12lts_202308026StatusEE4WaitEvEUlvE_ZNS2_23ReceiveTrailingMetadataENS2_6TargetEEUlS8_E_EEEEDaT_EUlvE_ZNS_12_GLOBAL__N_121MakeClientCallPromiseEPNS_9TransportENS_8CallArgsESt8functionIFNS_12ArenaPromiseISt10unique_ptrI19grpc_metadata_batchNS_5Arena13PooledDeleterEEEESJ_EEE3$_6ED2Ev.exit.i.i"
  store ptr null, ptr %213, align 8, !noalias !21
  call fastcc void @"_ZN9grpc_core14promise_detail3SeqIZNS_12BatchBuilder5Batch8RefUntilIZNS_5LatchIN4absl12lts_202308026StatusEE11WaitAndCopyEvEUlvE_EEDaT_EUlvE_JZNS_12_GLOBAL__N_121MakeClientCallPromiseEPNS_9TransportENS_8CallArgsESt8functionIFNS_12ArenaPromiseISt10unique_ptrI19grpc_metadata_batchNS_5Arena13PooledDeleterEEEESG_EEE3$_1EED2Ev"(ptr noundef nonnull align 8 dereferenceable(32) %send_initial_metadata.i.i) #23, !noalias !21
  %363 = load ptr, ptr %175, align 8, !noalias !21
  %cmp.not.i263.i.i = icmp eq ptr %363, null
  br i1 %cmp.not.i263.i.i, label %_ZNSt10unique_ptrI19grpc_metadata_batchN9grpc_core5Arena13PooledDeleterEED2Ev.exit268.i.i, label %if.then.i264.i.i

if.then.i264.i.i:                                 ; preds = %_ZNSt10unique_ptrI19grpc_metadata_batchN9grpc_core5Arena13PooledDeleterEED2Ev.exit261.i.i
  %364 = load i8, ptr %server_initial_metadata.i.i, align 8, !noalias !21
  %365 = and i8 %364, 1
  %tobool.not.i.i265.i.i = icmp eq i8 %365, 0
  br i1 %tobool.not.i.i265.i.i, label %_ZNSt10unique_ptrI19grpc_metadata_batchN9grpc_core5Arena13PooledDeleterEED2Ev.exit268.i.i, label %delete.notnull.i.i266.i.i

delete.notnull.i.i266.i.i:                        ; preds = %if.then.i264.i.i
  call void @_ZN9grpc_core11MetadataMapI19grpc_metadata_batchJNS_16HttpPathMetadataENS_21HttpAuthorityMetadataENS_18HttpMethodMetadataENS_18HttpStatusMetadataENS_18HttpSchemeMetadataENS_19ContentTypeMetadataENS_10TeMetadataENS_20GrpcEncodingMetadataENS_27GrpcInternalEncodingRequestENS_26GrpcAcceptEncodingMetadataENS_18GrpcStatusMetadataENS_19GrpcTimeoutMetadataENS_31GrpcPreviousRpcAttemptsMetadataENS_27GrpcRetryPushbackMsMetadataENS_17UserAgentMetadataENS_19GrpcMessageMetadataENS_12HostMetadataENS_30EndpointLoadMetricsBinMetadataENS_26GrpcServerStatsBinMetadataENS_20GrpcTraceBinMetadataENS_19GrpcTagsBinMetadataENS_25GrpcLbClientStatsMetadataENS_17LbCostBinMetadataENS_15LbTokenMetadataENS_18XEnvoyPeerMetadataENS_22GrpcStreamNetworkStateENS_10PeerStringENS_17GrpcStatusContextENS_18GrpcStatusFromWireENS_20GrpcCallWasCancelledENS_12WaitForReadyENS_16GrpcTrailersOnlyENS_10GrpcTarPitENS_20GrpcRegisteredMethodEEED2Ev(ptr noundef nonnull align 8 dereferenceable(568) %363) #23, !noalias !21
  call void @_ZdlPv(ptr noundef nonnull %363) #26, !noalias !21
  br label %_ZNSt10unique_ptrI19grpc_metadata_batchN9grpc_core5Arena13PooledDeleterEED2Ev.exit268.i.i

_ZNSt10unique_ptrI19grpc_metadata_batchN9grpc_core5Arena13PooledDeleterEED2Ev.exit268.i.i: ; preds = %delete.notnull.i.i266.i.i, %if.then.i264.i.i, %_ZNSt10unique_ptrI19grpc_metadata_batchN9grpc_core5Arena13PooledDeleterEED2Ev.exit261.i.i
  store ptr null, ptr %175, align 8, !noalias !21
  %366 = load ptr, ptr %stream.i.i, align 8, !noalias !21
  %cmp.not.i269.i.i = icmp eq ptr %366, null
  br i1 %cmp.not.i269.i.i, label %invoke.cont.i, label %if.then.i270.i.i

if.then.i270.i.i:                                 ; preds = %_ZNSt10unique_ptrI19grpc_metadata_batchN9grpc_core5Arena13PooledDeleterEED2Ev.exit268.i.i
  invoke void @_ZN9grpc_core12_GLOBAL__N_122ConnectedChannelStream6OrphanEv(ptr noundef nonnull align 8 dereferenceable(132) %366)
          to label %invoke.cont.i unwind label %terminate.lpad.i.i.i, !noalias !21

terminate.lpad.i.i.i:                             ; preds = %if.then.i270.i.i
  %367 = landingpad { ptr, i32 }
          catch ptr null
  %368 = extractvalue { ptr, i32 } %367, 0
  call void @__clang_call_terminate(ptr %368) #24
  unreachable

lpad.i.i:                                         ; preds = %invoke.cont56.i.i, %if.then.i67.invoke.i.i, %25, %invoke.cont23.i.i, %_ZN9grpc_core12_GLOBAL__N_122ConnectedChannelStream9SetStreamEP11grpc_stream.exit.i.i, %if.else.i.i.i, %invoke.cont4.i.i, %invoke.cont.i.i
  %369 = landingpad { ptr, i32 }
          cleanup
  br label %ehcleanup131.i.i

lpad62.i.i:                                       ; preds = %if.then.i146.invoke.i.i, %invoke.cont63.i.i
  %370 = landingpad { ptr, i32 }
          cleanup
  br label %ehcleanup130.i.i

lpad94.i.i:                                       ; preds = %invoke.cont98.i.i, %if.then.i180.i.i
  %371 = landingpad { ptr, i32 }
          cleanup
  br label %ehcleanup129.i.i

lpad102.i.i:                                      ; preds = %invoke.cont103.i.i, %if.then.i193.i.i
  %372 = landingpad { ptr, i32 }
          cleanup
  br label %ehcleanup128.i.i

lpad121.i.i:                                      ; preds = %if.else.i.i.i.i.i.i.i, %if.then.i.i.i.i236.i.i
  %373 = landingpad { ptr, i32 }
          cleanup
  call fastcc void @"_ZN9grpc_core14promise_detail3MapIZNS_12_GLOBAL__N_121MakeClientCallPromiseEPNS_9TransportENS_8CallArgsESt8functionIFNS_12ArenaPromiseISt10unique_ptrI19grpc_metadata_batchNS_5Arena13PooledDeleterEEEES5_EEE3$_7ZNS2_21MakeClientCallPromiseES4_S5_SF_E3$_8ED2Ev"(ptr noundef nonnull align 8 dereferenceable(168) %ref.tmp116.i.i) #23, !noalias !21
  call fastcc void @"_ZZN9grpc_core12_GLOBAL__N_121MakeClientCallPromiseEPNS_9TransportENS_8CallArgsESt8functionIFNS_12ArenaPromiseISt10unique_ptrI19grpc_metadata_batchNS_5Arena13PooledDeleterEEEES3_EEEN3$_8D2Ev"(ptr noundef nonnull align 8 dereferenceable(8) %agg.tmp118.i.i) #23, !noalias !21
  call fastcc void @"_ZZN9grpc_core12_GLOBAL__N_121MakeClientCallPromiseEPNS_9TransportENS_8CallArgsESt8functionIFNS_12ArenaPromiseISt10unique_ptrI19grpc_metadata_batchNS_5Arena13PooledDeleterEEEES3_EEEN3$_7D2Ev"(ptr noundef nonnull align 8 dereferenceable(155) %agg.tmp117.i.i) #23, !noalias !21
  call fastcc void @"_ZN9grpc_core14promise_detail4LoopIZNS_12_GLOBAL__N_122ConnectedChannelStream12RecvMessagesEPNS_10PipeSenderISt10unique_ptrINS_7MessageENS_5Arena13PooledDeleterEEEEbE3$_0ED2Ev"(ptr noundef nonnull align 8 dereferenceable(81) %recv_messages.i.i) #23, !noalias !21
  br label %ehcleanup128.i.i

ehcleanup128.i.i:                                 ; preds = %lpad121.i.i, %lpad102.i.i
  %.pn9.pn.pn.i.i = phi { ptr, i32 } [ %373, %lpad121.i.i ], [ %372, %lpad102.i.i ]
  call void @_ZNSt10unique_ptrI19grpc_metadata_batchN9grpc_core5Arena13PooledDeleterEED2Ev(ptr noundef nonnull align 8 dereferenceable(16) %server_trailing_metadata.i.i) #23, !noalias !21
  br label %ehcleanup129.i.i

ehcleanup129.i.i:                                 ; preds = %ehcleanup128.i.i, %lpad94.i.i
  %.pn9.pn.pn.pn.i.i = phi { ptr, i32 } [ %.pn9.pn.pn.i.i, %ehcleanup128.i.i ], [ %371, %lpad94.i.i ]
  call fastcc void @"_ZN9grpc_core14promise_detail3SeqIZNS_12BatchBuilder5Batch8RefUntilIZNS_5LatchIN4absl12lts_202308026StatusEE11WaitAndCopyEvEUlvE_EEDaT_EUlvE_JZNS_12_GLOBAL__N_121MakeClientCallPromiseEPNS_9TransportENS_8CallArgsESt8functionIFNS_12ArenaPromiseISt10unique_ptrI19grpc_metadata_batchNS_5Arena13PooledDeleterEEEESG_EEE3$_1EED2Ev"(ptr noundef nonnull align 8 dereferenceable(32) %send_initial_metadata.i.i) #23, !noalias !21
  br label %ehcleanup130.i.i

ehcleanup130.i.i:                                 ; preds = %ehcleanup129.i.i, %lpad62.i.i, %lpad.i156.i.i, %lpad.i95.i.i
  %.pn9.pn.pn.pn.pn.i.i = phi { ptr, i32 } [ %.pn9.pn.pn.pn.i.i, %ehcleanup129.i.i ], [ %206, %lpad.i156.i.i ], [ %370, %lpad62.i.i ], [ %191, %lpad.i95.i.i ]
  call void @_ZNSt10unique_ptrI19grpc_metadata_batchN9grpc_core5Arena13PooledDeleterEED2Ev(ptr noundef nonnull align 8 dereferenceable(16) %server_initial_metadata.i.i) #23, !noalias !21
  br label %ehcleanup131.i.i

ehcleanup131.i.i:                                 ; preds = %ehcleanup130.i.i, %lpad.i.i, %lpad.i48.i.i, %lpad.i.i.i
  %.pn9.pn.pn.pn.pn.pn.i.i = phi { ptr, i32 } [ %.pn9.pn.pn.pn.pn.i.i, %ehcleanup130.i.i ], [ %369, %lpad.i.i ], [ %167, %lpad.i48.i.i ], [ %34, %lpad.i.i.i ]
  call fastcc void @_ZNSt10unique_ptrIN9grpc_core12_GLOBAL__N_122ConnectedChannelStreamENS0_16OrphanableDeleteEED2Ev(ptr noundef nonnull align 8 dereferenceable(8) %stream.i.i) #23, !noalias !21
  br label %lpad.body.i

invoke.cont.i:                                    ; preds = %if.then.i270.i.i, %_ZNSt10unique_ptrI19grpc_metadata_batchN9grpc_core5Arena13PooledDeleterEED2Ev.exit268.i.i
  call void @llvm.lifetime.end.p0(i64 8, ptr nonnull %transport.addr.i.i), !noalias !15
  call void @llvm.lifetime.end.p0(i64 8, ptr nonnull %stream.i.i), !noalias !15
  call void @llvm.lifetime.end.p0(i64 96, ptr nonnull %agg.tmp40.i.i), !noalias !15
  call void @llvm.lifetime.end.p0(i64 80, ptr nonnull %agg.tmp41.i.i), !noalias !15
  call void @llvm.lifetime.end.p0(i64 16, ptr nonnull %server_initial_metadata.i.i), !noalias !15
  call void @llvm.lifetime.end.p0(i64 48, ptr nonnull %agg.tmp60.i.i), !noalias !15
  call void @llvm.lifetime.end.p0(i64 24, ptr nonnull %agg.tmp61.i.i), !noalias !15
  call void @llvm.lifetime.end.p0(i64 32, ptr nonnull %send_initial_metadata.i.i), !noalias !15
  call void @llvm.lifetime.end.p0(i64 16, ptr nonnull %agg.tmp79.i.i), !noalias !15
  call void @llvm.lifetime.end.p0(i64 16, ptr nonnull %agg.tmp85.i.i), !noalias !15
  call void @llvm.lifetime.end.p0(i64 16, ptr nonnull %server_trailing_metadata.i.i), !noalias !15
  call void @llvm.lifetime.end.p0(i64 16, ptr nonnull %recv_trailing_metadata.sroa.5.i.i)
  call void @llvm.lifetime.end.p0(i64 24, ptr nonnull %agg.tmp101.i.i), !noalias !15
  call void @llvm.lifetime.end.p0(i64 88, ptr nonnull %recv_messages.i.i), !noalias !15
  call void @llvm.lifetime.end.p0(i64 168, ptr nonnull %ref.tmp116.i.i), !noalias !15
  call void @llvm.lifetime.end.p0(i64 160, ptr nonnull %agg.tmp117.i.i), !noalias !15
  call void @llvm.lifetime.end.p0(i64 8, ptr nonnull %agg.tmp118.i.i), !noalias !15
  %_M_manager.i.i5.i = getelementptr inbounds i8, ptr %agg.tmp3.i, i64 16
  %374 = load ptr, ptr %_M_manager.i.i5.i, align 8, !noalias !15
  %tobool.not.i.i6.i = icmp eq ptr %374, null
  br i1 %tobool.not.i.i6.i, label %_ZNSt8functionIFN9grpc_core12ArenaPromiseISt10unique_ptrI19grpc_metadata_batchNS0_5Arena13PooledDeleterEEEENS0_8CallArgsEEED2Ev.exit.i, label %if.then.i.i7.i

if.then.i.i7.i:                                   ; preds = %invoke.cont.i
  %call.i.i.i = invoke noundef zeroext i1 %374(ptr noundef nonnull align 8 dereferenceable(16) %agg.tmp3.i, ptr noundef nonnull align 8 dereferenceable(16) %agg.tmp3.i, i32 noundef 3)
          to label %_ZNSt8functionIFN9grpc_core12ArenaPromiseISt10unique_ptrI19grpc_metadata_batchNS0_5Arena13PooledDeleterEEEENS0_8CallArgsEEED2Ev.exit.i unwind label %terminate.lpad.i.i8.i, !noalias !15

terminate.lpad.i.i8.i:                            ; preds = %if.then.i.i7.i
  %375 = landingpad { ptr, i32 }
          catch ptr null
  %376 = extractvalue { ptr, i32 } %375, 0
  call void @__clang_call_terminate(ptr %376) #24
  unreachable

_ZNSt8functionIFN9grpc_core12ArenaPromiseISt10unique_ptrI19grpc_metadata_batchNS0_5Arena13PooledDeleterEEEENS0_8CallArgsEEED2Ev.exit.i: ; preds = %if.then.i.i7.i, %invoke.cont.i
  %377 = load ptr, ptr %client_initial_metadata_outstanding.i.i, align 8, !noalias !15
  %cmp.not.i.i10.i = icmp eq ptr %377, null
  br i1 %cmp.not.i.i10.i, label %_ZN9grpc_core37ClientInitialMetadataOutstandingTokenD2Ev.exit.i.i, label %if.then.i.i11.i

if.then.i.i11.i:                                  ; preds = %_ZNSt8functionIFN9grpc_core12ArenaPromiseISt10unique_ptrI19grpc_metadata_batchNS0_5Arena13PooledDeleterEEEENS0_8CallArgsEEED2Ev.exit.i
  store i8 0, ptr %377, align 2, !noalias !15
  %has_value_.i.i.i.i = getelementptr inbounds i8, ptr %377, i64 1
  store i8 1, ptr %has_value_.i.i.i.i, align 1, !noalias !15
  %waiter_.i.i.i.i = getelementptr inbounds i8, ptr %377, i64 2
  %378 = load i16, ptr %waiter_.i.i.i.i, align 2, !noalias !15
  %cmp.i.i.i.i12.i = icmp eq i16 %378, 0
  br i1 %cmp.i.i.i.i12.i, label %_ZN9grpc_core37ClientInitialMetadataOutstandingTokenD2Ev.exit.i.i, label %if.end.i.i.i.i.i

if.end.i.i.i.i.i:                                 ; preds = %if.then.i.i11.i
  br i1 icmp ne (ptr @_ZTHN9grpc_core8Activity19g_current_activity_E, ptr null), label %379, label %_ZN9grpc_core8Activity7currentEv.exit.i.i.i.i.i

379:                                              ; preds = %if.end.i.i.i.i.i
  invoke void @_ZTHN9grpc_core8Activity19g_current_activity_E()
          to label %.noexc.i.i.i unwind label %terminate.lpad.i.i13.i, !noalias !15

.noexc.i.i.i:                                     ; preds = %379
  %.pre.i.i.i.i.i = load i16, ptr %waiter_.i.i.i.i, align 2, !noalias !15
  br label %_ZN9grpc_core8Activity7currentEv.exit.i.i.i.i.i

_ZN9grpc_core8Activity7currentEv.exit.i.i.i.i.i:  ; preds = %.noexc.i.i.i, %if.end.i.i.i.i.i
  %380 = phi i16 [ %378, %if.end.i.i.i.i.i ], [ %.pre.i.i.i.i.i, %.noexc.i.i.i ]
  %381 = load ptr, ptr %26, align 8, !noalias !15
  store i16 0, ptr %waiter_.i.i.i.i, align 2, !noalias !15
  %vtable.i.i.i.i.i = load ptr, ptr %381, align 8, !noalias !15
  %vfn.i.i.i.i.i = getelementptr inbounds i8, ptr %vtable.i.i.i.i.i, i64 24
  %382 = load ptr, ptr %vfn.i.i.i.i.i, align 8, !noalias !15
  invoke void %382(ptr noundef nonnull align 8 dereferenceable(8) %381, i16 noundef zeroext %380)
          to label %_ZN9grpc_core37ClientInitialMetadataOutstandingTokenD2Ev.exit.i.i unwind label %terminate.lpad.i.i13.i, !noalias !15

terminate.lpad.i.i13.i:                           ; preds = %_ZN9grpc_core8Activity7currentEv.exit.i.i.i.i.i, %379
  %383 = landingpad { ptr, i32 }
          catch ptr null
  %384 = extractvalue { ptr, i32 } %383, 0
  call void @__clang_call_terminate(ptr %384) #24
  unreachable

_ZN9grpc_core37ClientInitialMetadataOutstandingTokenD2Ev.exit.i.i: ; preds = %_ZN9grpc_core8Activity7currentEv.exit.i.i.i.i.i, %if.then.i.i11.i, %_ZNSt8functionIFN9grpc_core12ArenaPromiseISt10unique_ptrI19grpc_metadata_batchNS0_5Arena13PooledDeleterEEEENS0_8CallArgsEEED2Ev.exit.i
  %385 = load ptr, ptr %2, align 8, !noalias !15
  %cmp.not.i1.i.i = icmp eq ptr %385, null
  br i1 %cmp.not.i1.i.i, label %_ZZN9grpc_core12_GLOBAL__N_119MakeConnectedFilterIXadL_ZNS0_21MakeClientCallPromiseEPNS_9TransportENS_8CallArgsESt8functionIFNS_12ArenaPromiseISt10unique_ptrI19grpc_metadata_batchNS_5Arena13PooledDeleterEEEES4_EEEEEE19grpc_channel_filtervENKUlP20grpc_channel_elementS4_SE_E_clESH_S4_SE_.exit, label %if.then.i2.i.i

if.then.i2.i.i:                                   ; preds = %_ZN9grpc_core37ClientInitialMetadataOutstandingTokenD2Ev.exit.i.i
  %386 = load i8, ptr %agg.tmp.i, align 8, !noalias !15
  %387 = and i8 %386, 1
  %tobool.not.i.i.i.i = icmp eq i8 %387, 0
  br i1 %tobool.not.i.i.i.i, label %_ZZN9grpc_core12_GLOBAL__N_119MakeConnectedFilterIXadL_ZNS0_21MakeClientCallPromiseEPNS_9TransportENS_8CallArgsESt8functionIFNS_12ArenaPromiseISt10unique_ptrI19grpc_metadata_batchNS_5Arena13PooledDeleterEEEES4_EEEEEE19grpc_channel_filtervENKUlP20grpc_channel_elementS4_SE_E_clESH_S4_SE_.exit, label %delete.notnull.i.i.i.i

delete.notnull.i.i.i.i:                           ; preds = %if.then.i2.i.i
  call void @_ZN9grpc_core11MetadataMapI19grpc_metadata_batchJNS_16HttpPathMetadataENS_21HttpAuthorityMetadataENS_18HttpMethodMetadataENS_18HttpStatusMetadataENS_18HttpSchemeMetadataENS_19ContentTypeMetadataENS_10TeMetadataENS_20GrpcEncodingMetadataENS_27GrpcInternalEncodingRequestENS_26GrpcAcceptEncodingMetadataENS_18GrpcStatusMetadataENS_19GrpcTimeoutMetadataENS_31GrpcPreviousRpcAttemptsMetadataENS_27GrpcRetryPushbackMsMetadataENS_17UserAgentMetadataENS_19GrpcMessageMetadataENS_12HostMetadataENS_30EndpointLoadMetricsBinMetadataENS_26GrpcServerStatsBinMetadataENS_20GrpcTraceBinMetadataENS_19GrpcTagsBinMetadataENS_25GrpcLbClientStatsMetadataENS_17LbCostBinMetadataENS_15LbTokenMetadataENS_18XEnvoyPeerMetadataENS_22GrpcStreamNetworkStateENS_10PeerStringENS_17GrpcStatusContextENS_18GrpcStatusFromWireENS_20GrpcCallWasCancelledENS_12WaitForReadyENS_16GrpcTrailersOnlyENS_10GrpcTarPitENS_20GrpcRegisteredMethodEEED2Ev(ptr noundef nonnull align 8 dereferenceable(568) %385) #23, !noalias !15
  call void @_ZdlPv(ptr noundef nonnull %385) #26, !noalias !15
  br label %_ZZN9grpc_core12_GLOBAL__N_119MakeConnectedFilterIXadL_ZNS0_21MakeClientCallPromiseEPNS_9TransportENS_8CallArgsESt8functionIFNS_12ArenaPromiseISt10unique_ptrI19grpc_metadata_batchNS_5Arena13PooledDeleterEEEES4_EEEEEE19grpc_channel_filtervENKUlP20grpc_channel_elementS4_SE_E_clESH_S4_SE_.exit

lpad.i:                                           ; preds = %_ZN9grpc_core10GetContextINS_5ArenaEEEPT_v.exit.i.i, %if.then.i.i.i
  %388 = landingpad { ptr, i32 }
          cleanup
  br label %lpad.body.i

lpad.body.i:                                      ; preds = %lpad.i, %ehcleanup131.i.i
  %eh.lpad-body.i = phi { ptr, i32 } [ %388, %lpad.i ], [ %.pn9.pn.pn.pn.pn.pn.i.i, %ehcleanup131.i.i ]
  %_M_manager.i.i16.i = getelementptr inbounds i8, ptr %agg.tmp3.i, i64 16
  %389 = load ptr, ptr %_M_manager.i.i16.i, align 8, !noalias !15
  %tobool.not.i.i17.i = icmp eq ptr %389, null
  br i1 %tobool.not.i.i17.i, label %_ZNSt8functionIFN9grpc_core12ArenaPromiseISt10unique_ptrI19grpc_metadata_batchNS0_5Arena13PooledDeleterEEEENS0_8CallArgsEEED2Ev.exit21.i, label %if.then.i.i18.i

if.then.i.i18.i:                                  ; preds = %lpad.body.i
  %call.i.i19.i = invoke noundef zeroext i1 %389(ptr noundef nonnull align 8 dereferenceable(16) %agg.tmp3.i, ptr noundef nonnull align 8 dereferenceable(16) %agg.tmp3.i, i32 noundef 3)
          to label %_ZNSt8functionIFN9grpc_core12ArenaPromiseISt10unique_ptrI19grpc_metadata_batchNS0_5Arena13PooledDeleterEEEENS0_8CallArgsEEED2Ev.exit21.i unwind label %terminate.lpad.i.i20.i, !noalias !15

terminate.lpad.i.i20.i:                           ; preds = %if.then.i.i18.i
  %390 = landingpad { ptr, i32 }
          catch ptr null
  %391 = extractvalue { ptr, i32 } %390, 0
  call void @__clang_call_terminate(ptr %391) #24
  unreachable

_ZNSt8functionIFN9grpc_core12ArenaPromiseISt10unique_ptrI19grpc_metadata_batchNS0_5Arena13PooledDeleterEEEENS0_8CallArgsEEED2Ev.exit21.i: ; preds = %if.then.i.i18.i, %lpad.body.i
  call void @_ZN9grpc_core8CallArgsD2Ev(ptr noundef nonnull align 8 dereferenceable(56) %agg.tmp.i) #23, !noalias !15
  resume { ptr, i32 } %eh.lpad-body.i

_ZZN9grpc_core12_GLOBAL__N_119MakeConnectedFilterIXadL_ZNS0_21MakeClientCallPromiseEPNS_9TransportENS_8CallArgsESt8functionIFNS_12ArenaPromiseISt10unique_ptrI19grpc_metadata_batchNS_5Arena13PooledDeleterEEEES4_EEEEEE19grpc_channel_filtervENKUlP20grpc_channel_elementS4_SE_E_clESH_S4_SE_.exit: ; preds = %_ZN9grpc_core37ClientInitialMetadataOutstandingTokenD2Ev.exit.i.i, %if.then.i2.i.i, %delete.notnull.i.i.i.i
  call void @llvm.lifetime.end.p0(i64 56, ptr nonnull %agg.tmp.i)
  call void @llvm.lifetime.end.p0(i64 32, ptr nonnull %agg.tmp3.i)
  ret void
}

; Function Attrs: uwtable
define internal fastcc noundef ptr @_ZN9grpc_core5Arena3NewINS_12_GLOBAL__N_122ConnectedChannelStreamEJRPNS_9TransportEEEEPT_DpOT0_(ptr noundef nonnull align 8 dereferenceable(48) %this, ptr nocapture noundef nonnull readonly align 8 dereferenceable(8) %args) unnamed_addr #15 align 2 personality ptr @__gxx_personality_v0 {
entry:
  %0 = atomicrmw add ptr %this, i64 144 monotonic, align 8
  %add2.i = add i64 %0, 144
  %initial_zone_size_.i = getelementptr inbounds i8, ptr %this, i64 16
  %1 = load i64, ptr %initial_zone_size_.i, align 8
  %cmp.not.i = icmp ugt i64 %add2.i, %1
  br i1 %cmp.not.i, label %if.else.i, label %if.then.i

if.then.i:                                        ; preds = %entry
  %add.ptr.i = getelementptr inbounds i8, ptr %this, i64 48
  %add.ptr3.i = getelementptr inbounds i8, ptr %add.ptr.i, i64 %0
  br label %_ZN9grpc_core5Arena5AllocEm.exit

if.else.i:                                        ; preds = %entry
  %call4.i = tail call noundef ptr @_ZN9grpc_core5Arena9AllocZoneEm(ptr noundef nonnull align 8 dereferenceable(48) %this, i64 noundef 144)
  br label %_ZN9grpc_core5Arena5AllocEm.exit

_ZN9grpc_core5Arena5AllocEm.exit:                 ; preds = %if.then.i, %if.else.i
  %retval.0.i = phi ptr [ %add.ptr3.i, %if.then.i ], [ %call4.i, %if.else.i ]
  %args.val = load ptr, ptr %args, align 8
  store ptr getelementptr inbounds ({ [5 x ptr] }, ptr @_ZTVN9grpc_core12_GLOBAL__N_122ConnectedChannelStreamE, i64 0, inrange i32 0, i64 2), ptr %retval.0.i, align 8
  %transport_.i.i = getelementptr inbounds i8, ptr %retval.0.i, i64 8
  store ptr %args.val, ptr %transport_.i.i, align 8
  %call_context_.i.i = getelementptr inbounds i8, ptr %retval.0.i, i64 16
  %2 = tail call align 8 ptr @llvm.threadlocal.address.p0(ptr align 8 @_ZN9grpc_core14promise_detail7ContextINS_11CallContextEE8current_E)
  %3 = load ptr, ptr %2, align 8
  %cmp.not.i.i.i = icmp eq ptr %3, null
  br i1 %cmp.not.i.i.i, label %if.then.i.i.i, label %invoke.cont.i.i

if.then.i.i.i:                                    ; preds = %_ZN9grpc_core5Arena5AllocEm.exit
  tail call void @gpr_assertion_failed(ptr noundef nonnull @.str.19, i32 noundef 80, ptr noundef nonnull @.str.20) #25
  unreachable

invoke.cont.i.i:                                  ; preds = %_ZN9grpc_core5Arena5AllocEm.exit
  tail call void @_ZN9grpc_core11CallContext17IncrementRefCountEPKc(ptr noundef nonnull align 8 dereferenceable(97) %3, ptr noundef nonnull @.str.22)
  store ptr %3, ptr %call_context_.i.i, align 8, !alias.scope !85
  %cb1.i.i.i.i = getelementptr inbounds i8, ptr %retval.0.i, i64 32
  store ptr @_ZZN9grpc_core17MakeMemberClosureINS_12_GLOBAL__N_122ConnectedChannelStreamETnMT_FvvEXadL_ZNS2_15StreamDestroyedEvEEEE12grpc_closurePS3_NS_13DebugLocationEENUlPvN4absl12lts_202308026StatusEE_8__invokeES9_SC_, ptr %cb1.i.i.i.i, align 8, !alias.scope !88
  %cb_arg2.i.i.i.i = getelementptr inbounds i8, ptr %retval.0.i, i64 40
  store ptr %retval.0.i, ptr %cb_arg2.i.i.i.i, align 8, !alias.scope !88
  %error_data.i.i.i.i = getelementptr inbounds i8, ptr %retval.0.i, i64 48
  store i64 0, ptr %error_data.i.i.i.i, align 8, !alias.scope !88
  %stream_refcount_.i.i = getelementptr inbounds i8, ptr %retval.0.i, i64 56
  store i64 1, ptr %stream_refcount_.i.i, align 8
  %stream_.i.i = getelementptr inbounds i8, ptr %retval.0.i, i64 96
  %4 = ptrtoint ptr %retval.0.i to i64
  store i64 %4, ptr %stream_.i.i, align 8
  %5 = getelementptr inbounds i8, ptr %retval.0.i, i64 104
  store ptr null, ptr %5, align 8
  %6 = tail call align 8 ptr @llvm.threadlocal.address.p0(ptr align 8 @_ZN9grpc_core14promise_detail7ContextINS_5ArenaEE8current_E)
  %7 = load ptr, ptr %6, align 8
  %cmp.not.i4.i.i = icmp eq ptr %7, null
  br i1 %cmp.not.i4.i.i, label %if.then.i5.i.i, label %invoke.cont9.i.i

if.then.i5.i.i:                                   ; preds = %invoke.cont.i.i
  invoke void @gpr_assertion_failed(ptr noundef nonnull @.str.19, i32 noundef 80, ptr noundef nonnull @.str.20) #25
          to label %.noexc6.i.i unwind label %lpad8.i.i

.noexc6.i.i:                                      ; preds = %if.then.i5.i.i
  unreachable

invoke.cont9.i.i:                                 ; preds = %invoke.cont.i.i
  %arena_.i.i = getelementptr inbounds i8, ptr %retval.0.i, i64 112
  store ptr %7, ptr %arena_.i.i, align 8
  br i1 icmp ne (ptr @_ZTHN9grpc_core8Activity19g_current_activity_E, ptr null), label %8, label %invoke.cont11.i.i

8:                                                ; preds = %invoke.cont9.i.i
  invoke void @_ZTHN9grpc_core8Activity19g_current_activity_E()
          to label %invoke.cont11.i.i unwind label %lpad8.i.i

invoke.cont11.i.i:                                ; preds = %8, %invoke.cont9.i.i
  %9 = tail call noundef align 8 ptr @llvm.threadlocal.address.p0(ptr align 8 @_ZN9grpc_core8Activity19g_current_activity_E)
  %10 = load ptr, ptr %9, align 8
  %party_.i.i = getelementptr inbounds i8, ptr %retval.0.i, i64 120
  store ptr %10, ptr %party_.i.i, align 8
  %finished_.i.i = getelementptr inbounds i8, ptr %retval.0.i, i64 128
  store i8 0, ptr %finished_.i.i, align 1
  %waiter_.i.i.i = getelementptr inbounds i8, ptr %retval.0.i, i64 130
  store i16 0, ptr %waiter_.i.i.i, align 2
  invoke void @_Z20grpc_stream_ref_initP20grpc_stream_refcountiPFvPvN4absl12lts_202308026StatusEES1_(ptr noundef nonnull %stream_refcount_.i.i, i32 noundef 1, ptr noundef nonnull @_ZZN9grpc_core12_GLOBAL__N_122ConnectedChannelStreamC1EPNS_9TransportEENUlPvN4absl12lts_202308026StatusEE_8__invokeES4_S7_, ptr noundef nonnull %retval.0.i)
          to label %_ZN9grpc_core9ConstructINS_12_GLOBAL__N_122ConnectedChannelStreamEJRPNS_9TransportEEEEvPT_DpOT0_.exit unwind label %lpad8.i.i

lpad8.i.i:                                        ; preds = %invoke.cont11.i.i, %8, %if.then.i5.i.i
  %11 = landingpad { ptr, i32 }
          cleanup
  tail call fastcc void @_ZNSt10unique_ptrI11grpc_streamN9grpc_core12_GLOBAL__N_122ConnectedChannelStream13StreamDeleterEED2Ev(ptr noundef nonnull align 8 dereferenceable(16) %stream_.i.i) #23
  tail call void @_ZN9grpc_core13RefCountedPtrINS_11CallContextEED2Ev(ptr noundef nonnull align 8 dereferenceable(8) %call_context_.i.i) #23
  resume { ptr, i32 } %11

_ZN9grpc_core9ConstructINS_12_GLOBAL__N_122ConnectedChannelStreamEJRPNS_9TransportEEEEvPT_DpOT0_.exit: ; preds = %invoke.cont11.i.i
  ret ptr %retval.0.i
}

; Function Attrs: mustprogress nounwind uwtable
define internal fastcc void @"_ZZN9grpc_core12_GLOBAL__N_121MakeClientCallPromiseEPNS_9TransportENS_8CallArgsESt8functionIFNS_12ArenaPromiseISt10unique_ptrI19grpc_metadata_batchNS_5Arena13PooledDeleterEEEES3_EEEN3$_2D2Ev"(ptr %this.8.val) unnamed_addr #13 align 2 personality ptr @__gxx_personality_v0 {
entry:
  %cmp.not.i = icmp eq ptr %this.8.val, null
  br i1 %cmp.not.i, label %_ZN9grpc_core13RefCountedPtrINS_12_GLOBAL__N_122ConnectedChannelStreamEED2Ev.exit, label %if.then.i

if.then.i:                                        ; preds = %entry
  %stream_refcount_.i.i = getelementptr inbounds i8, ptr %this.8.val, i64 56
  %0 = atomicrmw sub ptr %stream_refcount_.i.i, i64 1 acq_rel, align 8
  %cmp.i.i.i.i = icmp eq i64 %0, 1
  br i1 %cmp.i.i.i.i, label %if.then.i.i.i, label %_ZN9grpc_core13RefCountedPtrINS_12_GLOBAL__N_122ConnectedChannelStreamEED2Ev.exit

if.then.i.i.i:                                    ; preds = %if.then.i
  invoke void @_Z19grpc_stream_destroyP20grpc_stream_refcount(ptr noundef nonnull %stream_refcount_.i.i)
          to label %_ZN9grpc_core13RefCountedPtrINS_12_GLOBAL__N_122ConnectedChannelStreamEED2Ev.exit unwind label %terminate.lpad.i

terminate.lpad.i:                                 ; preds = %if.then.i.i.i
  %1 = landingpad { ptr, i32 }
          catch ptr null
  %2 = extractvalue { ptr, i32 } %1, 0
  tail call void @__clang_call_terminate(ptr %2) #24
  unreachable

_ZN9grpc_core13RefCountedPtrINS_12_GLOBAL__N_122ConnectedChannelStreamEED2Ev.exit: ; preds = %entry, %if.then.i, %if.then.i.i.i
  ret void
}

; Function Attrs: mustprogress nounwind uwtable
define internal fastcc void @"_ZN9grpc_core14promise_detail6TrySeqINS_15for_each_detail7ForEachINS_12PipeReceiverISt10unique_ptrINS_7MessageENS_5Arena13PooledDeleterEEEEZNS_12_GLOBAL__N_122ConnectedChannelStream12SendMessagesEPSA_E3$_0EEJZNSB_21MakeClientCallPromiseEPNS_9TransportENS_8CallArgsESt8functionIFNS_12ArenaPromiseIS5_I19grpc_metadata_batchS8_EEESI_EEE3$_3EED2Ev"(ptr noundef nonnull align 8 dereferenceable(96) %this) unnamed_addr #13 align 2 personality ptr @__gxx_personality_v0 {
entry:
  %state.i = getelementptr inbounds i8, ptr %this, i64 88
  %0 = load i8, ptr %state.i, align 8
  switch i8 %0, label %tail0.i [
    i8 0, label %sw.bb.i
    i8 1, label %sw.bb2.i
  ]

sw.bb.i:                                          ; preds = %entry
  tail call fastcc void @"_ZN9grpc_core15for_each_detail7ForEachINS_12PipeReceiverISt10unique_ptrINS_7MessageENS_5Arena13PooledDeleterEEEEZNS_12_GLOBAL__N_122ConnectedChannelStream12SendMessagesEPS8_E3$_0ED2Ev"(ptr noundef nonnull align 8 dereferenceable(80) %this) #23
  br label %tail0.i

sw.bb2.i:                                         ; preds = %entry
  %1 = load ptr, ptr %this, align 8
  %cmp.not.i.i.i.i.i = icmp eq ptr %1, null
  br i1 %cmp.not.i.i.i.i.i, label %"_ZN9grpc_core14promise_detail8SeqStateINS0_12TrySeqTraitsENS_15for_each_detail7ForEachINS_12PipeReceiverISt10unique_ptrINS_7MessageENS_5Arena13PooledDeleterEEEEZNS_12_GLOBAL__N_122ConnectedChannelStream12SendMessagesEPSB_E3$_0EEJZNSC_21MakeClientCallPromiseEPNS_9TransportENS_8CallArgsESt8functionIFNS_12ArenaPromiseIS6_I19grpc_metadata_batchS9_EEESJ_EEE3$_3EED2Ev.exit", label %if.then.i.i.i.i.i

if.then.i.i.i.i.i:                                ; preds = %sw.bb2.i
  %refs.i.i.i.i.i.i = getelementptr inbounds i8, ptr %1, i64 112
  %2 = load i8, ptr %refs.i.i.i.i.i.i, align 8
  %dec.i.i.i.i.i.i = add i8 %2, -1
  store i8 %dec.i.i.i.i.i.i, ptr %refs.i.i.i.i.i.i, align 8
  %cmp.i.i.i.i.i.i = icmp eq i8 %dec.i.i.i.i.i.i, 0
  br i1 %cmp.i.i.i.i.i.i, label %if.then.i.i.i.i.i.i, label %"_ZN9grpc_core14promise_detail8SeqStateINS0_12TrySeqTraitsENS_15for_each_detail7ForEachINS_12PipeReceiverISt10unique_ptrINS_7MessageENS_5Arena13PooledDeleterEEEEZNS_12_GLOBAL__N_122ConnectedChannelStream12SendMessagesEPSB_E3$_0EEJZNSC_21MakeClientCallPromiseEPNS_9TransportENS_8CallArgsESt8functionIFNS_12ArenaPromiseIS6_I19grpc_metadata_batchS9_EEESJ_EEE3$_3EED2Ev.exit"

if.then.i.i.i.i.i.i:                              ; preds = %if.then.i.i.i.i.i
  tail call void @_ZN9grpc_core12BatchBuilder5BatchD1Ev(ptr noundef nonnull align 8 dereferenceable(120) %1) #23
  tail call void @_ZdlPv(ptr noundef nonnull %1) #26
  br label %"_ZN9grpc_core14promise_detail8SeqStateINS0_12TrySeqTraitsENS_15for_each_detail7ForEachINS_12PipeReceiverISt10unique_ptrINS_7MessageENS_5Arena13PooledDeleterEEEEZNS_12_GLOBAL__N_122ConnectedChannelStream12SendMessagesEPSB_E3$_0EEJZNSC_21MakeClientCallPromiseEPNS_9TransportENS_8CallArgsESt8functionIFNS_12ArenaPromiseIS6_I19grpc_metadata_batchS9_EEESJ_EEE3$_3EED2Ev.exit"

tail0.i:                                          ; preds = %sw.bb.i, %entry
  %next_factory.i = getelementptr inbounds i8, ptr %this, i64 80
  %next_factory.val.i = load ptr, ptr %next_factory.i, align 8
  %cmp.not.i.i.i.i1.i = icmp eq ptr %next_factory.val.i, null
  br i1 %cmp.not.i.i.i.i1.i, label %"_ZN9grpc_core14promise_detail8SeqStateINS0_12TrySeqTraitsENS_15for_each_detail7ForEachINS_12PipeReceiverISt10unique_ptrINS_7MessageENS_5Arena13PooledDeleterEEEEZNS_12_GLOBAL__N_122ConnectedChannelStream12SendMessagesEPSB_E3$_0EEJZNSC_21MakeClientCallPromiseEPNS_9TransportENS_8CallArgsESt8functionIFNS_12ArenaPromiseIS6_I19grpc_metadata_batchS9_EEESJ_EEE3$_3EED2Ev.exit", label %if.then.i.i.i.i2.i

if.then.i.i.i.i2.i:                               ; preds = %tail0.i
  %stream_refcount_.i.i.i.i.i.i = getelementptr inbounds i8, ptr %next_factory.val.i, i64 56
  %3 = atomicrmw sub ptr %stream_refcount_.i.i.i.i.i.i, i64 1 acq_rel, align 8
  %cmp.i.i.i.i.i.i.i.i = icmp eq i64 %3, 1
  br i1 %cmp.i.i.i.i.i.i.i.i, label %if.then.i.i.i.i.i.i.i, label %"_ZN9grpc_core14promise_detail8SeqStateINS0_12TrySeqTraitsENS_15for_each_detail7ForEachINS_12PipeReceiverISt10unique_ptrINS_7MessageENS_5Arena13PooledDeleterEEEEZNS_12_GLOBAL__N_122ConnectedChannelStream12SendMessagesEPSB_E3$_0EEJZNSC_21MakeClientCallPromiseEPNS_9TransportENS_8CallArgsESt8functionIFNS_12ArenaPromiseIS6_I19grpc_metadata_batchS9_EEESJ_EEE3$_3EED2Ev.exit"

if.then.i.i.i.i.i.i.i:                            ; preds = %if.then.i.i.i.i2.i
  invoke void @_Z19grpc_stream_destroyP20grpc_stream_refcount(ptr noundef nonnull %stream_refcount_.i.i.i.i.i.i)
          to label %"_ZN9grpc_core14promise_detail8SeqStateINS0_12TrySeqTraitsENS_15for_each_detail7ForEachINS_12PipeReceiverISt10unique_ptrINS_7MessageENS_5Arena13PooledDeleterEEEEZNS_12_GLOBAL__N_122ConnectedChannelStream12SendMessagesEPSB_E3$_0EEJZNSC_21MakeClientCallPromiseEPNS_9TransportENS_8CallArgsESt8functionIFNS_12ArenaPromiseIS6_I19grpc_metadata_batchS9_EEESJ_EEE3$_3EED2Ev.exit" unwind label %terminate.lpad.i.i.i.i.i

terminate.lpad.i.i.i.i.i:                         ; preds = %if.then.i.i.i.i.i.i.i
  %4 = landingpad { ptr, i32 }
          catch ptr null
  %5 = extractvalue { ptr, i32 } %4, 0
  tail call void @__clang_call_terminate(ptr %5) #24
  unreachable

"_ZN9grpc_core14promise_detail8SeqStateINS0_12TrySeqTraitsENS_15for_each_detail7ForEachINS_12PipeReceiverISt10unique_ptrINS_7MessageENS_5Arena13PooledDeleterEEEEZNS_12_GLOBAL__N_122ConnectedChannelStream12SendMessagesEPSB_E3$_0EEJZNSC_21MakeClientCallPromiseEPNS_9TransportENS_8CallArgsESt8functionIFNS_12ArenaPromiseIS6_I19grpc_metadata_batchS9_EEESJ_EEE3$_3EED2Ev.exit": ; preds = %sw.bb2.i, %if.then.i.i.i.i.i, %if.then.i.i.i.i.i.i, %tail0.i, %if.then.i.i.i.i2.i, %if.then.i.i.i.i.i.i.i
  ret void
}

; Function Attrs: mustprogress nounwind uwtable
define internal fastcc void @"_ZN9grpc_core15for_each_detail7ForEachINS_12PipeReceiverISt10unique_ptrINS_7MessageENS_5Arena13PooledDeleterEEEEZNS_12_GLOBAL__N_122ConnectedChannelStream12SendMessagesEPS8_E3$_0ED2Ev"(ptr noundef nonnull align 8 dereferenceable(80) %this) unnamed_addr #13 align 2 personality ptr @__gxx_personality_v0 {
entry:
  %reading_next_ = getelementptr inbounds i8, ptr %this, i64 16
  %0 = load i8, ptr %reading_next_, align 8
  %1 = and i8 %0, 1
  %tobool.not = icmp eq i8 %1, 0
  %2 = getelementptr inbounds i8, ptr %this, i64 24
  br i1 %tobool.not, label %if.else, label %if.then

if.then:                                          ; preds = %entry
  tail call void @_ZN9grpc_core14promise_detail8SeqStateINS0_9SeqTraitsENS_11pipe_detail4NextISt10unique_ptrINS_7MessageENS_5Arena13PooledDeleterEEEEJZNS_12PipeReceiverIS9_E4NextEvEUlSt8optionalIS9_EE_EED2Ev(ptr noundef nonnull align 8 dereferenceable(49) %2) #23
  br label %if.end

if.else:                                          ; preds = %entry
  %result.i.i = getelementptr inbounds i8, ptr %this, i64 40
  tail call void @_ZN9grpc_core10NextResultISt10unique_ptrINS_7MessageENS_5Arena13PooledDeleterEEED2Ev(ptr noundef nonnull align 8 dereferenceable(16) %result.i.i) #23
  %3 = load ptr, ptr %2, align 8
  %cmp.not.i.i.i.i.i = icmp eq ptr %3, null
  br i1 %cmp.not.i.i.i.i.i, label %if.end, label %if.then.i.i.i.i.i

if.then.i.i.i.i.i:                                ; preds = %if.else
  %refs.i.i.i.i.i.i = getelementptr inbounds i8, ptr %3, i64 112
  %4 = load i8, ptr %refs.i.i.i.i.i.i, align 8
  %dec.i.i.i.i.i.i = add i8 %4, -1
  store i8 %dec.i.i.i.i.i.i, ptr %refs.i.i.i.i.i.i, align 8
  %cmp.i.i.i.i.i.i = icmp eq i8 %dec.i.i.i.i.i.i, 0
  br i1 %cmp.i.i.i.i.i.i, label %if.then.i.i.i.i.i.i, label %if.end

if.then.i.i.i.i.i.i:                              ; preds = %if.then.i.i.i.i.i
  tail call void @_ZN9grpc_core12BatchBuilder5BatchD1Ev(ptr noundef nonnull align 8 dereferenceable(120) %3) #23
  tail call void @_ZdlPv(ptr noundef nonnull %3) #26
  br label %if.end

if.end:                                           ; preds = %if.then.i.i.i.i.i.i, %if.then.i.i.i.i.i, %if.else, %if.then
  %action_factory_ = getelementptr inbounds i8, ptr %this, i64 8
  %action_factory_.val = load ptr, ptr %action_factory_, align 8
  %cmp.not.i.i.i = icmp eq ptr %action_factory_.val, null
  br i1 %cmp.not.i.i.i, label %"_ZN9grpc_core14promise_detail22RepeatedPromiseFactoryISt10unique_ptrINS_7MessageENS_5Arena13PooledDeleterEEZNS_12_GLOBAL__N_122ConnectedChannelStream12SendMessagesEPNS_12PipeReceiverIS6_EEE3$_0ED2Ev.exit", label %if.then.i.i.i

if.then.i.i.i:                                    ; preds = %if.end
  %stream_refcount_.i.i.i.i = getelementptr inbounds i8, ptr %action_factory_.val, i64 56
  %5 = atomicrmw sub ptr %stream_refcount_.i.i.i.i, i64 1 acq_rel, align 8
  %cmp.i.i.i.i.i.i1 = icmp eq i64 %5, 1
  br i1 %cmp.i.i.i.i.i.i1, label %if.then.i.i.i.i.i2, label %"_ZN9grpc_core14promise_detail22RepeatedPromiseFactoryISt10unique_ptrINS_7MessageENS_5Arena13PooledDeleterEEZNS_12_GLOBAL__N_122ConnectedChannelStream12SendMessagesEPNS_12PipeReceiverIS6_EEE3$_0ED2Ev.exit"

if.then.i.i.i.i.i2:                               ; preds = %if.then.i.i.i
  invoke void @_Z19grpc_stream_destroyP20grpc_stream_refcount(ptr noundef nonnull %stream_refcount_.i.i.i.i)
          to label %"_ZN9grpc_core14promise_detail22RepeatedPromiseFactoryISt10unique_ptrINS_7MessageENS_5Arena13PooledDeleterEEZNS_12_GLOBAL__N_122ConnectedChannelStream12SendMessagesEPNS_12PipeReceiverIS6_EEE3$_0ED2Ev.exit" unwind label %terminate.lpad.i.i.i

terminate.lpad.i.i.i:                             ; preds = %if.then.i.i.i.i.i2
  %6 = landingpad { ptr, i32 }
          catch ptr null
  %7 = extractvalue { ptr, i32 } %6, 0
  tail call void @__clang_call_terminate(ptr %7) #24
  unreachable

"_ZN9grpc_core14promise_detail22RepeatedPromiseFactoryISt10unique_ptrINS_7MessageENS_5Arena13PooledDeleterEEZNS_12_GLOBAL__N_122ConnectedChannelStream12SendMessagesEPNS_12PipeReceiverIS6_EEE3$_0ED2Ev.exit": ; preds = %if.end, %if.then.i.i.i, %if.then.i.i.i.i.i2
  tail call void @_ZN9grpc_core12PipeReceiverISt10unique_ptrINS_7MessageENS_5Arena13PooledDeleterEEED2Ev(ptr noundef nonnull align 8 dereferenceable(8) %this) #23
  ret void
}

; Function Attrs: mustprogress nounwind uwtable
define internal fastcc void @"_ZN9grpc_core14promise_detail6TrySeqIZNS_12BatchBuilder5Batch8RefUntilINS0_3MapIZNS_5LatchIN4absl12lts_202308026StatusEE4WaitEvEUlvE_ZNS2_22ReceiveInitialMetadataENS2_6TargetEEUlS9_E_EEEEDaT_EUlvE_JZNS_12_GLOBAL__N_121MakeClientCallPromiseEPNS_9TransportENS_8CallArgsESt8functionIFNS_12ArenaPromiseISt10unique_ptrI19grpc_metadata_batchNS_5Arena13PooledDeleterEEEESK_EEE3$_0EED2Ev"(ptr noundef nonnull align 8 dereferenceable(48) %this) unnamed_addr #13 align 2 personality ptr @__gxx_personality_v0 {
entry:
  %state.i = getelementptr inbounds i8, ptr %this, i64 40
  %0 = load i8, ptr %state.i, align 8
  switch i8 %0, label %"_ZN9grpc_core14promise_detail8SeqStateINS0_12TrySeqTraitsEZNS_12BatchBuilder5Batch8RefUntilINS0_3MapIZNS_5LatchIN4absl12lts_202308026StatusEE4WaitEvEUlvE_ZNS3_22ReceiveInitialMetadataENS3_6TargetEEUlSA_E_EEEEDaT_EUlvE_JZNS_12_GLOBAL__N_121MakeClientCallPromiseEPNS_9TransportENS_8CallArgsESt8functionIFNS_12ArenaPromiseISt10unique_ptrI19grpc_metadata_batchNS_5Arena13PooledDeleterEEEESL_EEE3$_0EED2Ev.exit" [
    i8 0, label %sw.bb.i
    i8 1, label %sw.bb2.i
  ]

sw.bb.i:                                          ; preds = %entry
  %1 = load ptr, ptr %this, align 8
  %cmp.not.i.i.i.i.i = icmp eq ptr %1, null
  br i1 %cmp.not.i.i.i.i.i, label %"_ZN9grpc_core14promise_detail8SeqStateINS0_12TrySeqTraitsEZNS_12BatchBuilder5Batch8RefUntilINS0_3MapIZNS_5LatchIN4absl12lts_202308026StatusEE4WaitEvEUlvE_ZNS3_22ReceiveInitialMetadataENS3_6TargetEEUlSA_E_EEEEDaT_EUlvE_JZNS_12_GLOBAL__N_121MakeClientCallPromiseEPNS_9TransportENS_8CallArgsESt8functionIFNS_12ArenaPromiseISt10unique_ptrI19grpc_metadata_batchNS_5Arena13PooledDeleterEEEESL_EEE3$_0EED2Ev.exit", label %if.then.i.i.i.i.i

if.then.i.i.i.i.i:                                ; preds = %sw.bb.i
  %refs.i.i.i.i.i.i = getelementptr inbounds i8, ptr %1, i64 112
  %2 = load i8, ptr %refs.i.i.i.i.i.i, align 8
  %dec.i.i.i.i.i.i = add i8 %2, -1
  store i8 %dec.i.i.i.i.i.i, ptr %refs.i.i.i.i.i.i, align 8
  %cmp.i.i.i.i.i.i = icmp eq i8 %dec.i.i.i.i.i.i, 0
  br i1 %cmp.i.i.i.i.i.i, label %if.then.i.i.i.i.i.i, label %"_ZN9grpc_core14promise_detail8SeqStateINS0_12TrySeqTraitsEZNS_12BatchBuilder5Batch8RefUntilINS0_3MapIZNS_5LatchIN4absl12lts_202308026StatusEE4WaitEvEUlvE_ZNS3_22ReceiveInitialMetadataENS3_6TargetEEUlSA_E_EEEEDaT_EUlvE_JZNS_12_GLOBAL__N_121MakeClientCallPromiseEPNS_9TransportENS_8CallArgsESt8functionIFNS_12ArenaPromiseISt10unique_ptrI19grpc_metadata_batchNS_5Arena13PooledDeleterEEEESL_EEE3$_0EED2Ev.exit"

if.then.i.i.i.i.i.i:                              ; preds = %if.then.i.i.i.i.i
  tail call void @_ZN9grpc_core12BatchBuilder5BatchD1Ev(ptr noundef nonnull align 8 dereferenceable(120) %1) #23
  tail call void @_ZdlPv(ptr noundef nonnull %1) #26
  br label %"_ZN9grpc_core14promise_detail8SeqStateINS0_12TrySeqTraitsEZNS_12BatchBuilder5Batch8RefUntilINS0_3MapIZNS_5LatchIN4absl12lts_202308026StatusEE4WaitEvEUlvE_ZNS3_22ReceiveInitialMetadataENS3_6TargetEEUlSA_E_EEEEDaT_EUlvE_JZNS_12_GLOBAL__N_121MakeClientCallPromiseEPNS_9TransportENS_8CallArgsESt8functionIFNS_12ArenaPromiseISt10unique_ptrI19grpc_metadata_batchNS_5Arena13PooledDeleterEEEESL_EEE3$_0EED2Ev.exit"

sw.bb2.i:                                         ; preds = %entry
  tail call void @_ZN9grpc_core11pipe_detail4PushISt10unique_ptrI19grpc_metadata_batchNS_5Arena13PooledDeleterEEED2Ev(ptr noundef nonnull align 8 dereferenceable(32) %this) #23
  br label %"_ZN9grpc_core14promise_detail8SeqStateINS0_12TrySeqTraitsEZNS_12BatchBuilder5Batch8RefUntilINS0_3MapIZNS_5LatchIN4absl12lts_202308026StatusEE4WaitEvEUlvE_ZNS3_22ReceiveInitialMetadataENS3_6TargetEEUlSA_E_EEEEDaT_EUlvE_JZNS_12_GLOBAL__N_121MakeClientCallPromiseEPNS_9TransportENS_8CallArgsESt8functionIFNS_12ArenaPromiseISt10unique_ptrI19grpc_metadata_batchNS_5Arena13PooledDeleterEEEESL_EEE3$_0EED2Ev.exit"

"_ZN9grpc_core14promise_detail8SeqStateINS0_12TrySeqTraitsEZNS_12BatchBuilder5Batch8RefUntilINS0_3MapIZNS_5LatchIN4absl12lts_202308026StatusEE4WaitEvEUlvE_ZNS3_22ReceiveInitialMetadataENS3_6TargetEEUlSA_E_EEEEDaT_EUlvE_JZNS_12_GLOBAL__N_121MakeClientCallPromiseEPNS_9TransportENS_8CallArgsESt8functionIFNS_12ArenaPromiseISt10unique_ptrI19grpc_metadata_batchNS_5Arena13PooledDeleterEEEESL_EEE3$_0EED2Ev.exit": ; preds = %entry, %sw.bb.i, %if.then.i.i.i.i.i, %if.then.i.i.i.i.i.i, %sw.bb2.i
  ret void
}

; Function Attrs: mustprogress nounwind uwtable
define linkonce_odr void @_ZZN9grpc_core12BatchBuilder5Batch8RefUntilINS_14promise_detail3MapIZNS_5LatchIN4absl12lts_202308026StatusEE4WaitEvEUlvE_ZNS0_22ReceiveInitialMetadataENS0_6TargetEEUlS8_E_EEEEDaT_ENUlvE_D2Ev(ptr noundef nonnull align 8 dereferenceable(24) %this) unnamed_addr #13 comdat align 2 personality ptr @__gxx_personality_v0 {
entry:
  %0 = load ptr, ptr %this, align 8
  %cmp.not.i = icmp eq ptr %0, null
  br i1 %cmp.not.i, label %_ZN9grpc_core13RefCountedPtrINS_12BatchBuilder5BatchEED2Ev.exit, label %if.then.i

if.then.i:                                        ; preds = %entry
  %refs.i.i = getelementptr inbounds i8, ptr %0, i64 112
  %1 = load i8, ptr %refs.i.i, align 8
  %dec.i.i = add i8 %1, -1
  store i8 %dec.i.i, ptr %refs.i.i, align 8
  %cmp.i.i = icmp eq i8 %dec.i.i, 0
  br i1 %cmp.i.i, label %if.then.i.i, label %_ZN9grpc_core13RefCountedPtrINS_12BatchBuilder5BatchEED2Ev.exit

if.then.i.i:                                      ; preds = %if.then.i
  tail call void @_ZN9grpc_core12BatchBuilder5BatchD1Ev(ptr noundef nonnull align 8 dereferenceable(120) %0) #23
  tail call void @_ZdlPv(ptr noundef nonnull %0) #26
  br label %_ZN9grpc_core13RefCountedPtrINS_12BatchBuilder5BatchEED2Ev.exit

_ZN9grpc_core13RefCountedPtrINS_12BatchBuilder5BatchEED2Ev.exit: ; preds = %entry, %if.then.i, %if.then.i.i
  ret void
}

; Function Attrs: mustprogress nounwind uwtable
define linkonce_odr void @_ZZN9grpc_core12BatchBuilder5Batch8RefUntilIZNS_5LatchIN4absl12lts_202308026StatusEE11WaitAndCopyEvEUlvE_EEDaT_ENUlvE_D2Ev(ptr noundef nonnull align 8 dereferenceable(16) %this) unnamed_addr #13 comdat align 2 personality ptr @__gxx_personality_v0 {
entry:
  %0 = load ptr, ptr %this, align 8
  %cmp.not.i = icmp eq ptr %0, null
  br i1 %cmp.not.i, label %_ZN9grpc_core13RefCountedPtrINS_12BatchBuilder5BatchEED2Ev.exit, label %if.then.i

if.then.i:                                        ; preds = %entry
  %refs.i.i = getelementptr inbounds i8, ptr %0, i64 112
  %1 = load i8, ptr %refs.i.i, align 8
  %dec.i.i = add i8 %1, -1
  store i8 %dec.i.i, ptr %refs.i.i, align 8
  %cmp.i.i = icmp eq i8 %dec.i.i, 0
  br i1 %cmp.i.i, label %if.then.i.i, label %_ZN9grpc_core13RefCountedPtrINS_12BatchBuilder5BatchEED2Ev.exit

if.then.i.i:                                      ; preds = %if.then.i
  tail call void @_ZN9grpc_core12BatchBuilder5BatchD1Ev(ptr noundef nonnull align 8 dereferenceable(120) %0) #23
  tail call void @_ZdlPv(ptr noundef nonnull %0) #26
  br label %_ZN9grpc_core13RefCountedPtrINS_12BatchBuilder5BatchEED2Ev.exit

_ZN9grpc_core13RefCountedPtrINS_12BatchBuilder5BatchEED2Ev.exit: ; preds = %entry, %if.then.i, %if.then.i.i
  ret void
}

; Function Attrs: mustprogress nounwind uwtable
define linkonce_odr void @_ZZN9grpc_core12BatchBuilder5Batch8RefUntilINS_14promise_detail3MapIZNS_5LatchIN4absl12lts_202308026StatusEE4WaitEvEUlvE_ZNS0_23ReceiveTrailingMetadataENS0_6TargetEEUlS8_E_EEEEDaT_ENUlvE_D2Ev(ptr noundef nonnull align 8 dereferenceable(24) %this) unnamed_addr #13 comdat align 2 personality ptr @__gxx_personality_v0 {
entry:
  %0 = load ptr, ptr %this, align 8
  %cmp.not.i = icmp eq ptr %0, null
  br i1 %cmp.not.i, label %_ZN9grpc_core13RefCountedPtrINS_12BatchBuilder5BatchEED2Ev.exit, label %if.then.i

if.then.i:                                        ; preds = %entry
  %refs.i.i = getelementptr inbounds i8, ptr %0, i64 112
  %1 = load i8, ptr %refs.i.i, align 8
  %dec.i.i = add i8 %1, -1
  store i8 %dec.i.i, ptr %refs.i.i, align 8
  %cmp.i.i = icmp eq i8 %dec.i.i, 0
  br i1 %cmp.i.i, label %if.then.i.i, label %_ZN9grpc_core13RefCountedPtrINS_12BatchBuilder5BatchEED2Ev.exit

if.then.i.i:                                      ; preds = %if.then.i
  tail call void @_ZN9grpc_core12BatchBuilder5BatchD1Ev(ptr noundef nonnull align 8 dereferenceable(120) %0) #23
  tail call void @_ZdlPv(ptr noundef nonnull %0) #26
  br label %_ZN9grpc_core13RefCountedPtrINS_12BatchBuilder5BatchEED2Ev.exit

_ZN9grpc_core13RefCountedPtrINS_12BatchBuilder5BatchEED2Ev.exit: ; preds = %entry, %if.then.i, %if.then.i.i
  ret void
}

; Function Attrs: mustprogress nounwind uwtable
define internal fastcc void @_ZN9grpc_core12_GLOBAL__N_122ConnectedChannelStream12RecvMessagesEPNS_10PipeSenderISt10unique_ptrINS_7MessageENS_5Arena13PooledDeleterEEEEb(ptr noalias nocapture writeonly align 8 %agg.result, ptr noundef nonnull align 8 dereferenceable(132) %this, ptr nocapture noundef %incoming_messages, i1 noundef zeroext %cancel_on_error) unnamed_addr #13 align 2 personality ptr @__gxx_personality_v0 {
entry:
  %agg.tmp.i.i = alloca %class.anon.290, align 8
  %agg.tmp.i = alloca %class.anon.290, align 8
  %agg.tmp = alloca %class.anon.290, align 8
  %frombool = zext i1 %cancel_on_error to i8
  %stream_refcount_.i.i = getelementptr inbounds i8, ptr %this, i64 56
  %0 = atomicrmw add ptr %stream_refcount_.i.i, i64 1 monotonic, align 8, !noalias !91
  %1 = getelementptr inbounds i8, ptr %agg.tmp, i64 8
  store i8 %frombool, ptr %1, align 8
  %2 = getelementptr inbounds i8, ptr %agg.tmp, i64 16
  %3 = load ptr, ptr %incoming_messages, align 8
  store ptr null, ptr %incoming_messages, align 8
  tail call void @llvm.experimental.noalias.scope.decl(metadata !94)
  call void @llvm.lifetime.start.p0(i64 24, ptr nonnull %agg.tmp.i)
  store ptr null, ptr %agg.tmp, align 8, !noalias !94
  %4 = getelementptr inbounds i8, ptr %agg.tmp.i, i64 8
  store i8 %frombool, ptr %4, align 8, !noalias !94
  %5 = getelementptr inbounds i8, ptr %agg.tmp.i, i64 16
  store ptr null, ptr %2, align 8, !noalias !94
  call void @llvm.lifetime.start.p0(i64 24, ptr nonnull %agg.tmp.i.i), !noalias !94
  store ptr null, ptr %agg.tmp.i, align 8, !noalias !94
  %6 = getelementptr inbounds i8, ptr %agg.tmp.i.i, i64 8
  store i8 %frombool, ptr %6, align 8, !noalias !94
  %7 = getelementptr inbounds i8, ptr %agg.tmp.i.i, i64 16
  store ptr null, ptr %5, align 8, !noalias !94
  store ptr %this, ptr %agg.result, align 8, !alias.scope !94
  store ptr null, ptr %agg.tmp.i.i, align 8, !noalias !94
  %8 = getelementptr inbounds i8, ptr %agg.result, i64 8
  store i8 %frombool, ptr %8, align 8, !alias.scope !94
  %9 = getelementptr inbounds i8, ptr %agg.result, i64 16
  store ptr %3, ptr %9, align 8, !alias.scope !94
  store ptr null, ptr %7, align 8, !noalias !94
  call void @_ZN9grpc_core10PipeSenderISt10unique_ptrINS_7MessageENS_5Arena13PooledDeleterEEED2Ev(ptr noundef nonnull align 8 dereferenceable(8) %7) #23, !noalias !94
  %this.val.i.i.i = load ptr, ptr %agg.tmp.i.i, align 8, !noalias !94
  %cmp.not.i.i.i.i = icmp eq ptr %this.val.i.i.i, null
  br i1 %cmp.not.i.i.i.i, label %invoke.cont.i, label %if.then.i.i.i.i

if.then.i.i.i.i:                                  ; preds = %entry
  %stream_refcount_.i.i.i.i.i = getelementptr inbounds i8, ptr %this.val.i.i.i, i64 56
  %10 = atomicrmw sub ptr %stream_refcount_.i.i.i.i.i, i64 1 acq_rel, align 8, !noalias !94
  %cmp.i.i.i.i.i.i.i = icmp eq i64 %10, 1
  br i1 %cmp.i.i.i.i.i.i.i, label %if.then.i.i.i.i.i.i, label %invoke.cont.i

if.then.i.i.i.i.i.i:                              ; preds = %if.then.i.i.i.i
  invoke void @_Z19grpc_stream_destroyP20grpc_stream_refcount(ptr noundef nonnull %stream_refcount_.i.i.i.i.i)
          to label %invoke.cont.i unwind label %terminate.lpad.i.i.i.i, !noalias !94

terminate.lpad.i.i.i.i:                           ; preds = %if.then.i.i.i.i.i.i
  %11 = landingpad { ptr, i32 }
          catch ptr null
  %12 = extractvalue { ptr, i32 } %11, 0
  call void @__clang_call_terminate(ptr %12) #24
  unreachable

invoke.cont.i:                                    ; preds = %if.then.i.i.i.i.i.i, %if.then.i.i.i.i, %entry
  %started_.i.i = getelementptr inbounds i8, ptr %agg.result, i64 80
  store i8 0, ptr %started_.i.i, align 8, !alias.scope !94
  call void @llvm.lifetime.end.p0(i64 24, ptr nonnull %agg.tmp.i.i), !noalias !94
  call void @_ZN9grpc_core10PipeSenderISt10unique_ptrINS_7MessageENS_5Arena13PooledDeleterEEED2Ev(ptr noundef nonnull align 8 dereferenceable(8) %5) #23, !noalias !94
  %this.val.i.i = load ptr, ptr %agg.tmp.i, align 8, !noalias !94
  %cmp.not.i.i.i = icmp eq ptr %this.val.i.i, null
  br i1 %cmp.not.i.i.i, label %invoke.cont, label %if.then.i.i.i

if.then.i.i.i:                                    ; preds = %invoke.cont.i
  %stream_refcount_.i.i.i.i = getelementptr inbounds i8, ptr %this.val.i.i, i64 56
  %13 = atomicrmw sub ptr %stream_refcount_.i.i.i.i, i64 1 acq_rel, align 8, !noalias !94
  %cmp.i.i.i.i.i.i = icmp eq i64 %13, 1
  br i1 %cmp.i.i.i.i.i.i, label %if.then.i.i.i.i.i, label %invoke.cont

if.then.i.i.i.i.i:                                ; preds = %if.then.i.i.i
  invoke void @_Z19grpc_stream_destroyP20grpc_stream_refcount(ptr noundef nonnull %stream_refcount_.i.i.i.i)
          to label %invoke.cont unwind label %terminate.lpad.i.i.i, !noalias !94

terminate.lpad.i.i.i:                             ; preds = %if.then.i.i.i.i.i
  %14 = landingpad { ptr, i32 }
          catch ptr null
  %15 = extractvalue { ptr, i32 } %14, 0
  call void @__clang_call_terminate(ptr %15) #24
  unreachable

invoke.cont:                                      ; preds = %if.then.i.i.i.i.i, %if.then.i.i.i, %invoke.cont.i
  call void @llvm.lifetime.end.p0(i64 24, ptr nonnull %agg.tmp.i)
  call void @_ZN9grpc_core10PipeSenderISt10unique_ptrINS_7MessageENS_5Arena13PooledDeleterEEED2Ev(ptr noundef nonnull align 8 dereferenceable(8) %2) #23
  %this.val.i = load ptr, ptr %agg.tmp, align 8
  %cmp.not.i.i = icmp eq ptr %this.val.i, null
  br i1 %cmp.not.i.i, label %"_ZZN9grpc_core12_GLOBAL__N_122ConnectedChannelStream12RecvMessagesEPNS_10PipeSenderISt10unique_ptrINS_7MessageENS_5Arena13PooledDeleterEEEEbEN3$_0D2Ev.exit", label %if.then.i.i

if.then.i.i:                                      ; preds = %invoke.cont
  %stream_refcount_.i.i.i = getelementptr inbounds i8, ptr %this.val.i, i64 56
  %16 = atomicrmw sub ptr %stream_refcount_.i.i.i, i64 1 acq_rel, align 8
  %cmp.i.i.i.i.i = icmp eq i64 %16, 1
  br i1 %cmp.i.i.i.i.i, label %if.then.i.i.i.i1, label %"_ZZN9grpc_core12_GLOBAL__N_122ConnectedChannelStream12RecvMessagesEPNS_10PipeSenderISt10unique_ptrINS_7MessageENS_5Arena13PooledDeleterEEEEbEN3$_0D2Ev.exit"

if.then.i.i.i.i1:                                 ; preds = %if.then.i.i
  invoke void @_Z19grpc_stream_destroyP20grpc_stream_refcount(ptr noundef nonnull %stream_refcount_.i.i.i)
          to label %"_ZZN9grpc_core12_GLOBAL__N_122ConnectedChannelStream12RecvMessagesEPNS_10PipeSenderISt10unique_ptrINS_7MessageENS_5Arena13PooledDeleterEEEEbEN3$_0D2Ev.exit" unwind label %terminate.lpad.i.i

terminate.lpad.i.i:                               ; preds = %if.then.i.i.i.i1
  %17 = landingpad { ptr, i32 }
          catch ptr null
  %18 = extractvalue { ptr, i32 } %17, 0
  call void @__clang_call_terminate(ptr %18) #24
  unreachable

"_ZZN9grpc_core12_GLOBAL__N_122ConnectedChannelStream12RecvMessagesEPNS_10PipeSenderISt10unique_ptrINS_7MessageENS_5Arena13PooledDeleterEEEEbEN3$_0D2Ev.exit": ; preds = %invoke.cont, %if.then.i.i, %if.then.i.i.i.i1
  ret void
}

; Function Attrs: mustprogress nounwind uwtable
define internal fastcc void @"_ZN9grpc_core14promise_detail3MapIZNS_12_GLOBAL__N_121MakeClientCallPromiseEPNS_9TransportENS_8CallArgsESt8functionIFNS_12ArenaPromiseISt10unique_ptrI19grpc_metadata_batchNS_5Arena13PooledDeleterEEEES5_EEE3$_7ZNS2_21MakeClientCallPromiseES4_S5_SF_E3$_8ED2Ev"(ptr noundef nonnull align 8 dereferenceable(168) %this) unnamed_addr #13 align 2 personality ptr @__gxx_personality_v0 {
entry:
  %fn_ = getelementptr inbounds i8, ptr %this, i64 160
  %0 = load ptr, ptr %fn_, align 8
  %cmp.not.i.i = icmp eq ptr %0, null
  br i1 %cmp.not.i.i, label %"_ZZN9grpc_core12_GLOBAL__N_121MakeClientCallPromiseEPNS_9TransportENS_8CallArgsESt8functionIFNS_12ArenaPromiseISt10unique_ptrI19grpc_metadata_batchNS_5Arena13PooledDeleterEEEES3_EEEN3$_8D2Ev.exit", label %if.then.i.i

if.then.i.i:                                      ; preds = %entry
  invoke void @_ZN9grpc_core12_GLOBAL__N_122ConnectedChannelStream6OrphanEv(ptr noundef nonnull align 8 dereferenceable(132) %0)
          to label %"_ZZN9grpc_core12_GLOBAL__N_121MakeClientCallPromiseEPNS_9TransportENS_8CallArgsESt8functionIFNS_12ArenaPromiseISt10unique_ptrI19grpc_metadata_batchNS_5Arena13PooledDeleterEEEES3_EEEN3$_8D2Ev.exit" unwind label %terminate.lpad.i.i

terminate.lpad.i.i:                               ; preds = %if.then.i.i
  %1 = landingpad { ptr, i32 }
          catch ptr null
  %2 = extractvalue { ptr, i32 } %1, 0
  tail call void @__clang_call_terminate(ptr %2) #24
  unreachable

"_ZZN9grpc_core12_GLOBAL__N_121MakeClientCallPromiseEPNS_9TransportENS_8CallArgsESt8functionIFNS_12ArenaPromiseISt10unique_ptrI19grpc_metadata_batchNS_5Arena13PooledDeleterEEEES3_EEEN3$_8D2Ev.exit": ; preds = %entry, %if.then.i.i
  store ptr null, ptr %fn_, align 8
  tail call fastcc void @"_ZZN9grpc_core12_GLOBAL__N_121MakeClientCallPromiseEPNS_9TransportENS_8CallArgsESt8functionIFNS_12ArenaPromiseISt10unique_ptrI19grpc_metadata_batchNS_5Arena13PooledDeleterEEEES3_EEEN3$_7D2Ev"(ptr noundef nonnull align 8 dereferenceable(155) %this) #23
  ret void
}

; Function Attrs: mustprogress nounwind uwtable
define internal fastcc void @"_ZZN9grpc_core12_GLOBAL__N_121MakeClientCallPromiseEPNS_9TransportENS_8CallArgsESt8functionIFNS_12ArenaPromiseISt10unique_ptrI19grpc_metadata_batchNS_5Arena13PooledDeleterEEEES3_EEEN3$_8D2Ev"(ptr nocapture noundef nonnull align 8 dereferenceable(8) %this) unnamed_addr #13 align 2 personality ptr @__gxx_personality_v0 {
entry:
  %0 = load ptr, ptr %this, align 8
  %cmp.not.i = icmp eq ptr %0, null
  br i1 %cmp.not.i, label %_ZNSt10unique_ptrIN9grpc_core12_GLOBAL__N_122ConnectedChannelStreamENS0_16OrphanableDeleteEED2Ev.exit, label %if.then.i

if.then.i:                                        ; preds = %entry
  invoke void @_ZN9grpc_core12_GLOBAL__N_122ConnectedChannelStream6OrphanEv(ptr noundef nonnull align 8 dereferenceable(132) %0)
          to label %_ZNSt10unique_ptrIN9grpc_core12_GLOBAL__N_122ConnectedChannelStreamENS0_16OrphanableDeleteEED2Ev.exit unwind label %terminate.lpad.i

terminate.lpad.i:                                 ; preds = %if.then.i
  %1 = landingpad { ptr, i32 }
          catch ptr null
  %2 = extractvalue { ptr, i32 } %1, 0
  tail call void @__clang_call_terminate(ptr %2) #24
  unreachable

_ZNSt10unique_ptrIN9grpc_core12_GLOBAL__N_122ConnectedChannelStreamENS0_16OrphanableDeleteEED2Ev.exit: ; preds = %entry, %if.then.i
  store ptr null, ptr %this, align 8
  ret void
}

; Function Attrs: mustprogress nounwind uwtable
define internal fastcc void @"_ZZN9grpc_core12_GLOBAL__N_121MakeClientCallPromiseEPNS_9TransportENS_8CallArgsESt8functionIFNS_12ArenaPromiseISt10unique_ptrI19grpc_metadata_batchNS_5Arena13PooledDeleterEEEES3_EEEN3$_7D2Ev"(ptr noundef nonnull align 8 dereferenceable(155) %this) unnamed_addr #13 align 2 personality ptr @__gxx_personality_v0 {
entry:
  %0 = getelementptr inbounds i8, ptr %this, i64 120
  %.val = load ptr, ptr %0, align 8
  %cmp.not.i.i.i.i = icmp eq ptr %.val, null
  br i1 %cmp.not.i.i.i.i, label %"_ZN9grpc_core14promise_detail3MapIZNS_12BatchBuilder5Batch8RefUntilINS1_IZNS_5LatchIN4absl12lts_202308026StatusEE4WaitEvEUlvE_ZNS2_23ReceiveTrailingMetadataENS2_6TargetEEUlS8_E_EEEEDaT_EUlvE_ZNS_12_GLOBAL__N_121MakeClientCallPromiseEPNS_9TransportENS_8CallArgsESt8functionIFNS_12ArenaPromiseISt10unique_ptrI19grpc_metadata_batchNS_5Arena13PooledDeleterEEEESJ_EEE3$_6ED2Ev.exit", label %if.then.i.i.i.i

if.then.i.i.i.i:                                  ; preds = %entry
  %refs.i.i.i.i.i = getelementptr inbounds i8, ptr %.val, i64 112
  %1 = load i8, ptr %refs.i.i.i.i.i, align 8
  %dec.i.i.i.i.i = add i8 %1, -1
  store i8 %dec.i.i.i.i.i, ptr %refs.i.i.i.i.i, align 8
  %cmp.i.i.i.i.i = icmp eq i8 %dec.i.i.i.i.i, 0
  br i1 %cmp.i.i.i.i.i, label %if.then.i.i.i.i.i, label %"_ZN9grpc_core14promise_detail3MapIZNS_12BatchBuilder5Batch8RefUntilINS1_IZNS_5LatchIN4absl12lts_202308026StatusEE4WaitEvEUlvE_ZNS2_23ReceiveTrailingMetadataENS2_6TargetEEUlS8_E_EEEEDaT_EUlvE_ZNS_12_GLOBAL__N_121MakeClientCallPromiseEPNS_9TransportENS_8CallArgsESt8functionIFNS_12ArenaPromiseISt10unique_ptrI19grpc_metadata_batchNS_5Arena13PooledDeleterEEEESJ_EEE3$_6ED2Ev.exit"

if.then.i.i.i.i.i:                                ; preds = %if.then.i.i.i.i
  tail call void @_ZN9grpc_core12BatchBuilder5BatchD1Ev(ptr noundef nonnull align 8 dereferenceable(120) %.val) #23
  tail call void @_ZdlPv(ptr noundef nonnull %.val) #26
  br label %"_ZN9grpc_core14promise_detail3MapIZNS_12BatchBuilder5Batch8RefUntilINS1_IZNS_5LatchIN4absl12lts_202308026StatusEE4WaitEvEUlvE_ZNS2_23ReceiveTrailingMetadataENS2_6TargetEEUlS8_E_EEEEDaT_EUlvE_ZNS_12_GLOBAL__N_121MakeClientCallPromiseEPNS_9TransportENS_8CallArgsESt8functionIFNS_12ArenaPromiseISt10unique_ptrI19grpc_metadata_batchNS_5Arena13PooledDeleterEEEESJ_EEE3$_6ED2Ev.exit"

"_ZN9grpc_core14promise_detail3MapIZNS_12BatchBuilder5Batch8RefUntilINS1_IZNS_5LatchIN4absl12lts_202308026StatusEE4WaitEvEUlvE_ZNS2_23ReceiveTrailingMetadataENS2_6TargetEEUlS8_E_EEEEDaT_EUlvE_ZNS_12_GLOBAL__N_121MakeClientCallPromiseEPNS_9TransportENS_8CallArgsESt8functionIFNS_12ArenaPromiseISt10unique_ptrI19grpc_metadata_batchNS_5Arena13PooledDeleterEEEESJ_EEE3$_6ED2Ev.exit": ; preds = %entry, %if.then.i.i.i.i, %if.then.i.i.i.i.i
  %2 = getelementptr inbounds i8, ptr %this, i64 32
  %started_.i = getelementptr inbounds i8, ptr %this, i64 112
  %3 = load i8, ptr %started_.i, align 8
  %4 = and i8 %3, 1
  %tobool.not.i = icmp eq i8 %4, 0
  br i1 %tobool.not.i, label %if.end.i, label %if.then.i

if.then.i:                                        ; preds = %"_ZN9grpc_core14promise_detail3MapIZNS_12BatchBuilder5Batch8RefUntilINS1_IZNS_5LatchIN4absl12lts_202308026StatusEE4WaitEvEUlvE_ZNS2_23ReceiveTrailingMetadataENS2_6TargetEEUlS8_E_EEEEDaT_EUlvE_ZNS_12_GLOBAL__N_121MakeClientCallPromiseEPNS_9TransportENS_8CallArgsESt8functionIFNS_12ArenaPromiseISt10unique_ptrI19grpc_metadata_batchNS_5Arena13PooledDeleterEEEESJ_EEE3$_6ED2Ev.exit"
  %5 = getelementptr inbounds i8, ptr %this, i64 56
  tail call fastcc void @"_ZN9grpc_core14promise_detail3SeqIZNS_12BatchBuilder5Batch8RefUntilINS0_3MapIZNS_5LatchIN4absl12lts_202308026StatusEE4WaitEvEUlvE_ZNS2_14ReceiveMessageENS2_6TargetEEUlS9_E_EEEEDaT_EUlvE_JZZNS_12_GLOBAL__N_122ConnectedChannelStream12RecvMessagesEPNS_10PipeSenderISt10unique_ptrINS_7MessageENS_5Arena13PooledDeleterEEEEbEN3$_0clEvEUlNS8_8StatusOrISt8optionalISO_EEEE_EED2Ev"(ptr noundef nonnull align 8 dereferenceable(56) %5) #23
  br label %if.end.i

if.end.i:                                         ; preds = %if.then.i, %"_ZN9grpc_core14promise_detail3MapIZNS_12BatchBuilder5Batch8RefUntilINS1_IZNS_5LatchIN4absl12lts_202308026StatusEE4WaitEvEUlvE_ZNS2_23ReceiveTrailingMetadataENS2_6TargetEEUlS8_E_EEEEDaT_EUlvE_ZNS_12_GLOBAL__N_121MakeClientCallPromiseEPNS_9TransportENS_8CallArgsESt8functionIFNS_12ArenaPromiseISt10unique_ptrI19grpc_metadata_batchNS_5Arena13PooledDeleterEEEESJ_EEE3$_6ED2Ev.exit"
  %6 = getelementptr inbounds i8, ptr %this, i64 48
  tail call void @_ZN9grpc_core10PipeSenderISt10unique_ptrINS_7MessageENS_5Arena13PooledDeleterEEED2Ev(ptr noundef nonnull align 8 dereferenceable(8) %6) #23
  %this.val.i.i.i = load ptr, ptr %2, align 8
  %cmp.not.i.i.i.i1 = icmp eq ptr %this.val.i.i.i, null
  br i1 %cmp.not.i.i.i.i1, label %"_ZN9grpc_core14promise_detail4LoopIZNS_12_GLOBAL__N_122ConnectedChannelStream12RecvMessagesEPNS_10PipeSenderISt10unique_ptrINS_7MessageENS_5Arena13PooledDeleterEEEEbE3$_0ED2Ev.exit", label %if.then.i.i.i.i2

if.then.i.i.i.i2:                                 ; preds = %if.end.i
  %stream_refcount_.i.i.i.i.i = getelementptr inbounds i8, ptr %this.val.i.i.i, i64 56
  %7 = atomicrmw sub ptr %stream_refcount_.i.i.i.i.i, i64 1 acq_rel, align 8
  %cmp.i.i.i.i.i.i.i = icmp eq i64 %7, 1
  br i1 %cmp.i.i.i.i.i.i.i, label %if.then.i.i.i.i.i.i, label %"_ZN9grpc_core14promise_detail4LoopIZNS_12_GLOBAL__N_122ConnectedChannelStream12RecvMessagesEPNS_10PipeSenderISt10unique_ptrINS_7MessageENS_5Arena13PooledDeleterEEEEbE3$_0ED2Ev.exit"

if.then.i.i.i.i.i.i:                              ; preds = %if.then.i.i.i.i2
  invoke void @_Z19grpc_stream_destroyP20grpc_stream_refcount(ptr noundef nonnull %stream_refcount_.i.i.i.i.i)
          to label %"_ZN9grpc_core14promise_detail4LoopIZNS_12_GLOBAL__N_122ConnectedChannelStream12RecvMessagesEPNS_10PipeSenderISt10unique_ptrINS_7MessageENS_5Arena13PooledDeleterEEEEbE3$_0ED2Ev.exit" unwind label %terminate.lpad.i.i.i.i

terminate.lpad.i.i.i.i:                           ; preds = %if.then.i.i.i.i.i.i
  %8 = landingpad { ptr, i32 }
          catch ptr null
  %9 = extractvalue { ptr, i32 } %8, 0
  tail call void @__clang_call_terminate(ptr %9) #24
  unreachable

"_ZN9grpc_core14promise_detail4LoopIZNS_12_GLOBAL__N_122ConnectedChannelStream12RecvMessagesEPNS_10PipeSenderISt10unique_ptrINS_7MessageENS_5Arena13PooledDeleterEEEEbE3$_0ED2Ev.exit": ; preds = %if.end.i, %if.then.i.i.i.i2, %if.then.i.i.i.i.i.i
  tail call fastcc void @"_ZN9grpc_core14promise_detail3SeqIZNS_12BatchBuilder5Batch8RefUntilIZNS_5LatchIN4absl12lts_202308026StatusEE11WaitAndCopyEvEUlvE_EEDaT_EUlvE_JZNS_12_GLOBAL__N_121MakeClientCallPromiseEPNS_9TransportENS_8CallArgsESt8functionIFNS_12ArenaPromiseISt10unique_ptrI19grpc_metadata_batchNS_5Arena13PooledDeleterEEEESG_EEE3$_1EED2Ev"(ptr noundef nonnull align 8 dereferenceable(32) %this) #23
  ret void
}

; Function Attrs: mustprogress nounwind uwtable
define internal fastcc void @"_ZN9grpc_core14promise_detail4LoopIZNS_12_GLOBAL__N_122ConnectedChannelStream12RecvMessagesEPNS_10PipeSenderISt10unique_ptrINS_7MessageENS_5Arena13PooledDeleterEEEEbE3$_0ED2Ev"(ptr noundef nonnull align 8 dereferenceable(81) %this) unnamed_addr #13 align 2 personality ptr @__gxx_personality_v0 {
entry:
  %started_ = getelementptr inbounds i8, ptr %this, i64 80
  %0 = load i8, ptr %started_, align 8
  %1 = and i8 %0, 1
  %tobool.not = icmp eq i8 %1, 0
  br i1 %tobool.not, label %if.end, label %if.then

if.then:                                          ; preds = %entry
  %2 = getelementptr inbounds i8, ptr %this, i64 24
  tail call fastcc void @"_ZN9grpc_core14promise_detail3SeqIZNS_12BatchBuilder5Batch8RefUntilINS0_3MapIZNS_5LatchIN4absl12lts_202308026StatusEE4WaitEvEUlvE_ZNS2_14ReceiveMessageENS2_6TargetEEUlS9_E_EEEEDaT_EUlvE_JZZNS_12_GLOBAL__N_122ConnectedChannelStream12RecvMessagesEPNS_10PipeSenderISt10unique_ptrINS_7MessageENS_5Arena13PooledDeleterEEEEbEN3$_0clEvEUlNS8_8StatusOrISt8optionalISO_EEEE_EED2Ev"(ptr noundef nonnull align 8 dereferenceable(56) %2) #23
  br label %if.end

if.end:                                           ; preds = %if.then, %entry
  %3 = getelementptr inbounds i8, ptr %this, i64 16
  tail call void @_ZN9grpc_core10PipeSenderISt10unique_ptrINS_7MessageENS_5Arena13PooledDeleterEEED2Ev(ptr noundef nonnull align 8 dereferenceable(8) %3) #23
  %this.val.i.i = load ptr, ptr %this, align 8
  %cmp.not.i.i.i = icmp eq ptr %this.val.i.i, null
  br i1 %cmp.not.i.i.i, label %"_ZN9grpc_core14promise_detail22RepeatedPromiseFactoryIvZNS_12_GLOBAL__N_122ConnectedChannelStream12RecvMessagesEPNS_10PipeSenderISt10unique_ptrINS_7MessageENS_5Arena13PooledDeleterEEEEbE3$_0ED2Ev.exit", label %if.then.i.i.i

if.then.i.i.i:                                    ; preds = %if.end
  %stream_refcount_.i.i.i.i = getelementptr inbounds i8, ptr %this.val.i.i, i64 56
  %4 = atomicrmw sub ptr %stream_refcount_.i.i.i.i, i64 1 acq_rel, align 8
  %cmp.i.i.i.i.i.i = icmp eq i64 %4, 1
  br i1 %cmp.i.i.i.i.i.i, label %if.then.i.i.i.i.i, label %"_ZN9grpc_core14promise_detail22RepeatedPromiseFactoryIvZNS_12_GLOBAL__N_122ConnectedChannelStream12RecvMessagesEPNS_10PipeSenderISt10unique_ptrINS_7MessageENS_5Arena13PooledDeleterEEEEbE3$_0ED2Ev.exit"

if.then.i.i.i.i.i:                                ; preds = %if.then.i.i.i
  invoke void @_Z19grpc_stream_destroyP20grpc_stream_refcount(ptr noundef nonnull %stream_refcount_.i.i.i.i)
          to label %"_ZN9grpc_core14promise_detail22RepeatedPromiseFactoryIvZNS_12_GLOBAL__N_122ConnectedChannelStream12RecvMessagesEPNS_10PipeSenderISt10unique_ptrINS_7MessageENS_5Arena13PooledDeleterEEEEbE3$_0ED2Ev.exit" unwind label %terminate.lpad.i.i.i

terminate.lpad.i.i.i:                             ; preds = %if.then.i.i.i.i.i
  %5 = landingpad { ptr, i32 }
          catch ptr null
  %6 = extractvalue { ptr, i32 } %5, 0
  tail call void @__clang_call_terminate(ptr %6) #24
  unreachable

"_ZN9grpc_core14promise_detail22RepeatedPromiseFactoryIvZNS_12_GLOBAL__N_122ConnectedChannelStream12RecvMessagesEPNS_10PipeSenderISt10unique_ptrINS_7MessageENS_5Arena13PooledDeleterEEEEbE3$_0ED2Ev.exit": ; preds = %if.end, %if.then.i.i.i, %if.then.i.i.i.i.i
  ret void
}

; Function Attrs: nounwind uwtable
define internal fastcc void @"_ZN9grpc_core14promise_detail3SeqIZNS_12BatchBuilder5Batch8RefUntilIZNS_5LatchIN4absl12lts_202308026StatusEE11WaitAndCopyEvEUlvE_EEDaT_EUlvE_JZNS_12_GLOBAL__N_121MakeClientCallPromiseEPNS_9TransportENS_8CallArgsESt8functionIFNS_12ArenaPromiseISt10unique_ptrI19grpc_metadata_batchNS_5Arena13PooledDeleterEEEESG_EEE3$_1EED2Ev"(ptr nocapture noundef nonnull readonly align 8 dereferenceable(32) %this) unnamed_addr #11 align 2 personality ptr @__gxx_personality_v0 {
entry:
  %state.i = getelementptr inbounds i8, ptr %this, i64 24
  %0 = load i8, ptr %state.i, align 8
  switch i8 %0, label %tail0.i [
    i8 0, label %sw.bb.i
    i8 1, label %sw.bb2.i
  ]

sw.bb.i:                                          ; preds = %entry
  %1 = load ptr, ptr %this, align 8
  %cmp.not.i.i.i.i.i = icmp eq ptr %1, null
  br i1 %cmp.not.i.i.i.i.i, label %tail0.i, label %if.then.i.i.i.i.i

if.then.i.i.i.i.i:                                ; preds = %sw.bb.i
  %refs.i.i.i.i.i.i = getelementptr inbounds i8, ptr %1, i64 112
  %2 = load i8, ptr %refs.i.i.i.i.i.i, align 8
  %dec.i.i.i.i.i.i = add i8 %2, -1
  store i8 %dec.i.i.i.i.i.i, ptr %refs.i.i.i.i.i.i, align 8
  %cmp.i.i.i.i.i.i = icmp eq i8 %dec.i.i.i.i.i.i, 0
  br i1 %cmp.i.i.i.i.i.i, label %if.then.i.i.i.i.i.i, label %tail0.i

if.then.i.i.i.i.i.i:                              ; preds = %if.then.i.i.i.i.i
  tail call void @_ZN9grpc_core12BatchBuilder5BatchD1Ev(ptr noundef nonnull align 8 dereferenceable(120) %1) #23
  tail call void @_ZdlPv(ptr noundef nonnull %1) #26
  br label %tail0.i

sw.bb2.i:                                         ; preds = %entry
  %arg_.i.i.i.i = getelementptr inbounds i8, ptr %this, i64 8
  %3 = load i64, ptr %arg_.i.i.i.i, align 8
  %and.i.i.i.i.i.i.i = and i64 %3, 1
  %cmp.i.i.i.i.i.i.i = icmp eq i64 %and.i.i.i.i.i.i.i, 0
  br i1 %cmp.i.i.i.i.i.i.i, label %_ZN4absl12lts_202308026StatusD2Ev.exit.i.i.i.i, label %if.then.i.i.i.i.i1.i

if.then.i.i.i.i.i1.i:                             ; preds = %sw.bb2.i
  invoke void @_ZN4absl12lts_202308026Status15UnrefNonInlinedEm(i64 noundef %3)
          to label %_ZN4absl12lts_202308026StatusD2Ev.exit.i.i.i.i unwind label %terminate.lpad.i.i.i.i.i

