; ModuleID = 'bench/grpc/original/dns_resolver_ares.cc.ll'
source_filename = "bench/grpc/original/dns_resolver_ares.cc.ll"
target datalayout = "e-m:e-p270:32:32-p271:32:32-p272:64:64-i64:64-i128:128-f80:128-n8:16:32:64-S128"
target triple = "x86_64-unknown-linux-gnu"

%"class.std::ios_base::Init" = type { i8 }
%"struct.std::atomic" = type { %"struct.std::__atomic_base" }
%"struct.std::__atomic_base" = type { ptr }
%"class.grpc_core::TraceFlag" = type <{ ptr, ptr, %"struct.std::atomic.138", [7 x i8] }>
%"struct.std::atomic.138" = type { %"struct.std::__atomic_base.139" }
%"struct.std::__atomic_base.139" = type { i8 }
%"struct.absl::lts_20230802::container_internal::PolicyFunctions" = type { i64, ptr, ptr, ptr }
%"class.std::unique_ptr" = type { %"struct.std::__uniq_ptr_data" }
%"struct.std::__uniq_ptr_data" = type { %"class.std::__uniq_ptr_impl" }
%"class.std::__uniq_ptr_impl" = type { %"class.std::tuple" }
%"class.std::tuple" = type { %"struct.std::_Tuple_impl" }
%"struct.std::_Tuple_impl" = type { %"struct.std::_Head_base.42" }
%"struct.std::_Head_base.42" = type { ptr }
%"class.grpc_core::CoreConfiguration::Builder" = type { %"class.grpc_core::ChannelArgsPreconditioning::Builder", [8 x i8], %"class.grpc_core::ChannelInit::Builder", %"class.grpc_core::HandshakerRegistry::Builder", %"class.grpc_core::ChannelCredsRegistry<>::Builder", %"class.grpc_core::ServiceConfigParser::Builder", %"class.grpc_core::ResolverRegistry::Builder", %"class.grpc_core::LoadBalancingPolicyRegistry::Builder", %"class.grpc_core::ProxyMapperRegistry::Builder", %"class.grpc_core::CertificateProviderRegistry::Builder" }
%"class.grpc_core::ChannelArgsPreconditioning::Builder" = type { %"class.std::vector" }
%"class.std::vector" = type { %"struct.std::_Vector_base" }
%"struct.std::_Vector_base" = type { %"struct.std::_Vector_base<std::function<grpc_core::ChannelArgs (grpc_core::ChannelArgs)>, std::allocator<std::function<grpc_core::ChannelArgs (grpc_core::ChannelArgs)>>>::_Vector_impl" }
%"struct.std::_Vector_base<std::function<grpc_core::ChannelArgs (grpc_core::ChannelArgs)>, std::allocator<std::function<grpc_core::ChannelArgs (grpc_core::ChannelArgs)>>>::_Vector_impl" = type { %"struct.std::_Vector_base<std::function<grpc_core::ChannelArgs (grpc_core::ChannelArgs)>, std::allocator<std::function<grpc_core::ChannelArgs (grpc_core::ChannelArgs)>>>::_Vector_impl_data" }
%"struct.std::_Vector_base<std::function<grpc_core::ChannelArgs (grpc_core::ChannelArgs)>, std::allocator<std::function<grpc_core::ChannelArgs (grpc_core::ChannelArgs)>>>::_Vector_impl_data" = type { ptr, ptr, ptr }
%"class.grpc_core::ChannelInit::Builder" = type { [6 x %"class.std::vector.6"], [6 x [2 x %"class.absl::lts_20230802::AnyInvocable"]] }
%"class.std::vector.6" = type { %"struct.std::_Vector_base.7" }
%"struct.std::_Vector_base.7" = type { %"struct.std::_Vector_base<std::unique_ptr<grpc_core::ChannelInit::FilterRegistration>, std::allocator<std::unique_ptr<grpc_core::ChannelInit::FilterRegistration>>>::_Vector_impl" }
%"struct.std::_Vector_base<std::unique_ptr<grpc_core::ChannelInit::FilterRegistration>, std::allocator<std::unique_ptr<grpc_core::ChannelInit::FilterRegistration>>>::_Vector_impl" = type { %"struct.std::_Vector_base<std::unique_ptr<grpc_core::ChannelInit::FilterRegistration>, std::allocator<std::unique_ptr<grpc_core::ChannelInit::FilterRegistration>>>::_Vector_impl_data" }
%"struct.std::_Vector_base<std::unique_ptr<grpc_core::ChannelInit::FilterRegistration>, std::allocator<std::unique_ptr<grpc_core::ChannelInit::FilterRegistration>>>::_Vector_impl_data" = type { ptr, ptr, ptr }
%"class.absl::lts_20230802::AnyInvocable" = type { %"class.absl::lts_20230802::internal_any_invocable::Impl" }
%"class.absl::lts_20230802::internal_any_invocable::Impl" = type { %"class.absl::lts_20230802::internal_any_invocable::CoreImpl" }
%"class.absl::lts_20230802::internal_any_invocable::CoreImpl" = type { %"union.absl::lts_20230802::internal_any_invocable::TypeErasedState", ptr, ptr }
%"union.absl::lts_20230802::internal_any_invocable::TypeErasedState" = type { %struct.anon }
%struct.anon = type { ptr, i64 }
%"class.grpc_core::HandshakerRegistry::Builder" = type { [2 x %"class.std::vector.11"] }
%"class.std::vector.11" = type { %"struct.std::_Vector_base.12" }
%"struct.std::_Vector_base.12" = type { %"struct.std::_Vector_base<std::unique_ptr<grpc_core::HandshakerFactory>, std::allocator<std::unique_ptr<grpc_core::HandshakerFactory>>>::_Vector_impl" }
%"struct.std::_Vector_base<std::unique_ptr<grpc_core::HandshakerFactory>, std::allocator<std::unique_ptr<grpc_core::HandshakerFactory>>>::_Vector_impl" = type { %"struct.std::_Vector_base<std::unique_ptr<grpc_core::HandshakerFactory>, std::allocator<std::unique_ptr<grpc_core::HandshakerFactory>>>::_Vector_impl_data" }
%"struct.std::_Vector_base<std::unique_ptr<grpc_core::HandshakerFactory>, std::allocator<std::unique_ptr<grpc_core::HandshakerFactory>>>::_Vector_impl_data" = type { ptr, ptr, ptr }
%"class.grpc_core::ChannelCredsRegistry<>::Builder" = type { %"class.std::map.16" }
%"class.std::map.16" = type { %"class.std::_Rb_tree.17" }
%"class.std::_Rb_tree.17" = type { %"struct.std::_Rb_tree<std::basic_string_view<char>, std::pair<const std::basic_string_view<char>, std::unique_ptr<grpc_core::ChannelCredsFactory<grpc_channel_credentials>>>, std::_Select1st<std::pair<const std::basic_string_view<char>, std::unique_ptr<grpc_core::ChannelCredsFactory<grpc_channel_credentials>>>>, std::less<std::basic_string_view<char>>>::_Rb_tree_impl" }
%"struct.std::_Rb_tree<std::basic_string_view<char>, std::pair<const std::basic_string_view<char>, std::unique_ptr<grpc_core::ChannelCredsFactory<grpc_channel_credentials>>>, std::_Select1st<std::pair<const std::basic_string_view<char>, std::unique_ptr<grpc_core::ChannelCredsFactory<grpc_channel_credentials>>>>, std::less<std::basic_string_view<char>>>::_Rb_tree_impl" = type { %"struct.std::_Rb_tree_key_compare", %"struct.std::_Rb_tree_header" }
%"struct.std::_Rb_tree_key_compare" = type { %"struct.std::less" }
%"struct.std::less" = type { i8 }
%"struct.std::_Rb_tree_header" = type { %"struct.std::_Rb_tree_node_base", i64 }
%"struct.std::_Rb_tree_node_base" = type { i32, ptr, ptr, ptr }
%"class.grpc_core::ServiceConfigParser::Builder" = type { %"class.std::vector.21" }
%"class.std::vector.21" = type { %"struct.std::_Vector_base.22" }
%"struct.std::_Vector_base.22" = type { %"struct.std::_Vector_base<std::unique_ptr<grpc_core::ServiceConfigParser::Parser>, std::allocator<std::unique_ptr<grpc_core::ServiceConfigParser::Parser>>>::_Vector_impl" }
%"struct.std::_Vector_base<std::unique_ptr<grpc_core::ServiceConfigParser::Parser>, std::allocator<std::unique_ptr<grpc_core::ServiceConfigParser::Parser>>>::_Vector_impl" = type { %"struct.std::_Vector_base<std::unique_ptr<grpc_core::ServiceConfigParser::Parser>, std::allocator<std::unique_ptr<grpc_core::ServiceConfigParser::Parser>>>::_Vector_impl_data" }
%"struct.std::_Vector_base<std::unique_ptr<grpc_core::ServiceConfigParser::Parser>, std::allocator<std::unique_ptr<grpc_core::ServiceConfigParser::Parser>>>::_Vector_impl_data" = type { ptr, ptr, ptr }
%"class.grpc_core::ResolverRegistry::Builder" = type { %"struct.grpc_core::ResolverRegistry::State" }
%"struct.grpc_core::ResolverRegistry::State" = type { %"class.std::map", %"class.std::__cxx11::basic_string" }
%"class.std::map" = type { %"class.std::_Rb_tree" }
%"class.std::_Rb_tree" = type { %"struct.std::_Rb_tree<std::basic_string_view<char>, std::pair<const std::basic_string_view<char>, std::unique_ptr<grpc_core::ResolverFactory>>, std::_Select1st<std::pair<const std::basic_string_view<char>, std::unique_ptr<grpc_core::ResolverFactory>>>, std::less<std::basic_string_view<char>>>::_Rb_tree_impl" }
%"struct.std::_Rb_tree<std::basic_string_view<char>, std::pair<const std::basic_string_view<char>, std::unique_ptr<grpc_core::ResolverFactory>>, std::_Select1st<std::pair<const std::basic_string_view<char>, std::unique_ptr<grpc_core::ResolverFactory>>>, std::less<std::basic_string_view<char>>>::_Rb_tree_impl" = type { %"struct.std::_Rb_tree_key_compare", %"struct.std::_Rb_tree_header" }
%"class.std::__cxx11::basic_string" = type { %"struct.std::__cxx11::basic_string<char>::_Alloc_hider", i64, %union.anon }
%"struct.std::__cxx11::basic_string<char>::_Alloc_hider" = type { ptr }
%union.anon = type { i64, [8 x i8] }
%"class.grpc_core::LoadBalancingPolicyRegistry::Builder" = type { %"class.std::map.26" }
%"class.std::map.26" = type { %"class.std::_Rb_tree.27" }
%"class.std::_Rb_tree.27" = type { %"struct.std::_Rb_tree<std::basic_string_view<char>, std::pair<const std::basic_string_view<char>, std::unique_ptr<grpc_core::LoadBalancingPolicyFactory>>, std::_Select1st<std::pair<const std::basic_string_view<char>, std::unique_ptr<grpc_core::LoadBalancingPolicyFactory>>>, std::less<std::basic_string_view<char>>>::_Rb_tree_impl" }
%"struct.std::_Rb_tree<std::basic_string_view<char>, std::pair<const std::basic_string_view<char>, std::unique_ptr<grpc_core::LoadBalancingPolicyFactory>>, std::_Select1st<std::pair<const std::basic_string_view<char>, std::unique_ptr<grpc_core::LoadBalancingPolicyFactory>>>, std::less<std::basic_string_view<char>>>::_Rb_tree_impl" = type { %"struct.std::_Rb_tree_key_compare", %"struct.std::_Rb_tree_header" }
%"class.grpc_core::ProxyMapperRegistry::Builder" = type { %"class.std::vector.31" }
%"class.std::vector.31" = type { %"struct.std::_Vector_base.32" }
%"struct.std::_Vector_base.32" = type { %"struct.std::_Vector_base<std::unique_ptr<grpc_core::ProxyMapperInterface>, std::allocator<std::unique_ptr<grpc_core::ProxyMapperInterface>>>::_Vector_impl" }
%"struct.std::_Vector_base<std::unique_ptr<grpc_core::ProxyMapperInterface>, std::allocator<std::unique_ptr<grpc_core::ProxyMapperInterface>>>::_Vector_impl" = type { %"struct.std::_Vector_base<std::unique_ptr<grpc_core::ProxyMapperInterface>, std::allocator<std::unique_ptr<grpc_core::ProxyMapperInterface>>>::_Vector_impl_data" }
%"struct.std::_Vector_base<std::unique_ptr<grpc_core::ProxyMapperInterface>, std::allocator<std::unique_ptr<grpc_core::ProxyMapperInterface>>>::_Vector_impl_data" = type { ptr, ptr, ptr }
%"class.grpc_core::CertificateProviderRegistry::Builder" = type { %"class.std::map.36" }
%"class.std::map.36" = type { %"class.std::_Rb_tree.37" }
%"class.std::_Rb_tree.37" = type { %"struct.std::_Rb_tree<std::basic_string_view<char>, std::pair<const std::basic_string_view<char>, std::unique_ptr<grpc_core::CertificateProviderFactory>>, std::_Select1st<std::pair<const std::basic_string_view<char>, std::unique_ptr<grpc_core::CertificateProviderFactory>>>, std::less<std::basic_string_view<char>>>::_Rb_tree_impl" }
%"struct.std::_Rb_tree<std::basic_string_view<char>, std::pair<const std::basic_string_view<char>, std::unique_ptr<grpc_core::CertificateProviderFactory>>, std::_Select1st<std::pair<const std::basic_string_view<char>, std::unique_ptr<grpc_core::CertificateProviderFactory>>>, std::less<std::basic_string_view<char>>>::_Rb_tree_impl" = type { %"struct.std::_Rb_tree_key_compare", %"struct.std::_Rb_tree_header" }
%"class.absl::lts_20230802::Status" = type { i64 }
%"class.std::shared_ptr" = type { %"class.std::__shared_ptr" }
%"class.std::__shared_ptr" = type { ptr, %"class.std::__shared_count" }
%"class.std::__shared_count" = type { ptr }
%"class.grpc_core::ConfigVars" = type { i32, i8, i8, i8, %"class.std::__cxx11::basic_string", %"class.std::__cxx11::basic_string", %"class.std::__cxx11::basic_string", %"class.std::__cxx11::basic_string", %"class.std::__cxx11::basic_string", %"class.std::__cxx11::basic_string", %"class.std::__cxx11::basic_string", %"class.std::optional", %"class.std::optional" }
%"class.std::optional" = type { %"struct.std::_Optional_base" }
%"struct.std::_Optional_base" = type { %"struct.std::_Optional_payload" }
%"struct.std::_Optional_payload" = type { %"struct.std::_Optional_payload.base", [7 x i8] }
%"struct.std::_Optional_payload.base" = type { %"struct.std::_Optional_payload_base.base" }
%"struct.std::_Optional_payload_base.base" = type <{ %"union.std::_Optional_payload_base<std::__cxx11::basic_string<char>>::_Storage", i8 }>
%"union.std::_Optional_payload_base<std::__cxx11::basic_string<char>>::_Storage" = type { %"class.std::__cxx11::basic_string" }
%"class.grpc_core::(anonymous namespace)::AresDNSResolver" = type { %"class.grpc_core::DNSResolver", %"class.std::shared_ptr", %"class.absl::lts_20230802::Mutex", %"class.absl::lts_20230802::flat_hash_set", i64 }
%"class.grpc_core::DNSResolver" = type { ptr }
%"class.absl::lts_20230802::Mutex" = type { %"struct.std::atomic.114" }
%"struct.std::atomic.114" = type { %"struct.std::__atomic_base.115" }
%"struct.std::__atomic_base.115" = type { i64 }
%"class.absl::lts_20230802::flat_hash_set" = type { %"class.absl::lts_20230802::container_internal::raw_hash_set" }
%"class.absl::lts_20230802::container_internal::raw_hash_set" = type { %"class.absl::lts_20230802::container_internal::CompressedTuple" }
%"class.absl::lts_20230802::container_internal::CompressedTuple" = type { %"struct.absl::lts_20230802::container_internal::internal_compressed_tuple::CompressedTupleImpl" }
%"struct.absl::lts_20230802::container_internal::internal_compressed_tuple::CompressedTupleImpl" = type { %"struct.absl::lts_20230802::container_internal::internal_compressed_tuple::Storage" }
%"struct.absl::lts_20230802::container_internal::internal_compressed_tuple::Storage" = type { %"class.absl::lts_20230802::container_internal::CommonFields" }
%"class.absl::lts_20230802::container_internal::CommonFields" = type { ptr, ptr, i64, %"class.absl::lts_20230802::container_internal::CompressedTuple.231" }
%"class.absl::lts_20230802::container_internal::CompressedTuple.231" = type { %"struct.absl::lts_20230802::container_internal::internal_compressed_tuple::CompressedTupleImpl.232" }
%"struct.absl::lts_20230802::container_internal::internal_compressed_tuple::CompressedTupleImpl.232" = type { %"struct.absl::lts_20230802::container_internal::internal_compressed_tuple::Storage.233" }
%"struct.absl::lts_20230802::container_internal::internal_compressed_tuple::Storage.233" = type { i64 }
%"class.std::_Sp_counted_base" = type { ptr, i32, i32 }
%"class.std::_Sp_counted_deleter" = type { %"class.std::_Sp_counted_base", %"class.std::_Sp_counted_deleter<grpc_core::(anonymous namespace)::AresDNSResolver *, std::default_delete<grpc_core::(anonymous namespace)::AresDNSResolver>, std::allocator<void>, __gnu_cxx::_S_atomic>::_Impl" }
%"class.std::_Sp_counted_deleter<grpc_core::(anonymous namespace)::AresDNSResolver *, std::default_delete<grpc_core::(anonymous namespace)::AresDNSResolver>, std::allocator<void>, __gnu_cxx::_S_atomic>::_Impl" = type { ptr }
%"class.grpc_core::URI" = type { %"class.std::__cxx11::basic_string", %"class.std::__cxx11::basic_string", %"class.std::__cxx11::basic_string", %"class.std::map.79", %"class.std::vector.84", %"class.std::__cxx11::basic_string" }
%"class.std::map.79" = type { %"class.std::_Rb_tree.80" }
%"class.std::_Rb_tree.80" = type { %"struct.std::_Rb_tree<std::basic_string_view<char>, std::pair<const std::basic_string_view<char>, std::basic_string_view<char>>, std::_Select1st<std::pair<const std::basic_string_view<char>, std::basic_string_view<char>>>, std::less<std::basic_string_view<char>>>::_Rb_tree_impl" }
%"struct.std::_Rb_tree<std::basic_string_view<char>, std::pair<const std::basic_string_view<char>, std::basic_string_view<char>>, std::_Select1st<std::pair<const std::basic_string_view<char>, std::basic_string_view<char>>>, std::less<std::basic_string_view<char>>>::_Rb_tree_impl" = type { %"struct.std::_Rb_tree_key_compare", %"struct.std::_Rb_tree_header" }
%"class.std::vector.84" = type { %"struct.std::_Vector_base.85" }
%"struct.std::_Vector_base.85" = type { %"struct.std::_Vector_base<grpc_core::URI::QueryParam, std::allocator<grpc_core::URI::QueryParam>>::_Vector_impl" }
%"struct.std::_Vector_base<grpc_core::URI::QueryParam, std::allocator<grpc_core::URI::QueryParam>>::_Vector_impl" = type { %"struct.std::_Vector_base<grpc_core::URI::QueryParam, std::allocator<grpc_core::URI::QueryParam>>::_Vector_impl_data" }
%"struct.std::_Vector_base<grpc_core::URI::QueryParam, std::allocator<grpc_core::URI::QueryParam>>::_Vector_impl_data" = type { ptr, ptr, ptr }
%"class.std::unique_ptr.71" = type { %"struct.std::__uniq_ptr_data.72" }
%"struct.std::__uniq_ptr_data.72" = type { %"class.std::__uniq_ptr_impl.73" }
%"class.std::__uniq_ptr_impl.73" = type { %"class.std::tuple.74" }
%"class.std::tuple.74" = type { %"struct.std::_Tuple_impl.75" }
%"struct.std::_Tuple_impl.75" = type { %"struct.std::_Head_base.78" }
%"struct.std::_Head_base.78" = type { ptr }
%"struct.grpc_core::ResolverArgs" = type { %"class.grpc_core::URI", %"class.grpc_core::ChannelArgs", ptr, %"class.std::shared_ptr.89", %"class.std::unique_ptr.92" }
%"class.grpc_core::ChannelArgs" = type { %"class.grpc_core::AVL" }
%"class.grpc_core::AVL" = type { %"class.grpc_core::RefCountedPtr" }
%"class.grpc_core::RefCountedPtr" = type { ptr }
%"class.std::shared_ptr.89" = type { %"class.std::__shared_ptr.90" }
%"class.std::__shared_ptr.90" = type { ptr, %"class.std::__shared_count" }
%"class.std::unique_ptr.92" = type { %"struct.std::__uniq_ptr_data.93" }
%"struct.std::__uniq_ptr_data.93" = type { %"class.std::__uniq_ptr_impl.94" }
%"class.std::__uniq_ptr_impl.94" = type { %"class.std::tuple.95" }
%"class.std::tuple.95" = type { %"struct.std::_Tuple_impl.96" }
%"struct.std::_Tuple_impl.96" = type { %"struct.std::_Head_base.99" }
%"struct.std::_Head_base.99" = type { ptr }
%"class.grpc_core::BackOff::Options" = type { %"class.grpc_core::Duration", double, double, %"class.grpc_core::Duration" }
%"class.grpc_core::Duration" = type { i64 }
%"class.grpc_core::PollingResolver" = type { %"class.grpc_core::Resolver", %"class.std::__cxx11::basic_string", %"class.std::__cxx11::basic_string", %"class.grpc_core::ChannelArgs", %"class.std::shared_ptr.89", %"class.std::unique_ptr.92", ptr, ptr, i8, %"class.std::unique_ptr.116", %"class.grpc_core::Duration", %"class.std::optional.122", %"class.grpc_core::BackOff", i32, [4 x i8], %"class.std::optional.130" }
%"class.grpc_core::Resolver" = type { %"class.grpc_core::InternallyRefCounted" }
%"class.grpc_core::InternallyRefCounted" = type { %"class.grpc_core::Orphanable", %"class.grpc_core::RefCount" }
%"class.grpc_core::Orphanable" = type { ptr }
%"class.grpc_core::RefCount" = type { %"struct.std::atomic.114" }
%"class.std::unique_ptr.116" = type { %"struct.std::__uniq_ptr_data.117" }
%"struct.std::__uniq_ptr_data.117" = type { %"class.std::__uniq_ptr_impl.118" }
%"class.std::__uniq_ptr_impl.118" = type { %"class.std::tuple.119" }
%"class.std::tuple.119" = type { %"struct.std::_Tuple_impl.120" }
%"struct.std::_Tuple_impl.120" = type { %"struct.std::_Head_base.121" }
%"struct.std::_Head_base.121" = type { ptr }
%"class.std::optional.122" = type { %"struct.std::_Optional_base.123" }
%"struct.std::_Optional_base.123" = type { %"struct.std::_Optional_payload.125" }
%"struct.std::_Optional_payload.125" = type { %"struct.std::_Optional_payload_base.base.127", [7 x i8] }
%"struct.std::_Optional_payload_base.base.127" = type <{ %"union.std::_Optional_payload_base<grpc_core::Timestamp>::_Storage", i8 }>
%"union.std::_Optional_payload_base<grpc_core::Timestamp>::_Storage" = type { %"class.grpc_core::Timestamp" }
%"class.grpc_core::Timestamp" = type { i64 }
%"class.grpc_core::BackOff" = type { %"class.grpc_core::BackOff::Options", %"class.absl::lts_20230802::random_internal::NonsecureURBGBase", i8, %"class.grpc_core::Duration" }
%"class.absl::lts_20230802::random_internal::NonsecureURBGBase" = type { %"class.absl::lts_20230802::random_internal::randen_engine" }
%"class.absl::lts_20230802::random_internal::randen_engine" = type { [264 x i8], i64, %"class.absl::lts_20230802::random_internal::Randen" }
%"class.absl::lts_20230802::random_internal::Randen" = type <{ ptr, i8, [7 x i8] }>
%"class.std::optional.130" = type { %"struct.std::_Optional_base.131" }
%"struct.std::_Optional_base.131" = type { %"struct.std::_Optional_payload.133" }
%"struct.std::_Optional_payload.133" = type { %"struct.std::_Optional_payload_base.base.135", [7 x i8] }
%"struct.std::_Optional_payload_base.base.135" = type <{ %"union.std::_Optional_payload_base<grpc_event_engine::experimental::EventEngine::TaskHandle>::_Storage", i8 }>
%"union.std::_Optional_payload_base<grpc_event_engine::experimental::EventEngine::TaskHandle>::_Storage" = type { %"struct.grpc_event_engine::experimental::EventEngine::TaskHandle" }
%"struct.grpc_event_engine::experimental::EventEngine::TaskHandle" = type { [2 x i64] }
%"class.grpc_core::(anonymous namespace)::AresClientChannelDNSResolver" = type { %"class.grpc_core::PollingResolver", i8, i8, i32 }
%"class.grpc_core::InternallyRefCounted.161" = type { %"class.grpc_core::Orphanable", %"class.grpc_core::RefCount" }
%"class.grpc_core::(anonymous namespace)::AresClientChannelDNSResolver::AresRequestWrapper" = type { %"class.grpc_core::InternallyRefCounted.161", %"class.absl::lts_20230802::Mutex", %"class.grpc_core::RefCountedPtr.162", %struct.grpc_closure, %"class.std::unique_ptr.165", %struct.grpc_closure, %"class.std::unique_ptr.165", %struct.grpc_closure, %"class.std::unique_ptr.165", %"class.std::unique_ptr.173", %"class.std::unique_ptr.173", ptr }
%"class.grpc_core::RefCountedPtr.162" = type { ptr }
%struct.grpc_closure = type { %union.anon.163, ptr, ptr, %union.anon.164 }
%union.anon.163 = type { ptr }
%union.anon.164 = type { i64 }
%"class.std::unique_ptr.165" = type { %"struct.std::__uniq_ptr_data.166" }
%"struct.std::__uniq_ptr_data.166" = type { %"class.std::__uniq_ptr_impl.167" }
%"class.std::__uniq_ptr_impl.167" = type { %"class.std::tuple.168" }
%"class.std::tuple.168" = type { %"struct.std::_Tuple_impl.169" }
%"struct.std::_Tuple_impl.169" = type { %"struct.std::_Head_base.172" }
%"struct.std::_Head_base.172" = type { ptr }
%"class.std::unique_ptr.173" = type { %"struct.std::__uniq_ptr_data.174" }
%"struct.std::__uniq_ptr_data.174" = type { %"class.std::__uniq_ptr_impl.175" }
%"class.std::__uniq_ptr_impl.175" = type { %"class.std::tuple.176" }
%"class.std::tuple.176" = type { %"struct.std::_Tuple_impl.177" }
%"struct.std::_Tuple_impl.177" = type { %"struct.std::_Head_base.180" }
%"struct.std::_Head_base.180" = type { ptr }
%struct.grpc_ares_request = type { %"class.absl::lts_20230802::Mutex", %struct.ares_addr_port_node, ptr, ptr, ptr, ptr, ptr, i64, %"class.absl::lts_20230802::Status" }
%struct.ares_addr_port_node = type { ptr, i32, %union.anon.223, i32, i32 }
%union.anon.223 = type { %struct.in_addr, [12 x i8] }
%struct.in_addr = type { i32 }
%"class.std::optional.184" = type { %"struct.std::_Optional_base.185" }
%"struct.std::_Optional_base.185" = type { %"struct.std::_Optional_payload.187" }
%"struct.std::_Optional_payload.187" = type { %"struct.std::_Optional_payload.base.207", [7 x i8] }
%"struct.std::_Optional_payload.base.207" = type { %"struct.std::_Optional_payload_base.base.206" }
%"struct.std::_Optional_payload_base.base.206" = type <{ %"union.std::_Optional_payload_base<grpc_core::Resolver::Result>::_Storage", i8 }>
%"union.std::_Optional_payload_base<grpc_core::Resolver::Result>::_Storage" = type { %"struct.grpc_core::Resolver::Result" }
%"struct.grpc_core::Resolver::Result" = type { %"class.absl::lts_20230802::StatusOr", %"class.absl::lts_20230802::StatusOr.197", %"class.std::__cxx11::basic_string", %"class.grpc_core::ChannelArgs", %"class.std::function" }
%"class.absl::lts_20230802::StatusOr" = type { %"class.absl::lts_20230802::internal_statusor::StatusOrData" }
%"class.absl::lts_20230802::internal_statusor::StatusOrData" = type { %union.anon.190, %union.anon.191 }
%union.anon.190 = type { %"class.absl::lts_20230802::Status" }
%union.anon.191 = type { %"class.std::vector.192" }
%"class.std::vector.192" = type { %"struct.std::_Vector_base.193" }
%"struct.std::_Vector_base.193" = type { %"struct.std::_Vector_base<grpc_core::EndpointAddresses, std::allocator<grpc_core::EndpointAddresses>>::_Vector_impl" }
%"struct.std::_Vector_base<grpc_core::EndpointAddresses, std::allocator<grpc_core::EndpointAddresses>>::_Vector_impl" = type { %"struct.std::_Vector_base<grpc_core::EndpointAddresses, std::allocator<grpc_core::EndpointAddresses>>::_Vector_impl_data" }
%"struct.std::_Vector_base<grpc_core::EndpointAddresses, std::allocator<grpc_core::EndpointAddresses>>::_Vector_impl_data" = type { ptr, ptr, ptr }
%"class.absl::lts_20230802::StatusOr.197" = type { %"class.absl::lts_20230802::internal_statusor::StatusOrData.198" }
%"class.absl::lts_20230802::internal_statusor::StatusOrData.198" = type { %union.anon.199, %union.anon.200 }
%union.anon.199 = type { %"class.absl::lts_20230802::Status" }
%union.anon.200 = type { %"class.grpc_core::RefCountedPtr.201" }
%"class.grpc_core::RefCountedPtr.201" = type { ptr }
%"class.std::function" = type { %"class.std::_Function_base", ptr }
%"class.std::_Function_base" = type { %"union.std::_Any_data", ptr }
%"union.std::_Any_data" = type { %"union.std::_Nocopy_types" }
%"union.std::_Nocopy_types" = type { { i64, i64 } }
%"struct.std::_Optional_payload_base.189" = type <{ %"union.std::_Optional_payload_base<grpc_core::Resolver::Result>::_Storage", i8, [7 x i8] }>
%"class.grpc_core::EndpointAddresses" = type { %"class.std::vector.218", %"class.grpc_core::ChannelArgs" }
%"class.std::vector.218" = type { %"struct.std::_Vector_base.219" }
%"struct.std::_Vector_base.219" = type { %"struct.std::_Vector_base<grpc_resolved_address, std::allocator<grpc_resolved_address>>::_Vector_impl" }
%"struct.std::_Vector_base<grpc_resolved_address, std::allocator<grpc_resolved_address>>::_Vector_impl" = type { %"struct.std::_Vector_base<grpc_resolved_address, std::allocator<grpc_resolved_address>>::_Vector_impl_data" }
%"struct.std::_Vector_base<grpc_resolved_address, std::allocator<grpc_resolved_address>>::_Vector_impl_data" = type { ptr, ptr, ptr }
%"class.absl::lts_20230802::StatusOr.210" = type { %"class.absl::lts_20230802::internal_statusor::StatusOrData.211" }
%"class.absl::lts_20230802::internal_statusor::StatusOrData.211" = type { %union.anon.212, %union.anon.213 }
%union.anon.212 = type { %"class.absl::lts_20230802::Status" }
%union.anon.213 = type { %"class.std::__cxx11::basic_string" }
%"class.absl::lts_20230802::AlphaNum" = type { %"class.std::basic_string_view", [32 x i8] }
%"class.std::basic_string_view" = type { i64, ptr }
%"class.grpc_core::RefCounted" = type { %"class.grpc_core::PolymorphicRefCount", %"class.grpc_core::RefCount" }
%"class.grpc_core::PolymorphicRefCount" = type { ptr }
%"struct.absl::lts_20230802::status_internal::StatusRep" = type { %"struct.std::atomic.61", i32, %"class.std::__cxx11::basic_string", %"class.std::unique_ptr.63" }
%"struct.std::atomic.61" = type { %"struct.std::__atomic_base.62" }
%"struct.std::__atomic_base.62" = type { i32 }
%"class.std::unique_ptr.63" = type { %"struct.std::__uniq_ptr_data.64" }
%"struct.std::__uniq_ptr_data.64" = type { %"class.std::__uniq_ptr_impl.65" }
%"class.std::__uniq_ptr_impl.65" = type { %"class.std::tuple.66" }
%"class.std::tuple.66" = type { %"struct.std::_Tuple_impl.67" }
%"struct.std::_Tuple_impl.67" = type { %"struct.std::_Head_base.70" }
%"struct.std::_Head_base.70" = type { ptr }
%"struct.grpc_core::URI::QueryParam" = type { %"class.std::__cxx11::basic_string", %"class.std::__cxx11::basic_string" }
%"struct.std::__cxx11::basic_string<char>::__sv_wrapper" = type { %"class.std::basic_string_view" }
%"class.std::allocator.0" = type { i8 }
%"struct.grpc_core::DNSResolver::LookupTaskHandle" = type { [2 x i64] }
%"class.std::function.242" = type { %"class.std::_Function_base", ptr }
%"class.grpc_core::(anonymous namespace)::AresDNSResolver::AresHostnameRequest" = type { %"class.grpc_core::(anonymous namespace)::AresDNSResolver::AresRequest", %"class.std::__cxx11::basic_string", %"class.std::function.242", %"class.std::unique_ptr.173" }
%"class.grpc_core::(anonymous namespace)::AresDNSResolver::AresRequest" = type { ptr, %"class.std::__cxx11::basic_string", %"class.std::__cxx11::basic_string", %"class.grpc_core::Duration", %"class.absl::lts_20230802::Mutex", ptr, %"class.std::unique_ptr.165", i8, ptr, i64, %struct.grpc_closure, ptr }
%"class.absl::lts_20230802::StatusOr.245" = type { %"class.absl::lts_20230802::internal_statusor::StatusOrData.246" }
%"class.absl::lts_20230802::internal_statusor::StatusOrData.246" = type { %union.anon.247, %union.anon.248 }
%union.anon.247 = type { %"class.absl::lts_20230802::Status" }
%union.anon.248 = type { %"class.std::vector.218" }
%"class.grpc_core::(anonymous namespace)::AresDNSResolver::AresSRVRequest" = type { %"class.grpc_core::(anonymous namespace)::AresDNSResolver::AresRequest", %"class.std::function.242", %"class.std::unique_ptr.173" }
%"class.std::function.253" = type { %"class.std::_Function_base", ptr }
%"class.grpc_core::(anonymous namespace)::AresDNSResolver::AresTXTRequest" = type { %"class.grpc_core::(anonymous namespace)::AresDNSResolver::AresRequest", ptr, %"class.std::function.253" }
%struct.grpc_resolved_address = type { [128 x i8], i32 }
%struct._Guard = type { ptr }
%"class.std::type_info" = type { ptr, ptr }

$_ZN4absl12lts_202308026StatusD2Ev = comdat any

$_ZNSt10shared_ptrIN9grpc_core11DNSResolverEED2Ev = comdat any

$__clang_call_terminate = comdat any

$_ZNSt14__shared_countILN9__gnu_cxx12_Lock_policyE2EED2Ev = comdat any

$_ZNK9grpc_core15ResolverFactory19GetDefaultAuthorityB5cxx11ERKNS_3URIE = comdat any

$_ZN9grpc_core12ResolverArgsD2Ev = comdat any

$_ZN9grpc_core3URIC2EOS0_ = comdat any

$_ZN9grpc_core8Resolver6OrphanEv = comdat any

$_ZNSt10unique_ptrISt6vectorIN9grpc_core17EndpointAddressesESaIS2_EESt14default_deleteIS4_EED2Ev = comdat any

$_ZNSt10unique_ptrI17grpc_ares_requestSt14default_deleteIS0_EED2Ev = comdat any

$_ZN9grpc_core8Resolver6ResultD2Ev = comdat any

$_ZN4absl12lts_202308028StatusOrIN9grpc_core13RefCountedPtrINS2_13ServiceConfigEEEED2Ev = comdat any

$_ZNK4absl12lts_202308026Status7messageEv = comdat any

$_ZN4absl12lts_202308028StatusOrINSt7__cxx1112basic_stringIcSt11char_traitsIcESaIcEEEED2Ev = comdat any

$_ZNSt6vectorIN9grpc_core17EndpointAddressesESaIS1_EEC2ERKS3_ = comdat any

$_ZNSt6vectorIN9grpc_core17EndpointAddressesESaIS1_EED2Ev = comdat any

$_ZN4absl12lts_202308028StatusOrISt6vectorIN9grpc_core17EndpointAddressesESaIS4_EEEC2Ev = comdat any

$_ZN4absl12lts_202308028StatusOrISt6vectorIN9grpc_core17EndpointAddressesESaIS4_EEED2Ev = comdat any

$_ZN4absl12lts_2023080217internal_statusor12StatusOrDataISt6vectorIN9grpc_core17EndpointAddressesESaIS5_EEE6AssignIS7_EEvOT_ = comdat any

$_ZN4absl12lts_2023080217internal_statusor12StatusOrDataIN9grpc_core13RefCountedPtrINS3_13ServiceConfigEEEE12AssignStatusINS0_6StatusEEEvOT_ = comdat any

$_ZN4absl12lts_2023080217internal_statusor12StatusOrDataIN9grpc_core13RefCountedPtrINS3_13ServiceConfigEEEEaSEOS7_ = comdat any

$_ZSt8_DestroyIPN9grpc_core17EndpointAddressesEEvT_S3_ = comdat any

$_ZN4absl12lts_2023080217internal_statusor12StatusOrDataISt6vectorIN9grpc_core17EndpointAddressesESaIS5_EEE12AssignStatusIRNS0_6StatusEEEvOT_ = comdat any

$_ZN4absl12lts_2023080217internal_statusor12StatusOrDataIN9grpc_core13RefCountedPtrINS3_13ServiceConfigEEEE12AssignStatusIRNS0_6StatusEEEvOT_ = comdat any

$_ZNSt22_Optional_payload_baseIN9grpc_core8Resolver6ResultEE14_M_move_assignEOS3_ = comdat any

$_ZN9grpc_core8Resolver6ResultaSEOS1_ = comdat any

$_ZN4absl12lts_2023080217internal_statusor12StatusOrDataISt6vectorIN9grpc_core17EndpointAddressesESaIS5_EEE12AssignStatusINS0_6StatusEEEvOT_ = comdat any

$_ZN9grpc_core3URID2Ev = comdat any

$_ZNSt8_Rb_treeISt17basic_string_viewIcSt11char_traitsIcEESt4pairIKS3_S3_ESt10_Select1stIS6_ESt4lessIS3_ESaIS6_EE8_M_eraseEPSt13_Rb_tree_nodeIS6_E = comdat any

$_ZN4absl12lts_2023080218container_internal12raw_hash_setINS1_17FlatHashSetPolicyIN9grpc_core11DNSResolver16LookupTaskHandleEEEN17grpc_event_engine12experimental20TaskHandleComparatorIS6_E4HashESt8equal_toIS6_ESaIS6_EE5eraseIS6_EEmRKS6_ = comdat any

$_ZN4absl12lts_202308028StatusOrISt6vectorI21grpc_resolved_addressSaIS3_EEED2Ev = comdat any

$_ZN4absl12lts_2023080218container_internal12raw_hash_setINS1_17FlatHashSetPolicyIN9grpc_core11DNSResolver16LookupTaskHandleEEEN17grpc_event_engine12experimental20TaskHandleComparatorIS6_E4HashESt8equal_toIS6_ESaIS6_EE22find_or_prepare_insertIS6_EESt4pairImbERKT_ = comdat any

$_ZN4absl12lts_2023080218container_internal12raw_hash_setINS1_17FlatHashSetPolicyIN9grpc_core11DNSResolver16LookupTaskHandleEEEN17grpc_event_engine12experimental20TaskHandleComparatorIS6_E4HashESt8equal_toIS6_ESaIS6_EE14prepare_insertEm = comdat any

$_ZN4absl12lts_2023080218container_internal12raw_hash_setINS1_17FlatHashSetPolicyIN9grpc_core11DNSResolver16LookupTaskHandleEEEN17grpc_event_engine12experimental20TaskHandleComparatorIS6_E4HashESt8equal_toIS6_ESaIS6_EE6resizeEm = comdat any

$_ZN4absl12lts_2023080218container_internal12raw_hash_setINS1_17FlatHashSetPolicyIN9grpc_core11DNSResolver16LookupTaskHandleEEEN17grpc_event_engine12experimental20TaskHandleComparatorIS6_E4HashESt8equal_toIS6_ESaIS6_EE12hash_slot_fnEPvSH_ = comdat any

$_ZN4absl12lts_2023080218container_internal19TransferRelocatableILm16EEEvPvS3_S3_ = comdat any

$_ZN4absl12lts_2023080218container_internal18DeallocateStandardILm8EEEvRNS1_12CommonFieldsERKNS1_15PolicyFunctionsE = comdat any

$_ZN4absl12lts_2023080217internal_statusor12StatusOrDataINSt7__cxx1112basic_stringIcSt11char_traitsIcESaIcEEEEC2IJRPcEEESt10in_place_tDpOT_ = comdat any

$_ZNSt7__cxx1112basic_stringIcSt11char_traitsIcESaIcEE12_M_constructIPKcEEvT_S8_St20forward_iterator_tag = comdat any

$_ZZNSt7__cxx1112basic_stringIcSt11char_traitsIcESaIcEE12_M_constructIPKcEEvT_S8_St20forward_iterator_tagEN6_GuardD2Ev = comdat any

$_ZTSN9grpc_core15ResolverFactoryE = comdat any

$_ZTIN9grpc_core15ResolverFactoryE = comdat any

$_ZTSN9grpc_core10OrphanableE = comdat any

$_ZTIN9grpc_core10OrphanableE = comdat any

$_ZN4absl12lts_202308026Status16kMovedFromStringE = comdat any

$_ZTSN9grpc_core11DNSResolverE = comdat any

$_ZTIN9grpc_core11DNSResolverE = comdat any

$_ZZN4absl12lts_2023080218container_internal12raw_hash_setINS1_17FlatHashSetPolicyIN9grpc_core11DNSResolver16LookupTaskHandleEEEN17grpc_event_engine12experimental20TaskHandleComparatorIS6_E4HashESt8equal_toIS6_ESaIS6_EE18GetPolicyFunctionsEvE5value = comdat any

$_ZTSSt16_Sp_counted_baseILN9__gnu_cxx12_Lock_policyE2EE = comdat any

$_ZTSSt11_Mutex_baseILN9__gnu_cxx12_Lock_policyE2EE = comdat any

$_ZTISt11_Mutex_baseILN9__gnu_cxx12_Lock_policyE2EE = comdat any

$_ZTISt16_Sp_counted_baseILN9__gnu_cxx12_Lock_policyE2EE = comdat any

@_ZStL8__ioinit = internal global %"class.std::ios_base::Init" zeroinitializer, align 1
@__dso_handle = external hidden global i8
@.str = private unnamed_addr constant [5 x i8] c"ares\00", align 1
@.str.1 = private unnamed_addr constant [24 x i8] c"grpc_ares_init() failed\00", align 1
@.str.2 = private unnamed_addr constant [164 x i8] c"generated/home/dtcxzyw/WorkSpace/Projects/compilers/llvm-opt-benchmark/bench/grpc/grpc/src/core/ext/filters/client_channel/resolver/dns/c_ares/dns_resolver_ares.cc\00", align 1
@_ZN9grpc_core10ConfigVars12config_vars_E = external local_unnamed_addr global %"struct.std::atomic", align 8
@__libc_single_threaded = external local_unnamed_addr global i8, align 1
@_ZTVN9grpc_core12_GLOBAL__N_135AresClientChannelDNSResolverFactoryE = internal unnamed_addr constant { [8 x ptr] } { [8 x ptr] [ptr null, ptr @_ZTIN9grpc_core12_GLOBAL__N_135AresClientChannelDNSResolverFactoryE, ptr @_ZN9grpc_core12_GLOBAL__N_135AresClientChannelDNSResolverFactoryD2Ev, ptr @_ZN9grpc_core12_GLOBAL__N_135AresClientChannelDNSResolverFactoryD0Ev, ptr @_ZNK9grpc_core12_GLOBAL__N_135AresClientChannelDNSResolverFactory6schemeEv, ptr @_ZNK9grpc_core12_GLOBAL__N_135AresClientChannelDNSResolverFactory10IsValidUriERKNS_3URIE, ptr @_ZNK9grpc_core12_GLOBAL__N_135AresClientChannelDNSResolverFactory14CreateResolverENS_12ResolverArgsE, ptr @_ZNK9grpc_core15ResolverFactory19GetDefaultAuthorityB5cxx11ERKNS_3URIE] }, align 8
@_ZTVN10__cxxabiv120__si_class_type_infoE = external global [0 x ptr]
@_ZTSN9grpc_core12_GLOBAL__N_135AresClientChannelDNSResolverFactoryE = internal constant [64 x i8] c"N9grpc_core12_GLOBAL__N_135AresClientChannelDNSResolverFactoryE\00", align 1
@_ZTVN10__cxxabiv117__class_type_infoE = external global [0 x ptr]
@_ZTSN9grpc_core15ResolverFactoryE = linkonce_odr constant [30 x i8] c"N9grpc_core15ResolverFactoryE\00", comdat, align 1
@_ZTIN9grpc_core15ResolverFactoryE = linkonce_odr constant { ptr, ptr } { ptr getelementptr inbounds (ptr, ptr @_ZTVN10__cxxabiv117__class_type_infoE, i64 2), ptr @_ZTSN9grpc_core15ResolverFactoryE }, comdat, align 8
@_ZTIN9grpc_core12_GLOBAL__N_135AresClientChannelDNSResolverFactoryE = internal constant { ptr, ptr, ptr } { ptr getelementptr inbounds (ptr, ptr @_ZTVN10__cxxabiv120__si_class_type_infoE, i64 2), ptr @_ZTSN9grpc_core12_GLOBAL__N_135AresClientChannelDNSResolverFactoryE, ptr @_ZTIN9grpc_core15ResolverFactoryE }, align 8
@.str.3 = private unnamed_addr constant [4 x i8] c"dns\00", align 1
@.str.5 = private unnamed_addr constant [35 x i8] c"no server name supplied in dns URI\00", align 1
@.str.6 = private unnamed_addr constant [41 x i8] c"grpc.dns_min_time_between_resolutions_ms\00", align 1
@grpc_trace_cares_resolver = external global %"class.grpc_core::TraceFlag", align 8
@_ZTVN9grpc_core12_GLOBAL__N_128AresClientChannelDNSResolverE = internal unnamed_addr constant { [10 x ptr] } { [10 x ptr] [ptr null, ptr @_ZTIN9grpc_core12_GLOBAL__N_128AresClientChannelDNSResolverE, ptr @_ZN9grpc_core8Resolver6OrphanEv, ptr @_ZN9grpc_core12_GLOBAL__N_128AresClientChannelDNSResolverD2Ev, ptr @_ZN9grpc_core12_GLOBAL__N_128AresClientChannelDNSResolverD0Ev, ptr @_ZN9grpc_core15PollingResolver11StartLockedEv, ptr @_ZN9grpc_core15PollingResolver25RequestReresolutionLockedEv, ptr @_ZN9grpc_core15PollingResolver18ResetBackoffLockedEv, ptr @_ZN9grpc_core15PollingResolver14ShutdownLockedEv, ptr @_ZN9grpc_core12_GLOBAL__N_128AresClientChannelDNSResolver12StartRequestEv] }, align 8
@.str.7 = private unnamed_addr constant [39 x i8] c"grpc.service_config_disable_resolution\00", align 1
@.str.8 = private unnamed_addr constant [28 x i8] c"grpc.dns_enable_srv_queries\00", align 1
@.str.9 = private unnamed_addr constant [28 x i8] c"grpc.dns_ares_query_timeout\00", align 1
@_ZTSN9grpc_core12_GLOBAL__N_128AresClientChannelDNSResolverE = internal constant [57 x i8] c"N9grpc_core12_GLOBAL__N_128AresClientChannelDNSResolverE\00", align 1
@_ZTIN9grpc_core15PollingResolverE = external constant ptr
@_ZTIN9grpc_core12_GLOBAL__N_128AresClientChannelDNSResolverE = internal constant { ptr, ptr, ptr } { ptr getelementptr inbounds (ptr, ptr @_ZTVN10__cxxabiv120__si_class_type_infoE, i64 2), ptr @_ZTSN9grpc_core12_GLOBAL__N_128AresClientChannelDNSResolverE, ptr @_ZTIN9grpc_core15PollingResolverE }, align 8
@.str.10 = private unnamed_addr constant [70 x i8] c"(c-ares resolver) resolver:%p destroying AresClientChannelDNSResolver\00", align 1
@_ZTVN9grpc_core12_GLOBAL__N_128AresClientChannelDNSResolver18AresRequestWrapperE = internal unnamed_addr constant { [5 x ptr] } { [5 x ptr] [ptr null, ptr @_ZTIN9grpc_core12_GLOBAL__N_128AresClientChannelDNSResolver18AresRequestWrapperE, ptr @_ZN9grpc_core12_GLOBAL__N_128AresClientChannelDNSResolver18AresRequestWrapper6OrphanEv, ptr @_ZN9grpc_core12_GLOBAL__N_128AresClientChannelDNSResolver18AresRequestWrapperD2Ev, ptr @_ZN9grpc_core12_GLOBAL__N_128AresClientChannelDNSResolver18AresRequestWrapperD0Ev] }, align 8
@grpc_dns_lookup_hostname_ares = external local_unnamed_addr global ptr, align 8
@_ZN9grpc_core18kDefaultSecurePortE = external local_unnamed_addr global ptr, align 8
@.str.13 = private unnamed_addr constant [80 x i8] c"(c-ares resolver) resolver:%p Started resolving hostnames. hostname_request_:%p\00", align 1
@grpc_dns_lookup_srv_ares = external local_unnamed_addr global ptr, align 8
@.str.15 = private unnamed_addr constant [77 x i8] c"(c-ares resolver) resolver:%p Started resolving SRV records. srv_request_:%p\00", align 1
@grpc_dns_lookup_txt_ares = external local_unnamed_addr global ptr, align 8
@.str.17 = private unnamed_addr constant [77 x i8] c"(c-ares resolver) resolver:%p Started resolving TXT records. txt_request_:%p\00", align 1
@_ZTSN9grpc_core12_GLOBAL__N_128AresClientChannelDNSResolver18AresRequestWrapperE = internal constant [77 x i8] c"N9grpc_core12_GLOBAL__N_128AresClientChannelDNSResolver18AresRequestWrapperE\00", align 1
@_ZTSN9grpc_core20InternallyRefCountedINS_12_GLOBAL__N_128AresClientChannelDNSResolver18AresRequestWrapperENS_11UnrefDeleteEEE = internal constant [122 x i8] c"N9grpc_core20InternallyRefCountedINS_12_GLOBAL__N_128AresClientChannelDNSResolver18AresRequestWrapperENS_11UnrefDeleteEEE\00", align 1
@_ZTSN9grpc_core10OrphanableE = linkonce_odr constant [25 x i8] c"N9grpc_core10OrphanableE\00", comdat, align 1
@_ZTIN9grpc_core10OrphanableE = linkonce_odr constant { ptr, ptr } { ptr getelementptr inbounds (ptr, ptr @_ZTVN10__cxxabiv117__class_type_infoE, i64 2), ptr @_ZTSN9grpc_core10OrphanableE }, comdat, align 8
@_ZTIN9grpc_core20InternallyRefCountedINS_12_GLOBAL__N_128AresClientChannelDNSResolver18AresRequestWrapperENS_11UnrefDeleteEEE = internal constant { ptr, ptr, ptr } { ptr getelementptr inbounds (ptr, ptr @_ZTVN10__cxxabiv120__si_class_type_infoE, i64 2), ptr @_ZTSN9grpc_core20InternallyRefCountedINS_12_GLOBAL__N_128AresClientChannelDNSResolver18AresRequestWrapperENS_11UnrefDeleteEEE, ptr @_ZTIN9grpc_core10OrphanableE }, align 8
@_ZTIN9grpc_core12_GLOBAL__N_128AresClientChannelDNSResolver18AresRequestWrapperE = internal constant { ptr, ptr, ptr } { ptr getelementptr inbounds (ptr, ptr @_ZTVN10__cxxabiv120__si_class_type_infoE, i64 2), ptr @_ZTSN9grpc_core12_GLOBAL__N_128AresClientChannelDNSResolver18AresRequestWrapperE, ptr @_ZTIN9grpc_core20InternallyRefCountedINS_12_GLOBAL__N_128AresClientChannelDNSResolver18AresRequestWrapperENS_11UnrefDeleteEEE }, align 8
@.str.18 = private unnamed_addr constant [96 x i8] c"(c-ares resolver) resolver:%p OnResolved() waiting for results (hostname: %s, srv: %s, txt: %s)\00", align 1
@.str.19 = private unnamed_addr constant [8 x i8] c"waiting\00", align 1
@.str.20 = private unnamed_addr constant [5 x i8] c"done\00", align 1
@.str.21 = private unnamed_addr constant [54 x i8] c"(c-ares resolver) resolver:%p OnResolved() proceeding\00", align 1
@.str.22 = private unnamed_addr constant [33 x i8] c"failed to parse service config: \00", align 1
@.str.23 = private unnamed_addr constant [65 x i8] c"(c-ares resolver) resolver:%p selected service config choice: %s\00", align 1
@.str.24 = private unnamed_addr constant [56 x i8] c"(c-ares resolver) resolver:%p dns resolution failed: %s\00", align 1
@.str.25 = private unnamed_addr constant [27 x i8] c"DNS resolution failed for \00", align 1
@.str.26 = private unnamed_addr constant [3 x i8] c": \00", align 1
@.str.27 = private unnamed_addr constant [1 x i8] zeroinitializer, align 1
@_ZN4absl12lts_202308026Status16kMovedFromStringE = linkonce_odr constant [28 x i8] c"Status accessed after move.\00", comdat, align 16
@grpc_cancel_ares_request = external local_unnamed_addr global ptr, align 8
@_ZTVN9grpc_core12_GLOBAL__N_115AresDNSResolverE = internal unnamed_addr constant { [9 x ptr] } { [9 x ptr] [ptr null, ptr @_ZTIN9grpc_core12_GLOBAL__N_115AresDNSResolverE, ptr @_ZN9grpc_core12_GLOBAL__N_115AresDNSResolverD2Ev, ptr @_ZN9grpc_core12_GLOBAL__N_115AresDNSResolverD0Ev, ptr @_ZN9grpc_core12_GLOBAL__N_115AresDNSResolver14LookupHostnameESt8functionIFvN4absl12lts_202308028StatusOrISt6vectorI21grpc_resolved_addressSaIS7_EEEEEESt17basic_string_viewIcSt11char_traitsIcEESG_NS_8DurationEP16grpc_pollset_setSG_, ptr @_ZN9grpc_core12_GLOBAL__N_115AresDNSResolver22LookupHostnameBlockingESt17basic_string_viewIcSt11char_traitsIcEES5_, ptr @_ZN9grpc_core12_GLOBAL__N_115AresDNSResolver9LookupSRVESt8functionIFvN4absl12lts_202308028StatusOrISt6vectorI21grpc_resolved_addressSaIS7_EEEEEESt17basic_string_viewIcSt11char_traitsIcEENS_8DurationEP16grpc_pollset_setSG_, ptr @_ZN9grpc_core12_GLOBAL__N_115AresDNSResolver9LookupTXTESt8functionIFvN4absl12lts_202308028StatusOrINSt7__cxx1112basic_stringIcSt11char_traitsIcESaIcEEEEEEESt17basic_string_viewIcS9_ENS_8DurationEP16grpc_pollset_setSG_, ptr @_ZN9grpc_core12_GLOBAL__N_115AresDNSResolver6CancelENS_11DNSResolver16LookupTaskHandleE] }, align 8
@_ZTSN9grpc_core12_GLOBAL__N_115AresDNSResolverE = internal constant [44 x i8] c"N9grpc_core12_GLOBAL__N_115AresDNSResolverE\00", align 1
@_ZTSN9grpc_core11DNSResolverE = linkonce_odr constant [26 x i8] c"N9grpc_core11DNSResolverE\00", comdat, align 1
@_ZTIN9grpc_core11DNSResolverE = linkonce_odr constant { ptr, ptr } { ptr getelementptr inbounds (ptr, ptr @_ZTVN10__cxxabiv117__class_type_infoE, i64 2), ptr @_ZTSN9grpc_core11DNSResolverE }, comdat, align 8
@_ZTIN9grpc_core12_GLOBAL__N_115AresDNSResolverE = internal constant { ptr, ptr, ptr } { ptr getelementptr inbounds (ptr, ptr @_ZTVN10__cxxabiv120__si_class_type_infoE, i64 2), ptr @_ZTSN9grpc_core12_GLOBAL__N_115AresDNSResolverE, ptr @_ZTIN9grpc_core11DNSResolverE }, align 8
@_ZN4absl12lts_2023080218container_internal11kEmptyGroupE = external constant [32 x i8], align 16
@_ZTVN9grpc_core12_GLOBAL__N_115AresDNSResolver19AresHostnameRequestE = internal unnamed_addr constant { [6 x ptr] } { [6 x ptr] [ptr null, ptr @_ZTIN9grpc_core12_GLOBAL__N_115AresDNSResolver19AresHostnameRequestE, ptr @_ZN9grpc_core12_GLOBAL__N_115AresDNSResolver19AresHostnameRequestD2Ev, ptr @_ZN9grpc_core12_GLOBAL__N_115AresDNSResolver19AresHostnameRequestD0Ev, ptr @_ZN9grpc_core12_GLOBAL__N_115AresDNSResolver19AresHostnameRequest17MakeRequestLockedEv, ptr @_ZN9grpc_core12_GLOBAL__N_115AresDNSResolver19AresHostnameRequest10OnCompleteEN4absl12lts_202308026StatusE] }, align 8
@.str.29 = private unnamed_addr constant [46 x i8] c"(c-ares resolver) AresHostnameRequest:%p ctor\00", align 1
@_ZTSN9grpc_core12_GLOBAL__N_115AresDNSResolver19AresHostnameRequestE = internal constant [65 x i8] c"N9grpc_core12_GLOBAL__N_115AresDNSResolver19AresHostnameRequestE\00", align 1
@_ZTSN9grpc_core12_GLOBAL__N_115AresDNSResolver11AresRequestE = internal constant [57 x i8] c"N9grpc_core12_GLOBAL__N_115AresDNSResolver11AresRequestE\00", align 1
@_ZTIN9grpc_core12_GLOBAL__N_115AresDNSResolver11AresRequestE = internal constant { ptr, ptr } { ptr getelementptr inbounds (ptr, ptr @_ZTVN10__cxxabiv117__class_type_infoE, i64 2), ptr @_ZTSN9grpc_core12_GLOBAL__N_115AresDNSResolver11AresRequestE }, align 8
@_ZTIN9grpc_core12_GLOBAL__N_115AresDNSResolver19AresHostnameRequestE = internal constant { ptr, ptr, ptr } { ptr getelementptr inbounds (ptr, ptr @_ZTVN10__cxxabiv120__si_class_type_infoE, i64 2), ptr @_ZTSN9grpc_core12_GLOBAL__N_115AresDNSResolver19AresHostnameRequestE, ptr @_ZTIN9grpc_core12_GLOBAL__N_115AresDNSResolver11AresRequestE }, align 8
@_ZTVN9grpc_core12_GLOBAL__N_115AresDNSResolver11AresRequestE = internal unnamed_addr constant { [6 x ptr] } { [6 x ptr] [ptr null, ptr @_ZTIN9grpc_core12_GLOBAL__N_115AresDNSResolver11AresRequestE, ptr @_ZN9grpc_core12_GLOBAL__N_115AresDNSResolver11AresRequestD2Ev, ptr @_ZN9grpc_core12_GLOBAL__N_115AresDNSResolver11AresRequestD0Ev, ptr @__cxa_pure_virtual, ptr @__cxa_pure_virtual] }, align 8
@.str.30 = private unnamed_addr constant [55 x i8] c"(c-ares resolver) AresRequest:%p dtor ares_request_:%p\00", align 1
@_ZN4absl12lts_2023080213hash_internal15MixingHashState5kSeedE = external constant ptr, align 8
@.str.32 = private unnamed_addr constant [64 x i8] c"(c-ares resolver) AresHostnameRequest:%p Start ares_request_:%p\00", align 1
@.str.33 = private unnamed_addr constant [52 x i8] c"(c-ares resolver) AresHostnameRequest:%p OnComplete\00", align 1
@.str.34 = private unnamed_addr constant [16 x i8] c"vector::reserve\00", align 1
@.str.35 = private unnamed_addr constant [26 x i8] c"vector::_M_realloc_insert\00", align 1
@_ZZN4absl12lts_2023080218container_internal12raw_hash_setINS1_17FlatHashSetPolicyIN9grpc_core11DNSResolver16LookupTaskHandleEEEN17grpc_event_engine12experimental20TaskHandleComparatorIS6_E4HashESt8equal_toIS6_ESaIS6_EE18GetPolicyFunctionsEvE5value = linkonce_odr constant %"struct.absl::lts_20230802::container_internal::PolicyFunctions" { i64 16, ptr @_ZN4absl12lts_2023080218container_internal12raw_hash_setINS1_17FlatHashSetPolicyIN9grpc_core11DNSResolver16LookupTaskHandleEEEN17grpc_event_engine12experimental20TaskHandleComparatorIS6_E4HashESt8equal_toIS6_ESaIS6_EE12hash_slot_fnEPvSH_, ptr @_ZN4absl12lts_2023080218container_internal19TransferRelocatableILm16EEEvPvS3_S3_, ptr @_ZN4absl12lts_2023080218container_internal18DeallocateStandardILm8EEEvRNS1_12CommonFieldsERKNS1_15PolicyFunctionsE }, comdat, align 8
@_ZTVN9grpc_core12_GLOBAL__N_115AresDNSResolver14AresSRVRequestE = internal unnamed_addr constant { [6 x ptr] } { [6 x ptr] [ptr null, ptr @_ZTIN9grpc_core12_GLOBAL__N_115AresDNSResolver14AresSRVRequestE, ptr @_ZN9grpc_core12_GLOBAL__N_115AresDNSResolver14AresSRVRequestD2Ev, ptr @_ZN9grpc_core12_GLOBAL__N_115AresDNSResolver14AresSRVRequestD0Ev, ptr @_ZN9grpc_core12_GLOBAL__N_115AresDNSResolver14AresSRVRequest17MakeRequestLockedEv, ptr @_ZN9grpc_core12_GLOBAL__N_115AresDNSResolver14AresSRVRequest10OnCompleteEN4absl12lts_202308026StatusE] }, align 8
@.str.36 = private unnamed_addr constant [41 x i8] c"(c-ares resolver) AresSRVRequest:%p ctor\00", align 1
@_ZTSN9grpc_core12_GLOBAL__N_115AresDNSResolver14AresSRVRequestE = internal constant [60 x i8] c"N9grpc_core12_GLOBAL__N_115AresDNSResolver14AresSRVRequestE\00", align 1
@_ZTIN9grpc_core12_GLOBAL__N_115AresDNSResolver14AresSRVRequestE = internal constant { ptr, ptr, ptr } { ptr getelementptr inbounds (ptr, ptr @_ZTVN10__cxxabiv120__si_class_type_infoE, i64 2), ptr @_ZTSN9grpc_core12_GLOBAL__N_115AresDNSResolver14AresSRVRequestE, ptr @_ZTIN9grpc_core12_GLOBAL__N_115AresDNSResolver11AresRequestE }, align 8
@.str.37 = private unnamed_addr constant [59 x i8] c"(c-ares resolver) AresSRVRequest:%p Start ares_request_:%p\00", align 1
@.str.38 = private unnamed_addr constant [47 x i8] c"(c-ares resolver) AresSRVRequest:%p OnComplete\00", align 1
@_ZTVN9grpc_core12_GLOBAL__N_115AresDNSResolver14AresTXTRequestE = internal unnamed_addr constant { [6 x ptr] } { [6 x ptr] [ptr null, ptr @_ZTIN9grpc_core12_GLOBAL__N_115AresDNSResolver14AresTXTRequestE, ptr @_ZN9grpc_core12_GLOBAL__N_115AresDNSResolver14AresTXTRequestD2Ev, ptr @_ZN9grpc_core12_GLOBAL__N_115AresDNSResolver14AresTXTRequestD0Ev, ptr @_ZN9grpc_core12_GLOBAL__N_115AresDNSResolver14AresTXTRequest17MakeRequestLockedEv, ptr @_ZN9grpc_core12_GLOBAL__N_115AresDNSResolver14AresTXTRequest10OnCompleteEN4absl12lts_202308026StatusE] }, align 8
@.str.39 = private unnamed_addr constant [41 x i8] c"(c-ares resolver) AresTXTRequest:%p ctor\00", align 1
@_ZTSN9grpc_core12_GLOBAL__N_115AresDNSResolver14AresTXTRequestE = internal constant [60 x i8] c"N9grpc_core12_GLOBAL__N_115AresDNSResolver14AresTXTRequestE\00", align 1
@_ZTIN9grpc_core12_GLOBAL__N_115AresDNSResolver14AresTXTRequestE = internal constant { ptr, ptr, ptr } { ptr getelementptr inbounds (ptr, ptr @_ZTVN10__cxxabiv120__si_class_type_infoE, i64 2), ptr @_ZTSN9grpc_core12_GLOBAL__N_115AresDNSResolver14AresTXTRequestE, ptr @_ZTIN9grpc_core12_GLOBAL__N_115AresDNSResolver11AresRequestE }, align 8
@.str.40 = private unnamed_addr constant [50 x i8] c"basic_string: construction from null is not valid\00", align 1
@.str.41 = private unnamed_addr constant [77 x i8] c"(c-ares resolver) AresDNSResolver:%p attempt to cancel unknown TaskHandle:%s\00", align 1
@.str.42 = private unnamed_addr constant [60 x i8] c"(c-ares resolver) AresDNSResolver:%p cancel ares_request:%p\00", align 1
@.str.43 = private unnamed_addr constant [57 x i8] c"(c-ares resolver) AresRequest:%p Cancel ares_request_:%p\00", align 1
@_ZTVSt19_Sp_counted_deleterIPN9grpc_core12_GLOBAL__N_115AresDNSResolverESt14default_deleteIS2_ESaIvELN9__gnu_cxx12_Lock_policyE2EE = internal unnamed_addr constant { [7 x ptr] } { [7 x ptr] [ptr null, ptr @_ZTISt19_Sp_counted_deleterIPN9grpc_core12_GLOBAL__N_115AresDNSResolverESt14default_deleteIS2_ESaIvELN9__gnu_cxx12_Lock_policyE2EE, ptr @_ZNSt19_Sp_counted_deleterIPN9grpc_core12_GLOBAL__N_115AresDNSResolverESt14default_deleteIS2_ESaIvELN9__gnu_cxx12_Lock_policyE2EED2Ev, ptr @_ZNSt19_Sp_counted_deleterIPN9grpc_core12_GLOBAL__N_115AresDNSResolverESt14default_deleteIS2_ESaIvELN9__gnu_cxx12_Lock_policyE2EED0Ev, ptr @_ZNSt19_Sp_counted_deleterIPN9grpc_core12_GLOBAL__N_115AresDNSResolverESt14default_deleteIS2_ESaIvELN9__gnu_cxx12_Lock_policyE2EE10_M_disposeEv, ptr @_ZNSt19_Sp_counted_deleterIPN9grpc_core12_GLOBAL__N_115AresDNSResolverESt14default_deleteIS2_ESaIvELN9__gnu_cxx12_Lock_policyE2EE10_M_destroyEv, ptr @_ZNSt19_Sp_counted_deleterIPN9grpc_core12_GLOBAL__N_115AresDNSResolverESt14default_deleteIS2_ESaIvELN9__gnu_cxx12_Lock_policyE2EE14_M_get_deleterERKSt9type_info] }, align 8
@_ZTSSt19_Sp_counted_deleterIPN9grpc_core12_GLOBAL__N_115AresDNSResolverESt14default_deleteIS2_ESaIvELN9__gnu_cxx12_Lock_policyE2EE = internal constant [127 x i8] c"St19_Sp_counted_deleterIPN9grpc_core12_GLOBAL__N_115AresDNSResolverESt14default_deleteIS2_ESaIvELN9__gnu_cxx12_Lock_policyE2EE\00", align 1
@_ZTSSt16_Sp_counted_baseILN9__gnu_cxx12_Lock_policyE2EE = linkonce_odr constant [52 x i8] c"St16_Sp_counted_baseILN9__gnu_cxx12_Lock_policyE2EE\00", comdat, align 1
@_ZTSSt11_Mutex_baseILN9__gnu_cxx12_Lock_policyE2EE = linkonce_odr constant [47 x i8] c"St11_Mutex_baseILN9__gnu_cxx12_Lock_policyE2EE\00", comdat, align 1
@_ZTISt11_Mutex_baseILN9__gnu_cxx12_Lock_policyE2EE = linkonce_odr constant { ptr, ptr } { ptr getelementptr inbounds (ptr, ptr @_ZTVN10__cxxabiv117__class_type_infoE, i64 2), ptr @_ZTSSt11_Mutex_baseILN9__gnu_cxx12_Lock_policyE2EE }, comdat, align 8
@_ZTISt16_Sp_counted_baseILN9__gnu_cxx12_Lock_policyE2EE = linkonce_odr constant { ptr, ptr, ptr } { ptr getelementptr inbounds (ptr, ptr @_ZTVN10__cxxabiv120__si_class_type_infoE, i64 2), ptr @_ZTSSt16_Sp_counted_baseILN9__gnu_cxx12_Lock_policyE2EE, ptr @_ZTISt11_Mutex_baseILN9__gnu_cxx12_Lock_policyE2EE }, comdat, align 8
@_ZTISt19_Sp_counted_deleterIPN9grpc_core12_GLOBAL__N_115AresDNSResolverESt14default_deleteIS2_ESaIvELN9__gnu_cxx12_Lock_policyE2EE = internal constant { ptr, ptr, ptr } { ptr getelementptr inbounds (ptr, ptr @_ZTVN10__cxxabiv120__si_class_type_infoE, i64 2), ptr @_ZTSSt19_Sp_counted_deleterIPN9grpc_core12_GLOBAL__N_115AresDNSResolverESt14default_deleteIS2_ESaIvELN9__gnu_cxx12_Lock_policyE2EE, ptr @_ZTISt16_Sp_counted_baseILN9__gnu_cxx12_Lock_policyE2EE }, align 8
@_ZTSSt14default_deleteIN9grpc_core12_GLOBAL__N_115AresDNSResolverEE = internal constant [64 x i8] c"St14default_deleteIN9grpc_core12_GLOBAL__N_115AresDNSResolverEE\00", align 1
@llvm.global_ctors = appending global [1 x { i32, ptr, ptr }] [{ i32, ptr, ptr } { i32 65535, ptr @_GLOBAL__sub_I_dns_resolver_ares.cc, ptr null }]

declare void @_ZNSt8ios_base4InitC1Ev(ptr noundef nonnull align 1 dereferenceable(1)) unnamed_addr #0

; Function Attrs: nounwind
declare void @_ZNSt8ios_base4InitD1Ev(ptr noundef nonnull align 1 dereferenceable(1)) unnamed_addr #1

; Function Attrs: nofree nounwind
declare i32 @__cxa_atexit(ptr, ptr, ptr) local_unnamed_addr #2

; Function Attrs: mustprogress nounwind uwtable
define noundef zeroext i1 @_ZN9grpc_core24ShouldUseAresDnsResolverESt17basic_string_viewIcSt11char_traitsIcEE(i64 %resolver_env.coerce0, ptr %resolver_env.coerce1) local_unnamed_addr #3 personality ptr @__gxx_personality_v0 {
entry:
  %cmp.i = icmp eq i64 %resolver_env.coerce0, 0
  br i1 %cmp.i, label %lor.end, label %lor.rhs

lor.rhs:                                          ; preds = %entry
  %call2 = tail call noundef zeroext i1 @_ZN4absl12lts_2023080216EqualsIgnoreCaseESt17basic_string_viewIcSt11char_traitsIcEES4_(i64 %resolver_env.coerce0, ptr %resolver_env.coerce1, i64 4, ptr nonnull @.str) #22
  br label %lor.end

lor.end:                                          ; preds = %lor.rhs, %entry
  %0 = phi i1 [ true, %entry ], [ %call2, %lor.rhs ]
  ret i1 %0
}

; Function Attrs: nounwind
declare noundef zeroext i1 @_ZN4absl12lts_2023080216EqualsIgnoreCaseESt17basic_string_viewIcSt11char_traitsIcEES4_(i64, ptr, i64, ptr) local_unnamed_addr #1

; Function Attrs: mustprogress nocallback nofree nounwind willreturn memory(argmem: readwrite)
declare void @llvm.memcpy.p0.p0.i64(ptr noalias nocapture writeonly, ptr noalias nocapture readonly, i64, i1 immarg) #4

; Function Attrs: mustprogress uwtable
define void @_ZN9grpc_core23RegisterAresDnsResolverEPNS_17CoreConfiguration7BuilderE(ptr noundef %builder) local_unnamed_addr #5 personality ptr @__gxx_personality_v0 {
entry:
  %agg.tmp = alloca %"class.std::unique_ptr", align 8
  %resolver_registry_.i = getelementptr inbounds %"class.grpc_core::CoreConfiguration::Builder", ptr %builder, i64 0, i32 6
  %call.i = tail call noalias noundef nonnull dereferenceable(8) ptr @_Znwm(i64 noundef 8) #23, !noalias !4
  store ptr getelementptr inbounds ({ [8 x ptr] }, ptr @_ZTVN9grpc_core12_GLOBAL__N_135AresClientChannelDNSResolverFactoryE, i64 0, inrange i32 0, i64 2), ptr %call.i, align 8, !noalias !4
  store ptr %call.i, ptr %agg.tmp, align 8
  invoke void @_ZN9grpc_core16ResolverRegistry7Builder23RegisterResolverFactoryESt10unique_ptrINS_15ResolverFactoryESt14default_deleteIS3_EE(ptr noundef nonnull align 8 dereferenceable(80) %resolver_registry_.i, ptr noundef nonnull %agg.tmp)
          to label %invoke.cont unwind label %lpad

invoke.cont:                                      ; preds = %entry
  %0 = load ptr, ptr %agg.tmp, align 8
  %cmp.not.i = icmp eq ptr %0, null
  br i1 %cmp.not.i, label %_ZNSt10unique_ptrIN9grpc_core12_GLOBAL__N_135AresClientChannelDNSResolverFactoryESt14default_deleteIS2_EED2Ev.exit, label %_ZNKSt14default_deleteIN9grpc_core15ResolverFactoryEEclEPS1_.exit.i

_ZNKSt14default_deleteIN9grpc_core15ResolverFactoryEEclEPS1_.exit.i: ; preds = %invoke.cont
  %vtable.i.i = load ptr, ptr %0, align 8
  %vfn.i.i = getelementptr inbounds ptr, ptr %vtable.i.i, i64 1
  %1 = load ptr, ptr %vfn.i.i, align 8
  call void %1(ptr noundef nonnull align 8 dereferenceable(8) %0) #22
  br label %_ZNSt10unique_ptrIN9grpc_core12_GLOBAL__N_135AresClientChannelDNSResolverFactoryESt14default_deleteIS2_EED2Ev.exit

_ZNSt10unique_ptrIN9grpc_core12_GLOBAL__N_135AresClientChannelDNSResolverFactoryESt14default_deleteIS2_EED2Ev.exit: ; preds = %_ZNKSt14default_deleteIN9grpc_core15ResolverFactoryEEclEPS1_.exit.i, %invoke.cont
  ret void

lpad:                                             ; preds = %entry
  %2 = landingpad { ptr, i32 }
          cleanup
  %3 = load ptr, ptr %agg.tmp, align 8
  %cmp.not.i4 = icmp eq ptr %3, null
  br i1 %cmp.not.i4, label %_ZNSt10unique_ptrIN9grpc_core12_GLOBAL__N_135AresClientChannelDNSResolverFactoryESt14default_deleteIS2_EED2Ev.exit13, label %_ZNKSt14default_deleteIN9grpc_core15ResolverFactoryEEclEPS1_.exit.i5

_ZNKSt14default_deleteIN9grpc_core15ResolverFactoryEEclEPS1_.exit.i5: ; preds = %lpad
  %vtable.i.i6 = load ptr, ptr %3, align 8
  %vfn.i.i7 = getelementptr inbounds ptr, ptr %vtable.i.i6, i64 1
  %4 = load ptr, ptr %vfn.i.i7, align 8
  call void %4(ptr noundef nonnull align 8 dereferenceable(8) %3) #22
  br label %_ZNSt10unique_ptrIN9grpc_core12_GLOBAL__N_135AresClientChannelDNSResolverFactoryESt14default_deleteIS2_EED2Ev.exit13

_ZNSt10unique_ptrIN9grpc_core12_GLOBAL__N_135AresClientChannelDNSResolverFactoryESt14default_deleteIS2_EED2Ev.exit13: ; preds = %_ZNKSt14default_deleteIN9grpc_core15ResolverFactoryEEclEPS1_.exit.i5, %lpad
  resume { ptr, i32 } %2
}

declare void @_ZN9grpc_core16ResolverRegistry7Builder23RegisterResolverFactoryESt10unique_ptrINS_15ResolverFactoryESt14default_deleteIS3_EE(ptr noundef nonnull align 8 dereferenceable(80), ptr noundef) local_unnamed_addr #0

declare i32 @__gxx_personality_v0(...)

; Function Attrs: mustprogress uwtable
define void @_Z27grpc_resolver_dns_ares_initv() local_unnamed_addr #5 personality ptr @__gxx_personality_v0 {
entry:
  %agg.tmp.i = alloca %"class.absl::lts_20230802::Status", align 8
  %error = alloca %"class.absl::lts_20230802::Status", align 8
  %agg.tmp5 = alloca %"class.absl::lts_20230802::Status", align 8
  %agg.tmp10 = alloca %"class.std::shared_ptr", align 8
  %0 = load atomic i64, ptr @_ZN9grpc_core10ConfigVars12config_vars_E acquire, align 8
  %atomic-temp.i.0.i.i = inttoptr i64 %0 to ptr
  %cmp.not.i = icmp eq i64 %0, 0
  br i1 %cmp.not.i, label %if.end.i, label %_ZN9grpc_core10ConfigVars3GetEv.exit

if.end.i:                                         ; preds = %entry
  %call1.i = tail call noundef nonnull align 8 dereferenceable(312) ptr @_ZN9grpc_core10ConfigVars4LoadEv()
  br label %_ZN9grpc_core10ConfigVars3GetEv.exit

_ZN9grpc_core10ConfigVars3GetEv.exit:             ; preds = %entry, %if.end.i
  %retval.0.i = phi ptr [ %call1.i, %if.end.i ], [ %atomic-temp.i.0.i.i, %entry ]
  %dns_resolver_.i = getelementptr inbounds %"class.grpc_core::ConfigVars", ptr %retval.0.i, i64 0, i32 4
  %call.i = tail call { i64, ptr } @_ZNKSt7__cxx1112basic_stringIcSt11char_traitsIcESaIcEEcvSt17basic_string_viewIcS2_EEv(ptr noundef nonnull align 8 dereferenceable(32) %dns_resolver_.i) #22
  %1 = extractvalue { i64, ptr } %call.i, 0
  %cmp.i.i = icmp eq i64 %1, 0
  br i1 %cmp.i.i, label %invoke.cont, label %_ZN9grpc_core24ShouldUseAresDnsResolverESt17basic_string_viewIcSt11char_traitsIcEE.exit

_ZN9grpc_core24ShouldUseAresDnsResolverESt17basic_string_viewIcSt11char_traitsIcEE.exit: ; preds = %_ZN9grpc_core10ConfigVars3GetEv.exit
  %2 = extractvalue { i64, ptr } %call.i, 1
  %call2.i = tail call noundef zeroext i1 @_ZN4absl12lts_2023080216EqualsIgnoreCaseESt17basic_string_viewIcSt11char_traitsIcEES4_(i64 %1, ptr %2, i64 4, ptr nonnull @.str) #22
  br i1 %call2.i, label %invoke.cont, label %if.end17

invoke.cont:                                      ; preds = %_ZN9grpc_core10ConfigVars3GetEv.exit, %_ZN9grpc_core24ShouldUseAresDnsResolverESt17basic_string_viewIcSt11char_traitsIcEE.exit
  tail call void @address_sorting_init()
  call void @_Z14grpc_ares_initv(ptr nonnull sret(%"class.absl::lts_20230802::Status") align 8 %error)
  %3 = load i64, ptr %error, align 8
  %cmp.i = icmp eq i64 %3, 0
  br i1 %cmp.i, label %if.end, label %if.then4

if.then4:                                         ; preds = %invoke.cont
  store i64 %3, ptr %agg.tmp5, align 8
  %and.i.i.i = and i64 %3, 1
  %cmp.i.i.i = icmp eq i64 %and.i.i.i, 0
  br i1 %cmp.i.i.i, label %cond.false.i.thread, label %if.then.i.i.i

cond.false.i.thread:                              ; preds = %if.then4
  call void @llvm.lifetime.start.p0(i64 8, ptr nonnull %agg.tmp.i)
  store i64 %3, ptr %agg.tmp.i, align 8
  br label %_ZN4absl12lts_202308026StatusC2ERKS1_.exit.i

if.then.i.i.i:                                    ; preds = %if.then4
  %sub.i.i.i = add nsw i64 %3, -1
  %4 = inttoptr i64 %sub.i.i.i to ptr
  %5 = atomicrmw add ptr %4, i32 1 monotonic, align 4
  call void @llvm.lifetime.start.p0(i64 8, ptr nonnull %agg.tmp.i)
  store i64 %3, ptr %agg.tmp.i, align 8
  %sub.i.i.i.i = add nsw i64 %3, -1
  %6 = inttoptr i64 %sub.i.i.i.i to ptr
  %7 = atomicrmw add ptr %6, i32 1 monotonic, align 4
  br label %_ZN4absl12lts_202308026StatusC2ERKS1_.exit.i

_ZN4absl12lts_202308026StatusC2ERKS1_.exit.i:     ; preds = %cond.false.i.thread, %if.then.i.i.i
  %call1.i4 = invoke noundef zeroext i1 @_Z14grpc_log_errorPKcN4absl12lts_202308026StatusES0_i(ptr noundef nonnull @.str.1, ptr noundef nonnull %agg.tmp.i, ptr noundef nonnull @.str.2, i32 noundef 729)
          to label %cleanup.action.i unwind label %lpad.i

cleanup.action.i:                                 ; preds = %_ZN4absl12lts_202308026StatusC2ERKS1_.exit.i
  %8 = load i64, ptr %agg.tmp.i, align 8
  %and.i.i.i1.i = and i64 %8, 1
  %cmp.i.i.i2.i = icmp eq i64 %and.i.i.i1.i, 0
  br i1 %cmp.i.i.i2.i, label %invoke.cont8, label %if.then.i.i3.i

if.then.i.i3.i:                                   ; preds = %cleanup.action.i
  invoke void @_ZN4absl12lts_202308026Status15UnrefNonInlinedEm(i64 noundef %8)
          to label %invoke.cont8 unwind label %terminate.lpad.i.i

terminate.lpad.i.i:                               ; preds = %if.then.i.i3.i
  %9 = landingpad { ptr, i32 }
          catch ptr null
  %10 = extractvalue { ptr, i32 } %9, 0
  call void @__clang_call_terminate(ptr %10) #24
  unreachable

lpad.i:                                           ; preds = %_ZN4absl12lts_202308026StatusC2ERKS1_.exit.i
  %11 = landingpad { ptr, i32 }
          cleanup
  call void @_ZN4absl12lts_202308026StatusD2Ev(ptr noundef nonnull align 8 dereferenceable(8) %agg.tmp.i) #22
  call void @_ZN4absl12lts_202308026StatusD2Ev(ptr noundef nonnull align 8 dereferenceable(8) %agg.tmp5) #22
  br label %ehcleanup16

invoke.cont8:                                     ; preds = %if.then.i.i3.i, %cleanup.action.i
  call void @llvm.lifetime.end.p0(i64 8, ptr nonnull %agg.tmp.i)
  br i1 %cmp.i.i.i, label %cleanup, label %if.then.i.i7

if.then.i.i7:                                     ; preds = %invoke.cont8
  invoke void @_ZN4absl12lts_202308026Status15UnrefNonInlinedEm(i64 noundef %3)
          to label %cleanup unwind label %terminate.lpad.i

terminate.lpad.i:                                 ; preds = %if.then.i.i7
  %12 = landingpad { ptr, i32 }
          catch ptr null
  %13 = extractvalue { ptr, i32 } %12, 0
  call void @__clang_call_terminate(ptr %13) #24
  unreachable

lpad:                                             ; preds = %if.end
  %14 = landingpad { ptr, i32 }
          cleanup
  br label %ehcleanup16

if.end:                                           ; preds = %invoke.cont
  %call.i810 = invoke noalias noundef nonnull dereferenceable(72) ptr @_Znwm(i64 noundef 72) #23
          to label %call.i8.noexc unwind label %lpad

call.i8.noexc:                                    ; preds = %if.end
  call void @llvm.memset.p0.i64(ptr noundef nonnull align 16 dereferenceable(72) %call.i810, i8 0, i64 72, i1 false), !noalias !7
  store ptr getelementptr inbounds ({ [9 x ptr] }, ptr @_ZTVN9grpc_core12_GLOBAL__N_115AresDNSResolverE, i64 0, inrange i32 0, i64 2), ptr %call.i810, align 8, !noalias !7
  %default_resolver_.i.i = getelementptr inbounds %"class.grpc_core::(anonymous namespace)::AresDNSResolver", ptr %call.i810, i64 0, i32 1
  invoke void @_ZN9grpc_core14GetDNSResolverEv(ptr nonnull sret(%"class.std::shared_ptr") align 8 %default_resolver_.i.i)
          to label %if.end.i.i.i unwind label %lpad.i9, !noalias !7

lpad.i9:                                          ; preds = %call.i8.noexc
  %15 = landingpad { ptr, i32 }
          cleanup
  call void @_ZdlPv(ptr noundef nonnull %call.i810) #25, !noalias !7
  br label %ehcleanup16

if.end.i.i.i:                                     ; preds = %call.i8.noexc
  %mu_.i.i = getelementptr inbounds %"class.grpc_core::(anonymous namespace)::AresDNSResolver", ptr %call.i810, i64 0, i32 2
  store i64 0, ptr %mu_.i.i, align 8, !noalias !7
  %open_requests_.i.i = getelementptr inbounds %"class.grpc_core::(anonymous namespace)::AresDNSResolver", ptr %call.i810, i64 0, i32 3
  store ptr getelementptr inbounds ([32 x i8], ptr @_ZN4absl12lts_2023080218container_internal11kEmptyGroupE, i64 0, i64 16), ptr %open_requests_.i.i, align 8, !noalias !7
  %slots_.i.i.i.i.i.i.i.i = getelementptr inbounds %"class.grpc_core::(anonymous namespace)::AresDNSResolver", ptr %call.i810, i64 0, i32 3, i32 0, i32 0, i32 0, i32 0, i32 0, i32 1
  call void @llvm.memset.p0.i64(ptr noundef nonnull align 8 dereferenceable(32) %slots_.i.i.i.i.i.i.i.i, i8 0, i64 32, i1 false), !noalias !7
  store ptr %call.i810, ptr %agg.tmp10, align 8
  %_M_refcount.i.i = getelementptr inbounds %"class.std::__shared_ptr", ptr %agg.tmp10, i64 0, i32 1
  store ptr null, ptr %_M_refcount.i.i, align 8
  %call5.i.i4.i4.i.i = invoke noalias noundef nonnull dereferenceable(24) ptr @_Znwm(i64 noundef 24) #23
          to label %if.then4.i.i.i unwind label %lpad.i.i

if.then4.i.i.i:                                   ; preds = %if.end.i.i.i
  %_M_use_count.i.i.i.i.i.i.i = getelementptr inbounds %"class.std::_Sp_counted_base", ptr %call5.i.i4.i4.i.i, i64 0, i32 1
  store i32 1, ptr %_M_use_count.i.i.i.i.i.i.i, align 8
  %_M_weak_count.i.i.i.i.i.i.i = getelementptr inbounds %"class.std::_Sp_counted_base", ptr %call5.i.i4.i4.i.i, i64 0, i32 2
  store i32 1, ptr %_M_weak_count.i.i.i.i.i.i.i, align 4
  store ptr getelementptr inbounds ({ [7 x ptr] }, ptr @_ZTVSt19_Sp_counted_deleterIPN9grpc_core12_GLOBAL__N_115AresDNSResolverESt14default_deleteIS2_ESaIvELN9__gnu_cxx12_Lock_policyE2EE, i64 0, inrange i32 0, i64 2), ptr %call5.i.i4.i4.i.i, align 8
  %_M_impl.i.i.i.i.i.i = getelementptr inbounds %"class.std::_Sp_counted_deleter", ptr %call5.i.i4.i4.i.i, i64 0, i32 1
  store ptr %call.i810, ptr %_M_impl.i.i.i.i.i.i, align 8
  %16 = load i8, ptr @__libc_single_threaded, align 1
  %tobool.i.i.not.i.i.i.i = icmp eq i8 %16, 0
  br i1 %tobool.i.i.not.i.i.i.i, label %if.end.i5.i.i, label %if.end.i5.i.i.thread

if.end.i5.i.i.thread:                             ; preds = %if.then4.i.i.i
  store i32 2, ptr %_M_use_count.i.i.i.i.i.i.i, align 4
  br label %if.then.i7.i.i

if.end.i5.i.i:                                    ; preds = %if.then4.i.i.i
  %17 = atomicrmw volatile add ptr %_M_use_count.i.i.i.i.i.i.i, i32 1 acq_rel, align 4
  %.pr.i.pre.i.i = load ptr, ptr %_M_refcount.i.i, align 8
  %cmp6.not.i.i.i = icmp eq ptr %.pr.i.pre.i.i, null
  br i1 %cmp6.not.i.i.i, label %if.then.i7.i.i, label %if.then7.i.i.i

if.then7.i.i.i:                                   ; preds = %if.end.i5.i.i
  %_M_use_count.i5.i.i.i = getelementptr inbounds %"class.std::_Sp_counted_base", ptr %.pr.i.pre.i.i, i64 0, i32 1
  %18 = load atomic i64, ptr %_M_use_count.i5.i.i.i acquire, align 8
  %cmp.i.i.i.i13 = icmp eq i64 %18, 4294967297
  %19 = trunc i64 %18 to i32
  br i1 %cmp.i.i.i.i13, label %if.then.i.i.i.i, label %if.end.i.i.i.i

if.then.i.i.i.i:                                  ; preds = %if.then7.i.i.i
  store i32 0, ptr %_M_use_count.i5.i.i.i, align 8
  %_M_weak_count.i.i.i.i = getelementptr inbounds %"class.std::_Sp_counted_base", ptr %.pr.i.pre.i.i, i64 0, i32 2
  store i32 0, ptr %_M_weak_count.i.i.i.i, align 4
  %vtable.i.i.i.i = load ptr, ptr %.pr.i.pre.i.i, align 8
  %vfn.i.i.i.i = getelementptr inbounds ptr, ptr %vtable.i.i.i.i, i64 2
  %20 = load ptr, ptr %vfn.i.i.i.i, align 8
  call void %20(ptr noundef nonnull align 8 dereferenceable(16) %.pr.i.pre.i.i) #22
  br label %if.end8.sink.split.i.i.i.i

if.end.i.i.i.i:                                   ; preds = %if.then7.i.i.i
  %21 = load i8, ptr @__libc_single_threaded, align 1
  %tobool.i.not.i.i.i.i = icmp eq i8 %21, 0
  br i1 %tobool.i.not.i.i.i.i, label %if.else.i.i8.i.i.i, label %if.then.i.i6.i.i.i

if.then.i.i6.i.i.i:                               ; preds = %if.end.i.i.i.i
  %add.i.i7.i.i.i = add nsw i32 %19, -1
  store i32 %add.i.i7.i.i.i, ptr %_M_use_count.i5.i.i.i, align 4
  br label %_ZN9__gnu_cxx27__exchange_and_add_dispatchEPii.exit.i.i.i.i

if.else.i.i8.i.i.i:                               ; preds = %if.end.i.i.i.i
  %22 = atomicrmw volatile add ptr %_M_use_count.i5.i.i.i, i32 -1 acq_rel, align 4
  br label %_ZN9__gnu_cxx27__exchange_and_add_dispatchEPii.exit.i.i.i.i

_ZN9__gnu_cxx27__exchange_and_add_dispatchEPii.exit.i.i.i.i: ; preds = %if.else.i.i8.i.i.i, %if.then.i.i6.i.i.i
  %retval.i.0.i.i.i.i = phi i32 [ %19, %if.then.i.i6.i.i.i ], [ %22, %if.else.i.i8.i.i.i ]
  %cmp6.i.i.i.i = icmp eq i32 %retval.i.0.i.i.i.i, 1
  br i1 %cmp6.i.i.i.i, label %if.then7.i.i.i.i, label %if.then.i7.i.i

if.then7.i.i.i.i:                                 ; preds = %_ZN9__gnu_cxx27__exchange_and_add_dispatchEPii.exit.i.i.i.i
  %vtable.i.i.i.i.i.i = load ptr, ptr %.pr.i.pre.i.i, align 8
  %vfn.i.i.i.i.i.i = getelementptr inbounds ptr, ptr %vtable.i.i.i.i.i.i, i64 2
  %23 = load ptr, ptr %vfn.i.i.i.i.i.i, align 8
  call void %23(ptr noundef nonnull align 8 dereferenceable(16) %.pr.i.pre.i.i) #22
  %_M_weak_count.i.i.i.i.i.i = getelementptr inbounds %"class.std::_Sp_counted_base", ptr %.pr.i.pre.i.i, i64 0, i32 2
  %24 = load i8, ptr @__libc_single_threaded, align 1
  %tobool.i.not.i.i.i.i.i.i = icmp eq i8 %24, 0
  br i1 %tobool.i.not.i.i.i.i.i.i, label %if.else.i.i.i.i.i.i.i, label %if.then.i.i.i.i.i.i.i

if.then.i.i.i.i.i.i.i:                            ; preds = %if.then7.i.i.i.i
  %25 = load i32, ptr %_M_weak_count.i.i.i.i.i.i, align 4
  %add.i.i.i.i.i.i.i = add nsw i32 %25, -1
  store i32 %add.i.i.i.i.i.i.i, ptr %_M_weak_count.i.i.i.i.i.i, align 4
  br label %_ZN9__gnu_cxx27__exchange_and_add_dispatchEPii.exit.i.i.i.i.i.i

if.else.i.i.i.i.i.i.i:                            ; preds = %if.then7.i.i.i.i
  %26 = atomicrmw volatile add ptr %_M_weak_count.i.i.i.i.i.i, i32 -1 acq_rel, align 4
  br label %_ZN9__gnu_cxx27__exchange_and_add_dispatchEPii.exit.i.i.i.i.i.i

_ZN9__gnu_cxx27__exchange_and_add_dispatchEPii.exit.i.i.i.i.i.i: ; preds = %if.else.i.i.i.i.i.i.i, %if.then.i.i.i.i.i.i.i
  %retval.i.0.i.i.i.i.i.i = phi i32 [ %25, %if.then.i.i.i.i.i.i.i ], [ %26, %if.else.i.i.i.i.i.i.i ]
  %cmp.i.i.i.i.i.i = icmp eq i32 %retval.i.0.i.i.i.i.i.i, 1
  br i1 %cmp.i.i.i.i.i.i, label %if.end8.sink.split.i.i.i.i, label %if.then.i7.i.i

if.end8.sink.split.i.i.i.i:                       ; preds = %_ZN9__gnu_cxx27__exchange_and_add_dispatchEPii.exit.i.i.i.i.i.i, %if.then.i.i.i.i
  %vtable2.i.i.i.i.i.i = load ptr, ptr %.pr.i.pre.i.i, align 8
  %vfn3.i.i.i.i.i.i = getelementptr inbounds ptr, ptr %vtable2.i.i.i.i.i.i, i64 3
  %27 = load ptr, ptr %vfn3.i.i.i.i.i.i, align 8
  call void %27(ptr noundef nonnull align 8 dereferenceable(16) %.pr.i.pre.i.i) #22
  br label %if.then.i7.i.i

if.then.i7.i.i:                                   ; preds = %if.end.i5.i.i, %_ZN9__gnu_cxx27__exchange_and_add_dispatchEPii.exit.i.i.i.i, %_ZN9__gnu_cxx27__exchange_and_add_dispatchEPii.exit.i.i.i.i.i.i, %if.end8.sink.split.i.i.i.i, %if.end.i5.i.i.thread
  store ptr %call5.i.i4.i4.i.i, ptr %_M_refcount.i.i, align 8
  %28 = load atomic i64, ptr %_M_use_count.i.i.i.i.i.i.i acquire, align 8
  %cmp.i.i9.i.i = icmp eq i64 %28, 4294967297
  %29 = trunc i64 %28 to i32
  br i1 %cmp.i.i9.i.i, label %if.then.i.i33.i.i, label %if.end.i.i10.i.i

if.then.i.i33.i.i:                                ; preds = %if.then.i7.i.i
  store i32 0, ptr %_M_use_count.i.i.i.i.i.i.i, align 8
  store i32 0, ptr %_M_weak_count.i.i.i.i.i.i.i, align 4
  %vtable.i.i35.i.i = load ptr, ptr %call5.i.i4.i4.i.i, align 8
  %vfn.i.i36.i.i = getelementptr inbounds ptr, ptr %vtable.i.i35.i.i, i64 2
  %30 = load ptr, ptr %vfn.i.i36.i.i, align 8
  call void %30(ptr noundef nonnull align 8 dereferenceable(16) %call5.i.i4.i4.i.i) #22
  br label %if.end8.sink.split.i.i28.i.i

if.end.i.i10.i.i:                                 ; preds = %if.then.i7.i.i
  %31 = load i8, ptr @__libc_single_threaded, align 1
  %tobool.i.not.i.i11.i.i = icmp eq i8 %31, 0
  br i1 %tobool.i.not.i.i11.i.i, label %if.else.i.i.i32.i.i, label %if.then.i.i.i12.i.i

if.then.i.i.i12.i.i:                              ; preds = %if.end.i.i10.i.i
  %add.i.i.i13.i.i = add nsw i32 %29, -1
  store i32 %add.i.i.i13.i.i, ptr %_M_use_count.i.i.i.i.i.i.i, align 4
  br label %_ZN9__gnu_cxx27__exchange_and_add_dispatchEPii.exit.i.i14.i.i

if.else.i.i.i32.i.i:                              ; preds = %if.end.i.i10.i.i
  %32 = atomicrmw volatile add ptr %_M_use_count.i.i.i.i.i.i.i, i32 -1 acq_rel, align 4
  br label %_ZN9__gnu_cxx27__exchange_and_add_dispatchEPii.exit.i.i14.i.i

_ZN9__gnu_cxx27__exchange_and_add_dispatchEPii.exit.i.i14.i.i: ; preds = %if.else.i.i.i32.i.i, %if.then.i.i.i12.i.i
  %retval.i.0.i.i15.i.i = phi i32 [ %29, %if.then.i.i.i12.i.i ], [ %32, %if.else.i.i.i32.i.i ]
  %cmp6.i.i16.i.i = icmp eq i32 %retval.i.0.i.i15.i.i, 1
  br i1 %cmp6.i.i16.i.i, label %if.then7.i.i18.i.i, label %invoke.cont13

if.then7.i.i18.i.i:                               ; preds = %_ZN9__gnu_cxx27__exchange_and_add_dispatchEPii.exit.i.i14.i.i
  %vtable.i.i.i.i19.i.i = load ptr, ptr %call5.i.i4.i4.i.i, align 8
  %vfn.i.i.i.i20.i.i = getelementptr inbounds ptr, ptr %vtable.i.i.i.i19.i.i, i64 2
  %33 = load ptr, ptr %vfn.i.i.i.i20.i.i, align 8
  call void %33(ptr noundef nonnull align 8 dereferenceable(16) %call5.i.i4.i4.i.i) #22
  %34 = load i8, ptr @__libc_single_threaded, align 1
  %tobool.i.not.i.i.i.i22.i.i = icmp eq i8 %34, 0
  br i1 %tobool.i.not.i.i.i.i22.i.i, label %if.else.i.i.i.i.i31.i.i, label %if.then.i.i.i.i.i23.i.i

if.then.i.i.i.i.i23.i.i:                          ; preds = %if.then7.i.i18.i.i
  %35 = load i32, ptr %_M_weak_count.i.i.i.i.i.i.i, align 4
  %add.i.i.i.i.i24.i.i = add nsw i32 %35, -1
  store i32 %add.i.i.i.i.i24.i.i, ptr %_M_weak_count.i.i.i.i.i.i.i, align 4
  br label %_ZN9__gnu_cxx27__exchange_and_add_dispatchEPii.exit.i.i.i.i25.i.i

if.else.i.i.i.i.i31.i.i:                          ; preds = %if.then7.i.i18.i.i
  %36 = atomicrmw volatile add ptr %_M_weak_count.i.i.i.i.i.i.i, i32 -1 acq_rel, align 4
  br label %_ZN9__gnu_cxx27__exchange_and_add_dispatchEPii.exit.i.i.i.i25.i.i

_ZN9__gnu_cxx27__exchange_and_add_dispatchEPii.exit.i.i.i.i25.i.i: ; preds = %if.else.i.i.i.i.i31.i.i, %if.then.i.i.i.i.i23.i.i
  %retval.i.0.i.i.i.i26.i.i = phi i32 [ %35, %if.then.i.i.i.i.i23.i.i ], [ %36, %if.else.i.i.i.i.i31.i.i ]
  %cmp.i.i.i.i27.i.i = icmp eq i32 %retval.i.0.i.i.i.i26.i.i, 1
  br i1 %cmp.i.i.i.i27.i.i, label %if.end8.sink.split.i.i28.i.i, label %invoke.cont13

if.end8.sink.split.i.i28.i.i:                     ; preds = %_ZN9__gnu_cxx27__exchange_and_add_dispatchEPii.exit.i.i.i.i25.i.i, %if.then.i.i33.i.i
  %vtable2.i.i.i.i29.i.i = load ptr, ptr %call5.i.i4.i4.i.i, align 8
  %vfn3.i.i.i.i30.i.i = getelementptr inbounds ptr, ptr %vtable2.i.i.i.i29.i.i, i64 3
  %37 = load ptr, ptr %vfn3.i.i.i.i30.i.i, align 8
  call void %37(ptr noundef nonnull align 8 dereferenceable(16) %call5.i.i4.i4.i.i) #22
  br label %invoke.cont13

lpad.i.i:                                         ; preds = %if.end.i.i.i
  %38 = landingpad { ptr, i32 }
          cleanup
  call void @_ZNSt14__shared_countILN9__gnu_cxx12_Lock_policyE2EED2Ev(ptr noundef nonnull align 8 dereferenceable(8) %_M_refcount.i.i) #22
  %vtable.i.i53 = load ptr, ptr %call.i810, align 8
  %vfn.i.i54 = getelementptr inbounds ptr, ptr %vtable.i.i53, i64 1
  %39 = load ptr, ptr %vfn.i.i54, align 8
  call void %39(ptr noundef nonnull align 8 dereferenceable(72) %call.i810) #22
  br label %ehcleanup16

invoke.cont13:                                    ; preds = %if.end8.sink.split.i.i28.i.i, %_ZN9__gnu_cxx27__exchange_and_add_dispatchEPii.exit.i.i.i.i25.i.i, %_ZN9__gnu_cxx27__exchange_and_add_dispatchEPii.exit.i.i14.i.i
  invoke void @_ZN9grpc_core16ResetDNSResolverESt10shared_ptrINS_11DNSResolverEE(ptr noundef nonnull %agg.tmp10)
          to label %invoke.cont15 unwind label %ehcleanup

invoke.cont15:                                    ; preds = %invoke.cont13
  %40 = load ptr, ptr %_M_refcount.i.i, align 8
  %cmp.not.i.i.i16 = icmp eq ptr %40, null
  br i1 %cmp.not.i.i.i16, label %cleanup, label %if.then.i.i.i17

if.then.i.i.i17:                                  ; preds = %invoke.cont15
  %_M_use_count.i.i.i.i = getelementptr inbounds %"class.std::_Sp_counted_base", ptr %40, i64 0, i32 1
  %41 = load atomic i64, ptr %_M_use_count.i.i.i.i acquire, align 8
  %cmp.i.i.i.i18 = icmp eq i64 %41, 4294967297
  %42 = trunc i64 %41 to i32
  br i1 %cmp.i.i.i.i18, label %if.then.i.i.i.i40, label %if.end.i.i.i.i19

if.then.i.i.i.i40:                                ; preds = %if.then.i.i.i17
  store i32 0, ptr %_M_use_count.i.i.i.i, align 8
  %_M_weak_count.i.i.i.i41 = getelementptr inbounds %"class.std::_Sp_counted_base", ptr %40, i64 0, i32 2
  store i32 0, ptr %_M_weak_count.i.i.i.i41, align 4
  %vtable.i.i.i.i42 = load ptr, ptr %40, align 8
  %vfn.i.i.i.i43 = getelementptr inbounds ptr, ptr %vtable.i.i.i.i42, i64 2
  %43 = load ptr, ptr %vfn.i.i.i.i43, align 8
  call void %43(ptr noundef nonnull align 8 dereferenceable(16) %40) #22
  br label %if.end8.sink.split.i.i.i.i35

if.end.i.i.i.i19:                                 ; preds = %if.then.i.i.i17
  %44 = load i8, ptr @__libc_single_threaded, align 1
  %tobool.i.not.i.i.i.i20 = icmp eq i8 %44, 0
  br i1 %tobool.i.not.i.i.i.i20, label %if.else.i.i.i.i.i39, label %if.then.i.i.i.i.i21

if.then.i.i.i.i.i21:                              ; preds = %if.end.i.i.i.i19
  %add.i.i.i.i.i = add nsw i32 %42, -1
  store i32 %add.i.i.i.i.i, ptr %_M_use_count.i.i.i.i, align 4
  br label %_ZN9__gnu_cxx27__exchange_and_add_dispatchEPii.exit.i.i.i.i22

if.else.i.i.i.i.i39:                              ; preds = %if.end.i.i.i.i19
  %45 = atomicrmw volatile add ptr %_M_use_count.i.i.i.i, i32 -1 acq_rel, align 4
  br label %_ZN9__gnu_cxx27__exchange_and_add_dispatchEPii.exit.i.i.i.i22

_ZN9__gnu_cxx27__exchange_and_add_dispatchEPii.exit.i.i.i.i22: ; preds = %if.else.i.i.i.i.i39, %if.then.i.i.i.i.i21
  %retval.i.0.i.i.i.i23 = phi i32 [ %42, %if.then.i.i.i.i.i21 ], [ %45, %if.else.i.i.i.i.i39 ]
  %cmp6.i.i.i.i24 = icmp eq i32 %retval.i.0.i.i.i.i23, 1
  br i1 %cmp6.i.i.i.i24, label %if.then7.i.i.i.i25, label %cleanup

if.then7.i.i.i.i25:                               ; preds = %_ZN9__gnu_cxx27__exchange_and_add_dispatchEPii.exit.i.i.i.i22
  %vtable.i.i.i.i.i.i26 = load ptr, ptr %40, align 8
  %vfn.i.i.i.i.i.i27 = getelementptr inbounds ptr, ptr %vtable.i.i.i.i.i.i26, i64 2
  %46 = load ptr, ptr %vfn.i.i.i.i.i.i27, align 8
  call void %46(ptr noundef nonnull align 8 dereferenceable(16) %40) #22
  %_M_weak_count.i.i.i.i.i.i28 = getelementptr inbounds %"class.std::_Sp_counted_base", ptr %40, i64 0, i32 2
  %47 = load i8, ptr @__libc_single_threaded, align 1
  %tobool.i.not.i.i.i.i.i.i29 = icmp eq i8 %47, 0
  br i1 %tobool.i.not.i.i.i.i.i.i29, label %if.else.i.i.i.i.i.i.i38, label %if.then.i.i.i.i.i.i.i30

if.then.i.i.i.i.i.i.i30:                          ; preds = %if.then7.i.i.i.i25
  %48 = load i32, ptr %_M_weak_count.i.i.i.i.i.i28, align 4
  %add.i.i.i.i.i.i.i31 = add nsw i32 %48, -1
  store i32 %add.i.i.i.i.i.i.i31, ptr %_M_weak_count.i.i.i.i.i.i28, align 4
  br label %_ZN9__gnu_cxx27__exchange_and_add_dispatchEPii.exit.i.i.i.i.i.i32

if.else.i.i.i.i.i.i.i38:                          ; preds = %if.then7.i.i.i.i25
  %49 = atomicrmw volatile add ptr %_M_weak_count.i.i.i.i.i.i28, i32 -1 acq_rel, align 4
  br label %_ZN9__gnu_cxx27__exchange_and_add_dispatchEPii.exit.i.i.i.i.i.i32

_ZN9__gnu_cxx27__exchange_and_add_dispatchEPii.exit.i.i.i.i.i.i32: ; preds = %if.else.i.i.i.i.i.i.i38, %if.then.i.i.i.i.i.i.i30
  %retval.i.0.i.i.i.i.i.i33 = phi i32 [ %48, %if.then.i.i.i.i.i.i.i30 ], [ %49, %if.else.i.i.i.i.i.i.i38 ]
  %cmp.i.i.i.i.i.i34 = icmp eq i32 %retval.i.0.i.i.i.i.i.i33, 1
  br i1 %cmp.i.i.i.i.i.i34, label %if.end8.sink.split.i.i.i.i35, label %cleanup

if.end8.sink.split.i.i.i.i35:                     ; preds = %_ZN9__gnu_cxx27__exchange_and_add_dispatchEPii.exit.i.i.i.i.i.i32, %if.then.i.i.i.i40
  %vtable2.i.i.i.i.i.i36 = load ptr, ptr %40, align 8
  %vfn3.i.i.i.i.i.i37 = getelementptr inbounds ptr, ptr %vtable2.i.i.i.i.i.i36, i64 3
  %50 = load ptr, ptr %vfn3.i.i.i.i.i.i37, align 8
  call void %50(ptr noundef nonnull align 8 dereferenceable(16) %40) #22
  br label %cleanup

cleanup:                                          ; preds = %invoke.cont15, %_ZN9__gnu_cxx27__exchange_and_add_dispatchEPii.exit.i.i.i.i22, %_ZN9__gnu_cxx27__exchange_and_add_dispatchEPii.exit.i.i.i.i.i.i32, %if.end8.sink.split.i.i.i.i35, %if.then.i.i7, %invoke.cont8
  %51 = load i64, ptr %error, align 8
  %and.i.i.i46 = and i64 %51, 1
  %cmp.i.i.i47 = icmp eq i64 %and.i.i.i46, 0
  br i1 %cmp.i.i.i47, label %if.end17, label %if.then.i.i48

if.then.i.i48:                                    ; preds = %cleanup
  invoke void @_ZN4absl12lts_202308026Status15UnrefNonInlinedEm(i64 noundef %51)
          to label %if.end17 unwind label %terminate.lpad.i49

terminate.lpad.i49:                               ; preds = %if.then.i.i48
  %52 = landingpad { ptr, i32 }
          catch ptr null
  %53 = extractvalue { ptr, i32 } %52, 0
  call void @__clang_call_terminate(ptr %53) #24
  unreachable

ehcleanup:                                        ; preds = %invoke.cont13
  %54 = landingpad { ptr, i32 }
          cleanup
  call void @_ZNSt10shared_ptrIN9grpc_core11DNSResolverEED2Ev(ptr noundef nonnull align 8 dereferenceable(16) %agg.tmp10) #22
  br label %ehcleanup16

ehcleanup16:                                      ; preds = %lpad.i.i, %ehcleanup, %lpad, %lpad.i9, %lpad.i
  %.pn.pn = phi { ptr, i32 } [ %11, %lpad.i ], [ %14, %lpad ], [ %15, %lpad.i9 ], [ %54, %ehcleanup ], [ %38, %lpad.i.i ]
  call void @_ZN4absl12lts_202308026StatusD2Ev(ptr noundef nonnull align 8 dereferenceable(8) %error) #22
  resume { ptr, i32 } %.pn.pn

if.end17:                                         ; preds = %if.then.i.i48, %cleanup, %_ZN9grpc_core24ShouldUseAresDnsResolverESt17basic_string_viewIcSt11char_traitsIcEE.exit
  ret void
}

declare void @address_sorting_init() local_unnamed_addr #0

declare void @_Z14grpc_ares_initv(ptr sret(%"class.absl::lts_20230802::Status") align 8) local_unnamed_addr #0

; Function Attrs: mustprogress nounwind uwtable
define linkonce_odr void @_ZN4absl12lts_202308026StatusD2Ev(ptr noundef nonnull align 8 dereferenceable(8) %this) unnamed_addr #3 comdat align 2 personality ptr @__gxx_personality_v0 {
entry:
  %0 = load i64, ptr %this, align 8
  %and.i.i = and i64 %0, 1
  %cmp.i.i = icmp eq i64 %and.i.i, 0
  br i1 %cmp.i.i, label %invoke.cont, label %if.then.i

if.then.i:                                        ; preds = %entry
  invoke void @_ZN4absl12lts_202308026Status15UnrefNonInlinedEm(i64 noundef %0)
          to label %invoke.cont unwind label %terminate.lpad

invoke.cont:                                      ; preds = %entry, %if.then.i
  ret void

terminate.lpad:                                   ; preds = %if.then.i
  %1 = landingpad { ptr, i32 }
          catch ptr null
  %2 = extractvalue { ptr, i32 } %1, 0
  tail call void @__clang_call_terminate(ptr %2) #24
  unreachable
}

declare void @_ZN9grpc_core16ResetDNSResolverESt10shared_ptrINS_11DNSResolverEE(ptr noundef) local_unnamed_addr #0

; Function Attrs: mustprogress nounwind uwtable
define linkonce_odr void @_ZNSt10shared_ptrIN9grpc_core11DNSResolverEED2Ev(ptr noundef nonnull align 8 dereferenceable(16) %this) unnamed_addr #3 comdat align 2 personality ptr @__gxx_personality_v0 {
entry:
  %_M_refcount.i = getelementptr inbounds %"class.std::__shared_ptr", ptr %this, i64 0, i32 1
  %0 = load ptr, ptr %_M_refcount.i, align 8
  %cmp.not.i.i = icmp eq ptr %0, null
  br i1 %cmp.not.i.i, label %_ZNSt12__shared_ptrIN9grpc_core11DNSResolverELN9__gnu_cxx12_Lock_policyE2EED2Ev.exit, label %if.then.i.i

if.then.i.i:                                      ; preds = %entry
  %_M_use_count.i.i.i = getelementptr inbounds %"class.std::_Sp_counted_base", ptr %0, i64 0, i32 1
  %1 = load atomic i64, ptr %_M_use_count.i.i.i acquire, align 8
  %cmp.i.i.i = icmp eq i64 %1, 4294967297
  %2 = trunc i64 %1 to i32
  br i1 %cmp.i.i.i, label %if.then.i.i.i, label %if.end.i.i.i

if.then.i.i.i:                                    ; preds = %if.then.i.i
  store i32 0, ptr %_M_use_count.i.i.i, align 8
  %_M_weak_count.i.i.i = getelementptr inbounds %"class.std::_Sp_counted_base", ptr %0, i64 0, i32 2
  store i32 0, ptr %_M_weak_count.i.i.i, align 4
  %vtable.i.i.i = load ptr, ptr %0, align 8
  %vfn.i.i.i = getelementptr inbounds ptr, ptr %vtable.i.i.i, i64 2
  %3 = load ptr, ptr %vfn.i.i.i, align 8
  tail call void %3(ptr noundef nonnull align 8 dereferenceable(16) %0) #22
  br label %if.end8.sink.split.i.i.i

if.end.i.i.i:                                     ; preds = %if.then.i.i
  %4 = load i8, ptr @__libc_single_threaded, align 1
  %tobool.i.not.i.i.i = icmp eq i8 %4, 0
  br i1 %tobool.i.not.i.i.i, label %if.else.i.i.i.i, label %if.then.i.i.i.i

if.then.i.i.i.i:                                  ; preds = %if.end.i.i.i
  %add.i.i.i.i = add nsw i32 %2, -1
  store i32 %add.i.i.i.i, ptr %_M_use_count.i.i.i, align 4
  br label %_ZN9__gnu_cxx27__exchange_and_add_dispatchEPii.exit.i.i.i

if.else.i.i.i.i:                                  ; preds = %if.end.i.i.i
  %5 = atomicrmw volatile add ptr %_M_use_count.i.i.i, i32 -1 acq_rel, align 4
  br label %_ZN9__gnu_cxx27__exchange_and_add_dispatchEPii.exit.i.i.i

_ZN9__gnu_cxx27__exchange_and_add_dispatchEPii.exit.i.i.i: ; preds = %if.else.i.i.i.i, %if.then.i.i.i.i
  %retval.i.0.i.i.i = phi i32 [ %2, %if.then.i.i.i.i ], [ %5, %if.else.i.i.i.i ]
  %cmp6.i.i.i = icmp eq i32 %retval.i.0.i.i.i, 1
  br i1 %cmp6.i.i.i, label %if.then7.i.i.i, label %_ZNSt12__shared_ptrIN9grpc_core11DNSResolverELN9__gnu_cxx12_Lock_policyE2EED2Ev.exit

if.then7.i.i.i:                                   ; preds = %_ZN9__gnu_cxx27__exchange_and_add_dispatchEPii.exit.i.i.i
  %vtable.i.i.i.i.i = load ptr, ptr %0, align 8
  %vfn.i.i.i.i.i = getelementptr inbounds ptr, ptr %vtable.i.i.i.i.i, i64 2
  %6 = load ptr, ptr %vfn.i.i.i.i.i, align 8
  tail call void %6(ptr noundef nonnull align 8 dereferenceable(16) %0) #22
  %_M_weak_count.i.i.i.i.i = getelementptr inbounds %"class.std::_Sp_counted_base", ptr %0, i64 0, i32 2
  %7 = load i8, ptr @__libc_single_threaded, align 1
  %tobool.i.not.i.i.i.i.i = icmp eq i8 %7, 0
  br i1 %tobool.i.not.i.i.i.i.i, label %if.else.i.i.i.i.i.i, label %if.then.i.i.i.i.i.i

if.then.i.i.i.i.i.i:                              ; preds = %if.then7.i.i.i
  %8 = load i32, ptr %_M_weak_count.i.i.i.i.i, align 4
  %add.i.i.i.i.i.i = add nsw i32 %8, -1
  store i32 %add.i.i.i.i.i.i, ptr %_M_weak_count.i.i.i.i.i, align 4
  br label %_ZN9__gnu_cxx27__exchange_and_add_dispatchEPii.exit.i.i.i.i.i

if.else.i.i.i.i.i.i:                              ; preds = %if.then7.i.i.i
  %9 = atomicrmw volatile add ptr %_M_weak_count.i.i.i.i.i, i32 -1 acq_rel, align 4
  br label %_ZN9__gnu_cxx27__exchange_and_add_dispatchEPii.exit.i.i.i.i.i

_ZN9__gnu_cxx27__exchange_and_add_dispatchEPii.exit.i.i.i.i.i: ; preds = %if.else.i.i.i.i.i.i, %if.then.i.i.i.i.i.i
  %retval.i.0.i.i.i.i.i = phi i32 [ %8, %if.then.i.i.i.i.i.i ], [ %9, %if.else.i.i.i.i.i.i ]
  %cmp.i.i.i.i.i = icmp eq i32 %retval.i.0.i.i.i.i.i, 1
  br i1 %cmp.i.i.i.i.i, label %if.end8.sink.split.i.i.i, label %_ZNSt12__shared_ptrIN9grpc_core11DNSResolverELN9__gnu_cxx12_Lock_policyE2EED2Ev.exit

if.end8.sink.split.i.i.i:                         ; preds = %_ZN9__gnu_cxx27__exchange_and_add_dispatchEPii.exit.i.i.i.i.i, %if.then.i.i.i
  %vtable2.i.i.i.i.i = load ptr, ptr %0, align 8
  %vfn3.i.i.i.i.i = getelementptr inbounds ptr, ptr %vtable2.i.i.i.i.i, i64 3
  %10 = load ptr, ptr %vfn3.i.i.i.i.i, align 8
  tail call void %10(ptr noundef nonnull align 8 dereferenceable(16) %0) #22
  br label %_ZNSt12__shared_ptrIN9grpc_core11DNSResolverELN9__gnu_cxx12_Lock_policyE2EED2Ev.exit

_ZNSt12__shared_ptrIN9grpc_core11DNSResolverELN9__gnu_cxx12_Lock_policyE2EED2Ev.exit: ; preds = %entry, %_ZN9__gnu_cxx27__exchange_and_add_dispatchEPii.exit.i.i.i, %_ZN9__gnu_cxx27__exchange_and_add_dispatchEPii.exit.i.i.i.i.i, %if.end8.sink.split.i.i.i
  ret void
}

; Function Attrs: mustprogress uwtable
define void @_Z31grpc_resolver_dns_ares_shutdownv() local_unnamed_addr #5 personality ptr @__gxx_personality_v0 {
entry:
  %0 = load atomic i64, ptr @_ZN9grpc_core10ConfigVars12config_vars_E acquire, align 8
  %atomic-temp.i.0.i.i = inttoptr i64 %0 to ptr
  %cmp.not.i = icmp eq i64 %0, 0
  br i1 %cmp.not.i, label %if.end.i, label %_ZN9grpc_core10ConfigVars3GetEv.exit

if.end.i:                                         ; preds = %entry
  %call1.i = tail call noundef nonnull align 8 dereferenceable(312) ptr @_ZN9grpc_core10ConfigVars4LoadEv()
  br label %_ZN9grpc_core10ConfigVars3GetEv.exit

_ZN9grpc_core10ConfigVars3GetEv.exit:             ; preds = %entry, %if.end.i
  %retval.0.i = phi ptr [ %call1.i, %if.end.i ], [ %atomic-temp.i.0.i.i, %entry ]
  %dns_resolver_.i = getelementptr inbounds %"class.grpc_core::ConfigVars", ptr %retval.0.i, i64 0, i32 4
  %call.i = tail call { i64, ptr } @_ZNKSt7__cxx1112basic_stringIcSt11char_traitsIcESaIcEEcvSt17basic_string_viewIcS2_EEv(ptr noundef nonnull align 8 dereferenceable(32) %dns_resolver_.i) #22
  %1 = extractvalue { i64, ptr } %call.i, 0
  %cmp.i.i = icmp eq i64 %1, 0
  br i1 %cmp.i.i, label %if.then, label %_ZN9grpc_core24ShouldUseAresDnsResolverESt17basic_string_viewIcSt11char_traitsIcEE.exit

_ZN9grpc_core24ShouldUseAresDnsResolverESt17basic_string_viewIcSt11char_traitsIcEE.exit: ; preds = %_ZN9grpc_core10ConfigVars3GetEv.exit
  %2 = extractvalue { i64, ptr } %call.i, 1
  %call2.i = tail call noundef zeroext i1 @_ZN4absl12lts_2023080216EqualsIgnoreCaseESt17basic_string_viewIcSt11char_traitsIcEES4_(i64 %1, ptr %2, i64 4, ptr nonnull @.str) #22
  br i1 %call2.i, label %if.then, label %if.end

if.then:                                          ; preds = %_ZN9grpc_core10ConfigVars3GetEv.exit, %_ZN9grpc_core24ShouldUseAresDnsResolverESt17basic_string_viewIcSt11char_traitsIcEE.exit
  tail call void @address_sorting_shutdown()
  tail call void @_Z17grpc_ares_cleanupv()
  br label %if.end

if.end:                                           ; preds = %if.then, %_ZN9grpc_core24ShouldUseAresDnsResolverESt17basic_string_viewIcSt11char_traitsIcEE.exit
  ret void
}

declare void @address_sorting_shutdown() local_unnamed_addr #0

declare void @_Z17grpc_ares_cleanupv() local_unnamed_addr #0

; Function Attrs: noreturn nounwind uwtable
define linkonce_odr hidden void @__clang_call_terminate(ptr noundef %0) local_unnamed_addr #6 comdat {
  %2 = tail call ptr @__cxa_begin_catch(ptr %0) #22
  tail call void @_ZSt9terminatev() #24
  unreachable
}

declare ptr @__cxa_begin_catch(ptr) local_unnamed_addr

declare void @_ZSt9terminatev() local_unnamed_addr

; Function Attrs: mustprogress nofree nounwind willreturn memory(argmem: read)
declare i64 @strlen(ptr nocapture noundef) local_unnamed_addr #7

declare noundef nonnull align 8 dereferenceable(312) ptr @_ZN9grpc_core10ConfigVars4LoadEv() local_unnamed_addr #0

; Function Attrs: nounwind
declare { i64, ptr } @_ZNKSt7__cxx1112basic_stringIcSt11char_traitsIcESaIcEEcvSt17basic_string_viewIcS2_EEv(ptr noundef nonnull align 8 dereferenceable(32)) local_unnamed_addr #1

declare noundef zeroext i1 @_Z14grpc_log_errorPKcN4absl12lts_202308026StatusES0_i(ptr noundef, ptr noundef, ptr noundef, i32 noundef) local_unnamed_addr #0

declare void @_ZN4absl12lts_202308026Status15UnrefNonInlinedEm(i64 noundef) local_unnamed_addr #0

; Function Attrs: mustprogress nounwind uwtable
define linkonce_odr void @_ZNSt14__shared_countILN9__gnu_cxx12_Lock_policyE2EED2Ev(ptr noundef nonnull align 8 dereferenceable(8) %this) unnamed_addr #3 comdat align 2 personality ptr @__gxx_personality_v0 {
entry:
  %0 = load ptr, ptr %this, align 8
  %cmp.not = icmp eq ptr %0, null
  br i1 %cmp.not, label %if.end, label %if.then

if.then:                                          ; preds = %entry
  %_M_use_count.i = getelementptr inbounds %"class.std::_Sp_counted_base", ptr %0, i64 0, i32 1
  %1 = load atomic i64, ptr %_M_use_count.i acquire, align 8
  %cmp.i = icmp eq i64 %1, 4294967297
  %2 = trunc i64 %1 to i32
  br i1 %cmp.i, label %if.then.i, label %if.end.i

if.then.i:                                        ; preds = %if.then
  store i32 0, ptr %_M_use_count.i, align 8
  %_M_weak_count.i = getelementptr inbounds %"class.std::_Sp_counted_base", ptr %0, i64 0, i32 2
  store i32 0, ptr %_M_weak_count.i, align 4
  %vtable.i = load ptr, ptr %0, align 8
  %vfn.i = getelementptr inbounds ptr, ptr %vtable.i, i64 2
  %3 = load ptr, ptr %vfn.i, align 8
  tail call void %3(ptr noundef nonnull align 8 dereferenceable(16) %0) #22
  br label %if.end8.sink.split.i

if.end.i:                                         ; preds = %if.then
  %4 = load i8, ptr @__libc_single_threaded, align 1
  %tobool.i.not.i = icmp eq i8 %4, 0
  br i1 %tobool.i.not.i, label %if.else.i.i, label %if.then.i.i

if.then.i.i:                                      ; preds = %if.end.i
  %add.i.i = add nsw i32 %2, -1
  store i32 %add.i.i, ptr %_M_use_count.i, align 4
  br label %_ZN9__gnu_cxx27__exchange_and_add_dispatchEPii.exit.i

if.else.i.i:                                      ; preds = %if.end.i
  %5 = atomicrmw volatile add ptr %_M_use_count.i, i32 -1 acq_rel, align 4
  br label %_ZN9__gnu_cxx27__exchange_and_add_dispatchEPii.exit.i

_ZN9__gnu_cxx27__exchange_and_add_dispatchEPii.exit.i: ; preds = %if.else.i.i, %if.then.i.i
  %retval.i.0.i = phi i32 [ %2, %if.then.i.i ], [ %5, %if.else.i.i ]
  %cmp6.i = icmp eq i32 %retval.i.0.i, 1
  br i1 %cmp6.i, label %if.then7.i, label %if.end

if.then7.i:                                       ; preds = %_ZN9__gnu_cxx27__exchange_and_add_dispatchEPii.exit.i
  %vtable.i.i.i = load ptr, ptr %0, align 8
  %vfn.i.i.i = getelementptr inbounds ptr, ptr %vtable.i.i.i, i64 2
  %6 = load ptr, ptr %vfn.i.i.i, align 8
  tail call void %6(ptr noundef nonnull align 8 dereferenceable(16) %0) #22
  %_M_weak_count.i.i.i = getelementptr inbounds %"class.std::_Sp_counted_base", ptr %0, i64 0, i32 2
  %7 = load i8, ptr @__libc_single_threaded, align 1
  %tobool.i.not.i.i.i = icmp eq i8 %7, 0
  br i1 %tobool.i.not.i.i.i, label %if.else.i.i.i.i, label %if.then.i.i.i.i

if.then.i.i.i.i:                                  ; preds = %if.then7.i
  %8 = load i32, ptr %_M_weak_count.i.i.i, align 4
  %add.i.i.i.i = add nsw i32 %8, -1
  store i32 %add.i.i.i.i, ptr %_M_weak_count.i.i.i, align 4
  br label %_ZN9__gnu_cxx27__exchange_and_add_dispatchEPii.exit.i.i.i

if.else.i.i.i.i:                                  ; preds = %if.then7.i
  %9 = atomicrmw volatile add ptr %_M_weak_count.i.i.i, i32 -1 acq_rel, align 4
  br label %_ZN9__gnu_cxx27__exchange_and_add_dispatchEPii.exit.i.i.i

_ZN9__gnu_cxx27__exchange_and_add_dispatchEPii.exit.i.i.i: ; preds = %if.else.i.i.i.i, %if.then.i.i.i.i
  %retval.i.0.i.i.i = phi i32 [ %8, %if.then.i.i.i.i ], [ %9, %if.else.i.i.i.i ]
  %cmp.i.i.i = icmp eq i32 %retval.i.0.i.i.i, 1
  br i1 %cmp.i.i.i, label %if.end8.sink.split.i, label %if.end

if.end8.sink.split.i:                             ; preds = %_ZN9__gnu_cxx27__exchange_and_add_dispatchEPii.exit.i.i.i, %if.then.i
  %vtable2.i.i.i = load ptr, ptr %0, align 8
  %vfn3.i.i.i = getelementptr inbounds ptr, ptr %vtable2.i.i.i, i64 3
  %10 = load ptr, ptr %vfn3.i.i.i, align 8
  tail call void %10(ptr noundef nonnull align 8 dereferenceable(16) %0) #22
  br label %if.end

if.end:                                           ; preds = %if.end8.sink.split.i, %_ZN9__gnu_cxx27__exchange_and_add_dispatchEPii.exit.i.i.i, %_ZN9__gnu_cxx27__exchange_and_add_dispatchEPii.exit.i, %entry
  ret void
}

; Function Attrs: nobuiltin allocsize(0)
declare noundef nonnull ptr @_Znwm(i64 noundef) local_unnamed_addr #8

; Function Attrs: mustprogress nocallback nofree nounwind willreturn memory(argmem: write)
declare void @llvm.memset.p0.i64(ptr nocapture writeonly, i8, i64, i1 immarg) #9

; Function Attrs: mustprogress nofree norecurse nosync nounwind willreturn memory(none) uwtable
define internal void @_ZN9grpc_core12_GLOBAL__N_135AresClientChannelDNSResolverFactoryD2Ev(ptr nocapture nonnull readnone align 8 %this) unnamed_addr #10 align 2 {
entry:
  ret void
}

; Function Attrs: mustprogress nounwind uwtable
define internal void @_ZN9grpc_core12_GLOBAL__N_135AresClientChannelDNSResolverFactoryD0Ev(ptr noundef nonnull align 8 dereferenceable(8) %this) unnamed_addr #3 align 2 {
entry:
  tail call void @_ZdlPv(ptr noundef nonnull %this) #25
  ret void
}

; Function Attrs: mustprogress nofree norecurse nosync nounwind willreturn memory(none) uwtable
define internal { i64, ptr } @_ZNK9grpc_core12_GLOBAL__N_135AresClientChannelDNSResolverFactory6schemeEv(ptr nocapture nonnull readnone align 8 %this) unnamed_addr #10 align 2 personality ptr @__gxx_personality_v0 {
entry:
  ret { i64, ptr } { i64 3, ptr @.str.3 }
}

; Function Attrs: mustprogress uwtable
define internal noundef zeroext i1 @_ZNK9grpc_core12_GLOBAL__N_135AresClientChannelDNSResolverFactory10IsValidUriERKNS_3URIE(ptr nocapture nonnull readnone align 8 %this, ptr noundef nonnull align 8 dereferenceable(200) %uri) unnamed_addr #5 align 2 personality ptr @__gxx_personality_v0 {
entry:
  %path_.i = getelementptr inbounds %"class.grpc_core::URI", ptr %uri, i64 0, i32 2
  %call2 = tail call { i64, ptr } @_ZNKSt7__cxx1112basic_stringIcSt11char_traitsIcESaIcEEcvSt17basic_string_viewIcS2_EEv(ptr noundef nonnull align 8 dereferenceable(32) %path_.i) #22
  %0 = extractvalue { i64, ptr } %call2, 0
  %cmp.not.i.i = icmp eq i64 %0, 0
  br i1 %cmp.not.i.i, label %if.then, label %_ZN4absl12lts_2023080211StripPrefixESt17basic_string_viewIcSt11char_traitsIcEES4_.exit

_ZN4absl12lts_2023080211StripPrefixESt17basic_string_viewIcSt11char_traitsIcEES4_.exit: ; preds = %entry
  %1 = extractvalue { i64, ptr } %call2, 1
  %lhsc = load i8, ptr %1, align 1
  %cmp7.i.i = icmp eq i8 %lhsc, 47
  %2 = icmp eq i64 %0, 1
  %spec.select = and i1 %cmp7.i.i, %2
  br i1 %spec.select, label %if.then, label %return

if.then:                                          ; preds = %entry, %_ZN4absl12lts_2023080211StripPrefixESt17basic_string_viewIcSt11char_traitsIcEES4_.exit
  tail call void (ptr, i32, i32, ptr, ...) @gpr_log(ptr noundef nonnull @.str.2, i32 noundef 350, i32 noundef 2, ptr noundef nonnull @.str.5)
  br label %return

return:                                           ; preds = %_ZN4absl12lts_2023080211StripPrefixESt17basic_string_viewIcSt11char_traitsIcEES4_.exit, %if.then
  %str.sroa.0.0.i2 = phi i1 [ true, %_ZN4absl12lts_2023080211StripPrefixESt17basic_string_viewIcSt11char_traitsIcEES4_.exit ], [ false, %if.then ]
  ret i1 %str.sroa.0.0.i2
}

; Function Attrs: mustprogress uwtable
define internal void @_ZNK9grpc_core12_GLOBAL__N_135AresClientChannelDNSResolverFactory14CreateResolverENS_12ResolverArgsE(ptr noalias nocapture writeonly sret(%"class.std::unique_ptr.71") align 8 %agg.result, ptr nocapture nonnull readnone align 8 %this, ptr noundef %args) unnamed_addr #5 align 2 personality ptr @__gxx_personality_v0 {
entry:
  %agg.tmp.i.i = alloca %"struct.grpc_core::ResolverArgs", align 8
  %agg.tmp3.i.i = alloca %"class.grpc_core::BackOff::Options", align 8
  %agg.tmp.i = alloca %"struct.grpc_core::ResolverArgs", align 8
  %args4 = getelementptr inbounds %"struct.grpc_core::ResolverArgs", ptr %args, i64 0, i32 1
  %call5 = tail call { i64, i8 } @_ZNK9grpc_core11ChannelArgs24GetDurationFromIntMillisESt17basic_string_viewIcSt11char_traitsIcEE(ptr noundef nonnull align 8 dereferenceable(8) %args4, i64 40, ptr nonnull @.str.6)
  %0 = extractvalue { i64, i8 } %call5, 0
  %1 = extractvalue { i64, i8 } %call5, 1
  %2 = and i8 %1, 1
  %tobool.i.not.i = icmp eq i8 %2, 0
  %3 = tail call i64 @llvm.smax.i64(i64 %0, i64 0)
  %.sroa.speculated = select i1 %tobool.i.not.i, i64 30000, i64 %3
  call void @llvm.lifetime.start.p0(i64 240, ptr nonnull %agg.tmp.i)
  %call.i = tail call noalias noundef nonnull dereferenceable(544) ptr @_Znwm(i64 noundef 544) #23, !noalias !10
  call void @_ZN9grpc_core3URIC2EOS0_(ptr noundef nonnull align 8 dereferenceable(200) %agg.tmp.i, ptr noundef nonnull align 8 dereferenceable(200) %args) #22, !noalias !10
  %args.i.i = getelementptr inbounds %"struct.grpc_core::ResolverArgs", ptr %agg.tmp.i, i64 0, i32 1
  call void @_ZN9grpc_core11ChannelArgsC1EOS0_(ptr noundef nonnull align 8 dereferenceable(8) %args.i.i, ptr noundef nonnull align 8 dereferenceable(8) %args4) #22, !noalias !10
  %pollset_set.i.i = getelementptr inbounds %"struct.grpc_core::ResolverArgs", ptr %agg.tmp.i, i64 0, i32 2
  %pollset_set4.i.i = getelementptr inbounds %"struct.grpc_core::ResolverArgs", ptr %args, i64 0, i32 2
  %work_serializer.i.i = getelementptr inbounds %"struct.grpc_core::ResolverArgs", ptr %agg.tmp.i, i64 0, i32 3
  %work_serializer5.i.i = getelementptr inbounds %"struct.grpc_core::ResolverArgs", ptr %args, i64 0, i32 3
  %4 = load <2 x ptr>, ptr %pollset_set4.i.i, align 8, !noalias !10
  store <2 x ptr> %4, ptr %pollset_set.i.i, align 8, !noalias !10
  %_M_refcount.i.i.i.i = getelementptr inbounds %"struct.grpc_core::ResolverArgs", ptr %agg.tmp.i, i64 0, i32 3, i32 0, i32 1
  %_M_refcount4.i.i.i.i = getelementptr inbounds %"struct.grpc_core::ResolverArgs", ptr %args, i64 0, i32 3, i32 0, i32 1
  %5 = load ptr, ptr %_M_refcount4.i.i.i.i, align 8, !noalias !10
  store ptr null, ptr %_M_refcount4.i.i.i.i, align 8, !noalias !10
  store ptr %5, ptr %_M_refcount.i.i.i.i, align 8, !noalias !10
  store ptr null, ptr %work_serializer5.i.i, align 8, !noalias !10
  %result_handler.i.i = getelementptr inbounds %"struct.grpc_core::ResolverArgs", ptr %agg.tmp.i, i64 0, i32 4
  %result_handler6.i.i = getelementptr inbounds %"struct.grpc_core::ResolverArgs", ptr %args, i64 0, i32 4
  %6 = load i64, ptr %result_handler6.i.i, align 8, !noalias !10
  store i64 %6, ptr %result_handler.i.i, align 8, !noalias !10
  store ptr null, ptr %result_handler6.i.i, align 8, !noalias !10
  call void @llvm.lifetime.start.p0(i64 240, ptr nonnull %agg.tmp.i.i), !noalias !10
  call void @llvm.lifetime.start.p0(i64 32, ptr nonnull %agg.tmp3.i.i), !noalias !10
  call void @_ZN9grpc_core3URIC2EOS0_(ptr noundef nonnull align 8 dereferenceable(200) %agg.tmp.i.i, ptr noundef nonnull align 8 dereferenceable(200) %agg.tmp.i) #22, !noalias !10
  %args.i.i.i = getelementptr inbounds %"struct.grpc_core::ResolverArgs", ptr %agg.tmp.i.i, i64 0, i32 1
  call void @_ZN9grpc_core11ChannelArgsC1EOS0_(ptr noundef nonnull align 8 dereferenceable(8) %args.i.i.i, ptr noundef nonnull align 8 dereferenceable(8) %args.i.i) #22, !noalias !10
  %pollset_set.i.i.i = getelementptr inbounds %"struct.grpc_core::ResolverArgs", ptr %agg.tmp.i.i, i64 0, i32 2
  %7 = load <2 x ptr>, ptr %pollset_set.i.i, align 8, !noalias !10
  store <2 x ptr> %7, ptr %pollset_set.i.i.i, align 8, !noalias !10
  %_M_refcount.i.i.i.i.i = getelementptr inbounds %"struct.grpc_core::ResolverArgs", ptr %agg.tmp.i.i, i64 0, i32 3, i32 0, i32 1
  %8 = load ptr, ptr %_M_refcount.i.i.i.i, align 8, !noalias !10
  store ptr null, ptr %_M_refcount.i.i.i.i, align 8, !noalias !10
  store ptr %8, ptr %_M_refcount.i.i.i.i.i, align 8, !noalias !10
  store ptr null, ptr %work_serializer.i.i, align 8, !noalias !10
  %result_handler.i.i.i = getelementptr inbounds %"struct.grpc_core::ResolverArgs", ptr %agg.tmp.i.i, i64 0, i32 4
  %9 = load i64, ptr %result_handler.i.i, align 8, !noalias !10
  store i64 %9, ptr %result_handler.i.i.i, align 8, !noalias !10
  store ptr null, ptr %result_handler.i.i, align 8, !noalias !10
  store i64 1000, ptr %agg.tmp3.i.i, align 8, !noalias !10
  %ref.tmp.sroa.4.0.agg.tmp3.sroa_idx.i.i = getelementptr inbounds i8, ptr %agg.tmp3.i.i, i64 8
  store <2 x double> <double 1.600000e+00, double 2.000000e-01>, ptr %ref.tmp.sroa.4.0.agg.tmp3.sroa_idx.i.i, align 8, !noalias !10
  %ref.tmp.sroa.6.0.agg.tmp3.sroa_idx.i.i = getelementptr inbounds i8, ptr %agg.tmp3.i.i, i64 24
  store i64 120000, ptr %ref.tmp.sroa.6.0.agg.tmp3.sroa_idx.i.i, align 8, !noalias !10
  invoke void @_ZN9grpc_core15PollingResolverC2ENS_12ResolverArgsENS_8DurationENS_7BackOff7OptionsEPNS_9TraceFlagE(ptr noundef nonnull align 8 dereferenceable(536) %call.i, ptr noundef nonnull %agg.tmp.i.i, i64 %.sroa.speculated, ptr noundef nonnull byval(%"class.grpc_core::BackOff::Options") align 8 %agg.tmp3.i.i, ptr noundef nonnull @grpc_trace_cares_resolver)
          to label %invoke.cont21.i.i unwind label %lpad.i.i, !noalias !10

invoke.cont21.i.i:                                ; preds = %entry
  call void @_ZN9grpc_core12ResolverArgsD2Ev(ptr noundef nonnull align 8 dereferenceable(240) %agg.tmp.i.i) #22, !noalias !10
  store ptr getelementptr inbounds ({ [10 x ptr] }, ptr @_ZTVN9grpc_core12_GLOBAL__N_128AresClientChannelDNSResolverE, i64 0, inrange i32 0, i64 2), ptr %call.i, align 8, !noalias !10
  %channel_args_.i.i.i = getelementptr inbounds %"class.grpc_core::PollingResolver", ptr %call.i, i64 0, i32 3
  %call28.i.i = invoke i16 @_ZNK9grpc_core11ChannelArgs7GetBoolESt17basic_string_viewIcSt11char_traitsIcEE(ptr noundef nonnull align 8 dereferenceable(8) %channel_args_.i.i.i, i64 38, ptr nonnull @.str.7)
          to label %invoke.cont27.i.i unwind label %lpad23.i.i, !noalias !10

invoke.cont27.i.i:                                ; preds = %invoke.cont21.i.i
  %request_service_config_.i.i = getelementptr inbounds %"class.grpc_core::(anonymous namespace)::AresClientChannelDNSResolver", ptr %call.i, i64 0, i32 1
  %10 = and i16 %call28.i.i, 257
  %retval.0.i.not.i.i = icmp eq i16 %10, 256
  %frombool.i.i = zext i1 %retval.0.i.not.i.i to i8
  store i8 %frombool.i.i, ptr %request_service_config_.i.i, align 8, !noalias !10
  %call40.i.i = invoke i16 @_ZNK9grpc_core11ChannelArgs7GetBoolESt17basic_string_viewIcSt11char_traitsIcEE(ptr noundef nonnull align 8 dereferenceable(8) %channel_args_.i.i.i, i64 27, ptr nonnull @.str.8)
          to label %invoke.cont39.i.i unwind label %lpad23.i.i, !noalias !10

invoke.cont39.i.i:                                ; preds = %invoke.cont27.i.i
  %enable_srv_queries_.i.i = getelementptr inbounds %"class.grpc_core::(anonymous namespace)::AresClientChannelDNSResolver", ptr %call.i, i64 0, i32 2
  %11 = and i16 %call40.i.i, 257
  %retval.0.i12.i.i = icmp eq i16 %11, 257
  %frombool47.i.i = zext i1 %retval.0.i12.i.i to i8
  store i8 %frombool47.i.i, ptr %enable_srv_queries_.i.i, align 1, !noalias !10
  %call55.i.i = invoke i64 @_ZNK9grpc_core11ChannelArgs6GetIntESt17basic_string_viewIcSt11char_traitsIcEE(ptr noundef nonnull align 8 dereferenceable(8) %channel_args_.i.i.i, i64 27, ptr nonnull @.str.9)
          to label %_ZNSt10unique_ptrIN9grpc_core12_GLOBAL__N_128AresClientChannelDNSResolverENS0_16OrphanableDeleteEED2Ev.exit unwind label %lpad23.i.i, !noalias !10

lpad.i.i:                                         ; preds = %entry
  %12 = landingpad { ptr, i32 }
          cleanup
  call void @_ZN9grpc_core12ResolverArgsD2Ev(ptr noundef nonnull align 8 dereferenceable(240) %agg.tmp.i.i) #22, !noalias !10
  br label %lpad.body.i

lpad23.i.i:                                       ; preds = %invoke.cont39.i.i, %invoke.cont27.i.i, %invoke.cont21.i.i
  %13 = landingpad { ptr, i32 }
          cleanup
  call void @_ZN9grpc_core15PollingResolverD2Ev(ptr noundef nonnull align 8 dereferenceable(536) %call.i) #22, !noalias !10
  br label %lpad.body.i

lpad.body.i:                                      ; preds = %lpad23.i.i, %lpad.i.i
  %eh.lpad-body.i = phi { ptr, i32 } [ %13, %lpad23.i.i ], [ %12, %lpad.i.i ]
  call void @_ZN9grpc_core12ResolverArgsD2Ev(ptr noundef nonnull align 8 dereferenceable(240) %agg.tmp.i) #22, !noalias !10
  call void @_ZdlPv(ptr noundef nonnull %call.i) #25, !noalias !10
  resume { ptr, i32 } %eh.lpad-body.i

_ZNSt10unique_ptrIN9grpc_core12_GLOBAL__N_128AresClientChannelDNSResolverENS0_16OrphanableDeleteEED2Ev.exit: ; preds = %invoke.cont39.i.i
  %query_timeout_ms_.i.i = getelementptr inbounds %"class.grpc_core::(anonymous namespace)::AresClientChannelDNSResolver", ptr %call.i, i64 0, i32 3
  %ref.tmp50.sroa.0.0.extract.trunc.i.i = trunc i64 %call55.i.i to i32
  %14 = and i64 %call55.i.i, 4294967296
  %tobool.i.not.i17.i.i = icmp eq i64 %14, 0
  %15 = call i32 @llvm.smax.i32(i32 %ref.tmp50.sroa.0.0.extract.trunc.i.i, i32 0)
  %.sroa.speculated.i.i = select i1 %tobool.i.not.i17.i.i, i32 120000, i32 %15
  store i32 %.sroa.speculated.i.i, ptr %query_timeout_ms_.i.i, align 4, !noalias !10
  call void @llvm.lifetime.end.p0(i64 240, ptr nonnull %agg.tmp.i.i), !noalias !10
  call void @llvm.lifetime.end.p0(i64 32, ptr nonnull %agg.tmp3.i.i), !noalias !10
  call void @_ZN9grpc_core12ResolverArgsD2Ev(ptr noundef nonnull align 8 dereferenceable(240) %agg.tmp.i) #22, !noalias !10
  call void @llvm.lifetime.end.p0(i64 240, ptr nonnull %agg.tmp.i)
  store ptr %call.i, ptr %agg.result, align 8
  ret void
}

; Function Attrs: mustprogress uwtable
define linkonce_odr void @_ZNK9grpc_core15ResolverFactory19GetDefaultAuthorityB5cxx11ERKNS_3URIE(ptr noalias sret(%"class.std::__cxx11::basic_string") align 8 %agg.result, ptr noundef nonnull align 8 dereferenceable(8) %this, ptr noundef nonnull align 8 dereferenceable(200) %uri) unnamed_addr #5 comdat align 2 personality ptr @__gxx_personality_v0 {
entry:
  %path_.i = getelementptr inbounds %"class.grpc_core::URI", ptr %uri, i64 0, i32 2
  %call3 = tail call { i64, ptr } @_ZNKSt7__cxx1112basic_stringIcSt11char_traitsIcESaIcEEcvSt17basic_string_viewIcS2_EEv(ptr noundef nonnull align 8 dereferenceable(32) %path_.i) #22
  %0 = extractvalue { i64, ptr } %call3, 0
  %1 = extractvalue { i64, ptr } %call3, 1
  %cmp.not.i.i = icmp eq i64 %0, 0
  br i1 %cmp.not.i.i, label %_ZN4absl12lts_2023080211StripPrefixESt17basic_string_viewIcSt11char_traitsIcEES4_.exit, label %_ZN4absl12lts_2023080210StartsWithESt17basic_string_viewIcSt11char_traitsIcEES4_.exit.i

_ZN4absl12lts_2023080210StartsWithESt17basic_string_viewIcSt11char_traitsIcEES4_.exit.i: ; preds = %entry
  %lhsc = load i8, ptr %1, align 1
  %cmp7.i.i = icmp eq i8 %lhsc, 47
  br i1 %cmp7.i.i, label %if.then.i, label %_ZN4absl12lts_2023080211StripPrefixESt17basic_string_viewIcSt11char_traitsIcEES4_.exit

if.then.i:                                        ; preds = %_ZN4absl12lts_2023080210StartsWithESt17basic_string_viewIcSt11char_traitsIcEES4_.exit.i
  %add.ptr.i.i = getelementptr inbounds i8, ptr %1, i64 1
  %sub.i.i = add i64 %0, -1
  br label %_ZN4absl12lts_2023080211StripPrefixESt17basic_string_viewIcSt11char_traitsIcEES4_.exit

_ZN4absl12lts_2023080211StripPrefixESt17basic_string_viewIcSt11char_traitsIcEES4_.exit: ; preds = %entry, %_ZN4absl12lts_2023080210StartsWithESt17basic_string_viewIcSt11char_traitsIcEES4_.exit.i, %if.then.i
  %str.sroa.0.0.i = phi i64 [ %sub.i.i, %if.then.i ], [ %0, %_ZN4absl12lts_2023080210StartsWithESt17basic_string_viewIcSt11char_traitsIcEES4_.exit.i ], [ 0, %entry ]
  %str.sroa.4.0.i = phi ptr [ %add.ptr.i.i, %if.then.i ], [ %1, %_ZN4absl12lts_2023080210StartsWithESt17basic_string_viewIcSt11char_traitsIcEES4_.exit.i ], [ %1, %entry ]
  tail call void @_ZN9grpc_core3URI22PercentEncodeAuthorityB5cxx11ESt17basic_string_viewIcSt11char_traitsIcEE(ptr sret(%"class.std::__cxx11::basic_string") align 8 %agg.result, i64 %str.sroa.0.0.i, ptr %str.sroa.4.0.i)
  ret void
}

declare void @__cxa_pure_virtual() unnamed_addr

; Function Attrs: cold noreturn nounwind memory(inaccessiblemem: write)
declare void @llvm.trap() #11

; Function Attrs: nobuiltin nounwind
declare void @_ZdlPv(ptr noundef) local_unnamed_addr #12

declare void @gpr_log(ptr noundef, i32 noundef, i32 noundef, ptr noundef, ...) local_unnamed_addr #0

declare { i64, i8 } @_ZNK9grpc_core11ChannelArgs24GetDurationFromIntMillisESt17basic_string_viewIcSt11char_traitsIcEE(ptr noundef nonnull align 8 dereferenceable(8), i64, ptr) local_unnamed_addr #0

; Function Attrs: mustprogress nounwind uwtable
define linkonce_odr void @_ZN9grpc_core12ResolverArgsD2Ev(ptr noundef nonnull align 8 dereferenceable(240) %this) unnamed_addr #3 comdat align 2 personality ptr @__gxx_personality_v0 {
entry:
  %result_handler = getelementptr inbounds %"struct.grpc_core::ResolverArgs", ptr %this, i64 0, i32 4
  %0 = load ptr, ptr %result_handler, align 8
  %cmp.not.i = icmp eq ptr %0, null
  br i1 %cmp.not.i, label %_ZNSt10unique_ptrIN9grpc_core8Resolver13ResultHandlerESt14default_deleteIS2_EED2Ev.exit, label %_ZNKSt14default_deleteIN9grpc_core8Resolver13ResultHandlerEEclEPS2_.exit.i

_ZNKSt14default_deleteIN9grpc_core8Resolver13ResultHandlerEEclEPS2_.exit.i: ; preds = %entry
  %vtable.i.i = load ptr, ptr %0, align 8
  %vfn.i.i = getelementptr inbounds ptr, ptr %vtable.i.i, i64 1
  %1 = load ptr, ptr %vfn.i.i, align 8
  tail call void %1(ptr noundef nonnull align 8 dereferenceable(8) %0) #22
  br label %_ZNSt10unique_ptrIN9grpc_core8Resolver13ResultHandlerESt14default_deleteIS2_EED2Ev.exit

_ZNSt10unique_ptrIN9grpc_core8Resolver13ResultHandlerESt14default_deleteIS2_EED2Ev.exit: ; preds = %entry, %_ZNKSt14default_deleteIN9grpc_core8Resolver13ResultHandlerEEclEPS2_.exit.i
  store ptr null, ptr %result_handler, align 8
  %_M_refcount.i.i = getelementptr inbounds %"struct.grpc_core::ResolverArgs", ptr %this, i64 0, i32 3, i32 0, i32 1
  %2 = load ptr, ptr %_M_refcount.i.i, align 8
  %cmp.not.i.i.i = icmp eq ptr %2, null
  br i1 %cmp.not.i.i.i, label %_ZNSt10shared_ptrIN9grpc_core14WorkSerializerEED2Ev.exit, label %if.then.i.i.i

if.then.i.i.i:                                    ; preds = %_ZNSt10unique_ptrIN9grpc_core8Resolver13ResultHandlerESt14default_deleteIS2_EED2Ev.exit
  %_M_use_count.i.i.i.i = getelementptr inbounds %"class.std::_Sp_counted_base", ptr %2, i64 0, i32 1
  %3 = load atomic i64, ptr %_M_use_count.i.i.i.i acquire, align 8
  %cmp.i.i.i.i = icmp eq i64 %3, 4294967297
  %4 = trunc i64 %3 to i32
  br i1 %cmp.i.i.i.i, label %if.then.i.i.i.i, label %if.end.i.i.i.i

if.then.i.i.i.i:                                  ; preds = %if.then.i.i.i
  store i32 0, ptr %_M_use_count.i.i.i.i, align 8
  %_M_weak_count.i.i.i.i = getelementptr inbounds %"class.std::_Sp_counted_base", ptr %2, i64 0, i32 2
  store i32 0, ptr %_M_weak_count.i.i.i.i, align 4
  %vtable.i.i.i.i = load ptr, ptr %2, align 8
  %vfn.i.i.i.i = getelementptr inbounds ptr, ptr %vtable.i.i.i.i, i64 2
  %5 = load ptr, ptr %vfn.i.i.i.i, align 8
  tail call void %5(ptr noundef nonnull align 8 dereferenceable(16) %2) #22
  br label %if.end8.sink.split.i.i.i.i

if.end.i.i.i.i:                                   ; preds = %if.then.i.i.i
  %6 = load i8, ptr @__libc_single_threaded, align 1
  %tobool.i.not.i.i.i.i = icmp eq i8 %6, 0
  br i1 %tobool.i.not.i.i.i.i, label %if.else.i.i.i.i.i, label %if.then.i.i.i.i.i

if.then.i.i.i.i.i:                                ; preds = %if.end.i.i.i.i
  %add.i.i.i.i.i = add nsw i32 %4, -1
  store i32 %add.i.i.i.i.i, ptr %_M_use_count.i.i.i.i, align 4
  br label %_ZN9__gnu_cxx27__exchange_and_add_dispatchEPii.exit.i.i.i.i

if.else.i.i.i.i.i:                                ; preds = %if.end.i.i.i.i
  %7 = atomicrmw volatile add ptr %_M_use_count.i.i.i.i, i32 -1 acq_rel, align 4
  br label %_ZN9__gnu_cxx27__exchange_and_add_dispatchEPii.exit.i.i.i.i

_ZN9__gnu_cxx27__exchange_and_add_dispatchEPii.exit.i.i.i.i: ; preds = %if.else.i.i.i.i.i, %if.then.i.i.i.i.i
  %retval.i.0.i.i.i.i = phi i32 [ %4, %if.then.i.i.i.i.i ], [ %7, %if.else.i.i.i.i.i ]
  %cmp6.i.i.i.i = icmp eq i32 %retval.i.0.i.i.i.i, 1
  br i1 %cmp6.i.i.i.i, label %if.then7.i.i.i.i, label %_ZNSt10shared_ptrIN9grpc_core14WorkSerializerEED2Ev.exit

if.then7.i.i.i.i:                                 ; preds = %_ZN9__gnu_cxx27__exchange_and_add_dispatchEPii.exit.i.i.i.i
  %vtable.i.i.i.i.i.i = load ptr, ptr %2, align 8
  %vfn.i.i.i.i.i.i = getelementptr inbounds ptr, ptr %vtable.i.i.i.i.i.i, i64 2
  %8 = load ptr, ptr %vfn.i.i.i.i.i.i, align 8
  tail call void %8(ptr noundef nonnull align 8 dereferenceable(16) %2) #22
  %_M_weak_count.i.i.i.i.i.i = getelementptr inbounds %"class.std::_Sp_counted_base", ptr %2, i64 0, i32 2
  %9 = load i8, ptr @__libc_single_threaded, align 1
  %tobool.i.not.i.i.i.i.i.i = icmp eq i8 %9, 0
  br i1 %tobool.i.not.i.i.i.i.i.i, label %if.else.i.i.i.i.i.i.i, label %if.then.i.i.i.i.i.i.i

if.then.i.i.i.i.i.i.i:                            ; preds = %if.then7.i.i.i.i
  %10 = load i32, ptr %_M_weak_count.i.i.i.i.i.i, align 4
  %add.i.i.i.i.i.i.i = add nsw i32 %10, -1
  store i32 %add.i.i.i.i.i.i.i, ptr %_M_weak_count.i.i.i.i.i.i, align 4
  br label %_ZN9__gnu_cxx27__exchange_and_add_dispatchEPii.exit.i.i.i.i.i.i

if.else.i.i.i.i.i.i.i:                            ; preds = %if.then7.i.i.i.i
  %11 = atomicrmw volatile add ptr %_M_weak_count.i.i.i.i.i.i, i32 -1 acq_rel, align 4
  br label %_ZN9__gnu_cxx27__exchange_and_add_dispatchEPii.exit.i.i.i.i.i.i

_ZN9__gnu_cxx27__exchange_and_add_dispatchEPii.exit.i.i.i.i.i.i: ; preds = %if.else.i.i.i.i.i.i.i, %if.then.i.i.i.i.i.i.i
  %retval.i.0.i.i.i.i.i.i = phi i32 [ %10, %if.then.i.i.i.i.i.i.i ], [ %11, %if.else.i.i.i.i.i.i.i ]
  %cmp.i.i.i.i.i.i = icmp eq i32 %retval.i.0.i.i.i.i.i.i, 1
  br i1 %cmp.i.i.i.i.i.i, label %if.end8.sink.split.i.i.i.i, label %_ZNSt10shared_ptrIN9grpc_core14WorkSerializerEED2Ev.exit

if.end8.sink.split.i.i.i.i:                       ; preds = %_ZN9__gnu_cxx27__exchange_and_add_dispatchEPii.exit.i.i.i.i.i.i, %if.then.i.i.i.i
  %vtable2.i.i.i.i.i.i = load ptr, ptr %2, align 8
  %vfn3.i.i.i.i.i.i = getelementptr inbounds ptr, ptr %vtable2.i.i.i.i.i.i, i64 3
  %12 = load ptr, ptr %vfn3.i.i.i.i.i.i, align 8
  tail call void %12(ptr noundef nonnull align 8 dereferenceable(16) %2) #22
  br label %_ZNSt10shared_ptrIN9grpc_core14WorkSerializerEED2Ev.exit

_ZNSt10shared_ptrIN9grpc_core14WorkSerializerEED2Ev.exit: ; preds = %_ZNSt10unique_ptrIN9grpc_core8Resolver13ResultHandlerESt14default_deleteIS2_EED2Ev.exit, %_ZN9__gnu_cxx27__exchange_and_add_dispatchEPii.exit.i.i.i.i, %_ZN9__gnu_cxx27__exchange_and_add_dispatchEPii.exit.i.i.i.i.i.i, %if.end8.sink.split.i.i.i.i
  %args = getelementptr inbounds %"struct.grpc_core::ResolverArgs", ptr %this, i64 0, i32 1
  tail call void @_ZN9grpc_core11ChannelArgsD1Ev(ptr noundef nonnull align 8 dereferenceable(8) %args) #22
  tail call void @_ZN9grpc_core3URID2Ev(ptr noundef nonnull align 8 dereferenceable(200) %this) #22
  ret void
}

; Function Attrs: mustprogress nounwind uwtable
define linkonce_odr void @_ZN9grpc_core3URIC2EOS0_(ptr noundef nonnull align 8 dereferenceable(200) %this, ptr noundef nonnull align 8 dereferenceable(200) %0) unnamed_addr #3 comdat align 2 personality ptr @__gxx_personality_v0 {
entry:
  tail call void @_ZNSt7__cxx1112basic_stringIcSt11char_traitsIcESaIcEEC1EOS4_(ptr noundef nonnull align 8 dereferenceable(32) %this, ptr noundef nonnull align 8 dereferenceable(32) %0) #22
  %authority_ = getelementptr inbounds %"class.grpc_core::URI", ptr %this, i64 0, i32 1
  %authority_3 = getelementptr inbounds %"class.grpc_core::URI", ptr %0, i64 0, i32 1
  tail call void @_ZNSt7__cxx1112basic_stringIcSt11char_traitsIcESaIcEEC1EOS4_(ptr noundef nonnull align 8 dereferenceable(32) %authority_, ptr noundef nonnull align 8 dereferenceable(32) %authority_3) #22
  %path_ = getelementptr inbounds %"class.grpc_core::URI", ptr %this, i64 0, i32 2
  %path_4 = getelementptr inbounds %"class.grpc_core::URI", ptr %0, i64 0, i32 2
  tail call void @_ZNSt7__cxx1112basic_stringIcSt11char_traitsIcESaIcEEC1EOS4_(ptr noundef nonnull align 8 dereferenceable(32) %path_, ptr noundef nonnull align 8 dereferenceable(32) %path_4) #22
  %1 = getelementptr inbounds %"class.grpc_core::URI", ptr %this, i64 0, i32 3, i32 0, i32 0, i32 1
  %_M_parent.i.i.i.i = getelementptr inbounds %"class.grpc_core::URI", ptr %0, i64 0, i32 3, i32 0, i32 0, i32 1, i32 0, i32 1
  %2 = load ptr, ptr %_M_parent.i.i.i.i, align 8
  %cmp.not.i.i.i.i = icmp eq ptr %2, null
  br i1 %cmp.not.i.i.i.i, label %if.else.i.i.i.i, label %if.then.i.i.i.i

if.then.i.i.i.i:                                  ; preds = %entry
  %add.ptr.i.i.i = getelementptr inbounds %"class.grpc_core::URI", ptr %0, i64 0, i32 3, i32 0, i32 0, i32 1
  %3 = load i32, ptr %add.ptr.i.i.i, align 8
  store i32 %3, ptr %1, align 8
  %4 = load ptr, ptr %_M_parent.i.i.i.i, align 8
  %_M_parent6.i.i.i.i.i = getelementptr inbounds %"class.grpc_core::URI", ptr %this, i64 0, i32 3, i32 0, i32 0, i32 1, i32 0, i32 1
  store ptr %4, ptr %_M_parent6.i.i.i.i.i, align 8
  %_M_left.i.i.i.i.i = getelementptr inbounds %"class.grpc_core::URI", ptr %0, i64 0, i32 3, i32 0, i32 0, i32 1, i32 0, i32 2
  %5 = load ptr, ptr %_M_left.i.i.i.i.i, align 8
  %_M_left9.i.i.i.i.i = getelementptr inbounds %"class.grpc_core::URI", ptr %this, i64 0, i32 3, i32 0, i32 0, i32 1, i32 0, i32 2
  store ptr %5, ptr %_M_left9.i.i.i.i.i, align 8
  %_M_right.i.i.i.i.i = getelementptr inbounds %"class.grpc_core::URI", ptr %0, i64 0, i32 3, i32 0, i32 0, i32 1, i32 0, i32 3
  %6 = load ptr, ptr %_M_right.i.i.i.i.i, align 8
  %_M_right12.i.i.i.i.i = getelementptr inbounds %"class.grpc_core::URI", ptr %this, i64 0, i32 3, i32 0, i32 0, i32 1, i32 0, i32 3
  store ptr %6, ptr %_M_right12.i.i.i.i.i, align 8
  %_M_parent16.i.i.i.i.i = getelementptr inbounds %"struct.std::_Rb_tree_node_base", ptr %4, i64 0, i32 1
  store ptr %1, ptr %_M_parent16.i.i.i.i.i, align 8
  %_M_node_count.i.i.i.i.i = getelementptr inbounds %"class.grpc_core::URI", ptr %0, i64 0, i32 3, i32 0, i32 0, i32 1, i32 1
  %7 = load i64, ptr %_M_node_count.i.i.i.i.i, align 8
  %_M_node_count17.i.i.i.i.i = getelementptr inbounds %"class.grpc_core::URI", ptr %this, i64 0, i32 3, i32 0, i32 0, i32 1, i32 1
  store i64 %7, ptr %_M_node_count17.i.i.i.i.i, align 8
  store ptr null, ptr %_M_parent.i.i.i.i, align 8
  store ptr %add.ptr.i.i.i, ptr %_M_left.i.i.i.i.i, align 8
  store ptr %add.ptr.i.i.i, ptr %_M_right.i.i.i.i.i, align 8
  br label %_ZNSt3mapISt17basic_string_viewIcSt11char_traitsIcEES3_St4lessIS3_ESaISt4pairIKS3_S3_EEEC2EOSA_.exit

if.else.i.i.i.i:                                  ; preds = %entry
  store i32 0, ptr %1, align 8
  %_M_parent.i2.i.i.i.i = getelementptr inbounds %"class.grpc_core::URI", ptr %this, i64 0, i32 3, i32 0, i32 0, i32 1, i32 0, i32 1
  store ptr null, ptr %_M_parent.i2.i.i.i.i, align 8
  %_M_left.i3.i.i.i.i = getelementptr inbounds %"class.grpc_core::URI", ptr %this, i64 0, i32 3, i32 0, i32 0, i32 1, i32 0, i32 2
  store ptr %1, ptr %_M_left.i3.i.i.i.i, align 8
  %_M_right.i4.i.i.i.i = getelementptr inbounds %"class.grpc_core::URI", ptr %this, i64 0, i32 3, i32 0, i32 0, i32 1, i32 0, i32 3
  store ptr %1, ptr %_M_right.i4.i.i.i.i, align 8
  %_M_node_count.i5.i.i.i.i = getelementptr inbounds %"class.grpc_core::URI", ptr %this, i64 0, i32 3, i32 0, i32 0, i32 1, i32 1
  br label %_ZNSt3mapISt17basic_string_viewIcSt11char_traitsIcEES3_St4lessIS3_ESaISt4pairIKS3_S3_EEEC2EOSA_.exit

_ZNSt3mapISt17basic_string_viewIcSt11char_traitsIcEES3_St4lessIS3_ESaISt4pairIKS3_S3_EEEC2EOSA_.exit: ; preds = %if.then.i.i.i.i, %if.else.i.i.i.i
  %_M_node_count.i.sink.i.i.i.i = phi ptr [ %_M_node_count.i.i.i.i.i, %if.then.i.i.i.i ], [ %_M_node_count.i5.i.i.i.i, %if.else.i.i.i.i ]
  store i64 0, ptr %_M_node_count.i.sink.i.i.i.i, align 8
  %query_parameter_pairs_ = getelementptr inbounds %"class.grpc_core::URI", ptr %this, i64 0, i32 4
  %query_parameter_pairs_6 = getelementptr inbounds %"class.grpc_core::URI", ptr %0, i64 0, i32 4
  %8 = load ptr, ptr %query_parameter_pairs_6, align 8
  store ptr %8, ptr %query_parameter_pairs_, align 8
  %_M_finish.i.i.i.i = getelementptr inbounds %"class.grpc_core::URI", ptr %this, i64 0, i32 4, i32 0, i32 0, i32 0, i32 1
  %_M_finish3.i.i.i.i = getelementptr inbounds %"class.grpc_core::URI", ptr %0, i64 0, i32 4, i32 0, i32 0, i32 0, i32 1
  %9 = load ptr, ptr %_M_finish3.i.i.i.i, align 8
  store ptr %9, ptr %_M_finish.i.i.i.i, align 8
  %_M_end_of_storage.i.i.i.i = getelementptr inbounds %"class.grpc_core::URI", ptr %this, i64 0, i32 4, i32 0, i32 0, i32 0, i32 2
  %_M_end_of_storage4.i.i.i.i = getelementptr inbounds %"class.grpc_core::URI", ptr %0, i64 0, i32 4, i32 0, i32 0, i32 0, i32 2
  %10 = load ptr, ptr %_M_end_of_storage4.i.i.i.i, align 8
  store ptr %10, ptr %_M_end_of_storage.i.i.i.i, align 8
  tail call void @llvm.memset.p0.i64(ptr noundef nonnull align 8 dereferenceable(24) %query_parameter_pairs_6, i8 0, i64 24, i1 false)
  %fragment_ = getelementptr inbounds %"class.grpc_core::URI", ptr %this, i64 0, i32 5
  %fragment_7 = getelementptr inbounds %"class.grpc_core::URI", ptr %0, i64 0, i32 5
  tail call void @_ZNSt7__cxx1112basic_stringIcSt11char_traitsIcESaIcEEC1EOS4_(ptr noundef nonnull align 8 dereferenceable(32) %fragment_, ptr noundef nonnull align 8 dereferenceable(32) %fragment_7) #22
  ret void
}

; Function Attrs: nounwind
declare void @_ZN9grpc_core11ChannelArgsC1EOS0_(ptr noundef nonnull align 8 dereferenceable(8), ptr noundef nonnull align 8 dereferenceable(8)) unnamed_addr #1

; Function Attrs: nounwind
declare void @_ZNSt7__cxx1112basic_stringIcSt11char_traitsIcESaIcEEC1EOS4_(ptr noundef nonnull align 8 dereferenceable(32), ptr noundef nonnull align 8 dereferenceable(32)) unnamed_addr #1

declare void @_ZN9grpc_core15PollingResolverC2ENS_12ResolverArgsENS_8DurationENS_7BackOff7OptionsEPNS_9TraceFlagE(ptr noundef nonnull align 8 dereferenceable(536), ptr noundef, i64, ptr noundef byval(%"class.grpc_core::BackOff::Options") align 8, ptr noundef) unnamed_addr #0

declare i16 @_ZNK9grpc_core11ChannelArgs7GetBoolESt17basic_string_viewIcSt11char_traitsIcEE(ptr noundef nonnull align 8 dereferenceable(8), i64, ptr) local_unnamed_addr #0

declare i64 @_ZNK9grpc_core11ChannelArgs6GetIntESt17basic_string_viewIcSt11char_traitsIcEE(ptr noundef nonnull align 8 dereferenceable(8), i64, ptr) local_unnamed_addr #0

; Function Attrs: nounwind
declare void @_ZN9grpc_core15PollingResolverD2Ev(ptr noundef nonnull align 8 dereferenceable(536)) unnamed_addr #1

; Function Attrs: mustprogress uwtable
define linkonce_odr void @_ZN9grpc_core8Resolver6OrphanEv(ptr noundef nonnull align 8 dereferenceable(16) %this) unnamed_addr #5 comdat align 2 {
entry:
  %vtable = load ptr, ptr %this, align 8
  %vfn = getelementptr inbounds ptr, ptr %vtable, i64 6
  %0 = load ptr, ptr %vfn, align 8
  tail call void %0(ptr noundef nonnull align 8 dereferenceable(16) %this)
  %refs_.i = getelementptr inbounds %"class.grpc_core::InternallyRefCounted", ptr %this, i64 0, i32 1
  %1 = atomicrmw sub ptr %refs_.i, i64 1 acq_rel, align 8
  %cmp.i.i = icmp eq i64 %1, 1
  br i1 %cmp.i.i, label %if.then.i, label %_ZN9grpc_core20InternallyRefCountedINS_8ResolverENS_11UnrefDeleteEE5UnrefEv.exit

if.then.i:                                        ; preds = %entry
  %vtable.i.i = load ptr, ptr %this, align 8
  %vfn.i.i = getelementptr inbounds ptr, ptr %vtable.i.i, i64 2
  %2 = load ptr, ptr %vfn.i.i, align 8
  tail call void %2(ptr noundef nonnull align 8 dereferenceable(16) %this) #22
  br label %_ZN9grpc_core20InternallyRefCountedINS_8ResolverENS_11UnrefDeleteEE5UnrefEv.exit

_ZN9grpc_core20InternallyRefCountedINS_8ResolverENS_11UnrefDeleteEE5UnrefEv.exit: ; preds = %entry, %if.then.i
  ret void
}

; Function Attrs: mustprogress nounwind uwtable
define internal void @_ZN9grpc_core12_GLOBAL__N_128AresClientChannelDNSResolverD2Ev(ptr noundef nonnull align 8 dereferenceable(544) %this) unnamed_addr #3 align 2 personality ptr @__gxx_personality_v0 {
entry:
  store ptr getelementptr inbounds ({ [10 x ptr] }, ptr @_ZTVN9grpc_core12_GLOBAL__N_128AresClientChannelDNSResolverE, i64 0, inrange i32 0, i64 2), ptr %this, align 8
  %0 = load atomic i8, ptr getelementptr inbounds (%"class.grpc_core::TraceFlag", ptr @grpc_trace_cares_resolver, i64 0, i32 2) monotonic, align 8
  %1 = and i8 %0, 1
  %tobool.i.i.i.not = icmp eq i8 %1, 0
  br i1 %tobool.i.i.i.not, label %do.end, label %if.then

if.then:                                          ; preds = %entry
  invoke void (ptr, i32, i32, ptr, ...) @gpr_log(ptr noundef nonnull @.str.2, i32 noundef 222, i32 noundef 0, ptr noundef nonnull @.str.10, ptr noundef nonnull %this)
          to label %do.end unwind label %terminate.lpad

do.end:                                           ; preds = %if.then, %entry
  tail call void @_ZN9grpc_core15PollingResolverD2Ev(ptr noundef nonnull align 8 dereferenceable(536) %this) #22
  ret void

terminate.lpad:                                   ; preds = %if.then
  %2 = landingpad { ptr, i32 }
          catch ptr null
  %3 = extractvalue { ptr, i32 } %2, 0
  tail call void @__clang_call_terminate(ptr %3) #24
  unreachable
}

; Function Attrs: mustprogress nounwind uwtable
define internal void @_ZN9grpc_core12_GLOBAL__N_128AresClientChannelDNSResolverD0Ev(ptr noundef nonnull align 8 dereferenceable(544) %this) unnamed_addr #3 align 2 personality ptr @__gxx_personality_v0 {
entry:
  store ptr getelementptr inbounds ({ [10 x ptr] }, ptr @_ZTVN9grpc_core12_GLOBAL__N_128AresClientChannelDNSResolverE, i64 0, inrange i32 0, i64 2), ptr %this, align 8
  %0 = load atomic i8, ptr getelementptr inbounds (%"class.grpc_core::TraceFlag", ptr @grpc_trace_cares_resolver, i64 0, i32 2) monotonic, align 8
  %1 = and i8 %0, 1
  %tobool.i.i.i.not.i = icmp eq i8 %1, 0
  br i1 %tobool.i.i.i.not.i, label %_ZN9grpc_core12_GLOBAL__N_128AresClientChannelDNSResolverD2Ev.exit, label %if.then.i

if.then.i:                                        ; preds = %entry
  invoke void (ptr, i32, i32, ptr, ...) @gpr_log(ptr noundef nonnull @.str.2, i32 noundef 222, i32 noundef 0, ptr noundef nonnull @.str.10, ptr noundef nonnull %this)
          to label %_ZN9grpc_core12_GLOBAL__N_128AresClientChannelDNSResolverD2Ev.exit unwind label %terminate.lpad.i

terminate.lpad.i:                                 ; preds = %if.then.i
  %2 = landingpad { ptr, i32 }
          catch ptr null
  %3 = extractvalue { ptr, i32 } %2, 0
  tail call void @__clang_call_terminate(ptr %3) #24
  unreachable

_ZN9grpc_core12_GLOBAL__N_128AresClientChannelDNSResolverD2Ev.exit: ; preds = %entry, %if.then.i
  tail call void @_ZN9grpc_core15PollingResolverD2Ev(ptr noundef nonnull align 8 dereferenceable(536) %this) #22
  tail call void @_ZdlPv(ptr noundef nonnull %this) #25
  ret void
}

declare void @_ZN9grpc_core15PollingResolver11StartLockedEv(ptr noundef nonnull align 8 dereferenceable(536)) unnamed_addr #0

declare void @_ZN9grpc_core15PollingResolver25RequestReresolutionLockedEv(ptr noundef nonnull align 8 dereferenceable(536)) unnamed_addr #0

declare void @_ZN9grpc_core15PollingResolver18ResetBackoffLockedEv(ptr noundef nonnull align 8 dereferenceable(536)) unnamed_addr #0

declare void @_ZN9grpc_core15PollingResolver14ShutdownLockedEv(ptr noundef nonnull align 8 dereferenceable(536)) unnamed_addr #0

; Function Attrs: mustprogress uwtable
define internal void @_ZN9grpc_core12_GLOBAL__N_128AresClientChannelDNSResolver12StartRequestEv(ptr noalias nocapture writeonly sret(%"class.std::unique_ptr.116") align 8 %agg.result, ptr noundef nonnull align 8 dereferenceable(544) %this) unnamed_addr #5 align 2 personality ptr @__gxx_personality_v0 {
entry:
  %refs_.i.i = getelementptr inbounds %"class.grpc_core::InternallyRefCounted", ptr %this, i64 0, i32 1
  %0 = atomicrmw add ptr %refs_.i.i, i64 1 monotonic, align 8, !noalias !13
  %call.i1 = invoke noalias noundef nonnull dereferenceable(176) ptr @_Znwm(i64 noundef 176) #23
          to label %call.i.noexc unwind label %if.then.i7

call.i.noexc:                                     ; preds = %entry
  %refs_.i.i.i = getelementptr inbounds %"class.grpc_core::InternallyRefCounted.161", ptr %call.i1, i64 0, i32 1
  store i64 1, ptr %refs_.i.i.i, align 8, !noalias !16
  store ptr getelementptr inbounds ({ [5 x ptr] }, ptr @_ZTVN9grpc_core12_GLOBAL__N_128AresClientChannelDNSResolver18AresRequestWrapperE, i64 0, inrange i32 0, i64 2), ptr %call.i1, align 8, !noalias !16
  %on_resolved_mu_.i.i = getelementptr inbounds %"class.grpc_core::(anonymous namespace)::AresClientChannelDNSResolver::AresRequestWrapper", ptr %call.i1, i64 0, i32 1
  %resolver_.i.i = getelementptr inbounds %"class.grpc_core::(anonymous namespace)::AresClientChannelDNSResolver::AresRequestWrapper", ptr %call.i1, i64 0, i32 2
  store i64 0, ptr %on_resolved_mu_.i.i, align 8, !noalias !16
  store ptr %this, ptr %resolver_.i.i, align 8, !noalias !16
  %hostname_request_.i.i = getelementptr inbounds %"class.grpc_core::(anonymous namespace)::AresClientChannelDNSResolver::AresRequestWrapper", ptr %call.i1, i64 0, i32 4
  store ptr null, ptr %hostname_request_.i.i, align 8, !noalias !16
  %srv_request_.i.i = getelementptr inbounds %"class.grpc_core::(anonymous namespace)::AresClientChannelDNSResolver::AresRequestWrapper", ptr %call.i1, i64 0, i32 6
  store ptr null, ptr %srv_request_.i.i, align 8, !noalias !16
  %txt_request_.i.i = getelementptr inbounds %"class.grpc_core::(anonymous namespace)::AresClientChannelDNSResolver::AresRequestWrapper", ptr %call.i1, i64 0, i32 8
  %addresses_.i.i = getelementptr inbounds %"class.grpc_core::(anonymous namespace)::AresClientChannelDNSResolver::AresRequestWrapper", ptr %call.i1, i64 0, i32 9
  %balancer_addresses_.i.i = getelementptr inbounds %"class.grpc_core::(anonymous namespace)::AresClientChannelDNSResolver::AresRequestWrapper", ptr %call.i1, i64 0, i32 10
  %service_config_json_.i.i = getelementptr inbounds %"class.grpc_core::(anonymous namespace)::AresClientChannelDNSResolver::AresRequestWrapper", ptr %call.i1, i64 0, i32 11
  tail call void @llvm.memset.p0.i64(ptr noundef nonnull align 8 dereferenceable(32) %txt_request_.i.i, i8 0, i64 32, i1 false), !noalias !16
  invoke void @_ZN4absl12lts_202308025Mutex4LockEv(ptr noundef nonnull align 8 dereferenceable(8) %on_resolved_mu_.i.i)
          to label %_ZN9grpc_core13RefCountedPtrINS_12_GLOBAL__N_128AresClientChannelDNSResolver18AresRequestWrapperEED2Ev.exit.i.i unwind label %lpad3.i.i, !noalias !16

_ZN9grpc_core13RefCountedPtrINS_12_GLOBAL__N_128AresClientChannelDNSResolver18AresRequestWrapperEED2Ev.exit.i.i: ; preds = %call.i.noexc
  %1 = atomicrmw add ptr %refs_.i.i.i, i64 1 monotonic, align 8, !noalias !19
  %on_hostname_resolved_11.i.i = getelementptr inbounds %"class.grpc_core::(anonymous namespace)::AresClientChannelDNSResolver::AresRequestWrapper", ptr %call.i1, i64 0, i32 3
  %cb1.i.i.i = getelementptr inbounds %"class.grpc_core::(anonymous namespace)::AresClientChannelDNSResolver::AresRequestWrapper", ptr %call.i1, i64 0, i32 3, i32 1
  store ptr @_ZN9grpc_core12_GLOBAL__N_128AresClientChannelDNSResolver18AresRequestWrapper18OnHostnameResolvedEPvN4absl12lts_202308026StatusE, ptr %cb1.i.i.i, align 8, !noalias !16
  %cb_arg2.i.i.i = getelementptr inbounds %"class.grpc_core::(anonymous namespace)::AresClientChannelDNSResolver::AresRequestWrapper", ptr %call.i1, i64 0, i32 3, i32 2
  store ptr %call.i1, ptr %cb_arg2.i.i.i, align 8, !noalias !16
  %error_data.i.i.i = getelementptr inbounds %"class.grpc_core::(anonymous namespace)::AresClientChannelDNSResolver::AresRequestWrapper", ptr %call.i1, i64 0, i32 3, i32 3
  store i64 0, ptr %error_data.i.i.i, align 8, !noalias !16
  %2 = load ptr, ptr @grpc_dns_lookup_hostname_ares, align 8, !noalias !16
  %resolver_.val14.i.i = load ptr, ptr %resolver_.i.i, align 8, !noalias !16
  %authority_.i.i.i = getelementptr inbounds %"class.grpc_core::PollingResolver", ptr %resolver_.val14.i.i, i64 0, i32 1
  %call20.i.i = tail call noundef ptr @_ZNKSt7__cxx1112basic_stringIcSt11char_traitsIcESaIcEE5c_strEv(ptr noundef nonnull align 8 dereferenceable(32) %authority_.i.i.i) #22, !noalias !16
  %resolver_.val13.i.i = load ptr, ptr %resolver_.i.i, align 8, !noalias !16
  %name_to_resolve_.i.i.i = getelementptr inbounds %"class.grpc_core::PollingResolver", ptr %resolver_.val13.i.i, i64 0, i32 2
  %call26.i.i = tail call noundef ptr @_ZNKSt7__cxx1112basic_stringIcSt11char_traitsIcESaIcEE5c_strEv(ptr noundef nonnull align 8 dereferenceable(32) %name_to_resolve_.i.i.i) #22, !noalias !16
  %3 = load ptr, ptr @_ZN9grpc_core18kDefaultSecurePortE, align 8, !noalias !16
  %resolver_.val12.i.i = load ptr, ptr %resolver_.i.i, align 8, !noalias !16
  %interested_parties_.i.i.i = getelementptr inbounds %"class.grpc_core::PollingResolver", ptr %resolver_.val12.i.i, i64 0, i32 7
  %4 = load ptr, ptr %interested_parties_.i.i.i, align 8, !noalias !16
  %query_timeout_ms_.i.i = getelementptr inbounds %"class.grpc_core::(anonymous namespace)::AresClientChannelDNSResolver", ptr %resolver_.val12.i.i, i64 0, i32 3
  %5 = load i32, ptr %query_timeout_ms_.i.i, align 4, !noalias !16
  %call38.i.i = invoke noundef ptr %2(ptr noundef %call20.i.i, ptr noundef %call26.i.i, ptr noundef %3, ptr noundef %4, ptr noundef nonnull %on_hostname_resolved_11.i.i, ptr noundef nonnull %addresses_.i.i, i32 noundef %5)
          to label %invoke.cont37.i.i unwind label %lpad6.i.i, !noalias !16

invoke.cont37.i.i:                                ; preds = %_ZN9grpc_core13RefCountedPtrINS_12_GLOBAL__N_128AresClientChannelDNSResolver18AresRequestWrapperEED2Ev.exit.i.i
  %6 = load ptr, ptr %hostname_request_.i.i, align 8, !noalias !16
  store ptr %call38.i.i, ptr %hostname_request_.i.i, align 8, !noalias !16
  %tobool.not.i.i.i.i = icmp eq ptr %6, null
  br i1 %tobool.not.i.i.i.i, label %_ZNSt10unique_ptrI17grpc_ares_requestSt14default_deleteIS0_EE5resetEPS0_.exit.i.i, label %delete.notnull.i.i.i.i.i

delete.notnull.i.i.i.i.i:                         ; preds = %invoke.cont37.i.i
  %error.i.i.i.i.i.i = getelementptr inbounds %struct.grpc_ares_request, ptr %6, i64 0, i32 8
  %7 = load i64, ptr %error.i.i.i.i.i.i, align 8, !noalias !16
  %and.i.i.i.i.i.i.i.i.i = and i64 %7, 1
  %cmp.i.i.i.i.i.i.i.i.i = icmp eq i64 %and.i.i.i.i.i.i.i.i.i, 0
  br i1 %cmp.i.i.i.i.i.i.i.i.i, label %_ZNKSt14default_deleteI17grpc_ares_requestEclEPS0_.exit.i.i.i.i, label %if.then.i.i.i.i.i.i.i.i

if.then.i.i.i.i.i.i.i.i:                          ; preds = %delete.notnull.i.i.i.i.i
  invoke void @_ZN4absl12lts_202308026Status15UnrefNonInlinedEm(i64 noundef %7)
          to label %_ZNKSt14default_deleteI17grpc_ares_requestEclEPS0_.exit.i.i.i.i unwind label %terminate.lpad.i.i.i.i.i.i.i, !noalias !16

terminate.lpad.i.i.i.i.i.i.i:                     ; preds = %if.then.i.i.i.i.i.i.i.i
  %8 = landingpad { ptr, i32 }
          catch ptr null
  %9 = extractvalue { ptr, i32 } %8, 0
  tail call void @__clang_call_terminate(ptr %9) #24
  unreachable

_ZNKSt14default_deleteI17grpc_ares_requestEclEPS0_.exit.i.i.i.i: ; preds = %if.then.i.i.i.i.i.i.i.i, %delete.notnull.i.i.i.i.i
  tail call void @_ZN4absl12lts_202308025MutexD1Ev(ptr noundef nonnull align 8 dereferenceable(8) %6) #22, !noalias !16
  tail call void @_ZdlPv(ptr noundef nonnull %6) #25, !noalias !16
  br label %_ZNSt10unique_ptrI17grpc_ares_requestSt14default_deleteIS0_EE5resetEPS0_.exit.i.i

_ZNSt10unique_ptrI17grpc_ares_requestSt14default_deleteIS0_EE5resetEPS0_.exit.i.i: ; preds = %_ZNKSt14default_deleteI17grpc_ares_requestEclEPS0_.exit.i.i.i.i, %invoke.cont37.i.i
  %10 = load atomic i8, ptr getelementptr inbounds (%"class.grpc_core::TraceFlag", ptr @grpc_trace_cares_resolver, i64 0, i32 2) monotonic, align 8, !noalias !16
  %11 = and i8 %10, 1
  %tobool.i.i.i.not.i.i = icmp eq i8 %11, 0
  br i1 %tobool.i.i.i.not.i.i, label %do.end.i.i, label %if.then.i.i

if.then.i.i:                                      ; preds = %_ZNSt10unique_ptrI17grpc_ares_requestSt14default_deleteIS0_EE5resetEPS0_.exit.i.i
  %resolver_.val15.i.i = load ptr, ptr %resolver_.i.i, align 8, !noalias !16
  %12 = load ptr, ptr %hostname_request_.i.i, align 8, !noalias !16
  invoke void (ptr, i32, i32, ptr, ...) @gpr_log(ptr noundef nonnull @.str.2, i32 noundef 110, i32 noundef 0, ptr noundef nonnull @.str.13, ptr noundef %resolver_.val15.i.i, ptr noundef %12)
          to label %do.end.i.i unwind label %lpad6.i.i, !noalias !16

lpad3.i.i:                                        ; preds = %call.i.noexc
  %13 = landingpad { ptr, i32 }
          cleanup
  br label %ehcleanup153.i.i

lpad6.i.i:                                        ; preds = %if.then142.i.i, %_ZN9grpc_core13RefCountedPtrINS_12_GLOBAL__N_128AresClientChannelDNSResolver18AresRequestWrapperEED2Ev.exit53.i.i, %if.then88.i.i, %_ZN9grpc_core13RefCountedPtrINS_12_GLOBAL__N_128AresClientChannelDNSResolver18AresRequestWrapperEED2Ev.exit28.i.i, %if.then.i.i, %_ZN9grpc_core13RefCountedPtrINS_12_GLOBAL__N_128AresClientChannelDNSResolver18AresRequestWrapperEED2Ev.exit.i.i
  %14 = landingpad { ptr, i32 }
          cleanup
  invoke void @_ZN4absl12lts_202308025Mutex6UnlockEv(ptr noundef nonnull align 8 dereferenceable(8) %on_resolved_mu_.i.i)
          to label %ehcleanup153.i.i unwind label %terminate.lpad.i.i.i, !noalias !16

terminate.lpad.i.i.i:                             ; preds = %lpad6.i.i
  %15 = landingpad { ptr, i32 }
          catch ptr null
  %16 = extractvalue { ptr, i32 } %15, 0
  tail call void @__clang_call_terminate(ptr %16) #24
  unreachable

do.end.i.i:                                       ; preds = %if.then.i.i, %_ZNSt10unique_ptrI17grpc_ares_requestSt14default_deleteIS0_EE5resetEPS0_.exit.i.i
  %resolver_.val10.i.i = load ptr, ptr %resolver_.i.i, align 8, !noalias !16
  %enable_srv_queries_.i.i = getelementptr inbounds %"class.grpc_core::(anonymous namespace)::AresClientChannelDNSResolver", ptr %resolver_.val10.i.i, i64 0, i32 2
  %17 = load i8, ptr %enable_srv_queries_.i.i, align 1, !noalias !16
  %18 = and i8 %17, 1
  %tobool.not.i.i = icmp eq i8 %18, 0
  br i1 %tobool.not.i.i, label %if.end98.i.i, label %_ZN9grpc_core13RefCountedPtrINS_12_GLOBAL__N_128AresClientChannelDNSResolver18AresRequestWrapperEED2Ev.exit28.i.i

_ZN9grpc_core13RefCountedPtrINS_12_GLOBAL__N_128AresClientChannelDNSResolver18AresRequestWrapperEED2Ev.exit28.i.i: ; preds = %do.end.i.i
  %19 = atomicrmw add ptr %refs_.i.i.i, i64 1 monotonic, align 8, !noalias !22
  %on_srv_resolved_57.i.i = getelementptr inbounds %"class.grpc_core::(anonymous namespace)::AresClientChannelDNSResolver::AresRequestWrapper", ptr %call.i1, i64 0, i32 5
  %cb1.i29.i.i = getelementptr inbounds %"class.grpc_core::(anonymous namespace)::AresClientChannelDNSResolver::AresRequestWrapper", ptr %call.i1, i64 0, i32 5, i32 1
  store ptr @_ZN9grpc_core12_GLOBAL__N_128AresClientChannelDNSResolver18AresRequestWrapper13OnSRVResolvedEPvN4absl12lts_202308026StatusE, ptr %cb1.i29.i.i, align 8, !noalias !16
  %cb_arg2.i30.i.i = getelementptr inbounds %"class.grpc_core::(anonymous namespace)::AresClientChannelDNSResolver::AresRequestWrapper", ptr %call.i1, i64 0, i32 5, i32 2
  store ptr %call.i1, ptr %cb_arg2.i30.i.i, align 8, !noalias !16
  %error_data.i31.i.i = getelementptr inbounds %"class.grpc_core::(anonymous namespace)::AresClientChannelDNSResolver::AresRequestWrapper", ptr %call.i1, i64 0, i32 5, i32 3
  store i64 0, ptr %error_data.i31.i.i, align 8, !noalias !16
  %20 = load ptr, ptr @grpc_dns_lookup_srv_ares, align 8, !noalias !16
  %authority_.i32.i.i = getelementptr inbounds %"class.grpc_core::PollingResolver", ptr %resolver_.val10.i.i, i64 0, i32 1
  %call66.i.i = tail call noundef ptr @_ZNKSt7__cxx1112basic_stringIcSt11char_traitsIcESaIcEE5c_strEv(ptr noundef nonnull align 8 dereferenceable(32) %authority_.i32.i.i) #22, !noalias !16
  %resolver_.val3.i.i = load ptr, ptr %resolver_.i.i, align 8, !noalias !16
  %name_to_resolve_.i33.i.i = getelementptr inbounds %"class.grpc_core::PollingResolver", ptr %resolver_.val3.i.i, i64 0, i32 2
  %call72.i.i = tail call noundef ptr @_ZNKSt7__cxx1112basic_stringIcSt11char_traitsIcESaIcEE5c_strEv(ptr noundef nonnull align 8 dereferenceable(32) %name_to_resolve_.i33.i.i) #22, !noalias !16
  %resolver_.val2.i.i = load ptr, ptr %resolver_.i.i, align 8, !noalias !16
  %interested_parties_.i34.i.i = getelementptr inbounds %"class.grpc_core::PollingResolver", ptr %resolver_.val2.i.i, i64 0, i32 7
  %21 = load ptr, ptr %interested_parties_.i34.i.i, align 8, !noalias !16
  %query_timeout_ms_83.i.i = getelementptr inbounds %"class.grpc_core::(anonymous namespace)::AresClientChannelDNSResolver", ptr %resolver_.val2.i.i, i64 0, i32 3
  %22 = load i32, ptr %query_timeout_ms_83.i.i, align 4, !noalias !16
  %call85.i.i = invoke noundef ptr %20(ptr noundef %call66.i.i, ptr noundef %call72.i.i, ptr noundef %21, ptr noundef nonnull %on_srv_resolved_57.i.i, ptr noundef nonnull %balancer_addresses_.i.i, i32 noundef %22)
          to label %invoke.cont84.i.i unwind label %lpad6.i.i, !noalias !16

invoke.cont84.i.i:                                ; preds = %_ZN9grpc_core13RefCountedPtrINS_12_GLOBAL__N_128AresClientChannelDNSResolver18AresRequestWrapperEED2Ev.exit28.i.i
  %23 = load ptr, ptr %srv_request_.i.i, align 8, !noalias !16
  store ptr %call85.i.i, ptr %srv_request_.i.i, align 8, !noalias !16
  %tobool.not.i.i35.i.i = icmp eq ptr %23, null
  br i1 %tobool.not.i.i35.i.i, label %_ZNSt10unique_ptrI17grpc_ares_requestSt14default_deleteIS0_EE5resetEPS0_.exit43.i.i, label %delete.notnull.i.i.i36.i.i

delete.notnull.i.i.i36.i.i:                       ; preds = %invoke.cont84.i.i
  %error.i.i.i.i37.i.i = getelementptr inbounds %struct.grpc_ares_request, ptr %23, i64 0, i32 8
  %24 = load i64, ptr %error.i.i.i.i37.i.i, align 8, !noalias !16
  %and.i.i.i.i.i.i.i38.i.i = and i64 %24, 1
  %cmp.i.i.i.i.i.i.i39.i.i = icmp eq i64 %and.i.i.i.i.i.i.i38.i.i, 0
  br i1 %cmp.i.i.i.i.i.i.i39.i.i, label %_ZNKSt14default_deleteI17grpc_ares_requestEclEPS0_.exit.i.i42.i.i, label %if.then.i.i.i.i.i.i40.i.i

if.then.i.i.i.i.i.i40.i.i:                        ; preds = %delete.notnull.i.i.i36.i.i
  invoke void @_ZN4absl12lts_202308026Status15UnrefNonInlinedEm(i64 noundef %24)
          to label %_ZNKSt14default_deleteI17grpc_ares_requestEclEPS0_.exit.i.i42.i.i unwind label %terminate.lpad.i.i.i.i.i41.i.i, !noalias !16

terminate.lpad.i.i.i.i.i41.i.i:                   ; preds = %if.then.i.i.i.i.i.i40.i.i
  %25 = landingpad { ptr, i32 }
          catch ptr null
  %26 = extractvalue { ptr, i32 } %25, 0
  tail call void @__clang_call_terminate(ptr %26) #24
  unreachable

_ZNKSt14default_deleteI17grpc_ares_requestEclEPS0_.exit.i.i42.i.i: ; preds = %if.then.i.i.i.i.i.i40.i.i, %delete.notnull.i.i.i36.i.i
  tail call void @_ZN4absl12lts_202308025MutexD1Ev(ptr noundef nonnull align 8 dereferenceable(8) %23) #22, !noalias !16
  tail call void @_ZdlPv(ptr noundef nonnull %23) #25, !noalias !16
  br label %_ZNSt10unique_ptrI17grpc_ares_requestSt14default_deleteIS0_EE5resetEPS0_.exit43.i.i

_ZNSt10unique_ptrI17grpc_ares_requestSt14default_deleteIS0_EE5resetEPS0_.exit43.i.i: ; preds = %_ZNKSt14default_deleteI17grpc_ares_requestEclEPS0_.exit.i.i42.i.i, %invoke.cont84.i.i
  %27 = load atomic i8, ptr getelementptr inbounds (%"class.grpc_core::TraceFlag", ptr @grpc_trace_cares_resolver, i64 0, i32 2) monotonic, align 8, !noalias !16
  %28 = and i8 %27, 1
  %tobool.i.i.i44.not.i.i = icmp eq i8 %28, 0
  %resolver_.val9.pre80.i.i = load ptr, ptr %resolver_.i.i, align 8, !noalias !16
  br i1 %tobool.i.i.i44.not.i.i, label %if.end98.i.i, label %if.then88.i.i

if.then88.i.i:                                    ; preds = %_ZNSt10unique_ptrI17grpc_ares_requestSt14default_deleteIS0_EE5resetEPS0_.exit43.i.i
  %29 = load ptr, ptr %srv_request_.i.i, align 8, !noalias !16
  invoke void (ptr, i32, i32, ptr, ...) @gpr_log(ptr noundef nonnull @.str.2, i32 noundef 121, i32 noundef 0, ptr noundef nonnull @.str.15, ptr noundef %resolver_.val9.pre80.i.i, ptr noundef %29)
          to label %if.then88.if.end98_crit_edge.i.i unwind label %lpad6.i.i, !noalias !16

if.then88.if.end98_crit_edge.i.i:                 ; preds = %if.then88.i.i
  %resolver_.val9.pre.i.i = load ptr, ptr %resolver_.i.i, align 8, !noalias !16
  br label %if.end98.i.i

if.end98.i.i:                                     ; preds = %if.then88.if.end98_crit_edge.i.i, %_ZNSt10unique_ptrI17grpc_ares_requestSt14default_deleteIS0_EE5resetEPS0_.exit43.i.i, %do.end.i.i
  %resolver_.val8.i.i = phi ptr [ %resolver_.val9.pre.i.i, %if.then88.if.end98_crit_edge.i.i ], [ %resolver_.val9.pre80.i.i, %_ZNSt10unique_ptrI17grpc_ares_requestSt14default_deleteIS0_EE5resetEPS0_.exit43.i.i ], [ %resolver_.val10.i.i, %do.end.i.i ]
  %request_service_config_.i.i = getelementptr inbounds %"class.grpc_core::(anonymous namespace)::AresClientChannelDNSResolver", ptr %resolver_.val8.i.i, i64 0, i32 1
  %30 = load i8, ptr %request_service_config_.i.i, align 8, !noalias !16
  %31 = and i8 %30, 1
  %tobool102.not.i.i = icmp eq i8 %31, 0
  br i1 %tobool102.not.i.i, label %if.end152.i.i, label %_ZN9grpc_core13RefCountedPtrINS_12_GLOBAL__N_128AresClientChannelDNSResolver18AresRequestWrapperEED2Ev.exit53.i.i

_ZN9grpc_core13RefCountedPtrINS_12_GLOBAL__N_128AresClientChannelDNSResolver18AresRequestWrapperEED2Ev.exit53.i.i: ; preds = %if.end98.i.i
  %32 = atomicrmw add ptr %refs_.i.i.i, i64 1 monotonic, align 8, !noalias !25
  %on_txt_resolved_111.i.i = getelementptr inbounds %"class.grpc_core::(anonymous namespace)::AresClientChannelDNSResolver::AresRequestWrapper", ptr %call.i1, i64 0, i32 7
  %cb1.i54.i.i = getelementptr inbounds %"class.grpc_core::(anonymous namespace)::AresClientChannelDNSResolver::AresRequestWrapper", ptr %call.i1, i64 0, i32 7, i32 1
  store ptr @_ZN9grpc_core12_GLOBAL__N_128AresClientChannelDNSResolver18AresRequestWrapper13OnTXTResolvedEPvN4absl12lts_202308026StatusE, ptr %cb1.i54.i.i, align 8, !noalias !16
  %cb_arg2.i55.i.i = getelementptr inbounds %"class.grpc_core::(anonymous namespace)::AresClientChannelDNSResolver::AresRequestWrapper", ptr %call.i1, i64 0, i32 7, i32 2
  store ptr %call.i1, ptr %cb_arg2.i55.i.i, align 8, !noalias !16
  %error_data.i56.i.i = getelementptr inbounds %"class.grpc_core::(anonymous namespace)::AresClientChannelDNSResolver::AresRequestWrapper", ptr %call.i1, i64 0, i32 7, i32 3
  store i64 0, ptr %error_data.i56.i.i, align 8, !noalias !16
  %33 = load ptr, ptr @grpc_dns_lookup_txt_ares, align 8, !noalias !16
  %authority_.i57.i.i = getelementptr inbounds %"class.grpc_core::PollingResolver", ptr %resolver_.val8.i.i, i64 0, i32 1
  %call120.i.i = tail call noundef ptr @_ZNKSt7__cxx1112basic_stringIcSt11char_traitsIcESaIcEE5c_strEv(ptr noundef nonnull align 8 dereferenceable(32) %authority_.i57.i.i) #22, !noalias !16
  %resolver_.val7.i.i = load ptr, ptr %resolver_.i.i, align 8, !noalias !16
  %name_to_resolve_.i58.i.i = getelementptr inbounds %"class.grpc_core::PollingResolver", ptr %resolver_.val7.i.i, i64 0, i32 2
  %call126.i.i = tail call noundef ptr @_ZNKSt7__cxx1112basic_stringIcSt11char_traitsIcESaIcEE5c_strEv(ptr noundef nonnull align 8 dereferenceable(32) %name_to_resolve_.i58.i.i) #22, !noalias !16
  %resolver_.val6.i.i = load ptr, ptr %resolver_.i.i, align 8, !noalias !16
  %interested_parties_.i59.i.i = getelementptr inbounds %"class.grpc_core::PollingResolver", ptr %resolver_.val6.i.i, i64 0, i32 7
  %34 = load ptr, ptr %interested_parties_.i59.i.i, align 8, !noalias !16
  %query_timeout_ms_137.i.i = getelementptr inbounds %"class.grpc_core::(anonymous namespace)::AresClientChannelDNSResolver", ptr %resolver_.val6.i.i, i64 0, i32 3
  %35 = load i32, ptr %query_timeout_ms_137.i.i, align 4, !noalias !16
  %call139.i.i = invoke noundef ptr %33(ptr noundef %call120.i.i, ptr noundef %call126.i.i, ptr noundef %34, ptr noundef nonnull %on_txt_resolved_111.i.i, ptr noundef nonnull %service_config_json_.i.i, i32 noundef %35)
          to label %invoke.cont138.i.i unwind label %lpad6.i.i, !noalias !16

invoke.cont138.i.i:                               ; preds = %_ZN9grpc_core13RefCountedPtrINS_12_GLOBAL__N_128AresClientChannelDNSResolver18AresRequestWrapperEED2Ev.exit53.i.i
  %36 = load ptr, ptr %txt_request_.i.i, align 8, !noalias !16
  store ptr %call139.i.i, ptr %txt_request_.i.i, align 8, !noalias !16
  %tobool.not.i.i60.i.i = icmp eq ptr %36, null
  br i1 %tobool.not.i.i60.i.i, label %_ZNSt10unique_ptrI17grpc_ares_requestSt14default_deleteIS0_EE5resetEPS0_.exit68.i.i, label %delete.notnull.i.i.i61.i.i

delete.notnull.i.i.i61.i.i:                       ; preds = %invoke.cont138.i.i
  %error.i.i.i.i62.i.i = getelementptr inbounds %struct.grpc_ares_request, ptr %36, i64 0, i32 8
  %37 = load i64, ptr %error.i.i.i.i62.i.i, align 8, !noalias !16
  %and.i.i.i.i.i.i.i63.i.i = and i64 %37, 1
  %cmp.i.i.i.i.i.i.i64.i.i = icmp eq i64 %and.i.i.i.i.i.i.i63.i.i, 0
  br i1 %cmp.i.i.i.i.i.i.i64.i.i, label %_ZNKSt14default_deleteI17grpc_ares_requestEclEPS0_.exit.i.i67.i.i, label %if.then.i.i.i.i.i.i65.i.i

if.then.i.i.i.i.i.i65.i.i:                        ; preds = %delete.notnull.i.i.i61.i.i
  invoke void @_ZN4absl12lts_202308026Status15UnrefNonInlinedEm(i64 noundef %37)
          to label %_ZNKSt14default_deleteI17grpc_ares_requestEclEPS0_.exit.i.i67.i.i unwind label %terminate.lpad.i.i.i.i.i66.i.i, !noalias !16

terminate.lpad.i.i.i.i.i66.i.i:                   ; preds = %if.then.i.i.i.i.i.i65.i.i
  %38 = landingpad { ptr, i32 }
          catch ptr null
  %39 = extractvalue { ptr, i32 } %38, 0
  tail call void @__clang_call_terminate(ptr %39) #24
  unreachable

_ZNKSt14default_deleteI17grpc_ares_requestEclEPS0_.exit.i.i67.i.i: ; preds = %if.then.i.i.i.i.i.i65.i.i, %delete.notnull.i.i.i61.i.i
  tail call void @_ZN4absl12lts_202308025MutexD1Ev(ptr noundef nonnull align 8 dereferenceable(8) %36) #22, !noalias !16
  tail call void @_ZdlPv(ptr noundef nonnull %36) #25, !noalias !16
  br label %_ZNSt10unique_ptrI17grpc_ares_requestSt14default_deleteIS0_EE5resetEPS0_.exit68.i.i

_ZNSt10unique_ptrI17grpc_ares_requestSt14default_deleteIS0_EE5resetEPS0_.exit68.i.i: ; preds = %_ZNKSt14default_deleteI17grpc_ares_requestEclEPS0_.exit.i.i67.i.i, %invoke.cont138.i.i
  %40 = load atomic i8, ptr getelementptr inbounds (%"class.grpc_core::TraceFlag", ptr @grpc_trace_cares_resolver, i64 0, i32 2) monotonic, align 8, !noalias !16
  %41 = and i8 %40, 1
  %tobool.i.i.i69.not.i.i = icmp eq i8 %41, 0
  br i1 %tobool.i.i.i69.not.i.i, label %if.end152.i.i, label %if.then142.i.i

if.then142.i.i:                                   ; preds = %_ZNSt10unique_ptrI17grpc_ares_requestSt14default_deleteIS0_EE5resetEPS0_.exit68.i.i
  %resolver_.val17.i.i = load ptr, ptr %resolver_.i.i, align 8, !noalias !16
  %42 = load ptr, ptr %txt_request_.i.i, align 8, !noalias !16
  invoke void (ptr, i32, i32, ptr, ...) @gpr_log(ptr noundef nonnull @.str.2, i32 noundef 133, i32 noundef 0, ptr noundef nonnull @.str.17, ptr noundef %resolver_.val17.i.i, ptr noundef %42)
          to label %if.end152.i.i unwind label %lpad6.i.i, !noalias !16

if.end152.i.i:                                    ; preds = %if.then142.i.i, %_ZNSt10unique_ptrI17grpc_ares_requestSt14default_deleteIS0_EE5resetEPS0_.exit68.i.i, %if.end98.i.i
  invoke void @_ZN4absl12lts_202308025Mutex6UnlockEv(ptr noundef nonnull align 8 dereferenceable(8) %on_resolved_mu_.i.i)
          to label %_ZN9grpc_core13RefCountedPtrINS_8ResolverEED2Ev.exit unwind label %terminate.lpad.i70.i.i, !noalias !16

terminate.lpad.i70.i.i:                           ; preds = %if.end152.i.i
  %43 = landingpad { ptr, i32 }
          catch ptr null
  %44 = extractvalue { ptr, i32 } %43, 0
  tail call void @__clang_call_terminate(ptr %44) #24
  unreachable

ehcleanup153.i.i:                                 ; preds = %lpad6.i.i, %lpad3.i.i
  %.pn.i.i = phi { ptr, i32 } [ %13, %lpad3.i.i ], [ %14, %lpad6.i.i ]
  tail call void @_ZNSt10unique_ptrISt6vectorIN9grpc_core17EndpointAddressesESaIS2_EESt14default_deleteIS4_EED2Ev(ptr noundef nonnull align 8 dereferenceable(8) %balancer_addresses_.i.i) #22, !noalias !16
  tail call void @_ZNSt10unique_ptrISt6vectorIN9grpc_core17EndpointAddressesESaIS2_EESt14default_deleteIS4_EED2Ev(ptr noundef nonnull align 8 dereferenceable(8) %addresses_.i.i) #22, !noalias !16
  tail call void @_ZNSt10unique_ptrI17grpc_ares_requestSt14default_deleteIS0_EED2Ev(ptr noundef nonnull align 8 dereferenceable(8) %txt_request_.i.i) #22, !noalias !16
  tail call void @_ZNSt10unique_ptrI17grpc_ares_requestSt14default_deleteIS0_EED2Ev(ptr noundef nonnull align 8 dereferenceable(8) %srv_request_.i.i) #22, !noalias !16
  tail call void @_ZNSt10unique_ptrI17grpc_ares_requestSt14default_deleteIS0_EED2Ev(ptr noundef nonnull align 8 dereferenceable(8) %hostname_request_.i.i) #22, !noalias !16
  %resolver_.val18.i.i = load ptr, ptr %resolver_.i.i, align 8, !noalias !16
  %cmp.not.i72.i.i = icmp eq ptr %resolver_.val18.i.i, null
  br i1 %cmp.not.i72.i.i, label %lpad.body.thread, label %if.then.i73.i.i

if.then.i73.i.i:                                  ; preds = %ehcleanup153.i.i
  %refs_.i.i74.i.i = getelementptr inbounds %"class.grpc_core::InternallyRefCounted", ptr %resolver_.val18.i.i, i64 0, i32 1
  %45 = atomicrmw sub ptr %refs_.i.i74.i.i, i64 1 acq_rel, align 8, !noalias !16
  %cmp.i.i.i75.i.i = icmp eq i64 %45, 1
  br i1 %cmp.i.i.i75.i.i, label %if.then.i.i76.i.i, label %lpad.body.thread

if.then.i.i76.i.i:                                ; preds = %if.then.i73.i.i
  %vtable.i.i.i77.i.i = load ptr, ptr %resolver_.val18.i.i, align 8, !noalias !16
  %vfn.i.i.i78.i.i = getelementptr inbounds ptr, ptr %vtable.i.i.i77.i.i, i64 2
  %46 = load ptr, ptr %vfn.i.i.i78.i.i, align 8, !noalias !16
  tail call void %46(ptr noundef nonnull align 8 dereferenceable(16) %resolver_.val18.i.i) #22, !noalias !16
  br label %lpad.body.thread

lpad.body.thread:                                 ; preds = %ehcleanup153.i.i, %if.then.i73.i.i, %if.then.i.i76.i.i
  tail call void @_ZN4absl12lts_202308025MutexD1Ev(ptr noundef nonnull align 8 dereferenceable(8) %on_resolved_mu_.i.i) #22, !noalias !16
  tail call void @_ZdlPv(ptr noundef nonnull %call.i1) #25, !noalias !16
  br label %_ZN9grpc_core13RefCountedPtrINS_8ResolverEED2Ev.exit13

_ZN9grpc_core13RefCountedPtrINS_8ResolverEED2Ev.exit: ; preds = %if.end152.i.i
  store ptr %call.i1, ptr %agg.result, align 8
  ret void

if.then.i7:                                       ; preds = %entry
  %47 = landingpad { ptr, i32 }
          cleanup
  %48 = atomicrmw sub ptr %refs_.i.i, i64 1 acq_rel, align 8
  %cmp.i.i.i9 = icmp eq i64 %48, 1
  br i1 %cmp.i.i.i9, label %if.then.i.i10, label %_ZN9grpc_core13RefCountedPtrINS_8ResolverEED2Ev.exit13

if.then.i.i10:                                    ; preds = %if.then.i7
  %vtable.i.i.i11 = load ptr, ptr %this, align 8
  %vfn.i.i.i12 = getelementptr inbounds ptr, ptr %vtable.i.i.i11, i64 2
  %49 = load ptr, ptr %vfn.i.i.i12, align 8
  tail call void %49(ptr noundef nonnull align 8 dereferenceable(16) %this) #22
  br label %_ZN9grpc_core13RefCountedPtrINS_8ResolverEED2Ev.exit13

_ZN9grpc_core13RefCountedPtrINS_8ResolverEED2Ev.exit13: ; preds = %lpad.body.thread, %if.then.i7, %if.then.i.i10
  %eh.lpad-body20 = phi { ptr, i32 } [ %.pn.i.i, %lpad.body.thread ], [ %47, %if.then.i7 ], [ %47, %if.then.i.i10 ]
  resume { ptr, i32 } %eh.lpad-body20
}

; Function Attrs: mustprogress uwtable
define internal void @_ZN9grpc_core12_GLOBAL__N_128AresClientChannelDNSResolver18AresRequestWrapper18OnHostnameResolvedEPvN4absl12lts_202308026StatusE(ptr noundef %arg, ptr nocapture noundef readonly %error) #5 align 2 personality ptr @__gxx_personality_v0 {
entry:
  %result = alloca %"class.std::optional.184", align 8
  %ref.tmp = alloca %"class.std::optional.184", align 8
  %agg.tmp = alloca %"class.absl::lts_20230802::Status", align 8
  %agg.tmp11 = alloca %"struct.grpc_core::Resolver::Result", align 8
  %_M_engaged.i.i.i.i.i = getelementptr inbounds %"struct.std::_Optional_payload_base.189", ptr %result, i64 0, i32 1
  store i8 0, ptr %_M_engaged.i.i.i.i.i, align 8
  %on_resolved_mu_ = getelementptr inbounds %"class.grpc_core::(anonymous namespace)::AresClientChannelDNSResolver::AresRequestWrapper", ptr %arg, i64 0, i32 1
  invoke void @_ZN4absl12lts_202308025Mutex4LockEv(ptr noundef nonnull align 8 dereferenceable(8) %on_resolved_mu_)
          to label %invoke.cont unwind label %lpad

invoke.cont:                                      ; preds = %entry
  %hostname_request_ = getelementptr inbounds %"class.grpc_core::(anonymous namespace)::AresClientChannelDNSResolver::AresRequestWrapper", ptr %arg, i64 0, i32 4
  %0 = load ptr, ptr %hostname_request_, align 8
  store ptr null, ptr %hostname_request_, align 8
  %tobool.not.i.i = icmp eq ptr %0, null
  br i1 %tobool.not.i.i, label %_ZNSt10unique_ptrI17grpc_ares_requestSt14default_deleteIS0_EE5resetEPS0_.exit, label %delete.notnull.i.i.i

delete.notnull.i.i.i:                             ; preds = %invoke.cont
  %error.i.i.i.i = getelementptr inbounds %struct.grpc_ares_request, ptr %0, i64 0, i32 8
  %1 = load i64, ptr %error.i.i.i.i, align 8
  %and.i.i.i.i.i.i.i = and i64 %1, 1
  %cmp.i.i.i.i.i.i.i = icmp eq i64 %and.i.i.i.i.i.i.i, 0
  br i1 %cmp.i.i.i.i.i.i.i, label %_ZNKSt14default_deleteI17grpc_ares_requestEclEPS0_.exit.i.i, label %if.then.i.i.i.i.i.i

if.then.i.i.i.i.i.i:                              ; preds = %delete.notnull.i.i.i
  invoke void @_ZN4absl12lts_202308026Status15UnrefNonInlinedEm(i64 noundef %1)
          to label %_ZNKSt14default_deleteI17grpc_ares_requestEclEPS0_.exit.i.i unwind label %terminate.lpad.i.i.i.i.i

terminate.lpad.i.i.i.i.i:                         ; preds = %if.then.i.i.i.i.i.i
  %2 = landingpad { ptr, i32 }
          catch ptr null
  %3 = extractvalue { ptr, i32 } %2, 0
  tail call void @__clang_call_terminate(ptr %3) #24
  unreachable

_ZNKSt14default_deleteI17grpc_ares_requestEclEPS0_.exit.i.i: ; preds = %if.then.i.i.i.i.i.i, %delete.notnull.i.i.i
  tail call void @_ZN4absl12lts_202308025MutexD1Ev(ptr noundef nonnull align 8 dereferenceable(8) %0) #22
  tail call void @_ZdlPv(ptr noundef nonnull %0) #25
  br label %_ZNSt10unique_ptrI17grpc_ares_requestSt14default_deleteIS0_EE5resetEPS0_.exit

_ZNSt10unique_ptrI17grpc_ares_requestSt14default_deleteIS0_EE5resetEPS0_.exit: ; preds = %invoke.cont, %_ZNKSt14default_deleteI17grpc_ares_requestEclEPS0_.exit.i.i
  %4 = load i64, ptr %error, align 8
  store i64 %4, ptr %agg.tmp, align 8
  %and.i.i.i = and i64 %4, 1
  %cmp.i.i.i = icmp eq i64 %and.i.i.i, 0
  br i1 %cmp.i.i.i, label %invoke.cont2, label %if.then.i.i

if.then.i.i:                                      ; preds = %_ZNSt10unique_ptrI17grpc_ares_requestSt14default_deleteIS0_EE5resetEPS0_.exit
  %sub.i.i.i = add nsw i64 %4, -1
  %5 = inttoptr i64 %sub.i.i.i to ptr
  %6 = atomicrmw add ptr %5, i32 1 monotonic, align 4
  br label %invoke.cont2

invoke.cont2:                                     ; preds = %if.then.i.i, %_ZNSt10unique_ptrI17grpc_ares_requestSt14default_deleteIS0_EE5resetEPS0_.exit
  invoke fastcc void @_ZN9grpc_core12_GLOBAL__N_128AresClientChannelDNSResolver18AresRequestWrapper16OnResolvedLockedEN4absl12lts_202308026StatusE(ptr noalias nonnull align 8 %ref.tmp, ptr noundef nonnull align 8 dereferenceable(176) %arg, ptr noundef nonnull %agg.tmp)
          to label %invoke.cont4 unwind label %lpad3

invoke.cont4:                                     ; preds = %invoke.cont2
  invoke void @_ZNSt22_Optional_payload_baseIN9grpc_core8Resolver6ResultEE14_M_move_assignEOS3_(ptr noundef nonnull align 8 dereferenceable(121) %result, ptr noundef nonnull align 8 dereferenceable(121) %ref.tmp)
          to label %invoke.cont6 unwind label %lpad5

invoke.cont6:                                     ; preds = %invoke.cont4
  %_M_engaged.i.i.i.i = getelementptr inbounds %"struct.std::_Optional_payload_base.189", ptr %ref.tmp, i64 0, i32 1
  %7 = load i8, ptr %_M_engaged.i.i.i.i, align 8
  %8 = and i8 %7, 1
  %tobool.not.i.i.i.i = icmp eq i8 %8, 0
  br i1 %tobool.not.i.i.i.i, label %_ZNSt8optionalIN9grpc_core8Resolver6ResultEED2Ev.exit, label %if.then.i.i.i.i

if.then.i.i.i.i:                                  ; preds = %invoke.cont6
  store i8 0, ptr %_M_engaged.i.i.i.i, align 8
  call void @_ZN9grpc_core8Resolver6ResultD2Ev(ptr noundef nonnull align 8 dereferenceable(120) %ref.tmp) #22
  br label %_ZNSt8optionalIN9grpc_core8Resolver6ResultEED2Ev.exit

_ZNSt8optionalIN9grpc_core8Resolver6ResultEED2Ev.exit: ; preds = %invoke.cont6, %if.then.i.i.i.i
  %9 = load i64, ptr %agg.tmp, align 8
  %and.i.i.i9 = and i64 %9, 1
  %cmp.i.i.i10 = icmp eq i64 %and.i.i.i9, 0
  br i1 %cmp.i.i.i10, label %_ZN4absl12lts_202308026StatusD2Ev.exit, label %if.then.i.i11

if.then.i.i11:                                    ; preds = %_ZNSt8optionalIN9grpc_core8Resolver6ResultEED2Ev.exit
  invoke void @_ZN4absl12lts_202308026Status15UnrefNonInlinedEm(i64 noundef %9)
          to label %_ZN4absl12lts_202308026StatusD2Ev.exit unwind label %terminate.lpad.i

terminate.lpad.i:                                 ; preds = %if.then.i.i11
  %10 = landingpad { ptr, i32 }
          catch ptr null
  %11 = extractvalue { ptr, i32 } %10, 0
  call void @__clang_call_terminate(ptr %11) #24
  unreachable

_ZN4absl12lts_202308026StatusD2Ev.exit:           ; preds = %_ZNSt8optionalIN9grpc_core8Resolver6ResultEED2Ev.exit, %if.then.i.i11
  invoke void @_ZN4absl12lts_202308025Mutex6UnlockEv(ptr noundef nonnull align 8 dereferenceable(8) %on_resolved_mu_)
          to label %_ZN4absl12lts_202308029MutexLockD2Ev.exit unwind label %terminate.lpad.i12

terminate.lpad.i12:                               ; preds = %_ZN4absl12lts_202308026StatusD2Ev.exit
  %12 = landingpad { ptr, i32 }
          catch ptr null
  %13 = extractvalue { ptr, i32 } %12, 0
  call void @__clang_call_terminate(ptr %13) #24
  unreachable

_ZN4absl12lts_202308029MutexLockD2Ev.exit:        ; preds = %_ZN4absl12lts_202308026StatusD2Ev.exit
  %14 = load i8, ptr %_M_engaged.i.i.i.i.i, align 8
  %15 = and i8 %14, 1
  %tobool.i.i.not = icmp eq i8 %15, 0
  br i1 %tobool.i.i.not, label %if.end, label %if.then

if.then:                                          ; preds = %_ZN4absl12lts_202308029MutexLockD2Ev.exit
  %resolver_ = getelementptr inbounds %"class.grpc_core::(anonymous namespace)::AresClientChannelDNSResolver::AresRequestWrapper", ptr %arg, i64 0, i32 2
  %resolver_.val = load ptr, ptr %resolver_, align 8
  %16 = load i64, ptr %result, align 8
  %cmp.i.i.i.i.i = icmp eq i64 %16, 0
  br i1 %cmp.i.i.i.i.i, label %invoke.cont2.i.i.i, label %if.else.i.i.i

invoke.cont2.i.i.i:                               ; preds = %if.then
  %17 = getelementptr inbounds %"class.absl::lts_20230802::internal_statusor::StatusOrData", ptr %result, i64 0, i32 1
  %18 = getelementptr inbounds %"class.absl::lts_20230802::internal_statusor::StatusOrData", ptr %agg.tmp11, i64 0, i32 1
  %19 = load <2 x ptr>, ptr %17, align 8
  store <2 x ptr> %19, ptr %18, align 8
  %_M_end_of_storage.i.i.i.i.i.i.i.i.i = getelementptr inbounds %"class.absl::lts_20230802::internal_statusor::StatusOrData", ptr %agg.tmp11, i64 0, i32 1, i32 0, i32 0, i32 0, i32 0, i32 2
  %_M_end_of_storage4.i.i.i.i.i.i.i.i.i = getelementptr inbounds %"class.absl::lts_20230802::internal_statusor::StatusOrData", ptr %result, i64 0, i32 1, i32 0, i32 0, i32 0, i32 0, i32 2
  %20 = load ptr, ptr %_M_end_of_storage4.i.i.i.i.i.i.i.i.i, align 8
  store ptr %20, ptr %_M_end_of_storage.i.i.i.i.i.i.i.i.i, align 8
  call void @llvm.memset.p0.i64(ptr noundef nonnull align 8 dereferenceable(24) %17, i8 0, i64 24, i1 false)
  br label %_ZN4absl12lts_202308028StatusOrISt6vectorIN9grpc_core17EndpointAddressesESaIS4_EEEC2EOS7_.exit.i

if.else.i.i.i:                                    ; preds = %if.then
  store i64 54, ptr %result, align 8
  br label %_ZN4absl12lts_202308028StatusOrISt6vectorIN9grpc_core17EndpointAddressesESaIS4_EEEC2EOS7_.exit.i

_ZN4absl12lts_202308028StatusOrISt6vectorIN9grpc_core17EndpointAddressesESaIS4_EEEC2EOS7_.exit.i: ; preds = %if.else.i.i.i, %invoke.cont2.i.i.i
  store i64 %16, ptr %agg.tmp11, align 8
  %service_config.i = getelementptr inbounds %"struct.grpc_core::Resolver::Result", ptr %agg.tmp11, i64 0, i32 1
  %service_config3.i = getelementptr inbounds %"struct.grpc_core::Resolver::Result", ptr %result, i64 0, i32 1
  %21 = load i64, ptr %service_config3.i, align 8
  %cmp.i.i.i.i5.i = icmp eq i64 %21, 0
  br i1 %cmp.i.i.i.i5.i, label %invoke.cont2.i.i7.i, label %if.else.i.i6.i

invoke.cont2.i.i7.i:                              ; preds = %_ZN4absl12lts_202308028StatusOrISt6vectorIN9grpc_core17EndpointAddressesESaIS4_EEEC2EOS7_.exit.i
  %22 = getelementptr inbounds %"struct.grpc_core::Resolver::Result", ptr %result, i64 0, i32 1, i32 0, i32 1
  %23 = getelementptr inbounds %"struct.grpc_core::Resolver::Result", ptr %agg.tmp11, i64 0, i32 1, i32 0, i32 1
  %24 = load ptr, ptr %22, align 8
  store ptr %24, ptr %23, align 8
  store ptr null, ptr %22, align 8
  br label %_ZN4absl12lts_202308028StatusOrIN9grpc_core13RefCountedPtrINS2_13ServiceConfigEEEEC2EOS6_.exit.i

if.else.i.i6.i:                                   ; preds = %_ZN4absl12lts_202308028StatusOrISt6vectorIN9grpc_core17EndpointAddressesESaIS4_EEEC2EOS7_.exit.i
  store i64 54, ptr %service_config3.i, align 8
  br label %_ZN4absl12lts_202308028StatusOrIN9grpc_core13RefCountedPtrINS2_13ServiceConfigEEEEC2EOS6_.exit.i

_ZN4absl12lts_202308028StatusOrIN9grpc_core13RefCountedPtrINS2_13ServiceConfigEEEEC2EOS6_.exit.i: ; preds = %if.else.i.i6.i, %invoke.cont2.i.i7.i
  store i64 %21, ptr %service_config.i, align 8
  %resolution_note.i = getelementptr inbounds %"struct.grpc_core::Resolver::Result", ptr %agg.tmp11, i64 0, i32 2
  %resolution_note4.i = getelementptr inbounds %"struct.grpc_core::Resolver::Result", ptr %result, i64 0, i32 2
  call void @_ZNSt7__cxx1112basic_stringIcSt11char_traitsIcESaIcEEC1EOS4_(ptr noundef nonnull align 8 dereferenceable(32) %resolution_note.i, ptr noundef nonnull align 8 dereferenceable(32) %resolution_note4.i) #22
  %args.i = getelementptr inbounds %"struct.grpc_core::Resolver::Result", ptr %agg.tmp11, i64 0, i32 3
  %args5.i = getelementptr inbounds %"struct.grpc_core::Resolver::Result", ptr %result, i64 0, i32 3
  call void @_ZN9grpc_core11ChannelArgsC1EOS0_(ptr noundef nonnull align 8 dereferenceable(8) %args.i, ptr noundef nonnull align 8 dereferenceable(8) %args5.i) #22
  %result_health_callback.i = getelementptr inbounds %"struct.grpc_core::Resolver::Result", ptr %agg.tmp11, i64 0, i32 4
  %_M_invoker.i.i = getelementptr inbounds %"struct.grpc_core::Resolver::Result", ptr %agg.tmp11, i64 0, i32 4, i32 1
  %_M_invoker2.i.i = getelementptr inbounds %"struct.grpc_core::Resolver::Result", ptr %result, i64 0, i32 4, i32 1
  call void @llvm.memset.p0.i64(ptr noundef nonnull align 8 dereferenceable(24) %result_health_callback.i, i8 0, i64 24, i1 false)
  %25 = load ptr, ptr %_M_invoker2.i.i, align 8
  store ptr %25, ptr %_M_invoker.i.i, align 8
  %_M_manager.i.i.i.i = getelementptr inbounds %"struct.grpc_core::Resolver::Result", ptr %result, i64 0, i32 4, i32 0, i32 1
  %26 = load ptr, ptr %_M_manager.i.i.i.i, align 8
  %tobool.not.i.i.not.i.i = icmp eq ptr %26, null
  br i1 %tobool.not.i.i.not.i.i, label %_ZN9grpc_core8Resolver6ResultC2EOS1_.exit, label %if.then.i.i13

if.then.i.i13:                                    ; preds = %_ZN4absl12lts_202308028StatusOrIN9grpc_core13RefCountedPtrINS2_13ServiceConfigEEEEC2EOS6_.exit.i
  %result_health_callback6.i = getelementptr inbounds %"struct.grpc_core::Resolver::Result", ptr %result, i64 0, i32 4
  %_M_manager.i.i.i = getelementptr inbounds %"struct.grpc_core::Resolver::Result", ptr %agg.tmp11, i64 0, i32 4, i32 0, i32 1
  call void @llvm.memcpy.p0.p0.i64(ptr noundef nonnull align 8 dereferenceable(16) %result_health_callback.i, ptr noundef nonnull align 8 dereferenceable(16) %result_health_callback6.i, i64 16, i1 false)
  store ptr %26, ptr %_M_manager.i.i.i, align 8
  call void @llvm.memset.p0.i64(ptr noundef nonnull align 8 dereferenceable(16) %_M_manager.i.i.i.i, i8 0, i64 16, i1 false)
  br label %_ZN9grpc_core8Resolver6ResultC2EOS1_.exit

_ZN9grpc_core8Resolver6ResultC2EOS1_.exit:        ; preds = %_ZN4absl12lts_202308028StatusOrIN9grpc_core13RefCountedPtrINS2_13ServiceConfigEEEEC2EOS6_.exit.i, %if.then.i.i13
  invoke void @_ZN9grpc_core15PollingResolver17OnRequestCompleteENS_8Resolver6ResultE(ptr noundef nonnull align 8 dereferenceable(536) %resolver_.val, ptr noundef nonnull %agg.tmp11)
          to label %invoke.cont14 unwind label %lpad13

invoke.cont14:                                    ; preds = %_ZN9grpc_core8Resolver6ResultC2EOS1_.exit
  call void @_ZN9grpc_core8Resolver6ResultD2Ev(ptr noundef nonnull align 8 dereferenceable(120) %agg.tmp11) #22
  br label %if.end

lpad:                                             ; preds = %entry
  %27 = landingpad { ptr, i32 }
          cleanup
  br label %ehcleanup19

lpad3:                                            ; preds = %invoke.cont2
  %28 = landingpad { ptr, i32 }
          cleanup
  br label %ehcleanup

lpad5:                                            ; preds = %invoke.cont4
  %29 = landingpad { ptr, i32 }
          cleanup
  %_M_engaged.i.i.i.i14 = getelementptr inbounds %"struct.std::_Optional_payload_base.189", ptr %ref.tmp, i64 0, i32 1
  %30 = load i8, ptr %_M_engaged.i.i.i.i14, align 8
  %31 = and i8 %30, 1
  %tobool.not.i.i.i.i15 = icmp eq i8 %31, 0
  br i1 %tobool.not.i.i.i.i15, label %ehcleanup, label %if.then.i.i.i.i16

if.then.i.i.i.i16:                                ; preds = %lpad5
  store i8 0, ptr %_M_engaged.i.i.i.i14, align 8
  call void @_ZN9grpc_core8Resolver6ResultD2Ev(ptr noundef nonnull align 8 dereferenceable(120) %ref.tmp) #22
  br label %ehcleanup

ehcleanup:                                        ; preds = %if.then.i.i.i.i16, %lpad5, %lpad3
  %.pn = phi { ptr, i32 } [ %28, %lpad3 ], [ %29, %lpad5 ], [ %29, %if.then.i.i.i.i16 ]
  call void @_ZN4absl12lts_202308026StatusD2Ev(ptr noundef nonnull align 8 dereferenceable(8) %agg.tmp) #22
  invoke void @_ZN4absl12lts_202308025Mutex6UnlockEv(ptr noundef nonnull align 8 dereferenceable(8) %on_resolved_mu_)
          to label %ehcleanup19 unwind label %terminate.lpad.i18

terminate.lpad.i18:                               ; preds = %ehcleanup
  %32 = landingpad { ptr, i32 }
          catch ptr null
  %33 = extractvalue { ptr, i32 } %32, 0
  call void @__clang_call_terminate(ptr %33) #24
  unreachable

lpad13:                                           ; preds = %_ZN9grpc_core8Resolver6ResultC2EOS1_.exit
  %34 = landingpad { ptr, i32 }
          cleanup
  call void @_ZN9grpc_core8Resolver6ResultD2Ev(ptr noundef nonnull align 8 dereferenceable(120) %agg.tmp11) #22
  br label %ehcleanup19

if.end:                                           ; preds = %invoke.cont14, %_ZN4absl12lts_202308029MutexLockD2Ev.exit
  %refs_.i = getelementptr inbounds %"class.grpc_core::InternallyRefCounted.161", ptr %arg, i64 0, i32 1
  %35 = atomicrmw sub ptr %refs_.i, i64 1 acq_rel, align 8
  %cmp.i.i = icmp eq i64 %35, 1
  br i1 %cmp.i.i, label %if.then.i, label %invoke.cont18

if.then.i:                                        ; preds = %if.end
  %vtable.i.i = load ptr, ptr %arg, align 8
  %vfn.i.i = getelementptr inbounds ptr, ptr %vtable.i.i, i64 2
  %36 = load ptr, ptr %vfn.i.i, align 8
  call void %36(ptr noundef nonnull align 8 dereferenceable(176) %arg) #22
  br label %invoke.cont18

invoke.cont18:                                    ; preds = %if.then.i, %if.end
  %37 = load i8, ptr %_M_engaged.i.i.i.i.i, align 8
  %38 = and i8 %37, 1
  %tobool.not.i.i.i.i21 = icmp eq i8 %38, 0
  br i1 %tobool.not.i.i.i.i21, label %_ZNSt8optionalIN9grpc_core8Resolver6ResultEED2Ev.exit23, label %if.then.i.i.i.i22

if.then.i.i.i.i22:                                ; preds = %invoke.cont18
  store i8 0, ptr %_M_engaged.i.i.i.i.i, align 8
  call void @_ZN9grpc_core8Resolver6ResultD2Ev(ptr noundef nonnull align 8 dereferenceable(120) %result) #22
  br label %_ZNSt8optionalIN9grpc_core8Resolver6ResultEED2Ev.exit23

_ZNSt8optionalIN9grpc_core8Resolver6ResultEED2Ev.exit23: ; preds = %invoke.cont18, %if.then.i.i.i.i22
  ret void

ehcleanup19:                                      ; preds = %ehcleanup, %lpad13, %lpad
  %.pn7 = phi { ptr, i32 } [ %27, %lpad ], [ %34, %lpad13 ], [ %.pn, %ehcleanup ]
  %39 = load i8, ptr %_M_engaged.i.i.i.i.i, align 8
  %40 = and i8 %39, 1
  %tobool.not.i.i.i.i25 = icmp eq i8 %40, 0
  br i1 %tobool.not.i.i.i.i25, label %_ZNSt8optionalIN9grpc_core8Resolver6ResultEED2Ev.exit27, label %if.then.i.i.i.i26

if.then.i.i.i.i26:                                ; preds = %ehcleanup19
  store i8 0, ptr %_M_engaged.i.i.i.i.i, align 8
  call void @_ZN9grpc_core8Resolver6ResultD2Ev(ptr noundef nonnull align 8 dereferenceable(120) %result) #22
  br label %_ZNSt8optionalIN9grpc_core8Resolver6ResultEED2Ev.exit27

_ZNSt8optionalIN9grpc_core8Resolver6ResultEED2Ev.exit27: ; preds = %ehcleanup19, %if.then.i.i.i.i26
  resume { ptr, i32 } %.pn7
}

; Function Attrs: nounwind
declare noundef ptr @_ZNKSt7__cxx1112basic_stringIcSt11char_traitsIcESaIcEE5c_strEv(ptr noundef nonnull align 8 dereferenceable(32)) local_unnamed_addr #1

; Function Attrs: mustprogress uwtable
define internal void @_ZN9grpc_core12_GLOBAL__N_128AresClientChannelDNSResolver18AresRequestWrapper13OnSRVResolvedEPvN4absl12lts_202308026StatusE(ptr noundef %arg, ptr nocapture noundef readonly %error) #5 align 2 personality ptr @__gxx_personality_v0 {
entry:
  %result = alloca %"class.std::optional.184", align 8
  %ref.tmp = alloca %"class.std::optional.184", align 8
  %agg.tmp = alloca %"class.absl::lts_20230802::Status", align 8
  %agg.tmp10 = alloca %"struct.grpc_core::Resolver::Result", align 8
  %_M_engaged.i.i.i.i.i = getelementptr inbounds %"struct.std::_Optional_payload_base.189", ptr %result, i64 0, i32 1
  store i8 0, ptr %_M_engaged.i.i.i.i.i, align 8
  %on_resolved_mu_ = getelementptr inbounds %"class.grpc_core::(anonymous namespace)::AresClientChannelDNSResolver::AresRequestWrapper", ptr %arg, i64 0, i32 1
  invoke void @_ZN4absl12lts_202308025Mutex4LockEv(ptr noundef nonnull align 8 dereferenceable(8) %on_resolved_mu_)
          to label %invoke.cont unwind label %lpad

invoke.cont:                                      ; preds = %entry
  %srv_request_ = getelementptr inbounds %"class.grpc_core::(anonymous namespace)::AresClientChannelDNSResolver::AresRequestWrapper", ptr %arg, i64 0, i32 6
  %0 = load ptr, ptr %srv_request_, align 8
  store ptr null, ptr %srv_request_, align 8
  %tobool.not.i.i = icmp eq ptr %0, null
  br i1 %tobool.not.i.i, label %_ZNSt10unique_ptrI17grpc_ares_requestSt14default_deleteIS0_EE5resetEPS0_.exit, label %delete.notnull.i.i.i

delete.notnull.i.i.i:                             ; preds = %invoke.cont
  %error.i.i.i.i = getelementptr inbounds %struct.grpc_ares_request, ptr %0, i64 0, i32 8
  %1 = load i64, ptr %error.i.i.i.i, align 8
  %and.i.i.i.i.i.i.i = and i64 %1, 1
  %cmp.i.i.i.i.i.i.i = icmp eq i64 %and.i.i.i.i.i.i.i, 0
  br i1 %cmp.i.i.i.i.i.i.i, label %_ZNKSt14default_deleteI17grpc_ares_requestEclEPS0_.exit.i.i, label %if.then.i.i.i.i.i.i

if.then.i.i.i.i.i.i:                              ; preds = %delete.notnull.i.i.i
  invoke void @_ZN4absl12lts_202308026Status15UnrefNonInlinedEm(i64 noundef %1)
          to label %_ZNKSt14default_deleteI17grpc_ares_requestEclEPS0_.exit.i.i unwind label %terminate.lpad.i.i.i.i.i

terminate.lpad.i.i.i.i.i:                         ; preds = %if.then.i.i.i.i.i.i
  %2 = landingpad { ptr, i32 }
          catch ptr null
  %3 = extractvalue { ptr, i32 } %2, 0
  tail call void @__clang_call_terminate(ptr %3) #24
  unreachable

_ZNKSt14default_deleteI17grpc_ares_requestEclEPS0_.exit.i.i: ; preds = %if.then.i.i.i.i.i.i, %delete.notnull.i.i.i
  tail call void @_ZN4absl12lts_202308025MutexD1Ev(ptr noundef nonnull align 8 dereferenceable(8) %0) #22
  tail call void @_ZdlPv(ptr noundef nonnull %0) #25
  br label %_ZNSt10unique_ptrI17grpc_ares_requestSt14default_deleteIS0_EE5resetEPS0_.exit

_ZNSt10unique_ptrI17grpc_ares_requestSt14default_deleteIS0_EE5resetEPS0_.exit: ; preds = %invoke.cont, %_ZNKSt14default_deleteI17grpc_ares_requestEclEPS0_.exit.i.i
  %4 = load i64, ptr %error, align 8
  store i64 %4, ptr %agg.tmp, align 8
  %and.i.i.i = and i64 %4, 1
  %cmp.i.i.i = icmp eq i64 %and.i.i.i, 0
  br i1 %cmp.i.i.i, label %invoke.cont2, label %if.then.i.i

if.then.i.i:                                      ; preds = %_ZNSt10unique_ptrI17grpc_ares_requestSt14default_deleteIS0_EE5resetEPS0_.exit
  %sub.i.i.i = add nsw i64 %4, -1
  %5 = inttoptr i64 %sub.i.i.i to ptr
  %6 = atomicrmw add ptr %5, i32 1 monotonic, align 4
  br label %invoke.cont2

invoke.cont2:                                     ; preds = %if.then.i.i, %_ZNSt10unique_ptrI17grpc_ares_requestSt14default_deleteIS0_EE5resetEPS0_.exit
  invoke fastcc void @_ZN9grpc_core12_GLOBAL__N_128AresClientChannelDNSResolver18AresRequestWrapper16OnResolvedLockedEN4absl12lts_202308026StatusE(ptr noalias nonnull align 8 %ref.tmp, ptr noundef nonnull align 8 dereferenceable(176) %arg, ptr noundef nonnull %agg.tmp)
          to label %invoke.cont4 unwind label %lpad3

invoke.cont4:                                     ; preds = %invoke.cont2
  invoke void @_ZNSt22_Optional_payload_baseIN9grpc_core8Resolver6ResultEE14_M_move_assignEOS3_(ptr noundef nonnull align 8 dereferenceable(121) %result, ptr noundef nonnull align 8 dereferenceable(121) %ref.tmp)
          to label %invoke.cont6 unwind label %lpad5

invoke.cont6:                                     ; preds = %invoke.cont4
  %_M_engaged.i.i.i.i = getelementptr inbounds %"struct.std::_Optional_payload_base.189", ptr %ref.tmp, i64 0, i32 1
  %7 = load i8, ptr %_M_engaged.i.i.i.i, align 8
  %8 = and i8 %7, 1
  %tobool.not.i.i.i.i = icmp eq i8 %8, 0
  br i1 %tobool.not.i.i.i.i, label %_ZNSt8optionalIN9grpc_core8Resolver6ResultEED2Ev.exit, label %if.then.i.i.i.i

if.then.i.i.i.i:                                  ; preds = %invoke.cont6
  store i8 0, ptr %_M_engaged.i.i.i.i, align 8
  call void @_ZN9grpc_core8Resolver6ResultD2Ev(ptr noundef nonnull align 8 dereferenceable(120) %ref.tmp) #22
  br label %_ZNSt8optionalIN9grpc_core8Resolver6ResultEED2Ev.exit

_ZNSt8optionalIN9grpc_core8Resolver6ResultEED2Ev.exit: ; preds = %invoke.cont6, %if.then.i.i.i.i
  %9 = load i64, ptr %agg.tmp, align 8
  %and.i.i.i9 = and i64 %9, 1
  %cmp.i.i.i10 = icmp eq i64 %and.i.i.i9, 0
  br i1 %cmp.i.i.i10, label %_ZN4absl12lts_202308026StatusD2Ev.exit, label %if.then.i.i11

if.then.i.i11:                                    ; preds = %_ZNSt8optionalIN9grpc_core8Resolver6ResultEED2Ev.exit
  invoke void @_ZN4absl12lts_202308026Status15UnrefNonInlinedEm(i64 noundef %9)
          to label %_ZN4absl12lts_202308026StatusD2Ev.exit unwind label %terminate.lpad.i

terminate.lpad.i:                                 ; preds = %if.then.i.i11
  %10 = landingpad { ptr, i32 }
          catch ptr null
  %11 = extractvalue { ptr, i32 } %10, 0
  call void @__clang_call_terminate(ptr %11) #24
  unreachable

_ZN4absl12lts_202308026StatusD2Ev.exit:           ; preds = %_ZNSt8optionalIN9grpc_core8Resolver6ResultEED2Ev.exit, %if.then.i.i11
  invoke void @_ZN4absl12lts_202308025Mutex6UnlockEv(ptr noundef nonnull align 8 dereferenceable(8) %on_resolved_mu_)
          to label %_ZN4absl12lts_202308029MutexLockD2Ev.exit unwind label %terminate.lpad.i12

terminate.lpad.i12:                               ; preds = %_ZN4absl12lts_202308026StatusD2Ev.exit
  %12 = landingpad { ptr, i32 }
          catch ptr null
  %13 = extractvalue { ptr, i32 } %12, 0
  call void @__clang_call_terminate(ptr %13) #24
  unreachable

_ZN4absl12lts_202308029MutexLockD2Ev.exit:        ; preds = %_ZN4absl12lts_202308026StatusD2Ev.exit
  %14 = load i8, ptr %_M_engaged.i.i.i.i.i, align 8
  %15 = and i8 %14, 1
  %tobool.i.i.not = icmp eq i8 %15, 0
  br i1 %tobool.i.i.not, label %if.end, label %if.then

if.then:                                          ; preds = %_ZN4absl12lts_202308029MutexLockD2Ev.exit
  %resolver_ = getelementptr inbounds %"class.grpc_core::(anonymous namespace)::AresClientChannelDNSResolver::AresRequestWrapper", ptr %arg, i64 0, i32 2
  %resolver_.val = load ptr, ptr %resolver_, align 8
  %16 = load i64, ptr %result, align 8
  %cmp.i.i.i.i.i = icmp eq i64 %16, 0
  br i1 %cmp.i.i.i.i.i, label %invoke.cont2.i.i.i, label %if.else.i.i.i

invoke.cont2.i.i.i:                               ; preds = %if.then
  %17 = getelementptr inbounds %"class.absl::lts_20230802::internal_statusor::StatusOrData", ptr %result, i64 0, i32 1
  %18 = getelementptr inbounds %"class.absl::lts_20230802::internal_statusor::StatusOrData", ptr %agg.tmp10, i64 0, i32 1
  %19 = load <2 x ptr>, ptr %17, align 8
  store <2 x ptr> %19, ptr %18, align 8
  %_M_end_of_storage.i.i.i.i.i.i.i.i.i = getelementptr inbounds %"class.absl::lts_20230802::internal_statusor::StatusOrData", ptr %agg.tmp10, i64 0, i32 1, i32 0, i32 0, i32 0, i32 0, i32 2
  %_M_end_of_storage4.i.i.i.i.i.i.i.i.i = getelementptr inbounds %"class.absl::lts_20230802::internal_statusor::StatusOrData", ptr %result, i64 0, i32 1, i32 0, i32 0, i32 0, i32 0, i32 2
  %20 = load ptr, ptr %_M_end_of_storage4.i.i.i.i.i.i.i.i.i, align 8
  store ptr %20, ptr %_M_end_of_storage.i.i.i.i.i.i.i.i.i, align 8
  call void @llvm.memset.p0.i64(ptr noundef nonnull align 8 dereferenceable(24) %17, i8 0, i64 24, i1 false)
  br label %_ZN4absl12lts_202308028StatusOrISt6vectorIN9grpc_core17EndpointAddressesESaIS4_EEEC2EOS7_.exit.i

if.else.i.i.i:                                    ; preds = %if.then
  store i64 54, ptr %result, align 8
  br label %_ZN4absl12lts_202308028StatusOrISt6vectorIN9grpc_core17EndpointAddressesESaIS4_EEEC2EOS7_.exit.i

_ZN4absl12lts_202308028StatusOrISt6vectorIN9grpc_core17EndpointAddressesESaIS4_EEEC2EOS7_.exit.i: ; preds = %if.else.i.i.i, %invoke.cont2.i.i.i
  store i64 %16, ptr %agg.tmp10, align 8
  %service_config.i = getelementptr inbounds %"struct.grpc_core::Resolver::Result", ptr %agg.tmp10, i64 0, i32 1
  %service_config3.i = getelementptr inbounds %"struct.grpc_core::Resolver::Result", ptr %result, i64 0, i32 1
  %21 = load i64, ptr %service_config3.i, align 8
  %cmp.i.i.i.i5.i = icmp eq i64 %21, 0
  br i1 %cmp.i.i.i.i5.i, label %invoke.cont2.i.i7.i, label %if.else.i.i6.i

invoke.cont2.i.i7.i:                              ; preds = %_ZN4absl12lts_202308028StatusOrISt6vectorIN9grpc_core17EndpointAddressesESaIS4_EEEC2EOS7_.exit.i
  %22 = getelementptr inbounds %"struct.grpc_core::Resolver::Result", ptr %result, i64 0, i32 1, i32 0, i32 1
  %23 = getelementptr inbounds %"struct.grpc_core::Resolver::Result", ptr %agg.tmp10, i64 0, i32 1, i32 0, i32 1
  %24 = load ptr, ptr %22, align 8
  store ptr %24, ptr %23, align 8
  store ptr null, ptr %22, align 8
  br label %_ZN4absl12lts_202308028StatusOrIN9grpc_core13RefCountedPtrINS2_13ServiceConfigEEEEC2EOS6_.exit.i

if.else.i.i6.i:                                   ; preds = %_ZN4absl12lts_202308028StatusOrISt6vectorIN9grpc_core17EndpointAddressesESaIS4_EEEC2EOS7_.exit.i
  store i64 54, ptr %service_config3.i, align 8
  br label %_ZN4absl12lts_202308028StatusOrIN9grpc_core13RefCountedPtrINS2_13ServiceConfigEEEEC2EOS6_.exit.i

_ZN4absl12lts_202308028StatusOrIN9grpc_core13RefCountedPtrINS2_13ServiceConfigEEEEC2EOS6_.exit.i: ; preds = %if.else.i.i6.i, %invoke.cont2.i.i7.i
  store i64 %21, ptr %service_config.i, align 8
  %resolution_note.i = getelementptr inbounds %"struct.grpc_core::Resolver::Result", ptr %agg.tmp10, i64 0, i32 2
  %resolution_note4.i = getelementptr inbounds %"struct.grpc_core::Resolver::Result", ptr %result, i64 0, i32 2
  call void @_ZNSt7__cxx1112basic_stringIcSt11char_traitsIcESaIcEEC1EOS4_(ptr noundef nonnull align 8 dereferenceable(32) %resolution_note.i, ptr noundef nonnull align 8 dereferenceable(32) %resolution_note4.i) #22
  %args.i = getelementptr inbounds %"struct.grpc_core::Resolver::Result", ptr %agg.tmp10, i64 0, i32 3
  %args5.i = getelementptr inbounds %"struct.grpc_core::Resolver::Result", ptr %result, i64 0, i32 3
  call void @_ZN9grpc_core11ChannelArgsC1EOS0_(ptr noundef nonnull align 8 dereferenceable(8) %args.i, ptr noundef nonnull align 8 dereferenceable(8) %args5.i) #22
  %result_health_callback.i = getelementptr inbounds %"struct.grpc_core::Resolver::Result", ptr %agg.tmp10, i64 0, i32 4
  %_M_invoker.i.i = getelementptr inbounds %"struct.grpc_core::Resolver::Result", ptr %agg.tmp10, i64 0, i32 4, i32 1
  %_M_invoker2.i.i = getelementptr inbounds %"struct.grpc_core::Resolver::Result", ptr %result, i64 0, i32 4, i32 1
  call void @llvm.memset.p0.i64(ptr noundef nonnull align 8 dereferenceable(24) %result_health_callback.i, i8 0, i64 24, i1 false)
  %25 = load ptr, ptr %_M_invoker2.i.i, align 8
  store ptr %25, ptr %_M_invoker.i.i, align 8
  %_M_manager.i.i.i.i = getelementptr inbounds %"struct.grpc_core::Resolver::Result", ptr %result, i64 0, i32 4, i32 0, i32 1
  %26 = load ptr, ptr %_M_manager.i.i.i.i, align 8
  %tobool.not.i.i.not.i.i = icmp eq ptr %26, null
  br i1 %tobool.not.i.i.not.i.i, label %_ZN9grpc_core8Resolver6ResultC2EOS1_.exit, label %if.then.i.i13

if.then.i.i13:                                    ; preds = %_ZN4absl12lts_202308028StatusOrIN9grpc_core13RefCountedPtrINS2_13ServiceConfigEEEEC2EOS6_.exit.i
  %result_health_callback6.i = getelementptr inbounds %"struct.grpc_core::Resolver::Result", ptr %result, i64 0, i32 4
  %_M_manager.i.i.i = getelementptr inbounds %"struct.grpc_core::Resolver::Result", ptr %agg.tmp10, i64 0, i32 4, i32 0, i32 1
  call void @llvm.memcpy.p0.p0.i64(ptr noundef nonnull align 8 dereferenceable(16) %result_health_callback.i, ptr noundef nonnull align 8 dereferenceable(16) %result_health_callback6.i, i64 16, i1 false)
  store ptr %26, ptr %_M_manager.i.i.i, align 8
  call void @llvm.memset.p0.i64(ptr noundef nonnull align 8 dereferenceable(16) %_M_manager.i.i.i.i, i8 0, i64 16, i1 false)
  br label %_ZN9grpc_core8Resolver6ResultC2EOS1_.exit

_ZN9grpc_core8Resolver6ResultC2EOS1_.exit:        ; preds = %_ZN4absl12lts_202308028StatusOrIN9grpc_core13RefCountedPtrINS2_13ServiceConfigEEEEC2EOS6_.exit.i, %if.then.i.i13
  invoke void @_ZN9grpc_core15PollingResolver17OnRequestCompleteENS_8Resolver6ResultE(ptr noundef nonnull align 8 dereferenceable(536) %resolver_.val, ptr noundef nonnull %agg.tmp10)
          to label %invoke.cont13 unwind label %lpad12

invoke.cont13:                                    ; preds = %_ZN9grpc_core8Resolver6ResultC2EOS1_.exit
  call void @_ZN9grpc_core8Resolver6ResultD2Ev(ptr noundef nonnull align 8 dereferenceable(120) %agg.tmp10) #22
  br label %if.end

lpad:                                             ; preds = %entry
  %27 = landingpad { ptr, i32 }
          cleanup
  br label %ehcleanup18

lpad3:                                            ; preds = %invoke.cont2
  %28 = landingpad { ptr, i32 }
          cleanup
  br label %ehcleanup

lpad5:                                            ; preds = %invoke.cont4
  %29 = landingpad { ptr, i32 }
          cleanup
  %_M_engaged.i.i.i.i14 = getelementptr inbounds %"struct.std::_Optional_payload_base.189", ptr %ref.tmp, i64 0, i32 1
  %30 = load i8, ptr %_M_engaged.i.i.i.i14, align 8
  %31 = and i8 %30, 1
  %tobool.not.i.i.i.i15 = icmp eq i8 %31, 0
  br i1 %tobool.not.i.i.i.i15, label %ehcleanup, label %if.then.i.i.i.i16

if.then.i.i.i.i16:                                ; preds = %lpad5
  store i8 0, ptr %_M_engaged.i.i.i.i14, align 8
  call void @_ZN9grpc_core8Resolver6ResultD2Ev(ptr noundef nonnull align 8 dereferenceable(120) %ref.tmp) #22
  br label %ehcleanup

ehcleanup:                                        ; preds = %if.then.i.i.i.i16, %lpad5, %lpad3
  %.pn = phi { ptr, i32 } [ %28, %lpad3 ], [ %29, %lpad5 ], [ %29, %if.then.i.i.i.i16 ]
  call void @_ZN4absl12lts_202308026StatusD2Ev(ptr noundef nonnull align 8 dereferenceable(8) %agg.tmp) #22
  invoke void @_ZN4absl12lts_202308025Mutex6UnlockEv(ptr noundef nonnull align 8 dereferenceable(8) %on_resolved_mu_)
          to label %ehcleanup18 unwind label %terminate.lpad.i18

terminate.lpad.i18:                               ; preds = %ehcleanup
  %32 = landingpad { ptr, i32 }
          catch ptr null
  %33 = extractvalue { ptr, i32 } %32, 0
  call void @__clang_call_terminate(ptr %33) #24
  unreachable

lpad12:                                           ; preds = %_ZN9grpc_core8Resolver6ResultC2EOS1_.exit
  %34 = landingpad { ptr, i32 }
          cleanup
  call void @_ZN9grpc_core8Resolver6ResultD2Ev(ptr noundef nonnull align 8 dereferenceable(120) %agg.tmp10) #22
  br label %ehcleanup18

if.end:                                           ; preds = %invoke.cont13, %_ZN4absl12lts_202308029MutexLockD2Ev.exit
  %refs_.i = getelementptr inbounds %"class.grpc_core::InternallyRefCounted.161", ptr %arg, i64 0, i32 1
  %35 = atomicrmw sub ptr %refs_.i, i64 1 acq_rel, align 8
  %cmp.i.i = icmp eq i64 %35, 1
  br i1 %cmp.i.i, label %if.then.i, label %invoke.cont17

if.then.i:                                        ; preds = %if.end
  %vtable.i.i = load ptr, ptr %arg, align 8
  %vfn.i.i = getelementptr inbounds ptr, ptr %vtable.i.i, i64 2
  %36 = load ptr, ptr %vfn.i.i, align 8
  call void %36(ptr noundef nonnull align 8 dereferenceable(176) %arg) #22
  br label %invoke.cont17

invoke.cont17:                                    ; preds = %if.then.i, %if.end
  %37 = load i8, ptr %_M_engaged.i.i.i.i.i, align 8
  %38 = and i8 %37, 1
  %tobool.not.i.i.i.i21 = icmp eq i8 %38, 0
  br i1 %tobool.not.i.i.i.i21, label %_ZNSt8optionalIN9grpc_core8Resolver6ResultEED2Ev.exit23, label %if.then.i.i.i.i22

if.then.i.i.i.i22:                                ; preds = %invoke.cont17
  store i8 0, ptr %_M_engaged.i.i.i.i.i, align 8
  call void @_ZN9grpc_core8Resolver6ResultD2Ev(ptr noundef nonnull align 8 dereferenceable(120) %result) #22
  br label %_ZNSt8optionalIN9grpc_core8Resolver6ResultEED2Ev.exit23

_ZNSt8optionalIN9grpc_core8Resolver6ResultEED2Ev.exit23: ; preds = %invoke.cont17, %if.then.i.i.i.i22
  ret void

ehcleanup18:                                      ; preds = %ehcleanup, %lpad12, %lpad
  %.pn7 = phi { ptr, i32 } [ %27, %lpad ], [ %34, %lpad12 ], [ %.pn, %ehcleanup ]
  %39 = load i8, ptr %_M_engaged.i.i.i.i.i, align 8
  %40 = and i8 %39, 1
  %tobool.not.i.i.i.i25 = icmp eq i8 %40, 0
  br i1 %tobool.not.i.i.i.i25, label %_ZNSt8optionalIN9grpc_core8Resolver6ResultEED2Ev.exit27, label %if.then.i.i.i.i26

if.then.i.i.i.i26:                                ; preds = %ehcleanup18
  store i8 0, ptr %_M_engaged.i.i.i.i.i, align 8
  call void @_ZN9grpc_core8Resolver6ResultD2Ev(ptr noundef nonnull align 8 dereferenceable(120) %result) #22
  br label %_ZNSt8optionalIN9grpc_core8Resolver6ResultEED2Ev.exit27

_ZNSt8optionalIN9grpc_core8Resolver6ResultEED2Ev.exit27: ; preds = %ehcleanup18, %if.then.i.i.i.i26
  resume { ptr, i32 } %.pn7
}

; Function Attrs: mustprogress uwtable
define internal void @_ZN9grpc_core12_GLOBAL__N_128AresClientChannelDNSResolver18AresRequestWrapper13OnTXTResolvedEPvN4absl12lts_202308026StatusE(ptr noundef %arg, ptr nocapture noundef readonly %error) #5 align 2 personality ptr @__gxx_personality_v0 {
entry:
  %result = alloca %"class.std::optional.184", align 8
  %ref.tmp = alloca %"class.std::optional.184", align 8
  %agg.tmp = alloca %"class.absl::lts_20230802::Status", align 8
  %agg.tmp10 = alloca %"struct.grpc_core::Resolver::Result", align 8
  %_M_engaged.i.i.i.i.i = getelementptr inbounds %"struct.std::_Optional_payload_base.189", ptr %result, i64 0, i32 1
  store i8 0, ptr %_M_engaged.i.i.i.i.i, align 8
  %on_resolved_mu_ = getelementptr inbounds %"class.grpc_core::(anonymous namespace)::AresClientChannelDNSResolver::AresRequestWrapper", ptr %arg, i64 0, i32 1
  invoke void @_ZN4absl12lts_202308025Mutex4LockEv(ptr noundef nonnull align 8 dereferenceable(8) %on_resolved_mu_)
          to label %invoke.cont unwind label %lpad

invoke.cont:                                      ; preds = %entry
  %txt_request_ = getelementptr inbounds %"class.grpc_core::(anonymous namespace)::AresClientChannelDNSResolver::AresRequestWrapper", ptr %arg, i64 0, i32 8
  %0 = load ptr, ptr %txt_request_, align 8
  store ptr null, ptr %txt_request_, align 8
  %tobool.not.i.i = icmp eq ptr %0, null
  br i1 %tobool.not.i.i, label %_ZNSt10unique_ptrI17grpc_ares_requestSt14default_deleteIS0_EE5resetEPS0_.exit, label %delete.notnull.i.i.i

delete.notnull.i.i.i:                             ; preds = %invoke.cont
  %error.i.i.i.i = getelementptr inbounds %struct.grpc_ares_request, ptr %0, i64 0, i32 8
  %1 = load i64, ptr %error.i.i.i.i, align 8
  %and.i.i.i.i.i.i.i = and i64 %1, 1
  %cmp.i.i.i.i.i.i.i = icmp eq i64 %and.i.i.i.i.i.i.i, 0
  br i1 %cmp.i.i.i.i.i.i.i, label %_ZNKSt14default_deleteI17grpc_ares_requestEclEPS0_.exit.i.i, label %if.then.i.i.i.i.i.i

if.then.i.i.i.i.i.i:                              ; preds = %delete.notnull.i.i.i
  invoke void @_ZN4absl12lts_202308026Status15UnrefNonInlinedEm(i64 noundef %1)
          to label %_ZNKSt14default_deleteI17grpc_ares_requestEclEPS0_.exit.i.i unwind label %terminate.lpad.i.i.i.i.i

terminate.lpad.i.i.i.i.i:                         ; preds = %if.then.i.i.i.i.i.i
  %2 = landingpad { ptr, i32 }
          catch ptr null
  %3 = extractvalue { ptr, i32 } %2, 0
  tail call void @__clang_call_terminate(ptr %3) #24
  unreachable

_ZNKSt14default_deleteI17grpc_ares_requestEclEPS0_.exit.i.i: ; preds = %if.then.i.i.i.i.i.i, %delete.notnull.i.i.i
  tail call void @_ZN4absl12lts_202308025MutexD1Ev(ptr noundef nonnull align 8 dereferenceable(8) %0) #22
  tail call void @_ZdlPv(ptr noundef nonnull %0) #25
  br label %_ZNSt10unique_ptrI17grpc_ares_requestSt14default_deleteIS0_EE5resetEPS0_.exit

_ZNSt10unique_ptrI17grpc_ares_requestSt14default_deleteIS0_EE5resetEPS0_.exit: ; preds = %invoke.cont, %_ZNKSt14default_deleteI17grpc_ares_requestEclEPS0_.exit.i.i
  %4 = load i64, ptr %error, align 8
  store i64 %4, ptr %agg.tmp, align 8
  %and.i.i.i = and i64 %4, 1
  %cmp.i.i.i = icmp eq i64 %and.i.i.i, 0
  br i1 %cmp.i.i.i, label %invoke.cont2, label %if.then.i.i

if.then.i.i:                                      ; preds = %_ZNSt10unique_ptrI17grpc_ares_requestSt14default_deleteIS0_EE5resetEPS0_.exit
  %sub.i.i.i = add nsw i64 %4, -1
  %5 = inttoptr i64 %sub.i.i.i to ptr
  %6 = atomicrmw add ptr %5, i32 1 monotonic, align 4
  br label %invoke.cont2

invoke.cont2:                                     ; preds = %if.then.i.i, %_ZNSt10unique_ptrI17grpc_ares_requestSt14default_deleteIS0_EE5resetEPS0_.exit
  invoke fastcc void @_ZN9grpc_core12_GLOBAL__N_128AresClientChannelDNSResolver18AresRequestWrapper16OnResolvedLockedEN4absl12lts_202308026StatusE(ptr noalias nonnull align 8 %ref.tmp, ptr noundef nonnull align 8 dereferenceable(176) %arg, ptr noundef nonnull %agg.tmp)
          to label %invoke.cont4 unwind label %lpad3

invoke.cont4:                                     ; preds = %invoke.cont2
  invoke void @_ZNSt22_Optional_payload_baseIN9grpc_core8Resolver6ResultEE14_M_move_assignEOS3_(ptr noundef nonnull align 8 dereferenceable(121) %result, ptr noundef nonnull align 8 dereferenceable(121) %ref.tmp)
          to label %invoke.cont6 unwind label %lpad5

invoke.cont6:                                     ; preds = %invoke.cont4
  %_M_engaged.i.i.i.i = getelementptr inbounds %"struct.std::_Optional_payload_base.189", ptr %ref.tmp, i64 0, i32 1
  %7 = load i8, ptr %_M_engaged.i.i.i.i, align 8
  %8 = and i8 %7, 1
  %tobool.not.i.i.i.i = icmp eq i8 %8, 0
  br i1 %tobool.not.i.i.i.i, label %_ZNSt8optionalIN9grpc_core8Resolver6ResultEED2Ev.exit, label %if.then.i.i.i.i

if.then.i.i.i.i:                                  ; preds = %invoke.cont6
  store i8 0, ptr %_M_engaged.i.i.i.i, align 8
  call void @_ZN9grpc_core8Resolver6ResultD2Ev(ptr noundef nonnull align 8 dereferenceable(120) %ref.tmp) #22
  br label %_ZNSt8optionalIN9grpc_core8Resolver6ResultEED2Ev.exit

_ZNSt8optionalIN9grpc_core8Resolver6ResultEED2Ev.exit: ; preds = %invoke.cont6, %if.then.i.i.i.i
  %9 = load i64, ptr %agg.tmp, align 8
  %and.i.i.i9 = and i64 %9, 1
  %cmp.i.i.i10 = icmp eq i64 %and.i.i.i9, 0
  br i1 %cmp.i.i.i10, label %_ZN4absl12lts_202308026StatusD2Ev.exit, label %if.then.i.i11

if.then.i.i11:                                    ; preds = %_ZNSt8optionalIN9grpc_core8Resolver6ResultEED2Ev.exit
  invoke void @_ZN4absl12lts_202308026Status15UnrefNonInlinedEm(i64 noundef %9)
          to label %_ZN4absl12lts_202308026StatusD2Ev.exit unwind label %terminate.lpad.i

terminate.lpad.i:                                 ; preds = %if.then.i.i11
  %10 = landingpad { ptr, i32 }
          catch ptr null
  %11 = extractvalue { ptr, i32 } %10, 0
  call void @__clang_call_terminate(ptr %11) #24
  unreachable

_ZN4absl12lts_202308026StatusD2Ev.exit:           ; preds = %_ZNSt8optionalIN9grpc_core8Resolver6ResultEED2Ev.exit, %if.then.i.i11
  invoke void @_ZN4absl12lts_202308025Mutex6UnlockEv(ptr noundef nonnull align 8 dereferenceable(8) %on_resolved_mu_)
          to label %_ZN4absl12lts_202308029MutexLockD2Ev.exit unwind label %terminate.lpad.i12

terminate.lpad.i12:                               ; preds = %_ZN4absl12lts_202308026StatusD2Ev.exit
  %12 = landingpad { ptr, i32 }
          catch ptr null
  %13 = extractvalue { ptr, i32 } %12, 0
  call void @__clang_call_terminate(ptr %13) #24
  unreachable

_ZN4absl12lts_202308029MutexLockD2Ev.exit:        ; preds = %_ZN4absl12lts_202308026StatusD2Ev.exit
  %14 = load i8, ptr %_M_engaged.i.i.i.i.i, align 8
  %15 = and i8 %14, 1
  %tobool.i.i.not = icmp eq i8 %15, 0
  br i1 %tobool.i.i.not, label %if.end, label %if.then

if.then:                                          ; preds = %_ZN4absl12lts_202308029MutexLockD2Ev.exit
  %resolver_ = getelementptr inbounds %"class.grpc_core::(anonymous namespace)::AresClientChannelDNSResolver::AresRequestWrapper", ptr %arg, i64 0, i32 2
  %resolver_.val = load ptr, ptr %resolver_, align 8
  %16 = load i64, ptr %result, align 8
  %cmp.i.i.i.i.i = icmp eq i64 %16, 0
  br i1 %cmp.i.i.i.i.i, label %invoke.cont2.i.i.i, label %if.else.i.i.i

invoke.cont2.i.i.i:                               ; preds = %if.then
  %17 = getelementptr inbounds %"class.absl::lts_20230802::internal_statusor::StatusOrData", ptr %result, i64 0, i32 1
  %18 = getelementptr inbounds %"class.absl::lts_20230802::internal_statusor::StatusOrData", ptr %agg.tmp10, i64 0, i32 1
  %19 = load <2 x ptr>, ptr %17, align 8
  store <2 x ptr> %19, ptr %18, align 8
  %_M_end_of_storage.i.i.i.i.i.i.i.i.i = getelementptr inbounds %"class.absl::lts_20230802::internal_statusor::StatusOrData", ptr %agg.tmp10, i64 0, i32 1, i32 0, i32 0, i32 0, i32 0, i32 2
  %_M_end_of_storage4.i.i.i.i.i.i.i.i.i = getelementptr inbounds %"class.absl::lts_20230802::internal_statusor::StatusOrData", ptr %result, i64 0, i32 1, i32 0, i32 0, i32 0, i32 0, i32 2
  %20 = load ptr, ptr %_M_end_of_storage4.i.i.i.i.i.i.i.i.i, align 8
  store ptr %20, ptr %_M_end_of_storage.i.i.i.i.i.i.i.i.i, align 8
  call void @llvm.memset.p0.i64(ptr noundef nonnull align 8 dereferenceable(24) %17, i8 0, i64 24, i1 false)
  br label %_ZN4absl12lts_202308028StatusOrISt6vectorIN9grpc_core17EndpointAddressesESaIS4_EEEC2EOS7_.exit.i

if.else.i.i.i:                                    ; preds = %if.then
  store i64 54, ptr %result, align 8
  br label %_ZN4absl12lts_202308028StatusOrISt6vectorIN9grpc_core17EndpointAddressesESaIS4_EEEC2EOS7_.exit.i

_ZN4absl12lts_202308028StatusOrISt6vectorIN9grpc_core17EndpointAddressesESaIS4_EEEC2EOS7_.exit.i: ; preds = %if.else.i.i.i, %invoke.cont2.i.i.i
  store i64 %16, ptr %agg.tmp10, align 8
  %service_config.i = getelementptr inbounds %"struct.grpc_core::Resolver::Result", ptr %agg.tmp10, i64 0, i32 1
  %service_config3.i = getelementptr inbounds %"struct.grpc_core::Resolver::Result", ptr %result, i64 0, i32 1
  %21 = load i64, ptr %service_config3.i, align 8
  %cmp.i.i.i.i5.i = icmp eq i64 %21, 0
  br i1 %cmp.i.i.i.i5.i, label %invoke.cont2.i.i7.i, label %if.else.i.i6.i

invoke.cont2.i.i7.i:                              ; preds = %_ZN4absl12lts_202308028StatusOrISt6vectorIN9grpc_core17EndpointAddressesESaIS4_EEEC2EOS7_.exit.i
  %22 = getelementptr inbounds %"struct.grpc_core::Resolver::Result", ptr %result, i64 0, i32 1, i32 0, i32 1
  %23 = getelementptr inbounds %"struct.grpc_core::Resolver::Result", ptr %agg.tmp10, i64 0, i32 1, i32 0, i32 1
  %24 = load ptr, ptr %22, align 8
  store ptr %24, ptr %23, align 8
  store ptr null, ptr %22, align 8
  br label %_ZN4absl12lts_202308028StatusOrIN9grpc_core13RefCountedPtrINS2_13ServiceConfigEEEEC2EOS6_.exit.i

if.else.i.i6.i:                                   ; preds = %_ZN4absl12lts_202308028StatusOrISt6vectorIN9grpc_core17EndpointAddressesESaIS4_EEEC2EOS7_.exit.i
  store i64 54, ptr %service_config3.i, align 8
  br label %_ZN4absl12lts_202308028StatusOrIN9grpc_core13RefCountedPtrINS2_13ServiceConfigEEEEC2EOS6_.exit.i

_ZN4absl12lts_202308028StatusOrIN9grpc_core13RefCountedPtrINS2_13ServiceConfigEEEEC2EOS6_.exit.i: ; preds = %if.else.i.i6.i, %invoke.cont2.i.i7.i
  store i64 %21, ptr %service_config.i, align 8
  %resolution_note.i = getelementptr inbounds %"struct.grpc_core::Resolver::Result", ptr %agg.tmp10, i64 0, i32 2
  %resolution_note4.i = getelementptr inbounds %"struct.grpc_core::Resolver::Result", ptr %result, i64 0, i32 2
  call void @_ZNSt7__cxx1112basic_stringIcSt11char_traitsIcESaIcEEC1EOS4_(ptr noundef nonnull align 8 dereferenceable(32) %resolution_note.i, ptr noundef nonnull align 8 dereferenceable(32) %resolution_note4.i) #22
  %args.i = getelementptr inbounds %"struct.grpc_core::Resolver::Result", ptr %agg.tmp10, i64 0, i32 3
  %args5.i = getelementptr inbounds %"struct.grpc_core::Resolver::Result", ptr %result, i64 0, i32 3
  call void @_ZN9grpc_core11ChannelArgsC1EOS0_(ptr noundef nonnull align 8 dereferenceable(8) %args.i, ptr noundef nonnull align 8 dereferenceable(8) %args5.i) #22
  %result_health_callback.i = getelementptr inbounds %"struct.grpc_core::Resolver::Result", ptr %agg.tmp10, i64 0, i32 4
  %_M_invoker.i.i = getelementptr inbounds %"struct.grpc_core::Resolver::Result", ptr %agg.tmp10, i64 0, i32 4, i32 1
  %_M_invoker2.i.i = getelementptr inbounds %"struct.grpc_core::Resolver::Result", ptr %result, i64 0, i32 4, i32 1
  call void @llvm.memset.p0.i64(ptr noundef nonnull align 8 dereferenceable(24) %result_health_callback.i, i8 0, i64 24, i1 false)
  %25 = load ptr, ptr %_M_invoker2.i.i, align 8
  store ptr %25, ptr %_M_invoker.i.i, align 8
  %_M_manager.i.i.i.i = getelementptr inbounds %"struct.grpc_core::Resolver::Result", ptr %result, i64 0, i32 4, i32 0, i32 1
  %26 = load ptr, ptr %_M_manager.i.i.i.i, align 8
  %tobool.not.i.i.not.i.i = icmp eq ptr %26, null
  br i1 %tobool.not.i.i.not.i.i, label %_ZN9grpc_core8Resolver6ResultC2EOS1_.exit, label %if.then.i.i13

if.then.i.i13:                                    ; preds = %_ZN4absl12lts_202308028StatusOrIN9grpc_core13RefCountedPtrINS2_13ServiceConfigEEEEC2EOS6_.exit.i
  %result_health_callback6.i = getelementptr inbounds %"struct.grpc_core::Resolver::Result", ptr %result, i64 0, i32 4
  %_M_manager.i.i.i = getelementptr inbounds %"struct.grpc_core::Resolver::Result", ptr %agg.tmp10, i64 0, i32 4, i32 0, i32 1
  call void @llvm.memcpy.p0.p0.i64(ptr noundef nonnull align 8 dereferenceable(16) %result_health_callback.i, ptr noundef nonnull align 8 dereferenceable(16) %result_health_callback6.i, i64 16, i1 false)
  store ptr %26, ptr %_M_manager.i.i.i, align 8
  call void @llvm.memset.p0.i64(ptr noundef nonnull align 8 dereferenceable(16) %_M_manager.i.i.i.i, i8 0, i64 16, i1 false)
  br label %_ZN9grpc_core8Resolver6ResultC2EOS1_.exit

_ZN9grpc_core8Resolver6ResultC2EOS1_.exit:        ; preds = %_ZN4absl12lts_202308028StatusOrIN9grpc_core13RefCountedPtrINS2_13ServiceConfigEEEEC2EOS6_.exit.i, %if.then.i.i13
  invoke void @_ZN9grpc_core15PollingResolver17OnRequestCompleteENS_8Resolver6ResultE(ptr noundef nonnull align 8 dereferenceable(536) %resolver_.val, ptr noundef nonnull %agg.tmp10)
          to label %invoke.cont13 unwind label %lpad12

invoke.cont13:                                    ; preds = %_ZN9grpc_core8Resolver6ResultC2EOS1_.exit
  call void @_ZN9grpc_core8Resolver6ResultD2Ev(ptr noundef nonnull align 8 dereferenceable(120) %agg.tmp10) #22
  br label %if.end

lpad:                                             ; preds = %entry
  %27 = landingpad { ptr, i32 }
          cleanup
  br label %ehcleanup18

lpad3:                                            ; preds = %invoke.cont2
  %28 = landingpad { ptr, i32 }
          cleanup
  br label %ehcleanup

lpad5:                                            ; preds = %invoke.cont4
  %29 = landingpad { ptr, i32 }
          cleanup
  %_M_engaged.i.i.i.i14 = getelementptr inbounds %"struct.std::_Optional_payload_base.189", ptr %ref.tmp, i64 0, i32 1
  %30 = load i8, ptr %_M_engaged.i.i.i.i14, align 8
  %31 = and i8 %30, 1
  %tobool.not.i.i.i.i15 = icmp eq i8 %31, 0
  br i1 %tobool.not.i.i.i.i15, label %ehcleanup, label %if.then.i.i.i.i16

if.then.i.i.i.i16:                                ; preds = %lpad5
  store i8 0, ptr %_M_engaged.i.i.i.i14, align 8
  call void @_ZN9grpc_core8Resolver6ResultD2Ev(ptr noundef nonnull align 8 dereferenceable(120) %ref.tmp) #22
  br label %ehcleanup

ehcleanup:                                        ; preds = %if.then.i.i.i.i16, %lpad5, %lpad3
  %.pn = phi { ptr, i32 } [ %28, %lpad3 ], [ %29, %lpad5 ], [ %29, %if.then.i.i.i.i16 ]
  call void @_ZN4absl12lts_202308026StatusD2Ev(ptr noundef nonnull align 8 dereferenceable(8) %agg.tmp) #22
  invoke void @_ZN4absl12lts_202308025Mutex6UnlockEv(ptr noundef nonnull align 8 dereferenceable(8) %on_resolved_mu_)
          to label %ehcleanup18 unwind label %terminate.lpad.i18

terminate.lpad.i18:                               ; preds = %ehcleanup
  %32 = landingpad { ptr, i32 }
          catch ptr null
  %33 = extractvalue { ptr, i32 } %32, 0
  call void @__clang_call_terminate(ptr %33) #24
  unreachable

lpad12:                                           ; preds = %_ZN9grpc_core8Resolver6ResultC2EOS1_.exit
  %34 = landingpad { ptr, i32 }
          cleanup
  call void @_ZN9grpc_core8Resolver6ResultD2Ev(ptr noundef nonnull align 8 dereferenceable(120) %agg.tmp10) #22
  br label %ehcleanup18

if.end:                                           ; preds = %invoke.cont13, %_ZN4absl12lts_202308029MutexLockD2Ev.exit
  %refs_.i = getelementptr inbounds %"class.grpc_core::InternallyRefCounted.161", ptr %arg, i64 0, i32 1
  %35 = atomicrmw sub ptr %refs_.i, i64 1 acq_rel, align 8
  %cmp.i.i = icmp eq i64 %35, 1
  br i1 %cmp.i.i, label %if.then.i, label %invoke.cont17

if.then.i:                                        ; preds = %if.end
  %vtable.i.i = load ptr, ptr %arg, align 8
  %vfn.i.i = getelementptr inbounds ptr, ptr %vtable.i.i, i64 2
  %36 = load ptr, ptr %vfn.i.i, align 8
  call void %36(ptr noundef nonnull align 8 dereferenceable(176) %arg) #22
  br label %invoke.cont17

invoke.cont17:                                    ; preds = %if.then.i, %if.end
  %37 = load i8, ptr %_M_engaged.i.i.i.i.i, align 8
  %38 = and i8 %37, 1
  %tobool.not.i.i.i.i21 = icmp eq i8 %38, 0
  br i1 %tobool.not.i.i.i.i21, label %_ZNSt8optionalIN9grpc_core8Resolver6ResultEED2Ev.exit23, label %if.then.i.i.i.i22

if.then.i.i.i.i22:                                ; preds = %invoke.cont17
  store i8 0, ptr %_M_engaged.i.i.i.i.i, align 8
  call void @_ZN9grpc_core8Resolver6ResultD2Ev(ptr noundef nonnull align 8 dereferenceable(120) %result) #22
  br label %_ZNSt8optionalIN9grpc_core8Resolver6ResultEED2Ev.exit23

_ZNSt8optionalIN9grpc_core8Resolver6ResultEED2Ev.exit23: ; preds = %invoke.cont17, %if.then.i.i.i.i22
  ret void

ehcleanup18:                                      ; preds = %ehcleanup, %lpad12, %lpad
  %.pn7 = phi { ptr, i32 } [ %27, %lpad ], [ %34, %lpad12 ], [ %.pn, %ehcleanup ]
  %39 = load i8, ptr %_M_engaged.i.i.i.i.i, align 8
  %40 = and i8 %39, 1
  %tobool.not.i.i.i.i25 = icmp eq i8 %40, 0
  br i1 %tobool.not.i.i.i.i25, label %_ZNSt8optionalIN9grpc_core8Resolver6ResultEED2Ev.exit27, label %if.then.i.i.i.i26

if.then.i.i.i.i26:                                ; preds = %ehcleanup18
  store i8 0, ptr %_M_engaged.i.i.i.i.i, align 8
  call void @_ZN9grpc_core8Resolver6ResultD2Ev(ptr noundef nonnull align 8 dereferenceable(120) %result) #22
  br label %_ZNSt8optionalIN9grpc_core8Resolver6ResultEED2Ev.exit27

_ZNSt8optionalIN9grpc_core8Resolver6ResultEED2Ev.exit27: ; preds = %ehcleanup18, %if.then.i.i.i.i26
  resume { ptr, i32 } %.pn7
}

; Function Attrs: mustprogress nounwind uwtable
define linkonce_odr void @_ZNSt10unique_ptrISt6vectorIN9grpc_core17EndpointAddressesESaIS2_EESt14default_deleteIS4_EED2Ev(ptr noundef nonnull align 8 dereferenceable(8) %this) unnamed_addr #3 comdat align 2 personality ptr @__gxx_personality_v0 {
entry:
  %0 = load ptr, ptr %this, align 8
  %cmp.not = icmp eq ptr %0, null
  br i1 %cmp.not, label %if.end, label %delete.notnull.i

delete.notnull.i:                                 ; preds = %entry
  %1 = load ptr, ptr %0, align 8
  %_M_finish.i.i = getelementptr inbounds %"struct.std::_Vector_base<grpc_core::EndpointAddresses, std::allocator<grpc_core::EndpointAddresses>>::_Vector_impl_data", ptr %0, i64 0, i32 1
  %2 = load ptr, ptr %_M_finish.i.i, align 8
  %cmp.not3.i.i.i.i.i = icmp eq ptr %1, %2
  br i1 %cmp.not3.i.i.i.i.i, label %invoke.cont.i.i, label %for.body.i.i.i.i.i

for.body.i.i.i.i.i:                               ; preds = %delete.notnull.i, %_ZSt8_DestroyIN9grpc_core17EndpointAddressesEEvPT_.exit.i.i.i.i.i
  %__first.addr.04.i.i.i.i.i = phi ptr [ %incdec.ptr.i.i.i.i.i, %_ZSt8_DestroyIN9grpc_core17EndpointAddressesEEvPT_.exit.i.i.i.i.i ], [ %1, %delete.notnull.i ]
  %args_.i.i.i.i.i.i.i = getelementptr inbounds %"class.grpc_core::EndpointAddresses", ptr %__first.addr.04.i.i.i.i.i, i64 0, i32 1
  tail call void @_ZN9grpc_core11ChannelArgsD1Ev(ptr noundef nonnull align 8 dereferenceable(8) %args_.i.i.i.i.i.i.i) #22
  %3 = load ptr, ptr %__first.addr.04.i.i.i.i.i, align 8
  %tobool.not.i.i.i.i.i.i.i.i.i.i = icmp eq ptr %3, null
  br i1 %tobool.not.i.i.i.i.i.i.i.i.i.i, label %_ZSt8_DestroyIN9grpc_core17EndpointAddressesEEvPT_.exit.i.i.i.i.i, label %if.then.i.i.i.i.i.i.i.i.i.i

if.then.i.i.i.i.i.i.i.i.i.i:                      ; preds = %for.body.i.i.i.i.i
  tail call void @_ZdlPv(ptr noundef nonnull %3) #25
  br label %_ZSt8_DestroyIN9grpc_core17EndpointAddressesEEvPT_.exit.i.i.i.i.i

_ZSt8_DestroyIN9grpc_core17EndpointAddressesEEvPT_.exit.i.i.i.i.i: ; preds = %if.then.i.i.i.i.i.i.i.i.i.i, %for.body.i.i.i.i.i
  %incdec.ptr.i.i.i.i.i = getelementptr inbounds %"class.grpc_core::EndpointAddresses", ptr %__first.addr.04.i.i.i.i.i, i64 1
  %cmp.not.i.i.i.i.i = icmp eq ptr %incdec.ptr.i.i.i.i.i, %2
  br i1 %cmp.not.i.i.i.i.i, label %invoke.contthread-pre-split.i.i, label %for.body.i.i.i.i.i, !llvm.loop !28

invoke.contthread-pre-split.i.i:                  ; preds = %_ZSt8_DestroyIN9grpc_core17EndpointAddressesEEvPT_.exit.i.i.i.i.i
  %.pr.i.i = load ptr, ptr %0, align 8
  br label %invoke.cont.i.i

invoke.cont.i.i:                                  ; preds = %invoke.contthread-pre-split.i.i, %delete.notnull.i
  %4 = phi ptr [ %.pr.i.i, %invoke.contthread-pre-split.i.i ], [ %1, %delete.notnull.i ]
  %tobool.not.i.i.i.i = icmp eq ptr %4, null
  br i1 %tobool.not.i.i.i.i, label %_ZNKSt14default_deleteISt6vectorIN9grpc_core17EndpointAddressesESaIS2_EEEclEPS4_.exit, label %if.then.i.i.i.i

if.then.i.i.i.i:                                  ; preds = %invoke.cont.i.i
  tail call void @_ZdlPv(ptr noundef nonnull %4) #25
  br label %_ZNKSt14default_deleteISt6vectorIN9grpc_core17EndpointAddressesESaIS2_EEEclEPS4_.exit

_ZNKSt14default_deleteISt6vectorIN9grpc_core17EndpointAddressesESaIS2_EEEclEPS4_.exit: ; preds = %invoke.cont.i.i, %if.then.i.i.i.i
  tail call void @_ZdlPv(ptr noundef nonnull %0) #25
  br label %if.end

if.end:                                           ; preds = %_ZNKSt14default_deleteISt6vectorIN9grpc_core17EndpointAddressesESaIS2_EEEclEPS4_.exit, %entry
  store ptr null, ptr %this, align 8
  ret void
}

; Function Attrs: mustprogress nounwind uwtable
define linkonce_odr void @_ZNSt10unique_ptrI17grpc_ares_requestSt14default_deleteIS0_EED2Ev(ptr noundef nonnull align 8 dereferenceable(8) %this) unnamed_addr #3 comdat align 2 personality ptr @__gxx_personality_v0 {
entry:
  %0 = load ptr, ptr %this, align 8
  %cmp.not = icmp eq ptr %0, null
  br i1 %cmp.not, label %if.end, label %delete.notnull.i

delete.notnull.i:                                 ; preds = %entry
  %error.i.i = getelementptr inbounds %struct.grpc_ares_request, ptr %0, i64 0, i32 8
  %1 = load i64, ptr %error.i.i, align 8
  %and.i.i.i.i.i = and i64 %1, 1
  %cmp.i.i.i.i.i = icmp eq i64 %and.i.i.i.i.i, 0
  br i1 %cmp.i.i.i.i.i, label %_ZNKSt14default_deleteI17grpc_ares_requestEclEPS0_.exit, label %if.then.i.i.i.i

if.then.i.i.i.i:                                  ; preds = %delete.notnull.i
  invoke void @_ZN4absl12lts_202308026Status15UnrefNonInlinedEm(i64 noundef %1)
          to label %_ZNKSt14default_deleteI17grpc_ares_requestEclEPS0_.exit unwind label %terminate.lpad.i.i.i

terminate.lpad.i.i.i:                             ; preds = %if.then.i.i.i.i
  %2 = landingpad { ptr, i32 }
          catch ptr null
  %3 = extractvalue { ptr, i32 } %2, 0
  tail call void @__clang_call_terminate(ptr %3) #24
  unreachable

_ZNKSt14default_deleteI17grpc_ares_requestEclEPS0_.exit: ; preds = %delete.notnull.i, %if.then.i.i.i.i
  tail call void @_ZN4absl12lts_202308025MutexD1Ev(ptr noundef nonnull align 8 dereferenceable(8) %0) #22
  tail call void @_ZdlPv(ptr noundef nonnull %0) #25
  br label %if.end

if.end:                                           ; preds = %_ZNKSt14default_deleteI17grpc_ares_requestEclEPS0_.exit, %entry
  store ptr null, ptr %this, align 8
  ret void
}

; Function Attrs: nounwind
declare void @_ZN4absl12lts_202308025MutexD1Ev(ptr noundef nonnull align 8 dereferenceable(8)) unnamed_addr #1

; Function Attrs: mustprogress uwtable
define internal void @_ZN9grpc_core12_GLOBAL__N_128AresClientChannelDNSResolver18AresRequestWrapper6OrphanEv(ptr noundef nonnull align 8 dereferenceable(176) %this) unnamed_addr #5 align 2 personality ptr @__gxx_personality_v0 {
entry:
  %on_resolved_mu_ = getelementptr inbounds %"class.grpc_core::(anonymous namespace)::AresClientChannelDNSResolver::AresRequestWrapper", ptr %this, i64 0, i32 1
  tail call void @_ZN4absl12lts_202308025Mutex4LockEv(ptr noundef nonnull align 8 dereferenceable(8) %on_resolved_mu_)
  %hostname_request_ = getelementptr inbounds %"class.grpc_core::(anonymous namespace)::AresClientChannelDNSResolver::AresRequestWrapper", ptr %this, i64 0, i32 4
  %0 = load ptr, ptr %hostname_request_, align 8
  %cmp.i.i.not = icmp eq ptr %0, null
  br i1 %cmp.i.i.not, label %if.end, label %if.then

if.then:                                          ; preds = %entry
  %1 = load ptr, ptr @grpc_cancel_ares_request, align 8
  invoke void %1(ptr noundef nonnull %0)
          to label %if.end unwind label %lpad

lpad:                                             ; preds = %if.then11, %if.then5, %if.then
  %2 = landingpad { ptr, i32 }
          cleanup
  invoke void @_ZN4absl12lts_202308025Mutex6UnlockEv(ptr noundef nonnull align 8 dereferenceable(8) %on_resolved_mu_)
          to label %_ZN4absl12lts_202308029MutexLockD2Ev.exit unwind label %terminate.lpad.i

terminate.lpad.i:                                 ; preds = %lpad
  %3 = landingpad { ptr, i32 }
          catch ptr null
  %4 = extractvalue { ptr, i32 } %3, 0
  tail call void @__clang_call_terminate(ptr %4) #24
  unreachable

_ZN4absl12lts_202308029MutexLockD2Ev.exit:        ; preds = %lpad
  resume { ptr, i32 } %2

if.end:                                           ; preds = %if.then, %entry
  %srv_request_ = getelementptr inbounds %"class.grpc_core::(anonymous namespace)::AresClientChannelDNSResolver::AresRequestWrapper", ptr %this, i64 0, i32 6
  %5 = load ptr, ptr %srv_request_, align 8
  %cmp.i.i1.not = icmp eq ptr %5, null
  br i1 %cmp.i.i1.not, label %if.end9, label %if.then5

if.then5:                                         ; preds = %if.end
  %6 = load ptr, ptr @grpc_cancel_ares_request, align 8
  invoke void %6(ptr noundef nonnull %5)
          to label %if.end9 unwind label %lpad

if.end9:                                          ; preds = %if.then5, %if.end
  %txt_request_ = getelementptr inbounds %"class.grpc_core::(anonymous namespace)::AresClientChannelDNSResolver::AresRequestWrapper", ptr %this, i64 0, i32 8
  %7 = load ptr, ptr %txt_request_, align 8
  %cmp.i.i2.not = icmp eq ptr %7, null
  br i1 %cmp.i.i2.not, label %if.end15, label %if.then11

if.then11:                                        ; preds = %if.end9
  %8 = load ptr, ptr @grpc_cancel_ares_request, align 8
  invoke void %8(ptr noundef nonnull %7)
          to label %if.end15 unwind label %lpad

if.end15:                                         ; preds = %if.then11, %if.end9
  invoke void @_ZN4absl12lts_202308025Mutex6UnlockEv(ptr noundef nonnull align 8 dereferenceable(8) %on_resolved_mu_)
          to label %_ZN4absl12lts_202308029MutexLockD2Ev.exit4 unwind label %terminate.lpad.i3

terminate.lpad.i3:                                ; preds = %if.end15
  %9 = landingpad { ptr, i32 }
          catch ptr null
  %10 = extractvalue { ptr, i32 } %9, 0
  tail call void @__clang_call_terminate(ptr %10) #24
  unreachable

_ZN4absl12lts_202308029MutexLockD2Ev.exit4:       ; preds = %if.end15
  %refs_.i = getelementptr inbounds %"class.grpc_core::InternallyRefCounted.161", ptr %this, i64 0, i32 1
  %11 = atomicrmw sub ptr %refs_.i, i64 1 acq_rel, align 8
  %cmp.i.i5 = icmp eq i64 %11, 1
  br i1 %cmp.i.i5, label %if.then.i, label %_ZN9grpc_core20InternallyRefCountedINS_12_GLOBAL__N_128AresClientChannelDNSResolver18AresRequestWrapperENS_11UnrefDeleteEE5UnrefERKNS_13DebugLocationEPKc.exit

if.then.i:                                        ; preds = %_ZN4absl12lts_202308029MutexLockD2Ev.exit4
  %vtable.i.i = load ptr, ptr %this, align 8
  %vfn.i.i = getelementptr inbounds ptr, ptr %vtable.i.i, i64 2
  %12 = load ptr, ptr %vfn.i.i, align 8
  tail call void %12(ptr noundef nonnull align 8 dereferenceable(176) %this) #22
  br label %_ZN9grpc_core20InternallyRefCountedINS_12_GLOBAL__N_128AresClientChannelDNSResolver18AresRequestWrapperENS_11UnrefDeleteEE5UnrefERKNS_13DebugLocationEPKc.exit

_ZN9grpc_core20InternallyRefCountedINS_12_GLOBAL__N_128AresClientChannelDNSResolver18AresRequestWrapperENS_11UnrefDeleteEE5UnrefERKNS_13DebugLocationEPKc.exit: ; preds = %_ZN4absl12lts_202308029MutexLockD2Ev.exit4, %if.then.i
  ret void
}

; Function Attrs: mustprogress nounwind uwtable
define internal void @_ZN9grpc_core12_GLOBAL__N_128AresClientChannelDNSResolver18AresRequestWrapperD2Ev(ptr noundef nonnull align 8 dereferenceable(176) %this) unnamed_addr #3 align 2 personality ptr @__gxx_personality_v0 {
entry:
  store ptr getelementptr inbounds ({ [5 x ptr] }, ptr @_ZTVN9grpc_core12_GLOBAL__N_128AresClientChannelDNSResolver18AresRequestWrapperE, i64 0, inrange i32 0, i64 2), ptr %this, align 8
  %service_config_json_ = getelementptr inbounds %"class.grpc_core::(anonymous namespace)::AresClientChannelDNSResolver::AresRequestWrapper", ptr %this, i64 0, i32 11
  %0 = load ptr, ptr %service_config_json_, align 8
  invoke void @gpr_free(ptr noundef %0)
          to label %invoke.cont unwind label %terminate.lpad

invoke.cont:                                      ; preds = %entry
  %resolver_ = getelementptr inbounds %"class.grpc_core::(anonymous namespace)::AresClientChannelDNSResolver::AresRequestWrapper", ptr %this, i64 0, i32 2
  %1 = load ptr, ptr %resolver_, align 8
  store ptr null, ptr %resolver_, align 8
  %cmp.not.i = icmp eq ptr %1, null
  br i1 %cmp.not.i, label %invoke.cont3, label %if.then.i

if.then.i:                                        ; preds = %invoke.cont
  %refs_.i.i = getelementptr inbounds %"class.grpc_core::InternallyRefCounted", ptr %1, i64 0, i32 1
  %2 = atomicrmw sub ptr %refs_.i.i, i64 1 acq_rel, align 8
  %cmp.i.i.i = icmp eq i64 %2, 1
  br i1 %cmp.i.i.i, label %if.then.i.i, label %invoke.cont3

if.then.i.i:                                      ; preds = %if.then.i
  %vtable.i.i.i = load ptr, ptr %1, align 8
  %vfn.i.i.i = getelementptr inbounds ptr, ptr %vtable.i.i.i, i64 2
  %3 = load ptr, ptr %vfn.i.i.i, align 8
  tail call void %3(ptr noundef nonnull align 8 dereferenceable(16) %1) #22
  br label %invoke.cont3

invoke.cont3:                                     ; preds = %if.then.i.i, %if.then.i, %invoke.cont
  %balancer_addresses_ = getelementptr inbounds %"class.grpc_core::(anonymous namespace)::AresClientChannelDNSResolver::AresRequestWrapper", ptr %this, i64 0, i32 10
  %4 = load ptr, ptr %balancer_addresses_, align 8
  %cmp.not.i1 = icmp eq ptr %4, null
  br i1 %cmp.not.i1, label %_ZNSt10unique_ptrISt6vectorIN9grpc_core17EndpointAddressesESaIS2_EESt14default_deleteIS4_EED2Ev.exit, label %delete.notnull.i.i

delete.notnull.i.i:                               ; preds = %invoke.cont3
  %5 = load ptr, ptr %4, align 8
  %_M_finish.i.i.i = getelementptr inbounds %"struct.std::_Vector_base<grpc_core::EndpointAddresses, std::allocator<grpc_core::EndpointAddresses>>::_Vector_impl_data", ptr %4, i64 0, i32 1
  %6 = load ptr, ptr %_M_finish.i.i.i, align 8
  %cmp.not3.i.i.i.i.i.i = icmp eq ptr %5, %6
  br i1 %cmp.not3.i.i.i.i.i.i, label %invoke.cont.i.i.i, label %for.body.i.i.i.i.i.i

for.body.i.i.i.i.i.i:                             ; preds = %delete.notnull.i.i, %_ZSt8_DestroyIN9grpc_core17EndpointAddressesEEvPT_.exit.i.i.i.i.i.i
  %__first.addr.04.i.i.i.i.i.i = phi ptr [ %incdec.ptr.i.i.i.i.i.i, %_ZSt8_DestroyIN9grpc_core17EndpointAddressesEEvPT_.exit.i.i.i.i.i.i ], [ %5, %delete.notnull.i.i ]
  %args_.i.i.i.i.i.i.i.i = getelementptr inbounds %"class.grpc_core::EndpointAddresses", ptr %__first.addr.04.i.i.i.i.i.i, i64 0, i32 1
  tail call void @_ZN9grpc_core11ChannelArgsD1Ev(ptr noundef nonnull align 8 dereferenceable(8) %args_.i.i.i.i.i.i.i.i) #22
  %7 = load ptr, ptr %__first.addr.04.i.i.i.i.i.i, align 8
  %tobool.not.i.i.i.i.i.i.i.i.i.i.i = icmp eq ptr %7, null
  br i1 %tobool.not.i.i.i.i.i.i.i.i.i.i.i, label %_ZSt8_DestroyIN9grpc_core17EndpointAddressesEEvPT_.exit.i.i.i.i.i.i, label %if.then.i.i.i.i.i.i.i.i.i.i.i

if.then.i.i.i.i.i.i.i.i.i.i.i:                    ; preds = %for.body.i.i.i.i.i.i
  tail call void @_ZdlPv(ptr noundef nonnull %7) #25
  br label %_ZSt8_DestroyIN9grpc_core17EndpointAddressesEEvPT_.exit.i.i.i.i.i.i

_ZSt8_DestroyIN9grpc_core17EndpointAddressesEEvPT_.exit.i.i.i.i.i.i: ; preds = %if.then.i.i.i.i.i.i.i.i.i.i.i, %for.body.i.i.i.i.i.i
  %incdec.ptr.i.i.i.i.i.i = getelementptr inbounds %"class.grpc_core::EndpointAddresses", ptr %__first.addr.04.i.i.i.i.i.i, i64 1
  %cmp.not.i.i.i.i.i.i = icmp eq ptr %incdec.ptr.i.i.i.i.i.i, %6
  br i1 %cmp.not.i.i.i.i.i.i, label %invoke.contthread-pre-split.i.i.i, label %for.body.i.i.i.i.i.i, !llvm.loop !28

invoke.contthread-pre-split.i.i.i:                ; preds = %_ZSt8_DestroyIN9grpc_core17EndpointAddressesEEvPT_.exit.i.i.i.i.i.i
  %.pr.i.i.i = load ptr, ptr %4, align 8
  br label %invoke.cont.i.i.i

invoke.cont.i.i.i:                                ; preds = %invoke.contthread-pre-split.i.i.i, %delete.notnull.i.i
  %8 = phi ptr [ %.pr.i.i.i, %invoke.contthread-pre-split.i.i.i ], [ %5, %delete.notnull.i.i ]
  %tobool.not.i.i.i.i.i = icmp eq ptr %8, null
  br i1 %tobool.not.i.i.i.i.i, label %_ZNKSt14default_deleteISt6vectorIN9grpc_core17EndpointAddressesESaIS2_EEEclEPS4_.exit.i, label %if.then.i.i.i.i.i

if.then.i.i.i.i.i:                                ; preds = %invoke.cont.i.i.i
  tail call void @_ZdlPv(ptr noundef nonnull %8) #25
  br label %_ZNKSt14default_deleteISt6vectorIN9grpc_core17EndpointAddressesESaIS2_EEEclEPS4_.exit.i

_ZNKSt14default_deleteISt6vectorIN9grpc_core17EndpointAddressesESaIS2_EEEclEPS4_.exit.i: ; preds = %if.then.i.i.i.i.i, %invoke.cont.i.i.i
  tail call void @_ZdlPv(ptr noundef nonnull %4) #25
  br label %_ZNSt10unique_ptrISt6vectorIN9grpc_core17EndpointAddressesESaIS2_EESt14default_deleteIS4_EED2Ev.exit

_ZNSt10unique_ptrISt6vectorIN9grpc_core17EndpointAddressesESaIS2_EESt14default_deleteIS4_EED2Ev.exit: ; preds = %invoke.cont3, %_ZNKSt14default_deleteISt6vectorIN9grpc_core17EndpointAddressesESaIS2_EEEclEPS4_.exit.i
  store ptr null, ptr %balancer_addresses_, align 8
  %addresses_ = getelementptr inbounds %"class.grpc_core::(anonymous namespace)::AresClientChannelDNSResolver::AresRequestWrapper", ptr %this, i64 0, i32 9
  %9 = load ptr, ptr %addresses_, align 8
  %cmp.not.i2 = icmp eq ptr %9, null
  br i1 %cmp.not.i2, label %_ZNSt10unique_ptrISt6vectorIN9grpc_core17EndpointAddressesESaIS2_EESt14default_deleteIS4_EED2Ev.exit20, label %delete.notnull.i.i3

delete.notnull.i.i3:                              ; preds = %_ZNSt10unique_ptrISt6vectorIN9grpc_core17EndpointAddressesESaIS2_EESt14default_deleteIS4_EED2Ev.exit
  %10 = load ptr, ptr %9, align 8
  %_M_finish.i.i.i4 = getelementptr inbounds %"struct.std::_Vector_base<grpc_core::EndpointAddresses, std::allocator<grpc_core::EndpointAddresses>>::_Vector_impl_data", ptr %9, i64 0, i32 1
  %11 = load ptr, ptr %_M_finish.i.i.i4, align 8
  %cmp.not3.i.i.i.i.i.i5 = icmp eq ptr %10, %11
  br i1 %cmp.not3.i.i.i.i.i.i5, label %invoke.cont.i.i.i16, label %for.body.i.i.i.i.i.i6

for.body.i.i.i.i.i.i6:                            ; preds = %delete.notnull.i.i3, %_ZSt8_DestroyIN9grpc_core17EndpointAddressesEEvPT_.exit.i.i.i.i.i.i11
  %__first.addr.04.i.i.i.i.i.i7 = phi ptr [ %incdec.ptr.i.i.i.i.i.i12, %_ZSt8_DestroyIN9grpc_core17EndpointAddressesEEvPT_.exit.i.i.i.i.i.i11 ], [ %10, %delete.notnull.i.i3 ]
  %args_.i.i.i.i.i.i.i.i8 = getelementptr inbounds %"class.grpc_core::EndpointAddresses", ptr %__first.addr.04.i.i.i.i.i.i7, i64 0, i32 1
  tail call void @_ZN9grpc_core11ChannelArgsD1Ev(ptr noundef nonnull align 8 dereferenceable(8) %args_.i.i.i.i.i.i.i.i8) #22
  %12 = load ptr, ptr %__first.addr.04.i.i.i.i.i.i7, align 8
  %tobool.not.i.i.i.i.i.i.i.i.i.i.i9 = icmp eq ptr %12, null
  br i1 %tobool.not.i.i.i.i.i.i.i.i.i.i.i9, label %_ZSt8_DestroyIN9grpc_core17EndpointAddressesEEvPT_.exit.i.i.i.i.i.i11, label %if.then.i.i.i.i.i.i.i.i.i.i.i10

if.then.i.i.i.i.i.i.i.i.i.i.i10:                  ; preds = %for.body.i.i.i.i.i.i6
  tail call void @_ZdlPv(ptr noundef nonnull %12) #25
  br label %_ZSt8_DestroyIN9grpc_core17EndpointAddressesEEvPT_.exit.i.i.i.i.i.i11

_ZSt8_DestroyIN9grpc_core17EndpointAddressesEEvPT_.exit.i.i.i.i.i.i11: ; preds = %if.then.i.i.i.i.i.i.i.i.i.i.i10, %for.body.i.i.i.i.i.i6
  %incdec.ptr.i.i.i.i.i.i12 = getelementptr inbounds %"class.grpc_core::EndpointAddresses", ptr %__first.addr.04.i.i.i.i.i.i7, i64 1
  %cmp.not.i.i.i.i.i.i13 = icmp eq ptr %incdec.ptr.i.i.i.i.i.i12, %11
  br i1 %cmp.not.i.i.i.i.i.i13, label %invoke.contthread-pre-split.i.i.i14, label %for.body.i.i.i.i.i.i6, !llvm.loop !28

invoke.contthread-pre-split.i.i.i14:              ; preds = %_ZSt8_DestroyIN9grpc_core17EndpointAddressesEEvPT_.exit.i.i.i.i.i.i11
  %.pr.i.i.i15 = load ptr, ptr %9, align 8
  br label %invoke.cont.i.i.i16

invoke.cont.i.i.i16:                              ; preds = %invoke.contthread-pre-split.i.i.i14, %delete.notnull.i.i3
  %13 = phi ptr [ %.pr.i.i.i15, %invoke.contthread-pre-split.i.i.i14 ], [ %10, %delete.notnull.i.i3 ]
  %tobool.not.i.i.i.i.i17 = icmp eq ptr %13, null
  br i1 %tobool.not.i.i.i.i.i17, label %_ZNKSt14default_deleteISt6vectorIN9grpc_core17EndpointAddressesESaIS2_EEEclEPS4_.exit.i19, label %if.then.i.i.i.i.i18

if.then.i.i.i.i.i18:                              ; preds = %invoke.cont.i.i.i16
  tail call void @_ZdlPv(ptr noundef nonnull %13) #25
  br label %_ZNKSt14default_deleteISt6vectorIN9grpc_core17EndpointAddressesESaIS2_EEEclEPS4_.exit.i19

_ZNKSt14default_deleteISt6vectorIN9grpc_core17EndpointAddressesESaIS2_EEEclEPS4_.exit.i19: ; preds = %if.then.i.i.i.i.i18, %invoke.cont.i.i.i16
  tail call void @_ZdlPv(ptr noundef nonnull %9) #25
  br label %_ZNSt10unique_ptrISt6vectorIN9grpc_core17EndpointAddressesESaIS2_EESt14default_deleteIS4_EED2Ev.exit20

_ZNSt10unique_ptrISt6vectorIN9grpc_core17EndpointAddressesESaIS2_EESt14default_deleteIS4_EED2Ev.exit20: ; preds = %_ZNSt10unique_ptrISt6vectorIN9grpc_core17EndpointAddressesESaIS2_EESt14default_deleteIS4_EED2Ev.exit, %_ZNKSt14default_deleteISt6vectorIN9grpc_core17EndpointAddressesESaIS2_EEEclEPS4_.exit.i19
  store ptr null, ptr %addresses_, align 8
  %txt_request_ = getelementptr inbounds %"class.grpc_core::(anonymous namespace)::AresClientChannelDNSResolver::AresRequestWrapper", ptr %this, i64 0, i32 8
  %14 = load ptr, ptr %txt_request_, align 8
  %cmp.not.i21 = icmp eq ptr %14, null
  br i1 %cmp.not.i21, label %_ZNSt10unique_ptrI17grpc_ares_requestSt14default_deleteIS0_EED2Ev.exit, label %delete.notnull.i.i22

delete.notnull.i.i22:                             ; preds = %_ZNSt10unique_ptrISt6vectorIN9grpc_core17EndpointAddressesESaIS2_EESt14default_deleteIS4_EED2Ev.exit20
  %error.i.i.i = getelementptr inbounds %struct.grpc_ares_request, ptr %14, i64 0, i32 8
  %15 = load i64, ptr %error.i.i.i, align 8
  %and.i.i.i.i.i.i = and i64 %15, 1
  %cmp.i.i.i.i.i.i = icmp eq i64 %and.i.i.i.i.i.i, 0
  br i1 %cmp.i.i.i.i.i.i, label %_ZNKSt14default_deleteI17grpc_ares_requestEclEPS0_.exit.i, label %if.then.i.i.i.i.i23

if.then.i.i.i.i.i23:                              ; preds = %delete.notnull.i.i22
  invoke void @_ZN4absl12lts_202308026Status15UnrefNonInlinedEm(i64 noundef %15)
          to label %_ZNKSt14default_deleteI17grpc_ares_requestEclEPS0_.exit.i unwind label %terminate.lpad.i.i.i.i

terminate.lpad.i.i.i.i:                           ; preds = %if.then.i.i.i.i.i23
  %16 = landingpad { ptr, i32 }
          catch ptr null
  %17 = extractvalue { ptr, i32 } %16, 0
  tail call void @__clang_call_terminate(ptr %17) #24
  unreachable

_ZNKSt14default_deleteI17grpc_ares_requestEclEPS0_.exit.i: ; preds = %if.then.i.i.i.i.i23, %delete.notnull.i.i22
  tail call void @_ZN4absl12lts_202308025MutexD1Ev(ptr noundef nonnull align 8 dereferenceable(8) %14) #22
  tail call void @_ZdlPv(ptr noundef nonnull %14) #25
  br label %_ZNSt10unique_ptrI17grpc_ares_requestSt14default_deleteIS0_EED2Ev.exit

_ZNSt10unique_ptrI17grpc_ares_requestSt14default_deleteIS0_EED2Ev.exit: ; preds = %_ZNSt10unique_ptrISt6vectorIN9grpc_core17EndpointAddressesESaIS2_EESt14default_deleteIS4_EED2Ev.exit20, %_ZNKSt14default_deleteI17grpc_ares_requestEclEPS0_.exit.i
  store ptr null, ptr %txt_request_, align 8
  %srv_request_ = getelementptr inbounds %"class.grpc_core::(anonymous namespace)::AresClientChannelDNSResolver::AresRequestWrapper", ptr %this, i64 0, i32 6
  %18 = load ptr, ptr %srv_request_, align 8
  %cmp.not.i24 = icmp eq ptr %18, null
  br i1 %cmp.not.i24, label %_ZNSt10unique_ptrI17grpc_ares_requestSt14default_deleteIS0_EED2Ev.exit32, label %delete.notnull.i.i25

delete.notnull.i.i25:                             ; preds = %_ZNSt10unique_ptrI17grpc_ares_requestSt14default_deleteIS0_EED2Ev.exit
  %error.i.i.i26 = getelementptr inbounds %struct.grpc_ares_request, ptr %18, i64 0, i32 8
  %19 = load i64, ptr %error.i.i.i26, align 8
  %and.i.i.i.i.i.i27 = and i64 %19, 1
  %cmp.i.i.i.i.i.i28 = icmp eq i64 %and.i.i.i.i.i.i27, 0
  br i1 %cmp.i.i.i.i.i.i28, label %_ZNKSt14default_deleteI17grpc_ares_requestEclEPS0_.exit.i31, label %if.then.i.i.i.i.i29

if.then.i.i.i.i.i29:                              ; preds = %delete.notnull.i.i25
  invoke void @_ZN4absl12lts_202308026Status15UnrefNonInlinedEm(i64 noundef %19)
          to label %_ZNKSt14default_deleteI17grpc_ares_requestEclEPS0_.exit.i31 unwind label %terminate.lpad.i.i.i.i30

terminate.lpad.i.i.i.i30:                         ; preds = %if.then.i.i.i.i.i29
  %20 = landingpad { ptr, i32 }
          catch ptr null
  %21 = extractvalue { ptr, i32 } %20, 0
  tail call void @__clang_call_terminate(ptr %21) #24
  unreachable

_ZNKSt14default_deleteI17grpc_ares_requestEclEPS0_.exit.i31: ; preds = %if.then.i.i.i.i.i29, %delete.notnull.i.i25
  tail call void @_ZN4absl12lts_202308025MutexD1Ev(ptr noundef nonnull align 8 dereferenceable(8) %18) #22
  tail call void @_ZdlPv(ptr noundef nonnull %18) #25
  br label %_ZNSt10unique_ptrI17grpc_ares_requestSt14default_deleteIS0_EED2Ev.exit32

_ZNSt10unique_ptrI17grpc_ares_requestSt14default_deleteIS0_EED2Ev.exit32: ; preds = %_ZNSt10unique_ptrI17grpc_ares_requestSt14default_deleteIS0_EED2Ev.exit, %_ZNKSt14default_deleteI17grpc_ares_requestEclEPS0_.exit.i31
  store ptr null, ptr %srv_request_, align 8
  %hostname_request_ = getelementptr inbounds %"class.grpc_core::(anonymous namespace)::AresClientChannelDNSResolver::AresRequestWrapper", ptr %this, i64 0, i32 4
  %22 = load ptr, ptr %hostname_request_, align 8
  %cmp.not.i33 = icmp eq ptr %22, null
  br i1 %cmp.not.i33, label %_ZNSt10unique_ptrI17grpc_ares_requestSt14default_deleteIS0_EED2Ev.exit41, label %delete.notnull.i.i34

delete.notnull.i.i34:                             ; preds = %_ZNSt10unique_ptrI17grpc_ares_requestSt14default_deleteIS0_EED2Ev.exit32
  %error.i.i.i35 = getelementptr inbounds %struct.grpc_ares_request, ptr %22, i64 0, i32 8
  %23 = load i64, ptr %error.i.i.i35, align 8
  %and.i.i.i.i.i.i36 = and i64 %23, 1
  %cmp.i.i.i.i.i.i37 = icmp eq i64 %and.i.i.i.i.i.i36, 0
  br i1 %cmp.i.i.i.i.i.i37, label %_ZNKSt14default_deleteI17grpc_ares_requestEclEPS0_.exit.i40, label %if.then.i.i.i.i.i38

if.then.i.i.i.i.i38:                              ; preds = %delete.notnull.i.i34
  invoke void @_ZN4absl12lts_202308026Status15UnrefNonInlinedEm(i64 noundef %23)
          to label %_ZNKSt14default_deleteI17grpc_ares_requestEclEPS0_.exit.i40 unwind label %terminate.lpad.i.i.i.i39

terminate.lpad.i.i.i.i39:                         ; preds = %if.then.i.i.i.i.i38
  %24 = landingpad { ptr, i32 }
          catch ptr null
  %25 = extractvalue { ptr, i32 } %24, 0
  tail call void @__clang_call_terminate(ptr %25) #24
  unreachable

_ZNKSt14default_deleteI17grpc_ares_requestEclEPS0_.exit.i40: ; preds = %if.then.i.i.i.i.i38, %delete.notnull.i.i34
  tail call void @_ZN4absl12lts_202308025MutexD1Ev(ptr noundef nonnull align 8 dereferenceable(8) %22) #22
  tail call void @_ZdlPv(ptr noundef nonnull %22) #25
  br label %_ZNSt10unique_ptrI17grpc_ares_requestSt14default_deleteIS0_EED2Ev.exit41

_ZNSt10unique_ptrI17grpc_ares_requestSt14default_deleteIS0_EED2Ev.exit41: ; preds = %_ZNSt10unique_ptrI17grpc_ares_requestSt14default_deleteIS0_EED2Ev.exit32, %_ZNKSt14default_deleteI17grpc_ares_requestEclEPS0_.exit.i40
  store ptr null, ptr %hostname_request_, align 8
  %resolver_.val = load ptr, ptr %resolver_, align 8
  %cmp.not.i42 = icmp eq ptr %resolver_.val, null
  br i1 %cmp.not.i42, label %_ZN9grpc_core13RefCountedPtrINS_12_GLOBAL__N_128AresClientChannelDNSResolverEED2Ev.exit, label %if.then.i43

if.then.i43:                                      ; preds = %_ZNSt10unique_ptrI17grpc_ares_requestSt14default_deleteIS0_EED2Ev.exit41
  %refs_.i.i44 = getelementptr inbounds %"class.grpc_core::InternallyRefCounted", ptr %resolver_.val, i64 0, i32 1
  %26 = atomicrmw sub ptr %refs_.i.i44, i64 1 acq_rel, align 8
  %cmp.i.i.i45 = icmp eq i64 %26, 1
  br i1 %cmp.i.i.i45, label %if.then.i.i46, label %_ZN9grpc_core13RefCountedPtrINS_12_GLOBAL__N_128AresClientChannelDNSResolverEED2Ev.exit

if.then.i.i46:                                    ; preds = %if.then.i43
  %vtable.i.i.i47 = load ptr, ptr %resolver_.val, align 8
  %vfn.i.i.i48 = getelementptr inbounds ptr, ptr %vtable.i.i.i47, i64 2
  %27 = load ptr, ptr %vfn.i.i.i48, align 8
  tail call void %27(ptr noundef nonnull align 8 dereferenceable(16) %resolver_.val) #22
  br label %_ZN9grpc_core13RefCountedPtrINS_12_GLOBAL__N_128AresClientChannelDNSResolverEED2Ev.exit

_ZN9grpc_core13RefCountedPtrINS_12_GLOBAL__N_128AresClientChannelDNSResolverEED2Ev.exit: ; preds = %_ZNSt10unique_ptrI17grpc_ares_requestSt14default_deleteIS0_EED2Ev.exit41, %if.then.i43, %if.then.i.i46
  %on_resolved_mu_ = getelementptr inbounds %"class.grpc_core::(anonymous namespace)::AresClientChannelDNSResolver::AresRequestWrapper", ptr %this, i64 0, i32 1
  tail call void @_ZN4absl12lts_202308025MutexD1Ev(ptr noundef nonnull align 8 dereferenceable(8) %on_resolved_mu_) #22
  ret void

terminate.lpad:                                   ; preds = %entry
  %28 = landingpad { ptr, i32 }
          catch ptr null
  %29 = extractvalue { ptr, i32 } %28, 0
  tail call void @__clang_call_terminate(ptr %29) #24
  unreachable
}

; Function Attrs: mustprogress nounwind uwtable
define internal void @_ZN9grpc_core12_GLOBAL__N_128AresClientChannelDNSResolver18AresRequestWrapperD0Ev(ptr noundef nonnull align 8 dereferenceable(176) %this) unnamed_addr #3 align 2 {
entry:
  tail call void @_ZN9grpc_core12_GLOBAL__N_128AresClientChannelDNSResolver18AresRequestWrapperD2Ev(ptr noundef nonnull align 8 dereferenceable(176) %this) #22
  tail call void @_ZdlPv(ptr noundef nonnull %this) #25
  ret void
}

declare void @_ZN4absl12lts_202308025Mutex4LockEv(ptr noundef nonnull align 8 dereferenceable(8)) local_unnamed_addr #0

; Function Attrs: mustprogress uwtable
define internal fastcc void @_ZN9grpc_core12_GLOBAL__N_128AresClientChannelDNSResolver18AresRequestWrapper16OnResolvedLockedEN4absl12lts_202308026StatusE(ptr noalias align 8 %agg.result, ptr noundef nonnull align 8 dereferenceable(176) %this, ptr noundef %error) unnamed_addr #5 align 2 personality ptr @__gxx_personality_v0 {
entry:
  %ref.tmp.i = alloca %"class.absl::lts_20230802::Status", align 8
  %result = alloca %"struct.grpc_core::Resolver::Result", align 8
  %service_config_string = alloca %"class.absl::lts_20230802::StatusOr.210", align 8
  %ref.tmp = alloca %"class.absl::lts_20230802::Status", align 8
  %ref.tmp49 = alloca %"class.std::__cxx11::basic_string", align 8
  %ref.tmp50 = alloca %"class.absl::lts_20230802::AlphaNum", align 8
  %ref.tmp52 = alloca %"class.absl::lts_20230802::AlphaNum", align 8
  %ref.tmp53 = alloca %"class.std::__cxx11::basic_string", align 8
  %ref.tmp81 = alloca %"class.absl::lts_20230802::StatusOr.197", align 8
  %ref.tmp100 = alloca %"class.absl::lts_20230802::Status", align 8
  %ref.tmp102 = alloca %"class.std::__cxx11::basic_string", align 8
  %ref.tmp103 = alloca %"class.absl::lts_20230802::AlphaNum", align 8
  %ref.tmp105 = alloca %"class.absl::lts_20230802::AlphaNum", align 8
  %ref.tmp131 = alloca %"class.grpc_core::ChannelArgs", align 8
  %agg.tmp133 = alloca %"class.std::vector.192", align 8
  %ref.tmp147 = alloca %"class.std::__cxx11::basic_string", align 8
  %error_message = alloca %"class.std::__cxx11::basic_string", align 8
  %agg.tmp156 = alloca %"class.absl::lts_20230802::Status", align 8
  %status = alloca %"class.absl::lts_20230802::Status", align 8
  %ref.tmp164 = alloca %"class.std::__cxx11::basic_string", align 8
  %ref.tmp165 = alloca %"class.absl::lts_20230802::AlphaNum", align 8
  %ref.tmp167 = alloca %"class.absl::lts_20230802::AlphaNum", align 8
  %ref.tmp174 = alloca %"class.absl::lts_20230802::AlphaNum", align 8
  %ref.tmp176 = alloca %"class.absl::lts_20230802::AlphaNum", align 8
  %hostname_request_ = getelementptr inbounds %"class.grpc_core::(anonymous namespace)::AresClientChannelDNSResolver::AresRequestWrapper", ptr %this, i64 0, i32 4
  %0 = load ptr, ptr %hostname_request_, align 8
  %cmp.i.i = icmp ne ptr %0, null
  %srv_request_ = getelementptr inbounds %"class.grpc_core::(anonymous namespace)::AresClientChannelDNSResolver::AresRequestWrapper", ptr %this, i64 0, i32 6
  %1 = load ptr, ptr %srv_request_, align 8
  %cmp.i.i12 = icmp ne ptr %1, null
  %or.cond = select i1 %cmp.i.i, i1 true, i1 %cmp.i.i12
  %txt_request_ = getelementptr inbounds %"class.grpc_core::(anonymous namespace)::AresClientChannelDNSResolver::AresRequestWrapper", ptr %this, i64 0, i32 8
  %2 = load ptr, ptr %txt_request_, align 8
  %cmp.i.i13 = icmp ne ptr %2, null
  %or.cond67 = select i1 %or.cond, i1 true, i1 %cmp.i.i13
  %3 = load atomic i8, ptr getelementptr inbounds (%"class.grpc_core::TraceFlag", ptr @grpc_trace_cares_resolver, i64 0, i32 2) monotonic, align 8
  %4 = and i8 %3, 1
  %tobool.i.i.i.not = icmp eq i8 %4, 0
  br i1 %or.cond67, label %do.body, label %do.body16

do.body:                                          ; preds = %entry
  br i1 %tobool.i.i.i.not, label %do.end, label %if.then6

if.then6:                                         ; preds = %do.body
  %cond = select i1 %cmp.i.i, ptr @.str.19, ptr @.str.20
  %cmp.i.i15.not = icmp eq ptr %1, null
  %cond11 = select i1 %cmp.i.i15.not, ptr @.str.20, ptr @.str.19
  %cmp.i.i16.not = icmp eq ptr %2, null
  %cond14 = select i1 %cmp.i.i16.not, ptr @.str.20, ptr @.str.19
  tail call void (ptr, i32, i32, ptr, ...) @gpr_log(ptr noundef nonnull @.str.2, i32 noundef 289, i32 noundef 0, ptr noundef nonnull @.str.18, ptr noundef nonnull %this, ptr noundef nonnull %cond, ptr noundef nonnull %cond11, ptr noundef nonnull %cond14)
  br label %do.end

do.end:                                           ; preds = %do.body, %if.then6
  %_M_engaged.i.i.i.i.i = getelementptr inbounds %"struct.std::_Optional_payload_base.189", ptr %agg.result, i64 0, i32 1
  store i8 0, ptr %_M_engaged.i.i.i.i.i, align 8
  br label %return

do.body16:                                        ; preds = %entry
  br i1 %tobool.i.i.i.not, label %do.end20, label %if.then18

if.then18:                                        ; preds = %do.body16
  tail call void (ptr, i32, i32, ptr, ...) @gpr_log(ptr noundef nonnull @.str.2, i32 noundef 292, i32 noundef 0, ptr noundef nonnull @.str.21, ptr noundef nonnull %this)
  br label %do.end20

do.end20:                                         ; preds = %do.body16, %if.then18
  call void @_ZN4absl12lts_202308028StatusOrISt6vectorIN9grpc_core17EndpointAddressesESaIS4_EEEC2Ev(ptr noundef nonnull align 8 dereferenceable(32) %result)
  %service_config.i = getelementptr inbounds %"struct.grpc_core::Resolver::Result", ptr %result, i64 0, i32 1
  call void @llvm.memset.p0.i64(ptr noundef nonnull align 8 dereferenceable(16) %service_config.i, i8 0, i64 16, i1 false)
  %resolution_note.i = getelementptr inbounds %"struct.grpc_core::Resolver::Result", ptr %result, i64 0, i32 2
  call void @_ZNSt7__cxx1112basic_stringIcSt11char_traitsIcESaIcEEC1Ev(ptr noundef nonnull align 8 dereferenceable(32) %resolution_note.i) #22
  %args.i = getelementptr inbounds %"struct.grpc_core::Resolver::Result", ptr %result, i64 0, i32 3
  invoke void @_ZN9grpc_core11ChannelArgsC1Ev(ptr noundef nonnull align 8 dereferenceable(8) %args.i)
          to label %_ZN9grpc_core8Resolver6ResultC2Ev.exit unwind label %lpad2.i

common.resume:                                    ; preds = %ehcleanup193, %lpad2.i
  %common.resume.op = phi { ptr, i32 } [ %5, %lpad2.i ], [ %.pn8, %ehcleanup193 ]
  resume { ptr, i32 } %common.resume.op

lpad2.i:                                          ; preds = %do.end20
  %5 = landingpad { ptr, i32 }
          cleanup
  call void @_ZNSt7__cxx1112basic_stringIcSt11char_traitsIcESaIcEED1Ev(ptr noundef nonnull align 8 dereferenceable(32) %resolution_note.i) #22
  call void @_ZN4absl12lts_202308028StatusOrIN9grpc_core13RefCountedPtrINS2_13ServiceConfigEEEED2Ev(ptr noundef nonnull align 8 dereferenceable(16) %service_config.i) #22
  call void @_ZN4absl12lts_202308028StatusOrISt6vectorIN9grpc_core17EndpointAddressesESaIS4_EEED2Ev(ptr noundef nonnull align 8 dereferenceable(32) %result) #22
  br label %common.resume

_ZN9grpc_core8Resolver6ResultC2Ev.exit:           ; preds = %do.end20
