; ModuleID = 'bench/grpc/original/json_object_loader.cc.ll'
source_filename = "bench/grpc/original/json_object_loader.cc.ll"
target datalayout = "e-m:e-p270:32:32-p271:32:32-p272:64:64-i64:64-i128:128-f80:128-n8:16:32:64-S128"
target triple = "x86_64-unknown-linux-gnu"

%"class.std::ios_base::Init" = type { i8 }
%"class.grpc_core::NoDestruct" = type { [8 x i8] }
%"class.std::__cxx11::basic_string" = type { %"struct.std::__cxx11::basic_string<char>::_Alloc_hider", i64, %union.anon }
%"struct.std::__cxx11::basic_string<char>::_Alloc_hider" = type { ptr }
%union.anon = type { i64, [8 x i8] }
%"class.absl::lts_20230802::AlphaNum" = type { %"class.std::basic_string_view", [32 x i8] }
%"class.std::basic_string_view" = type { i64, ptr }
%"struct.std::__detail::__variant::_Variant_storage" = type { %"union.std::__detail::__variant::_Variadic_union", i8, [7 x i8] }
%"union.std::__detail::__variant::_Variadic_union" = type { %"union.std::__detail::__variant::_Variadic_union.0" }
%"union.std::__detail::__variant::_Variadic_union.0" = type { %"union.std::__detail::__variant::_Variadic_union.2" }
%"union.std::__detail::__variant::_Variadic_union.2" = type { %"union.std::__detail::__variant::_Variadic_union.4" }
%"union.std::__detail::__variant::_Variadic_union.4" = type { %"union.std::__detail::__variant::_Variadic_union.7" }
%"union.std::__detail::__variant::_Variadic_union.7" = type { %"struct.std::__detail::__variant::_Uninitialized.8" }
%"struct.std::__detail::__variant::_Uninitialized.8" = type { %"struct.__gnu_cxx::__aligned_membuf.9" }
%"struct.__gnu_cxx::__aligned_membuf.9" = type { [48 x i8] }
%"class.std::bad_variant_access" = type { %"class.std::exception", ptr }
%"class.std::exception" = type { ptr }
%class.anon.55 = type { ptr }
%class.anon.36 = type { i8 }
%"struct.std::_Vector_base<grpc_core::experimental::Json, std::allocator<grpc_core::experimental::Json>>::_Vector_impl_data" = type { ptr, ptr, ptr }
%"class.grpc_core::experimental::Json" = type { %"class.std::variant" }
%"class.std::variant" = type { %"struct.std::__detail::__variant::_Variant_base.base", [7 x i8] }
%"struct.std::__detail::__variant::_Variant_base.base" = type { %"struct.std::__detail::__variant::_Move_assign_base.base" }
%"struct.std::__detail::__variant::_Move_assign_base.base" = type { %"struct.std::__detail::__variant::_Copy_assign_base.base" }
%"struct.std::__detail::__variant::_Copy_assign_base.base" = type { %"struct.std::__detail::__variant::_Move_ctor_base.base" }
%"struct.std::__detail::__variant::_Move_ctor_base.base" = type { %"struct.std::__detail::__variant::_Copy_ctor_base.base" }
%"struct.std::__detail::__variant::_Copy_ctor_base.base" = type { %"struct.std::__detail::__variant::_Variant_storage.base" }
%"struct.std::__detail::__variant::_Variant_storage.base" = type { %"union.std::__detail::__variant::_Variadic_union", i8 }
%"class.grpc_core::ValidationErrors::ScopedField" = type { ptr }
%"struct.std::_Bvector_base<std::allocator<bool>>::_Bvector_impl_data" = type { %"struct.std::_Bit_iterator", %"struct.std::_Bit_iterator", ptr }
%"struct.std::_Bit_iterator" = type { %"struct.std::_Bit_iterator_base.base", [4 x i8] }
%"struct.std::_Bit_iterator_base.base" = type <{ ptr, i32 }>
%"struct.std::_Rb_tree_node" = type { %"struct.std::_Rb_tree_node_base", %"struct.__gnu_cxx::__aligned_membuf.35" }
%"struct.std::_Rb_tree_node_base" = type { i32, ptr, ptr, ptr }
%"struct.__gnu_cxx::__aligned_membuf.35" = type { [88 x i8] }
%"class.std::allocator.17" = type { i8 }
%"struct.grpc_core::json_detail::Element" = type { ptr, i16, i8, ptr, ptr }
%"struct.std::__cxx11::basic_string<char>::__sv_wrapper" = type { %"class.std::basic_string_view" }
%"struct.std::_Rb_tree<std::__cxx11::basic_string<char>, std::pair<const std::__cxx11::basic_string<char>, grpc_core::experimental::Json>, std::_Select1st<std::pair<const std::__cxx11::basic_string<char>, grpc_core::experimental::Json>>, std::less<std::__cxx11::basic_string<char>>>::_Reuse_or_alloc_node" = type { ptr, ptr, ptr }
%"struct.std::pair" = type { %"class.std::__cxx11::basic_string", %"class.grpc_core::experimental::Json" }
%"struct.std::_Rb_tree<std::__cxx11::basic_string<char>, std::pair<const std::__cxx11::basic_string<char>, grpc_core::experimental::Json>, std::_Select1st<std::pair<const std::__cxx11::basic_string<char>, grpc_core::experimental::Json>>, std::less<std::__cxx11::basic_string<char>>>::_Alloc_node" = type { ptr }
%struct._Guard = type { ptr }
%class.anon.58 = type { ptr }

$_ZNSt6vectorIN9grpc_core12experimental4JsonESaIS2_EEaSERKS4_ = comdat any

$_ZN9grpc_core16ValidationErrors11ScopedFieldD2Ev = comdat any

$_ZN9grpc_core19NoDestructSingletonINS_11json_detail10AutoLoaderIbEEE6value_E = comdat any

$_ZNSt18bad_variant_accessD2Ev = comdat any

$_ZNSt18bad_variant_accessD0Ev = comdat any

$_ZNKSt18bad_variant_access4whatEv = comdat any

$__clang_call_terminate = comdat any

$_ZN4absl12lts_2023080228StripTrailingAsciiWhitespaceESt17basic_string_viewIcSt11char_traitsIcEE = comdat any

$_ZN4absl12lts_2023080227StripLeadingAsciiWhitespaceESt17basic_string_viewIcSt11char_traitsIcEE = comdat any

$_ZNSt8_Rb_treeINSt7__cxx1112basic_stringIcSt11char_traitsIcESaIcEEESt4pairIKS5_N9grpc_core12experimental4JsonEESt10_Select1stISB_ESt4lessIS5_ESaISB_EEaSERKSH_ = comdat any

$_ZNSt8_Rb_treeINSt7__cxx1112basic_stringIcSt11char_traitsIcESaIcEEESt4pairIKS5_N9grpc_core12experimental4JsonEESt10_Select1stISB_ESt4lessIS5_ESaISB_EE20_Reuse_or_alloc_nodeD2Ev = comdat any

$_ZNSt8_Rb_treeINSt7__cxx1112basic_stringIcSt11char_traitsIcESaIcEEESt4pairIKS5_N9grpc_core12experimental4JsonEESt10_Select1stISB_ESt4lessIS5_ESaISB_EE7_M_copyILb0ENSH_20_Reuse_or_alloc_nodeEEEPSt13_Rb_tree_nodeISB_ESM_PSt18_Rb_tree_node_baseRT0_ = comdat any

$_ZNSt8_Rb_treeINSt7__cxx1112basic_stringIcSt11char_traitsIcESaIcEEESt4pairIKS5_N9grpc_core12experimental4JsonEESt10_Select1stISB_ESt4lessIS5_ESaISB_EE8_M_eraseEPSt13_Rb_tree_nodeISB_E = comdat any

$_ZNSt8_Rb_treeINSt7__cxx1112basic_stringIcSt11char_traitsIcESaIcEEESt4pairIKS5_N9grpc_core12experimental4JsonEESt10_Select1stISB_ESt4lessIS5_ESaISB_EE20_Reuse_or_alloc_nodeclIRKSB_EEPSt13_Rb_tree_nodeISB_EOT_ = comdat any

$_ZNSt8_Rb_treeINSt7__cxx1112basic_stringIcSt11char_traitsIcESaIcEEESt4pairIKS5_N9grpc_core12experimental4JsonEESt10_Select1stISB_ESt4lessIS5_ESaISB_EE17_M_construct_nodeIJRKSB_EEEvPSt13_Rb_tree_nodeISB_EDpOT_ = comdat any

$_ZNSt8__detail9__variant16_Variant_storageILb0EJSt9monostatebN9grpc_core12experimental4Json11NumberValueENSt7__cxx1112basic_stringIcSt11char_traitsIcESaIcEEESt3mapISC_S5_St4lessISC_ESaISt4pairIKSC_S5_EEESt6vectorIS5_SaIS5_EEEED2Ev = comdat any

$_ZSt10__do_visitIvZNSt8__detail9__variant16_Variant_storageILb0EJSt9monostatebN9grpc_core12experimental4Json11NumberValueENSt7__cxx1112basic_stringIcSt11char_traitsIcESaIcEEESt3mapISD_S6_St4lessISD_ESaISt4pairIKSD_S6_EEESt6vectorIS6_SaIS6_EEEE8_M_resetEvEUlOT_E_JRSt7variantIJS3_bS7_SD_SL_SO_EEEEDcOT0_DpOT1_ = comdat any

$_ZSt8_DestroyIPN9grpc_core12experimental4JsonEEvT_S4_ = comdat any

$_ZNSt8__detail9__variant17_Copy_assign_baseILb0EJSt9monostatebN9grpc_core12experimental4Json11NumberValueENSt7__cxx1112basic_stringIcSt11char_traitsIcESaIcEEESt3mapISC_S5_St4lessISC_ESaISt4pairIKSC_S5_EEESt6vectorIS5_SaIS5_EEEEC2ERKSO_ = comdat any

$_ZNSt8_Rb_treeINSt7__cxx1112basic_stringIcSt11char_traitsIcESaIcEEESt4pairIKS5_N9grpc_core12experimental4JsonEESt10_Select1stISB_ESt4lessIS5_ESaISB_EE7_M_copyILb0ENSH_11_Alloc_nodeEEEPSt13_Rb_tree_nodeISB_ESM_PSt18_Rb_tree_node_baseRT0_ = comdat any

$_ZNSt6vectorIN9grpc_core12experimental4JsonESaIS2_EEC2ERKS4_ = comdat any

$_ZNSt7__cxx1112basic_stringIcSt11char_traitsIcESaIcEE12_M_constructIPKcEEvT_S8_St20forward_iterator_tag = comdat any

$_ZZNSt7__cxx1112basic_stringIcSt11char_traitsIcESaIcEE12_M_constructIPKcEEvT_S8_St20forward_iterator_tagEN6_GuardD2Ev = comdat any

$_ZNSt6vectorIN9grpc_core12experimental4JsonESaIS2_EE20_M_allocate_and_copyIN9__gnu_cxx17__normal_iteratorIPKS2_S4_EEEEPS2_mT_SC_ = comdat any

$_ZSt10__do_visitINSt8__detail9__variant20__variant_idx_cookieEZNS1_17_Copy_assign_baseILb0EJSt9monostatebN9grpc_core12experimental4Json11NumberValueENSt7__cxx1112basic_stringIcSt11char_traitsIcESaIcEEESt3mapISE_S7_St4lessISE_ESaISt4pairIKSE_S7_EEESt6vectorIS7_SaIS7_EEEEaSERKSQ_EUlOT_T0_E_JRKSt7variantIJS4_bS8_SE_SM_SP_EEEEDcOSV_DpOT1_ = comdat any

$_ZZNSt8__detail9__variant17_Copy_assign_baseILb0EJSt9monostatebN9grpc_core12experimental4Json11NumberValueENSt7__cxx1112basic_stringIcSt11char_traitsIcESaIcEEESt3mapISC_S5_St4lessISC_ESaISt4pairIKSC_S5_EEESt6vectorIS5_SaIS5_EEEEaSERKSO_ENUlOT_T0_E_clIRKS6_St17integral_constantImLm2EEEEDaSS_ST_ = comdat any

$_ZSt10__do_visitINSt8__detail9__variant20__variant_idx_cookieEZNS1_17_Move_assign_baseILb0EJSt9monostatebN9grpc_core12experimental4Json11NumberValueENSt7__cxx1112basic_stringIcSt11char_traitsIcESaIcEEESt3mapISE_S7_St4lessISE_ESaISt4pairIKSE_S7_EEESt6vectorIS7_SaIS7_EEEEaSEOSQ_EUlOT_T0_E_JRSt7variantIJS4_bS8_SE_SM_SP_EEEEDcOSU_DpOT1_ = comdat any

$_ZZNSt8__detail9__variant17_Move_assign_baseILb0EJSt9monostatebN9grpc_core12experimental4Json11NumberValueENSt7__cxx1112basic_stringIcSt11char_traitsIcESaIcEEESt3mapISC_S5_St4lessISC_ESaISt4pairIKSC_S5_EEESt6vectorIS5_SaIS5_EEEEaSEOSO_ENUlOT_T0_E_clIRSK_St17integral_constantImLm4EEEEDaSR_SS_ = comdat any

$_ZZNSt8__detail9__variant17_Move_assign_baseILb0EJSt9monostatebN9grpc_core12experimental4Json11NumberValueENSt7__cxx1112basic_stringIcSt11char_traitsIcESaIcEEESt3mapISC_S5_St4lessISC_ESaISt4pairIKSC_S5_EEESt6vectorIS5_SaIS5_EEEEaSEOSO_ENUlOT_T0_E_clIRSN_St17integral_constantImLm5EEEEDaSR_SS_ = comdat any

$_ZZNSt8__detail9__variant17_Copy_assign_baseILb0EJSt9monostatebN9grpc_core12experimental4Json11NumberValueENSt7__cxx1112basic_stringIcSt11char_traitsIcESaIcEEESt3mapISC_S5_St4lessISC_ESaISt4pairIKSC_S5_EEESt6vectorIS5_SaIS5_EEEEaSERKSO_ENUlOT_T0_E_clIRSH_St17integral_constantImLm3EEEEDaSS_ST_ = comdat any

$_ZZNSt8__detail9__variant17_Copy_assign_baseILb0EJSt9monostatebN9grpc_core12experimental4Json11NumberValueENSt7__cxx1112basic_stringIcSt11char_traitsIcESaIcEEESt3mapISC_S5_St4lessISC_ESaISt4pairIKSC_S5_EEESt6vectorIS5_SaIS5_EEEEaSERKSO_ENUlOT_T0_E_clIRKSK_St17integral_constantImLm4EEEEDaSS_ST_ = comdat any

$_ZZNSt8__detail9__variant17_Copy_assign_baseILb0EJSt9monostatebN9grpc_core12experimental4Json11NumberValueENSt7__cxx1112basic_stringIcSt11char_traitsIcESaIcEEESt3mapISC_S5_St4lessISC_ESaISt4pairIKSC_S5_EEESt6vectorIS5_SaIS5_EEEEaSERKSO_ENUlOT_T0_E_clIRKSN_St17integral_constantImLm5EEEEDaSS_ST_ = comdat any

$_ZNSt6vectorIbSaIbEE13_M_insert_auxESt13_Bit_iteratorb = comdat any

$_ZTSN9grpc_core11json_detail15LoaderInterfaceE = comdat any

$_ZTIN9grpc_core11json_detail15LoaderInterfaceE = comdat any

$_ZTSSt18bad_variant_access = comdat any

$_ZTISt18bad_variant_access = comdat any

$_ZTVSt18bad_variant_access = comdat any

$_ZTVN9grpc_core11json_detail10AutoLoaderIbEE = comdat any

$_ZTSN9grpc_core11json_detail10AutoLoaderIbEE = comdat any

$_ZTIN9grpc_core11json_detail10AutoLoaderIbEE = comdat any

@_ZStL8__ioinit = internal global %"class.std::ios_base::Init" zeroinitializer, align 1
@__dso_handle = external hidden global i8
@.str = private unnamed_addr constant [10 x i8] c"is not a \00", align 1
@.str.1 = private unnamed_addr constant [7 x i8] c"number\00", align 1
@.str.2 = private unnamed_addr constant [7 x i8] c"string\00", align 1
@.str.4 = private unnamed_addr constant [29 x i8] c"Not a duration (no s suffix)\00", align 1
@.str.5 = private unnamed_addr constant [45 x i8] c"Not a duration (not a number of nanoseconds)\00", align 1
@.str.6 = private unnamed_addr constant [47 x i8] c"Not a duration (too many digits after decimal)\00", align 1
@.str.7 = private unnamed_addr constant [41 x i8] c"Not a duration (not a number of seconds)\00", align 1
@.str.8 = private unnamed_addr constant [47 x i8] c"seconds must be in the range [0, 315576000000]\00", align 1
@.str.9 = private unnamed_addr constant [17 x i8] c"is not a boolean\00", align 1
@.str.10 = private unnamed_addr constant [17 x i8] c"is not an object\00", align 1
@.str.11 = private unnamed_addr constant [16 x i8] c"is not an array\00", align 1
@.str.12 = private unnamed_addr constant [2 x i8] c"[\00", align 1
@.str.13 = private unnamed_addr constant [2 x i8] c"]\00", align 1
@.str.14 = private unnamed_addr constant [3 x i8] c"[\22\00", align 1
@.str.15 = private unnamed_addr constant [3 x i8] c"\22]\00", align 1
@.str.16 = private unnamed_addr constant [2 x i8] c".\00", align 1
@.str.17 = private unnamed_addr constant [18 x i8] c"field not present\00", align 1
@_ZTVN9grpc_core11json_detail10LoadScalarE = unnamed_addr constant { [5 x ptr] } { [5 x ptr] [ptr null, ptr @_ZTIN9grpc_core11json_detail10LoadScalarE, ptr @_ZNK9grpc_core11json_detail10LoadScalar8LoadIntoERKNS_12experimental4JsonERKNS_8JsonArgsEPvPNS_16ValidationErrorsE, ptr @__cxa_pure_virtual, ptr @__cxa_pure_virtual] }, align 8
@_ZTVN10__cxxabiv120__si_class_type_infoE = external global [0 x ptr]
@_ZTSN9grpc_core11json_detail10LoadScalarE = constant [38 x i8] c"N9grpc_core11json_detail10LoadScalarE\00", align 1
@_ZTVN10__cxxabiv117__class_type_infoE = external global [0 x ptr]
@_ZTSN9grpc_core11json_detail15LoaderInterfaceE = linkonce_odr constant [43 x i8] c"N9grpc_core11json_detail15LoaderInterfaceE\00", comdat, align 1
@_ZTIN9grpc_core11json_detail15LoaderInterfaceE = linkonce_odr constant { ptr, ptr } { ptr getelementptr inbounds (ptr, ptr @_ZTVN10__cxxabiv117__class_type_infoE, i64 2), ptr @_ZTSN9grpc_core11json_detail15LoaderInterfaceE }, comdat, align 8
@_ZTIN9grpc_core11json_detail10LoadScalarE = constant { ptr, ptr, ptr } { ptr getelementptr inbounds (ptr, ptr @_ZTVN10__cxxabiv120__si_class_type_infoE, i64 2), ptr @_ZTSN9grpc_core11json_detail10LoadScalarE, ptr @_ZTIN9grpc_core11json_detail15LoaderInterfaceE }, align 8
@_ZTVN9grpc_core11json_detail10LoadStringE = unnamed_addr constant { [5 x ptr] } { [5 x ptr] [ptr null, ptr @_ZTIN9grpc_core11json_detail10LoadStringE, ptr @_ZNK9grpc_core11json_detail10LoadScalar8LoadIntoERKNS_12experimental4JsonERKNS_8JsonArgsEPvPNS_16ValidationErrorsE, ptr @_ZNK9grpc_core11json_detail10LoadString8IsNumberEv, ptr @_ZNK9grpc_core11json_detail10LoadString8LoadIntoERKNSt7__cxx1112basic_stringIcSt11char_traitsIcESaIcEEEPvPNS_16ValidationErrorsE] }, align 8
@_ZTSN9grpc_core11json_detail10LoadStringE = constant [38 x i8] c"N9grpc_core11json_detail10LoadStringE\00", align 1
@_ZTIN9grpc_core11json_detail10LoadStringE = constant { ptr, ptr, ptr } { ptr getelementptr inbounds (ptr, ptr @_ZTVN10__cxxabiv120__si_class_type_infoE, i64 2), ptr @_ZTSN9grpc_core11json_detail10LoadStringE, ptr @_ZTIN9grpc_core11json_detail10LoadScalarE }, align 8
@_ZTVN9grpc_core11json_detail12LoadDurationE = unnamed_addr constant { [5 x ptr] } { [5 x ptr] [ptr null, ptr @_ZTIN9grpc_core11json_detail12LoadDurationE, ptr @_ZNK9grpc_core11json_detail10LoadScalar8LoadIntoERKNS_12experimental4JsonERKNS_8JsonArgsEPvPNS_16ValidationErrorsE, ptr @_ZNK9grpc_core11json_detail12LoadDuration8IsNumberEv, ptr @_ZNK9grpc_core11json_detail12LoadDuration8LoadIntoERKNSt7__cxx1112basic_stringIcSt11char_traitsIcESaIcEEEPvPNS_16ValidationErrorsE] }, align 8
@_ZTSN9grpc_core11json_detail12LoadDurationE = constant [40 x i8] c"N9grpc_core11json_detail12LoadDurationE\00", align 1
@_ZTIN9grpc_core11json_detail12LoadDurationE = constant { ptr, ptr, ptr } { ptr getelementptr inbounds (ptr, ptr @_ZTVN10__cxxabiv120__si_class_type_infoE, i64 2), ptr @_ZTSN9grpc_core11json_detail12LoadDurationE, ptr @_ZTIN9grpc_core11json_detail10LoadScalarE }, align 8
@_ZTVN9grpc_core11json_detail10LoadNumberE = unnamed_addr constant { [5 x ptr] } { [5 x ptr] [ptr null, ptr @_ZTIN9grpc_core11json_detail10LoadNumberE, ptr @_ZNK9grpc_core11json_detail10LoadScalar8LoadIntoERKNS_12experimental4JsonERKNS_8JsonArgsEPvPNS_16ValidationErrorsE, ptr @_ZNK9grpc_core11json_detail10LoadNumber8IsNumberEv, ptr @__cxa_pure_virtual] }, align 8
@_ZTSN9grpc_core11json_detail10LoadNumberE = constant [38 x i8] c"N9grpc_core11json_detail10LoadNumberE\00", align 1
@_ZTIN9grpc_core11json_detail10LoadNumberE = constant { ptr, ptr, ptr } { ptr getelementptr inbounds (ptr, ptr @_ZTVN10__cxxabiv120__si_class_type_infoE, i64 2), ptr @_ZTSN9grpc_core11json_detail10LoadNumberE, ptr @_ZTIN9grpc_core11json_detail10LoadScalarE }, align 8
@_ZTVN9grpc_core11json_detail8LoadBoolE = unnamed_addr constant { [3 x ptr] } { [3 x ptr] [ptr null, ptr @_ZTIN9grpc_core11json_detail8LoadBoolE, ptr @_ZNK9grpc_core11json_detail8LoadBool8LoadIntoERKNS_12experimental4JsonERKNS_8JsonArgsEPvPNS_16ValidationErrorsE] }, align 8
@_ZTSN9grpc_core11json_detail8LoadBoolE = constant [35 x i8] c"N9grpc_core11json_detail8LoadBoolE\00", align 1
@_ZTIN9grpc_core11json_detail8LoadBoolE = constant { ptr, ptr, ptr } { ptr getelementptr inbounds (ptr, ptr @_ZTVN10__cxxabiv120__si_class_type_infoE, i64 2), ptr @_ZTSN9grpc_core11json_detail8LoadBoolE, ptr @_ZTIN9grpc_core11json_detail15LoaderInterfaceE }, align 8
@_ZTVN9grpc_core11json_detail25LoadUnprocessedJsonObjectE = unnamed_addr constant { [3 x ptr] } { [3 x ptr] [ptr null, ptr @_ZTIN9grpc_core11json_detail25LoadUnprocessedJsonObjectE, ptr @_ZNK9grpc_core11json_detail25LoadUnprocessedJsonObject8LoadIntoERKNS_12experimental4JsonERKNS_8JsonArgsEPvPNS_16ValidationErrorsE] }, align 8
@_ZTSN9grpc_core11json_detail25LoadUnprocessedJsonObjectE = constant [53 x i8] c"N9grpc_core11json_detail25LoadUnprocessedJsonObjectE\00", align 1
@_ZTIN9grpc_core11json_detail25LoadUnprocessedJsonObjectE = constant { ptr, ptr, ptr } { ptr getelementptr inbounds (ptr, ptr @_ZTVN10__cxxabiv120__si_class_type_infoE, i64 2), ptr @_ZTSN9grpc_core11json_detail25LoadUnprocessedJsonObjectE, ptr @_ZTIN9grpc_core11json_detail15LoaderInterfaceE }, align 8
@_ZTVN9grpc_core11json_detail24LoadUnprocessedJsonArrayE = unnamed_addr constant { [3 x ptr] } { [3 x ptr] [ptr null, ptr @_ZTIN9grpc_core11json_detail24LoadUnprocessedJsonArrayE, ptr @_ZNK9grpc_core11json_detail24LoadUnprocessedJsonArray8LoadIntoERKNS_12experimental4JsonERKNS_8JsonArgsEPvPNS_16ValidationErrorsE] }, align 8
@_ZTSN9grpc_core11json_detail24LoadUnprocessedJsonArrayE = constant [52 x i8] c"N9grpc_core11json_detail24LoadUnprocessedJsonArrayE\00", align 1
@_ZTIN9grpc_core11json_detail24LoadUnprocessedJsonArrayE = constant { ptr, ptr, ptr } { ptr getelementptr inbounds (ptr, ptr @_ZTVN10__cxxabiv120__si_class_type_infoE, i64 2), ptr @_ZTSN9grpc_core11json_detail24LoadUnprocessedJsonArrayE, ptr @_ZTIN9grpc_core11json_detail15LoaderInterfaceE }, align 8
@_ZTVN9grpc_core11json_detail10LoadVectorE = unnamed_addr constant { [5 x ptr] } { [5 x ptr] [ptr null, ptr @_ZTIN9grpc_core11json_detail10LoadVectorE, ptr @_ZNK9grpc_core11json_detail10LoadVector8LoadIntoERKNS_12experimental4JsonERKNS_8JsonArgsEPvPNS_16ValidationErrorsE, ptr @__cxa_pure_virtual, ptr @__cxa_pure_virtual] }, align 8
@_ZTSN9grpc_core11json_detail10LoadVectorE = constant [38 x i8] c"N9grpc_core11json_detail10LoadVectorE\00", align 1
@_ZTIN9grpc_core11json_detail10LoadVectorE = constant { ptr, ptr, ptr } { ptr getelementptr inbounds (ptr, ptr @_ZTVN10__cxxabiv120__si_class_type_infoE, i64 2), ptr @_ZTSN9grpc_core11json_detail10LoadVectorE, ptr @_ZTIN9grpc_core11json_detail15LoaderInterfaceE }, align 8
@_ZTVN9grpc_core11json_detail10AutoLoaderISt6vectorIbSaIbEEEE = unnamed_addr constant { [3 x ptr] } { [3 x ptr] [ptr null, ptr @_ZTIN9grpc_core11json_detail10AutoLoaderISt6vectorIbSaIbEEEE, ptr @_ZNK9grpc_core11json_detail10AutoLoaderISt6vectorIbSaIbEEE8LoadIntoERKNS_12experimental4JsonERKNS_8JsonArgsEPvPNS_16ValidationErrorsE] }, align 8
@_ZTSN9grpc_core11json_detail10AutoLoaderISt6vectorIbSaIbEEEE = constant [57 x i8] c"N9grpc_core11json_detail10AutoLoaderISt6vectorIbSaIbEEEE\00", align 1
@_ZTIN9grpc_core11json_detail10AutoLoaderISt6vectorIbSaIbEEEE = constant { ptr, ptr, ptr } { ptr getelementptr inbounds (ptr, ptr @_ZTVN10__cxxabiv120__si_class_type_infoE, i64 2), ptr @_ZTSN9grpc_core11json_detail10AutoLoaderISt6vectorIbSaIbEEEE, ptr @_ZTIN9grpc_core11json_detail15LoaderInterfaceE }, align 8
@_ZTVN9grpc_core11json_detail7LoadMapE = unnamed_addr constant { [5 x ptr] } { [5 x ptr] [ptr null, ptr @_ZTIN9grpc_core11json_detail7LoadMapE, ptr @_ZNK9grpc_core11json_detail7LoadMap8LoadIntoERKNS_12experimental4JsonERKNS_8JsonArgsEPvPNS_16ValidationErrorsE, ptr @__cxa_pure_virtual, ptr @__cxa_pure_virtual] }, align 8
@_ZTSN9grpc_core11json_detail7LoadMapE = constant [34 x i8] c"N9grpc_core11json_detail7LoadMapE\00", align 1
@_ZTIN9grpc_core11json_detail7LoadMapE = constant { ptr, ptr, ptr } { ptr getelementptr inbounds (ptr, ptr @_ZTVN10__cxxabiv120__si_class_type_infoE, i64 2), ptr @_ZTSN9grpc_core11json_detail7LoadMapE, ptr @_ZTIN9grpc_core11json_detail15LoaderInterfaceE }, align 8
@_ZTVN9grpc_core11json_detail11LoadWrappedE = unnamed_addr constant { [6 x ptr] } { [6 x ptr] [ptr null, ptr @_ZTIN9grpc_core11json_detail11LoadWrappedE, ptr @_ZNK9grpc_core11json_detail11LoadWrapped8LoadIntoERKNS_12experimental4JsonERKNS_8JsonArgsEPvPNS_16ValidationErrorsE, ptr @__cxa_pure_virtual, ptr @__cxa_pure_virtual, ptr @__cxa_pure_virtual] }, align 8
@_ZTSN9grpc_core11json_detail11LoadWrappedE = constant [39 x i8] c"N9grpc_core11json_detail11LoadWrappedE\00", align 1
@_ZTIN9grpc_core11json_detail11LoadWrappedE = constant { ptr, ptr, ptr } { ptr getelementptr inbounds (ptr, ptr @_ZTVN10__cxxabiv120__si_class_type_infoE, i64 2), ptr @_ZTSN9grpc_core11json_detail11LoadWrappedE, ptr @_ZTIN9grpc_core11json_detail15LoaderInterfaceE }, align 8
@_ZN9grpc_core19NoDestructSingletonINS_11json_detail10AutoLoaderIbEEE6value_E = linkonce_odr global %"class.grpc_core::NoDestruct" zeroinitializer, comdat, align 8
@_ZGVN9grpc_core19NoDestructSingletonINS_11json_detail10AutoLoaderIbEEE6value_E = linkonce_odr local_unnamed_addr global i64 0, comdat($_ZN9grpc_core19NoDestructSingletonINS_11json_detail10AutoLoaderIbEEE6value_E), align 8
@.str.19 = private unnamed_addr constant [33 x i8] c"std::visit: variant is valueless\00", align 1
@_ZTSSt18bad_variant_access = linkonce_odr constant [23 x i8] c"St18bad_variant_access\00", comdat, align 1
@_ZTISt9exception = external constant ptr
@_ZTISt18bad_variant_access = linkonce_odr constant { ptr, ptr, ptr } { ptr getelementptr inbounds (ptr, ptr @_ZTVN10__cxxabiv120__si_class_type_infoE, i64 2), ptr @_ZTSSt18bad_variant_access, ptr @_ZTISt9exception }, comdat, align 8
@_ZTVSt18bad_variant_access = linkonce_odr unnamed_addr constant { [5 x ptr] } { [5 x ptr] [ptr null, ptr @_ZTISt18bad_variant_access, ptr @_ZNSt18bad_variant_accessD2Ev, ptr @_ZNSt18bad_variant_accessD0Ev, ptr @_ZNKSt18bad_variant_access4whatEv] }, comdat, align 8
@.str.20 = private unnamed_addr constant [31 x i8] c"std::get: variant is valueless\00", align 1
@.str.21 = private unnamed_addr constant [34 x i8] c"std::get: wrong index for variant\00", align 1
@_ZN4absl12lts_2023080214ascii_internal13kPropertyBitsE = external local_unnamed_addr constant [256 x i8], align 16
@.str.22 = private unnamed_addr constant [26 x i8] c"basic_string_view::substr\00", align 1
@.str.23 = private unnamed_addr constant [49 x i8] c"%s: __pos (which is %zu) > __size (which is %zu)\00", align 1
@.str.24 = private unnamed_addr constant [50 x i8] c"basic_string: construction from null is not valid\00", align 1
@_ZTVN9grpc_core11json_detail10AutoLoaderIbEE = linkonce_odr unnamed_addr constant { [3 x ptr] } { [3 x ptr] [ptr null, ptr @_ZTIN9grpc_core11json_detail10AutoLoaderIbEE, ptr @_ZNK9grpc_core11json_detail8LoadBool8LoadIntoERKNS_12experimental4JsonERKNS_8JsonArgsEPvPNS_16ValidationErrorsE] }, comdat, align 8
@_ZTSN9grpc_core11json_detail10AutoLoaderIbEE = linkonce_odr constant [41 x i8] c"N9grpc_core11json_detail10AutoLoaderIbEE\00", comdat, align 1
@_ZTIN9grpc_core11json_detail10AutoLoaderIbEE = linkonce_odr constant { ptr, ptr, ptr } { ptr getelementptr inbounds (ptr, ptr @_ZTVN10__cxxabiv120__si_class_type_infoE, i64 2), ptr @_ZTSN9grpc_core11json_detail10AutoLoaderIbEE, ptr @_ZTIN9grpc_core11json_detail8LoadBoolE }, comdat, align 8
@.str.25 = private unnamed_addr constant [28 x i8] c"vector<bool>::_M_insert_aux\00", align 1
@llvm.global_ctors = appending global [2 x { i32, ptr, ptr }] [{ i32, ptr, ptr } { i32 65535, ptr @__cxx_global_var_init.18, ptr @_ZN9grpc_core19NoDestructSingletonINS_11json_detail10AutoLoaderIbEEE6value_E }, { i32, ptr, ptr } { i32 65535, ptr @_GLOBAL__sub_I_json_object_loader.cc, ptr null }]
@llvm.used = appending global [1 x ptr] [ptr @_ZN9grpc_core19NoDestructSingletonINS_11json_detail10AutoLoaderIbEEE6value_E], section "llvm.metadata"

declare void @_ZNSt8ios_base4InitC1Ev(ptr noundef nonnull align 1 dereferenceable(1)) unnamed_addr #0

; Function Attrs: nounwind
declare void @_ZNSt8ios_base4InitD1Ev(ptr noundef nonnull align 1 dereferenceable(1)) unnamed_addr #1

; Function Attrs: nofree nounwind
declare i32 @__cxa_atexit(ptr, ptr, ptr) local_unnamed_addr #2

; Function Attrs: mustprogress uwtable
define void @_ZNK9grpc_core11json_detail10LoadScalar8LoadIntoERKNS_12experimental4JsonERKNS_8JsonArgsEPvPNS_16ValidationErrorsE(ptr noundef nonnull align 8 dereferenceable(8) %this, ptr noundef nonnull align 8 dereferenceable(56) %json, ptr nocapture nonnull readnone align 8 %0, ptr noundef %dst, ptr noundef %errors) unnamed_addr #3 align 2 personality ptr @__gxx_personality_v0 {
entry:
  %ref.tmp = alloca %"class.std::__cxx11::basic_string", align 8
  %ref.tmp5 = alloca %"class.absl::lts_20230802::AlphaNum", align 8
  %ref.tmp6 = alloca %"class.absl::lts_20230802::AlphaNum", align 8
  %_M_index.i.i.i.i = getelementptr inbounds %"struct.std::__detail::__variant::_Variant_storage", ptr %json, i64 0, i32 1
  %1 = load i8, ptr %_M_index.i.i.i.i, align 8
  switch i8 %1, label %land.lhs.true [
    i8 -1, label %if.then.i.i
    i8 3, label %_ZNK9grpc_core12experimental4Json6stringB5cxx11Ev.exit
  ]

if.then.i.i:                                      ; preds = %entry
  %exception.i.i.i = tail call ptr @__cxa_allocate_exception(i64 16) #18
  store ptr getelementptr inbounds ({ [5 x ptr] }, ptr @_ZTVSt18bad_variant_access, i64 0, inrange i32 0, i64 2), ptr %exception.i.i.i, align 8
  %_M_reason.i.i.i.i = getelementptr inbounds %"class.std::bad_variant_access", ptr %exception.i.i.i, i64 0, i32 1
  store ptr @.str.19, ptr %_M_reason.i.i.i.i, align 8
  tail call void @__cxa_throw(ptr nonnull %exception.i.i.i, ptr nonnull @_ZTISt18bad_variant_access, ptr nonnull @_ZNSt18bad_variant_accessD2Ev) #19
  unreachable

land.lhs.true:                                    ; preds = %entry
  %vtable = load ptr, ptr %this, align 8
  %vfn = getelementptr inbounds ptr, ptr %vtable, i64 1
  %2 = load ptr, ptr %vfn, align 8
  %call2 = tail call noundef zeroext i1 %2(ptr noundef nonnull align 8 dereferenceable(8) %this)
  br i1 %call2, label %lor.lhs.false, label %if.then

lor.lhs.false:                                    ; preds = %land.lhs.true
  %3 = load i8, ptr %_M_index.i.i.i.i, align 8
  switch i8 %3, label %if.then [
    i8 -1, label %if.then.i.i15
    i8 2, label %_ZNK9grpc_core12experimental4Json6stringB5cxx11Ev.exit
  ]

if.then.i.i15:                                    ; preds = %lor.lhs.false
  %exception.i.i.i16 = tail call ptr @__cxa_allocate_exception(i64 16) #18
  store ptr getelementptr inbounds ({ [5 x ptr] }, ptr @_ZTVSt18bad_variant_access, i64 0, inrange i32 0, i64 2), ptr %exception.i.i.i16, align 8
  %_M_reason.i.i.i.i17 = getelementptr inbounds %"class.std::bad_variant_access", ptr %exception.i.i.i16, i64 0, i32 1
  store ptr @.str.19, ptr %_M_reason.i.i.i.i17, align 8
  tail call void @__cxa_throw(ptr nonnull %exception.i.i.i16, ptr nonnull @_ZTISt18bad_variant_access, ptr nonnull @_ZNSt18bad_variant_accessD2Ev) #19
  unreachable

if.then:                                          ; preds = %lor.lhs.false, %land.lhs.true
  store i64 9, ptr %ref.tmp5, align 8
  %4 = getelementptr inbounds { i64, ptr }, ptr %ref.tmp5, i64 0, i32 1
  store ptr @.str, ptr %4, align 8
  %vtable7 = load ptr, ptr %this, align 8
  %vfn8 = getelementptr inbounds ptr, ptr %vtable7, i64 1
  %5 = load ptr, ptr %vfn8, align 8
  %call9 = tail call noundef zeroext i1 %5(ptr noundef nonnull align 8 dereferenceable(8) %this)
  %.str.1..str.2 = select i1 %call9, ptr @.str.1, ptr @.str.2
  store i64 6, ptr %ref.tmp6, align 8
  %6 = getelementptr inbounds { i64, ptr }, ptr %ref.tmp6, i64 0, i32 1
  store ptr %.str.1..str.2, ptr %6, align 8
  call void @_ZN4absl12lts_202308026StrCatB5cxx11ERKNS0_8AlphaNumES3_(ptr nonnull sret(%"class.std::__cxx11::basic_string") align 8 %ref.tmp, ptr noundef nonnull align 8 dereferenceable(48) %ref.tmp5, ptr noundef nonnull align 8 dereferenceable(48) %ref.tmp6)
  %call10 = call { i64, ptr } @_ZNKSt7__cxx1112basic_stringIcSt11char_traitsIcESaIcEEcvSt17basic_string_viewIcS2_EEv(ptr noundef nonnull align 8 dereferenceable(32) %ref.tmp) #18
  %7 = extractvalue { i64, ptr } %call10, 0
  %8 = extractvalue { i64, ptr } %call10, 1
  invoke void @_ZN9grpc_core16ValidationErrors8AddErrorESt17basic_string_viewIcSt11char_traitsIcEE(ptr noundef nonnull align 8 dereferenceable(72) %errors, i64 %7, ptr %8)
          to label %invoke.cont unwind label %lpad

invoke.cont:                                      ; preds = %if.then
  call void @_ZNSt7__cxx1112basic_stringIcSt11char_traitsIcESaIcEED1Ev(ptr noundef nonnull align 8 dereferenceable(32) %ref.tmp) #18
  br label %return

lpad:                                             ; preds = %if.then
  %9 = landingpad { ptr, i32 }
          cleanup
  call void @_ZNSt7__cxx1112basic_stringIcSt11char_traitsIcESaIcEED1Ev(ptr noundef nonnull align 8 dereferenceable(32) %ref.tmp) #18
  resume { ptr, i32 } %9

_ZNK9grpc_core12experimental4Json6stringB5cxx11Ev.exit: ; preds = %entry, %lor.lhs.false
  %vtable12 = load ptr, ptr %this, align 8
  %vfn13 = getelementptr inbounds ptr, ptr %vtable12, i64 2
  %10 = load ptr, ptr %vfn13, align 8
  tail call void %10(ptr noundef nonnull align 8 dereferenceable(8) %this, ptr noundef nonnull align 8 dereferenceable(32) %json, ptr noundef %dst, ptr noundef %errors)
  br label %return

return:                                           ; preds = %_ZNK9grpc_core12experimental4Json6stringB5cxx11Ev.exit, %invoke.cont
  ret void
}

declare void @_ZN9grpc_core16ValidationErrors8AddErrorESt17basic_string_viewIcSt11char_traitsIcEE(ptr noundef nonnull align 8 dereferenceable(72), i64, ptr) local_unnamed_addr #0

declare void @_ZN4absl12lts_202308026StrCatB5cxx11ERKNS0_8AlphaNumES3_(ptr sret(%"class.std::__cxx11::basic_string") align 8, ptr noundef nonnull align 8 dereferenceable(48), ptr noundef nonnull align 8 dereferenceable(48)) local_unnamed_addr #0

; Function Attrs: nounwind
declare { i64, ptr } @_ZNKSt7__cxx1112basic_stringIcSt11char_traitsIcESaIcEEcvSt17basic_string_viewIcS2_EEv(ptr noundef nonnull align 8 dereferenceable(32)) local_unnamed_addr #1

declare i32 @__gxx_personality_v0(...)

; Function Attrs: nounwind
declare void @_ZNSt7__cxx1112basic_stringIcSt11char_traitsIcESaIcEED1Ev(ptr noundef nonnull align 8 dereferenceable(32)) unnamed_addr #1

; Function Attrs: mustprogress nofree norecurse nosync nounwind willreturn memory(none) uwtable
define noundef zeroext i1 @_ZNK9grpc_core11json_detail10LoadString8IsNumberEv(ptr nocapture nonnull readnone align 8 %this) unnamed_addr #4 align 2 {
entry:
  ret i1 false
}

; Function Attrs: mustprogress uwtable
define void @_ZNK9grpc_core11json_detail10LoadString8LoadIntoERKNSt7__cxx1112basic_stringIcSt11char_traitsIcESaIcEEEPvPNS_16ValidationErrorsE(ptr nocapture nonnull readnone align 8 %this, ptr noundef nonnull align 8 dereferenceable(32) %value, ptr noundef nonnull %dst, ptr nocapture readnone %0) unnamed_addr #3 align 2 {
entry:
  %call = tail call noundef nonnull align 8 dereferenceable(32) ptr @_ZNSt7__cxx1112basic_stringIcSt11char_traitsIcESaIcEEaSERKS4_(ptr noundef nonnull align 8 dereferenceable(32) %dst, ptr noundef nonnull align 8 dereferenceable(32) %value)
  ret void
}

declare noundef nonnull align 8 dereferenceable(32) ptr @_ZNSt7__cxx1112basic_stringIcSt11char_traitsIcESaIcEEaSERKS4_(ptr noundef nonnull align 8 dereferenceable(32), ptr noundef nonnull align 8 dereferenceable(32)) local_unnamed_addr #0

; Function Attrs: mustprogress nofree norecurse nosync nounwind willreturn memory(none) uwtable
define noundef zeroext i1 @_ZNK9grpc_core11json_detail12LoadDuration8IsNumberEv(ptr nocapture nonnull readnone align 8 %this) unnamed_addr #4 align 2 {
entry:
  ret i1 false
}

; Function Attrs: mustprogress uwtable
define void @_ZNK9grpc_core11json_detail12LoadDuration8LoadIntoERKNSt7__cxx1112basic_stringIcSt11char_traitsIcESaIcEEEPvPNS_16ValidationErrorsE(ptr nocapture nonnull readnone align 8 %this, ptr noundef nonnull align 8 dereferenceable(32) %value, ptr nocapture noundef writeonly %dst, ptr noundef %errors) unnamed_addr #3 align 2 personality ptr @__gxx_personality_v0 {
entry:
  %val.i.i21 = alloca i64, align 8
  %val.i.i = alloca i32, align 4
  %call = tail call { i64, ptr } @_ZNKSt7__cxx1112basic_stringIcSt11char_traitsIcESaIcEEcvSt17basic_string_viewIcS2_EEv(ptr noundef nonnull align 8 dereferenceable(32) %value) #18
  %0 = extractvalue { i64, ptr } %call, 0
  %1 = extractvalue { i64, ptr } %call, 1
  %cmp.not.i.i = icmp eq i64 %0, 0
  br i1 %cmp.not.i.i, label %if.then, label %_ZN4absl12lts_202308028EndsWithESt17basic_string_viewIcSt11char_traitsIcEES4_.exit.i

_ZN4absl12lts_202308028EndsWithESt17basic_string_viewIcSt11char_traitsIcEES4_.exit.i: ; preds = %entry
  %sub.i.i = add i64 %0, -1
  %add.ptr.i.i = getelementptr inbounds i8, ptr %1, i64 %sub.i.i
  %lhsc = load i8, ptr %add.ptr.i.i, align 1
  %cmp9.i.i = icmp eq i8 %lhsc, 115
  br i1 %cmp9.i.i, label %if.end, label %if.then

if.then:                                          ; preds = %_ZN4absl12lts_202308028EndsWithESt17basic_string_viewIcSt11char_traitsIcEES4_.exit.i, %entry
  tail call void @_ZN9grpc_core16ValidationErrors8AddErrorESt17basic_string_viewIcSt11char_traitsIcEE(ptr noundef nonnull align 8 dereferenceable(72) %errors, i64 28, ptr nonnull @.str.4)
  br label %return

if.end:                                           ; preds = %_ZN4absl12lts_202308028EndsWithESt17basic_string_viewIcSt11char_traitsIcEES4_.exit.i
  %call.i = tail call { i64, ptr } @_ZN4absl12lts_2023080227StripLeadingAsciiWhitespaceESt17basic_string_viewIcSt11char_traitsIcEE(i64 %sub.i.i, ptr nonnull %1)
  %2 = extractvalue { i64, ptr } %call.i, 0
  %3 = extractvalue { i64, ptr } %call.i, 1
  %call2.i = tail call { i64, ptr } @_ZN4absl12lts_2023080228StripTrailingAsciiWhitespaceESt17basic_string_viewIcSt11char_traitsIcEE(i64 %2, ptr %3)
  %4 = extractvalue { i64, ptr } %call2.i, 0
  %5 = extractvalue { i64, ptr } %call2.i, 1
  %cmp.i.not = icmp eq i64 %4, 0
  br i1 %cmp.i.not, label %if.end23, label %if.then.i

if.then.i:                                        ; preds = %if.end
  %call.i.i11 = tail call ptr @memchr(ptr noundef %5, i32 noundef 46, i64 noundef %4) #18
  %tobool.not.i = icmp eq ptr %call.i.i11, null
  br i1 %tobool.not.i, label %if.end23, label %_ZNKSt17basic_string_viewIcSt11char_traitsIcEE4findEcm.exit

_ZNKSt17basic_string_viewIcSt11char_traitsIcEE4findEcm.exit: ; preds = %if.then.i
  %sub.ptr.lhs.cast.i = ptrtoint ptr %call.i.i11 to i64
  %sub.ptr.rhs.cast.i = ptrtoint ptr %5 to i64
  %sub.ptr.sub.i = sub i64 %sub.ptr.lhs.cast.i, %sub.ptr.rhs.cast.i
  %cmp.not = icmp eq i64 %sub.ptr.sub.i, -1
  br i1 %cmp.not, label %if.end23, label %if.then7

if.then7:                                         ; preds = %_ZNKSt17basic_string_viewIcSt11char_traitsIcEE4findEcm.exit
  %add = add nuw i64 %sub.ptr.sub.i, 1
  %cmp.i.i.not = icmp ugt i64 %4, %sub.ptr.sub.i
  br i1 %cmp.i.i.not, label %_ZNKSt17basic_string_viewIcSt11char_traitsIcEE6substrEmm.exit, label %if.then.i.i

if.then.i.i:                                      ; preds = %if.then7
  tail call void (ptr, ...) @_ZSt24__throw_out_of_range_fmtPKcz(ptr noundef nonnull @.str.23, ptr noundef nonnull @.str.22, i64 noundef %add, i64 noundef %4) #19
  unreachable

_ZNKSt17basic_string_viewIcSt11char_traitsIcEE6substrEmm.exit: ; preds = %if.then7
  %sub.i = sub i64 %4, %add
  %add.ptr.i = getelementptr inbounds i8, ptr %5, i64 %add
  call void @llvm.lifetime.start.p0(i64 4, ptr nonnull %val.i.i)
  %call.i.i16 = call noundef zeroext i1 @_ZN4absl12lts_2023080216numbers_internal17safe_strto32_baseESt17basic_string_viewIcSt11char_traitsIcEEPii(i64 %sub.i, ptr nonnull %add.ptr.i, ptr noundef nonnull %val.i.i, i32 noundef 10)
  %6 = load i32, ptr %val.i.i, align 4
  call void @llvm.lifetime.end.p0(i64 4, ptr nonnull %val.i.i)
  br i1 %call.i.i16, label %if.end15, label %if.then13

if.then13:                                        ; preds = %_ZNKSt17basic_string_viewIcSt11char_traitsIcEE6substrEmm.exit
  call void @_ZN9grpc_core16ValidationErrors8AddErrorESt17basic_string_viewIcSt11char_traitsIcEE(ptr noundef nonnull align 8 dereferenceable(72) %errors, i64 44, ptr nonnull @.str.5)
  br label %return

if.end15:                                         ; preds = %_ZNKSt17basic_string_viewIcSt11char_traitsIcEE6substrEmm.exit
  %cmp17 = icmp ugt i64 %sub.i, 9
  br i1 %cmp17, label %if.then18, label %for.cond.preheader

for.cond.preheader:                               ; preds = %if.end15
  %cmp2242.not = icmp eq i64 %sub.i, 9
  br i1 %cmp2242.not, label %if.end23, label %for.body.preheader

for.body.preheader:                               ; preds = %for.cond.preheader
  %sub = sub nuw nsw i64 9, %sub.i
  br label %for.body

if.then18:                                        ; preds = %if.end15
  call void @_ZN9grpc_core16ValidationErrors8AddErrorESt17basic_string_viewIcSt11char_traitsIcEE(ptr noundef nonnull align 8 dereferenceable(72) %errors, i64 46, ptr nonnull @.str.6)
  br label %return

for.body:                                         ; preds = %for.body.preheader, %for.body
  %i.044 = phi i64 [ %inc, %for.body ], [ 0, %for.body.preheader ]
  %nanos.043 = phi i32 [ %mul, %for.body ], [ %6, %for.body.preheader ]
  %mul = mul nsw i32 %nanos.043, 10
  %inc = add nuw i64 %i.044, 1
  %exitcond.not = icmp eq i64 %inc, %sub
  br i1 %exitcond.not, label %if.end23, label %for.body, !llvm.loop !4

if.end23:                                         ; preds = %for.body, %for.cond.preheader, %if.end, %if.then.i, %_ZNKSt17basic_string_viewIcSt11char_traitsIcEE4findEcm.exit
  %nanos.1 = phi i32 [ 0, %_ZNKSt17basic_string_viewIcSt11char_traitsIcEE4findEcm.exit ], [ 0, %if.then.i ], [ 0, %if.end ], [ %6, %for.cond.preheader ], [ %mul, %for.body ]
  %buf.sroa.0.1 = phi i64 [ %4, %_ZNKSt17basic_string_viewIcSt11char_traitsIcEE4findEcm.exit ], [ %4, %if.then.i ], [ 0, %if.end ], [ %sub.ptr.sub.i, %for.cond.preheader ], [ %sub.ptr.sub.i, %for.body ]
  call void @llvm.lifetime.start.p0(i64 8, ptr nonnull %val.i.i21)
  %call.i.i22 = call noundef zeroext i1 @_ZN4absl12lts_2023080216numbers_internal17safe_strto64_baseESt17basic_string_viewIcSt11char_traitsIcEEPli(i64 %buf.sroa.0.1, ptr %5, ptr noundef nonnull %val.i.i21, i32 noundef 10)
  %7 = load i64, ptr %val.i.i21, align 8
  call void @llvm.lifetime.end.p0(i64 8, ptr nonnull %val.i.i21)
  br i1 %call.i.i22, label %if.end28, label %if.then26

if.then26:                                        ; preds = %if.end23
  call void @_ZN9grpc_core16ValidationErrors8AddErrorESt17basic_string_viewIcSt11char_traitsIcEE(ptr noundef nonnull align 8 dereferenceable(72) %errors, i64 40, ptr nonnull @.str.7)
  br label %return

if.end28:                                         ; preds = %if.end23
  %or.cond = icmp ugt i64 %7, 315576000000
  br i1 %or.cond, label %if.then31, label %if.end33

if.then31:                                        ; preds = %if.end28
  call void @_ZN9grpc_core16ValidationErrors8AddErrorESt17basic_string_viewIcSt11char_traitsIcEE(ptr noundef nonnull align 8 dereferenceable(72) %errors, i64 46, ptr nonnull @.str.8)
  br label %if.end33

if.end33:                                         ; preds = %if.end28, %if.then31
  %cmp.not.i.i.i = icmp slt i64 %7, 9223372036854775
  %cmp4.not.i.i.i = icmp sgt i64 %7, -9223372036854775
  %mul8.i.i.i = mul nsw i64 %7, 1000
  %spec.select.i.i.i = select i1 %cmp4.not.i.i.i, i64 %mul8.i.i.i, i64 -9223372036854775808
  %cond10.i.i.i = select i1 %cmp.not.i.i.i, i64 %spec.select.i.i.i, i64 9223372036854775807
  %div.i1.i = sdiv i32 %nanos.1, 1000000
  %div.i.sext.i = sext i32 %div.i1.i to i64
  switch i64 %cond10.i.i.i, label %if.end11.i.i.i [
    i64 9223372036854775807, label %_ZN9grpc_core8Duration25FromSecondsAndNanosecondsEli.exit
    i64 -9223372036854775808, label %_ZN9grpc_coreplENS_8DurationES0_.exit.fold.split.i
  ]

if.end11.i.i.i:                                   ; preds = %if.end33
  %cmp.i.i.i.i = icmp sgt i64 %cond10.i.i.i, 0
  br i1 %cmp.i.i.i.i, label %if.then.i.i.i.i, label %if.else.i.i.i.i

if.then.i.i.i.i:                                  ; preds = %if.end11.i.i.i
  %sub.i.i.i.i = xor i64 %cond10.i.i.i, 9223372036854775807
  %cmp1.i.i.i.i = icmp slt i64 %sub.i.i.i.i, %div.i.sext.i
  br i1 %cmp1.i.i.i.i, label %_ZN9grpc_core8Duration25FromSecondsAndNanosecondsEli.exit, label %if.end7.i.i.i.i

if.else.i.i.i.i:                                  ; preds = %if.end11.i.i.i
  %sub3.i.i.i.i = sub nsw i64 -9223372036854775808, %cond10.i.i.i
  %cmp4.i.i.i.i = icmp sgt i64 %sub3.i.i.i.i, %div.i.sext.i
  br i1 %cmp4.i.i.i.i, label %_ZN9grpc_core8Duration25FromSecondsAndNanosecondsEli.exit, label %if.end7.i.i.i.i

if.end7.i.i.i.i:                                  ; preds = %if.else.i.i.i.i, %if.then.i.i.i.i
  %add.i.i.i.i = add nsw i64 %cond10.i.i.i, %div.i.sext.i
  br label %_ZN9grpc_core8Duration25FromSecondsAndNanosecondsEli.exit

_ZN9grpc_coreplENS_8DurationES0_.exit.fold.split.i: ; preds = %if.end33
  br label %_ZN9grpc_core8Duration25FromSecondsAndNanosecondsEli.exit

_ZN9grpc_core8Duration25FromSecondsAndNanosecondsEli.exit: ; preds = %if.end33, %if.then.i.i.i.i, %if.else.i.i.i.i, %if.end7.i.i.i.i, %_ZN9grpc_coreplENS_8DurationES0_.exit.fold.split.i
  %retval.0.i.i.i = phi i64 [ %cond10.i.i.i, %if.end33 ], [ %add.i.i.i.i, %if.end7.i.i.i.i ], [ 9223372036854775807, %if.then.i.i.i.i ], [ -9223372036854775808, %if.else.i.i.i.i ], [ -9223372036854775808, %_ZN9grpc_coreplENS_8DurationES0_.exit.fold.split.i ]
  store i64 %retval.0.i.i.i, ptr %dst, align 8
  br label %return

return:                                           ; preds = %_ZN9grpc_core8Duration25FromSecondsAndNanosecondsEli.exit, %if.then26, %if.then18, %if.then13, %if.then
  ret void
}

; Function Attrs: mustprogress nofree norecurse nosync nounwind willreturn memory(none) uwtable
define noundef zeroext i1 @_ZNK9grpc_core11json_detail10LoadNumber8IsNumberEv(ptr nocapture nonnull readnone align 8 %this) unnamed_addr #4 align 2 {
entry:
  ret i1 true
}

; Function Attrs: mustprogress uwtable
define void @_ZNK9grpc_core11json_detail8LoadBool8LoadIntoERKNS_12experimental4JsonERKNS_8JsonArgsEPvPNS_16ValidationErrorsE(ptr nocapture nonnull readnone align 8 %this, ptr nocapture noundef nonnull readonly align 8 dereferenceable(56) %json, ptr nocapture nonnull readnone align 8 %0, ptr nocapture noundef writeonly %dst, ptr noundef %errors) unnamed_addr #3 align 2 personality ptr @__gxx_personality_v0 {
entry:
  %_M_index.i.i.i.i = getelementptr inbounds %"struct.std::__detail::__variant::_Variant_storage", ptr %json, i64 0, i32 1
  %1 = load i8, ptr %_M_index.i.i.i.i, align 8
  switch i8 %1, label %if.then [
    i8 -1, label %if.then.i.i
    i8 1, label %_ZNK9grpc_core12experimental4Json7booleanEv.exit
  ]

if.then.i.i:                                      ; preds = %entry
  %exception.i.i.i = tail call ptr @__cxa_allocate_exception(i64 16) #18
  store ptr getelementptr inbounds ({ [5 x ptr] }, ptr @_ZTVSt18bad_variant_access, i64 0, inrange i32 0, i64 2), ptr %exception.i.i.i, align 8
  %_M_reason.i.i.i.i = getelementptr inbounds %"class.std::bad_variant_access", ptr %exception.i.i.i, i64 0, i32 1
  store ptr @.str.19, ptr %_M_reason.i.i.i.i, align 8
  tail call void @__cxa_throw(ptr nonnull %exception.i.i.i, ptr nonnull @_ZTISt18bad_variant_access, ptr nonnull @_ZNSt18bad_variant_accessD2Ev) #19
  unreachable

if.then:                                          ; preds = %entry
  tail call void @_ZN9grpc_core16ValidationErrors8AddErrorESt17basic_string_viewIcSt11char_traitsIcEE(ptr noundef nonnull align 8 dereferenceable(72) %errors, i64 16, ptr nonnull @.str.9)
  br label %return

_ZNK9grpc_core12experimental4Json7booleanEv.exit: ; preds = %entry
  %2 = load i8, ptr %json, align 8
  %3 = and i8 %2, 1
  store i8 %3, ptr %dst, align 1
  br label %return

return:                                           ; preds = %_ZNK9grpc_core12experimental4Json7booleanEv.exit, %if.then
  ret void
}

; Function Attrs: mustprogress uwtable
define void @_ZNK9grpc_core11json_detail25LoadUnprocessedJsonObject8LoadIntoERKNS_12experimental4JsonERKNS_8JsonArgsEPvPNS_16ValidationErrorsE(ptr nocapture nonnull readnone align 8 %this, ptr noundef nonnull align 8 dereferenceable(56) %json, ptr nocapture nonnull readnone align 8 %0, ptr noundef %dst, ptr noundef %errors) unnamed_addr #3 align 2 personality ptr @__gxx_personality_v0 {
entry:
  %_M_index.i.i.i.i = getelementptr inbounds %"struct.std::__detail::__variant::_Variant_storage", ptr %json, i64 0, i32 1
  %1 = load i8, ptr %_M_index.i.i.i.i, align 8
  switch i8 %1, label %if.then [
    i8 -1, label %if.then.i.i
    i8 4, label %_ZNK9grpc_core12experimental4Json6objectB5cxx11Ev.exit
  ]

if.then.i.i:                                      ; preds = %entry
  %exception.i.i.i = tail call ptr @__cxa_allocate_exception(i64 16) #18
  store ptr getelementptr inbounds ({ [5 x ptr] }, ptr @_ZTVSt18bad_variant_access, i64 0, inrange i32 0, i64 2), ptr %exception.i.i.i, align 8
  %_M_reason.i.i.i.i = getelementptr inbounds %"class.std::bad_variant_access", ptr %exception.i.i.i, i64 0, i32 1
  store ptr @.str.19, ptr %_M_reason.i.i.i.i, align 8
  tail call void @__cxa_throw(ptr nonnull %exception.i.i.i, ptr nonnull @_ZTISt18bad_variant_access, ptr nonnull @_ZNSt18bad_variant_accessD2Ev) #19
  unreachable

if.then:                                          ; preds = %entry
  tail call void @_ZN9grpc_core16ValidationErrors8AddErrorESt17basic_string_viewIcSt11char_traitsIcEE(ptr noundef nonnull align 8 dereferenceable(72) %errors, i64 16, ptr nonnull @.str.10)
  br label %return

_ZNK9grpc_core12experimental4Json6objectB5cxx11Ev.exit: ; preds = %entry
  %call.i = tail call noundef nonnull align 8 dereferenceable(48) ptr @_ZNSt8_Rb_treeINSt7__cxx1112basic_stringIcSt11char_traitsIcESaIcEEESt4pairIKS5_N9grpc_core12experimental4JsonEESt10_Select1stISB_ESt4lessIS5_ESaISB_EEaSERKSH_(ptr noundef nonnull align 8 dereferenceable(48) %dst, ptr noundef nonnull align 8 dereferenceable(48) %json)
  br label %return

return:                                           ; preds = %_ZNK9grpc_core12experimental4Json6objectB5cxx11Ev.exit, %if.then
  ret void
}

; Function Attrs: mustprogress uwtable
define void @_ZNK9grpc_core11json_detail24LoadUnprocessedJsonArray8LoadIntoERKNS_12experimental4JsonERKNS_8JsonArgsEPvPNS_16ValidationErrorsE(ptr nocapture nonnull readnone align 8 %this, ptr noundef nonnull align 8 dereferenceable(56) %json, ptr nocapture nonnull readnone align 8 %0, ptr noundef %dst, ptr noundef %errors) unnamed_addr #3 align 2 personality ptr @__gxx_personality_v0 {
entry:
  %_M_index.i.i.i.i = getelementptr inbounds %"struct.std::__detail::__variant::_Variant_storage", ptr %json, i64 0, i32 1
  %1 = load i8, ptr %_M_index.i.i.i.i, align 8
  %cmp.i.not.i.i.i = icmp eq i8 %1, -1
  br i1 %cmp.i.not.i.i.i, label %if.then.i.i, label %if.end.i.i

if.then.i.i:                                      ; preds = %entry
  %exception.i.i.i = tail call ptr @__cxa_allocate_exception(i64 16) #18
  store ptr getelementptr inbounds ({ [5 x ptr] }, ptr @_ZTVSt18bad_variant_access, i64 0, inrange i32 0, i64 2), ptr %exception.i.i.i, align 8
  %_M_reason.i.i.i.i = getelementptr inbounds %"class.std::bad_variant_access", ptr %exception.i.i.i, i64 0, i32 1
  store ptr @.str.19, ptr %_M_reason.i.i.i.i, align 8
  tail call void @__cxa_throw(ptr nonnull %exception.i.i.i, ptr nonnull @_ZTISt18bad_variant_access, ptr nonnull @_ZNSt18bad_variant_accessD2Ev) #19
  unreachable

if.end.i.i:                                       ; preds = %entry
  %switch = icmp ult i8 %1, 5
  br i1 %switch, label %if.then, label %if.end

if.then:                                          ; preds = %if.end.i.i
  tail call void @_ZN9grpc_core16ValidationErrors8AddErrorESt17basic_string_viewIcSt11char_traitsIcEE(ptr noundef nonnull align 8 dereferenceable(72) %errors, i64 15, ptr nonnull @.str.11)
  br label %return

if.end:                                           ; preds = %if.end.i.i
  %cmp.not.i.i.i = icmp eq i8 %1, 5
  br i1 %cmp.not.i.i.i, label %_ZNK9grpc_core12experimental4Json5arrayEv.exit, label %if.else.i.i.i.i

if.else.i.i.i.i:                                  ; preds = %if.end
  %exception.i.i.i.i.i = tail call ptr @__cxa_allocate_exception(i64 16) #18
  store ptr getelementptr inbounds ({ [5 x ptr] }, ptr @_ZTVSt18bad_variant_access, i64 0, inrange i32 0, i64 2), ptr %exception.i.i.i.i.i, align 8
  %_M_reason.i.i.i.i.i.i = getelementptr inbounds %"class.std::bad_variant_access", ptr %exception.i.i.i.i.i, i64 0, i32 1
  store ptr @.str.21, ptr %_M_reason.i.i.i.i.i.i, align 8
  tail call void @__cxa_throw(ptr nonnull %exception.i.i.i.i.i, ptr nonnull @_ZTISt18bad_variant_access, ptr nonnull @_ZNSt18bad_variant_accessD2Ev) #19
  unreachable

_ZNK9grpc_core12experimental4Json5arrayEv.exit:   ; preds = %if.end
  %call3 = tail call noundef nonnull align 8 dereferenceable(24) ptr @_ZNSt6vectorIN9grpc_core12experimental4JsonESaIS2_EEaSERKS4_(ptr noundef nonnull align 8 dereferenceable(24) %dst, ptr noundef nonnull align 8 dereferenceable(24) %json)
  br label %return

return:                                           ; preds = %_ZNK9grpc_core12experimental4Json5arrayEv.exit, %if.then
  ret void
}

; Function Attrs: mustprogress uwtable
define linkonce_odr noundef nonnull align 8 dereferenceable(24) ptr @_ZNSt6vectorIN9grpc_core12experimental4JsonESaIS2_EEaSERKS4_(ptr noundef nonnull align 8 dereferenceable(24) %this, ptr noundef nonnull align 8 dereferenceable(24) %__x) local_unnamed_addr #3 comdat align 2 personality ptr @__gxx_personality_v0 {
entry:
  %ref.tmp.i.i57 = alloca %class.anon.55, align 8
  %ref.tmp.i.i = alloca %class.anon.55, align 8
  %ref.tmp.i.i.i.i.i.i.i = alloca %class.anon.36, align 1
  %ref.tmp.i.i.i.i.i = alloca %class.anon.36, align 1
  %cmp.not = icmp eq ptr %__x, %this
  br i1 %cmp.not, label %if.end75, label %if.then

if.then:                                          ; preds = %entry
  %_M_finish.i = getelementptr inbounds %"struct.std::_Vector_base<grpc_core::experimental::Json, std::allocator<grpc_core::experimental::Json>>::_Vector_impl_data", ptr %__x, i64 0, i32 1
  %0 = load ptr, ptr %_M_finish.i, align 8
  %1 = load ptr, ptr %__x, align 8
  %sub.ptr.lhs.cast.i = ptrtoint ptr %0 to i64
  %sub.ptr.rhs.cast.i = ptrtoint ptr %1 to i64
  %sub.ptr.sub.i = sub i64 %sub.ptr.lhs.cast.i, %sub.ptr.rhs.cast.i
  %sub.ptr.div.i = sdiv exact i64 %sub.ptr.sub.i, 56
  %_M_end_of_storage.i = getelementptr inbounds %"struct.std::_Vector_base<grpc_core::experimental::Json, std::allocator<grpc_core::experimental::Json>>::_Vector_impl_data", ptr %this, i64 0, i32 2
  %2 = load ptr, ptr %_M_end_of_storage.i, align 8
  %3 = load ptr, ptr %this, align 8
  %sub.ptr.lhs.cast.i14 = ptrtoint ptr %2 to i64
  %sub.ptr.rhs.cast.i15 = ptrtoint ptr %3 to i64
  %sub.ptr.sub.i16 = sub i64 %sub.ptr.lhs.cast.i14, %sub.ptr.rhs.cast.i15
  %sub.ptr.div.i17 = sdiv exact i64 %sub.ptr.sub.i16, 56
  %cmp3 = icmp ugt i64 %sub.ptr.div.i, %sub.ptr.div.i17
  br i1 %cmp3, label %if.then4, label %if.else

if.then4:                                         ; preds = %if.then
  %call11 = tail call noundef ptr @_ZNSt6vectorIN9grpc_core12experimental4JsonESaIS2_EE20_M_allocate_and_copyIN9__gnu_cxx17__normal_iteratorIPKS2_S4_EEEEPS2_mT_SC_(ptr noundef nonnull align 8 dereferenceable(24) %this, i64 noundef %sub.ptr.div.i, ptr %1, ptr %0)
  %4 = load ptr, ptr %this, align 8
  %_M_finish = getelementptr inbounds %"struct.std::_Vector_base<grpc_core::experimental::Json, std::allocator<grpc_core::experimental::Json>>::_Vector_impl_data", ptr %this, i64 0, i32 1
  %5 = load ptr, ptr %_M_finish, align 8
  %cmp.not.i1.i.i = icmp eq ptr %4, %5
  br i1 %cmp.not.i1.i.i, label %_ZSt8_DestroyIPN9grpc_core12experimental4JsonES2_EvT_S4_RSaIT0_E.exit, label %for.body.i.i.i

for.body.i.i.i:                                   ; preds = %if.then4, %_ZNSt8__detail9__variant13_Variant_baseIJSt9monostatebN9grpc_core12experimental4Json11NumberValueENSt7__cxx1112basic_stringIcSt11char_traitsIcESaIcEEESt3mapISC_S5_St4lessISC_ESaISt4pairIKSC_S5_EEESt6vectorIS5_SaIS5_EEEED2Ev.exit.i.i
  %__first.addr.0.i2.i.i = phi ptr [ %incdec.ptr.i.i.i, %_ZNSt8__detail9__variant13_Variant_baseIJSt9monostatebN9grpc_core12experimental4Json11NumberValueENSt7__cxx1112basic_stringIcSt11char_traitsIcESaIcEEESt3mapISC_S5_St4lessISC_ESaISt4pairIKSC_S5_EEESt6vectorIS5_SaIS5_EEEED2Ev.exit.i.i ], [ %4, %if.then4 ]
  call void @llvm.lifetime.start.p0(i64 1, ptr nonnull %ref.tmp.i.i.i.i.i)
  %_M_index.i.i.i.i.i.i = getelementptr inbounds %"struct.std::__detail::__variant::_Variant_storage", ptr %__first.addr.0.i2.i.i, i64 0, i32 1
  %6 = load i8, ptr %_M_index.i.i.i.i.i.i, align 8
  %cmp.i.i.i.i.not.i.i = icmp eq i8 %6, -1
  br i1 %cmp.i.i.i.i.not.i.i, label %_ZNSt8__detail9__variant13_Variant_baseIJSt9monostatebN9grpc_core12experimental4Json11NumberValueENSt7__cxx1112basic_stringIcSt11char_traitsIcESaIcEEESt3mapISC_S5_St4lessISC_ESaISt4pairIKSC_S5_EEESt6vectorIS5_SaIS5_EEEED2Ev.exit.i.i, label %if.end.i.i.i.i.i

if.end.i.i.i.i.i:                                 ; preds = %for.body.i.i.i
  invoke void @_ZSt10__do_visitIvZNSt8__detail9__variant16_Variant_storageILb0EJSt9monostatebN9grpc_core12experimental4Json11NumberValueENSt7__cxx1112basic_stringIcSt11char_traitsIcESaIcEEESt3mapISD_S6_St4lessISD_ESaISt4pairIKSD_S6_EEESt6vectorIS6_SaIS6_EEEE8_M_resetEvEUlOT_E_JRSt7variantIJS3_bS7_SD_SL_SO_EEEEDcOT0_DpOT1_(ptr noundef nonnull align 1 dereferenceable(1) %ref.tmp.i.i.i.i.i, ptr noundef nonnull align 8 dereferenceable(49) %__first.addr.0.i2.i.i)
          to label %.noexc.i.i.i.i unwind label %terminate.lpad.i.i.i.i.i

.noexc.i.i.i.i:                                   ; preds = %if.end.i.i.i.i.i
  store i8 -1, ptr %_M_index.i.i.i.i.i.i, align 8
  br label %_ZNSt8__detail9__variant13_Variant_baseIJSt9monostatebN9grpc_core12experimental4Json11NumberValueENSt7__cxx1112basic_stringIcSt11char_traitsIcESaIcEEESt3mapISC_S5_St4lessISC_ESaISt4pairIKSC_S5_EEESt6vectorIS5_SaIS5_EEEED2Ev.exit.i.i

terminate.lpad.i.i.i.i.i:                         ; preds = %if.end.i.i.i.i.i
  %7 = landingpad { ptr, i32 }
          catch ptr null
  %8 = extractvalue { ptr, i32 } %7, 0
  call void @__clang_call_terminate(ptr %8) #20
  unreachable

_ZNSt8__detail9__variant13_Variant_baseIJSt9monostatebN9grpc_core12experimental4Json11NumberValueENSt7__cxx1112basic_stringIcSt11char_traitsIcESaIcEEESt3mapISC_S5_St4lessISC_ESaISt4pairIKSC_S5_EEESt6vectorIS5_SaIS5_EEEED2Ev.exit.i.i: ; preds = %.noexc.i.i.i.i, %for.body.i.i.i
  call void @llvm.lifetime.end.p0(i64 1, ptr nonnull %ref.tmp.i.i.i.i.i)
  %incdec.ptr.i.i.i = getelementptr inbounds %"class.grpc_core::experimental::Json", ptr %__first.addr.0.i2.i.i, i64 1
  %cmp.not.i.i.i = icmp eq ptr %incdec.ptr.i.i.i, %5
  br i1 %cmp.not.i.i.i, label %_ZSt8_DestroyIPN9grpc_core12experimental4JsonES2_EvT_S4_RSaIT0_E.exitthread-pre-split, label %for.body.i.i.i, !llvm.loop !6

_ZSt8_DestroyIPN9grpc_core12experimental4JsonES2_EvT_S4_RSaIT0_E.exitthread-pre-split: ; preds = %_ZNSt8__detail9__variant13_Variant_baseIJSt9monostatebN9grpc_core12experimental4Json11NumberValueENSt7__cxx1112basic_stringIcSt11char_traitsIcESaIcEEESt3mapISC_S5_St4lessISC_ESaISt4pairIKSC_S5_EEESt6vectorIS5_SaIS5_EEEED2Ev.exit.i.i
  %.pr = load ptr, ptr %this, align 8
  br label %_ZSt8_DestroyIPN9grpc_core12experimental4JsonES2_EvT_S4_RSaIT0_E.exit

_ZSt8_DestroyIPN9grpc_core12experimental4JsonES2_EvT_S4_RSaIT0_E.exit: ; preds = %_ZSt8_DestroyIPN9grpc_core12experimental4JsonES2_EvT_S4_RSaIT0_E.exitthread-pre-split, %if.then4
  %9 = phi ptr [ %.pr, %_ZSt8_DestroyIPN9grpc_core12experimental4JsonES2_EvT_S4_RSaIT0_E.exitthread-pre-split ], [ %4, %if.then4 ]
  %tobool.not.i = icmp eq ptr %9, null
  br i1 %tobool.not.i, label %_ZNSt12_Vector_baseIN9grpc_core12experimental4JsonESaIS2_EE13_M_deallocateEPS2_m.exit, label %if.then.i

if.then.i:                                        ; preds = %_ZSt8_DestroyIPN9grpc_core12experimental4JsonES2_EvT_S4_RSaIT0_E.exit
  call void @_ZdlPv(ptr noundef nonnull %9) #21
  br label %_ZNSt12_Vector_baseIN9grpc_core12experimental4JsonESaIS2_EE13_M_deallocateEPS2_m.exit

_ZNSt12_Vector_baseIN9grpc_core12experimental4JsonESaIS2_EE13_M_deallocateEPS2_m.exit: ; preds = %_ZSt8_DestroyIPN9grpc_core12experimental4JsonES2_EvT_S4_RSaIT0_E.exit, %if.then.i
  store ptr %call11, ptr %this, align 8
  %add.ptr = getelementptr inbounds i8, ptr %call11, i64 %sub.ptr.sub.i
  store ptr %add.ptr, ptr %_M_end_of_storage.i, align 8
  br label %if.end69

if.else:                                          ; preds = %if.then
  %_M_finish.i19 = getelementptr inbounds %"struct.std::_Vector_base<grpc_core::experimental::Json, std::allocator<grpc_core::experimental::Json>>::_Vector_impl_data", ptr %this, i64 0, i32 1
  %10 = load ptr, ptr %_M_finish.i19, align 8
  %sub.ptr.lhs.cast.i20 = ptrtoint ptr %10 to i64
  %sub.ptr.sub.i22 = sub i64 %sub.ptr.lhs.cast.i20, %sub.ptr.rhs.cast.i15
  %sub.ptr.div.i23 = sdiv exact i64 %sub.ptr.sub.i22, 56
  %cmp26.not = icmp ult i64 %sub.ptr.div.i23, %sub.ptr.div.i
  br i1 %cmp26.not, label %if.else49, label %for.cond.i.i.preheader

for.cond.i.i.preheader:                           ; preds = %if.else
  %cmp.i.i60 = icmp sgt i64 %sub.ptr.sub.i, 0
  br i1 %cmp.i.i60, label %for.body.i.i, label %_ZSt14__copy_move_a2ILb0EPKN9grpc_core12experimental4JsonEPS2_ET1_T0_S7_S6_.exit

for.body.i.i:                                     ; preds = %for.cond.i.i.preheader, %for.body.i.i
  %__n.0.i.i63 = phi i64 [ %dec.i.i, %for.body.i.i ], [ %sub.ptr.div.i, %for.cond.i.i.preheader ]
  %__result.addr.0.i.i62 = phi ptr [ %incdec.ptr1.i.i, %for.body.i.i ], [ %3, %for.cond.i.i.preheader ]
  %__first.addr.0.i.i61 = phi ptr [ %incdec.ptr.i.i, %for.body.i.i ], [ %1, %for.cond.i.i.preheader ]
  call void @llvm.lifetime.start.p0(i64 8, ptr nonnull %ref.tmp.i.i)
  store ptr %__result.addr.0.i.i62, ptr %ref.tmp.i.i, align 8
  call void @_ZSt10__do_visitINSt8__detail9__variant20__variant_idx_cookieEZNS1_17_Copy_assign_baseILb0EJSt9monostatebN9grpc_core12experimental4Json11NumberValueENSt7__cxx1112basic_stringIcSt11char_traitsIcESaIcEEESt3mapISE_S7_St4lessISE_ESaISt4pairIKSE_S7_EEESt6vectorIS7_SaIS7_EEEEaSERKSQ_EUlOT_T0_E_JRKSt7variantIJS4_bS8_SE_SM_SP_EEEEDcOSV_DpOT1_(ptr noundef nonnull align 8 dereferenceable(8) %ref.tmp.i.i, ptr noundef nonnull align 8 dereferenceable(49) %__first.addr.0.i.i61)
  call void @llvm.lifetime.end.p0(i64 8, ptr nonnull %ref.tmp.i.i)
  %incdec.ptr.i.i = getelementptr inbounds %"class.grpc_core::experimental::Json", ptr %__first.addr.0.i.i61, i64 1
  %incdec.ptr1.i.i = getelementptr inbounds %"class.grpc_core::experimental::Json", ptr %__result.addr.0.i.i62, i64 1
  %dec.i.i = add nsw i64 %__n.0.i.i63, -1
  %cmp.i.i = icmp sgt i64 %__n.0.i.i63, 1
  br i1 %cmp.i.i, label %for.body.i.i, label %_ZSt14__copy_move_a2ILb0EPKN9grpc_core12experimental4JsonEPS2_ET1_T0_S7_S6_.exit.loopexit, !llvm.loop !7

_ZSt14__copy_move_a2ILb0EPKN9grpc_core12experimental4JsonEPS2_ET1_T0_S7_S6_.exit.loopexit: ; preds = %for.body.i.i
  %.pre = load ptr, ptr %_M_finish.i19, align 8
  %.pre77 = ptrtoint ptr %incdec.ptr1.i.i to i64
  br label %_ZSt14__copy_move_a2ILb0EPKN9grpc_core12experimental4JsonEPS2_ET1_T0_S7_S6_.exit

_ZSt14__copy_move_a2ILb0EPKN9grpc_core12experimental4JsonEPS2_ET1_T0_S7_S6_.exit: ; preds = %_ZSt14__copy_move_a2ILb0EPKN9grpc_core12experimental4JsonEPS2_ET1_T0_S7_S6_.exit.loopexit, %for.cond.i.i.preheader
  %sub.ptr.lhs.cast.i.i.pre-phi = phi i64 [ %.pre77, %_ZSt14__copy_move_a2ILb0EPKN9grpc_core12experimental4JsonEPS2_ET1_T0_S7_S6_.exit.loopexit ], [ %sub.ptr.rhs.cast.i15, %for.cond.i.i.preheader ]
  %11 = phi ptr [ %.pre, %_ZSt14__copy_move_a2ILb0EPKN9grpc_core12experimental4JsonEPS2_ET1_T0_S7_S6_.exit.loopexit ], [ %10, %for.cond.i.i.preheader ]
  %sub.ptr.sub.i.i = sub i64 %sub.ptr.lhs.cast.i.i.pre-phi, %sub.ptr.rhs.cast.i15
  %add.ptr.i.i.i = getelementptr inbounds i8, ptr %3, i64 %sub.ptr.sub.i.i
  %cmp.i.not3.i.i.i = icmp eq ptr %add.ptr.i.i.i, %11
  br i1 %cmp.i.not3.i.i.i, label %if.end69, label %for.body.i.i.i26

for.body.i.i.i26:                                 ; preds = %_ZSt14__copy_move_a2ILb0EPKN9grpc_core12experimental4JsonEPS2_ET1_T0_S7_S6_.exit, %_ZSt8_DestroyIN9grpc_core12experimental4JsonEEvPT_.exit.i.i.i
  %__first.sroa.0.04.i.i.i = phi ptr [ %incdec.ptr.i.i.i.i, %_ZSt8_DestroyIN9grpc_core12experimental4JsonEEvPT_.exit.i.i.i ], [ %add.ptr.i.i.i, %_ZSt14__copy_move_a2ILb0EPKN9grpc_core12experimental4JsonEPS2_ET1_T0_S7_S6_.exit ]
  call void @llvm.lifetime.start.p0(i64 1, ptr nonnull %ref.tmp.i.i.i.i.i.i.i)
  %_M_index.i.i.i.i.i.i.i.i = getelementptr inbounds %"struct.std::__detail::__variant::_Variant_storage", ptr %__first.sroa.0.04.i.i.i, i64 0, i32 1
  %12 = load i8, ptr %_M_index.i.i.i.i.i.i.i.i, align 8
  %cmp.i.i.i.not.i.i.i.i.i = icmp eq i8 %12, -1
  br i1 %cmp.i.i.i.not.i.i.i.i.i, label %_ZSt8_DestroyIN9grpc_core12experimental4JsonEEvPT_.exit.i.i.i, label %if.end.i.i.i.i.i.i.i

if.end.i.i.i.i.i.i.i:                             ; preds = %for.body.i.i.i26
  invoke void @_ZSt10__do_visitIvZNSt8__detail9__variant16_Variant_storageILb0EJSt9monostatebN9grpc_core12experimental4Json11NumberValueENSt7__cxx1112basic_stringIcSt11char_traitsIcESaIcEEESt3mapISD_S6_St4lessISD_ESaISt4pairIKSD_S6_EEESt6vectorIS6_SaIS6_EEEE8_M_resetEvEUlOT_E_JRSt7variantIJS3_bS7_SD_SL_SO_EEEEDcOT0_DpOT1_(ptr noundef nonnull align 1 dereferenceable(1) %ref.tmp.i.i.i.i.i.i.i, ptr noundef nonnull align 8 dereferenceable(49) %__first.sroa.0.04.i.i.i)
          to label %.noexc.i.i.i.i.i.i unwind label %terminate.lpad.i.i.i.i.i.i.i

.noexc.i.i.i.i.i.i:                               ; preds = %if.end.i.i.i.i.i.i.i
  store i8 -1, ptr %_M_index.i.i.i.i.i.i.i.i, align 8
  br label %_ZSt8_DestroyIN9grpc_core12experimental4JsonEEvPT_.exit.i.i.i

terminate.lpad.i.i.i.i.i.i.i:                     ; preds = %if.end.i.i.i.i.i.i.i
  %13 = landingpad { ptr, i32 }
          catch ptr null
  %14 = extractvalue { ptr, i32 } %13, 0
  call void @__clang_call_terminate(ptr %14) #20
  unreachable

_ZSt8_DestroyIN9grpc_core12experimental4JsonEEvPT_.exit.i.i.i: ; preds = %.noexc.i.i.i.i.i.i, %for.body.i.i.i26
  call void @llvm.lifetime.end.p0(i64 1, ptr nonnull %ref.tmp.i.i.i.i.i.i.i)
  %incdec.ptr.i.i.i.i = getelementptr inbounds %"class.grpc_core::experimental::Json", ptr %__first.sroa.0.04.i.i.i, i64 1
  %cmp.i.not.i.i.i = icmp eq ptr %incdec.ptr.i.i.i.i, %11
  br i1 %cmp.i.not.i.i.i, label %if.end69, label %for.body.i.i.i26, !llvm.loop !8

if.else49:                                        ; preds = %if.else
  %cmp.i.i5164 = icmp sgt i64 %sub.ptr.sub.i22, 0
  br i1 %cmp.i.i5164, label %for.body.i.i52, label %_ZSt14__copy_move_a2ILb0EPN9grpc_core12experimental4JsonES3_ET1_T0_S5_S4_.exit

for.body.i.i52:                                   ; preds = %if.else49, %for.body.i.i52
  %__n.0.i.i5067 = phi i64 [ %dec.i.i56, %for.body.i.i52 ], [ %sub.ptr.div.i23, %if.else49 ]
  %__result.addr.0.i.i4966 = phi ptr [ %incdec.ptr1.i.i55, %for.body.i.i52 ], [ %3, %if.else49 ]
  %__first.addr.0.i.i4865 = phi ptr [ %incdec.ptr.i.i54, %for.body.i.i52 ], [ %1, %if.else49 ]
  call void @llvm.lifetime.start.p0(i64 8, ptr nonnull %ref.tmp.i.i57)
  store ptr %__result.addr.0.i.i4966, ptr %ref.tmp.i.i57, align 8
  call void @_ZSt10__do_visitINSt8__detail9__variant20__variant_idx_cookieEZNS1_17_Copy_assign_baseILb0EJSt9monostatebN9grpc_core12experimental4Json11NumberValueENSt7__cxx1112basic_stringIcSt11char_traitsIcESaIcEEESt3mapISE_S7_St4lessISE_ESaISt4pairIKSE_S7_EEESt6vectorIS7_SaIS7_EEEEaSERKSQ_EUlOT_T0_E_JRKSt7variantIJS4_bS8_SE_SM_SP_EEEEDcOSV_DpOT1_(ptr noundef nonnull align 8 dereferenceable(8) %ref.tmp.i.i57, ptr noundef nonnull align 8 dereferenceable(49) %__first.addr.0.i.i4865)
  call void @llvm.lifetime.end.p0(i64 8, ptr nonnull %ref.tmp.i.i57)
  %incdec.ptr.i.i54 = getelementptr inbounds %"class.grpc_core::experimental::Json", ptr %__first.addr.0.i.i4865, i64 1
  %incdec.ptr1.i.i55 = getelementptr inbounds %"class.grpc_core::experimental::Json", ptr %__result.addr.0.i.i4966, i64 1
  %dec.i.i56 = add nsw i64 %__n.0.i.i5067, -1
  %cmp.i.i51 = icmp sgt i64 %__n.0.i.i5067, 1
  br i1 %cmp.i.i51, label %for.body.i.i52, label %_ZSt14__copy_move_a2ILb0EPN9grpc_core12experimental4JsonES3_ET1_T0_S5_S4_.exit.loopexit, !llvm.loop !9

_ZSt14__copy_move_a2ILb0EPN9grpc_core12experimental4JsonES3_ET1_T0_S5_S4_.exit.loopexit: ; preds = %for.body.i.i52
  %.pre70 = load ptr, ptr %__x, align 8
  %.pre71 = load ptr, ptr %_M_finish.i19, align 8
  %.pre72 = load ptr, ptr %this, align 8
  %.pre73 = load ptr, ptr %_M_finish.i, align 8
  %.pre74 = ptrtoint ptr %.pre71 to i64
  %.pre75 = ptrtoint ptr %.pre72 to i64
  %.pre76 = sub i64 %.pre74, %.pre75
  br label %_ZSt14__copy_move_a2ILb0EPN9grpc_core12experimental4JsonES3_ET1_T0_S5_S4_.exit

_ZSt14__copy_move_a2ILb0EPN9grpc_core12experimental4JsonES3_ET1_T0_S5_S4_.exit: ; preds = %_ZSt14__copy_move_a2ILb0EPN9grpc_core12experimental4JsonES3_ET1_T0_S5_S4_.exit.loopexit, %if.else49
  %sub.ptr.sub.i36.pre-phi = phi i64 [ %.pre76, %_ZSt14__copy_move_a2ILb0EPN9grpc_core12experimental4JsonES3_ET1_T0_S5_S4_.exit.loopexit ], [ %sub.ptr.sub.i22, %if.else49 ]
  %15 = phi ptr [ %.pre73, %_ZSt14__copy_move_a2ILb0EPN9grpc_core12experimental4JsonES3_ET1_T0_S5_S4_.exit.loopexit ], [ %0, %if.else49 ]
  %16 = phi ptr [ %.pre71, %_ZSt14__copy_move_a2ILb0EPN9grpc_core12experimental4JsonES3_ET1_T0_S5_S4_.exit.loopexit ], [ %10, %if.else49 ]
  %17 = phi ptr [ %.pre70, %_ZSt14__copy_move_a2ILb0EPN9grpc_core12experimental4JsonES3_ET1_T0_S5_S4_.exit.loopexit ], [ %1, %if.else49 ]
  %add.ptr62 = getelementptr inbounds i8, ptr %17, i64 %sub.ptr.sub.i36.pre-phi
  %cmp.not8.i.i.i.i = icmp eq ptr %add.ptr62, %15
  br i1 %cmp.not8.i.i.i.i, label %if.end69, label %for.body.i.i.i.i

for.body.i.i.i.i:                                 ; preds = %_ZSt14__copy_move_a2ILb0EPN9grpc_core12experimental4JsonES3_ET1_T0_S5_S4_.exit, %for.inc.i.i.i.i
  %__cur.010.i.i.i.i = phi ptr [ %incdec.ptr1.i.i.i.i, %for.inc.i.i.i.i ], [ %16, %_ZSt14__copy_move_a2ILb0EPN9grpc_core12experimental4JsonES3_ET1_T0_S5_S4_.exit ]
  %__first.addr.09.i.i.i.i = phi ptr [ %incdec.ptr.i.i.i.i38, %for.inc.i.i.i.i ], [ %add.ptr62, %_ZSt14__copy_move_a2ILb0EPN9grpc_core12experimental4JsonES3_ET1_T0_S5_S4_.exit ]
  invoke void @_ZNSt8__detail9__variant17_Copy_assign_baseILb0EJSt9monostatebN9grpc_core12experimental4Json11NumberValueENSt7__cxx1112basic_stringIcSt11char_traitsIcESaIcEEESt3mapISC_S5_St4lessISC_ESaISt4pairIKSC_S5_EEESt6vectorIS5_SaIS5_EEEEC2ERKSO_(ptr noundef nonnull align 8 dereferenceable(49) %__cur.010.i.i.i.i, ptr noundef nonnull align 8 dereferenceable(49) %__first.addr.09.i.i.i.i)
          to label %for.inc.i.i.i.i unwind label %lpad.i.i.i.i

for.inc.i.i.i.i:                                  ; preds = %for.body.i.i.i.i
  %incdec.ptr.i.i.i.i38 = getelementptr inbounds %"class.grpc_core::experimental::Json", ptr %__first.addr.09.i.i.i.i, i64 1
  %incdec.ptr1.i.i.i.i = getelementptr inbounds %"class.grpc_core::experimental::Json", ptr %__cur.010.i.i.i.i, i64 1
  %cmp.not.i.i.i.i = icmp eq ptr %incdec.ptr.i.i.i.i38, %15
  br i1 %cmp.not.i.i.i.i, label %if.end69, label %for.body.i.i.i.i, !llvm.loop !10

lpad.i.i.i.i:                                     ; preds = %for.body.i.i.i.i
  %18 = landingpad { ptr, i32 }
          catch ptr null
  %19 = extractvalue { ptr, i32 } %18, 0
  %20 = call ptr @__cxa_begin_catch(ptr %19) #18
  invoke void @_ZSt8_DestroyIPN9grpc_core12experimental4JsonEEvT_S4_(ptr noundef %16, ptr noundef %__cur.010.i.i.i.i)
          to label %invoke.cont3.i.i.i.i unwind label %lpad2.i.i.i.i

invoke.cont3.i.i.i.i:                             ; preds = %lpad.i.i.i.i
  invoke void @__cxa_rethrow() #19
          to label %unreachable.i.i.i.i unwind label %lpad2.i.i.i.i

lpad2.i.i.i.i:                                    ; preds = %invoke.cont3.i.i.i.i, %lpad.i.i.i.i
  %21 = landingpad { ptr, i32 }
          cleanup
  invoke void @__cxa_end_catch()
          to label %eh.resume.i.i.i.i unwind label %terminate.lpad.i.i.i.i

eh.resume.i.i.i.i:                                ; preds = %lpad2.i.i.i.i
  resume { ptr, i32 } %21

terminate.lpad.i.i.i.i:                           ; preds = %lpad2.i.i.i.i
  %22 = landingpad { ptr, i32 }
          catch ptr null
  %23 = extractvalue { ptr, i32 } %22, 0
  call void @__clang_call_terminate(ptr %23) #20
  unreachable

unreachable.i.i.i.i:                              ; preds = %invoke.cont3.i.i.i.i
  unreachable

if.end69:                                         ; preds = %_ZSt8_DestroyIN9grpc_core12experimental4JsonEEvPT_.exit.i.i.i, %for.inc.i.i.i.i, %_ZSt14__copy_move_a2ILb0EPN9grpc_core12experimental4JsonES3_ET1_T0_S5_S4_.exit, %_ZSt14__copy_move_a2ILb0EPKN9grpc_core12experimental4JsonEPS2_ET1_T0_S7_S6_.exit, %_ZNSt12_Vector_baseIN9grpc_core12experimental4JsonESaIS2_EE13_M_deallocateEPS2_m.exit
  %24 = load ptr, ptr %this, align 8
  %add.ptr72 = getelementptr inbounds i8, ptr %24, i64 %sub.ptr.sub.i
  %_M_finish74 = getelementptr inbounds %"struct.std::_Vector_base<grpc_core::experimental::Json, std::allocator<grpc_core::experimental::Json>>::_Vector_impl_data", ptr %this, i64 0, i32 1
  store ptr %add.ptr72, ptr %_M_finish74, align 8
  br label %if.end75

if.end75:                                         ; preds = %if.end69, %entry
  ret ptr %this
}

; Function Attrs: mustprogress uwtable
define void @_ZNK9grpc_core11json_detail10LoadVector8LoadIntoERKNS_12experimental4JsonERKNS_8JsonArgsEPvPNS_16ValidationErrorsE(ptr noundef nonnull align 8 dereferenceable(8) %this, ptr nocapture noundef nonnull readonly align 8 dereferenceable(56) %json, ptr noundef nonnull align 8 dereferenceable(8) %args, ptr noundef %dst, ptr noundef %errors) unnamed_addr #3 align 2 personality ptr @__gxx_personality_v0 {
entry:
  %field = alloca %"class.grpc_core::ValidationErrors::ScopedField", align 8
  %ref.tmp = alloca %"class.std::__cxx11::basic_string", align 8
  %ref.tmp7 = alloca %"class.absl::lts_20230802::AlphaNum", align 8
  %ref.tmp8 = alloca %"class.absl::lts_20230802::AlphaNum", align 8
  %ref.tmp9 = alloca %"class.absl::lts_20230802::AlphaNum", align 8
  %_M_index.i.i.i.i = getelementptr inbounds %"struct.std::__detail::__variant::_Variant_storage", ptr %json, i64 0, i32 1
  %0 = load i8, ptr %_M_index.i.i.i.i, align 8
  %cmp.i.not.i.i.i = icmp eq i8 %0, -1
  br i1 %cmp.i.not.i.i.i, label %if.then.i.i, label %if.end.i.i

if.then.i.i:                                      ; preds = %entry
  %exception.i.i.i = tail call ptr @__cxa_allocate_exception(i64 16) #18
  store ptr getelementptr inbounds ({ [5 x ptr] }, ptr @_ZTVSt18bad_variant_access, i64 0, inrange i32 0, i64 2), ptr %exception.i.i.i, align 8
  %_M_reason.i.i.i.i = getelementptr inbounds %"class.std::bad_variant_access", ptr %exception.i.i.i, i64 0, i32 1
  store ptr @.str.19, ptr %_M_reason.i.i.i.i, align 8
  tail call void @__cxa_throw(ptr nonnull %exception.i.i.i, ptr nonnull @_ZTISt18bad_variant_access, ptr nonnull @_ZNSt18bad_variant_accessD2Ev) #19
  unreachable

if.end.i.i:                                       ; preds = %entry
  %switch = icmp ult i8 %0, 5
  br i1 %switch, label %if.then, label %if.end

if.then:                                          ; preds = %if.end.i.i
  tail call void @_ZN9grpc_core16ValidationErrors8AddErrorESt17basic_string_viewIcSt11char_traitsIcEE(ptr noundef nonnull align 8 dereferenceable(72) %errors, i64 15, ptr nonnull @.str.11)
  br label %for.end

if.end:                                           ; preds = %if.end.i.i
  %cmp.not.i.i.i = icmp eq i8 %0, 5
  br i1 %cmp.not.i.i.i, label %_ZNK9grpc_core12experimental4Json5arrayEv.exit, label %if.else.i.i.i.i

if.else.i.i.i.i:                                  ; preds = %if.end
  %exception.i.i.i.i.i = tail call ptr @__cxa_allocate_exception(i64 16) #18
  store ptr getelementptr inbounds ({ [5 x ptr] }, ptr @_ZTVSt18bad_variant_access, i64 0, inrange i32 0, i64 2), ptr %exception.i.i.i.i.i, align 8
  %_M_reason.i.i.i.i.i.i = getelementptr inbounds %"class.std::bad_variant_access", ptr %exception.i.i.i.i.i, i64 0, i32 1
  store ptr @.str.21, ptr %_M_reason.i.i.i.i.i.i, align 8
  tail call void @__cxa_throw(ptr nonnull %exception.i.i.i.i.i, ptr nonnull @_ZTISt18bad_variant_access, ptr nonnull @_ZNSt18bad_variant_accessD2Ev) #19
  unreachable

_ZNK9grpc_core12experimental4Json5arrayEv.exit:   ; preds = %if.end
  %vtable = load ptr, ptr %this, align 8
  %vfn = getelementptr inbounds ptr, ptr %vtable, i64 2
  %1 = load ptr, ptr %vfn, align 8
  %call3 = tail call noundef ptr %1(ptr noundef nonnull align 8 dereferenceable(8) %this)
  %_M_finish.i = getelementptr inbounds %"struct.std::_Vector_base<grpc_core::experimental::Json, std::allocator<grpc_core::experimental::Json>>::_Vector_impl_data", ptr %json, i64 0, i32 1
  %2 = load ptr, ptr %_M_finish.i, align 8
  %3 = load ptr, ptr %json, align 8
  %cmp520.not = icmp eq ptr %2, %3
  br i1 %cmp520.not, label %for.end, label %for.body.lr.ph

for.body.lr.ph:                                   ; preds = %_ZNK9grpc_core12experimental4Json5arrayEv.exit
  %4 = getelementptr inbounds { i64, ptr }, ptr %ref.tmp7, i64 0, i32 1
  %digits_.i = getelementptr inbounds %"class.absl::lts_20230802::AlphaNum", ptr %ref.tmp8, i64 0, i32 1
  %sub.ptr.rhs.cast.i11 = ptrtoint ptr %digits_.i to i64
  %_M_str.i.i = getelementptr inbounds %"class.std::basic_string_view", ptr %ref.tmp8, i64 0, i32 1
  %5 = getelementptr inbounds { i64, ptr }, ptr %ref.tmp9, i64 0, i32 1
  br label %for.body

for.body:                                         ; preds = %for.body.lr.ph, %_ZN9grpc_core16ValidationErrors11ScopedFieldD2Ev.exit
  %i.021 = phi i64 [ 0, %for.body.lr.ph ], [ %inc, %_ZN9grpc_core16ValidationErrors11ScopedFieldD2Ev.exit ]
  store i64 1, ptr %ref.tmp7, align 8
  store ptr @.str.12, ptr %4, align 8
  %call.i = call noundef ptr @_ZN4absl12lts_2023080216numbers_internal15FastIntToBufferEmPc(i64 noundef %i.021, ptr noundef nonnull %digits_.i)
  %sub.ptr.lhs.cast.i10 = ptrtoint ptr %call.i to i64
  %sub.ptr.sub.i12 = sub i64 %sub.ptr.lhs.cast.i10, %sub.ptr.rhs.cast.i11
  store i64 %sub.ptr.sub.i12, ptr %ref.tmp8, align 8
  store ptr %digits_.i, ptr %_M_str.i.i, align 8
  store i64 1, ptr %ref.tmp9, align 8
  store ptr @.str.13, ptr %5, align 8
  call void @_ZN4absl12lts_202308026StrCatB5cxx11ERKNS0_8AlphaNumES3_S3_(ptr nonnull sret(%"class.std::__cxx11::basic_string") align 8 %ref.tmp, ptr noundef nonnull align 8 dereferenceable(48) %ref.tmp7, ptr noundef nonnull align 8 dereferenceable(48) %ref.tmp8, ptr noundef nonnull align 8 dereferenceable(48) %ref.tmp9)
  %call10 = call { i64, ptr } @_ZNKSt7__cxx1112basic_stringIcSt11char_traitsIcESaIcEEcvSt17basic_string_viewIcS2_EEv(ptr noundef nonnull align 8 dereferenceable(32) %ref.tmp) #18
  %6 = extractvalue { i64, ptr } %call10, 0
  %7 = extractvalue { i64, ptr } %call10, 1
  store ptr %errors, ptr %field, align 8
  invoke void @_ZN9grpc_core16ValidationErrors9PushFieldESt17basic_string_viewIcSt11char_traitsIcEE(ptr noundef nonnull align 8 dereferenceable(72) %errors, i64 %6, ptr %7)
          to label %invoke.cont unwind label %lpad

invoke.cont:                                      ; preds = %for.body
  call void @_ZNSt7__cxx1112basic_stringIcSt11char_traitsIcESaIcEED1Ev(ptr noundef nonnull align 8 dereferenceable(32) %ref.tmp) #18
  %vtable11 = load ptr, ptr %this, align 8
  %vfn12 = getelementptr inbounds ptr, ptr %vtable11, i64 1
  %8 = load ptr, ptr %vfn12, align 8
  %call15 = invoke noundef ptr %8(ptr noundef nonnull align 8 dereferenceable(8) %this, ptr noundef %dst)
          to label %invoke.cont14 unwind label %lpad13

invoke.cont14:                                    ; preds = %invoke.cont
  %9 = load ptr, ptr %json, align 8
  %add.ptr.i = getelementptr inbounds %"class.grpc_core::experimental::Json", ptr %9, i64 %i.021
  %vtable17 = load ptr, ptr %call3, align 8
  %10 = load ptr, ptr %vtable17, align 8
  invoke void %10(ptr noundef nonnull align 8 dereferenceable(8) %call3, ptr noundef nonnull align 8 dereferenceable(56) %add.ptr.i, ptr noundef nonnull align 8 dereferenceable(8) %args, ptr noundef %call15, ptr noundef nonnull %errors)
          to label %invoke.cont19 unwind label %lpad13

invoke.cont19:                                    ; preds = %invoke.cont14
  %11 = load ptr, ptr %field, align 8
  %cmp.not.i = icmp eq ptr %11, null
  br i1 %cmp.not.i, label %_ZN9grpc_core16ValidationErrors11ScopedFieldD2Ev.exit, label %if.then.i

if.then.i:                                        ; preds = %invoke.cont19
  invoke void @_ZN9grpc_core16ValidationErrors8PopFieldEv(ptr noundef nonnull align 8 dereferenceable(72) %11)
          to label %_ZN9grpc_core16ValidationErrors11ScopedFieldD2Ev.exit unwind label %terminate.lpad.i

terminate.lpad.i:                                 ; preds = %if.then.i
  %12 = landingpad { ptr, i32 }
          catch ptr null
  %13 = extractvalue { ptr, i32 } %12, 0
  call void @__clang_call_terminate(ptr %13) #20
  unreachable

_ZN9grpc_core16ValidationErrors11ScopedFieldD2Ev.exit: ; preds = %invoke.cont19, %if.then.i
  %inc = add nuw i64 %i.021, 1
  %14 = load ptr, ptr %_M_finish.i, align 8
  %15 = load ptr, ptr %json, align 8
  %sub.ptr.lhs.cast.i = ptrtoint ptr %14 to i64
  %sub.ptr.rhs.cast.i = ptrtoint ptr %15 to i64
  %sub.ptr.sub.i = sub i64 %sub.ptr.lhs.cast.i, %sub.ptr.rhs.cast.i
  %sub.ptr.div.i = sdiv exact i64 %sub.ptr.sub.i, 56
  %cmp5 = icmp ult i64 %inc, %sub.ptr.div.i
  br i1 %cmp5, label %for.body, label %for.end, !llvm.loop !11

lpad:                                             ; preds = %for.body
  %16 = landingpad { ptr, i32 }
          cleanup
  call void @_ZNSt7__cxx1112basic_stringIcSt11char_traitsIcESaIcEED1Ev(ptr noundef nonnull align 8 dereferenceable(32) %ref.tmp) #18
  br label %eh.resume

lpad13:                                           ; preds = %invoke.cont14, %invoke.cont
  %17 = landingpad { ptr, i32 }
          cleanup
  call void @_ZN9grpc_core16ValidationErrors11ScopedFieldD2Ev(ptr noundef nonnull align 8 dereferenceable(8) %field) #18
  br label %eh.resume

for.end:                                          ; preds = %_ZN9grpc_core16ValidationErrors11ScopedFieldD2Ev.exit, %_ZNK9grpc_core12experimental4Json5arrayEv.exit, %if.then
  ret void

eh.resume:                                        ; preds = %lpad13, %lpad
  %.pn = phi { ptr, i32 } [ %17, %lpad13 ], [ %16, %lpad ]
  resume { ptr, i32 } %.pn
}

declare void @_ZN4absl12lts_202308026StrCatB5cxx11ERKNS0_8AlphaNumES3_S3_(ptr sret(%"class.std::__cxx11::basic_string") align 8, ptr noundef nonnull align 8 dereferenceable(48), ptr noundef nonnull align 8 dereferenceable(48), ptr noundef nonnull align 8 dereferenceable(48)) local_unnamed_addr #0

; Function Attrs: mustprogress nounwind uwtable
define linkonce_odr void @_ZN9grpc_core16ValidationErrors11ScopedFieldD2Ev(ptr noundef nonnull align 8 dereferenceable(8) %this) unnamed_addr #5 comdat align 2 personality ptr @__gxx_personality_v0 {
entry:
  %0 = load ptr, ptr %this, align 8
  %cmp.not = icmp eq ptr %0, null
  br i1 %cmp.not, label %if.end, label %if.then

if.then:                                          ; preds = %entry
  invoke void @_ZN9grpc_core16ValidationErrors8PopFieldEv(ptr noundef nonnull align 8 dereferenceable(72) %0)
          to label %if.end unwind label %terminate.lpad

if.end:                                           ; preds = %if.then, %entry
  ret void

terminate.lpad:                                   ; preds = %if.then
  %1 = landingpad { ptr, i32 }
          catch ptr null
  %2 = extractvalue { ptr, i32 } %1, 0
  tail call void @__clang_call_terminate(ptr %2) #20
  unreachable
}

; Function Attrs: mustprogress uwtable
define void @_ZNK9grpc_core11json_detail10AutoLoaderISt6vectorIbSaIbEEE8LoadIntoERKNS_12experimental4JsonERKNS_8JsonArgsEPvPNS_16ValidationErrorsE(ptr nocapture nonnull readnone align 8 %this, ptr nocapture noundef nonnull readonly align 8 dereferenceable(56) %json, ptr noundef nonnull align 8 dereferenceable(8) %args, ptr noundef %dst, ptr noundef %errors) unnamed_addr #3 align 2 personality ptr @__gxx_personality_v0 {
entry:
  %field = alloca %"class.grpc_core::ValidationErrors::ScopedField", align 8
  %ref.tmp = alloca %"class.std::__cxx11::basic_string", align 8
  %ref.tmp7 = alloca %"class.absl::lts_20230802::AlphaNum", align 8
  %ref.tmp8 = alloca %"class.absl::lts_20230802::AlphaNum", align 8
  %ref.tmp9 = alloca %"class.absl::lts_20230802::AlphaNum", align 8
  %elem = alloca i8, align 1
  %_M_index.i.i.i.i = getelementptr inbounds %"struct.std::__detail::__variant::_Variant_storage", ptr %json, i64 0, i32 1
  %0 = load i8, ptr %_M_index.i.i.i.i, align 8
  %cmp.i.not.i.i.i = icmp eq i8 %0, -1
  br i1 %cmp.i.not.i.i.i, label %if.then.i.i, label %if.end.i.i

if.then.i.i:                                      ; preds = %entry
  %exception.i.i.i = tail call ptr @__cxa_allocate_exception(i64 16) #18
  store ptr getelementptr inbounds ({ [5 x ptr] }, ptr @_ZTVSt18bad_variant_access, i64 0, inrange i32 0, i64 2), ptr %exception.i.i.i, align 8
  %_M_reason.i.i.i.i = getelementptr inbounds %"class.std::bad_variant_access", ptr %exception.i.i.i, i64 0, i32 1
  store ptr @.str.19, ptr %_M_reason.i.i.i.i, align 8
  tail call void @__cxa_throw(ptr nonnull %exception.i.i.i, ptr nonnull @_ZTISt18bad_variant_access, ptr nonnull @_ZNSt18bad_variant_accessD2Ev) #19
  unreachable

if.end.i.i:                                       ; preds = %entry
  %switch = icmp ult i8 %0, 5
  br i1 %switch, label %if.then, label %if.end

if.then:                                          ; preds = %if.end.i.i
  tail call void @_ZN9grpc_core16ValidationErrors8AddErrorESt17basic_string_viewIcSt11char_traitsIcEE(ptr noundef nonnull align 8 dereferenceable(72) %errors, i64 15, ptr nonnull @.str.11)
  br label %for.end

if.end:                                           ; preds = %if.end.i.i
  %cmp.not.i.i.i = icmp eq i8 %0, 5
  br i1 %cmp.not.i.i.i, label %for.cond.preheader, label %if.else.i.i.i.i

for.cond.preheader:                               ; preds = %if.end
  %_M_finish.i = getelementptr inbounds %"struct.std::_Vector_base<grpc_core::experimental::Json, std::allocator<grpc_core::experimental::Json>>::_Vector_impl_data", ptr %json, i64 0, i32 1
  %1 = load ptr, ptr %_M_finish.i, align 8
  %2 = load ptr, ptr %json, align 8
  %cmp525.not = icmp eq ptr %1, %2
  br i1 %cmp525.not, label %for.end, label %for.body.lr.ph

for.body.lr.ph:                                   ; preds = %for.cond.preheader
  %3 = getelementptr inbounds { i64, ptr }, ptr %ref.tmp7, i64 0, i32 1
  %digits_.i = getelementptr inbounds %"class.absl::lts_20230802::AlphaNum", ptr %ref.tmp8, i64 0, i32 1
  %sub.ptr.rhs.cast.i11 = ptrtoint ptr %digits_.i to i64
  %_M_str.i.i = getelementptr inbounds %"class.std::basic_string_view", ptr %ref.tmp8, i64 0, i32 1
  %4 = getelementptr inbounds { i64, ptr }, ptr %ref.tmp9, i64 0, i32 1
  %_M_finish.i14 = getelementptr inbounds %"struct.std::_Bvector_base<std::allocator<bool>>::_Bvector_impl_data", ptr %dst, i64 0, i32 1
  %_M_end_of_storage.i.i = getelementptr inbounds %"struct.std::_Bvector_base<std::allocator<bool>>::_Bvector_impl_data", ptr %dst, i64 0, i32 2
  %retval.sroa.2.0._M_finish.sroa_idx.i.i = getelementptr inbounds %"struct.std::_Bvector_base<std::allocator<bool>>::_Bvector_impl_data", ptr %dst, i64 0, i32 1, i32 0, i32 1
  br label %for.body

if.else.i.i.i.i:                                  ; preds = %if.end
  %exception.i.i.i.i.i = tail call ptr @__cxa_allocate_exception(i64 16) #18
  store ptr getelementptr inbounds ({ [5 x ptr] }, ptr @_ZTVSt18bad_variant_access, i64 0, inrange i32 0, i64 2), ptr %exception.i.i.i.i.i, align 8
  %_M_reason.i.i.i.i.i.i = getelementptr inbounds %"class.std::bad_variant_access", ptr %exception.i.i.i.i.i, i64 0, i32 1
  store ptr @.str.21, ptr %_M_reason.i.i.i.i.i.i, align 8
  tail call void @__cxa_throw(ptr nonnull %exception.i.i.i.i.i, ptr nonnull @_ZTISt18bad_variant_access, ptr nonnull @_ZNSt18bad_variant_accessD2Ev) #19
  unreachable

for.body:                                         ; preds = %for.body.lr.ph, %_ZN9grpc_core16ValidationErrors11ScopedFieldD2Ev.exit
  %i.026 = phi i64 [ 0, %for.body.lr.ph ], [ %inc, %_ZN9grpc_core16ValidationErrors11ScopedFieldD2Ev.exit ]
  store i64 1, ptr %ref.tmp7, align 8
  store ptr @.str.12, ptr %3, align 8
  %call.i = call noundef ptr @_ZN4absl12lts_2023080216numbers_internal15FastIntToBufferEmPc(i64 noundef %i.026, ptr noundef nonnull %digits_.i)
  %sub.ptr.lhs.cast.i10 = ptrtoint ptr %call.i to i64
  %sub.ptr.sub.i12 = sub i64 %sub.ptr.lhs.cast.i10, %sub.ptr.rhs.cast.i11
  store i64 %sub.ptr.sub.i12, ptr %ref.tmp8, align 8
  store ptr %digits_.i, ptr %_M_str.i.i, align 8
  store i64 1, ptr %ref.tmp9, align 8
  store ptr @.str.13, ptr %4, align 8
  call void @_ZN4absl12lts_202308026StrCatB5cxx11ERKNS0_8AlphaNumES3_S3_(ptr nonnull sret(%"class.std::__cxx11::basic_string") align 8 %ref.tmp, ptr noundef nonnull align 8 dereferenceable(48) %ref.tmp7, ptr noundef nonnull align 8 dereferenceable(48) %ref.tmp8, ptr noundef nonnull align 8 dereferenceable(48) %ref.tmp9)
  %call10 = call { i64, ptr } @_ZNKSt7__cxx1112basic_stringIcSt11char_traitsIcESaIcEEcvSt17basic_string_viewIcS2_EEv(ptr noundef nonnull align 8 dereferenceable(32) %ref.tmp) #18
  %5 = extractvalue { i64, ptr } %call10, 0
  %6 = extractvalue { i64, ptr } %call10, 1
  store ptr %errors, ptr %field, align 8
  invoke void @_ZN9grpc_core16ValidationErrors9PushFieldESt17basic_string_viewIcSt11char_traitsIcEE(ptr noundef nonnull align 8 dereferenceable(72) %errors, i64 %5, ptr %6)
          to label %invoke.cont unwind label %lpad

invoke.cont:                                      ; preds = %for.body
  call void @_ZNSt7__cxx1112basic_stringIcSt11char_traitsIcESaIcEED1Ev(ptr noundef nonnull align 8 dereferenceable(32) %ref.tmp) #18
  store i8 0, ptr %elem, align 1
  %7 = load ptr, ptr %json, align 8
  %add.ptr.i = getelementptr inbounds %"class.grpc_core::experimental::Json", ptr %7, i64 %i.026
  %vtable = load ptr, ptr @_ZN9grpc_core19NoDestructSingletonINS_11json_detail10AutoLoaderIbEEE6value_E, align 8
  %8 = load ptr, ptr %vtable, align 8
  invoke void %8(ptr noundef nonnull align 8 dereferenceable(8) @_ZN9grpc_core19NoDestructSingletonINS_11json_detail10AutoLoaderIbEEE6value_E, ptr noundef nonnull align 8 dereferenceable(56) %add.ptr.i, ptr noundef nonnull align 8 dereferenceable(8) %args, ptr noundef nonnull %elem, ptr noundef nonnull %errors)
          to label %invoke.cont13 unwind label %lpad12

invoke.cont13:                                    ; preds = %invoke.cont
  %9 = load i8, ptr %elem, align 1
  %10 = and i8 %9, 1
  %tobool = icmp ne i8 %10, 0
  %11 = load ptr, ptr %_M_finish.i14, align 8
  %12 = load ptr, ptr %_M_end_of_storage.i.i, align 8
  %cmp.not.i = icmp eq ptr %11, %12
  %retval.sroa.2.0.copyload.i5.i = load i32, ptr %retval.sroa.2.0._M_finish.sroa_idx.i.i, align 8
  br i1 %cmp.not.i, label %if.else.i, label %if.then.i

if.then.i:                                        ; preds = %invoke.cont13
  %inc.i.i.i = add i32 %retval.sroa.2.0.copyload.i5.i, 1
  store i32 %inc.i.i.i, ptr %retval.sroa.2.0._M_finish.sroa_idx.i.i, align 8
  %cmp.i.i.i = icmp eq i32 %retval.sroa.2.0.copyload.i5.i, 63
  br i1 %cmp.i.i.i, label %if.then.i.i.i16, label %_ZNSt13_Bit_iteratorppEi.exit.i

if.then.i.i.i16:                                  ; preds = %if.then.i
  store i32 0, ptr %retval.sroa.2.0._M_finish.sroa_idx.i.i, align 8
  %incdec.ptr.i.i.i = getelementptr inbounds i64, ptr %11, i64 1
  store ptr %incdec.ptr.i.i.i, ptr %_M_finish.i14, align 8
  br label %_ZNSt13_Bit_iteratorppEi.exit.i

_ZNSt13_Bit_iteratorppEi.exit.i:                  ; preds = %if.then.i.i.i16, %if.then.i
  %sh_prom.i.i = zext nneg i32 %retval.sroa.2.0.copyload.i5.i to i64
  %shl.i.i = shl nuw i64 1, %sh_prom.i.i
  br i1 %tobool, label %if.then.i.i15, label %if.else.i.i

if.then.i.i15:                                    ; preds = %_ZNSt13_Bit_iteratorppEi.exit.i
  %13 = load i64, ptr %11, align 8
  %or.i.i = or i64 %13, %shl.i.i
  br label %invoke.cont14.sink.split

if.else.i.i:                                      ; preds = %_ZNSt13_Bit_iteratorppEi.exit.i
  %not.i.i = xor i64 %shl.i.i, -1
  %14 = load i64, ptr %11, align 8
  %and.i.i = and i64 %14, %not.i.i
  br label %invoke.cont14.sink.split

if.else.i:                                        ; preds = %invoke.cont13
  invoke void @_ZNSt6vectorIbSaIbEE13_M_insert_auxESt13_Bit_iteratorb(ptr noundef nonnull align 8 dereferenceable(40) %dst, ptr %11, i32 %retval.sroa.2.0.copyload.i5.i, i1 noundef zeroext %tobool)
          to label %invoke.cont14 unwind label %lpad12

invoke.cont14.sink.split:                         ; preds = %if.then.i.i15, %if.else.i.i
  %and.i.i.sink = phi i64 [ %and.i.i, %if.else.i.i ], [ %or.i.i, %if.then.i.i15 ]
  store i64 %and.i.i.sink, ptr %11, align 8
  br label %invoke.cont14

invoke.cont14:                                    ; preds = %invoke.cont14.sink.split, %if.else.i
  %15 = load ptr, ptr %field, align 8
  %cmp.not.i17 = icmp eq ptr %15, null
  br i1 %cmp.not.i17, label %_ZN9grpc_core16ValidationErrors11ScopedFieldD2Ev.exit, label %if.then.i18

if.then.i18:                                      ; preds = %invoke.cont14
  invoke void @_ZN9grpc_core16ValidationErrors8PopFieldEv(ptr noundef nonnull align 8 dereferenceable(72) %15)
          to label %_ZN9grpc_core16ValidationErrors11ScopedFieldD2Ev.exit unwind label %terminate.lpad.i

terminate.lpad.i:                                 ; preds = %if.then.i18
  %16 = landingpad { ptr, i32 }
          catch ptr null
  %17 = extractvalue { ptr, i32 } %16, 0
  call void @__clang_call_terminate(ptr %17) #20
  unreachable

_ZN9grpc_core16ValidationErrors11ScopedFieldD2Ev.exit: ; preds = %invoke.cont14, %if.then.i18
  %inc = add nuw i64 %i.026, 1
  %18 = load ptr, ptr %_M_finish.i, align 8
  %19 = load ptr, ptr %json, align 8
  %sub.ptr.lhs.cast.i = ptrtoint ptr %18 to i64
  %sub.ptr.rhs.cast.i = ptrtoint ptr %19 to i64
  %sub.ptr.sub.i = sub i64 %sub.ptr.lhs.cast.i, %sub.ptr.rhs.cast.i
  %sub.ptr.div.i = sdiv exact i64 %sub.ptr.sub.i, 56
  %cmp5 = icmp ult i64 %inc, %sub.ptr.div.i
  br i1 %cmp5, label %for.body, label %for.end, !llvm.loop !12

lpad:                                             ; preds = %for.body
  %20 = landingpad { ptr, i32 }
          cleanup
  call void @_ZNSt7__cxx1112basic_stringIcSt11char_traitsIcESaIcEED1Ev(ptr noundef nonnull align 8 dereferenceable(32) %ref.tmp) #18
  br label %eh.resume

lpad12:                                           ; preds = %if.else.i, %invoke.cont
  %21 = landingpad { ptr, i32 }
          cleanup
  call void @_ZN9grpc_core16ValidationErrors11ScopedFieldD2Ev(ptr noundef nonnull align 8 dereferenceable(8) %field) #18
  br label %eh.resume

for.end:                                          ; preds = %_ZN9grpc_core16ValidationErrors11ScopedFieldD2Ev.exit, %for.cond.preheader, %if.then
  ret void

eh.resume:                                        ; preds = %lpad12, %lpad
  %.pn = phi { ptr, i32 } [ %21, %lpad12 ], [ %20, %lpad ]
  resume { ptr, i32 } %.pn
}

; Function Attrs: mustprogress uwtable
define void @_ZNK9grpc_core11json_detail7LoadMap8LoadIntoERKNS_12experimental4JsonERKNS_8JsonArgsEPvPNS_16ValidationErrorsE(ptr noundef nonnull align 8 dereferenceable(8) %this, ptr noundef nonnull readonly align 8 dereferenceable(56) %json, ptr noundef nonnull align 8 dereferenceable(8) %args, ptr noundef %dst, ptr noundef %errors) unnamed_addr #3 align 2 personality ptr @__gxx_personality_v0 {
entry:
  %field = alloca %"class.grpc_core::ValidationErrors::ScopedField", align 8
  %ref.tmp = alloca %"class.std::__cxx11::basic_string", align 8
  %ref.tmp10 = alloca %"class.absl::lts_20230802::AlphaNum", align 8
  %ref.tmp11 = alloca %"class.absl::lts_20230802::AlphaNum", align 8
  %ref.tmp12 = alloca %"class.absl::lts_20230802::AlphaNum", align 8
  %_M_index.i.i.i.i = getelementptr inbounds %"struct.std::__detail::__variant::_Variant_storage", ptr %json, i64 0, i32 1
  %0 = load i8, ptr %_M_index.i.i.i.i, align 8
  switch i8 %0, label %if.then [
    i8 -1, label %if.then.i.i
    i8 4, label %if.end
  ]

if.then.i.i:                                      ; preds = %entry
  %exception.i.i.i = tail call ptr @__cxa_allocate_exception(i64 16) #18
  store ptr getelementptr inbounds ({ [5 x ptr] }, ptr @_ZTVSt18bad_variant_access, i64 0, inrange i32 0, i64 2), ptr %exception.i.i.i, align 8
  %_M_reason.i.i.i.i = getelementptr inbounds %"class.std::bad_variant_access", ptr %exception.i.i.i, i64 0, i32 1
  store ptr @.str.19, ptr %_M_reason.i.i.i.i, align 8
  tail call void @__cxa_throw(ptr nonnull %exception.i.i.i, ptr nonnull @_ZTISt18bad_variant_access, ptr nonnull @_ZNSt18bad_variant_accessD2Ev) #19
  unreachable

if.then:                                          ; preds = %entry
  tail call void @_ZN9grpc_core16ValidationErrors8AddErrorESt17basic_string_viewIcSt11char_traitsIcEE(ptr noundef nonnull align 8 dereferenceable(72) %errors, i64 16, ptr nonnull @.str.10)
  br label %for.end

if.end:                                           ; preds = %entry
  %vtable = load ptr, ptr %this, align 8
  %vfn = getelementptr inbounds ptr, ptr %vtable, i64 2
  %1 = load ptr, ptr %vfn, align 8
  %call2 = tail call noundef ptr %1(ptr noundef nonnull align 8 dereferenceable(8) %this)
  %2 = load i8, ptr %_M_index.i.i.i.i, align 8
  %cmp.not.i.i.i = icmp eq i8 %2, 4
  br i1 %cmp.not.i.i.i, label %_ZNK9grpc_core12experimental4Json6objectB5cxx11Ev.exit, label %if.then.i.i.i

if.then.i.i.i:                                    ; preds = %if.end
  %cmp.i.not.i.i.i.i = icmp eq i8 %2, -1
  %exception.i.i.i.i.i = tail call ptr @__cxa_allocate_exception(i64 16) #18
  store ptr getelementptr inbounds ({ [5 x ptr] }, ptr @_ZTVSt18bad_variant_access, i64 0, inrange i32 0, i64 2), ptr %exception.i.i.i.i.i, align 8
  %_M_reason.i.i.i.i.i.i = getelementptr inbounds %"class.std::bad_variant_access", ptr %exception.i.i.i.i.i, i64 0, i32 1
  br i1 %cmp.i.not.i.i.i.i, label %if.then.i.i.i.i, label %if.else.i.i.i.i

if.then.i.i.i.i:                                  ; preds = %if.then.i.i.i
  store ptr @.str.20, ptr %_M_reason.i.i.i.i.i.i, align 8
  tail call void @__cxa_throw(ptr nonnull %exception.i.i.i.i.i, ptr nonnull @_ZTISt18bad_variant_access, ptr nonnull @_ZNSt18bad_variant_accessD2Ev) #19
  unreachable

if.else.i.i.i.i:                                  ; preds = %if.then.i.i.i
  store ptr @.str.21, ptr %_M_reason.i.i.i.i.i.i, align 8
  tail call void @__cxa_throw(ptr nonnull %exception.i.i.i.i.i, ptr nonnull @_ZTISt18bad_variant_access, ptr nonnull @_ZNSt18bad_variant_accessD2Ev) #19
  unreachable

_ZNK9grpc_core12experimental4Json6objectB5cxx11Ev.exit: ; preds = %if.end
  %_M_left.i.i = getelementptr inbounds i8, ptr %json, i64 24
  %3 = load ptr, ptr %_M_left.i.i, align 8
  %add.ptr.i.i = getelementptr inbounds i8, ptr %json, i64 8
  %cmp.i.not15 = icmp eq ptr %3, %add.ptr.i.i
  br i1 %cmp.i.not15, label %for.end, label %for.body.lr.ph

for.body.lr.ph:                                   ; preds = %_ZNK9grpc_core12experimental4Json6objectB5cxx11Ev.exit
  %4 = getelementptr inbounds { i64, ptr }, ptr %ref.tmp10, i64 0, i32 1
  %5 = getelementptr inbounds { i64, ptr }, ptr %ref.tmp11, i64 0, i32 1
  %6 = getelementptr inbounds { i64, ptr }, ptr %ref.tmp12, i64 0, i32 1
  br label %for.body

for.body:                                         ; preds = %for.body.lr.ph, %_ZN9grpc_core16ValidationErrors11ScopedFieldD2Ev.exit
  %__begin2.sroa.0.016 = phi ptr [ %3, %for.body.lr.ph ], [ %call.i10, %_ZN9grpc_core16ValidationErrors11ScopedFieldD2Ev.exit ]
  %_M_storage.i.i = getelementptr inbounds %"struct.std::_Rb_tree_node", ptr %__begin2.sroa.0.016, i64 0, i32 1
  store i64 2, ptr %ref.tmp10, align 8
  store ptr @.str.14, ptr %4, align 8
  %call.i = call { i64, ptr } @_ZNKSt7__cxx1112basic_stringIcSt11char_traitsIcESaIcEEcvSt17basic_string_viewIcS2_EEv(ptr noundef nonnull align 8 dereferenceable(32) %_M_storage.i.i) #18
  %7 = extractvalue { i64, ptr } %call.i, 0
  store i64 %7, ptr %ref.tmp11, align 8
  %8 = extractvalue { i64, ptr } %call.i, 1
  store ptr %8, ptr %5, align 8
  store i64 2, ptr %ref.tmp12, align 8
  store ptr @.str.15, ptr %6, align 8
  call void @_ZN4absl12lts_202308026StrCatB5cxx11ERKNS0_8AlphaNumES3_S3_(ptr nonnull sret(%"class.std::__cxx11::basic_string") align 8 %ref.tmp, ptr noundef nonnull align 8 dereferenceable(48) %ref.tmp10, ptr noundef nonnull align 8 dereferenceable(48) %ref.tmp11, ptr noundef nonnull align 8 dereferenceable(48) %ref.tmp12)
  %call13 = call { i64, ptr } @_ZNKSt7__cxx1112basic_stringIcSt11char_traitsIcESaIcEEcvSt17basic_string_viewIcS2_EEv(ptr noundef nonnull align 8 dereferenceable(32) %ref.tmp) #18
  %9 = extractvalue { i64, ptr } %call13, 0
  %10 = extractvalue { i64, ptr } %call13, 1
  store ptr %errors, ptr %field, align 8
  invoke void @_ZN9grpc_core16ValidationErrors9PushFieldESt17basic_string_viewIcSt11char_traitsIcEE(ptr noundef nonnull align 8 dereferenceable(72) %errors, i64 %9, ptr %10)
          to label %invoke.cont unwind label %lpad

invoke.cont:                                      ; preds = %for.body
  call void @_ZNSt7__cxx1112basic_stringIcSt11char_traitsIcESaIcEED1Ev(ptr noundef nonnull align 8 dereferenceable(32) %ref.tmp) #18
  %vtable15 = load ptr, ptr %this, align 8
  %vfn16 = getelementptr inbounds ptr, ptr %vtable15, i64 1
  %11 = load ptr, ptr %vfn16, align 8
  %call19 = invoke noundef ptr %11(ptr noundef nonnull align 8 dereferenceable(8) %this, ptr noundef nonnull align 8 dereferenceable(32) %_M_storage.i.i, ptr noundef %dst)
          to label %invoke.cont18 unwind label %lpad17

invoke.cont18:                                    ; preds = %invoke.cont
  %second = getelementptr inbounds %"struct.std::_Rb_tree_node", ptr %__begin2.sroa.0.016, i64 0, i32 1, i32 0, i64 32
  %vtable20 = load ptr, ptr %call2, align 8
  %12 = load ptr, ptr %vtable20, align 8
  invoke void %12(ptr noundef nonnull align 8 dereferenceable(8) %call2, ptr noundef nonnull align 8 dereferenceable(56) %second, ptr noundef nonnull align 8 dereferenceable(8) %args, ptr noundef %call19, ptr noundef nonnull %errors)
          to label %invoke.cont22 unwind label %lpad17

invoke.cont22:                                    ; preds = %invoke.cont18
  %13 = load ptr, ptr %field, align 8
  %cmp.not.i = icmp eq ptr %13, null
  br i1 %cmp.not.i, label %_ZN9grpc_core16ValidationErrors11ScopedFieldD2Ev.exit, label %if.then.i

if.then.i:                                        ; preds = %invoke.cont22
  invoke void @_ZN9grpc_core16ValidationErrors8PopFieldEv(ptr noundef nonnull align 8 dereferenceable(72) %13)
          to label %_ZN9grpc_core16ValidationErrors11ScopedFieldD2Ev.exit unwind label %terminate.lpad.i

terminate.lpad.i:                                 ; preds = %if.then.i
  %14 = landingpad { ptr, i32 }
          catch ptr null
  %15 = extractvalue { ptr, i32 } %14, 0
  call void @__clang_call_terminate(ptr %15) #20
  unreachable

_ZN9grpc_core16ValidationErrors11ScopedFieldD2Ev.exit: ; preds = %invoke.cont22, %if.then.i
  %call.i10 = call noundef ptr @_ZSt18_Rb_tree_incrementPKSt18_Rb_tree_node_base(ptr noundef %__begin2.sroa.0.016) #22
  %cmp.i.not = icmp eq ptr %call.i10, %add.ptr.i.i
  br i1 %cmp.i.not, label %for.end, label %for.body

lpad:                                             ; preds = %for.body
  %16 = landingpad { ptr, i32 }
          cleanup
  call void @_ZNSt7__cxx1112basic_stringIcSt11char_traitsIcESaIcEED1Ev(ptr noundef nonnull align 8 dereferenceable(32) %ref.tmp) #18
  br label %eh.resume

lpad17:                                           ; preds = %invoke.cont18, %invoke.cont
  %17 = landingpad { ptr, i32 }
          cleanup
  call void @_ZN9grpc_core16ValidationErrors11ScopedFieldD2Ev(ptr noundef nonnull align 8 dereferenceable(8) %field) #18
  br label %eh.resume

for.end:                                          ; preds = %_ZN9grpc_core16ValidationErrors11ScopedFieldD2Ev.exit, %_ZNK9grpc_core12experimental4Json6objectB5cxx11Ev.exit, %if.then
  ret void

eh.resume:                                        ; preds = %lpad17, %lpad
  %.pn = phi { ptr, i32 } [ %17, %lpad17 ], [ %16, %lpad ]
  resume { ptr, i32 } %.pn
}

; Function Attrs: mustprogress uwtable
define void @_ZNK9grpc_core11json_detail11LoadWrapped8LoadIntoERKNS_12experimental4JsonERKNS_8JsonArgsEPvPNS_16ValidationErrorsE(ptr noundef nonnull align 8 dereferenceable(8) %this, ptr noundef nonnull align 8 dereferenceable(56) %json, ptr noundef nonnull align 8 dereferenceable(8) %args, ptr noundef %dst, ptr noundef %errors) unnamed_addr #3 align 2 {
entry:
  %vtable = load ptr, ptr %this, align 8
  %vfn = getelementptr inbounds ptr, ptr %vtable, i64 1
  %0 = load ptr, ptr %vfn, align 8
  %call = tail call noundef ptr %0(ptr noundef nonnull align 8 dereferenceable(8) %this, ptr noundef %dst)
  %_M_node_count.i.i.i = getelementptr inbounds i8, ptr %errors, i64 40
  %1 = load i64, ptr %_M_node_count.i.i.i, align 8
  %vtable3 = load ptr, ptr %this, align 8
  %vfn4 = getelementptr inbounds ptr, ptr %vtable3, i64 3
  %2 = load ptr, ptr %vfn4, align 8
  %call5 = tail call noundef ptr %2(ptr noundef nonnull align 8 dereferenceable(8) %this)
  %vtable6 = load ptr, ptr %call5, align 8
  %3 = load ptr, ptr %vtable6, align 8
  tail call void %3(ptr noundef nonnull align 8 dereferenceable(8) %call5, ptr noundef nonnull align 8 dereferenceable(56) %json, ptr noundef nonnull align 8 dereferenceable(8) %args, ptr noundef %call, ptr noundef nonnull %errors)
  %4 = load i64, ptr %_M_node_count.i.i.i, align 8
  %cmp = icmp ugt i64 %4, %1
  br i1 %cmp, label %if.then, label %if.end

if.then:                                          ; preds = %entry
  %vtable9 = load ptr, ptr %this, align 8
  %vfn10 = getelementptr inbounds ptr, ptr %vtable9, i64 2
  %5 = load ptr, ptr %vfn10, align 8
  tail call void %5(ptr noundef nonnull align 8 dereferenceable(8) %this, ptr noundef %dst)
  br label %if.end

if.end:                                           ; preds = %if.then, %entry
  ret void
}

; Function Attrs: mustprogress uwtable
define noundef zeroext i1 @_ZN9grpc_core11json_detail10LoadObjectERKNS_12experimental4JsonERKNS_8JsonArgsEPKNS0_7ElementEmPvPNS_16ValidationErrorsE(ptr noundef nonnull align 8 dereferenceable(56) %json, ptr noundef nonnull align 8 dereferenceable(8) %args, ptr nocapture noundef readonly %elements, i64 noundef %num_elements, ptr noundef %dst, ptr noundef %errors) local_unnamed_addr #3 personality ptr @__gxx_personality_v0 {
entry:
  %field = alloca %"class.grpc_core::ValidationErrors::ScopedField", align 8
  %ref.tmp = alloca %"class.std::__cxx11::basic_string", align 8
  %ref.tmp9 = alloca %"class.absl::lts_20230802::AlphaNum", align 8
  %ref.tmp10 = alloca %"class.absl::lts_20230802::AlphaNum", align 8
  %ref.tmp16 = alloca %"class.std::__cxx11::basic_string", align 8
  %ref.tmp18 = alloca %"class.std::allocator.17", align 1
  %_M_index.i.i.i.i = getelementptr inbounds %"struct.std::__detail::__variant::_Variant_storage", ptr %json, i64 0, i32 1
  %0 = load i8, ptr %_M_index.i.i.i.i, align 8
  %cmp.i.not.i.i.i = icmp eq i8 %0, -1
  br i1 %cmp.i.not.i.i.i, label %if.then.i.i, label %if.end.i.i

if.then.i.i:                                      ; preds = %entry
  %exception.i.i.i = tail call ptr @__cxa_allocate_exception(i64 16) #18
  store ptr getelementptr inbounds ({ [5 x ptr] }, ptr @_ZTVSt18bad_variant_access, i64 0, inrange i32 0, i64 2), ptr %exception.i.i.i, align 8
  %_M_reason.i.i.i.i = getelementptr inbounds %"class.std::bad_variant_access", ptr %exception.i.i.i, i64 0, i32 1
  store ptr @.str.19, ptr %_M_reason.i.i.i.i, align 8
  tail call void @__cxa_throw(ptr nonnull %exception.i.i.i, ptr nonnull @_ZTISt18bad_variant_access, ptr nonnull @_ZNSt18bad_variant_accessD2Ev) #19
  unreachable

if.end.i.i:                                       ; preds = %entry
  %switch = icmp eq i8 %0, 4
  br i1 %switch, label %for.cond.preheader, label %if.then

for.cond.preheader:                               ; preds = %if.end.i.i
  %cmp189.not = icmp eq i64 %num_elements, 0
  br i1 %cmp189.not, label %return, label %for.body.lr.ph

for.body.lr.ph:                                   ; preds = %for.cond.preheader
  %1 = getelementptr inbounds { i64, ptr }, ptr %ref.tmp9, i64 0, i32 1
  %2 = getelementptr inbounds { i64, ptr }, ptr %ref.tmp10, i64 0, i32 1
  %_M_parent.i.i.i = getelementptr inbounds i8, ptr %json, i64 16
  %add.ptr.i.i.i = getelementptr inbounds i8, ptr %json, i64 8
  br label %for.body

if.then:                                          ; preds = %if.end.i.i
  tail call void @_ZN9grpc_core16ValidationErrors8AddErrorESt17basic_string_viewIcSt11char_traitsIcEE(ptr noundef nonnull align 8 dereferenceable(72) %errors, i64 16, ptr nonnull @.str.10)
  br label %return

for.body:                                         ; preds = %for.body.lr.ph, %for.inc
  %i.090 = phi i64 [ 0, %for.body.lr.ph ], [ %inc, %for.inc ]
  %arrayidx = getelementptr inbounds %"struct.grpc_core::json_detail::Element", ptr %elements, i64 %i.090
  %enable_key = getelementptr inbounds %"struct.grpc_core::json_detail::Element", ptr %elements, i64 %i.090, i32 4
  %3 = load ptr, ptr %enable_key, align 8
  %cmp2.not = icmp eq ptr %3, null
  br i1 %cmp2.not, label %if.end7, label %land.lhs.true

land.lhs.true:                                    ; preds = %for.body
  %call.i.i21 = call noundef i64 @strlen(ptr noundef nonnull dereferenceable(1) %3) #18
  %vtable = load ptr, ptr %args, align 8
  %vfn = getelementptr inbounds ptr, ptr %vtable, i64 2
  %4 = load ptr, ptr %vfn, align 8
  %call5 = call noundef zeroext i1 %4(ptr noundef nonnull align 8 dereferenceable(8) %args, i64 %call.i.i21, ptr nonnull %3)
  br i1 %call5, label %if.end7, label %for.inc

if.end7:                                          ; preds = %land.lhs.true, %for.body
  store i64 1, ptr %ref.tmp9, align 8
  store ptr @.str.16, ptr %1, align 8
  %name = getelementptr inbounds %"struct.grpc_core::json_detail::Element", ptr %elements, i64 %i.090, i32 3
  %5 = load ptr, ptr %name, align 8
  %tobool.not.i.i = icmp eq ptr %5, null
  br i1 %tobool.not.i.i, label %_ZN4absl12lts_202308028AlphaNumC2EPKc.exit, label %cond.true.i.i

cond.true.i.i:                                    ; preds = %if.end7
  %call.i.i.i.i23 = call noundef i64 @strlen(ptr noundef nonnull dereferenceable(1) %5) #18
  br label %_ZN4absl12lts_202308028AlphaNumC2EPKc.exit

_ZN4absl12lts_202308028AlphaNumC2EPKc.exit:       ; preds = %if.end7, %cond.true.i.i
  %retval.sroa.0.0.i.i = phi i64 [ %call.i.i.i.i23, %cond.true.i.i ], [ 0, %if.end7 ]
  store i64 %retval.sroa.0.0.i.i, ptr %ref.tmp10, align 8
  store ptr %5, ptr %2, align 8
  call void @_ZN4absl12lts_202308026StrCatB5cxx11ERKNS0_8AlphaNumES3_(ptr nonnull sret(%"class.std::__cxx11::basic_string") align 8 %ref.tmp, ptr noundef nonnull align 8 dereferenceable(48) %ref.tmp9, ptr noundef nonnull align 8 dereferenceable(48) %ref.tmp10)
  %call11 = call { i64, ptr } @_ZNKSt7__cxx1112basic_stringIcSt11char_traitsIcESaIcEEcvSt17basic_string_viewIcS2_EEv(ptr noundef nonnull align 8 dereferenceable(32) %ref.tmp) #18
  %6 = extractvalue { i64, ptr } %call11, 0
  %7 = extractvalue { i64, ptr } %call11, 1
  store ptr %errors, ptr %field, align 8
  invoke void @_ZN9grpc_core16ValidationErrors9PushFieldESt17basic_string_viewIcSt11char_traitsIcEE(ptr noundef nonnull align 8 dereferenceable(72) %errors, i64 %6, ptr %7)
          to label %invoke.cont unwind label %lpad

invoke.cont:                                      ; preds = %_ZN4absl12lts_202308028AlphaNumC2EPKc.exit
  call void @_ZNSt7__cxx1112basic_stringIcSt11char_traitsIcESaIcEED1Ev(ptr noundef nonnull align 8 dereferenceable(32) %ref.tmp) #18
  %8 = load i8, ptr %_M_index.i.i.i.i, align 8
  %cmp.not.i.i.i = icmp eq i8 %8, 4
  br i1 %cmp.not.i.i.i, label %invoke.cont14, label %if.then.i.i.i

if.then.i.i.i:                                    ; preds = %invoke.cont
  %cmp.i.not.i.i.i.i = icmp eq i8 %8, -1
  %exception.i.i.i.i.i = call ptr @__cxa_allocate_exception(i64 16) #18
  store ptr getelementptr inbounds ({ [5 x ptr] }, ptr @_ZTVSt18bad_variant_access, i64 0, inrange i32 0, i64 2), ptr %exception.i.i.i.i.i, align 8
  %_M_reason.i.i.i.i.i.i = getelementptr inbounds %"class.std::bad_variant_access", ptr %exception.i.i.i.i.i, i64 0, i32 1
  br i1 %cmp.i.not.i.i.i.i, label %if.then.i.i.i.i, label %if.else.i.i.i.i

if.then.i.i.i.i:                                  ; preds = %if.then.i.i.i
  store ptr @.str.20, ptr %_M_reason.i.i.i.i.i.i, align 8
  br label %if.then.i.i.i.i.invoke

if.then.i.i.i.i.invoke:                           ; preds = %if.then.i.i55, %if.else.i.i.i.i38, %if.then.i.i.i.i39, %if.else.i.i.i.i, %if.then.i.i.i.i
  %9 = phi ptr [ %exception.i.i.i.i.i, %if.then.i.i.i.i ], [ %exception.i.i.i.i.i, %if.else.i.i.i.i ], [ %exception.i.i.i.i.i36, %if.then.i.i.i.i39 ], [ %exception.i.i.i.i.i36, %if.else.i.i.i.i38 ], [ %exception.i.i.i56, %if.then.i.i55 ]
  invoke void @__cxa_throw(ptr nonnull %9, ptr nonnull @_ZTISt18bad_variant_access, ptr nonnull @_ZNSt18bad_variant_accessD2Ev) #19
          to label %if.then.i.i.i.i.cont unwind label %lpad13.loopexit.split-lp

if.then.i.i.i.i.cont:                             ; preds = %if.then.i.i.i.i.invoke
  unreachable

if.else.i.i.i.i:                                  ; preds = %if.then.i.i.i
  store ptr @.str.21, ptr %_M_reason.i.i.i.i.i.i, align 8
  br label %if.then.i.i.i.i.invoke

invoke.cont14:                                    ; preds = %invoke.cont
  %10 = load ptr, ptr %name, align 8
  call void @_ZNSaIcEC1Ev(ptr noundef nonnull align 1 dereferenceable(1) %ref.tmp18) #18
  %call.i27 = invoke noundef ptr @_ZNSt7__cxx1112basic_stringIcSt11char_traitsIcESaIcEE13_M_local_dataEv(ptr noundef nonnull align 8 dereferenceable(32) %ref.tmp16)
          to label %call.i.noexc unwind label %lpad19

call.i.noexc:                                     ; preds = %invoke.cont14
  invoke void @_ZNSt7__cxx1112basic_stringIcSt11char_traitsIcESaIcEE12_Alloc_hiderC1EPcRKS3_(ptr noundef nonnull align 8 dereferenceable(8) %ref.tmp16, ptr noundef %call.i27, ptr noundef nonnull align 1 dereferenceable(1) %ref.tmp18)
          to label %.noexc28 unwind label %lpad19

.noexc28:                                         ; preds = %call.i.noexc
  %cmp.i = icmp eq ptr %10, null
  br i1 %cmp.i, label %if.then.i, label %if.end.i

if.then.i:                                        ; preds = %.noexc28
  invoke void @_ZSt19__throw_logic_errorPKc(ptr noundef nonnull @.str.24) #19
          to label %invoke.cont.i unwind label %lpad.i.loopexit.split-lp

invoke.cont.i:                                    ; preds = %if.then.i
  unreachable

lpad.i.loopexit:                                  ; preds = %if.end.i
  %lpad.loopexit = landingpad { ptr, i32 }
          cleanup
  br label %lpad.i

lpad.i.loopexit.split-lp:                         ; preds = %if.then.i
  %lpad.loopexit.split-lp = landingpad { ptr, i32 }
          cleanup
  br label %lpad.i

lpad.i:                                           ; preds = %lpad.i.loopexit.split-lp, %lpad.i.loopexit
  %lpad.phi = phi { ptr, i32 } [ %lpad.loopexit, %lpad.i.loopexit ], [ %lpad.loopexit.split-lp, %lpad.i.loopexit.split-lp ]
  call void @_ZNSaIcED2Ev(ptr noundef nonnull align 1 dereferenceable(1) %ref.tmp16) #18
  br label %ehcleanup

if.end.i:                                         ; preds = %.noexc28
  %call.i.i26 = call noundef i64 @strlen(ptr noundef nonnull dereferenceable(1) %10) #18
  %add.ptr.i = getelementptr inbounds i8, ptr %10, i64 %call.i.i26
  invoke void @_ZNSt7__cxx1112basic_stringIcSt11char_traitsIcESaIcEE12_M_constructIPKcEEvT_S8_St20forward_iterator_tag(ptr noundef nonnull align 8 dereferenceable(32) %ref.tmp16, ptr noundef nonnull %10, ptr noundef nonnull %add.ptr.i)
          to label %invoke.cont20 unwind label %lpad.i.loopexit

invoke.cont20:                                    ; preds = %if.end.i
  %11 = load ptr, ptr %_M_parent.i.i.i, align 8
  %cmp.not6.i.i.i = icmp eq ptr %11, null
  br i1 %cmp.not6.i.i.i, label %invoke.cont22, label %while.body.i.i.i

while.body.i.i.i:                                 ; preds = %invoke.cont20, %_ZNKSt4lessINSt7__cxx1112basic_stringIcSt11char_traitsIcESaIcEEEEclERKS5_S8_.exit.i.i.i
  %__x.addr.08.i.i.i = phi ptr [ %__x.addr.1.i.i.i, %_ZNKSt4lessINSt7__cxx1112basic_stringIcSt11char_traitsIcESaIcEEEEclERKS5_S8_.exit.i.i.i ], [ %11, %invoke.cont20 ]
  %__y.addr.07.i.i.i = phi ptr [ %__y.addr.1.i.i.i, %_ZNKSt4lessINSt7__cxx1112basic_stringIcSt11char_traitsIcESaIcEEEEclERKS5_S8_.exit.i.i.i ], [ %add.ptr.i.i.i, %invoke.cont20 ]
  %_M_storage.i.i.i.i.i = getelementptr inbounds %"struct.std::_Rb_tree_node", ptr %__x.addr.08.i.i.i, i64 0, i32 1
  %call.i.i.i.i.i = invoke noundef i32 @_ZNKSt7__cxx1112basic_stringIcSt11char_traitsIcESaIcEE7compareERKS4_(ptr noundef nonnull align 8 dereferenceable(32) %_M_storage.i.i.i.i.i, ptr noundef nonnull align 8 dereferenceable(32) %ref.tmp16)
          to label %_ZNKSt4lessINSt7__cxx1112basic_stringIcSt11char_traitsIcESaIcEEEEclERKS5_S8_.exit.i.i.i unwind label %terminate.lpad.i.i.i.i.i

terminate.lpad.i.i.i.i.i:                         ; preds = %while.body.i.i.i
  %12 = landingpad { ptr, i32 }
          catch ptr null
  %13 = extractvalue { ptr, i32 } %12, 0
  call void @__clang_call_terminate(ptr %13) #20
  unreachable

_ZNKSt4lessINSt7__cxx1112basic_stringIcSt11char_traitsIcESaIcEEEEclERKS5_S8_.exit.i.i.i: ; preds = %while.body.i.i.i
  %cmp.i.i.i.i.i = icmp slt i32 %call.i.i.i.i.i, 0
  %_M_right.i.i.i.i = getelementptr inbounds %"struct.std::_Rb_tree_node_base", ptr %__x.addr.08.i.i.i, i64 0, i32 3
  %_M_left.i.i.i.i = getelementptr inbounds %"struct.std::_Rb_tree_node_base", ptr %__x.addr.08.i.i.i, i64 0, i32 2
  %__y.addr.1.i.i.i = select i1 %cmp.i.i.i.i.i, ptr %__y.addr.07.i.i.i, ptr %__x.addr.08.i.i.i
  %__x.addr.1.in.i.i.i = select i1 %cmp.i.i.i.i.i, ptr %_M_right.i.i.i.i, ptr %_M_left.i.i.i.i
  %__x.addr.1.i.i.i = load ptr, ptr %__x.addr.1.in.i.i.i, align 8
  %cmp.not.i.i.i29 = icmp eq ptr %__x.addr.1.i.i.i, null
  br i1 %cmp.not.i.i.i29, label %_ZNKSt8_Rb_treeINSt7__cxx1112basic_stringIcSt11char_traitsIcESaIcEEESt4pairIKS5_N9grpc_core12experimental4JsonEESt10_Select1stISB_ESt4lessIS5_ESaISB_EE14_M_lower_boundEPKSt13_Rb_tree_nodeISB_EPKSt18_Rb_tree_node_baseRS7_.exit.i.i, label %while.body.i.i.i, !llvm.loop !13

_ZNKSt8_Rb_treeINSt7__cxx1112basic_stringIcSt11char_traitsIcESaIcEEESt4pairIKS5_N9grpc_core12experimental4JsonEESt10_Select1stISB_ESt4lessIS5_ESaISB_EE14_M_lower_boundEPKSt13_Rb_tree_nodeISB_EPKSt18_Rb_tree_node_baseRS7_.exit.i.i: ; preds = %_ZNKSt4lessINSt7__cxx1112basic_stringIcSt11char_traitsIcESaIcEEEEclERKS5_S8_.exit.i.i.i
  %cmp.i.i.i = icmp eq ptr %__y.addr.1.i.i.i, %add.ptr.i.i.i
  br i1 %cmp.i.i.i, label %invoke.cont22, label %lor.lhs.false.i.i

lor.lhs.false.i.i:                                ; preds = %_ZNKSt8_Rb_treeINSt7__cxx1112basic_stringIcSt11char_traitsIcESaIcEEESt4pairIKS5_N9grpc_core12experimental4JsonEESt10_Select1stISB_ESt4lessIS5_ESaISB_EE14_M_lower_boundEPKSt13_Rb_tree_nodeISB_EPKSt18_Rb_tree_node_baseRS7_.exit.i.i
  %_M_storage.i.i.i3.i.i = getelementptr inbounds %"struct.std::_Rb_tree_node", ptr %__y.addr.1.i.i.i, i64 0, i32 1
  %call.i.i.i.i30 = invoke noundef i32 @_ZNKSt7__cxx1112basic_stringIcSt11char_traitsIcESaIcEE7compareERKS4_(ptr noundef nonnull align 8 dereferenceable(32) %ref.tmp16, ptr noundef nonnull align 8 dereferenceable(32) %_M_storage.i.i.i3.i.i)
          to label %_ZNKSt4lessINSt7__cxx1112basic_stringIcSt11char_traitsIcESaIcEEEEclERKS5_S8_.exit.i.i unwind label %terminate.lpad.i.i.i.i

terminate.lpad.i.i.i.i:                           ; preds = %lor.lhs.false.i.i
  %14 = landingpad { ptr, i32 }
          catch ptr null
  %15 = extractvalue { ptr, i32 } %14, 0
  call void @__clang_call_terminate(ptr %15) #20
  unreachable

_ZNKSt4lessINSt7__cxx1112basic_stringIcSt11char_traitsIcESaIcEEEEclERKS5_S8_.exit.i.i: ; preds = %lor.lhs.false.i.i
  %cmp.i.i.i.i = icmp slt i32 %call.i.i.i.i30, 0
  %spec.select.i.i = select i1 %cmp.i.i.i.i, ptr %add.ptr.i.i.i, ptr %__y.addr.1.i.i.i
  br label %invoke.cont22

invoke.cont22:                                    ; preds = %_ZNKSt4lessINSt7__cxx1112basic_stringIcSt11char_traitsIcESaIcEEEEclERKS5_S8_.exit.i.i, %_ZNKSt8_Rb_treeINSt7__cxx1112basic_stringIcSt11char_traitsIcESaIcEEESt4pairIKS5_N9grpc_core12experimental4JsonEESt10_Select1stISB_ESt4lessIS5_ESaISB_EE14_M_lower_boundEPKSt13_Rb_tree_nodeISB_EPKSt18_Rb_tree_node_baseRS7_.exit.i.i, %invoke.cont20
  %retval.sroa.0.0.i.i31 = phi ptr [ %add.ptr.i.i.i, %_ZNKSt8_Rb_treeINSt7__cxx1112basic_stringIcSt11char_traitsIcESaIcEEESt4pairIKS5_N9grpc_core12experimental4JsonEESt10_Select1stISB_ESt4lessIS5_ESaISB_EE14_M_lower_boundEPKSt13_Rb_tree_nodeISB_EPKSt18_Rb_tree_node_baseRS7_.exit.i.i ], [ %add.ptr.i.i.i, %invoke.cont20 ], [ %spec.select.i.i, %_ZNKSt4lessINSt7__cxx1112basic_stringIcSt11char_traitsIcESaIcEEEEclERKS5_S8_.exit.i.i ]
  call void @_ZNSt7__cxx1112basic_stringIcSt11char_traitsIcESaIcEED1Ev(ptr noundef nonnull align 8 dereferenceable(32) %ref.tmp16) #18
  call void @_ZNSaIcED1Ev(ptr noundef nonnull align 1 dereferenceable(1) %ref.tmp18) #18
  %16 = load i8, ptr %_M_index.i.i.i.i, align 8
  %cmp.not.i.i.i33 = icmp eq i8 %16, 4
  br i1 %cmp.not.i.i.i33, label %invoke.cont25, label %if.then.i.i.i34

if.then.i.i.i34:                                  ; preds = %invoke.cont22
  %cmp.i.not.i.i.i.i35 = icmp eq i8 %16, -1
  %exception.i.i.i.i.i36 = call ptr @__cxa_allocate_exception(i64 16) #18
  store ptr getelementptr inbounds ({ [5 x ptr] }, ptr @_ZTVSt18bad_variant_access, i64 0, inrange i32 0, i64 2), ptr %exception.i.i.i.i.i36, align 8
  %_M_reason.i.i.i.i.i.i37 = getelementptr inbounds %"class.std::bad_variant_access", ptr %exception.i.i.i.i.i36, i64 0, i32 1
  br i1 %cmp.i.not.i.i.i.i35, label %if.then.i.i.i.i39, label %if.else.i.i.i.i38

if.then.i.i.i.i39:                                ; preds = %if.then.i.i.i34
  store ptr @.str.20, ptr %_M_reason.i.i.i.i.i.i37, align 8
  br label %if.then.i.i.i.i.invoke

if.else.i.i.i.i38:                                ; preds = %if.then.i.i.i34
  store ptr @.str.21, ptr %_M_reason.i.i.i.i.i.i37, align 8
  br label %if.then.i.i.i.i.invoke

invoke.cont25:                                    ; preds = %invoke.cont22
  %cmp.i43 = icmp eq ptr %retval.sroa.0.0.i.i31, %add.ptr.i.i.i
  br i1 %cmp.i43, label %if.then34, label %lor.rhs

lor.rhs:                                          ; preds = %invoke.cont25
  %_M_index.i.i.i.i44 = getelementptr inbounds %"struct.std::_Rb_tree_node", ptr %retval.sroa.0.0.i.i31, i64 0, i32 1, i32 0, i64 80
  %17 = load i8, ptr %_M_index.i.i.i.i44, align 8
  switch i8 %17, label %if.end39 [
    i8 -1, label %if.then.i.i55
    i8 0, label %if.then34
  ]

if.then.i.i55:                                    ; preds = %lor.rhs
  %exception.i.i.i56 = call ptr @__cxa_allocate_exception(i64 16) #18
  store ptr getelementptr inbounds ({ [5 x ptr] }, ptr @_ZTVSt18bad_variant_access, i64 0, inrange i32 0, i64 2), ptr %exception.i.i.i56, align 8
  %_M_reason.i.i.i.i57 = getelementptr inbounds %"class.std::bad_variant_access", ptr %exception.i.i.i56, i64 0, i32 1
  store ptr @.str.19, ptr %_M_reason.i.i.i.i57, align 8
  br label %if.then.i.i.i.i.invoke

if.then34:                                        ; preds = %lor.rhs, %invoke.cont25
  %optional = getelementptr inbounds %"struct.grpc_core::json_detail::Element", ptr %elements, i64 %i.090, i32 2
  %18 = load i8, ptr %optional, align 2
  %19 = and i8 %18, 1
  %tobool.not = icmp eq i8 %19, 0
  br i1 %tobool.not, label %if.end36, label %cleanup

lpad:                                             ; preds = %_ZN4absl12lts_202308028AlphaNumC2EPKc.exit
  %20 = landingpad { ptr, i32 }
          cleanup
  call void @_ZNSt7__cxx1112basic_stringIcSt11char_traitsIcESaIcEED1Ev(ptr noundef nonnull align 8 dereferenceable(32) %ref.tmp) #18
  br label %eh.resume

lpad13.loopexit:                                  ; preds = %if.end36, %if.end39
  %lpad.loopexit73 = landingpad { ptr, i32 }
          cleanup
  br label %ehcleanup45

lpad13.loopexit.split-lp:                         ; preds = %if.then.i.i.i.i.invoke
  %lpad.loopexit.split-lp74 = landingpad { ptr, i32 }
          cleanup
  br label %ehcleanup45

lpad19:                                           ; preds = %call.i.noexc, %invoke.cont14
  %21 = landingpad { ptr, i32 }
          cleanup
  br label %ehcleanup

ehcleanup:                                        ; preds = %lpad19, %lpad.i
  %.pn = phi { ptr, i32 } [ %21, %lpad19 ], [ %lpad.phi, %lpad.i ]
  call void @_ZNSaIcED1Ev(ptr noundef nonnull align 1 dereferenceable(1) %ref.tmp18) #18
  br label %ehcleanup45

if.end36:                                         ; preds = %if.then34
  invoke void @_ZN9grpc_core16ValidationErrors8AddErrorESt17basic_string_viewIcSt11char_traitsIcEE(ptr noundef nonnull align 8 dereferenceable(72) %errors, i64 17, ptr nonnull @.str.17)
          to label %cleanup unwind label %lpad13.loopexit

if.end39:                                         ; preds = %lor.rhs
  %second = getelementptr inbounds %"struct.std::_Rb_tree_node", ptr %retval.sroa.0.0.i.i31, i64 0, i32 1, i32 0, i64 32
  %member_offset = getelementptr inbounds %"struct.grpc_core::json_detail::Element", ptr %elements, i64 %i.090, i32 1
  %22 = load i16, ptr %member_offset, align 8
  %idx.ext = zext i16 %22 to i64
  %add.ptr = getelementptr inbounds i8, ptr %dst, i64 %idx.ext
  %23 = load ptr, ptr %arrayidx, align 8
  %vtable42 = load ptr, ptr %23, align 8
  %24 = load ptr, ptr %vtable42, align 8
  invoke void %24(ptr noundef nonnull align 8 dereferenceable(8) %23, ptr noundef nonnull align 8 dereferenceable(56) %second, ptr noundef nonnull align 8 dereferenceable(8) %args, ptr noundef %add.ptr, ptr noundef nonnull %errors)
          to label %cleanup unwind label %lpad13.loopexit

cleanup:                                          ; preds = %if.end39, %if.end36, %if.then34
  %25 = load ptr, ptr %field, align 8
  %cmp.not.i = icmp eq ptr %25, null
  br i1 %cmp.not.i, label %for.inc, label %if.then.i63

if.then.i63:                                      ; preds = %cleanup
  invoke void @_ZN9grpc_core16ValidationErrors8PopFieldEv(ptr noundef nonnull align 8 dereferenceable(72) %25)
          to label %for.inc unwind label %terminate.lpad.i

terminate.lpad.i:                                 ; preds = %if.then.i63
  %26 = landingpad { ptr, i32 }
          catch ptr null
  %27 = extractvalue { ptr, i32 } %26, 0
  call void @__clang_call_terminate(ptr %27) #20
  unreachable

for.inc:                                          ; preds = %if.then.i63, %cleanup, %land.lhs.true
  %inc = add nuw i64 %i.090, 1
  %exitcond.not = icmp eq i64 %inc, %num_elements
  br i1 %exitcond.not, label %return, label %for.body, !llvm.loop !14

ehcleanup45:                                      ; preds = %lpad13.loopexit, %lpad13.loopexit.split-lp, %ehcleanup
  %.pn18 = phi { ptr, i32 } [ %.pn, %ehcleanup ], [ %lpad.loopexit73, %lpad13.loopexit ], [ %lpad.loopexit.split-lp74, %lpad13.loopexit.split-lp ]
  call void @_ZN9grpc_core16ValidationErrors11ScopedFieldD2Ev(ptr noundef nonnull align 8 dereferenceable(8) %field) #18
  br label %eh.resume

return:                                           ; preds = %for.inc, %for.cond.preheader, %if.then
  ret i1 %switch

eh.resume:                                        ; preds = %ehcleanup45, %lpad
  %.pn18.pn = phi { ptr, i32 } [ %.pn18, %ehcleanup45 ], [ %20, %lpad ]
  resume { ptr, i32 } %.pn18.pn
}

; Function Attrs: nounwind
declare void @_ZNSaIcEC1Ev(ptr noundef nonnull align 1 dereferenceable(1)) unnamed_addr #1

; Function Attrs: nounwind
declare void @_ZNSaIcED1Ev(ptr noundef nonnull align 1 dereferenceable(1)) unnamed_addr #1

; Function Attrs: mustprogress uwtable
define noundef ptr @_ZN9grpc_core11json_detail18GetJsonObjectFieldERKSt3mapINSt7__cxx1112basic_stringIcSt11char_traitsIcESaIcEEENS_12experimental4JsonESt4lessIS7_ESaISt4pairIKS7_S9_EEESt17basic_string_viewIcS5_EPNS_16ValidationErrorsEb(ptr noundef nonnull align 8 dereferenceable(48) %json, i64 %field.coerce0, ptr %field.coerce1, ptr noundef %errors, i1 noundef zeroext %required) local_unnamed_addr #3 personality ptr @__gxx_personality_v0 {
entry:
  %agg.tmp.i = alloca %"struct.std::__cxx11::basic_string<char>::__sv_wrapper", align 8
  %ref.tmp = alloca %"class.std::__cxx11::basic_string", align 8
  %ref.tmp1 = alloca %"class.std::allocator.17", align 1
  call void @_ZNSaIcEC1Ev(ptr noundef nonnull align 1 dereferenceable(1) %ref.tmp1) #18
  call void @llvm.lifetime.start.p0(i64 16, ptr nonnull %agg.tmp.i)
  %call.i = call { i64, ptr } @_ZNSt7__cxx1112basic_stringIcSt11char_traitsIcESaIcEE17_S_to_string_viewESt17basic_string_viewIcS2_E(i64 %field.coerce0, ptr %field.coerce1) #18
  %0 = extractvalue { i64, ptr } %call.i, 0
  %1 = extractvalue { i64, ptr } %call.i, 1
  call void @_ZNSt7__cxx1112basic_stringIcSt11char_traitsIcESaIcEE12__sv_wrapperC1ESt17basic_string_viewIcS2_E(ptr noundef nonnull align 8 dereferenceable(16) %agg.tmp.i, i64 %0, ptr %1) #18
  %2 = load i64, ptr %agg.tmp.i, align 8
  %3 = getelementptr inbounds { i64, ptr }, ptr %agg.tmp.i, i64 0, i32 1
  %4 = load ptr, ptr %3, align 8
  invoke void @_ZNSt7__cxx1112basic_stringIcSt11char_traitsIcESaIcEEC2ENS4_12__sv_wrapperERKS3_(ptr noundef nonnull align 8 dereferenceable(32) %ref.tmp, i64 %2, ptr %4, ptr noundef nonnull align 1 dereferenceable(1) %ref.tmp1)
          to label %invoke.cont unwind label %lpad

invoke.cont:                                      ; preds = %entry
  call void @llvm.lifetime.end.p0(i64 16, ptr nonnull %agg.tmp.i)
  %_M_parent.i.i.i = getelementptr inbounds i8, ptr %json, i64 16
  %5 = load ptr, ptr %_M_parent.i.i.i, align 8
  %add.ptr.i.i.i = getelementptr inbounds i8, ptr %json, i64 8
  %cmp.not6.i.i.i = icmp eq ptr %5, null
  br i1 %cmp.not6.i.i.i, label %invoke.cont3, label %while.body.i.i.i

while.body.i.i.i:                                 ; preds = %invoke.cont, %_ZNKSt4lessINSt7__cxx1112basic_stringIcSt11char_traitsIcESaIcEEEEclERKS5_S8_.exit.i.i.i
  %__x.addr.08.i.i.i = phi ptr [ %__x.addr.1.i.i.i, %_ZNKSt4lessINSt7__cxx1112basic_stringIcSt11char_traitsIcESaIcEEEEclERKS5_S8_.exit.i.i.i ], [ %5, %invoke.cont ]
  %__y.addr.07.i.i.i = phi ptr [ %__y.addr.1.i.i.i, %_ZNKSt4lessINSt7__cxx1112basic_stringIcSt11char_traitsIcESaIcEEEEclERKS5_S8_.exit.i.i.i ], [ %add.ptr.i.i.i, %invoke.cont ]
  %_M_storage.i.i.i.i.i = getelementptr inbounds %"struct.std::_Rb_tree_node", ptr %__x.addr.08.i.i.i, i64 0, i32 1
  %call.i.i.i.i.i = invoke noundef i32 @_ZNKSt7__cxx1112basic_stringIcSt11char_traitsIcESaIcEE7compareERKS4_(ptr noundef nonnull align 8 dereferenceable(32) %_M_storage.i.i.i.i.i, ptr noundef nonnull align 8 dereferenceable(32) %ref.tmp)
          to label %_ZNKSt4lessINSt7__cxx1112basic_stringIcSt11char_traitsIcESaIcEEEEclERKS5_S8_.exit.i.i.i unwind label %terminate.lpad.i.i.i.i.i

terminate.lpad.i.i.i.i.i:                         ; preds = %while.body.i.i.i
  %6 = landingpad { ptr, i32 }
          catch ptr null
  %7 = extractvalue { ptr, i32 } %6, 0
  call void @__clang_call_terminate(ptr %7) #20
  unreachable

_ZNKSt4lessINSt7__cxx1112basic_stringIcSt11char_traitsIcESaIcEEEEclERKS5_S8_.exit.i.i.i: ; preds = %while.body.i.i.i
  %cmp.i.i.i.i.i = icmp slt i32 %call.i.i.i.i.i, 0
  %_M_right.i.i.i.i = getelementptr inbounds %"struct.std::_Rb_tree_node_base", ptr %__x.addr.08.i.i.i, i64 0, i32 3
  %_M_left.i.i.i.i = getelementptr inbounds %"struct.std::_Rb_tree_node_base", ptr %__x.addr.08.i.i.i, i64 0, i32 2
  %__y.addr.1.i.i.i = select i1 %cmp.i.i.i.i.i, ptr %__y.addr.07.i.i.i, ptr %__x.addr.08.i.i.i
  %__x.addr.1.in.i.i.i = select i1 %cmp.i.i.i.i.i, ptr %_M_right.i.i.i.i, ptr %_M_left.i.i.i.i
  %__x.addr.1.i.i.i = load ptr, ptr %__x.addr.1.in.i.i.i, align 8
  %cmp.not.i.i.i = icmp eq ptr %__x.addr.1.i.i.i, null
  br i1 %cmp.not.i.i.i, label %_ZNKSt8_Rb_treeINSt7__cxx1112basic_stringIcSt11char_traitsIcESaIcEEESt4pairIKS5_N9grpc_core12experimental4JsonEESt10_Select1stISB_ESt4lessIS5_ESaISB_EE14_M_lower_boundEPKSt13_Rb_tree_nodeISB_EPKSt18_Rb_tree_node_baseRS7_.exit.i.i, label %while.body.i.i.i, !llvm.loop !13

_ZNKSt8_Rb_treeINSt7__cxx1112basic_stringIcSt11char_traitsIcESaIcEEESt4pairIKS5_N9grpc_core12experimental4JsonEESt10_Select1stISB_ESt4lessIS5_ESaISB_EE14_M_lower_boundEPKSt13_Rb_tree_nodeISB_EPKSt18_Rb_tree_node_baseRS7_.exit.i.i: ; preds = %_ZNKSt4lessINSt7__cxx1112basic_stringIcSt11char_traitsIcESaIcEEEEclERKS5_S8_.exit.i.i.i
  %cmp.i.i.i = icmp eq ptr %__y.addr.1.i.i.i, %add.ptr.i.i.i
  br i1 %cmp.i.i.i, label %invoke.cont3, label %lor.lhs.false.i.i

lor.lhs.false.i.i:                                ; preds = %_ZNKSt8_Rb_treeINSt7__cxx1112basic_stringIcSt11char_traitsIcESaIcEEESt4pairIKS5_N9grpc_core12experimental4JsonEESt10_Select1stISB_ESt4lessIS5_ESaISB_EE14_M_lower_boundEPKSt13_Rb_tree_nodeISB_EPKSt18_Rb_tree_node_baseRS7_.exit.i.i
  %_M_storage.i.i.i3.i.i = getelementptr inbounds %"struct.std::_Rb_tree_node", ptr %__y.addr.1.i.i.i, i64 0, i32 1
  %call.i.i.i.i = invoke noundef i32 @_ZNKSt7__cxx1112basic_stringIcSt11char_traitsIcESaIcEE7compareERKS4_(ptr noundef nonnull align 8 dereferenceable(32) %ref.tmp, ptr noundef nonnull align 8 dereferenceable(32) %_M_storage.i.i.i3.i.i)
          to label %_ZNKSt4lessINSt7__cxx1112basic_stringIcSt11char_traitsIcESaIcEEEEclERKS5_S8_.exit.i.i unwind label %terminate.lpad.i.i.i.i

terminate.lpad.i.i.i.i:                           ; preds = %lor.lhs.false.i.i
  %8 = landingpad { ptr, i32 }
          catch ptr null
  %9 = extractvalue { ptr, i32 } %8, 0
  call void @__clang_call_terminate(ptr %9) #20
  unreachable

_ZNKSt4lessINSt7__cxx1112basic_stringIcSt11char_traitsIcESaIcEEEEclERKS5_S8_.exit.i.i: ; preds = %lor.lhs.false.i.i
  %cmp.i.i.i.i = icmp slt i32 %call.i.i.i.i, 0
  %spec.select.i.i = select i1 %cmp.i.i.i.i, ptr %add.ptr.i.i.i, ptr %__y.addr.1.i.i.i
  br label %invoke.cont3

invoke.cont3:                                     ; preds = %_ZNKSt4lessINSt7__cxx1112basic_stringIcSt11char_traitsIcESaIcEEEEclERKS5_S8_.exit.i.i, %_ZNKSt8_Rb_treeINSt7__cxx1112basic_stringIcSt11char_traitsIcESaIcEEESt4pairIKS5_N9grpc_core12experimental4JsonEESt10_Select1stISB_ESt4lessIS5_ESaISB_EE14_M_lower_boundEPKSt13_Rb_tree_nodeISB_EPKSt18_Rb_tree_node_baseRS7_.exit.i.i, %invoke.cont
  %retval.sroa.0.0.i.i = phi ptr [ %add.ptr.i.i.i, %_ZNKSt8_Rb_treeINSt7__cxx1112basic_stringIcSt11char_traitsIcESaIcEEESt4pairIKS5_N9grpc_core12experimental4JsonEESt10_Select1stISB_ESt4lessIS5_ESaISB_EE14_M_lower_boundEPKSt13_Rb_tree_nodeISB_EPKSt18_Rb_tree_node_baseRS7_.exit.i.i ], [ %add.ptr.i.i.i, %invoke.cont ], [ %spec.select.i.i, %_ZNKSt4lessINSt7__cxx1112basic_stringIcSt11char_traitsIcESaIcEEEEclERKS5_S8_.exit.i.i ]
  call void @_ZNSt7__cxx1112basic_stringIcSt11char_traitsIcESaIcEED1Ev(ptr noundef nonnull align 8 dereferenceable(32) %ref.tmp) #18
  call void @_ZNSaIcED1Ev(ptr noundef nonnull align 1 dereferenceable(1) %ref.tmp1) #18
  %cmp.i = icmp eq ptr %retval.sroa.0.0.i.i, %add.ptr.i.i.i
  br i1 %cmp.i, label %if.then, label %if.end9

if.then:                                          ; preds = %invoke.cont3
  br i1 %required, label %if.then8, label %return

if.then8:                                         ; preds = %if.then
  call void @_ZN9grpc_core16ValidationErrors8AddErrorESt17basic_string_viewIcSt11char_traitsIcEE(ptr noundef nonnull align 8 dereferenceable(72) %errors, i64 17, ptr nonnull @.str.17)
  br label %return

lpad:                                             ; preds = %entry
  %10 = landingpad { ptr, i32 }
          cleanup
  call void @_ZNSaIcED1Ev(ptr noundef nonnull align 1 dereferenceable(1) %ref.tmp1) #18
  resume { ptr, i32 } %10

if.end9:                                          ; preds = %invoke.cont3
  %second = getelementptr inbounds %"struct.std::_Rb_tree_node", ptr %retval.sroa.0.0.i.i, i64 0, i32 1, i32 0, i64 32
  br label %return

return:                                           ; preds = %if.then, %if.then8, %if.end9
  %retval.0 = phi ptr [ %second, %if.end9 ], [ null, %if.then8 ], [ null, %if.then ]
  ret ptr %retval.0
}

declare void @__cxa_pure_virtual() unnamed_addr

; Function Attrs: mustprogress nofree norecurse nosync nounwind willreturn memory(readwrite, argmem: none, inaccessiblemem: none) uwtable
define internal void @__cxx_global_var_init.18() #6 section ".text.startup" comdat($_ZN9grpc_core19NoDestructSingletonINS_11json_detail10AutoLoaderIbEEE6value_E) {
entry:
  %0 = load i8, ptr @_ZGVN9grpc_core19NoDestructSingletonINS_11json_detail10AutoLoaderIbEEE6value_E, align 8
  %guard.uninitialized = icmp eq i8 %0, 0
  br i1 %guard.uninitialized, label %init.check, label %init.end

init.check:                                       ; preds = %entry
  store i8 1, ptr @_ZGVN9grpc_core19NoDestructSingletonINS_11json_detail10AutoLoaderIbEEE6value_E, align 8
  store ptr getelementptr inbounds ({ [3 x ptr] }, ptr @_ZTVN9grpc_core11json_detail10AutoLoaderIbEE, i64 0, inrange i32 0, i64 2), ptr @_ZN9grpc_core19NoDestructSingletonINS_11json_detail10AutoLoaderIbEEE6value_E, align 8
  br label %init.end

init.end:                                         ; preds = %init.check, %entry
  ret void
}

declare ptr @__cxa_allocate_exception(i64) local_unnamed_addr

; Function Attrs: mustprogress nounwind uwtable
define linkonce_odr void @_ZNSt18bad_variant_accessD2Ev(ptr noundef nonnull align 8 dereferenceable(16) %this) unnamed_addr #5 comdat align 2 {
entry:
  tail call void @_ZNSt9exceptionD2Ev(ptr noundef nonnull align 8 dereferenceable(8) %this) #18
  ret void
}

declare void @__cxa_throw(ptr, ptr, ptr) local_unnamed_addr

; Function Attrs: mustprogress nounwind uwtable
define linkonce_odr void @_ZNSt18bad_variant_accessD0Ev(ptr noundef nonnull align 8 dereferenceable(16) %this) unnamed_addr #5 comdat align 2 {
entry:
  tail call void @_ZNSt9exceptionD2Ev(ptr noundef nonnull align 8 dereferenceable(8) %this) #18
  tail call void @_ZdlPv(ptr noundef nonnull %this) #21
  ret void
}

; Function Attrs: mustprogress nounwind uwtable
define linkonce_odr noundef ptr @_ZNKSt18bad_variant_access4whatEv(ptr noundef nonnull align 8 dereferenceable(16) %this) unnamed_addr #5 comdat align 2 {
entry:
  %_M_reason = getelementptr inbounds %"class.std::bad_variant_access", ptr %this, i64 0, i32 1
  %0 = load ptr, ptr %_M_reason, align 8
  ret ptr %0
}

; Function Attrs: nobuiltin nounwind
declare void @_ZdlPv(ptr noundef) local_unnamed_addr #7

; Function Attrs: nounwind
declare void @_ZNSt9exceptionD2Ev(ptr noundef nonnull align 8 dereferenceable(8)) unnamed_addr #1

; Function Attrs: noreturn nounwind uwtable
define linkonce_odr hidden void @__clang_call_terminate(ptr noundef %0) local_unnamed_addr #8 comdat {
  %2 = tail call ptr @__cxa_begin_catch(ptr %0) #18
  tail call void @_ZSt9terminatev() #20
  unreachable
}

declare ptr @__cxa_begin_catch(ptr) local_unnamed_addr

declare void @_ZSt9terminatev() local_unnamed_addr

; Function Attrs: mustprogress nofree nounwind willreturn memory(argmem: read)
declare i64 @strlen(ptr nocapture noundef) local_unnamed_addr #9

; Function Attrs: mustprogress uwtable
define linkonce_odr { i64, ptr } @_ZN4absl12lts_2023080228StripTrailingAsciiWhitespaceESt17basic_string_viewIcSt11char_traitsIcEE(i64 %str.coerce0, ptr %str.coerce1) local_unnamed_addr #3 comdat {
entry:
  %add.ptr.i.i = getelementptr inbounds i8, ptr %str.coerce1, i64 %str.coerce0
  %sub.ptr.rhs.cast.i.i.i.i = ptrtoint ptr %str.coerce1 to i64
  %shr.i.i.i = ashr i64 %str.coerce0, 2
  %cmp35.i.i.i = icmp sgt i64 %shr.i.i.i, 0
  br i1 %cmp35.i.i.i, label %for.body.i.i.i.preheader, label %for.end.i.i.i

for.body.i.i.i.preheader:                         ; preds = %entry
  %0 = and i64 %str.coerce0, 3
  %scevgep = getelementptr i8, ptr %str.coerce1, i64 %0
  br label %for.body.i.i.i

for.body.i.i.i:                                   ; preds = %for.body.i.i.i.preheader, %if.end16.i.i.i
  %agg.tmp.sroa.0.0.i.i = phi ptr [ %incdec.ptr.i.i10.i.i.i, %if.end16.i.i.i ], [ %add.ptr.i.i, %for.body.i.i.i.preheader ]
  %__trip_count.036.i.i.i = phi i64 [ %dec.i.i.i, %if.end16.i.i.i ], [ %shr.i.i.i, %for.body.i.i.i.preheader ]
  %incdec.ptr.i.i.i.i.i = getelementptr inbounds i8, ptr %agg.tmp.sroa.0.0.i.i, i64 -1
  %1 = load i8, ptr %incdec.ptr.i.i.i.i.i, align 1, !noalias !15
  %idxprom.i18 = zext i8 %1 to i64
  %arrayidx.i19 = getelementptr inbounds [256 x i8], ptr @_ZN4absl12lts_2023080214ascii_internal13kPropertyBitsE, i64 0, i64 %idxprom.i18
  %2 = load i8, ptr %arrayidx.i19, align 1, !noalias !15
  %3 = and i8 %2, 8
  %cmp.i20.not = icmp eq i8 %3, 0
  br i1 %cmp.i20.not, label %_ZSt11find_if_notISt16reverse_iteratorIPKcEPFbhEET_S6_S6_T0_.exit, label %if.end.i.i.i

if.end.i.i.i:                                     ; preds = %for.body.i.i.i
  %incdec.ptr.i.i2.i.i.i = getelementptr inbounds i8, ptr %agg.tmp.sroa.0.0.i.i, i64 -2
  %4 = load i8, ptr %incdec.ptr.i.i2.i.i.i, align 1, !noalias !15
  %idxprom.i15 = zext i8 %4 to i64
  %arrayidx.i16 = getelementptr inbounds [256 x i8], ptr @_ZN4absl12lts_2023080214ascii_internal13kPropertyBitsE, i64 0, i64 %idxprom.i15
  %5 = load i8, ptr %arrayidx.i16, align 1, !noalias !15
  %6 = and i8 %5, 8
  %cmp.i17.not = icmp eq i8 %6, 0
  br i1 %cmp.i17.not, label %_ZSt11find_if_notISt16reverse_iteratorIPKcEPFbhEET_S6_S6_T0_.exit.loopexit.split.loop.exit40, label %if.end6.i.i.i

if.end6.i.i.i:                                    ; preds = %if.end.i.i.i
  %incdec.ptr.i.i6.i.i.i = getelementptr inbounds i8, ptr %agg.tmp.sroa.0.0.i.i, i64 -3
  %7 = load i8, ptr %incdec.ptr.i.i6.i.i.i, align 1, !noalias !15
  %idxprom.i12 = zext i8 %7 to i64
  %arrayidx.i13 = getelementptr inbounds [256 x i8], ptr @_ZN4absl12lts_2023080214ascii_internal13kPropertyBitsE, i64 0, i64 %idxprom.i12
  %8 = load i8, ptr %arrayidx.i13, align 1, !noalias !15
  %9 = and i8 %8, 8
  %cmp.i14.not = icmp eq i8 %9, 0
  br i1 %cmp.i14.not, label %_ZSt11find_if_notISt16reverse_iteratorIPKcEPFbhEET_S6_S6_T0_.exit.loopexit.split.loop.exit38, label %if.end11.i.i.i

if.end11.i.i.i:                                   ; preds = %if.end6.i.i.i
  %incdec.ptr.i.i10.i.i.i = getelementptr inbounds i8, ptr %agg.tmp.sroa.0.0.i.i, i64 -4
  %10 = load i8, ptr %incdec.ptr.i.i10.i.i.i, align 1, !noalias !15
  %idxprom.i9 = zext i8 %10 to i64
  %arrayidx.i10 = getelementptr inbounds [256 x i8], ptr @_ZN4absl12lts_2023080214ascii_internal13kPropertyBitsE, i64 0, i64 %idxprom.i9
  %11 = load i8, ptr %arrayidx.i10, align 1, !noalias !15
  %12 = and i8 %11, 8
  %cmp.i11.not = icmp eq i8 %12, 0
  br i1 %cmp.i11.not, label %_ZSt11find_if_notISt16reverse_iteratorIPKcEPFbhEET_S6_S6_T0_.exit.loopexit.split.loop.exit, label %if.end16.i.i.i

if.end16.i.i.i:                                   ; preds = %if.end11.i.i.i
  %dec.i.i.i = add nsw i64 %__trip_count.036.i.i.i, -1
  %cmp.i.i.i = icmp sgt i64 %__trip_count.036.i.i.i, 1
  br i1 %cmp.i.i.i, label %for.body.i.i.i, label %for.end.i.i.i, !llvm.loop !22

for.end.i.i.i:                                    ; preds = %if.end16.i.i.i, %entry
  %agg.tmp.sroa.0.1.i.i = phi ptr [ %add.ptr.i.i, %entry ], [ %scevgep, %if.end16.i.i.i ]
  %sub.ptr.lhs.cast.i14.pre-phi.i.i.i = ptrtoint ptr %agg.tmp.sroa.0.1.i.i to i64
  %sub.ptr.sub.i16.i.i.i = sub i64 %sub.ptr.lhs.cast.i14.pre-phi.i.i.i, %sub.ptr.rhs.cast.i.i.i.i
  switch i64 %sub.ptr.sub.i16.i.i.i, label %_ZSt11find_if_notISt16reverse_iteratorIPKcEPFbhEET_S6_S6_T0_.exit [
    i64 3, label %sw.bb.i.i.i
    i64 2, label %sw.bb24.i.i.i
    i64 1, label %sw.bb30.i.i.i
  ]

sw.bb.i.i.i:                                      ; preds = %for.end.i.i.i
  %incdec.ptr.i.i17.i.i.i = getelementptr inbounds i8, ptr %agg.tmp.sroa.0.1.i.i, i64 -1
  %13 = load i8, ptr %incdec.ptr.i.i17.i.i.i, align 1, !noalias !15
  %idxprom.i6 = zext i8 %13 to i64
  %arrayidx.i7 = getelementptr inbounds [256 x i8], ptr @_ZN4absl12lts_2023080214ascii_internal13kPropertyBitsE, i64 0, i64 %idxprom.i6
  %14 = load i8, ptr %arrayidx.i7, align 1, !noalias !15
  %15 = and i8 %14, 8
  %cmp.i8.not = icmp eq i8 %15, 0
  br i1 %cmp.i8.not, label %_ZSt11find_if_notISt16reverse_iteratorIPKcEPFbhEET_S6_S6_T0_.exit, label %sw.bb24.i.i.i

sw.bb24.i.i.i:                                    ; preds = %sw.bb.i.i.i, %for.end.i.i.i
  %agg.tmp.sroa.0.2.i.i = phi ptr [ %agg.tmp.sroa.0.1.i.i, %for.end.i.i.i ], [ %incdec.ptr.i.i17.i.i.i, %sw.bb.i.i.i ]
  %incdec.ptr.i.i21.i.i.i = getelementptr inbounds i8, ptr %agg.tmp.sroa.0.2.i.i, i64 -1
  %16 = load i8, ptr %incdec.ptr.i.i21.i.i.i, align 1, !noalias !15
  %idxprom.i3 = zext i8 %16 to i64
  %arrayidx.i4 = getelementptr inbounds [256 x i8], ptr @_ZN4absl12lts_2023080214ascii_internal13kPropertyBitsE, i64 0, i64 %idxprom.i3
  %17 = load i8, ptr %arrayidx.i4, align 1, !noalias !15
  %18 = and i8 %17, 8
  %cmp.i5.not = icmp eq i8 %18, 0
  br i1 %cmp.i5.not, label %_ZSt11find_if_notISt16reverse_iteratorIPKcEPFbhEET_S6_S6_T0_.exit, label %sw.bb30.i.i.i

sw.bb30.i.i.i:                                    ; preds = %sw.bb24.i.i.i, %for.end.i.i.i
  %agg.tmp.sroa.0.3.i.i = phi ptr [ %agg.tmp.sroa.0.1.i.i, %for.end.i.i.i ], [ %incdec.ptr.i.i21.i.i.i, %sw.bb24.i.i.i ]
  %incdec.ptr.i.i25.i.i.i = getelementptr inbounds i8, ptr %agg.tmp.sroa.0.3.i.i, i64 -1
  %19 = load i8, ptr %incdec.ptr.i.i25.i.i.i, align 1, !noalias !15
  %idxprom.i = zext i8 %19 to i64
  %arrayidx.i = getelementptr inbounds [256 x i8], ptr @_ZN4absl12lts_2023080214ascii_internal13kPropertyBitsE, i64 0, i64 %idxprom.i
  %20 = load i8, ptr %arrayidx.i, align 1, !noalias !15
  %21 = and i8 %20, 8
  %cmp.i.not = icmp eq i8 %21, 0
  %spec.select.i.i = select i1 %cmp.i.not, ptr %agg.tmp.sroa.0.3.i.i, ptr %str.coerce1
  br label %_ZSt11find_if_notISt16reverse_iteratorIPKcEPFbhEET_S6_S6_T0_.exit

_ZSt11find_if_notISt16reverse_iteratorIPKcEPFbhEET_S6_S6_T0_.exit.loopexit.split.loop.exit: ; preds = %if.end11.i.i.i
  %incdec.ptr.i.i6.i.i.i.le = getelementptr inbounds i8, ptr %agg.tmp.sroa.0.0.i.i, i64 -3
  br label %_ZSt11find_if_notISt16reverse_iteratorIPKcEPFbhEET_S6_S6_T0_.exit

_ZSt11find_if_notISt16reverse_iteratorIPKcEPFbhEET_S6_S6_T0_.exit.loopexit.split.loop.exit38: ; preds = %if.end6.i.i.i
  %incdec.ptr.i.i2.i.i.i.le = getelementptr inbounds i8, ptr %agg.tmp.sroa.0.0.i.i, i64 -2
  br label %_ZSt11find_if_notISt16reverse_iteratorIPKcEPFbhEET_S6_S6_T0_.exit

_ZSt11find_if_notISt16reverse_iteratorIPKcEPFbhEET_S6_S6_T0_.exit.loopexit.split.loop.exit40: ; preds = %if.end.i.i.i
  %incdec.ptr.i.i.i.i.i.le = getelementptr inbounds i8, ptr %agg.tmp.sroa.0.0.i.i, i64 -1
  br label %_ZSt11find_if_notISt16reverse_iteratorIPKcEPFbhEET_S6_S6_T0_.exit

_ZSt11find_if_notISt16reverse_iteratorIPKcEPFbhEET_S6_S6_T0_.exit: ; preds = %for.body.i.i.i, %_ZSt11find_if_notISt16reverse_iteratorIPKcEPFbhEET_S6_S6_T0_.exit.loopexit.split.loop.exit, %_ZSt11find_if_notISt16reverse_iteratorIPKcEPFbhEET_S6_S6_T0_.exit.loopexit.split.loop.exit38, %_ZSt11find_if_notISt16reverse_iteratorIPKcEPFbhEET_S6_S6_T0_.exit.loopexit.split.loop.exit40, %for.end.i.i.i, %sw.bb.i.i.i, %sw.bb24.i.i.i, %sw.bb30.i.i.i
  %.sink.i.i.i = phi ptr [ %agg.tmp.sroa.0.1.i.i, %sw.bb.i.i.i ], [ %agg.tmp.sroa.0.2.i.i, %sw.bb24.i.i.i ], [ %str.coerce1, %for.end.i.i.i ], [ %spec.select.i.i, %sw.bb30.i.i.i ], [ %incdec.ptr.i.i6.i.i.i.le, %_ZSt11find_if_notISt16reverse_iteratorIPKcEPFbhEET_S6_S6_T0_.exit.loopexit.split.loop.exit ], [ %incdec.ptr.i.i2.i.i.i.le, %_ZSt11find_if_notISt16reverse_iteratorIPKcEPFbhEET_S6_S6_T0_.exit.loopexit.split.loop.exit38 ], [ %incdec.ptr.i.i.i.i.i.le, %_ZSt11find_if_notISt16reverse_iteratorIPKcEPFbhEET_S6_S6_T0_.exit.loopexit.split.loop.exit40 ], [ %agg.tmp.sroa.0.0.i.i, %for.body.i.i.i ]
  %sub.ptr.lhs.cast.i = ptrtoint ptr %.sink.i.i.i to i64
  %sub.ptr.sub.i = sub i64 %sub.ptr.lhs.cast.i, %sub.ptr.rhs.cast.i.i.i.i
  %.sroa.speculated.i = tail call i64 @llvm.umin.i64(i64 %str.coerce0, i64 %sub.ptr.sub.i)
  %.fca.0.insert.i = insertvalue { i64, ptr } poison, i64 %.sroa.speculated.i, 0
  %.fca.1.insert.i = insertvalue { i64, ptr } %.fca.0.insert.i, ptr %str.coerce1, 1
  ret { i64, ptr } %.fca.1.insert.i
}

; Function Attrs: mustprogress uwtable
define linkonce_odr { i64, ptr } @_ZN4absl12lts_2023080227StripLeadingAsciiWhitespaceESt17basic_string_viewIcSt11char_traitsIcEE(i64 %str.coerce0, ptr %str.coerce1) local_unnamed_addr #3 comdat {
entry:
  %add.ptr.i = getelementptr inbounds i8, ptr %str.coerce1, i64 %str.coerce0
  %sub.ptr.lhs.cast.i.i.i = ptrtoint ptr %add.ptr.i to i64
  %sub.ptr.rhs.cast.i.i.i = ptrtoint ptr %str.coerce1 to i64
  %shr.i.i.i = ashr i64 %str.coerce0, 2
  %cmp54.i.i.i = icmp sgt i64 %shr.i.i.i, 0
  br i1 %cmp54.i.i.i, label %for.body.i.i.i.preheader, label %for.end.i.i.i

for.body.i.i.i.preheader:                         ; preds = %entry
  %0 = and i64 %str.coerce0, -4
  %scevgep = getelementptr i8, ptr %str.coerce1, i64 %0
  br label %for.body.i.i.i

for.body.i.i.i:                                   ; preds = %for.body.i.i.i.preheader, %if.end11.i.i.i
  %__trip_count.056.i.i.i = phi i64 [ %dec.i.i.i, %if.end11.i.i.i ], [ %shr.i.i.i, %for.body.i.i.i.preheader ]
  %__first.addr.055.i.i.i = phi ptr [ %incdec.ptr12.i.i.i, %if.end11.i.i.i ], [ %str.coerce1, %for.body.i.i.i.preheader ]
  %1 = load i8, ptr %__first.addr.055.i.i.i, align 1
  %idxprom.i20 = zext i8 %1 to i64
  %arrayidx.i21 = getelementptr inbounds [256 x i8], ptr @_ZN4absl12lts_2023080214ascii_internal13kPropertyBitsE, i64 0, i64 %idxprom.i20
  %2 = load i8, ptr %arrayidx.i21, align 1
  %3 = and i8 %2, 8
  %cmp.i22.not = icmp eq i8 %3, 0
  br i1 %cmp.i22.not, label %_ZSt11find_if_notIPKcPFbhEET_S4_S4_T0_.exit, label %if.end.i.i.i

if.end.i.i.i:                                     ; preds = %for.body.i.i.i
  %incdec.ptr.i.i.i = getelementptr inbounds i8, ptr %__first.addr.055.i.i.i, i64 1
  %4 = load i8, ptr %incdec.ptr.i.i.i, align 1
  %idxprom.i17 = zext i8 %4 to i64
  %arrayidx.i18 = getelementptr inbounds [256 x i8], ptr @_ZN4absl12lts_2023080214ascii_internal13kPropertyBitsE, i64 0, i64 %idxprom.i17
  %5 = load i8, ptr %arrayidx.i18, align 1
  %6 = and i8 %5, 8
  %cmp.i19.not = icmp eq i8 %6, 0
  br i1 %cmp.i19.not, label %_ZSt11find_if_notIPKcPFbhEET_S4_S4_T0_.exit.loopexit.split.loop.exit, label %if.end3.i.i.i

if.end3.i.i.i:                                    ; preds = %if.end.i.i.i
  %incdec.ptr4.i.i.i = getelementptr inbounds i8, ptr %__first.addr.055.i.i.i, i64 2
  %7 = load i8, ptr %incdec.ptr4.i.i.i, align 1
  %idxprom.i14 = zext i8 %7 to i64
  %arrayidx.i15 = getelementptr inbounds [256 x i8], ptr @_ZN4absl12lts_2023080214ascii_internal13kPropertyBitsE, i64 0, i64 %idxprom.i14
  %8 = load i8, ptr %arrayidx.i15, align 1
  %9 = and i8 %8, 8
  %cmp.i16.not = icmp eq i8 %9, 0
  br i1 %cmp.i16.not, label %_ZSt11find_if_notIPKcPFbhEET_S4_S4_T0_.exit.loopexit.split.loop.exit39, label %if.end7.i.i.i

if.end7.i.i.i:                                    ; preds = %if.end3.i.i.i
  %incdec.ptr8.i.i.i = getelementptr inbounds i8, ptr %__first.addr.055.i.i.i, i64 3
  %10 = load i8, ptr %incdec.ptr8.i.i.i, align 1
  %idxprom.i11 = zext i8 %10 to i64
  %arrayidx.i12 = getelementptr inbounds [256 x i8], ptr @_ZN4absl12lts_2023080214ascii_internal13kPropertyBitsE, i64 0, i64 %idxprom.i11
  %11 = load i8, ptr %arrayidx.i12, align 1
  %12 = and i8 %11, 8
  %cmp.i13.not = icmp eq i8 %12, 0
  br i1 %cmp.i13.not, label %_ZSt11find_if_notIPKcPFbhEET_S4_S4_T0_.exit.loopexit.split.loop.exit41, label %if.end11.i.i.i

if.end11.i.i.i:                                   ; preds = %if.end7.i.i.i
  %incdec.ptr12.i.i.i = getelementptr inbounds i8, ptr %__first.addr.055.i.i.i, i64 4
  %dec.i.i.i = add nsw i64 %__trip_count.056.i.i.i, -1
  %cmp.i.i.i = icmp sgt i64 %__trip_count.056.i.i.i, 1
  br i1 %cmp.i.i.i, label %for.body.i.i.i, label %for.end.loopexit.i.i.i, !llvm.loop !23

for.end.loopexit.i.i.i:                           ; preds = %if.end11.i.i.i
  %.pre.i.i.i = ptrtoint ptr %scevgep to i64
  br label %for.end.i.i.i

for.end.i.i.i:                                    ; preds = %for.end.loopexit.i.i.i, %entry
  %sub.ptr.rhs.cast14.pre-phi.i.i.i = phi i64 [ %.pre.i.i.i, %for.end.loopexit.i.i.i ], [ %sub.ptr.rhs.cast.i.i.i, %entry ]
  %__first.addr.0.lcssa.i.i.i = phi ptr [ %scevgep, %for.end.loopexit.i.i.i ], [ %str.coerce1, %entry ]
  %sub.ptr.sub15.i.i.i = sub i64 %sub.ptr.lhs.cast.i.i.i, %sub.ptr.rhs.cast14.pre-phi.i.i.i
  switch i64 %sub.ptr.sub15.i.i.i, label %sw.default.i.i.i [
    i64 3, label %sw.bb.i.i.i
    i64 2, label %sw.bb20.i.i.i
    i64 1, label %sw.bb25.i.i.i
  ]

sw.bb.i.i.i:                                      ; preds = %for.end.i.i.i
  %13 = load i8, ptr %__first.addr.0.lcssa.i.i.i, align 1
  %idxprom.i8 = zext i8 %13 to i64
  %arrayidx.i9 = getelementptr inbounds [256 x i8], ptr @_ZN4absl12lts_2023080214ascii_internal13kPropertyBitsE, i64 0, i64 %idxprom.i8
  %14 = load i8, ptr %arrayidx.i9, align 1
  %15 = and i8 %14, 8
  %cmp.i10.not = icmp eq i8 %15, 0
  br i1 %cmp.i10.not, label %_ZSt11find_if_notIPKcPFbhEET_S4_S4_T0_.exit, label %if.end18.i.i.i

if.end18.i.i.i:                                   ; preds = %sw.bb.i.i.i
  %incdec.ptr19.i.i.i = getelementptr inbounds i8, ptr %__first.addr.0.lcssa.i.i.i, i64 1
  br label %sw.bb20.i.i.i

sw.bb20.i.i.i:                                    ; preds = %if.end18.i.i.i, %for.end.i.i.i
  %__first.addr.1.i.i.i = phi ptr [ %__first.addr.0.lcssa.i.i.i, %for.end.i.i.i ], [ %incdec.ptr19.i.i.i, %if.end18.i.i.i ]
  %16 = load i8, ptr %__first.addr.1.i.i.i, align 1
  %idxprom.i5 = zext i8 %16 to i64
  %arrayidx.i6 = getelementptr inbounds [256 x i8], ptr @_ZN4absl12lts_2023080214ascii_internal13kPropertyBitsE, i64 0, i64 %idxprom.i5
  %17 = load i8, ptr %arrayidx.i6, align 1
  %18 = and i8 %17, 8
  %cmp.i7.not = icmp eq i8 %18, 0
  br i1 %cmp.i7.not, label %_ZSt11find_if_notIPKcPFbhEET_S4_S4_T0_.exit, label %if.end23.i.i.i

if.end23.i.i.i:                                   ; preds = %sw.bb20.i.i.i
  %incdec.ptr24.i.i.i = getelementptr inbounds i8, ptr %__first.addr.1.i.i.i, i64 1
  br label %sw.bb25.i.i.i

sw.bb25.i.i.i:                                    ; preds = %if.end23.i.i.i, %for.end.i.i.i
  %__first.addr.2.i.i.i = phi ptr [ %__first.addr.0.lcssa.i.i.i, %for.end.i.i.i ], [ %incdec.ptr24.i.i.i, %if.end23.i.i.i ]
  %19 = load i8, ptr %__first.addr.2.i.i.i, align 1
  %idxprom.i = zext i8 %19 to i64
  %arrayidx.i = getelementptr inbounds [256 x i8], ptr @_ZN4absl12lts_2023080214ascii_internal13kPropertyBitsE, i64 0, i64 %idxprom.i
  %20 = load i8, ptr %arrayidx.i, align 1
  %21 = and i8 %20, 8
  %cmp.i.not = icmp eq i8 %21, 0
  br i1 %cmp.i.not, label %_ZSt11find_if_notIPKcPFbhEET_S4_S4_T0_.exit, label %sw.default.i.i.i

sw.default.i.i.i:                                 ; preds = %sw.bb25.i.i.i, %for.end.i.i.i
  br label %_ZSt11find_if_notIPKcPFbhEET_S4_S4_T0_.exit

_ZSt11find_if_notIPKcPFbhEET_S4_S4_T0_.exit.loopexit.split.loop.exit: ; preds = %if.end.i.i.i
  %incdec.ptr.i.i.i.le = getelementptr inbounds i8, ptr %__first.addr.055.i.i.i, i64 1
  br label %_ZSt11find_if_notIPKcPFbhEET_S4_S4_T0_.exit

_ZSt11find_if_notIPKcPFbhEET_S4_S4_T0_.exit.loopexit.split.loop.exit39: ; preds = %if.end3.i.i.i
  %incdec.ptr4.i.i.i.le = getelementptr inbounds i8, ptr %__first.addr.055.i.i.i, i64 2
  br label %_ZSt11find_if_notIPKcPFbhEET_S4_S4_T0_.exit

_ZSt11find_if_notIPKcPFbhEET_S4_S4_T0_.exit.loopexit.split.loop.exit41: ; preds = %if.end7.i.i.i
  %incdec.ptr8.i.i.i.le = getelementptr inbounds i8, ptr %__first.addr.055.i.i.i, i64 3
  br label %_ZSt11find_if_notIPKcPFbhEET_S4_S4_T0_.exit

_ZSt11find_if_notIPKcPFbhEET_S4_S4_T0_.exit:      ; preds = %for.body.i.i.i, %_ZSt11find_if_notIPKcPFbhEET_S4_S4_T0_.exit.loopexit.split.loop.exit, %_ZSt11find_if_notIPKcPFbhEET_S4_S4_T0_.exit.loopexit.split.loop.exit39, %_ZSt11find_if_notIPKcPFbhEET_S4_S4_T0_.exit.loopexit.split.loop.exit41, %sw.bb.i.i.i, %sw.bb20.i.i.i, %sw.bb25.i.i.i, %sw.default.i.i.i
  %retval.0.i.i.i = phi ptr [ %add.ptr.i, %sw.default.i.i.i ], [ %__first.addr.0.lcssa.i.i.i, %sw.bb.i.i.i ], [ %__first.addr.1.i.i.i, %sw.bb20.i.i.i ], [ %__first.addr.2.i.i.i, %sw.bb25.i.i.i ], [ %incdec.ptr.i.i.i.le, %_ZSt11find_if_notIPKcPFbhEET_S4_S4_T0_.exit.loopexit.split.loop.exit ], [ %incdec.ptr4.i.i.i.le, %_ZSt11find_if_notIPKcPFbhEET_S4_S4_T0_.exit.loopexit.split.loop.exit39 ], [ %incdec.ptr8.i.i.i.le, %_ZSt11find_if_notIPKcPFbhEET_S4_S4_T0_.exit.loopexit.split.loop.exit41 ], [ %__first.addr.055.i.i.i, %for.body.i.i.i ]
  %sub.ptr.lhs.cast = ptrtoint ptr %retval.0.i.i.i to i64
  %sub.ptr.sub = sub i64 %sub.ptr.lhs.cast, %sub.ptr.rhs.cast.i.i.i
  %cmp.i.i = icmp ugt i64 %sub.ptr.sub, %str.coerce0
  br i1 %cmp.i.i, label %if.then.i.i, label %_ZNKSt17basic_string_viewIcSt11char_traitsIcEE6substrEmm.exit

if.then.i.i:                                      ; preds = %_ZSt11find_if_notIPKcPFbhEET_S4_S4_T0_.exit
  tail call void (ptr, ...) @_ZSt24__throw_out_of_range_fmtPKcz(ptr noundef nonnull @.str.23, ptr noundef nonnull @.str.22, i64 noundef %sub.ptr.sub, i64 noundef %str.coerce0) #19
  unreachable

_ZNKSt17basic_string_viewIcSt11char_traitsIcEE6substrEmm.exit: ; preds = %_ZSt11find_if_notIPKcPFbhEET_S4_S4_T0_.exit
  %sub.i = sub i64 %str.coerce0, %sub.ptr.sub
  %add.ptr.i4 = getelementptr inbounds i8, ptr %str.coerce1, i64 %sub.ptr.sub
  %.fca.0.insert.i = insertvalue { i64, ptr } poison, i64 %sub.i, 0
  %.fca.1.insert.i = insertvalue { i64, ptr } %.fca.0.insert.i, ptr %add.ptr.i4, 1
  ret { i64, ptr } %.fca.1.insert.i
}

; Function Attrs: mustprogress nofree nounwind willreturn memory(argmem: read)
declare ptr @memchr(ptr noundef, i32 noundef, i64 noundef) local_unnamed_addr #9

; Function Attrs: noreturn
declare void @_ZSt24__throw_out_of_range_fmtPKcz(ptr noundef, ...) local_unnamed_addr #10

; Function Attrs: mustprogress uwtable
define linkonce_odr noundef nonnull align 8 dereferenceable(48) ptr @_ZNSt8_Rb_treeINSt7__cxx1112basic_stringIcSt11char_traitsIcESaIcEEESt4pairIKS5_N9grpc_core12experimental4JsonEESt10_Select1stISB_ESt4lessIS5_ESaISB_EEaSERKSH_(ptr noundef nonnull align 8 dereferenceable(48) %this, ptr noundef nonnull align 8 dereferenceable(48) %__x) local_unnamed_addr #3 comdat align 2 personality ptr @__gxx_personality_v0 {
entry:
  %__roan = alloca %"struct.std::_Rb_tree<std::__cxx11::basic_string<char>, std::pair<const std::__cxx11::basic_string<char>, grpc_core::experimental::Json>, std::_Select1st<std::pair<const std::__cxx11::basic_string<char>, grpc_core::experimental::Json>>, std::less<std::__cxx11::basic_string<char>>>::_Reuse_or_alloc_node", align 8
  %cmp.not = icmp eq ptr %this, %__x
  br i1 %cmp.not, label %if.end10, label %if.then

if.then:                                          ; preds = %entry
  %_M_parent.i.i = getelementptr inbounds i8, ptr %this, i64 16
  %0 = load ptr, ptr %_M_parent.i.i, align 8
  store ptr %0, ptr %__roan, align 8
  %_M_nodes.i = getelementptr inbounds %"struct.std::_Rb_tree<std::__cxx11::basic_string<char>, std::pair<const std::__cxx11::basic_string<char>, grpc_core::experimental::Json>, std::_Select1st<std::pair<const std::__cxx11::basic_string<char>, grpc_core::experimental::Json>>, std::less<std::__cxx11::basic_string<char>>>::_Reuse_or_alloc_node", ptr %__roan, i64 0, i32 1
  %_M_right.i.i = getelementptr inbounds i8, ptr %this, i64 32
  %1 = load ptr, ptr %_M_right.i.i, align 8
  store ptr %1, ptr %_M_nodes.i, align 8
  %_M_t.i = getelementptr inbounds %"struct.std::_Rb_tree<std::__cxx11::basic_string<char>, std::pair<const std::__cxx11::basic_string<char>, grpc_core::experimental::Json>, std::_Select1st<std::pair<const std::__cxx11::basic_string<char>, grpc_core::experimental::Json>>, std::less<std::__cxx11::basic_string<char>>>::_Reuse_or_alloc_node", ptr %__roan, i64 0, i32 2
  store ptr %this, ptr %_M_t.i, align 8
  %tobool.not.i = icmp eq ptr %0, null
  br i1 %tobool.not.i, label %if.end12.sink.split.i, label %if.then.i

if.then.i:                                        ; preds = %if.then
  %_M_parent.i = getelementptr inbounds %"struct.std::_Rb_tree_node_base", ptr %0, i64 0, i32 1
  store ptr null, ptr %_M_parent.i, align 8
  %_M_left.i = getelementptr inbounds %"struct.std::_Rb_tree_node_base", ptr %1, i64 0, i32 2
  %2 = load ptr, ptr %_M_left.i, align 8
  %tobool6.not.i = icmp eq ptr %2, null
  br i1 %tobool6.not.i, label %_ZNSt8_Rb_treeINSt7__cxx1112basic_stringIcSt11char_traitsIcESaIcEEESt4pairIKS5_N9grpc_core12experimental4JsonEESt10_Select1stISB_ESt4lessIS5_ESaISB_EE20_Reuse_or_alloc_nodeC2ERSH_.exit, label %if.end12.sink.split.i

if.end12.sink.split.i:                            ; preds = %if.then.i, %if.then
  %.sink.i = phi ptr [ %2, %if.then.i ], [ null, %if.then ]
  store ptr %.sink.i, ptr %_M_nodes.i, align 8
  br label %_ZNSt8_Rb_treeINSt7__cxx1112basic_stringIcSt11char_traitsIcESaIcEEESt4pairIKS5_N9grpc_core12experimental4JsonEESt10_Select1stISB_ESt4lessIS5_ESaISB_EE20_Reuse_or_alloc_nodeC2ERSH_.exit

_ZNSt8_Rb_treeINSt7__cxx1112basic_stringIcSt11char_traitsIcESaIcEEESt4pairIKS5_N9grpc_core12experimental4JsonEESt10_Select1stISB_ESt4lessIS5_ESaISB_EE20_Reuse_or_alloc_nodeC2ERSH_.exit: ; preds = %if.then.i, %if.end12.sink.split.i
  %add.ptr = getelementptr inbounds i8, ptr %this, i64 8
  store ptr null, ptr %_M_parent.i.i, align 8
  %_M_left.i4 = getelementptr inbounds i8, ptr %this, i64 24
  store ptr %add.ptr, ptr %_M_left.i4, align 8
  store ptr %add.ptr, ptr %_M_right.i.i, align 8
  %_M_node_count.i = getelementptr inbounds i8, ptr %this, i64 40
  store i64 0, ptr %_M_node_count.i, align 8
  %_M_parent.i5 = getelementptr inbounds i8, ptr %__x, i64 16
  %3 = load ptr, ptr %_M_parent.i5, align 8
  %cmp5.not = icmp eq ptr %3, null
  br i1 %cmp5.not, label %if.end, label %if.then6

if.then6:                                         ; preds = %_ZNSt8_Rb_treeINSt7__cxx1112basic_stringIcSt11char_traitsIcESaIcEEESt4pairIKS5_N9grpc_core12experimental4JsonEESt10_Select1stISB_ESt4lessIS5_ESaISB_EE20_Reuse_or_alloc_nodeC2ERSH_.exit
  %call3.i9 = invoke noundef ptr @_ZNSt8_Rb_treeINSt7__cxx1112basic_stringIcSt11char_traitsIcESaIcEEESt4pairIKS5_N9grpc_core12experimental4JsonEESt10_Select1stISB_ESt4lessIS5_ESaISB_EE7_M_copyILb0ENSH_20_Reuse_or_alloc_nodeEEEPSt13_Rb_tree_nodeISB_ESM_PSt18_Rb_tree_node_baseRT0_(ptr noundef nonnull align 8 dereferenceable(48) %this, ptr noundef nonnull %3, ptr noundef nonnull %add.ptr, ptr noundef nonnull align 8 dereferenceable(24) %__roan)
          to label %while.cond.i.i.i unwind label %lpad

while.cond.i.i.i:                                 ; preds = %if.then6, %while.cond.i.i.i
  %__x.addr.0.i.i.i = phi ptr [ %4, %while.cond.i.i.i ], [ %call3.i9, %if.then6 ]
  %_M_left.i.i.i = getelementptr inbounds %"struct.std::_Rb_tree_node_base", ptr %__x.addr.0.i.i.i, i64 0, i32 2
  %4 = load ptr, ptr %_M_left.i.i.i, align 8
  %cmp.not.i.i.i = icmp eq ptr %4, null
  br i1 %cmp.not.i.i.i, label %_ZNSt8_Rb_treeINSt7__cxx1112basic_stringIcSt11char_traitsIcESaIcEEESt4pairIKS5_N9grpc_core12experimental4JsonEESt10_Select1stISB_ESt4lessIS5_ESaISB_EE10_S_minimumEPSt18_Rb_tree_node_base.exit.i, label %while.cond.i.i.i, !llvm.loop !24

_ZNSt8_Rb_treeINSt7__cxx1112basic_stringIcSt11char_traitsIcESaIcEEESt4pairIKS5_N9grpc_core12experimental4JsonEESt10_Select1stISB_ESt4lessIS5_ESaISB_EE10_S_minimumEPSt18_Rb_tree_node_base.exit.i: ; preds = %while.cond.i.i.i
  store ptr %__x.addr.0.i.i.i, ptr %_M_left.i4, align 8
  br label %while.cond.i.i4.i

while.cond.i.i4.i:                                ; preds = %while.cond.i.i4.i, %_ZNSt8_Rb_treeINSt7__cxx1112basic_stringIcSt11char_traitsIcESaIcEEESt4pairIKS5_N9grpc_core12experimental4JsonEESt10_Select1stISB_ESt4lessIS5_ESaISB_EE10_S_minimumEPSt18_Rb_tree_node_base.exit.i
  %__x.addr.0.i.i5.i = phi ptr [ %call3.i9, %_ZNSt8_Rb_treeINSt7__cxx1112basic_stringIcSt11char_traitsIcESaIcEEESt4pairIKS5_N9grpc_core12experimental4JsonEESt10_Select1stISB_ESt4lessIS5_ESaISB_EE10_S_minimumEPSt18_Rb_tree_node_base.exit.i ], [ %5, %while.cond.i.i4.i ]
  %_M_right.i.i.i = getelementptr inbounds %"struct.std::_Rb_tree_node_base", ptr %__x.addr.0.i.i5.i, i64 0, i32 3
  %5 = load ptr, ptr %_M_right.i.i.i, align 8
  %cmp.not.i.i6.i = icmp eq ptr %5, null
  br i1 %cmp.not.i.i6.i, label %invoke.cont7, label %while.cond.i.i4.i, !llvm.loop !25

invoke.cont7:                                     ; preds = %while.cond.i.i4.i
  store ptr %__x.addr.0.i.i5.i, ptr %_M_right.i.i, align 8
  %_M_node_count.i8 = getelementptr inbounds i8, ptr %__x, i64 40
  %6 = load i64, ptr %_M_node_count.i8, align 8
  store i64 %6, ptr %_M_node_count.i, align 8
  store ptr %call3.i9, ptr %_M_parent.i.i, align 8
  %.pre = load ptr, ptr %_M_t.i, align 8
  %.pre12 = load ptr, ptr %__roan, align 8
  br label %if.end

lpad:                                             ; preds = %if.then6
  %7 = landingpad { ptr, i32 }
          cleanup
  call void @_ZNSt8_Rb_treeINSt7__cxx1112basic_stringIcSt11char_traitsIcESaIcEEESt4pairIKS5_N9grpc_core12experimental4JsonEESt10_Select1stISB_ESt4lessIS5_ESaISB_EE20_Reuse_or_alloc_nodeD2Ev(ptr noundef nonnull align 8 dereferenceable(24) %__roan) #18
  resume { ptr, i32 } %7

if.end:                                           ; preds = %invoke.cont7, %_ZNSt8_Rb_treeINSt7__cxx1112basic_stringIcSt11char_traitsIcESaIcEEESt4pairIKS5_N9grpc_core12experimental4JsonEESt10_Select1stISB_ESt4lessIS5_ESaISB_EE20_Reuse_or_alloc_nodeC2ERSH_.exit
  %8 = phi ptr [ %.pre12, %invoke.cont7 ], [ %0, %_ZNSt8_Rb_treeINSt7__cxx1112basic_stringIcSt11char_traitsIcESaIcEEESt4pairIKS5_N9grpc_core12experimental4JsonEESt10_Select1stISB_ESt4lessIS5_ESaISB_EE20_Reuse_or_alloc_nodeC2ERSH_.exit ]
  %9 = phi ptr [ %.pre, %invoke.cont7 ], [ %this, %_ZNSt8_Rb_treeINSt7__cxx1112basic_stringIcSt11char_traitsIcESaIcEEESt4pairIKS5_N9grpc_core12experimental4JsonEESt10_Select1stISB_ESt4lessIS5_ESaISB_EE20_Reuse_or_alloc_nodeC2ERSH_.exit ]
  invoke void @_ZNSt8_Rb_treeINSt7__cxx1112basic_stringIcSt11char_traitsIcESaIcEEESt4pairIKS5_N9grpc_core12experimental4JsonEESt10_Select1stISB_ESt4lessIS5_ESaISB_EE8_M_eraseEPSt13_Rb_tree_nodeISB_E(ptr noundef nonnull align 8 dereferenceable(48) %9, ptr noundef %8)
          to label %if.end10 unwind label %terminate.lpad.i

terminate.lpad.i:                                 ; preds = %if.end
  %10 = landingpad { ptr, i32 }
          catch ptr null
  %11 = extractvalue { ptr, i32 } %10, 0
  call void @__clang_call_terminate(ptr %11) #20
  unreachable

if.end10:                                         ; preds = %if.end, %entry
  ret ptr %this
}

; Function Attrs: mustprogress nounwind uwtable
define linkonce_odr void @_ZNSt8_Rb_treeINSt7__cxx1112basic_stringIcSt11char_traitsIcESaIcEEESt4pairIKS5_N9grpc_core12experimental4JsonEESt10_Select1stISB_ESt4lessIS5_ESaISB_EE20_Reuse_or_alloc_nodeD2Ev(ptr noundef nonnull align 8 dereferenceable(24) %this) unnamed_addr #5 comdat align 2 personality ptr @__gxx_personality_v0 {
entry:
  %_M_t = getelementptr inbounds %"struct.std::_Rb_tree<std::__cxx11::basic_string<char>, std::pair<const std::__cxx11::basic_string<char>, grpc_core::experimental::Json>, std::_Select1st<std::pair<const std::__cxx11::basic_string<char>, grpc_core::experimental::Json>>, std::less<std::__cxx11::basic_string<char>>>::_Reuse_or_alloc_node", ptr %this, i64 0, i32 2
  %0 = load ptr, ptr %_M_t, align 8
  %1 = load ptr, ptr %this, align 8
  invoke void @_ZNSt8_Rb_treeINSt7__cxx1112basic_stringIcSt11char_traitsIcESaIcEEESt4pairIKS5_N9grpc_core12experimental4JsonEESt10_Select1stISB_ESt4lessIS5_ESaISB_EE8_M_eraseEPSt13_Rb_tree_nodeISB_E(ptr noundef nonnull align 8 dereferenceable(48) %0, ptr noundef %1)
          to label %invoke.cont unwind label %terminate.lpad

invoke.cont:                                      ; preds = %entry
  ret void

terminate.lpad:                                   ; preds = %entry
  %2 = landingpad { ptr, i32 }
          catch ptr null
  %3 = extractvalue { ptr, i32 } %2, 0
  tail call void @__clang_call_terminate(ptr %3) #20
  unreachable
}

; Function Attrs: mustprogress uwtable
define linkonce_odr noundef ptr @_ZNSt8_Rb_treeINSt7__cxx1112basic_stringIcSt11char_traitsIcESaIcEEESt4pairIKS5_N9grpc_core12experimental4JsonEESt10_Select1stISB_ESt4lessIS5_ESaISB_EE7_M_copyILb0ENSH_20_Reuse_or_alloc_nodeEEEPSt13_Rb_tree_nodeISB_ESM_PSt18_Rb_tree_node_baseRT0_(ptr noundef nonnull align 8 dereferenceable(48) %this, ptr noundef %__x, ptr noundef %__p, ptr noundef nonnull align 8 dereferenceable(24) %__node_gen) local_unnamed_addr #3 comdat align 2 personality ptr @__gxx_personality_v0 {
entry:
  %_M_storage.i.i = getelementptr inbounds %"struct.std::_Rb_tree_node", ptr %__x, i64 0, i32 1
  %call2.i = tail call noundef ptr @_ZNSt8_Rb_treeINSt7__cxx1112basic_stringIcSt11char_traitsIcESaIcEEESt4pairIKS5_N9grpc_core12experimental4JsonEESt10_Select1stISB_ESt4lessIS5_ESaISB_EE20_Reuse_or_alloc_nodeclIRKSB_EEPSt13_Rb_tree_nodeISB_EOT_(ptr noundef nonnull align 8 dereferenceable(24) %__node_gen, ptr noundef nonnull align 8 dereferenceable(88) %_M_storage.i.i)
  %0 = load i32, ptr %__x, align 8
  store i32 %0, ptr %call2.i, align 8
  %_M_left.i = getelementptr inbounds %"struct.std::_Rb_tree_node_base", ptr %call2.i, i64 0, i32 2
  tail call void @llvm.memset.p0.i64(ptr noundef nonnull align 8 dereferenceable(16) %_M_left.i, i8 0, i64 16, i1 false)
  %_M_parent = getelementptr inbounds %"struct.std::_Rb_tree_node_base", ptr %call2.i, i64 0, i32 1
  store ptr %__p, ptr %_M_parent, align 8
  %_M_right = getelementptr inbounds %"struct.std::_Rb_tree_node_base", ptr %__x, i64 0, i32 3
  %1 = load ptr, ptr %_M_right, align 8
  %tobool.not = icmp eq ptr %1, null
  br i1 %tobool.not, label %if.end, label %if.then

if.then:                                          ; preds = %entry
  %call3 = invoke noundef ptr @_ZNSt8_Rb_treeINSt7__cxx1112basic_stringIcSt11char_traitsIcESaIcEEESt4pairIKS5_N9grpc_core12experimental4JsonEESt10_Select1stISB_ESt4lessIS5_ESaISB_EE7_M_copyILb0ENSH_20_Reuse_or_alloc_nodeEEEPSt13_Rb_tree_nodeISB_ESM_PSt18_Rb_tree_node_baseRT0_(ptr noundef nonnull align 8 dereferenceable(48) %this, ptr noundef nonnull %1, ptr noundef nonnull %call2.i, ptr noundef nonnull align 8 dereferenceable(24) %__node_gen)
          to label %invoke.cont unwind label %lpad.loopexit.split-lp

invoke.cont:                                      ; preds = %if.then
  %_M_right4 = getelementptr inbounds %"struct.std::_Rb_tree_node_base", ptr %call2.i, i64 0, i32 3
  store ptr %call3, ptr %_M_right4, align 8
  br label %if.end

lpad.loopexit:                                    ; preds = %if.then11, %while.body
  %lpad.loopexit30 = landingpad { ptr, i32 }
          catch ptr null
  br label %lpad

lpad.loopexit.split-lp:                           ; preds = %if.then
  %lpad.loopexit.split-lp31 = landingpad { ptr, i32 }
          catch ptr null
  br label %lpad

lpad:                                             ; preds = %lpad.loopexit.split-lp, %lpad.loopexit
  %lpad.phi = phi { ptr, i32 } [ %lpad.loopexit30, %lpad.loopexit ], [ %lpad.loopexit.split-lp31, %lpad.loopexit.split-lp ]
  %2 = extractvalue { ptr, i32 } %lpad.phi, 0
  %3 = tail call ptr @__cxa_begin_catch(ptr %2) #18
  invoke void @_ZNSt8_Rb_treeINSt7__cxx1112basic_stringIcSt11char_traitsIcESaIcEEESt4pairIKS5_N9grpc_core12experimental4JsonEESt10_Select1stISB_ESt4lessIS5_ESaISB_EE8_M_eraseEPSt13_Rb_tree_nodeISB_E(ptr noundef nonnull align 8 dereferenceable(48) %this, ptr noundef nonnull %call2.i)
          to label %invoke.cont19 unwind label %lpad18

invoke.cont19:                                    ; preds = %lpad
  invoke void @__cxa_rethrow() #19
          to label %unreachable unwind label %lpad18

if.end:                                           ; preds = %invoke.cont, %entry
  %__x.addr.0.in32 = getelementptr inbounds %"struct.std::_Rb_tree_node_base", ptr %__x, i64 0, i32 2
  %__x.addr.033 = load ptr, ptr %__x.addr.0.in32, align 8
  %cmp.not34 = icmp eq ptr %__x.addr.033, null
  br i1 %cmp.not34, label %try.cont, label %while.body

while.body:                                       ; preds = %if.end, %if.end16
  %__x.addr.036 = phi ptr [ %__x.addr.0, %if.end16 ], [ %__x.addr.033, %if.end ]
  %__p.addr.035 = phi ptr [ %call2.i2527, %if.end16 ], [ %call2.i, %if.end ]
  %_M_storage.i.i24 = getelementptr inbounds %"struct.std::_Rb_tree_node", ptr %__x.addr.036, i64 0, i32 1
  %call2.i2527 = invoke noundef ptr @_ZNSt8_Rb_treeINSt7__cxx1112basic_stringIcSt11char_traitsIcESaIcEEESt4pairIKS5_N9grpc_core12experimental4JsonEESt10_Select1stISB_ESt4lessIS5_ESaISB_EE20_Reuse_or_alloc_nodeclIRKSB_EEPSt13_Rb_tree_nodeISB_EOT_(ptr noundef nonnull align 8 dereferenceable(24) %__node_gen, ptr noundef nonnull align 8 dereferenceable(88) %_M_storage.i.i24)
          to label %invoke.cont6 unwind label %lpad.loopexit

invoke.cont6:                                     ; preds = %while.body
  %4 = load i32, ptr %__x.addr.036, align 8
  store i32 %4, ptr %call2.i2527, align 8
  %_M_left.i26 = getelementptr inbounds %"struct.std::_Rb_tree_node_base", ptr %call2.i2527, i64 0, i32 2
  tail call void @llvm.memset.p0.i64(ptr noundef nonnull align 8 dereferenceable(16) %_M_left.i26, i8 0, i64 16, i1 false)
  %_M_left = getelementptr inbounds %"struct.std::_Rb_tree_node_base", ptr %__p.addr.035, i64 0, i32 2
  store ptr %call2.i2527, ptr %_M_left, align 8
  %_M_parent8 = getelementptr inbounds %"struct.std::_Rb_tree_node_base", ptr %call2.i2527, i64 0, i32 1
  store ptr %__p.addr.035, ptr %_M_parent8, align 8
  %_M_right9 = getelementptr inbounds %"struct.std::_Rb_tree_node_base", ptr %__x.addr.036, i64 0, i32 3
  %5 = load ptr, ptr %_M_right9, align 8
  %tobool10.not = icmp eq ptr %5, null
  br i1 %tobool10.not, label %if.end16, label %if.then11

if.then11:                                        ; preds = %invoke.cont6
  %call14 = invoke noundef ptr @_ZNSt8_Rb_treeINSt7__cxx1112basic_stringIcSt11char_traitsIcESaIcEEESt4pairIKS5_N9grpc_core12experimental4JsonEESt10_Select1stISB_ESt4lessIS5_ESaISB_EE7_M_copyILb0ENSH_20_Reuse_or_alloc_nodeEEEPSt13_Rb_tree_nodeISB_ESM_PSt18_Rb_tree_node_baseRT0_(ptr noundef nonnull align 8 dereferenceable(48) %this, ptr noundef nonnull %5, ptr noundef nonnull %call2.i2527, ptr noundef nonnull align 8 dereferenceable(24) %__node_gen)
          to label %invoke.cont13 unwind label %lpad.loopexit

invoke.cont13:                                    ; preds = %if.then11
  %_M_right15 = getelementptr inbounds %"struct.std::_Rb_tree_node_base", ptr %call2.i2527, i64 0, i32 3
  store ptr %call14, ptr %_M_right15, align 8
  br label %if.end16

if.end16:                                         ; preds = %invoke.cont13, %invoke.cont6
  %__x.addr.0.in = getelementptr inbounds %"struct.std::_Rb_tree_node_base", ptr %__x.addr.036, i64 0, i32 2
  %__x.addr.0 = load ptr, ptr %__x.addr.0.in, align 8
  %cmp.not = icmp eq ptr %__x.addr.0, null
  br i1 %cmp.not, label %try.cont, label %while.body, !llvm.loop !26

lpad18:                                           ; preds = %invoke.cont19, %lpad
  %6 = landingpad { ptr, i32 }
          cleanup
  invoke void @__cxa_end_catch()
          to label %eh.resume unwind label %terminate.lpad

try.cont:                                         ; preds = %if.end16, %if.end
  ret ptr %call2.i

eh.resume:                                        ; preds = %lpad18
  resume { ptr, i32 } %6

terminate.lpad:                                   ; preds = %lpad18
  %7 = landingpad { ptr, i32 }
          catch ptr null
  %8 = extractvalue { ptr, i32 } %7, 0
  tail call void @__clang_call_terminate(ptr %8) #20
  unreachable

unreachable:                                      ; preds = %invoke.cont19
  unreachable
}

; Function Attrs: mustprogress uwtable
define linkonce_odr void @_ZNSt8_Rb_treeINSt7__cxx1112basic_stringIcSt11char_traitsIcESaIcEEESt4pairIKS5_N9grpc_core12experimental4JsonEESt10_Select1stISB_ESt4lessIS5_ESaISB_EE8_M_eraseEPSt13_Rb_tree_nodeISB_E(ptr noundef nonnull align 8 dereferenceable(48) %this, ptr noundef %__x) local_unnamed_addr #3 comdat align 2 personality ptr @__gxx_personality_v0 {
entry:
  %ref.tmp.i = alloca %class.anon.36, align 1
  %cmp.not4 = icmp eq ptr %__x, null
  br i1 %cmp.not4, label %while.end, label %while.body

while.body:                                       ; preds = %entry, %_ZN9grpc_core12experimental4JsonD2Ev.exit
  %__x.addr.05 = phi ptr [ %1, %_ZN9grpc_core12experimental4JsonD2Ev.exit ], [ %__x, %entry ]
  %_M_right.i = getelementptr inbounds %"struct.std::_Rb_tree_node_base", ptr %__x.addr.05, i64 0, i32 3
  %0 = load ptr, ptr %_M_right.i, align 8
  call void @_ZNSt8_Rb_treeINSt7__cxx1112basic_stringIcSt11char_traitsIcESaIcEEESt4pairIKS5_N9grpc_core12experimental4JsonEESt10_Select1stISB_ESt4lessIS5_ESaISB_EE8_M_eraseEPSt13_Rb_tree_nodeISB_E(ptr noundef nonnull align 8 dereferenceable(48) %this, ptr noundef %0)
  %_M_left.i = getelementptr inbounds %"struct.std::_Rb_tree_node_base", ptr %__x.addr.05, i64 0, i32 2
  %1 = load ptr, ptr %_M_left.i, align 8
  %_M_storage.i.i = getelementptr inbounds %"struct.std::_Rb_tree_node", ptr %__x.addr.05, i64 0, i32 1
  call void @llvm.lifetime.start.p0(i64 1, ptr nonnull %ref.tmp.i)
  %_M_index.i.i = getelementptr inbounds %"struct.std::_Rb_tree_node", ptr %__x.addr.05, i64 0, i32 1, i32 0, i64 80
  %2 = load i8, ptr %_M_index.i.i, align 8
  %cmp.i.i.not = icmp eq i8 %2, -1
  br i1 %cmp.i.i.not, label %_ZN9grpc_core12experimental4JsonD2Ev.exit, label %if.end.i

if.end.i:                                         ; preds = %while.body
  %second.i.i.i = getelementptr inbounds %"struct.std::_Rb_tree_node", ptr %__x.addr.05, i64 0, i32 1, i32 0, i64 32
  invoke void @_ZSt10__do_visitIvZNSt8__detail9__variant16_Variant_storageILb0EJSt9monostatebN9grpc_core12experimental4Json11NumberValueENSt7__cxx1112basic_stringIcSt11char_traitsIcESaIcEEESt3mapISD_S6_St4lessISD_ESaISt4pairIKSD_S6_EEESt6vectorIS6_SaIS6_EEEE8_M_resetEvEUlOT_E_JRSt7variantIJS3_bS7_SD_SL_SO_EEEEDcOT0_DpOT1_(ptr noundef nonnull align 1 dereferenceable(1) %ref.tmp.i, ptr noundef nonnull align 8 dereferenceable(49) %second.i.i.i)
          to label %.noexc unwind label %terminate.lpad.i.i.i.i

.noexc:                                           ; preds = %if.end.i
  store i8 -1, ptr %_M_index.i.i, align 8
  br label %_ZN9grpc_core12experimental4JsonD2Ev.exit

terminate.lpad.i.i.i.i:                           ; preds = %if.end.i
  %3 = landingpad { ptr, i32 }
          catch ptr null
  %4 = extractvalue { ptr, i32 } %3, 0
  call void @__clang_call_terminate(ptr %4) #20
  unreachable

_ZN9grpc_core12experimental4JsonD2Ev.exit:        ; preds = %.noexc, %while.body
  call void @llvm.lifetime.end.p0(i64 1, ptr nonnull %ref.tmp.i)
  call void @_ZNSt7__cxx1112basic_stringIcSt11char_traitsIcESaIcEED1Ev(ptr noundef nonnull align 8 dereferenceable(32) %_M_storage.i.i) #18
  call void @_ZdlPv(ptr noundef nonnull %__x.addr.05) #21
  %cmp.not = icmp eq ptr %1, null
  br i1 %cmp.not, label %while.end, label %while.body, !llvm.loop !27

while.end:                                        ; preds = %_ZN9grpc_core12experimental4JsonD2Ev.exit, %entry
  ret void
}

declare void @__cxa_rethrow() local_unnamed_addr

declare void @__cxa_end_catch() local_unnamed_addr

; Function Attrs: mustprogress uwtable
define linkonce_odr noundef ptr @_ZNSt8_Rb_treeINSt7__cxx1112basic_stringIcSt11char_traitsIcESaIcEEESt4pairIKS5_N9grpc_core12experimental4JsonEESt10_Select1stISB_ESt4lessIS5_ESaISB_EE20_Reuse_or_alloc_nodeclIRKSB_EEPSt13_Rb_tree_nodeISB_EOT_(ptr noundef nonnull align 8 dereferenceable(24) %this, ptr noundef nonnull align 8 dereferenceable(88) %__arg) local_unnamed_addr #3 comdat align 2 personality ptr @__gxx_personality_v0 {
entry:
  %ref.tmp.i.i.i = alloca %class.anon.36, align 1
  %_M_nodes.i = getelementptr inbounds %"struct.std::_Rb_tree<std::__cxx11::basic_string<char>, std::pair<const std::__cxx11::basic_string<char>, grpc_core::experimental::Json>, std::_Select1st<std::pair<const std::__cxx11::basic_string<char>, grpc_core::experimental::Json>>, std::less<std::__cxx11::basic_string<char>>>::_Reuse_or_alloc_node", ptr %this, i64 0, i32 1
  %0 = load ptr, ptr %_M_nodes.i, align 8
  %tobool.not.i = icmp eq ptr %0, null
  br i1 %tobool.not.i, label %if.end, label %if.end.i

if.end.i:                                         ; preds = %entry
  %_M_parent.i = getelementptr inbounds %"struct.std::_Rb_tree_node_base", ptr %0, i64 0, i32 1
  %1 = load ptr, ptr %_M_parent.i, align 8
  store ptr %1, ptr %_M_nodes.i, align 8
  %tobool7.not.i = icmp eq ptr %1, null
  br i1 %tobool7.not.i, label %if.else37.i, label %if.then8.i

if.then8.i:                                       ; preds = %if.end.i
  %_M_right.i = getelementptr inbounds %"struct.std::_Rb_tree_node_base", ptr %1, i64 0, i32 3
  %2 = load ptr, ptr %_M_right.i, align 8
  %cmp.i = icmp eq ptr %2, %0
  br i1 %cmp.i, label %if.then10.i, label %if.else.i

if.then10.i:                                      ; preds = %if.then8.i
  store ptr null, ptr %_M_right.i, align 8
  %3 = load ptr, ptr %_M_nodes.i, align 8
  %_M_left.i = getelementptr inbounds %"struct.std::_Rb_tree_node_base", ptr %3, i64 0, i32 2
  %4 = load ptr, ptr %_M_left.i, align 8
  %tobool14.not.i = icmp eq ptr %4, null
  br i1 %tobool14.not.i, label %if.then, label %while.cond.i

while.cond.i:                                     ; preds = %if.then10.i, %while.cond.i
  %storemerge.i = phi ptr [ %5, %while.cond.i ], [ %4, %if.then10.i ]
  store ptr %storemerge.i, ptr %_M_nodes.i, align 8
  %_M_right20.i = getelementptr inbounds %"struct.std::_Rb_tree_node_base", ptr %storemerge.i, i64 0, i32 3
  %5 = load ptr, ptr %_M_right20.i, align 8
  %tobool21.not.i = icmp eq ptr %5, null
  br i1 %tobool21.not.i, label %while.end.i, label %while.cond.i, !llvm.loop !28

while.end.i:                                      ; preds = %while.cond.i
  %_M_left26.i = getelementptr inbounds %"struct.std::_Rb_tree_node_base", ptr %storemerge.i, i64 0, i32 2
  %6 = load ptr, ptr %_M_left26.i, align 8
  %tobool27.not.i = icmp eq ptr %6, null
  br i1 %tobool27.not.i, label %if.then, label %if.then28.i

if.then28.i:                                      ; preds = %while.end.i
  store ptr %6, ptr %_M_nodes.i, align 8
  br label %if.then

if.else.i:                                        ; preds = %if.then8.i
  %_M_left35.i = getelementptr inbounds %"struct.std::_Rb_tree_node_base", ptr %1, i64 0, i32 2
  store ptr null, ptr %_M_left35.i, align 8
  br label %if.then

if.else37.i:                                      ; preds = %if.end.i
  store ptr null, ptr %this, align 8
  br label %if.then

if.then:                                          ; preds = %if.then28.i, %while.end.i, %if.else37.i, %if.else.i, %if.then10.i
  %_M_t = getelementptr inbounds %"struct.std::_Rb_tree<std::__cxx11::basic_string<char>, std::pair<const std::__cxx11::basic_string<char>, grpc_core::experimental::Json>, std::_Select1st<std::pair<const std::__cxx11::basic_string<char>, grpc_core::experimental::Json>>, std::less<std::__cxx11::basic_string<char>>>::_Reuse_or_alloc_node", ptr %this, i64 0, i32 2
  call void @llvm.lifetime.start.p0(i64 1, ptr nonnull %ref.tmp.i.i.i)
  %_M_index.i.i.i.i = getelementptr inbounds %"struct.std::_Rb_tree_node", ptr %0, i64 0, i32 1, i32 0, i64 80
  %7 = load i8, ptr %_M_index.i.i.i.i, align 8
  %cmp.i.not.i.i.i = icmp eq i8 %7, -1
  br i1 %cmp.i.not.i.i.i, label %_ZNSt8_Rb_treeINSt7__cxx1112basic_stringIcSt11char_traitsIcESaIcEEESt4pairIKS5_N9grpc_core12experimental4JsonEESt10_Select1stISB_ESt4lessIS5_ESaISB_EE15_M_destroy_nodeEPSt13_Rb_tree_nodeISB_E.exit, label %if.end.i.i.i

if.end.i.i.i:                                     ; preds = %if.then
  %second.i.i.i = getelementptr inbounds %"struct.std::_Rb_tree_node", ptr %0, i64 0, i32 1, i32 0, i64 32
  invoke void @_ZSt10__do_visitIvZNSt8__detail9__variant16_Variant_storageILb0EJSt9monostatebN9grpc_core12experimental4Json11NumberValueENSt7__cxx1112basic_stringIcSt11char_traitsIcESaIcEEESt3mapISD_S6_St4lessISD_ESaISt4pairIKSD_S6_EEESt6vectorIS6_SaIS6_EEEE8_M_resetEvEUlOT_E_JRSt7variantIJS3_bS7_SD_SL_SO_EEEEDcOT0_DpOT1_(ptr noundef nonnull align 1 dereferenceable(1) %ref.tmp.i.i.i, ptr noundef nonnull align 8 dereferenceable(49) %second.i.i.i)
          to label %.noexc.i.i unwind label %terminate.lpad.i.i.i.i.i

.noexc.i.i:                                       ; preds = %if.end.i.i.i
  store i8 -1, ptr %_M_index.i.i.i.i, align 8
  br label %_ZNSt8_Rb_treeINSt7__cxx1112basic_stringIcSt11char_traitsIcESaIcEEESt4pairIKS5_N9grpc_core12experimental4JsonEESt10_Select1stISB_ESt4lessIS5_ESaISB_EE15_M_destroy_nodeEPSt13_Rb_tree_nodeISB_E.exit

terminate.lpad.i.i.i.i.i:                         ; preds = %if.end.i.i.i
  %8 = landingpad { ptr, i32 }
          catch ptr null
  %9 = extractvalue { ptr, i32 } %8, 0
  call void @__clang_call_terminate(ptr %9) #20
  unreachable

_ZNSt8_Rb_treeINSt7__cxx1112basic_stringIcSt11char_traitsIcESaIcEEESt4pairIKS5_N9grpc_core12experimental4JsonEESt10_Select1stISB_ESt4lessIS5_ESaISB_EE15_M_destroy_nodeEPSt13_Rb_tree_nodeISB_E.exit: ; preds = %if.then, %.noexc.i.i
  %_M_storage.i.i = getelementptr inbounds %"struct.std::_Rb_tree_node", ptr %0, i64 0, i32 1
  call void @llvm.lifetime.end.p0(i64 1, ptr nonnull %ref.tmp.i.i.i)
  call void @_ZNSt7__cxx1112basic_stringIcSt11char_traitsIcESaIcEED1Ev(ptr noundef nonnull align 8 dereferenceable(32) %_M_storage.i.i) #18
  %10 = load ptr, ptr %_M_t, align 8
  call void @_ZNSt8_Rb_treeINSt7__cxx1112basic_stringIcSt11char_traitsIcESaIcEEESt4pairIKS5_N9grpc_core12experimental4JsonEESt10_Select1stISB_ESt4lessIS5_ESaISB_EE17_M_construct_nodeIJRKSB_EEEvPSt13_Rb_tree_nodeISB_EDpOT_(ptr noundef nonnull align 8 dereferenceable(48) %10, ptr noundef nonnull %0, ptr noundef nonnull align 8 dereferenceable(88) %__arg)
  br label %return

if.end:                                           ; preds = %entry
  %_M_t3 = getelementptr inbounds %"struct.std::_Rb_tree<std::__cxx11::basic_string<char>, std::pair<const std::__cxx11::basic_string<char>, grpc_core::experimental::Json>, std::_Select1st<std::pair<const std::__cxx11::basic_string<char>, grpc_core::experimental::Json>>, std::less<std::__cxx11::basic_string<char>>>::_Reuse_or_alloc_node", ptr %this, i64 0, i32 2
  %11 = load ptr, ptr %_M_t3, align 8
  %call5.i.i.i.i = tail call noalias noundef nonnull dereferenceable(120) ptr @_Znwm(i64 noundef 120) #23
  tail call void @_ZNSt8_Rb_treeINSt7__cxx1112basic_stringIcSt11char_traitsIcESaIcEEESt4pairIKS5_N9grpc_core12experimental4JsonEESt10_Select1stISB_ESt4lessIS5_ESaISB_EE17_M_construct_nodeIJRKSB_EEEvPSt13_Rb_tree_nodeISB_EDpOT_(ptr noundef nonnull align 8 dereferenceable(48) %11, ptr noundef nonnull %call5.i.i.i.i, ptr noundef nonnull align 8 dereferenceable(88) %__arg)
  br label %return

return:                                           ; preds = %if.end, %_ZNSt8_Rb_treeINSt7__cxx1112basic_stringIcSt11char_traitsIcESaIcEEESt4pairIKS5_N9grpc_core12experimental4JsonEESt10_Select1stISB_ESt4lessIS5_ESaISB_EE15_M_destroy_nodeEPSt13_Rb_tree_nodeISB_E.exit
  %retval.0 = phi ptr [ %0, %_ZNSt8_Rb_treeINSt7__cxx1112basic_stringIcSt11char_traitsIcESaIcEEESt4pairIKS5_N9grpc_core12experimental4JsonEESt10_Select1stISB_ESt4lessIS5_ESaISB_EE15_M_destroy_nodeEPSt13_Rb_tree_nodeISB_E.exit ], [ %call5.i.i.i.i, %if.end ]
  ret ptr %retval.0
}

; Function Attrs: mustprogress uwtable
define linkonce_odr void @_ZNSt8_Rb_treeINSt7__cxx1112basic_stringIcSt11char_traitsIcESaIcEEESt4pairIKS5_N9grpc_core12experimental4JsonEESt10_Select1stISB_ESt4lessIS5_ESaISB_EE17_M_construct_nodeIJRKSB_EEEvPSt13_Rb_tree_nodeISB_EDpOT_(ptr noundef nonnull align 8 dereferenceable(48) %this, ptr noundef %__node, ptr noundef nonnull align 8 dereferenceable(88) %__args) local_unnamed_addr #3 comdat align 2 personality ptr @__gxx_personality_v0 {
entry:
  %_M_storage.i = getelementptr inbounds %"struct.std::_Rb_tree_node", ptr %__node, i64 0, i32 1
  invoke void @_ZNSt7__cxx1112basic_stringIcSt11char_traitsIcESaIcEEC1ERKS4_(ptr noundef nonnull align 8 dereferenceable(32) %_M_storage.i, ptr noundef nonnull align 8 dereferenceable(32) %__args)
          to label %.noexc unwind label %lpad

.noexc:                                           ; preds = %entry
  %second.i.i = getelementptr inbounds %"struct.std::_Rb_tree_node", ptr %__node, i64 0, i32 1, i32 0, i64 32
  %second3.i.i = getelementptr inbounds %"struct.std::pair", ptr %__args, i64 0, i32 1
  invoke void @_ZNSt8__detail9__variant17_Copy_assign_baseILb0EJSt9monostatebN9grpc_core12experimental4Json11NumberValueENSt7__cxx1112basic_stringIcSt11char_traitsIcESaIcEEESt3mapISC_S5_St4lessISC_ESaISt4pairIKSC_S5_EEESt6vectorIS5_SaIS5_EEEEC2ERKSO_(ptr noundef nonnull align 8 dereferenceable(49) %second.i.i, ptr noundef nonnull align 8 dereferenceable(49) %second3.i.i)
          to label %try.cont unwind label %lpad.i.i

lpad.i.i:                                         ; preds = %.noexc
  %0 = landingpad { ptr, i32 }
          catch ptr null
  tail call void @_ZNSt7__cxx1112basic_stringIcSt11char_traitsIcESaIcEED1Ev(ptr noundef nonnull align 8 dereferenceable(32) %_M_storage.i) #18
  br label %lpad.body

lpad:                                             ; preds = %entry
  %1 = landingpad { ptr, i32 }
          catch ptr null
  br label %lpad.body

lpad.body:                                        ; preds = %lpad.i.i, %lpad
  %eh.lpad-body = phi { ptr, i32 } [ %1, %lpad ], [ %0, %lpad.i.i ]
  %2 = extractvalue { ptr, i32 } %eh.lpad-body, 0
  %3 = tail call ptr @__cxa_begin_catch(ptr %2) #18
  tail call void @_ZdlPv(ptr noundef %__node) #21
  invoke void @__cxa_rethrow() #19
          to label %unreachable unwind label %lpad4

lpad4:                                            ; preds = %lpad.body
  %4 = landingpad { ptr, i32 }
          cleanup
  invoke void @__cxa_end_catch()
          to label %eh.resume unwind label %terminate.lpad

try.cont:                                         ; preds = %.noexc
  ret void

eh.resume:                                        ; preds = %lpad4
  resume { ptr, i32 } %4

terminate.lpad:                                   ; preds = %lpad4
  %5 = landingpad { ptr, i32 }
          catch ptr null
  %6 = extractvalue { ptr, i32 } %5, 0
  tail call void @__clang_call_terminate(ptr %6) #20
  unreachable

unreachable:                                      ; preds = %lpad.body
  unreachable
}

; Function Attrs: mustprogress nounwind uwtable
define linkonce_odr void @_ZNSt8__detail9__variant16_Variant_storageILb0EJSt9monostatebN9grpc_core12experimental4Json11NumberValueENSt7__cxx1112basic_stringIcSt11char_traitsIcESaIcEEESt3mapISC_S5_St4lessISC_ESaISt4pairIKSC_S5_EEESt6vectorIS5_SaIS5_EEEED2Ev(ptr noundef nonnull align 8 dereferenceable(49) %this) unnamed_addr #5 comdat align 2 personality ptr @__gxx_personality_v0 {
entry:
  %ref.tmp.i = alloca %class.anon.36, align 1
  call void @llvm.lifetime.start.p0(i64 1, ptr nonnull %ref.tmp.i)
  %_M_index.i.i = getelementptr inbounds %"struct.std::__detail::__variant::_Variant_storage", ptr %this, i64 0, i32 1
  %0 = load i8, ptr %_M_index.i.i, align 8
  %cmp.i.not.i = icmp eq i8 %0, -1
  br i1 %cmp.i.not.i, label %invoke.cont, label %if.end.i

if.end.i:                                         ; preds = %entry
  invoke void @_ZSt10__do_visitIvZNSt8__detail9__variant16_Variant_storageILb0EJSt9monostatebN9grpc_core12experimental4Json11NumberValueENSt7__cxx1112basic_stringIcSt11char_traitsIcESaIcEEESt3mapISD_S6_St4lessISD_ESaISt4pairIKSD_S6_EEESt6vectorIS6_SaIS6_EEEE8_M_resetEvEUlOT_E_JRSt7variantIJS3_bS7_SD_SL_SO_EEEEDcOT0_DpOT1_(ptr noundef nonnull align 1 dereferenceable(1) %ref.tmp.i, ptr noundef nonnull align 8 dereferenceable(49) %this)
          to label %.noexc unwind label %terminate.lpad

.noexc:                                           ; preds = %if.end.i
  store i8 -1, ptr %_M_index.i.i, align 8
  br label %invoke.cont

invoke.cont:                                      ; preds = %.noexc, %entry
  call void @llvm.lifetime.end.p0(i64 1, ptr nonnull %ref.tmp.i)
  ret void

terminate.lpad:                                   ; preds = %if.end.i
  %1 = landingpad { ptr, i32 }
          catch ptr null
  %2 = extractvalue { ptr, i32 } %1, 0
  call void @__clang_call_terminate(ptr %2) #20
  unreachable
}

; Function Attrs: mustprogress uwtable
define linkonce_odr void @_ZSt10__do_visitIvZNSt8__detail9__variant16_Variant_storageILb0EJSt9monostatebN9grpc_core12experimental4Json11NumberValueENSt7__cxx1112basic_stringIcSt11char_traitsIcESaIcEEESt3mapISD_S6_St4lessISD_ESaISt4pairIKSD_S6_EEESt6vectorIS6_SaIS6_EEEE8_M_resetEvEUlOT_E_JRSt7variantIJS3_bS7_SD_SL_SO_EEEEDcOT0_DpOT1_(ptr noundef nonnull align 1 dereferenceable(1) %__visitor, ptr noundef nonnull align 8 dereferenceable(49) %__variants) local_unnamed_addr #3 comdat personality ptr @__gxx_personality_v0 {
entry:
  %ref.tmp.i.i.i.i = alloca %class.anon.36, align 1
  %_M_index.i = getelementptr inbounds %"struct.std::__detail::__variant::_Variant_storage", ptr %__variants, i64 0, i32 1
  %0 = load i8, ptr %_M_index.i, align 8
  %conv.i = sext i8 %0 to i64
  switch i64 %conv.i, label %sw.default [
    i64 0, label %return
    i64 1, label %return
    i64 2, label %sw.bb3
    i64 3, label %sw.bb4
    i64 4, label %sw.bb5
    i64 5, label %sw.bb6
  ]

sw.bb3:                                           ; preds = %entry
  tail call void @_ZNSt7__cxx1112basic_stringIcSt11char_traitsIcESaIcEED1Ev(ptr noundef nonnull align 8 dereferenceable(32) %__variants) #18
  br label %return

sw.bb4:                                           ; preds = %entry
  tail call void @_ZNSt7__cxx1112basic_stringIcSt11char_traitsIcESaIcEED1Ev(ptr noundef nonnull align 8 dereferenceable(32) %__variants) #18
  br label %return

sw.bb5:                                           ; preds = %entry
  %_M_parent.i.i = getelementptr inbounds i8, ptr %__variants, i64 16
  %1 = load ptr, ptr %_M_parent.i.i, align 8
  invoke void @_ZNSt8_Rb_treeINSt7__cxx1112basic_stringIcSt11char_traitsIcESaIcEEESt4pairIKS5_N9grpc_core12experimental4JsonEESt10_Select1stISB_ESt4lessIS5_ESaISB_EE8_M_eraseEPSt13_Rb_tree_nodeISB_E(ptr noundef nonnull align 8 dereferenceable(48) %__variants, ptr noundef %1)
          to label %return unwind label %terminate.lpad.i.i.i

terminate.lpad.i.i.i:                             ; preds = %sw.bb5
  %2 = landingpad { ptr, i32 }
          catch ptr null
  %3 = extractvalue { ptr, i32 } %2, 0
  tail call void @__clang_call_terminate(ptr %3) #20
  unreachable

sw.bb6:                                           ; preds = %entry
  %4 = load ptr, ptr %__variants, align 8
  %_M_finish.i.i = getelementptr inbounds %"struct.std::_Vector_base<grpc_core::experimental::Json, std::allocator<grpc_core::experimental::Json>>::_Vector_impl_data", ptr %__variants, i64 0, i32 1
  %5 = load ptr, ptr %_M_finish.i.i, align 8
  %cmp.not.i.i13 = icmp eq ptr %4, %5
  br i1 %cmp.not.i.i13, label %_ZSt8_DestroyIPN9grpc_core12experimental4JsonES2_EvT_S4_RSaIT0_E.exit.i.i, label %for.body.i.i

for.body.i.i:                                     ; preds = %sw.bb6, %_ZNSt8__detail9__variant13_Variant_baseIJSt9monostatebN9grpc_core12experimental4Json11NumberValueENSt7__cxx1112basic_stringIcSt11char_traitsIcESaIcEEESt3mapISC_S5_St4lessISC_ESaISt4pairIKSC_S5_EEESt6vectorIS5_SaIS5_EEEED2Ev.exit.i
  %__first.addr.0.i.i14 = phi ptr [ %incdec.ptr.i.i, %_ZNSt8__detail9__variant13_Variant_baseIJSt9monostatebN9grpc_core12experimental4Json11NumberValueENSt7__cxx1112basic_stringIcSt11char_traitsIcESaIcEEESt3mapISC_S5_St4lessISC_ESaISt4pairIKSC_S5_EEESt6vectorIS5_SaIS5_EEEED2Ev.exit.i ], [ %4, %sw.bb6 ]
  call void @llvm.lifetime.start.p0(i64 1, ptr nonnull %ref.tmp.i.i.i.i)
  %_M_index.i.i.i.i.i = getelementptr inbounds %"struct.std::__detail::__variant::_Variant_storage", ptr %__first.addr.0.i.i14, i64 0, i32 1
  %6 = load i8, ptr %_M_index.i.i.i.i.i, align 8
  %cmp.i.i.i.i.i.not = icmp eq i8 %6, -1
  br i1 %cmp.i.i.i.i.i.not, label %_ZNSt8__detail9__variant13_Variant_baseIJSt9monostatebN9grpc_core12experimental4Json11NumberValueENSt7__cxx1112basic_stringIcSt11char_traitsIcESaIcEEESt3mapISC_S5_St4lessISC_ESaISt4pairIKSC_S5_EEESt6vectorIS5_SaIS5_EEEED2Ev.exit.i, label %if.end.i.i.i.i

if.end.i.i.i.i:                                   ; preds = %for.body.i.i
  invoke void @_ZSt10__do_visitIvZNSt8__detail9__variant16_Variant_storageILb0EJSt9monostatebN9grpc_core12experimental4Json11NumberValueENSt7__cxx1112basic_stringIcSt11char_traitsIcESaIcEEESt3mapISD_S6_St4lessISD_ESaISt4pairIKSD_S6_EEESt6vectorIS6_SaIS6_EEEE8_M_resetEvEUlOT_E_JRSt7variantIJS3_bS7_SD_SL_SO_EEEEDcOT0_DpOT1_(ptr noundef nonnull align 1 dereferenceable(1) %ref.tmp.i.i.i.i, ptr noundef nonnull align 8 dereferenceable(49) %__first.addr.0.i.i14)
          to label %.noexc.i.i.i unwind label %terminate.lpad.i.i.i.i

.noexc.i.i.i:                                     ; preds = %if.end.i.i.i.i
  store i8 -1, ptr %_M_index.i.i.i.i.i, align 8
  br label %_ZNSt8__detail9__variant13_Variant_baseIJSt9monostatebN9grpc_core12experimental4Json11NumberValueENSt7__cxx1112basic_stringIcSt11char_traitsIcESaIcEEESt3mapISC_S5_St4lessISC_ESaISt4pairIKSC_S5_EEESt6vectorIS5_SaIS5_EEEED2Ev.exit.i

terminate.lpad.i.i.i.i:                           ; preds = %if.end.i.i.i.i
  %7 = landingpad { ptr, i32 }
          catch ptr null
  %8 = extractvalue { ptr, i32 } %7, 0
  call void @__clang_call_terminate(ptr %8) #20
  unreachable

_ZNSt8__detail9__variant13_Variant_baseIJSt9monostatebN9grpc_core12experimental4Json11NumberValueENSt7__cxx1112basic_stringIcSt11char_traitsIcESaIcEEESt3mapISC_S5_St4lessISC_ESaISt4pairIKSC_S5_EEESt6vectorIS5_SaIS5_EEEED2Ev.exit.i: ; preds = %.noexc.i.i.i, %for.body.i.i
  call void @llvm.lifetime.end.p0(i64 1, ptr nonnull %ref.tmp.i.i.i.i)
  %incdec.ptr.i.i = getelementptr inbounds %"class.grpc_core::experimental::Json", ptr %__first.addr.0.i.i14, i64 1
  %cmp.not.i.i = icmp eq ptr %incdec.ptr.i.i, %5
  br i1 %cmp.not.i.i, label %_ZSt8_DestroyIPN9grpc_core12experimental4JsonES2_EvT_S4_RSaIT0_E.exit.i.i.loopexit, label %for.body.i.i, !llvm.loop !6

_ZSt8_DestroyIPN9grpc_core12experimental4JsonES2_EvT_S4_RSaIT0_E.exit.i.i.loopexit: ; preds = %_ZNSt8__detail9__variant13_Variant_baseIJSt9monostatebN9grpc_core12experimental4Json11NumberValueENSt7__cxx1112basic_stringIcSt11char_traitsIcESaIcEEESt3mapISC_S5_St4lessISC_ESaISt4pairIKSC_S5_EEESt6vectorIS5_SaIS5_EEEED2Ev.exit.i
  %.pre = load ptr, ptr %__variants, align 8
  br label %_ZSt8_DestroyIPN9grpc_core12experimental4JsonES2_EvT_S4_RSaIT0_E.exit.i.i

_ZSt8_DestroyIPN9grpc_core12experimental4JsonES2_EvT_S4_RSaIT0_E.exit.i.i: ; preds = %_ZSt8_DestroyIPN9grpc_core12experimental4JsonES2_EvT_S4_RSaIT0_E.exit.i.i.loopexit, %sw.bb6
  %9 = phi ptr [ %.pre, %_ZSt8_DestroyIPN9grpc_core12experimental4JsonES2_EvT_S4_RSaIT0_E.exit.i.i.loopexit ], [ %4, %sw.bb6 ]
  %tobool.not.i.i.i.i = icmp eq ptr %9, null
  br i1 %tobool.not.i.i.i.i, label %return, label %if.then.i.i.i.i

if.then.i.i.i.i:                                  ; preds = %_ZSt8_DestroyIPN9grpc_core12experimental4JsonES2_EvT_S4_RSaIT0_E.exit.i.i
  call void @_ZdlPv(ptr noundef nonnull %9) #21
  br label %return

sw.default:                                       ; preds = %entry
  unreachable

return:                                           ; preds = %if.then.i.i.i.i, %_ZSt8_DestroyIPN9grpc_core12experimental4JsonES2_EvT_S4_RSaIT0_E.exit.i.i, %sw.bb5, %entry, %entry, %sw.bb4, %sw.bb3
  ret void
}

; Function Attrs: mustprogress uwtable
define linkonce_odr void @_ZSt8_DestroyIPN9grpc_core12experimental4JsonEEvT_S4_(ptr noundef %__first, ptr noundef %__last) local_unnamed_addr #3 comdat personality ptr @__gxx_personality_v0 {
entry:
  %ref.tmp.i.i.i = alloca %class.anon.36, align 1
  %cmp.not.i1 = icmp eq ptr %__first, %__last
  br i1 %cmp.not.i1, label %_ZNSt12_Destroy_auxILb0EE9__destroyIPN9grpc_core12experimental4JsonEEEvT_S6_.exit, label %for.body.i

for.body.i:                                       ; preds = %entry, %_ZNSt8__detail9__variant13_Variant_baseIJSt9monostatebN9grpc_core12experimental4Json11NumberValueENSt7__cxx1112basic_stringIcSt11char_traitsIcESaIcEEESt3mapISC_S5_St4lessISC_ESaISt4pairIKSC_S5_EEESt6vectorIS5_SaIS5_EEEED2Ev.exit
  %__first.addr.0.i2 = phi ptr [ %incdec.ptr.i, %_ZNSt8__detail9__variant13_Variant_baseIJSt9monostatebN9grpc_core12experimental4Json11NumberValueENSt7__cxx1112basic_stringIcSt11char_traitsIcESaIcEEESt3mapISC_S5_St4lessISC_ESaISt4pairIKSC_S5_EEESt6vectorIS5_SaIS5_EEEED2Ev.exit ], [ %__first, %entry ]
  call void @llvm.lifetime.start.p0(i64 1, ptr nonnull %ref.tmp.i.i.i)
  %_M_index.i.i.i.i = getelementptr inbounds %"struct.std::__detail::__variant::_Variant_storage", ptr %__first.addr.0.i2, i64 0, i32 1
  %0 = load i8, ptr %_M_index.i.i.i.i, align 8
  %cmp.i.i.i.i.not = icmp eq i8 %0, -1
  br i1 %cmp.i.i.i.i.not, label %_ZNSt8__detail9__variant13_Variant_baseIJSt9monostatebN9grpc_core12experimental4Json11NumberValueENSt7__cxx1112basic_stringIcSt11char_traitsIcESaIcEEESt3mapISC_S5_St4lessISC_ESaISt4pairIKSC_S5_EEESt6vectorIS5_SaIS5_EEEED2Ev.exit, label %if.end.i.i.i

if.end.i.i.i:                                     ; preds = %for.body.i
  invoke void @_ZSt10__do_visitIvZNSt8__detail9__variant16_Variant_storageILb0EJSt9monostatebN9grpc_core12experimental4Json11NumberValueENSt7__cxx1112basic_stringIcSt11char_traitsIcESaIcEEESt3mapISD_S6_St4lessISD_ESaISt4pairIKSD_S6_EEESt6vectorIS6_SaIS6_EEEE8_M_resetEvEUlOT_E_JRSt7variantIJS3_bS7_SD_SL_SO_EEEEDcOT0_DpOT1_(ptr noundef nonnull align 1 dereferenceable(1) %ref.tmp.i.i.i, ptr noundef nonnull align 8 dereferenceable(49) %__first.addr.0.i2)
          to label %.noexc.i.i unwind label %terminate.lpad.i.i.i

.noexc.i.i:                                       ; preds = %if.end.i.i.i
  store i8 -1, ptr %_M_index.i.i.i.i, align 8
  br label %_ZNSt8__detail9__variant13_Variant_baseIJSt9monostatebN9grpc_core12experimental4Json11NumberValueENSt7__cxx1112basic_stringIcSt11char_traitsIcESaIcEEESt3mapISC_S5_St4lessISC_ESaISt4pairIKSC_S5_EEESt6vectorIS5_SaIS5_EEEED2Ev.exit

terminate.lpad.i.i.i:                             ; preds = %if.end.i.i.i
  %1 = landingpad { ptr, i32 }
          catch ptr null
  %2 = extractvalue { ptr, i32 } %1, 0
  call void @__clang_call_terminate(ptr %2) #20
  unreachable

_ZNSt8__detail9__variant13_Variant_baseIJSt9monostatebN9grpc_core12experimental4Json11NumberValueENSt7__cxx1112basic_stringIcSt11char_traitsIcESaIcEEESt3mapISC_S5_St4lessISC_ESaISt4pairIKSC_S5_EEESt6vectorIS5_SaIS5_EEEED2Ev.exit: ; preds = %for.body.i, %.noexc.i.i
  call void @llvm.lifetime.end.p0(i64 1, ptr nonnull %ref.tmp.i.i.i)
  %incdec.ptr.i = getelementptr inbounds %"class.grpc_core::experimental::Json", ptr %__first.addr.0.i2, i64 1
  %cmp.not.i = icmp eq ptr %incdec.ptr.i, %__last
  br i1 %cmp.not.i, label %_ZNSt12_Destroy_auxILb0EE9__destroyIPN9grpc_core12experimental4JsonEEEvT_S6_.exit, label %for.body.i, !llvm.loop !6

_ZNSt12_Destroy_auxILb0EE9__destroyIPN9grpc_core12experimental4JsonEEEvT_S6_.exit: ; preds = %_ZNSt8__detail9__variant13_Variant_baseIJSt9monostatebN9grpc_core12experimental4Json11NumberValueENSt7__cxx1112basic_stringIcSt11char_traitsIcESaIcEEESt3mapISC_S5_St4lessISC_ESaISt4pairIKSC_S5_EEESt6vectorIS5_SaIS5_EEEED2Ev.exit, %entry
  ret void
}

declare void @_ZNSt7__cxx1112basic_stringIcSt11char_traitsIcESaIcEEC1ERKS4_(ptr noundef nonnull align 8 dereferenceable(32), ptr noundef nonnull align 8 dereferenceable(32)) unnamed_addr #0

; Function Attrs: mustprogress uwtable
define linkonce_odr void @_ZNSt8__detail9__variant17_Copy_assign_baseILb0EJSt9monostatebN9grpc_core12experimental4Json11NumberValueENSt7__cxx1112basic_stringIcSt11char_traitsIcESaIcEEESt3mapISC_S5_St4lessISC_ESaISt4pairIKSC_S5_EEESt6vectorIS5_SaIS5_EEEEC2ERKSO_(ptr noundef nonnull align 8 dereferenceable(49) %this, ptr noundef nonnull align 8 dereferenceable(49) %0) unnamed_addr #3 comdat align 2 personality ptr @__gxx_personality_v0 {
entry:
  %__an.i.i = alloca %"struct.std::_Rb_tree<std::__cxx11::basic_string<char>, std::pair<const std::__cxx11::basic_string<char>, grpc_core::experimental::Json>, std::_Select1st<std::pair<const std::__cxx11::basic_string<char>, grpc_core::experimental::Json>>, std::less<std::__cxx11::basic_string<char>>>::_Alloc_node", align 8
  %_M_index.i.i = getelementptr inbounds %"struct.std::__detail::__variant::_Variant_storage", ptr %this, i64 0, i32 1
  store i8 -1, ptr %_M_index.i.i, align 8
  %_M_index.i.i2 = getelementptr inbounds %"struct.std::__detail::__variant::_Variant_storage", ptr %0, i64 0, i32 1
  %1 = load i8, ptr %_M_index.i.i2, align 8
  %conv.i.i = sext i8 %1 to i64
  switch i64 %conv.i.i, label %sw.default.i [
    i64 0, label %_ZNSt8__detail9__variant15_Copy_ctor_baseILb0EJSt9monostatebN9grpc_core12experimental4Json11NumberValueENSt7__cxx1112basic_stringIcSt11char_traitsIcESaIcEEESt3mapISC_S5_St4lessISC_ESaISt4pairIKSC_S5_EEESt6vectorIS5_SaIS5_EEEEC2ERKSO_.exit
    i64 1, label %sw.bb2.i
    i64 2, label %sw.bb4.i.invoke
    i64 3, label %sw.bb4.i.invoke
    i64 4, label %sw.bb5.i
    i64 5, label %sw.bb6.i
    i64 -1, label %_ZNSt8__detail9__variant15_Copy_ctor_baseILb0EJSt9monostatebN9grpc_core12experimental4Json11NumberValueENSt7__cxx1112basic_stringIcSt11char_traitsIcESaIcEEESt3mapISC_S5_St4lessISC_ESaISt4pairIKSC_S5_EEESt6vectorIS5_SaIS5_EEEEC2ERKSO_.exit
  ]

sw.bb2.i:                                         ; preds = %entry
  %2 = load i8, ptr %0, align 8
  %3 = and i8 %2, 1
  store i8 %3, ptr %this, align 8
  br label %_ZNSt8__detail9__variant15_Copy_ctor_baseILb0EJSt9monostatebN9grpc_core12experimental4Json11NumberValueENSt7__cxx1112basic_stringIcSt11char_traitsIcESaIcEEESt3mapISC_S5_St4lessISC_ESaISt4pairIKSC_S5_EEESt6vectorIS5_SaIS5_EEEEC2ERKSO_.exit

sw.bb4.i.invoke:                                  ; preds = %entry, %entry
  invoke void @_ZNSt7__cxx1112basic_stringIcSt11char_traitsIcESaIcEEC1ERKS4_(ptr noundef nonnull align 8 dereferenceable(32) %this, ptr noundef nonnull align 8 dereferenceable(32) %0)
          to label %_ZNSt8__detail9__variant15_Copy_ctor_baseILb0EJSt9monostatebN9grpc_core12experimental4Json11NumberValueENSt7__cxx1112basic_stringIcSt11char_traitsIcESaIcEEESt3mapISC_S5_St4lessISC_ESaISt4pairIKSC_S5_EEESt6vectorIS5_SaIS5_EEEEC2ERKSO_.exit unwind label %lpad.i

sw.bb5.i:                                         ; preds = %entry
  %4 = getelementptr inbounds i8, ptr %this, i64 8
  store i32 0, ptr %4, align 8
  %_M_parent.i.i.i.i = getelementptr inbounds i8, ptr %this, i64 16
  store ptr null, ptr %_M_parent.i.i.i.i, align 8
  %_M_left.i.i.i.i = getelementptr inbounds i8, ptr %this, i64 24
  store ptr %4, ptr %_M_left.i.i.i.i, align 8
  %_M_right.i.i.i.i = getelementptr inbounds i8, ptr %this, i64 32
  store ptr %4, ptr %_M_right.i.i.i.i, align 8
  %_M_node_count.i.i.i.i = getelementptr inbounds i8, ptr %this, i64 40
  store i64 0, ptr %_M_node_count.i.i.i.i, align 8
  %_M_parent.i2.i = getelementptr inbounds i8, ptr %0, i64 16
  %5 = load ptr, ptr %_M_parent.i2.i, align 8
  %cmp.not.i.i = icmp eq ptr %5, null
  br i1 %cmp.not.i.i, label %_ZNSt8__detail9__variant15_Copy_ctor_baseILb0EJSt9monostatebN9grpc_core12experimental4Json11NumberValueENSt7__cxx1112basic_stringIcSt11char_traitsIcESaIcEEESt3mapISC_S5_St4lessISC_ESaISt4pairIKSC_S5_EEESt6vectorIS5_SaIS5_EEEEC2ERKSO_.exit, label %if.then.i.i

if.then.i.i:                                      ; preds = %sw.bb5.i
  call void @llvm.lifetime.start.p0(i64 8, ptr nonnull %__an.i.i)
  store ptr %this, ptr %__an.i.i, align 8
  %call3.i.i1.i = invoke noundef ptr @_ZNSt8_Rb_treeINSt7__cxx1112basic_stringIcSt11char_traitsIcESaIcEEESt4pairIKS5_N9grpc_core12experimental4JsonEESt10_Select1stISB_ESt4lessIS5_ESaISB_EE7_M_copyILb0ENSH_11_Alloc_nodeEEEPSt13_Rb_tree_nodeISB_ESM_PSt18_Rb_tree_node_baseRT0_(ptr noundef nonnull align 8 dereferenceable(48) %this, ptr noundef nonnull %5, ptr noundef nonnull %4, ptr noundef nonnull align 8 dereferenceable(8) %__an.i.i)
          to label %while.cond.i.i3.i unwind label %lpad.i.i

while.cond.i.i3.i:                                ; preds = %if.then.i.i, %while.cond.i.i3.i
  %__x.addr.0.i.i4.i = phi ptr [ %6, %while.cond.i.i3.i ], [ %call3.i.i1.i, %if.then.i.i ]
  %_M_left.i.i.i = getelementptr inbounds %"struct.std::_Rb_tree_node_base", ptr %__x.addr.0.i.i4.i, i64 0, i32 2
  %6 = load ptr, ptr %_M_left.i.i.i, align 8
  %cmp.not.i.i5.i = icmp eq ptr %6, null
  br i1 %cmp.not.i.i5.i, label %_ZNSt8_Rb_treeINSt7__cxx1112basic_stringIcSt11char_traitsIcESaIcEEESt4pairIKS5_N9grpc_core12experimental4JsonEESt10_Select1stISB_ESt4lessIS5_ESaISB_EE10_S_minimumEPSt18_Rb_tree_node_base.exit.i, label %while.cond.i.i3.i, !llvm.loop !24

_ZNSt8_Rb_treeINSt7__cxx1112basic_stringIcSt11char_traitsIcESaIcEEESt4pairIKS5_N9grpc_core12experimental4JsonEESt10_Select1stISB_ESt4lessIS5_ESaISB_EE10_S_minimumEPSt18_Rb_tree_node_base.exit.i: ; preds = %while.cond.i.i3.i
  store ptr %__x.addr.0.i.i4.i, ptr %_M_left.i.i.i.i, align 8
  br label %while.cond.i.i.i

while.cond.i.i.i:                                 ; preds = %while.cond.i.i.i, %_ZNSt8_Rb_treeINSt7__cxx1112basic_stringIcSt11char_traitsIcESaIcEEESt4pairIKS5_N9grpc_core12experimental4JsonEESt10_Select1stISB_ESt4lessIS5_ESaISB_EE10_S_minimumEPSt18_Rb_tree_node_base.exit.i
  %__x.addr.0.i.i.i = phi ptr [ %call3.i.i1.i, %_ZNSt8_Rb_treeINSt7__cxx1112basic_stringIcSt11char_traitsIcESaIcEEESt4pairIKS5_N9grpc_core12experimental4JsonEESt10_Select1stISB_ESt4lessIS5_ESaISB_EE10_S_minimumEPSt18_Rb_tree_node_base.exit.i ], [ %7, %while.cond.i.i.i ]
  %_M_right.i.i.i = getelementptr inbounds %"struct.std::_Rb_tree_node_base", ptr %__x.addr.0.i.i.i, i64 0, i32 3
  %7 = load ptr, ptr %_M_right.i.i.i, align 8
  %cmp.not.i.i.i = icmp eq ptr %7, null
  br i1 %cmp.not.i.i.i, label %_ZNSt8_Rb_treeINSt7__cxx1112basic_stringIcSt11char_traitsIcESaIcEEESt4pairIKS5_N9grpc_core12experimental4JsonEESt10_Select1stISB_ESt4lessIS5_ESaISB_EE10_S_maximumEPSt18_Rb_tree_node_base.exit.i, label %while.cond.i.i.i, !llvm.loop !25

_ZNSt8_Rb_treeINSt7__cxx1112basic_stringIcSt11char_traitsIcESaIcEEESt4pairIKS5_N9grpc_core12experimental4JsonEESt10_Select1stISB_ESt4lessIS5_ESaISB_EE10_S_maximumEPSt18_Rb_tree_node_base.exit.i: ; preds = %while.cond.i.i.i
  store ptr %__x.addr.0.i.i.i, ptr %_M_right.i.i.i.i, align 8
  %_M_node_count.i.i.i = getelementptr inbounds i8, ptr %0, i64 40
  %8 = load i64, ptr %_M_node_count.i.i.i, align 8
  store i64 %8, ptr %_M_node_count.i.i.i.i, align 8
  call void @llvm.lifetime.end.p0(i64 8, ptr nonnull %__an.i.i)
  store ptr %call3.i.i1.i, ptr %_M_parent.i.i.i.i, align 8
  br label %_ZNSt8__detail9__variant15_Copy_ctor_baseILb0EJSt9monostatebN9grpc_core12experimental4Json11NumberValueENSt7__cxx1112basic_stringIcSt11char_traitsIcESaIcEEESt3mapISC_S5_St4lessISC_ESaISt4pairIKSC_S5_EEESt6vectorIS5_SaIS5_EEEEC2ERKSO_.exit

lpad.i.i:                                         ; preds = %if.then.i.i
  %9 = landingpad { ptr, i32 }
          cleanup
  br label %lpad.i.body

sw.bb6.i:                                         ; preds = %entry
  invoke void @_ZNSt6vectorIN9grpc_core12experimental4JsonESaIS2_EEC2ERKS4_(ptr noundef nonnull align 8 dereferenceable(24) %this, ptr noundef nonnull align 8 dereferenceable(24) %0)
          to label %_ZNSt8__detail9__variant15_Copy_ctor_baseILb0EJSt9monostatebN9grpc_core12experimental4Json11NumberValueENSt7__cxx1112basic_stringIcSt11char_traitsIcESaIcEEESt3mapISC_S5_St4lessISC_ESaISt4pairIKSC_S5_EEESt6vectorIS5_SaIS5_EEEEC2ERKSO_.exit unwind label %lpad.i

sw.default.i:                                     ; preds = %entry
  unreachable

lpad.i:                                           ; preds = %sw.bb4.i.invoke, %sw.bb6.i
  %10 = landingpad { ptr, i32 }
          cleanup
  br label %lpad.i.body

lpad.i.body:                                      ; preds = %lpad.i.i, %lpad.i
  %eh.lpad-body = phi { ptr, i32 } [ %10, %lpad.i ], [ %9, %lpad.i.i ]
  call void @_ZNSt8__detail9__variant16_Variant_storageILb0EJSt9monostatebN9grpc_core12experimental4Json11NumberValueENSt7__cxx1112basic_stringIcSt11char_traitsIcESaIcEEESt3mapISC_S5_St4lessISC_ESaISt4pairIKSC_S5_EEESt6vectorIS5_SaIS5_EEEED2Ev(ptr noundef nonnull align 8 dereferenceable(49) %this) #18
  resume { ptr, i32 } %eh.lpad-body

_ZNSt8__detail9__variant15_Copy_ctor_baseILb0EJSt9monostatebN9grpc_core12experimental4Json11NumberValueENSt7__cxx1112basic_stringIcSt11char_traitsIcESaIcEEESt3mapISC_S5_St4lessISC_ESaISt4pairIKSC_S5_EEESt6vectorIS5_SaIS5_EEEEC2ERKSO_.exit: ; preds = %sw.bb4.i.invoke, %sw.bb2.i, %entry, %sw.bb5.i, %_ZNSt8_Rb_treeINSt7__cxx1112basic_stringIcSt11char_traitsIcESaIcEEESt4pairIKS5_N9grpc_core12experimental4JsonEESt10_Select1stISB_ESt4lessIS5_ESaISB_EE10_S_maximumEPSt18_Rb_tree_node_base.exit.i, %sw.bb6.i, %entry
  %11 = load i8, ptr %_M_index.i.i2, align 8
  store i8 %11, ptr %_M_index.i.i, align 8
  ret void
}

; Function Attrs: mustprogress uwtable
define linkonce_odr noundef ptr @_ZNSt8_Rb_treeINSt7__cxx1112basic_stringIcSt11char_traitsIcESaIcEEESt4pairIKS5_N9grpc_core12experimental4JsonEESt10_Select1stISB_ESt4lessIS5_ESaISB_EE7_M_copyILb0ENSH_11_Alloc_nodeEEEPSt13_Rb_tree_nodeISB_ESM_PSt18_Rb_tree_node_baseRT0_(ptr noundef nonnull align 8 dereferenceable(48) %this, ptr noundef %__x, ptr noundef %__p, ptr noundef nonnull align 8 dereferenceable(8) %__node_gen) local_unnamed_addr #3 comdat align 2 personality ptr @__gxx_personality_v0 {
entry:
  %_M_storage.i = getelementptr inbounds %"struct.std::_Rb_tree_node", ptr %__x, i64 0, i32 1
  %0 = load ptr, ptr %__node_gen, align 8
  %call5.i.i.i = tail call noalias noundef nonnull dereferenceable(120) ptr @_Znwm(i64 noundef 120) #23
  tail call void @_ZNSt8_Rb_treeINSt7__cxx1112basic_stringIcSt11char_traitsIcESaIcEEESt4pairIKS5_N9grpc_core12experimental4JsonEESt10_Select1stISB_ESt4lessIS5_ESaISB_EE17_M_construct_nodeIJRKSB_EEEvPSt13_Rb_tree_nodeISB_EDpOT_(ptr noundef nonnull align 8 dereferenceable(48) %0, ptr noundef nonnull %call5.i.i.i, ptr noundef nonnull align 8 dereferenceable(88) %_M_storage.i)
  %1 = load i32, ptr %__x, align 8
  store i32 %1, ptr %call5.i.i.i, align 8
  %_M_left.i = getelementptr inbounds %"struct.std::_Rb_tree_node_base", ptr %call5.i.i.i, i64 0, i32 2
  %_M_right.i = getelementptr inbounds %"struct.std::_Rb_tree_node_base", ptr %call5.i.i.i, i64 0, i32 3
  %_M_parent = getelementptr inbounds %"struct.std::_Rb_tree_node_base", ptr %call5.i.i.i, i64 0, i32 1
  tail call void @llvm.memset.p0.i64(ptr noundef nonnull align 8 dereferenceable(16) %_M_left.i, i8 0, i64 16, i1 false)
  store ptr %__p, ptr %_M_parent, align 8
  %_M_right = getelementptr inbounds %"struct.std::_Rb_tree_node_base", ptr %__x, i64 0, i32 3
  %2 = load ptr, ptr %_M_right, align 8
  %tobool.not = icmp eq ptr %2, null
  br i1 %tobool.not, label %if.end, label %if.then

if.then:                                          ; preds = %entry
  %call3 = invoke noundef ptr @_ZNSt8_Rb_treeINSt7__cxx1112basic_stringIcSt11char_traitsIcESaIcEEESt4pairIKS5_N9grpc_core12experimental4JsonEESt10_Select1stISB_ESt4lessIS5_ESaISB_EE7_M_copyILb0ENSH_11_Alloc_nodeEEEPSt13_Rb_tree_nodeISB_ESM_PSt18_Rb_tree_node_baseRT0_(ptr noundef nonnull align 8 dereferenceable(48) %this, ptr noundef nonnull %2, ptr noundef nonnull %call5.i.i.i, ptr noundef nonnull align 8 dereferenceable(8) %__node_gen)
          to label %invoke.cont unwind label %lpad.loopexit.split-lp

invoke.cont:                                      ; preds = %if.then
  store ptr %call3, ptr %_M_right.i, align 8
  br label %if.end

lpad.loopexit:                                    ; preds = %if.then11, %call.i.i32.noexc, %while.body
  %lpad.loopexit37 = landingpad { ptr, i32 }
          catch ptr null
  br label %lpad

lpad.loopexit.split-lp:                           ; preds = %if.then
  %lpad.loopexit.split-lp38 = landingpad { ptr, i32 }
          catch ptr null
  br label %lpad

lpad:                                             ; preds = %lpad.loopexit.split-lp, %lpad.loopexit
  %lpad.phi = phi { ptr, i32 } [ %lpad.loopexit37, %lpad.loopexit ], [ %lpad.loopexit.split-lp38, %lpad.loopexit.split-lp ]
  %3 = extractvalue { ptr, i32 } %lpad.phi, 0
  %4 = tail call ptr @__cxa_begin_catch(ptr %3) #18
  invoke void @_ZNSt8_Rb_treeINSt7__cxx1112basic_stringIcSt11char_traitsIcESaIcEEESt4pairIKS5_N9grpc_core12experimental4JsonEESt10_Select1stISB_ESt4lessIS5_ESaISB_EE8_M_eraseEPSt13_Rb_tree_nodeISB_E(ptr noundef nonnull align 8 dereferenceable(48) %this, ptr noundef nonnull %call5.i.i.i)
          to label %invoke.cont19 unwind label %lpad18

invoke.cont19:                                    ; preds = %lpad
  invoke void @__cxa_rethrow() #19
          to label %unreachable unwind label %lpad18

if.end:                                           ; preds = %invoke.cont, %entry
  %__x.addr.0.in39 = getelementptr inbounds %"struct.std::_Rb_tree_node_base", ptr %__x, i64 0, i32 2
  %__x.addr.040 = load ptr, ptr %__x.addr.0.in39, align 8
  %cmp.not41 = icmp eq ptr %__x.addr.040, null
  br i1 %cmp.not41, label %try.cont, label %while.body

while.body:                                       ; preds = %if.end, %if.end16
  %__x.addr.043 = phi ptr [ %__x.addr.0, %if.end16 ], [ %__x.addr.040, %if.end ]
  %__p.addr.042 = phi ptr [ %call5.i.i.i3536, %if.end16 ], [ %call5.i.i.i, %if.end ]
  %5 = load ptr, ptr %__node_gen, align 8
  %call5.i.i.i3536 = invoke noalias noundef nonnull dereferenceable(120) ptr @_Znwm(i64 noundef 120) #23
          to label %call.i.i32.noexc unwind label %lpad.loopexit

call.i.i32.noexc:                                 ; preds = %while.body
  %_M_storage.i34 = getelementptr inbounds %"struct.std::_Rb_tree_node", ptr %__x.addr.043, i64 0, i32 1
  invoke void @_ZNSt8_Rb_treeINSt7__cxx1112basic_stringIcSt11char_traitsIcESaIcEEESt4pairIKS5_N9grpc_core12experimental4JsonEESt10_Select1stISB_ESt4lessIS5_ESaISB_EE17_M_construct_nodeIJRKSB_EEEvPSt13_Rb_tree_nodeISB_EDpOT_(ptr noundef nonnull align 8 dereferenceable(48) %5, ptr noundef nonnull %call5.i.i.i3536, ptr noundef nonnull align 8 dereferenceable(88) %_M_storage.i34)
          to label %invoke.cont6 unwind label %lpad.loopexit

invoke.cont6:                                     ; preds = %call.i.i32.noexc
  %6 = load i32, ptr %__x.addr.043, align 8
  store i32 %6, ptr %call5.i.i.i3536, align 8
  %_M_left.i27 = getelementptr inbounds %"struct.std::_Rb_tree_node_base", ptr %call5.i.i.i3536, i64 0, i32 2
  %_M_right.i28 = getelementptr inbounds %"struct.std::_Rb_tree_node_base", ptr %call5.i.i.i3536, i64 0, i32 3
  %_M_left = getelementptr inbounds %"struct.std::_Rb_tree_node_base", ptr %__p.addr.042, i64 0, i32 2
  tail call void @llvm.memset.p0.i64(ptr noundef nonnull align 8 dereferenceable(16) %_M_left.i27, i8 0, i64 16, i1 false)
  store ptr %call5.i.i.i3536, ptr %_M_left, align 8
  %_M_parent8 = getelementptr inbounds %"struct.std::_Rb_tree_node_base", ptr %call5.i.i.i3536, i64 0, i32 1
  store ptr %__p.addr.042, ptr %_M_parent8, align 8
  %_M_right9 = getelementptr inbounds %"struct.std::_Rb_tree_node_base", ptr %__x.addr.043, i64 0, i32 3
  %7 = load ptr, ptr %_M_right9, align 8
  %tobool10.not = icmp eq ptr %7, null
  br i1 %tobool10.not, label %if.end16, label %if.then11

if.then11:                                        ; preds = %invoke.cont6
  %call14 = invoke noundef ptr @_ZNSt8_Rb_treeINSt7__cxx1112basic_stringIcSt11char_traitsIcESaIcEEESt4pairIKS5_N9grpc_core12experimental4JsonEESt10_Select1stISB_ESt4lessIS5_ESaISB_EE7_M_copyILb0ENSH_11_Alloc_nodeEEEPSt13_Rb_tree_nodeISB_ESM_PSt18_Rb_tree_node_baseRT0_(ptr noundef nonnull align 8 dereferenceable(48) %this, ptr noundef nonnull %7, ptr noundef nonnull %call5.i.i.i3536, ptr noundef nonnull align 8 dereferenceable(8) %__node_gen)
          to label %invoke.cont13 unwind label %lpad.loopexit

invoke.cont13:                                    ; preds = %if.then11
  store ptr %call14, ptr %_M_right.i28, align 8
  br label %if.end16

if.end16:                                         ; preds = %invoke.cont13, %invoke.cont6
  %__x.addr.0.in = getelementptr inbounds %"struct.std::_Rb_tree_node_base", ptr %__x.addr.043, i64 0, i32 2
  %__x.addr.0 = load ptr, ptr %__x.addr.0.in, align 8
  %cmp.not = icmp eq ptr %__x.addr.0, null
  br i1 %cmp.not, label %try.cont, label %while.body, !llvm.loop !29

lpad18:                                           ; preds = %invoke.cont19, %lpad
  %8 = landingpad { ptr, i32 }
          cleanup
  invoke void @__cxa_end_catch()
          to label %eh.resume unwind label %terminate.lpad

try.cont:                                         ; preds = %if.end16, %if.end
  ret ptr %call5.i.i.i

eh.resume:                                        ; preds = %lpad18
  resume { ptr, i32 } %8

terminate.lpad:                                   ; preds = %lpad18
  %9 = landingpad { ptr, i32 }
          catch ptr null
  %10 = extractvalue { ptr, i32 } %9, 0
  tail call void @__clang_call_terminate(ptr %10) #20
  unreachable

unreachable:                                      ; preds = %invoke.cont19
  unreachable
}

; Function Attrs: mustprogress uwtable
define linkonce_odr void @_ZNSt6vectorIN9grpc_core12experimental4JsonESaIS2_EEC2ERKS4_(ptr noundef nonnull align 8 dereferenceable(24) %this, ptr noundef nonnull align 8 dereferenceable(24) %__x) unnamed_addr #3 comdat align 2 personality ptr @__gxx_personality_v0 {
entry:
  %_M_finish.i = getelementptr inbounds %"struct.std::_Vector_base<grpc_core::experimental::Json, std::allocator<grpc_core::experimental::Json>>::_Vector_impl_data", ptr %__x, i64 0, i32 1
  %0 = load ptr, ptr %_M_finish.i, align 8
  %1 = load ptr, ptr %__x, align 8
  %sub.ptr.lhs.cast.i = ptrtoint ptr %0 to i64
  %sub.ptr.rhs.cast.i = ptrtoint ptr %1 to i64
  %sub.ptr.sub.i = sub i64 %sub.ptr.lhs.cast.i, %sub.ptr.rhs.cast.i
  %sub.ptr.div.i = sdiv exact i64 %sub.ptr.sub.i, 56
  tail call void @llvm.memset.p0.i64(ptr noundef nonnull align 8 dereferenceable(24) %this, i8 0, i64 24, i1 false)
  %cmp.not.i.i.i = icmp eq ptr %0, %1
  br i1 %cmp.not.i.i.i, label %invoke.cont, label %cond.true.i.i.i

cond.true.i.i.i:                                  ; preds = %entry
  %cmp.i.i.i.i.i = icmp ugt i64 %sub.ptr.div.i, 164703072086692425
  br i1 %cmp.i.i.i.i.i, label %if.then3.i.i.i.i.i, label %_ZNSt16allocator_traitsISaIN9grpc_core12experimental4JsonEEE8allocateERS3_m.exit.i.i.i

if.then3.i.i.i.i.i:                               ; preds = %cond.true.i.i.i
  tail call void @_ZSt28__throw_bad_array_new_lengthv() #19
  unreachable

_ZNSt16allocator_traitsISaIN9grpc_core12experimental4JsonEEE8allocateERS3_m.exit.i.i.i: ; preds = %cond.true.i.i.i
  %call5.i.i.i.i2.i6 = tail call noalias noundef nonnull ptr @_Znwm(i64 noundef %sub.ptr.sub.i) #23
  br label %invoke.cont

invoke.cont:                                      ; preds = %_ZNSt16allocator_traitsISaIN9grpc_core12experimental4JsonEEE8allocateERS3_m.exit.i.i.i, %entry
  %cond.i.i.i = phi ptr [ null, %entry ], [ %call5.i.i.i.i2.i6, %_ZNSt16allocator_traitsISaIN9grpc_core12experimental4JsonEEE8allocateERS3_m.exit.i.i.i ]
  store ptr %cond.i.i.i, ptr %this, align 8
  %_M_finish.i.i = getelementptr inbounds %"struct.std::_Vector_base<grpc_core::experimental::Json, std::allocator<grpc_core::experimental::Json>>::_Vector_impl_data", ptr %this, i64 0, i32 1
  store ptr %cond.i.i.i, ptr %_M_finish.i.i, align 8
  %add.ptr.i.i = getelementptr inbounds %"class.grpc_core::experimental::Json", ptr %cond.i.i.i, i64 %sub.ptr.div.i
  %_M_end_of_storage.i.i = getelementptr inbounds %"struct.std::_Vector_base<grpc_core::experimental::Json, std::allocator<grpc_core::experimental::Json>>::_Vector_impl_data", ptr %this, i64 0, i32 2
  store ptr %add.ptr.i.i, ptr %_M_end_of_storage.i.i, align 8
  %2 = load ptr, ptr %__x, align 8
  %3 = load ptr, ptr %_M_finish.i, align 8
  %cmp.i.i.not13 = icmp eq ptr %2, %3
  br i1 %cmp.i.i.not13, label %invoke.cont11, label %for.body.i

for.body.i:                                       ; preds = %invoke.cont, %_ZN9grpc_core12experimental4JsonC2ERKS1_.exit.i
  %__cur.0.i15 = phi ptr [ %incdec.ptr.i, %_ZN9grpc_core12experimental4JsonC2ERKS1_.exit.i ], [ %cond.i.i.i, %invoke.cont ]
  %__first.i.sroa.0.014 = phi ptr [ %incdec.ptr.i.i, %_ZN9grpc_core12experimental4JsonC2ERKS1_.exit.i ], [ %2, %invoke.cont ]
  invoke void @_ZNSt8__detail9__variant17_Copy_assign_baseILb0EJSt9monostatebN9grpc_core12experimental4Json11NumberValueENSt7__cxx1112basic_stringIcSt11char_traitsIcESaIcEEESt3mapISC_S5_St4lessISC_ESaISt4pairIKSC_S5_EEESt6vectorIS5_SaIS5_EEEEC2ERKSO_(ptr noundef nonnull align 8 dereferenceable(49) %__cur.0.i15, ptr noundef nonnull align 8 dereferenceable(49) %__first.i.sroa.0.014)
          to label %_ZN9grpc_core12experimental4JsonC2ERKS1_.exit.i unwind label %lpad.i

_ZN9grpc_core12experimental4JsonC2ERKS1_.exit.i:  ; preds = %for.body.i
  %incdec.ptr.i.i = getelementptr inbounds %"class.grpc_core::experimental::Json", ptr %__first.i.sroa.0.014, i64 1
  %incdec.ptr.i = getelementptr inbounds %"class.grpc_core::experimental::Json", ptr %__cur.0.i15, i64 1
  %cmp.i.i.not = icmp eq ptr %incdec.ptr.i.i, %3
  br i1 %cmp.i.i.not, label %invoke.cont11, label %for.body.i, !llvm.loop !30

lpad.i:                                           ; preds = %for.body.i
  %4 = landingpad { ptr, i32 }
          catch ptr null
  %5 = extractvalue { ptr, i32 } %4, 0
  %6 = tail call ptr @__cxa_begin_catch(ptr %5) #18
  invoke void @_ZSt8_DestroyIPN9grpc_core12experimental4JsonEEvT_S4_(ptr noundef %cond.i.i.i, ptr noundef %__cur.0.i15)
          to label %invoke.cont5.i unwind label %lpad4.i

invoke.cont5.i:                                   ; preds = %lpad.i
  invoke void @__cxa_rethrow() #19
          to label %unreachable.i unwind label %lpad4.i

lpad4.i:                                          ; preds = %invoke.cont5.i, %lpad.i
  %7 = landingpad { ptr, i32 }
          cleanup
  invoke void @__cxa_end_catch()
          to label %lpad10.body unwind label %terminate.lpad.i

terminate.lpad.i:                                 ; preds = %lpad4.i
  %8 = landingpad { ptr, i32 }
          catch ptr null
  %9 = extractvalue { ptr, i32 } %8, 0
  tail call void @__clang_call_terminate(ptr %9) #20
  unreachable

unreachable.i:                                    ; preds = %invoke.cont5.i
  unreachable

invoke.cont11:                                    ; preds = %_ZN9grpc_core12experimental4JsonC2ERKS1_.exit.i, %invoke.cont
  %__cur.0.i.lcssa = phi ptr [ %cond.i.i.i, %invoke.cont ], [ %incdec.ptr.i, %_ZN9grpc_core12experimental4JsonC2ERKS1_.exit.i ]
  store ptr %__cur.0.i.lcssa, ptr %_M_finish.i.i, align 8
  ret void

lpad10.body:                                      ; preds = %lpad4.i
  %10 = load ptr, ptr %this, align 8
  %tobool.not.i.i = icmp eq ptr %10, null
  br i1 %tobool.not.i.i, label %eh.resume, label %if.then.i.i

if.then.i.i:                                      ; preds = %lpad10.body
  tail call void @_ZdlPv(ptr noundef nonnull %10) #21
  br label %eh.resume

eh.resume:                                        ; preds = %if.then.i.i, %lpad10.body
  resume { ptr, i32 } %7
}

; Function Attrs: noreturn
declare void @_ZSt28__throw_bad_array_new_lengthv() local_unnamed_addr #10

; Function Attrs: noreturn
declare void @_ZSt17__throw_bad_allocv() local_unnamed_addr #10

; Function Attrs: nobuiltin allocsize(0)
declare noundef nonnull ptr @_Znwm(i64 noundef) local_unnamed_addr #11

declare noundef ptr @_ZN4absl12lts_2023080216numbers_internal15FastIntToBufferEmPc(i64 noundef, ptr noundef) local_unnamed_addr #0

declare void @_ZN9grpc_core16ValidationErrors9PushFieldESt17basic_string_viewIcSt11char_traitsIcEE(ptr noundef nonnull align 8 dereferenceable(72), i64, ptr) local_unnamed_addr #0

declare void @_ZN9grpc_core16ValidationErrors8PopFieldEv(ptr noundef nonnull align 8 dereferenceable(72)) local_unnamed_addr #0

; Function Attrs: nounwind
declare { i64, ptr } @_ZNSt7__cxx1112basic_stringIcSt11char_traitsIcESaIcEE17_S_to_string_viewESt17basic_string_viewIcS2_E(i64, ptr) local_unnamed_addr #1

; Function Attrs: nounwind
declare void @_ZNSt7__cxx1112basic_stringIcSt11char_traitsIcESaIcEE12__sv_wrapperC1ESt17basic_string_viewIcS2_E(ptr noundef nonnull align 8 dereferenceable(16), i64, ptr) unnamed_addr #1

declare void @_ZNSt7__cxx1112basic_stringIcSt11char_traitsIcESaIcEEC2ENS4_12__sv_wrapperERKS3_(ptr noundef nonnull align 8 dereferenceable(32), i64, ptr, ptr noundef nonnull align 1 dereferenceable(1)) unnamed_addr #0

declare noundef ptr @_ZNSt7__cxx1112basic_stringIcSt11char_traitsIcESaIcEE13_M_local_dataEv(ptr noundef nonnull align 8 dereferenceable(32)) local_unnamed_addr #0

declare void @_ZNSt7__cxx1112basic_stringIcSt11char_traitsIcESaIcEE12_Alloc_hiderC1EPcRKS3_(ptr noundef nonnull align 8 dereferenceable(8), ptr noundef, ptr noundef nonnull align 1 dereferenceable(1)) unnamed_addr #0

; Function Attrs: noreturn
declare void @_ZSt19__throw_logic_errorPKc(ptr noundef) local_unnamed_addr #10

; Function Attrs: mustprogress uwtable
define linkonce_odr void @_ZNSt7__cxx1112basic_stringIcSt11char_traitsIcESaIcEE12_M_constructIPKcEEvT_S8_St20forward_iterator_tag(ptr noundef nonnull align 8 dereferenceable(32) %this, ptr noundef %__beg, ptr noundef %__end) local_unnamed_addr #3 comdat align 2 personality ptr @__gxx_personality_v0 {
entry:
  %__dnew = alloca i64, align 8
  %__guard = alloca %struct._Guard, align 8
  %sub.ptr.lhs.cast.i.i = ptrtoint ptr %__end to i64
  %sub.ptr.rhs.cast.i.i = ptrtoint ptr %__beg to i64
  %sub.ptr.sub.i.i = sub i64 %sub.ptr.lhs.cast.i.i, %sub.ptr.rhs.cast.i.i
  store i64 %sub.ptr.sub.i.i, ptr %__dnew, align 8
  %cmp = icmp ugt i64 %sub.ptr.sub.i.i, 15
  br i1 %cmp, label %if.then, label %if.else

if.then:                                          ; preds = %entry
  %call2 = call noundef ptr @_ZNSt7__cxx1112basic_stringIcSt11char_traitsIcESaIcEE9_M_createERmm(ptr noundef nonnull align 8 dereferenceable(32) %this, ptr noundef nonnull align 8 dereferenceable(8) %__dnew, i64 noundef 0)
  call void @_ZNSt7__cxx1112basic_stringIcSt11char_traitsIcESaIcEE7_M_dataEPc(ptr noundef nonnull align 8 dereferenceable(32) %this, ptr noundef %call2)
  %0 = load i64, ptr %__dnew, align 8
  call void @_ZNSt7__cxx1112basic_stringIcSt11char_traitsIcESaIcEE11_M_capacityEm(ptr noundef nonnull align 8 dereferenceable(32) %this, i64 noundef %0)
  br label %if.end

if.else:                                          ; preds = %entry
  %call.i = invoke noundef ptr @_ZNSt7__cxx1112basic_stringIcSt11char_traitsIcESaIcEE13_M_local_dataEv(ptr noundef nonnull align 8 dereferenceable(32) %this)
          to label %if.end unwind label %terminate.lpad.i

terminate.lpad.i:                                 ; preds = %if.else
  %1 = landingpad { ptr, i32 }
          catch ptr null
  %2 = extractvalue { ptr, i32 } %1, 0
  tail call void @__clang_call_terminate(ptr %2) #20
  unreachable

if.end:                                           ; preds = %if.else, %if.then
  store ptr %this, ptr %__guard, align 8
  %call4 = invoke noundef ptr @_ZNKSt7__cxx1112basic_stringIcSt11char_traitsIcESaIcEE7_M_dataEv(ptr noundef nonnull align 8 dereferenceable(32) %this)
          to label %invoke.cont unwind label %lpad

invoke.cont:                                      ; preds = %if.end
  call void @_ZNSt7__cxx1112basic_stringIcSt11char_traitsIcESaIcEE13_S_copy_charsEPcPKcS7_(ptr noundef %call4, ptr noundef %__beg, ptr noundef %__end) #18
  store ptr null, ptr %__guard, align 8
  %3 = load i64, ptr %__dnew, align 8
  invoke void @_ZNSt7__cxx1112basic_stringIcSt11char_traitsIcESaIcEE13_M_set_lengthEm(ptr noundef nonnull align 8 dereferenceable(32) %this, i64 noundef %3)
          to label %_ZZNSt7__cxx1112basic_stringIcSt11char_traitsIcESaIcEE12_M_constructIPKcEEvT_S8_St20forward_iterator_tagEN6_GuardD2Ev.exit unwind label %lpad

_ZZNSt7__cxx1112basic_stringIcSt11char_traitsIcESaIcEE12_M_constructIPKcEEvT_S8_St20forward_iterator_tagEN6_GuardD2Ev.exit: ; preds = %invoke.cont
  ret void

lpad:                                             ; preds = %invoke.cont, %if.end
  %4 = landingpad { ptr, i32 }
          cleanup
  call void @_ZZNSt7__cxx1112basic_stringIcSt11char_traitsIcESaIcEE12_M_constructIPKcEEvT_S8_St20forward_iterator_tagEN6_GuardD2Ev(ptr noundef nonnull align 8 dereferenceable(8) %__guard) #18
  resume { ptr, i32 } %4
}

declare void @_ZNSt7__cxx1112basic_stringIcSt11char_traitsIcESaIcEE7_M_dataEPc(ptr noundef nonnull align 8 dereferenceable(32), ptr noundef) local_unnamed_addr #0

declare noundef ptr @_ZNSt7__cxx1112basic_stringIcSt11char_traitsIcESaIcEE9_M_createERmm(ptr noundef nonnull align 8 dereferenceable(32), ptr noundef nonnull align 8 dereferenceable(8), i64 noundef) local_unnamed_addr #0

declare void @_ZNSt7__cxx1112basic_stringIcSt11char_traitsIcESaIcEE11_M_capacityEm(ptr noundef nonnull align 8 dereferenceable(32), i64 noundef) local_unnamed_addr #0

; Function Attrs: nounwind
declare void @_ZNSt7__cxx1112basic_stringIcSt11char_traitsIcESaIcEE13_S_copy_charsEPcPKcS7_(ptr noundef, ptr noundef, ptr noundef) local_unnamed_addr #1

declare noundef ptr @_ZNKSt7__cxx1112basic_stringIcSt11char_traitsIcESaIcEE7_M_dataEv(ptr noundef nonnull align 8 dereferenceable(32)) local_unnamed_addr #0

declare void @_ZNSt7__cxx1112basic_stringIcSt11char_traitsIcESaIcEE13_M_set_lengthEm(ptr noundef nonnull align 8 dereferenceable(32), i64 noundef) local_unnamed_addr #0

; Function Attrs: mustprogress nounwind uwtable
define linkonce_odr void @_ZZNSt7__cxx1112basic_stringIcSt11char_traitsIcESaIcEE12_M_constructIPKcEEvT_S8_St20forward_iterator_tagEN6_GuardD2Ev(ptr noundef nonnull align 8 dereferenceable(8) %this) unnamed_addr #5 comdat align 2 personality ptr @__gxx_personality_v0 {
entry:
  %0 = load ptr, ptr %this, align 8
  %tobool.not = icmp eq ptr %0, null
  br i1 %tobool.not, label %if.end, label %if.then

if.then:                                          ; preds = %entry
  invoke void @_ZNSt7__cxx1112basic_stringIcSt11char_traitsIcESaIcEE10_M_disposeEv(ptr noundef nonnull align 8 dereferenceable(32) %0)
          to label %if.end unwind label %terminate.lpad

if.end:                                           ; preds = %if.then, %entry
  ret void

terminate.lpad:                                   ; preds = %if.then
  %1 = landingpad { ptr, i32 }
          catch ptr null
  %2 = extractvalue { ptr, i32 } %1, 0
  tail call void @__clang_call_terminate(ptr %2) #20
  unreachable
}

declare void @_ZNSt7__cxx1112basic_stringIcSt11char_traitsIcESaIcEE10_M_disposeEv(ptr noundef nonnull align 8 dereferenceable(32)) local_unnamed_addr #0

; Function Attrs: nounwind
declare void @_ZNSaIcED2Ev(ptr noundef nonnull align 1 dereferenceable(1)) unnamed_addr #1

declare noundef zeroext i1 @_ZN4absl12lts_2023080216numbers_internal17safe_strto32_baseESt17basic_string_viewIcSt11char_traitsIcEEPii(i64, ptr, ptr noundef, i32 noundef) local_unnamed_addr #0

declare noundef zeroext i1 @_ZN4absl12lts_2023080216numbers_internal17safe_strto64_baseESt17basic_string_viewIcSt11char_traitsIcEEPli(i64, ptr, ptr noundef, i32 noundef) local_unnamed_addr #0

; Function Attrs: mustprogress uwtable
define linkonce_odr noundef ptr @_ZNSt6vectorIN9grpc_core12experimental4JsonESaIS2_EE20_M_allocate_and_copyIN9__gnu_cxx17__normal_iteratorIPKS2_S4_EEEEPS2_mT_SC_(ptr noundef nonnull align 8 dereferenceable(24) %this, i64 noundef %__n, ptr %__first.coerce, ptr %__last.coerce) local_unnamed_addr #3 comdat align 2 personality ptr @__gxx_personality_v0 {
entry:
  %cmp.not.i = icmp eq i64 %__n, 0
  br i1 %cmp.not.i, label %_ZNSt12_Vector_baseIN9grpc_core12experimental4JsonESaIS2_EE11_M_allocateEm.exit, label %cond.true.i

cond.true.i:                                      ; preds = %entry
  %cmp.i.i.i = icmp ugt i64 %__n, 164703072086692425
  br i1 %cmp.i.i.i, label %if.then.i.i.i, label %_ZNSt16allocator_traitsISaIN9grpc_core12experimental4JsonEEE8allocateERS3_m.exit.i

if.then.i.i.i:                                    ; preds = %cond.true.i
  %cmp2.i.i.i = icmp ugt i64 %__n, 329406144173384850
  br i1 %cmp2.i.i.i, label %if.then3.i.i.i, label %if.end.i.i.i

if.then3.i.i.i:                                   ; preds = %if.then.i.i.i
  tail call void @_ZSt28__throw_bad_array_new_lengthv() #19
  unreachable

if.end.i.i.i:                                     ; preds = %if.then.i.i.i
  tail call void @_ZSt17__throw_bad_allocv() #19
  unreachable

_ZNSt16allocator_traitsISaIN9grpc_core12experimental4JsonEEE8allocateERS3_m.exit.i: ; preds = %cond.true.i
  %mul.i.i.i = mul nuw nsw i64 %__n, 56
  %call5.i.i.i = tail call noalias noundef nonnull ptr @_Znwm(i64 noundef %mul.i.i.i) #23
  br label %_ZNSt12_Vector_baseIN9grpc_core12experimental4JsonESaIS2_EE11_M_allocateEm.exit

_ZNSt12_Vector_baseIN9grpc_core12experimental4JsonESaIS2_EE11_M_allocateEm.exit: ; preds = %entry, %_ZNSt16allocator_traitsISaIN9grpc_core12experimental4JsonEEE8allocateERS3_m.exit.i
  %cond.i = phi ptr [ %call5.i.i.i, %_ZNSt16allocator_traitsISaIN9grpc_core12experimental4JsonEEE8allocateERS3_m.exit.i ], [ null, %entry ]
  %cmp.i.not8.i.i.i = icmp eq ptr %__first.coerce, %__last.coerce
  br i1 %cmp.i.not8.i.i.i, label %invoke.cont, label %for.body.i.i.i

for.body.i.i.i:                                   ; preds = %_ZNSt12_Vector_baseIN9grpc_core12experimental4JsonESaIS2_EE11_M_allocateEm.exit, %for.inc.i.i.i
  %__cur.010.i.i.i = phi ptr [ %incdec.ptr.i.i.i, %for.inc.i.i.i ], [ %cond.i, %_ZNSt12_Vector_baseIN9grpc_core12experimental4JsonESaIS2_EE11_M_allocateEm.exit ]
  %__first.sroa.0.09.i.i.i = phi ptr [ %incdec.ptr.i.i.i.i, %for.inc.i.i.i ], [ %__first.coerce, %_ZNSt12_Vector_baseIN9grpc_core12experimental4JsonESaIS2_EE11_M_allocateEm.exit ]
  invoke void @_ZNSt8__detail9__variant17_Copy_assign_baseILb0EJSt9monostatebN9grpc_core12experimental4Json11NumberValueENSt7__cxx1112basic_stringIcSt11char_traitsIcESaIcEEESt3mapISC_S5_St4lessISC_ESaISt4pairIKSC_S5_EEESt6vectorIS5_SaIS5_EEEEC2ERKSO_(ptr noundef nonnull align 8 dereferenceable(49) %__cur.010.i.i.i, ptr noundef nonnull align 8 dereferenceable(49) %__first.sroa.0.09.i.i.i)
          to label %for.inc.i.i.i unwind label %lpad.i.i.i

for.inc.i.i.i:                                    ; preds = %for.body.i.i.i
  %incdec.ptr.i.i.i.i = getelementptr inbounds %"class.grpc_core::experimental::Json", ptr %__first.sroa.0.09.i.i.i, i64 1
  %incdec.ptr.i.i.i = getelementptr inbounds %"class.grpc_core::experimental::Json", ptr %__cur.010.i.i.i, i64 1
  %cmp.i.not.i.i.i = icmp eq ptr %incdec.ptr.i.i.i.i, %__last.coerce
  br i1 %cmp.i.not.i.i.i, label %invoke.cont, label %for.body.i.i.i, !llvm.loop !30

lpad.i.i.i:                                       ; preds = %for.body.i.i.i
  %0 = landingpad { ptr, i32 }
          catch ptr null
  %1 = extractvalue { ptr, i32 } %0, 0
  %2 = tail call ptr @__cxa_begin_catch(ptr %1) #18
  invoke void @_ZSt8_DestroyIPN9grpc_core12experimental4JsonEEvT_S4_(ptr noundef %cond.i, ptr noundef %__cur.010.i.i.i)
          to label %invoke.cont5.i.i.i unwind label %lpad4.i.i.i

invoke.cont5.i.i.i:                               ; preds = %lpad.i.i.i
  invoke void @__cxa_rethrow() #19
          to label %unreachable.i.i.i unwind label %lpad4.i.i.i

lpad4.i.i.i:                                      ; preds = %invoke.cont5.i.i.i, %lpad.i.i.i
  %3 = landingpad { ptr, i32 }
          catch ptr null
  invoke void @__cxa_end_catch()
          to label %lpad.body unwind label %terminate.lpad.i.i.i

terminate.lpad.i.i.i:                             ; preds = %lpad4.i.i.i
  %4 = landingpad { ptr, i32 }
          catch ptr null
  %5 = extractvalue { ptr, i32 } %4, 0
  tail call void @__clang_call_terminate(ptr %5) #20
  unreachable

unreachable.i.i.i:                                ; preds = %invoke.cont5.i.i.i
  unreachable

invoke.cont:                                      ; preds = %for.inc.i.i.i, %_ZNSt12_Vector_baseIN9grpc_core12experimental4JsonESaIS2_EE11_M_allocateEm.exit
  ret ptr %cond.i

lpad.body:                                        ; preds = %lpad4.i.i.i
  %6 = extractvalue { ptr, i32 } %3, 0
  %7 = tail call ptr @__cxa_begin_catch(ptr %6) #18
  %tobool.not.i = icmp eq ptr %cond.i, null
  br i1 %tobool.not.i, label %invoke.cont9, label %if.then.i

if.then.i:                                        ; preds = %lpad.body
  tail call void @_ZdlPv(ptr noundef nonnull %cond.i) #21
  br label %invoke.cont9

invoke.cont9:                                     ; preds = %if.then.i, %lpad.body
  invoke void @__cxa_rethrow() #19
          to label %unreachable unwind label %lpad8

lpad8:                                            ; preds = %invoke.cont9
  %8 = landingpad { ptr, i32 }
          cleanup
  invoke void @__cxa_end_catch()
          to label %eh.resume unwind label %terminate.lpad

eh.resume:                                        ; preds = %lpad8
  resume { ptr, i32 } %8

terminate.lpad:                                   ; preds = %lpad8
  %9 = landingpad { ptr, i32 }
          catch ptr null
  %10 = extractvalue { ptr, i32 } %9, 0
  tail call void @__clang_call_terminate(ptr %10) #20
  unreachable

unreachable:                                      ; preds = %invoke.cont9
  unreachable
}

; Function Attrs: mustprogress uwtable
define linkonce_odr void @_ZSt10__do_visitINSt8__detail9__variant20__variant_idx_cookieEZNS1_17_Copy_assign_baseILb0EJSt9monostatebN9grpc_core12experimental4Json11NumberValueENSt7__cxx1112basic_stringIcSt11char_traitsIcESaIcEEESt3mapISE_S7_St4lessISE_ESaISt4pairIKSE_S7_EEESt6vectorIS7_SaIS7_EEEEaSERKSQ_EUlOT_T0_E_JRKSt7variantIJS4_bS8_SE_SM_SP_EEEEDcOSV_DpOT1_(ptr noundef nonnull align 8 dereferenceable(8) %__visitor, ptr noundef nonnull align 8 dereferenceable(49) %__variants) local_unnamed_addr #3 comdat {
entry:
  %ref.tmp.i.i.i.i.i = alloca %class.anon.36, align 1
  %ref.tmp.i.i.i.i.i.i14 = alloca %class.anon.36, align 1
  %ref.tmp.i.i.i.i.i.i = alloca %class.anon.36, align 1
  %_M_index.i = getelementptr inbounds %"struct.std::__detail::__variant::_Variant_storage", ptr %__variants, i64 0, i32 1
  %0 = load i8, ptr %_M_index.i, align 8
  %conv.i = sext i8 %0 to i64
  switch i64 %conv.i, label %sw.default [
    i64 0, label %sw.bb
    i64 1, label %sw.bb2
    i64 2, label %sw.bb3
    i64 3, label %sw.bb4
    i64 4, label %sw.bb5
    i64 5, label %sw.bb6
    i64 -1, label %sw.bb12
  ]

sw.bb:                                            ; preds = %entry
  %1 = load ptr, ptr %__visitor, align 8
  %_M_index.i.i.i.i = getelementptr inbounds %"struct.std::__detail::__variant::_Variant_storage", ptr %1, i64 0, i32 1
  %2 = load i8, ptr %_M_index.i.i.i.i, align 8
  %cmp.i.i.i.i = icmp eq i8 %2, 0
  br i1 %cmp.i.i.i.i, label %return, label %if.else.i.i.i.i

if.else.i.i.i.i:                                  ; preds = %sw.bb
  call void @llvm.lifetime.start.p0(i64 1, ptr nonnull %ref.tmp.i.i.i.i.i.i)
  %cmp.i.not.i.i.i.i.i.i = icmp eq i8 %2, -1
  br i1 %cmp.i.not.i.i.i.i.i.i, label %_ZNSt8__detail9__variant9__emplaceILm0ELb0EJSt9monostatebN9grpc_core12experimental4Json11NumberValueENSt7__cxx1112basic_stringIcSt11char_traitsIcESaIcEEESt3mapISC_S5_St4lessISC_ESaISt4pairIKSC_S5_EEESt6vectorIS5_SaIS5_EEEJRKS2_EEEvRNS0_16_Variant_storageIXT0_EJDpT1_EEEDpOT2_.exit.i.i.i.i, label %if.end.i.i.i.i.i.i

if.end.i.i.i.i.i.i:                               ; preds = %if.else.i.i.i.i
  call void @_ZSt10__do_visitIvZNSt8__detail9__variant16_Variant_storageILb0EJSt9monostatebN9grpc_core12experimental4Json11NumberValueENSt7__cxx1112basic_stringIcSt11char_traitsIcESaIcEEESt3mapISD_S6_St4lessISD_ESaISt4pairIKSD_S6_EEESt6vectorIS6_SaIS6_EEEE8_M_resetEvEUlOT_E_JRSt7variantIJS3_bS7_SD_SL_SO_EEEEDcOT0_DpOT1_(ptr noundef nonnull align 1 dereferenceable(1) %ref.tmp.i.i.i.i.i.i, ptr noundef nonnull align 8 dereferenceable(49) %1)
  br label %_ZNSt8__detail9__variant9__emplaceILm0ELb0EJSt9monostatebN9grpc_core12experimental4Json11NumberValueENSt7__cxx1112basic_stringIcSt11char_traitsIcESaIcEEESt3mapISC_S5_St4lessISC_ESaISt4pairIKSC_S5_EEESt6vectorIS5_SaIS5_EEEJRKS2_EEEvRNS0_16_Variant_storageIXT0_EJDpT1_EEEDpOT2_.exit.i.i.i.i

_ZNSt8__detail9__variant9__emplaceILm0ELb0EJSt9monostatebN9grpc_core12experimental4Json11NumberValueENSt7__cxx1112basic_stringIcSt11char_traitsIcESaIcEEESt3mapISC_S5_St4lessISC_ESaISt4pairIKSC_S5_EEESt6vectorIS5_SaIS5_EEEJRKS2_EEEvRNS0_16_Variant_storageIXT0_EJDpT1_EEEDpOT2_.exit.i.i.i.i: ; preds = %if.end.i.i.i.i.i.i, %if.else.i.i.i.i
  call void @llvm.lifetime.end.p0(i64 1, ptr nonnull %ref.tmp.i.i.i.i.i.i)
  store i8 0, ptr %_M_index.i.i.i.i, align 8
  br label %return

sw.bb2:                                           ; preds = %entry
  %3 = load ptr, ptr %__visitor, align 8
  %_M_index.i.i.i.i15 = getelementptr inbounds %"struct.std::__detail::__variant::_Variant_storage", ptr %3, i64 0, i32 1
  %4 = load i8, ptr %_M_index.i.i.i.i15, align 8
  %cmp.i.i.i.i16 = icmp eq i8 %4, 1
  br i1 %cmp.i.i.i.i16, label %if.then.i.i.i.i, label %if.else.i.i.i.i17

if.then.i.i.i.i:                                  ; preds = %sw.bb2
  %5 = load i8, ptr %__variants, align 8
  %6 = and i8 %5, 1
  store i8 %6, ptr %3, align 1
  br label %return

if.else.i.i.i.i17:                                ; preds = %sw.bb2
  call void @llvm.lifetime.start.p0(i64 1, ptr nonnull %ref.tmp.i.i.i.i.i.i14)
  %cmp.i.not.i.i.i.i.i.i18 = icmp eq i8 %4, -1
  br i1 %cmp.i.not.i.i.i.i.i.i18, label %_ZNSt8__detail9__variant9__emplaceILm1ELb0EJSt9monostatebN9grpc_core12experimental4Json11NumberValueENSt7__cxx1112basic_stringIcSt11char_traitsIcESaIcEEESt3mapISC_S5_St4lessISC_ESaISt4pairIKSC_S5_EEESt6vectorIS5_SaIS5_EEEJRKbEEEvRNS0_16_Variant_storageIXT0_EJDpT1_EEEDpOT2_.exit.i.i.i.i, label %if.end.i.i.i.i.i.i19

if.end.i.i.i.i.i.i19:                             ; preds = %if.else.i.i.i.i17
  call void @_ZSt10__do_visitIvZNSt8__detail9__variant16_Variant_storageILb0EJSt9monostatebN9grpc_core12experimental4Json11NumberValueENSt7__cxx1112basic_stringIcSt11char_traitsIcESaIcEEESt3mapISD_S6_St4lessISD_ESaISt4pairIKSD_S6_EEESt6vectorIS6_SaIS6_EEEE8_M_resetEvEUlOT_E_JRSt7variantIJS3_bS7_SD_SL_SO_EEEEDcOT0_DpOT1_(ptr noundef nonnull align 1 dereferenceable(1) %ref.tmp.i.i.i.i.i.i14, ptr noundef nonnull align 8 dereferenceable(49) %3)
  store i8 -1, ptr %_M_index.i.i.i.i15, align 8
  br label %_ZNSt8__detail9__variant9__emplaceILm1ELb0EJSt9monostatebN9grpc_core12experimental4Json11NumberValueENSt7__cxx1112basic_stringIcSt11char_traitsIcESaIcEEESt3mapISC_S5_St4lessISC_ESaISt4pairIKSC_S5_EEESt6vectorIS5_SaIS5_EEEJRKbEEEvRNS0_16_Variant_storageIXT0_EJDpT1_EEEDpOT2_.exit.i.i.i.i

_ZNSt8__detail9__variant9__emplaceILm1ELb0EJSt9monostatebN9grpc_core12experimental4Json11NumberValueENSt7__cxx1112basic_stringIcSt11char_traitsIcESaIcEEESt3mapISC_S5_St4lessISC_ESaISt4pairIKSC_S5_EEESt6vectorIS5_SaIS5_EEEJRKbEEEvRNS0_16_Variant_storageIXT0_EJDpT1_EEEDpOT2_.exit.i.i.i.i: ; preds = %if.end.i.i.i.i.i.i19, %if.else.i.i.i.i17
  call void @llvm.lifetime.end.p0(i64 1, ptr nonnull %ref.tmp.i.i.i.i.i.i14)
  %7 = load i8, ptr %__variants, align 8
  %8 = and i8 %7, 1
  store i8 %8, ptr %3, align 1
  store i8 1, ptr %_M_index.i.i.i.i15, align 8
  br label %return

sw.bb3:                                           ; preds = %entry
  tail call void @_ZZNSt8__detail9__variant17_Copy_assign_baseILb0EJSt9monostatebN9grpc_core12experimental4Json11NumberValueENSt7__cxx1112basic_stringIcSt11char_traitsIcESaIcEEESt3mapISC_S5_St4lessISC_ESaISt4pairIKSC_S5_EEESt6vectorIS5_SaIS5_EEEEaSERKSO_ENUlOT_T0_E_clIRKS6_St17integral_constantImLm2EEEEDaSS_ST_(ptr noundef nonnull align 8 dereferenceable(8) %__visitor, ptr noundef nonnull align 8 dereferenceable(32) %__variants)
  br label %return

sw.bb4:                                           ; preds = %entry
  tail call void @_ZZNSt8__detail9__variant17_Copy_assign_baseILb0EJSt9monostatebN9grpc_core12experimental4Json11NumberValueENSt7__cxx1112basic_stringIcSt11char_traitsIcESaIcEEESt3mapISC_S5_St4lessISC_ESaISt4pairIKSC_S5_EEESt6vectorIS5_SaIS5_EEEEaSERKSO_ENUlOT_T0_E_clIRSH_St17integral_constantImLm3EEEEDaSS_ST_(ptr noundef nonnull align 8 dereferenceable(8) %__visitor, ptr noundef nonnull align 8 dereferenceable(32) %__variants)
  br label %return

sw.bb5:                                           ; preds = %entry
  tail call void @_ZZNSt8__detail9__variant17_Copy_assign_baseILb0EJSt9monostatebN9grpc_core12experimental4Json11NumberValueENSt7__cxx1112basic_stringIcSt11char_traitsIcESaIcEEESt3mapISC_S5_St4lessISC_ESaISt4pairIKSC_S5_EEESt6vectorIS5_SaIS5_EEEEaSERKSO_ENUlOT_T0_E_clIRKSK_St17integral_constantImLm4EEEEDaSS_ST_(ptr noundef nonnull align 8 dereferenceable(8) %__visitor, ptr noundef nonnull align 8 dereferenceable(48) %__variants)
  br label %return

sw.bb6:                                           ; preds = %entry
  tail call void @_ZZNSt8__detail9__variant17_Copy_assign_baseILb0EJSt9monostatebN9grpc_core12experimental4Json11NumberValueENSt7__cxx1112basic_stringIcSt11char_traitsIcESaIcEEESt3mapISC_S5_St4lessISC_ESaISt4pairIKSC_S5_EEESt6vectorIS5_SaIS5_EEEEaSERKSO_ENUlOT_T0_E_clIRKSN_St17integral_constantImLm5EEEEDaSS_ST_(ptr noundef nonnull align 8 dereferenceable(8) %__visitor, ptr noundef nonnull align 8 dereferenceable(24) %__variants)
  br label %return

sw.bb12:                                          ; preds = %entry
  %9 = load ptr, ptr %__visitor, align 8
  call void @llvm.lifetime.start.p0(i64 1, ptr nonnull %ref.tmp.i.i.i.i.i)
  %_M_index.i.i.i.i.i.i = getelementptr inbounds %"struct.std::__detail::__variant::_Variant_storage", ptr %9, i64 0, i32 1
  %10 = load i8, ptr %_M_index.i.i.i.i.i.i, align 8
  %cmp.i.not.i.i.i.i.i = icmp eq i8 %10, -1
  br i1 %cmp.i.not.i.i.i.i.i, label %_ZNSt8__detail9__variant17__gen_vtable_implINS0_12_Multi_arrayIPFNS0_20__variant_idx_cookieEOZNS0_17_Copy_assign_baseILb0EJSt9monostatebN9grpc_core12experimental4Json11NumberValueENSt7__cxx1112basic_stringIcSt11char_traitsIcESaIcEEESt3mapISF_S8_St4lessISF_ESaISt4pairIKSF_S8_EEESt6vectorIS8_SaIS8_EEEEaSERKSR_EUlOT_T0_E_RKSt7variantIJS5_bS9_SF_SN_SQ_EEEJEEESt16integer_sequenceImJLm18446744073709551615EEEE14__visit_invokeESY_S12_.exit, label %if.end.i.i.i.i.i

if.end.i.i.i.i.i:                                 ; preds = %sw.bb12
  call void @_ZSt10__do_visitIvZNSt8__detail9__variant16_Variant_storageILb0EJSt9monostatebN9grpc_core12experimental4Json11NumberValueENSt7__cxx1112basic_stringIcSt11char_traitsIcESaIcEEESt3mapISD_S6_St4lessISD_ESaISt4pairIKSD_S6_EEESt6vectorIS6_SaIS6_EEEE8_M_resetEvEUlOT_E_JRSt7variantIJS3_bS7_SD_SL_SO_EEEEDcOT0_DpOT1_(ptr noundef nonnull align 1 dereferenceable(1) %ref.tmp.i.i.i.i.i, ptr noundef nonnull align 8 dereferenceable(49) %9)
  store i8 -1, ptr %_M_index.i.i.i.i.i.i, align 8
  br label %_ZNSt8__detail9__variant17__gen_vtable_implINS0_12_Multi_arrayIPFNS0_20__variant_idx_cookieEOZNS0_17_Copy_assign_baseILb0EJSt9monostatebN9grpc_core12experimental4Json11NumberValueENSt7__cxx1112basic_stringIcSt11char_traitsIcESaIcEEESt3mapISF_S8_St4lessISF_ESaISt4pairIKSF_S8_EEESt6vectorIS8_SaIS8_EEEEaSERKSR_EUlOT_T0_E_RKSt7variantIJS5_bS9_SF_SN_SQ_EEEJEEESt16integer_sequenceImJLm18446744073709551615EEEE14__visit_invokeESY_S12_.exit

_ZNSt8__detail9__variant17__gen_vtable_implINS0_12_Multi_arrayIPFNS0_20__variant_idx_cookieEOZNS0_17_Copy_assign_baseILb0EJSt9monostatebN9grpc_core12experimental4Json11NumberValueENSt7__cxx1112basic_stringIcSt11char_traitsIcESaIcEEESt3mapISF_S8_St4lessISF_ESaISt4pairIKSF_S8_EEESt6vectorIS8_SaIS8_EEEEaSERKSR_EUlOT_T0_E_RKSt7variantIJS5_bS9_SF_SN_SQ_EEEJEEESt16integer_sequenceImJLm18446744073709551615EEEE14__visit_invokeESY_S12_.exit: ; preds = %sw.bb12, %if.end.i.i.i.i.i
  call void @llvm.lifetime.end.p0(i64 1, ptr nonnull %ref.tmp.i.i.i.i.i)
  br label %return

sw.default:                                       ; preds = %entry
  unreachable

return:                                           ; preds = %_ZNSt8__detail9__variant9__emplaceILm1ELb0EJSt9monostatebN9grpc_core12experimental4Json11NumberValueENSt7__cxx1112basic_stringIcSt11char_traitsIcESaIcEEESt3mapISC_S5_St4lessISC_ESaISt4pairIKSC_S5_EEESt6vectorIS5_SaIS5_EEEJRKbEEEvRNS0_16_Variant_storageIXT0_EJDpT1_EEEDpOT2_.exit.i.i.i.i, %if.then.i.i.i.i, %_ZNSt8__detail9__variant9__emplaceILm0ELb0EJSt9monostatebN9grpc_core12experimental4Json11NumberValueENSt7__cxx1112basic_stringIcSt11char_traitsIcESaIcEEESt3mapISC_S5_St4lessISC_ESaISt4pairIKSC_S5_EEESt6vectorIS5_SaIS5_EEEJRKS2_EEEvRNS0_16_Variant_storageIXT0_EJDpT1_EEEDpOT2_.exit.i.i.i.i, %sw.bb, %_ZNSt8__detail9__variant17__gen_vtable_implINS0_12_Multi_arrayIPFNS0_20__variant_idx_cookieEOZNS0_17_Copy_assign_baseILb0EJSt9monostatebN9grpc_core12experimental4Json11NumberValueENSt7__cxx1112basic_stringIcSt11char_traitsIcESaIcEEESt3mapISF_S8_St4lessISF_ESaISt4pairIKSF_S8_EEESt6vectorIS8_SaIS8_EEEEaSERKSR_EUlOT_T0_E_RKSt7variantIJS5_bS9_SF_SN_SQ_EEEJEEESt16integer_sequenceImJLm18446744073709551615EEEE14__visit_invokeESY_S12_.exit, %sw.bb6, %sw.bb5, %sw.bb4, %sw.bb3
  ret void
}

; Function Attrs: mustprogress uwtable
