; ModuleID = 'bench/grpc/original/rbac_service_config_parser.cc.ll'
source_filename = "bench/grpc/original/rbac_service_config_parser.cc.ll"
target datalayout = "e-m:e-p270:32:32-p271:32:32-p272:64:64-i64:64-i128:128-f80:128-n8:16:32:64-S128"
target triple = "x86_64-unknown-linux-gnu"

%"class.std::ios_base::Init" = type { i8 }
%"class.grpc_core::NoDestruct" = type { [8 x i8] }
%"class.grpc_core::NoDestruct.102" = type { [8 x i8] }
%"class.grpc_core::NoDestruct.103" = type { [8 x i8] }
%"class.grpc_core::NoDestruct.104" = type { [8 x i8] }
%"class.grpc_core::NoDestruct.105" = type { [8 x i8] }
%"class.grpc_core::NoDestruct.106" = type { [8 x i8] }
%"class.grpc_core::NoDestruct.107" = type { [8 x i8] }
%"class.grpc_core::NoDestruct.108" = type { [8 x i8] }
%"class.grpc_core::NoDestruct.109" = type { [8 x i8] }
%"class.grpc_core::NoDestruct.110" = type { [8 x i8] }
%"class.grpc_core::NoDestruct.111" = type { [8 x i8] }
%"class.grpc_core::NoDestruct.112" = type { [8 x i8] }
%"class.grpc_core::NoDestruct.113" = type { [8 x i8] }
%"class.grpc_core::NoDestruct.114" = type { [8 x i8] }
%"class.grpc_core::NoDestruct.115" = type { [8 x i8] }
%"class.grpc_core::NoDestruct.116" = type { [8 x i8] }
%"class.grpc_core::NoDestruct.117" = type { [8 x i8] }
%"class.grpc_core::NoDestruct.118" = type { [8 x i8] }
%"class.grpc_core::NoDestruct.119" = type { [8 x i8] }
%"class.grpc_core::NoDestruct.120" = type { [8 x i8] }
%"class.grpc_core::NoDestruct.121" = type { [8 x i8] }
%"class.grpc_core::NoDestruct.122" = type { [8 x i8] }
%"class.grpc_core::NoDestruct.123" = type { [8 x i8] }
%"class.grpc_core::NoDestruct.124" = type { [8 x i8] }
%"class.grpc_core::NoDestruct.125" = type { [8 x i8] }
%"class.grpc_core::NoDestruct.126" = type { [8 x i8] }
%"class.grpc_core::NoDestruct.127" = type { [8 x i8] }
%"class.grpc_core::NoDestruct.128" = type { [8 x i8] }
%"class.grpc_core::NoDestruct.129" = type { [8 x i8] }
%"class.grpc_core::NoDestruct.130" = type { [8 x i8] }
%"class.grpc_core::NoDestruct.131" = type { [8 x i8] }
%"struct.std::atomic" = type { %"struct.std::__atomic_base" }
%"struct.std::__atomic_base" = type { ptr }
%"class.std::unique_ptr" = type { %"struct.std::__uniq_ptr_data" }
%"struct.std::__uniq_ptr_data" = type { %"class.std::__uniq_ptr_impl" }
%"class.std::__uniq_ptr_impl" = type { %"class.std::tuple" }
%"class.std::tuple" = type { %"struct.std::_Tuple_impl" }
%"struct.std::_Tuple_impl" = type { %"struct.std::_Head_base.1" }
%"struct.std::_Head_base.1" = type { ptr }
%struct._Guard = type { ptr }
%"struct.std::_Rb_tree<std::__cxx11::basic_string<char>, std::pair<const std::__cxx11::basic_string<char>, grpc_core::Rbac::Policy>, std::_Select1st<std::pair<const std::__cxx11::basic_string<char>, grpc_core::Rbac::Policy>>, std::less<std::__cxx11::basic_string<char>>>::_Auto_node" = type { ptr, ptr }
%"struct.grpc_core::Rbac::Permission" = type <{ i32, [4 x i8], %"class.grpc_core::HeaderMatcher", %"class.grpc_core::StringMatcher", %"struct.grpc_core::Rbac::CidrRange", i32, [4 x i8], %"class.std::vector.168", i8, [7 x i8] }>
%"class.grpc_core::HeaderMatcher" = type <{ %"class.std::__cxx11::basic_string", i32, [4 x i8], %"class.grpc_core::StringMatcher", i64, i64, i8, i8, [6 x i8] }>
%"class.std::__cxx11::basic_string" = type { %"struct.std::__cxx11::basic_string<char>::_Alloc_hider", i64, %union.anon }
%"struct.std::__cxx11::basic_string<char>::_Alloc_hider" = type { ptr }
%union.anon = type { i64, [8 x i8] }
%"class.grpc_core::StringMatcher" = type <{ i32, [4 x i8], %"class.std::__cxx11::basic_string", %"class.std::unique_ptr.160", i8, [7 x i8] }>
%"class.std::unique_ptr.160" = type { %"struct.std::__uniq_ptr_data.161" }
%"struct.std::__uniq_ptr_data.161" = type { %"class.std::__uniq_ptr_impl.162" }
%"class.std::__uniq_ptr_impl.162" = type { %"class.std::tuple.163" }
%"class.std::tuple.163" = type { %"struct.std::_Tuple_impl.164" }
%"struct.std::_Tuple_impl.164" = type { %"struct.std::_Head_base.167" }
%"struct.std::_Head_base.167" = type { ptr }
%"struct.grpc_core::Rbac::CidrRange" = type <{ %"class.std::__cxx11::basic_string", i32, [4 x i8] }>
%"class.std::vector.168" = type { %"struct.std::_Vector_base.169" }
%"struct.std::_Vector_base.169" = type { %"struct.std::_Vector_base<std::unique_ptr<grpc_core::Rbac::Permission>, std::allocator<std::unique_ptr<grpc_core::Rbac::Permission>>>::_Vector_impl" }
%"struct.std::_Vector_base<std::unique_ptr<grpc_core::Rbac::Permission>, std::allocator<std::unique_ptr<grpc_core::Rbac::Permission>>>::_Vector_impl" = type { %"struct.std::_Vector_base<std::unique_ptr<grpc_core::Rbac::Permission>, std::allocator<std::unique_ptr<grpc_core::Rbac::Permission>>>::_Vector_impl_data" }
%"struct.std::_Vector_base<std::unique_ptr<grpc_core::Rbac::Permission>, std::allocator<std::unique_ptr<grpc_core::Rbac::Permission>>>::_Vector_impl_data" = type { ptr, ptr, ptr }
%"class.std::vector.212" = type { %"struct.std::_Vector_base.213" }
%"struct.std::_Vector_base.213" = type { %"struct.std::_Vector_base<grpc_core::(anonymous namespace)::RbacConfig::RbacPolicy::Rules::Policy::Permission, std::allocator<grpc_core::(anonymous namespace)::RbacConfig::RbacPolicy::Rules::Policy::Permission>>::_Vector_impl" }
%"struct.std::_Vector_base<grpc_core::(anonymous namespace)::RbacConfig::RbacPolicy::Rules::Policy::Permission, std::allocator<grpc_core::(anonymous namespace)::RbacConfig::RbacPolicy::Rules::Policy::Permission>>::_Vector_impl" = type { %"struct.std::_Vector_base<grpc_core::(anonymous namespace)::RbacConfig::RbacPolicy::Rules::Policy::Permission, std::allocator<grpc_core::(anonymous namespace)::RbacConfig::RbacPolicy::Rules::Policy::Permission>>::_Vector_impl_data" }
%"struct.std::_Vector_base<grpc_core::(anonymous namespace)::RbacConfig::RbacPolicy::Rules::Policy::Permission, std::allocator<grpc_core::(anonymous namespace)::RbacConfig::RbacPolicy::Rules::Policy::Permission>>::_Vector_impl_data" = type { ptr, ptr, ptr }
%"struct.grpc_core::Rbac::Principal" = type <{ i32, [4 x i8], %"class.grpc_core::HeaderMatcher", %"class.std::optional.173", %"struct.grpc_core::Rbac::CidrRange", %"class.std::vector.183", i8, [7 x i8] }>
%"class.std::optional.173" = type { %"struct.std::_Optional_base.174" }
%"struct.std::_Optional_base.174" = type { %"struct.std::_Optional_payload.176" }
%"struct.std::_Optional_payload.176" = type { %"struct.std::_Optional_payload.base.180", [7 x i8] }
%"struct.std::_Optional_payload.base.180" = type { %"struct.std::_Optional_payload_base.base.179" }
%"struct.std::_Optional_payload_base.base.179" = type { %"union.std::_Optional_payload_base<grpc_core::StringMatcher>::_Storage", i8 }
%"union.std::_Optional_payload_base<grpc_core::StringMatcher>::_Storage" = type { %"class.grpc_core::StringMatcher" }
%"class.std::vector.183" = type { %"struct.std::_Vector_base.184" }
%"struct.std::_Vector_base.184" = type { %"struct.std::_Vector_base<std::unique_ptr<grpc_core::Rbac::Principal>, std::allocator<std::unique_ptr<grpc_core::Rbac::Principal>>>::_Vector_impl" }
%"struct.std::_Vector_base<std::unique_ptr<grpc_core::Rbac::Principal>, std::allocator<std::unique_ptr<grpc_core::Rbac::Principal>>>::_Vector_impl" = type { %"struct.std::_Vector_base<std::unique_ptr<grpc_core::Rbac::Principal>, std::allocator<std::unique_ptr<grpc_core::Rbac::Principal>>>::_Vector_impl_data" }
%"struct.std::_Vector_base<std::unique_ptr<grpc_core::Rbac::Principal>, std::allocator<std::unique_ptr<grpc_core::Rbac::Principal>>>::_Vector_impl_data" = type { ptr, ptr, ptr }
%"class.std::vector.217" = type { %"struct.std::_Vector_base.218" }
%"struct.std::_Vector_base.218" = type { %"struct.std::_Vector_base<grpc_core::(anonymous namespace)::RbacConfig::RbacPolicy::Rules::Policy::Principal, std::allocator<grpc_core::(anonymous namespace)::RbacConfig::RbacPolicy::Rules::Policy::Principal>>::_Vector_impl" }
%"struct.std::_Vector_base<grpc_core::(anonymous namespace)::RbacConfig::RbacPolicy::Rules::Policy::Principal, std::allocator<grpc_core::(anonymous namespace)::RbacConfig::RbacPolicy::Rules::Policy::Principal>>::_Vector_impl" = type { %"struct.std::_Vector_base<grpc_core::(anonymous namespace)::RbacConfig::RbacPolicy::Rules::Policy::Principal, std::allocator<grpc_core::(anonymous namespace)::RbacConfig::RbacPolicy::Rules::Policy::Principal>>::_Vector_impl_data" }
%"struct.std::_Vector_base<grpc_core::(anonymous namespace)::RbacConfig::RbacPolicy::Rules::Policy::Principal, std::allocator<grpc_core::(anonymous namespace)::RbacConfig::RbacPolicy::Rules::Policy::Principal>>::_Vector_impl_data" = type { ptr, ptr, ptr }
%"struct.grpc_core::Rbac::Policy" = type { %"struct.grpc_core::Rbac::Permission", %"struct.grpc_core::Rbac::Principal" }
%"class.std::allocator.58" = type { i8 }
%"class.std::map.153" = type { %"class.std::_Rb_tree.154" }
%"class.std::_Rb_tree.154" = type { %"struct.std::_Rb_tree<std::__cxx11::basic_string<char>, std::pair<const std::__cxx11::basic_string<char>, grpc_core::Rbac::Policy>, std::_Select1st<std::pair<const std::__cxx11::basic_string<char>, grpc_core::Rbac::Policy>>, std::less<std::__cxx11::basic_string<char>>>::_Rb_tree_impl" }
%"struct.std::_Rb_tree<std::__cxx11::basic_string<char>, std::pair<const std::__cxx11::basic_string<char>, grpc_core::Rbac::Policy>, std::_Select1st<std::pair<const std::__cxx11::basic_string<char>, grpc_core::Rbac::Policy>>, std::less<std::__cxx11::basic_string<char>>>::_Rb_tree_impl" = type { %"struct.std::_Rb_tree_key_compare.143", %"struct.std::_Rb_tree_header" }
%"struct.std::_Rb_tree_key_compare.143" = type { %"struct.std::less.144" }
%"struct.std::less.144" = type { i8 }
%"struct.std::_Rb_tree_header" = type { %"struct.std::_Rb_tree_node_base", i64 }
%"struct.std::_Rb_tree_node_base" = type { i32, ptr, ptr, ptr }
%"struct.grpc_core::Rbac" = type { %"class.std::__cxx11::basic_string", i32, %"class.std::map.153", i32, %"class.std::vector.146" }
%"class.std::vector.146" = type { %"struct.std::_Vector_base.147" }
%"struct.std::_Vector_base.147" = type { %"struct.std::_Vector_base<std::unique_ptr<grpc_core::experimental::AuditLoggerFactory::Config>, std::allocator<std::unique_ptr<grpc_core::experimental::AuditLoggerFactory::Config>>>::_Vector_impl" }
%"struct.std::_Vector_base<std::unique_ptr<grpc_core::experimental::AuditLoggerFactory::Config>, std::allocator<std::unique_ptr<grpc_core::experimental::AuditLoggerFactory::Config>>>::_Vector_impl" = type { %"struct.std::_Vector_base<std::unique_ptr<grpc_core::experimental::AuditLoggerFactory::Config>, std::allocator<std::unique_ptr<grpc_core::experimental::AuditLoggerFactory::Config>>>::_Vector_impl_data" }
%"struct.std::_Vector_base<std::unique_ptr<grpc_core::experimental::AuditLoggerFactory::Config>, std::allocator<std::unique_ptr<grpc_core::experimental::AuditLoggerFactory::Config>>>::_Vector_impl_data" = type { ptr, ptr, ptr }
%"struct.grpc_core::(anonymous namespace)::RbacConfig" = type { %"class.std::vector" }
%"class.std::vector" = type { %"struct.std::_Vector_base" }
%"struct.std::_Vector_base" = type { %"struct.std::_Vector_base<grpc_core::(anonymous namespace)::RbacConfig::RbacPolicy, std::allocator<grpc_core::(anonymous namespace)::RbacConfig::RbacPolicy>>::_Vector_impl" }
%"struct.std::_Vector_base<grpc_core::(anonymous namespace)::RbacConfig::RbacPolicy, std::allocator<grpc_core::(anonymous namespace)::RbacConfig::RbacPolicy>>::_Vector_impl" = type { %"struct.std::_Vector_base<grpc_core::(anonymous namespace)::RbacConfig::RbacPolicy, std::allocator<grpc_core::(anonymous namespace)::RbacConfig::RbacPolicy>>::_Vector_impl_data" }
%"struct.std::_Vector_base<grpc_core::(anonymous namespace)::RbacConfig::RbacPolicy, std::allocator<grpc_core::(anonymous namespace)::RbacConfig::RbacPolicy>>::_Vector_impl_data" = type { ptr, ptr, ptr }
%"class.grpc_core::JsonArgs" = type { ptr }
%"class.std::vector.17" = type { %"struct.std::_Vector_base.18" }
%"struct.std::_Vector_base.18" = type { %"struct.std::_Vector_base<grpc_core::Rbac, std::allocator<grpc_core::Rbac>>::_Vector_impl" }
%"struct.std::_Vector_base<grpc_core::Rbac, std::allocator<grpc_core::Rbac>>::_Vector_impl" = type { %"struct.std::_Vector_base<grpc_core::Rbac, std::allocator<grpc_core::Rbac>>::_Vector_impl_data" }
%"struct.std::_Vector_base<grpc_core::Rbac, std::allocator<grpc_core::Rbac>>::_Vector_impl_data" = type { ptr, ptr, ptr }
%"class.std::unique_ptr.22" = type { %"struct.std::__uniq_ptr_data.23" }
%"struct.std::__uniq_ptr_data.23" = type { %"class.std::__uniq_ptr_impl.24" }
%"class.std::__uniq_ptr_impl.24" = type { %"class.std::tuple.25" }
%"class.std::tuple.25" = type { %"struct.std::_Tuple_impl.26" }
%"struct.std::_Tuple_impl.26" = type { %"struct.std::_Head_base.29" }
%"struct.std::_Head_base.29" = type { ptr }
%"class.std::unique_ptr.200" = type { %"struct.std::__uniq_ptr_data.201" }
%"struct.std::__uniq_ptr_data.201" = type { %"class.std::__uniq_ptr_impl.202" }
%"class.std::__uniq_ptr_impl.202" = type { %"class.std::tuple.203" }
%"class.std::tuple.203" = type { %"struct.std::_Tuple_impl.204" }
%"struct.std::_Tuple_impl.204" = type { %"struct.std::_Head_base.207" }
%"struct.std::_Head_base.207" = type { ptr }
%"class.std::unique_ptr.188" = type { %"struct.std::__uniq_ptr_data.189" }
%"struct.std::__uniq_ptr_data.189" = type { %"class.std::__uniq_ptr_impl.190" }
%"class.std::__uniq_ptr_impl.190" = type { %"class.std::tuple.191" }
%"class.std::tuple.191" = type { %"struct.std::_Tuple_impl.192" }
%"struct.std::_Tuple_impl.192" = type { %"struct.std::_Head_base.195" }
%"struct.std::_Head_base.195" = type { ptr }
%"class.std::unique_ptr.76" = type { %"struct.std::__uniq_ptr_data.77" }
%"struct.std::__uniq_ptr_data.77" = type { %"class.std::__uniq_ptr_impl.78" }
%"class.std::__uniq_ptr_impl.78" = type { %"class.std::tuple.79" }
%"class.std::tuple.79" = type { %"struct.std::_Tuple_impl.80" }
%"struct.std::_Tuple_impl.80" = type { %"struct.std::_Head_base.83" }
%"struct.std::_Head_base.83" = type { ptr }
%class.anon = type { ptr, ptr }
%class.anon.275 = type { ptr, ptr, ptr, ptr, ptr }
%"class.std::optional.276" = type { %"struct.std::_Optional_base.277" }
%"struct.std::_Optional_base.277" = type { %"struct.std::_Optional_payload.279" }
%"struct.std::_Optional_payload.279" = type { %"struct.std::_Optional_payload.base.283", [7 x i8] }
%"struct.std::_Optional_payload.base.283" = type { %"struct.std::_Optional_payload_base.base.282" }
%"struct.std::_Optional_payload_base.base.282" = type <{ %"union.std::_Optional_payload_base<grpc_core::(anonymous namespace)::RbacConfig::RbacPolicy::Rules::Policy::SafeRegexMatch>::_Storage", i8 }>
%"union.std::_Optional_payload_base<grpc_core::(anonymous namespace)::RbacConfig::RbacPolicy::Rules::Policy::SafeRegexMatch>::_Storage" = type { %"struct.grpc_core::(anonymous namespace)::RbacConfig::RbacPolicy::Rules::Policy::SafeRegexMatch" }
%"struct.grpc_core::(anonymous namespace)::RbacConfig::RbacPolicy::Rules::Policy::SafeRegexMatch" = type { %"class.std::__cxx11::basic_string" }
%"class.absl::lts_20230802::StatusOr" = type { %"class.absl::lts_20230802::internal_statusor::StatusOrData" }
%"class.absl::lts_20230802::internal_statusor::StatusOrData" = type { %union.anon.286, %union.anon.287 }
%union.anon.286 = type { %"class.absl::lts_20230802::Status" }
%"class.absl::lts_20230802::Status" = type { i64 }
%union.anon.287 = type { %"class.grpc_core::StringMatcher" }
%"class.grpc_core::ValidationErrors::ScopedField" = type { ptr }
%"class.absl::lts_20230802::AlphaNum" = type { %"class.std::basic_string_view", [32 x i8] }
%"class.std::basic_string_view" = type { i64, ptr }
%"class.std::optional.288" = type { %"struct.std::_Optional_base.289" }
%"struct.std::_Optional_base.289" = type { %"struct.std::_Optional_payload.291" }
%"struct.std::_Optional_payload.291" = type { %"struct.std::_Optional_payload.base.295", [7 x i8] }
%"struct.std::_Optional_payload.base.295" = type { %"struct.std::_Optional_payload_base.base.294" }
%"struct.std::_Optional_payload_base.base.294" = type <{ %"union.std::_Optional_payload_base<std::__cxx11::basic_string<char>>::_Storage", i8 }>
%"union.std::_Optional_payload_base<std::__cxx11::basic_string<char>>::_Storage" = type { %"class.std::__cxx11::basic_string" }
%"class.std::optional.311" = type { %"struct.std::_Optional_base.312" }
%"struct.std::_Optional_base.312" = type { %"struct.std::_Optional_payload.314" }
%"struct.std::_Optional_payload.314" = type { %"struct.std::_Optional_payload.base.318", [7 x i8] }
%"struct.std::_Optional_payload.base.318" = type { %"struct.std::_Optional_payload_base.base.317" }
%"struct.std::_Optional_payload_base.base.317" = type { %"union.std::_Optional_payload_base<grpc_core::(anonymous namespace)::RbacConfig::RbacPolicy::Rules::Policy::HeaderMatch>::_Storage", i8 }
%"union.std::_Optional_payload_base<grpc_core::(anonymous namespace)::RbacConfig::RbacPolicy::Rules::Policy::HeaderMatch>::_Storage" = type { %"struct.grpc_core::(anonymous namespace)::RbacConfig::RbacPolicy::Rules::Policy::HeaderMatch" }
%"struct.grpc_core::(anonymous namespace)::RbacConfig::RbacPolicy::Rules::Policy::HeaderMatch" = type { %"class.grpc_core::HeaderMatcher" }
%"class.std::optional.321" = type { %"struct.std::_Optional_base.322" }
%"struct.std::_Optional_base.322" = type { %"struct.std::_Optional_payload.324" }
%"struct.std::_Optional_payload.324" = type { %"struct.std::_Optional_payload.base.328", [7 x i8] }
%"struct.std::_Optional_payload.base.328" = type { %"struct.std::_Optional_payload_base.base.327" }
%"struct.std::_Optional_payload_base.base.327" = type { %"union.std::_Optional_payload_base<grpc_core::(anonymous namespace)::RbacConfig::RbacPolicy::Rules::Policy::PathMatch>::_Storage", i8 }
%"union.std::_Optional_payload_base<grpc_core::(anonymous namespace)::RbacConfig::RbacPolicy::Rules::Policy::PathMatch>::_Storage" = type { %"struct.grpc_core::(anonymous namespace)::RbacConfig::RbacPolicy::Rules::Policy::PathMatch" }
%"struct.grpc_core::(anonymous namespace)::RbacConfig::RbacPolicy::Rules::Policy::PathMatch" = type { %"struct.grpc_core::(anonymous namespace)::RbacConfig::RbacPolicy::Rules::Policy::StringMatch" }
%"struct.grpc_core::(anonymous namespace)::RbacConfig::RbacPolicy::Rules::Policy::StringMatch" = type { %"class.grpc_core::StringMatcher" }
%"class.std::optional.331" = type { %"struct.std::_Optional_base.332" }
%"struct.std::_Optional_base.332" = type { %"struct.std::_Optional_payload.334" }
%"struct.std::_Optional_payload.334" = type { %"struct.std::_Optional_payload.base.338", [7 x i8] }
%"struct.std::_Optional_payload.base.338" = type { %"struct.std::_Optional_payload_base.base.337" }
%"struct.std::_Optional_payload_base.base.337" = type { %"union.std::_Optional_payload_base<grpc_core::(anonymous namespace)::RbacConfig::RbacPolicy::Rules::Policy::CidrRange>::_Storage", i8 }
%"union.std::_Optional_payload_base<grpc_core::(anonymous namespace)::RbacConfig::RbacPolicy::Rules::Policy::CidrRange>::_Storage" = type { %"struct.grpc_core::(anonymous namespace)::RbacConfig::RbacPolicy::Rules::Policy::CidrRange" }
%"struct.grpc_core::(anonymous namespace)::RbacConfig::RbacPolicy::Rules::Policy::CidrRange" = type { %"struct.grpc_core::Rbac::CidrRange" }
%"class.std::optional.355" = type { %"struct.std::_Optional_base.356" }
%"struct.std::_Optional_base.356" = type { %"struct.std::_Optional_payload.358" }
%"struct.std::_Optional_payload.358" = type { %"struct.std::_Optional_payload.base.362", [7 x i8] }
%"struct.std::_Optional_payload.base.362" = type { %"struct.std::_Optional_payload_base.base.361" }
%"struct.std::_Optional_payload_base.base.361" = type { %"union.std::_Optional_payload_base<grpc_core::(anonymous namespace)::RbacConfig::RbacPolicy::Rules::Policy::StringMatch>::_Storage", i8 }
%"union.std::_Optional_payload_base<grpc_core::(anonymous namespace)::RbacConfig::RbacPolicy::Rules::Policy::StringMatch>::_Storage" = type { %"struct.grpc_core::(anonymous namespace)::RbacConfig::RbacPolicy::Rules::Policy::StringMatch" }
%"class.std::optional.365" = type { %"struct.std::_Optional_base.366" }
%"struct.std::_Optional_base.366" = type { %"struct.std::_Optional_payload.368" }
%"struct.std::_Optional_payload.368" = type { %"struct.std::_Optional_payload.base.372", [7 x i8] }
%"struct.std::_Optional_payload.base.372" = type { %"struct.std::_Optional_payload_base.base.371" }
%"struct.std::_Optional_payload_base.base.371" = type <{ %"union.std::_Optional_payload_base<grpc_core::(anonymous namespace)::RbacConfig::RbacPolicy::Rules::Policy::Permission::PermissionList>::_Storage", i8 }>
%"union.std::_Optional_payload_base<grpc_core::(anonymous namespace)::RbacConfig::RbacPolicy::Rules::Policy::Permission::PermissionList>::_Storage" = type { %"struct.grpc_core::(anonymous namespace)::RbacConfig::RbacPolicy::Rules::Policy::Permission::PermissionList" }
%"struct.grpc_core::(anonymous namespace)::RbacConfig::RbacPolicy::Rules::Policy::Permission::PermissionList" = type { %"class.std::vector.212" }
%"class.std::optional.375" = type { %"struct.std::_Optional_base.376" }
%"struct.std::_Optional_base.376" = type { %"struct.std::_Optional_payload.378" }
%"struct.std::_Optional_payload.378" = type { %"struct.std::_Optional_payload.base.382", [7 x i8] }
%"struct.std::_Optional_payload.base.382" = type { %"struct.std::_Optional_payload_base.base.381" }
%"struct.std::_Optional_payload_base.base.381" = type <{ %"union.std::_Optional_payload_base<grpc_core::(anonymous namespace)::RbacConfig::RbacPolicy::Rules::Policy::Permission>::_Storage", i8 }>
%"union.std::_Optional_payload_base<grpc_core::(anonymous namespace)::RbacConfig::RbacPolicy::Rules::Policy::Permission>::_Storage" = type { %"struct.grpc_core::(anonymous namespace)::RbacConfig::RbacPolicy::Rules::Policy::Permission" }
%"struct.grpc_core::(anonymous namespace)::RbacConfig::RbacPolicy::Rules::Policy::Permission" = type { %"class.std::unique_ptr.200" }
%"struct.grpc_core::(anonymous namespace)::RbacConfig::RbacPolicy::Rules::Policy::Metadata" = type { i8 }
%class.anon.393 = type { ptr, ptr }
%class.anon.394 = type { ptr, ptr, ptr, ptr, ptr, ptr }
%"class.absl::lts_20230802::StatusOr.395" = type { %"class.absl::lts_20230802::internal_statusor::StatusOrData.396" }
%"class.absl::lts_20230802::internal_statusor::StatusOrData.396" = type { %union.anon.397, %union.anon.398 }
%union.anon.397 = type { %"class.absl::lts_20230802::Status" }
%union.anon.398 = type { %"class.grpc_core::HeaderMatcher" }
%"class.std::optional.403" = type { %"struct.std::_Optional_base.404" }
%"struct.std::_Optional_base.404" = type { %"struct.std::_Optional_payload.406" }
%"struct.std::_Optional_payload.406" = type { %"struct.std::_Optional_payload_base.base.408", [7 x i8] }
%"struct.std::_Optional_payload_base.base.408" = type <{ %"union.std::_Optional_payload_base<grpc_core::(anonymous namespace)::RbacConfig::RbacPolicy::Rules::Policy::HeaderMatch::RangeMatch>::_Storage", i8 }>
%"union.std::_Optional_payload_base<grpc_core::(anonymous namespace)::RbacConfig::RbacPolicy::Rules::Policy::HeaderMatch::RangeMatch>::_Storage" = type { %"struct.grpc_core::(anonymous namespace)::RbacConfig::RbacPolicy::Rules::Policy::HeaderMatch::RangeMatch" }
%"struct.grpc_core::(anonymous namespace)::RbacConfig::RbacPolicy::Rules::Policy::HeaderMatch::RangeMatch" = type { i64, i64 }
%"struct.grpc_core::(anonymous namespace)::RbacConfig::RbacPolicy::Rules::Policy::Principal::Authenticated" = type { %"class.std::optional.355" }
%"class.std::optional.425" = type { %"struct.std::_Optional_base.426" }
%"struct.std::_Optional_base.426" = type { %"struct.std::_Optional_payload.428" }
%"struct.std::_Optional_payload.428" = type { %"struct.std::_Optional_payload.base.432", [7 x i8] }
%"struct.std::_Optional_payload.base.432" = type { %"struct.std::_Optional_payload_base.base.431" }
%"struct.std::_Optional_payload_base.base.431" = type { %"union.std::_Optional_payload_base<grpc_core::(anonymous namespace)::RbacConfig::RbacPolicy::Rules::Policy::Principal::Authenticated>::_Storage", i8 }
%"union.std::_Optional_payload_base<grpc_core::(anonymous namespace)::RbacConfig::RbacPolicy::Rules::Policy::Principal::Authenticated>::_Storage" = type { %"struct.grpc_core::(anonymous namespace)::RbacConfig::RbacPolicy::Rules::Policy::Principal::Authenticated" }
%"class.std::optional.435" = type { %"struct.std::_Optional_base.436" }
%"struct.std::_Optional_base.436" = type { %"struct.std::_Optional_payload.438" }
%"struct.std::_Optional_payload.438" = type { %"struct.std::_Optional_payload.base.442", [7 x i8] }
%"struct.std::_Optional_payload.base.442" = type { %"struct.std::_Optional_payload_base.base.441" }
%"struct.std::_Optional_payload_base.base.441" = type <{ %"union.std::_Optional_payload_base<grpc_core::(anonymous namespace)::RbacConfig::RbacPolicy::Rules::Policy::Principal::PrincipalList>::_Storage", i8 }>
%"union.std::_Optional_payload_base<grpc_core::(anonymous namespace)::RbacConfig::RbacPolicy::Rules::Policy::Principal::PrincipalList>::_Storage" = type { %"struct.grpc_core::(anonymous namespace)::RbacConfig::RbacPolicy::Rules::Policy::Principal::PrincipalList" }
%"struct.grpc_core::(anonymous namespace)::RbacConfig::RbacPolicy::Rules::Policy::Principal::PrincipalList" = type { %"class.std::vector.217" }
%"class.std::optional.445" = type { %"struct.std::_Optional_base.446" }
%"struct.std::_Optional_base.446" = type { %"struct.std::_Optional_payload.448" }
%"struct.std::_Optional_payload.448" = type { %"struct.std::_Optional_payload.base.452", [7 x i8] }
%"struct.std::_Optional_payload.base.452" = type { %"struct.std::_Optional_payload_base.base.451" }
%"struct.std::_Optional_payload_base.base.451" = type <{ %"union.std::_Optional_payload_base<grpc_core::(anonymous namespace)::RbacConfig::RbacPolicy::Rules::Policy::Principal>::_Storage", i8 }>
%"union.std::_Optional_payload_base<grpc_core::(anonymous namespace)::RbacConfig::RbacPolicy::Rules::Policy::Principal>::_Storage" = type { %"struct.grpc_core::(anonymous namespace)::RbacConfig::RbacPolicy::Rules::Policy::Principal" }
%"struct.grpc_core::(anonymous namespace)::RbacConfig::RbacPolicy::Rules::Policy::Principal" = type { %"class.std::unique_ptr.188" }
%"struct.grpc_core::(anonymous namespace)::RbacConfig::RbacPolicy::Rules::Policy" = type { %"class.std::vector.212", %"class.std::vector.217" }
%"class.std::optional.488" = type { %"struct.std::_Optional_base.489" }
%"struct.std::_Optional_base.489" = type { %"struct.std::_Optional_payload.491" }
%"struct.std::_Optional_payload.491" = type { %"struct.std::_Optional_payload.base.495", [7 x i8] }
%"struct.std::_Optional_payload.base.495" = type { %"struct.std::_Optional_payload_base.base.494" }
%"struct.std::_Optional_payload_base.base.494" = type <{ %"union.std::_Optional_payload_base<std::map<std::__cxx11::basic_string<char>, grpc_core::experimental::Json>>::_Storage", i8 }>
%"union.std::_Optional_payload_base<std::map<std::__cxx11::basic_string<char>, grpc_core::experimental::Json>>::_Storage" = type { %"class.std::map.270" }
%"class.std::map.270" = type { %"class.std::_Rb_tree.271" }
%"class.std::_Rb_tree.271" = type { %"struct.std::_Rb_tree<std::__cxx11::basic_string<char>, std::pair<const std::__cxx11::basic_string<char>, grpc_core::experimental::Json>, std::_Select1st<std::pair<const std::__cxx11::basic_string<char>, grpc_core::experimental::Json>>, std::less<std::__cxx11::basic_string<char>>>::_Rb_tree_impl" }
%"struct.std::_Rb_tree<std::__cxx11::basic_string<char>, std::pair<const std::__cxx11::basic_string<char>, grpc_core::experimental::Json>, std::_Select1st<std::pair<const std::__cxx11::basic_string<char>, grpc_core::experimental::Json>>, std::less<std::__cxx11::basic_string<char>>>::_Rb_tree_impl" = type { %"struct.std::_Rb_tree_key_compare.143", %"struct.std::_Rb_tree_header" }
%class.anon.500 = type { i8 }
%"struct.grpc_core::(anonymous namespace)::RbacConfig::RbacPolicy::Rules::AuditLogger" = type { %"class.std::__cxx11::basic_string", %"class.std::map.270" }
%"class.std::vector.509" = type { %"struct.std::_Vector_base.510" }
%"struct.std::_Vector_base.510" = type { %"struct.std::_Vector_base<grpc_core::(anonymous namespace)::RbacConfig::RbacPolicy::Rules::AuditLogger, std::allocator<grpc_core::(anonymous namespace)::RbacConfig::RbacPolicy::Rules::AuditLogger>>::_Vector_impl" }
%"struct.std::_Vector_base<grpc_core::(anonymous namespace)::RbacConfig::RbacPolicy::Rules::AuditLogger, std::allocator<grpc_core::(anonymous namespace)::RbacConfig::RbacPolicy::Rules::AuditLogger>>::_Vector_impl" = type { %"struct.std::_Vector_base<grpc_core::(anonymous namespace)::RbacConfig::RbacPolicy::Rules::AuditLogger, std::allocator<grpc_core::(anonymous namespace)::RbacConfig::RbacPolicy::Rules::AuditLogger>>::_Vector_impl_data" }
%"struct.std::_Vector_base<grpc_core::(anonymous namespace)::RbacConfig::RbacPolicy::Rules::AuditLogger, std::allocator<grpc_core::(anonymous namespace)::RbacConfig::RbacPolicy::Rules::AuditLogger>>::_Vector_impl_data" = type { ptr, ptr, ptr }
%"class.std::optional.528" = type { %"struct.std::_Optional_base.529" }
%"struct.std::_Optional_base.529" = type { %"struct.std::_Optional_payload.531" }
%"struct.std::_Optional_payload.531" = type { %"struct.std::_Optional_payload.base.535", [7 x i8] }
%"struct.std::_Optional_payload.base.535" = type { %"struct.std::_Optional_payload_base.base.534" }
%"struct.std::_Optional_payload_base.base.534" = type <{ %"union.std::_Optional_payload_base<std::vector<grpc_core::(anonymous namespace)::RbacConfig::RbacPolicy::Rules::AuditLogger>>::_Storage", i8 }>
%"union.std::_Optional_payload_base<std::vector<grpc_core::(anonymous namespace)::RbacConfig::RbacPolicy::Rules::AuditLogger>>::_Storage" = type { %"class.std::vector.509" }
%"class.absl::lts_20230802::StatusOr.538" = type { %"class.absl::lts_20230802::internal_statusor::StatusOrData.539" }
%"class.absl::lts_20230802::internal_statusor::StatusOrData.539" = type { %union.anon.540, %union.anon.541 }
%union.anon.540 = type { %"class.absl::lts_20230802::Status" }
%union.anon.541 = type { %"class.std::unique_ptr.235" }
%"class.std::unique_ptr.235" = type { %"struct.std::__uniq_ptr_data.236" }
%"struct.std::__uniq_ptr_data.236" = type { %"class.std::__uniq_ptr_impl.237" }
%"class.std::__uniq_ptr_impl.237" = type { %"class.std::tuple.238" }
%"class.std::tuple.238" = type { %"struct.std::_Tuple_impl.239" }
%"struct.std::_Tuple_impl.239" = type { %"struct.std::_Head_base.242" }
%"struct.std::_Head_base.242" = type { ptr }
%"class.grpc_core::experimental::Json" = type { %"class.std::variant" }
%"class.std::variant" = type { %"struct.std::__detail::__variant::_Variant_base.base", [7 x i8] }
%"struct.std::__detail::__variant::_Variant_base.base" = type { %"struct.std::__detail::__variant::_Move_assign_base.base" }
%"struct.std::__detail::__variant::_Move_assign_base.base" = type { %"struct.std::__detail::__variant::_Copy_assign_base.base" }
%"struct.std::__detail::__variant::_Copy_assign_base.base" = type { %"struct.std::__detail::__variant::_Move_ctor_base.base" }
%"struct.std::__detail::__variant::_Move_ctor_base.base" = type { %"struct.std::__detail::__variant::_Copy_ctor_base.base" }
%"struct.std::__detail::__variant::_Copy_ctor_base.base" = type { %"struct.std::__detail::__variant::_Variant_storage.base" }
%"struct.std::__detail::__variant::_Variant_storage.base" = type { %"union.std::__detail::__variant::_Variadic_union", i8 }
%"union.std::__detail::__variant::_Variadic_union" = type { %"union.std::__detail::__variant::_Variadic_union.2" }
%"union.std::__detail::__variant::_Variadic_union.2" = type { %"union.std::__detail::__variant::_Variadic_union.4" }
%"union.std::__detail::__variant::_Variadic_union.4" = type { %"union.std::__detail::__variant::_Variadic_union.6" }
%"union.std::__detail::__variant::_Variadic_union.6" = type { %"union.std::__detail::__variant::_Variadic_union.9" }
%"union.std::__detail::__variant::_Variadic_union.9" = type { %"struct.std::__detail::__variant::_Uninitialized.10" }
%"struct.std::__detail::__variant::_Uninitialized.10" = type { %"struct.__gnu_cxx::__aligned_membuf.11" }
%"struct.__gnu_cxx::__aligned_membuf.11" = type { [48 x i8] }
%"struct.grpc_core::(anonymous namespace)::RbacConfig::RbacPolicy" = type { %"class.std::optional.132" }
%"class.std::optional.132" = type { %"struct.std::_Optional_base.133" }
%"struct.std::_Optional_base.133" = type { %"struct.std::_Optional_payload.135" }
%"struct.std::_Optional_payload.135" = type { %"struct.std::_Optional_payload.base", [7 x i8] }
%"struct.std::_Optional_payload.base" = type { %"struct.std::_Optional_payload_base.base" }
%"struct.std::_Optional_payload_base.base" = type <{ %"union.std::_Optional_payload_base<grpc_core::(anonymous namespace)::RbacConfig::RbacPolicy::Rules>::_Storage", i8 }>
%"union.std::_Optional_payload_base<grpc_core::(anonymous namespace)::RbacConfig::RbacPolicy::Rules>::_Storage" = type { %"struct.grpc_core::(anonymous namespace)::RbacConfig::RbacPolicy::Rules" }
%"struct.grpc_core::(anonymous namespace)::RbacConfig::RbacPolicy::Rules" = type { i32, %"class.std::map.138", i32, %"class.std::vector.146" }
%"class.std::map.138" = type { %"class.std::_Rb_tree.139" }
%"class.std::_Rb_tree.139" = type { %"struct.std::_Rb_tree<std::__cxx11::basic_string<char>, std::pair<const std::__cxx11::basic_string<char>, grpc_core::(anonymous namespace)::RbacConfig::RbacPolicy::Rules::Policy>, std::_Select1st<std::pair<const std::__cxx11::basic_string<char>, grpc_core::(anonymous namespace)::RbacConfig::RbacPolicy::Rules::Policy>>, std::less<std::__cxx11::basic_string<char>>>::_Rb_tree_impl" }
%"struct.std::_Rb_tree<std::__cxx11::basic_string<char>, std::pair<const std::__cxx11::basic_string<char>, grpc_core::(anonymous namespace)::RbacConfig::RbacPolicy::Rules::Policy>, std::_Select1st<std::pair<const std::__cxx11::basic_string<char>, grpc_core::(anonymous namespace)::RbacConfig::RbacPolicy::Rules::Policy>>, std::less<std::__cxx11::basic_string<char>>>::_Rb_tree_impl" = type { %"struct.std::_Rb_tree_key_compare.143", %"struct.std::_Rb_tree_header" }
%"class.grpc_core::GrpcAuthorizationEngine" = type { %"class.grpc_core::AuthorizationEngine", %"class.std::__cxx11::basic_string", i32, %"class.std::vector.565", i32, %"class.std::vector.570" }
%"class.grpc_core::AuthorizationEngine" = type { %"class.grpc_core::RefCounted" }
%"class.grpc_core::RefCounted" = type { %"class.grpc_core::PolymorphicRefCount", %"class.grpc_core::RefCount" }
%"class.grpc_core::PolymorphicRefCount" = type { ptr }
%"class.grpc_core::RefCount" = type { %"struct.std::atomic.563" }
%"struct.std::atomic.563" = type { %"struct.std::__atomic_base.564" }
%"struct.std::__atomic_base.564" = type { i64 }
%"class.std::vector.565" = type { %"struct.std::_Vector_base.566" }
%"struct.std::_Vector_base.566" = type { %"struct.std::_Vector_base<grpc_core::GrpcAuthorizationEngine::Policy, std::allocator<grpc_core::GrpcAuthorizationEngine::Policy>>::_Vector_impl" }
%"struct.std::_Vector_base<grpc_core::GrpcAuthorizationEngine::Policy, std::allocator<grpc_core::GrpcAuthorizationEngine::Policy>>::_Vector_impl" = type { %"struct.std::_Vector_base<grpc_core::GrpcAuthorizationEngine::Policy, std::allocator<grpc_core::GrpcAuthorizationEngine::Policy>>::_Vector_impl_data" }
%"struct.std::_Vector_base<grpc_core::GrpcAuthorizationEngine::Policy, std::allocator<grpc_core::GrpcAuthorizationEngine::Policy>>::_Vector_impl_data" = type { ptr, ptr, ptr }
%"class.std::vector.570" = type { %"struct.std::_Vector_base.571" }
%"struct.std::_Vector_base.571" = type { %"struct.std::_Vector_base<std::unique_ptr<grpc_core::experimental::AuditLogger>, std::allocator<std::unique_ptr<grpc_core::experimental::AuditLogger>>>::_Vector_impl" }
%"struct.std::_Vector_base<std::unique_ptr<grpc_core::experimental::AuditLogger>, std::allocator<std::unique_ptr<grpc_core::experimental::AuditLogger>>>::_Vector_impl" = type { %"struct.std::_Vector_base<std::unique_ptr<grpc_core::experimental::AuditLogger>, std::allocator<std::unique_ptr<grpc_core::experimental::AuditLogger>>>::_Vector_impl_data" }
%"struct.std::_Vector_base<std::unique_ptr<grpc_core::experimental::AuditLogger>, std::allocator<std::unique_ptr<grpc_core::experimental::AuditLogger>>>::_Vector_impl_data" = type { ptr, ptr, ptr }

$_ZN9grpc_core8JsonArgsD2Ev = comdat any

$_ZSt11make_uniqueIN9grpc_core22RbacMethodParsedConfigEJSt6vectorINS0_4RbacESaIS3_EEEENSt8__detail9_MakeUniqIT_E15__single_objectEDpOT0_ = comdat any

$_ZNSt6vectorIN9grpc_core4RbacESaIS1_EED2Ev = comdat any

$_ZN9grpc_core23RbacServiceConfigParserD2Ev = comdat any

$_ZN9grpc_core23RbacServiceConfigParserD0Ev = comdat any

$_ZNK9grpc_core23RbacServiceConfigParser4nameEv = comdat any

$_ZN9grpc_core19ServiceConfigParser6Parser17ParseGlobalParamsERKNS_11ChannelArgsERKNS_12experimental4JsonEPNS_16ValidationErrorsE = comdat any

$_ZN9grpc_core19NoDestructSingletonINS_14promise_detail10UnwakeableEE6value_E = comdat any

$_ZN9grpc_core19NoDestructSingletonINS_11json_detail10AutoLoaderINSt7__cxx1112basic_stringIcSt11char_traitsIcESaIcEEEEEE6value_E = comdat any

$_ZN9grpc_core19NoDestructSingletonINS_11json_detail10AutoLoaderIjEEE6value_E = comdat any

$_ZN9grpc_core19NoDestructSingletonINS_11json_detail10AutoLoaderIlEEE6value_E = comdat any

$_ZN9grpc_core19NoDestructSingletonINS_11json_detail10AutoLoaderIbEEE6value_E = comdat any

$_ZN9grpc_core19NoDestructSingletonINS_11json_detail10AutoLoaderISt3mapINSt7__cxx1112basic_stringIcSt11char_traitsIcESaIcEEENS_12experimental4JsonESt4lessIS9_ESaISt4pairIKS9_SB_EEEEEE6value_E = comdat any

$_ZN9grpc_core19NoDestructSingletonINS_11json_detail10AutoLoaderIiEEE6value_E = comdat any

$__clang_call_terminate = comdat any

$_ZN9grpc_core8JsonArgsD0Ev = comdat any

$_ZNK9grpc_core8JsonArgs9IsEnabledESt17basic_string_viewIcSt11char_traitsIcEE = comdat any

$_ZN9grpc_core4RbacD2Ev = comdat any

$_ZSt14__relocate_a_1IPN9grpc_core4RbacES2_SaIS1_EET0_T_S5_S4_RT1_ = comdat any

$_ZNSt6vectorIN9grpc_core4RbacESaIS1_EE17_M_realloc_insertIJS1_EEEvN9__gnu_cxx17__normal_iteratorIPS1_S3_EEDpOT_ = comdat any

$_ZNSt3mapINSt7__cxx1112basic_stringIcSt11char_traitsIcESaIcEEEN9grpc_core4Rbac6PolicyESt4lessIS5_ESaISt4pairIKS5_S8_EEED2Ev = comdat any

$_ZNSt7__cxx1112basic_stringIcSt11char_traitsIcESaIcEE12_M_constructIPKcEEvT_S8_St20forward_iterator_tag = comdat any

$_ZZNSt7__cxx1112basic_stringIcSt11char_traitsIcESaIcEE12_M_constructIPKcEEvT_S8_St20forward_iterator_tagEN6_GuardD2Ev = comdat any

$_ZNSt8_Rb_treeINSt7__cxx1112basic_stringIcSt11char_traitsIcESaIcEEESt4pairIKS5_N9grpc_core4Rbac6PolicyEESt10_Select1stISB_ESt4lessIS5_ESaISB_EE8_M_eraseEPSt13_Rb_tree_nodeISB_E = comdat any

$_ZN9grpc_core4Rbac9PrincipalD2Ev = comdat any

$_ZN9grpc_core4Rbac10PermissionD2Ev = comdat any

$_ZNSt6vectorISt10unique_ptrIN9grpc_core4Rbac9PrincipalESt14default_deleteIS3_EESaIS6_EED2Ev = comdat any

$_ZNSt8optionalIN9grpc_core13StringMatcherEED2Ev = comdat any

$_ZN9grpc_core13HeaderMatcherD2Ev = comdat any

$_ZNSt10unique_ptrIN9grpc_core4Rbac9PrincipalESt14default_deleteIS2_EED2Ev = comdat any

$_ZN9grpc_core13StringMatcherD2Ev = comdat any

$_ZNSt6vectorISt10unique_ptrIN9grpc_core4Rbac10PermissionESt14default_deleteIS3_EESaIS6_EED2Ev = comdat any

$_ZNSt10unique_ptrIN9grpc_core4Rbac10PermissionESt14default_deleteIS2_EED2Ev = comdat any

$_ZNSt8_Rb_treeINSt7__cxx1112basic_stringIcSt11char_traitsIcESaIcEEESt4pairIKS5_N9grpc_core4Rbac6PolicyEESt10_Select1stISB_ESt4lessIS5_ESaISB_EE29_M_get_insert_hint_unique_posESt23_Rb_tree_const_iteratorISB_ERS7_ = comdat any

$_ZNSt8_Rb_treeINSt7__cxx1112basic_stringIcSt11char_traitsIcESaIcEEESt4pairIKS5_N9grpc_core4Rbac6PolicyEESt10_Select1stISB_ESt4lessIS5_ESaISB_EE10_Auto_nodeD2Ev = comdat any

$_ZNSt6vectorISt10unique_ptrIN9grpc_core4Rbac10PermissionESt14default_deleteIS3_EESaIS6_EE17_M_realloc_insertIJS6_EEEvN9__gnu_cxx17__normal_iteratorIPS6_S8_EEDpOT_ = comdat any

$_ZNSt6vectorISt10unique_ptrIN9grpc_core4Rbac9PrincipalESt14default_deleteIS3_EESaIS6_EE17_M_realloc_insertIJS6_EEEvN9__gnu_cxx17__normal_iteratorIPS6_S8_EEDpOT_ = comdat any

$_ZNK9grpc_core11json_detail23TypedLoadUnsignedNumberIjE8LoadIntoERKNSt7__cxx1112basic_stringIcSt11char_traitsIcESaIcEEEPvPNS_16ValidationErrorsE = comdat any

$_ZNK9grpc_core11json_detail21TypedLoadSignedNumberIlE8LoadIntoERKNSt7__cxx1112basic_stringIcSt11char_traitsIcESaIcEEEPvPNS_16ValidationErrorsE = comdat any

$_ZN9grpc_core19LoadJsonObjectFieldIbEESt8optionalIT_ERKSt3mapINSt7__cxx1112basic_stringIcSt11char_traitsIcESaIcEEENS_12experimental4JsonESt4lessISA_ESaISt4pairIKSA_SC_EEERKNS_8JsonArgsESt17basic_string_viewIcS8_EPNS_16ValidationErrorsEb = comdat any

$_ZNK9grpc_core12experimental4Json6objectB5cxx11Ev = comdat any

$_ZN4absl12lts_202308028StatusOrIN9grpc_core13StringMatcherEED2Ev = comdat any

$_ZN9grpc_core16ValidationErrors11ScopedFieldD2Ev = comdat any

$_ZNSt18bad_variant_accessD2Ev = comdat any

$_ZNSt18bad_variant_accessD0Ev = comdat any

$_ZNKSt18bad_variant_access4whatEv = comdat any

$_ZN9grpc_core19LoadJsonObjectFieldINSt7__cxx1112basic_stringIcSt11char_traitsIcESaIcEEEEESt8optionalIT_ERKSt3mapIS6_NS_12experimental4JsonESt4lessIS6_ESaISt4pairIKS6_SC_EEERKNS_8JsonArgsESt17basic_string_viewIcS4_EPNS_16ValidationErrorsEb = comdat any

$_ZNSt10unique_ptrIN9grpc_core4Rbac10PermissionESt14default_deleteIS2_EEaSEOS5_ = comdat any

$_ZN9grpc_core19LoadJsonObjectFieldIjEESt8optionalIT_ERKSt3mapINSt7__cxx1112basic_stringIcSt11char_traitsIcESaIcEEENS_12experimental4JsonESt4lessISA_ESaISt4pairIKSA_SC_EEERKNS_8JsonArgsESt17basic_string_viewIcS8_EPNS_16ValidationErrorsEb = comdat any

$_ZNOSt8optionalINSt7__cxx1112basic_stringIcSt11char_traitsIcESaIcEEEE8value_orIRA1_KcEES5_OT_ = comdat any

$_ZN4absl12lts_202308028StatusOrIN9grpc_core13HeaderMatcherEED2Ev = comdat any

$_ZNKRSt8optionalINSt7__cxx1112basic_stringIcSt11char_traitsIcESaIcEEEE8value_orIRA1_KcEES5_OT_ = comdat any

$_ZNSt10unique_ptrIN9grpc_core4Rbac9PrincipalESt14default_deleteIS2_EEaSEOS5_ = comdat any

$_ZNK9grpc_core11json_detail21TypedLoadSignedNumberIiE8LoadIntoERKNSt7__cxx1112basic_stringIcSt11char_traitsIcESaIcEEEPvPNS_16ValidationErrorsE = comdat any

$_ZN9grpc_core19LoadJsonObjectFieldISt3mapINSt7__cxx1112basic_stringIcSt11char_traitsIcESaIcEEENS_12experimental4JsonESt4lessIS7_ESaISt4pairIKS7_S9_EEEEESt8optionalIT_ERKSG_RKNS_8JsonArgsESt17basic_string_viewIcS5_EPNS_16ValidationErrorsEb = comdat any

$_ZNSt3mapINSt7__cxx1112basic_stringIcSt11char_traitsIcESaIcEEEN9grpc_core12experimental4JsonESt4lessIS5_ESaISt4pairIKS5_S8_EEED2Ev = comdat any

$_ZNSt8_Rb_treeINSt7__cxx1112basic_stringIcSt11char_traitsIcESaIcEEESt4pairIKS5_N9grpc_core12experimental4JsonEESt10_Select1stISB_ESt4lessIS5_ESaISB_EE8_M_eraseEPSt13_Rb_tree_nodeISB_E = comdat any

$_ZN9grpc_core12experimental4JsonD2Ev = comdat any

$_ZSt10__do_visitIvZNSt8__detail9__variant16_Variant_storageILb0EJSt9monostatebN9grpc_core12experimental4Json11NumberValueENSt7__cxx1112basic_stringIcSt11char_traitsIcESaIcEEESt3mapISD_S6_St4lessISD_ESaISt4pairIKSD_S6_EEESt6vectorIS6_SaIS6_EEEE8_M_resetEvEUlOT_E_JRSt7variantIJS3_bS7_SD_SL_SO_EEEEDcOT0_DpOT1_ = comdat any

$_ZN9grpc_core19LoadJsonObjectFieldIiEESt8optionalIT_ERKSt3mapINSt7__cxx1112basic_stringIcSt11char_traitsIcESaIcEEENS_12experimental4JsonESt4lessISA_ESaISt4pairIKSA_SC_EEERKNS_8JsonArgsESt17basic_string_viewIcS8_EPNS_16ValidationErrorsEb = comdat any

$_ZN4absl12lts_202308028StatusOrISt10unique_ptrIN9grpc_core12experimental18AuditLoggerFactory6ConfigESt14default_deleteIS6_EEED2Ev = comdat any

$_ZNSt7variantIJSt9monostatebN9grpc_core12experimental4Json11NumberValueENSt7__cxx1112basic_stringIcSt11char_traitsIcESaIcEEESt3mapISA_S3_St4lessISA_ESaISt4pairIKSA_S3_EEESt6vectorIS3_SaIS3_EEEEaSISI_EENSt9enable_ifIXaaaa14__exactly_onceINSt9_Nth_typeIX16__accepted_indexIOT_EEJS0_bS4_SA_SI_SL_EE4typeEE18is_constructible_vIST_SQ_E15is_assignable_vIRST_SQ_EERSM_E4typeESR_ = comdat any

$_ZNSt6vectorIN9grpc_core23GrpcAuthorizationEngineESaIS1_EED2Ev = comdat any

$_ZN9grpc_core22RbacMethodParsedConfigD2Ev = comdat any

$_ZN9grpc_core22RbacMethodParsedConfigD0Ev = comdat any

$_ZNSt6vectorIN9grpc_core23GrpcAuthorizationEngineESaIS1_EE17_M_realloc_insertIJNS0_4RbacEEEEvN9__gnu_cxx17__normal_iteratorIPS1_S3_EEDpOT_ = comdat any

$_ZNSt15__new_allocatorIN9grpc_core23GrpcAuthorizationEngineEE9constructIS1_JNS0_4RbacEEEEvPT_DpOT0_ = comdat any

$_ZTSN9grpc_core19ServiceConfigParser6ParserE = comdat any

$_ZTIN9grpc_core19ServiceConfigParser6ParserE = comdat any

$_ZTVN9grpc_core8JsonArgsE = comdat any

$_ZTSN9grpc_core8JsonArgsE = comdat any

$_ZTIN9grpc_core8JsonArgsE = comdat any

$_ZTVN9grpc_core11json_detail10AutoLoaderINSt7__cxx1112basic_stringIcSt11char_traitsIcESaIcEEEEE = comdat any

$_ZTSN9grpc_core11json_detail10AutoLoaderINSt7__cxx1112basic_stringIcSt11char_traitsIcESaIcEEEEE = comdat any

$_ZTIN9grpc_core11json_detail10AutoLoaderINSt7__cxx1112basic_stringIcSt11char_traitsIcESaIcEEEEE = comdat any

$_ZTSN9grpc_core11json_detail15LoaderInterfaceE = comdat any

$_ZTIN9grpc_core11json_detail15LoaderInterfaceE = comdat any

$_ZTVN9grpc_core11json_detail10AutoLoaderIjEE = comdat any

$_ZTSN9grpc_core11json_detail10AutoLoaderIjEE = comdat any

$_ZTSN9grpc_core11json_detail23TypedLoadUnsignedNumberIjEE = comdat any

$_ZTIN9grpc_core11json_detail23TypedLoadUnsignedNumberIjEE = comdat any

$_ZTIN9grpc_core11json_detail10AutoLoaderIjEE = comdat any

$_ZTVN9grpc_core11json_detail10AutoLoaderIlEE = comdat any

$_ZTSN9grpc_core11json_detail10AutoLoaderIlEE = comdat any

$_ZTSN9grpc_core11json_detail21TypedLoadSignedNumberIlEE = comdat any

$_ZTIN9grpc_core11json_detail21TypedLoadSignedNumberIlEE = comdat any

$_ZTIN9grpc_core11json_detail10AutoLoaderIlEE = comdat any

$_ZTVN9grpc_core11json_detail10AutoLoaderIbEE = comdat any

$_ZTSN9grpc_core11json_detail10AutoLoaderIbEE = comdat any

$_ZTIN9grpc_core11json_detail10AutoLoaderIbEE = comdat any

$_ZTSSt18bad_variant_access = comdat any

$_ZTISt18bad_variant_access = comdat any

$_ZTVSt18bad_variant_access = comdat any

$_ZN4absl12lts_202308026Status16kMovedFromStringE = comdat any

$_ZTVN9grpc_core11json_detail10AutoLoaderISt3mapINSt7__cxx1112basic_stringIcSt11char_traitsIcESaIcEEENS_12experimental4JsonESt4lessIS8_ESaISt4pairIKS8_SA_EEEEE = comdat any

$_ZTSN9grpc_core11json_detail10AutoLoaderISt3mapINSt7__cxx1112basic_stringIcSt11char_traitsIcESaIcEEENS_12experimental4JsonESt4lessIS8_ESaISt4pairIKS8_SA_EEEEE = comdat any

$_ZTIN9grpc_core11json_detail10AutoLoaderISt3mapINSt7__cxx1112basic_stringIcSt11char_traitsIcESaIcEEENS_12experimental4JsonESt4lessIS8_ESaISt4pairIKS8_SA_EEEEE = comdat any

$_ZTVN9grpc_core11json_detail10AutoLoaderIiEE = comdat any

$_ZTSN9grpc_core11json_detail10AutoLoaderIiEE = comdat any

$_ZTSN9grpc_core11json_detail21TypedLoadSignedNumberIiEE = comdat any

$_ZTIN9grpc_core11json_detail21TypedLoadSignedNumberIiEE = comdat any

$_ZTIN9grpc_core11json_detail10AutoLoaderIiEE = comdat any

$_ZTVN9grpc_core22RbacMethodParsedConfigE = comdat any

$_ZTSN9grpc_core22RbacMethodParsedConfigE = comdat any

$_ZTSN9grpc_core19ServiceConfigParser12ParsedConfigE = comdat any

$_ZTIN9grpc_core19ServiceConfigParser12ParsedConfigE = comdat any

$_ZTIN9grpc_core22RbacMethodParsedConfigE = comdat any

@_ZStL8__ioinit = internal global %"class.std::ios_base::Init" zeroinitializer, align 1
@__dso_handle = external hidden global i8
@.str = private unnamed_addr constant [39 x i8] c"grpc.internal.parse_rbac_method_config\00", align 1
@_ZTVN9grpc_core23RbacServiceConfigParserE = unnamed_addr constant { [7 x ptr] } { [7 x ptr] [ptr null, ptr @_ZTIN9grpc_core23RbacServiceConfigParserE, ptr @_ZN9grpc_core23RbacServiceConfigParserD2Ev, ptr @_ZN9grpc_core23RbacServiceConfigParserD0Ev, ptr @_ZNK9grpc_core23RbacServiceConfigParser4nameEv, ptr @_ZN9grpc_core19ServiceConfigParser6Parser17ParseGlobalParamsERKNS_11ChannelArgsERKNS_12experimental4JsonEPNS_16ValidationErrorsE, ptr @_ZN9grpc_core23RbacServiceConfigParser20ParsePerMethodParamsERKNS_11ChannelArgsERKNS_12experimental4JsonEPNS_16ValidationErrorsE] }, align 8
@_ZTVN10__cxxabiv120__si_class_type_infoE = external global [0 x ptr]
@_ZTSN9grpc_core23RbacServiceConfigParserE = constant [38 x i8] c"N9grpc_core23RbacServiceConfigParserE\00", align 1
@_ZTVN10__cxxabiv117__class_type_infoE = external global [0 x ptr]
@_ZTSN9grpc_core19ServiceConfigParser6ParserE = linkonce_odr constant [41 x i8] c"N9grpc_core19ServiceConfigParser6ParserE\00", comdat, align 1
@_ZTIN9grpc_core19ServiceConfigParser6ParserE = linkonce_odr constant { ptr, ptr } { ptr getelementptr inbounds (ptr, ptr @_ZTVN10__cxxabiv117__class_type_infoE, i64 2), ptr @_ZTSN9grpc_core19ServiceConfigParser6ParserE }, comdat, align 8
@_ZTIN9grpc_core23RbacServiceConfigParserE = constant { ptr, ptr, ptr } { ptr getelementptr inbounds (ptr, ptr @_ZTVN10__cxxabiv120__si_class_type_infoE, i64 2), ptr @_ZTSN9grpc_core23RbacServiceConfigParserE, ptr @_ZTIN9grpc_core19ServiceConfigParser6ParserE }, align 8
@_ZN9grpc_core19NoDestructSingletonINS_14promise_detail10UnwakeableEE6value_E = linkonce_odr global %"class.grpc_core::NoDestruct" zeroinitializer, comdat, align 8
@_ZGVN9grpc_core19NoDestructSingletonINS_14promise_detail10UnwakeableEE6value_E = linkonce_odr local_unnamed_addr global i64 0, comdat($_ZN9grpc_core19NoDestructSingletonINS_14promise_detail10UnwakeableEE6value_E), align 8
@_ZN9grpc_core19NoDestructSingletonINS_11json_detail10AutoLoaderINSt7__cxx1112basic_stringIcSt11char_traitsIcESaIcEEEEEE6value_E = linkonce_odr global %"class.grpc_core::NoDestruct.102" zeroinitializer, comdat, align 8
@_ZGVN9grpc_core19NoDestructSingletonINS_11json_detail10AutoLoaderINSt7__cxx1112basic_stringIcSt11char_traitsIcESaIcEEEEEE6value_E = linkonce_odr local_unnamed_addr global i64 0, comdat($_ZN9grpc_core19NoDestructSingletonINS_11json_detail10AutoLoaderINSt7__cxx1112basic_stringIcSt11char_traitsIcESaIcEEEEEE6value_E), align 8
@_ZN9grpc_core19NoDestructSingletonINS_11json_detail10AutoLoaderIjEEE6value_E = linkonce_odr global %"class.grpc_core::NoDestruct.103" zeroinitializer, comdat, align 8
@_ZGVN9grpc_core19NoDestructSingletonINS_11json_detail10AutoLoaderIjEEE6value_E = linkonce_odr local_unnamed_addr global i64 0, comdat($_ZN9grpc_core19NoDestructSingletonINS_11json_detail10AutoLoaderIjEEE6value_E), align 8
@_ZN9grpc_core19NoDestructSingletonINS_11json_detail10AutoLoaderIlEEE6value_E = linkonce_odr global %"class.grpc_core::NoDestruct.104" zeroinitializer, comdat, align 8
@_ZGVN9grpc_core19NoDestructSingletonINS_11json_detail10AutoLoaderIlEEE6value_E = linkonce_odr local_unnamed_addr global i64 0, comdat($_ZN9grpc_core19NoDestructSingletonINS_11json_detail10AutoLoaderIlEEE6value_E), align 8
@_ZN9grpc_core19NoDestructSingletonINS_11json_detail10AutoLoaderIbEEE6value_E = linkonce_odr global %"class.grpc_core::NoDestruct.105" zeroinitializer, comdat, align 8
@_ZGVN9grpc_core19NoDestructSingletonINS_11json_detail10AutoLoaderIbEEE6value_E = linkonce_odr local_unnamed_addr global i64 0, comdat($_ZN9grpc_core19NoDestructSingletonINS_11json_detail10AutoLoaderIbEEE6value_E), align 8
@_ZN9grpc_core19NoDestructSingletonINS_11json_detail10AutoLoaderINS_12_GLOBAL__N_110RbacConfig10RbacPolicy5Rules6Policy14SafeRegexMatchEEEE6value_E = internal global %"class.grpc_core::NoDestruct.106" zeroinitializer, align 8
@_ZN9grpc_core19NoDestructSingletonINS_11json_detail10AutoLoaderINS_12_GLOBAL__N_110RbacConfig10RbacPolicy5Rules6Policy11HeaderMatch10RangeMatchEEEE6value_E = internal global %"class.grpc_core::NoDestruct.107" zeroinitializer, align 8
@_ZN9grpc_core19NoDestructSingletonINS_11json_detail10AutoLoaderINS_12_GLOBAL__N_110RbacConfig10RbacPolicy5Rules6Policy11StringMatchEEEE6value_E = internal global %"class.grpc_core::NoDestruct.108" zeroinitializer, align 8
@_ZN9grpc_core19NoDestructSingletonINS_11json_detail10AutoLoaderINS_12_GLOBAL__N_110RbacConfig10RbacPolicy5Rules6Policy10PermissionEEEE6value_E = internal global %"class.grpc_core::NoDestruct.109" zeroinitializer, align 8
@_ZN9grpc_core19NoDestructSingletonINS_11json_detail10AutoLoaderISt6vectorINS_12_GLOBAL__N_110RbacConfig10RbacPolicy5Rules6Policy10PermissionESaIS9_EEEEE6value_E = internal global %"class.grpc_core::NoDestruct.110" zeroinitializer, align 8
@_ZN9grpc_core19NoDestructSingletonINS_11json_detail10AutoLoaderINS_12_GLOBAL__N_110RbacConfig10RbacPolicy5Rules6Policy11HeaderMatchEEEE6value_E = internal global %"class.grpc_core::NoDestruct.111" zeroinitializer, align 8
@_ZN9grpc_core19NoDestructSingletonINS_11json_detail10AutoLoaderINS_12_GLOBAL__N_110RbacConfig10RbacPolicy5Rules6Policy9PathMatchEEEE6value_E = internal global %"class.grpc_core::NoDestruct.112" zeroinitializer, align 8
@_ZN9grpc_core19NoDestructSingletonINS_11json_detail10AutoLoaderINS_12_GLOBAL__N_110RbacConfig10RbacPolicy5Rules6Policy9CidrRangeEEEE6value_E = internal global %"class.grpc_core::NoDestruct.113" zeroinitializer, align 8
@_ZN9grpc_core19NoDestructSingletonINS_11json_detail10AutoLoaderINS_12_GLOBAL__N_110RbacConfig10RbacPolicy5Rules6Policy8MetadataEEEE6value_E = internal global %"class.grpc_core::NoDestruct.114" zeroinitializer, align 8
@_ZN9grpc_core19NoDestructSingletonINS_11json_detail10AutoLoaderINS_12_GLOBAL__N_110RbacConfig10RbacPolicy5Rules6Policy10Permission14PermissionListEEEE6value_E = internal global %"class.grpc_core::NoDestruct.115" zeroinitializer, align 8
@_ZN9grpc_core19NoDestructSingletonINS_11json_detail10AutoLoaderINS_12_GLOBAL__N_110RbacConfig10RbacPolicy5Rules6Policy9PrincipalEEEE6value_E = internal global %"class.grpc_core::NoDestruct.116" zeroinitializer, align 8
@_ZN9grpc_core19NoDestructSingletonINS_11json_detail10AutoLoaderISt6vectorINS_12_GLOBAL__N_110RbacConfig10RbacPolicy5Rules6Policy9PrincipalESaIS9_EEEEE6value_E = internal global %"class.grpc_core::NoDestruct.117" zeroinitializer, align 8
@_ZN9grpc_core19NoDestructSingletonINS_11json_detail10AutoLoaderISt8optionalINS_12_GLOBAL__N_110RbacConfig10RbacPolicy5Rules6Policy11StringMatchEEEEE6value_E = internal global %"class.grpc_core::NoDestruct.118" zeroinitializer, align 8
@_ZN9grpc_core19NoDestructSingletonINS_11json_detail10AutoLoaderINS_12_GLOBAL__N_110RbacConfig10RbacPolicy5Rules6Policy9Principal13AuthenticatedEEEE6value_E = internal global %"class.grpc_core::NoDestruct.119" zeroinitializer, align 8
@_ZN9grpc_core19NoDestructSingletonINS_11json_detail10AutoLoaderINS_12_GLOBAL__N_110RbacConfig10RbacPolicy5Rules6Policy9Principal13PrincipalListEEEE6value_E = internal global %"class.grpc_core::NoDestruct.120" zeroinitializer, align 8
@_ZN9grpc_core19NoDestructSingletonINS_11json_detail10AutoLoaderISt3mapINSt7__cxx1112basic_stringIcSt11char_traitsIcESaIcEEENS_12experimental4JsonESt4lessIS9_ESaISt4pairIKS9_SB_EEEEEE6value_E = linkonce_odr global %"class.grpc_core::NoDestruct.121" zeroinitializer, comdat, align 8
@_ZGVN9grpc_core19NoDestructSingletonINS_11json_detail10AutoLoaderISt3mapINSt7__cxx1112basic_stringIcSt11char_traitsIcESaIcEEENS_12experimental4JsonESt4lessIS9_ESaISt4pairIKS9_SB_EEEEEE6value_E = linkonce_odr local_unnamed_addr global i64 0, comdat($_ZN9grpc_core19NoDestructSingletonINS_11json_detail10AutoLoaderISt3mapINSt7__cxx1112basic_stringIcSt11char_traitsIcESaIcEEENS_12experimental4JsonESt4lessIS9_ESaISt4pairIKS9_SB_EEEEEE6value_E), align 8
@_ZN9grpc_core19NoDestructSingletonINS_11json_detail10AutoLoaderIiEEE6value_E = linkonce_odr global %"class.grpc_core::NoDestruct.122" zeroinitializer, comdat, align 8
@_ZGVN9grpc_core19NoDestructSingletonINS_11json_detail10AutoLoaderIiEEE6value_E = linkonce_odr local_unnamed_addr global i64 0, comdat($_ZN9grpc_core19NoDestructSingletonINS_11json_detail10AutoLoaderIiEEE6value_E), align 8
@_ZN9grpc_core19NoDestructSingletonINS_11json_detail10AutoLoaderINS_12_GLOBAL__N_110RbacConfig10RbacPolicy5Rules6PolicyEEEE6value_E = internal global %"class.grpc_core::NoDestruct.123" zeroinitializer, align 8
@_ZN9grpc_core19NoDestructSingletonINS_11json_detail10AutoLoaderISt3mapINSt7__cxx1112basic_stringIcSt11char_traitsIcESaIcEEENS_12_GLOBAL__N_110RbacConfig10RbacPolicy5Rules6PolicyESt4lessIS9_ESaISt4pairIKS9_SE_EEEEEE6value_E = internal global %"class.grpc_core::NoDestruct.124" zeroinitializer, align 8
@_ZN9grpc_core19NoDestructSingletonINS_11json_detail10AutoLoaderINS_12_GLOBAL__N_110RbacConfig10RbacPolicy5Rules11AuditLoggerEEEE6value_E = internal global %"class.grpc_core::NoDestruct.125" zeroinitializer, align 8
@_ZN9grpc_core19NoDestructSingletonINS_11json_detail10AutoLoaderISt6vectorINS_12_GLOBAL__N_110RbacConfig10RbacPolicy5Rules11AuditLoggerESaIS8_EEEEE6value_E = internal global %"class.grpc_core::NoDestruct.126" zeroinitializer, align 8
@_ZN9grpc_core19NoDestructSingletonINS_11json_detail10AutoLoaderINS_12_GLOBAL__N_110RbacConfig10RbacPolicy5RulesEEEE6value_E = internal global %"class.grpc_core::NoDestruct.127" zeroinitializer, align 8
@_ZN9grpc_core19NoDestructSingletonINS_11json_detail10AutoLoaderISt8optionalINS_12_GLOBAL__N_110RbacConfig10RbacPolicy5RulesEEEEE6value_E = internal global %"class.grpc_core::NoDestruct.128" zeroinitializer, align 8
@_ZN9grpc_core19NoDestructSingletonINS_11json_detail10AutoLoaderINS_12_GLOBAL__N_110RbacConfig10RbacPolicyEEEE6value_E = internal global %"class.grpc_core::NoDestruct.129" zeroinitializer, align 8
@_ZN9grpc_core19NoDestructSingletonINS_11json_detail10AutoLoaderISt6vectorINS_12_GLOBAL__N_110RbacConfig10RbacPolicyESaIS6_EEEEE6value_E = internal global %"class.grpc_core::NoDestruct.130" zeroinitializer, align 8
@_ZN9grpc_core19NoDestructSingletonINS_11json_detail10AutoLoaderINS_12_GLOBAL__N_110RbacConfigEEEE6value_E = internal global %"class.grpc_core::NoDestruct.131" zeroinitializer, align 8
@_ZTVN9grpc_core8JsonArgsE = linkonce_odr unnamed_addr constant { [5 x ptr] } { [5 x ptr] [ptr null, ptr @_ZTIN9grpc_core8JsonArgsE, ptr @_ZN9grpc_core8JsonArgsD2Ev, ptr @_ZN9grpc_core8JsonArgsD0Ev, ptr @_ZNK9grpc_core8JsonArgs9IsEnabledESt17basic_string_viewIcSt11char_traitsIcEE] }, comdat, align 8
@_ZTSN9grpc_core8JsonArgsE = linkonce_odr constant [22 x i8] c"N9grpc_core8JsonArgsE\00", comdat, align 1
@_ZTIN9grpc_core8JsonArgsE = linkonce_odr constant { ptr, ptr } { ptr getelementptr inbounds (ptr, ptr @_ZTVN10__cxxabiv117__class_type_infoE, i64 2), ptr @_ZTSN9grpc_core8JsonArgsE }, comdat, align 8
@.str.32 = private unnamed_addr constant [16 x i8] c"vector::reserve\00", align 1
@.str.33 = private unnamed_addr constant [26 x i8] c"vector::_M_realloc_insert\00", align 1
@.str.34 = private unnamed_addr constant [1 x i8] zeroinitializer, align 1
@_ZN9grpc_core17CoreConfiguration7config_E = external local_unnamed_addr global %"struct.std::atomic", align 8
@.str.36 = private unnamed_addr constant [5 x i8] c"rbac\00", align 1
@_ZTVN9grpc_core14promise_detail10UnwakeableE = external unnamed_addr constant { [6 x ptr] }, align 8
@_ZTVN9grpc_core11json_detail10AutoLoaderINSt7__cxx1112basic_stringIcSt11char_traitsIcESaIcEEEEE = linkonce_odr unnamed_addr constant { [5 x ptr] } { [5 x ptr] [ptr null, ptr @_ZTIN9grpc_core11json_detail10AutoLoaderINSt7__cxx1112basic_stringIcSt11char_traitsIcESaIcEEEEE, ptr @_ZNK9grpc_core11json_detail10LoadScalar8LoadIntoERKNS_12experimental4JsonERKNS_8JsonArgsEPvPNS_16ValidationErrorsE, ptr @_ZNK9grpc_core11json_detail10LoadString8IsNumberEv, ptr @_ZNK9grpc_core11json_detail10LoadString8LoadIntoERKNSt7__cxx1112basic_stringIcSt11char_traitsIcESaIcEEEPvPNS_16ValidationErrorsE] }, comdat, align 8
@_ZTSN9grpc_core11json_detail10AutoLoaderINSt7__cxx1112basic_stringIcSt11char_traitsIcESaIcEEEEE = linkonce_odr constant [92 x i8] c"N9grpc_core11json_detail10AutoLoaderINSt7__cxx1112basic_stringIcSt11char_traitsIcESaIcEEEEE\00", comdat, align 1
@_ZTIN9grpc_core11json_detail10LoadStringE = external constant ptr
@_ZTIN9grpc_core11json_detail10AutoLoaderINSt7__cxx1112basic_stringIcSt11char_traitsIcESaIcEEEEE = linkonce_odr constant { ptr, ptr, ptr } { ptr getelementptr inbounds (ptr, ptr @_ZTVN10__cxxabiv120__si_class_type_infoE, i64 2), ptr @_ZTSN9grpc_core11json_detail10AutoLoaderINSt7__cxx1112basic_stringIcSt11char_traitsIcESaIcEEEEE, ptr @_ZTIN9grpc_core11json_detail10LoadStringE }, comdat, align 8
@_ZTSN9grpc_core11json_detail15LoaderInterfaceE = linkonce_odr constant [43 x i8] c"N9grpc_core11json_detail15LoaderInterfaceE\00", comdat, align 1
@_ZTIN9grpc_core11json_detail15LoaderInterfaceE = linkonce_odr constant { ptr, ptr } { ptr getelementptr inbounds (ptr, ptr @_ZTVN10__cxxabiv117__class_type_infoE, i64 2), ptr @_ZTSN9grpc_core11json_detail15LoaderInterfaceE }, comdat, align 8
@_ZTVN9grpc_core11json_detail10AutoLoaderIjEE = linkonce_odr unnamed_addr constant { [5 x ptr] } { [5 x ptr] [ptr null, ptr @_ZTIN9grpc_core11json_detail10AutoLoaderIjEE, ptr @_ZNK9grpc_core11json_detail10LoadScalar8LoadIntoERKNS_12experimental4JsonERKNS_8JsonArgsEPvPNS_16ValidationErrorsE, ptr @_ZNK9grpc_core11json_detail10LoadNumber8IsNumberEv, ptr @_ZNK9grpc_core11json_detail23TypedLoadUnsignedNumberIjE8LoadIntoERKNSt7__cxx1112basic_stringIcSt11char_traitsIcESaIcEEEPvPNS_16ValidationErrorsE] }, comdat, align 8
@_ZTSN9grpc_core11json_detail10AutoLoaderIjEE = linkonce_odr constant [41 x i8] c"N9grpc_core11json_detail10AutoLoaderIjEE\00", comdat, align 1
@_ZTSN9grpc_core11json_detail23TypedLoadUnsignedNumberIjEE = linkonce_odr constant [54 x i8] c"N9grpc_core11json_detail23TypedLoadUnsignedNumberIjEE\00", comdat, align 1
@_ZTIN9grpc_core11json_detail10LoadNumberE = external constant ptr
@_ZTIN9grpc_core11json_detail23TypedLoadUnsignedNumberIjEE = linkonce_odr constant { ptr, ptr, ptr } { ptr getelementptr inbounds (ptr, ptr @_ZTVN10__cxxabiv120__si_class_type_infoE, i64 2), ptr @_ZTSN9grpc_core11json_detail23TypedLoadUnsignedNumberIjEE, ptr @_ZTIN9grpc_core11json_detail10LoadNumberE }, comdat, align 8
@_ZTIN9grpc_core11json_detail10AutoLoaderIjEE = linkonce_odr constant { ptr, ptr, ptr } { ptr getelementptr inbounds (ptr, ptr @_ZTVN10__cxxabiv120__si_class_type_infoE, i64 2), ptr @_ZTSN9grpc_core11json_detail10AutoLoaderIjEE, ptr @_ZTIN9grpc_core11json_detail23TypedLoadUnsignedNumberIjEE }, comdat, align 8
@.str.37 = private unnamed_addr constant [36 x i8] c"failed to parse non-negative number\00", align 1
@_ZTVN9grpc_core11json_detail10AutoLoaderIlEE = linkonce_odr unnamed_addr constant { [5 x ptr] } { [5 x ptr] [ptr null, ptr @_ZTIN9grpc_core11json_detail10AutoLoaderIlEE, ptr @_ZNK9grpc_core11json_detail10LoadScalar8LoadIntoERKNS_12experimental4JsonERKNS_8JsonArgsEPvPNS_16ValidationErrorsE, ptr @_ZNK9grpc_core11json_detail10LoadNumber8IsNumberEv, ptr @_ZNK9grpc_core11json_detail21TypedLoadSignedNumberIlE8LoadIntoERKNSt7__cxx1112basic_stringIcSt11char_traitsIcESaIcEEEPvPNS_16ValidationErrorsE] }, comdat, align 8
@_ZTSN9grpc_core11json_detail10AutoLoaderIlEE = linkonce_odr constant [41 x i8] c"N9grpc_core11json_detail10AutoLoaderIlEE\00", comdat, align 1
@_ZTSN9grpc_core11json_detail21TypedLoadSignedNumberIlEE = linkonce_odr constant [52 x i8] c"N9grpc_core11json_detail21TypedLoadSignedNumberIlEE\00", comdat, align 1
@_ZTIN9grpc_core11json_detail21TypedLoadSignedNumberIlEE = linkonce_odr constant { ptr, ptr, ptr } { ptr getelementptr inbounds (ptr, ptr @_ZTVN10__cxxabiv120__si_class_type_infoE, i64 2), ptr @_ZTSN9grpc_core11json_detail21TypedLoadSignedNumberIlEE, ptr @_ZTIN9grpc_core11json_detail10LoadNumberE }, comdat, align 8
@_ZTIN9grpc_core11json_detail10AutoLoaderIlEE = linkonce_odr constant { ptr, ptr, ptr } { ptr getelementptr inbounds (ptr, ptr @_ZTVN10__cxxabiv120__si_class_type_infoE, i64 2), ptr @_ZTSN9grpc_core11json_detail10AutoLoaderIlEE, ptr @_ZTIN9grpc_core11json_detail21TypedLoadSignedNumberIlEE }, comdat, align 8
@.str.38 = private unnamed_addr constant [23 x i8] c"failed to parse number\00", align 1
@_ZTVN9grpc_core11json_detail10AutoLoaderIbEE = linkonce_odr unnamed_addr constant { [3 x ptr] } { [3 x ptr] [ptr null, ptr @_ZTIN9grpc_core11json_detail10AutoLoaderIbEE, ptr @_ZNK9grpc_core11json_detail8LoadBool8LoadIntoERKNS_12experimental4JsonERKNS_8JsonArgsEPvPNS_16ValidationErrorsE] }, comdat, align 8
@_ZTSN9grpc_core11json_detail10AutoLoaderIbEE = linkonce_odr constant [41 x i8] c"N9grpc_core11json_detail10AutoLoaderIbEE\00", comdat, align 1
@_ZTIN9grpc_core11json_detail8LoadBoolE = external constant ptr
@_ZTIN9grpc_core11json_detail10AutoLoaderIbEE = linkonce_odr constant { ptr, ptr, ptr } { ptr getelementptr inbounds (ptr, ptr @_ZTVN10__cxxabiv120__si_class_type_infoE, i64 2), ptr @_ZTSN9grpc_core11json_detail10AutoLoaderIbEE, ptr @_ZTIN9grpc_core11json_detail8LoadBoolE }, comdat, align 8
@_ZTVN9grpc_core11json_detail10AutoLoaderINS_12_GLOBAL__N_110RbacConfig10RbacPolicy5Rules6Policy14SafeRegexMatchEEE = internal unnamed_addr constant { [3 x ptr] } { [3 x ptr] [ptr null, ptr @_ZTIN9grpc_core11json_detail10AutoLoaderINS_12_GLOBAL__N_110RbacConfig10RbacPolicy5Rules6Policy14SafeRegexMatchEEE, ptr @_ZNK9grpc_core11json_detail10AutoLoaderINS_12_GLOBAL__N_110RbacConfig10RbacPolicy5Rules6Policy14SafeRegexMatchEE8LoadIntoERKNS_12experimental4JsonERKNS_8JsonArgsEPvPNS_16ValidationErrorsE] }, align 8
@_ZTSN9grpc_core11json_detail10AutoLoaderINS_12_GLOBAL__N_110RbacConfig10RbacPolicy5Rules6Policy14SafeRegexMatchEEE = internal constant [111 x i8] c"N9grpc_core11json_detail10AutoLoaderINS_12_GLOBAL__N_110RbacConfig10RbacPolicy5Rules6Policy14SafeRegexMatchEEE\00", align 1
@_ZTIN9grpc_core11json_detail10AutoLoaderINS_12_GLOBAL__N_110RbacConfig10RbacPolicy5Rules6Policy14SafeRegexMatchEEE = internal constant { ptr, ptr, ptr } { ptr getelementptr inbounds (ptr, ptr @_ZTVN10__cxxabiv120__si_class_type_infoE, i64 2), ptr @_ZTSN9grpc_core11json_detail10AutoLoaderINS_12_GLOBAL__N_110RbacConfig10RbacPolicy5Rules6Policy14SafeRegexMatchEEE, ptr @_ZTIN9grpc_core11json_detail15LoaderInterfaceE }, align 8
@_ZZN9grpc_core12_GLOBAL__N_110RbacConfig10RbacPolicy5Rules6Policy14SafeRegexMatch10JsonLoaderERKNS_8JsonArgsEE6loader = internal unnamed_addr global ptr null, align 8
@_ZGVZN9grpc_core12_GLOBAL__N_110RbacConfig10RbacPolicy5Rules6Policy14SafeRegexMatch10JsonLoaderERKNS_8JsonArgsEE6loader = internal global i64 0, align 8
@.str.39 = private unnamed_addr constant [6 x i8] c"regex\00", align 1
@_ZTVN9grpc_core11json_detail24FinishedJsonObjectLoaderINS_12_GLOBAL__N_110RbacConfig10RbacPolicy5Rules6Policy14SafeRegexMatchELm1EvEE = internal unnamed_addr constant { [3 x ptr] } { [3 x ptr] [ptr null, ptr @_ZTIN9grpc_core11json_detail24FinishedJsonObjectLoaderINS_12_GLOBAL__N_110RbacConfig10RbacPolicy5Rules6Policy14SafeRegexMatchELm1EvEE, ptr @_ZNK9grpc_core11json_detail24FinishedJsonObjectLoaderINS_12_GLOBAL__N_110RbacConfig10RbacPolicy5Rules6Policy14SafeRegexMatchELm1EvE8LoadIntoERKNS_12experimental4JsonERKNS_8JsonArgsEPvPNS_16ValidationErrorsE] }, align 8
@_ZTSN9grpc_core11json_detail24FinishedJsonObjectLoaderINS_12_GLOBAL__N_110RbacConfig10RbacPolicy5Rules6Policy14SafeRegexMatchELm1EvEE = internal constant [130 x i8] c"N9grpc_core11json_detail24FinishedJsonObjectLoaderINS_12_GLOBAL__N_110RbacConfig10RbacPolicy5Rules6Policy14SafeRegexMatchELm1EvEE\00", align 1
@_ZTIN9grpc_core11json_detail24FinishedJsonObjectLoaderINS_12_GLOBAL__N_110RbacConfig10RbacPolicy5Rules6Policy14SafeRegexMatchELm1EvEE = internal constant { ptr, ptr, ptr } { ptr getelementptr inbounds (ptr, ptr @_ZTVN10__cxxabiv120__si_class_type_infoE, i64 2), ptr @_ZTSN9grpc_core11json_detail24FinishedJsonObjectLoaderINS_12_GLOBAL__N_110RbacConfig10RbacPolicy5Rules6Policy14SafeRegexMatchELm1EvEE, ptr @_ZTIN9grpc_core11json_detail15LoaderInterfaceE }, align 8
@_ZTVN9grpc_core11json_detail10AutoLoaderINS_12_GLOBAL__N_110RbacConfig10RbacPolicy5Rules6Policy11HeaderMatch10RangeMatchEEE = internal unnamed_addr constant { [3 x ptr] } { [3 x ptr] [ptr null, ptr @_ZTIN9grpc_core11json_detail10AutoLoaderINS_12_GLOBAL__N_110RbacConfig10RbacPolicy5Rules6Policy11HeaderMatch10RangeMatchEEE, ptr @_ZNK9grpc_core11json_detail10AutoLoaderINS_12_GLOBAL__N_110RbacConfig10RbacPolicy5Rules6Policy11HeaderMatch10RangeMatchEE8LoadIntoERKNS_12experimental4JsonERKNS_8JsonArgsEPvPNS_16ValidationErrorsE] }, align 8
@_ZTSN9grpc_core11json_detail10AutoLoaderINS_12_GLOBAL__N_110RbacConfig10RbacPolicy5Rules6Policy11HeaderMatch10RangeMatchEEE = internal constant [120 x i8] c"N9grpc_core11json_detail10AutoLoaderINS_12_GLOBAL__N_110RbacConfig10RbacPolicy5Rules6Policy11HeaderMatch10RangeMatchEEE\00", align 1
@_ZTIN9grpc_core11json_detail10AutoLoaderINS_12_GLOBAL__N_110RbacConfig10RbacPolicy5Rules6Policy11HeaderMatch10RangeMatchEEE = internal constant { ptr, ptr, ptr } { ptr getelementptr inbounds (ptr, ptr @_ZTVN10__cxxabiv120__si_class_type_infoE, i64 2), ptr @_ZTSN9grpc_core11json_detail10AutoLoaderINS_12_GLOBAL__N_110RbacConfig10RbacPolicy5Rules6Policy11HeaderMatch10RangeMatchEEE, ptr @_ZTIN9grpc_core11json_detail15LoaderInterfaceE }, align 8
@_ZZN9grpc_core12_GLOBAL__N_110RbacConfig10RbacPolicy5Rules6Policy11HeaderMatch10RangeMatch10JsonLoaderERKNS_8JsonArgsEE6loader = internal unnamed_addr global ptr null, align 8
@_ZGVZN9grpc_core12_GLOBAL__N_110RbacConfig10RbacPolicy5Rules6Policy11HeaderMatch10RangeMatch10JsonLoaderERKNS_8JsonArgsEE6loader = internal global i64 0, align 8
@.str.40 = private unnamed_addr constant [6 x i8] c"start\00", align 1
@.str.41 = private unnamed_addr constant [4 x i8] c"end\00", align 1
@_ZTVN9grpc_core11json_detail24FinishedJsonObjectLoaderINS_12_GLOBAL__N_110RbacConfig10RbacPolicy5Rules6Policy11HeaderMatch10RangeMatchELm2EvEE = internal unnamed_addr constant { [3 x ptr] } { [3 x ptr] [ptr null, ptr @_ZTIN9grpc_core11json_detail24FinishedJsonObjectLoaderINS_12_GLOBAL__N_110RbacConfig10RbacPolicy5Rules6Policy11HeaderMatch10RangeMatchELm2EvEE, ptr @_ZNK9grpc_core11json_detail24FinishedJsonObjectLoaderINS_12_GLOBAL__N_110RbacConfig10RbacPolicy5Rules6Policy11HeaderMatch10RangeMatchELm2EvE8LoadIntoERKNS_12experimental4JsonERKNS_8JsonArgsEPvPNS_16ValidationErrorsE] }, align 8
@_ZTSN9grpc_core11json_detail24FinishedJsonObjectLoaderINS_12_GLOBAL__N_110RbacConfig10RbacPolicy5Rules6Policy11HeaderMatch10RangeMatchELm2EvEE = internal constant [139 x i8] c"N9grpc_core11json_detail24FinishedJsonObjectLoaderINS_12_GLOBAL__N_110RbacConfig10RbacPolicy5Rules6Policy11HeaderMatch10RangeMatchELm2EvEE\00", align 1
@_ZTIN9grpc_core11json_detail24FinishedJsonObjectLoaderINS_12_GLOBAL__N_110RbacConfig10RbacPolicy5Rules6Policy11HeaderMatch10RangeMatchELm2EvEE = internal constant { ptr, ptr, ptr } { ptr getelementptr inbounds (ptr, ptr @_ZTVN10__cxxabiv120__si_class_type_infoE, i64 2), ptr @_ZTSN9grpc_core11json_detail24FinishedJsonObjectLoaderINS_12_GLOBAL__N_110RbacConfig10RbacPolicy5Rules6Policy11HeaderMatch10RangeMatchELm2EvEE, ptr @_ZTIN9grpc_core11json_detail15LoaderInterfaceE }, align 8
@_ZTVN9grpc_core11json_detail10AutoLoaderINS_12_GLOBAL__N_110RbacConfig10RbacPolicy5Rules6Policy11StringMatchEEE = internal unnamed_addr constant { [3 x ptr] } { [3 x ptr] [ptr null, ptr @_ZTIN9grpc_core11json_detail10AutoLoaderINS_12_GLOBAL__N_110RbacConfig10RbacPolicy5Rules6Policy11StringMatchEEE, ptr @_ZNK9grpc_core11json_detail10AutoLoaderINS_12_GLOBAL__N_110RbacConfig10RbacPolicy5Rules6Policy11StringMatchEE8LoadIntoERKNS_12experimental4JsonERKNS_8JsonArgsEPvPNS_16ValidationErrorsE] }, align 8
@_ZTSN9grpc_core11json_detail10AutoLoaderINS_12_GLOBAL__N_110RbacConfig10RbacPolicy5Rules6Policy11StringMatchEEE = internal constant [108 x i8] c"N9grpc_core11json_detail10AutoLoaderINS_12_GLOBAL__N_110RbacConfig10RbacPolicy5Rules6Policy11StringMatchEEE\00", align 1
@_ZTIN9grpc_core11json_detail10AutoLoaderINS_12_GLOBAL__N_110RbacConfig10RbacPolicy5Rules6Policy11StringMatchEEE = internal constant { ptr, ptr, ptr } { ptr getelementptr inbounds (ptr, ptr @_ZTVN10__cxxabiv120__si_class_type_infoE, i64 2), ptr @_ZTSN9grpc_core11json_detail10AutoLoaderINS_12_GLOBAL__N_110RbacConfig10RbacPolicy5Rules6Policy11StringMatchEEE, ptr @_ZTIN9grpc_core11json_detail15LoaderInterfaceE }, align 8
@_ZZN9grpc_core12_GLOBAL__N_110RbacConfig10RbacPolicy5Rules6Policy11StringMatch10JsonLoaderERKNS_8JsonArgsEE6loader = internal unnamed_addr global ptr null, align 8
@_ZGVZN9grpc_core12_GLOBAL__N_110RbacConfig10RbacPolicy5Rules6Policy11StringMatch10JsonLoaderERKNS_8JsonArgsEE6loader = internal global i64 0, align 8
@_ZTVN9grpc_core11json_detail24FinishedJsonObjectLoaderINS_12_GLOBAL__N_110RbacConfig10RbacPolicy5Rules6Policy11StringMatchELm0EvEE = internal unnamed_addr constant { [3 x ptr] } { [3 x ptr] [ptr null, ptr @_ZTIN9grpc_core11json_detail24FinishedJsonObjectLoaderINS_12_GLOBAL__N_110RbacConfig10RbacPolicy5Rules6Policy11StringMatchELm0EvEE, ptr @_ZNK9grpc_core11json_detail24FinishedJsonObjectLoaderINS_12_GLOBAL__N_110RbacConfig10RbacPolicy5Rules6Policy11StringMatchELm0EvE8LoadIntoERKNS_12experimental4JsonERKNS_8JsonArgsEPvPNS_16ValidationErrorsE] }, align 8
@_ZTSN9grpc_core11json_detail24FinishedJsonObjectLoaderINS_12_GLOBAL__N_110RbacConfig10RbacPolicy5Rules6Policy11StringMatchELm0EvEE = internal constant [127 x i8] c"N9grpc_core11json_detail24FinishedJsonObjectLoaderINS_12_GLOBAL__N_110RbacConfig10RbacPolicy5Rules6Policy11StringMatchELm0EvEE\00", align 1
@_ZTIN9grpc_core11json_detail24FinishedJsonObjectLoaderINS_12_GLOBAL__N_110RbacConfig10RbacPolicy5Rules6Policy11StringMatchELm0EvEE = internal constant { ptr, ptr, ptr } { ptr getelementptr inbounds (ptr, ptr @_ZTVN10__cxxabiv120__si_class_type_infoE, i64 2), ptr @_ZTSN9grpc_core11json_detail24FinishedJsonObjectLoaderINS_12_GLOBAL__N_110RbacConfig10RbacPolicy5Rules6Policy11StringMatchELm0EvEE, ptr @_ZTIN9grpc_core11json_detail15LoaderInterfaceE }, align 8
@.str.42 = private unnamed_addr constant [11 x i8] c"ignoreCase\00", align 1
@.str.43 = private unnamed_addr constant [6 x i8] c"exact\00", align 1
@.str.44 = private unnamed_addr constant [7 x i8] c"prefix\00", align 1
@.str.45 = private unnamed_addr constant [7 x i8] c"suffix\00", align 1
@.str.46 = private unnamed_addr constant [9 x i8] c"contains\00", align 1
@.str.47 = private unnamed_addr constant [10 x i8] c"safeRegex\00", align 1
@.str.48 = private unnamed_addr constant [23 x i8] c"no valid matcher found\00", align 1
@.str.49 = private unnamed_addr constant [2 x i8] c".\00", align 1
@.str.50 = private unnamed_addr constant [31 x i8] c"std::get: variant is valueless\00", align 1
@.str.51 = private unnamed_addr constant [34 x i8] c"std::get: wrong index for variant\00", align 1
@_ZTSSt18bad_variant_access = linkonce_odr constant [23 x i8] c"St18bad_variant_access\00", comdat, align 1
@_ZTISt9exception = external constant ptr
@_ZTISt18bad_variant_access = linkonce_odr constant { ptr, ptr, ptr } { ptr getelementptr inbounds (ptr, ptr @_ZTVN10__cxxabiv120__si_class_type_infoE, i64 2), ptr @_ZTSSt18bad_variant_access, ptr @_ZTISt9exception }, comdat, align 8
@_ZTVSt18bad_variant_access = linkonce_odr unnamed_addr constant { [5 x ptr] } { [5 x ptr] [ptr null, ptr @_ZTISt18bad_variant_access, ptr @_ZNSt18bad_variant_accessD2Ev, ptr @_ZNSt18bad_variant_accessD0Ev, ptr @_ZNKSt18bad_variant_access4whatEv] }, comdat, align 8
@_ZN4absl12lts_202308026Status16kMovedFromStringE = linkonce_odr constant [28 x i8] c"Status accessed after move.\00", comdat, align 16
@_ZTVN9grpc_core11json_detail10AutoLoaderINS_12_GLOBAL__N_110RbacConfig10RbacPolicy5Rules6Policy10PermissionEEE = internal unnamed_addr constant { [3 x ptr] } { [3 x ptr] [ptr null, ptr @_ZTIN9grpc_core11json_detail10AutoLoaderINS_12_GLOBAL__N_110RbacConfig10RbacPolicy5Rules6Policy10PermissionEEE, ptr @_ZNK9grpc_core11json_detail10AutoLoaderINS_12_GLOBAL__N_110RbacConfig10RbacPolicy5Rules6Policy10PermissionEE8LoadIntoERKNS_12experimental4JsonERKNS_8JsonArgsEPvPNS_16ValidationErrorsE] }, align 8
@_ZTSN9grpc_core11json_detail10AutoLoaderINS_12_GLOBAL__N_110RbacConfig10RbacPolicy5Rules6Policy10PermissionEEE = internal constant [107 x i8] c"N9grpc_core11json_detail10AutoLoaderINS_12_GLOBAL__N_110RbacConfig10RbacPolicy5Rules6Policy10PermissionEEE\00", align 1
@_ZTIN9grpc_core11json_detail10AutoLoaderINS_12_GLOBAL__N_110RbacConfig10RbacPolicy5Rules6Policy10PermissionEEE = internal constant { ptr, ptr, ptr } { ptr getelementptr inbounds (ptr, ptr @_ZTVN10__cxxabiv120__si_class_type_infoE, i64 2), ptr @_ZTSN9grpc_core11json_detail10AutoLoaderINS_12_GLOBAL__N_110RbacConfig10RbacPolicy5Rules6Policy10PermissionEEE, ptr @_ZTIN9grpc_core11json_detail15LoaderInterfaceE }, align 8
@_ZZN9grpc_core12_GLOBAL__N_110RbacConfig10RbacPolicy5Rules6Policy10Permission10JsonLoaderERKNS_8JsonArgsEE6loader = internal unnamed_addr global ptr null, align 8
@_ZGVZN9grpc_core12_GLOBAL__N_110RbacConfig10RbacPolicy5Rules6Policy10Permission10JsonLoaderERKNS_8JsonArgsEE6loader = internal global i64 0, align 8
@_ZTVN9grpc_core11json_detail24FinishedJsonObjectLoaderINS_12_GLOBAL__N_110RbacConfig10RbacPolicy5Rules6Policy10PermissionELm0EvEE = internal unnamed_addr constant { [3 x ptr] } { [3 x ptr] [ptr null, ptr @_ZTIN9grpc_core11json_detail24FinishedJsonObjectLoaderINS_12_GLOBAL__N_110RbacConfig10RbacPolicy5Rules6Policy10PermissionELm0EvEE, ptr @_ZNK9grpc_core11json_detail24FinishedJsonObjectLoaderINS_12_GLOBAL__N_110RbacConfig10RbacPolicy5Rules6Policy10PermissionELm0EvE8LoadIntoERKNS_12experimental4JsonERKNS_8JsonArgsEPvPNS_16ValidationErrorsE] }, align 8
@_ZTSN9grpc_core11json_detail24FinishedJsonObjectLoaderINS_12_GLOBAL__N_110RbacConfig10RbacPolicy5Rules6Policy10PermissionELm0EvEE = internal constant [126 x i8] c"N9grpc_core11json_detail24FinishedJsonObjectLoaderINS_12_GLOBAL__N_110RbacConfig10RbacPolicy5Rules6Policy10PermissionELm0EvEE\00", align 1
@_ZTIN9grpc_core11json_detail24FinishedJsonObjectLoaderINS_12_GLOBAL__N_110RbacConfig10RbacPolicy5Rules6Policy10PermissionELm0EvEE = internal constant { ptr, ptr, ptr } { ptr getelementptr inbounds (ptr, ptr @_ZTVN10__cxxabiv120__si_class_type_infoE, i64 2), ptr @_ZTSN9grpc_core11json_detail24FinishedJsonObjectLoaderINS_12_GLOBAL__N_110RbacConfig10RbacPolicy5Rules6Policy10PermissionELm0EvEE, ptr @_ZTIN9grpc_core11json_detail15LoaderInterfaceE }, align 8
@.str.52 = private unnamed_addr constant [4 x i8] c"any\00", align 1
@.str.53 = private unnamed_addr constant [7 x i8] c"header\00", align 1
@.str.54 = private unnamed_addr constant [8 x i8] c"urlPath\00", align 1
@.str.55 = private unnamed_addr constant [14 x i8] c"destinationIp\00", align 1
@.str.56 = private unnamed_addr constant [16 x i8] c"destinationPort\00", align 1
@.str.57 = private unnamed_addr constant [9 x i8] c"metadata\00", align 1
@.str.58 = private unnamed_addr constant [20 x i8] c"requestedServerName\00", align 1
@.str.59 = private unnamed_addr constant [9 x i8] c"andRules\00", align 1
@.str.60 = private unnamed_addr constant [8 x i8] c"orRules\00", align 1
@.str.61 = private unnamed_addr constant [8 x i8] c"notRule\00", align 1
@.str.62 = private unnamed_addr constant [20 x i8] c"no valid rule found\00", align 1
@_ZTVN9grpc_core11json_detail10AutoLoaderISt6vectorINS_12_GLOBAL__N_110RbacConfig10RbacPolicy5Rules6Policy10PermissionESaIS8_EEEE = internal unnamed_addr constant { [5 x ptr] } { [5 x ptr] [ptr null, ptr @_ZTIN9grpc_core11json_detail10AutoLoaderISt6vectorINS_12_GLOBAL__N_110RbacConfig10RbacPolicy5Rules6Policy10PermissionESaIS8_EEEE, ptr @_ZNK9grpc_core11json_detail10LoadVector8LoadIntoERKNS_12experimental4JsonERKNS_8JsonArgsEPvPNS_16ValidationErrorsE, ptr @_ZNK9grpc_core11json_detail10AutoLoaderISt6vectorINS_12_GLOBAL__N_110RbacConfig10RbacPolicy5Rules6Policy10PermissionESaIS8_EEE11EmplaceBackEPv, ptr @_ZNK9grpc_core11json_detail10AutoLoaderISt6vectorINS_12_GLOBAL__N_110RbacConfig10RbacPolicy5Rules6Policy10PermissionESaIS8_EEE13ElementLoaderEv] }, align 8
@_ZTSN9grpc_core11json_detail10AutoLoaderISt6vectorINS_12_GLOBAL__N_110RbacConfig10RbacPolicy5Rules6Policy10PermissionESaIS8_EEEE = internal constant [125 x i8] c"N9grpc_core11json_detail10AutoLoaderISt6vectorINS_12_GLOBAL__N_110RbacConfig10RbacPolicy5Rules6Policy10PermissionESaIS8_EEEE\00", align 1
@_ZTIN9grpc_core11json_detail10LoadVectorE = external constant ptr
@_ZTIN9grpc_core11json_detail10AutoLoaderISt6vectorINS_12_GLOBAL__N_110RbacConfig10RbacPolicy5Rules6Policy10PermissionESaIS8_EEEE = internal constant { ptr, ptr, ptr } { ptr getelementptr inbounds (ptr, ptr @_ZTVN10__cxxabiv120__si_class_type_infoE, i64 2), ptr @_ZTSN9grpc_core11json_detail10AutoLoaderISt6vectorINS_12_GLOBAL__N_110RbacConfig10RbacPolicy5Rules6Policy10PermissionESaIS8_EEEE, ptr @_ZTIN9grpc_core11json_detail10LoadVectorE }, align 8
@_ZTVN9grpc_core11json_detail10AutoLoaderINS_12_GLOBAL__N_110RbacConfig10RbacPolicy5Rules6Policy11HeaderMatchEEE = internal unnamed_addr constant { [3 x ptr] } { [3 x ptr] [ptr null, ptr @_ZTIN9grpc_core11json_detail10AutoLoaderINS_12_GLOBAL__N_110RbacConfig10RbacPolicy5Rules6Policy11HeaderMatchEEE, ptr @_ZNK9grpc_core11json_detail10AutoLoaderINS_12_GLOBAL__N_110RbacConfig10RbacPolicy5Rules6Policy11HeaderMatchEE8LoadIntoERKNS_12experimental4JsonERKNS_8JsonArgsEPvPNS_16ValidationErrorsE] }, align 8
@_ZTSN9grpc_core11json_detail10AutoLoaderINS_12_GLOBAL__N_110RbacConfig10RbacPolicy5Rules6Policy11HeaderMatchEEE = internal constant [108 x i8] c"N9grpc_core11json_detail10AutoLoaderINS_12_GLOBAL__N_110RbacConfig10RbacPolicy5Rules6Policy11HeaderMatchEEE\00", align 1
@_ZTIN9grpc_core11json_detail10AutoLoaderINS_12_GLOBAL__N_110RbacConfig10RbacPolicy5Rules6Policy11HeaderMatchEEE = internal constant { ptr, ptr, ptr } { ptr getelementptr inbounds (ptr, ptr @_ZTVN10__cxxabiv120__si_class_type_infoE, i64 2), ptr @_ZTSN9grpc_core11json_detail10AutoLoaderINS_12_GLOBAL__N_110RbacConfig10RbacPolicy5Rules6Policy11HeaderMatchEEE, ptr @_ZTIN9grpc_core11json_detail15LoaderInterfaceE }, align 8
@_ZZN9grpc_core12_GLOBAL__N_110RbacConfig10RbacPolicy5Rules6Policy11HeaderMatch10JsonLoaderERKNS_8JsonArgsEE6loader = internal unnamed_addr global ptr null, align 8
@_ZGVZN9grpc_core12_GLOBAL__N_110RbacConfig10RbacPolicy5Rules6Policy11HeaderMatch10JsonLoaderERKNS_8JsonArgsEE6loader = internal global i64 0, align 8
@_ZTVN9grpc_core11json_detail24FinishedJsonObjectLoaderINS_12_GLOBAL__N_110RbacConfig10RbacPolicy5Rules6Policy11HeaderMatchELm0EvEE = internal unnamed_addr constant { [3 x ptr] } { [3 x ptr] [ptr null, ptr @_ZTIN9grpc_core11json_detail24FinishedJsonObjectLoaderINS_12_GLOBAL__N_110RbacConfig10RbacPolicy5Rules6Policy11HeaderMatchELm0EvEE, ptr @_ZNK9grpc_core11json_detail24FinishedJsonObjectLoaderINS_12_GLOBAL__N_110RbacConfig10RbacPolicy5Rules6Policy11HeaderMatchELm0EvE8LoadIntoERKNS_12experimental4JsonERKNS_8JsonArgsEPvPNS_16ValidationErrorsE] }, align 8
@_ZTSN9grpc_core11json_detail24FinishedJsonObjectLoaderINS_12_GLOBAL__N_110RbacConfig10RbacPolicy5Rules6Policy11HeaderMatchELm0EvEE = internal constant [127 x i8] c"N9grpc_core11json_detail24FinishedJsonObjectLoaderINS_12_GLOBAL__N_110RbacConfig10RbacPolicy5Rules6Policy11HeaderMatchELm0EvEE\00", align 1
@_ZTIN9grpc_core11json_detail24FinishedJsonObjectLoaderINS_12_GLOBAL__N_110RbacConfig10RbacPolicy5Rules6Policy11HeaderMatchELm0EvEE = internal constant { ptr, ptr, ptr } { ptr getelementptr inbounds (ptr, ptr @_ZTVN10__cxxabiv120__si_class_type_infoE, i64 2), ptr @_ZTSN9grpc_core11json_detail24FinishedJsonObjectLoaderINS_12_GLOBAL__N_110RbacConfig10RbacPolicy5Rules6Policy11HeaderMatchELm0EvEE, ptr @_ZTIN9grpc_core11json_detail15LoaderInterfaceE }, align 8
@.str.63 = private unnamed_addr constant [5 x i8] c"name\00", align 1
@.str.64 = private unnamed_addr constant [12 x i8] c"invertMatch\00", align 1
@.str.65 = private unnamed_addr constant [11 x i8] c"exactMatch\00", align 1
@.str.66 = private unnamed_addr constant [12 x i8] c"prefixMatch\00", align 1
@.str.67 = private unnamed_addr constant [12 x i8] c"suffixMatch\00", align 1
@.str.68 = private unnamed_addr constant [14 x i8] c"containsMatch\00", align 1
@.str.69 = private unnamed_addr constant [13 x i8] c"presentMatch\00", align 1
@.str.70 = private unnamed_addr constant [15 x i8] c"safeRegexMatch\00", align 1
@.str.71 = private unnamed_addr constant [11 x i8] c"rangeMatch\00", align 1
@_ZTVN9grpc_core11json_detail10AutoLoaderINS_12_GLOBAL__N_110RbacConfig10RbacPolicy5Rules6Policy9PathMatchEEE = internal unnamed_addr constant { [3 x ptr] } { [3 x ptr] [ptr null, ptr @_ZTIN9grpc_core11json_detail10AutoLoaderINS_12_GLOBAL__N_110RbacConfig10RbacPolicy5Rules6Policy9PathMatchEEE, ptr @_ZNK9grpc_core11json_detail10AutoLoaderINS_12_GLOBAL__N_110RbacConfig10RbacPolicy5Rules6Policy9PathMatchEE8LoadIntoERKNS_12experimental4JsonERKNS_8JsonArgsEPvPNS_16ValidationErrorsE] }, align 8
@_ZTSN9grpc_core11json_detail10AutoLoaderINS_12_GLOBAL__N_110RbacConfig10RbacPolicy5Rules6Policy9PathMatchEEE = internal constant [105 x i8] c"N9grpc_core11json_detail10AutoLoaderINS_12_GLOBAL__N_110RbacConfig10RbacPolicy5Rules6Policy9PathMatchEEE\00", align 1
@_ZTIN9grpc_core11json_detail10AutoLoaderINS_12_GLOBAL__N_110RbacConfig10RbacPolicy5Rules6Policy9PathMatchEEE = internal constant { ptr, ptr, ptr } { ptr getelementptr inbounds (ptr, ptr @_ZTVN10__cxxabiv120__si_class_type_infoE, i64 2), ptr @_ZTSN9grpc_core11json_detail10AutoLoaderINS_12_GLOBAL__N_110RbacConfig10RbacPolicy5Rules6Policy9PathMatchEEE, ptr @_ZTIN9grpc_core11json_detail15LoaderInterfaceE }, align 8
@_ZZN9grpc_core12_GLOBAL__N_110RbacConfig10RbacPolicy5Rules6Policy9PathMatch10JsonLoaderERKNS_8JsonArgsEE6loader = internal unnamed_addr global ptr null, align 8
@_ZGVZN9grpc_core12_GLOBAL__N_110RbacConfig10RbacPolicy5Rules6Policy9PathMatch10JsonLoaderERKNS_8JsonArgsEE6loader = internal global i64 0, align 8
@.str.72 = private unnamed_addr constant [5 x i8] c"path\00", align 1
@_ZTVN9grpc_core11json_detail24FinishedJsonObjectLoaderINS_12_GLOBAL__N_110RbacConfig10RbacPolicy5Rules6Policy9PathMatchELm1EvEE = internal unnamed_addr constant { [3 x ptr] } { [3 x ptr] [ptr null, ptr @_ZTIN9grpc_core11json_detail24FinishedJsonObjectLoaderINS_12_GLOBAL__N_110RbacConfig10RbacPolicy5Rules6Policy9PathMatchELm1EvEE, ptr @_ZNK9grpc_core11json_detail24FinishedJsonObjectLoaderINS_12_GLOBAL__N_110RbacConfig10RbacPolicy5Rules6Policy9PathMatchELm1EvE8LoadIntoERKNS_12experimental4JsonERKNS_8JsonArgsEPvPNS_16ValidationErrorsE] }, align 8
@_ZTSN9grpc_core11json_detail24FinishedJsonObjectLoaderINS_12_GLOBAL__N_110RbacConfig10RbacPolicy5Rules6Policy9PathMatchELm1EvEE = internal constant [124 x i8] c"N9grpc_core11json_detail24FinishedJsonObjectLoaderINS_12_GLOBAL__N_110RbacConfig10RbacPolicy5Rules6Policy9PathMatchELm1EvEE\00", align 1
@_ZTIN9grpc_core11json_detail24FinishedJsonObjectLoaderINS_12_GLOBAL__N_110RbacConfig10RbacPolicy5Rules6Policy9PathMatchELm1EvEE = internal constant { ptr, ptr, ptr } { ptr getelementptr inbounds (ptr, ptr @_ZTVN10__cxxabiv120__si_class_type_infoE, i64 2), ptr @_ZTSN9grpc_core11json_detail24FinishedJsonObjectLoaderINS_12_GLOBAL__N_110RbacConfig10RbacPolicy5Rules6Policy9PathMatchELm1EvEE, ptr @_ZTIN9grpc_core11json_detail15LoaderInterfaceE }, align 8
@_ZTVN9grpc_core11json_detail10AutoLoaderINS_12_GLOBAL__N_110RbacConfig10RbacPolicy5Rules6Policy9CidrRangeEEE = internal unnamed_addr constant { [3 x ptr] } { [3 x ptr] [ptr null, ptr @_ZTIN9grpc_core11json_detail10AutoLoaderINS_12_GLOBAL__N_110RbacConfig10RbacPolicy5Rules6Policy9CidrRangeEEE, ptr @_ZNK9grpc_core11json_detail10AutoLoaderINS_12_GLOBAL__N_110RbacConfig10RbacPolicy5Rules6Policy9CidrRangeEE8LoadIntoERKNS_12experimental4JsonERKNS_8JsonArgsEPvPNS_16ValidationErrorsE] }, align 8
@_ZTSN9grpc_core11json_detail10AutoLoaderINS_12_GLOBAL__N_110RbacConfig10RbacPolicy5Rules6Policy9CidrRangeEEE = internal constant [105 x i8] c"N9grpc_core11json_detail10AutoLoaderINS_12_GLOBAL__N_110RbacConfig10RbacPolicy5Rules6Policy9CidrRangeEEE\00", align 1
@_ZTIN9grpc_core11json_detail10AutoLoaderINS_12_GLOBAL__N_110RbacConfig10RbacPolicy5Rules6Policy9CidrRangeEEE = internal constant { ptr, ptr, ptr } { ptr getelementptr inbounds (ptr, ptr @_ZTVN10__cxxabiv120__si_class_type_infoE, i64 2), ptr @_ZTSN9grpc_core11json_detail10AutoLoaderINS_12_GLOBAL__N_110RbacConfig10RbacPolicy5Rules6Policy9CidrRangeEEE, ptr @_ZTIN9grpc_core11json_detail15LoaderInterfaceE }, align 8
@_ZZN9grpc_core12_GLOBAL__N_110RbacConfig10RbacPolicy5Rules6Policy9CidrRange10JsonLoaderERKNS_8JsonArgsEE6loader = internal unnamed_addr global ptr null, align 8
@_ZGVZN9grpc_core12_GLOBAL__N_110RbacConfig10RbacPolicy5Rules6Policy9CidrRange10JsonLoaderERKNS_8JsonArgsEE6loader = internal global i64 0, align 8
@_ZTVN9grpc_core11json_detail24FinishedJsonObjectLoaderINS_12_GLOBAL__N_110RbacConfig10RbacPolicy5Rules6Policy9CidrRangeELm0EvEE = internal unnamed_addr constant { [3 x ptr] } { [3 x ptr] [ptr null, ptr @_ZTIN9grpc_core11json_detail24FinishedJsonObjectLoaderINS_12_GLOBAL__N_110RbacConfig10RbacPolicy5Rules6Policy9CidrRangeELm0EvEE, ptr @_ZNK9grpc_core11json_detail24FinishedJsonObjectLoaderINS_12_GLOBAL__N_110RbacConfig10RbacPolicy5Rules6Policy9CidrRangeELm0EvE8LoadIntoERKNS_12experimental4JsonERKNS_8JsonArgsEPvPNS_16ValidationErrorsE] }, align 8
@_ZTSN9grpc_core11json_detail24FinishedJsonObjectLoaderINS_12_GLOBAL__N_110RbacConfig10RbacPolicy5Rules6Policy9CidrRangeELm0EvEE = internal constant [124 x i8] c"N9grpc_core11json_detail24FinishedJsonObjectLoaderINS_12_GLOBAL__N_110RbacConfig10RbacPolicy5Rules6Policy9CidrRangeELm0EvEE\00", align 1
@_ZTIN9grpc_core11json_detail24FinishedJsonObjectLoaderINS_12_GLOBAL__N_110RbacConfig10RbacPolicy5Rules6Policy9CidrRangeELm0EvEE = internal constant { ptr, ptr, ptr } { ptr getelementptr inbounds (ptr, ptr @_ZTVN10__cxxabiv120__si_class_type_infoE, i64 2), ptr @_ZTSN9grpc_core11json_detail24FinishedJsonObjectLoaderINS_12_GLOBAL__N_110RbacConfig10RbacPolicy5Rules6Policy9CidrRangeELm0EvEE, ptr @_ZTIN9grpc_core11json_detail15LoaderInterfaceE }, align 8
@.str.73 = private unnamed_addr constant [14 x i8] c"addressPrefix\00", align 1
@.str.74 = private unnamed_addr constant [10 x i8] c"prefixLen\00", align 1
@_ZTVN9grpc_core11json_detail10AutoLoaderINS_12_GLOBAL__N_110RbacConfig10RbacPolicy5Rules6Policy8MetadataEEE = internal unnamed_addr constant { [3 x ptr] } { [3 x ptr] [ptr null, ptr @_ZTIN9grpc_core11json_detail10AutoLoaderINS_12_GLOBAL__N_110RbacConfig10RbacPolicy5Rules6Policy8MetadataEEE, ptr @_ZNK9grpc_core11json_detail10AutoLoaderINS_12_GLOBAL__N_110RbacConfig10RbacPolicy5Rules6Policy8MetadataEE8LoadIntoERKNS_12experimental4JsonERKNS_8JsonArgsEPvPNS_16ValidationErrorsE] }, align 8
@_ZTSN9grpc_core11json_detail10AutoLoaderINS_12_GLOBAL__N_110RbacConfig10RbacPolicy5Rules6Policy8MetadataEEE = internal constant [104 x i8] c"N9grpc_core11json_detail10AutoLoaderINS_12_GLOBAL__N_110RbacConfig10RbacPolicy5Rules6Policy8MetadataEEE\00", align 1
@_ZTIN9grpc_core11json_detail10AutoLoaderINS_12_GLOBAL__N_110RbacConfig10RbacPolicy5Rules6Policy8MetadataEEE = internal constant { ptr, ptr, ptr } { ptr getelementptr inbounds (ptr, ptr @_ZTVN10__cxxabiv120__si_class_type_infoE, i64 2), ptr @_ZTSN9grpc_core11json_detail10AutoLoaderINS_12_GLOBAL__N_110RbacConfig10RbacPolicy5Rules6Policy8MetadataEEE, ptr @_ZTIN9grpc_core11json_detail15LoaderInterfaceE }, align 8
@_ZZN9grpc_core12_GLOBAL__N_110RbacConfig10RbacPolicy5Rules6Policy8Metadata10JsonLoaderERKNS_8JsonArgsEE6loader = internal unnamed_addr global ptr null, align 8
@_ZGVZN9grpc_core12_GLOBAL__N_110RbacConfig10RbacPolicy5Rules6Policy8Metadata10JsonLoaderERKNS_8JsonArgsEE6loader = internal global i64 0, align 8
@.str.75 = private unnamed_addr constant [7 x i8] c"invert\00", align 1
@_ZTVN9grpc_core11json_detail24FinishedJsonObjectLoaderINS_12_GLOBAL__N_110RbacConfig10RbacPolicy5Rules6Policy8MetadataELm1EvEE = internal unnamed_addr constant { [3 x ptr] } { [3 x ptr] [ptr null, ptr @_ZTIN9grpc_core11json_detail24FinishedJsonObjectLoaderINS_12_GLOBAL__N_110RbacConfig10RbacPolicy5Rules6Policy8MetadataELm1EvEE, ptr @_ZNK9grpc_core11json_detail24FinishedJsonObjectLoaderINS_12_GLOBAL__N_110RbacConfig10RbacPolicy5Rules6Policy8MetadataELm1EvE8LoadIntoERKNS_12experimental4JsonERKNS_8JsonArgsEPvPNS_16ValidationErrorsE] }, align 8
@_ZTSN9grpc_core11json_detail24FinishedJsonObjectLoaderINS_12_GLOBAL__N_110RbacConfig10RbacPolicy5Rules6Policy8MetadataELm1EvEE = internal constant [123 x i8] c"N9grpc_core11json_detail24FinishedJsonObjectLoaderINS_12_GLOBAL__N_110RbacConfig10RbacPolicy5Rules6Policy8MetadataELm1EvEE\00", align 1
@_ZTIN9grpc_core11json_detail24FinishedJsonObjectLoaderINS_12_GLOBAL__N_110RbacConfig10RbacPolicy5Rules6Policy8MetadataELm1EvEE = internal constant { ptr, ptr, ptr } { ptr getelementptr inbounds (ptr, ptr @_ZTVN10__cxxabiv120__si_class_type_infoE, i64 2), ptr @_ZTSN9grpc_core11json_detail24FinishedJsonObjectLoaderINS_12_GLOBAL__N_110RbacConfig10RbacPolicy5Rules6Policy8MetadataELm1EvEE, ptr @_ZTIN9grpc_core11json_detail15LoaderInterfaceE }, align 8
@_ZTVN9grpc_core11json_detail10AutoLoaderINS_12_GLOBAL__N_110RbacConfig10RbacPolicy5Rules6Policy10Permission14PermissionListEEE = internal unnamed_addr constant { [3 x ptr] } { [3 x ptr] [ptr null, ptr @_ZTIN9grpc_core11json_detail10AutoLoaderINS_12_GLOBAL__N_110RbacConfig10RbacPolicy5Rules6Policy10Permission14PermissionListEEE, ptr @_ZNK9grpc_core11json_detail10AutoLoaderINS_12_GLOBAL__N_110RbacConfig10RbacPolicy5Rules6Policy10Permission14PermissionListEE8LoadIntoERKNS_12experimental4JsonERKNS_8JsonArgsEPvPNS_16ValidationErrorsE] }, align 8
@_ZTSN9grpc_core11json_detail10AutoLoaderINS_12_GLOBAL__N_110RbacConfig10RbacPolicy5Rules6Policy10Permission14PermissionListEEE = internal constant [123 x i8] c"N9grpc_core11json_detail10AutoLoaderINS_12_GLOBAL__N_110RbacConfig10RbacPolicy5Rules6Policy10Permission14PermissionListEEE\00", align 1
@_ZTIN9grpc_core11json_detail10AutoLoaderINS_12_GLOBAL__N_110RbacConfig10RbacPolicy5Rules6Policy10Permission14PermissionListEEE = internal constant { ptr, ptr, ptr } { ptr getelementptr inbounds (ptr, ptr @_ZTVN10__cxxabiv120__si_class_type_infoE, i64 2), ptr @_ZTSN9grpc_core11json_detail10AutoLoaderINS_12_GLOBAL__N_110RbacConfig10RbacPolicy5Rules6Policy10Permission14PermissionListEEE, ptr @_ZTIN9grpc_core11json_detail15LoaderInterfaceE }, align 8
@_ZZN9grpc_core12_GLOBAL__N_110RbacConfig10RbacPolicy5Rules6Policy10Permission14PermissionList10JsonLoaderERKNS_8JsonArgsEE6loader = internal unnamed_addr global ptr null, align 8
@_ZGVZN9grpc_core12_GLOBAL__N_110RbacConfig10RbacPolicy5Rules6Policy10Permission14PermissionList10JsonLoaderERKNS_8JsonArgsEE6loader = internal global i64 0, align 8
@.str.76 = private unnamed_addr constant [6 x i8] c"rules\00", align 1
@_ZTVN9grpc_core11json_detail24FinishedJsonObjectLoaderINS_12_GLOBAL__N_110RbacConfig10RbacPolicy5Rules6Policy10Permission14PermissionListELm1EvEE = internal unnamed_addr constant { [3 x ptr] } { [3 x ptr] [ptr null, ptr @_ZTIN9grpc_core11json_detail24FinishedJsonObjectLoaderINS_12_GLOBAL__N_110RbacConfig10RbacPolicy5Rules6Policy10Permission14PermissionListELm1EvEE, ptr @_ZNK9grpc_core11json_detail24FinishedJsonObjectLoaderINS_12_GLOBAL__N_110RbacConfig10RbacPolicy5Rules6Policy10Permission14PermissionListELm1EvE8LoadIntoERKNS_12experimental4JsonERKNS_8JsonArgsEPvPNS_16ValidationErrorsE] }, align 8
@_ZTSN9grpc_core11json_detail24FinishedJsonObjectLoaderINS_12_GLOBAL__N_110RbacConfig10RbacPolicy5Rules6Policy10Permission14PermissionListELm1EvEE = internal constant [142 x i8] c"N9grpc_core11json_detail24FinishedJsonObjectLoaderINS_12_GLOBAL__N_110RbacConfig10RbacPolicy5Rules6Policy10Permission14PermissionListELm1EvEE\00", align 1
@_ZTIN9grpc_core11json_detail24FinishedJsonObjectLoaderINS_12_GLOBAL__N_110RbacConfig10RbacPolicy5Rules6Policy10Permission14PermissionListELm1EvEE = internal constant { ptr, ptr, ptr } { ptr getelementptr inbounds (ptr, ptr @_ZTVN10__cxxabiv120__si_class_type_infoE, i64 2), ptr @_ZTSN9grpc_core11json_detail24FinishedJsonObjectLoaderINS_12_GLOBAL__N_110RbacConfig10RbacPolicy5Rules6Policy10Permission14PermissionListELm1EvEE, ptr @_ZTIN9grpc_core11json_detail15LoaderInterfaceE }, align 8
@_ZTVN9grpc_core11json_detail10AutoLoaderINS_12_GLOBAL__N_110RbacConfig10RbacPolicy5Rules6Policy9PrincipalEEE = internal unnamed_addr constant { [3 x ptr] } { [3 x ptr] [ptr null, ptr @_ZTIN9grpc_core11json_detail10AutoLoaderINS_12_GLOBAL__N_110RbacConfig10RbacPolicy5Rules6Policy9PrincipalEEE, ptr @_ZNK9grpc_core11json_detail10AutoLoaderINS_12_GLOBAL__N_110RbacConfig10RbacPolicy5Rules6Policy9PrincipalEE8LoadIntoERKNS_12experimental4JsonERKNS_8JsonArgsEPvPNS_16ValidationErrorsE] }, align 8
@_ZTSN9grpc_core11json_detail10AutoLoaderINS_12_GLOBAL__N_110RbacConfig10RbacPolicy5Rules6Policy9PrincipalEEE = internal constant [105 x i8] c"N9grpc_core11json_detail10AutoLoaderINS_12_GLOBAL__N_110RbacConfig10RbacPolicy5Rules6Policy9PrincipalEEE\00", align 1
@_ZTIN9grpc_core11json_detail10AutoLoaderINS_12_GLOBAL__N_110RbacConfig10RbacPolicy5Rules6Policy9PrincipalEEE = internal constant { ptr, ptr, ptr } { ptr getelementptr inbounds (ptr, ptr @_ZTVN10__cxxabiv120__si_class_type_infoE, i64 2), ptr @_ZTSN9grpc_core11json_detail10AutoLoaderINS_12_GLOBAL__N_110RbacConfig10RbacPolicy5Rules6Policy9PrincipalEEE, ptr @_ZTIN9grpc_core11json_detail15LoaderInterfaceE }, align 8
@_ZZN9grpc_core12_GLOBAL__N_110RbacConfig10RbacPolicy5Rules6Policy9Principal10JsonLoaderERKNS_8JsonArgsEE6loader = internal unnamed_addr global ptr null, align 8
@_ZGVZN9grpc_core12_GLOBAL__N_110RbacConfig10RbacPolicy5Rules6Policy9Principal10JsonLoaderERKNS_8JsonArgsEE6loader = internal global i64 0, align 8
@_ZTVN9grpc_core11json_detail24FinishedJsonObjectLoaderINS_12_GLOBAL__N_110RbacConfig10RbacPolicy5Rules6Policy9PrincipalELm0EvEE = internal unnamed_addr constant { [3 x ptr] } { [3 x ptr] [ptr null, ptr @_ZTIN9grpc_core11json_detail24FinishedJsonObjectLoaderINS_12_GLOBAL__N_110RbacConfig10RbacPolicy5Rules6Policy9PrincipalELm0EvEE, ptr @_ZNK9grpc_core11json_detail24FinishedJsonObjectLoaderINS_12_GLOBAL__N_110RbacConfig10RbacPolicy5Rules6Policy9PrincipalELm0EvE8LoadIntoERKNS_12experimental4JsonERKNS_8JsonArgsEPvPNS_16ValidationErrorsE] }, align 8
@_ZTSN9grpc_core11json_detail24FinishedJsonObjectLoaderINS_12_GLOBAL__N_110RbacConfig10RbacPolicy5Rules6Policy9PrincipalELm0EvEE = internal constant [124 x i8] c"N9grpc_core11json_detail24FinishedJsonObjectLoaderINS_12_GLOBAL__N_110RbacConfig10RbacPolicy5Rules6Policy9PrincipalELm0EvEE\00", align 1
@_ZTIN9grpc_core11json_detail24FinishedJsonObjectLoaderINS_12_GLOBAL__N_110RbacConfig10RbacPolicy5Rules6Policy9PrincipalELm0EvEE = internal constant { ptr, ptr, ptr } { ptr getelementptr inbounds (ptr, ptr @_ZTVN10__cxxabiv120__si_class_type_infoE, i64 2), ptr @_ZTSN9grpc_core11json_detail24FinishedJsonObjectLoaderINS_12_GLOBAL__N_110RbacConfig10RbacPolicy5Rules6Policy9PrincipalELm0EvEE, ptr @_ZTIN9grpc_core11json_detail15LoaderInterfaceE }, align 8
@.str.77 = private unnamed_addr constant [14 x i8] c"authenticated\00", align 1
@.str.78 = private unnamed_addr constant [9 x i8] c"sourceIp\00", align 1
@.str.79 = private unnamed_addr constant [15 x i8] c"directRemoteIp\00", align 1
@.str.80 = private unnamed_addr constant [9 x i8] c"remoteIp\00", align 1
@.str.81 = private unnamed_addr constant [7 x i8] c"andIds\00", align 1
@.str.82 = private unnamed_addr constant [6 x i8] c"orIds\00", align 1
@.str.83 = private unnamed_addr constant [6 x i8] c"notId\00", align 1
@.str.84 = private unnamed_addr constant [18 x i8] c"no valid id found\00", align 1
@_ZTVN9grpc_core11json_detail10AutoLoaderISt6vectorINS_12_GLOBAL__N_110RbacConfig10RbacPolicy5Rules6Policy9PrincipalESaIS8_EEEE = internal unnamed_addr constant { [5 x ptr] } { [5 x ptr] [ptr null, ptr @_ZTIN9grpc_core11json_detail10AutoLoaderISt6vectorINS_12_GLOBAL__N_110RbacConfig10RbacPolicy5Rules6Policy9PrincipalESaIS8_EEEE, ptr @_ZNK9grpc_core11json_detail10LoadVector8LoadIntoERKNS_12experimental4JsonERKNS_8JsonArgsEPvPNS_16ValidationErrorsE, ptr @_ZNK9grpc_core11json_detail10AutoLoaderISt6vectorINS_12_GLOBAL__N_110RbacConfig10RbacPolicy5Rules6Policy9PrincipalESaIS8_EEE11EmplaceBackEPv, ptr @_ZNK9grpc_core11json_detail10AutoLoaderISt6vectorINS_12_GLOBAL__N_110RbacConfig10RbacPolicy5Rules6Policy9PrincipalESaIS8_EEE13ElementLoaderEv] }, align 8
@_ZTSN9grpc_core11json_detail10AutoLoaderISt6vectorINS_12_GLOBAL__N_110RbacConfig10RbacPolicy5Rules6Policy9PrincipalESaIS8_EEEE = internal constant [123 x i8] c"N9grpc_core11json_detail10AutoLoaderISt6vectorINS_12_GLOBAL__N_110RbacConfig10RbacPolicy5Rules6Policy9PrincipalESaIS8_EEEE\00", align 1
@_ZTIN9grpc_core11json_detail10AutoLoaderISt6vectorINS_12_GLOBAL__N_110RbacConfig10RbacPolicy5Rules6Policy9PrincipalESaIS8_EEEE = internal constant { ptr, ptr, ptr } { ptr getelementptr inbounds (ptr, ptr @_ZTVN10__cxxabiv120__si_class_type_infoE, i64 2), ptr @_ZTSN9grpc_core11json_detail10AutoLoaderISt6vectorINS_12_GLOBAL__N_110RbacConfig10RbacPolicy5Rules6Policy9PrincipalESaIS8_EEEE, ptr @_ZTIN9grpc_core11json_detail10LoadVectorE }, align 8
@_ZTVN9grpc_core11json_detail10AutoLoaderISt8optionalINS_12_GLOBAL__N_110RbacConfig10RbacPolicy5Rules6Policy11StringMatchEEEE = internal unnamed_addr constant { [6 x ptr] } { [6 x ptr] [ptr null, ptr @_ZTIN9grpc_core11json_detail10AutoLoaderISt8optionalINS_12_GLOBAL__N_110RbacConfig10RbacPolicy5Rules6Policy11StringMatchEEEE, ptr @_ZNK9grpc_core11json_detail11LoadWrapped8LoadIntoERKNS_12experimental4JsonERKNS_8JsonArgsEPvPNS_16ValidationErrorsE, ptr @_ZNK9grpc_core11json_detail10AutoLoaderISt8optionalINS_12_GLOBAL__N_110RbacConfig10RbacPolicy5Rules6Policy11StringMatchEEE7EmplaceEPv, ptr @_ZNK9grpc_core11json_detail10AutoLoaderISt8optionalINS_12_GLOBAL__N_110RbacConfig10RbacPolicy5Rules6Policy11StringMatchEEE5ResetEPv, ptr @_ZNK9grpc_core11json_detail10AutoLoaderISt8optionalINS_12_GLOBAL__N_110RbacConfig10RbacPolicy5Rules6Policy11StringMatchEEE13ElementLoaderEv] }, align 8
@_ZTSN9grpc_core11json_detail10AutoLoaderISt8optionalINS_12_GLOBAL__N_110RbacConfig10RbacPolicy5Rules6Policy11StringMatchEEEE = internal constant [121 x i8] c"N9grpc_core11json_detail10AutoLoaderISt8optionalINS_12_GLOBAL__N_110RbacConfig10RbacPolicy5Rules6Policy11StringMatchEEEE\00", align 1
@_ZTIN9grpc_core11json_detail11LoadWrappedE = external constant ptr
@_ZTIN9grpc_core11json_detail10AutoLoaderISt8optionalINS_12_GLOBAL__N_110RbacConfig10RbacPolicy5Rules6Policy11StringMatchEEEE = internal constant { ptr, ptr, ptr } { ptr getelementptr inbounds (ptr, ptr @_ZTVN10__cxxabiv120__si_class_type_infoE, i64 2), ptr @_ZTSN9grpc_core11json_detail10AutoLoaderISt8optionalINS_12_GLOBAL__N_110RbacConfig10RbacPolicy5Rules6Policy11StringMatchEEEE, ptr @_ZTIN9grpc_core11json_detail11LoadWrappedE }, align 8
@_ZTVN9grpc_core11json_detail10AutoLoaderINS_12_GLOBAL__N_110RbacConfig10RbacPolicy5Rules6Policy9Principal13AuthenticatedEEE = internal unnamed_addr constant { [3 x ptr] } { [3 x ptr] [ptr null, ptr @_ZTIN9grpc_core11json_detail10AutoLoaderINS_12_GLOBAL__N_110RbacConfig10RbacPolicy5Rules6Policy9Principal13AuthenticatedEEE, ptr @_ZNK9grpc_core11json_detail10AutoLoaderINS_12_GLOBAL__N_110RbacConfig10RbacPolicy5Rules6Policy9Principal13AuthenticatedEE8LoadIntoERKNS_12experimental4JsonERKNS_8JsonArgsEPvPNS_16ValidationErrorsE] }, align 8
@_ZTSN9grpc_core11json_detail10AutoLoaderINS_12_GLOBAL__N_110RbacConfig10RbacPolicy5Rules6Policy9Principal13AuthenticatedEEE = internal constant [120 x i8] c"N9grpc_core11json_detail10AutoLoaderINS_12_GLOBAL__N_110RbacConfig10RbacPolicy5Rules6Policy9Principal13AuthenticatedEEE\00", align 1
@_ZTIN9grpc_core11json_detail10AutoLoaderINS_12_GLOBAL__N_110RbacConfig10RbacPolicy5Rules6Policy9Principal13AuthenticatedEEE = internal constant { ptr, ptr, ptr } { ptr getelementptr inbounds (ptr, ptr @_ZTVN10__cxxabiv120__si_class_type_infoE, i64 2), ptr @_ZTSN9grpc_core11json_detail10AutoLoaderINS_12_GLOBAL__N_110RbacConfig10RbacPolicy5Rules6Policy9Principal13AuthenticatedEEE, ptr @_ZTIN9grpc_core11json_detail15LoaderInterfaceE }, align 8
@_ZZN9grpc_core12_GLOBAL__N_110RbacConfig10RbacPolicy5Rules6Policy9Principal13Authenticated10JsonLoaderERKNS_8JsonArgsEE6loader = internal unnamed_addr global ptr null, align 8
@_ZGVZN9grpc_core12_GLOBAL__N_110RbacConfig10RbacPolicy5Rules6Policy9Principal13Authenticated10JsonLoaderERKNS_8JsonArgsEE6loader = internal global i64 0, align 8
@.str.85 = private unnamed_addr constant [14 x i8] c"principalName\00", align 1
@_ZTVN9grpc_core11json_detail24FinishedJsonObjectLoaderINS_12_GLOBAL__N_110RbacConfig10RbacPolicy5Rules6Policy9Principal13AuthenticatedELm1EvEE = internal unnamed_addr constant { [3 x ptr] } { [3 x ptr] [ptr null, ptr @_ZTIN9grpc_core11json_detail24FinishedJsonObjectLoaderINS_12_GLOBAL__N_110RbacConfig10RbacPolicy5Rules6Policy9Principal13AuthenticatedELm1EvEE, ptr @_ZNK9grpc_core11json_detail24FinishedJsonObjectLoaderINS_12_GLOBAL__N_110RbacConfig10RbacPolicy5Rules6Policy9Principal13AuthenticatedELm1EvE8LoadIntoERKNS_12experimental4JsonERKNS_8JsonArgsEPvPNS_16ValidationErrorsE] }, align 8
@_ZTSN9grpc_core11json_detail24FinishedJsonObjectLoaderINS_12_GLOBAL__N_110RbacConfig10RbacPolicy5Rules6Policy9Principal13AuthenticatedELm1EvEE = internal constant [139 x i8] c"N9grpc_core11json_detail24FinishedJsonObjectLoaderINS_12_GLOBAL__N_110RbacConfig10RbacPolicy5Rules6Policy9Principal13AuthenticatedELm1EvEE\00", align 1
@_ZTIN9grpc_core11json_detail24FinishedJsonObjectLoaderINS_12_GLOBAL__N_110RbacConfig10RbacPolicy5Rules6Policy9Principal13AuthenticatedELm1EvEE = internal constant { ptr, ptr, ptr } { ptr getelementptr inbounds (ptr, ptr @_ZTVN10__cxxabiv120__si_class_type_infoE, i64 2), ptr @_ZTSN9grpc_core11json_detail24FinishedJsonObjectLoaderINS_12_GLOBAL__N_110RbacConfig10RbacPolicy5Rules6Policy9Principal13AuthenticatedELm1EvEE, ptr @_ZTIN9grpc_core11json_detail15LoaderInterfaceE }, align 8
@_ZTVN9grpc_core11json_detail10AutoLoaderINS_12_GLOBAL__N_110RbacConfig10RbacPolicy5Rules6Policy9Principal13PrincipalListEEE = internal unnamed_addr constant { [3 x ptr] } { [3 x ptr] [ptr null, ptr @_ZTIN9grpc_core11json_detail10AutoLoaderINS_12_GLOBAL__N_110RbacConfig10RbacPolicy5Rules6Policy9Principal13PrincipalListEEE, ptr @_ZNK9grpc_core11json_detail10AutoLoaderINS_12_GLOBAL__N_110RbacConfig10RbacPolicy5Rules6Policy9Principal13PrincipalListEE8LoadIntoERKNS_12experimental4JsonERKNS_8JsonArgsEPvPNS_16ValidationErrorsE] }, align 8
@_ZTSN9grpc_core11json_detail10AutoLoaderINS_12_GLOBAL__N_110RbacConfig10RbacPolicy5Rules6Policy9Principal13PrincipalListEEE = internal constant [120 x i8] c"N9grpc_core11json_detail10AutoLoaderINS_12_GLOBAL__N_110RbacConfig10RbacPolicy5Rules6Policy9Principal13PrincipalListEEE\00", align 1
@_ZTIN9grpc_core11json_detail10AutoLoaderINS_12_GLOBAL__N_110RbacConfig10RbacPolicy5Rules6Policy9Principal13PrincipalListEEE = internal constant { ptr, ptr, ptr } { ptr getelementptr inbounds (ptr, ptr @_ZTVN10__cxxabiv120__si_class_type_infoE, i64 2), ptr @_ZTSN9grpc_core11json_detail10AutoLoaderINS_12_GLOBAL__N_110RbacConfig10RbacPolicy5Rules6Policy9Principal13PrincipalListEEE, ptr @_ZTIN9grpc_core11json_detail15LoaderInterfaceE }, align 8
@_ZZN9grpc_core12_GLOBAL__N_110RbacConfig10RbacPolicy5Rules6Policy9Principal13PrincipalList10JsonLoaderERKNS_8JsonArgsEE6loader = internal unnamed_addr global ptr null, align 8
@_ZGVZN9grpc_core12_GLOBAL__N_110RbacConfig10RbacPolicy5Rules6Policy9Principal13PrincipalList10JsonLoaderERKNS_8JsonArgsEE6loader = internal global i64 0, align 8
@.str.86 = private unnamed_addr constant [4 x i8] c"ids\00", align 1
@_ZTVN9grpc_core11json_detail24FinishedJsonObjectLoaderINS_12_GLOBAL__N_110RbacConfig10RbacPolicy5Rules6Policy9Principal13PrincipalListELm1EvEE = internal unnamed_addr constant { [3 x ptr] } { [3 x ptr] [ptr null, ptr @_ZTIN9grpc_core11json_detail24FinishedJsonObjectLoaderINS_12_GLOBAL__N_110RbacConfig10RbacPolicy5Rules6Policy9Principal13PrincipalListELm1EvEE, ptr @_ZNK9grpc_core11json_detail24FinishedJsonObjectLoaderINS_12_GLOBAL__N_110RbacConfig10RbacPolicy5Rules6Policy9Principal13PrincipalListELm1EvE8LoadIntoERKNS_12experimental4JsonERKNS_8JsonArgsEPvPNS_16ValidationErrorsE] }, align 8
@_ZTSN9grpc_core11json_detail24FinishedJsonObjectLoaderINS_12_GLOBAL__N_110RbacConfig10RbacPolicy5Rules6Policy9Principal13PrincipalListELm1EvEE = internal constant [139 x i8] c"N9grpc_core11json_detail24FinishedJsonObjectLoaderINS_12_GLOBAL__N_110RbacConfig10RbacPolicy5Rules6Policy9Principal13PrincipalListELm1EvEE\00", align 1
@_ZTIN9grpc_core11json_detail24FinishedJsonObjectLoaderINS_12_GLOBAL__N_110RbacConfig10RbacPolicy5Rules6Policy9Principal13PrincipalListELm1EvEE = internal constant { ptr, ptr, ptr } { ptr getelementptr inbounds (ptr, ptr @_ZTVN10__cxxabiv120__si_class_type_infoE, i64 2), ptr @_ZTSN9grpc_core11json_detail24FinishedJsonObjectLoaderINS_12_GLOBAL__N_110RbacConfig10RbacPolicy5Rules6Policy9Principal13PrincipalListELm1EvEE, ptr @_ZTIN9grpc_core11json_detail15LoaderInterfaceE }, align 8
@_ZTVN9grpc_core11json_detail10AutoLoaderISt3mapINSt7__cxx1112basic_stringIcSt11char_traitsIcESaIcEEENS_12experimental4JsonESt4lessIS8_ESaISt4pairIKS8_SA_EEEEE = linkonce_odr unnamed_addr constant { [3 x ptr] } { [3 x ptr] [ptr null, ptr @_ZTIN9grpc_core11json_detail10AutoLoaderISt3mapINSt7__cxx1112basic_stringIcSt11char_traitsIcESaIcEEENS_12experimental4JsonESt4lessIS8_ESaISt4pairIKS8_SA_EEEEE, ptr @_ZNK9grpc_core11json_detail25LoadUnprocessedJsonObject8LoadIntoERKNS_12experimental4JsonERKNS_8JsonArgsEPvPNS_16ValidationErrorsE] }, comdat, align 8
@_ZTSN9grpc_core11json_detail10AutoLoaderISt3mapINSt7__cxx1112basic_stringIcSt11char_traitsIcESaIcEEENS_12experimental4JsonESt4lessIS8_ESaISt4pairIKS8_SA_EEEEE = linkonce_odr constant [155 x i8] c"N9grpc_core11json_detail10AutoLoaderISt3mapINSt7__cxx1112basic_stringIcSt11char_traitsIcESaIcEEENS_12experimental4JsonESt4lessIS8_ESaISt4pairIKS8_SA_EEEEE\00", comdat, align 1
@_ZTIN9grpc_core11json_detail25LoadUnprocessedJsonObjectE = external constant ptr
@_ZTIN9grpc_core11json_detail10AutoLoaderISt3mapINSt7__cxx1112basic_stringIcSt11char_traitsIcESaIcEEENS_12experimental4JsonESt4lessIS8_ESaISt4pairIKS8_SA_EEEEE = linkonce_odr constant { ptr, ptr, ptr } { ptr getelementptr inbounds (ptr, ptr @_ZTVN10__cxxabiv120__si_class_type_infoE, i64 2), ptr @_ZTSN9grpc_core11json_detail10AutoLoaderISt3mapINSt7__cxx1112basic_stringIcSt11char_traitsIcESaIcEEENS_12experimental4JsonESt4lessIS8_ESaISt4pairIKS8_SA_EEEEE, ptr @_ZTIN9grpc_core11json_detail25LoadUnprocessedJsonObjectE }, comdat, align 8
@_ZTVN9grpc_core11json_detail10AutoLoaderIiEE = linkonce_odr unnamed_addr constant { [5 x ptr] } { [5 x ptr] [ptr null, ptr @_ZTIN9grpc_core11json_detail10AutoLoaderIiEE, ptr @_ZNK9grpc_core11json_detail10LoadScalar8LoadIntoERKNS_12experimental4JsonERKNS_8JsonArgsEPvPNS_16ValidationErrorsE, ptr @_ZNK9grpc_core11json_detail10LoadNumber8IsNumberEv, ptr @_ZNK9grpc_core11json_detail21TypedLoadSignedNumberIiE8LoadIntoERKNSt7__cxx1112basic_stringIcSt11char_traitsIcESaIcEEEPvPNS_16ValidationErrorsE] }, comdat, align 8
@_ZTSN9grpc_core11json_detail10AutoLoaderIiEE = linkonce_odr constant [41 x i8] c"N9grpc_core11json_detail10AutoLoaderIiEE\00", comdat, align 1
@_ZTSN9grpc_core11json_detail21TypedLoadSignedNumberIiEE = linkonce_odr constant [52 x i8] c"N9grpc_core11json_detail21TypedLoadSignedNumberIiEE\00", comdat, align 1
@_ZTIN9grpc_core11json_detail21TypedLoadSignedNumberIiEE = linkonce_odr constant { ptr, ptr, ptr } { ptr getelementptr inbounds (ptr, ptr @_ZTVN10__cxxabiv120__si_class_type_infoE, i64 2), ptr @_ZTSN9grpc_core11json_detail21TypedLoadSignedNumberIiEE, ptr @_ZTIN9grpc_core11json_detail10LoadNumberE }, comdat, align 8
@_ZTIN9grpc_core11json_detail10AutoLoaderIiEE = linkonce_odr constant { ptr, ptr, ptr } { ptr getelementptr inbounds (ptr, ptr @_ZTVN10__cxxabiv120__si_class_type_infoE, i64 2), ptr @_ZTSN9grpc_core11json_detail10AutoLoaderIiEE, ptr @_ZTIN9grpc_core11json_detail21TypedLoadSignedNumberIiEE }, comdat, align 8
@_ZTVN9grpc_core11json_detail10AutoLoaderINS_12_GLOBAL__N_110RbacConfig10RbacPolicy5Rules6PolicyEEE = internal unnamed_addr constant { [3 x ptr] } { [3 x ptr] [ptr null, ptr @_ZTIN9grpc_core11json_detail10AutoLoaderINS_12_GLOBAL__N_110RbacConfig10RbacPolicy5Rules6PolicyEEE, ptr @_ZNK9grpc_core11json_detail10AutoLoaderINS_12_GLOBAL__N_110RbacConfig10RbacPolicy5Rules6PolicyEE8LoadIntoERKNS_12experimental4JsonERKNS_8JsonArgsEPvPNS_16ValidationErrorsE] }, align 8
@_ZTSN9grpc_core11json_detail10AutoLoaderINS_12_GLOBAL__N_110RbacConfig10RbacPolicy5Rules6PolicyEEE = internal constant [95 x i8] c"N9grpc_core11json_detail10AutoLoaderINS_12_GLOBAL__N_110RbacConfig10RbacPolicy5Rules6PolicyEEE\00", align 1
@_ZTIN9grpc_core11json_detail10AutoLoaderINS_12_GLOBAL__N_110RbacConfig10RbacPolicy5Rules6PolicyEEE = internal constant { ptr, ptr, ptr } { ptr getelementptr inbounds (ptr, ptr @_ZTVN10__cxxabiv120__si_class_type_infoE, i64 2), ptr @_ZTSN9grpc_core11json_detail10AutoLoaderINS_12_GLOBAL__N_110RbacConfig10RbacPolicy5Rules6PolicyEEE, ptr @_ZTIN9grpc_core11json_detail15LoaderInterfaceE }, align 8
@_ZZN9grpc_core12_GLOBAL__N_110RbacConfig10RbacPolicy5Rules6Policy10JsonLoaderERKNS_8JsonArgsEE6loader = internal unnamed_addr global ptr null, align 8
@_ZGVZN9grpc_core12_GLOBAL__N_110RbacConfig10RbacPolicy5Rules6Policy10JsonLoaderERKNS_8JsonArgsEE6loader = internal global i64 0, align 8
@.str.87 = private unnamed_addr constant [12 x i8] c"permissions\00", align 1
@.str.88 = private unnamed_addr constant [11 x i8] c"principals\00", align 1
@_ZTVN9grpc_core11json_detail24FinishedJsonObjectLoaderINS_12_GLOBAL__N_110RbacConfig10RbacPolicy5Rules6PolicyELm2EvEE = internal unnamed_addr constant { [3 x ptr] } { [3 x ptr] [ptr null, ptr @_ZTIN9grpc_core11json_detail24FinishedJsonObjectLoaderINS_12_GLOBAL__N_110RbacConfig10RbacPolicy5Rules6PolicyELm2EvEE, ptr @_ZNK9grpc_core11json_detail24FinishedJsonObjectLoaderINS_12_GLOBAL__N_110RbacConfig10RbacPolicy5Rules6PolicyELm2EvE8LoadIntoERKNS_12experimental4JsonERKNS_8JsonArgsEPvPNS_16ValidationErrorsE] }, align 8
@_ZTSN9grpc_core11json_detail24FinishedJsonObjectLoaderINS_12_GLOBAL__N_110RbacConfig10RbacPolicy5Rules6PolicyELm2EvEE = internal constant [114 x i8] c"N9grpc_core11json_detail24FinishedJsonObjectLoaderINS_12_GLOBAL__N_110RbacConfig10RbacPolicy5Rules6PolicyELm2EvEE\00", align 1
@_ZTIN9grpc_core11json_detail24FinishedJsonObjectLoaderINS_12_GLOBAL__N_110RbacConfig10RbacPolicy5Rules6PolicyELm2EvEE = internal constant { ptr, ptr, ptr } { ptr getelementptr inbounds (ptr, ptr @_ZTVN10__cxxabiv120__si_class_type_infoE, i64 2), ptr @_ZTSN9grpc_core11json_detail24FinishedJsonObjectLoaderINS_12_GLOBAL__N_110RbacConfig10RbacPolicy5Rules6PolicyELm2EvEE, ptr @_ZTIN9grpc_core11json_detail15LoaderInterfaceE }, align 8
@_ZTVN9grpc_core11json_detail10AutoLoaderISt3mapINSt7__cxx1112basic_stringIcSt11char_traitsIcESaIcEEENS_12_GLOBAL__N_110RbacConfig10RbacPolicy5Rules6PolicyESt4lessIS8_ESaISt4pairIKS8_SD_EEEEE = internal unnamed_addr constant { [5 x ptr] } { [5 x ptr] [ptr null, ptr @_ZTIN9grpc_core11json_detail10AutoLoaderISt3mapINSt7__cxx1112basic_stringIcSt11char_traitsIcESaIcEEENS_12_GLOBAL__N_110RbacConfig10RbacPolicy5Rules6PolicyESt4lessIS8_ESaISt4pairIKS8_SD_EEEEE, ptr @_ZNK9grpc_core11json_detail7LoadMap8LoadIntoERKNS_12experimental4JsonERKNS_8JsonArgsEPvPNS_16ValidationErrorsE, ptr @_ZNK9grpc_core11json_detail10AutoLoaderISt3mapINSt7__cxx1112basic_stringIcSt11char_traitsIcESaIcEEENS_12_GLOBAL__N_110RbacConfig10RbacPolicy5Rules6PolicyESt4lessIS8_ESaISt4pairIKS8_SD_EEEE6InsertERSH_Pv, ptr @_ZNK9grpc_core11json_detail10AutoLoaderISt3mapINSt7__cxx1112basic_stringIcSt11char_traitsIcESaIcEEENS_12_GLOBAL__N_110RbacConfig10RbacPolicy5Rules6PolicyESt4lessIS8_ESaISt4pairIKS8_SD_EEEE13ElementLoaderEv] }, align 8
@_ZTSN9grpc_core11json_detail10AutoLoaderISt3mapINSt7__cxx1112basic_stringIcSt11char_traitsIcESaIcEEENS_12_GLOBAL__N_110RbacConfig10RbacPolicy5Rules6PolicyESt4lessIS8_ESaISt4pairIKS8_SD_EEEEE = internal constant [187 x i8] c"N9grpc_core11json_detail10AutoLoaderISt3mapINSt7__cxx1112basic_stringIcSt11char_traitsIcESaIcEEENS_12_GLOBAL__N_110RbacConfig10RbacPolicy5Rules6PolicyESt4lessIS8_ESaISt4pairIKS8_SD_EEEEE\00", align 1
@_ZTIN9grpc_core11json_detail7LoadMapE = external constant ptr
@_ZTIN9grpc_core11json_detail10AutoLoaderISt3mapINSt7__cxx1112basic_stringIcSt11char_traitsIcESaIcEEENS_12_GLOBAL__N_110RbacConfig10RbacPolicy5Rules6PolicyESt4lessIS8_ESaISt4pairIKS8_SD_EEEEE = internal constant { ptr, ptr, ptr } { ptr getelementptr inbounds (ptr, ptr @_ZTVN10__cxxabiv120__si_class_type_infoE, i64 2), ptr @_ZTSN9grpc_core11json_detail10AutoLoaderISt3mapINSt7__cxx1112basic_stringIcSt11char_traitsIcESaIcEEENS_12_GLOBAL__N_110RbacConfig10RbacPolicy5Rules6PolicyESt4lessIS8_ESaISt4pairIKS8_SD_EEEEE, ptr @_ZTIN9grpc_core11json_detail7LoadMapE }, align 8
@_ZTVN9grpc_core11json_detail10AutoLoaderINS_12_GLOBAL__N_110RbacConfig10RbacPolicy5Rules11AuditLoggerEEE = internal unnamed_addr constant { [3 x ptr] } { [3 x ptr] [ptr null, ptr @_ZTIN9grpc_core11json_detail10AutoLoaderINS_12_GLOBAL__N_110RbacConfig10RbacPolicy5Rules11AuditLoggerEEE, ptr @_ZNK9grpc_core11json_detail10AutoLoaderINS_12_GLOBAL__N_110RbacConfig10RbacPolicy5Rules11AuditLoggerEE8LoadIntoERKNS_12experimental4JsonERKNS_8JsonArgsEPvPNS_16ValidationErrorsE] }, align 8
@_ZTSN9grpc_core11json_detail10AutoLoaderINS_12_GLOBAL__N_110RbacConfig10RbacPolicy5Rules11AuditLoggerEEE = internal constant [101 x i8] c"N9grpc_core11json_detail10AutoLoaderINS_12_GLOBAL__N_110RbacConfig10RbacPolicy5Rules11AuditLoggerEEE\00", align 1
@_ZTIN9grpc_core11json_detail10AutoLoaderINS_12_GLOBAL__N_110RbacConfig10RbacPolicy5Rules11AuditLoggerEEE = internal constant { ptr, ptr, ptr } { ptr getelementptr inbounds (ptr, ptr @_ZTVN10__cxxabiv120__si_class_type_infoE, i64 2), ptr @_ZTSN9grpc_core11json_detail10AutoLoaderINS_12_GLOBAL__N_110RbacConfig10RbacPolicy5Rules11AuditLoggerEEE, ptr @_ZTIN9grpc_core11json_detail15LoaderInterfaceE }, align 8
@_ZZN9grpc_core12_GLOBAL__N_110RbacConfig10RbacPolicy5Rules11AuditLogger10JsonLoaderERKNS_8JsonArgsEE6loader = internal unnamed_addr global ptr null, align 8
@_ZGVZN9grpc_core12_GLOBAL__N_110RbacConfig10RbacPolicy5Rules11AuditLogger10JsonLoaderERKNS_8JsonArgsEE6loader = internal global i64 0, align 8
@_ZTVN9grpc_core11json_detail24FinishedJsonObjectLoaderINS_12_GLOBAL__N_110RbacConfig10RbacPolicy5Rules11AuditLoggerELm0EvEE = internal unnamed_addr constant { [3 x ptr] } { [3 x ptr] [ptr null, ptr @_ZTIN9grpc_core11json_detail24FinishedJsonObjectLoaderINS_12_GLOBAL__N_110RbacConfig10RbacPolicy5Rules11AuditLoggerELm0EvEE, ptr @_ZNK9grpc_core11json_detail24FinishedJsonObjectLoaderINS_12_GLOBAL__N_110RbacConfig10RbacPolicy5Rules11AuditLoggerELm0EvE8LoadIntoERKNS_12experimental4JsonERKNS_8JsonArgsEPvPNS_16ValidationErrorsE] }, align 8
@_ZTSN9grpc_core11json_detail24FinishedJsonObjectLoaderINS_12_GLOBAL__N_110RbacConfig10RbacPolicy5Rules11AuditLoggerELm0EvEE = internal constant [120 x i8] c"N9grpc_core11json_detail24FinishedJsonObjectLoaderINS_12_GLOBAL__N_110RbacConfig10RbacPolicy5Rules11AuditLoggerELm0EvEE\00", align 1
@_ZTIN9grpc_core11json_detail24FinishedJsonObjectLoaderINS_12_GLOBAL__N_110RbacConfig10RbacPolicy5Rules11AuditLoggerELm0EvEE = internal constant { ptr, ptr, ptr } { ptr getelementptr inbounds (ptr, ptr @_ZTVN10__cxxabiv120__si_class_type_infoE, i64 2), ptr @_ZTSN9grpc_core11json_detail24FinishedJsonObjectLoaderINS_12_GLOBAL__N_110RbacConfig10RbacPolicy5Rules11AuditLoggerELm0EvEE, ptr @_ZTIN9grpc_core11json_detail15LoaderInterfaceE }, align 8
@.str.89 = private unnamed_addr constant [43 x i8] c"audit logger should have exactly one field\00", align 1
@_ZTVN9grpc_core11json_detail10AutoLoaderISt6vectorINS_12_GLOBAL__N_110RbacConfig10RbacPolicy5Rules11AuditLoggerESaIS7_EEEE = internal unnamed_addr constant { [5 x ptr] } { [5 x ptr] [ptr null, ptr @_ZTIN9grpc_core11json_detail10AutoLoaderISt6vectorINS_12_GLOBAL__N_110RbacConfig10RbacPolicy5Rules11AuditLoggerESaIS7_EEEE, ptr @_ZNK9grpc_core11json_detail10LoadVector8LoadIntoERKNS_12experimental4JsonERKNS_8JsonArgsEPvPNS_16ValidationErrorsE, ptr @_ZNK9grpc_core11json_detail10AutoLoaderISt6vectorINS_12_GLOBAL__N_110RbacConfig10RbacPolicy5Rules11AuditLoggerESaIS7_EEE11EmplaceBackEPv, ptr @_ZNK9grpc_core11json_detail10AutoLoaderISt6vectorINS_12_GLOBAL__N_110RbacConfig10RbacPolicy5Rules11AuditLoggerESaIS7_EEE13ElementLoaderEv] }, align 8
@_ZTSN9grpc_core11json_detail10AutoLoaderISt6vectorINS_12_GLOBAL__N_110RbacConfig10RbacPolicy5Rules11AuditLoggerESaIS7_EEEE = internal constant [119 x i8] c"N9grpc_core11json_detail10AutoLoaderISt6vectorINS_12_GLOBAL__N_110RbacConfig10RbacPolicy5Rules11AuditLoggerESaIS7_EEEE\00", align 1
@_ZTIN9grpc_core11json_detail10AutoLoaderISt6vectorINS_12_GLOBAL__N_110RbacConfig10RbacPolicy5Rules11AuditLoggerESaIS7_EEEE = internal constant { ptr, ptr, ptr } { ptr getelementptr inbounds (ptr, ptr @_ZTVN10__cxxabiv120__si_class_type_infoE, i64 2), ptr @_ZTSN9grpc_core11json_detail10AutoLoaderISt6vectorINS_12_GLOBAL__N_110RbacConfig10RbacPolicy5Rules11AuditLoggerESaIS7_EEEE, ptr @_ZTIN9grpc_core11json_detail10LoadVectorE }, align 8
@_ZTVN9grpc_core11json_detail10AutoLoaderINS_12_GLOBAL__N_110RbacConfig10RbacPolicy5RulesEEE = internal unnamed_addr constant { [3 x ptr] } { [3 x ptr] [ptr null, ptr @_ZTIN9grpc_core11json_detail10AutoLoaderINS_12_GLOBAL__N_110RbacConfig10RbacPolicy5RulesEEE, ptr @_ZNK9grpc_core11json_detail10AutoLoaderINS_12_GLOBAL__N_110RbacConfig10RbacPolicy5RulesEE8LoadIntoERKNS_12experimental4JsonERKNS_8JsonArgsEPvPNS_16ValidationErrorsE] }, align 8
@_ZTSN9grpc_core11json_detail10AutoLoaderINS_12_GLOBAL__N_110RbacConfig10RbacPolicy5RulesEEE = internal constant [88 x i8] c"N9grpc_core11json_detail10AutoLoaderINS_12_GLOBAL__N_110RbacConfig10RbacPolicy5RulesEEE\00", align 1
@_ZTIN9grpc_core11json_detail10AutoLoaderINS_12_GLOBAL__N_110RbacConfig10RbacPolicy5RulesEEE = internal constant { ptr, ptr, ptr } { ptr getelementptr inbounds (ptr, ptr @_ZTVN10__cxxabiv120__si_class_type_infoE, i64 2), ptr @_ZTSN9grpc_core11json_detail10AutoLoaderINS_12_GLOBAL__N_110RbacConfig10RbacPolicy5RulesEEE, ptr @_ZTIN9grpc_core11json_detail15LoaderInterfaceE }, align 8
@_ZZN9grpc_core12_GLOBAL__N_110RbacConfig10RbacPolicy5Rules10JsonLoaderERKNS_8JsonArgsEE6loader = internal unnamed_addr global ptr null, align 8
@_ZGVZN9grpc_core12_GLOBAL__N_110RbacConfig10RbacPolicy5Rules10JsonLoaderERKNS_8JsonArgsEE6loader = internal global i64 0, align 8
@.str.90 = private unnamed_addr constant [7 x i8] c"action\00", align 1
@.str.91 = private unnamed_addr constant [9 x i8] c"policies\00", align 1
@_ZTVN9grpc_core11json_detail24FinishedJsonObjectLoaderINS_12_GLOBAL__N_110RbacConfig10RbacPolicy5RulesELm2EvEE = internal unnamed_addr constant { [3 x ptr] } { [3 x ptr] [ptr null, ptr @_ZTIN9grpc_core11json_detail24FinishedJsonObjectLoaderINS_12_GLOBAL__N_110RbacConfig10RbacPolicy5RulesELm2EvEE, ptr @_ZNK9grpc_core11json_detail24FinishedJsonObjectLoaderINS_12_GLOBAL__N_110RbacConfig10RbacPolicy5RulesELm2EvE8LoadIntoERKNS_12experimental4JsonERKNS_8JsonArgsEPvPNS_16ValidationErrorsE] }, align 8
@_ZTSN9grpc_core11json_detail24FinishedJsonObjectLoaderINS_12_GLOBAL__N_110RbacConfig10RbacPolicy5RulesELm2EvEE = internal constant [107 x i8] c"N9grpc_core11json_detail24FinishedJsonObjectLoaderINS_12_GLOBAL__N_110RbacConfig10RbacPolicy5RulesELm2EvEE\00", align 1
@_ZTIN9grpc_core11json_detail24FinishedJsonObjectLoaderINS_12_GLOBAL__N_110RbacConfig10RbacPolicy5RulesELm2EvEE = internal constant { ptr, ptr, ptr } { ptr getelementptr inbounds (ptr, ptr @_ZTVN10__cxxabiv120__si_class_type_infoE, i64 2), ptr @_ZTSN9grpc_core11json_detail24FinishedJsonObjectLoaderINS_12_GLOBAL__N_110RbacConfig10RbacPolicy5RulesELm2EvEE, ptr @_ZTIN9grpc_core11json_detail15LoaderInterfaceE }, align 8
@.str.92 = private unnamed_addr constant [8 x i8] c".action\00", align 1
@.str.93 = private unnamed_addr constant [15 x i8] c"unknown action\00", align 1
@.str.94 = private unnamed_addr constant [16 x i8] c"audit_condition\00", align 1
@.str.95 = private unnamed_addr constant [17 x i8] c".audit_condition\00", align 1
@.str.96 = private unnamed_addr constant [24 x i8] c"unknown audit condition\00", align 1
@.str.97 = private unnamed_addr constant [14 x i8] c"audit_loggers\00", align 1
@.str.98 = private unnamed_addr constant [16 x i8] c".audit_loggers[\00", align 1
@.str.99 = private unnamed_addr constant [2 x i8] c"]\00", align 1
@_ZTVN9grpc_core11json_detail10AutoLoaderISt8optionalINS_12_GLOBAL__N_110RbacConfig10RbacPolicy5RulesEEEE = internal unnamed_addr constant { [6 x ptr] } { [6 x ptr] [ptr null, ptr @_ZTIN9grpc_core11json_detail10AutoLoaderISt8optionalINS_12_GLOBAL__N_110RbacConfig10RbacPolicy5RulesEEEE, ptr @_ZNK9grpc_core11json_detail11LoadWrapped8LoadIntoERKNS_12experimental4JsonERKNS_8JsonArgsEPvPNS_16ValidationErrorsE, ptr @_ZNK9grpc_core11json_detail10AutoLoaderISt8optionalINS_12_GLOBAL__N_110RbacConfig10RbacPolicy5RulesEEE7EmplaceEPv, ptr @_ZNK9grpc_core11json_detail10AutoLoaderISt8optionalINS_12_GLOBAL__N_110RbacConfig10RbacPolicy5RulesEEE5ResetEPv, ptr @_ZNK9grpc_core11json_detail10AutoLoaderISt8optionalINS_12_GLOBAL__N_110RbacConfig10RbacPolicy5RulesEEE13ElementLoaderEv] }, align 8
@_ZTSN9grpc_core11json_detail10AutoLoaderISt8optionalINS_12_GLOBAL__N_110RbacConfig10RbacPolicy5RulesEEEE = internal constant [101 x i8] c"N9grpc_core11json_detail10AutoLoaderISt8optionalINS_12_GLOBAL__N_110RbacConfig10RbacPolicy5RulesEEEE\00", align 1
@_ZTIN9grpc_core11json_detail10AutoLoaderISt8optionalINS_12_GLOBAL__N_110RbacConfig10RbacPolicy5RulesEEEE = internal constant { ptr, ptr, ptr } { ptr getelementptr inbounds (ptr, ptr @_ZTVN10__cxxabiv120__si_class_type_infoE, i64 2), ptr @_ZTSN9grpc_core11json_detail10AutoLoaderISt8optionalINS_12_GLOBAL__N_110RbacConfig10RbacPolicy5RulesEEEE, ptr @_ZTIN9grpc_core11json_detail11LoadWrappedE }, align 8
@_ZTVN9grpc_core11json_detail10AutoLoaderINS_12_GLOBAL__N_110RbacConfig10RbacPolicyEEE = internal unnamed_addr constant { [3 x ptr] } { [3 x ptr] [ptr null, ptr @_ZTIN9grpc_core11json_detail10AutoLoaderINS_12_GLOBAL__N_110RbacConfig10RbacPolicyEEE, ptr @_ZNK9grpc_core11json_detail10AutoLoaderINS_12_GLOBAL__N_110RbacConfig10RbacPolicyEE8LoadIntoERKNS_12experimental4JsonERKNS_8JsonArgsEPvPNS_16ValidationErrorsE] }, align 8
@_ZTSN9grpc_core11json_detail10AutoLoaderINS_12_GLOBAL__N_110RbacConfig10RbacPolicyEEE = internal constant [82 x i8] c"N9grpc_core11json_detail10AutoLoaderINS_12_GLOBAL__N_110RbacConfig10RbacPolicyEEE\00", align 1
@_ZTIN9grpc_core11json_detail10AutoLoaderINS_12_GLOBAL__N_110RbacConfig10RbacPolicyEEE = internal constant { ptr, ptr, ptr } { ptr getelementptr inbounds (ptr, ptr @_ZTVN10__cxxabiv120__si_class_type_infoE, i64 2), ptr @_ZTSN9grpc_core11json_detail10AutoLoaderINS_12_GLOBAL__N_110RbacConfig10RbacPolicyEEE, ptr @_ZTIN9grpc_core11json_detail15LoaderInterfaceE }, align 8
@_ZZN9grpc_core12_GLOBAL__N_110RbacConfig10RbacPolicy10JsonLoaderERKNS_8JsonArgsEE6loader = internal unnamed_addr global ptr null, align 8
@_ZGVZN9grpc_core12_GLOBAL__N_110RbacConfig10RbacPolicy10JsonLoaderERKNS_8JsonArgsEE6loader = internal global i64 0, align 8
@_ZTVN9grpc_core11json_detail24FinishedJsonObjectLoaderINS_12_GLOBAL__N_110RbacConfig10RbacPolicyELm1EvEE = internal unnamed_addr constant { [3 x ptr] } { [3 x ptr] [ptr null, ptr @_ZTIN9grpc_core11json_detail24FinishedJsonObjectLoaderINS_12_GLOBAL__N_110RbacConfig10RbacPolicyELm1EvEE, ptr @_ZNK9grpc_core11json_detail24FinishedJsonObjectLoaderINS_12_GLOBAL__N_110RbacConfig10RbacPolicyELm1EvE8LoadIntoERKNS_12experimental4JsonERKNS_8JsonArgsEPvPNS_16ValidationErrorsE] }, align 8
@_ZTSN9grpc_core11json_detail24FinishedJsonObjectLoaderINS_12_GLOBAL__N_110RbacConfig10RbacPolicyELm1EvEE = internal constant [101 x i8] c"N9grpc_core11json_detail24FinishedJsonObjectLoaderINS_12_GLOBAL__N_110RbacConfig10RbacPolicyELm1EvEE\00", align 1
@_ZTIN9grpc_core11json_detail24FinishedJsonObjectLoaderINS_12_GLOBAL__N_110RbacConfig10RbacPolicyELm1EvEE = internal constant { ptr, ptr, ptr } { ptr getelementptr inbounds (ptr, ptr @_ZTVN10__cxxabiv120__si_class_type_infoE, i64 2), ptr @_ZTSN9grpc_core11json_detail24FinishedJsonObjectLoaderINS_12_GLOBAL__N_110RbacConfig10RbacPolicyELm1EvEE, ptr @_ZTIN9grpc_core11json_detail15LoaderInterfaceE }, align 8
@_ZTVN9grpc_core11json_detail10AutoLoaderISt6vectorINS_12_GLOBAL__N_110RbacConfig10RbacPolicyESaIS5_EEEE = internal unnamed_addr constant { [5 x ptr] } { [5 x ptr] [ptr null, ptr @_ZTIN9grpc_core11json_detail10AutoLoaderISt6vectorINS_12_GLOBAL__N_110RbacConfig10RbacPolicyESaIS5_EEEE, ptr @_ZNK9grpc_core11json_detail10LoadVector8LoadIntoERKNS_12experimental4JsonERKNS_8JsonArgsEPvPNS_16ValidationErrorsE, ptr @_ZNK9grpc_core11json_detail10AutoLoaderISt6vectorINS_12_GLOBAL__N_110RbacConfig10RbacPolicyESaIS5_EEE11EmplaceBackEPv, ptr @_ZNK9grpc_core11json_detail10AutoLoaderISt6vectorINS_12_GLOBAL__N_110RbacConfig10RbacPolicyESaIS5_EEE13ElementLoaderEv] }, align 8
@_ZTSN9grpc_core11json_detail10AutoLoaderISt6vectorINS_12_GLOBAL__N_110RbacConfig10RbacPolicyESaIS5_EEEE = internal constant [100 x i8] c"N9grpc_core11json_detail10AutoLoaderISt6vectorINS_12_GLOBAL__N_110RbacConfig10RbacPolicyESaIS5_EEEE\00", align 1
@_ZTIN9grpc_core11json_detail10AutoLoaderISt6vectorINS_12_GLOBAL__N_110RbacConfig10RbacPolicyESaIS5_EEEE = internal constant { ptr, ptr, ptr } { ptr getelementptr inbounds (ptr, ptr @_ZTVN10__cxxabiv120__si_class_type_infoE, i64 2), ptr @_ZTSN9grpc_core11json_detail10AutoLoaderISt6vectorINS_12_GLOBAL__N_110RbacConfig10RbacPolicyESaIS5_EEEE, ptr @_ZTIN9grpc_core11json_detail10LoadVectorE }, align 8
@_ZTVN9grpc_core11json_detail10AutoLoaderINS_12_GLOBAL__N_110RbacConfigEEE = internal unnamed_addr constant { [3 x ptr] } { [3 x ptr] [ptr null, ptr @_ZTIN9grpc_core11json_detail10AutoLoaderINS_12_GLOBAL__N_110RbacConfigEEE, ptr @_ZNK9grpc_core11json_detail10AutoLoaderINS_12_GLOBAL__N_110RbacConfigEE8LoadIntoERKNS_12experimental4JsonERKNS_8JsonArgsEPvPNS_16ValidationErrorsE] }, align 8
@_ZTSN9grpc_core11json_detail10AutoLoaderINS_12_GLOBAL__N_110RbacConfigEEE = internal constant [70 x i8] c"N9grpc_core11json_detail10AutoLoaderINS_12_GLOBAL__N_110RbacConfigEEE\00", align 1
@_ZTIN9grpc_core11json_detail10AutoLoaderINS_12_GLOBAL__N_110RbacConfigEEE = internal constant { ptr, ptr, ptr } { ptr getelementptr inbounds (ptr, ptr @_ZTVN10__cxxabiv120__si_class_type_infoE, i64 2), ptr @_ZTSN9grpc_core11json_detail10AutoLoaderINS_12_GLOBAL__N_110RbacConfigEEE, ptr @_ZTIN9grpc_core11json_detail15LoaderInterfaceE }, align 8
@_ZZN9grpc_core12_GLOBAL__N_110RbacConfig10JsonLoaderERKNS_8JsonArgsEE6loader = internal unnamed_addr global ptr null, align 8
@_ZGVZN9grpc_core12_GLOBAL__N_110RbacConfig10JsonLoaderERKNS_8JsonArgsEE6loader = internal global i64 0, align 8
@.str.100 = private unnamed_addr constant [11 x i8] c"rbacPolicy\00", align 1
@_ZTVN9grpc_core11json_detail24FinishedJsonObjectLoaderINS_12_GLOBAL__N_110RbacConfigELm1EvEE = internal unnamed_addr constant { [3 x ptr] } { [3 x ptr] [ptr null, ptr @_ZTIN9grpc_core11json_detail24FinishedJsonObjectLoaderINS_12_GLOBAL__N_110RbacConfigELm1EvEE, ptr @_ZNK9grpc_core11json_detail24FinishedJsonObjectLoaderINS_12_GLOBAL__N_110RbacConfigELm1EvE8LoadIntoERKNS_12experimental4JsonERKNS_8JsonArgsEPvPNS_16ValidationErrorsE] }, align 8
@_ZTSN9grpc_core11json_detail24FinishedJsonObjectLoaderINS_12_GLOBAL__N_110RbacConfigELm1EvEE = internal constant [89 x i8] c"N9grpc_core11json_detail24FinishedJsonObjectLoaderINS_12_GLOBAL__N_110RbacConfigELm1EvEE\00", align 1
@_ZTIN9grpc_core11json_detail24FinishedJsonObjectLoaderINS_12_GLOBAL__N_110RbacConfigELm1EvEE = internal constant { ptr, ptr, ptr } { ptr getelementptr inbounds (ptr, ptr @_ZTVN10__cxxabiv120__si_class_type_infoE, i64 2), ptr @_ZTSN9grpc_core11json_detail24FinishedJsonObjectLoaderINS_12_GLOBAL__N_110RbacConfigELm1EvEE, ptr @_ZTIN9grpc_core11json_detail15LoaderInterfaceE }, align 8
@_ZTVN9grpc_core22RbacMethodParsedConfigE = linkonce_odr unnamed_addr constant { [4 x ptr] } { [4 x ptr] [ptr null, ptr @_ZTIN9grpc_core22RbacMethodParsedConfigE, ptr @_ZN9grpc_core22RbacMethodParsedConfigD2Ev, ptr @_ZN9grpc_core22RbacMethodParsedConfigD0Ev] }, comdat, align 8
@_ZTSN9grpc_core22RbacMethodParsedConfigE = linkonce_odr constant [37 x i8] c"N9grpc_core22RbacMethodParsedConfigE\00", comdat, align 1
@_ZTSN9grpc_core19ServiceConfigParser12ParsedConfigE = linkonce_odr constant [48 x i8] c"N9grpc_core19ServiceConfigParser12ParsedConfigE\00", comdat, align 1
@_ZTIN9grpc_core19ServiceConfigParser12ParsedConfigE = linkonce_odr constant { ptr, ptr } { ptr getelementptr inbounds (ptr, ptr @_ZTVN10__cxxabiv117__class_type_infoE, i64 2), ptr @_ZTSN9grpc_core19ServiceConfigParser12ParsedConfigE }, comdat, align 8
@_ZTIN9grpc_core22RbacMethodParsedConfigE = linkonce_odr constant { ptr, ptr, ptr } { ptr getelementptr inbounds (ptr, ptr @_ZTVN10__cxxabiv120__si_class_type_infoE, i64 2), ptr @_ZTSN9grpc_core22RbacMethodParsedConfigE, ptr @_ZTIN9grpc_core19ServiceConfigParser12ParsedConfigE }, comdat, align 8
@llvm.global_ctors = appending global [32 x { i32, ptr, ptr }] [{ i32, ptr, ptr } { i32 65535, ptr @__cxx_global_var_init.1, ptr @_ZN9grpc_core19NoDestructSingletonINS_14promise_detail10UnwakeableEE6value_E }, { i32, ptr, ptr } { i32 65535, ptr @__cxx_global_var_init.2, ptr @_ZN9grpc_core19NoDestructSingletonINS_11json_detail10AutoLoaderINSt7__cxx1112basic_stringIcSt11char_traitsIcESaIcEEEEEE6value_E }, { i32, ptr, ptr } { i32 65535, ptr @__cxx_global_var_init.3, ptr @_ZN9grpc_core19NoDestructSingletonINS_11json_detail10AutoLoaderIjEEE6value_E }, { i32, ptr, ptr } { i32 65535, ptr @__cxx_global_var_init.4, ptr @_ZN9grpc_core19NoDestructSingletonINS_11json_detail10AutoLoaderIlEEE6value_E }, { i32, ptr, ptr } { i32 65535, ptr @__cxx_global_var_init.5, ptr @_ZN9grpc_core19NoDestructSingletonINS_11json_detail10AutoLoaderIbEEE6value_E }, { i32, ptr, ptr } { i32 65535, ptr @__cxx_global_var_init.6, ptr null }, { i32, ptr, ptr } { i32 65535, ptr @__cxx_global_var_init.7, ptr null }, { i32, ptr, ptr } { i32 65535, ptr @__cxx_global_var_init.8, ptr null }, { i32, ptr, ptr } { i32 65535, ptr @__cxx_global_var_init.9, ptr null }, { i32, ptr, ptr } { i32 65535, ptr @__cxx_global_var_init.10, ptr null }, { i32, ptr, ptr } { i32 65535, ptr @__cxx_global_var_init.11, ptr null }, { i32, ptr, ptr } { i32 65535, ptr @__cxx_global_var_init.12, ptr null }, { i32, ptr, ptr } { i32 65535, ptr @__cxx_global_var_init.13, ptr null }, { i32, ptr, ptr } { i32 65535, ptr @__cxx_global_var_init.14, ptr null }, { i32, ptr, ptr } { i32 65535, ptr @__cxx_global_var_init.15, ptr null }, { i32, ptr, ptr } { i32 65535, ptr @__cxx_global_var_init.16, ptr null }, { i32, ptr, ptr } { i32 65535, ptr @__cxx_global_var_init.17, ptr null }, { i32, ptr, ptr } { i32 65535, ptr @__cxx_global_var_init.18, ptr null }, { i32, ptr, ptr } { i32 65535, ptr @__cxx_global_var_init.19, ptr null }, { i32, ptr, ptr } { i32 65535, ptr @__cxx_global_var_init.20, ptr null }, { i32, ptr, ptr } { i32 65535, ptr @__cxx_global_var_init.21, ptr @_ZN9grpc_core19NoDestructSingletonINS_11json_detail10AutoLoaderISt3mapINSt7__cxx1112basic_stringIcSt11char_traitsIcESaIcEEENS_12experimental4JsonESt4lessIS9_ESaISt4pairIKS9_SB_EEEEEE6value_E }, { i32, ptr, ptr } { i32 65535, ptr @__cxx_global_var_init.22, ptr @_ZN9grpc_core19NoDestructSingletonINS_11json_detail10AutoLoaderIiEEE6value_E }, { i32, ptr, ptr } { i32 65535, ptr @__cxx_global_var_init.23, ptr null }, { i32, ptr, ptr } { i32 65535, ptr @__cxx_global_var_init.24, ptr null }, { i32, ptr, ptr } { i32 65535, ptr @__cxx_global_var_init.25, ptr null }, { i32, ptr, ptr } { i32 65535, ptr @__cxx_global_var_init.26, ptr null }, { i32, ptr, ptr } { i32 65535, ptr @__cxx_global_var_init.27, ptr null }, { i32, ptr, ptr } { i32 65535, ptr @__cxx_global_var_init.28, ptr null }, { i32, ptr, ptr } { i32 65535, ptr @__cxx_global_var_init.29, ptr null }, { i32, ptr, ptr } { i32 65535, ptr @__cxx_global_var_init.30, ptr null }, { i32, ptr, ptr } { i32 65535, ptr @__cxx_global_var_init.31, ptr null }, { i32, ptr, ptr } { i32 65535, ptr @_GLOBAL__sub_I_rbac_service_config_parser.cc, ptr null }]
@llvm.used = appending global [7 x ptr] [ptr @_ZN9grpc_core19NoDestructSingletonINS_11json_detail10AutoLoaderINSt7__cxx1112basic_stringIcSt11char_traitsIcESaIcEEEEEE6value_E, ptr @_ZN9grpc_core19NoDestructSingletonINS_11json_detail10AutoLoaderISt3mapINSt7__cxx1112basic_stringIcSt11char_traitsIcESaIcEEENS_12experimental4JsonESt4lessIS9_ESaISt4pairIKS9_SB_EEEEEE6value_E, ptr @_ZN9grpc_core19NoDestructSingletonINS_11json_detail10AutoLoaderIbEEE6value_E, ptr @_ZN9grpc_core19NoDestructSingletonINS_11json_detail10AutoLoaderIiEEE6value_E, ptr @_ZN9grpc_core19NoDestructSingletonINS_11json_detail10AutoLoaderIjEEE6value_E, ptr @_ZN9grpc_core19NoDestructSingletonINS_11json_detail10AutoLoaderIlEEE6value_E, ptr @_ZN9grpc_core19NoDestructSingletonINS_14promise_detail10UnwakeableEE6value_E], section "llvm.metadata"

declare void @_ZNSt8ios_base4InitC1Ev(ptr noundef nonnull align 1 dereferenceable(1)) unnamed_addr #0

; Function Attrs: nounwind
declare void @_ZNSt8ios_base4InitD1Ev(ptr noundef nonnull align 1 dereferenceable(1)) unnamed_addr #1

; Function Attrs: nofree nounwind
declare i32 @__cxa_atexit(ptr, ptr, ptr) local_unnamed_addr #2

; Function Attrs: mustprogress uwtable
define void @_ZN9grpc_core23RbacServiceConfigParser20ParsePerMethodParamsERKNS_11ChannelArgsERKNS_12experimental4JsonEPNS_16ValidationErrorsE(ptr noalias nocapture writeonly sret(%"class.std::unique_ptr") align 8 %agg.result, ptr nocapture nonnull readnone align 8 %this, ptr noundef nonnull align 8 dereferenceable(8) %args, ptr noundef nonnull align 8 dereferenceable(56) %json, ptr noundef %errors) unnamed_addr #3 align 2 personality ptr @__gxx_personality_v0 {
entry:
  %__guard.i.i = alloca %struct._Guard, align 8
  %__z.i.i = alloca %"struct.std::_Rb_tree<std::__cxx11::basic_string<char>, std::pair<const std::__cxx11::basic_string<char>, grpc_core::Rbac::Policy>, std::_Select1st<std::pair<const std::__cxx11::basic_string<char>, grpc_core::Rbac::Policy>>, std::less<std::__cxx11::basic_string<char>>>::_Auto_node", align 8
  %ref.tmp.i.i.i.i = alloca %"struct.grpc_core::Rbac::Permission", align 8
  %agg.tmp.i.i.i.i = alloca %"class.std::vector.168", align 8
  %agg.tmp2.i.i.i.i = alloca %"class.std::vector.212", align 8
  %ref.tmp6.i.i.i.i = alloca %"struct.grpc_core::Rbac::Principal", align 8
  %agg.tmp7.i.i.i.i = alloca %"class.std::vector.183", align 8
  %agg.tmp8.i.i.i.i = alloca %"class.std::vector.217", align 8
  %ref.tmp.i.i.i = alloca %"struct.grpc_core::Rbac::Policy", align 8
  %agg.tmp.i.i = alloca %"class.std::__cxx11::basic_string", align 8
  %ref.tmp.i.i = alloca %"class.std::allocator.58", align 1
  %agg.tmp2.i.i = alloca %"class.std::map.153", align 8
  %ref.tmp.i = alloca %"struct.grpc_core::Rbac", align 8
  %rbac_config = alloca %"struct.grpc_core::(anonymous namespace)::RbacConfig", align 8
  %ref.tmp6 = alloca %"class.grpc_core::JsonArgs", align 8
  %rbac_policies = alloca %"class.std::vector.17", align 8
  %ref.tmp12 = alloca %"class.std::unique_ptr.22", align 8
  %call = tail call i16 @_ZNK9grpc_core11ChannelArgs7GetBoolESt17basic_string_viewIcSt11char_traitsIcEE(ptr noundef nonnull align 8 dereferenceable(8) %args, i64 38, ptr nonnull @.str)
  %0 = and i16 %call, 257
  %retval.0.i.not.not = icmp eq i16 %0, 257
  br i1 %retval.0.i.not.not, label %if.end, label %if.then

if.then:                                          ; preds = %entry
  store ptr null, ptr %agg.result, align 8
  br label %return

if.end:                                           ; preds = %entry
  store ptr getelementptr inbounds ({ [5 x ptr] }, ptr @_ZTVN9grpc_core8JsonArgsE, i64 0, inrange i32 0, i64 2), ptr %ref.tmp6, align 8
  tail call void @llvm.experimental.noalias.scope.decl(metadata !4)
  call void @llvm.memset.p0.i64(ptr noundef nonnull align 8 dereferenceable(24) %rbac_config, i8 0, i64 24, i1 false), !alias.scope !4
  %vtable.i = load ptr, ptr @_ZN9grpc_core19NoDestructSingletonINS_11json_detail10AutoLoaderINS_12_GLOBAL__N_110RbacConfigEEEE6value_E, align 8, !noalias !4
  %1 = load ptr, ptr %vtable.i, align 8, !noalias !4
  invoke void %1(ptr noundef nonnull align 8 dereferenceable(8) @_ZN9grpc_core19NoDestructSingletonINS_11json_detail10AutoLoaderINS_12_GLOBAL__N_110RbacConfigEEEE6value_E, ptr noundef nonnull align 8 dereferenceable(56) %json, ptr noundef nonnull align 8 dereferenceable(8) %ref.tmp6, ptr noundef nonnull %rbac_config, ptr noundef %errors)
          to label %invoke.cont unwind label %lpad.i

lpad.i:                                           ; preds = %if.end
  %2 = landingpad { ptr, i32 }
          cleanup
  br label %eh.resume

invoke.cont:                                      ; preds = %if.end
  call void @llvm.experimental.noalias.scope.decl(metadata !7)
  call void @llvm.lifetime.start.p0(i64 120, ptr nonnull %ref.tmp.i)
  call void @llvm.memset.p0.i64(ptr noundef nonnull align 8 dereferenceable(24) %rbac_policies, i8 0, i64 24, i1 false), !alias.scope !7
  %this.val.i3 = load ptr, ptr %rbac_config, align 8, !noalias !7
  %3 = getelementptr inbounds i8, ptr %rbac_config, i64 8
  %this.val3.i = load ptr, ptr %3, align 8, !noalias !7
  %sub.ptr.lhs.cast.i.i = ptrtoint ptr %this.val3.i to i64
  %sub.ptr.rhs.cast.i.i = ptrtoint ptr %this.val.i3 to i64
  %sub.ptr.sub.i.i = sub i64 %sub.ptr.lhs.cast.i.i, %sub.ptr.rhs.cast.i.i
  %sub.ptr.div.i.i = sdiv exact i64 %sub.ptr.sub.i.i, 96
  %cmp.i.i = icmp ugt i64 %sub.ptr.div.i.i, 76861433640456465
  br i1 %cmp.i.i, label %if.then.i.i, label %if.end.i.i

if.then.i.i:                                      ; preds = %invoke.cont
  invoke void @_ZSt20__throw_length_errorPKc(ptr noundef nonnull @.str.32) #20
          to label %.noexc.i unwind label %lpad.i4

.noexc.i:                                         ; preds = %if.then.i.i
  unreachable

if.end.i.i:                                       ; preds = %invoke.cont
  %_M_end_of_storage.i.i.i = getelementptr inbounds i8, ptr %rbac_policies, i64 16
  %cmp3.i.not.i = icmp eq ptr %this.val3.i, %this.val.i3
  br i1 %cmp3.i.not.i, label %invoke.cont8.thread, label %_ZNSt12_Vector_baseIN9grpc_core4RbacESaIS1_EE11_M_allocateEm.exit.i.i

_ZNSt12_Vector_baseIN9grpc_core4RbacESaIS1_EE11_M_allocateEm.exit.i.i: ; preds = %if.end.i.i
  %mul.i.i.i.i.i = mul nuw nsw i64 %sub.ptr.div.i.i, 120
  %call5.i.i.i.i7.i = invoke noalias noundef nonnull ptr @_Znwm(i64 noundef %mul.i.i.i.i.i) #21
          to label %invoke.cont.i unwind label %lpad.i4

invoke.cont.i:                                    ; preds = %_ZNSt12_Vector_baseIN9grpc_core4RbacESaIS1_EE11_M_allocateEm.exit.i.i
  %_M_finish.i.i.i = getelementptr inbounds i8, ptr %rbac_policies, i64 8
  store ptr %call5.i.i.i.i7.i, ptr %rbac_policies, align 8, !alias.scope !7
  store ptr %call5.i.i.i.i7.i, ptr %_M_finish.i.i.i, align 8, !alias.scope !7
  %add.ptr21.i.i = getelementptr inbounds %"struct.grpc_core::Rbac", ptr %call5.i.i.i.i7.i, i64 %sub.ptr.div.i.i
  store ptr %add.ptr21.i.i, ptr %_M_end_of_storage.i.i.i, align 8, !alias.scope !7
  %cmp.i8.not69.i = icmp eq ptr %this.val.i3, %this.val3.i
  br i1 %cmp.i8.not69.i, label %invoke.cont8.thread, label %for.body.lr.ph.i

for.body.lr.ph.i:                                 ; preds = %invoke.cont.i
  %4 = getelementptr inbounds i8, ptr %ref.tmp.i, i64 48
  %_M_parent.i.i.i.i.i.i.i.i.i = getelementptr inbounds i8, ptr %ref.tmp.i, i64 56
  %_M_left.i.i.i.i.i.i.i.i.i = getelementptr inbounds i8, ptr %ref.tmp.i, i64 64
  %_M_right.i.i.i.i.i.i.i.i.i = getelementptr inbounds i8, ptr %ref.tmp.i, i64 72
  %_M_node_count.i.i.i.i.i.i.i.i.i = getelementptr inbounds i8, ptr %ref.tmp.i, i64 80
  %logger_configs.i.i.i.i = getelementptr inbounds i8, ptr %ref.tmp.i, i64 96
  %action2.i.i.i = getelementptr inbounds i8, ptr %ref.tmp.i, i64 32
  %audit_condition3.i.i.i = getelementptr inbounds i8, ptr %ref.tmp.i, i64 88
  %header_matcher.i.i.i.i.i.i = getelementptr inbounds i8, ptr %ref.tmp.i.i.i, i64 8
  %type_.i.i.i.i.i.i.i = getelementptr inbounds i8, ptr %ref.tmp.i.i.i, i64 40
  %matcher_.i.i.i.i.i.i.i = getelementptr inbounds i8, ptr %ref.tmp.i.i.i, i64 48
  %string_matcher_.i.i.i.i.i.i.i.i = getelementptr inbounds i8, ptr %ref.tmp.i.i.i, i64 56
  %regex_matcher_.i.i.i.i.i.i.i.i = getelementptr inbounds i8, ptr %ref.tmp.i.i.i, i64 88
  %case_sensitive_.i.i.i.i.i.i.i.i = getelementptr inbounds i8, ptr %ref.tmp.i.i.i, i64 96
  %invert_match_.i.i.i.i.i.i.i = getelementptr inbounds i8, ptr %ref.tmp.i.i.i, i64 121
  %string_matcher.i.i.i.i.i.i = getelementptr inbounds i8, ptr %ref.tmp.i.i.i, i64 128
  %string_matcher_.i.i.i.i.i.i.i = getelementptr inbounds i8, ptr %ref.tmp.i.i.i, i64 136
  %regex_matcher_.i.i.i.i.i.i.i = getelementptr inbounds i8, ptr %ref.tmp.i.i.i, i64 168
  %case_sensitive_.i.i.i.i.i.i.i = getelementptr inbounds i8, ptr %ref.tmp.i.i.i, i64 176
  %ip.i.i.i.i.i.i = getelementptr inbounds i8, ptr %ref.tmp.i.i.i, i64 184
  %permissions.i.i.i.i.i.i = getelementptr inbounds i8, ptr %ref.tmp.i.i.i, i64 232
  %principals.i.i.i.i.i = getelementptr inbounds i8, ptr %ref.tmp.i.i.i, i64 264
  %header_matcher.i1.i.i.i.i.i = getelementptr inbounds i8, ptr %ref.tmp.i.i.i, i64 272
  %type_.i.i2.i.i.i.i.i = getelementptr inbounds i8, ptr %ref.tmp.i.i.i, i64 304
  %matcher_.i.i3.i.i.i.i.i = getelementptr inbounds i8, ptr %ref.tmp.i.i.i, i64 312
  %string_matcher_.i.i.i4.i.i.i.i.i = getelementptr inbounds i8, ptr %ref.tmp.i.i.i, i64 320
  %regex_matcher_.i.i.i5.i.i.i.i.i = getelementptr inbounds i8, ptr %ref.tmp.i.i.i, i64 352
  %case_sensitive_.i.i.i6.i.i.i.i.i = getelementptr inbounds i8, ptr %ref.tmp.i.i.i, i64 360
  %invert_match_.i.i7.i.i.i.i.i = getelementptr inbounds i8, ptr %ref.tmp.i.i.i, i64 385
  %_M_engaged.i.i.i.i.i.i.i.i.i.i.i = getelementptr inbounds i8, ptr %ref.tmp.i.i.i, i64 448
  %ip.i8.i.i.i.i.i = getelementptr inbounds i8, ptr %ref.tmp.i.i.i, i64 456
  %principals.i.i.i.i.i.i = getelementptr inbounds i8, ptr %ref.tmp.i.i.i, i64 496
  %_M_finish.i.i.i.i.i.i.i.i = getelementptr inbounds i8, ptr %agg.tmp2.i.i.i.i, i64 8
  %_M_end_of_storage.i.i.i.i.i.i.i.i = getelementptr inbounds i8, ptr %agg.tmp2.i.i.i.i, i64 16
  %_M_end_of_storage.i.i.i.i.i.i.i = getelementptr inbounds i8, ptr %agg.tmp.i.i.i.i, i64 16
  %_M_finish.i.i.i.i.i.i.i = getelementptr inbounds i8, ptr %agg.tmp.i.i.i.i, i64 8
  %_M_finish.i.i.i.i12.i.i.i.i = getelementptr inbounds i8, ptr %agg.tmp8.i.i.i.i, i64 8
  %_M_end_of_storage.i.i.i.i14.i.i.i.i = getelementptr inbounds i8, ptr %agg.tmp8.i.i.i.i, i64 16
  %_M_end_of_storage.i.i.i22.i.i.i.i = getelementptr inbounds i8, ptr %agg.tmp7.i.i.i.i, i64 16
  %_M_finish.i.i.i29.i.i.i.i = getelementptr inbounds i8, ptr %agg.tmp7.i.i.i.i, i64 8
  %policies8.i.i.i = getelementptr inbounds i8, ptr %ref.tmp.i, i64 40
  %_M_node.i.i.i = getelementptr inbounds i8, ptr %__z.i.i, i64 8
  %_M_finish.i.i.i.i12.phi.trans.insert.i.i.i = getelementptr inbounds i8, ptr %ref.tmp.i, i64 104
  %_M_end_of_storage.i.i.i.i13.i.i.i = getelementptr inbounds i8, ptr %ref.tmp.i, i64 112
  %5 = getelementptr inbounds i8, ptr %agg.tmp2.i.i, i64 8
  %_M_left.i.i.i.i.i.i.i = getelementptr inbounds i8, ptr %agg.tmp2.i.i, i64 24
  %_M_right.i.i.i.i.i.i.i = getelementptr inbounds i8, ptr %agg.tmp2.i.i, i64 32
  %_M_node_count.i.i.i.i.i.i.i = getelementptr inbounds i8, ptr %agg.tmp2.i.i, i64 40
  %_M_parent.i.i.i.i.i.i.i = getelementptr inbounds i8, ptr %agg.tmp2.i.i, i64 16
  %_M_finish.i.i = getelementptr inbounds i8, ptr %rbac_policies, i64 8
  br label %for.body.i

for.body.i:                                       ; preds = %_ZN9grpc_core4RbacD2Ev.exit.i, %for.body.lr.ph.i
  %__begin2.sroa.0.070.i = phi ptr [ %this.val.i3, %for.body.lr.ph.i ], [ %incdec.ptr.i21.i, %_ZN9grpc_core4RbacD2Ev.exit.i ]
  call void @llvm.experimental.noalias.scope.decl(metadata !10)
  call void @llvm.lifetime.start.p0(i64 32, ptr nonnull %agg.tmp.i.i), !noalias !7
  call void @llvm.lifetime.start.p0(i64 1, ptr nonnull %ref.tmp.i.i), !noalias !7
  call void @llvm.lifetime.start.p0(i64 48, ptr nonnull %agg.tmp2.i.i), !noalias !7
  %6 = getelementptr inbounds i8, ptr %__begin2.sroa.0.070.i, i64 88
  %this.val.i.i = load i8, ptr %6, align 8, !noalias !10
  %7 = and i8 %this.val.i.i, 1
  %tobool.i.i.not.i.i = icmp eq i8 %7, 0
  br i1 %tobool.i.i.not.i.i, label %if.then.i10.i, label %if.end.i9.i

if.then.i10.i:                                    ; preds = %for.body.i
  call void @_ZNSaIcEC1Ev(ptr noundef nonnull align 1 dereferenceable(1) %ref.tmp.i.i) #22
  %call.i2.i.i = invoke noundef ptr @_ZNSt7__cxx1112basic_stringIcSt11char_traitsIcESaIcEE13_M_local_dataEv(ptr noundef nonnull align 8 dereferenceable(32) %agg.tmp.i.i)
          to label %call.i.noexc.i.i unwind label %lpad.i.i

call.i.noexc.i.i:                                 ; preds = %if.then.i10.i
  invoke void @_ZNSt7__cxx1112basic_stringIcSt11char_traitsIcESaIcEE12_Alloc_hiderC1EPcRKS3_(ptr noundef nonnull align 8 dereferenceable(8) %agg.tmp.i.i, ptr noundef %call.i2.i.i, ptr noundef nonnull align 1 dereferenceable(1) %ref.tmp.i.i)
          to label %.noexc.i.i unwind label %lpad.i.i

.noexc.i.i:                                       ; preds = %call.i.noexc.i.i
  call void @llvm.lifetime.start.p0(i64 8, ptr nonnull %__guard.i.i), !noalias !7
  %call.i.i.i = invoke noundef ptr @_ZNSt7__cxx1112basic_stringIcSt11char_traitsIcESaIcEE13_M_local_dataEv(ptr noundef nonnull align 8 dereferenceable(32) %agg.tmp.i.i)
          to label %if.end.i37.i unwind label %terminate.lpad.i.i.i

terminate.lpad.i.i.i:                             ; preds = %.noexc.i.i
  %8 = landingpad { ptr, i32 }
          catch ptr null
  %9 = extractvalue { ptr, i32 } %8, 0
  call void @__clang_call_terminate(ptr %9) #23
  unreachable

if.end.i37.i:                                     ; preds = %.noexc.i.i
  store ptr %agg.tmp.i.i, ptr %__guard.i.i, align 8, !noalias !7
  %call4.i.i = invoke noundef ptr @_ZNKSt7__cxx1112basic_stringIcSt11char_traitsIcESaIcEE7_M_dataEv(ptr noundef nonnull align 8 dereferenceable(32) %agg.tmp.i.i)
          to label %invoke.cont.i39.i unwind label %lpad.i38.i

invoke.cont.i39.i:                                ; preds = %if.end.i37.i
  call void @_ZNSt7__cxx1112basic_stringIcSt11char_traitsIcESaIcEE13_S_copy_charsEPcPKcS7_(ptr noundef %call4.i.i, ptr noundef nonnull @.str.34, ptr noundef nonnull @.str.34) #22
  store ptr null, ptr %__guard.i.i, align 8, !noalias !7
  invoke void @_ZNSt7__cxx1112basic_stringIcSt11char_traitsIcESaIcEE13_M_set_lengthEm(ptr noundef nonnull align 8 dereferenceable(32) %agg.tmp.i.i, i64 noundef 0)
          to label %invoke.cont.i.i unwind label %lpad.i38.i

lpad.i38.i:                                       ; preds = %invoke.cont.i39.i, %if.end.i37.i
  %10 = landingpad { ptr, i32 }
          cleanup
  call void @_ZZNSt7__cxx1112basic_stringIcSt11char_traitsIcESaIcEE12_M_constructIPKcEEvT_S8_St20forward_iterator_tagEN6_GuardD2Ev(ptr noundef nonnull align 8 dereferenceable(8) %__guard.i.i) #22
  call void @_ZNSaIcED2Ev(ptr noundef nonnull align 1 dereferenceable(1) %agg.tmp.i.i) #22
  br label %ehcleanup.i.i

invoke.cont.i.i:                                  ; preds = %invoke.cont.i39.i
  call void @llvm.lifetime.end.p0(i64 8, ptr nonnull %__guard.i.i), !noalias !7
  call void @llvm.memset.p0.i64(ptr noundef nonnull align 8 dereferenceable(24) %agg.tmp2.i.i, i8 0, i64 24, i1 false), !noalias !13
  store ptr %5, ptr %_M_left.i.i.i.i.i.i.i, align 8, !noalias !13
  store ptr %5, ptr %_M_right.i.i.i.i.i.i.i, align 8, !noalias !13
  store i64 0, ptr %_M_node_count.i.i.i.i.i.i.i, align 8, !noalias !13
  invoke void @_ZN9grpc_core4RbacC1ENSt7__cxx1112basic_stringIcSt11char_traitsIcESaIcEEENS0_6ActionESt3mapIS6_NS0_6PolicyESt4lessIS6_ESaISt4pairIKS6_S9_EEE(ptr noundef nonnull align 8 dereferenceable(120) %ref.tmp.i, ptr noundef nonnull %agg.tmp.i.i, i32 noundef 1, ptr noundef nonnull %agg.tmp2.i.i)
          to label %invoke.cont4.i.i unwind label %lpad3.i.i

invoke.cont4.i.i:                                 ; preds = %invoke.cont.i.i
  %11 = load ptr, ptr %_M_parent.i.i.i.i.i.i.i, align 8, !noalias !13
  invoke void @_ZNSt8_Rb_treeINSt7__cxx1112basic_stringIcSt11char_traitsIcESaIcEEESt4pairIKS5_N9grpc_core4Rbac6PolicyEESt10_Select1stISB_ESt4lessIS5_ESaISB_EE8_M_eraseEPSt13_Rb_tree_nodeISB_E(ptr noundef nonnull align 8 dereferenceable(48) %agg.tmp2.i.i, ptr noundef %11)
          to label %_ZNSt3mapINSt7__cxx1112basic_stringIcSt11char_traitsIcESaIcEEEN9grpc_core4Rbac6PolicyESt4lessIS5_ESaISt4pairIKS5_S8_EEED2Ev.exit.i.i unwind label %terminate.lpad.i.i.i.i

terminate.lpad.i.i.i.i:                           ; preds = %invoke.cont4.i.i
  %12 = landingpad { ptr, i32 }
          catch ptr null
  %13 = extractvalue { ptr, i32 } %12, 0
  call void @__clang_call_terminate(ptr %13) #23
  unreachable

_ZNSt3mapINSt7__cxx1112basic_stringIcSt11char_traitsIcESaIcEEEN9grpc_core4Rbac6PolicyESt4lessIS5_ESaISt4pairIKS5_S8_EEED2Ev.exit.i.i: ; preds = %invoke.cont4.i.i
  call void @_ZNSt7__cxx1112basic_stringIcSt11char_traitsIcESaIcEED1Ev(ptr noundef nonnull align 8 dereferenceable(32) %agg.tmp.i.i) #22
  call void @_ZNSaIcED1Ev(ptr noundef nonnull align 1 dereferenceable(1) %ref.tmp.i.i) #22
  br label %invoke.cont8.i

lpad.i.i:                                         ; preds = %call.i.noexc.i.i, %if.then.i10.i
  %14 = landingpad { ptr, i32 }
          cleanup
  br label %ehcleanup.i.i

lpad3.i.i:                                        ; preds = %invoke.cont.i.i
  %15 = landingpad { ptr, i32 }
          cleanup
  call void @_ZNSt3mapINSt7__cxx1112basic_stringIcSt11char_traitsIcESaIcEEEN9grpc_core4Rbac6PolicyESt4lessIS5_ESaISt4pairIKS5_S8_EEED2Ev(ptr noundef nonnull align 8 dereferenceable(48) %agg.tmp2.i.i) #22
  call void @_ZNSt7__cxx1112basic_stringIcSt11char_traitsIcESaIcEED1Ev(ptr noundef nonnull align 8 dereferenceable(32) %agg.tmp.i.i) #22
  br label %ehcleanup.i.i

ehcleanup.i.i:                                    ; preds = %lpad3.i.i, %lpad.i.i, %lpad.i38.i
  %.pn.i.i = phi { ptr, i32 } [ %15, %lpad3.i.i ], [ %14, %lpad.i.i ], [ %10, %lpad.i38.i ]
  call void @_ZNSaIcED1Ev(ptr noundef nonnull align 1 dereferenceable(1) %ref.tmp.i.i) #22
  br label %ehcleanup

if.end.i9.i:                                      ; preds = %for.body.i
  call void @llvm.experimental.noalias.scope.decl(metadata !14)
  call void @llvm.lifetime.start.p0(i64 528, ptr nonnull %ref.tmp.i.i.i), !noalias !13
  call void @_ZNSt7__cxx1112basic_stringIcSt11char_traitsIcESaIcEEC1Ev(ptr noundef nonnull align 8 dereferenceable(32) %ref.tmp.i) #22
  store i32 0, ptr %4, align 8, !alias.scope !17, !noalias !7
  store ptr null, ptr %_M_parent.i.i.i.i.i.i.i.i.i, align 8, !alias.scope !17, !noalias !7
  store ptr %4, ptr %_M_left.i.i.i.i.i.i.i.i.i, align 8, !alias.scope !17, !noalias !7
  store ptr %4, ptr %_M_right.i.i.i.i.i.i.i.i.i, align 8, !alias.scope !17, !noalias !7
  store i64 0, ptr %_M_node_count.i.i.i.i.i.i.i.i.i, align 8, !alias.scope !17, !noalias !7
  call void @llvm.memset.p0.i64(ptr noundef nonnull align 8 dereferenceable(24) %logger_configs.i.i.i.i, i8 0, i64 24, i1 false), !alias.scope !17, !noalias !7
  %16 = load i32, ptr %__begin2.sroa.0.070.i, align 8, !noalias !17
  store i32 %16, ptr %action2.i.i.i, align 8, !alias.scope !17, !noalias !7
  %audit_condition.i.i.i = getelementptr inbounds i8, ptr %__begin2.sroa.0.070.i, i64 56
  %17 = load i32, ptr %audit_condition.i.i.i, align 8, !noalias !17
  store i32 %17, ptr %audit_condition3.i.i.i, align 8, !alias.scope !17, !noalias !7
  %18 = getelementptr inbounds i8, ptr %__begin2.sroa.0.070.i, i64 32
  %policies.val.i.i.i = load ptr, ptr %18, align 8, !noalias !17
  %add.ptr.i.i.i.i.i = getelementptr inbounds i8, ptr %__begin2.sroa.0.070.i, i64 16
  %cmp.i.not35.i.i.i = icmp eq ptr %policies.val.i.i.i, %add.ptr.i.i.i.i.i
  br i1 %cmp.i.not35.i.i.i, label %for.end.i.i.i, label %for.body.i.i.i

for.body.i.i.i:                                   ; preds = %if.end.i9.i, %invoke.cont10.i.i.i
  %__begin2.sroa.0.036.i.i.i = phi ptr [ %call.i10.i.i.i, %invoke.cont10.i.i.i ], [ %policies.val.i.i.i, %if.end.i9.i ]
  %_M_storage.i.i.i.i.i = getelementptr inbounds i8, ptr %__begin2.sroa.0.036.i.i.i, i64 32
  %second.i.i.i = getelementptr inbounds i8, ptr %__begin2.sroa.0.036.i.i.i, i64 64
  call void @llvm.experimental.noalias.scope.decl(metadata !18)
  call void @llvm.lifetime.start.p0(i64 264, ptr nonnull %ref.tmp.i.i.i.i), !noalias !21
  call void @llvm.lifetime.start.p0(i64 24, ptr nonnull %agg.tmp.i.i.i.i), !noalias !21
  call void @llvm.lifetime.start.p0(i64 24, ptr nonnull %agg.tmp2.i.i.i.i), !noalias !21
  call void @llvm.lifetime.start.p0(i64 264, ptr nonnull %ref.tmp6.i.i.i.i), !noalias !21
  call void @llvm.lifetime.start.p0(i64 24, ptr nonnull %agg.tmp7.i.i.i.i), !noalias !21
  call void @llvm.lifetime.start.p0(i64 24, ptr nonnull %agg.tmp8.i.i.i.i), !noalias !21
  store i32 0, ptr %ref.tmp.i.i.i, align 8, !alias.scope !18, !noalias !21
  call void @_ZNSt7__cxx1112basic_stringIcSt11char_traitsIcESaIcEEC1Ev(ptr noundef nonnull align 8 dereferenceable(32) %header_matcher.i.i.i.i.i.i) #22
  store i32 0, ptr %type_.i.i.i.i.i.i.i, align 8, !alias.scope !18, !noalias !21
  store i32 0, ptr %matcher_.i.i.i.i.i.i.i, align 8, !alias.scope !18, !noalias !21
  call void @_ZNSt7__cxx1112basic_stringIcSt11char_traitsIcESaIcEEC1Ev(ptr noundef nonnull align 8 dereferenceable(32) %string_matcher_.i.i.i.i.i.i.i.i) #22
  store ptr null, ptr %regex_matcher_.i.i.i.i.i.i.i.i, align 8, !alias.scope !18, !noalias !21
  store i8 1, ptr %case_sensitive_.i.i.i.i.i.i.i.i, align 8, !alias.scope !18, !noalias !21
  store i8 0, ptr %invert_match_.i.i.i.i.i.i.i, align 1, !alias.scope !18, !noalias !21
  store i32 0, ptr %string_matcher.i.i.i.i.i.i, align 8, !alias.scope !18, !noalias !21
  call void @_ZNSt7__cxx1112basic_stringIcSt11char_traitsIcESaIcEEC1Ev(ptr noundef nonnull align 8 dereferenceable(32) %string_matcher_.i.i.i.i.i.i.i) #22
  store ptr null, ptr %regex_matcher_.i.i.i.i.i.i.i, align 8, !alias.scope !18, !noalias !21
  store i8 1, ptr %case_sensitive_.i.i.i.i.i.i.i, align 8, !alias.scope !18, !noalias !21
  call void @_ZNSt7__cxx1112basic_stringIcSt11char_traitsIcESaIcEEC1Ev(ptr noundef nonnull align 8 dereferenceable(32) %ip.i.i.i.i.i.i) #22
  call void @llvm.memset.p0.i64(ptr noundef nonnull align 8 dereferenceable(25) %permissions.i.i.i.i.i.i, i8 0, i64 25, i1 false), !alias.scope !18, !noalias !21
  store i32 0, ptr %principals.i.i.i.i.i, align 8, !alias.scope !18, !noalias !21
  call void @_ZNSt7__cxx1112basic_stringIcSt11char_traitsIcESaIcEEC1Ev(ptr noundef nonnull align 8 dereferenceable(32) %header_matcher.i1.i.i.i.i.i) #22
  store i32 0, ptr %type_.i.i2.i.i.i.i.i, align 8, !alias.scope !18, !noalias !21
  store i32 0, ptr %matcher_.i.i3.i.i.i.i.i, align 8, !alias.scope !18, !noalias !21
  call void @_ZNSt7__cxx1112basic_stringIcSt11char_traitsIcESaIcEEC1Ev(ptr noundef nonnull align 8 dereferenceable(32) %string_matcher_.i.i.i4.i.i.i.i.i) #22
  store ptr null, ptr %regex_matcher_.i.i.i5.i.i.i.i.i, align 8, !alias.scope !18, !noalias !21
  store i8 1, ptr %case_sensitive_.i.i.i6.i.i.i.i.i, align 8, !alias.scope !18, !noalias !21
  store i8 0, ptr %invert_match_.i.i7.i.i.i.i.i, align 1, !alias.scope !18, !noalias !21
  store i8 0, ptr %_M_engaged.i.i.i.i.i.i.i.i.i.i.i, align 8, !alias.scope !18, !noalias !21
  call void @_ZNSt7__cxx1112basic_stringIcSt11char_traitsIcESaIcEEC1Ev(ptr noundef nonnull align 8 dereferenceable(32) %ip.i8.i.i.i.i.i) #22
  call void @llvm.memset.p0.i64(ptr noundef nonnull align 8 dereferenceable(25) %principals.i.i.i.i.i.i, i8 0, i64 25, i1 false), !alias.scope !18, !noalias !21
  %19 = load ptr, ptr %second.i.i.i, align 8, !noalias !18
  store ptr %19, ptr %agg.tmp2.i.i.i.i, align 8, !noalias !22
  %_M_finish3.i.i.i.i.i.i.i.i = getelementptr inbounds i8, ptr %__begin2.sroa.0.036.i.i.i, i64 72
  %20 = load ptr, ptr %_M_finish3.i.i.i.i.i.i.i.i, align 8, !noalias !18
  store ptr %20, ptr %_M_finish.i.i.i.i.i.i.i.i, align 8, !noalias !22
  %_M_end_of_storage4.i.i.i.i.i.i.i.i = getelementptr inbounds i8, ptr %__begin2.sroa.0.036.i.i.i, i64 80
  %21 = load ptr, ptr %_M_end_of_storage4.i.i.i.i.i.i.i.i, align 8, !noalias !18
  store ptr %21, ptr %_M_end_of_storage.i.i.i.i.i.i.i.i, align 8, !noalias !22
  call void @llvm.memset.p0.i64(ptr noundef nonnull align 8 dereferenceable(24) %second.i.i.i, i8 0, i64 24, i1 false), !noalias !18
  call void @llvm.experimental.noalias.scope.decl(metadata !23)
  call void @llvm.memset.p0.i64(ptr noundef nonnull align 8 dereferenceable(24) %agg.tmp.i.i.i.i, i8 0, i64 24, i1 false), !alias.scope !23, !noalias !22
  %sub.ptr.lhs.cast.i.i.i.i.i.i = ptrtoint ptr %20 to i64
  %sub.ptr.rhs.cast.i.i.i.i.i.i = ptrtoint ptr %19 to i64
  %sub.ptr.sub.i.i.i.i.i.i = sub i64 %sub.ptr.lhs.cast.i.i.i.i.i.i, %sub.ptr.rhs.cast.i.i.i.i.i.i
  %sub.ptr.div.i.i.i.i.i.i = ashr exact i64 %sub.ptr.sub.i.i.i.i.i.i, 3
  %cmp.i.i.i.i.i.i = icmp ugt i64 %sub.ptr.div.i.i.i.i.i.i, 1152921504606846975
  br i1 %cmp.i.i.i.i.i.i, label %if.then.i.i.i.i.i.i, label %if.end.i.i.i.i.i.i

if.then.i.i.i.i.i.i:                              ; preds = %for.body.i.i.i
  invoke void @_ZSt20__throw_length_errorPKc(ptr noundef nonnull @.str.32) #20
          to label %.noexc.i.i.i.i.i unwind label %lpad.loopexit.split-lp.i.i.loopexit.split-lp.i.i.i, !noalias !23

.noexc.i.i.i.i.i:                                 ; preds = %if.then.i.i.i.i.i.i
  unreachable

if.end.i.i.i.i.i.i:                               ; preds = %for.body.i.i.i
  %cmp3.i.not.i.i.i.i.i = icmp eq ptr %20, %19
  br i1 %cmp3.i.not.i.i.i.i.i, label %invoke.cont.i.i.i.i, label %_ZNSt12_Vector_baseISt10unique_ptrIN9grpc_core4Rbac10PermissionESt14default_deleteIS3_EESaIS6_EE11_M_allocateEm.exit.i.i.i.i.i.i

_ZNSt12_Vector_baseISt10unique_ptrIN9grpc_core4Rbac10PermissionESt14default_deleteIS3_EESaIS6_EE11_M_allocateEm.exit.i.i.i.i.i.i: ; preds = %if.end.i.i.i.i.i.i
  %call5.i.i.i.i6.i.i.i.i.i = invoke noalias noundef nonnull ptr @_Znwm(i64 noundef %sub.ptr.sub.i.i.i.i.i.i) #21
          to label %for.body.lr.ph.i.i.i.i.i unwind label %lpad.loopexit.split-lp.i.i.loopexit.i.i.i, !noalias !23

for.body.lr.ph.i.i.i.i.i:                         ; preds = %_ZNSt12_Vector_baseISt10unique_ptrIN9grpc_core4Rbac10PermissionESt14default_deleteIS3_EESaIS6_EE11_M_allocateEm.exit.i.i.i.i.i.i
  store ptr %call5.i.i.i.i6.i.i.i.i.i, ptr %agg.tmp.i.i.i.i, align 8, !alias.scope !23, !noalias !22
  store ptr %call5.i.i.i.i6.i.i.i.i.i, ptr %_M_finish.i.i.i.i.i.i.i, align 8, !alias.scope !23, !noalias !22
  %add.ptr21.i.i.i.i.i.i = getelementptr inbounds %"class.std::unique_ptr.200", ptr %call5.i.i.i.i6.i.i.i.i.i, i64 %sub.ptr.div.i.i.i.i.i.i
  store ptr %add.ptr21.i.i.i.i.i.i, ptr %_M_end_of_storage.i.i.i.i.i.i.i, align 8, !alias.scope !23, !noalias !22
  br label %for.body.i.i.i.i.i

for.body.i.i.i.i.i:                               ; preds = %for.inc.i.i.i.i.i, %for.body.lr.ph.i.i.i.i.i
  %22 = phi ptr [ %call5.i.i.i.i6.i.i.i.i.i, %for.body.lr.ph.i.i.i.i.i ], [ %29, %for.inc.i.i.i.i.i ]
  %__begin2.sroa.0.016.i.i.i.i.i = phi ptr [ %19, %for.body.lr.ph.i.i.i.i.i ], [ %incdec.ptr.i12.i.i.i.i.i, %for.inc.i.i.i.i.i ]
  %23 = load ptr, ptr %_M_end_of_storage.i.i.i.i.i.i.i, align 8, !alias.scope !23, !noalias !22
  %cmp.not.i.i.i.i.i.i = icmp eq ptr %22, %23
  br i1 %cmp.not.i.i.i.i.i.i, label %if.else.i.i.i.i.i.i, label %if.then.i8.i.i.i.i.i

if.then.i8.i.i.i.i.i:                             ; preds = %for.body.i.i.i.i.i
  %24 = load i64, ptr %__begin2.sroa.0.016.i.i.i.i.i, align 8
  store i64 %24, ptr %22, align 8
  store ptr null, ptr %__begin2.sroa.0.016.i.i.i.i.i, align 8
  %25 = load ptr, ptr %_M_finish.i.i.i.i.i.i.i, align 8, !alias.scope !23, !noalias !22
  %incdec.ptr.i.i.i.i.i.i = getelementptr inbounds i8, ptr %25, i64 8
  store ptr %incdec.ptr.i.i.i.i.i.i, ptr %_M_finish.i.i.i.i.i.i.i, align 8, !alias.scope !23, !noalias !22
  br label %for.inc.i.i.i.i.i

if.else.i.i.i.i.i.i:                              ; preds = %for.body.i.i.i.i.i
  %26 = load ptr, ptr %agg.tmp.i.i.i.i, align 8, !noalias !22
  %sub.ptr.lhs.cast.i.i.i.i.i.i.i = ptrtoint ptr %22 to i64
  %sub.ptr.rhs.cast.i.i.i.i.i.i.i = ptrtoint ptr %26 to i64
  %sub.ptr.sub.i.i.i.i.i.i.i = sub i64 %sub.ptr.lhs.cast.i.i.i.i.i.i.i, %sub.ptr.rhs.cast.i.i.i.i.i.i.i
  %cmp.i.i76.i.i.i.i = icmp eq i64 %sub.ptr.sub.i.i.i.i.i.i.i, 9223372036854775800
  br i1 %cmp.i.i76.i.i.i.i, label %if.then.i.i84.i.i.i.i, label %_ZNKSt6vectorISt10unique_ptrIN9grpc_core4Rbac10PermissionESt14default_deleteIS3_EESaIS6_EE12_M_check_lenEmPKc.exit.i.i.i.i.i

if.then.i.i84.i.i.i.i:                            ; preds = %if.else.i.i.i.i.i.i
  invoke void @_ZSt20__throw_length_errorPKc(ptr noundef nonnull @.str.33) #20
          to label %.noexc.i.i.i.i unwind label %lpad.loopexit.i.loopexit.split-lp.i.i.i.i

.noexc.i.i.i.i:                                   ; preds = %if.then.i.i84.i.i.i.i
  unreachable

_ZNKSt6vectorISt10unique_ptrIN9grpc_core4Rbac10PermissionESt14default_deleteIS3_EESaIS6_EE12_M_check_lenEmPKc.exit.i.i.i.i.i: ; preds = %if.else.i.i.i.i.i.i
  %sub.ptr.div.i.i.i.i.i.i.i = ashr exact i64 %sub.ptr.sub.i.i.i.i.i.i.i, 3
  %.sroa.speculated.i.i.i.i.i.i = call i64 @llvm.umax.i64(i64 %sub.ptr.div.i.i.i.i.i.i.i, i64 1)
  %add.i.i.i.i.i.i = add i64 %.sroa.speculated.i.i.i.i.i.i, %sub.ptr.div.i.i.i.i.i.i.i
  %cmp7.i.i.i.i.i.i = icmp ult i64 %add.i.i.i.i.i.i, %sub.ptr.div.i.i.i.i.i.i.i
  %cmp9.i.i.i.i.i.i = icmp ugt i64 %add.i.i.i.i.i.i, 1152921504606846975
  %or.cond.i.i.i.i.i.i = or i1 %cmp7.i.i.i.i.i.i, %cmp9.i.i.i.i.i.i
  %cond.i.i.i.i.i.i = select i1 %or.cond.i.i.i.i.i.i, i64 1152921504606846975, i64 %add.i.i.i.i.i.i
  %cmp.not.i.i80.i.i.i.i = icmp eq i64 %cond.i.i.i.i.i.i, 0
  br i1 %cmp.not.i.i80.i.i.i.i, label %_ZNSt12_Vector_baseISt10unique_ptrIN9grpc_core4Rbac10PermissionESt14default_deleteIS3_EESaIS6_EE11_M_allocateEm.exit.i.i.i.i.i, label %_ZNSt16allocator_traitsISaISt10unique_ptrIN9grpc_core4Rbac10PermissionESt14default_deleteIS3_EEEE8allocateERS7_m.exit.i.i.i.i.i.i

_ZNSt16allocator_traitsISaISt10unique_ptrIN9grpc_core4Rbac10PermissionESt14default_deleteIS3_EEEE8allocateERS7_m.exit.i.i.i.i.i.i: ; preds = %_ZNKSt6vectorISt10unique_ptrIN9grpc_core4Rbac10PermissionESt14default_deleteIS3_EESaIS6_EE12_M_check_lenEmPKc.exit.i.i.i.i.i
  %mul.i.i.i.i.i.i.i.i = shl nuw nsw i64 %cond.i.i.i.i.i.i, 3
  %call5.i.i.i.i85.i.i.i.i = invoke noalias noundef nonnull ptr @_Znwm(i64 noundef %mul.i.i.i.i.i.i.i.i) #21
          to label %_ZNSt12_Vector_baseISt10unique_ptrIN9grpc_core4Rbac10PermissionESt14default_deleteIS3_EESaIS6_EE11_M_allocateEm.exit.i.i.i.i.i unwind label %lpad.loopexit.i.loopexit.i.i.i.i

_ZNSt12_Vector_baseISt10unique_ptrIN9grpc_core4Rbac10PermissionESt14default_deleteIS3_EESaIS6_EE11_M_allocateEm.exit.i.i.i.i.i: ; preds = %_ZNSt16allocator_traitsISaISt10unique_ptrIN9grpc_core4Rbac10PermissionESt14default_deleteIS3_EEEE8allocateERS7_m.exit.i.i.i.i.i.i, %_ZNKSt6vectorISt10unique_ptrIN9grpc_core4Rbac10PermissionESt14default_deleteIS3_EESaIS6_EE12_M_check_lenEmPKc.exit.i.i.i.i.i
  %cond.i10.i.i.i.i.i = phi ptr [ null, %_ZNKSt6vectorISt10unique_ptrIN9grpc_core4Rbac10PermissionESt14default_deleteIS3_EESaIS6_EE12_M_check_lenEmPKc.exit.i.i.i.i.i ], [ %call5.i.i.i.i85.i.i.i.i, %_ZNSt16allocator_traitsISaISt10unique_ptrIN9grpc_core4Rbac10PermissionESt14default_deleteIS3_EEEE8allocateERS7_m.exit.i.i.i.i.i.i ]
  %add.ptr.i.i5.i.i.i = getelementptr inbounds %"class.std::unique_ptr.200", ptr %cond.i10.i.i.i.i.i, i64 %sub.ptr.div.i.i.i.i.i.i.i
  %27 = load i64, ptr %__begin2.sroa.0.016.i.i.i.i.i, align 8
  store i64 %27, ptr %add.ptr.i.i5.i.i.i, align 8
  store ptr null, ptr %__begin2.sroa.0.016.i.i.i.i.i, align 8
  %cmp.not5.i.i.i.i.i.i.i.i = icmp eq ptr %26, %22
  br i1 %cmp.not5.i.i.i.i.i.i.i.i, label %_ZNSt6vectorISt10unique_ptrIN9grpc_core4Rbac10PermissionESt14default_deleteIS3_EESaIS6_EE11_S_relocateEPS6_S9_S9_RS7_.exit19.i.i.i.i.i, label %for.body.i.i.i.i81.i.i.i.i

for.body.i.i.i.i81.i.i.i.i:                       ; preds = %_ZNSt12_Vector_baseISt10unique_ptrIN9grpc_core4Rbac10PermissionESt14default_deleteIS3_EESaIS6_EE11_M_allocateEm.exit.i.i.i.i.i, %for.body.i.i.i.i81.i.i.i.i
  %__cur.07.i.i.i.i.i.i.i.i = phi ptr [ %incdec.ptr1.i.i.i.i.i.i.i.i, %for.body.i.i.i.i81.i.i.i.i ], [ %cond.i10.i.i.i.i.i, %_ZNSt12_Vector_baseISt10unique_ptrIN9grpc_core4Rbac10PermissionESt14default_deleteIS3_EESaIS6_EE11_M_allocateEm.exit.i.i.i.i.i ]
  %__first.addr.06.i.i.i.i.i.i.i.i = phi ptr [ %incdec.ptr.i.i.i.i82.i.i.i.i, %for.body.i.i.i.i81.i.i.i.i ], [ %26, %_ZNSt12_Vector_baseISt10unique_ptrIN9grpc_core4Rbac10PermissionESt14default_deleteIS3_EESaIS6_EE11_M_allocateEm.exit.i.i.i.i.i ]
  call void @llvm.experimental.noalias.scope.decl(metadata !26)
  call void @llvm.experimental.noalias.scope.decl(metadata !29)
  %28 = load i64, ptr %__first.addr.06.i.i.i.i.i.i.i.i, align 8, !alias.scope !29, !noalias !26
  store i64 %28, ptr %__cur.07.i.i.i.i.i.i.i.i, align 8, !alias.scope !26, !noalias !29
  store ptr null, ptr %__first.addr.06.i.i.i.i.i.i.i.i, align 8, !alias.scope !29, !noalias !26
  %incdec.ptr.i.i.i.i82.i.i.i.i = getelementptr inbounds i8, ptr %__first.addr.06.i.i.i.i.i.i.i.i, i64 8
  %incdec.ptr1.i.i.i.i.i.i.i.i = getelementptr inbounds i8, ptr %__cur.07.i.i.i.i.i.i.i.i, i64 8
  %cmp.not.i.i.i.i83.i.i.i.i = icmp eq ptr %incdec.ptr.i.i.i.i82.i.i.i.i, %22
  br i1 %cmp.not.i.i.i.i83.i.i.i.i, label %_ZNSt6vectorISt10unique_ptrIN9grpc_core4Rbac10PermissionESt14default_deleteIS3_EESaIS6_EE11_S_relocateEPS6_S9_S9_RS7_.exit19.i.i.i.i.i, label %for.body.i.i.i.i81.i.i.i.i, !llvm.loop !31

_ZNSt6vectorISt10unique_ptrIN9grpc_core4Rbac10PermissionESt14default_deleteIS3_EESaIS6_EE11_S_relocateEPS6_S9_S9_RS7_.exit19.i.i.i.i.i: ; preds = %for.body.i.i.i.i81.i.i.i.i, %_ZNSt12_Vector_baseISt10unique_ptrIN9grpc_core4Rbac10PermissionESt14default_deleteIS3_EESaIS6_EE11_M_allocateEm.exit.i.i.i.i.i
  %__cur.0.lcssa.i.i.i.i.i.i.i.i = phi ptr [ %cond.i10.i.i.i.i.i, %_ZNSt12_Vector_baseISt10unique_ptrIN9grpc_core4Rbac10PermissionESt14default_deleteIS3_EESaIS6_EE11_M_allocateEm.exit.i.i.i.i.i ], [ %incdec.ptr1.i.i.i.i.i.i.i.i, %for.body.i.i.i.i81.i.i.i.i ]
  %incdec.ptr.i.i.i.i.i = getelementptr i8, ptr %__cur.0.lcssa.i.i.i.i.i.i.i.i, i64 8
  %tobool.not.i.i.i.i.i.i = icmp eq ptr %26, null
  br i1 %tobool.not.i.i.i.i.i.i, label %_ZNSt6vectorISt10unique_ptrIN9grpc_core4Rbac10PermissionESt14default_deleteIS3_EESaIS6_EE17_M_realloc_insertIJS6_EEEvN9__gnu_cxx17__normal_iteratorIPS6_S8_EEDpOT_.exit.i.i.i.i, label %if.then.i20.i.i.i.i.i

if.then.i20.i.i.i.i.i:                            ; preds = %_ZNSt6vectorISt10unique_ptrIN9grpc_core4Rbac10PermissionESt14default_deleteIS3_EESaIS6_EE11_S_relocateEPS6_S9_S9_RS7_.exit19.i.i.i.i.i
  call void @_ZdlPv(ptr noundef nonnull %26) #24
  br label %_ZNSt6vectorISt10unique_ptrIN9grpc_core4Rbac10PermissionESt14default_deleteIS3_EESaIS6_EE17_M_realloc_insertIJS6_EEEvN9__gnu_cxx17__normal_iteratorIPS6_S8_EEDpOT_.exit.i.i.i.i

_ZNSt6vectorISt10unique_ptrIN9grpc_core4Rbac10PermissionESt14default_deleteIS3_EESaIS6_EE17_M_realloc_insertIJS6_EEEvN9__gnu_cxx17__normal_iteratorIPS6_S8_EEDpOT_.exit.i.i.i.i: ; preds = %if.then.i20.i.i.i.i.i, %_ZNSt6vectorISt10unique_ptrIN9grpc_core4Rbac10PermissionESt14default_deleteIS3_EESaIS6_EE11_S_relocateEPS6_S9_S9_RS7_.exit19.i.i.i.i.i
  store ptr %cond.i10.i.i.i.i.i, ptr %agg.tmp.i.i.i.i, align 8, !noalias !22
  store ptr %incdec.ptr.i.i.i.i.i, ptr %_M_finish.i.i.i.i.i.i.i, align 8, !noalias !22
  %add.ptr19.i.i.i.i.i = getelementptr inbounds %"class.std::unique_ptr.200", ptr %cond.i10.i.i.i.i.i, i64 %cond.i.i.i.i.i.i
  store ptr %add.ptr19.i.i.i.i.i, ptr %_M_end_of_storage.i.i.i.i.i.i.i, align 8, !noalias !22
  br label %for.inc.i.i.i.i.i

for.inc.i.i.i.i.i:                                ; preds = %_ZNSt6vectorISt10unique_ptrIN9grpc_core4Rbac10PermissionESt14default_deleteIS3_EESaIS6_EE17_M_realloc_insertIJS6_EEEvN9__gnu_cxx17__normal_iteratorIPS6_S8_EEDpOT_.exit.i.i.i.i, %if.then.i8.i.i.i.i.i
  %29 = phi ptr [ %incdec.ptr.i.i.i.i.i, %_ZNSt6vectorISt10unique_ptrIN9grpc_core4Rbac10PermissionESt14default_deleteIS3_EESaIS6_EE17_M_realloc_insertIJS6_EEEvN9__gnu_cxx17__normal_iteratorIPS6_S8_EEDpOT_.exit.i.i.i.i ], [ %incdec.ptr.i.i.i.i.i.i, %if.then.i8.i.i.i.i.i ]
  %incdec.ptr.i12.i.i.i.i.i = getelementptr inbounds i8, ptr %__begin2.sroa.0.016.i.i.i.i.i, i64 8
  %cmp.i7.not.i.i.i.i.i = icmp eq ptr %incdec.ptr.i12.i.i.i.i.i, %20
  br i1 %cmp.i7.not.i.i.i.i.i, label %invoke.cont.i.i.i.i, label %for.body.i.i.i.i.i

lpad.loopexit.i.loopexit.i.i.i.i:                 ; preds = %_ZNSt16allocator_traitsISaISt10unique_ptrIN9grpc_core4Rbac10PermissionESt14default_deleteIS3_EEEE8allocateERS7_m.exit.i.i.i.i.i.i
  %lpad.loopexit130.i.i.i.i = landingpad { ptr, i32 }
          cleanup
  br label %ehcleanup.i.i.i.i

lpad.loopexit.i.loopexit.split-lp.i.i.i.i:        ; preds = %if.then.i.i84.i.i.i.i
  %lpad.loopexit.split-lp131.i.i.i.i = landingpad { ptr, i32 }
          cleanup
  br label %ehcleanup.i.i.i.i

lpad.loopexit.split-lp.i.i.loopexit.i.i.i:        ; preds = %_ZNSt12_Vector_baseISt10unique_ptrIN9grpc_core4Rbac10PermissionESt14default_deleteIS3_EESaIS6_EE11_M_allocateEm.exit.i.i.i.i.i.i
  %lpad.loopexit.i.i.i = landingpad { ptr, i32 }
          cleanup
  br label %ehcleanup.i.i.i.i

lpad.loopexit.split-lp.i.i.loopexit.split-lp.i.i.i: ; preds = %if.then.i.i.i.i.i.i
  %lpad.loopexit.split-lp.i.i.i = landingpad { ptr, i32 }
          cleanup
  br label %ehcleanup.i.i.i.i

invoke.cont.i.i.i.i:                              ; preds = %for.inc.i.i.i.i.i, %if.end.i.i.i.i.i.i
  invoke void @_ZN9grpc_core4Rbac10Permission16MakeOrPermissionESt6vectorISt10unique_ptrIS1_St14default_deleteIS1_EESaIS6_EE(ptr nonnull sret(%"struct.grpc_core::Rbac::Permission") align 8 %ref.tmp.i.i.i.i, ptr noundef nonnull %agg.tmp.i.i.i.i)
          to label %invoke.cont4.i.i.i.i unwind label %lpad3.i.i.i.i

invoke.cont4.i.i.i.i:                             ; preds = %invoke.cont.i.i.i.i
  %call.i.i3.i.i = call noundef nonnull align 8 dereferenceable(257) ptr @_ZN9grpc_core4Rbac10PermissionaSEOS1_(ptr noundef nonnull align 8 dereferenceable(257) %ref.tmp.i.i.i, ptr noundef nonnull align 8 dereferenceable(257) %ref.tmp.i.i.i.i) #22
  call void @_ZN9grpc_core4Rbac10PermissionD2Ev(ptr noundef nonnull align 8 dereferenceable(257) %ref.tmp.i.i.i.i) #22
  %30 = load ptr, ptr %agg.tmp.i.i.i.i, align 8, !noalias !22
  %31 = load ptr, ptr %_M_finish.i.i.i.i.i.i.i, align 8, !noalias !22
  %cmp.not3.i.i.i.i.i.i.i = icmp eq ptr %30, %31
  br i1 %cmp.not3.i.i.i.i.i.i.i, label %invoke.cont.i5.i.i.i.i, label %for.body.i.i.i.i.i.i.i

for.body.i.i.i.i.i.i.i:                           ; preds = %invoke.cont4.i.i.i.i, %_ZNSt10unique_ptrIN9grpc_core4Rbac10PermissionESt14default_deleteIS2_EED2Ev.exit.i.i.i.i.i.i.i
  %__first.addr.04.i.i.i.i.i.i.i = phi ptr [ %incdec.ptr.i.i.i.i.i.i.i, %_ZNSt10unique_ptrIN9grpc_core4Rbac10PermissionESt14default_deleteIS2_EED2Ev.exit.i.i.i.i.i.i.i ], [ %30, %invoke.cont4.i.i.i.i ]
  %32 = load ptr, ptr %__first.addr.04.i.i.i.i.i.i.i, align 8
  %cmp.not.i.i.i.i.i.i.i.i = icmp eq ptr %32, null
  br i1 %cmp.not.i.i.i.i.i.i.i.i, label %_ZNSt10unique_ptrIN9grpc_core4Rbac10PermissionESt14default_deleteIS2_EED2Ev.exit.i.i.i.i.i.i.i, label %_ZNKSt14default_deleteIN9grpc_core4Rbac10PermissionEEclEPS2_.exit.i.i.i.i.i.i.i.i

_ZNKSt14default_deleteIN9grpc_core4Rbac10PermissionEEclEPS2_.exit.i.i.i.i.i.i.i.i: ; preds = %for.body.i.i.i.i.i.i.i
  call void @_ZN9grpc_core4Rbac10PermissionD2Ev(ptr noundef nonnull align 8 dereferenceable(257) %32) #22
  call void @_ZdlPv(ptr noundef nonnull %32) #24
  br label %_ZNSt10unique_ptrIN9grpc_core4Rbac10PermissionESt14default_deleteIS2_EED2Ev.exit.i.i.i.i.i.i.i

_ZNSt10unique_ptrIN9grpc_core4Rbac10PermissionESt14default_deleteIS2_EED2Ev.exit.i.i.i.i.i.i.i: ; preds = %_ZNKSt14default_deleteIN9grpc_core4Rbac10PermissionEEclEPS2_.exit.i.i.i.i.i.i.i.i, %for.body.i.i.i.i.i.i.i
  store ptr null, ptr %__first.addr.04.i.i.i.i.i.i.i, align 8
  %incdec.ptr.i.i.i.i.i.i.i = getelementptr inbounds i8, ptr %__first.addr.04.i.i.i.i.i.i.i, i64 8
  %cmp.not.i.i.i.i.i.i.i = icmp eq ptr %incdec.ptr.i.i.i.i.i.i.i, %31
  br i1 %cmp.not.i.i.i.i.i.i.i, label %invoke.contthread-pre-split.i.i.i.i.i, label %for.body.i.i.i.i.i.i.i, !llvm.loop !33

invoke.contthread-pre-split.i.i.i.i.i:            ; preds = %_ZNSt10unique_ptrIN9grpc_core4Rbac10PermissionESt14default_deleteIS2_EED2Ev.exit.i.i.i.i.i.i.i
  %.pr.i.i.i.i.i = load ptr, ptr %agg.tmp.i.i.i.i, align 8, !noalias !22
  br label %invoke.cont.i5.i.i.i.i

invoke.cont.i5.i.i.i.i:                           ; preds = %invoke.contthread-pre-split.i.i.i.i.i, %invoke.cont4.i.i.i.i
  %33 = phi ptr [ %.pr.i.i.i.i.i, %invoke.contthread-pre-split.i.i.i.i.i ], [ %30, %invoke.cont4.i.i.i.i ]
  %tobool.not.i.i.i.i.i.i.i = icmp eq ptr %33, null
  br i1 %tobool.not.i.i.i.i.i.i.i, label %_ZNSt6vectorISt10unique_ptrIN9grpc_core4Rbac10PermissionESt14default_deleteIS3_EESaIS6_EED2Ev.exit.i.i.i.i, label %if.then.i.i.i.i.i.i.i

if.then.i.i.i.i.i.i.i:                            ; preds = %invoke.cont.i5.i.i.i.i
  call void @_ZdlPv(ptr noundef nonnull %33) #24
  br label %_ZNSt6vectorISt10unique_ptrIN9grpc_core4Rbac10PermissionESt14default_deleteIS3_EESaIS6_EED2Ev.exit.i.i.i.i

_ZNSt6vectorISt10unique_ptrIN9grpc_core4Rbac10PermissionESt14default_deleteIS3_EESaIS6_EED2Ev.exit.i.i.i.i: ; preds = %if.then.i.i.i.i.i.i.i, %invoke.cont.i5.i.i.i.i
  %34 = load ptr, ptr %agg.tmp2.i.i.i.i, align 8, !noalias !22
  %35 = load ptr, ptr %_M_finish.i.i.i.i.i.i.i.i, align 8, !noalias !22
  %cmp.not3.i.i.i.i.i.i.i.i = icmp eq ptr %34, %35
  br i1 %cmp.not3.i.i.i.i.i.i.i.i, label %invoke.cont.i9.i.i.i.i, label %for.body.i.i.i.i.i.i.i.i

for.body.i.i.i.i.i.i.i.i:                         ; preds = %_ZNSt6vectorISt10unique_ptrIN9grpc_core4Rbac10PermissionESt14default_deleteIS3_EESaIS6_EED2Ev.exit.i.i.i.i, %_ZSt8_DestroyIN9grpc_core12_GLOBAL__N_110RbacConfig10RbacPolicy5Rules6Policy10PermissionEEvPT_.exit.i.i.i.i.i.i.i.i
  %__first.addr.04.i.i.i.i.i.i.i.i = phi ptr [ %incdec.ptr.i.i.i.i.i.i.i.i, %_ZSt8_DestroyIN9grpc_core12_GLOBAL__N_110RbacConfig10RbacPolicy5Rules6Policy10PermissionEEvPT_.exit.i.i.i.i.i.i.i.i ], [ %34, %_ZNSt6vectorISt10unique_ptrIN9grpc_core4Rbac10PermissionESt14default_deleteIS3_EESaIS6_EED2Ev.exit.i.i.i.i ]
  %36 = load ptr, ptr %__first.addr.04.i.i.i.i.i.i.i.i, align 8
  %cmp.not.i.i.i.i.i.i.i.i.i.i.i = icmp eq ptr %36, null
  br i1 %cmp.not.i.i.i.i.i.i.i.i.i.i.i, label %_ZSt8_DestroyIN9grpc_core12_GLOBAL__N_110RbacConfig10RbacPolicy5Rules6Policy10PermissionEEvPT_.exit.i.i.i.i.i.i.i.i, label %_ZNKSt14default_deleteIN9grpc_core4Rbac10PermissionEEclEPS2_.exit.i.i.i.i.i.i.i.i.i.i.i

_ZNKSt14default_deleteIN9grpc_core4Rbac10PermissionEEclEPS2_.exit.i.i.i.i.i.i.i.i.i.i.i: ; preds = %for.body.i.i.i.i.i.i.i.i
  call void @_ZN9grpc_core4Rbac10PermissionD2Ev(ptr noundef nonnull align 8 dereferenceable(257) %36) #22
  call void @_ZdlPv(ptr noundef nonnull %36) #24
  br label %_ZSt8_DestroyIN9grpc_core12_GLOBAL__N_110RbacConfig10RbacPolicy5Rules6Policy10PermissionEEvPT_.exit.i.i.i.i.i.i.i.i

_ZSt8_DestroyIN9grpc_core12_GLOBAL__N_110RbacConfig10RbacPolicy5Rules6Policy10PermissionEEvPT_.exit.i.i.i.i.i.i.i.i: ; preds = %_ZNKSt14default_deleteIN9grpc_core4Rbac10PermissionEEclEPS2_.exit.i.i.i.i.i.i.i.i.i.i.i, %for.body.i.i.i.i.i.i.i.i
  store ptr null, ptr %__first.addr.04.i.i.i.i.i.i.i.i, align 8
  %incdec.ptr.i.i.i.i.i.i.i.i = getelementptr inbounds i8, ptr %__first.addr.04.i.i.i.i.i.i.i.i, i64 8
  %cmp.not.i.i.i.i7.i.i.i.i = icmp eq ptr %incdec.ptr.i.i.i.i.i.i.i.i, %35
  br i1 %cmp.not.i.i.i.i7.i.i.i.i, label %invoke.cont.i9.i.i.i.i, label %for.body.i.i.i.i.i.i.i.i, !llvm.loop !34

invoke.cont.i9.i.i.i.i:                           ; preds = %_ZSt8_DestroyIN9grpc_core12_GLOBAL__N_110RbacConfig10RbacPolicy5Rules6Policy10PermissionEEvPT_.exit.i.i.i.i.i.i.i.i, %_ZNSt6vectorISt10unique_ptrIN9grpc_core4Rbac10PermissionESt14default_deleteIS3_EESaIS6_EED2Ev.exit.i.i.i.i
  %tobool.not.i.i.i10.i.i.i.i = icmp eq ptr %34, null
  br i1 %tobool.not.i.i.i10.i.i.i.i, label %_ZNSt6vectorIN9grpc_core12_GLOBAL__N_110RbacConfig10RbacPolicy5Rules6Policy10PermissionESaIS6_EED2Ev.exit.i.i.i.i, label %if.then.i.i.i11.i.i.i.i

if.then.i.i.i11.i.i.i.i:                          ; preds = %invoke.cont.i9.i.i.i.i
  call void @_ZdlPv(ptr noundef nonnull %34) #24
  br label %_ZNSt6vectorIN9grpc_core12_GLOBAL__N_110RbacConfig10RbacPolicy5Rules6Policy10PermissionESaIS6_EED2Ev.exit.i.i.i.i

_ZNSt6vectorIN9grpc_core12_GLOBAL__N_110RbacConfig10RbacPolicy5Rules6Policy10PermissionESaIS6_EED2Ev.exit.i.i.i.i: ; preds = %if.then.i.i.i11.i.i.i.i, %invoke.cont.i9.i.i.i.i
  %principals.i.i.i.i = getelementptr inbounds i8, ptr %__begin2.sroa.0.036.i.i.i, i64 88
  %37 = load ptr, ptr %principals.i.i.i.i, align 8, !noalias !18
  store ptr %37, ptr %agg.tmp8.i.i.i.i, align 8, !noalias !22
  %_M_finish3.i.i.i.i13.i.i.i.i = getelementptr inbounds i8, ptr %__begin2.sroa.0.036.i.i.i, i64 96
  %38 = load ptr, ptr %_M_finish3.i.i.i.i13.i.i.i.i, align 8, !noalias !18
  store ptr %38, ptr %_M_finish.i.i.i.i12.i.i.i.i, align 8, !noalias !22
  %_M_end_of_storage4.i.i.i.i15.i.i.i.i = getelementptr inbounds i8, ptr %__begin2.sroa.0.036.i.i.i, i64 104
  %39 = load ptr, ptr %_M_end_of_storage4.i.i.i.i15.i.i.i.i, align 8, !noalias !18
  store ptr %39, ptr %_M_end_of_storage.i.i.i.i14.i.i.i.i, align 8, !noalias !22
  call void @llvm.memset.p0.i64(ptr noundef nonnull align 8 dereferenceable(24) %principals.i.i.i.i, i8 0, i64 24, i1 false), !noalias !18
  call void @llvm.experimental.noalias.scope.decl(metadata !35)
  call void @llvm.memset.p0.i64(ptr noundef nonnull align 8 dereferenceable(24) %agg.tmp7.i.i.i.i, i8 0, i64 24, i1 false), !alias.scope !35, !noalias !22
  %sub.ptr.lhs.cast.i.i16.i.i.i.i = ptrtoint ptr %38 to i64
  %sub.ptr.rhs.cast.i.i17.i.i.i.i = ptrtoint ptr %37 to i64
  %sub.ptr.sub.i.i18.i.i.i.i = sub i64 %sub.ptr.lhs.cast.i.i16.i.i.i.i, %sub.ptr.rhs.cast.i.i17.i.i.i.i
  %sub.ptr.div.i.i19.i.i.i.i = ashr exact i64 %sub.ptr.sub.i.i18.i.i.i.i, 3
  %cmp.i.i20.i.i.i.i = icmp ugt i64 %sub.ptr.div.i.i19.i.i.i.i, 1152921504606846975
  br i1 %cmp.i.i20.i.i.i.i, label %if.then.i.i46.i.i.i.i, label %if.end.i.i21.i.i.i.i

if.then.i.i46.i.i.i.i:                            ; preds = %_ZNSt6vectorIN9grpc_core12_GLOBAL__N_110RbacConfig10RbacPolicy5Rules6Policy10PermissionESaIS6_EED2Ev.exit.i.i.i.i
  invoke void @_ZSt20__throw_length_errorPKc(ptr noundef nonnull @.str.32) #20
          to label %.noexc.i47.i.i.i.i unwind label %lpad.loopexit.split-lp.i25.i.loopexit.split-lp.i.i.i, !noalias !35

.noexc.i47.i.i.i.i:                               ; preds = %if.then.i.i46.i.i.i.i
  unreachable

if.end.i.i21.i.i.i.i:                             ; preds = %_ZNSt6vectorIN9grpc_core12_GLOBAL__N_110RbacConfig10RbacPolicy5Rules6Policy10PermissionESaIS6_EED2Ev.exit.i.i.i.i
  %cmp3.i.not.i23.i.i.i.i = icmp eq ptr %38, %37
  br i1 %cmp3.i.not.i23.i.i.i.i, label %invoke.cont10.i.i.i.i, label %_ZNSt12_Vector_baseISt10unique_ptrIN9grpc_core4Rbac9PrincipalESt14default_deleteIS3_EESaIS6_EE11_M_allocateEm.exit.i.i.i.i.i.i

_ZNSt12_Vector_baseISt10unique_ptrIN9grpc_core4Rbac9PrincipalESt14default_deleteIS3_EESaIS6_EE11_M_allocateEm.exit.i.i.i.i.i.i: ; preds = %if.end.i.i21.i.i.i.i
  %call5.i.i.i.i6.i24.i.i.i.i = invoke noalias noundef nonnull ptr @_Znwm(i64 noundef %sub.ptr.sub.i.i18.i.i.i.i) #21
          to label %for.body.lr.ph.i33.i.i.i.i unwind label %lpad.loopexit.split-lp.i25.i.loopexit.i.i.i, !noalias !35

for.body.lr.ph.i33.i.i.i.i:                       ; preds = %_ZNSt12_Vector_baseISt10unique_ptrIN9grpc_core4Rbac9PrincipalESt14default_deleteIS3_EESaIS6_EE11_M_allocateEm.exit.i.i.i.i.i.i
  store ptr %call5.i.i.i.i6.i24.i.i.i.i, ptr %agg.tmp7.i.i.i.i, align 8, !alias.scope !35, !noalias !22
  store ptr %call5.i.i.i.i6.i24.i.i.i.i, ptr %_M_finish.i.i.i29.i.i.i.i, align 8, !alias.scope !35, !noalias !22
  %add.ptr21.i.i30.i.i.i.i = getelementptr inbounds %"class.std::unique_ptr.188", ptr %call5.i.i.i.i6.i24.i.i.i.i, i64 %sub.ptr.div.i.i19.i.i.i.i
  store ptr %add.ptr21.i.i30.i.i.i.i, ptr %_M_end_of_storage.i.i.i22.i.i.i.i, align 8, !alias.scope !35, !noalias !22
  br label %for.body.i35.i.i.i.i

for.body.i35.i.i.i.i:                             ; preds = %for.inc.i40.i.i.i.i, %for.body.lr.ph.i33.i.i.i.i
  %40 = phi ptr [ %call5.i.i.i.i6.i24.i.i.i.i, %for.body.lr.ph.i33.i.i.i.i ], [ %47, %for.inc.i40.i.i.i.i ]
  %__begin2.sroa.0.016.i36.i.i.i.i = phi ptr [ %37, %for.body.lr.ph.i33.i.i.i.i ], [ %incdec.ptr.i12.i41.i.i.i.i, %for.inc.i40.i.i.i.i ]
  %41 = load ptr, ptr %_M_end_of_storage.i.i.i22.i.i.i.i, align 8, !alias.scope !35, !noalias !22
  %cmp.not.i.i37.i.i.i.i = icmp eq ptr %40, %41
  br i1 %cmp.not.i.i37.i.i.i.i, label %if.else.i.i43.i.i.i.i, label %if.then.i8.i38.i.i.i.i

if.then.i8.i38.i.i.i.i:                           ; preds = %for.body.i35.i.i.i.i
  %42 = load i64, ptr %__begin2.sroa.0.016.i36.i.i.i.i, align 8
  store i64 %42, ptr %40, align 8
  store ptr null, ptr %__begin2.sroa.0.016.i36.i.i.i.i, align 8
  %43 = load ptr, ptr %_M_finish.i.i.i29.i.i.i.i, align 8, !alias.scope !35, !noalias !22
  %incdec.ptr.i.i39.i.i.i.i = getelementptr inbounds i8, ptr %43, i64 8
  store ptr %incdec.ptr.i.i39.i.i.i.i, ptr %_M_finish.i.i.i29.i.i.i.i, align 8, !alias.scope !35, !noalias !22
  br label %for.inc.i40.i.i.i.i

if.else.i.i43.i.i.i.i:                            ; preds = %for.body.i35.i.i.i.i
  %44 = load ptr, ptr %agg.tmp7.i.i.i.i, align 8, !noalias !22
  %sub.ptr.lhs.cast.i.i.i87.i.i.i.i = ptrtoint ptr %40 to i64
  %sub.ptr.rhs.cast.i.i.i88.i.i.i.i = ptrtoint ptr %44 to i64
  %sub.ptr.sub.i.i.i89.i.i.i.i = sub i64 %sub.ptr.lhs.cast.i.i.i87.i.i.i.i, %sub.ptr.rhs.cast.i.i.i88.i.i.i.i
  %cmp.i.i90.i.i.i.i = icmp eq i64 %sub.ptr.sub.i.i.i89.i.i.i.i, 9223372036854775800
  br i1 %cmp.i.i90.i.i.i.i, label %if.then.i.i126.i.i.i.i, label %_ZNKSt6vectorISt10unique_ptrIN9grpc_core4Rbac9PrincipalESt14default_deleteIS3_EESaIS6_EE12_M_check_lenEmPKc.exit.i.i.i.i.i

if.then.i.i126.i.i.i.i:                           ; preds = %if.else.i.i43.i.i.i.i
  invoke void @_ZSt20__throw_length_errorPKc(ptr noundef nonnull @.str.33) #20
          to label %.noexc127.i.i.i.i unwind label %lpad.loopexit.i44.loopexit.split-lp.i.i.i.i

.noexc127.i.i.i.i:                                ; preds = %if.then.i.i126.i.i.i.i
  unreachable

_ZNKSt6vectorISt10unique_ptrIN9grpc_core4Rbac9PrincipalESt14default_deleteIS3_EESaIS6_EE12_M_check_lenEmPKc.exit.i.i.i.i.i: ; preds = %if.else.i.i43.i.i.i.i
  %sub.ptr.div.i.i.i91.i.i.i.i = ashr exact i64 %sub.ptr.sub.i.i.i89.i.i.i.i, 3
  %.sroa.speculated.i.i92.i.i.i.i = call i64 @llvm.umax.i64(i64 %sub.ptr.div.i.i.i91.i.i.i.i, i64 1)
  %add.i.i93.i.i.i.i = add i64 %.sroa.speculated.i.i92.i.i.i.i, %sub.ptr.div.i.i.i91.i.i.i.i
  %cmp7.i.i94.i.i.i.i = icmp ult i64 %add.i.i93.i.i.i.i, %sub.ptr.div.i.i.i91.i.i.i.i
  %cmp9.i.i95.i.i.i.i = icmp ugt i64 %add.i.i93.i.i.i.i, 1152921504606846975
  %or.cond.i.i96.i.i.i.i = or i1 %cmp7.i.i94.i.i.i.i, %cmp9.i.i95.i.i.i.i
  %cond.i.i97.i.i.i.i = select i1 %or.cond.i.i96.i.i.i.i, i64 1152921504606846975, i64 %add.i.i93.i.i.i.i
  %cmp.not.i.i101.i.i.i.i = icmp eq i64 %cond.i.i97.i.i.i.i, 0
  br i1 %cmp.not.i.i101.i.i.i.i, label %_ZNSt12_Vector_baseISt10unique_ptrIN9grpc_core4Rbac9PrincipalESt14default_deleteIS3_EESaIS6_EE11_M_allocateEm.exit.i.i.i.i.i, label %_ZNSt16allocator_traitsISaISt10unique_ptrIN9grpc_core4Rbac9PrincipalESt14default_deleteIS3_EEEE8allocateERS7_m.exit.i.i.i.i.i.i

_ZNSt16allocator_traitsISaISt10unique_ptrIN9grpc_core4Rbac9PrincipalESt14default_deleteIS3_EEEE8allocateERS7_m.exit.i.i.i.i.i.i: ; preds = %_ZNKSt6vectorISt10unique_ptrIN9grpc_core4Rbac9PrincipalESt14default_deleteIS3_EESaIS6_EE12_M_check_lenEmPKc.exit.i.i.i.i.i
  %mul.i.i.i.i102.i.i.i.i = shl nuw nsw i64 %cond.i.i97.i.i.i.i, 3
  %call5.i.i.i.i129.i.i.i.i = invoke noalias noundef nonnull ptr @_Znwm(i64 noundef %mul.i.i.i.i102.i.i.i.i) #21
          to label %_ZNSt12_Vector_baseISt10unique_ptrIN9grpc_core4Rbac9PrincipalESt14default_deleteIS3_EESaIS6_EE11_M_allocateEm.exit.i.i.i.i.i unwind label %lpad.loopexit.i44.loopexit.i.i.i.i

_ZNSt12_Vector_baseISt10unique_ptrIN9grpc_core4Rbac9PrincipalESt14default_deleteIS3_EESaIS6_EE11_M_allocateEm.exit.i.i.i.i.i: ; preds = %_ZNSt16allocator_traitsISaISt10unique_ptrIN9grpc_core4Rbac9PrincipalESt14default_deleteIS3_EEEE8allocateERS7_m.exit.i.i.i.i.i.i, %_ZNKSt6vectorISt10unique_ptrIN9grpc_core4Rbac9PrincipalESt14default_deleteIS3_EESaIS6_EE12_M_check_lenEmPKc.exit.i.i.i.i.i
  %cond.i10.i103.i.i.i.i = phi ptr [ null, %_ZNKSt6vectorISt10unique_ptrIN9grpc_core4Rbac9PrincipalESt14default_deleteIS3_EESaIS6_EE12_M_check_lenEmPKc.exit.i.i.i.i.i ], [ %call5.i.i.i.i129.i.i.i.i, %_ZNSt16allocator_traitsISaISt10unique_ptrIN9grpc_core4Rbac9PrincipalESt14default_deleteIS3_EEEE8allocateERS7_m.exit.i.i.i.i.i.i ]
  %add.ptr.i104.i.i.i.i = getelementptr inbounds %"class.std::unique_ptr.188", ptr %cond.i10.i103.i.i.i.i, i64 %sub.ptr.div.i.i.i91.i.i.i.i
  %45 = load i64, ptr %__begin2.sroa.0.016.i36.i.i.i.i, align 8
  store i64 %45, ptr %add.ptr.i104.i.i.i.i, align 8
  store ptr null, ptr %__begin2.sroa.0.016.i36.i.i.i.i, align 8
  %cmp.not5.i.i.i.i105.i.i.i.i = icmp eq ptr %44, %40
  br i1 %cmp.not5.i.i.i.i105.i.i.i.i, label %_ZNSt6vectorISt10unique_ptrIN9grpc_core4Rbac9PrincipalESt14default_deleteIS3_EESaIS6_EE11_S_relocateEPS6_S9_S9_RS7_.exit19.i.i.i.i.i, label %for.body.i.i.i.i106.i.i.i.i

for.body.i.i.i.i106.i.i.i.i:                      ; preds = %_ZNSt12_Vector_baseISt10unique_ptrIN9grpc_core4Rbac9PrincipalESt14default_deleteIS3_EESaIS6_EE11_M_allocateEm.exit.i.i.i.i.i, %for.body.i.i.i.i106.i.i.i.i
  %__cur.07.i.i.i.i107.i.i.i.i = phi ptr [ %incdec.ptr1.i.i.i.i110.i.i.i.i, %for.body.i.i.i.i106.i.i.i.i ], [ %cond.i10.i103.i.i.i.i, %_ZNSt12_Vector_baseISt10unique_ptrIN9grpc_core4Rbac9PrincipalESt14default_deleteIS3_EESaIS6_EE11_M_allocateEm.exit.i.i.i.i.i ]
  %__first.addr.06.i.i.i.i108.i.i.i.i = phi ptr [ %incdec.ptr.i.i.i.i109.i.i.i.i, %for.body.i.i.i.i106.i.i.i.i ], [ %44, %_ZNSt12_Vector_baseISt10unique_ptrIN9grpc_core4Rbac9PrincipalESt14default_deleteIS3_EESaIS6_EE11_M_allocateEm.exit.i.i.i.i.i ]
  call void @llvm.experimental.noalias.scope.decl(metadata !38)
  call void @llvm.experimental.noalias.scope.decl(metadata !41)
  %46 = load i64, ptr %__first.addr.06.i.i.i.i108.i.i.i.i, align 8, !alias.scope !41, !noalias !38
  store i64 %46, ptr %__cur.07.i.i.i.i107.i.i.i.i, align 8, !alias.scope !38, !noalias !41
  store ptr null, ptr %__first.addr.06.i.i.i.i108.i.i.i.i, align 8, !alias.scope !41, !noalias !38
  %incdec.ptr.i.i.i.i109.i.i.i.i = getelementptr inbounds i8, ptr %__first.addr.06.i.i.i.i108.i.i.i.i, i64 8
  %incdec.ptr1.i.i.i.i110.i.i.i.i = getelementptr inbounds i8, ptr %__cur.07.i.i.i.i107.i.i.i.i, i64 8
  %cmp.not.i.i.i.i111.i.i.i.i = icmp eq ptr %incdec.ptr.i.i.i.i109.i.i.i.i, %40
  br i1 %cmp.not.i.i.i.i111.i.i.i.i, label %_ZNSt6vectorISt10unique_ptrIN9grpc_core4Rbac9PrincipalESt14default_deleteIS3_EESaIS6_EE11_S_relocateEPS6_S9_S9_RS7_.exit19.i.i.i.i.i, label %for.body.i.i.i.i106.i.i.i.i, !llvm.loop !43

_ZNSt6vectorISt10unique_ptrIN9grpc_core4Rbac9PrincipalESt14default_deleteIS3_EESaIS6_EE11_S_relocateEPS6_S9_S9_RS7_.exit19.i.i.i.i.i: ; preds = %for.body.i.i.i.i106.i.i.i.i, %_ZNSt12_Vector_baseISt10unique_ptrIN9grpc_core4Rbac9PrincipalESt14default_deleteIS3_EESaIS6_EE11_M_allocateEm.exit.i.i.i.i.i
  %__cur.0.lcssa.i.i.i.i112.i.i.i.i = phi ptr [ %cond.i10.i103.i.i.i.i, %_ZNSt12_Vector_baseISt10unique_ptrIN9grpc_core4Rbac9PrincipalESt14default_deleteIS3_EESaIS6_EE11_M_allocateEm.exit.i.i.i.i.i ], [ %incdec.ptr1.i.i.i.i110.i.i.i.i, %for.body.i.i.i.i106.i.i.i.i ]
  %incdec.ptr.i113.i.i.i.i = getelementptr i8, ptr %__cur.0.lcssa.i.i.i.i112.i.i.i.i, i64 8
  %tobool.not.i.i122.i.i.i.i = icmp eq ptr %44, null
  br i1 %tobool.not.i.i122.i.i.i.i, label %_ZNSt6vectorISt10unique_ptrIN9grpc_core4Rbac9PrincipalESt14default_deleteIS3_EESaIS6_EE17_M_realloc_insertIJS6_EEEvN9__gnu_cxx17__normal_iteratorIPS6_S8_EEDpOT_.exit.i.i.i.i, label %if.then.i20.i123.i.i.i.i

if.then.i20.i123.i.i.i.i:                         ; preds = %_ZNSt6vectorISt10unique_ptrIN9grpc_core4Rbac9PrincipalESt14default_deleteIS3_EESaIS6_EE11_S_relocateEPS6_S9_S9_RS7_.exit19.i.i.i.i.i
  call void @_ZdlPv(ptr noundef nonnull %44) #24
  br label %_ZNSt6vectorISt10unique_ptrIN9grpc_core4Rbac9PrincipalESt14default_deleteIS3_EESaIS6_EE17_M_realloc_insertIJS6_EEEvN9__gnu_cxx17__normal_iteratorIPS6_S8_EEDpOT_.exit.i.i.i.i

_ZNSt6vectorISt10unique_ptrIN9grpc_core4Rbac9PrincipalESt14default_deleteIS3_EESaIS6_EE17_M_realloc_insertIJS6_EEEvN9__gnu_cxx17__normal_iteratorIPS6_S8_EEDpOT_.exit.i.i.i.i: ; preds = %if.then.i20.i123.i.i.i.i, %_ZNSt6vectorISt10unique_ptrIN9grpc_core4Rbac9PrincipalESt14default_deleteIS3_EESaIS6_EE11_S_relocateEPS6_S9_S9_RS7_.exit19.i.i.i.i.i
  store ptr %cond.i10.i103.i.i.i.i, ptr %agg.tmp7.i.i.i.i, align 8, !noalias !22
  store ptr %incdec.ptr.i113.i.i.i.i, ptr %_M_finish.i.i.i29.i.i.i.i, align 8, !noalias !22
  %add.ptr19.i125.i.i.i.i = getelementptr inbounds %"class.std::unique_ptr.188", ptr %cond.i10.i103.i.i.i.i, i64 %cond.i.i97.i.i.i.i
  store ptr %add.ptr19.i125.i.i.i.i, ptr %_M_end_of_storage.i.i.i22.i.i.i.i, align 8, !noalias !22
  br label %for.inc.i40.i.i.i.i

for.inc.i40.i.i.i.i:                              ; preds = %_ZNSt6vectorISt10unique_ptrIN9grpc_core4Rbac9PrincipalESt14default_deleteIS3_EESaIS6_EE17_M_realloc_insertIJS6_EEEvN9__gnu_cxx17__normal_iteratorIPS6_S8_EEDpOT_.exit.i.i.i.i, %if.then.i8.i38.i.i.i.i
  %47 = phi ptr [ %incdec.ptr.i113.i.i.i.i, %_ZNSt6vectorISt10unique_ptrIN9grpc_core4Rbac9PrincipalESt14default_deleteIS3_EESaIS6_EE17_M_realloc_insertIJS6_EEEvN9__gnu_cxx17__normal_iteratorIPS6_S8_EEDpOT_.exit.i.i.i.i ], [ %incdec.ptr.i.i39.i.i.i.i, %if.then.i8.i38.i.i.i.i ]
  %incdec.ptr.i12.i41.i.i.i.i = getelementptr inbounds i8, ptr %__begin2.sroa.0.016.i36.i.i.i.i, i64 8
  %cmp.i7.not.i42.i.i.i.i = icmp eq ptr %incdec.ptr.i12.i41.i.i.i.i, %38
  br i1 %cmp.i7.not.i42.i.i.i.i, label %invoke.cont10.i.i.i.i, label %for.body.i35.i.i.i.i

lpad.loopexit.i44.loopexit.i.i.i.i:               ; preds = %_ZNSt16allocator_traitsISaISt10unique_ptrIN9grpc_core4Rbac9PrincipalESt14default_deleteIS3_EEEE8allocateERS7_m.exit.i.i.i.i.i.i
  %lpad.loopexit.i.i.i.i = landingpad { ptr, i32 }
          cleanup
  br label %ehcleanup16.i.i.i.i

lpad.loopexit.i44.loopexit.split-lp.i.i.i.i:      ; preds = %if.then.i.i126.i.i.i.i
  %lpad.loopexit.split-lp.i.i.i.i = landingpad { ptr, i32 }
          cleanup
  br label %ehcleanup16.i.i.i.i

lpad.loopexit.split-lp.i25.i.loopexit.i.i.i:      ; preds = %_ZNSt12_Vector_baseISt10unique_ptrIN9grpc_core4Rbac9PrincipalESt14default_deleteIS3_EESaIS6_EE11_M_allocateEm.exit.i.i.i.i.i.i
  %lpad.loopexit15.i.i.i = landingpad { ptr, i32 }
          cleanup
  br label %ehcleanup16.i.i.i.i

lpad.loopexit.split-lp.i25.i.loopexit.split-lp.i.i.i: ; preds = %if.then.i.i46.i.i.i.i
  %lpad.loopexit.split-lp16.i.i.i = landingpad { ptr, i32 }
          cleanup
  br label %ehcleanup16.i.i.i.i

invoke.cont10.i.i.i.i:                            ; preds = %for.inc.i40.i.i.i.i, %if.end.i.i21.i.i.i.i
  invoke void @_ZN9grpc_core4Rbac9Principal15MakeOrPrincipalESt6vectorISt10unique_ptrIS1_St14default_deleteIS1_EESaIS6_EE(ptr nonnull sret(%"struct.grpc_core::Rbac::Principal") align 8 %ref.tmp6.i.i.i.i, ptr noundef nonnull %agg.tmp7.i.i.i.i)
          to label %invoke.cont12.i.i.i.i unwind label %lpad11.i.i.i.i

invoke.cont12.i.i.i.i:                            ; preds = %invoke.cont10.i.i.i.i
  %call14.i.i.i.i = call noundef nonnull align 8 dereferenceable(257) ptr @_ZN9grpc_core4Rbac9PrincipalaSEOS1_(ptr noundef nonnull align 8 dereferenceable(257) %principals.i.i.i.i.i, ptr noundef nonnull align 8 dereferenceable(257) %ref.tmp6.i.i.i.i) #22
  call void @_ZN9grpc_core4Rbac9PrincipalD2Ev(ptr noundef nonnull align 8 dereferenceable(257) %ref.tmp6.i.i.i.i) #22
  %48 = load ptr, ptr %agg.tmp7.i.i.i.i, align 8, !noalias !22
  %49 = load ptr, ptr %_M_finish.i.i.i29.i.i.i.i, align 8, !noalias !22
  %cmp.not3.i.i.i50.i.i.i.i = icmp eq ptr %48, %49
  br i1 %cmp.not3.i.i.i50.i.i.i.i, label %invoke.cont.i58.i.i.i.i, label %for.body.i.i.i51.i.i.i.i

for.body.i.i.i51.i.i.i.i:                         ; preds = %invoke.cont12.i.i.i.i, %_ZNSt10unique_ptrIN9grpc_core4Rbac9PrincipalESt14default_deleteIS2_EED2Ev.exit.i.i.i.i.i.i.i
  %__first.addr.04.i.i.i52.i.i.i.i = phi ptr [ %incdec.ptr.i.i.i54.i.i.i.i, %_ZNSt10unique_ptrIN9grpc_core4Rbac9PrincipalESt14default_deleteIS2_EED2Ev.exit.i.i.i.i.i.i.i ], [ %48, %invoke.cont12.i.i.i.i ]
  %50 = load ptr, ptr %__first.addr.04.i.i.i52.i.i.i.i, align 8
  %cmp.not.i.i.i.i53.i.i.i.i = icmp eq ptr %50, null
  br i1 %cmp.not.i.i.i.i53.i.i.i.i, label %_ZNSt10unique_ptrIN9grpc_core4Rbac9PrincipalESt14default_deleteIS2_EED2Ev.exit.i.i.i.i.i.i.i, label %_ZNKSt14default_deleteIN9grpc_core4Rbac9PrincipalEEclEPS2_.exit.i.i.i.i.i.i.i.i

_ZNKSt14default_deleteIN9grpc_core4Rbac9PrincipalEEclEPS2_.exit.i.i.i.i.i.i.i.i: ; preds = %for.body.i.i.i51.i.i.i.i
  call void @_ZN9grpc_core4Rbac9PrincipalD2Ev(ptr noundef nonnull align 8 dereferenceable(257) %50) #22
  call void @_ZdlPv(ptr noundef nonnull %50) #24
  br label %_ZNSt10unique_ptrIN9grpc_core4Rbac9PrincipalESt14default_deleteIS2_EED2Ev.exit.i.i.i.i.i.i.i

_ZNSt10unique_ptrIN9grpc_core4Rbac9PrincipalESt14default_deleteIS2_EED2Ev.exit.i.i.i.i.i.i.i: ; preds = %_ZNKSt14default_deleteIN9grpc_core4Rbac9PrincipalEEclEPS2_.exit.i.i.i.i.i.i.i.i, %for.body.i.i.i51.i.i.i.i
  store ptr null, ptr %__first.addr.04.i.i.i52.i.i.i.i, align 8
  %incdec.ptr.i.i.i54.i.i.i.i = getelementptr inbounds i8, ptr %__first.addr.04.i.i.i52.i.i.i.i, i64 8
  %cmp.not.i.i.i55.i.i.i.i = icmp eq ptr %incdec.ptr.i.i.i54.i.i.i.i, %49
  br i1 %cmp.not.i.i.i55.i.i.i.i, label %invoke.contthread-pre-split.i56.i.i.i.i, label %for.body.i.i.i51.i.i.i.i, !llvm.loop !44

invoke.contthread-pre-split.i56.i.i.i.i:          ; preds = %_ZNSt10unique_ptrIN9grpc_core4Rbac9PrincipalESt14default_deleteIS2_EED2Ev.exit.i.i.i.i.i.i.i
  %.pr.i57.i.i.i.i = load ptr, ptr %agg.tmp7.i.i.i.i, align 8, !noalias !22
  br label %invoke.cont.i58.i.i.i.i

invoke.cont.i58.i.i.i.i:                          ; preds = %invoke.contthread-pre-split.i56.i.i.i.i, %invoke.cont12.i.i.i.i
  %51 = phi ptr [ %.pr.i57.i.i.i.i, %invoke.contthread-pre-split.i56.i.i.i.i ], [ %48, %invoke.cont12.i.i.i.i ]
  %tobool.not.i.i.i59.i.i.i.i = icmp eq ptr %51, null
  br i1 %tobool.not.i.i.i59.i.i.i.i, label %_ZNSt6vectorISt10unique_ptrIN9grpc_core4Rbac9PrincipalESt14default_deleteIS3_EESaIS6_EED2Ev.exit.i.i.i.i, label %if.then.i.i.i60.i.i.i.i

if.then.i.i.i60.i.i.i.i:                          ; preds = %invoke.cont.i58.i.i.i.i
  call void @_ZdlPv(ptr noundef nonnull %51) #24
  br label %_ZNSt6vectorISt10unique_ptrIN9grpc_core4Rbac9PrincipalESt14default_deleteIS3_EESaIS6_EED2Ev.exit.i.i.i.i

_ZNSt6vectorISt10unique_ptrIN9grpc_core4Rbac9PrincipalESt14default_deleteIS3_EESaIS6_EED2Ev.exit.i.i.i.i: ; preds = %if.then.i.i.i60.i.i.i.i, %invoke.cont.i58.i.i.i.i
  %52 = load ptr, ptr %agg.tmp8.i.i.i.i, align 8, !noalias !22
  %53 = load ptr, ptr %_M_finish.i.i.i.i12.i.i.i.i, align 8, !noalias !22
  %cmp.not3.i.i.i.i62.i.i.i.i = icmp eq ptr %52, %53
  br i1 %cmp.not3.i.i.i.i62.i.i.i.i, label %invoke.cont.i70.i.i.i.i, label %for.body.i.i.i.i63.i.i.i.i

for.body.i.i.i.i63.i.i.i.i:                       ; preds = %_ZNSt6vectorISt10unique_ptrIN9grpc_core4Rbac9PrincipalESt14default_deleteIS3_EESaIS6_EED2Ev.exit.i.i.i.i, %_ZSt8_DestroyIN9grpc_core12_GLOBAL__N_110RbacConfig10RbacPolicy5Rules6Policy9PrincipalEEvPT_.exit.i.i.i.i.i.i.i.i
  %__first.addr.04.i.i.i.i64.i.i.i.i = phi ptr [ %incdec.ptr.i.i.i.i66.i.i.i.i, %_ZSt8_DestroyIN9grpc_core12_GLOBAL__N_110RbacConfig10RbacPolicy5Rules6Policy9PrincipalEEvPT_.exit.i.i.i.i.i.i.i.i ], [ %52, %_ZNSt6vectorISt10unique_ptrIN9grpc_core4Rbac9PrincipalESt14default_deleteIS3_EESaIS6_EED2Ev.exit.i.i.i.i ]
  %54 = load ptr, ptr %__first.addr.04.i.i.i.i64.i.i.i.i, align 8
  %cmp.not.i.i.i.i.i.i.i65.i.i.i.i = icmp eq ptr %54, null
  br i1 %cmp.not.i.i.i.i.i.i.i65.i.i.i.i, label %_ZSt8_DestroyIN9grpc_core12_GLOBAL__N_110RbacConfig10RbacPolicy5Rules6Policy9PrincipalEEvPT_.exit.i.i.i.i.i.i.i.i, label %_ZNKSt14default_deleteIN9grpc_core4Rbac9PrincipalEEclEPS2_.exit.i.i.i.i.i.i.i.i.i.i.i

_ZNKSt14default_deleteIN9grpc_core4Rbac9PrincipalEEclEPS2_.exit.i.i.i.i.i.i.i.i.i.i.i: ; preds = %for.body.i.i.i.i63.i.i.i.i
  call void @_ZN9grpc_core4Rbac9PrincipalD2Ev(ptr noundef nonnull align 8 dereferenceable(257) %54) #22
  call void @_ZdlPv(ptr noundef nonnull %54) #24
  br label %_ZSt8_DestroyIN9grpc_core12_GLOBAL__N_110RbacConfig10RbacPolicy5Rules6Policy9PrincipalEEvPT_.exit.i.i.i.i.i.i.i.i

_ZSt8_DestroyIN9grpc_core12_GLOBAL__N_110RbacConfig10RbacPolicy5Rules6Policy9PrincipalEEvPT_.exit.i.i.i.i.i.i.i.i: ; preds = %_ZNKSt14default_deleteIN9grpc_core4Rbac9PrincipalEEclEPS2_.exit.i.i.i.i.i.i.i.i.i.i.i, %for.body.i.i.i.i63.i.i.i.i
  store ptr null, ptr %__first.addr.04.i.i.i.i64.i.i.i.i, align 8
  %incdec.ptr.i.i.i.i66.i.i.i.i = getelementptr inbounds i8, ptr %__first.addr.04.i.i.i.i64.i.i.i.i, i64 8
  %cmp.not.i.i.i.i67.i.i.i.i = icmp eq ptr %incdec.ptr.i.i.i.i66.i.i.i.i, %53
  br i1 %cmp.not.i.i.i.i67.i.i.i.i, label %invoke.cont.i70.i.i.i.i, label %for.body.i.i.i.i63.i.i.i.i, !llvm.loop !45

invoke.cont.i70.i.i.i.i:                          ; preds = %_ZSt8_DestroyIN9grpc_core12_GLOBAL__N_110RbacConfig10RbacPolicy5Rules6Policy9PrincipalEEvPT_.exit.i.i.i.i.i.i.i.i, %_ZNSt6vectorISt10unique_ptrIN9grpc_core4Rbac9PrincipalESt14default_deleteIS3_EESaIS6_EED2Ev.exit.i.i.i.i
  %tobool.not.i.i.i72.i.i.i.i = icmp eq ptr %52, null
  br i1 %tobool.not.i.i.i72.i.i.i.i, label %invoke.cont.i.i.i, label %if.then.i.i.i73.i.i.i.i

if.then.i.i.i73.i.i.i.i:                          ; preds = %invoke.cont.i70.i.i.i.i
  call void @_ZdlPv(ptr noundef nonnull %52) #24
  br label %invoke.cont.i.i.i

lpad3.i.i.i.i:                                    ; preds = %invoke.cont.i.i.i.i
  %55 = landingpad { ptr, i32 }
          cleanup
  br label %ehcleanup.i.i.i.i

ehcleanup.i.i.i.i:                                ; preds = %lpad3.i.i.i.i, %lpad.loopexit.split-lp.i.i.loopexit.split-lp.i.i.i, %lpad.loopexit.split-lp.i.i.loopexit.i.i.i, %lpad.loopexit.i.loopexit.split-lp.i.i.i.i, %lpad.loopexit.i.loopexit.i.i.i.i
  %.pn.i.i.i.i = phi { ptr, i32 } [ %55, %lpad3.i.i.i.i ], [ %lpad.loopexit130.i.i.i.i, %lpad.loopexit.i.loopexit.i.i.i.i ], [ %lpad.loopexit.split-lp131.i.i.i.i, %lpad.loopexit.i.loopexit.split-lp.i.i.i.i ], [ %lpad.loopexit.i.i.i, %lpad.loopexit.split-lp.i.i.loopexit.i.i.i ], [ %lpad.loopexit.split-lp.i.i.i, %lpad.loopexit.split-lp.i.i.loopexit.split-lp.i.i.i ]
  call void @_ZNSt6vectorISt10unique_ptrIN9grpc_core4Rbac10PermissionESt14default_deleteIS3_EESaIS6_EED2Ev(ptr noundef nonnull align 8 dereferenceable(24) %agg.tmp.i.i.i.i) #22
  call fastcc void @_ZNSt6vectorIN9grpc_core12_GLOBAL__N_110RbacConfig10RbacPolicy5Rules6Policy10PermissionESaIS6_EED2Ev(ptr noundef nonnull align 8 dereferenceable(24) %agg.tmp2.i.i.i.i) #22
  br label %ehcleanup.i.i.i

lpad11.i.i.i.i:                                   ; preds = %invoke.cont10.i.i.i.i
  %56 = landingpad { ptr, i32 }
          cleanup
  br label %ehcleanup16.i.i.i.i

ehcleanup16.i.i.i.i:                              ; preds = %lpad11.i.i.i.i, %lpad.loopexit.split-lp.i25.i.loopexit.split-lp.i.i.i, %lpad.loopexit.split-lp.i25.i.loopexit.i.i.i, %lpad.loopexit.i44.loopexit.split-lp.i.i.i.i, %lpad.loopexit.i44.loopexit.i.i.i.i
  %.pn2.i.i.i.i = phi { ptr, i32 } [ %56, %lpad11.i.i.i.i ], [ %lpad.loopexit.i.i.i.i, %lpad.loopexit.i44.loopexit.i.i.i.i ], [ %lpad.loopexit.split-lp.i.i.i.i, %lpad.loopexit.i44.loopexit.split-lp.i.i.i.i ], [ %lpad.loopexit15.i.i.i, %lpad.loopexit.split-lp.i25.i.loopexit.i.i.i ], [ %lpad.loopexit.split-lp16.i.i.i, %lpad.loopexit.split-lp.i25.i.loopexit.split-lp.i.i.i ]
  call void @_ZNSt6vectorISt10unique_ptrIN9grpc_core4Rbac9PrincipalESt14default_deleteIS3_EESaIS6_EED2Ev(ptr noundef nonnull align 8 dereferenceable(24) %agg.tmp7.i.i.i.i) #22
  call fastcc void @_ZNSt6vectorIN9grpc_core12_GLOBAL__N_110RbacConfig10RbacPolicy5Rules6Policy9PrincipalESaIS6_EED2Ev(ptr noundef nonnull align 8 dereferenceable(24) %agg.tmp8.i.i.i.i) #22
  br label %ehcleanup.i.i.i

invoke.cont.i.i.i:                                ; preds = %if.then.i.i.i73.i.i.i.i, %invoke.cont.i70.i.i.i.i
  call void @llvm.lifetime.end.p0(i64 264, ptr nonnull %ref.tmp.i.i.i.i), !noalias !21
  call void @llvm.lifetime.end.p0(i64 24, ptr nonnull %agg.tmp.i.i.i.i), !noalias !21
  call void @llvm.lifetime.end.p0(i64 24, ptr nonnull %agg.tmp2.i.i.i.i), !noalias !21
  call void @llvm.lifetime.end.p0(i64 264, ptr nonnull %ref.tmp6.i.i.i.i), !noalias !21
  call void @llvm.lifetime.end.p0(i64 24, ptr nonnull %agg.tmp7.i.i.i.i), !noalias !21
  call void @llvm.lifetime.end.p0(i64 24, ptr nonnull %agg.tmp8.i.i.i.i), !noalias !21
  %57 = load ptr, ptr %_M_parent.i.i.i.i.i.i.i.i.i, align 8, !alias.scope !17, !noalias !7
  %cmp.not6.i.i.i.i.i.i.i = icmp eq ptr %57, null
  br i1 %cmp.not6.i.i.i.i.i.i.i, label %if.then.i.i.i.i, label %while.body.i.i.i.i.i.i.i

while.body.i.i.i.i.i.i.i:                         ; preds = %invoke.cont.i.i.i, %_ZNKSt4lessINSt7__cxx1112basic_stringIcSt11char_traitsIcESaIcEEEEclERKS5_S8_.exit.i.i.i.i.i.i.i
  %__x.addr.08.i.i.i.i.i.i.i = phi ptr [ %__x.addr.1.i.i.i.i.i.i.i, %_ZNKSt4lessINSt7__cxx1112basic_stringIcSt11char_traitsIcESaIcEEEEclERKS5_S8_.exit.i.i.i.i.i.i.i ], [ %57, %invoke.cont.i.i.i ]
  %__y.addr.07.i.i.i.i.i.i.i = phi ptr [ %__y.addr.1.i.i.i.i.i.i.i, %_ZNKSt4lessINSt7__cxx1112basic_stringIcSt11char_traitsIcESaIcEEEEclERKS5_S8_.exit.i.i.i.i.i.i.i ], [ %4, %invoke.cont.i.i.i ]
  %_M_storage.i.i.i.i.i.i.i.i.i = getelementptr inbounds i8, ptr %__x.addr.08.i.i.i.i.i.i.i, i64 32
  %call.i.i.i.i.i.i.i.i.i = invoke noundef i32 @_ZNKSt7__cxx1112basic_stringIcSt11char_traitsIcESaIcEE7compareERKS4_(ptr noundef nonnull align 8 dereferenceable(32) %_M_storage.i.i.i.i.i.i.i.i.i, ptr noundef nonnull align 8 dereferenceable(32) %_M_storage.i.i.i.i.i)
          to label %_ZNKSt4lessINSt7__cxx1112basic_stringIcSt11char_traitsIcESaIcEEEEclERKS5_S8_.exit.i.i.i.i.i.i.i unwind label %terminate.lpad.i.i.i.i.i.i.i.i.i

terminate.lpad.i.i.i.i.i.i.i.i.i:                 ; preds = %while.body.i.i.i.i.i.i.i
  %58 = landingpad { ptr, i32 }
          catch ptr null
  %59 = extractvalue { ptr, i32 } %58, 0
  call void @__clang_call_terminate(ptr %59) #23
  unreachable

_ZNKSt4lessINSt7__cxx1112basic_stringIcSt11char_traitsIcESaIcEEEEclERKS5_S8_.exit.i.i.i.i.i.i.i: ; preds = %while.body.i.i.i.i.i.i.i
  %cmp.i.i.i.i.i.i.i.i.i = icmp slt i32 %call.i.i.i.i.i.i.i.i.i, 0
  %__y.addr.1.i.i.i.i.i.i.i = select i1 %cmp.i.i.i.i.i.i.i.i.i, ptr %__y.addr.07.i.i.i.i.i.i.i, ptr %__x.addr.08.i.i.i.i.i.i.i
  %__x.addr.1.in.v.i.i.i.i.i.i.i = select i1 %cmp.i.i.i.i.i.i.i.i.i, i64 24, i64 16
  %__x.addr.1.in.i.i.i.i.i.i.i = getelementptr inbounds i8, ptr %__x.addr.08.i.i.i.i.i.i.i, i64 %__x.addr.1.in.v.i.i.i.i.i.i.i
  %__x.addr.1.i.i.i.i.i.i.i = load ptr, ptr %__x.addr.1.in.i.i.i.i.i.i.i, align 8
  %cmp.not.i.i.i.i6.i.i.i = icmp eq ptr %__x.addr.1.i.i.i.i.i.i.i, null
  br i1 %cmp.not.i.i.i.i6.i.i.i, label %_ZNSt3mapINSt7__cxx1112basic_stringIcSt11char_traitsIcESaIcEEEN9grpc_core4Rbac6PolicyESt4lessIS5_ESaISt4pairIKS5_S8_EEE11lower_boundERSC_.exit.i.i.i.i, label %while.body.i.i.i.i.i.i.i, !llvm.loop !46

_ZNSt3mapINSt7__cxx1112basic_stringIcSt11char_traitsIcESaIcEEEN9grpc_core4Rbac6PolicyESt4lessIS5_ESaISt4pairIKS5_S8_EEE11lower_boundERSC_.exit.i.i.i.i: ; preds = %_ZNKSt4lessINSt7__cxx1112basic_stringIcSt11char_traitsIcESaIcEEEEclERKS5_S8_.exit.i.i.i.i.i.i.i
  %cmp.i.i.i.i.i = icmp eq ptr %__y.addr.1.i.i.i.i.i.i.i, %4
  br i1 %cmp.i.i.i.i.i, label %if.then.i.i.i.i, label %lor.rhs.i.i.i.i

lor.rhs.i.i.i.i:                                  ; preds = %_ZNSt3mapINSt7__cxx1112basic_stringIcSt11char_traitsIcESaIcEEEN9grpc_core4Rbac6PolicyESt4lessIS5_ESaISt4pairIKS5_S8_EEE11lower_boundERSC_.exit.i.i.i.i
  %__y.addr.07.i.i.i.i.i.i.sroa.gep.i = getelementptr inbounds i8, ptr %__y.addr.07.i.i.i.i.i.i.i, i64 32
  %__y.addr.1.i.i.i.i.i.i.sroa.sel.i = select i1 %cmp.i.i.i.i.i.i.i.i.i, ptr %__y.addr.07.i.i.i.i.i.i.sroa.gep.i, ptr %_M_storage.i.i.i.i.i.i.i.i.i
  %call.i.i.i.i.i.i = invoke noundef i32 @_ZNKSt7__cxx1112basic_stringIcSt11char_traitsIcESaIcEE7compareERKS4_(ptr noundef nonnull align 8 dereferenceable(32) %_M_storage.i.i.i.i.i, ptr noundef nonnull align 8 dereferenceable(32) %__y.addr.1.i.i.i.i.i.i.sroa.sel.i)
          to label %_ZNKSt4lessINSt7__cxx1112basic_stringIcSt11char_traitsIcESaIcEEEEclERKS5_S8_.exit.i.i.i.i unwind label %terminate.lpad.i.i.i.i.i.i

terminate.lpad.i.i.i.i.i.i:                       ; preds = %lor.rhs.i.i.i.i
  %60 = landingpad { ptr, i32 }
          catch ptr null
  %61 = extractvalue { ptr, i32 } %60, 0
  call void @__clang_call_terminate(ptr %61) #23
  unreachable

_ZNKSt4lessINSt7__cxx1112basic_stringIcSt11char_traitsIcESaIcEEEEclERKS5_S8_.exit.i.i.i.i: ; preds = %lor.rhs.i.i.i.i
  %cmp.i.i.i7.i.i.i = icmp slt i32 %call.i.i.i.i.i.i, 0
  br i1 %cmp.i.i.i7.i.i.i, label %if.then.i.i.i.i, label %invoke.cont10.i.i.i

if.then.i.i.i.i:                                  ; preds = %_ZNKSt4lessINSt7__cxx1112basic_stringIcSt11char_traitsIcESaIcEEEEclERKS5_S8_.exit.i.i.i.i, %_ZNSt3mapINSt7__cxx1112basic_stringIcSt11char_traitsIcESaIcEEEN9grpc_core4Rbac6PolicyESt4lessIS5_ESaISt4pairIKS5_S8_EEE11lower_boundERSC_.exit.i.i.i.i, %invoke.cont.i.i.i
  %__y.addr.0.lcssa.i.i.i12.i.i.i.i = phi ptr [ %4, %_ZNSt3mapINSt7__cxx1112basic_stringIcSt11char_traitsIcESaIcEEEN9grpc_core4Rbac6PolicyESt4lessIS5_ESaISt4pairIKS5_S8_EEE11lower_boundERSC_.exit.i.i.i.i ], [ %__y.addr.1.i.i.i.i.i.i.i, %_ZNKSt4lessINSt7__cxx1112basic_stringIcSt11char_traitsIcESaIcEEEEclERKS5_S8_.exit.i.i.i.i ], [ %4, %invoke.cont.i.i.i ]
  call void @llvm.lifetime.start.p0(i64 16, ptr nonnull %__z.i.i), !noalias !7
  store ptr %policies8.i.i.i, ptr %__z.i.i, align 8, !noalias !7
  %call5.i.i.i.i44.i = invoke noalias noundef nonnull dereferenceable(592) ptr @_Znwm(i64 noundef 592) #21
          to label %call5.i.i.i.i.noexc43.i unwind label %lpad9.i.i.i

call5.i.i.i.i.noexc43.i:                          ; preds = %if.then.i.i.i.i
  %_M_storage.i.i.i.i = getelementptr inbounds i8, ptr %call5.i.i.i.i44.i, i64 32
  invoke void @_ZNSt7__cxx1112basic_stringIcSt11char_traitsIcESaIcEEC1ERKS4_(ptr noundef nonnull align 8 dereferenceable(32) %_M_storage.i.i.i.i, ptr noundef nonnull align 8 dereferenceable(32) %_M_storage.i.i.i.i.i)
          to label %call.i.i.noexc.i unwind label %lpad.i.i41.i

lpad.i.i41.i:                                     ; preds = %call5.i.i.i.i.noexc43.i
  %62 = landingpad { ptr, i32 }
          catch ptr null
  %63 = extractvalue { ptr, i32 } %62, 0
  %64 = call ptr @__cxa_begin_catch(ptr %63) #22
  call void @_ZdlPv(ptr noundef nonnull %call5.i.i.i.i44.i) #24
  invoke void @__cxa_rethrow() #20
          to label %unreachable.i.i.i unwind label %lpad5.i.i.i

lpad5.i.i.i:                                      ; preds = %lpad.i.i41.i
  %65 = landingpad { ptr, i32 }
          cleanup
  invoke void @__cxa_end_catch()
          to label %ehcleanup.i.i.i unwind label %terminate.lpad.i.i42.i

terminate.lpad.i.i42.i:                           ; preds = %lpad5.i.i.i
  %66 = landingpad { ptr, i32 }
          catch ptr null
  %67 = extractvalue { ptr, i32 } %66, 0
  call void @__clang_call_terminate(ptr %67) #23
  unreachable

unreachable.i.i.i:                                ; preds = %lpad.i.i41.i
  unreachable

call.i.i.noexc.i:                                 ; preds = %call5.i.i.i.i.noexc43.i
  %second.i.i.i.i.i.i = getelementptr inbounds i8, ptr %call5.i.i.i.i44.i, i64 64
  call void @_ZN9grpc_core4Rbac6PolicyC1EOS1_(ptr noundef nonnull align 8 dereferenceable(528) %second.i.i.i.i.i.i, ptr noundef nonnull align 8 dereferenceable(528) %ref.tmp.i.i.i) #22
  store ptr %call5.i.i.i.i44.i, ptr %_M_node.i.i.i, align 8, !noalias !7
  %call6.i.i = invoke { ptr, ptr } @_ZNSt8_Rb_treeINSt7__cxx1112basic_stringIcSt11char_traitsIcESaIcEEESt4pairIKS5_N9grpc_core4Rbac6PolicyEESt10_Select1stISB_ESt4lessIS5_ESaISB_EE29_M_get_insert_hint_unique_posESt23_Rb_tree_const_iteratorISB_ERS7_(ptr noundef nonnull align 8 dereferenceable(48) %policies8.i.i.i, ptr %__y.addr.0.lcssa.i.i.i12.i.i.i.i, ptr noundef nonnull align 8 dereferenceable(32) %_M_storage.i.i.i.i)
          to label %invoke.cont5.i.i unwind label %lpad.i24.i

invoke.cont5.i.i:                                 ; preds = %call.i.i.noexc.i
  %68 = extractvalue { ptr, ptr } %call6.i.i, 1
  %tobool.not.i.i = icmp eq ptr %68, null
  br i1 %tobool.not.i.i, label %if.then.i.i33.i, label %if.then.i25.i

if.then.i25.i:                                    ; preds = %invoke.cont5.i.i
  %69 = extractvalue { ptr, ptr } %call6.i.i, 0
  %cmp.not.i.i.i.i = icmp ne ptr %69, null
  %cmp2.i.i.i.i = icmp eq ptr %4, %68
  %or.cond.i.i.i.i = select i1 %cmp.not.i.i.i.i, i1 true, i1 %cmp2.i.i.i.i
  br i1 %or.cond.i.i.i.i, label %cleanup.thread.i.i, label %lor.rhs.i.i.i27.i

lor.rhs.i.i.i27.i:                                ; preds = %if.then.i25.i
  %_M_storage.i.i.i.i.i.i.i = getelementptr inbounds i8, ptr %68, i64 32
  %call.i.i.i.i.i28.i = invoke noundef i32 @_ZNKSt7__cxx1112basic_stringIcSt11char_traitsIcESaIcEE7compareERKS4_(ptr noundef nonnull align 8 dereferenceable(32) %_M_storage.i.i.i.i, ptr noundef nonnull align 8 dereferenceable(32) %_M_storage.i.i.i.i.i.i.i)
          to label %_ZNKSt4lessINSt7__cxx1112basic_stringIcSt11char_traitsIcESaIcEEEEclERKS5_S8_.exit.i.i.i30.i unwind label %terminate.lpad.i.i.i.i.i29.i

terminate.lpad.i.i.i.i.i29.i:                     ; preds = %lor.rhs.i.i.i27.i
  %70 = landingpad { ptr, i32 }
          catch ptr null
  %71 = extractvalue { ptr, i32 } %70, 0
  call void @__clang_call_terminate(ptr %71) #23
  unreachable

_ZNKSt4lessINSt7__cxx1112basic_stringIcSt11char_traitsIcESaIcEEEEclERKS5_S8_.exit.i.i.i30.i: ; preds = %lor.rhs.i.i.i27.i
  %cmp.i.i.i.i.i31.i = icmp slt i32 %call.i.i.i.i.i28.i, 0
  br label %cleanup.thread.i.i

cleanup.thread.i.i:                               ; preds = %_ZNKSt4lessINSt7__cxx1112basic_stringIcSt11char_traitsIcESaIcEEEEclERKS5_S8_.exit.i.i.i30.i, %if.then.i25.i
  %72 = phi i1 [ true, %if.then.i25.i ], [ %cmp.i.i.i.i.i31.i, %_ZNKSt4lessINSt7__cxx1112basic_stringIcSt11char_traitsIcESaIcEEEEclERKS5_S8_.exit.i.i.i30.i ]
  call void @_ZSt29_Rb_tree_insert_and_rebalancebPSt18_Rb_tree_node_baseS0_RS_(i1 noundef zeroext %72, ptr noundef nonnull %call5.i.i.i.i44.i, ptr noundef nonnull %68, ptr noundef nonnull align 8 dereferenceable(32) %4) #22
  %73 = load i64, ptr %_M_node_count.i.i.i.i.i.i.i.i.i, align 8, !noalias !7
  %inc.i.i.i.i = add i64 %73, 1
  store i64 %inc.i.i.i.i, ptr %_M_node_count.i.i.i.i.i.i.i.i.i, align 8, !noalias !7
  br label %_ZNSt8_Rb_treeINSt7__cxx1112basic_stringIcSt11char_traitsIcESaIcEEESt4pairIKS5_N9grpc_core4Rbac6PolicyEESt10_Select1stISB_ESt4lessIS5_ESaISB_EE22_M_emplace_hint_uniqueIJRS7_SA_EEESt17_Rb_tree_iteratorISB_ESt23_Rb_tree_const_iteratorISB_EDpOT_.exit.i

lpad.i24.i:                                       ; preds = %call.i.i.noexc.i
  %74 = landingpad { ptr, i32 }
          cleanup
  call void @_ZNSt8_Rb_treeINSt7__cxx1112basic_stringIcSt11char_traitsIcESaIcEEESt4pairIKS5_N9grpc_core4Rbac6PolicyEESt10_Select1stISB_ESt4lessIS5_ESaISB_EE10_Auto_nodeD2Ev(ptr noundef nonnull align 8 dereferenceable(16) %__z.i.i) #22
  br label %ehcleanup.i.i.i

if.then.i.i33.i:                                  ; preds = %invoke.cont5.i.i
  %principals.i.i.i.i.i.i.i.i.i = getelementptr inbounds i8, ptr %call5.i.i.i.i44.i, i64 328
  call void @_ZN9grpc_core4Rbac9PrincipalD2Ev(ptr noundef nonnull align 8 dereferenceable(257) %principals.i.i.i.i.i.i.i.i.i) #22
  call void @_ZN9grpc_core4Rbac10PermissionD2Ev(ptr noundef nonnull align 8 dereferenceable(257) %second.i.i.i.i.i.i) #22
  call void @_ZNSt7__cxx1112basic_stringIcSt11char_traitsIcESaIcEED1Ev(ptr noundef nonnull align 8 dereferenceable(32) %_M_storage.i.i.i.i) #22
  call void @_ZdlPv(ptr noundef nonnull %call5.i.i.i.i44.i) #24
  br label %_ZNSt8_Rb_treeINSt7__cxx1112basic_stringIcSt11char_traitsIcESaIcEEESt4pairIKS5_N9grpc_core4Rbac6PolicyEESt10_Select1stISB_ESt4lessIS5_ESaISB_EE22_M_emplace_hint_uniqueIJRS7_SA_EEESt17_Rb_tree_iteratorISB_ESt23_Rb_tree_const_iteratorISB_EDpOT_.exit.i

_ZNSt8_Rb_treeINSt7__cxx1112basic_stringIcSt11char_traitsIcESaIcEEESt4pairIKS5_N9grpc_core4Rbac6PolicyEESt10_Select1stISB_ESt4lessIS5_ESaISB_EE22_M_emplace_hint_uniqueIJRS7_SA_EEESt17_Rb_tree_iteratorISB_ESt23_Rb_tree_const_iteratorISB_EDpOT_.exit.i: ; preds = %if.then.i.i33.i, %cleanup.thread.i.i
  call void @llvm.lifetime.end.p0(i64 16, ptr nonnull %__z.i.i), !noalias !7
  br label %invoke.cont10.i.i.i

invoke.cont10.i.i.i:                              ; preds = %_ZNSt8_Rb_treeINSt7__cxx1112basic_stringIcSt11char_traitsIcESaIcEEESt4pairIKS5_N9grpc_core4Rbac6PolicyEESt10_Select1stISB_ESt4lessIS5_ESaISB_EE22_M_emplace_hint_uniqueIJRS7_SA_EEESt17_Rb_tree_iteratorISB_ESt23_Rb_tree_const_iteratorISB_EDpOT_.exit.i, %_ZNKSt4lessINSt7__cxx1112basic_stringIcSt11char_traitsIcESaIcEEEEclERKS5_S8_.exit.i.i.i.i
  call void @_ZN9grpc_core4Rbac9PrincipalD2Ev(ptr noundef nonnull align 8 dereferenceable(257) %principals.i.i.i.i.i) #22
  call void @_ZN9grpc_core4Rbac10PermissionD2Ev(ptr noundef nonnull align 8 dereferenceable(257) %ref.tmp.i.i.i) #22
  %call.i10.i.i.i = call noundef ptr @_ZSt18_Rb_tree_incrementPSt18_Rb_tree_node_base(ptr noundef %__begin2.sroa.0.036.i.i.i) #25
  %cmp.i.not.i.i.i = icmp eq ptr %call.i10.i.i.i, %add.ptr.i.i.i.i.i
  br i1 %cmp.i.not.i.i.i, label %for.end.loopexit.i.i.i, label %for.body.i.i.i

lpad9.i.i.i:                                      ; preds = %if.then.i.i.i.i
  %75 = landingpad { ptr, i32 }
          cleanup
  br label %ehcleanup.i.i.i

for.end.loopexit.i.i.i:                           ; preds = %invoke.cont10.i.i.i
  %.pre.i.i.i = load ptr, ptr %logger_configs.i.i.i.i, align 8, !alias.scope !17, !noalias !7
  %.pre37.i.i.i = load ptr, ptr %_M_finish.i.i.i.i12.phi.trans.insert.i.i.i, align 8, !alias.scope !17, !noalias !7
  br label %for.end.i.i.i

for.end.i.i.i:                                    ; preds = %for.end.loopexit.i.i.i, %if.end.i9.i
  %76 = phi ptr [ %.pre37.i.i.i, %for.end.loopexit.i.i.i ], [ null, %if.end.i9.i ]
  %77 = phi ptr [ %.pre.i.i.i, %for.end.loopexit.i.i.i ], [ null, %if.end.i9.i ]
  %logger_configs.i.i.i = getelementptr inbounds i8, ptr %__begin2.sroa.0.070.i, i64 64
  %78 = load <2 x ptr>, ptr %logger_configs.i.i.i, align 8, !noalias !17
  store <2 x ptr> %78, ptr %logger_configs.i.i.i.i, align 8, !alias.scope !17, !noalias !7
  %_M_end_of_storage.i4.i.i.i.i.i.i = getelementptr inbounds i8, ptr %__begin2.sroa.0.070.i, i64 80
  %79 = load ptr, ptr %_M_end_of_storage.i4.i.i.i.i.i.i, align 8, !noalias !17
  store ptr %79, ptr %_M_end_of_storage.i.i.i.i13.i.i.i, align 8, !alias.scope !17, !noalias !7
  %cmp.not3.i.i.i.i.i.i.i.i.i = icmp eq ptr %77, %76
  call void @llvm.memset.p0.i64(ptr noundef nonnull align 8 dereferenceable(24) %logger_configs.i.i.i, i8 0, i64 24, i1 false), !noalias !17
  br i1 %cmp.not3.i.i.i.i.i.i.i.i.i, label %invoke.cont.i.i.i.i.i.i, label %for.body.i.i.i.i.i.i.i.i.i

for.body.i.i.i.i.i.i.i.i.i:                       ; preds = %for.end.i.i.i, %_ZSt8_DestroyISt10unique_ptrIN9grpc_core12experimental18AuditLoggerFactory6ConfigESt14default_deleteIS4_EEEvPT_.exit.i.i.i.i.i.i.i.i.i
  %__first.addr.04.i.i.i.i.i.i.i.i.i = phi ptr [ %incdec.ptr.i.i.i.i.i.i.i.i.i, %_ZSt8_DestroyISt10unique_ptrIN9grpc_core12experimental18AuditLoggerFactory6ConfigESt14default_deleteIS4_EEEvPT_.exit.i.i.i.i.i.i.i.i.i ], [ %77, %for.end.i.i.i ]
  %80 = load ptr, ptr %__first.addr.04.i.i.i.i.i.i.i.i.i, align 8
  %cmp.not.i.i.i.i.i.i.i.i14.i.i.i = icmp eq ptr %80, null
  br i1 %cmp.not.i.i.i.i.i.i.i.i14.i.i.i, label %_ZSt8_DestroyISt10unique_ptrIN9grpc_core12experimental18AuditLoggerFactory6ConfigESt14default_deleteIS4_EEEvPT_.exit.i.i.i.i.i.i.i.i.i, label %_ZNKSt14default_deleteIN9grpc_core12experimental18AuditLoggerFactory6ConfigEEclEPS3_.exit.i.i.i.i.i.i.i.i.i.i.i

_ZNKSt14default_deleteIN9grpc_core12experimental18AuditLoggerFactory6ConfigEEclEPS3_.exit.i.i.i.i.i.i.i.i.i.i.i: ; preds = %for.body.i.i.i.i.i.i.i.i.i
  %vtable.i.i.i.i.i.i.i.i.i.i.i.i = load ptr, ptr %80, align 8
  %vfn.i.i.i.i.i.i.i.i.i.i.i.i = getelementptr inbounds i8, ptr %vtable.i.i.i.i.i.i.i.i.i.i.i.i, i64 8
  %81 = load ptr, ptr %vfn.i.i.i.i.i.i.i.i.i.i.i.i, align 8
  call void %81(ptr noundef nonnull align 8 dereferenceable(8) %80) #22
  br label %_ZSt8_DestroyISt10unique_ptrIN9grpc_core12experimental18AuditLoggerFactory6ConfigESt14default_deleteIS4_EEEvPT_.exit.i.i.i.i.i.i.i.i.i

_ZSt8_DestroyISt10unique_ptrIN9grpc_core12experimental18AuditLoggerFactory6ConfigESt14default_deleteIS4_EEEvPT_.exit.i.i.i.i.i.i.i.i.i: ; preds = %_ZNKSt14default_deleteIN9grpc_core12experimental18AuditLoggerFactory6ConfigEEclEPS3_.exit.i.i.i.i.i.i.i.i.i.i.i, %for.body.i.i.i.i.i.i.i.i.i
  store ptr null, ptr %__first.addr.04.i.i.i.i.i.i.i.i.i, align 8
  %incdec.ptr.i.i.i.i.i.i.i.i.i = getelementptr inbounds i8, ptr %__first.addr.04.i.i.i.i.i.i.i.i.i, i64 8
  %cmp.not.i.i.i.i.i.i.i.i.i = icmp eq ptr %incdec.ptr.i.i.i.i.i.i.i.i.i, %76
  br i1 %cmp.not.i.i.i.i.i.i.i.i.i, label %invoke.cont.i.i.i.i.i.i, label %for.body.i.i.i.i.i.i.i.i.i, !llvm.loop !47

invoke.cont.i.i.i.i.i.i:                          ; preds = %_ZSt8_DestroyISt10unique_ptrIN9grpc_core12experimental18AuditLoggerFactory6ConfigESt14default_deleteIS4_EEEvPT_.exit.i.i.i.i.i.i.i.i.i, %for.end.i.i.i
  %tobool.not.i.i.i.i.i.i.i.i = icmp eq ptr %77, null
  br i1 %tobool.not.i.i.i.i.i.i.i.i, label %_ZN9grpc_core12_GLOBAL__N_110RbacConfig10RbacPolicy5Rules10TakeAsRbacEv.exit.i.i, label %if.then.i.i.i.i.i.i.i.i

if.then.i.i.i.i.i.i.i.i:                          ; preds = %invoke.cont.i.i.i.i.i.i
  call void @_ZdlPv(ptr noundef nonnull %77) #24
  br label %_ZN9grpc_core12_GLOBAL__N_110RbacConfig10RbacPolicy5Rules10TakeAsRbacEv.exit.i.i

ehcleanup.i.i.i:                                  ; preds = %lpad9.i.i.i, %lpad.i24.i, %lpad5.i.i.i, %ehcleanup16.i.i.i.i, %ehcleanup.i.i.i.i
  %.pn.i.i.i = phi { ptr, i32 } [ %.pn2.i.i.i.i, %ehcleanup16.i.i.i.i ], [ %.pn.i.i.i.i, %ehcleanup.i.i.i.i ], [ %74, %lpad.i24.i ], [ %75, %lpad9.i.i.i ], [ %65, %lpad5.i.i.i ]
  call void @_ZN9grpc_core4Rbac9PrincipalD2Ev(ptr noundef nonnull align 8 dereferenceable(257) %principals.i.i.i.i.i) #22
  call void @_ZN9grpc_core4Rbac10PermissionD2Ev(ptr noundef nonnull align 8 dereferenceable(257) %ref.tmp.i.i.i) #22
  call void @_ZN9grpc_core4RbacD2Ev(ptr noundef nonnull align 8 dereferenceable(120) %ref.tmp.i) #22
  br label %ehcleanup

_ZN9grpc_core12_GLOBAL__N_110RbacConfig10RbacPolicy5Rules10TakeAsRbacEv.exit.i.i: ; preds = %if.then.i.i.i.i.i.i.i.i, %invoke.cont.i.i.i.i.i.i
  call void @llvm.lifetime.end.p0(i64 528, ptr nonnull %ref.tmp.i.i.i), !noalias !13
  br label %invoke.cont8.i

invoke.cont8.i:                                   ; preds = %_ZN9grpc_core12_GLOBAL__N_110RbacConfig10RbacPolicy5Rules10TakeAsRbacEv.exit.i.i, %_ZNSt3mapINSt7__cxx1112basic_stringIcSt11char_traitsIcESaIcEEEN9grpc_core4Rbac6PolicyESt4lessIS5_ESaISt4pairIKS5_S8_EEED2Ev.exit.i.i
  call void @llvm.lifetime.end.p0(i64 32, ptr nonnull %agg.tmp.i.i), !noalias !7
  call void @llvm.lifetime.end.p0(i64 1, ptr nonnull %ref.tmp.i.i), !noalias !7
  call void @llvm.lifetime.end.p0(i64 48, ptr nonnull %agg.tmp2.i.i), !noalias !7
  %82 = load ptr, ptr %_M_finish.i.i, align 8, !alias.scope !7
  %83 = load ptr, ptr %_M_end_of_storage.i.i.i, align 8, !alias.scope !7
  %cmp.not.i.i = icmp eq ptr %82, %83
  br i1 %cmp.not.i.i, label %if.else.i.i, label %if.then.i11.i

if.then.i11.i:                                    ; preds = %invoke.cont8.i
  call void @_ZN9grpc_core4RbacC1EOS0_(ptr noundef nonnull align 8 dereferenceable(120) %82, ptr noundef nonnull align 8 dereferenceable(120) %ref.tmp.i) #22
  %84 = load ptr, ptr %_M_finish.i.i, align 8, !alias.scope !7
  %incdec.ptr.i.i = getelementptr inbounds i8, ptr %84, i64 120
  store ptr %incdec.ptr.i.i, ptr %_M_finish.i.i, align 8, !alias.scope !7
  br label %invoke.cont10.i

if.else.i.i:                                      ; preds = %invoke.cont8.i
  invoke void @_ZNSt6vectorIN9grpc_core4RbacESaIS1_EE17_M_realloc_insertIJS1_EEEvN9__gnu_cxx17__normal_iteratorIPS1_S3_EEDpOT_(ptr noundef nonnull align 8 dereferenceable(24) %rbac_policies, ptr %82, ptr noundef nonnull align 8 dereferenceable(120) %ref.tmp.i)
          to label %invoke.cont10.i unwind label %lpad9.i

invoke.cont10.i:                                  ; preds = %if.else.i.i, %if.then.i11.i
  %85 = load ptr, ptr %logger_configs.i.i.i.i, align 8, !noalias !7
  %86 = load ptr, ptr %_M_finish.i.i.i.i12.phi.trans.insert.i.i.i, align 8, !noalias !7
  %cmp.not3.i.i.i.i.i.i = icmp eq ptr %85, %86
  br i1 %cmp.not3.i.i.i.i.i.i, label %invoke.cont.i.i18.i, label %for.body.i.i.i.i.i.i

for.body.i.i.i.i.i.i:                             ; preds = %invoke.cont10.i, %_ZSt8_DestroyISt10unique_ptrIN9grpc_core12experimental18AuditLoggerFactory6ConfigESt14default_deleteIS4_EEEvPT_.exit.i.i.i.i.i.i
  %__first.addr.04.i.i.i.i.i.i = phi ptr [ %incdec.ptr.i.i.i.i.i16.i, %_ZSt8_DestroyISt10unique_ptrIN9grpc_core12experimental18AuditLoggerFactory6ConfigESt14default_deleteIS4_EEEvPT_.exit.i.i.i.i.i.i ], [ %85, %invoke.cont10.i ]
  %87 = load ptr, ptr %__first.addr.04.i.i.i.i.i.i, align 8
  %cmp.not.i.i.i.i.i.i.i15.i = icmp eq ptr %87, null
  br i1 %cmp.not.i.i.i.i.i.i.i15.i, label %_ZSt8_DestroyISt10unique_ptrIN9grpc_core12experimental18AuditLoggerFactory6ConfigESt14default_deleteIS4_EEEvPT_.exit.i.i.i.i.i.i, label %_ZNKSt14default_deleteIN9grpc_core12experimental18AuditLoggerFactory6ConfigEEclEPS3_.exit.i.i.i.i.i.i.i.i

_ZNKSt14default_deleteIN9grpc_core12experimental18AuditLoggerFactory6ConfigEEclEPS3_.exit.i.i.i.i.i.i.i.i: ; preds = %for.body.i.i.i.i.i.i
  %vtable.i.i.i.i.i.i.i.i.i = load ptr, ptr %87, align 8
  %vfn.i.i.i.i.i.i.i.i.i = getelementptr inbounds i8, ptr %vtable.i.i.i.i.i.i.i.i.i, i64 8
  %88 = load ptr, ptr %vfn.i.i.i.i.i.i.i.i.i, align 8
  call void %88(ptr noundef nonnull align 8 dereferenceable(8) %87) #22
  br label %_ZSt8_DestroyISt10unique_ptrIN9grpc_core12experimental18AuditLoggerFactory6ConfigESt14default_deleteIS4_EEEvPT_.exit.i.i.i.i.i.i

_ZSt8_DestroyISt10unique_ptrIN9grpc_core12experimental18AuditLoggerFactory6ConfigESt14default_deleteIS4_EEEvPT_.exit.i.i.i.i.i.i: ; preds = %_ZNKSt14default_deleteIN9grpc_core12experimental18AuditLoggerFactory6ConfigEEclEPS3_.exit.i.i.i.i.i.i.i.i, %for.body.i.i.i.i.i.i
  store ptr null, ptr %__first.addr.04.i.i.i.i.i.i, align 8
  %incdec.ptr.i.i.i.i.i16.i = getelementptr inbounds i8, ptr %__first.addr.04.i.i.i.i.i.i, i64 8
  %cmp.not.i.i.i.i.i17.i = icmp eq ptr %incdec.ptr.i.i.i.i.i16.i, %86
  br i1 %cmp.not.i.i.i.i.i17.i, label %invoke.contthread-pre-split.i.i.i, label %for.body.i.i.i.i.i.i, !llvm.loop !47

invoke.contthread-pre-split.i.i.i:                ; preds = %_ZSt8_DestroyISt10unique_ptrIN9grpc_core12experimental18AuditLoggerFactory6ConfigESt14default_deleteIS4_EEEvPT_.exit.i.i.i.i.i.i
  %.pr.i.i.i = load ptr, ptr %logger_configs.i.i.i.i, align 8, !noalias !7
  br label %invoke.cont.i.i18.i

invoke.cont.i.i18.i:                              ; preds = %invoke.contthread-pre-split.i.i.i, %invoke.cont10.i
  %89 = phi ptr [ %.pr.i.i.i, %invoke.contthread-pre-split.i.i.i ], [ %85, %invoke.cont10.i ]
  %tobool.not.i.i.i.i.i = icmp eq ptr %89, null
  br i1 %tobool.not.i.i.i.i.i, label %_ZNSt6vectorISt10unique_ptrIN9grpc_core12experimental18AuditLoggerFactory6ConfigESt14default_deleteIS4_EESaIS7_EED2Ev.exit.i.i, label %if.then.i.i.i.i.i

if.then.i.i.i.i.i:                                ; preds = %invoke.cont.i.i18.i
  call void @_ZdlPv(ptr noundef nonnull %89) #24
  br label %_ZNSt6vectorISt10unique_ptrIN9grpc_core12experimental18AuditLoggerFactory6ConfigESt14default_deleteIS4_EESaIS7_EED2Ev.exit.i.i

_ZNSt6vectorISt10unique_ptrIN9grpc_core12experimental18AuditLoggerFactory6ConfigESt14default_deleteIS4_EESaIS7_EED2Ev.exit.i.i: ; preds = %if.then.i.i.i.i.i, %invoke.cont.i.i18.i
  %90 = load ptr, ptr %_M_parent.i.i.i.i.i.i.i.i.i, align 8, !noalias !7
  invoke void @_ZNSt8_Rb_treeINSt7__cxx1112basic_stringIcSt11char_traitsIcESaIcEEESt4pairIKS5_N9grpc_core4Rbac6PolicyEESt10_Select1stISB_ESt4lessIS5_ESaISB_EE8_M_eraseEPSt13_Rb_tree_nodeISB_E(ptr noundef nonnull align 8 dereferenceable(48) %policies8.i.i.i, ptr noundef %90)
          to label %_ZN9grpc_core4RbacD2Ev.exit.i unwind label %terminate.lpad.i.i.i19.i

terminate.lpad.i.i.i19.i:                         ; preds = %_ZNSt6vectorISt10unique_ptrIN9grpc_core12experimental18AuditLoggerFactory6ConfigESt14default_deleteIS4_EESaIS7_EED2Ev.exit.i.i
  %91 = landingpad { ptr, i32 }
          catch ptr null
  %92 = extractvalue { ptr, i32 } %91, 0
  call void @__clang_call_terminate(ptr %92) #23
  unreachable

_ZN9grpc_core4RbacD2Ev.exit.i:                    ; preds = %_ZNSt6vectorISt10unique_ptrIN9grpc_core12experimental18AuditLoggerFactory6ConfigESt14default_deleteIS4_EESaIS7_EED2Ev.exit.i.i
  call void @_ZNSt7__cxx1112basic_stringIcSt11char_traitsIcESaIcEED1Ev(ptr noundef nonnull align 8 dereferenceable(32) %ref.tmp.i) #22
  %incdec.ptr.i21.i = getelementptr inbounds i8, ptr %__begin2.sroa.0.070.i, i64 96
  %cmp.i8.not.i = icmp eq ptr %incdec.ptr.i21.i, %this.val3.i
  br i1 %cmp.i8.not.i, label %invoke.cont8, label %for.body.i

lpad.i4:                                          ; preds = %_ZNSt12_Vector_baseIN9grpc_core4RbacESaIS1_EE11_M_allocateEm.exit.i.i, %if.then.i.i
  %93 = landingpad { ptr, i32 }
          cleanup
  br label %ehcleanup

lpad9.i:                                          ; preds = %if.else.i.i
  %94 = landingpad { ptr, i32 }
          cleanup
  call void @_ZN9grpc_core4RbacD2Ev(ptr noundef nonnull align 8 dereferenceable(120) %ref.tmp.i) #22
  br label %ehcleanup

invoke.cont8.thread:                              ; preds = %invoke.cont.i, %if.end.i.i
  call void @llvm.lifetime.end.p0(i64 120, ptr nonnull %ref.tmp.i)
  br label %if.then10

invoke.cont8:                                     ; preds = %_ZN9grpc_core4RbacD2Ev.exit.i
  %.pre = load ptr, ptr %rbac_policies, align 8
  %.pre25 = load ptr, ptr %_M_finish.i.i, align 8
  call void @llvm.lifetime.end.p0(i64 120, ptr nonnull %ref.tmp.i)
  %cmp.i.i7 = icmp eq ptr %.pre, %.pre25
  br i1 %cmp.i.i7, label %if.then10, label %if.end11

if.then10:                                        ; preds = %invoke.cont8.thread, %invoke.cont8
  store ptr null, ptr %agg.result, align 8
  br label %cleanup

if.end11:                                         ; preds = %invoke.cont8
  invoke void @_ZSt11make_uniqueIN9grpc_core22RbacMethodParsedConfigEJSt6vectorINS0_4RbacESaIS3_EEEENSt8__detail9_MakeUniqIT_E15__single_objectEDpOT0_(ptr nonnull sret(%"class.std::unique_ptr.22") align 8 %ref.tmp12, ptr noundef nonnull align 8 dereferenceable(24) %rbac_policies)
          to label %_ZNSt10unique_ptrIN9grpc_core22RbacMethodParsedConfigESt14default_deleteIS1_EED2Ev.exit unwind label %lpad13

_ZNSt10unique_ptrIN9grpc_core22RbacMethodParsedConfigESt14default_deleteIS1_EED2Ev.exit: ; preds = %if.end11
  %95 = load ptr, ptr %ref.tmp12, align 8
  store ptr %95, ptr %agg.result, align 8
  store ptr null, ptr %ref.tmp12, align 8
  br label %cleanup

lpad13:                                           ; preds = %if.end11
  %96 = landingpad { ptr, i32 }
          cleanup
  br label %ehcleanup

cleanup:                                          ; preds = %_ZNSt10unique_ptrIN9grpc_core22RbacMethodParsedConfigESt14default_deleteIS1_EED2Ev.exit, %if.then10
  call void @_ZNSt6vectorIN9grpc_core4RbacESaIS1_EED2Ev(ptr noundef nonnull align 8 dereferenceable(24) %rbac_policies) #22
  %97 = load ptr, ptr %rbac_config, align 8
  %98 = load ptr, ptr %3, align 8
  %cmp.not3.i.i.i.i.i = icmp eq ptr %97, %98
  br i1 %cmp.not3.i.i.i.i.i, label %invoke.cont.i.i13, label %for.body.i.i.i.i.i10

for.body.i.i.i.i.i10:                             ; preds = %cleanup, %_ZSt8_DestroyIN9grpc_core12_GLOBAL__N_110RbacConfig10RbacPolicyEEvPT_.exit.i.i.i.i.i
  %__first.addr.04.i.i.i.i.i = phi ptr [ %incdec.ptr.i.i.i.i.i12, %_ZSt8_DestroyIN9grpc_core12_GLOBAL__N_110RbacConfig10RbacPolicyEEvPT_.exit.i.i.i.i.i ], [ %97, %cleanup ]
  %_M_engaged.i.i.i.i.i.i.i.i.i.i.i11 = getelementptr inbounds i8, ptr %__first.addr.04.i.i.i.i.i, i64 88
  %99 = load i8, ptr %_M_engaged.i.i.i.i.i.i.i.i.i.i.i11, align 8
  %100 = and i8 %99, 1
  %tobool.not.i.i.i.i.i.i.i.i.i.i.i = icmp eq i8 %100, 0
  br i1 %tobool.not.i.i.i.i.i.i.i.i.i.i.i, label %_ZSt8_DestroyIN9grpc_core12_GLOBAL__N_110RbacConfig10RbacPolicyEEvPT_.exit.i.i.i.i.i, label %if.then.i.i.i.i.i.i.i.i.i.i.i

if.then.i.i.i.i.i.i.i.i.i.i.i:                    ; preds = %for.body.i.i.i.i.i10
  store i8 0, ptr %_M_engaged.i.i.i.i.i.i.i.i.i.i.i11, align 8
  %logger_configs.i.i.i.i.i.i.i.i.i.i.i.i.i = getelementptr inbounds i8, ptr %__first.addr.04.i.i.i.i.i, i64 64
  %101 = load ptr, ptr %logger_configs.i.i.i.i.i.i.i.i.i.i.i.i.i, align 8
  %_M_finish.i.i.i.i.i.i.i.i.i.i.i.i.i.i = getelementptr inbounds i8, ptr %__first.addr.04.i.i.i.i.i, i64 72
  %102 = load ptr, ptr %_M_finish.i.i.i.i.i.i.i.i.i.i.i.i.i.i, align 8
  %cmp.not3.i.i.i.i.i.i.i.i.i.i.i.i.i.i.i.i.i = icmp eq ptr %101, %102
  br i1 %cmp.not3.i.i.i.i.i.i.i.i.i.i.i.i.i.i.i.i.i, label %invoke.cont.i.i.i.i.i.i.i.i.i.i.i.i.i.i, label %for.body.i.i.i.i.i.i.i.i.i.i.i.i.i.i.i.i.i

for.body.i.i.i.i.i.i.i.i.i.i.i.i.i.i.i.i.i:       ; preds = %if.then.i.i.i.i.i.i.i.i.i.i.i, %_ZSt8_DestroyISt10unique_ptrIN9grpc_core12experimental18AuditLoggerFactory6ConfigESt14default_deleteIS4_EEEvPT_.exit.i.i.i.i.i.i.i.i.i.i.i.i.i.i.i.i.i
  %__first.addr.04.i.i.i.i.i.i.i.i.i.i.i.i.i.i.i.i.i = phi ptr [ %incdec.ptr.i.i.i.i.i.i.i.i.i.i.i.i.i.i.i.i.i, %_ZSt8_DestroyISt10unique_ptrIN9grpc_core12experimental18AuditLoggerFactory6ConfigESt14default_deleteIS4_EEEvPT_.exit.i.i.i.i.i.i.i.i.i.i.i.i.i.i.i.i.i ], [ %101, %if.then.i.i.i.i.i.i.i.i.i.i.i ]
  %103 = load ptr, ptr %__first.addr.04.i.i.i.i.i.i.i.i.i.i.i.i.i.i.i.i.i, align 8
  %cmp.not.i.i.i.i.i.i.i.i.i.i.i.i.i.i.i.i.i.i.i = icmp eq ptr %103, null
  br i1 %cmp.not.i.i.i.i.i.i.i.i.i.i.i.i.i.i.i.i.i.i.i, label %_ZSt8_DestroyISt10unique_ptrIN9grpc_core12experimental18AuditLoggerFactory6ConfigESt14default_deleteIS4_EEEvPT_.exit.i.i.i.i.i.i.i.i.i.i.i.i.i.i.i.i.i, label %_ZNKSt14default_deleteIN9grpc_core12experimental18AuditLoggerFactory6ConfigEEclEPS3_.exit.i.i.i.i.i.i.i.i.i.i.i.i.i.i.i.i.i.i.i

_ZNKSt14default_deleteIN9grpc_core12experimental18AuditLoggerFactory6ConfigEEclEPS3_.exit.i.i.i.i.i.i.i.i.i.i.i.i.i.i.i.i.i.i.i: ; preds = %for.body.i.i.i.i.i.i.i.i.i.i.i.i.i.i.i.i.i
  %vtable.i.i.i.i.i.i.i.i.i.i.i.i.i.i.i.i.i.i.i.i = load ptr, ptr %103, align 8
  %vfn.i.i.i.i.i.i.i.i.i.i.i.i.i.i.i.i.i.i.i.i = getelementptr inbounds i8, ptr %vtable.i.i.i.i.i.i.i.i.i.i.i.i.i.i.i.i.i.i.i.i, i64 8
  %104 = load ptr, ptr %vfn.i.i.i.i.i.i.i.i.i.i.i.i.i.i.i.i.i.i.i.i, align 8
  call void %104(ptr noundef nonnull align 8 dereferenceable(8) %103) #22
  br label %_ZSt8_DestroyISt10unique_ptrIN9grpc_core12experimental18AuditLoggerFactory6ConfigESt14default_deleteIS4_EEEvPT_.exit.i.i.i.i.i.i.i.i.i.i.i.i.i.i.i.i.i

_ZSt8_DestroyISt10unique_ptrIN9grpc_core12experimental18AuditLoggerFactory6ConfigESt14default_deleteIS4_EEEvPT_.exit.i.i.i.i.i.i.i.i.i.i.i.i.i.i.i.i.i: ; preds = %_ZNKSt14default_deleteIN9grpc_core12experimental18AuditLoggerFactory6ConfigEEclEPS3_.exit.i.i.i.i.i.i.i.i.i.i.i.i.i.i.i.i.i.i.i, %for.body.i.i.i.i.i.i.i.i.i.i.i.i.i.i.i.i.i
  store ptr null, ptr %__first.addr.04.i.i.i.i.i.i.i.i.i.i.i.i.i.i.i.i.i, align 8
  %incdec.ptr.i.i.i.i.i.i.i.i.i.i.i.i.i.i.i.i.i = getelementptr inbounds i8, ptr %__first.addr.04.i.i.i.i.i.i.i.i.i.i.i.i.i.i.i.i.i, i64 8
  %cmp.not.i.i.i.i.i.i.i.i.i.i.i.i.i.i.i.i.i = icmp eq ptr %incdec.ptr.i.i.i.i.i.i.i.i.i.i.i.i.i.i.i.i.i, %102
  br i1 %cmp.not.i.i.i.i.i.i.i.i.i.i.i.i.i.i.i.i.i, label %invoke.contthread-pre-split.i.i.i.i.i.i.i.i.i.i.i.i.i.i, label %for.body.i.i.i.i.i.i.i.i.i.i.i.i.i.i.i.i.i, !llvm.loop !47

invoke.contthread-pre-split.i.i.i.i.i.i.i.i.i.i.i.i.i.i: ; preds = %_ZSt8_DestroyISt10unique_ptrIN9grpc_core12experimental18AuditLoggerFactory6ConfigESt14default_deleteIS4_EEEvPT_.exit.i.i.i.i.i.i.i.i.i.i.i.i.i.i.i.i.i
  %.pr.i.i.i.i.i.i.i.i.i.i.i.i.i.i = load ptr, ptr %logger_configs.i.i.i.i.i.i.i.i.i.i.i.i.i, align 8
  br label %invoke.cont.i.i.i.i.i.i.i.i.i.i.i.i.i.i

invoke.cont.i.i.i.i.i.i.i.i.i.i.i.i.i.i:          ; preds = %invoke.contthread-pre-split.i.i.i.i.i.i.i.i.i.i.i.i.i.i, %if.then.i.i.i.i.i.i.i.i.i.i.i
  %105 = phi ptr [ %.pr.i.i.i.i.i.i.i.i.i.i.i.i.i.i, %invoke.contthread-pre-split.i.i.i.i.i.i.i.i.i.i.i.i.i.i ], [ %101, %if.then.i.i.i.i.i.i.i.i.i.i.i ]
  %tobool.not.i.i.i.i.i.i.i.i.i.i.i.i.i.i.i.i = icmp eq ptr %105, null
  br i1 %tobool.not.i.i.i.i.i.i.i.i.i.i.i.i.i.i.i.i, label %_ZNSt22_Optional_payload_baseIN9grpc_core12_GLOBAL__N_110RbacConfig10RbacPolicy5RulesEE10_M_destroyEv.exit.i.i.i.i.i.i.i.i.i.i.i, label %if.then.i.i.i.i.i.i.i.i.i.i.i.i.i.i.i.i

if.then.i.i.i.i.i.i.i.i.i.i.i.i.i.i.i.i:          ; preds = %invoke.cont.i.i.i.i.i.i.i.i.i.i.i.i.i.i
  call void @_ZdlPv(ptr noundef nonnull %105) #24
  br label %_ZNSt22_Optional_payload_baseIN9grpc_core12_GLOBAL__N_110RbacConfig10RbacPolicy5RulesEE10_M_destroyEv.exit.i.i.i.i.i.i.i.i.i.i.i

_ZNSt22_Optional_payload_baseIN9grpc_core12_GLOBAL__N_110RbacConfig10RbacPolicy5RulesEE10_M_destroyEv.exit.i.i.i.i.i.i.i.i.i.i.i: ; preds = %if.then.i.i.i.i.i.i.i.i.i.i.i.i.i.i.i.i, %invoke.cont.i.i.i.i.i.i.i.i.i.i.i.i.i.i
  %106 = getelementptr inbounds i8, ptr %__first.addr.04.i.i.i.i.i, i64 24
  %this.val.i.i.i.i.i.i.i.i.i.i.i.i.i.i.i = load ptr, ptr %106, align 8
  call fastcc void @_ZNSt8_Rb_treeINSt7__cxx1112basic_stringIcSt11char_traitsIcESaIcEEESt4pairIKS5_N9grpc_core12_GLOBAL__N_110RbacConfig10RbacPolicy5Rules6PolicyEESt10_Select1stISE_ESt4lessIS5_ESaISE_EE8_M_eraseEPSt13_Rb_tree_nodeISE_E(ptr noundef %this.val.i.i.i.i.i.i.i.i.i.i.i.i.i.i.i)
  br label %_ZSt8_DestroyIN9grpc_core12_GLOBAL__N_110RbacConfig10RbacPolicyEEvPT_.exit.i.i.i.i.i

_ZSt8_DestroyIN9grpc_core12_GLOBAL__N_110RbacConfig10RbacPolicyEEvPT_.exit.i.i.i.i.i: ; preds = %_ZNSt22_Optional_payload_baseIN9grpc_core12_GLOBAL__N_110RbacConfig10RbacPolicy5RulesEE10_M_destroyEv.exit.i.i.i.i.i.i.i.i.i.i.i, %for.body.i.i.i.i.i10
  %incdec.ptr.i.i.i.i.i12 = getelementptr inbounds i8, ptr %__first.addr.04.i.i.i.i.i, i64 96
  %cmp.not.i.i.i.i.i = icmp eq ptr %incdec.ptr.i.i.i.i.i12, %98
  br i1 %cmp.not.i.i.i.i.i, label %invoke.contthread-pre-split.i.i, label %for.body.i.i.i.i.i10, !llvm.loop !48

invoke.contthread-pre-split.i.i:                  ; preds = %_ZSt8_DestroyIN9grpc_core12_GLOBAL__N_110RbacConfig10RbacPolicyEEvPT_.exit.i.i.i.i.i
  %this.val.pr.i.i = load ptr, ptr %rbac_config, align 8
  br label %invoke.cont.i.i13

invoke.cont.i.i13:                                ; preds = %invoke.contthread-pre-split.i.i, %cleanup
  %this.val.i.i14 = phi ptr [ %this.val.pr.i.i, %invoke.contthread-pre-split.i.i ], [ %97, %cleanup ]
  %tobool.not.i.i.i.i = icmp eq ptr %this.val.i.i14, null
  br i1 %tobool.not.i.i.i.i, label %return, label %if.then.i.i.i.i15

if.then.i.i.i.i15:                                ; preds = %invoke.cont.i.i13
  call void @_ZdlPv(ptr noundef nonnull %this.val.i.i14) #24
  br label %return

ehcleanup:                                        ; preds = %ehcleanup.i.i, %ehcleanup.i.i.i, %lpad.i4, %lpad9.i, %lpad13
  %.pn = phi { ptr, i32 } [ %96, %lpad13 ], [ %94, %lpad9.i ], [ %93, %lpad.i4 ], [ %.pn.i.i, %ehcleanup.i.i ], [ %.pn.i.i.i, %ehcleanup.i.i.i ]
  call void @_ZNSt6vectorIN9grpc_core4RbacESaIS1_EED2Ev(ptr noundef nonnull align 8 dereferenceable(24) %rbac_policies) #22
  br label %eh.resume

return:                                           ; preds = %if.then.i.i.i.i15, %invoke.cont.i.i13, %if.then
  ret void

eh.resume:                                        ; preds = %lpad.i, %ehcleanup
  %.pn.pn = phi { ptr, i32 } [ %.pn, %ehcleanup ], [ %2, %lpad.i ]
  call fastcc void @_ZN9grpc_core12_GLOBAL__N_110RbacConfigD2Ev(ptr noundef nonnull align 8 dereferenceable(24) %rbac_config) #22
  resume { ptr, i32 } %.pn.pn
}

declare i16 @_ZNK9grpc_core11ChannelArgs7GetBoolESt17basic_string_viewIcSt11char_traitsIcEE(ptr noundef nonnull align 8 dereferenceable(8), i64, ptr) local_unnamed_addr #0

; Function Attrs: mustprogress nocallback nofree nounwind willreturn memory(argmem: write)
declare void @llvm.memset.p0.i64(ptr nocapture writeonly, i8, i64, i1 immarg) #4

declare i32 @__gxx_personality_v0(...)

; Function Attrs: mustprogress nounwind uwtable
define linkonce_odr void @_ZN9grpc_core8JsonArgsD2Ev(ptr noundef nonnull align 8 dereferenceable(8) %this) unnamed_addr #5 comdat align 2 {
entry:
  ret void
}

; Function Attrs: mustprogress uwtable
define linkonce_odr void @_ZSt11make_uniqueIN9grpc_core22RbacMethodParsedConfigEJSt6vectorINS0_4RbacESaIS3_EEEENSt8__detail9_MakeUniqIT_E15__single_objectEDpOT0_(ptr noalias sret(%"class.std::unique_ptr.22") align 8 %agg.result, ptr noundef nonnull align 8 dereferenceable(24) %__args) local_unnamed_addr #3 comdat personality ptr @__gxx_personality_v0 {
entry:
  %agg.tmp = alloca %"class.std::vector.17", align 8
  %call = tail call noalias noundef nonnull dereferenceable(32) ptr @_Znwm(i64 noundef 32) #21
  %0 = load ptr, ptr %__args, align 8
  store ptr %0, ptr %agg.tmp, align 8
  %_M_finish.i.i.i.i = getelementptr inbounds i8, ptr %agg.tmp, i64 8
  %_M_finish3.i.i.i.i = getelementptr inbounds i8, ptr %__args, i64 8
  %1 = load ptr, ptr %_M_finish3.i.i.i.i, align 8
  store ptr %1, ptr %_M_finish.i.i.i.i, align 8
  %_M_end_of_storage.i.i.i.i = getelementptr inbounds i8, ptr %agg.tmp, i64 16
  %_M_end_of_storage4.i.i.i.i = getelementptr inbounds i8, ptr %__args, i64 16
  %2 = load ptr, ptr %_M_end_of_storage4.i.i.i.i, align 8
  store ptr %2, ptr %_M_end_of_storage.i.i.i.i, align 8
  tail call void @llvm.memset.p0.i64(ptr noundef nonnull align 8 dereferenceable(24) %__args, i8 0, i64 24, i1 false)
  store ptr getelementptr inbounds ({ [4 x ptr] }, ptr @_ZTVN9grpc_core22RbacMethodParsedConfigE, i64 0, inrange i32 0, i64 2), ptr %call, align 8
  %authorization_engines_.i = getelementptr inbounds i8, ptr %call, i64 8
  tail call void @llvm.memset.p0.i64(ptr noundef nonnull align 8 dereferenceable(24) %authorization_engines_.i, i8 0, i64 24, i1 false)
  %cmp.i.not7.i = icmp eq ptr %0, %1
  br i1 %cmp.i.not7.i, label %invoke.cont, label %for.body.lr.ph.i

for.body.lr.ph.i:                                 ; preds = %entry
  %_M_finish.i2.i = getelementptr inbounds i8, ptr %call, i64 16
  %_M_end_of_storage.i.i = getelementptr inbounds i8, ptr %call, i64 24
  br label %for.body.i

for.body.i:                                       ; preds = %for.inc.i, %for.body.lr.ph.i
  %__begin2.sroa.0.08.i = phi ptr [ %0, %for.body.lr.ph.i ], [ %incdec.ptr.i4.i, %for.inc.i ]
  %3 = load ptr, ptr %_M_finish.i2.i, align 8
  %4 = load ptr, ptr %_M_end_of_storage.i.i, align 8
  %cmp.not.i.i = icmp eq ptr %3, %4
  br i1 %cmp.not.i.i, label %if.else.i.i, label %if.then.i.i

if.then.i.i:                                      ; preds = %for.body.i
  invoke void @_ZNSt15__new_allocatorIN9grpc_core23GrpcAuthorizationEngineEE9constructIS1_JNS0_4RbacEEEEvPT_DpOT0_(ptr noundef nonnull align 1 dereferenceable(1) %authorization_engines_.i, ptr noundef %3, ptr noundef nonnull align 8 dereferenceable(120) %__begin2.sroa.0.08.i)
          to label %.noexc.i unwind label %lpad.i

.noexc.i:                                         ; preds = %if.then.i.i
  %5 = load ptr, ptr %_M_finish.i2.i, align 8
  %incdec.ptr.i.i = getelementptr inbounds i8, ptr %5, i64 112
  store ptr %incdec.ptr.i.i, ptr %_M_finish.i2.i, align 8
  br label %for.inc.i

if.else.i.i:                                      ; preds = %for.body.i
  invoke void @_ZNSt6vectorIN9grpc_core23GrpcAuthorizationEngineESaIS1_EE17_M_realloc_insertIJNS0_4RbacEEEEvN9__gnu_cxx17__normal_iteratorIPS1_S3_EEDpOT_(ptr noundef nonnull align 8 dereferenceable(24) %authorization_engines_.i, ptr %3, ptr noundef nonnull align 8 dereferenceable(120) %__begin2.sroa.0.08.i)
          to label %for.inc.i unwind label %lpad.i

for.inc.i:                                        ; preds = %if.else.i.i, %.noexc.i
  %incdec.ptr.i4.i = getelementptr inbounds i8, ptr %__begin2.sroa.0.08.i, i64 120
  %cmp.i.not.i = icmp eq ptr %incdec.ptr.i4.i, %1
  br i1 %cmp.i.not.i, label %invoke.cont, label %for.body.i

lpad.i:                                           ; preds = %if.else.i.i, %if.then.i.i
  %6 = landingpad { ptr, i32 }
          cleanup
  tail call void @_ZNSt6vectorIN9grpc_core23GrpcAuthorizationEngineESaIS1_EED2Ev(ptr noundef nonnull align 8 dereferenceable(24) %authorization_engines_.i) #22
  call void @_ZNSt6vectorIN9grpc_core4RbacESaIS1_EED2Ev(ptr noundef nonnull align 8 dereferenceable(24) %agg.tmp) #22
  call void @_ZdlPv(ptr noundef nonnull %call) #24
  resume { ptr, i32 } %6

invoke.cont:                                      ; preds = %for.inc.i, %entry
  store ptr %call, ptr %agg.result, align 8
  call void @_ZNSt6vectorIN9grpc_core4RbacESaIS1_EED2Ev(ptr noundef nonnull align 8 dereferenceable(24) %agg.tmp) #22
  ret void
}

; Function Attrs: mustprogress nounwind uwtable
define linkonce_odr void @_ZNSt6vectorIN9grpc_core4RbacESaIS1_EED2Ev(ptr noundef nonnull align 8 dereferenceable(24) %this) unnamed_addr #5 comdat align 2 personality ptr @__gxx_personality_v0 {
entry:
  %0 = load ptr, ptr %this, align 8
  %_M_finish = getelementptr inbounds i8, ptr %this, i64 8
  %1 = load ptr, ptr %_M_finish, align 8
  %cmp.not3.i.i.i = icmp eq ptr %0, %1
  br i1 %cmp.not3.i.i.i, label %invoke.cont, label %for.body.i.i.i

for.body.i.i.i:                                   ; preds = %entry, %_ZSt8_DestroyIN9grpc_core4RbacEEvPT_.exit.i.i.i
  %__first.addr.04.i.i.i = phi ptr [ %incdec.ptr.i.i.i, %_ZSt8_DestroyIN9grpc_core4RbacEEvPT_.exit.i.i.i ], [ %0, %entry ]
  %logger_configs.i.i.i.i.i = getelementptr inbounds i8, ptr %__first.addr.04.i.i.i, i64 96
  %2 = load ptr, ptr %logger_configs.i.i.i.i.i, align 8
  %_M_finish.i.i.i.i.i.i = getelementptr inbounds i8, ptr %__first.addr.04.i.i.i, i64 104
  %3 = load ptr, ptr %_M_finish.i.i.i.i.i.i, align 8
  %cmp.not3.i.i.i.i.i.i.i.i.i = icmp eq ptr %2, %3
  br i1 %cmp.not3.i.i.i.i.i.i.i.i.i, label %invoke.cont.i.i.i.i.i.i, label %for.body.i.i.i.i.i.i.i.i.i

for.body.i.i.i.i.i.i.i.i.i:                       ; preds = %for.body.i.i.i, %_ZSt8_DestroyISt10unique_ptrIN9grpc_core12experimental18AuditLoggerFactory6ConfigESt14default_deleteIS4_EEEvPT_.exit.i.i.i.i.i.i.i.i.i
  %__first.addr.04.i.i.i.i.i.i.i.i.i = phi ptr [ %incdec.ptr.i.i.i.i.i.i.i.i.i, %_ZSt8_DestroyISt10unique_ptrIN9grpc_core12experimental18AuditLoggerFactory6ConfigESt14default_deleteIS4_EEEvPT_.exit.i.i.i.i.i.i.i.i.i ], [ %2, %for.body.i.i.i ]
  %4 = load ptr, ptr %__first.addr.04.i.i.i.i.i.i.i.i.i, align 8
  %cmp.not.i.i.i.i.i.i.i.i.i.i.i = icmp eq ptr %4, null
  br i1 %cmp.not.i.i.i.i.i.i.i.i.i.i.i, label %_ZSt8_DestroyISt10unique_ptrIN9grpc_core12experimental18AuditLoggerFactory6ConfigESt14default_deleteIS4_EEEvPT_.exit.i.i.i.i.i.i.i.i.i, label %_ZNKSt14default_deleteIN9grpc_core12experimental18AuditLoggerFactory6ConfigEEclEPS3_.exit.i.i.i.i.i.i.i.i.i.i.i

_ZNKSt14default_deleteIN9grpc_core12experimental18AuditLoggerFactory6ConfigEEclEPS3_.exit.i.i.i.i.i.i.i.i.i.i.i: ; preds = %for.body.i.i.i.i.i.i.i.i.i
  %vtable.i.i.i.i.i.i.i.i.i.i.i.i = load ptr, ptr %4, align 8
  %vfn.i.i.i.i.i.i.i.i.i.i.i.i = getelementptr inbounds i8, ptr %vtable.i.i.i.i.i.i.i.i.i.i.i.i, i64 8
  %5 = load ptr, ptr %vfn.i.i.i.i.i.i.i.i.i.i.i.i, align 8
  tail call void %5(ptr noundef nonnull align 8 dereferenceable(8) %4) #22
  br label %_ZSt8_DestroyISt10unique_ptrIN9grpc_core12experimental18AuditLoggerFactory6ConfigESt14default_deleteIS4_EEEvPT_.exit.i.i.i.i.i.i.i.i.i

_ZSt8_DestroyISt10unique_ptrIN9grpc_core12experimental18AuditLoggerFactory6ConfigESt14default_deleteIS4_EEEvPT_.exit.i.i.i.i.i.i.i.i.i: ; preds = %_ZNKSt14default_deleteIN9grpc_core12experimental18AuditLoggerFactory6ConfigEEclEPS3_.exit.i.i.i.i.i.i.i.i.i.i.i, %for.body.i.i.i.i.i.i.i.i.i
  store ptr null, ptr %__first.addr.04.i.i.i.i.i.i.i.i.i, align 8
  %incdec.ptr.i.i.i.i.i.i.i.i.i = getelementptr inbounds i8, ptr %__first.addr.04.i.i.i.i.i.i.i.i.i, i64 8
  %cmp.not.i.i.i.i.i.i.i.i.i = icmp eq ptr %incdec.ptr.i.i.i.i.i.i.i.i.i, %3
  br i1 %cmp.not.i.i.i.i.i.i.i.i.i, label %invoke.contthread-pre-split.i.i.i.i.i.i, label %for.body.i.i.i.i.i.i.i.i.i, !llvm.loop !47

invoke.contthread-pre-split.i.i.i.i.i.i:          ; preds = %_ZSt8_DestroyISt10unique_ptrIN9grpc_core12experimental18AuditLoggerFactory6ConfigESt14default_deleteIS4_EEEvPT_.exit.i.i.i.i.i.i.i.i.i
  %.pr.i.i.i.i.i.i = load ptr, ptr %logger_configs.i.i.i.i.i, align 8
  br label %invoke.cont.i.i.i.i.i.i

invoke.cont.i.i.i.i.i.i:                          ; preds = %invoke.contthread-pre-split.i.i.i.i.i.i, %for.body.i.i.i
  %6 = phi ptr [ %.pr.i.i.i.i.i.i, %invoke.contthread-pre-split.i.i.i.i.i.i ], [ %2, %for.body.i.i.i ]
  %tobool.not.i.i.i.i.i.i.i.i = icmp eq ptr %6, null
  br i1 %tobool.not.i.i.i.i.i.i.i.i, label %_ZNSt6vectorISt10unique_ptrIN9grpc_core12experimental18AuditLoggerFactory6ConfigESt14default_deleteIS4_EESaIS7_EED2Ev.exit.i.i.i.i.i, label %if.then.i.i.i.i.i.i.i.i

if.then.i.i.i.i.i.i.i.i:                          ; preds = %invoke.cont.i.i.i.i.i.i
  tail call void @_ZdlPv(ptr noundef nonnull %6) #24
  br label %_ZNSt6vectorISt10unique_ptrIN9grpc_core12experimental18AuditLoggerFactory6ConfigESt14default_deleteIS4_EESaIS7_EED2Ev.exit.i.i.i.i.i

_ZNSt6vectorISt10unique_ptrIN9grpc_core12experimental18AuditLoggerFactory6ConfigESt14default_deleteIS4_EESaIS7_EED2Ev.exit.i.i.i.i.i: ; preds = %if.then.i.i.i.i.i.i.i.i, %invoke.cont.i.i.i.i.i.i
  %policies.i.i.i.i.i = getelementptr inbounds i8, ptr %__first.addr.04.i.i.i, i64 40
  %_M_parent.i.i.i.i.i.i.i.i.i = getelementptr inbounds i8, ptr %__first.addr.04.i.i.i, i64 56
  %7 = load ptr, ptr %_M_parent.i.i.i.i.i.i.i.i.i, align 8
  invoke void @_ZNSt8_Rb_treeINSt7__cxx1112basic_stringIcSt11char_traitsIcESaIcEEESt4pairIKS5_N9grpc_core4Rbac6PolicyEESt10_Select1stISB_ESt4lessIS5_ESaISB_EE8_M_eraseEPSt13_Rb_tree_nodeISB_E(ptr noundef nonnull align 8 dereferenceable(48) %policies.i.i.i.i.i, ptr noundef %7)
          to label %_ZSt8_DestroyIN9grpc_core4RbacEEvPT_.exit.i.i.i unwind label %terminate.lpad.i.i.i.i.i.i.i

terminate.lpad.i.i.i.i.i.i.i:                     ; preds = %_ZNSt6vectorISt10unique_ptrIN9grpc_core12experimental18AuditLoggerFactory6ConfigESt14default_deleteIS4_EESaIS7_EED2Ev.exit.i.i.i.i.i
  %8 = landingpad { ptr, i32 }
          catch ptr null
  %9 = extractvalue { ptr, i32 } %8, 0
  tail call void @__clang_call_terminate(ptr %9) #23
  unreachable

_ZSt8_DestroyIN9grpc_core4RbacEEvPT_.exit.i.i.i:  ; preds = %_ZNSt6vectorISt10unique_ptrIN9grpc_core12experimental18AuditLoggerFactory6ConfigESt14default_deleteIS4_EESaIS7_EED2Ev.exit.i.i.i.i.i
  tail call void @_ZNSt7__cxx1112basic_stringIcSt11char_traitsIcESaIcEED1Ev(ptr noundef nonnull align 8 dereferenceable(32) %__first.addr.04.i.i.i) #22
  %incdec.ptr.i.i.i = getelementptr inbounds i8, ptr %__first.addr.04.i.i.i, i64 120
  %cmp.not.i.i.i = icmp eq ptr %incdec.ptr.i.i.i, %1
  br i1 %cmp.not.i.i.i, label %invoke.contthread-pre-split, label %for.body.i.i.i, !llvm.loop !49

invoke.contthread-pre-split:                      ; preds = %_ZSt8_DestroyIN9grpc_core4RbacEEvPT_.exit.i.i.i
  %.pr = load ptr, ptr %this, align 8
  br label %invoke.cont

invoke.cont:                                      ; preds = %invoke.contthread-pre-split, %entry
  %10 = phi ptr [ %.pr, %invoke.contthread-pre-split ], [ %0, %entry ]
  %tobool.not.i.i = icmp eq ptr %10, null
  br i1 %tobool.not.i.i, label %_ZNSt12_Vector_baseIN9grpc_core4RbacESaIS1_EED2Ev.exit, label %if.then.i.i

if.then.i.i:                                      ; preds = %invoke.cont
  tail call void @_ZdlPv(ptr noundef nonnull %10) #24
  br label %_ZNSt12_Vector_baseIN9grpc_core4RbacESaIS1_EED2Ev.exit

_ZNSt12_Vector_baseIN9grpc_core4RbacESaIS1_EED2Ev.exit: ; preds = %invoke.cont, %if.then.i.i
  ret void
}

; Function Attrs: mustprogress nounwind uwtable
define internal fastcc void @_ZN9grpc_core12_GLOBAL__N_110RbacConfigD2Ev(ptr nocapture noundef nonnull readonly align 8 dereferenceable(24) %this) unnamed_addr #5 align 2 personality ptr @__gxx_personality_v0 {
entry:
  %0 = load ptr, ptr %this, align 8
  %_M_finish.i = getelementptr inbounds i8, ptr %this, i64 8
  %1 = load ptr, ptr %_M_finish.i, align 8
  %cmp.not3.i.i.i.i = icmp eq ptr %0, %1
  br i1 %cmp.not3.i.i.i.i, label %invoke.cont.i, label %for.body.i.i.i.i

for.body.i.i.i.i:                                 ; preds = %entry, %_ZSt8_DestroyIN9grpc_core12_GLOBAL__N_110RbacConfig10RbacPolicyEEvPT_.exit.i.i.i.i
  %__first.addr.04.i.i.i.i = phi ptr [ %incdec.ptr.i.i.i.i, %_ZSt8_DestroyIN9grpc_core12_GLOBAL__N_110RbacConfig10RbacPolicyEEvPT_.exit.i.i.i.i ], [ %0, %entry ]
  %_M_engaged.i.i.i.i.i.i.i.i.i.i = getelementptr inbounds i8, ptr %__first.addr.04.i.i.i.i, i64 88
  %2 = load i8, ptr %_M_engaged.i.i.i.i.i.i.i.i.i.i, align 8
  %3 = and i8 %2, 1
  %tobool.not.i.i.i.i.i.i.i.i.i.i = icmp eq i8 %3, 0
  br i1 %tobool.not.i.i.i.i.i.i.i.i.i.i, label %_ZSt8_DestroyIN9grpc_core12_GLOBAL__N_110RbacConfig10RbacPolicyEEvPT_.exit.i.i.i.i, label %if.then.i.i.i.i.i.i.i.i.i.i

if.then.i.i.i.i.i.i.i.i.i.i:                      ; preds = %for.body.i.i.i.i
  store i8 0, ptr %_M_engaged.i.i.i.i.i.i.i.i.i.i, align 8
  %logger_configs.i.i.i.i.i.i.i.i.i.i.i.i = getelementptr inbounds i8, ptr %__first.addr.04.i.i.i.i, i64 64
  %4 = load ptr, ptr %logger_configs.i.i.i.i.i.i.i.i.i.i.i.i, align 8
  %_M_finish.i.i.i.i.i.i.i.i.i.i.i.i.i = getelementptr inbounds i8, ptr %__first.addr.04.i.i.i.i, i64 72
  %5 = load ptr, ptr %_M_finish.i.i.i.i.i.i.i.i.i.i.i.i.i, align 8
  %cmp.not3.i.i.i.i.i.i.i.i.i.i.i.i.i.i.i.i = icmp eq ptr %4, %5
  br i1 %cmp.not3.i.i.i.i.i.i.i.i.i.i.i.i.i.i.i.i, label %invoke.cont.i.i.i.i.i.i.i.i.i.i.i.i.i, label %for.body.i.i.i.i.i.i.i.i.i.i.i.i.i.i.i.i

for.body.i.i.i.i.i.i.i.i.i.i.i.i.i.i.i.i:         ; preds = %if.then.i.i.i.i.i.i.i.i.i.i, %_ZSt8_DestroyISt10unique_ptrIN9grpc_core12experimental18AuditLoggerFactory6ConfigESt14default_deleteIS4_EEEvPT_.exit.i.i.i.i.i.i.i.i.i.i.i.i.i.i.i.i
  %__first.addr.04.i.i.i.i.i.i.i.i.i.i.i.i.i.i.i.i = phi ptr [ %incdec.ptr.i.i.i.i.i.i.i.i.i.i.i.i.i.i.i.i, %_ZSt8_DestroyISt10unique_ptrIN9grpc_core12experimental18AuditLoggerFactory6ConfigESt14default_deleteIS4_EEEvPT_.exit.i.i.i.i.i.i.i.i.i.i.i.i.i.i.i.i ], [ %4, %if.then.i.i.i.i.i.i.i.i.i.i ]
  %6 = load ptr, ptr %__first.addr.04.i.i.i.i.i.i.i.i.i.i.i.i.i.i.i.i, align 8
  %cmp.not.i.i.i.i.i.i.i.i.i.i.i.i.i.i.i.i.i.i = icmp eq ptr %6, null
  br i1 %cmp.not.i.i.i.i.i.i.i.i.i.i.i.i.i.i.i.i.i.i, label %_ZSt8_DestroyISt10unique_ptrIN9grpc_core12experimental18AuditLoggerFactory6ConfigESt14default_deleteIS4_EEEvPT_.exit.i.i.i.i.i.i.i.i.i.i.i.i.i.i.i.i, label %_ZNKSt14default_deleteIN9grpc_core12experimental18AuditLoggerFactory6ConfigEEclEPS3_.exit.i.i.i.i.i.i.i.i.i.i.i.i.i.i.i.i.i.i

_ZNKSt14default_deleteIN9grpc_core12experimental18AuditLoggerFactory6ConfigEEclEPS3_.exit.i.i.i.i.i.i.i.i.i.i.i.i.i.i.i.i.i.i: ; preds = %for.body.i.i.i.i.i.i.i.i.i.i.i.i.i.i.i.i
  %vtable.i.i.i.i.i.i.i.i.i.i.i.i.i.i.i.i.i.i.i = load ptr, ptr %6, align 8
  %vfn.i.i.i.i.i.i.i.i.i.i.i.i.i.i.i.i.i.i.i = getelementptr inbounds i8, ptr %vtable.i.i.i.i.i.i.i.i.i.i.i.i.i.i.i.i.i.i.i, i64 8
  %7 = load ptr, ptr %vfn.i.i.i.i.i.i.i.i.i.i.i.i.i.i.i.i.i.i.i, align 8
  tail call void %7(ptr noundef nonnull align 8 dereferenceable(8) %6) #22
  br label %_ZSt8_DestroyISt10unique_ptrIN9grpc_core12experimental18AuditLoggerFactory6ConfigESt14default_deleteIS4_EEEvPT_.exit.i.i.i.i.i.i.i.i.i.i.i.i.i.i.i.i

_ZSt8_DestroyISt10unique_ptrIN9grpc_core12experimental18AuditLoggerFactory6ConfigESt14default_deleteIS4_EEEvPT_.exit.i.i.i.i.i.i.i.i.i.i.i.i.i.i.i.i: ; preds = %_ZNKSt14default_deleteIN9grpc_core12experimental18AuditLoggerFactory6ConfigEEclEPS3_.exit.i.i.i.i.i.i.i.i.i.i.i.i.i.i.i.i.i.i, %for.body.i.i.i.i.i.i.i.i.i.i.i.i.i.i.i.i
  store ptr null, ptr %__first.addr.04.i.i.i.i.i.i.i.i.i.i.i.i.i.i.i.i, align 8
  %incdec.ptr.i.i.i.i.i.i.i.i.i.i.i.i.i.i.i.i = getelementptr inbounds i8, ptr %__first.addr.04.i.i.i.i.i.i.i.i.i.i.i.i.i.i.i.i, i64 8
  %cmp.not.i.i.i.i.i.i.i.i.i.i.i.i.i.i.i.i = icmp eq ptr %incdec.ptr.i.i.i.i.i.i.i.i.i.i.i.i.i.i.i.i, %5
  br i1 %cmp.not.i.i.i.i.i.i.i.i.i.i.i.i.i.i.i.i, label %invoke.contthread-pre-split.i.i.i.i.i.i.i.i.i.i.i.i.i, label %for.body.i.i.i.i.i.i.i.i.i.i.i.i.i.i.i.i, !llvm.loop !47

invoke.contthread-pre-split.i.i.i.i.i.i.i.i.i.i.i.i.i: ; preds = %_ZSt8_DestroyISt10unique_ptrIN9grpc_core12experimental18AuditLoggerFactory6ConfigESt14default_deleteIS4_EEEvPT_.exit.i.i.i.i.i.i.i.i.i.i.i.i.i.i.i.i
  %.pr.i.i.i.i.i.i.i.i.i.i.i.i.i = load ptr, ptr %logger_configs.i.i.i.i.i.i.i.i.i.i.i.i, align 8
  br label %invoke.cont.i.i.i.i.i.i.i.i.i.i.i.i.i

invoke.cont.i.i.i.i.i.i.i.i.i.i.i.i.i:            ; preds = %invoke.contthread-pre-split.i.i.i.i.i.i.i.i.i.i.i.i.i, %if.then.i.i.i.i.i.i.i.i.i.i
  %8 = phi ptr [ %.pr.i.i.i.i.i.i.i.i.i.i.i.i.i, %invoke.contthread-pre-split.i.i.i.i.i.i.i.i.i.i.i.i.i ], [ %4, %if.then.i.i.i.i.i.i.i.i.i.i ]
  %tobool.not.i.i.i.i.i.i.i.i.i.i.i.i.i.i.i = icmp eq ptr %8, null
  br i1 %tobool.not.i.i.i.i.i.i.i.i.i.i.i.i.i.i.i, label %_ZNSt22_Optional_payload_baseIN9grpc_core12_GLOBAL__N_110RbacConfig10RbacPolicy5RulesEE10_M_destroyEv.exit.i.i.i.i.i.i.i.i.i.i, label %if.then.i.i.i.i.i.i.i.i.i.i.i.i.i.i.i

if.then.i.i.i.i.i.i.i.i.i.i.i.i.i.i.i:            ; preds = %invoke.cont.i.i.i.i.i.i.i.i.i.i.i.i.i
  tail call void @_ZdlPv(ptr noundef nonnull %8) #24
  br label %_ZNSt22_Optional_payload_baseIN9grpc_core12_GLOBAL__N_110RbacConfig10RbacPolicy5RulesEE10_M_destroyEv.exit.i.i.i.i.i.i.i.i.i.i

_ZNSt22_Optional_payload_baseIN9grpc_core12_GLOBAL__N_110RbacConfig10RbacPolicy5RulesEE10_M_destroyEv.exit.i.i.i.i.i.i.i.i.i.i: ; preds = %if.then.i.i.i.i.i.i.i.i.i.i.i.i.i.i.i, %invoke.cont.i.i.i.i.i.i.i.i.i.i.i.i.i
  %9 = getelementptr inbounds i8, ptr %__first.addr.04.i.i.i.i, i64 24
  %this.val.i.i.i.i.i.i.i.i.i.i.i.i.i.i = load ptr, ptr %9, align 8
  tail call fastcc void @_ZNSt8_Rb_treeINSt7__cxx1112basic_stringIcSt11char_traitsIcESaIcEEESt4pairIKS5_N9grpc_core12_GLOBAL__N_110RbacConfig10RbacPolicy5Rules6PolicyEESt10_Select1stISE_ESt4lessIS5_ESaISE_EE8_M_eraseEPSt13_Rb_tree_nodeISE_E(ptr noundef %this.val.i.i.i.i.i.i.i.i.i.i.i.i.i.i)
  br label %_ZSt8_DestroyIN9grpc_core12_GLOBAL__N_110RbacConfig10RbacPolicyEEvPT_.exit.i.i.i.i

_ZSt8_DestroyIN9grpc_core12_GLOBAL__N_110RbacConfig10RbacPolicyEEvPT_.exit.i.i.i.i: ; preds = %_ZNSt22_Optional_payload_baseIN9grpc_core12_GLOBAL__N_110RbacConfig10RbacPolicy5RulesEE10_M_destroyEv.exit.i.i.i.i.i.i.i.i.i.i, %for.body.i.i.i.i
  %incdec.ptr.i.i.i.i = getelementptr inbounds i8, ptr %__first.addr.04.i.i.i.i, i64 96
  %cmp.not.i.i.i.i = icmp eq ptr %incdec.ptr.i.i.i.i, %1
  br i1 %cmp.not.i.i.i.i, label %invoke.contthread-pre-split.i, label %for.body.i.i.i.i, !llvm.loop !48

invoke.contthread-pre-split.i:                    ; preds = %_ZSt8_DestroyIN9grpc_core12_GLOBAL__N_110RbacConfig10RbacPolicyEEvPT_.exit.i.i.i.i
  %this.val.pr.i = load ptr, ptr %this, align 8
  br label %invoke.cont.i

invoke.cont.i:                                    ; preds = %invoke.contthread-pre-split.i, %entry
  %this.val.i = phi ptr [ %this.val.pr.i, %invoke.contthread-pre-split.i ], [ %0, %entry ]
  %tobool.not.i.i.i = icmp eq ptr %this.val.i, null
  br i1 %tobool.not.i.i.i, label %_ZNSt6vectorIN9grpc_core12_GLOBAL__N_110RbacConfig10RbacPolicyESaIS3_EED2Ev.exit, label %if.then.i.i.i

if.then.i.i.i:                                    ; preds = %invoke.cont.i
  tail call void @_ZdlPv(ptr noundef nonnull %this.val.i) #24
  br label %_ZNSt6vectorIN9grpc_core12_GLOBAL__N_110RbacConfig10RbacPolicyESaIS3_EED2Ev.exit

_ZNSt6vectorIN9grpc_core12_GLOBAL__N_110RbacConfig10RbacPolicyESaIS3_EED2Ev.exit: ; preds = %invoke.cont.i, %if.then.i.i.i
  ret void
}

; Function Attrs: mustprogress uwtable
define void @_ZN9grpc_core23RbacServiceConfigParser8RegisterEPNS_17CoreConfiguration7BuilderE(ptr noundef %builder) local_unnamed_addr #3 align 2 personality ptr @__gxx_personality_v0 {
entry:
  %agg.tmp = alloca %"class.std::unique_ptr.76", align 8
  %service_config_parser_.i = getelementptr inbounds i8, ptr %builder, i64 656
  %call.i = tail call noalias noundef nonnull dereferenceable(8) ptr @_Znwm(i64 noundef 8) #21, !noalias !50
  store ptr getelementptr inbounds ({ [7 x ptr] }, ptr @_ZTVN9grpc_core23RbacServiceConfigParserE, i64 0, inrange i32 0, i64 2), ptr %call.i, align 8, !noalias !50
  store ptr %call.i, ptr %agg.tmp, align 8
  invoke void @_ZN9grpc_core19ServiceConfigParser7Builder14RegisterParserESt10unique_ptrINS0_6ParserESt14default_deleteIS3_EE(ptr noundef nonnull align 8 dereferenceable(24) %service_config_parser_.i, ptr noundef nonnull %agg.tmp)
          to label %invoke.cont unwind label %lpad

invoke.cont:                                      ; preds = %entry
  %0 = load ptr, ptr %agg.tmp, align 8
  %cmp.not.i = icmp eq ptr %0, null
  br i1 %cmp.not.i, label %_ZNSt10unique_ptrIN9grpc_core23RbacServiceConfigParserESt14default_deleteIS1_EED2Ev.exit, label %_ZNKSt14default_deleteIN9grpc_core19ServiceConfigParser6ParserEEclEPS2_.exit.i

_ZNKSt14default_deleteIN9grpc_core19ServiceConfigParser6ParserEEclEPS2_.exit.i: ; preds = %invoke.cont
  %vtable.i.i = load ptr, ptr %0, align 8
  %vfn.i.i = getelementptr inbounds i8, ptr %vtable.i.i, i64 8
  %1 = load ptr, ptr %vfn.i.i, align 8
  call void %1(ptr noundef nonnull align 8 dereferenceable(8) %0) #22
  br label %_ZNSt10unique_ptrIN9grpc_core23RbacServiceConfigParserESt14default_deleteIS1_EED2Ev.exit

_ZNSt10unique_ptrIN9grpc_core23RbacServiceConfigParserESt14default_deleteIS1_EED2Ev.exit: ; preds = %_ZNKSt14default_deleteIN9grpc_core19ServiceConfigParser6ParserEEclEPS2_.exit.i, %invoke.cont
  ret void

lpad:                                             ; preds = %entry
  %2 = landingpad { ptr, i32 }
          cleanup
  %3 = load ptr, ptr %agg.tmp, align 8
  %cmp.not.i4 = icmp eq ptr %3, null
  br i1 %cmp.not.i4, label %_ZNSt10unique_ptrIN9grpc_core23RbacServiceConfigParserESt14default_deleteIS1_EED2Ev.exit13, label %_ZNKSt14default_deleteIN9grpc_core19ServiceConfigParser6ParserEEclEPS2_.exit.i5

_ZNKSt14default_deleteIN9grpc_core19ServiceConfigParser6ParserEEclEPS2_.exit.i5: ; preds = %lpad
  %vtable.i.i6 = load ptr, ptr %3, align 8
  %vfn.i.i7 = getelementptr inbounds i8, ptr %vtable.i.i6, i64 8
  %4 = load ptr, ptr %vfn.i.i7, align 8
  call void %4(ptr noundef nonnull align 8 dereferenceable(8) %3) #22
  br label %_ZNSt10unique_ptrIN9grpc_core23RbacServiceConfigParserESt14default_deleteIS1_EED2Ev.exit13

_ZNSt10unique_ptrIN9grpc_core23RbacServiceConfigParserESt14default_deleteIS1_EED2Ev.exit13: ; preds = %_ZNKSt14default_deleteIN9grpc_core19ServiceConfigParser6ParserEEclEPS2_.exit.i5, %lpad
  resume { ptr, i32 } %2
}

declare void @_ZN9grpc_core19ServiceConfigParser7Builder14RegisterParserESt10unique_ptrINS0_6ParserESt14default_deleteIS3_EE(ptr noundef nonnull align 8 dereferenceable(24), ptr noundef) local_unnamed_addr #0

; Function Attrs: mustprogress uwtable
define noundef i64 @_ZN9grpc_core23RbacServiceConfigParser11ParserIndexEv() local_unnamed_addr #3 align 2 personality ptr @__gxx_personality_v0 {
entry:
  %0 = load atomic i64, ptr @_ZN9grpc_core17CoreConfiguration7config_E acquire, align 8
  %atomic-temp.i.0.i.i = inttoptr i64 %0 to ptr
  %cmp.not.i = icmp eq i64 %0, 0
  br i1 %cmp.not.i, label %if.end.i, label %_ZN9grpc_core17CoreConfiguration3GetEv.exit

if.end.i:                                         ; preds = %entry
  %call1.i = tail call noundef nonnull align 8 dereferenceable(776) ptr @_ZN9grpc_core17CoreConfiguration19BuildNewAndMaybeSetEv()
  br label %_ZN9grpc_core17CoreConfiguration3GetEv.exit

_ZN9grpc_core17CoreConfiguration3GetEv.exit:      ; preds = %entry, %if.end.i
  %retval.0.i = phi ptr [ %call1.i, %if.end.i ], [ %atomic-temp.i.0.i.i, %entry ]
  %service_config_parser_.i = getelementptr inbounds i8, ptr %retval.0.i, i64 552
  %call3 = tail call noundef i64 @_ZNK9grpc_core19ServiceConfigParser14GetParserIndexESt17basic_string_viewIcSt11char_traitsIcEE(ptr noundef nonnull align 8 dereferenceable(24) %service_config_parser_.i, i64 4, ptr nonnull @.str.36)
  ret i64 %call3
}

declare noundef i64 @_ZNK9grpc_core19ServiceConfigParser14GetParserIndexESt17basic_string_viewIcSt11char_traitsIcEE(ptr noundef nonnull align 8 dereferenceable(24), i64, ptr) local_unnamed_addr #0

; Function Attrs: mustprogress nounwind uwtable
define linkonce_odr void @_ZN9grpc_core23RbacServiceConfigParserD2Ev(ptr noundef nonnull align 8 dereferenceable(8) %this) unnamed_addr #5 comdat align 2 {
entry:
  ret void
}

; Function Attrs: mustprogress nounwind uwtable
define linkonce_odr void @_ZN9grpc_core23RbacServiceConfigParserD0Ev(ptr noundef nonnull align 8 dereferenceable(8) %this) unnamed_addr #5 comdat align 2 {
entry:
  tail call void @_ZdlPv(ptr noundef nonnull %this) #24
  ret void
}

; Function Attrs: mustprogress nounwind uwtable
define linkonce_odr { i64, ptr } @_ZNK9grpc_core23RbacServiceConfigParser4nameEv(ptr noundef nonnull align 8 dereferenceable(8) %this) unnamed_addr #5 comdat align 2 personality ptr @__gxx_personality_v0 {
entry:
  ret { i64, ptr } { i64 4, ptr @.str.36 }
}

; Function Attrs: mustprogress nounwind uwtable
define linkonce_odr void @_ZN9grpc_core19ServiceConfigParser6Parser17ParseGlobalParamsERKNS_11ChannelArgsERKNS_12experimental4JsonEPNS_16ValidationErrorsE(ptr noalias sret(%"class.std::unique_ptr") align 8 %agg.result, ptr noundef nonnull align 8 dereferenceable(8) %this, ptr noundef nonnull align 8 dereferenceable(8) %0, ptr noundef nonnull align 8 dereferenceable(56) %1, ptr noundef %2) unnamed_addr #5 comdat align 2 personality ptr @__gxx_personality_v0 {
entry:
  store ptr null, ptr %agg.result, align 8
  ret void
}

; Function Attrs: mustprogress nofree norecurse nosync nounwind willreturn memory(readwrite, argmem: none, inaccessiblemem: none) uwtable
define internal void @__cxx_global_var_init.1() #6 section ".text.startup" comdat($_ZN9grpc_core19NoDestructSingletonINS_14promise_detail10UnwakeableEE6value_E) {
entry:
  %0 = load i8, ptr @_ZGVN9grpc_core19NoDestructSingletonINS_14promise_detail10UnwakeableEE6value_E, align 8
  %guard.uninitialized = icmp eq i8 %0, 0
  br i1 %guard.uninitialized, label %init.check, label %init.end

init.check:                                       ; preds = %entry
  store i8 1, ptr @_ZGVN9grpc_core19NoDestructSingletonINS_14promise_detail10UnwakeableEE6value_E, align 8
  store ptr getelementptr inbounds ({ [6 x ptr] }, ptr @_ZTVN9grpc_core14promise_detail10UnwakeableE, i64 0, inrange i32 0, i64 2), ptr @_ZN9grpc_core19NoDestructSingletonINS_14promise_detail10UnwakeableEE6value_E, align 8
  br label %init.end

init.end:                                         ; preds = %init.check, %entry
  ret void
}

; Function Attrs: mustprogress nofree norecurse nosync nounwind willreturn memory(readwrite, argmem: none, inaccessiblemem: none) uwtable
define internal void @__cxx_global_var_init.2() #6 section ".text.startup" comdat($_ZN9grpc_core19NoDestructSingletonINS_11json_detail10AutoLoaderINSt7__cxx1112basic_stringIcSt11char_traitsIcESaIcEEEEEE6value_E) {
entry:
  %0 = load i8, ptr @_ZGVN9grpc_core19NoDestructSingletonINS_11json_detail10AutoLoaderINSt7__cxx1112basic_stringIcSt11char_traitsIcESaIcEEEEEE6value_E, align 8
  %guard.uninitialized = icmp eq i8 %0, 0
  br i1 %guard.uninitialized, label %init.check, label %init.end

init.check:                                       ; preds = %entry
  store i8 1, ptr @_ZGVN9grpc_core19NoDestructSingletonINS_11json_detail10AutoLoaderINSt7__cxx1112basic_stringIcSt11char_traitsIcESaIcEEEEEE6value_E, align 8
  store ptr getelementptr inbounds ({ [5 x ptr] }, ptr @_ZTVN9grpc_core11json_detail10AutoLoaderINSt7__cxx1112basic_stringIcSt11char_traitsIcESaIcEEEEE, i64 0, inrange i32 0, i64 2), ptr @_ZN9grpc_core19NoDestructSingletonINS_11json_detail10AutoLoaderINSt7__cxx1112basic_stringIcSt11char_traitsIcESaIcEEEEEE6value_E, align 8
  br label %init.end

init.end:                                         ; preds = %init.check, %entry
  ret void
}

; Function Attrs: mustprogress nofree norecurse nosync nounwind willreturn memory(readwrite, argmem: none, inaccessiblemem: none) uwtable
define internal void @__cxx_global_var_init.3() #6 section ".text.startup" comdat($_ZN9grpc_core19NoDestructSingletonINS_11json_detail10AutoLoaderIjEEE6value_E) {
entry:
  %0 = load i8, ptr @_ZGVN9grpc_core19NoDestructSingletonINS_11json_detail10AutoLoaderIjEEE6value_E, align 8
  %guard.uninitialized = icmp eq i8 %0, 0
  br i1 %guard.uninitialized, label %init.check, label %init.end

init.check:                                       ; preds = %entry
  store i8 1, ptr @_ZGVN9grpc_core19NoDestructSingletonINS_11json_detail10AutoLoaderIjEEE6value_E, align 8
  store ptr getelementptr inbounds ({ [5 x ptr] }, ptr @_ZTVN9grpc_core11json_detail10AutoLoaderIjEE, i64 0, inrange i32 0, i64 2), ptr @_ZN9grpc_core19NoDestructSingletonINS_11json_detail10AutoLoaderIjEEE6value_E, align 8
  br label %init.end

init.end:                                         ; preds = %init.check, %entry
  ret void
}

; Function Attrs: mustprogress nofree norecurse nosync nounwind willreturn memory(readwrite, argmem: none, inaccessiblemem: none) uwtable
define internal void @__cxx_global_var_init.4() #6 section ".text.startup" comdat($_ZN9grpc_core19NoDestructSingletonINS_11json_detail10AutoLoaderIlEEE6value_E) {
entry:
  %0 = load i8, ptr @_ZGVN9grpc_core19NoDestructSingletonINS_11json_detail10AutoLoaderIlEEE6value_E, align 8
  %guard.uninitialized = icmp eq i8 %0, 0
  br i1 %guard.uninitialized, label %init.check, label %init.end

init.check:                                       ; preds = %entry
  store i8 1, ptr @_ZGVN9grpc_core19NoDestructSingletonINS_11json_detail10AutoLoaderIlEEE6value_E, align 8
  store ptr getelementptr inbounds ({ [5 x ptr] }, ptr @_ZTVN9grpc_core11json_detail10AutoLoaderIlEE, i64 0, inrange i32 0, i64 2), ptr @_ZN9grpc_core19NoDestructSingletonINS_11json_detail10AutoLoaderIlEEE6value_E, align 8
  br label %init.end

init.end:                                         ; preds = %init.check, %entry
  ret void
}

; Function Attrs: mustprogress nofree norecurse nosync nounwind willreturn memory(readwrite, argmem: none, inaccessiblemem: none) uwtable
define internal void @__cxx_global_var_init.5() #6 section ".text.startup" comdat($_ZN9grpc_core19NoDestructSingletonINS_11json_detail10AutoLoaderIbEEE6value_E) {
entry:
  %0 = load i8, ptr @_ZGVN9grpc_core19NoDestructSingletonINS_11json_detail10AutoLoaderIbEEE6value_E, align 8
  %guard.uninitialized = icmp eq i8 %0, 0
  br i1 %guard.uninitialized, label %init.check, label %init.end

init.check:                                       ; preds = %entry
  store i8 1, ptr @_ZGVN9grpc_core19NoDestructSingletonINS_11json_detail10AutoLoaderIbEEE6value_E, align 8
  store ptr getelementptr inbounds ({ [3 x ptr] }, ptr @_ZTVN9grpc_core11json_detail10AutoLoaderIbEE, i64 0, inrange i32 0, i64 2), ptr @_ZN9grpc_core19NoDestructSingletonINS_11json_detail10AutoLoaderIbEEE6value_E, align 8
  br label %init.end

init.end:                                         ; preds = %init.check, %entry
  ret void
}

; Function Attrs: mustprogress nofree norecurse nosync nounwind willreturn memory(write, argmem: none, inaccessiblemem: none) uwtable
define internal void @__cxx_global_var_init.6() #7 section ".text.startup" {
entry:
  store ptr getelementptr inbounds ({ [3 x ptr] }, ptr @_ZTVN9grpc_core11json_detail10AutoLoaderINS_12_GLOBAL__N_110RbacConfig10RbacPolicy5Rules6Policy14SafeRegexMatchEEE, i64 0, inrange i32 0, i64 2), ptr @_ZN9grpc_core19NoDestructSingletonINS_11json_detail10AutoLoaderINS_12_GLOBAL__N_110RbacConfig10RbacPolicy5Rules6Policy14SafeRegexMatchEEEE6value_E, align 8
  ret void
}

; Function Attrs: mustprogress nofree norecurse nosync nounwind willreturn memory(write, argmem: none, inaccessiblemem: none) uwtable
define internal void @__cxx_global_var_init.7() #7 section ".text.startup" {
entry:
  store ptr getelementptr inbounds ({ [3 x ptr] }, ptr @_ZTVN9grpc_core11json_detail10AutoLoaderINS_12_GLOBAL__N_110RbacConfig10RbacPolicy5Rules6Policy11HeaderMatch10RangeMatchEEE, i64 0, inrange i32 0, i64 2), ptr @_ZN9grpc_core19NoDestructSingletonINS_11json_detail10AutoLoaderINS_12_GLOBAL__N_110RbacConfig10RbacPolicy5Rules6Policy11HeaderMatch10RangeMatchEEEE6value_E, align 8
  ret void
}

; Function Attrs: mustprogress nofree norecurse nosync nounwind willreturn memory(write, argmem: none, inaccessiblemem: none) uwtable
define internal void @__cxx_global_var_init.8() #7 section ".text.startup" {
entry:
  store ptr getelementptr inbounds ({ [3 x ptr] }, ptr @_ZTVN9grpc_core11json_detail10AutoLoaderINS_12_GLOBAL__N_110RbacConfig10RbacPolicy5Rules6Policy11StringMatchEEE, i64 0, inrange i32 0, i64 2), ptr @_ZN9grpc_core19NoDestructSingletonINS_11json_detail10AutoLoaderINS_12_GLOBAL__N_110RbacConfig10RbacPolicy5Rules6Policy11StringMatchEEEE6value_E, align 8
  ret void
}

; Function Attrs: mustprogress nofree norecurse nosync nounwind willreturn memory(write, argmem: none, inaccessiblemem: none) uwtable
define internal void @__cxx_global_var_init.9() #7 section ".text.startup" {
entry:
  store ptr getelementptr inbounds ({ [3 x ptr] }, ptr @_ZTVN9grpc_core11json_detail10AutoLoaderINS_12_GLOBAL__N_110RbacConfig10RbacPolicy5Rules6Policy10PermissionEEE, i64 0, inrange i32 0, i64 2), ptr @_ZN9grpc_core19NoDestructSingletonINS_11json_detail10AutoLoaderINS_12_GLOBAL__N_110RbacConfig10RbacPolicy5Rules6Policy10PermissionEEEE6value_E, align 8
  ret void
}

; Function Attrs: mustprogress nofree norecurse nosync nounwind willreturn memory(write, argmem: none, inaccessiblemem: none) uwtable
define internal void @__cxx_global_var_init.10() #7 section ".text.startup" {
entry:
  store ptr getelementptr inbounds ({ [5 x ptr] }, ptr @_ZTVN9grpc_core11json_detail10AutoLoaderISt6vectorINS_12_GLOBAL__N_110RbacConfig10RbacPolicy5Rules6Policy10PermissionESaIS8_EEEE, i64 0, inrange i32 0, i64 2), ptr @_ZN9grpc_core19NoDestructSingletonINS_11json_detail10AutoLoaderISt6vectorINS_12_GLOBAL__N_110RbacConfig10RbacPolicy5Rules6Policy10PermissionESaIS9_EEEEE6value_E, align 8
  ret void
}

; Function Attrs: mustprogress nofree norecurse nosync nounwind willreturn memory(write, argmem: none, inaccessiblemem: none) uwtable
define internal void @__cxx_global_var_init.11() #7 section ".text.startup" {
entry:
  store ptr getelementptr inbounds ({ [3 x ptr] }, ptr @_ZTVN9grpc_core11json_detail10AutoLoaderINS_12_GLOBAL__N_110RbacConfig10RbacPolicy5Rules6Policy11HeaderMatchEEE, i64 0, inrange i32 0, i64 2), ptr @_ZN9grpc_core19NoDestructSingletonINS_11json_detail10AutoLoaderINS_12_GLOBAL__N_110RbacConfig10RbacPolicy5Rules6Policy11HeaderMatchEEEE6value_E, align 8
  ret void
}

; Function Attrs: mustprogress nofree norecurse nosync nounwind willreturn memory(write, argmem: none, inaccessiblemem: none) uwtable
define internal void @__cxx_global_var_init.12() #7 section ".text.startup" {
entry:
  store ptr getelementptr inbounds ({ [3 x ptr] }, ptr @_ZTVN9grpc_core11json_detail10AutoLoaderINS_12_GLOBAL__N_110RbacConfig10RbacPolicy5Rules6Policy9PathMatchEEE, i64 0, inrange i32 0, i64 2), ptr @_ZN9grpc_core19NoDestructSingletonINS_11json_detail10AutoLoaderINS_12_GLOBAL__N_110RbacConfig10RbacPolicy5Rules6Policy9PathMatchEEEE6value_E, align 8
  ret void
}

; Function Attrs: mustprogress nofree norecurse nosync nounwind willreturn memory(write, argmem: none, inaccessiblemem: none) uwtable
define internal void @__cxx_global_var_init.13() #7 section ".text.startup" {
entry:
  store ptr getelementptr inbounds ({ [3 x ptr] }, ptr @_ZTVN9grpc_core11json_detail10AutoLoaderINS_12_GLOBAL__N_110RbacConfig10RbacPolicy5Rules6Policy9CidrRangeEEE, i64 0, inrange i32 0, i64 2), ptr @_ZN9grpc_core19NoDestructSingletonINS_11json_detail10AutoLoaderINS_12_GLOBAL__N_110RbacConfig10RbacPolicy5Rules6Policy9CidrRangeEEEE6value_E, align 8
  ret void
}

; Function Attrs: mustprogress nofree norecurse nosync nounwind willreturn memory(write, argmem: none, inaccessiblemem: none) uwtable
define internal void @__cxx_global_var_init.14() #7 section ".text.startup" {
entry:
  store ptr getelementptr inbounds ({ [3 x ptr] }, ptr @_ZTVN9grpc_core11json_detail10AutoLoaderINS_12_GLOBAL__N_110RbacConfig10RbacPolicy5Rules6Policy8MetadataEEE, i64 0, inrange i32 0, i64 2), ptr @_ZN9grpc_core19NoDestructSingletonINS_11json_detail10AutoLoaderINS_12_GLOBAL__N_110RbacConfig10RbacPolicy5Rules6Policy8MetadataEEEE6value_E, align 8
  ret void
}

; Function Attrs: mustprogress nofree norecurse nosync nounwind willreturn memory(write, argmem: none, inaccessiblemem: none) uwtable
define internal void @__cxx_global_var_init.15() #7 section ".text.startup" {
entry:
  store ptr getelementptr inbounds ({ [3 x ptr] }, ptr @_ZTVN9grpc_core11json_detail10AutoLoaderINS_12_GLOBAL__N_110RbacConfig10RbacPolicy5Rules6Policy10Permission14PermissionListEEE, i64 0, inrange i32 0, i64 2), ptr @_ZN9grpc_core19NoDestructSingletonINS_11json_detail10AutoLoaderINS_12_GLOBAL__N_110RbacConfig10RbacPolicy5Rules6Policy10Permission14PermissionListEEEE6value_E, align 8
  ret void
}

; Function Attrs: mustprogress nofree norecurse nosync nounwind willreturn memory(write, argmem: none, inaccessiblemem: none) uwtable
define internal void @__cxx_global_var_init.16() #7 section ".text.startup" {
entry:
  store ptr getelementptr inbounds ({ [3 x ptr] }, ptr @_ZTVN9grpc_core11json_detail10AutoLoaderINS_12_GLOBAL__N_110RbacConfig10RbacPolicy5Rules6Policy9PrincipalEEE, i64 0, inrange i32 0, i64 2), ptr @_ZN9grpc_core19NoDestructSingletonINS_11json_detail10AutoLoaderINS_12_GLOBAL__N_110RbacConfig10RbacPolicy5Rules6Policy9PrincipalEEEE6value_E, align 8
  ret void
}

; Function Attrs: mustprogress nofree norecurse nosync nounwind willreturn memory(write, argmem: none, inaccessiblemem: none) uwtable
define internal void @__cxx_global_var_init.17() #7 section ".text.startup" {
entry:
  store ptr getelementptr inbounds ({ [5 x ptr] }, ptr @_ZTVN9grpc_core11json_detail10AutoLoaderISt6vectorINS_12_GLOBAL__N_110RbacConfig10RbacPolicy5Rules6Policy9PrincipalESaIS8_EEEE, i64 0, inrange i32 0, i64 2), ptr @_ZN9grpc_core19NoDestructSingletonINS_11json_detail10AutoLoaderISt6vectorINS_12_GLOBAL__N_110RbacConfig10RbacPolicy5Rules6Policy9PrincipalESaIS9_EEEEE6value_E, align 8
  ret void
}

; Function Attrs: mustprogress nofree norecurse nosync nounwind willreturn memory(write, argmem: none, inaccessiblemem: none) uwtable
define internal void @__cxx_global_var_init.18() #7 section ".text.startup" {
entry:
  store ptr getelementptr inbounds ({ [6 x ptr] }, ptr @_ZTVN9grpc_core11json_detail10AutoLoaderISt8optionalINS_12_GLOBAL__N_110RbacConfig10RbacPolicy5Rules6Policy11StringMatchEEEE, i64 0, inrange i32 0, i64 2), ptr @_ZN9grpc_core19NoDestructSingletonINS_11json_detail10AutoLoaderISt8optionalINS_12_GLOBAL__N_110RbacConfig10RbacPolicy5Rules6Policy11StringMatchEEEEE6value_E, align 8
  ret void
}

; Function Attrs: mustprogress nofree norecurse nosync nounwind willreturn memory(write, argmem: none, inaccessiblemem: none) uwtable
define internal void @__cxx_global_var_init.19() #7 section ".text.startup" {
entry:
  store ptr getelementptr inbounds ({ [3 x ptr] }, ptr @_ZTVN9grpc_core11json_detail10AutoLoaderINS_12_GLOBAL__N_110RbacConfig10RbacPolicy5Rules6Policy9Principal13AuthenticatedEEE, i64 0, inrange i32 0, i64 2), ptr @_ZN9grpc_core19NoDestructSingletonINS_11json_detail10AutoLoaderINS_12_GLOBAL__N_110RbacConfig10RbacPolicy5Rules6Policy9Principal13AuthenticatedEEEE6value_E, align 8
  ret void
}

; Function Attrs: mustprogress nofree norecurse nosync nounwind willreturn memory(write, argmem: none, inaccessiblemem: none) uwtable
define internal void @__cxx_global_var_init.20() #7 section ".text.startup" {
entry:
  store ptr getelementptr inbounds ({ [3 x ptr] }, ptr @_ZTVN9grpc_core11json_detail10AutoLoaderINS_12_GLOBAL__N_110RbacConfig10RbacPolicy5Rules6Policy9Principal13PrincipalListEEE, i64 0, inrange i32 0, i64 2), ptr @_ZN9grpc_core19NoDestructSingletonINS_11json_detail10AutoLoaderINS_12_GLOBAL__N_110RbacConfig10RbacPolicy5Rules6Policy9Principal13PrincipalListEEEE6value_E, align 8
  ret void
}

; Function Attrs: mustprogress nofree norecurse nosync nounwind willreturn memory(readwrite, argmem: none, inaccessiblemem: none) uwtable
define internal void @__cxx_global_var_init.21() #6 section ".text.startup" comdat($_ZN9grpc_core19NoDestructSingletonINS_11json_detail10AutoLoaderISt3mapINSt7__cxx1112basic_stringIcSt11char_traitsIcESaIcEEENS_12experimental4JsonESt4lessIS9_ESaISt4pairIKS9_SB_EEEEEE6value_E) {
entry:
  %0 = load i8, ptr @_ZGVN9grpc_core19NoDestructSingletonINS_11json_detail10AutoLoaderISt3mapINSt7__cxx1112basic_stringIcSt11char_traitsIcESaIcEEENS_12experimental4JsonESt4lessIS9_ESaISt4pairIKS9_SB_EEEEEE6value_E, align 8
  %guard.uninitialized = icmp eq i8 %0, 0
  br i1 %guard.uninitialized, label %init.check, label %init.end

init.check:                                       ; preds = %entry
  store i8 1, ptr @_ZGVN9grpc_core19NoDestructSingletonINS_11json_detail10AutoLoaderISt3mapINSt7__cxx1112basic_stringIcSt11char_traitsIcESaIcEEENS_12experimental4JsonESt4lessIS9_ESaISt4pairIKS9_SB_EEEEEE6value_E, align 8
  store ptr getelementptr inbounds ({ [3 x ptr] }, ptr @_ZTVN9grpc_core11json_detail10AutoLoaderISt3mapINSt7__cxx1112basic_stringIcSt11char_traitsIcESaIcEEENS_12experimental4JsonESt4lessIS8_ESaISt4pairIKS8_SA_EEEEE, i64 0, inrange i32 0, i64 2), ptr @_ZN9grpc_core19NoDestructSingletonINS_11json_detail10AutoLoaderISt3mapINSt7__cxx1112basic_stringIcSt11char_traitsIcESaIcEEENS_12experimental4JsonESt4lessIS9_ESaISt4pairIKS9_SB_EEEEEE6value_E, align 8
  br label %init.end

init.end:                                         ; preds = %init.check, %entry
  ret void
}

; Function Attrs: mustprogress nofree norecurse nosync nounwind willreturn memory(readwrite, argmem: none, inaccessiblemem: none) uwtable
define internal void @__cxx_global_var_init.22() #6 section ".text.startup" comdat($_ZN9grpc_core19NoDestructSingletonINS_11json_detail10AutoLoaderIiEEE6value_E) {
entry:
  %0 = load i8, ptr @_ZGVN9grpc_core19NoDestructSingletonINS_11json_detail10AutoLoaderIiEEE6value_E, align 8
  %guard.uninitialized = icmp eq i8 %0, 0
  br i1 %guard.uninitialized, label %init.check, label %init.end

init.check:                                       ; preds = %entry
  store i8 1, ptr @_ZGVN9grpc_core19NoDestructSingletonINS_11json_detail10AutoLoaderIiEEE6value_E, align 8
  store ptr getelementptr inbounds ({ [5 x ptr] }, ptr @_ZTVN9grpc_core11json_detail10AutoLoaderIiEE, i64 0, inrange i32 0, i64 2), ptr @_ZN9grpc_core19NoDestructSingletonINS_11json_detail10AutoLoaderIiEEE6value_E, align 8
  br label %init.end

init.end:                                         ; preds = %init.check, %entry
  ret void
}

; Function Attrs: mustprogress nofree norecurse nosync nounwind willreturn memory(write, argmem: none, inaccessiblemem: none) uwtable
define internal void @__cxx_global_var_init.23() #7 section ".text.startup" {
entry:
  store ptr getelementptr inbounds ({ [3 x ptr] }, ptr @_ZTVN9grpc_core11json_detail10AutoLoaderINS_12_GLOBAL__N_110RbacConfig10RbacPolicy5Rules6PolicyEEE, i64 0, inrange i32 0, i64 2), ptr @_ZN9grpc_core19NoDestructSingletonINS_11json_detail10AutoLoaderINS_12_GLOBAL__N_110RbacConfig10RbacPolicy5Rules6PolicyEEEE6value_E, align 8
  ret void
}

; Function Attrs: mustprogress nofree norecurse nosync nounwind willreturn memory(write, argmem: none, inaccessiblemem: none) uwtable
define internal void @__cxx_global_var_init.24() #7 section ".text.startup" {
entry:
  store ptr getelementptr inbounds ({ [5 x ptr] }, ptr @_ZTVN9grpc_core11json_detail10AutoLoaderISt3mapINSt7__cxx1112basic_stringIcSt11char_traitsIcESaIcEEENS_12_GLOBAL__N_110RbacConfig10RbacPolicy5Rules6PolicyESt4lessIS8_ESaISt4pairIKS8_SD_EEEEE, i64 0, inrange i32 0, i64 2), ptr @_ZN9grpc_core19NoDestructSingletonINS_11json_detail10AutoLoaderISt3mapINSt7__cxx1112basic_stringIcSt11char_traitsIcESaIcEEENS_12_GLOBAL__N_110RbacConfig10RbacPolicy5Rules6PolicyESt4lessIS9_ESaISt4pairIKS9_SE_EEEEEE6value_E, align 8
  ret void
}

; Function Attrs: mustprogress nofree norecurse nosync nounwind willreturn memory(write, argmem: none, inaccessiblemem: none) uwtable
define internal void @__cxx_global_var_init.25() #7 section ".text.startup" {
entry:
  store ptr getelementptr inbounds ({ [3 x ptr] }, ptr @_ZTVN9grpc_core11json_detail10AutoLoaderINS_12_GLOBAL__N_110RbacConfig10RbacPolicy5Rules11AuditLoggerEEE, i64 0, inrange i32 0, i64 2), ptr @_ZN9grpc_core19NoDestructSingletonINS_11json_detail10AutoLoaderINS_12_GLOBAL__N_110RbacConfig10RbacPolicy5Rules11AuditLoggerEEEE6value_E, align 8
  ret void
}

; Function Attrs: mustprogress nofree norecurse nosync nounwind willreturn memory(write, argmem: none, inaccessiblemem: none) uwtable
define internal void @__cxx_global_var_init.26() #7 section ".text.startup" {
entry:
  store ptr getelementptr inbounds ({ [5 x ptr] }, ptr @_ZTVN9grpc_core11json_detail10AutoLoaderISt6vectorINS_12_GLOBAL__N_110RbacConfig10RbacPolicy5Rules11AuditLoggerESaIS7_EEEE, i64 0, inrange i32 0, i64 2), ptr @_ZN9grpc_core19NoDestructSingletonINS_11json_detail10AutoLoaderISt6vectorINS_12_GLOBAL__N_110RbacConfig10RbacPolicy5Rules11AuditLoggerESaIS8_EEEEE6value_E, align 8
  ret void
}

; Function Attrs: mustprogress nofree norecurse nosync nounwind willreturn memory(write, argmem: none, inaccessiblemem: none) uwtable
define internal void @__cxx_global_var_init.27() #7 section ".text.startup" {
entry:
  store ptr getelementptr inbounds ({ [3 x ptr] }, ptr @_ZTVN9grpc_core11json_detail10AutoLoaderINS_12_GLOBAL__N_110RbacConfig10RbacPolicy5RulesEEE, i64 0, inrange i32 0, i64 2), ptr @_ZN9grpc_core19NoDestructSingletonINS_11json_detail10AutoLoaderINS_12_GLOBAL__N_110RbacConfig10RbacPolicy5RulesEEEE6value_E, align 8
  ret void
}

; Function Attrs: mustprogress nofree norecurse nosync nounwind willreturn memory(write, argmem: none, inaccessiblemem: none) uwtable
define internal void @__cxx_global_var_init.28() #7 section ".text.startup" {
entry:
  store ptr getelementptr inbounds ({ [6 x ptr] }, ptr @_ZTVN9grpc_core11json_detail10AutoLoaderISt8optionalINS_12_GLOBAL__N_110RbacConfig10RbacPolicy5RulesEEEE, i64 0, inrange i32 0, i64 2), ptr @_ZN9grpc_core19NoDestructSingletonINS_11json_detail10AutoLoaderISt8optionalINS_12_GLOBAL__N_110RbacConfig10RbacPolicy5RulesEEEEE6value_E, align 8
  ret void
}

; Function Attrs: mustprogress nofree norecurse nosync nounwind willreturn memory(write, argmem: none, inaccessiblemem: none) uwtable
define internal void @__cxx_global_var_init.29() #7 section ".text.startup" {
entry:
  store ptr getelementptr inbounds ({ [3 x ptr] }, ptr @_ZTVN9grpc_core11json_detail10AutoLoaderINS_12_GLOBAL__N_110RbacConfig10RbacPolicyEEE, i64 0, inrange i32 0, i64 2), ptr @_ZN9grpc_core19NoDestructSingletonINS_11json_detail10AutoLoaderINS_12_GLOBAL__N_110RbacConfig10RbacPolicyEEEE6value_E, align 8
  ret void
}

; Function Attrs: mustprogress nofree norecurse nosync nounwind willreturn memory(write, argmem: none, inaccessiblemem: none) uwtable
define internal void @__cxx_global_var_init.30() #7 section ".text.startup" {
entry:
  store ptr getelementptr inbounds ({ [5 x ptr] }, ptr @_ZTVN9grpc_core11json_detail10AutoLoaderISt6vectorINS_12_GLOBAL__N_110RbacConfig10RbacPolicyESaIS5_EEEE, i64 0, inrange i32 0, i64 2), ptr @_ZN9grpc_core19NoDestructSingletonINS_11json_detail10AutoLoaderISt6vectorINS_12_GLOBAL__N_110RbacConfig10RbacPolicyESaIS6_EEEEE6value_E, align 8
  ret void
}

; Function Attrs: mustprogress nofree norecurse nosync nounwind willreturn memory(write, argmem: none, inaccessiblemem: none) uwtable
define internal void @__cxx_global_var_init.31() #7 section ".text.startup" {
entry:
  store ptr getelementptr inbounds ({ [3 x ptr] }, ptr @_ZTVN9grpc_core11json_detail10AutoLoaderINS_12_GLOBAL__N_110RbacConfigEEE, i64 0, inrange i32 0, i64 2), ptr @_ZN9grpc_core19NoDestructSingletonINS_11json_detail10AutoLoaderINS_12_GLOBAL__N_110RbacConfigEEEE6value_E, align 8
  ret void
}

; Function Attrs: noreturn nounwind uwtable
define linkonce_odr hidden void @__clang_call_terminate(ptr noundef %0) local_unnamed_addr #8 comdat {
  %2 = tail call ptr @__cxa_begin_catch(ptr %0) #22
  tail call void @_ZSt9terminatev() #23
  unreachable
}

declare ptr @__cxa_begin_catch(ptr) local_unnamed_addr

declare void @_ZSt9terminatev() local_unnamed_addr

; Function Attrs: mustprogress nofree nounwind willreturn memory(argmem: read)
declare i64 @strlen(ptr nocapture noundef) local_unnamed_addr #9

; Function Attrs: mustprogress nounwind uwtable
define linkonce_odr void @_ZN9grpc_core8JsonArgsD0Ev(ptr noundef nonnull align 8 dereferenceable(8) %this) unnamed_addr #5 comdat align 2 {
entry:
  tail call void @_ZdlPv(ptr noundef nonnull %this) #24
  ret void
}

; Function Attrs: mustprogress nounwind uwtable
define linkonce_odr noundef zeroext i1 @_ZNK9grpc_core8JsonArgs9IsEnabledESt17basic_string_viewIcSt11char_traitsIcEE(ptr noundef nonnull align 8 dereferenceable(8) %this, i64 %.coerce0, ptr %.coerce1) unnamed_addr #5 comdat align 2 {
entry:
  ret i1 true
}

; Function Attrs: nobuiltin nounwind
declare void @_ZdlPv(ptr noundef) local_unnamed_addr #10

; Function Attrs: mustprogress nounwind uwtable
define linkonce_odr void @_ZN9grpc_core4RbacD2Ev(ptr noundef nonnull align 8 dereferenceable(120) %this) unnamed_addr #5 comdat align 2 personality ptr @__gxx_personality_v0 {
entry:
  %logger_configs = getelementptr inbounds i8, ptr %this, i64 96
  %0 = load ptr, ptr %logger_configs, align 8
  %_M_finish.i = getelementptr inbounds i8, ptr %this, i64 104
  %1 = load ptr, ptr %_M_finish.i, align 8
  %cmp.not3.i.i.i.i = icmp eq ptr %0, %1
  br i1 %cmp.not3.i.i.i.i, label %invoke.cont.i, label %for.body.i.i.i.i

for.body.i.i.i.i:                                 ; preds = %entry, %_ZSt8_DestroyISt10unique_ptrIN9grpc_core12experimental18AuditLoggerFactory6ConfigESt14default_deleteIS4_EEEvPT_.exit.i.i.i.i
  %__first.addr.04.i.i.i.i = phi ptr [ %incdec.ptr.i.i.i.i, %_ZSt8_DestroyISt10unique_ptrIN9grpc_core12experimental18AuditLoggerFactory6ConfigESt14default_deleteIS4_EEEvPT_.exit.i.i.i.i ], [ %0, %entry ]
  %2 = load ptr, ptr %__first.addr.04.i.i.i.i, align 8
  %cmp.not.i.i.i.i.i.i = icmp eq ptr %2, null
  br i1 %cmp.not.i.i.i.i.i.i, label %_ZSt8_DestroyISt10unique_ptrIN9grpc_core12experimental18AuditLoggerFactory6ConfigESt14default_deleteIS4_EEEvPT_.exit.i.i.i.i, label %_ZNKSt14default_deleteIN9grpc_core12experimental18AuditLoggerFactory6ConfigEEclEPS3_.exit.i.i.i.i.i.i

_ZNKSt14default_deleteIN9grpc_core12experimental18AuditLoggerFactory6ConfigEEclEPS3_.exit.i.i.i.i.i.i: ; preds = %for.body.i.i.i.i
  %vtable.i.i.i.i.i.i.i = load ptr, ptr %2, align 8
  %vfn.i.i.i.i.i.i.i = getelementptr inbounds i8, ptr %vtable.i.i.i.i.i.i.i, i64 8
  %3 = load ptr, ptr %vfn.i.i.i.i.i.i.i, align 8
  tail call void %3(ptr noundef nonnull align 8 dereferenceable(8) %2) #22
  br label %_ZSt8_DestroyISt10unique_ptrIN9grpc_core12experimental18AuditLoggerFactory6ConfigESt14default_deleteIS4_EEEvPT_.exit.i.i.i.i

_ZSt8_DestroyISt10unique_ptrIN9grpc_core12experimental18AuditLoggerFactory6ConfigESt14default_deleteIS4_EEEvPT_.exit.i.i.i.i: ; preds = %_ZNKSt14default_deleteIN9grpc_core12experimental18AuditLoggerFactory6ConfigEEclEPS3_.exit.i.i.i.i.i.i, %for.body.i.i.i.i
  store ptr null, ptr %__first.addr.04.i.i.i.i, align 8
  %incdec.ptr.i.i.i.i = getelementptr inbounds i8, ptr %__first.addr.04.i.i.i.i, i64 8
  %cmp.not.i.i.i.i = icmp eq ptr %incdec.ptr.i.i.i.i, %1
  br i1 %cmp.not.i.i.i.i, label %invoke.contthread-pre-split.i, label %for.body.i.i.i.i, !llvm.loop !47

invoke.contthread-pre-split.i:                    ; preds = %_ZSt8_DestroyISt10unique_ptrIN9grpc_core12experimental18AuditLoggerFactory6ConfigESt14default_deleteIS4_EEEvPT_.exit.i.i.i.i
  %.pr.i = load ptr, ptr %logger_configs, align 8
  br label %invoke.cont.i

invoke.cont.i:                                    ; preds = %invoke.contthread-pre-split.i, %entry
  %4 = phi ptr [ %.pr.i, %invoke.contthread-pre-split.i ], [ %0, %entry ]
  %tobool.not.i.i.i = icmp eq ptr %4, null
  br i1 %tobool.not.i.i.i, label %_ZNSt6vectorISt10unique_ptrIN9grpc_core12experimental18AuditLoggerFactory6ConfigESt14default_deleteIS4_EESaIS7_EED2Ev.exit, label %if.then.i.i.i

if.then.i.i.i:                                    ; preds = %invoke.cont.i
  tail call void @_ZdlPv(ptr noundef nonnull %4) #24
  br label %_ZNSt6vectorISt10unique_ptrIN9grpc_core12experimental18AuditLoggerFactory6ConfigESt14default_deleteIS4_EESaIS7_EED2Ev.exit

_ZNSt6vectorISt10unique_ptrIN9grpc_core12experimental18AuditLoggerFactory6ConfigESt14default_deleteIS4_EESaIS7_EED2Ev.exit: ; preds = %invoke.cont.i, %if.then.i.i.i
  %policies = getelementptr inbounds i8, ptr %this, i64 40
  %_M_parent.i.i.i.i = getelementptr inbounds i8, ptr %this, i64 56
  %5 = load ptr, ptr %_M_parent.i.i.i.i, align 8
  invoke void @_ZNSt8_Rb_treeINSt7__cxx1112basic_stringIcSt11char_traitsIcESaIcEEESt4pairIKS5_N9grpc_core4Rbac6PolicyEESt10_Select1stISB_ESt4lessIS5_ESaISB_EE8_M_eraseEPSt13_Rb_tree_nodeISB_E(ptr noundef nonnull align 8 dereferenceable(48) %policies, ptr noundef %5)
          to label %_ZNSt3mapINSt7__cxx1112basic_stringIcSt11char_traitsIcESaIcEEEN9grpc_core4Rbac6PolicyESt4lessIS5_ESaISt4pairIKS5_S8_EEED2Ev.exit unwind label %terminate.lpad.i.i

terminate.lpad.i.i:                               ; preds = %_ZNSt6vectorISt10unique_ptrIN9grpc_core12experimental18AuditLoggerFactory6ConfigESt14default_deleteIS4_EESaIS7_EED2Ev.exit
  %6 = landingpad { ptr, i32 }
          catch ptr null
  %7 = extractvalue { ptr, i32 } %6, 0
  tail call void @__clang_call_terminate(ptr %7) #23
  unreachable

_ZNSt3mapINSt7__cxx1112basic_stringIcSt11char_traitsIcESaIcEEEN9grpc_core4Rbac6PolicyESt4lessIS5_ESaISt4pairIKS5_S8_EEED2Ev.exit: ; preds = %_ZNSt6vectorISt10unique_ptrIN9grpc_core12experimental18AuditLoggerFactory6ConfigESt14default_deleteIS4_EESaIS7_EED2Ev.exit
  tail call void @_ZNSt7__cxx1112basic_stringIcSt11char_traitsIcESaIcEED1Ev(ptr noundef nonnull align 8 dereferenceable(32) %this) #22
  ret void
}

; Function Attrs: noreturn
declare void @_ZSt20__throw_length_errorPKc(ptr noundef) local_unnamed_addr #11

; Function Attrs: nobuiltin allocsize(0)
declare noundef nonnull ptr @_Znwm(i64 noundef) local_unnamed_addr #12

; Function Attrs: mustprogress nounwind uwtable
define linkonce_odr noundef ptr @_ZSt14__relocate_a_1IPN9grpc_core4RbacES2_SaIS1_EET0_T_S5_S4_RT1_(ptr noundef %__first, ptr noundef %__last, ptr noundef %__result, ptr noundef nonnull align 1 dereferenceable(1) %__alloc) local_unnamed_addr #5 comdat personality ptr @__gxx_personality_v0 {
entry:
  %cmp.not6 = icmp eq ptr %__first, %__last
  br i1 %cmp.not6, label %for.end, label %for.body

for.body:                                         ; preds = %entry, %_ZSt19__relocate_object_aIN9grpc_core4RbacES1_SaIS1_EEvPT_PT0_RT1_.exit
  %__cur.08 = phi ptr [ %incdec.ptr1, %_ZSt19__relocate_object_aIN9grpc_core4RbacES1_SaIS1_EEvPT_PT0_RT1_.exit ], [ %__result, %entry ]
  %__first.addr.07 = phi ptr [ %incdec.ptr, %_ZSt19__relocate_object_aIN9grpc_core4RbacES1_SaIS1_EEvPT_PT0_RT1_.exit ], [ %__first, %entry ]
  tail call void @_ZN9grpc_core4RbacC1EOS0_(ptr noundef nonnull align 8 dereferenceable(120) %__cur.08, ptr noundef nonnull align 8 dereferenceable(120) %__first.addr.07) #22
  %logger_configs.i.i.i.i = getelementptr inbounds i8, ptr %__first.addr.07, i64 96
  %0 = load ptr, ptr %logger_configs.i.i.i.i, align 8, !alias.scope !53, !noalias !56
  %_M_finish.i.i.i.i.i = getelementptr inbounds i8, ptr %__first.addr.07, i64 104
  %1 = load ptr, ptr %_M_finish.i.i.i.i.i, align 8, !alias.scope !53, !noalias !56
  %cmp.not3.i.i.i.i.i.i.i.i = icmp eq ptr %0, %1
  br i1 %cmp.not3.i.i.i.i.i.i.i.i, label %invoke.cont.i.i.i.i.i, label %for.body.i.i.i.i.i.i.i.i

for.body.i.i.i.i.i.i.i.i:                         ; preds = %for.body, %_ZSt8_DestroyISt10unique_ptrIN9grpc_core12experimental18AuditLoggerFactory6ConfigESt14default_deleteIS4_EEEvPT_.exit.i.i.i.i.i.i.i.i
  %__first.addr.04.i.i.i.i.i.i.i.i = phi ptr [ %incdec.ptr.i.i.i.i.i.i.i.i, %_ZSt8_DestroyISt10unique_ptrIN9grpc_core12experimental18AuditLoggerFactory6ConfigESt14default_deleteIS4_EEEvPT_.exit.i.i.i.i.i.i.i.i ], [ %0, %for.body ]
  %2 = load ptr, ptr %__first.addr.04.i.i.i.i.i.i.i.i, align 8
  %cmp.not.i.i.i.i.i.i.i.i.i.i = icmp eq ptr %2, null
  br i1 %cmp.not.i.i.i.i.i.i.i.i.i.i, label %_ZSt8_DestroyISt10unique_ptrIN9grpc_core12experimental18AuditLoggerFactory6ConfigESt14default_deleteIS4_EEEvPT_.exit.i.i.i.i.i.i.i.i, label %_ZNKSt14default_deleteIN9grpc_core12experimental18AuditLoggerFactory6ConfigEEclEPS3_.exit.i.i.i.i.i.i.i.i.i.i

_ZNKSt14default_deleteIN9grpc_core12experimental18AuditLoggerFactory6ConfigEEclEPS3_.exit.i.i.i.i.i.i.i.i.i.i: ; preds = %for.body.i.i.i.i.i.i.i.i
  %vtable.i.i.i.i.i.i.i.i.i.i.i = load ptr, ptr %2, align 8
  %vfn.i.i.i.i.i.i.i.i.i.i.i = getelementptr inbounds i8, ptr %vtable.i.i.i.i.i.i.i.i.i.i.i, i64 8
  %3 = load ptr, ptr %vfn.i.i.i.i.i.i.i.i.i.i.i, align 8
  tail call void %3(ptr noundef nonnull align 8 dereferenceable(8) %2) #22
  br label %_ZSt8_DestroyISt10unique_ptrIN9grpc_core12experimental18AuditLoggerFactory6ConfigESt14default_deleteIS4_EEEvPT_.exit.i.i.i.i.i.i.i.i

_ZSt8_DestroyISt10unique_ptrIN9grpc_core12experimental18AuditLoggerFactory6ConfigESt14default_deleteIS4_EEEvPT_.exit.i.i.i.i.i.i.i.i: ; preds = %_ZNKSt14default_deleteIN9grpc_core12experimental18AuditLoggerFactory6ConfigEEclEPS3_.exit.i.i.i.i.i.i.i.i.i.i, %for.body.i.i.i.i.i.i.i.i
  store ptr null, ptr %__first.addr.04.i.i.i.i.i.i.i.i, align 8
  %incdec.ptr.i.i.i.i.i.i.i.i = getelementptr inbounds i8, ptr %__first.addr.04.i.i.i.i.i.i.i.i, i64 8
  %cmp.not.i.i.i.i.i.i.i.i = icmp eq ptr %incdec.ptr.i.i.i.i.i.i.i.i, %1
  br i1 %cmp.not.i.i.i.i.i.i.i.i, label %invoke.contthread-pre-split.i.i.i.i.i, label %for.body.i.i.i.i.i.i.i.i, !llvm.loop !47

invoke.contthread-pre-split.i.i.i.i.i:            ; preds = %_ZSt8_DestroyISt10unique_ptrIN9grpc_core12experimental18AuditLoggerFactory6ConfigESt14default_deleteIS4_EEEvPT_.exit.i.i.i.i.i.i.i.i
  %.pr.i.i.i.i.i = load ptr, ptr %logger_configs.i.i.i.i, align 8, !alias.scope !53, !noalias !56
  br label %invoke.cont.i.i.i.i.i

invoke.cont.i.i.i.i.i:                            ; preds = %invoke.contthread-pre-split.i.i.i.i.i, %for.body
  %4 = phi ptr [ %.pr.i.i.i.i.i, %invoke.contthread-pre-split.i.i.i.i.i ], [ %0, %for.body ]
  %tobool.not.i.i.i.i.i.i.i = icmp eq ptr %4, null
  br i1 %tobool.not.i.i.i.i.i.i.i, label %_ZNSt6vectorISt10unique_ptrIN9grpc_core12experimental18AuditLoggerFactory6ConfigESt14default_deleteIS4_EESaIS7_EED2Ev.exit.i.i.i.i, label %if.then.i.i.i.i.i.i.i

if.then.i.i.i.i.i.i.i:                            ; preds = %invoke.cont.i.i.i.i.i
  tail call void @_ZdlPv(ptr noundef nonnull %4) #24
  br label %_ZNSt6vectorISt10unique_ptrIN9grpc_core12experimental18AuditLoggerFactory6ConfigESt14default_deleteIS4_EESaIS7_EED2Ev.exit.i.i.i.i

_ZNSt6vectorISt10unique_ptrIN9grpc_core12experimental18AuditLoggerFactory6ConfigESt14default_deleteIS4_EESaIS7_EED2Ev.exit.i.i.i.i: ; preds = %if.then.i.i.i.i.i.i.i, %invoke.cont.i.i.i.i.i
  %policies.i.i.i.i = getelementptr inbounds i8, ptr %__first.addr.07, i64 40
  %_M_parent.i.i.i.i.i.i.i.i = getelementptr inbounds i8, ptr %__first.addr.07, i64 56
  %5 = load ptr, ptr %_M_parent.i.i.i.i.i.i.i.i, align 8, !alias.scope !53, !noalias !56
  invoke void @_ZNSt8_Rb_treeINSt7__cxx1112basic_stringIcSt11char_traitsIcESaIcEEESt4pairIKS5_N9grpc_core4Rbac6PolicyEESt10_Select1stISB_ESt4lessIS5_ESaISB_EE8_M_eraseEPSt13_Rb_tree_nodeISB_E(ptr noundef nonnull align 8 dereferenceable(48) %policies.i.i.i.i, ptr noundef %5)
          to label %_ZSt19__relocate_object_aIN9grpc_core4RbacES1_SaIS1_EEvPT_PT0_RT1_.exit unwind label %terminate.lpad.i.i.i.i.i.i

terminate.lpad.i.i.i.i.i.i:                       ; preds = %_ZNSt6vectorISt10unique_ptrIN9grpc_core12experimental18AuditLoggerFactory6ConfigESt14default_deleteIS4_EESaIS7_EED2Ev.exit.i.i.i.i
  %6 = landingpad { ptr, i32 }
          catch ptr null
  %7 = extractvalue { ptr, i32 } %6, 0
  tail call void @__clang_call_terminate(ptr %7) #23
  unreachable

_ZSt19__relocate_object_aIN9grpc_core4RbacES1_SaIS1_EEvPT_PT0_RT1_.exit: ; preds = %_ZNSt6vectorISt10unique_ptrIN9grpc_core12experimental18AuditLoggerFactory6ConfigESt14default_deleteIS4_EESaIS7_EED2Ev.exit.i.i.i.i
  tail call void @_ZNSt7__cxx1112basic_stringIcSt11char_traitsIcESaIcEED1Ev(ptr noundef nonnull align 8 dereferenceable(32) %__first.addr.07) #22
  %incdec.ptr = getelementptr inbounds i8, ptr %__first.addr.07, i64 120
  %incdec.ptr1 = getelementptr inbounds i8, ptr %__cur.08, i64 120
  %cmp.not = icmp eq ptr %incdec.ptr, %__last
  br i1 %cmp.not, label %for.end, label %for.body, !llvm.loop !58

for.end:                                          ; preds = %_ZSt19__relocate_object_aIN9grpc_core4RbacES1_SaIS1_EEvPT_PT0_RT1_.exit, %entry
  %__cur.0.lcssa = phi ptr [ %__result, %entry ], [ %incdec.ptr1, %_ZSt19__relocate_object_aIN9grpc_core4RbacES1_SaIS1_EEvPT_PT0_RT1_.exit ]
  ret ptr %__cur.0.lcssa
}

; Function Attrs: nounwind
declare void @_ZN9grpc_core4RbacC1EOS0_(ptr noundef nonnull align 8 dereferenceable(120), ptr noundef nonnull align 8 dereferenceable(120)) unnamed_addr #1

; Function Attrs: mustprogress uwtable
define linkonce_odr void @_ZNSt6vectorIN9grpc_core4RbacESaIS1_EE17_M_realloc_insertIJS1_EEEvN9__gnu_cxx17__normal_iteratorIPS1_S3_EEDpOT_(ptr noundef nonnull align 8 dereferenceable(24) %this, ptr %__position.coerce, ptr noundef nonnull align 8 dereferenceable(120) %__args) local_unnamed_addr #3 comdat align 2 personality ptr @__gxx_personality_v0 {
entry:
  %_M_finish.i.i = getelementptr inbounds i8, ptr %this, i64 8
  %0 = load ptr, ptr %_M_finish.i.i, align 8
  %1 = load ptr, ptr %this, align 8
  %sub.ptr.lhs.cast.i.i = ptrtoint ptr %0 to i64
  %sub.ptr.rhs.cast.i.i = ptrtoint ptr %1 to i64
  %sub.ptr.sub.i.i = sub i64 %sub.ptr.lhs.cast.i.i, %sub.ptr.rhs.cast.i.i
  %cmp.i = icmp eq i64 %sub.ptr.sub.i.i, 9223372036854775800
  br i1 %cmp.i, label %if.then.i, label %_ZNKSt6vectorIN9grpc_core4RbacESaIS1_EE12_M_check_lenEmPKc.exit

if.then.i:                                        ; preds = %entry
  tail call void @_ZSt20__throw_length_errorPKc(ptr noundef nonnull @.str.33) #20
  unreachable

_ZNKSt6vectorIN9grpc_core4RbacESaIS1_EE12_M_check_lenEmPKc.exit: ; preds = %entry
  %sub.ptr.div.i.i = sdiv exact i64 %sub.ptr.sub.i.i, 120
  %.sroa.speculated.i = tail call i64 @llvm.umax.i64(i64 %sub.ptr.div.i.i, i64 1)
  %add.i = add i64 %.sroa.speculated.i, %sub.ptr.div.i.i
  %cmp7.i = icmp ult i64 %add.i, %sub.ptr.div.i.i
  %cmp9.i = icmp ugt i64 %add.i, 76861433640456465
  %or.cond.i = or i1 %cmp7.i, %cmp9.i
  %cond.i = select i1 %or.cond.i, i64 76861433640456465, i64 %add.i
  %sub.ptr.lhs.cast.i = ptrtoint ptr %__position.coerce to i64
  %sub.ptr.sub.i = sub i64 %sub.ptr.lhs.cast.i, %sub.ptr.rhs.cast.i.i
  %sub.ptr.div.i = sdiv exact i64 %sub.ptr.sub.i, 120
  %cmp.not.i = icmp eq i64 %cond.i, 0
  br i1 %cmp.not.i, label %_ZNSt12_Vector_baseIN9grpc_core4RbacESaIS1_EE11_M_allocateEm.exit, label %_ZNSt16allocator_traitsISaIN9grpc_core4RbacEEE8allocateERS2_m.exit.i

_ZNSt16allocator_traitsISaIN9grpc_core4RbacEEE8allocateERS2_m.exit.i: ; preds = %_ZNKSt6vectorIN9grpc_core4RbacESaIS1_EE12_M_check_lenEmPKc.exit
  %mul.i.i.i = mul nuw nsw i64 %cond.i, 120
  %call5.i.i.i = tail call noalias noundef nonnull ptr @_Znwm(i64 noundef %mul.i.i.i) #21
  br label %_ZNSt12_Vector_baseIN9grpc_core4RbacESaIS1_EE11_M_allocateEm.exit

_ZNSt12_Vector_baseIN9grpc_core4RbacESaIS1_EE11_M_allocateEm.exit: ; preds = %_ZNKSt6vectorIN9grpc_core4RbacESaIS1_EE12_M_check_lenEmPKc.exit, %_ZNSt16allocator_traitsISaIN9grpc_core4RbacEEE8allocateERS2_m.exit.i
  %cond.i10 = phi ptr [ %call5.i.i.i, %_ZNSt16allocator_traitsISaIN9grpc_core4RbacEEE8allocateERS2_m.exit.i ], [ null, %_ZNKSt6vectorIN9grpc_core4RbacESaIS1_EE12_M_check_lenEmPKc.exit ]
  %add.ptr = getelementptr inbounds %"struct.grpc_core::Rbac", ptr %cond.i10, i64 %sub.ptr.div.i
  tail call void @_ZN9grpc_core4RbacC1EOS0_(ptr noundef nonnull align 8 dereferenceable(120) %add.ptr, ptr noundef nonnull align 8 dereferenceable(120) %__args) #22
  %call3.i.i = tail call noundef ptr @_ZSt14__relocate_a_1IPN9grpc_core4RbacES2_SaIS1_EET0_T_S5_S4_RT1_(ptr noundef %1, ptr noundef %__position.coerce, ptr noundef %cond.i10, ptr noundef nonnull align 1 dereferenceable(1) %this) #22
  %incdec.ptr = getelementptr inbounds i8, ptr %call3.i.i, i64 120
  %call3.i.i11 = tail call noundef ptr @_ZSt14__relocate_a_1IPN9grpc_core4RbacES2_SaIS1_EET0_T_S5_S4_RT1_(ptr noundef %__position.coerce, ptr noundef %0, ptr noundef nonnull %incdec.ptr, ptr noundef nonnull align 1 dereferenceable(1) %this) #22
  %tobool.not.i = icmp eq ptr %1, null
  br i1 %tobool.not.i, label %_ZNSt12_Vector_baseIN9grpc_core4RbacESaIS1_EE13_M_deallocateEPS1_m.exit, label %if.then.i12

if.then.i12:                                      ; preds = %_ZNSt12_Vector_baseIN9grpc_core4RbacESaIS1_EE11_M_allocateEm.exit
  tail call void @_ZdlPv(ptr noundef nonnull %1) #24
  br label %_ZNSt12_Vector_baseIN9grpc_core4RbacESaIS1_EE13_M_deallocateEPS1_m.exit

_ZNSt12_Vector_baseIN9grpc_core4RbacESaIS1_EE13_M_deallocateEPS1_m.exit: ; preds = %_ZNSt12_Vector_baseIN9grpc_core4RbacESaIS1_EE11_M_allocateEm.exit, %if.then.i12
  %_M_end_of_storage = getelementptr inbounds i8, ptr %this, i64 16
  store ptr %cond.i10, ptr %this, align 8
  store ptr %call3.i.i11, ptr %_M_finish.i.i, align 8
  %add.ptr19 = getelementptr inbounds %"struct.grpc_core::Rbac", ptr %cond.i10, i64 %cond.i
  store ptr %add.ptr19, ptr %_M_end_of_storage, align 8
  ret void
}

; Function Attrs: nounwind
declare void @_ZNSaIcEC1Ev(ptr noundef nonnull align 1 dereferenceable(1)) unnamed_addr #1

declare void @_ZN9grpc_core4RbacC1ENSt7__cxx1112basic_stringIcSt11char_traitsIcESaIcEEENS0_6ActionESt3mapIS6_NS0_6PolicyESt4lessIS6_ESaISt4pairIKS6_S9_EEE(ptr noundef nonnull align 8 dereferenceable(120), ptr noundef, i32 noundef, ptr noundef) unnamed_addr #0

; Function Attrs: mustprogress nounwind uwtable
define linkonce_odr void @_ZNSt3mapINSt7__cxx1112basic_stringIcSt11char_traitsIcESaIcEEEN9grpc_core4Rbac6PolicyESt4lessIS5_ESaISt4pairIKS5_S8_EEED2Ev(ptr noundef nonnull align 8 dereferenceable(48) %this) unnamed_addr #5 comdat align 2 personality ptr @__gxx_personality_v0 {
entry:
  %_M_parent.i.i.i = getelementptr inbounds i8, ptr %this, i64 16
  %0 = load ptr, ptr %_M_parent.i.i.i, align 8
  invoke void @_ZNSt8_Rb_treeINSt7__cxx1112basic_stringIcSt11char_traitsIcESaIcEEESt4pairIKS5_N9grpc_core4Rbac6PolicyEESt10_Select1stISB_ESt4lessIS5_ESaISB_EE8_M_eraseEPSt13_Rb_tree_nodeISB_E(ptr noundef nonnull align 8 dereferenceable(48) %this, ptr noundef %0)
          to label %_ZNSt8_Rb_treeINSt7__cxx1112basic_stringIcSt11char_traitsIcESaIcEEESt4pairIKS5_N9grpc_core4Rbac6PolicyEESt10_Select1stISB_ESt4lessIS5_ESaISB_EED2Ev.exit unwind label %terminate.lpad.i

terminate.lpad.i:                                 ; preds = %entry
  %1 = landingpad { ptr, i32 }
          catch ptr null
  %2 = extractvalue { ptr, i32 } %1, 0
  tail call void @__clang_call_terminate(ptr %2) #23
  unreachable

_ZNSt8_Rb_treeINSt7__cxx1112basic_stringIcSt11char_traitsIcESaIcEEESt4pairIKS5_N9grpc_core4Rbac6PolicyEESt10_Select1stISB_ESt4lessIS5_ESaISB_EED2Ev.exit: ; preds = %entry
  ret void
}

; Function Attrs: nounwind
declare void @_ZNSt7__cxx1112basic_stringIcSt11char_traitsIcESaIcEED1Ev(ptr noundef nonnull align 8 dereferenceable(32)) unnamed_addr #1

; Function Attrs: nounwind
declare void @_ZNSaIcED1Ev(ptr noundef nonnull align 1 dereferenceable(1)) unnamed_addr #1

declare noundef ptr @_ZNSt7__cxx1112basic_stringIcSt11char_traitsIcESaIcEE13_M_local_dataEv(ptr noundef nonnull align 8 dereferenceable(32)) local_unnamed_addr #0

declare void @_ZNSt7__cxx1112basic_stringIcSt11char_traitsIcESaIcEE12_Alloc_hiderC1EPcRKS3_(ptr noundef nonnull align 8 dereferenceable(8), ptr noundef, ptr noundef nonnull align 1 dereferenceable(1)) unnamed_addr #0

; Function Attrs: mustprogress uwtable
define linkonce_odr void @_ZNSt7__cxx1112basic_stringIcSt11char_traitsIcESaIcEE12_M_constructIPKcEEvT_S8_St20forward_iterator_tag(ptr noundef nonnull align 8 dereferenceable(32) %this, ptr noundef %__beg, ptr noundef %__end) local_unnamed_addr #3 comdat align 2 personality ptr @__gxx_personality_v0 {
entry:
  %__dnew = alloca i64, align 8
  %__guard = alloca %struct._Guard, align 8
  %sub.ptr.lhs.cast.i.i = ptrtoint ptr %__end to i64
  %sub.ptr.rhs.cast.i.i = ptrtoint ptr %__beg to i64
  %sub.ptr.sub.i.i = sub i64 %sub.ptr.lhs.cast.i.i, %sub.ptr.rhs.cast.i.i
  store i64 %sub.ptr.sub.i.i, ptr %__dnew, align 8
  %cmp = icmp ugt i64 %sub.ptr.sub.i.i, 15
  br i1 %cmp, label %if.then, label %if.else

if.then:                                          ; preds = %entry
  %call2 = call noundef ptr @_ZNSt7__cxx1112basic_stringIcSt11char_traitsIcESaIcEE9_M_createERmm(ptr noundef nonnull align 8 dereferenceable(32) %this, ptr noundef nonnull align 8 dereferenceable(8) %__dnew, i64 noundef 0)
  call void @_ZNSt7__cxx1112basic_stringIcSt11char_traitsIcESaIcEE7_M_dataEPc(ptr noundef nonnull align 8 dereferenceable(32) %this, ptr noundef %call2)
  %0 = load i64, ptr %__dnew, align 8
  call void @_ZNSt7__cxx1112basic_stringIcSt11char_traitsIcESaIcEE11_M_capacityEm(ptr noundef nonnull align 8 dereferenceable(32) %this, i64 noundef %0)
  br label %if.end

if.else:                                          ; preds = %entry
  %call.i = invoke noundef ptr @_ZNSt7__cxx1112basic_stringIcSt11char_traitsIcESaIcEE13_M_local_dataEv(ptr noundef nonnull align 8 dereferenceable(32) %this)
          to label %if.end unwind label %terminate.lpad.i

terminate.lpad.i:                                 ; preds = %if.else
  %1 = landingpad { ptr, i32 }
          catch ptr null
  %2 = extractvalue { ptr, i32 } %1, 0
  tail call void @__clang_call_terminate(ptr %2) #23
  unreachable

if.end:                                           ; preds = %if.else, %if.then
  store ptr %this, ptr %__guard, align 8
  %call4 = invoke noundef ptr @_ZNKSt7__cxx1112basic_stringIcSt11char_traitsIcESaIcEE7_M_dataEv(ptr noundef nonnull align 8 dereferenceable(32) %this)
          to label %invoke.cont unwind label %lpad

invoke.cont:                                      ; preds = %if.end
  call void @_ZNSt7__cxx1112basic_stringIcSt11char_traitsIcESaIcEE13_S_copy_charsEPcPKcS7_(ptr noundef %call4, ptr noundef %__beg, ptr noundef %__end) #22
  store ptr null, ptr %__guard, align 8
  %3 = load i64, ptr %__dnew, align 8
  invoke void @_ZNSt7__cxx1112basic_stringIcSt11char_traitsIcESaIcEE13_M_set_lengthEm(ptr noundef nonnull align 8 dereferenceable(32) %this, i64 noundef %3)
          to label %_ZZNSt7__cxx1112basic_stringIcSt11char_traitsIcESaIcEE12_M_constructIPKcEEvT_S8_St20forward_iterator_tagEN6_GuardD2Ev.exit unwind label %lpad

_ZZNSt7__cxx1112basic_stringIcSt11char_traitsIcESaIcEE12_M_constructIPKcEEvT_S8_St20forward_iterator_tagEN6_GuardD2Ev.exit: ; preds = %invoke.cont
  ret void

lpad:                                             ; preds = %invoke.cont, %if.end
  %4 = landingpad { ptr, i32 }
          cleanup
  call void @_ZZNSt7__cxx1112basic_stringIcSt11char_traitsIcESaIcEE12_M_constructIPKcEEvT_S8_St20forward_iterator_tagEN6_GuardD2Ev(ptr noundef nonnull align 8 dereferenceable(8) %__guard) #22
  resume { ptr, i32 } %4
}

declare void @_ZNSt7__cxx1112basic_stringIcSt11char_traitsIcESaIcEE7_M_dataEPc(ptr noundef nonnull align 8 dereferenceable(32), ptr noundef) local_unnamed_addr #0

declare noundef ptr @_ZNSt7__cxx1112basic_stringIcSt11char_traitsIcESaIcEE9_M_createERmm(ptr noundef nonnull align 8 dereferenceable(32), ptr noundef nonnull align 8 dereferenceable(8), i64 noundef) local_unnamed_addr #0

declare void @_ZNSt7__cxx1112basic_stringIcSt11char_traitsIcESaIcEE11_M_capacityEm(ptr noundef nonnull align 8 dereferenceable(32), i64 noundef) local_unnamed_addr #0

; Function Attrs: nounwind
declare void @_ZNSt7__cxx1112basic_stringIcSt11char_traitsIcESaIcEE13_S_copy_charsEPcPKcS7_(ptr noundef, ptr noundef, ptr noundef) local_unnamed_addr #1

declare noundef ptr @_ZNKSt7__cxx1112basic_stringIcSt11char_traitsIcESaIcEE7_M_dataEv(ptr noundef nonnull align 8 dereferenceable(32)) local_unnamed_addr #0

declare void @_ZNSt7__cxx1112basic_stringIcSt11char_traitsIcESaIcEE13_M_set_lengthEm(ptr noundef nonnull align 8 dereferenceable(32), i64 noundef) local_unnamed_addr #0

; Function Attrs: mustprogress nounwind uwtable
define linkonce_odr void @_ZZNSt7__cxx1112basic_stringIcSt11char_traitsIcESaIcEE12_M_constructIPKcEEvT_S8_St20forward_iterator_tagEN6_GuardD2Ev(ptr noundef nonnull align 8 dereferenceable(8) %this) unnamed_addr #5 comdat align 2 personality ptr @__gxx_personality_v0 {
entry:
  %0 = load ptr, ptr %this, align 8
  %tobool.not = icmp eq ptr %0, null
  br i1 %tobool.not, label %if.end, label %if.then

if.then:                                          ; preds = %entry
  invoke void @_ZNSt7__cxx1112basic_stringIcSt11char_traitsIcESaIcEE10_M_disposeEv(ptr noundef nonnull align 8 dereferenceable(32) %0)
          to label %if.end unwind label %terminate.lpad

if.end:                                           ; preds = %if.then, %entry
  ret void

terminate.lpad:                                   ; preds = %if.then
  %1 = landingpad { ptr, i32 }
          catch ptr null
  %2 = extractvalue { ptr, i32 } %1, 0
  tail call void @__clang_call_terminate(ptr %2) #23
  unreachable
}

declare void @_ZNSt7__cxx1112basic_stringIcSt11char_traitsIcESaIcEE10_M_disposeEv(ptr noundef nonnull align 8 dereferenceable(32)) local_unnamed_addr #0

; Function Attrs: nounwind
declare void @_ZNSaIcED2Ev(ptr noundef nonnull align 1 dereferenceable(1)) unnamed_addr #1

; Function Attrs: mustprogress uwtable
define linkonce_odr void @_ZNSt8_Rb_treeINSt7__cxx1112basic_stringIcSt11char_traitsIcESaIcEEESt4pairIKS5_N9grpc_core4Rbac6PolicyEESt10_Select1stISB_ESt4lessIS5_ESaISB_EE8_M_eraseEPSt13_Rb_tree_nodeISB_E(ptr noundef nonnull align 8 dereferenceable(48) %this, ptr noundef %__x) local_unnamed_addr #3 comdat align 2 personality ptr @__gxx_personality_v0 {
entry:
  %cmp.not4 = icmp eq ptr %__x, null
  br i1 %cmp.not4, label %while.end, label %while.body

while.body:                                       ; preds = %entry, %while.body
  %__x.addr.05 = phi ptr [ %1, %while.body ], [ %__x, %entry ]
  %_M_right.i = getelementptr inbounds i8, ptr %__x.addr.05, i64 24
  %0 = load ptr, ptr %_M_right.i, align 8
  tail call void @_ZNSt8_Rb_treeINSt7__cxx1112basic_stringIcSt11char_traitsIcESaIcEEESt4pairIKS5_N9grpc_core4Rbac6PolicyEESt10_Select1stISB_ESt4lessIS5_ESaISB_EE8_M_eraseEPSt13_Rb_tree_nodeISB_E(ptr noundef nonnull align 8 dereferenceable(48) %this, ptr noundef %0)
  %_M_left.i = getelementptr inbounds i8, ptr %__x.addr.05, i64 16
  %1 = load ptr, ptr %_M_left.i, align 8
  %_M_storage.i.i.i = getelementptr inbounds i8, ptr %__x.addr.05, i64 32
  %second.i.i.i.i.i = getelementptr inbounds i8, ptr %__x.addr.05, i64 64
  %principals.i.i.i.i.i.i = getelementptr inbounds i8, ptr %__x.addr.05, i64 328
  tail call void @_ZN9grpc_core4Rbac9PrincipalD2Ev(ptr noundef nonnull align 8 dereferenceable(257) %principals.i.i.i.i.i.i) #22
  tail call void @_ZN9grpc_core4Rbac10PermissionD2Ev(ptr noundef nonnull align 8 dereferenceable(257) %second.i.i.i.i.i) #22
  tail call void @_ZNSt7__cxx1112basic_stringIcSt11char_traitsIcESaIcEED1Ev(ptr noundef nonnull align 8 dereferenceable(32) %_M_storage.i.i.i) #22
  tail call void @_ZdlPv(ptr noundef nonnull %__x.addr.05) #24
  %cmp.not = icmp eq ptr %1, null
  br i1 %cmp.not, label %while.end, label %while.body, !llvm.loop !59

while.end:                                        ; preds = %while.body, %entry
  ret void
}

; Function Attrs: mustprogress nounwind uwtable
define linkonce_odr void @_ZN9grpc_core4Rbac9PrincipalD2Ev(ptr noundef nonnull align 8 dereferenceable(257) %this) unnamed_addr #5 comdat align 2 personality ptr @__gxx_personality_v0 {
entry:
  %principals = getelementptr inbounds i8, ptr %this, i64 232
  %0 = load ptr, ptr %principals, align 8
  %_M_finish.i = getelementptr inbounds i8, ptr %this, i64 240
  %1 = load ptr, ptr %_M_finish.i, align 8
  %cmp.not.i2 = icmp eq ptr %0, %1
  br i1 %cmp.not.i2, label %_ZNSt6vectorISt10unique_ptrIN9grpc_core4Rbac9PrincipalESt14default_deleteIS3_EESaIS6_EED2Ev.exit, label %for.body.i

for.body.i:                                       ; preds = %entry, %_ZNSt10unique_ptrIN9grpc_core4Rbac9PrincipalESt14default_deleteIS2_EED2Ev.exit.i
  %__first.addr.0.i3 = phi ptr [ %incdec.ptr.i, %_ZNSt10unique_ptrIN9grpc_core4Rbac9PrincipalESt14default_deleteIS2_EED2Ev.exit.i ], [ %0, %entry ]
  %2 = load ptr, ptr %__first.addr.0.i3, align 8
  %cmp.not.i.i = icmp eq ptr %2, null
  br i1 %cmp.not.i.i, label %_ZNSt10unique_ptrIN9grpc_core4Rbac9PrincipalESt14default_deleteIS2_EED2Ev.exit.i, label %_ZNKSt14default_deleteIN9grpc_core4Rbac9PrincipalEEclEPS2_.exit.i.i

_ZNKSt14default_deleteIN9grpc_core4Rbac9PrincipalEEclEPS2_.exit.i.i: ; preds = %for.body.i
  tail call void @_ZN9grpc_core4Rbac9PrincipalD2Ev(ptr noundef nonnull align 8 dereferenceable(257) %2) #22
  tail call void @_ZdlPv(ptr noundef nonnull %2) #24
  br label %_ZNSt10unique_ptrIN9grpc_core4Rbac9PrincipalESt14default_deleteIS2_EED2Ev.exit.i

_ZNSt10unique_ptrIN9grpc_core4Rbac9PrincipalESt14default_deleteIS2_EED2Ev.exit.i: ; preds = %_ZNKSt14default_deleteIN9grpc_core4Rbac9PrincipalEEclEPS2_.exit.i.i, %for.body.i
  store ptr null, ptr %__first.addr.0.i3, align 8
  %incdec.ptr.i = getelementptr inbounds i8, ptr %__first.addr.0.i3, i64 8
  %cmp.not.i = icmp eq ptr %incdec.ptr.i, %1
  br i1 %cmp.not.i, label %_ZNSt6vectorISt10unique_ptrIN9grpc_core4Rbac9PrincipalESt14default_deleteIS3_EESaIS6_EED2Ev.exit.loopexit, label %for.body.i, !llvm.loop !44

_ZNSt6vectorISt10unique_ptrIN9grpc_core4Rbac9PrincipalESt14default_deleteIS3_EESaIS6_EED2Ev.exit.loopexit: ; preds = %_ZNSt10unique_ptrIN9grpc_core4Rbac9PrincipalESt14default_deleteIS2_EED2Ev.exit.i
  %.pre = load ptr, ptr %principals, align 8
  br label %_ZNSt6vectorISt10unique_ptrIN9grpc_core4Rbac9PrincipalESt14default_deleteIS3_EESaIS6_EED2Ev.exit

_ZNSt6vectorISt10unique_ptrIN9grpc_core4Rbac9PrincipalESt14default_deleteIS3_EESaIS6_EED2Ev.exit: ; preds = %_ZNSt6vectorISt10unique_ptrIN9grpc_core4Rbac9PrincipalESt14default_deleteIS3_EESaIS6_EED2Ev.exit.loopexit, %entry
  %3 = phi ptr [ %.pre, %_ZNSt6vectorISt10unique_ptrIN9grpc_core4Rbac9PrincipalESt14default_deleteIS3_EESaIS6_EED2Ev.exit.loopexit ], [ %0, %entry ]
  %tobool.not.i.i = icmp eq ptr %3, null
  br i1 %tobool.not.i.i, label %_ZNSt12_Vector_baseISt10unique_ptrIN9grpc_core4Rbac9PrincipalESt14default_deleteIS3_EESaIS6_EED2Ev.exit, label %if.then.i.i

if.then.i.i:                                      ; preds = %_ZNSt6vectorISt10unique_ptrIN9grpc_core4Rbac9PrincipalESt14default_deleteIS3_EESaIS6_EED2Ev.exit
  tail call void @_ZdlPv(ptr noundef nonnull %3) #24
  br label %_ZNSt12_Vector_baseISt10unique_ptrIN9grpc_core4Rbac9PrincipalESt14default_deleteIS3_EESaIS6_EED2Ev.exit

_ZNSt12_Vector_baseISt10unique_ptrIN9grpc_core4Rbac9PrincipalESt14default_deleteIS3_EESaIS6_EED2Ev.exit: ; preds = %_ZNSt6vectorISt10unique_ptrIN9grpc_core4Rbac9PrincipalESt14default_deleteIS3_EESaIS6_EED2Ev.exit, %if.then.i.i
  %ip = getelementptr inbounds i8, ptr %this, i64 192
  tail call void @_ZNSt7__cxx1112basic_stringIcSt11char_traitsIcESaIcEED1Ev(ptr noundef nonnull align 8 dereferenceable(32) %ip) #22
  %_M_engaged.i.i.i.i = getelementptr inbounds i8, ptr %this, i64 184
  %4 = load i8, ptr %_M_engaged.i.i.i.i, align 8
  %5 = and i8 %4, 1
  %tobool.not.i.i.i.i = icmp eq i8 %5, 0
  br i1 %tobool.not.i.i.i.i, label %_ZNSt8optionalIN9grpc_core13StringMatcherEED2Ev.exit, label %if.then.i.i.i.i

if.then.i.i.i.i:                                  ; preds = %_ZNSt12_Vector_baseISt10unique_ptrIN9grpc_core4Rbac9PrincipalESt14default_deleteIS3_EESaIS6_EED2Ev.exit
  store i8 0, ptr %_M_engaged.i.i.i.i, align 8
  %regex_matcher_.i.i.i.i.i.i = getelementptr inbounds i8, ptr %this, i64 168
  %6 = load ptr, ptr %regex_matcher_.i.i.i.i.i.i, align 8
  %cmp.not.i.i.i.i.i.i.i = icmp eq ptr %6, null
  br i1 %cmp.not.i.i.i.i.i.i.i, label %_ZNSt22_Optional_payload_baseIN9grpc_core13StringMatcherEE10_M_destroyEv.exit.i.i.i.i, label %_ZNKSt14default_deleteIN3re23RE2EEclEPS1_.exit.i.i.i.i.i.i.i

_ZNKSt14default_deleteIN3re23RE2EEclEPS1_.exit.i.i.i.i.i.i.i: ; preds = %if.then.i.i.i.i
  tail call void @_ZN3re23RE2D1Ev(ptr noundef nonnull align 8 dereferenceable(212) %6) #22
  tail call void @_ZdlPv(ptr noundef nonnull %6) #24
  br label %_ZNSt22_Optional_payload_baseIN9grpc_core13StringMatcherEE10_M_destroyEv.exit.i.i.i.i

_ZNSt22_Optional_payload_baseIN9grpc_core13StringMatcherEE10_M_destroyEv.exit.i.i.i.i: ; preds = %_ZNKSt14default_deleteIN3re23RE2EEclEPS1_.exit.i.i.i.i.i.i.i, %if.then.i.i.i.i
  store ptr null, ptr %regex_matcher_.i.i.i.i.i.i, align 8
  %string_matcher_.i.i.i.i.i.i = getelementptr inbounds i8, ptr %this, i64 136
  tail call void @_ZNSt7__cxx1112basic_stringIcSt11char_traitsIcESaIcEED1Ev(ptr noundef nonnull align 8 dereferenceable(32) %string_matcher_.i.i.i.i.i.i) #22
  br label %_ZNSt8optionalIN9grpc_core13StringMatcherEED2Ev.exit

_ZNSt8optionalIN9grpc_core13StringMatcherEED2Ev.exit: ; preds = %_ZNSt12_Vector_baseISt10unique_ptrIN9grpc_core4Rbac9PrincipalESt14default_deleteIS3_EESaIS6_EED2Ev.exit, %_ZNSt22_Optional_payload_baseIN9grpc_core13StringMatcherEE10_M_destroyEv.exit.i.i.i.i
  %regex_matcher_.i.i = getelementptr inbounds i8, ptr %this, i64 88
  %7 = load ptr, ptr %regex_matcher_.i.i, align 8
  %cmp.not.i.i.i = icmp eq ptr %7, null
  br i1 %cmp.not.i.i.i, label %_ZN9grpc_core13HeaderMatcherD2Ev.exit, label %_ZNKSt14default_deleteIN3re23RE2EEclEPS1_.exit.i.i.i

_ZNKSt14default_deleteIN3re23RE2EEclEPS1_.exit.i.i.i: ; preds = %_ZNSt8optionalIN9grpc_core13StringMatcherEED2Ev.exit
  tail call void @_ZN3re23RE2D1Ev(ptr noundef nonnull align 8 dereferenceable(212) %7) #22
  tail call void @_ZdlPv(ptr noundef nonnull %7) #24
  br label %_ZN9grpc_core13HeaderMatcherD2Ev.exit

_ZN9grpc_core13HeaderMatcherD2Ev.exit:            ; preds = %_ZNSt8optionalIN9grpc_core13StringMatcherEED2Ev.exit, %_ZNKSt14default_deleteIN3re23RE2EEclEPS1_.exit.i.i.i
  %header_matcher = getelementptr inbounds i8, ptr %this, i64 8
  store ptr null, ptr %regex_matcher_.i.i, align 8
  %string_matcher_.i.i = getelementptr inbounds i8, ptr %this, i64 56
  tail call void @_ZNSt7__cxx1112basic_stringIcSt11char_traitsIcESaIcEED1Ev(ptr noundef nonnull align 8 dereferenceable(32) %string_matcher_.i.i) #22
  tail call void @_ZNSt7__cxx1112basic_stringIcSt11char_traitsIcESaIcEED1Ev(ptr noundef nonnull align 8 dereferenceable(32) %header_matcher) #22
  ret void
}

; Function Attrs: mustprogress nounwind uwtable
define linkonce_odr void @_ZN9grpc_core4Rbac10PermissionD2Ev(ptr noundef nonnull align 8 dereferenceable(257) %this) unnamed_addr #5 comdat align 2 personality ptr @__gxx_personality_v0 {
entry:
  %permissions = getelementptr inbounds i8, ptr %this, i64 232
  %0 = load ptr, ptr %permissions, align 8
  %_M_finish.i = getelementptr inbounds i8, ptr %this, i64 240
  %1 = load ptr, ptr %_M_finish.i, align 8
  %cmp.not.i3 = icmp eq ptr %0, %1
  br i1 %cmp.not.i3, label %_ZNSt6vectorISt10unique_ptrIN9grpc_core4Rbac10PermissionESt14default_deleteIS3_EESaIS6_EED2Ev.exit, label %for.body.i

for.body.i:                                       ; preds = %entry, %_ZNSt10unique_ptrIN9grpc_core4Rbac10PermissionESt14default_deleteIS2_EED2Ev.exit.i
  %__first.addr.0.i4 = phi ptr [ %incdec.ptr.i, %_ZNSt10unique_ptrIN9grpc_core4Rbac10PermissionESt14default_deleteIS2_EED2Ev.exit.i ], [ %0, %entry ]
  %2 = load ptr, ptr %__first.addr.0.i4, align 8
  %cmp.not.i.i1 = icmp eq ptr %2, null
  br i1 %cmp.not.i.i1, label %_ZNSt10unique_ptrIN9grpc_core4Rbac10PermissionESt14default_deleteIS2_EED2Ev.exit.i, label %_ZNKSt14default_deleteIN9grpc_core4Rbac10PermissionEEclEPS2_.exit.i.i

_ZNKSt14default_deleteIN9grpc_core4Rbac10PermissionEEclEPS2_.exit.i.i: ; preds = %for.body.i
  tail call void @_ZN9grpc_core4Rbac10PermissionD2Ev(ptr noundef nonnull align 8 dereferenceable(257) %2) #22
  tail call void @_ZdlPv(ptr noundef nonnull %2) #24
  br label %_ZNSt10unique_ptrIN9grpc_core4Rbac10PermissionESt14default_deleteIS2_EED2Ev.exit.i

_ZNSt10unique_ptrIN9grpc_core4Rbac10PermissionESt14default_deleteIS2_EED2Ev.exit.i: ; preds = %_ZNKSt14default_deleteIN9grpc_core4Rbac10PermissionEEclEPS2_.exit.i.i, %for.body.i
  store ptr null, ptr %__first.addr.0.i4, align 8
  %incdec.ptr.i = getelementptr inbounds i8, ptr %__first.addr.0.i4, i64 8
  %cmp.not.i = icmp eq ptr %incdec.ptr.i, %1
  br i1 %cmp.not.i, label %_ZNSt6vectorISt10unique_ptrIN9grpc_core4Rbac10PermissionESt14default_deleteIS3_EESaIS6_EED2Ev.exit.loopexit, label %for.body.i, !llvm.loop !33

_ZNSt6vectorISt10unique_ptrIN9grpc_core4Rbac10PermissionESt14default_deleteIS3_EESaIS6_EED2Ev.exit.loopexit: ; preds = %_ZNSt10unique_ptrIN9grpc_core4Rbac10PermissionESt14default_deleteIS2_EED2Ev.exit.i
  %.pre = load ptr, ptr %permissions, align 8
  br label %_ZNSt6vectorISt10unique_ptrIN9grpc_core4Rbac10PermissionESt14default_deleteIS3_EESaIS6_EED2Ev.exit

_ZNSt6vectorISt10unique_ptrIN9grpc_core4Rbac10PermissionESt14default_deleteIS3_EESaIS6_EED2Ev.exit: ; preds = %_ZNSt6vectorISt10unique_ptrIN9grpc_core4Rbac10PermissionESt14default_deleteIS3_EESaIS6_EED2Ev.exit.loopexit, %entry
  %3 = phi ptr [ %.pre, %_ZNSt6vectorISt10unique_ptrIN9grpc_core4Rbac10PermissionESt14default_deleteIS3_EESaIS6_EED2Ev.exit.loopexit ], [ %0, %entry ]
  %tobool.not.i.i = icmp eq ptr %3, null
  br i1 %tobool.not.i.i, label %_ZNSt12_Vector_baseISt10unique_ptrIN9grpc_core4Rbac10PermissionESt14default_deleteIS3_EESaIS6_EED2Ev.exit, label %if.then.i.i

if.then.i.i:                                      ; preds = %_ZNSt6vectorISt10unique_ptrIN9grpc_core4Rbac10PermissionESt14default_deleteIS3_EESaIS6_EED2Ev.exit
  tail call void @_ZdlPv(ptr noundef nonnull %3) #24
  br label %_ZNSt12_Vector_baseISt10unique_ptrIN9grpc_core4Rbac10PermissionESt14default_deleteIS3_EESaIS6_EED2Ev.exit

_ZNSt12_Vector_baseISt10unique_ptrIN9grpc_core4Rbac10PermissionESt14default_deleteIS3_EESaIS6_EED2Ev.exit: ; preds = %_ZNSt6vectorISt10unique_ptrIN9grpc_core4Rbac10PermissionESt14default_deleteIS3_EESaIS6_EED2Ev.exit, %if.then.i.i
  %ip = getelementptr inbounds i8, ptr %this, i64 184
  tail call void @_ZNSt7__cxx1112basic_stringIcSt11char_traitsIcESaIcEED1Ev(ptr noundef nonnull align 8 dereferenceable(32) %ip) #22
  %regex_matcher_.i = getelementptr inbounds i8, ptr %this, i64 168
  %4 = load ptr, ptr %regex_matcher_.i, align 8
  %cmp.not.i.i = icmp eq ptr %4, null
  br i1 %cmp.not.i.i, label %_ZN9grpc_core13StringMatcherD2Ev.exit, label %_ZNKSt14default_deleteIN3re23RE2EEclEPS1_.exit.i.i

_ZNKSt14default_deleteIN3re23RE2EEclEPS1_.exit.i.i: ; preds = %_ZNSt12_Vector_baseISt10unique_ptrIN9grpc_core4Rbac10PermissionESt14default_deleteIS3_EESaIS6_EED2Ev.exit
  tail call void @_ZN3re23RE2D1Ev(ptr noundef nonnull align 8 dereferenceable(212) %4) #22
  tail call void @_ZdlPv(ptr noundef nonnull %4) #24
  br label %_ZN9grpc_core13StringMatcherD2Ev.exit

_ZN9grpc_core13StringMatcherD2Ev.exit:            ; preds = %_ZNSt12_Vector_baseISt10unique_ptrIN9grpc_core4Rbac10PermissionESt14default_deleteIS3_EESaIS6_EED2Ev.exit, %_ZNKSt14default_deleteIN3re23RE2EEclEPS1_.exit.i.i
  store ptr null, ptr %regex_matcher_.i, align 8
  %string_matcher_.i = getelementptr inbounds i8, ptr %this, i64 136
  tail call void @_ZNSt7__cxx1112basic_stringIcSt11char_traitsIcESaIcEED1Ev(ptr noundef nonnull align 8 dereferenceable(32) %string_matcher_.i) #22
  %regex_matcher_.i.i = getelementptr inbounds i8, ptr %this, i64 88
  %5 = load ptr, ptr %regex_matcher_.i.i, align 8
  %cmp.not.i.i.i = icmp eq ptr %5, null
  br i1 %cmp.not.i.i.i, label %_ZN9grpc_core13HeaderMatcherD2Ev.exit, label %_ZNKSt14default_deleteIN3re23RE2EEclEPS1_.exit.i.i.i

_ZNKSt14default_deleteIN3re23RE2EEclEPS1_.exit.i.i.i: ; preds = %_ZN9grpc_core13StringMatcherD2Ev.exit
  tail call void @_ZN3re23RE2D1Ev(ptr noundef nonnull align 8 dereferenceable(212) %5) #22
  tail call void @_ZdlPv(ptr noundef nonnull %5) #24
  br label %_ZN9grpc_core13HeaderMatcherD2Ev.exit

_ZN9grpc_core13HeaderMatcherD2Ev.exit:            ; preds = %_ZN9grpc_core13StringMatcherD2Ev.exit, %_ZNKSt14default_deleteIN3re23RE2EEclEPS1_.exit.i.i.i
  %header_matcher = getelementptr inbounds i8, ptr %this, i64 8
  store ptr null, ptr %regex_matcher_.i.i, align 8
  %string_matcher_.i.i = getelementptr inbounds i8, ptr %this, i64 56
  tail call void @_ZNSt7__cxx1112basic_stringIcSt11char_traitsIcESaIcEED1Ev(ptr noundef nonnull align 8 dereferenceable(32) %string_matcher_.i.i) #22
  tail call void @_ZNSt7__cxx1112basic_stringIcSt11char_traitsIcESaIcEED1Ev(ptr noundef nonnull align 8 dereferenceable(32) %header_matcher) #22
  ret void
}

; Function Attrs: mustprogress nounwind uwtable
define linkonce_odr void @_ZNSt6vectorISt10unique_ptrIN9grpc_core4Rbac9PrincipalESt14default_deleteIS3_EESaIS6_EED2Ev(ptr noundef nonnull align 8 dereferenceable(24) %this) unnamed_addr #5 comdat align 2 personality ptr @__gxx_personality_v0 {
entry:
  %0 = load ptr, ptr %this, align 8
  %_M_finish = getelementptr inbounds i8, ptr %this, i64 8
  %1 = load ptr, ptr %_M_finish, align 8
  %cmp.not3.i.i = icmp eq ptr %0, %1
  br i1 %cmp.not3.i.i, label %invoke.cont, label %for.body.i.i

for.body.i.i:                                     ; preds = %entry, %_ZNSt10unique_ptrIN9grpc_core4Rbac9PrincipalESt14default_deleteIS2_EED2Ev.exit.i.i
  %__first.addr.04.i.i = phi ptr [ %incdec.ptr.i.i, %_ZNSt10unique_ptrIN9grpc_core4Rbac9PrincipalESt14default_deleteIS2_EED2Ev.exit.i.i ], [ %0, %entry ]
  %2 = load ptr, ptr %__first.addr.04.i.i, align 8
  %cmp.not.i.i.i = icmp eq ptr %2, null
  br i1 %cmp.not.i.i.i, label %_ZNSt10unique_ptrIN9grpc_core4Rbac9PrincipalESt14default_deleteIS2_EED2Ev.exit.i.i, label %_ZNKSt14default_deleteIN9grpc_core4Rbac9PrincipalEEclEPS2_.exit.i.i.i

_ZNKSt14default_deleteIN9grpc_core4Rbac9PrincipalEEclEPS2_.exit.i.i.i: ; preds = %for.body.i.i
  tail call void @_ZN9grpc_core4Rbac9PrincipalD2Ev(ptr noundef nonnull align 8 dereferenceable(257) %2) #22
  tail call void @_ZdlPv(ptr noundef nonnull %2) #24
  br label %_ZNSt10unique_ptrIN9grpc_core4Rbac9PrincipalESt14default_deleteIS2_EED2Ev.exit.i.i

_ZNSt10unique_ptrIN9grpc_core4Rbac9PrincipalESt14default_deleteIS2_EED2Ev.exit.i.i: ; preds = %_ZNKSt14default_deleteIN9grpc_core4Rbac9PrincipalEEclEPS2_.exit.i.i.i, %for.body.i.i
  store ptr null, ptr %__first.addr.04.i.i, align 8
  %incdec.ptr.i.i = getelementptr inbounds i8, ptr %__first.addr.04.i.i, i64 8
  %cmp.not.i.i = icmp eq ptr %incdec.ptr.i.i, %1
  br i1 %cmp.not.i.i, label %invoke.contthread-pre-split, label %for.body.i.i, !llvm.loop !44

invoke.contthread-pre-split:                      ; preds = %_ZNSt10unique_ptrIN9grpc_core4Rbac9PrincipalESt14default_deleteIS2_EED2Ev.exit.i.i
  %.pr = load ptr, ptr %this, align 8
  br label %invoke.cont

invoke.cont:                                      ; preds = %invoke.contthread-pre-split, %entry
  %3 = phi ptr [ %.pr, %invoke.contthread-pre-split ], [ %0, %entry ]
  %tobool.not.i.i = icmp eq ptr %3, null
  br i1 %tobool.not.i.i, label %_ZNSt12_Vector_baseISt10unique_ptrIN9grpc_core4Rbac9PrincipalESt14default_deleteIS3_EESaIS6_EED2Ev.exit, label %if.then.i.i

if.then.i.i:                                      ; preds = %invoke.cont
  tail call void @_ZdlPv(ptr noundef nonnull %3) #24
  br label %_ZNSt12_Vector_baseISt10unique_ptrIN9grpc_core4Rbac9PrincipalESt14default_deleteIS3_EESaIS6_EED2Ev.exit

_ZNSt12_Vector_baseISt10unique_ptrIN9grpc_core4Rbac9PrincipalESt14default_deleteIS3_EESaIS6_EED2Ev.exit: ; preds = %invoke.cont, %if.then.i.i
  ret void
}

; Function Attrs: mustprogress nounwind uwtable
define linkonce_odr void @_ZNSt8optionalIN9grpc_core13StringMatcherEED2Ev(ptr noundef nonnull align 8 dereferenceable(64) %this) unnamed_addr #5 comdat align 2 personality ptr @__gxx_personality_v0 {
entry:
  %_M_engaged.i.i.i = getelementptr inbounds i8, ptr %this, i64 56
  %0 = load i8, ptr %_M_engaged.i.i.i, align 8
  %1 = and i8 %0, 1
  %tobool.not.i.i.i = icmp eq i8 %1, 0
  br i1 %tobool.not.i.i.i, label %_ZNSt14_Optional_baseIN9grpc_core13StringMatcherELb0ELb0EED2Ev.exit, label %if.then.i.i.i

if.then.i.i.i:                                    ; preds = %entry
  store i8 0, ptr %_M_engaged.i.i.i, align 8
  %regex_matcher_.i.i.i.i.i = getelementptr inbounds i8, ptr %this, i64 40
  %2 = load ptr, ptr %regex_matcher_.i.i.i.i.i, align 8
  %cmp.not.i.i.i.i.i.i = icmp eq ptr %2, null
  br i1 %cmp.not.i.i.i.i.i.i, label %_ZNSt22_Optional_payload_baseIN9grpc_core13StringMatcherEE10_M_destroyEv.exit.i.i.i, label %_ZNKSt14default_deleteIN3re23RE2EEclEPS1_.exit.i.i.i.i.i.i

_ZNKSt14default_deleteIN3re23RE2EEclEPS1_.exit.i.i.i.i.i.i: ; preds = %if.then.i.i.i
  tail call void @_ZN3re23RE2D1Ev(ptr noundef nonnull align 8 dereferenceable(212) %2) #22
  tail call void @_ZdlPv(ptr noundef nonnull %2) #24
  br label %_ZNSt22_Optional_payload_baseIN9grpc_core13StringMatcherEE10_M_destroyEv.exit.i.i.i

_ZNSt22_Optional_payload_baseIN9grpc_core13StringMatcherEE10_M_destroyEv.exit.i.i.i: ; preds = %_ZNKSt14default_deleteIN3re23RE2EEclEPS1_.exit.i.i.i.i.i.i, %if.then.i.i.i
  store ptr null, ptr %regex_matcher_.i.i.i.i.i, align 8
  %string_matcher_.i.i.i.i.i = getelementptr inbounds i8, ptr %this, i64 8
  tail call void @_ZNSt7__cxx1112basic_stringIcSt11char_traitsIcESaIcEED1Ev(ptr noundef nonnull align 8 dereferenceable(32) %string_matcher_.i.i.i.i.i) #22
  br label %_ZNSt14_Optional_baseIN9grpc_core13StringMatcherELb0ELb0EED2Ev.exit

_ZNSt14_Optional_baseIN9grpc_core13StringMatcherELb0ELb0EED2Ev.exit: ; preds = %entry, %_ZNSt22_Optional_payload_baseIN9grpc_core13StringMatcherEE10_M_destroyEv.exit.i.i.i
  ret void
}

; Function Attrs: mustprogress nounwind uwtable
define linkonce_odr void @_ZN9grpc_core13HeaderMatcherD2Ev(ptr noundef nonnull align 8 dereferenceable(114) %this) unnamed_addr #5 comdat align 2 personality ptr @__gxx_personality_v0 {
entry:
  %regex_matcher_.i = getelementptr inbounds i8, ptr %this, i64 80
  %0 = load ptr, ptr %regex_matcher_.i, align 8
  %cmp.not.i.i = icmp eq ptr %0, null
  br i1 %cmp.not.i.i, label %_ZN9grpc_core13StringMatcherD2Ev.exit, label %_ZNKSt14default_deleteIN3re23RE2EEclEPS1_.exit.i.i

_ZNKSt14default_deleteIN3re23RE2EEclEPS1_.exit.i.i: ; preds = %entry
  tail call void @_ZN3re23RE2D1Ev(ptr noundef nonnull align 8 dereferenceable(212) %0) #22
  tail call void @_ZdlPv(ptr noundef nonnull %0) #24
  br label %_ZN9grpc_core13StringMatcherD2Ev.exit

_ZN9grpc_core13StringMatcherD2Ev.exit:            ; preds = %entry, %_ZNKSt14default_deleteIN3re23RE2EEclEPS1_.exit.i.i
  store ptr null, ptr %regex_matcher_.i, align 8
  %string_matcher_.i = getelementptr inbounds i8, ptr %this, i64 48
  tail call void @_ZNSt7__cxx1112basic_stringIcSt11char_traitsIcESaIcEED1Ev(ptr noundef nonnull align 8 dereferenceable(32) %string_matcher_.i) #22
  tail call void @_ZNSt7__cxx1112basic_stringIcSt11char_traitsIcESaIcEED1Ev(ptr noundef nonnull align 8 dereferenceable(32) %this) #22
  ret void
}

; Function Attrs: mustprogress nounwind uwtable
define linkonce_odr void @_ZNSt10unique_ptrIN9grpc_core4Rbac9PrincipalESt14default_deleteIS2_EED2Ev(ptr noundef nonnull align 8 dereferenceable(8) %this) unnamed_addr #5 comdat align 2 personality ptr @__gxx_personality_v0 {
entry:
  %0 = load ptr, ptr %this, align 8
  %cmp.not = icmp eq ptr %0, null
  br i1 %cmp.not, label %if.end, label %_ZNKSt14default_deleteIN9grpc_core4Rbac9PrincipalEEclEPS2_.exit

_ZNKSt14default_deleteIN9grpc_core4Rbac9PrincipalEEclEPS2_.exit: ; preds = %entry
  tail call void @_ZN9grpc_core4Rbac9PrincipalD2Ev(ptr noundef nonnull align 8 dereferenceable(257) %0) #22
  tail call void @_ZdlPv(ptr noundef nonnull %0) #24
  br label %if.end

if.end:                                           ; preds = %_ZNKSt14default_deleteIN9grpc_core4Rbac9PrincipalEEclEPS2_.exit, %entry
  store ptr null, ptr %this, align 8
  ret void
}

; Function Attrs: mustprogress nounwind uwtable
define linkonce_odr void @_ZN9grpc_core13StringMatcherD2Ev(ptr noundef nonnull align 8 dereferenceable(49) %this) unnamed_addr #5 comdat align 2 personality ptr @__gxx_personality_v0 {
entry:
  %regex_matcher_ = getelementptr inbounds i8, ptr %this, i64 40
  %0 = load ptr, ptr %regex_matcher_, align 8
  %cmp.not.i = icmp eq ptr %0, null
  br i1 %cmp.not.i, label %_ZNSt10unique_ptrIN3re23RE2ESt14default_deleteIS1_EED2Ev.exit, label %_ZNKSt14default_deleteIN3re23RE2EEclEPS1_.exit.i

_ZNKSt14default_deleteIN3re23RE2EEclEPS1_.exit.i: ; preds = %entry
  tail call void @_ZN3re23RE2D1Ev(ptr noundef nonnull align 8 dereferenceable(212) %0) #22
  tail call void @_ZdlPv(ptr noundef nonnull %0) #24
  br label %_ZNSt10unique_ptrIN3re23RE2ESt14default_deleteIS1_EED2Ev.exit

_ZNSt10unique_ptrIN3re23RE2ESt14default_deleteIS1_EED2Ev.exit: ; preds = %entry, %_ZNKSt14default_deleteIN3re23RE2EEclEPS1_.exit.i
  store ptr null, ptr %regex_matcher_, align 8
  %string_matcher_ = getelementptr inbounds i8, ptr %this, i64 8
  tail call void @_ZNSt7__cxx1112basic_stringIcSt11char_traitsIcESaIcEED1Ev(ptr noundef nonnull align 8 dereferenceable(32) %string_matcher_) #22
  ret void
}

; Function Attrs: nounwind
declare void @_ZN3re23RE2D1Ev(ptr noundef nonnull align 8 dereferenceable(212)) unnamed_addr #1

; Function Attrs: mustprogress nounwind uwtable
define linkonce_odr void @_ZNSt6vectorISt10unique_ptrIN9grpc_core4Rbac10PermissionESt14default_deleteIS3_EESaIS6_EED2Ev(ptr noundef nonnull align 8 dereferenceable(24) %this) unnamed_addr #5 comdat align 2 personality ptr @__gxx_personality_v0 {
entry:
  %0 = load ptr, ptr %this, align 8
  %_M_finish = getelementptr inbounds i8, ptr %this, i64 8
  %1 = load ptr, ptr %_M_finish, align 8
  %cmp.not3.i.i = icmp eq ptr %0, %1
  br i1 %cmp.not3.i.i, label %invoke.cont, label %for.body.i.i

for.body.i.i:                                     ; preds = %entry, %_ZNSt10unique_ptrIN9grpc_core4Rbac10PermissionESt14default_deleteIS2_EED2Ev.exit.i.i
  %__first.addr.04.i.i = phi ptr [ %incdec.ptr.i.i, %_ZNSt10unique_ptrIN9grpc_core4Rbac10PermissionESt14default_deleteIS2_EED2Ev.exit.i.i ], [ %0, %entry ]
  %2 = load ptr, ptr %__first.addr.04.i.i, align 8
  %cmp.not.i.i.i = icmp eq ptr %2, null
  br i1 %cmp.not.i.i.i, label %_ZNSt10unique_ptrIN9grpc_core4Rbac10PermissionESt14default_deleteIS2_EED2Ev.exit.i.i, label %_ZNKSt14default_deleteIN9grpc_core4Rbac10PermissionEEclEPS2_.exit.i.i.i

_ZNKSt14default_deleteIN9grpc_core4Rbac10PermissionEEclEPS2_.exit.i.i.i: ; preds = %for.body.i.i
  tail call void @_ZN9grpc_core4Rbac10PermissionD2Ev(ptr noundef nonnull align 8 dereferenceable(257) %2) #22
  tail call void @_ZdlPv(ptr noundef nonnull %2) #24
  br label %_ZNSt10unique_ptrIN9grpc_core4Rbac10PermissionESt14default_deleteIS2_EED2Ev.exit.i.i

_ZNSt10unique_ptrIN9grpc_core4Rbac10PermissionESt14default_deleteIS2_EED2Ev.exit.i.i: ; preds = %_ZNKSt14default_deleteIN9grpc_core4Rbac10PermissionEEclEPS2_.exit.i.i.i, %for.body.i.i
  store ptr null, ptr %__first.addr.04.i.i, align 8
  %incdec.ptr.i.i = getelementptr inbounds i8, ptr %__first.addr.04.i.i, i64 8
  %cmp.not.i.i = icmp eq ptr %incdec.ptr.i.i, %1
  br i1 %cmp.not.i.i, label %invoke.contthread-pre-split, label %for.body.i.i, !llvm.loop !33

invoke.contthread-pre-split:                      ; preds = %_ZNSt10unique_ptrIN9grpc_core4Rbac10PermissionESt14default_deleteIS2_EED2Ev.exit.i.i
  %.pr = load ptr, ptr %this, align 8
  br label %invoke.cont

invoke.cont:                                      ; preds = %invoke.contthread-pre-split, %entry
  %3 = phi ptr [ %.pr, %invoke.contthread-pre-split ], [ %0, %entry ]
  %tobool.not.i.i = icmp eq ptr %3, null
  br i1 %tobool.not.i.i, label %_ZNSt12_Vector_baseISt10unique_ptrIN9grpc_core4Rbac10PermissionESt14default_deleteIS3_EESaIS6_EED2Ev.exit, label %if.then.i.i

if.then.i.i:                                      ; preds = %invoke.cont
  tail call void @_ZdlPv(ptr noundef nonnull %3) #24
  br label %_ZNSt12_Vector_baseISt10unique_ptrIN9grpc_core4Rbac10PermissionESt14default_deleteIS3_EESaIS6_EED2Ev.exit

_ZNSt12_Vector_baseISt10unique_ptrIN9grpc_core4Rbac10PermissionESt14default_deleteIS3_EESaIS6_EED2Ev.exit: ; preds = %invoke.cont, %if.then.i.i
  ret void
}

; Function Attrs: mustprogress nounwind uwtable
define linkonce_odr void @_ZNSt10unique_ptrIN9grpc_core4Rbac10PermissionESt14default_deleteIS2_EED2Ev(ptr noundef nonnull align 8 dereferenceable(8) %this) unnamed_addr #5 comdat align 2 personality ptr @__gxx_personality_v0 {
entry:
  %0 = load ptr, ptr %this, align 8
  %cmp.not = icmp eq ptr %0, null
  br i1 %cmp.not, label %if.end, label %_ZNKSt14default_deleteIN9grpc_core4Rbac10PermissionEEclEPS2_.exit

_ZNKSt14default_deleteIN9grpc_core4Rbac10PermissionEEclEPS2_.exit: ; preds = %entry
  tail call void @_ZN9grpc_core4Rbac10PermissionD2Ev(ptr noundef nonnull align 8 dereferenceable(257) %0) #22
  tail call void @_ZdlPv(ptr noundef nonnull %0) #24
  br label %if.end

if.end:                                           ; preds = %_ZNKSt14default_deleteIN9grpc_core4Rbac10PermissionEEclEPS2_.exit, %entry
  store ptr null, ptr %this, align 8
  ret void
}

; Function Attrs: nounwind
declare void @_ZNSt7__cxx1112basic_stringIcSt11char_traitsIcESaIcEEC1Ev(ptr noundef nonnull align 8 dereferenceable(32)) unnamed_addr #1

; Function Attrs: mustprogress nocallback nofree nounwind willreturn memory(argmem: readwrite)
declare void @llvm.memcpy.p0.p0.i64(ptr noalias nocapture writeonly, ptr noalias nocapture readonly, i64, i1 immarg) #13

declare noundef i32 @_ZNKSt7__cxx1112basic_stringIcSt11char_traitsIcESaIcEE7compareERKS4_(ptr noundef nonnull align 8 dereferenceable(32), ptr noundef nonnull align 8 dereferenceable(32)) local_unnamed_addr #0

; Function Attrs: mustprogress uwtable
define linkonce_odr { ptr, ptr } @_ZNSt8_Rb_treeINSt7__cxx1112basic_stringIcSt11char_traitsIcESaIcEEESt4pairIKS5_N9grpc_core4Rbac6PolicyEESt10_Select1stISB_ESt4lessIS5_ESaISB_EE29_M_get_insert_hint_unique_posESt23_Rb_tree_const_iteratorISB_ERS7_(ptr noundef nonnull align 8 dereferenceable(48) %this, ptr %__position.coerce, ptr noundef nonnull align 8 dereferenceable(32) %__k) local_unnamed_addr #3 comdat align 2 personality ptr @__gxx_personality_v0 {
entry:
  %add.ptr.i = getelementptr inbounds i8, ptr %this, i64 8
  %cmp = icmp eq ptr %add.ptr.i, %__position.coerce
  br i1 %cmp, label %if.then, label %if.else12

if.then:                                          ; preds = %entry
  %_M_node_count.i = getelementptr inbounds i8, ptr %this, i64 40
  %0 = load i64, ptr %_M_node_count.i, align 8
  %cmp5.not = icmp eq i64 %0, 0
  br i1 %cmp5.not, label %if.else, label %land.lhs.true

land.lhs.true:                                    ; preds = %if.then
  %_M_right.i = getelementptr inbounds i8, ptr %this, i64 32
  %1 = load ptr, ptr %_M_right.i, align 8
  %_M_storage.i.i.i = getelementptr inbounds i8, ptr %1, i64 32
  %call.i.i = invoke noundef i32 @_ZNKSt7__cxx1112basic_stringIcSt11char_traitsIcESaIcEE7compareERKS4_(ptr noundef nonnull align 8 dereferenceable(32) %_M_storage.i.i.i, ptr noundef nonnull align 8 dereferenceable(32) %__k)
          to label %_ZNKSt4lessINSt7__cxx1112basic_stringIcSt11char_traitsIcESaIcEEEEclERKS5_S8_.exit unwind label %terminate.lpad.i.i

terminate.lpad.i.i:                               ; preds = %land.lhs.true
  %2 = landingpad { ptr, i32 }
          catch ptr null
  %3 = extractvalue { ptr, i32 } %2, 0
  tail call void @__clang_call_terminate(ptr %3) #23
  unreachable

_ZNKSt4lessINSt7__cxx1112basic_stringIcSt11char_traitsIcESaIcEEEEclERKS5_S8_.exit: ; preds = %land.lhs.true
  %cmp.i.i = icmp slt i32 %call.i.i, 0
  br i1 %cmp.i.i, label %if.then9, label %if.else

if.then9:                                         ; preds = %_ZNKSt4lessINSt7__cxx1112basic_stringIcSt11char_traitsIcESaIcEEEEclERKS5_S8_.exit
  %4 = load ptr, ptr %_M_right.i, align 8
  br label %return

if.else:                                          ; preds = %_ZNKSt4lessINSt7__cxx1112basic_stringIcSt11char_traitsIcESaIcEEEEclERKS5_S8_.exit, %if.then
  %_M_parent.i.i.i = getelementptr inbounds i8, ptr %this, i64 16
  %__x.023.i = load ptr, ptr %_M_parent.i.i.i, align 8
  %cmp.not24.i = icmp eq ptr %__x.023.i, null
  br i1 %cmp.not24.i, label %if.then.i, label %while.body.i

while.body.i:                                     ; preds = %if.else, %_ZNKSt4lessINSt7__cxx1112basic_stringIcSt11char_traitsIcESaIcEEEEclERKS5_S8_.exit.i
  %__x.025.i = phi ptr [ %__x.0.i, %_ZNKSt4lessINSt7__cxx1112basic_stringIcSt11char_traitsIcESaIcEEEEclERKS5_S8_.exit.i ], [ %__x.023.i, %if.else ]
  %_M_storage.i.i.i10 = getelementptr inbounds i8, ptr %__x.025.i, i64 32
  %call.i.i.i = invoke noundef i32 @_ZNKSt7__cxx1112basic_stringIcSt11char_traitsIcESaIcEE7compareERKS4_(ptr noundef nonnull align 8 dereferenceable(32) %__k, ptr noundef nonnull align 8 dereferenceable(32) %_M_storage.i.i.i10)
          to label %_ZNKSt4lessINSt7__cxx1112basic_stringIcSt11char_traitsIcESaIcEEEEclERKS5_S8_.exit.i unwind label %terminate.lpad.i.i.i

terminate.lpad.i.i.i:                             ; preds = %while.body.i
  %5 = landingpad { ptr, i32 }
          catch ptr null
  %6 = extractvalue { ptr, i32 } %5, 0
  tail call void @__clang_call_terminate(ptr %6) #23
  unreachable

_ZNKSt4lessINSt7__cxx1112basic_stringIcSt11char_traitsIcESaIcEEEEclERKS5_S8_.exit.i: ; preds = %while.body.i
  %cmp.i.i.i = icmp slt i32 %call.i.i.i, 0
  %cond.in.v.i = select i1 %cmp.i.i.i, i64 16, i64 24
  %cond.in.i = getelementptr inbounds i8, ptr %__x.025.i, i64 %cond.in.v.i
  %__x.0.i = load ptr, ptr %cond.in.i, align 8
  %cmp.not.i = icmp eq ptr %__x.0.i, null
  br i1 %cmp.not.i, label %while.end.i, label %while.body.i, !llvm.loop !60

while.end.i:                                      ; preds = %_ZNKSt4lessINSt7__cxx1112basic_stringIcSt11char_traitsIcESaIcEEEEclERKS5_S8_.exit.i
  br i1 %cmp.i.i.i, label %if.then.i, label %if.end12.i

if.then.i:                                        ; preds = %while.end.i, %if.else
  %__y.0.lcssa30.i = phi ptr [ %__x.025.i, %while.end.i ], [ %__position.coerce, %if.else ]
  %_M_left.i3.i = getelementptr inbounds i8, ptr %this, i64 24
  %7 = load ptr, ptr %_M_left.i3.i, align 8
  %cmp.i.i11 = icmp eq ptr %__y.0.lcssa30.i, %7
  br i1 %cmp.i.i11, label %return, label %if.else.i

if.else.i:                                        ; preds = %if.then.i
  %call.i.i12 = tail call noundef ptr @_ZSt18_Rb_tree_decrementPSt18_Rb_tree_node_base(ptr noundef nonnull %__y.0.lcssa30.i) #25
  br label %if.end12.i

if.end12.i:                                       ; preds = %if.else.i, %while.end.i
  %__y.0.lcssa31.i = phi ptr [ %__y.0.lcssa30.i, %if.else.i ], [ %__x.025.i, %while.end.i ]
  %__j.sroa.0.0.i = phi ptr [ %call.i.i12, %if.else.i ], [ %__x.025.i, %while.end.i ]
  %_M_storage.i.i.i.i = getelementptr inbounds i8, ptr %__j.sroa.0.0.i, i64 32
  %call.i.i4.i = invoke noundef i32 @_ZNKSt7__cxx1112basic_stringIcSt11char_traitsIcESaIcEE7compareERKS4_(ptr noundef nonnull align 8 dereferenceable(32) %_M_storage.i.i.i.i, ptr noundef nonnull align 8 dereferenceable(32) %__k)
          to label %_ZNKSt4lessINSt7__cxx1112basic_stringIcSt11char_traitsIcESaIcEEEEclERKS5_S8_.exit7.i unwind label %terminate.lpad.i.i5.i

terminate.lpad.i.i5.i:                            ; preds = %if.end12.i
  %8 = landingpad { ptr, i32 }
          catch ptr null
  %9 = extractvalue { ptr, i32 } %8, 0
  tail call void @__clang_call_terminate(ptr %9) #23
  unreachable

_ZNKSt4lessINSt7__cxx1112basic_stringIcSt11char_traitsIcESaIcEEEEclERKS5_S8_.exit7.i: ; preds = %if.end12.i
  %cmp.i.i6.i = icmp slt i32 %call.i.i4.i, 0
  %spec.select.i = select i1 %cmp.i.i6.i, ptr null, ptr %__j.sroa.0.0.i
  %spec.select20.i = select i1 %cmp.i.i6.i, ptr %__y.0.lcssa31.i, ptr null
  br label %return

if.else12:                                        ; preds = %entry
  %_M_storage.i.i.i13 = getelementptr inbounds i8, ptr %__position.coerce, i64 32
  %call.i.i14 = invoke noundef i32 @_ZNKSt7__cxx1112basic_stringIcSt11char_traitsIcESaIcEE7compareERKS4_(ptr noundef nonnull align 8 dereferenceable(32) %__k, ptr noundef nonnull align 8 dereferenceable(32) %_M_storage.i.i.i13)
          to label %_ZNKSt4lessINSt7__cxx1112basic_stringIcSt11char_traitsIcESaIcEEEEclERKS5_S8_.exit17 unwind label %terminate.lpad.i.i15

terminate.lpad.i.i15:                             ; preds = %if.else12
  %10 = landingpad { ptr, i32 }
          catch ptr null
  %11 = extractvalue { ptr, i32 } %10, 0
  tail call void @__clang_call_terminate(ptr %11) #23
  unreachable

_ZNKSt4lessINSt7__cxx1112basic_stringIcSt11char_traitsIcESaIcEEEEclERKS5_S8_.exit17: ; preds = %if.else12
  %cmp.i.i16 = icmp slt i32 %call.i.i14, 0
  br i1 %cmp.i.i16, label %if.then18, label %if.else44

if.then18:                                        ; preds = %_ZNKSt4lessINSt7__cxx1112basic_stringIcSt11char_traitsIcESaIcEEEEclERKS5_S8_.exit17
  %_M_left.i = getelementptr inbounds i8, ptr %this, i64 24
  %12 = load ptr, ptr %_M_left.i, align 8
  %cmp21 = icmp eq ptr %12, %__position.coerce
  br i1 %cmp21, label %return, label %if.else25

if.else25:                                        ; preds = %if.then18
  %call.i = tail call noundef ptr @_ZSt18_Rb_tree_decrementPSt18_Rb_tree_node_base(ptr noundef %__position.coerce) #25
  %_M_storage.i.i.i21 = getelementptr inbounds i8, ptr %call.i, i64 32
  %call.i.i22 = invoke noundef i32 @_ZNKSt7__cxx1112basic_stringIcSt11char_traitsIcESaIcEE7compareERKS4_(ptr noundef nonnull align 8 dereferenceable(32) %_M_storage.i.i.i21, ptr noundef nonnull align 8 dereferenceable(32) %__k)
          to label %_ZNKSt4lessINSt7__cxx1112basic_stringIcSt11char_traitsIcESaIcEEEEclERKS5_S8_.exit25 unwind label %terminate.lpad.i.i23

terminate.lpad.i.i23:                             ; preds = %if.else25
  %13 = landingpad { ptr, i32 }
          catch ptr null
  %14 = extractvalue { ptr, i32 } %13, 0
  tail call void @__clang_call_terminate(ptr %14) #23
  unreachable

_ZNKSt4lessINSt7__cxx1112basic_stringIcSt11char_traitsIcESaIcEEEEclERKS5_S8_.exit25: ; preds = %if.else25
  %cmp.i.i24 = icmp slt i32 %call.i.i22, 0
  br i1 %cmp.i.i24, label %if.then32, label %if.else42

if.then32:                                        ; preds = %_ZNKSt4lessINSt7__cxx1112basic_stringIcSt11char_traitsIcESaIcEEEEclERKS5_S8_.exit25
  %_M_right.i26 = getelementptr inbounds i8, ptr %call.i, i64 24
  %15 = load ptr, ptr %_M_right.i26, align 8
  %cmp35 = icmp eq ptr %15, null
  %spec.select = select i1 %cmp35, ptr null, ptr %__position.coerce
  %spec.select134 = select i1 %cmp35, ptr %call.i, ptr %__position.coerce
  br label %return

if.else42:                                        ; preds = %_ZNKSt4lessINSt7__cxx1112basic_stringIcSt11char_traitsIcESaIcEEEEclERKS5_S8_.exit25
  %_M_parent.i.i.i29 = getelementptr inbounds i8, ptr %this, i64 16
  %__x.023.i31 = load ptr, ptr %_M_parent.i.i.i29, align 8
  %cmp.not24.i32 = icmp eq ptr %__x.023.i31, null
  br i1 %cmp.not24.i32, label %if.then.i59, label %while.body.i33

while.body.i33:                                   ; preds = %if.else42, %_ZNKSt4lessINSt7__cxx1112basic_stringIcSt11char_traitsIcESaIcEEEEclERKS5_S8_.exit.i38
  %__x.025.i34 = phi ptr [ %__x.0.i42, %_ZNKSt4lessINSt7__cxx1112basic_stringIcSt11char_traitsIcESaIcEEEEclERKS5_S8_.exit.i38 ], [ %__x.023.i31, %if.else42 ]
  %_M_storage.i.i.i35 = getelementptr inbounds i8, ptr %__x.025.i34, i64 32
  %call.i.i.i36 = invoke noundef i32 @_ZNKSt7__cxx1112basic_stringIcSt11char_traitsIcESaIcEE7compareERKS4_(ptr noundef nonnull align 8 dereferenceable(32) %__k, ptr noundef nonnull align 8 dereferenceable(32) %_M_storage.i.i.i35)
          to label %_ZNKSt4lessINSt7__cxx1112basic_stringIcSt11char_traitsIcESaIcEEEEclERKS5_S8_.exit.i38 unwind label %terminate.lpad.i.i.i37

terminate.lpad.i.i.i37:                           ; preds = %while.body.i33
  %16 = landingpad { ptr, i32 }
          catch ptr null
  %17 = extractvalue { ptr, i32 } %16, 0
  tail call void @__clang_call_terminate(ptr %17) #23
  unreachable

_ZNKSt4lessINSt7__cxx1112basic_stringIcSt11char_traitsIcESaIcEEEEclERKS5_S8_.exit.i38: ; preds = %while.body.i33
  %cmp.i.i.i39 = icmp slt i32 %call.i.i.i36, 0
  %cond.in.v.i40 = select i1 %cmp.i.i.i39, i64 16, i64 24
  %cond.in.i41 = getelementptr inbounds i8, ptr %__x.025.i34, i64 %cond.in.v.i40
  %__x.0.i42 = load ptr, ptr %cond.in.i41, align 8
  %cmp.not.i43 = icmp eq ptr %__x.0.i42, null
  br i1 %cmp.not.i43, label %while.end.i44, label %while.body.i33, !llvm.loop !60

while.end.i44:                                    ; preds = %_ZNKSt4lessINSt7__cxx1112basic_stringIcSt11char_traitsIcESaIcEEEEclERKS5_S8_.exit.i38
  br i1 %cmp.i.i.i39, label %if.then.i59, label %if.end12.i45

if.then.i59:                                      ; preds = %while.end.i44, %if.else42
  %__y.0.lcssa30.i60 = phi ptr [ %__x.025.i34, %while.end.i44 ], [ %add.ptr.i, %if.else42 ]
  %18 = load ptr, ptr %_M_left.i, align 8
  %cmp.i.i62 = icmp eq ptr %__y.0.lcssa30.i60, %18
  br i1 %cmp.i.i62, label %return, label %if.else.i63

if.else.i63:                                      ; preds = %if.then.i59
  %call.i.i64 = tail call noundef ptr @_ZSt18_Rb_tree_decrementPSt18_Rb_tree_node_base(ptr noundef nonnull %__y.0.lcssa30.i60) #25
  br label %if.end12.i45

if.end12.i45:                                     ; preds = %if.else.i63, %while.end.i44
  %__y.0.lcssa31.i46 = phi ptr [ %__y.0.lcssa30.i60, %if.else.i63 ], [ %__x.025.i34, %while.end.i44 ]
  %__j.sroa.0.0.i47 = phi ptr [ %call.i.i64, %if.else.i63 ], [ %__x.025.i34, %while.end.i44 ]
  %_M_storage.i.i.i.i48 = getelementptr inbounds i8, ptr %__j.sroa.0.0.i47, i64 32
  %call.i.i4.i49 = invoke noundef i32 @_ZNKSt7__cxx1112basic_stringIcSt11char_traitsIcESaIcEE7compareERKS4_(ptr noundef nonnull align 8 dereferenceable(32) %_M_storage.i.i.i.i48, ptr noundef nonnull align 8 dereferenceable(32) %__k)
          to label %_ZNKSt4lessINSt7__cxx1112basic_stringIcSt11char_traitsIcESaIcEEEEclERKS5_S8_.exit7.i51 unwind label %terminate.lpad.i.i5.i50

terminate.lpad.i.i5.i50:                          ; preds = %if.end12.i45
  %19 = landingpad { ptr, i32 }
          catch ptr null
  %20 = extractvalue { ptr, i32 } %19, 0
  tail call void @__clang_call_terminate(ptr %20) #23
  unreachable

_ZNKSt4lessINSt7__cxx1112basic_stringIcSt11char_traitsIcESaIcEEEEclERKS5_S8_.exit7.i51: ; preds = %if.end12.i45
  %cmp.i.i6.i52 = icmp slt i32 %call.i.i4.i49, 0
  %spec.select.i53 = select i1 %cmp.i.i6.i52, ptr null, ptr %__j.sroa.0.0.i47
  %spec.select20.i54 = select i1 %cmp.i.i6.i52, ptr %__y.0.lcssa31.i46, ptr null
  br label %return

if.else44:                                        ; preds = %_ZNKSt4lessINSt7__cxx1112basic_stringIcSt11char_traitsIcESaIcEEEEclERKS5_S8_.exit17
  %call.i.i67 = invoke noundef i32 @_ZNKSt7__cxx1112basic_stringIcSt11char_traitsIcESaIcEE7compareERKS4_(ptr noundef nonnull align 8 dereferenceable(32) %_M_storage.i.i.i13, ptr noundef nonnull align 8 dereferenceable(32) %__k)
          to label %_ZNKSt4lessINSt7__cxx1112basic_stringIcSt11char_traitsIcESaIcEEEEclERKS5_S8_.exit70 unwind label %terminate.lpad.i.i68

terminate.lpad.i.i68:                             ; preds = %if.else44
  %21 = landingpad { ptr, i32 }
          catch ptr null
  %22 = extractvalue { ptr, i32 } %21, 0
  tail call void @__clang_call_terminate(ptr %22) #23
  unreachable

_ZNKSt4lessINSt7__cxx1112basic_stringIcSt11char_traitsIcESaIcEEEEclERKS5_S8_.exit70: ; preds = %if.else44
  %cmp.i.i69 = icmp slt i32 %call.i.i67, 0
  br i1 %cmp.i.i69, label %if.then50, label %return

if.then50:                                        ; preds = %_ZNKSt4lessINSt7__cxx1112basic_stringIcSt11char_traitsIcESaIcEEEEclERKS5_S8_.exit70
  %_M_right.i71 = getelementptr inbounds i8, ptr %this, i64 32
  %23 = load ptr, ptr %_M_right.i71, align 8
  %cmp53 = icmp eq ptr %23, %__position.coerce
  br i1 %cmp53, label %return, label %if.else57

if.else57:                                        ; preds = %if.then50
  %call.i74 = tail call noundef ptr @_ZSt18_Rb_tree_incrementPSt18_Rb_tree_node_base(ptr noundef %__position.coerce) #25
  %_M_storage.i.i.i75 = getelementptr inbounds i8, ptr %call.i74, i64 32
  %call.i.i76 = invoke noundef i32 @_ZNKSt7__cxx1112basic_stringIcSt11char_traitsIcESaIcEE7compareERKS4_(ptr noundef nonnull align 8 dereferenceable(32) %__k, ptr noundef nonnull align 8 dereferenceable(32) %_M_storage.i.i.i75)
          to label %_ZNKSt4lessINSt7__cxx1112basic_stringIcSt11char_traitsIcESaIcEEEEclERKS5_S8_.exit79 unwind label %terminate.lpad.i.i77

terminate.lpad.i.i77:                             ; preds = %if.else57
  %24 = landingpad { ptr, i32 }
          catch ptr null
  %25 = extractvalue { ptr, i32 } %24, 0
  tail call void @__clang_call_terminate(ptr %25) #23
  unreachable

_ZNKSt4lessINSt7__cxx1112basic_stringIcSt11char_traitsIcESaIcEEEEclERKS5_S8_.exit79: ; preds = %if.else57
  %cmp.i.i78 = icmp slt i32 %call.i.i76, 0
  br i1 %cmp.i.i78, label %if.then64, label %if.else74

if.then64:                                        ; preds = %_ZNKSt4lessINSt7__cxx1112basic_stringIcSt11char_traitsIcESaIcEEEEclERKS5_S8_.exit79
  %_M_right.i80 = getelementptr inbounds i8, ptr %__position.coerce, i64 24
  %26 = load ptr, ptr %_M_right.i80, align 8
  %cmp67 = icmp eq ptr %26, null
  %spec.select135 = select i1 %cmp67, ptr null, ptr %call.i74
  %spec.select136 = select i1 %cmp67, ptr %__position.coerce, ptr %call.i74
  br label %return

if.else74:                                        ; preds = %_ZNKSt4lessINSt7__cxx1112basic_stringIcSt11char_traitsIcESaIcEEEEclERKS5_S8_.exit79
  %_M_parent.i.i.i83 = getelementptr inbounds i8, ptr %this, i64 16
  %__x.023.i85 = load ptr, ptr %_M_parent.i.i.i83, align 8
  %cmp.not24.i86 = icmp eq ptr %__x.023.i85, null
  br i1 %cmp.not24.i86, label %if.then.i113, label %while.body.i87

while.body.i87:                                   ; preds = %if.else74, %_ZNKSt4lessINSt7__cxx1112basic_stringIcSt11char_traitsIcESaIcEEEEclERKS5_S8_.exit.i92
  %__x.025.i88 = phi ptr [ %__x.0.i96, %_ZNKSt4lessINSt7__cxx1112basic_stringIcSt11char_traitsIcESaIcEEEEclERKS5_S8_.exit.i92 ], [ %__x.023.i85, %if.else74 ]
  %_M_storage.i.i.i89 = getelementptr inbounds i8, ptr %__x.025.i88, i64 32
  %call.i.i.i90 = invoke noundef i32 @_ZNKSt7__cxx1112basic_stringIcSt11char_traitsIcESaIcEE7compareERKS4_(ptr noundef nonnull align 8 dereferenceable(32) %__k, ptr noundef nonnull align 8 dereferenceable(32) %_M_storage.i.i.i89)
          to label %_ZNKSt4lessINSt7__cxx1112basic_stringIcSt11char_traitsIcESaIcEEEEclERKS5_S8_.exit.i92 unwind label %terminate.lpad.i.i.i91

terminate.lpad.i.i.i91:                           ; preds = %while.body.i87
  %27 = landingpad { ptr, i32 }
          catch ptr null
  %28 = extractvalue { ptr, i32 } %27, 0
  tail call void @__clang_call_terminate(ptr %28) #23
  unreachable

_ZNKSt4lessINSt7__cxx1112basic_stringIcSt11char_traitsIcESaIcEEEEclERKS5_S8_.exit.i92: ; preds = %while.body.i87
  %cmp.i.i.i93 = icmp slt i32 %call.i.i.i90, 0
  %cond.in.v.i94 = select i1 %cmp.i.i.i93, i64 16, i64 24
  %cond.in.i95 = getelementptr inbounds i8, ptr %__x.025.i88, i64 %cond.in.v.i94
  %__x.0.i96 = load ptr, ptr %cond.in.i95, align 8
  %cmp.not.i97 = icmp eq ptr %__x.0.i96, null
  br i1 %cmp.not.i97, label %while.end.i98, label %while.body.i87, !llvm.loop !60

while.end.i98:                                    ; preds = %_ZNKSt4lessINSt7__cxx1112basic_stringIcSt11char_traitsIcESaIcEEEEclERKS5_S8_.exit.i92
  br i1 %cmp.i.i.i93, label %if.then.i113, label %if.end12.i99

if.then.i113:                                     ; preds = %while.end.i98, %if.else74
  %__y.0.lcssa30.i114 = phi ptr [ %__x.025.i88, %while.end.i98 ], [ %add.ptr.i, %if.else74 ]
  %_M_left.i3.i115 = getelementptr inbounds i8, ptr %this, i64 24
  %29 = load ptr, ptr %_M_left.i3.i115, align 8
  %cmp.i.i116 = icmp eq ptr %__y.0.lcssa30.i114, %29
  br i1 %cmp.i.i116, label %return, label %if.else.i117

if.else.i117:                                     ; preds = %if.then.i113
  %call.i.i118 = tail call noundef ptr @_ZSt18_Rb_tree_decrementPSt18_Rb_tree_node_base(ptr noundef nonnull %__y.0.lcssa30.i114) #25
  br label %if.end12.i99

if.end12.i99:                                     ; preds = %if.else.i117, %while.end.i98
  %__y.0.lcssa31.i100 = phi ptr [ %__y.0.lcssa30.i114, %if.else.i117 ], [ %__x.025.i88, %while.end.i98 ]
  %__j.sroa.0.0.i101 = phi ptr [ %call.i.i118, %if.else.i117 ], [ %__x.025.i88, %while.end.i98 ]
  %_M_storage.i.i.i.i102 = getelementptr inbounds i8, ptr %__j.sroa.0.0.i101, i64 32
  %call.i.i4.i103 = invoke noundef i32 @_ZNKSt7__cxx1112basic_stringIcSt11char_traitsIcESaIcEE7compareERKS4_(ptr noundef nonnull align 8 dereferenceable(32) %_M_storage.i.i.i.i102, ptr noundef nonnull align 8 dereferenceable(32) %__k)
          to label %_ZNKSt4lessINSt7__cxx1112basic_stringIcSt11char_traitsIcESaIcEEEEclERKS5_S8_.exit7.i105 unwind label %terminate.lpad.i.i5.i104

terminate.lpad.i.i5.i104:                         ; preds = %if.end12.i99
  %30 = landingpad { ptr, i32 }
          catch ptr null
  %31 = extractvalue { ptr, i32 } %30, 0
  tail call void @__clang_call_terminate(ptr %31) #23
  unreachable

_ZNKSt4lessINSt7__cxx1112basic_stringIcSt11char_traitsIcESaIcEEEEclERKS5_S8_.exit7.i105: ; preds = %if.end12.i99
  %cmp.i.i6.i106 = icmp slt i32 %call.i.i4.i103, 0
  %spec.select.i107 = select i1 %cmp.i.i6.i106, ptr null, ptr %__j.sroa.0.0.i101
  %spec.select20.i108 = select i1 %cmp.i.i6.i106, ptr %__y.0.lcssa31.i100, ptr null
  br label %return

return:                                           ; preds = %_ZNKSt4lessINSt7__cxx1112basic_stringIcSt11char_traitsIcESaIcEEEEclERKS5_S8_.exit7.i105, %if.then.i113, %_ZNKSt4lessINSt7__cxx1112basic_stringIcSt11char_traitsIcESaIcEEEEclERKS5_S8_.exit7.i51, %if.then.i59, %_ZNKSt4lessINSt7__cxx1112basic_stringIcSt11char_traitsIcESaIcEEEEclERKS5_S8_.exit7.i, %if.then.i, %if.then64, %if.then32, %_ZNKSt4lessINSt7__cxx1112basic_stringIcSt11char_traitsIcESaIcEEEEclERKS5_S8_.exit70, %if.then50, %if.then18, %if.then9
  %retval.sroa.0.0 = phi ptr [ null, %if.then9 ], [ %__position.coerce, %if.then18 ], [ null, %if.then50 ], [ %__position.coerce, %_ZNKSt4lessINSt7__cxx1112basic_stringIcSt11char_traitsIcESaIcEEEEclERKS5_S8_.exit70 ], [ %spec.select, %if.then32 ], [ %spec.select135, %if.then64 ], [ null, %if.then.i ], [ %spec.select.i, %_ZNKSt4lessINSt7__cxx1112basic_stringIcSt11char_traitsIcESaIcEEEEclERKS5_S8_.exit7.i ], [ null, %if.then.i59 ], [ %spec.select.i53, %_ZNKSt4lessINSt7__cxx1112basic_stringIcSt11char_traitsIcESaIcEEEEclERKS5_S8_.exit7.i51 ], [ null, %if.then.i113 ], [ %spec.select.i107, %_ZNKSt4lessINSt7__cxx1112basic_stringIcSt11char_traitsIcESaIcEEEEclERKS5_S8_.exit7.i105 ]
  %retval.sroa.12.0 = phi ptr [ %4, %if.then9 ], [ %__position.coerce, %if.then18 ], [ %__position.coerce, %if.then50 ], [ null, %_ZNKSt4lessINSt7__cxx1112basic_stringIcSt11char_traitsIcESaIcEEEEclERKS5_S8_.exit70 ], [ %spec.select134, %if.then32 ], [ %spec.select136, %if.then64 ], [ %__y.0.lcssa30.i, %if.then.i ], [ %spec.select20.i, %_ZNKSt4lessINSt7__cxx1112basic_stringIcSt11char_traitsIcESaIcEEEEclERKS5_S8_.exit7.i ], [ %__y.0.lcssa30.i60, %if.then.i59 ], [ %spec.select20.i54, %_ZNKSt4lessINSt7__cxx1112basic_stringIcSt11char_traitsIcESaIcEEEEclERKS5_S8_.exit7.i51 ], [ %__y.0.lcssa30.i114, %if.then.i113 ], [ %spec.select20.i108, %_ZNKSt4lessINSt7__cxx1112basic_stringIcSt11char_traitsIcESaIcEEEEclERKS5_S8_.exit7.i105 ]
  %.fca.0.insert = insertvalue { ptr, ptr } poison, ptr %retval.sroa.0.0, 0
  %.fca.1.insert = insertvalue { ptr, ptr } %.fca.0.insert, ptr %retval.sroa.12.0, 1
  ret { ptr, ptr } %.fca.1.insert
}

; Function Attrs: mustprogress nounwind uwtable
define linkonce_odr void @_ZNSt8_Rb_treeINSt7__cxx1112basic_stringIcSt11char_traitsIcESaIcEEESt4pairIKS5_N9grpc_core4Rbac6PolicyEESt10_Select1stISB_ESt4lessIS5_ESaISB_EE10_Auto_nodeD2Ev(ptr noundef nonnull align 8 dereferenceable(16) %this) unnamed_addr #5 comdat align 2 personality ptr @__gxx_personality_v0 {
entry:
  %_M_node = getelementptr inbounds i8, ptr %this, i64 8
  %0 = load ptr, ptr %_M_node, align 8
  %tobool.not = icmp eq ptr %0, null
  br i1 %tobool.not, label %if.end, label %if.then

if.then:                                          ; preds = %entry
  %_M_storage.i.i.i = getelementptr inbounds i8, ptr %0, i64 32
  %second.i.i.i.i.i = getelementptr inbounds i8, ptr %0, i64 64
  %principals.i.i.i.i.i.i = getelementptr inbounds i8, ptr %0, i64 328
  tail call void @_ZN9grpc_core4Rbac9PrincipalD2Ev(ptr noundef nonnull align 8 dereferenceable(257) %principals.i.i.i.i.i.i) #22
  tail call void @_ZN9grpc_core4Rbac10PermissionD2Ev(ptr noundef nonnull align 8 dereferenceable(257) %second.i.i.i.i.i) #22
  tail call void @_ZNSt7__cxx1112basic_stringIcSt11char_traitsIcESaIcEED1Ev(ptr noundef nonnull align 8 dereferenceable(32) %_M_storage.i.i.i) #22
  tail call void @_ZdlPv(ptr noundef nonnull %0) #24
  br label %if.end

if.end:                                           ; preds = %if.then, %entry
  ret void
}

declare void @__cxa_rethrow() local_unnamed_addr

declare void @__cxa_end_catch() local_unnamed_addr

declare void @_ZNSt7__cxx1112basic_stringIcSt11char_traitsIcESaIcEEC1ERKS4_(ptr noundef nonnull align 8 dereferenceable(32), ptr noundef nonnull align 8 dereferenceable(32)) unnamed_addr #0

; Function Attrs: nounwind
declare void @_ZN9grpc_core4Rbac6PolicyC1EOS1_(ptr noundef nonnull align 8 dereferenceable(528), ptr noundef nonnull align 8 dereferenceable(528)) unnamed_addr #1

; Function Attrs: mustprogress nofree nounwind willreturn memory(read)
declare noundef ptr @_ZSt18_Rb_tree_decrementPSt18_Rb_tree_node_base(ptr noundef) local_unnamed_addr #14

; Function Attrs: mustprogress nofree nounwind willreturn memory(read)
declare noundef ptr @_ZSt18_Rb_tree_incrementPSt18_Rb_tree_node_base(ptr noundef) local_unnamed_addr #14

; Function Attrs: nounwind
declare void @_ZSt29_Rb_tree_insert_and_rebalancebPSt18_Rb_tree_node_baseS0_RS_(i1 noundef zeroext, ptr noundef, ptr noundef, ptr noundef nonnull align 8 dereferenceable(32)) local_unnamed_addr #1

declare void @_ZN9grpc_core4Rbac10Permission16MakeOrPermissionESt6vectorISt10unique_ptrIS1_St14default_deleteIS1_EESaIS6_EE(ptr sret(%"struct.grpc_core::Rbac::Permission") align 8, ptr noundef) local_unnamed_addr #0

; Function Attrs: mustprogress uwtable
define internal fastcc void @_ZN9grpc_core12_GLOBAL__N_110RbacConfig10RbacPolicy5Rules6Policy10Permission22MakeRbacPermissionListESt6vectorIS5_SaIS5_EE(ptr noalias align 8 %agg.result, ptr nocapture noundef readonly %permission_list) unnamed_addr #3 align 2 personality ptr @__gxx_personality_v0 {
entry:
  tail call void @llvm.memset.p0.i64(ptr noundef nonnull align 8 dereferenceable(24) %agg.result, i8 0, i64 24, i1 false)
  %permission_list.val = load ptr, ptr %permission_list, align 8
  %0 = getelementptr i8, ptr %permission_list, i64 8
  %permission_list.val2 = load ptr, ptr %0, align 8
  %sub.ptr.lhs.cast.i = ptrtoint ptr %permission_list.val2 to i64
  %sub.ptr.rhs.cast.i = ptrtoint ptr %permission_list.val to i64
  %sub.ptr.sub.i = sub i64 %sub.ptr.lhs.cast.i, %sub.ptr.rhs.cast.i
  %sub.ptr.div.i = ashr exact i64 %sub.ptr.sub.i, 3
  %cmp.i = icmp ugt i64 %sub.ptr.div.i, 1152921504606846975
  br i1 %cmp.i, label %if.then.i, label %if.end.i

if.then.i:                                        ; preds = %entry
  invoke void @_ZSt20__throw_length_errorPKc(ptr noundef nonnull @.str.32) #20
          to label %.noexc unwind label %lpad.loopexit.split-lp

.noexc:                                           ; preds = %if.then.i
  unreachable

if.end.i:                                         ; preds = %entry
  %_M_end_of_storage.i.i = getelementptr inbounds i8, ptr %agg.result, i64 16
  %cmp3.i.not = icmp eq ptr %permission_list.val2, %permission_list.val
  br i1 %cmp3.i.not, label %invoke.cont, label %_ZNSt12_Vector_baseISt10unique_ptrIN9grpc_core4Rbac10PermissionESt14default_deleteIS3_EESaIS6_EE11_M_allocateEm.exit.i

_ZNSt12_Vector_baseISt10unique_ptrIN9grpc_core4Rbac10PermissionESt14default_deleteIS3_EESaIS6_EE11_M_allocateEm.exit.i: ; preds = %if.end.i
  %call5.i.i.i.i6 = invoke noalias noundef nonnull ptr @_Znwm(i64 noundef %sub.ptr.sub.i) #21
          to label %_ZNSt12_Vector_baseISt10unique_ptrIN9grpc_core4Rbac10PermissionESt14default_deleteIS3_EESaIS6_EE13_M_deallocateEPS6_m.exit.i unwind label %lpad.loopexit.split-lp

_ZNSt12_Vector_baseISt10unique_ptrIN9grpc_core4Rbac10PermissionESt14default_deleteIS3_EESaIS6_EE13_M_deallocateEPS6_m.exit.i: ; preds = %_ZNSt12_Vector_baseISt10unique_ptrIN9grpc_core4Rbac10PermissionESt14default_deleteIS3_EESaIS6_EE11_M_allocateEm.exit.i
  %_M_finish.i.i = getelementptr inbounds i8, ptr %agg.result, i64 8
  store ptr %call5.i.i.i.i6, ptr %agg.result, align 8
  store ptr %call5.i.i.i.i6, ptr %_M_finish.i.i, align 8
  %add.ptr21.i = getelementptr inbounds %"class.std::unique_ptr.200", ptr %call5.i.i.i.i6, i64 %sub.ptr.div.i
  store ptr %add.ptr21.i, ptr %_M_end_of_storage.i.i, align 8
  br label %invoke.cont

invoke.cont:                                      ; preds = %_ZNSt12_Vector_baseISt10unique_ptrIN9grpc_core4Rbac10PermissionESt14default_deleteIS3_EESaIS6_EE13_M_deallocateEPS6_m.exit.i, %if.end.i
  %cmp.i7.not15 = icmp eq ptr %permission_list.val, %permission_list.val2
  br i1 %cmp.i7.not15, label %nrvo.skipdtor, label %for.body.lr.ph

for.body.lr.ph:                                   ; preds = %invoke.cont
  %_M_finish.i = getelementptr inbounds i8, ptr %agg.result, i64 8
  br label %for.body

for.body:                                         ; preds = %for.body.lr.ph, %for.inc
  %__begin2.sroa.0.016 = phi ptr [ %permission_list.val, %for.body.lr.ph ], [ %incdec.ptr.i12, %for.inc ]
  %1 = load ptr, ptr %_M_finish.i, align 8
  %2 = load ptr, ptr %_M_end_of_storage.i.i, align 8
  %cmp.not.i = icmp eq ptr %1, %2
  br i1 %cmp.not.i, label %if.else.i, label %if.then.i8

if.then.i8:                                       ; preds = %for.body
  %3 = load i64, ptr %__begin2.sroa.0.016, align 8
  store i64 %3, ptr %1, align 8
  store ptr null, ptr %__begin2.sroa.0.016, align 8
  %4 = load ptr, ptr %_M_finish.i, align 8
  %incdec.ptr.i = getelementptr inbounds i8, ptr %4, i64 8
  store ptr %incdec.ptr.i, ptr %_M_finish.i, align 8
  br label %for.inc

if.else.i:                                        ; preds = %for.body
  invoke void @_ZNSt6vectorISt10unique_ptrIN9grpc_core4Rbac10PermissionESt14default_deleteIS3_EESaIS6_EE17_M_realloc_insertIJS6_EEEvN9__gnu_cxx17__normal_iteratorIPS6_S8_EEDpOT_(ptr noundef nonnull align 8 dereferenceable(24) %agg.result, ptr %1, ptr noundef nonnull align 8 dereferenceable(8) %__begin2.sroa.0.016)
          to label %for.inc unwind label %lpad.loopexit

for.inc:                                          ; preds = %if.else.i, %if.then.i8
  %incdec.ptr.i12 = getelementptr inbounds i8, ptr %__begin2.sroa.0.016, i64 8
  %cmp.i7.not = icmp eq ptr %incdec.ptr.i12, %permission_list.val2
  br i1 %cmp.i7.not, label %nrvo.skipdtor, label %for.body

lpad.loopexit:                                    ; preds = %if.else.i
  %lpad.loopexit13 = landingpad { ptr, i32 }
          cleanup
  br label %lpad

lpad.loopexit.split-lp:                           ; preds = %if.then.i, %_ZNSt12_Vector_baseISt10unique_ptrIN9grpc_core4Rbac10PermissionESt14default_deleteIS3_EESaIS6_EE11_M_allocateEm.exit.i
  %lpad.loopexit.split-lp14 = landingpad { ptr, i32 }
          cleanup
  br label %lpad

lpad:                                             ; preds = %lpad.loopexit.split-lp, %lpad.loopexit
  %lpad.phi = phi { ptr, i32 } [ %lpad.loopexit13, %lpad.loopexit ], [ %lpad.loopexit.split-lp14, %lpad.loopexit.split-lp ]
  tail call void @_ZNSt6vectorISt10unique_ptrIN9grpc_core4Rbac10PermissionESt14default_deleteIS3_EESaIS6_EED2Ev(ptr noundef nonnull align 8 dereferenceable(24) %agg.result) #22
  resume { ptr, i32 } %lpad.phi

nrvo.skipdtor:                                    ; preds = %for.inc, %invoke.cont
  ret void
}

; Function Attrs: nounwind
declare noundef nonnull align 8 dereferenceable(257) ptr @_ZN9grpc_core4Rbac10PermissionaSEOS1_(ptr noundef nonnull align 8 dereferenceable(257), ptr noundef nonnull align 8 dereferenceable(257)) local_unnamed_addr #1

; Function Attrs: mustprogress nounwind uwtable
define internal fastcc void @_ZNSt6vectorIN9grpc_core12_GLOBAL__N_110RbacConfig10RbacPolicy5Rules6Policy10PermissionESaIS6_EED2Ev(ptr nocapture noundef nonnull readonly align 8 dereferenceable(24) %this) unnamed_addr #5 align 2 personality ptr @__gxx_personality_v0 {
entry:
  %0 = load ptr, ptr %this, align 8
  %_M_finish = getelementptr inbounds i8, ptr %this, i64 8
  %1 = load ptr, ptr %_M_finish, align 8
  %cmp.not3.i.i.i = icmp eq ptr %0, %1
  br i1 %cmp.not3.i.i.i, label %invoke.cont, label %for.body.i.i.i

for.body.i.i.i:                                   ; preds = %entry, %_ZSt8_DestroyIN9grpc_core12_GLOBAL__N_110RbacConfig10RbacPolicy5Rules6Policy10PermissionEEvPT_.exit.i.i.i
  %__first.addr.04.i.i.i = phi ptr [ %incdec.ptr.i.i.i, %_ZSt8_DestroyIN9grpc_core12_GLOBAL__N_110RbacConfig10RbacPolicy5Rules6Policy10PermissionEEvPT_.exit.i.i.i ], [ %0, %entry ]
  %2 = load ptr, ptr %__first.addr.04.i.i.i, align 8
  %cmp.not.i.i.i.i.i.i = icmp eq ptr %2, null
  br i1 %cmp.not.i.i.i.i.i.i, label %_ZSt8_DestroyIN9grpc_core12_GLOBAL__N_110RbacConfig10RbacPolicy5Rules6Policy10PermissionEEvPT_.exit.i.i.i, label %_ZNKSt14default_deleteIN9grpc_core4Rbac10PermissionEEclEPS2_.exit.i.i.i.i.i.i

_ZNKSt14default_deleteIN9grpc_core4Rbac10PermissionEEclEPS2_.exit.i.i.i.i.i.i: ; preds = %for.body.i.i.i
  tail call void @_ZN9grpc_core4Rbac10PermissionD2Ev(ptr noundef nonnull align 8 dereferenceable(257) %2) #22
  tail call void @_ZdlPv(ptr noundef nonnull %2) #24
  br label %_ZSt8_DestroyIN9grpc_core12_GLOBAL__N_110RbacConfig10RbacPolicy5Rules6Policy10PermissionEEvPT_.exit.i.i.i

_ZSt8_DestroyIN9grpc_core12_GLOBAL__N_110RbacConfig10RbacPolicy5Rules6Policy10PermissionEEvPT_.exit.i.i.i: ; preds = %_ZNKSt14default_deleteIN9grpc_core4Rbac10PermissionEEclEPS2_.exit.i.i.i.i.i.i, %for.body.i.i.i
  store ptr null, ptr %__first.addr.04.i.i.i, align 8
  %incdec.ptr.i.i.i = getelementptr inbounds i8, ptr %__first.addr.04.i.i.i, i64 8
  %cmp.not.i.i.i = icmp eq ptr %incdec.ptr.i.i.i, %1
  br i1 %cmp.not.i.i.i, label %invoke.contthread-pre-split, label %for.body.i.i.i, !llvm.loop !34

invoke.contthread-pre-split:                      ; preds = %_ZSt8_DestroyIN9grpc_core12_GLOBAL__N_110RbacConfig10RbacPolicy5Rules6Policy10PermissionEEvPT_.exit.i.i.i
  %this.val.pr = load ptr, ptr %this, align 8
  br label %invoke.cont

invoke.cont:                                      ; preds = %invoke.contthread-pre-split, %entry
  %this.val = phi ptr [ %this.val.pr, %invoke.contthread-pre-split ], [ %0, %entry ]
  %tobool.not.i.i = icmp eq ptr %this.val, null
  br i1 %tobool.not.i.i, label %_ZNSt12_Vector_baseIN9grpc_core12_GLOBAL__N_110RbacConfig10RbacPolicy5Rules6Policy10PermissionESaIS6_EED2Ev.exit, label %if.then.i.i

if.then.i.i:                                      ; preds = %invoke.cont
  tail call void @_ZdlPv(ptr noundef nonnull %this.val) #24
  br label %_ZNSt12_Vector_baseIN9grpc_core12_GLOBAL__N_110RbacConfig10RbacPolicy5Rules6Policy10PermissionESaIS6_EED2Ev.exit

_ZNSt12_Vector_baseIN9grpc_core12_GLOBAL__N_110RbacConfig10RbacPolicy5Rules6Policy10PermissionESaIS6_EED2Ev.exit: ; preds = %invoke.cont, %if.then.i.i
  ret void
}

declare void @_ZN9grpc_core4Rbac9Principal15MakeOrPrincipalESt6vectorISt10unique_ptrIS1_St14default_deleteIS1_EESaIS6_EE(ptr sret(%"struct.grpc_core::Rbac::Principal") align 8, ptr noundef) local_unnamed_addr #0

; Function Attrs: mustprogress uwtable
define internal fastcc void @_ZN9grpc_core12_GLOBAL__N_110RbacConfig10RbacPolicy5Rules6Policy9Principal21MakeRbacPrincipalListESt6vectorIS5_SaIS5_EE(ptr noalias align 8 %agg.result, ptr nocapture noundef readonly %principal_list) unnamed_addr #3 align 2 personality ptr @__gxx_personality_v0 {
entry:
  tail call void @llvm.memset.p0.i64(ptr noundef nonnull align 8 dereferenceable(24) %agg.result, i8 0, i64 24, i1 false)
  %principal_list.val = load ptr, ptr %principal_list, align 8
  %0 = getelementptr i8, ptr %principal_list, i64 8
  %principal_list.val2 = load ptr, ptr %0, align 8
  %sub.ptr.lhs.cast.i = ptrtoint ptr %principal_list.val2 to i64
  %sub.ptr.rhs.cast.i = ptrtoint ptr %principal_list.val to i64
  %sub.ptr.sub.i = sub i64 %sub.ptr.lhs.cast.i, %sub.ptr.rhs.cast.i
  %sub.ptr.div.i = ashr exact i64 %sub.ptr.sub.i, 3
  %cmp.i = icmp ugt i64 %sub.ptr.div.i, 1152921504606846975
  br i1 %cmp.i, label %if.then.i, label %if.end.i

if.then.i:                                        ; preds = %entry
  invoke void @_ZSt20__throw_length_errorPKc(ptr noundef nonnull @.str.32) #20
          to label %.noexc unwind label %lpad.loopexit.split-lp

.noexc:                                           ; preds = %if.then.i
  unreachable

if.end.i:                                         ; preds = %entry
  %_M_end_of_storage.i.i = getelementptr inbounds i8, ptr %agg.result, i64 16
  %cmp3.i.not = icmp eq ptr %principal_list.val2, %principal_list.val
  br i1 %cmp3.i.not, label %invoke.cont, label %_ZNSt12_Vector_baseISt10unique_ptrIN9grpc_core4Rbac9PrincipalESt14default_deleteIS3_EESaIS6_EE11_M_allocateEm.exit.i

_ZNSt12_Vector_baseISt10unique_ptrIN9grpc_core4Rbac9PrincipalESt14default_deleteIS3_EESaIS6_EE11_M_allocateEm.exit.i: ; preds = %if.end.i
  %call5.i.i.i.i6 = invoke noalias noundef nonnull ptr @_Znwm(i64 noundef %sub.ptr.sub.i) #21
          to label %_ZNSt12_Vector_baseISt10unique_ptrIN9grpc_core4Rbac9PrincipalESt14default_deleteIS3_EESaIS6_EE13_M_deallocateEPS6_m.exit.i unwind label %lpad.loopexit.split-lp

_ZNSt12_Vector_baseISt10unique_ptrIN9grpc_core4Rbac9PrincipalESt14default_deleteIS3_EESaIS6_EE13_M_deallocateEPS6_m.exit.i: ; preds = %_ZNSt12_Vector_baseISt10unique_ptrIN9grpc_core4Rbac9PrincipalESt14default_deleteIS3_EESaIS6_EE11_M_allocateEm.exit.i
  %_M_finish.i.i = getelementptr inbounds i8, ptr %agg.result, i64 8
  store ptr %call5.i.i.i.i6, ptr %agg.result, align 8
  store ptr %call5.i.i.i.i6, ptr %_M_finish.i.i, align 8
  %add.ptr21.i = getelementptr inbounds %"class.std::unique_ptr.188", ptr %call5.i.i.i.i6, i64 %sub.ptr.div.i
  store ptr %add.ptr21.i, ptr %_M_end_of_storage.i.i, align 8
  br label %invoke.cont

invoke.cont:                                      ; preds = %_ZNSt12_Vector_baseISt10unique_ptrIN9grpc_core4Rbac9PrincipalESt14default_deleteIS3_EESaIS6_EE13_M_deallocateEPS6_m.exit.i, %if.end.i
  %cmp.i7.not15 = icmp eq ptr %principal_list.val, %principal_list.val2
  br i1 %cmp.i7.not15, label %nrvo.skipdtor, label %for.body.lr.ph

for.body.lr.ph:                                   ; preds = %invoke.cont
  %_M_finish.i = getelementptr inbounds i8, ptr %agg.result, i64 8
  br label %for.body

for.body:                                         ; preds = %for.body.lr.ph, %for.inc
  %__begin2.sroa.0.016 = phi ptr [ %principal_list.val, %for.body.lr.ph ], [ %incdec.ptr.i12, %for.inc ]
  %1 = load ptr, ptr %_M_finish.i, align 8
  %2 = load ptr, ptr %_M_end_of_storage.i.i, align 8
  %cmp.not.i = icmp eq ptr %1, %2
  br i1 %cmp.not.i, label %if.else.i, label %if.then.i8

if.then.i8:                                       ; preds = %for.body
  %3 = load i64, ptr %__begin2.sroa.0.016, align 8
  store i64 %3, ptr %1, align 8
  store ptr null, ptr %__begin2.sroa.0.016, align 8
  %4 = load ptr, ptr %_M_finish.i, align 8
  %incdec.ptr.i = getelementptr inbounds i8, ptr %4, i64 8
  store ptr %incdec.ptr.i, ptr %_M_finish.i, align 8
  br label %for.inc

if.else.i:                                        ; preds = %for.body
  invoke void @_ZNSt6vectorISt10unique_ptrIN9grpc_core4Rbac9PrincipalESt14default_deleteIS3_EESaIS6_EE17_M_realloc_insertIJS6_EEEvN9__gnu_cxx17__normal_iteratorIPS6_S8_EEDpOT_(ptr noundef nonnull align 8 dereferenceable(24) %agg.result, ptr %1, ptr noundef nonnull align 8 dereferenceable(8) %__begin2.sroa.0.016)
          to label %for.inc unwind label %lpad.loopexit

for.inc:                                          ; preds = %if.else.i, %if.then.i8
  %incdec.ptr.i12 = getelementptr inbounds i8, ptr %__begin2.sroa.0.016, i64 8
  %cmp.i7.not = icmp eq ptr %incdec.ptr.i12, %principal_list.val2
  br i1 %cmp.i7.not, label %nrvo.skipdtor, label %for.body

lpad.loopexit:                                    ; preds = %if.else.i
  %lpad.loopexit13 = landingpad { ptr, i32 }
          cleanup
  br label %lpad

lpad.loopexit.split-lp:                           ; preds = %if.then.i, %_ZNSt12_Vector_baseISt10unique_ptrIN9grpc_core4Rbac9PrincipalESt14default_deleteIS3_EESaIS6_EE11_M_allocateEm.exit.i
  %lpad.loopexit.split-lp14 = landingpad { ptr, i32 }
          cleanup
  br label %lpad

lpad:                                             ; preds = %lpad.loopexit.split-lp, %lpad.loopexit
  %lpad.phi = phi { ptr, i32 } [ %lpad.loopexit13, %lpad.loopexit ], [ %lpad.loopexit.split-lp14, %lpad.loopexit.split-lp ]
  tail call void @_ZNSt6vectorISt10unique_ptrIN9grpc_core4Rbac9PrincipalESt14default_deleteIS3_EESaIS6_EED2Ev(ptr noundef nonnull align 8 dereferenceable(24) %agg.result) #22
  resume { ptr, i32 } %lpad.phi

nrvo.skipdtor:                                    ; preds = %for.inc, %invoke.cont
  ret void
}

; Function Attrs: nounwind
declare noundef nonnull align 8 dereferenceable(257) ptr @_ZN9grpc_core4Rbac9PrincipalaSEOS1_(ptr noundef nonnull align 8 dereferenceable(257), ptr noundef nonnull align 8 dereferenceable(257)) local_unnamed_addr #1

; Function Attrs: mustprogress nounwind uwtable
define internal fastcc void @_ZNSt6vectorIN9grpc_core12_GLOBAL__N_110RbacConfig10RbacPolicy5Rules6Policy9PrincipalESaIS6_EED2Ev(ptr nocapture noundef nonnull readonly align 8 dereferenceable(24) %this) unnamed_addr #5 align 2 personality ptr @__gxx_personality_v0 {
entry:
  %0 = load ptr, ptr %this, align 8
  %_M_finish = getelementptr inbounds i8, ptr %this, i64 8
  %1 = load ptr, ptr %_M_finish, align 8
  %cmp.not3.i.i.i = icmp eq ptr %0, %1
  br i1 %cmp.not3.i.i.i, label %invoke.cont, label %for.body.i.i.i

for.body.i.i.i:                                   ; preds = %entry, %_ZSt8_DestroyIN9grpc_core12_GLOBAL__N_110RbacConfig10RbacPolicy5Rules6Policy9PrincipalEEvPT_.exit.i.i.i
  %__first.addr.04.i.i.i = phi ptr [ %incdec.ptr.i.i.i, %_ZSt8_DestroyIN9grpc_core12_GLOBAL__N_110RbacConfig10RbacPolicy5Rules6Policy9PrincipalEEvPT_.exit.i.i.i ], [ %0, %entry ]
  %2 = load ptr, ptr %__first.addr.04.i.i.i, align 8
  %cmp.not.i.i.i.i.i.i = icmp eq ptr %2, null
  br i1 %cmp.not.i.i.i.i.i.i, label %_ZSt8_DestroyIN9grpc_core12_GLOBAL__N_110RbacConfig10RbacPolicy5Rules6Policy9PrincipalEEvPT_.exit.i.i.i, label %_ZNKSt14default_deleteIN9grpc_core4Rbac9PrincipalEEclEPS2_.exit.i.i.i.i.i.i

_ZNKSt14default_deleteIN9grpc_core4Rbac9PrincipalEEclEPS2_.exit.i.i.i.i.i.i: ; preds = %for.body.i.i.i
  tail call void @_ZN9grpc_core4Rbac9PrincipalD2Ev(ptr noundef nonnull align 8 dereferenceable(257) %2) #22
  tail call void @_ZdlPv(ptr noundef nonnull %2) #24
  br label %_ZSt8_DestroyIN9grpc_core12_GLOBAL__N_110RbacConfig10RbacPolicy5Rules6Policy9PrincipalEEvPT_.exit.i.i.i

_ZSt8_DestroyIN9grpc_core12_GLOBAL__N_110RbacConfig10RbacPolicy5Rules6Policy9PrincipalEEvPT_.exit.i.i.i: ; preds = %_ZNKSt14default_deleteIN9grpc_core4Rbac9PrincipalEEclEPS2_.exit.i.i.i.i.i.i, %for.body.i.i.i
  store ptr null, ptr %__first.addr.04.i.i.i, align 8
  %incdec.ptr.i.i.i = getelementptr inbounds i8, ptr %__first.addr.04.i.i.i, i64 8
  %cmp.not.i.i.i = icmp eq ptr %incdec.ptr.i.i.i, %1
  br i1 %cmp.not.i.i.i, label %invoke.contthread-pre-split, label %for.body.i.i.i, !llvm.loop !45

invoke.contthread-pre-split:                      ; preds = %_ZSt8_DestroyIN9grpc_core12_GLOBAL__N_110RbacConfig10RbacPolicy5Rules6Policy9PrincipalEEvPT_.exit.i.i.i
  %this.val.pr = load ptr, ptr %this, align 8
  br label %invoke.cont

invoke.cont:                                      ; preds = %invoke.contthread-pre-split, %entry
  %this.val = phi ptr [ %this.val.pr, %invoke.contthread-pre-split ], [ %0, %entry ]
  %tobool.not.i.i = icmp eq ptr %this.val, null
  br i1 %tobool.not.i.i, label %_ZNSt12_Vector_baseIN9grpc_core12_GLOBAL__N_110RbacConfig10RbacPolicy5Rules6Policy9PrincipalESaIS6_EED2Ev.exit, label %if.then.i.i

if.then.i.i:                                      ; preds = %invoke.cont
  tail call void @_ZdlPv(ptr noundef nonnull %this.val) #24
  br label %_ZNSt12_Vector_baseIN9grpc_core12_GLOBAL__N_110RbacConfig10RbacPolicy5Rules6Policy9PrincipalESaIS6_EED2Ev.exit

_ZNSt12_Vector_baseIN9grpc_core12_GLOBAL__N_110RbacConfig10RbacPolicy5Rules6Policy9PrincipalESaIS6_EED2Ev.exit: ; preds = %invoke.cont, %if.then.i.i
  ret void
}

; Function Attrs: mustprogress uwtable
define linkonce_odr void @_ZNSt6vectorISt10unique_ptrIN9grpc_core4Rbac10PermissionESt14default_deleteIS3_EESaIS6_EE17_M_realloc_insertIJS6_EEEvN9__gnu_cxx17__normal_iteratorIPS6_S8_EEDpOT_(ptr noundef nonnull align 8 dereferenceable(24) %this, ptr %__position.coerce, ptr noundef nonnull align 8 dereferenceable(8) %__args) local_unnamed_addr #3 comdat align 2 personality ptr @__gxx_personality_v0 {
entry:
  %_M_finish.i.i = getelementptr inbounds i8, ptr %this, i64 8
  %0 = load ptr, ptr %_M_finish.i.i, align 8
  %1 = load ptr, ptr %this, align 8
  %sub.ptr.lhs.cast.i.i = ptrtoint ptr %0 to i64
  %sub.ptr.rhs.cast.i.i = ptrtoint ptr %1 to i64
  %sub.ptr.sub.i.i = sub i64 %sub.ptr.lhs.cast.i.i, %sub.ptr.rhs.cast.i.i
  %cmp.i = icmp eq i64 %sub.ptr.sub.i.i, 9223372036854775800
  br i1 %cmp.i, label %if.then.i, label %_ZNKSt6vectorISt10unique_ptrIN9grpc_core4Rbac10PermissionESt14default_deleteIS3_EESaIS6_EE12_M_check_lenEmPKc.exit

if.then.i:                                        ; preds = %entry
  tail call void @_ZSt20__throw_length_errorPKc(ptr noundef nonnull @.str.33) #20
  unreachable

_ZNKSt6vectorISt10unique_ptrIN9grpc_core4Rbac10PermissionESt14default_deleteIS3_EESaIS6_EE12_M_check_lenEmPKc.exit: ; preds = %entry
  %sub.ptr.div.i.i = ashr exact i64 %sub.ptr.sub.i.i, 3
  %.sroa.speculated.i = tail call i64 @llvm.umax.i64(i64 %sub.ptr.div.i.i, i64 1)
  %add.i = add i64 %.sroa.speculated.i, %sub.ptr.div.i.i
  %cmp7.i = icmp ult i64 %add.i, %sub.ptr.div.i.i
  %cmp9.i = icmp ugt i64 %add.i, 1152921504606846975
  %or.cond.i = or i1 %cmp7.i, %cmp9.i
  %cond.i = select i1 %or.cond.i, i64 1152921504606846975, i64 %add.i
  %sub.ptr.lhs.cast.i = ptrtoint ptr %__position.coerce to i64
  %sub.ptr.sub.i = sub i64 %sub.ptr.lhs.cast.i, %sub.ptr.rhs.cast.i.i
  %sub.ptr.div.i = ashr exact i64 %sub.ptr.sub.i, 3
  %cmp.not.i = icmp eq i64 %cond.i, 0
  br i1 %cmp.not.i, label %_ZNSt12_Vector_baseISt10unique_ptrIN9grpc_core4Rbac10PermissionESt14default_deleteIS3_EESaIS6_EE11_M_allocateEm.exit, label %_ZNSt16allocator_traitsISaISt10unique_ptrIN9grpc_core4Rbac10PermissionESt14default_deleteIS3_EEEE8allocateERS7_m.exit.i

_ZNSt16allocator_traitsISaISt10unique_ptrIN9grpc_core4Rbac10PermissionESt14default_deleteIS3_EEEE8allocateERS7_m.exit.i: ; preds = %_ZNKSt6vectorISt10unique_ptrIN9grpc_core4Rbac10PermissionESt14default_deleteIS3_EESaIS6_EE12_M_check_lenEmPKc.exit
  %mul.i.i.i = shl nuw nsw i64 %cond.i, 3
  %call5.i.i.i = tail call noalias noundef nonnull ptr @_Znwm(i64 noundef %mul.i.i.i) #21
  br label %_ZNSt12_Vector_baseISt10unique_ptrIN9grpc_core4Rbac10PermissionESt14default_deleteIS3_EESaIS6_EE11_M_allocateEm.exit

_ZNSt12_Vector_baseISt10unique_ptrIN9grpc_core4Rbac10PermissionESt14default_deleteIS3_EESaIS6_EE11_M_allocateEm.exit: ; preds = %_ZNKSt6vectorISt10unique_ptrIN9grpc_core4Rbac10PermissionESt14default_deleteIS3_EESaIS6_EE12_M_check_lenEmPKc.exit, %_ZNSt16allocator_traitsISaISt10unique_ptrIN9grpc_core4Rbac10PermissionESt14default_deleteIS3_EEEE8allocateERS7_m.exit.i
  %cond.i10 = phi ptr [ %call5.i.i.i, %_ZNSt16allocator_traitsISaISt10unique_ptrIN9grpc_core4Rbac10PermissionESt14default_deleteIS3_EEEE8allocateERS7_m.exit.i ], [ null, %_ZNKSt6vectorISt10unique_ptrIN9grpc_core4Rbac10PermissionESt14default_deleteIS3_EESaIS6_EE12_M_check_lenEmPKc.exit ]
  %add.ptr = getelementptr inbounds %"class.std::unique_ptr.200", ptr %cond.i10, i64 %sub.ptr.div.i
  %2 = load i64, ptr %__args, align 8
  store i64 %2, ptr %add.ptr, align 8
  store ptr null, ptr %__args, align 8
  %cmp.not5.i.i.i = icmp eq ptr %1, %__position.coerce
  br i1 %cmp.not5.i.i.i, label %_ZNSt6vectorISt10unique_ptrIN9grpc_core4Rbac10PermissionESt14default_deleteIS3_EESaIS6_EE11_S_relocateEPS6_S9_S9_RS7_.exit, label %for.body.i.i.i

for.body.i.i.i:                                   ; preds = %_ZNSt12_Vector_baseISt10unique_ptrIN9grpc_core4Rbac10PermissionESt14default_deleteIS3_EESaIS6_EE11_M_allocateEm.exit, %for.body.i.i.i
  %__cur.07.i.i.i = phi ptr [ %incdec.ptr1.i.i.i, %for.body.i.i.i ], [ %cond.i10, %_ZNSt12_Vector_baseISt10unique_ptrIN9grpc_core4Rbac10PermissionESt14default_deleteIS3_EESaIS6_EE11_M_allocateEm.exit ]
  %__first.addr.06.i.i.i = phi ptr [ %incdec.ptr.i.i.i, %for.body.i.i.i ], [ %1, %_ZNSt12_Vector_baseISt10unique_ptrIN9grpc_core4Rbac10PermissionESt14default_deleteIS3_EESaIS6_EE11_M_allocateEm.exit ]
  tail call void @llvm.experimental.noalias.scope.decl(metadata !61)
  tail call void @llvm.experimental.noalias.scope.decl(metadata !64)
  %3 = load i64, ptr %__first.addr.06.i.i.i, align 8, !alias.scope !64, !noalias !61
  store i64 %3, ptr %__cur.07.i.i.i, align 8, !alias.scope !61, !noalias !64
  store ptr null, ptr %__first.addr.06.i.i.i, align 8, !alias.scope !64, !noalias !61
  %incdec.ptr.i.i.i = getelementptr inbounds i8, ptr %__first.addr.06.i.i.i, i64 8
  %incdec.ptr1.i.i.i = getelementptr inbounds i8, ptr %__cur.07.i.i.i, i64 8
  %cmp.not.i.i.i = icmp eq ptr %incdec.ptr.i.i.i, %__position.coerce
  br i1 %cmp.not.i.i.i, label %_ZNSt6vectorISt10unique_ptrIN9grpc_core4Rbac10PermissionESt14default_deleteIS3_EESaIS6_EE11_S_relocateEPS6_S9_S9_RS7_.exit, label %for.body.i.i.i, !llvm.loop !31

_ZNSt6vectorISt10unique_ptrIN9grpc_core4Rbac10PermissionESt14default_deleteIS3_EESaIS6_EE11_S_relocateEPS6_S9_S9_RS7_.exit: ; preds = %for.body.i.i.i, %_ZNSt12_Vector_baseISt10unique_ptrIN9grpc_core4Rbac10PermissionESt14default_deleteIS3_EESaIS6_EE11_M_allocateEm.exit
  %__cur.0.lcssa.i.i.i = phi ptr [ %cond.i10, %_ZNSt12_Vector_baseISt10unique_ptrIN9grpc_core4Rbac10PermissionESt14default_deleteIS3_EESaIS6_EE11_M_allocateEm.exit ], [ %incdec.ptr1.i.i.i, %for.body.i.i.i ]
  %incdec.ptr = getelementptr i8, ptr %__cur.0.lcssa.i.i.i, i64 8
  %cmp.not5.i.i.i11 = icmp eq ptr %0, %__position.coerce
  br i1 %cmp.not5.i.i.i11, label %_ZNSt6vectorISt10unique_ptrIN9grpc_core4Rbac10PermissionESt14default_deleteIS3_EESaIS6_EE11_S_relocateEPS6_S9_S9_RS7_.exit19, label %for.body.i.i.i12

for.body.i.i.i12:                                 ; preds = %_ZNSt6vectorISt10unique_ptrIN9grpc_core4Rbac10PermissionESt14default_deleteIS3_EESaIS6_EE11_S_relocateEPS6_S9_S9_RS7_.exit, %for.body.i.i.i12
  %__cur.07.i.i.i13 = phi ptr [ %incdec.ptr1.i.i.i16, %for.body.i.i.i12 ], [ %incdec.ptr, %_ZNSt6vectorISt10unique_ptrIN9grpc_core4Rbac10PermissionESt14default_deleteIS3_EESaIS6_EE11_S_relocateEPS6_S9_S9_RS7_.exit ]
  %__first.addr.06.i.i.i14 = phi ptr [ %incdec.ptr.i.i.i15, %for.body.i.i.i12 ], [ %__position.coerce, %_ZNSt6vectorISt10unique_ptrIN9grpc_core4Rbac10PermissionESt14default_deleteIS3_EESaIS6_EE11_S_relocateEPS6_S9_S9_RS7_.exit ]
  tail call void @llvm.experimental.noalias.scope.decl(metadata !66)
  tail call void @llvm.experimental.noalias.scope.decl(metadata !69)
  %4 = load i64, ptr %__first.addr.06.i.i.i14, align 8, !alias.scope !69, !noalias !66
  store i64 %4, ptr %__cur.07.i.i.i13, align 8, !alias.scope !66, !noalias !69
  store ptr null, ptr %__first.addr.06.i.i.i14, align 8, !alias.scope !69, !noalias !66
  %incdec.ptr.i.i.i15 = getelementptr inbounds i8, ptr %__first.addr.06.i.i.i14, i64 8
  %incdec.ptr1.i.i.i16 = getelementptr inbounds i8, ptr %__cur.07.i.i.i13, i64 8
  %cmp.not.i.i.i17 = icmp eq ptr %incdec.ptr.i.i.i15, %0
  br i1 %cmp.not.i.i.i17, label %_ZNSt6vectorISt10unique_ptrIN9grpc_core4Rbac10PermissionESt14default_deleteIS3_EESaIS6_EE11_S_relocateEPS6_S9_S9_RS7_.exit19, label %for.body.i.i.i12, !llvm.loop !31

_ZNSt6vectorISt10unique_ptrIN9grpc_core4Rbac10PermissionESt14default_deleteIS3_EESaIS6_EE11_S_relocateEPS6_S9_S9_RS7_.exit19: ; preds = %for.body.i.i.i12, %_ZNSt6vectorISt10unique_ptrIN9grpc_core4Rbac10PermissionESt14default_deleteIS3_EESaIS6_EE11_S_relocateEPS6_S9_S9_RS7_.exit
  %__cur.0.lcssa.i.i.i18 = phi ptr [ %incdec.ptr, %_ZNSt6vectorISt10unique_ptrIN9grpc_core4Rbac10PermissionESt14default_deleteIS3_EESaIS6_EE11_S_relocateEPS6_S9_S9_RS7_.exit ], [ %incdec.ptr1.i.i.i16, %for.body.i.i.i12 ]
  %tobool.not.i = icmp eq ptr %1, null
  br i1 %tobool.not.i, label %_ZNSt12_Vector_baseISt10unique_ptrIN9grpc_core4Rbac10PermissionESt14default_deleteIS3_EESaIS6_EE13_M_deallocateEPS6_m.exit, label %if.then.i20

if.then.i20:                                      ; preds = %_ZNSt6vectorISt10unique_ptrIN9grpc_core4Rbac10PermissionESt14default_deleteIS3_EESaIS6_EE11_S_relocateEPS6_S9_S9_RS7_.exit19
  tail call void @_ZdlPv(ptr noundef nonnull %1) #24
  br label %_ZNSt12_Vector_baseISt10unique_ptrIN9grpc_core4Rbac10PermissionESt14default_deleteIS3_EESaIS6_EE13_M_deallocateEPS6_m.exit

_ZNSt12_Vector_baseISt10unique_ptrIN9grpc_core4Rbac10PermissionESt14default_deleteIS3_EESaIS6_EE13_M_deallocateEPS6_m.exit: ; preds = %_ZNSt6vectorISt10unique_ptrIN9grpc_core4Rbac10PermissionESt14default_deleteIS3_EESaIS6_EE11_S_relocateEPS6_S9_S9_RS7_.exit19, %if.then.i20
  %_M_end_of_storage = getelementptr inbounds i8, ptr %this, i64 16
  store ptr %cond.i10, ptr %this, align 8
  store ptr %__cur.0.lcssa.i.i.i18, ptr %_M_finish.i.i, align 8
  %add.ptr19 = getelementptr inbounds %"class.std::unique_ptr.200", ptr %cond.i10, i64 %cond.i
  store ptr %add.ptr19, ptr %_M_end_of_storage, align 8
  ret void
}

; Function Attrs: mustprogress nounwind uwtable
define internal fastcc void @_ZN9grpc_core12_GLOBAL__N_110RbacConfig10RbacPolicy5Rules6Policy10PermissionD2Ev(ptr nocapture noundef nonnull align 8 dereferenceable(8) %this) unnamed_addr #5 align 2 personality ptr @__gxx_personality_v0 {
entry:
  %0 = load ptr, ptr %this, align 8
  %cmp.not.i = icmp eq ptr %0, null
  br i1 %cmp.not.i, label %_ZNSt10unique_ptrIN9grpc_core4Rbac10PermissionESt14default_deleteIS2_EED2Ev.exit, label %_ZNKSt14default_deleteIN9grpc_core4Rbac10PermissionEEclEPS2_.exit.i

_ZNKSt14default_deleteIN9grpc_core4Rbac10PermissionEEclEPS2_.exit.i: ; preds = %entry
  tail call void @_ZN9grpc_core4Rbac10PermissionD2Ev(ptr noundef nonnull align 8 dereferenceable(257) %0) #22
  tail call void @_ZdlPv(ptr noundef nonnull %0) #24
  br label %_ZNSt10unique_ptrIN9grpc_core4Rbac10PermissionESt14default_deleteIS2_EED2Ev.exit

_ZNSt10unique_ptrIN9grpc_core4Rbac10PermissionESt14default_deleteIS2_EED2Ev.exit: ; preds = %entry, %_ZNKSt14default_deleteIN9grpc_core4Rbac10PermissionEEclEPS2_.exit.i
  store ptr null, ptr %this, align 8
  ret void
}

; Function Attrs: mustprogress uwtable
define linkonce_odr void @_ZNSt6vectorISt10unique_ptrIN9grpc_core4Rbac9PrincipalESt14default_deleteIS3_EESaIS6_EE17_M_realloc_insertIJS6_EEEvN9__gnu_cxx17__normal_iteratorIPS6_S8_EEDpOT_(ptr noundef nonnull align 8 dereferenceable(24) %this, ptr %__position.coerce, ptr noundef nonnull align 8 dereferenceable(8) %__args) local_unnamed_addr #3 comdat align 2 personality ptr @__gxx_personality_v0 {
entry:
  %_M_finish.i.i = getelementptr inbounds i8, ptr %this, i64 8
  %0 = load ptr, ptr %_M_finish.i.i, align 8
  %1 = load ptr, ptr %this, align 8
  %sub.ptr.lhs.cast.i.i = ptrtoint ptr %0 to i64
  %sub.ptr.rhs.cast.i.i = ptrtoint ptr %1 to i64
  %sub.ptr.sub.i.i = sub i64 %sub.ptr.lhs.cast.i.i, %sub.ptr.rhs.cast.i.i
  %cmp.i = icmp eq i64 %sub.ptr.sub.i.i, 9223372036854775800
  br i1 %cmp.i, label %if.then.i, label %_ZNKSt6vectorISt10unique_ptrIN9grpc_core4Rbac9PrincipalESt14default_deleteIS3_EESaIS6_EE12_M_check_lenEmPKc.exit

if.then.i:                                        ; preds = %entry
  tail call void @_ZSt20__throw_length_errorPKc(ptr noundef nonnull @.str.33) #20
  unreachable

_ZNKSt6vectorISt10unique_ptrIN9grpc_core4Rbac9PrincipalESt14default_deleteIS3_EESaIS6_EE12_M_check_lenEmPKc.exit: ; preds = %entry
  %sub.ptr.div.i.i = ashr exact i64 %sub.ptr.sub.i.i, 3
  %.sroa.speculated.i = tail call i64 @llvm.umax.i64(i64 %sub.ptr.div.i.i, i64 1)
  %add.i = add i64 %.sroa.speculated.i, %sub.ptr.div.i.i
  %cmp7.i = icmp ult i64 %add.i, %sub.ptr.div.i.i
  %cmp9.i = icmp ugt i64 %add.i, 1152921504606846975
  %or.cond.i = or i1 %cmp7.i, %cmp9.i
  %cond.i = select i1 %or.cond.i, i64 1152921504606846975, i64 %add.i
  %sub.ptr.lhs.cast.i = ptrtoint ptr %__position.coerce to i64
  %sub.ptr.sub.i = sub i64 %sub.ptr.lhs.cast.i, %sub.ptr.rhs.cast.i.i
  %sub.ptr.div.i = ashr exact i64 %sub.ptr.sub.i, 3
  %cmp.not.i = icmp eq i64 %cond.i, 0
  br i1 %cmp.not.i, label %_ZNSt12_Vector_baseISt10unique_ptrIN9grpc_core4Rbac9PrincipalESt14default_deleteIS3_EESaIS6_EE11_M_allocateEm.exit, label %_ZNSt16allocator_traitsISaISt10unique_ptrIN9grpc_core4Rbac9PrincipalESt14default_deleteIS3_EEEE8allocateERS7_m.exit.i

_ZNSt16allocator_traitsISaISt10unique_ptrIN9grpc_core4Rbac9PrincipalESt14default_deleteIS3_EEEE8allocateERS7_m.exit.i: ; preds = %_ZNKSt6vectorISt10unique_ptrIN9grpc_core4Rbac9PrincipalESt14default_deleteIS3_EESaIS6_EE12_M_check_lenEmPKc.exit
  %mul.i.i.i = shl nuw nsw i64 %cond.i, 3
  %call5.i.i.i = tail call noalias noundef nonnull ptr @_Znwm(i64 noundef %mul.i.i.i) #21
  br label %_ZNSt12_Vector_baseISt10unique_ptrIN9grpc_core4Rbac9PrincipalESt14default_deleteIS3_EESaIS6_EE11_M_allocateEm.exit

_ZNSt12_Vector_baseISt10unique_ptrIN9grpc_core4Rbac9PrincipalESt14default_deleteIS3_EESaIS6_EE11_M_allocateEm.exit: ; preds = %_ZNKSt6vectorISt10unique_ptrIN9grpc_core4Rbac9PrincipalESt14default_deleteIS3_EESaIS6_EE12_M_check_lenEmPKc.exit, %_ZNSt16allocator_traitsISaISt10unique_ptrIN9grpc_core4Rbac9PrincipalESt14default_deleteIS3_EEEE8allocateERS7_m.exit.i
  %cond.i10 = phi ptr [ %call5.i.i.i, %_ZNSt16allocator_traitsISaISt10unique_ptrIN9grpc_core4Rbac9PrincipalESt14default_deleteIS3_EEEE8allocateERS7_m.exit.i ], [ null, %_ZNKSt6vectorISt10unique_ptrIN9grpc_core4Rbac9PrincipalESt14default_deleteIS3_EESaIS6_EE12_M_check_lenEmPKc.exit ]
  %add.ptr = getelementptr inbounds %"class.std::unique_ptr.188", ptr %cond.i10, i64 %sub.ptr.div.i
  %2 = load i64, ptr %__args, align 8
  store i64 %2, ptr %add.ptr, align 8
  store ptr null, ptr %__args, align 8
  %cmp.not5.i.i.i = icmp eq ptr %1, %__position.coerce
  br i1 %cmp.not5.i.i.i, label %_ZNSt6vectorISt10unique_ptrIN9grpc_core4Rbac9PrincipalESt14default_deleteIS3_EESaIS6_EE11_S_relocateEPS6_S9_S9_RS7_.exit, label %for.body.i.i.i

for.body.i.i.i:                                   ; preds = %_ZNSt12_Vector_baseISt10unique_ptrIN9grpc_core4Rbac9PrincipalESt14default_deleteIS3_EESaIS6_EE11_M_allocateEm.exit, %for.body.i.i.i
  %__cur.07.i.i.i = phi ptr [ %incdec.ptr1.i.i.i, %for.body.i.i.i ], [ %cond.i10, %_ZNSt12_Vector_baseISt10unique_ptrIN9grpc_core4Rbac9PrincipalESt14default_deleteIS3_EESaIS6_EE11_M_allocateEm.exit ]
  %__first.addr.06.i.i.i = phi ptr [ %incdec.ptr.i.i.i, %for.body.i.i.i ], [ %1, %_ZNSt12_Vector_baseISt10unique_ptrIN9grpc_core4Rbac9PrincipalESt14default_deleteIS3_EESaIS6_EE11_M_allocateEm.exit ]
  tail call void @llvm.experimental.noalias.scope.decl(metadata !71)
  tail call void @llvm.experimental.noalias.scope.decl(metadata !74)
  %3 = load i64, ptr %__first.addr.06.i.i.i, align 8, !alias.scope !74, !noalias !71
  store i64 %3, ptr %__cur.07.i.i.i, align 8, !alias.scope !71, !noalias !74
  store ptr null, ptr %__first.addr.06.i.i.i, align 8, !alias.scope !74, !noalias !71
  %incdec.ptr.i.i.i = getelementptr inbounds i8, ptr %__first.addr.06.i.i.i, i64 8
  %incdec.ptr1.i.i.i = getelementptr inbounds i8, ptr %__cur.07.i.i.i, i64 8
  %cmp.not.i.i.i = icmp eq ptr %incdec.ptr.i.i.i, %__position.coerce
  br i1 %cmp.not.i.i.i, label %_ZNSt6vectorISt10unique_ptrIN9grpc_core4Rbac9PrincipalESt14default_deleteIS3_EESaIS6_EE11_S_relocateEPS6_S9_S9_RS7_.exit, label %for.body.i.i.i, !llvm.loop !43

_ZNSt6vectorISt10unique_ptrIN9grpc_core4Rbac9PrincipalESt14default_deleteIS3_EESaIS6_EE11_S_relocateEPS6_S9_S9_RS7_.exit: ; preds = %for.body.i.i.i, %_ZNSt12_Vector_baseISt10unique_ptrIN9grpc_core4Rbac9PrincipalESt14default_deleteIS3_EESaIS6_EE11_M_allocateEm.exit
  %__cur.0.lcssa.i.i.i = phi ptr [ %cond.i10, %_ZNSt12_Vector_baseISt10unique_ptrIN9grpc_core4Rbac9PrincipalESt14default_deleteIS3_EESaIS6_EE11_M_allocateEm.exit ], [ %incdec.ptr1.i.i.i, %for.body.i.i.i ]
  %incdec.ptr = getelementptr i8, ptr %__cur.0.lcssa.i.i.i, i64 8
  %cmp.not5.i.i.i11 = icmp eq ptr %0, %__position.coerce
  br i1 %cmp.not5.i.i.i11, label %_ZNSt6vectorISt10unique_ptrIN9grpc_core4Rbac9PrincipalESt14default_deleteIS3_EESaIS6_EE11_S_relocateEPS6_S9_S9_RS7_.exit19, label %for.body.i.i.i12

for.body.i.i.i12:                                 ; preds = %_ZNSt6vectorISt10unique_ptrIN9grpc_core4Rbac9PrincipalESt14default_deleteIS3_EESaIS6_EE11_S_relocateEPS6_S9_S9_RS7_.exit, %for.body.i.i.i12
  %__cur.07.i.i.i13 = phi ptr [ %incdec.ptr1.i.i.i16, %for.body.i.i.i12 ], [ %incdec.ptr, %_ZNSt6vectorISt10unique_ptrIN9grpc_core4Rbac9PrincipalESt14default_deleteIS3_EESaIS6_EE11_S_relocateEPS6_S9_S9_RS7_.exit ]
  %__first.addr.06.i.i.i14 = phi ptr [ %incdec.ptr.i.i.i15, %for.body.i.i.i12 ], [ %__position.coerce, %_ZNSt6vectorISt10unique_ptrIN9grpc_core4Rbac9PrincipalESt14default_deleteIS3_EESaIS6_EE11_S_relocateEPS6_S9_S9_RS7_.exit ]
  tail call void @llvm.experimental.noalias.scope.decl(metadata !76)
  tail call void @llvm.experimental.noalias.scope.decl(metadata !79)
  %4 = load i64, ptr %__first.addr.06.i.i.i14, align 8, !alias.scope !79, !noalias !76
  store i64 %4, ptr %__cur.07.i.i.i13, align 8, !alias.scope !76, !noalias !79
  store ptr null, ptr %__first.addr.06.i.i.i14, align 8, !alias.scope !79, !noalias !76
  %incdec.ptr.i.i.i15 = getelementptr inbounds i8, ptr %__first.addr.06.i.i.i14, i64 8
  %incdec.ptr1.i.i.i16 = getelementptr inbounds i8, ptr %__cur.07.i.i.i13, i64 8
  %cmp.not.i.i.i17 = icmp eq ptr %incdec.ptr.i.i.i15, %0
  br i1 %cmp.not.i.i.i17, label %_ZNSt6vectorISt10unique_ptrIN9grpc_core4Rbac9PrincipalESt14default_deleteIS3_EESaIS6_EE11_S_relocateEPS6_S9_S9_RS7_.exit19, label %for.body.i.i.i12, !llvm.loop !43

_ZNSt6vectorISt10unique_ptrIN9grpc_core4Rbac9PrincipalESt14default_deleteIS3_EESaIS6_EE11_S_relocateEPS6_S9_S9_RS7_.exit19: ; preds = %for.body.i.i.i12, %_ZNSt6vectorISt10unique_ptrIN9grpc_core4Rbac9PrincipalESt14default_deleteIS3_EESaIS6_EE11_S_relocateEPS6_S9_S9_RS7_.exit
  %__cur.0.lcssa.i.i.i18 = phi ptr [ %incdec.ptr, %_ZNSt6vectorISt10unique_ptrIN9grpc_core4Rbac9PrincipalESt14default_deleteIS3_EESaIS6_EE11_S_relocateEPS6_S9_S9_RS7_.exit ], [ %incdec.ptr1.i.i.i16, %for.body.i.i.i12 ]
  %tobool.not.i = icmp eq ptr %1, null
  br i1 %tobool.not.i, label %_ZNSt12_Vector_baseISt10unique_ptrIN9grpc_core4Rbac9PrincipalESt14default_deleteIS3_EESaIS6_EE13_M_deallocateEPS6_m.exit, label %if.then.i20

if.then.i20:                                      ; preds = %_ZNSt6vectorISt10unique_ptrIN9grpc_core4Rbac9PrincipalESt14default_deleteIS3_EESaIS6_EE11_S_relocateEPS6_S9_S9_RS7_.exit19
  tail call void @_ZdlPv(ptr noundef nonnull %1) #24
  br label %_ZNSt12_Vector_baseISt10unique_ptrIN9grpc_core4Rbac9PrincipalESt14default_deleteIS3_EESaIS6_EE13_M_deallocateEPS6_m.exit

_ZNSt12_Vector_baseISt10unique_ptrIN9grpc_core4Rbac9PrincipalESt14default_deleteIS3_EESaIS6_EE13_M_deallocateEPS6_m.exit: ; preds = %_ZNSt6vectorISt10unique_ptrIN9grpc_core4Rbac9PrincipalESt14default_deleteIS3_EESaIS6_EE11_S_relocateEPS6_S9_S9_RS7_.exit19, %if.then.i20
  %_M_end_of_storage = getelementptr inbounds i8, ptr %this, i64 16
  store ptr %cond.i10, ptr %this, align 8
  store ptr %__cur.0.lcssa.i.i.i18, ptr %_M_finish.i.i, align 8
  %add.ptr19 = getelementptr inbounds %"class.std::unique_ptr.188", ptr %cond.i10, i64 %cond.i
  store ptr %add.ptr19, ptr %_M_end_of_storage, align 8
  ret void
}

; Function Attrs: mustprogress nounwind uwtable
define internal fastcc void @_ZN9grpc_core12_GLOBAL__N_110RbacConfig10RbacPolicy5Rules6Policy9PrincipalD2Ev(ptr nocapture noundef nonnull align 8 dereferenceable(8) %this) unnamed_addr #5 align 2 personality ptr @__gxx_personality_v0 {
entry:
  %0 = load ptr, ptr %this, align 8
  %cmp.not.i = icmp eq ptr %0, null
  br i1 %cmp.not.i, label %_ZNSt10unique_ptrIN9grpc_core4Rbac9PrincipalESt14default_deleteIS2_EED2Ev.exit, label %_ZNKSt14default_deleteIN9grpc_core4Rbac9PrincipalEEclEPS2_.exit.i

_ZNKSt14default_deleteIN9grpc_core4Rbac9PrincipalEEclEPS2_.exit.i: ; preds = %entry
  tail call void @_ZN9grpc_core4Rbac9PrincipalD2Ev(ptr noundef nonnull align 8 dereferenceable(257) %0) #22
  tail call void @_ZdlPv(ptr noundef nonnull %0) #24
  br label %_ZNSt10unique_ptrIN9grpc_core4Rbac9PrincipalESt14default_deleteIS2_EED2Ev.exit

_ZNSt10unique_ptrIN9grpc_core4Rbac9PrincipalESt14default_deleteIS2_EED2Ev.exit: ; preds = %entry, %_ZNKSt14default_deleteIN9grpc_core4Rbac9PrincipalEEclEPS2_.exit.i
  store ptr null, ptr %this, align 8
  ret void
}

; Function Attrs: mustprogress nounwind uwtable
define internal fastcc void @_ZNSt8_Rb_treeINSt7__cxx1112basic_stringIcSt11char_traitsIcESaIcEEESt4pairIKS5_N9grpc_core12_GLOBAL__N_110RbacConfig10RbacPolicy5Rules6PolicyEESt10_Select1stISE_ESt4lessIS5_ESaISE_EE8_M_eraseEPSt13_Rb_tree_nodeISE_E(ptr noundef %__x) unnamed_addr #5 align 2 personality ptr @__gxx_personality_v0 {
entry:
  %cmp.not5 = icmp eq ptr %__x, null
  br i1 %cmp.not5, label %while.end, label %while.body

while.body:                                       ; preds = %entry, %while.body
  %__x.addr.06 = phi ptr [ %__x.addr.0.val4, %while.body ], [ %__x, %entry ]
  %0 = getelementptr i8, ptr %__x.addr.06, i64 24
  %__x.addr.0.val = load ptr, ptr %0, align 8
  tail call fastcc void @_ZNSt8_Rb_treeINSt7__cxx1112basic_stringIcSt11char_traitsIcESaIcEEESt4pairIKS5_N9grpc_core12_GLOBAL__N_110RbacConfig10RbacPolicy5Rules6PolicyEESt10_Select1stISE_ESt4lessIS5_ESaISE_EE8_M_eraseEPSt13_Rb_tree_nodeISE_E(ptr noundef %__x.addr.0.val)
  %1 = getelementptr i8, ptr %__x.addr.06, i64 16
  %__x.addr.0.val4 = load ptr, ptr %1, align 8
  %_M_storage.i.i.i = getelementptr inbounds i8, ptr %__x.addr.06, i64 32
  %second.i.i.i.i.i = getelementptr inbounds i8, ptr %__x.addr.06, i64 64
  tail call fastcc void @_ZN9grpc_core12_GLOBAL__N_110RbacConfig10RbacPolicy5Rules6PolicyD2Ev(ptr noundef nonnull align 8 dereferenceable(48) %second.i.i.i.i.i) #22
  tail call void @_ZNSt7__cxx1112basic_stringIcSt11char_traitsIcESaIcEED1Ev(ptr noundef nonnull align 8 dereferenceable(32) %_M_storage.i.i.i) #22
  tail call void @_ZdlPv(ptr noundef nonnull %__x.addr.06) #24
  %cmp.not = icmp eq ptr %__x.addr.0.val4, null
  br i1 %cmp.not, label %while.end, label %while.body, !llvm.loop !81

while.end:                                        ; preds = %while.body, %entry
  ret void
}

; Function Attrs: mustprogress nounwind uwtable
define internal fastcc void @_ZN9grpc_core12_GLOBAL__N_110RbacConfig10RbacPolicy5Rules6PolicyD2Ev(ptr nocapture noundef nonnull readonly align 8 dereferenceable(48) %this) unnamed_addr #5 align 2 personality ptr @__gxx_personality_v0 {
entry:
  %principals = getelementptr inbounds i8, ptr %this, i64 24
  %0 = load ptr, ptr %principals, align 8
  %_M_finish.i = getelementptr inbounds i8, ptr %this, i64 32
  %1 = load ptr, ptr %_M_finish.i, align 8
  %cmp.not3.i.i.i.i = icmp eq ptr %0, %1
  br i1 %cmp.not3.i.i.i.i, label %invoke.cont.i, label %for.body.i.i.i.i

for.body.i.i.i.i:                                 ; preds = %entry, %_ZSt8_DestroyIN9grpc_core12_GLOBAL__N_110RbacConfig10RbacPolicy5Rules6Policy9PrincipalEEvPT_.exit.i.i.i.i
  %__first.addr.04.i.i.i.i = phi ptr [ %incdec.ptr.i.i.i.i, %_ZSt8_DestroyIN9grpc_core12_GLOBAL__N_110RbacConfig10RbacPolicy5Rules6Policy9PrincipalEEvPT_.exit.i.i.i.i ], [ %0, %entry ]
  %2 = load ptr, ptr %__first.addr.04.i.i.i.i, align 8
  %cmp.not.i.i.i.i.i.i.i = icmp eq ptr %2, null
  br i1 %cmp.not.i.i.i.i.i.i.i, label %_ZSt8_DestroyIN9grpc_core12_GLOBAL__N_110RbacConfig10RbacPolicy5Rules6Policy9PrincipalEEvPT_.exit.i.i.i.i, label %_ZNKSt14default_deleteIN9grpc_core4Rbac9PrincipalEEclEPS2_.exit.i.i.i.i.i.i.i

_ZNKSt14default_deleteIN9grpc_core4Rbac9PrincipalEEclEPS2_.exit.i.i.i.i.i.i.i: ; preds = %for.body.i.i.i.i
  tail call void @_ZN9grpc_core4Rbac9PrincipalD2Ev(ptr noundef nonnull align 8 dereferenceable(257) %2) #22
  tail call void @_ZdlPv(ptr noundef nonnull %2) #24
  br label %_ZSt8_DestroyIN9grpc_core12_GLOBAL__N_110RbacConfig10RbacPolicy5Rules6Policy9PrincipalEEvPT_.exit.i.i.i.i

_ZSt8_DestroyIN9grpc_core12_GLOBAL__N_110RbacConfig10RbacPolicy5Rules6Policy9PrincipalEEvPT_.exit.i.i.i.i: ; preds = %_ZNKSt14default_deleteIN9grpc_core4Rbac9PrincipalEEclEPS2_.exit.i.i.i.i.i.i.i, %for.body.i.i.i.i
  store ptr null, ptr %__first.addr.04.i.i.i.i, align 8
  %incdec.ptr.i.i.i.i = getelementptr inbounds i8, ptr %__first.addr.04.i.i.i.i, i64 8
  %cmp.not.i.i.i.i = icmp eq ptr %incdec.ptr.i.i.i.i, %1
  br i1 %cmp.not.i.i.i.i, label %invoke.contthread-pre-split.i, label %for.body.i.i.i.i, !llvm.loop !45

invoke.contthread-pre-split.i:                    ; preds = %_ZSt8_DestroyIN9grpc_core12_GLOBAL__N_110RbacConfig10RbacPolicy5Rules6Policy9PrincipalEEvPT_.exit.i.i.i.i
  %this.val.pr.i = load ptr, ptr %principals, align 8
  br label %invoke.cont.i

invoke.cont.i:                                    ; preds = %invoke.contthread-pre-split.i, %entry
  %this.val.i = phi ptr [ %this.val.pr.i, %invoke.contthread-pre-split.i ], [ %0, %entry ]
  %tobool.not.i.i.i = icmp eq ptr %this.val.i, null
  br i1 %tobool.not.i.i.i, label %_ZNSt6vectorIN9grpc_core12_GLOBAL__N_110RbacConfig10RbacPolicy5Rules6Policy9PrincipalESaIS6_EED2Ev.exit, label %if.then.i.i.i

if.then.i.i.i:                                    ; preds = %invoke.cont.i
  tail call void @_ZdlPv(ptr noundef nonnull %this.val.i) #24
  br label %_ZNSt6vectorIN9grpc_core12_GLOBAL__N_110RbacConfig10RbacPolicy5Rules6Policy9PrincipalESaIS6_EED2Ev.exit

_ZNSt6vectorIN9grpc_core12_GLOBAL__N_110RbacConfig10RbacPolicy5Rules6Policy9PrincipalESaIS6_EED2Ev.exit: ; preds = %invoke.cont.i, %if.then.i.i.i
  %3 = load ptr, ptr %this, align 8
  %_M_finish.i1 = getelementptr inbounds i8, ptr %this, i64 8
  %4 = load ptr, ptr %_M_finish.i1, align 8
  %cmp.not3.i.i.i.i2 = icmp eq ptr %3, %4
  br i1 %cmp.not3.i.i.i.i2, label %invoke.cont.i10, label %for.body.i.i.i.i3

for.body.i.i.i.i3:                                ; preds = %_ZNSt6vectorIN9grpc_core12_GLOBAL__N_110RbacConfig10RbacPolicy5Rules6Policy9PrincipalESaIS6_EED2Ev.exit, %_ZSt8_DestroyIN9grpc_core12_GLOBAL__N_110RbacConfig10RbacPolicy5Rules6Policy10PermissionEEvPT_.exit.i.i.i.i
  %__first.addr.04.i.i.i.i4 = phi ptr [ %incdec.ptr.i.i.i.i6, %_ZSt8_DestroyIN9grpc_core12_GLOBAL__N_110RbacConfig10RbacPolicy5Rules6Policy10PermissionEEvPT_.exit.i.i.i.i ], [ %3, %_ZNSt6vectorIN9grpc_core12_GLOBAL__N_110RbacConfig10RbacPolicy5Rules6Policy9PrincipalESaIS6_EED2Ev.exit ]
  %5 = load ptr, ptr %__first.addr.04.i.i.i.i4, align 8
  %cmp.not.i.i.i.i.i.i.i5 = icmp eq ptr %5, null
  br i1 %cmp.not.i.i.i.i.i.i.i5, label %_ZSt8_DestroyIN9grpc_core12_GLOBAL__N_110RbacConfig10RbacPolicy5Rules6Policy10PermissionEEvPT_.exit.i.i.i.i, label %_ZNKSt14default_deleteIN9grpc_core4Rbac10PermissionEEclEPS2_.exit.i.i.i.i.i.i.i

_ZNKSt14default_deleteIN9grpc_core4Rbac10PermissionEEclEPS2_.exit.i.i.i.i.i.i.i: ; preds = %for.body.i.i.i.i3
  tail call void @_ZN9grpc_core4Rbac10PermissionD2Ev(ptr noundef nonnull align 8 dereferenceable(257) %5) #22
  tail call void @_ZdlPv(ptr noundef nonnull %5) #24
  br label %_ZSt8_DestroyIN9grpc_core12_GLOBAL__N_110RbacConfig10RbacPolicy5Rules6Policy10PermissionEEvPT_.exit.i.i.i.i

_ZSt8_DestroyIN9grpc_core12_GLOBAL__N_110RbacConfig10RbacPolicy5Rules6Policy10PermissionEEvPT_.exit.i.i.i.i: ; preds = %_ZNKSt14default_deleteIN9grpc_core4Rbac10PermissionEEclEPS2_.exit.i.i.i.i.i.i.i, %for.body.i.i.i.i3
  store ptr null, ptr %__first.addr.04.i.i.i.i4, align 8
  %incdec.ptr.i.i.i.i6 = getelementptr inbounds i8, ptr %__first.addr.04.i.i.i.i4, i64 8
  %cmp.not.i.i.i.i7 = icmp eq ptr %incdec.ptr.i.i.i.i6, %4
  br i1 %cmp.not.i.i.i.i7, label %invoke.contthread-pre-split.i8, label %for.body.i.i.i.i3, !llvm.loop !34

invoke.contthread-pre-split.i8:                   ; preds = %_ZSt8_DestroyIN9grpc_core12_GLOBAL__N_110RbacConfig10RbacPolicy5Rules6Policy10PermissionEEvPT_.exit.i.i.i.i
  %this.val.pr.i9 = load ptr, ptr %this, align 8
  br label %invoke.cont.i10

invoke.cont.i10:                                  ; preds = %invoke.contthread-pre-split.i8, %_ZNSt6vectorIN9grpc_core12_GLOBAL__N_110RbacConfig10RbacPolicy5Rules6Policy9PrincipalESaIS6_EED2Ev.exit
  %this.val.i11 = phi ptr [ %this.val.pr.i9, %invoke.contthread-pre-split.i8 ], [ %3, %_ZNSt6vectorIN9grpc_core12_GLOBAL__N_110RbacConfig10RbacPolicy5Rules6Policy9PrincipalESaIS6_EED2Ev.exit ]
  %tobool.not.i.i.i12 = icmp eq ptr %this.val.i11, null
  br i1 %tobool.not.i.i.i12, label %_ZNSt6vectorIN9grpc_core12_GLOBAL__N_110RbacConfig10RbacPolicy5Rules6Policy10PermissionESaIS6_EED2Ev.exit, label %if.then.i.i.i13

if.then.i.i.i13:                                  ; preds = %invoke.cont.i10
  tail call void @_ZdlPv(ptr noundef nonnull %this.val.i11) #24
  br label %_ZNSt6vectorIN9grpc_core12_GLOBAL__N_110RbacConfig10RbacPolicy5Rules6Policy10PermissionESaIS6_EED2Ev.exit

_ZNSt6vectorIN9grpc_core12_GLOBAL__N_110RbacConfig10RbacPolicy5Rules6Policy10PermissionESaIS6_EED2Ev.exit: ; preds = %invoke.cont.i10, %if.then.i.i.i13
  ret void
}

declare noundef nonnull align 8 dereferenceable(776) ptr @_ZN9grpc_core17CoreConfiguration19BuildNewAndMaybeSetEv() local_unnamed_addr #0

declare void @_ZNK9grpc_core11json_detail10LoadScalar8LoadIntoERKNS_12experimental4JsonERKNS_8JsonArgsEPvPNS_16ValidationErrorsE(ptr noundef nonnull align 8 dereferenceable(8), ptr noundef nonnull align 8 dereferenceable(56), ptr noundef nonnull align 8 dereferenceable(8), ptr noundef, ptr noundef) unnamed_addr #0

declare noundef zeroext i1 @_ZNK9grpc_core11json_detail10LoadString8IsNumberEv(ptr noundef nonnull align 8 dereferenceable(8)) unnamed_addr #0

declare void @_ZNK9grpc_core11json_detail10LoadString8LoadIntoERKNSt7__cxx1112basic_stringIcSt11char_traitsIcESaIcEEEPvPNS_16ValidationErrorsE(ptr noundef nonnull align 8 dereferenceable(8), ptr noundef nonnull align 8 dereferenceable(32), ptr noundef, ptr noundef) unnamed_addr #0

declare noundef zeroext i1 @_ZNK9grpc_core11json_detail10LoadNumber8IsNumberEv(ptr noundef nonnull align 8 dereferenceable(8)) unnamed_addr #0

; Function Attrs: mustprogress uwtable
define linkonce_odr void @_ZNK9grpc_core11json_detail23TypedLoadUnsignedNumberIjE8LoadIntoERKNSt7__cxx1112basic_stringIcSt11char_traitsIcESaIcEEEPvPNS_16ValidationErrorsE(ptr noundef nonnull align 8 dereferenceable(8) %this, ptr noundef nonnull align 8 dereferenceable(32) %value, ptr noundef %dst, ptr noundef %errors) unnamed_addr #3 comdat align 2 personality ptr @__gxx_personality_v0 {
entry:
  %val.i.i = alloca i32, align 4
  %call = tail call { i64, ptr } @_ZNKSt7__cxx1112basic_stringIcSt11char_traitsIcESaIcEEcvSt17basic_string_viewIcS2_EEv(ptr noundef nonnull align 8 dereferenceable(32) %value) #22
  %0 = extractvalue { i64, ptr } %call, 0
  %1 = extractvalue { i64, ptr } %call, 1
  call void @llvm.lifetime.start.p0(i64 4, ptr nonnull %val.i.i)
  %call.i.i = call noundef zeroext i1 @_ZN4absl12lts_2023080216numbers_internal18safe_strtou32_baseESt17basic_string_viewIcSt11char_traitsIcEEPji(i64 %0, ptr %1, ptr noundef nonnull %val.i.i, i32 noundef 10)
  %2 = load i32, ptr %val.i.i, align 4
  store i32 %2, ptr %dst, align 4
  call void @llvm.lifetime.end.p0(i64 4, ptr nonnull %val.i.i)
  br i1 %call.i.i, label %if.end, label %if.then

if.then:                                          ; preds = %entry
  call void @_ZN9grpc_core16ValidationErrors8AddErrorESt17basic_string_viewIcSt11char_traitsIcEE(ptr noundef nonnull align 8 dereferenceable(72) %errors, i64 35, ptr nonnull @.str.37)
  br label %if.end

if.end:                                           ; preds = %if.then, %entry
  ret void
}

; Function Attrs: nounwind
declare { i64, ptr } @_ZNKSt7__cxx1112basic_stringIcSt11char_traitsIcESaIcEEcvSt17basic_string_viewIcS2_EEv(ptr noundef nonnull align 8 dereferenceable(32)) local_unnamed_addr #1

declare void @_ZN9grpc_core16ValidationErrors8AddErrorESt17basic_string_viewIcSt11char_traitsIcEE(ptr noundef nonnull align 8 dereferenceable(72), i64, ptr) local_unnamed_addr #0

declare noundef zeroext i1 @_ZN4absl12lts_2023080216numbers_internal18safe_strtou32_baseESt17basic_string_viewIcSt11char_traitsIcEEPji(i64, ptr, ptr noundef, i32 noundef) local_unnamed_addr #0

; Function Attrs: mustprogress uwtable
define linkonce_odr void @_ZNK9grpc_core11json_detail21TypedLoadSignedNumberIlE8LoadIntoERKNSt7__cxx1112basic_stringIcSt11char_traitsIcESaIcEEEPvPNS_16ValidationErrorsE(ptr noundef nonnull align 8 dereferenceable(8) %this, ptr noundef nonnull align 8 dereferenceable(32) %value, ptr noundef %dst, ptr noundef %errors) unnamed_addr #3 comdat align 2 personality ptr @__gxx_personality_v0 {
entry:
  %val.i.i = alloca i64, align 8
  %call = tail call { i64, ptr } @_ZNKSt7__cxx1112basic_stringIcSt11char_traitsIcESaIcEEcvSt17basic_string_viewIcS2_EEv(ptr noundef nonnull align 8 dereferenceable(32) %value) #22
  %0 = extractvalue { i64, ptr } %call, 0
  %1 = extractvalue { i64, ptr } %call, 1
  call void @llvm.lifetime.start.p0(i64 8, ptr nonnull %val.i.i)
  %call.i.i = call noundef zeroext i1 @_ZN4absl12lts_2023080216numbers_internal17safe_strto64_baseESt17basic_string_viewIcSt11char_traitsIcEEPli(i64 %0, ptr %1, ptr noundef nonnull %val.i.i, i32 noundef 10)
  %2 = load i64, ptr %val.i.i, align 8
  store i64 %2, ptr %dst, align 8
  call void @llvm.lifetime.end.p0(i64 8, ptr nonnull %val.i.i)
  br i1 %call.i.i, label %if.end, label %if.then

if.then:                                          ; preds = %entry
  call void @_ZN9grpc_core16ValidationErrors8AddErrorESt17basic_string_viewIcSt11char_traitsIcEE(ptr noundef nonnull align 8 dereferenceable(72) %errors, i64 22, ptr nonnull @.str.38)
  br label %if.end

if.end:                                           ; preds = %if.then, %entry
  ret void
}

declare noundef zeroext i1 @_ZN4absl12lts_2023080216numbers_internal17safe_strto64_baseESt17basic_string_viewIcSt11char_traitsIcEEPli(i64, ptr, ptr noundef, i32 noundef) local_unnamed_addr #0

declare void @_ZNK9grpc_core11json_detail8LoadBool8LoadIntoERKNS_12experimental4JsonERKNS_8JsonArgsEPvPNS_16ValidationErrorsE(ptr noundef nonnull align 8 dereferenceable(8), ptr noundef nonnull align 8 dereferenceable(56), ptr noundef nonnull align 8 dereferenceable(8), ptr noundef, ptr noundef) unnamed_addr #0

; Function Attrs: mustprogress uwtable
define internal void @_ZNK9grpc_core11json_detail10AutoLoaderINS_12_GLOBAL__N_110RbacConfig10RbacPolicy5Rules6Policy14SafeRegexMatchEE8LoadIntoERKNS_12experimental4JsonERKNS_8JsonArgsEPvPNS_16ValidationErrorsE(ptr nocapture nonnull readnone align 8 %this, ptr noundef nonnull align 8 dereferenceable(56) %json, ptr noundef nonnull align 8 dereferenceable(8) %args, ptr noundef %dst, ptr noundef %errors) unnamed_addr #3 align 2 personality ptr @__gxx_personality_v0 {
entry:
  %0 = load atomic i8, ptr @_ZGVZN9grpc_core12_GLOBAL__N_110RbacConfig10RbacPolicy5Rules6Policy14SafeRegexMatch10JsonLoaderERKNS_8JsonArgsEE6loader acquire, align 8
  %guard.uninitialized.i = icmp eq i8 %0, 0
  br i1 %guard.uninitialized.i, label %init.check.i, label %_ZN9grpc_core12_GLOBAL__N_110RbacConfig10RbacPolicy5Rules6Policy14SafeRegexMatch10JsonLoaderERKNS_8JsonArgsE.exit, !prof !82

init.check.i:                                     ; preds = %entry
  %1 = tail call i32 @__cxa_guard_acquire(ptr nonnull @_ZGVZN9grpc_core12_GLOBAL__N_110RbacConfig10RbacPolicy5Rules6Policy14SafeRegexMatch10JsonLoaderERKNS_8JsonArgsEE6loader) #22
  %tobool.not.i = icmp eq i32 %1, 0
  br i1 %tobool.not.i, label %_ZN9grpc_core12_GLOBAL__N_110RbacConfig10RbacPolicy5Rules6Policy14SafeRegexMatch10JsonLoaderERKNS_8JsonArgsE.exit, label %invoke.cont2.i

invoke.cont2.i:                                   ; preds = %init.check.i
  %call.i1.i = invoke noalias noundef nonnull dereferenceable(40) ptr @_Znwm(i64 noundef 40) #21
          to label %invoke.cont3.i unwind label %lpad.i

invoke.cont3.i:                                   ; preds = %invoke.cont2.i
  store ptr getelementptr inbounds ({ [3 x ptr] }, ptr @_ZTVN9grpc_core11json_detail24FinishedJsonObjectLoaderINS_12_GLOBAL__N_110RbacConfig10RbacPolicy5Rules6Policy14SafeRegexMatchELm1EvEE, i64 0, inrange i32 0, i64 2), ptr %call.i1.i, align 8
  %elements_.i.i.i = getelementptr inbounds i8, ptr %call.i1.i, i64 8
  store ptr @_ZN9grpc_core19NoDestructSingletonINS_11json_detail10AutoLoaderINSt7__cxx1112basic_stringIcSt11char_traitsIcESaIcEEEEEE6value_E, ptr %elements_.i.i.i, align 8
  %ref.tmp.sroa.2.0.elements_.i.i.sroa_idx.i = getelementptr inbounds i8, ptr %call.i1.i, i64 16
  store i16 0, ptr %ref.tmp.sroa.2.0.elements_.i.i.sroa_idx.i, align 8
  %ref.tmp.sroa.3.0.elements_.i.i.sroa_idx.i = getelementptr inbounds i8, ptr %call.i1.i, i64 18
  store i8 0, ptr %ref.tmp.sroa.3.0.elements_.i.i.sroa_idx.i, align 2
  %ref.tmp.sroa.41.0.elements_.i.i.sroa_idx.i = getelementptr inbounds i8, ptr %call.i1.i, i64 24
  store ptr @.str.39, ptr %ref.tmp.sroa.41.0.elements_.i.i.sroa_idx.i, align 8
  %ref.tmp.sroa.5.0.elements_.i.i.sroa_idx.i = getelementptr inbounds i8, ptr %call.i1.i, i64 32
  store ptr null, ptr %ref.tmp.sroa.5.0.elements_.i.i.sroa_idx.i, align 8
  store ptr %call.i1.i, ptr @_ZZN9grpc_core12_GLOBAL__N_110RbacConfig10RbacPolicy5Rules6Policy14SafeRegexMatch10JsonLoaderERKNS_8JsonArgsEE6loader, align 8
  tail call void @__cxa_guard_release(ptr nonnull @_ZGVZN9grpc_core12_GLOBAL__N_110RbacConfig10RbacPolicy5Rules6Policy14SafeRegexMatch10JsonLoaderERKNS_8JsonArgsEE6loader) #22
  br label %_ZN9grpc_core12_GLOBAL__N_110RbacConfig10RbacPolicy5Rules6Policy14SafeRegexMatch10JsonLoaderERKNS_8JsonArgsE.exit

lpad.i:                                           ; preds = %invoke.cont2.i
  %2 = landingpad { ptr, i32 }
          cleanup
  tail call void @__cxa_guard_abort(ptr nonnull @_ZGVZN9grpc_core12_GLOBAL__N_110RbacConfig10RbacPolicy5Rules6Policy14SafeRegexMatch10JsonLoaderERKNS_8JsonArgsEE6loader) #22
  resume { ptr, i32 } %2

_ZN9grpc_core12_GLOBAL__N_110RbacConfig10RbacPolicy5Rules6Policy14SafeRegexMatch10JsonLoaderERKNS_8JsonArgsE.exit: ; preds = %entry, %init.check.i, %invoke.cont3.i
  %3 = load ptr, ptr @_ZZN9grpc_core12_GLOBAL__N_110RbacConfig10RbacPolicy5Rules6Policy14SafeRegexMatch10JsonLoaderERKNS_8JsonArgsEE6loader, align 8
  %vtable = load ptr, ptr %3, align 8
  %4 = load ptr, ptr %vtable, align 8
  tail call void %4(ptr noundef nonnull align 8 dereferenceable(8) %3, ptr noundef nonnull align 8 dereferenceable(56) %json, ptr noundef nonnull align 8 dereferenceable(8) %args, ptr noundef %dst, ptr noundef %errors)
  ret void
}

; Function Attrs: nofree nounwind
declare i32 @__cxa_guard_acquire(ptr) local_unnamed_addr #2

; Function Attrs: nofree nounwind
declare void @__cxa_guard_abort(ptr) local_unnamed_addr #2

; Function Attrs: nofree nounwind
declare void @__cxa_guard_release(ptr) local_unnamed_addr #2

; Function Attrs: mustprogress uwtable
define internal void @_ZNK9grpc_core11json_detail24FinishedJsonObjectLoaderINS_12_GLOBAL__N_110RbacConfig10RbacPolicy5Rules6Policy14SafeRegexMatchELm1EvE8LoadIntoERKNS_12experimental4JsonERKNS_8JsonArgsEPvPNS_16ValidationErrorsE(ptr noundef nonnull align 8 dereferenceable(40) %this, ptr noundef nonnull align 8 dereferenceable(56) %json, ptr noundef nonnull align 8 dereferenceable(8) %args, ptr noundef %dst, ptr noundef %errors) unnamed_addr #3 align 2 {
entry:
  %elements_ = getelementptr inbounds i8, ptr %this, i64 8
  %call4 = tail call noundef zeroext i1 @_ZN9grpc_core11json_detail10LoadObjectERKNS_12experimental4JsonERKNS_8JsonArgsEPKNS0_7ElementEmPvPNS_16ValidationErrorsE(ptr noundef nonnull align 8 dereferenceable(56) %json, ptr noundef nonnull align 8 dereferenceable(8) %args, ptr noundef nonnull %elements_, i64 noundef 1, ptr noundef %dst, ptr noundef %errors)
  ret void
}

declare noundef zeroext i1 @_ZN9grpc_core11json_detail10LoadObjectERKNS_12experimental4JsonERKNS_8JsonArgsEPKNS0_7ElementEmPvPNS_16ValidationErrorsE(ptr noundef nonnull align 8 dereferenceable(56), ptr noundef nonnull align 8 dereferenceable(8), ptr noundef, i64 noundef, ptr noundef, ptr noundef) local_unnamed_addr #0

; Function Attrs: mustprogress uwtable
define internal void @_ZNK9grpc_core11json_detail10AutoLoaderINS_12_GLOBAL__N_110RbacConfig10RbacPolicy5Rules6Policy11HeaderMatch10RangeMatchEE8LoadIntoERKNS_12experimental4JsonERKNS_8JsonArgsEPvPNS_16ValidationErrorsE(ptr nocapture nonnull readnone align 8 %this, ptr noundef nonnull align 8 dereferenceable(56) %json, ptr noundef nonnull align 8 dereferenceable(8) %args, ptr noundef %dst, ptr noundef %errors) unnamed_addr #3 align 2 personality ptr @__gxx_personality_v0 {
entry:
  %0 = load atomic i8, ptr @_ZGVZN9grpc_core12_GLOBAL__N_110RbacConfig10RbacPolicy5Rules6Policy11HeaderMatch10RangeMatch10JsonLoaderERKNS_8JsonArgsEE6loader acquire, align 8
  %guard.uninitialized.i = icmp eq i8 %0, 0
  br i1 %guard.uninitialized.i, label %init.check.i, label %_ZN9grpc_core12_GLOBAL__N_110RbacConfig10RbacPolicy5Rules6Policy11HeaderMatch10RangeMatch10JsonLoaderERKNS_8JsonArgsE.exit, !prof !82

init.check.i:                                     ; preds = %entry
  %1 = tail call i32 @__cxa_guard_acquire(ptr nonnull @_ZGVZN9grpc_core12_GLOBAL__N_110RbacConfig10RbacPolicy5Rules6Policy11HeaderMatch10RangeMatch10JsonLoaderERKNS_8JsonArgsEE6loader) #22
  %tobool.not.i = icmp eq i32 %1, 0
  br i1 %tobool.not.i, label %_ZN9grpc_core12_GLOBAL__N_110RbacConfig10RbacPolicy5Rules6Policy11HeaderMatch10RangeMatch10JsonLoaderERKNS_8JsonArgsE.exit, label %invoke.cont4.i

invoke.cont4.i:                                   ; preds = %init.check.i
  %call.i1.i = invoke noalias noundef nonnull dereferenceable(72) ptr @_Znwm(i64 noundef 72) #21
          to label %invoke.cont5.i unwind label %lpad.i

invoke.cont5.i:                                   ; preds = %invoke.cont4.i
  store ptr getelementptr inbounds ({ [3 x ptr] }, ptr @_ZTVN9grpc_core11json_detail24FinishedJsonObjectLoaderINS_12_GLOBAL__N_110RbacConfig10RbacPolicy5Rules6Policy11HeaderMatch10RangeMatchELm2EvEE, i64 0, inrange i32 0, i64 2), ptr %call.i1.i, align 8
  %elements_.i.i.i = getelementptr inbounds i8, ptr %call.i1.i, i64 8
  store ptr @_ZN9grpc_core19NoDestructSingletonINS_11json_detail10AutoLoaderIlEEE6value_E, ptr %elements_.i.i.i, align 8
  %ref.tmp.sroa.2.0.elements_.i.i.sroa_idx.i = getelementptr inbounds i8, ptr %call.i1.i, i64 16
  store i16 0, ptr %ref.tmp.sroa.2.0.elements_.i.i.sroa_idx.i, align 8
  %ref.tmp.sroa.3.0.elements_.i.i.sroa_idx.i = getelementptr inbounds i8, ptr %call.i1.i, i64 18
  store i8 0, ptr %ref.tmp.sroa.3.0.elements_.i.i.sroa_idx.i, align 2
  %ref.tmp.sroa.5.0.elements_.i.i.sroa_idx.i = getelementptr inbounds i8, ptr %call.i1.i, i64 24
  store ptr @.str.40, ptr %ref.tmp.sroa.5.0.elements_.i.i.sroa_idx.i, align 8
  %ref.tmp.sroa.6.0.elements_.i.i.sroa_idx.i = getelementptr inbounds i8, ptr %call.i1.i, i64 32
  store ptr null, ptr %ref.tmp.sroa.6.0.elements_.i.i.sroa_idx.i, align 8
  %ref.tmp.sroa.7.0.elements_.i.i.sroa_idx.i = getelementptr inbounds i8, ptr %call.i1.i, i64 40
  store ptr @_ZN9grpc_core19NoDestructSingletonINS_11json_detail10AutoLoaderIlEEE6value_E, ptr %ref.tmp.sroa.7.0.elements_.i.i.sroa_idx.i, align 8
  %ref.tmp.sroa.8.0.elements_.i.i.sroa_idx.i = getelementptr inbounds i8, ptr %call.i1.i, i64 48
  store i16 8, ptr %ref.tmp.sroa.8.0.elements_.i.i.sroa_idx.i, align 8
  %ref.tmp.sroa.9.0.elements_.i.i.sroa_idx.i = getelementptr inbounds i8, ptr %call.i1.i, i64 50
  store i8 0, ptr %ref.tmp.sroa.9.0.elements_.i.i.sroa_idx.i, align 2
  %ref.tmp.sroa.102.0.elements_.i.i.sroa_idx.i = getelementptr inbounds i8, ptr %call.i1.i, i64 56
  store ptr @.str.41, ptr %ref.tmp.sroa.102.0.elements_.i.i.sroa_idx.i, align 8
  %ref.tmp.sroa.11.0.elements_.i.i.sroa_idx.i = getelementptr inbounds i8, ptr %call.i1.i, i64 64
  store ptr null, ptr %ref.tmp.sroa.11.0.elements_.i.i.sroa_idx.i, align 8
  store ptr %call.i1.i, ptr @_ZZN9grpc_core12_GLOBAL__N_110RbacConfig10RbacPolicy5Rules6Policy11HeaderMatch10RangeMatch10JsonLoaderERKNS_8JsonArgsEE6loader, align 8
  tail call void @__cxa_guard_release(ptr nonnull @_ZGVZN9grpc_core12_GLOBAL__N_110RbacConfig10RbacPolicy5Rules6Policy11HeaderMatch10RangeMatch10JsonLoaderERKNS_8JsonArgsEE6loader) #22
  br label %_ZN9grpc_core12_GLOBAL__N_110RbacConfig10RbacPolicy5Rules6Policy11HeaderMatch10RangeMatch10JsonLoaderERKNS_8JsonArgsE.exit

lpad.i:                                           ; preds = %invoke.cont4.i
  %2 = landingpad { ptr, i32 }
          cleanup
  tail call void @__cxa_guard_abort(ptr nonnull @_ZGVZN9grpc_core12_GLOBAL__N_110RbacConfig10RbacPolicy5Rules6Policy11HeaderMatch10RangeMatch10JsonLoaderERKNS_8JsonArgsEE6loader) #22
  resume { ptr, i32 } %2

_ZN9grpc_core12_GLOBAL__N_110RbacConfig10RbacPolicy5Rules6Policy11HeaderMatch10RangeMatch10JsonLoaderERKNS_8JsonArgsE.exit: ; preds = %entry, %init.check.i, %invoke.cont5.i
  %3 = load ptr, ptr @_ZZN9grpc_core12_GLOBAL__N_110RbacConfig10RbacPolicy5Rules6Policy11HeaderMatch10RangeMatch10JsonLoaderERKNS_8JsonArgsEE6loader, align 8
  %vtable = load ptr, ptr %3, align 8
  %4 = load ptr, ptr %vtable, align 8
  tail call void %4(ptr noundef nonnull align 8 dereferenceable(8) %3, ptr noundef nonnull align 8 dereferenceable(56) %json, ptr noundef nonnull align 8 dereferenceable(8) %args, ptr noundef %dst, ptr noundef %errors)
  ret void
}

; Function Attrs: mustprogress uwtable
define internal void @_ZNK9grpc_core11json_detail24FinishedJsonObjectLoaderINS_12_GLOBAL__N_110RbacConfig10RbacPolicy5Rules6Policy11HeaderMatch10RangeMatchELm2EvE8LoadIntoERKNS_12experimental4JsonERKNS_8JsonArgsEPvPNS_16ValidationErrorsE(ptr noundef nonnull align 8 dereferenceable(72) %this, ptr noundef nonnull align 8 dereferenceable(56) %json, ptr noundef nonnull align 8 dereferenceable(8) %args, ptr noundef %dst, ptr noundef %errors) unnamed_addr #3 align 2 {
entry:
  %elements_ = getelementptr inbounds i8, ptr %this, i64 8
  %call4 = tail call noundef zeroext i1 @_ZN9grpc_core11json_detail10LoadObjectERKNS_12experimental4JsonERKNS_8JsonArgsEPKNS0_7ElementEmPvPNS_16ValidationErrorsE(ptr noundef nonnull align 8 dereferenceable(56) %json, ptr noundef nonnull align 8 dereferenceable(8) %args, ptr noundef nonnull %elements_, i64 noundef 2, ptr noundef %dst, ptr noundef %errors)
  ret void
}

; Function Attrs: mustprogress uwtable
define internal void @_ZNK9grpc_core11json_detail10AutoLoaderINS_12_GLOBAL__N_110RbacConfig10RbacPolicy5Rules6Policy11StringMatchEE8LoadIntoERKNS_12experimental4JsonERKNS_8JsonArgsEPvPNS_16ValidationErrorsE(ptr nocapture nonnull readnone align 8 %this, ptr noundef nonnull align 8 dereferenceable(56) %json, ptr noundef nonnull align 8 dereferenceable(8) %args, ptr noundef %dst, ptr noundef %errors) unnamed_addr #3 align 2 personality ptr @__gxx_personality_v0 {
entry:
  %0 = load atomic i8, ptr @_ZGVZN9grpc_core12_GLOBAL__N_110RbacConfig10RbacPolicy5Rules6Policy11StringMatch10JsonLoaderERKNS_8JsonArgsEE6loader acquire, align 8
  %guard.uninitialized.i = icmp eq i8 %0, 0
  br i1 %guard.uninitialized.i, label %init.check.i, label %_ZN9grpc_core12_GLOBAL__N_110RbacConfig10RbacPolicy5Rules6Policy11StringMatch10JsonLoaderERKNS_8JsonArgsE.exit, !prof !82

init.check.i:                                     ; preds = %entry
  %1 = tail call i32 @__cxa_guard_acquire(ptr nonnull @_ZGVZN9grpc_core12_GLOBAL__N_110RbacConfig10RbacPolicy5Rules6Policy11StringMatch10JsonLoaderERKNS_8JsonArgsEE6loader) #22
  %tobool.not.i = icmp eq i32 %1, 0
  br i1 %tobool.not.i, label %_ZN9grpc_core12_GLOBAL__N_110RbacConfig10RbacPolicy5Rules6Policy11StringMatch10JsonLoaderERKNS_8JsonArgsE.exit, label %init.i

init.i:                                           ; preds = %init.check.i
  %call.i1.i = invoke noalias noundef nonnull dereferenceable(8) ptr @_Znwm(i64 noundef 8) #21
          to label %invoke.cont1.i unwind label %lpad.i

invoke.cont1.i:                                   ; preds = %init.i
  store ptr getelementptr inbounds ({ [3 x ptr] }, ptr @_ZTVN9grpc_core11json_detail24FinishedJsonObjectLoaderINS_12_GLOBAL__N_110RbacConfig10RbacPolicy5Rules6Policy11StringMatchELm0EvEE, i64 0, inrange i32 0, i64 2), ptr %call.i1.i, align 8
  store ptr %call.i1.i, ptr @_ZZN9grpc_core12_GLOBAL__N_110RbacConfig10RbacPolicy5Rules6Policy11StringMatch10JsonLoaderERKNS_8JsonArgsEE6loader, align 8
  tail call void @__cxa_guard_release(ptr nonnull @_ZGVZN9grpc_core12_GLOBAL__N_110RbacConfig10RbacPolicy5Rules6Policy11StringMatch10JsonLoaderERKNS_8JsonArgsEE6loader) #22
  br label %_ZN9grpc_core12_GLOBAL__N_110RbacConfig10RbacPolicy5Rules6Policy11StringMatch10JsonLoaderERKNS_8JsonArgsE.exit

lpad.i:                                           ; preds = %init.i
  %2 = landingpad { ptr, i32 }
          cleanup
  tail call void @__cxa_guard_abort(ptr nonnull @_ZGVZN9grpc_core12_GLOBAL__N_110RbacConfig10RbacPolicy5Rules6Policy11StringMatch10JsonLoaderERKNS_8JsonArgsEE6loader) #22
  resume { ptr, i32 } %2

_ZN9grpc_core12_GLOBAL__N_110RbacConfig10RbacPolicy5Rules6Policy11StringMatch10JsonLoaderERKNS_8JsonArgsE.exit: ; preds = %entry, %init.check.i, %invoke.cont1.i
  %3 = load ptr, ptr @_ZZN9grpc_core12_GLOBAL__N_110RbacConfig10RbacPolicy5Rules6Policy11StringMatch10JsonLoaderERKNS_8JsonArgsEE6loader, align 8
  %vtable = load ptr, ptr %3, align 8
  %4 = load ptr, ptr %vtable, align 8
  tail call void %4(ptr noundef nonnull align 8 dereferenceable(8) %3, ptr noundef nonnull align 8 dereferenceable(56) %json, ptr noundef nonnull align 8 dereferenceable(8) %args, ptr noundef %dst, ptr noundef %errors)
  ret void
}

; Function Attrs: mustprogress uwtable
define internal void @_ZNK9grpc_core11json_detail24FinishedJsonObjectLoaderINS_12_GLOBAL__N_110RbacConfig10RbacPolicy5Rules6Policy11StringMatchELm0EvE8LoadIntoERKNS_12experimental4JsonERKNS_8JsonArgsEPvPNS_16ValidationErrorsE(ptr nocapture nonnull readnone align 8 %this, ptr noundef nonnull align 8 dereferenceable(56) %json, ptr noundef nonnull align 8 dereferenceable(8) %args, ptr noundef %dst, ptr noundef %errors) unnamed_addr #3 align 2 personality ptr @__gxx_personality_v0 {
entry:
  %errors.addr.i = alloca ptr, align 8
  %ignore_case.i = alloca i8, align 1
  %set_string_matcher.i = alloca %class.anon, align 8
  %check_match.i = alloca %class.anon.275, align 8
  %regex_match.i = alloca %"class.std::optional.276", align 8
  %agg.tmp22.i = alloca %"class.absl::lts_20230802::StatusOr", align 8
  %call3 = tail call noundef zeroext i1 @_ZN9grpc_core11json_detail10LoadObjectERKNS_12experimental4JsonERKNS_8JsonArgsEPKNS0_7ElementEmPvPNS_16ValidationErrorsE(ptr noundef nonnull align 8 dereferenceable(56) %json, ptr noundef nonnull align 8 dereferenceable(8) %args, ptr noundef null, i64 noundef 0, ptr noundef %dst, ptr noundef %errors)
  br i1 %call3, label %if.then, label %if.end

if.then:                                          ; preds = %entry
  call void @llvm.lifetime.start.p0(i64 8, ptr nonnull %errors.addr.i)
  call void @llvm.lifetime.start.p0(i64 1, ptr nonnull %ignore_case.i)
  call void @llvm.lifetime.start.p0(i64 16, ptr nonnull %set_string_matcher.i)
  call void @llvm.lifetime.start.p0(i64 40, ptr nonnull %check_match.i)
  call void @llvm.lifetime.start.p0(i64 40, ptr nonnull %regex_match.i)
  call void @llvm.lifetime.start.p0(i64 64, ptr nonnull %agg.tmp22.i)
  store ptr %errors, ptr %errors.addr.i, align 8
  %_M_node_count.i.i.i.i = getelementptr inbounds i8, ptr %errors, i64 40
  %0 = load i64, ptr %_M_node_count.i.i.i.i, align 8
  %_M_index.i.i.i.i.i = getelementptr inbounds i8, ptr %json, i64 48
  %1 = load i8, ptr %_M_index.i.i.i.i.i, align 8
  %cmp.not.i.i.i.i = icmp eq i8 %1, 4
  br i1 %cmp.not.i.i.i.i, label %_ZNK9grpc_core12experimental4Json6objectB5cxx11Ev.exit.i, label %if.then.i.i.i.i

if.then.i.i.i.i:                                  ; preds = %if.then
  %cmp.i.not.i.i.i.i.i = icmp eq i8 %1, -1
  %exception.i.i.i.i.i.i = tail call ptr @__cxa_allocate_exception(i64 16) #22
  store ptr getelementptr inbounds ({ [5 x ptr] }, ptr @_ZTVSt18bad_variant_access, i64 0, inrange i32 0, i64 2), ptr %exception.i.i.i.i.i.i, align 8
  %_M_reason.i.i.i.i.i.i.i = getelementptr inbounds i8, ptr %exception.i.i.i.i.i.i, i64 8
  br i1 %cmp.i.not.i.i.i.i.i, label %if.then.i.i.i.i.i, label %if.else.i.i.i.i.i

if.then.i.i.i.i.i:                                ; preds = %if.then.i.i.i.i
  store ptr @.str.50, ptr %_M_reason.i.i.i.i.i.i.i, align 8
  tail call void @__cxa_throw(ptr nonnull %exception.i.i.i.i.i.i, ptr nonnull @_ZTISt18bad_variant_access, ptr nonnull @_ZNSt18bad_variant_accessD2Ev) #20
  unreachable

if.else.i.i.i.i.i:                                ; preds = %if.then.i.i.i.i
  store ptr @.str.51, ptr %_M_reason.i.i.i.i.i.i.i, align 8
  tail call void @__cxa_throw(ptr nonnull %exception.i.i.i.i.i.i, ptr nonnull @_ZTISt18bad_variant_access, ptr nonnull @_ZNSt18bad_variant_accessD2Ev) #20
  unreachable

_ZNK9grpc_core12experimental4Json6objectB5cxx11Ev.exit.i: ; preds = %if.then
  %call3.i = tail call i16 @_ZN9grpc_core19LoadJsonObjectFieldIbEESt8optionalIT_ERKSt3mapINSt7__cxx1112basic_stringIcSt11char_traitsIcESaIcEEENS_12experimental4JsonESt4lessISA_ESaISt4pairIKSA_SC_EEERKNS_8JsonArgsESt17basic_string_viewIcS8_EPNS_16ValidationErrorsEb(ptr noundef nonnull align 8 dereferenceable(48) %json, ptr noundef nonnull align 8 dereferenceable(8) %args, i64 10, ptr nonnull @.str.42, ptr noundef nonnull %errors, i1 noundef zeroext false)
  %2 = and i16 %call3.i, 257
  %retval.0.i.i = icmp eq i16 %2, 257
  %frombool.i = zext i1 %retval.0.i.i to i8
  store i8 %frombool.i, ptr %ignore_case.i, align 1
  store ptr %dst, ptr %set_string_matcher.i, align 8
  %3 = getelementptr inbounds i8, ptr %set_string_matcher.i, i64 8
  store ptr %errors.addr.i, ptr %3, align 8
  store ptr %json, ptr %check_match.i, align 8
  %4 = getelementptr inbounds i8, ptr %check_match.i, i64 8
  store ptr %args, ptr %4, align 8
  %5 = getelementptr inbounds i8, ptr %check_match.i, i64 16
  store ptr %errors.addr.i, ptr %5, align 8
  %6 = getelementptr inbounds i8, ptr %check_match.i, i64 24
  store ptr %set_string_matcher.i, ptr %6, align 8
  %7 = getelementptr inbounds i8, ptr %check_match.i, i64 32
  store ptr %ignore_case.i, ptr %7, align 8
  %call9.i = call fastcc noundef zeroext i1 @"_ZZN9grpc_core12_GLOBAL__N_110RbacConfig10RbacPolicy5Rules6Policy11StringMatch12JsonPostLoadERKNS_12experimental4JsonERKNS_8JsonArgsEPNS_16ValidationErrorsEENK3$_0clESt17basic_string_viewIcSt11char_traitsIcEENS_13StringMatcher4TypeE"(ptr noundef nonnull align 8 dereferenceable(40) %check_match.i, i64 5, ptr nonnull @.str.43, i32 noundef 0)
  br i1 %call9.i, label %_ZN9grpc_core12_GLOBAL__N_110RbacConfig10RbacPolicy5Rules6Policy11StringMatch12JsonPostLoadERKNS_12experimental4JsonERKNS_8JsonArgsEPNS_16ValidationErrorsE.exit, label %lor.lhs.false.i

lor.lhs.false.i:                                  ; preds = %_ZNK9grpc_core12experimental4Json6objectB5cxx11Ev.exit.i
  %call11.i = call fastcc noundef zeroext i1 @"_ZZN9grpc_core12_GLOBAL__N_110RbacConfig10RbacPolicy5Rules6Policy11StringMatch12JsonPostLoadERKNS_12experimental4JsonERKNS_8JsonArgsEPNS_16ValidationErrorsEENK3$_0clESt17basic_string_viewIcSt11char_traitsIcEENS_13StringMatcher4TypeE"(ptr noundef nonnull align 8 dereferenceable(40) %check_match.i, i64 6, ptr nonnull @.str.44, i32 noundef 1)
  br i1 %call11.i, label %_ZN9grpc_core12_GLOBAL__N_110RbacConfig10RbacPolicy5Rules6Policy11StringMatch12JsonPostLoadERKNS_12experimental4JsonERKNS_8JsonArgsEPNS_16ValidationErrorsE.exit, label %lor.lhs.false12.i

lor.lhs.false12.i:                                ; preds = %lor.lhs.false.i
  %call14.i = call fastcc noundef zeroext i1 @"_ZZN9grpc_core12_GLOBAL__N_110RbacConfig10RbacPolicy5Rules6Policy11StringMatch12JsonPostLoadERKNS_12experimental4JsonERKNS_8JsonArgsEPNS_16ValidationErrorsEENK3$_0clESt17basic_string_viewIcSt11char_traitsIcEENS_13StringMatcher4TypeE"(ptr noundef nonnull align 8 dereferenceable(40) %check_match.i, i64 6, ptr nonnull @.str.45, i32 noundef 2)
  br i1 %call14.i, label %_ZN9grpc_core12_GLOBAL__N_110RbacConfig10RbacPolicy5Rules6Policy11StringMatch12JsonPostLoadERKNS_12experimental4JsonERKNS_8JsonArgsEPNS_16ValidationErrorsE.exit, label %lor.lhs.false15.i

lor.lhs.false15.i:                                ; preds = %lor.lhs.false12.i
  %call17.i = call fastcc noundef zeroext i1 @"_ZZN9grpc_core12_GLOBAL__N_110RbacConfig10RbacPolicy5Rules6Policy11StringMatch12JsonPostLoadERKNS_12experimental4JsonERKNS_8JsonArgsEPNS_16ValidationErrorsEENK3$_0clESt17basic_string_viewIcSt11char_traitsIcEENS_13StringMatcher4TypeE"(ptr noundef nonnull align 8 dereferenceable(40) %check_match.i, i64 8, ptr nonnull @.str.46, i32 noundef 4)
  br i1 %call17.i, label %_ZN9grpc_core12_GLOBAL__N_110RbacConfig10RbacPolicy5Rules6Policy11StringMatch12JsonPostLoadERKNS_12experimental4JsonERKNS_8JsonArgsEPNS_16ValidationErrorsE.exit, label %if.end.i

if.end.i:                                         ; preds = %lor.lhs.false15.i
  %8 = load i8, ptr %_M_index.i.i.i.i.i, align 8
  %cmp.not.i.i.i16.i = icmp eq i8 %8, 4
  br i1 %cmp.not.i.i.i16.i, label %_ZNK9grpc_core12experimental4Json6objectB5cxx11Ev.exit23.i, label %if.then.i.i.i17.i

if.then.i.i.i17.i:                                ; preds = %if.end.i
  %cmp.i.not.i.i.i.i18.i = icmp eq i8 %8, -1
  %exception.i.i.i.i.i19.i = call ptr @__cxa_allocate_exception(i64 16) #22
  store ptr getelementptr inbounds ({ [5 x ptr] }, ptr @_ZTVSt18bad_variant_access, i64 0, inrange i32 0, i64 2), ptr %exception.i.i.i.i.i19.i, align 8
  %_M_reason.i.i.i.i.i.i20.i = getelementptr inbounds i8, ptr %exception.i.i.i.i.i19.i, i64 8
  br i1 %cmp.i.not.i.i.i.i18.i, label %if.then.i.i.i.i22.i, label %if.else.i.i.i.i21.i

if.then.i.i.i.i22.i:                              ; preds = %if.then.i.i.i17.i
  store ptr @.str.50, ptr %_M_reason.i.i.i.i.i.i20.i, align 8
  call void @__cxa_throw(ptr nonnull %exception.i.i.i.i.i19.i, ptr nonnull @_ZTISt18bad_variant_access, ptr nonnull @_ZNSt18bad_variant_accessD2Ev) #20
  unreachable

if.else.i.i.i.i21.i:                              ; preds = %if.then.i.i.i17.i
  store ptr @.str.51, ptr %_M_reason.i.i.i.i.i.i20.i, align 8
  call void @__cxa_throw(ptr nonnull %exception.i.i.i.i.i19.i, ptr nonnull @_ZTISt18bad_variant_access, ptr nonnull @_ZNSt18bad_variant_accessD2Ev) #20
  unreachable

_ZNK9grpc_core12experimental4Json6objectB5cxx11Ev.exit23.i: ; preds = %if.end.i
  %9 = load ptr, ptr %errors.addr.i, align 8
  call fastcc void @_ZN9grpc_core19LoadJsonObjectFieldINS_12_GLOBAL__N_110RbacConfig10RbacPolicy5Rules6Policy14SafeRegexMatchEEESt8optionalIT_ERKSt3mapINSt7__cxx1112basic_stringIcSt11char_traitsIcESaIcEEENS_12experimental4JsonESt4lessISG_ESaISt4pairIKSG_SI_EEERKNS_8JsonArgsESt17basic_string_viewIcSE_EPNS_16ValidationErrorsEb(ptr noalias nonnull align 8 %regex_match.i, ptr noundef nonnull align 8 dereferenceable(48) %json, ptr noundef nonnull align 8 dereferenceable(8) %args, i64 9, ptr nonnull @.str.47, ptr noundef %9)
  %10 = getelementptr inbounds i8, ptr %regex_match.i, i64 32
  %regex_match.val.i = load i8, ptr %10, align 8
  %11 = and i8 %regex_match.val.i, 1
  %tobool.i.i.not.i = icmp eq i8 %11, 0
  br i1 %tobool.i.i.not.i, label %if.end28.i, label %if.then21.i

if.then21.i:                                      ; preds = %_ZNK9grpc_core12experimental4Json6objectB5cxx11Ev.exit23.i
  %call25.i = call { i64, ptr } @_ZNKSt7__cxx1112basic_stringIcSt11char_traitsIcESaIcEEcvSt17basic_string_viewIcS2_EEv(ptr noundef nonnull align 8 dereferenceable(32) %regex_match.i) #22
  %12 = extractvalue { i64, ptr } %call25.i, 0
  %13 = extractvalue { i64, ptr } %call25.i, 1
  %14 = load i8, ptr %ignore_case.i, align 1
  %15 = and i8 %14, 1
  %tobool.i = icmp ne i8 %15, 0
  invoke void @_ZN9grpc_core13StringMatcher6CreateENS0_4TypeESt17basic_string_viewIcSt11char_traitsIcEEb(ptr nonnull sret(%"class.absl::lts_20230802::StatusOr") align 8 %agg.tmp22.i, i32 noundef 3, i64 %12, ptr %13, i1 noundef zeroext %tobool.i)
          to label %invoke.cont.i unwind label %lpad.i

invoke.cont.i:                                    ; preds = %if.then21.i
  %16 = load i64, ptr %agg.tmp22.i, align 8
  %cmp.i.i.i.i = icmp eq i64 %16, 0
  br i1 %cmp.i.i.i.i, label %_ZNR4absl12lts_202308028StatusOrIN9grpc_core13StringMatcherEEdeEv.exit.i.i, label %if.else.i.i

_ZNR4absl12lts_202308028StatusOrIN9grpc_core13StringMatcherEEdeEv.exit.i.i: ; preds = %invoke.cont.i
  %set_string_matcher.val.i = load ptr, ptr %set_string_matcher.i, align 8
  %17 = getelementptr inbounds i8, ptr %agg.tmp22.i, i64 8
  %call3.i26.i = invoke noundef nonnull align 8 dereferenceable(49) ptr @_ZN9grpc_core13StringMatcheraSERKS0_(ptr noundef nonnull align 8 dereferenceable(49) %set_string_matcher.val.i, ptr noundef nonnull align 8 dereferenceable(49) %17)
          to label %invoke.cont27.i unwind label %lpad26.i

if.else.i.i:                                      ; preds = %invoke.cont.i
  %set_string_matcher.val6.i = load ptr, ptr %3, align 8
  %18 = load ptr, ptr %set_string_matcher.val6.i, align 8
  %and.i.i.i.i = and i64 %16, 1
  %cmp.i.i1.i.i = icmp eq i64 %and.i.i.i.i, 0
  br i1 %cmp.i.i1.i.i, label %cond.false.i.i.i, label %cond.true.i.i.i

cond.true.i.i.i:                                  ; preds = %if.else.i.i
  %sub.i.i.i.i = add nsw i64 %16, -1
  %19 = inttoptr i64 %sub.i.i.i.i to ptr
  %message.i.i.i = getelementptr inbounds i8, ptr %19, i64 8
  %call4.i.i.i = call { i64, ptr } @_ZNKSt7__cxx1112basic_stringIcSt11char_traitsIcESaIcEEcvSt17basic_string_viewIcS2_EEv(ptr noundef nonnull align 8 dereferenceable(32) %message.i.i.i) #22
  %20 = extractvalue { i64, ptr } %call4.i.i.i, 0
  %21 = extractvalue { i64, ptr } %call4.i.i.i, 1
  br label %_ZNK4absl12lts_202308026Status7messageEv.exit.i.i

cond.false.i.i.i:                                 ; preds = %if.else.i.i
  %22 = and i64 %16, 2
  %.not.i.i.i = icmp eq i64 %22, 0
  %spec.select.i.i.i = select i1 %.not.i.i.i, i64 0, i64 27
  %spec.select1.i.i.i = select i1 %.not.i.i.i, ptr null, ptr @_ZN4absl12lts_202308026Status16kMovedFromStringE
  br label %_ZNK4absl12lts_202308026Status7messageEv.exit.i.i

_ZNK4absl12lts_202308026Status7messageEv.exit.i.i: ; preds = %cond.false.i.i.i, %cond.true.i.i.i
  %retval.sroa.0.0.i.i.i = phi i64 [ %20, %cond.true.i.i.i ], [ %spec.select.i.i.i, %cond.false.i.i.i ]
  %retval.sroa.4.0.i.i.i = phi ptr [ %21, %cond.true.i.i.i ], [ %spec.select1.i.i.i, %cond.false.i.i.i ]
  invoke void @_ZN9grpc_core16ValidationErrors8AddErrorESt17basic_string_viewIcSt11char_traitsIcEE(ptr noundef nonnull align 8 dereferenceable(72) %18, i64 %retval.sroa.0.0.i.i.i, ptr %retval.sroa.4.0.i.i.i)
          to label %invoke.cont27.i unwind label %lpad26.i

invoke.cont27.i:                                  ; preds = %_ZNK4absl12lts_202308026Status7messageEv.exit.i.i, %_ZNR4absl12lts_202308028StatusOrIN9grpc_core13StringMatcherEEdeEv.exit.i.i
  %23 = load i64, ptr %agg.tmp22.i, align 8
  %cmp.i.i.i.i.i = icmp eq i64 %23, 0
  br i1 %cmp.i.i.i.i.i, label %_ZN4absl12lts_202308026StatusD2Ev.exit.i.i.i, label %if.else.i.i.i

_ZN4absl12lts_202308026StatusD2Ev.exit.i.i.i:     ; preds = %invoke.cont27.i
  %regex_matcher_.i.i.i.i = getelementptr inbounds i8, ptr %agg.tmp22.i, i64 48
  %24 = load ptr, ptr %regex_matcher_.i.i.i.i, align 8
  %cmp.not.i.i.i.i.i = icmp eq ptr %24, null
  br i1 %cmp.not.i.i.i.i.i, label %_ZN9grpc_core13StringMatcherD2Ev.exit.i.i.i, label %_ZNKSt14default_deleteIN3re23RE2EEclEPS1_.exit.i.i.i.i.i

_ZNKSt14default_deleteIN3re23RE2EEclEPS1_.exit.i.i.i.i.i: ; preds = %_ZN4absl12lts_202308026StatusD2Ev.exit.i.i.i
  call void @_ZN3re23RE2D1Ev(ptr noundef nonnull align 8 dereferenceable(212) %24) #22
  call void @_ZdlPv(ptr noundef nonnull %24) #24
  br label %_ZN9grpc_core13StringMatcherD2Ev.exit.i.i.i

_ZN9grpc_core13StringMatcherD2Ev.exit.i.i.i:      ; preds = %_ZNKSt14default_deleteIN3re23RE2EEclEPS1_.exit.i.i.i.i.i, %_ZN4absl12lts_202308026StatusD2Ev.exit.i.i.i
  store ptr null, ptr %regex_matcher_.i.i.i.i, align 8
  %string_matcher_.i.i.i.i = getelementptr inbounds i8, ptr %agg.tmp22.i, i64 16
  call void @_ZNSt7__cxx1112basic_stringIcSt11char_traitsIcESaIcEED1Ev(ptr noundef nonnull align 8 dereferenceable(32) %string_matcher_.i.i.i.i) #22
  br label %cleanup.i

if.else.i.i.i:                                    ; preds = %invoke.cont27.i
  %and.i.i.i1.i.i.i = and i64 %23, 1
  %cmp.i.i.i2.i.i.i = icmp eq i64 %and.i.i.i1.i.i.i, 0
  br i1 %cmp.i.i.i2.i.i.i, label %cleanup.i, label %if.then.i.i3.i.i.i

if.then.i.i3.i.i.i:                               ; preds = %if.else.i.i.i
  invoke void @_ZN4absl12lts_202308026Status15UnrefNonInlinedEm(i64 noundef %23)
          to label %cleanup.i unwind label %terminate.lpad.i4.i.i.i

terminate.lpad.i4.i.i.i:                          ; preds = %if.then.i.i3.i.i.i
  %25 = landingpad { ptr, i32 }
          catch ptr null
  %26 = extractvalue { ptr, i32 } %25, 0
  call void @__clang_call_terminate(ptr %26) #23
  unreachable

lpad.i:                                           ; preds = %if.then31.i, %if.then21.i
  %27 = landingpad { ptr, i32 }
          cleanup
  br label %ehcleanup.i

lpad26.i:                                         ; preds = %_ZNK4absl12lts_202308026Status7messageEv.exit.i.i, %_ZNR4absl12lts_202308028StatusOrIN9grpc_core13StringMatcherEEdeEv.exit.i.i
  %28 = landingpad { ptr, i32 }
          cleanup
  call void @_ZN4absl12lts_202308028StatusOrIN9grpc_core13StringMatcherEED2Ev(ptr noundef nonnull align 8 dereferenceable(64) %agg.tmp22.i) #22
  br label %ehcleanup.i

if.end28.i:                                       ; preds = %_ZNK9grpc_core12experimental4Json6objectB5cxx11Ev.exit23.i
  %29 = load ptr, ptr %errors.addr.i, align 8
  %_M_node_count.i.i.i27.i = getelementptr inbounds i8, ptr %29, i64 40
  %30 = load i64, ptr %_M_node_count.i.i.i27.i, align 8
  %cmp.i = icmp eq i64 %30, %0
  br i1 %cmp.i, label %if.then31.i, label %cleanup.i

if.then31.i:                                      ; preds = %if.end28.i
  invoke void @_ZN9grpc_core16ValidationErrors8AddErrorESt17basic_string_viewIcSt11char_traitsIcEE(ptr noundef nonnull align 8 dereferenceable(72) %29, i64 22, ptr nonnull @.str.48)
          to label %cleanup.i unwind label %lpad.i

cleanup.i:                                        ; preds = %if.then31.i, %if.end28.i, %if.then.i.i3.i.i.i, %if.else.i.i.i, %_ZN9grpc_core13StringMatcherD2Ev.exit.i.i.i
  %31 = load i8, ptr %10, align 8
  %32 = and i8 %31, 1
  %tobool.not.i.i.i.i.i = icmp eq i8 %32, 0
  br i1 %tobool.not.i.i.i.i.i, label %_ZN9grpc_core12_GLOBAL__N_110RbacConfig10RbacPolicy5Rules6Policy11StringMatch12JsonPostLoadERKNS_12experimental4JsonERKNS_8JsonArgsEPNS_16ValidationErrorsE.exit, label %if.then.i.i.i.i30.i

if.then.i.i.i.i30.i:                              ; preds = %cleanup.i
  store i8 0, ptr %10, align 8
  call void @_ZNSt7__cxx1112basic_stringIcSt11char_traitsIcESaIcEED1Ev(ptr noundef nonnull align 8 dereferenceable(32) %regex_match.i) #22
  br label %_ZN9grpc_core12_GLOBAL__N_110RbacConfig10RbacPolicy5Rules6Policy11StringMatch12JsonPostLoadERKNS_12experimental4JsonERKNS_8JsonArgsEPNS_16ValidationErrorsE.exit

ehcleanup.i:                                      ; preds = %lpad26.i, %lpad.i
  %.pn.i = phi { ptr, i32 } [ %28, %lpad26.i ], [ %27, %lpad.i ]
  %33 = load i8, ptr %10, align 8
  %34 = and i8 %33, 1
  %tobool.not.i.i.i.i32.i = icmp eq i8 %34, 0
  br i1 %tobool.not.i.i.i.i32.i, label %_ZNSt8optionalIN9grpc_core12_GLOBAL__N_110RbacConfig10RbacPolicy5Rules6Policy14SafeRegexMatchEED2Ev.exit34.i, label %if.then.i.i.i.i33.i

if.then.i.i.i.i33.i:                              ; preds = %ehcleanup.i
  store i8 0, ptr %10, align 8
  call void @_ZNSt7__cxx1112basic_stringIcSt11char_traitsIcESaIcEED1Ev(ptr noundef nonnull align 8 dereferenceable(32) %regex_match.i) #22
  br label %_ZNSt8optionalIN9grpc_core12_GLOBAL__N_110RbacConfig10RbacPolicy5Rules6Policy14SafeRegexMatchEED2Ev.exit34.i

_ZNSt8optionalIN9grpc_core12_GLOBAL__N_110RbacConfig10RbacPolicy5Rules6Policy14SafeRegexMatchEED2Ev.exit34.i: ; preds = %if.then.i.i.i.i33.i, %ehcleanup.i
  resume { ptr, i32 } %.pn.i

_ZN9grpc_core12_GLOBAL__N_110RbacConfig10RbacPolicy5Rules6Policy11StringMatch12JsonPostLoadERKNS_12experimental4JsonERKNS_8JsonArgsEPNS_16ValidationErrorsE.exit: ; preds = %_ZNK9grpc_core12experimental4Json6objectB5cxx11Ev.exit.i, %lor.lhs.false.i, %lor.lhs.false12.i, %lor.lhs.false15.i, %cleanup.i, %if.then.i.i.i.i30.i
  call void @llvm.lifetime.end.p0(i64 8, ptr nonnull %errors.addr.i)
  call void @llvm.lifetime.end.p0(i64 1, ptr nonnull %ignore_case.i)
  call void @llvm.lifetime.end.p0(i64 16, ptr nonnull %set_string_matcher.i)
  call void @llvm.lifetime.end.p0(i64 40, ptr nonnull %check_match.i)
  call void @llvm.lifetime.end.p0(i64 40, ptr nonnull %regex_match.i)
  call void @llvm.lifetime.end.p0(i64 64, ptr nonnull %agg.tmp22.i)
  br label %if.end

if.end:                                           ; preds = %_ZN9grpc_core12_GLOBAL__N_110RbacConfig10RbacPolicy5Rules6Policy11StringMatch12JsonPostLoadERKNS_12experimental4JsonERKNS_8JsonArgsEPNS_16ValidationErrorsE.exit, %entry
  ret void
}

; Function Attrs: mustprogress uwtable
define linkonce_odr i16 @_ZN9grpc_core19LoadJsonObjectFieldIbEESt8optionalIT_ERKSt3mapINSt7__cxx1112basic_stringIcSt11char_traitsIcESaIcEEENS_12experimental4JsonESt4lessISA_ESaISt4pairIKSA_SC_EEERKNS_8JsonArgsESt17basic_string_viewIcS8_EPNS_16ValidationErrorsEb(ptr noundef nonnull align 8 dereferenceable(48) %json, ptr noundef nonnull align 8 dereferenceable(8) %args, i64 %field.coerce0, ptr %field.coerce1, ptr noundef %errors, i1 noundef zeroext %required) local_unnamed_addr #3 comdat personality ptr @__gxx_personality_v0 {
entry:
  %error_field = alloca %"class.grpc_core::ValidationErrors::ScopedField", align 8
  %ref.tmp = alloca %"class.std::__cxx11::basic_string", align 8
  %ref.tmp1 = alloca %"class.absl::lts_20230802::AlphaNum", align 8
  %ref.tmp2 = alloca %"class.absl::lts_20230802::AlphaNum", align 8
  %result = alloca i8, align 1
  store i64 1, ptr %ref.tmp1, align 8
  %0 = getelementptr inbounds i8, ptr %ref.tmp1, i64 8
  store ptr @.str.49, ptr %0, align 8
  store i64 %field.coerce0, ptr %ref.tmp2, align 8
  %pc.sroa.2.0.piece_.sroa_idx.i = getelementptr inbounds i8, ptr %ref.tmp2, i64 8
  store ptr %field.coerce1, ptr %pc.sroa.2.0.piece_.sroa_idx.i, align 8
  call void @_ZN4absl12lts_202308026StrCatB5cxx11ERKNS0_8AlphaNumES3_(ptr nonnull sret(%"class.std::__cxx11::basic_string") align 8 %ref.tmp, ptr noundef nonnull align 8 dereferenceable(48) %ref.tmp1, ptr noundef nonnull align 8 dereferenceable(48) %ref.tmp2)
  %call = call { i64, ptr } @_ZNKSt7__cxx1112basic_stringIcSt11char_traitsIcESaIcEEcvSt17basic_string_viewIcS2_EEv(ptr noundef nonnull align 8 dereferenceable(32) %ref.tmp) #22
  %1 = extractvalue { i64, ptr } %call, 0
  %2 = extractvalue { i64, ptr } %call, 1
  store ptr %errors, ptr %error_field, align 8
  invoke void @_ZN9grpc_core16ValidationErrors9PushFieldESt17basic_string_viewIcSt11char_traitsIcEE(ptr noundef nonnull align 8 dereferenceable(72) %errors, i64 %1, ptr %2)
          to label %invoke.cont unwind label %lpad

invoke.cont:                                      ; preds = %entry
  call void @_ZNSt7__cxx1112basic_stringIcSt11char_traitsIcESaIcEED1Ev(ptr noundef nonnull align 8 dereferenceable(32) %ref.tmp) #22
  %call7 = invoke noundef ptr @_ZN9grpc_core11json_detail18GetJsonObjectFieldERKSt3mapINSt7__cxx1112basic_stringIcSt11char_traitsIcESaIcEEENS_12experimental4JsonESt4lessIS7_ESaISt4pairIKS7_S9_EEESt17basic_string_viewIcS5_EPNS_16ValidationErrorsEb(ptr noundef nonnull align 8 dereferenceable(48) %json, i64 %field.coerce0, ptr %field.coerce1, ptr noundef nonnull %errors, i1 noundef zeroext %required)
          to label %invoke.cont6 unwind label %lpad5

invoke.cont6:                                     ; preds = %invoke.cont
  %cmp = icmp eq ptr %call7, null
  br i1 %cmp, label %cleanup, label %invoke.cont10

lpad:                                             ; preds = %entry
  %3 = landingpad { ptr, i32 }
          cleanup
  call void @_ZNSt7__cxx1112basic_stringIcSt11char_traitsIcESaIcEED1Ev(ptr noundef nonnull align 8 dereferenceable(32) %ref.tmp) #22
  br label %eh.resume

lpad5:                                            ; preds = %invoke.cont10, %invoke.cont
  %4 = landingpad { ptr, i32 }
          cleanup
  call void @_ZN9grpc_core16ValidationErrors11ScopedFieldD2Ev(ptr noundef nonnull align 8 dereferenceable(8) %error_field) #22
  br label %eh.resume

invoke.cont10:                                    ; preds = %invoke.cont6
  store i8 0, ptr %result, align 1
  %_M_node_count.i.i.i = getelementptr inbounds i8, ptr %errors, i64 40
  %5 = load i64, ptr %_M_node_count.i.i.i, align 8
  %vtable = load ptr, ptr @_ZN9grpc_core19NoDestructSingletonINS_11json_detail10AutoLoaderIbEEE6value_E, align 8
  %6 = load ptr, ptr %vtable, align 8
  invoke void %6(ptr noundef nonnull align 8 dereferenceable(8) @_ZN9grpc_core19NoDestructSingletonINS_11json_detail10AutoLoaderIbEEE6value_E, ptr noundef nonnull align 8 dereferenceable(56) %call7, ptr noundef nonnull align 8 dereferenceable(8) %args, ptr noundef nonnull %result, ptr noundef nonnull %errors)
          to label %invoke.cont12 unwind label %lpad5

invoke.cont12:                                    ; preds = %invoke.cont10
  %7 = load i64, ptr %_M_node_count.i.i.i, align 8
  %cmp14 = icmp ugt i64 %7, %5
  br i1 %cmp14, label %cleanup, label %if.end17

if.end17:                                         ; preds = %invoke.cont12
  %8 = load i8, ptr %result, align 1
  %9 = and i8 %8, 1
  %10 = zext nneg i8 %9 to i16
  br label %cleanup

cleanup:                                          ; preds = %invoke.cont12, %invoke.cont6, %if.end17
  %retval.sroa.2.0 = phi i16 [ 256, %if.end17 ], [ 0, %invoke.cont6 ], [ 0, %invoke.cont12 ]
  %retval.sroa.0.0 = phi i16 [ %10, %if.end17 ], [ 0, %invoke.cont6 ], [ 0, %invoke.cont12 ]
  %11 = load ptr, ptr %error_field, align 8
  %cmp.not.i = icmp eq ptr %11, null
  br i1 %cmp.not.i, label %_ZN9grpc_core16ValidationErrors11ScopedFieldD2Ev.exit, label %if.then.i

if.then.i:                                        ; preds = %cleanup
  invoke void @_ZN9grpc_core16ValidationErrors8PopFieldEv(ptr noundef nonnull align 8 dereferenceable(72) %11)
          to label %_ZN9grpc_core16ValidationErrors11ScopedFieldD2Ev.exit unwind label %terminate.lpad.i

terminate.lpad.i:                                 ; preds = %if.then.i
  %12 = landingpad { ptr, i32 }
          catch ptr null
  %13 = extractvalue { ptr, i32 } %12, 0
  call void @__clang_call_terminate(ptr %13) #23
  unreachable

_ZN9grpc_core16ValidationErrors11ScopedFieldD2Ev.exit: ; preds = %cleanup, %if.then.i
  %retval.sroa.0.0.insert.insert = or disjoint i16 %retval.sroa.0.0, %retval.sroa.2.0
  ret i16 %retval.sroa.0.0.insert.insert

eh.resume:                                        ; preds = %lpad5, %lpad
  %.pn = phi { ptr, i32 } [ %4, %lpad5 ], [ %3, %lpad ]
  resume { ptr, i32 } %.pn
}

; Function Attrs: mustprogress uwtable
define linkonce_odr noundef nonnull align 8 dereferenceable(48) ptr @_ZNK9grpc_core12experimental4Json6objectB5cxx11Ev(ptr noundef nonnull align 8 dereferenceable(56) %this) local_unnamed_addr #3 comdat align 2 {
entry:
  %_M_index.i.i.i = getelementptr inbounds i8, ptr %this, i64 48
  %0 = load i8, ptr %_M_index.i.i.i, align 8
  %cmp.not.i.i = icmp eq i8 %0, 4
  br i1 %cmp.not.i.i, label %_ZSt3getISt3mapINSt7__cxx1112basic_stringIcSt11char_traitsIcESaIcEEEN9grpc_core12experimental4JsonESt4lessIS6_ESaISt4pairIKS6_S9_EEEJSt9monostatebNS9_11NumberValueES6_SG_St6vectorIS9_SaIS9_EEEERKT_RKSt7variantIJDpT0_EE.exit, label %if.then.i.i

if.then.i.i:                                      ; preds = %entry
  %cmp.i.not.i.i.i = icmp eq i8 %0, -1
  %exception.i.i.i.i = tail call ptr @__cxa_allocate_exception(i64 16) #22
  store ptr getelementptr inbounds ({ [5 x ptr] }, ptr @_ZTVSt18bad_variant_access, i64 0, inrange i32 0, i64 2), ptr %exception.i.i.i.i, align 8
  %_M_reason.i.i.i.i.i = getelementptr inbounds i8, ptr %exception.i.i.i.i, i64 8
  br i1 %cmp.i.not.i.i.i, label %if.then.i.i.i, label %if.else.i.i.i

if.then.i.i.i:                                    ; preds = %if.then.i.i
  store ptr @.str.50, ptr %_M_reason.i.i.i.i.i, align 8
  tail call void @__cxa_throw(ptr nonnull %exception.i.i.i.i, ptr nonnull @_ZTISt18bad_variant_access, ptr nonnull @_ZNSt18bad_variant_accessD2Ev) #20
  unreachable

if.else.i.i.i:                                    ; preds = %if.then.i.i
  store ptr @.str.51, ptr %_M_reason.i.i.i.i.i, align 8
  tail call void @__cxa_throw(ptr nonnull %exception.i.i.i.i, ptr nonnull @_ZTISt18bad_variant_access, ptr nonnull @_ZNSt18bad_variant_accessD2Ev) #20
  unreachable

_ZSt3getISt3mapINSt7__cxx1112basic_stringIcSt11char_traitsIcESaIcEEEN9grpc_core12experimental4JsonESt4lessIS6_ESaISt4pairIKS6_S9_EEEJSt9monostatebNS9_11NumberValueES6_SG_St6vectorIS9_SaIS9_EEEERKT_RKSt7variantIJDpT0_EE.exit: ; preds = %entry
  ret ptr %this
}

; Function Attrs: mustprogress uwtable
define internal fastcc noundef zeroext i1 @"_ZZN9grpc_core12_GLOBAL__N_110RbacConfig10RbacPolicy5Rules6Policy11StringMatch12JsonPostLoadERKNS_12experimental4JsonERKNS_8JsonArgsEPNS_16ValidationErrorsEENK3$_0clESt17basic_string_viewIcSt11char_traitsIcEENS_13StringMatcher4TypeE"(ptr nocapture noundef nonnull readonly align 8 dereferenceable(40) %this, i64 %field_name.coerce0, ptr %field_name.coerce1, i32 noundef %type) unnamed_addr #3 align 2 personality ptr @__gxx_personality_v0 {
entry:
  %match = alloca %"class.std::optional.288", align 8
  %agg.tmp3 = alloca %"class.absl::lts_20230802::StatusOr", align 8
  %0 = load ptr, ptr %this, align 8
  %_M_index.i.i.i.i = getelementptr inbounds i8, ptr %0, i64 48
  %1 = load i8, ptr %_M_index.i.i.i.i, align 8
  %cmp.not.i.i.i = icmp eq i8 %1, 4
  br i1 %cmp.not.i.i.i, label %_ZNK9grpc_core12experimental4Json6objectB5cxx11Ev.exit, label %if.then.i.i.i

if.then.i.i.i:                                    ; preds = %entry
  %cmp.i.not.i.i.i.i = icmp eq i8 %1, -1
  %exception.i.i.i.i.i = tail call ptr @__cxa_allocate_exception(i64 16) #22
  store ptr getelementptr inbounds ({ [5 x ptr] }, ptr @_ZTVSt18bad_variant_access, i64 0, inrange i32 0, i64 2), ptr %exception.i.i.i.i.i, align 8
  %_M_reason.i.i.i.i.i.i = getelementptr inbounds i8, ptr %exception.i.i.i.i.i, i64 8
  br i1 %cmp.i.not.i.i.i.i, label %if.then.i.i.i.i, label %if.else.i.i.i.i

if.then.i.i.i.i:                                  ; preds = %if.then.i.i.i
  store ptr @.str.50, ptr %_M_reason.i.i.i.i.i.i, align 8
  tail call void @__cxa_throw(ptr nonnull %exception.i.i.i.i.i, ptr nonnull @_ZTISt18bad_variant_access, ptr nonnull @_ZNSt18bad_variant_accessD2Ev) #20
  unreachable

if.else.i.i.i.i:                                  ; preds = %if.then.i.i.i
  store ptr @.str.51, ptr %_M_reason.i.i.i.i.i.i, align 8
  tail call void @__cxa_throw(ptr nonnull %exception.i.i.i.i.i, ptr nonnull @_ZTISt18bad_variant_access, ptr nonnull @_ZNSt18bad_variant_accessD2Ev) #20
  unreachable

_ZNK9grpc_core12experimental4Json6objectB5cxx11Ev.exit: ; preds = %entry
  %2 = getelementptr inbounds i8, ptr %this, i64 8
  %3 = load ptr, ptr %2, align 8
  %4 = getelementptr inbounds i8, ptr %this, i64 16
  %5 = load ptr, ptr %4, align 8
  %6 = load ptr, ptr %5, align 8
  call void @_ZN9grpc_core19LoadJsonObjectFieldINSt7__cxx1112basic_stringIcSt11char_traitsIcESaIcEEEEESt8optionalIT_ERKSt3mapIS6_NS_12experimental4JsonESt4lessIS6_ESaISt4pairIKS6_SC_EEERKNS_8JsonArgsESt17basic_string_viewIcS4_EPNS_16ValidationErrorsEb(ptr nonnull sret(%"class.std::optional.288") align 8 %match, ptr noundef nonnull align 8 dereferenceable(48) %0, ptr noundef nonnull align 8 dereferenceable(8) %3, i64 %field_name.coerce0, ptr %field_name.coerce1, ptr noundef %6, i1 noundef zeroext false)
  %_M_engaged.i.i = getelementptr inbounds i8, ptr %match, i64 32
  %7 = load i8, ptr %_M_engaged.i.i, align 8
  %8 = and i8 %7, 1
  %tobool.i.i = icmp ne i8 %8, 0
  br i1 %tobool.i.i, label %if.then, label %cleanup

if.then:                                          ; preds = %_ZNK9grpc_core12experimental4Json6objectB5cxx11Ev.exit
  %9 = getelementptr inbounds i8, ptr %this, i64 24
  %10 = load ptr, ptr %9, align 8
  %call6 = call { i64, ptr } @_ZNKSt7__cxx1112basic_stringIcSt11char_traitsIcESaIcEEcvSt17basic_string_viewIcS2_EEv(ptr noundef nonnull align 8 dereferenceable(32) %match) #22
  %11 = extractvalue { i64, ptr } %call6, 0
  %12 = extractvalue { i64, ptr } %call6, 1
  %13 = getelementptr inbounds i8, ptr %this, i64 32
  %14 = load ptr, ptr %13, align 8
  %15 = load i8, ptr %14, align 1
  %16 = and i8 %15, 1
  %tobool = icmp ne i8 %16, 0
  invoke void @_ZN9grpc_core13StringMatcher6CreateENS0_4TypeESt17basic_string_viewIcSt11char_traitsIcEEb(ptr nonnull sret(%"class.absl::lts_20230802::StatusOr") align 8 %agg.tmp3, i32 noundef %type, i64 %11, ptr %12, i1 noundef zeroext %tobool)
          to label %invoke.cont unwind label %lpad

invoke.cont:                                      ; preds = %if.then
  %17 = load i64, ptr %agg.tmp3, align 8
  %cmp.i.i.i = icmp eq i64 %17, 0
  br i1 %cmp.i.i.i, label %_ZNR4absl12lts_202308028StatusOrIN9grpc_core13StringMatcherEEdeEv.exit.i, label %if.else.i

_ZNR4absl12lts_202308028StatusOrIN9grpc_core13StringMatcherEEdeEv.exit.i: ; preds = %invoke.cont
  %.val = load ptr, ptr %10, align 8
  %18 = getelementptr inbounds i8, ptr %agg.tmp3, i64 8
  %call3.i3 = invoke noundef nonnull align 8 dereferenceable(49) ptr @_ZN9grpc_core13StringMatcheraSERKS0_(ptr noundef nonnull align 8 dereferenceable(49) %.val, ptr noundef nonnull align 8 dereferenceable(49) %18)
          to label %invoke.cont8 unwind label %lpad7

if.else.i:                                        ; preds = %invoke.cont
  %19 = getelementptr i8, ptr %10, i64 8
  %.val2 = load ptr, ptr %19, align 8
  %20 = load ptr, ptr %.val2, align 8
  %and.i.i.i = and i64 %17, 1
  %cmp.i.i1.i = icmp eq i64 %and.i.i.i, 0
  br i1 %cmp.i.i1.i, label %cond.false.i.i, label %cond.true.i.i

cond.true.i.i:                                    ; preds = %if.else.i
  %sub.i.i.i = add nsw i64 %17, -1
  %21 = inttoptr i64 %sub.i.i.i to ptr
  %message.i.i = getelementptr inbounds i8, ptr %21, i64 8
  %call4.i.i = call { i64, ptr } @_ZNKSt7__cxx1112basic_stringIcSt11char_traitsIcESaIcEEcvSt17basic_string_viewIcS2_EEv(ptr noundef nonnull align 8 dereferenceable(32) %message.i.i) #22
  %22 = extractvalue { i64, ptr } %call4.i.i, 0
  %23 = extractvalue { i64, ptr } %call4.i.i, 1
  br label %_ZNK4absl12lts_202308026Status7messageEv.exit.i

cond.false.i.i:                                   ; preds = %if.else.i
  %24 = and i64 %17, 2
  %.not.i.i = icmp eq i64 %24, 0
  %spec.select.i.i = select i1 %.not.i.i, i64 0, i64 27
  %spec.select1.i.i = select i1 %.not.i.i, ptr null, ptr @_ZN4absl12lts_202308026Status16kMovedFromStringE
  br label %_ZNK4absl12lts_202308026Status7messageEv.exit.i

_ZNK4absl12lts_202308026Status7messageEv.exit.i:  ; preds = %cond.false.i.i, %cond.true.i.i
  %retval.sroa.0.0.i.i = phi i64 [ %22, %cond.true.i.i ], [ %spec.select.i.i, %cond.false.i.i ]
  %retval.sroa.4.0.i.i = phi ptr [ %23, %cond.true.i.i ], [ %spec.select1.i.i, %cond.false.i.i ]
  invoke void @_ZN9grpc_core16ValidationErrors8AddErrorESt17basic_string_viewIcSt11char_traitsIcEE(ptr noundef nonnull align 8 dereferenceable(72) %20, i64 %retval.sroa.0.0.i.i, ptr %retval.sroa.4.0.i.i)
          to label %invoke.cont8 unwind label %lpad7

invoke.cont8:                                     ; preds = %_ZNR4absl12lts_202308028StatusOrIN9grpc_core13StringMatcherEEdeEv.exit.i, %_ZNK4absl12lts_202308026Status7messageEv.exit.i
  %25 = load i64, ptr %agg.tmp3, align 8
  %cmp.i.i.i.i = icmp eq i64 %25, 0
  br i1 %cmp.i.i.i.i, label %_ZN4absl12lts_202308026StatusD2Ev.exit.i.i, label %if.else.i.i

_ZN4absl12lts_202308026StatusD2Ev.exit.i.i:       ; preds = %invoke.cont8
  %regex_matcher_.i.i.i = getelementptr inbounds i8, ptr %agg.tmp3, i64 48
  %26 = load ptr, ptr %regex_matcher_.i.i.i, align 8
  %cmp.not.i.i.i.i = icmp eq ptr %26, null
  br i1 %cmp.not.i.i.i.i, label %_ZN9grpc_core13StringMatcherD2Ev.exit.i.i, label %_ZNKSt14default_deleteIN3re23RE2EEclEPS1_.exit.i.i.i.i

_ZNKSt14default_deleteIN3re23RE2EEclEPS1_.exit.i.i.i.i: ; preds = %_ZN4absl12lts_202308026StatusD2Ev.exit.i.i
  call void @_ZN3re23RE2D1Ev(ptr noundef nonnull align 8 dereferenceable(212) %26) #22
  call void @_ZdlPv(ptr noundef nonnull %26) #24
  br label %_ZN9grpc_core13StringMatcherD2Ev.exit.i.i

_ZN9grpc_core13StringMatcherD2Ev.exit.i.i:        ; preds = %_ZNKSt14default_deleteIN3re23RE2EEclEPS1_.exit.i.i.i.i, %_ZN4absl12lts_202308026StatusD2Ev.exit.i.i
  store ptr null, ptr %regex_matcher_.i.i.i, align 8
  %string_matcher_.i.i.i = getelementptr inbounds i8, ptr %agg.tmp3, i64 16
  call void @_ZNSt7__cxx1112basic_stringIcSt11char_traitsIcESaIcEED1Ev(ptr noundef nonnull align 8 dereferenceable(32) %string_matcher_.i.i.i) #22
  br label %cleanup

if.else.i.i:                                      ; preds = %invoke.cont8
  %and.i.i.i1.i.i = and i64 %25, 1
  %cmp.i.i.i2.i.i = icmp eq i64 %and.i.i.i1.i.i, 0
  br i1 %cmp.i.i.i2.i.i, label %cleanup, label %if.then.i.i3.i.i

if.then.i.i3.i.i:                                 ; preds = %if.else.i.i
  invoke void @_ZN4absl12lts_202308026Status15UnrefNonInlinedEm(i64 noundef %25)
          to label %cleanup unwind label %terminate.lpad.i4.i.i

terminate.lpad.i4.i.i:                            ; preds = %if.then.i.i3.i.i
  %27 = landingpad { ptr, i32 }
          catch ptr null
  %28 = extractvalue { ptr, i32 } %27, 0
  call void @__clang_call_terminate(ptr %28) #23
  unreachable

lpad:                                             ; preds = %if.then
  %29 = landingpad { ptr, i32 }
          cleanup
  br label %ehcleanup

lpad7:                                            ; preds = %_ZNK4absl12lts_202308026Status7messageEv.exit.i, %_ZNR4absl12lts_202308028StatusOrIN9grpc_core13StringMatcherEEdeEv.exit.i
  %30 = landingpad { ptr, i32 }
          cleanup
  call void @_ZN4absl12lts_202308028StatusOrIN9grpc_core13StringMatcherEED2Ev(ptr noundef nonnull align 8 dereferenceable(64) %agg.tmp3) #22
  br label %ehcleanup

cleanup:                                          ; preds = %if.then.i.i3.i.i, %if.else.i.i, %_ZN9grpc_core13StringMatcherD2Ev.exit.i.i, %_ZNK9grpc_core12experimental4Json6objectB5cxx11Ev.exit
  %31 = load i8, ptr %_M_engaged.i.i, align 8
  %32 = and i8 %31, 1
  %tobool.not.i.i.i.i = icmp eq i8 %32, 0
  br i1 %tobool.not.i.i.i.i, label %_ZNSt8optionalINSt7__cxx1112basic_stringIcSt11char_traitsIcESaIcEEEED2Ev.exit, label %if.then.i.i.i.i4

if.then.i.i.i.i4:                                 ; preds = %cleanup
  store i8 0, ptr %_M_engaged.i.i, align 8
  call void @_ZNSt7__cxx1112basic_stringIcSt11char_traitsIcESaIcEED1Ev(ptr noundef nonnull align 8 dereferenceable(32) %match) #22
  br label %_ZNSt8optionalINSt7__cxx1112basic_stringIcSt11char_traitsIcESaIcEEEED2Ev.exit

_ZNSt8optionalINSt7__cxx1112basic_stringIcSt11char_traitsIcESaIcEEEED2Ev.exit: ; preds = %cleanup, %if.then.i.i.i.i4
  ret i1 %tobool.i.i

ehcleanup:                                        ; preds = %lpad7, %lpad
  %.pn = phi { ptr, i32 } [ %30, %lpad7 ], [ %29, %lpad ]
  %33 = load i8, ptr %_M_engaged.i.i, align 8
  %34 = and i8 %33, 1
  %tobool.not.i.i.i.i6 = icmp eq i8 %34, 0
  br i1 %tobool.not.i.i.i.i6, label %_ZNSt8optionalINSt7__cxx1112basic_stringIcSt11char_traitsIcESaIcEEEED2Ev.exit8, label %if.then.i.i.i.i7

if.then.i.i.i.i7:                                 ; preds = %ehcleanup
  store i8 0, ptr %_M_engaged.i.i, align 8
  call void @_ZNSt7__cxx1112basic_stringIcSt11char_traitsIcESaIcEED1Ev(ptr noundef nonnull align 8 dereferenceable(32) %match) #22
  br label %_ZNSt8optionalINSt7__cxx1112basic_stringIcSt11char_traitsIcESaIcEEEED2Ev.exit8

_ZNSt8optionalINSt7__cxx1112basic_stringIcSt11char_traitsIcESaIcEEEED2Ev.exit8: ; preds = %ehcleanup, %if.then.i.i.i.i7
  resume { ptr, i32 } %.pn
}

; Function Attrs: mustprogress uwtable
define internal fastcc void @_ZN9grpc_core19LoadJsonObjectFieldINS_12_GLOBAL__N_110RbacConfig10RbacPolicy5Rules6Policy14SafeRegexMatchEEESt8optionalIT_ERKSt3mapINSt7__cxx1112basic_stringIcSt11char_traitsIcESaIcEEENS_12experimental4JsonESt4lessISG_ESaISt4pairIKSG_SI_EEERKNS_8JsonArgsESt17basic_string_viewIcSE_EPNS_16ValidationErrorsEb(ptr noalias align 8 %agg.result, ptr noundef nonnull align 8 dereferenceable(48) %json, ptr noundef nonnull align 8 dereferenceable(8) %args, i64 %field.coerce0, ptr %field.coerce1, ptr noundef %errors) unnamed_addr #3 personality ptr @__gxx_personality_v0 {
entry:
  %error_field = alloca %"class.grpc_core::ValidationErrors::ScopedField", align 8
  %ref.tmp = alloca %"class.std::__cxx11::basic_string", align 8
  %ref.tmp1 = alloca %"class.absl::lts_20230802::AlphaNum", align 8
  %ref.tmp2 = alloca %"class.absl::lts_20230802::AlphaNum", align 8
  %result = alloca %"struct.grpc_core::(anonymous namespace)::RbacConfig::RbacPolicy::Rules::Policy::SafeRegexMatch", align 8
  store i64 1, ptr %ref.tmp1, align 8
  %0 = getelementptr inbounds i8, ptr %ref.tmp1, i64 8
  store ptr @.str.49, ptr %0, align 8
  store i64 %field.coerce0, ptr %ref.tmp2, align 8
  %pc.sroa.2.0.piece_.sroa_idx.i = getelementptr inbounds i8, ptr %ref.tmp2, i64 8
  store ptr %field.coerce1, ptr %pc.sroa.2.0.piece_.sroa_idx.i, align 8
  call void @_ZN4absl12lts_202308026StrCatB5cxx11ERKNS0_8AlphaNumES3_(ptr nonnull sret(%"class.std::__cxx11::basic_string") align 8 %ref.tmp, ptr noundef nonnull align 8 dereferenceable(48) %ref.tmp1, ptr noundef nonnull align 8 dereferenceable(48) %ref.tmp2)
  %call = call { i64, ptr } @_ZNKSt7__cxx1112basic_stringIcSt11char_traitsIcESaIcEEcvSt17basic_string_viewIcS2_EEv(ptr noundef nonnull align 8 dereferenceable(32) %ref.tmp) #22
  %1 = extractvalue { i64, ptr } %call, 0
  %2 = extractvalue { i64, ptr } %call, 1
  store ptr %errors, ptr %error_field, align 8
  invoke void @_ZN9grpc_core16ValidationErrors9PushFieldESt17basic_string_viewIcSt11char_traitsIcEE(ptr noundef nonnull align 8 dereferenceable(72) %errors, i64 %1, ptr %2)
          to label %invoke.cont unwind label %lpad

invoke.cont:                                      ; preds = %entry
  call void @_ZNSt7__cxx1112basic_stringIcSt11char_traitsIcESaIcEED1Ev(ptr noundef nonnull align 8 dereferenceable(32) %ref.tmp) #22
  %call7 = invoke noundef ptr @_ZN9grpc_core11json_detail18GetJsonObjectFieldERKSt3mapINSt7__cxx1112basic_stringIcSt11char_traitsIcESaIcEEENS_12experimental4JsonESt4lessIS7_ESaISt4pairIKS7_S9_EEESt17basic_string_viewIcS5_EPNS_16ValidationErrorsEb(ptr noundef nonnull align 8 dereferenceable(48) %json, i64 %field.coerce0, ptr %field.coerce1, ptr noundef nonnull %errors, i1 noundef zeroext false)
          to label %invoke.cont6 unwind label %lpad5

invoke.cont6:                                     ; preds = %invoke.cont
  %cmp = icmp eq ptr %call7, null
  br i1 %cmp, label %if.then, label %invoke.cont11

if.then:                                          ; preds = %invoke.cont6
  %_M_engaged.i.i.i.i.i = getelementptr inbounds i8, ptr %agg.result, i64 32
  store i8 0, ptr %_M_engaged.i.i.i.i.i, align 8
  br label %cleanup19

lpad:                                             ; preds = %entry
  %3 = landingpad { ptr, i32 }
          cleanup
  call void @_ZNSt7__cxx1112basic_stringIcSt11char_traitsIcESaIcEED1Ev(ptr noundef nonnull align 8 dereferenceable(32) %ref.tmp) #22
  br label %eh.resume

lpad5:                                            ; preds = %invoke.cont
  %4 = landingpad { ptr, i32 }
          cleanup
  br label %ehcleanup

invoke.cont11:                                    ; preds = %invoke.cont6
  call void @_ZNSt7__cxx1112basic_stringIcSt11char_traitsIcESaIcEEC1Ev(ptr noundef nonnull align 8 dereferenceable(32) %result) #22
  %_M_node_count.i.i.i = getelementptr inbounds i8, ptr %errors, i64 40
  %5 = load i64, ptr %_M_node_count.i.i.i, align 8
  %vtable = load ptr, ptr @_ZN9grpc_core19NoDestructSingletonINS_11json_detail10AutoLoaderINS_12_GLOBAL__N_110RbacConfig10RbacPolicy5Rules6Policy14SafeRegexMatchEEEE6value_E, align 8
  %6 = load ptr, ptr %vtable, align 8
  invoke void %6(ptr noundef nonnull align 8 dereferenceable(8) @_ZN9grpc_core19NoDestructSingletonINS_11json_detail10AutoLoaderINS_12_GLOBAL__N_110RbacConfig10RbacPolicy5Rules6Policy14SafeRegexMatchEEEE6value_E, ptr noundef nonnull align 8 dereferenceable(56) %call7, ptr noundef nonnull align 8 dereferenceable(8) %args, ptr noundef nonnull %result, ptr noundef nonnull %errors)
          to label %invoke.cont13 unwind label %lpad10

invoke.cont13:                                    ; preds = %invoke.cont11
  %7 = load i64, ptr %_M_node_count.i.i.i, align 8
  %cmp15 = icmp ugt i64 %7, %5
  br i1 %cmp15, label %cleanup, label %if.end18

lpad10:                                           ; preds = %invoke.cont11
  %8 = landingpad { ptr, i32 }
          cleanup
  call void @_ZNSt7__cxx1112basic_stringIcSt11char_traitsIcESaIcEED1Ev(ptr noundef nonnull align 8 dereferenceable(32) %result) #22
  br label %ehcleanup

if.end18:                                         ; preds = %invoke.cont13
  call void @_ZNSt7__cxx1112basic_stringIcSt11char_traitsIcESaIcEEC1EOS4_(ptr noundef nonnull align 8 dereferenceable(32) %agg.result, ptr noundef nonnull align 8 dereferenceable(32) %result) #22
  br label %cleanup

cleanup:                                          ; preds = %invoke.cont13, %if.end18
  %.sink = phi i8 [ 1, %if.end18 ], [ 0, %invoke.cont13 ]
  %9 = getelementptr inbounds i8, ptr %agg.result, i64 32
  store i8 %.sink, ptr %9, align 8
  call void @_ZNSt7__cxx1112basic_stringIcSt11char_traitsIcESaIcEED1Ev(ptr noundef nonnull align 8 dereferenceable(32) %result) #22
  br label %cleanup19

cleanup19:                                        ; preds = %cleanup, %if.then
  %10 = load ptr, ptr %error_field, align 8
  %cmp.not.i = icmp eq ptr %10, null
  br i1 %cmp.not.i, label %_ZN9grpc_core16ValidationErrors11ScopedFieldD2Ev.exit, label %if.then.i

if.then.i:                                        ; preds = %cleanup19
  invoke void @_ZN9grpc_core16ValidationErrors8PopFieldEv(ptr noundef nonnull align 8 dereferenceable(72) %10)
          to label %_ZN9grpc_core16ValidationErrors11ScopedFieldD2Ev.exit unwind label %terminate.lpad.i

terminate.lpad.i:                                 ; preds = %if.then.i
  %11 = landingpad { ptr, i32 }
          catch ptr null
  %12 = extractvalue { ptr, i32 } %11, 0
  call void @__clang_call_terminate(ptr %12) #23
  unreachable

_ZN9grpc_core16ValidationErrors11ScopedFieldD2Ev.exit: ; preds = %cleanup19, %if.then.i
  ret void

ehcleanup:                                        ; preds = %lpad10, %lpad5
  %.pn = phi { ptr, i32 } [ %8, %lpad10 ], [ %4, %lpad5 ]
  call void @_ZN9grpc_core16ValidationErrors11ScopedFieldD2Ev(ptr noundef nonnull align 8 dereferenceable(8) %error_field) #22
  br label %eh.resume

eh.resume:                                        ; preds = %ehcleanup, %lpad
  %.pn.pn = phi { ptr, i32 } [ %.pn, %ehcleanup ], [ %3, %lpad ]
  resume { ptr, i32 } %.pn.pn
}

declare void @_ZN9grpc_core13StringMatcher6CreateENS0_4TypeESt17basic_string_viewIcSt11char_traitsIcEEb(ptr sret(%"class.absl::lts_20230802::StatusOr") align 8, i32 noundef, i64, ptr, i1 noundef zeroext) local_unnamed_addr #0

; Function Attrs: mustprogress nounwind uwtable
define linkonce_odr void @_ZN4absl12lts_202308028StatusOrIN9grpc_core13StringMatcherEED2Ev(ptr noundef nonnull align 8 dereferenceable(64) %this) unnamed_addr #5 comdat align 2 personality ptr @__gxx_personality_v0 {
entry:
  %0 = load i64, ptr %this, align 8
  %cmp.i.i.i = icmp eq i64 %0, 0
  br i1 %cmp.i.i.i, label %_ZN4absl12lts_202308026StatusD2Ev.exit.i, label %if.else.i

_ZN4absl12lts_202308026StatusD2Ev.exit.i:         ; preds = %entry
  %regex_matcher_.i.i = getelementptr inbounds i8, ptr %this, i64 48
  %1 = load ptr, ptr %regex_matcher_.i.i, align 8
  %cmp.not.i.i.i = icmp eq ptr %1, null
  br i1 %cmp.not.i.i.i, label %_ZN9grpc_core13StringMatcherD2Ev.exit.i, label %_ZNKSt14default_deleteIN3re23RE2EEclEPS1_.exit.i.i.i

_ZNKSt14default_deleteIN3re23RE2EEclEPS1_.exit.i.i.i: ; preds = %_ZN4absl12lts_202308026StatusD2Ev.exit.i
  tail call void @_ZN3re23RE2D1Ev(ptr noundef nonnull align 8 dereferenceable(212) %1) #22
  tail call void @_ZdlPv(ptr noundef nonnull %1) #24
  br label %_ZN9grpc_core13StringMatcherD2Ev.exit.i

_ZN9grpc_core13StringMatcherD2Ev.exit.i:          ; preds = %_ZNKSt14default_deleteIN3re23RE2EEclEPS1_.exit.i.i.i, %_ZN4absl12lts_202308026StatusD2Ev.exit.i
  store ptr null, ptr %regex_matcher_.i.i, align 8
  %string_matcher_.i.i = getelementptr inbounds i8, ptr %this, i64 16
  tail call void @_ZNSt7__cxx1112basic_stringIcSt11char_traitsIcESaIcEED1Ev(ptr noundef nonnull align 8 dereferenceable(32) %string_matcher_.i.i) #22
  br label %_ZN4absl12lts_2023080217internal_statusor12StatusOrDataIN9grpc_core13StringMatcherEED2Ev.exit

if.else.i:                                        ; preds = %entry
  %and.i.i.i1.i = and i64 %0, 1
  %cmp.i.i.i2.i = icmp eq i64 %and.i.i.i1.i, 0
  br i1 %cmp.i.i.i2.i, label %_ZN4absl12lts_2023080217internal_statusor12StatusOrDataIN9grpc_core13StringMatcherEED2Ev.exit, label %if.then.i.i3.i

if.then.i.i3.i:                                   ; preds = %if.else.i
  invoke void @_ZN4absl12lts_202308026Status15UnrefNonInlinedEm(i64 noundef %0)
          to label %_ZN4absl12lts_2023080217internal_statusor12StatusOrDataIN9grpc_core13StringMatcherEED2Ev.exit unwind label %terminate.lpad.i4.i

terminate.lpad.i4.i:                              ; preds = %if.then.i.i3.i
  %2 = landingpad { ptr, i32 }
          catch ptr null
  %3 = extractvalue { ptr, i32 } %2, 0
  tail call void @__clang_call_terminate(ptr %3) #23
  unreachable

_ZN4absl12lts_2023080217internal_statusor12StatusOrDataIN9grpc_core13StringMatcherEED2Ev.exit: ; preds = %_ZN9grpc_core13StringMatcherD2Ev.exit.i, %if.else.i, %if.then.i.i3.i
  ret void
}

declare void @_ZN4absl12lts_202308026StrCatB5cxx11ERKNS0_8AlphaNumES3_(ptr sret(%"class.std::__cxx11::basic_string") align 8, ptr noundef nonnull align 8 dereferenceable(48), ptr noundef nonnull align 8 dereferenceable(48)) local_unnamed_addr #0

declare noundef ptr @_ZN9grpc_core11json_detail18GetJsonObjectFieldERKSt3mapINSt7__cxx1112basic_stringIcSt11char_traitsIcESaIcEEENS_12experimental4JsonESt4lessIS7_ESaISt4pairIKS7_S9_EEESt17basic_string_viewIcS5_EPNS_16ValidationErrorsEb(ptr noundef nonnull align 8 dereferenceable(48), i64, ptr, ptr noundef, i1 noundef zeroext) local_unnamed_addr #0

; Function Attrs: mustprogress nounwind uwtable
define linkonce_odr void @_ZN9grpc_core16ValidationErrors11ScopedFieldD2Ev(ptr noundef nonnull align 8 dereferenceable(8) %this) unnamed_addr #5 comdat align 2 personality ptr @__gxx_personality_v0 {
entry:
  %0 = load ptr, ptr %this, align 8
  %cmp.not = icmp eq ptr %0, null
  br i1 %cmp.not, label %if.end, label %if.then

if.then:                                          ; preds = %entry
  invoke void @_ZN9grpc_core16ValidationErrors8PopFieldEv(ptr noundef nonnull align 8 dereferenceable(72) %0)
          to label %if.end unwind label %terminate.lpad

if.end:                                           ; preds = %if.then, %entry
  ret void

terminate.lpad:                                   ; preds = %if.then
  %1 = landingpad { ptr, i32 }
          catch ptr null
  %2 = extractvalue { ptr, i32 } %1, 0
  tail call void @__clang_call_terminate(ptr %2) #23
  unreachable
}

declare void @_ZN9grpc_core16ValidationErrors9PushFieldESt17basic_string_viewIcSt11char_traitsIcEE(ptr noundef nonnull align 8 dereferenceable(72), i64, ptr) local_unnamed_addr #0

declare void @_ZN9grpc_core16ValidationErrors8PopFieldEv(ptr noundef nonnull align 8 dereferenceable(72)) local_unnamed_addr #0

declare ptr @__cxa_allocate_exception(i64) local_unnamed_addr

; Function Attrs: mustprogress nounwind uwtable
define linkonce_odr void @_ZNSt18bad_variant_accessD2Ev(ptr noundef nonnull align 8 dereferenceable(16) %this) unnamed_addr #5 comdat align 2 {
entry:
  tail call void @_ZNSt9exceptionD2Ev(ptr noundef nonnull align 8 dereferenceable(8) %this) #22
  ret void
}

declare void @__cxa_throw(ptr, ptr, ptr) local_unnamed_addr

; Function Attrs: mustprogress nounwind uwtable
define linkonce_odr void @_ZNSt18bad_variant_accessD0Ev(ptr noundef nonnull align 8 dereferenceable(16) %this) unnamed_addr #5 comdat align 2 {
entry:
  tail call void @_ZNSt9exceptionD2Ev(ptr noundef nonnull align 8 dereferenceable(8) %this) #22
  tail call void @_ZdlPv(ptr noundef nonnull %this) #24
  ret void
}

; Function Attrs: mustprogress nounwind uwtable
define linkonce_odr noundef ptr @_ZNKSt18bad_variant_access4whatEv(ptr noundef nonnull align 8 dereferenceable(16) %this) unnamed_addr #5 comdat align 2 {
entry:
  %_M_reason = getelementptr inbounds i8, ptr %this, i64 8
  %0 = load ptr, ptr %_M_reason, align 8
  ret ptr %0
}

; Function Attrs: nounwind
declare void @_ZNSt9exceptionD2Ev(ptr noundef nonnull align 8 dereferenceable(8)) unnamed_addr #1

; Function Attrs: mustprogress uwtable
define linkonce_odr void @_ZN9grpc_core19LoadJsonObjectFieldINSt7__cxx1112basic_stringIcSt11char_traitsIcESaIcEEEEESt8optionalIT_ERKSt3mapIS6_NS_12experimental4JsonESt4lessIS6_ESaISt4pairIKS6_SC_EEERKNS_8JsonArgsESt17basic_string_viewIcS4_EPNS_16ValidationErrorsEb(ptr noalias sret(%"class.std::optional.288") align 8 %agg.result, ptr noundef nonnull align 8 dereferenceable(48) %json, ptr noundef nonnull align 8 dereferenceable(8) %args, i64 %field.coerce0, ptr %field.coerce1, ptr noundef %errors, i1 noundef zeroext %required) local_unnamed_addr #3 comdat personality ptr @__gxx_personality_v0 {
entry:
  %error_field = alloca %"class.grpc_core::ValidationErrors::ScopedField", align 8
  %ref.tmp = alloca %"class.std::__cxx11::basic_string", align 8
  %ref.tmp1 = alloca %"class.absl::lts_20230802::AlphaNum", align 8
  %ref.tmp2 = alloca %"class.absl::lts_20230802::AlphaNum", align 8
  %result = alloca %"class.std::__cxx11::basic_string", align 8
  store i64 1, ptr %ref.tmp1, align 8
  %0 = getelementptr inbounds i8, ptr %ref.tmp1, i64 8
  store ptr @.str.49, ptr %0, align 8
  store i64 %field.coerce0, ptr %ref.tmp2, align 8
  %pc.sroa.2.0.piece_.sroa_idx.i = getelementptr inbounds i8, ptr %ref.tmp2, i64 8
  store ptr %field.coerce1, ptr %pc.sroa.2.0.piece_.sroa_idx.i, align 8
  call void @_ZN4absl12lts_202308026StrCatB5cxx11ERKNS0_8AlphaNumES3_(ptr nonnull sret(%"class.std::__cxx11::basic_string") align 8 %ref.tmp, ptr noundef nonnull align 8 dereferenceable(48) %ref.tmp1, ptr noundef nonnull align 8 dereferenceable(48) %ref.tmp2)
  %call = call { i64, ptr } @_ZNKSt7__cxx1112basic_stringIcSt11char_traitsIcESaIcEEcvSt17basic_string_viewIcS2_EEv(ptr noundef nonnull align 8 dereferenceable(32) %ref.tmp) #22
  %1 = extractvalue { i64, ptr } %call, 0
  %2 = extractvalue { i64, ptr } %call, 1
  store ptr %errors, ptr %error_field, align 8
  invoke void @_ZN9grpc_core16ValidationErrors9PushFieldESt17basic_string_viewIcSt11char_traitsIcEE(ptr noundef nonnull align 8 dereferenceable(72) %errors, i64 %1, ptr %2)
          to label %invoke.cont unwind label %lpad

invoke.cont:                                      ; preds = %entry
  call void @_ZNSt7__cxx1112basic_stringIcSt11char_traitsIcESaIcEED1Ev(ptr noundef nonnull align 8 dereferenceable(32) %ref.tmp) #22
  %call7 = invoke noundef ptr @_ZN9grpc_core11json_detail18GetJsonObjectFieldERKSt3mapINSt7__cxx1112basic_stringIcSt11char_traitsIcESaIcEEENS_12experimental4JsonESt4lessIS7_ESaISt4pairIKS7_S9_EEESt17basic_string_viewIcS5_EPNS_16ValidationErrorsEb(ptr noundef nonnull align 8 dereferenceable(48) %json, i64 %field.coerce0, ptr %field.coerce1, ptr noundef nonnull %errors, i1 noundef zeroext %required)
          to label %invoke.cont6 unwind label %lpad5

invoke.cont6:                                     ; preds = %invoke.cont
  %cmp = icmp eq ptr %call7, null
  br i1 %cmp, label %if.then, label %invoke.cont11

if.then:                                          ; preds = %invoke.cont6
  %_M_engaged.i.i.i.i.i = getelementptr inbounds i8, ptr %agg.result, i64 32
  store i8 0, ptr %_M_engaged.i.i.i.i.i, align 8
  br label %cleanup19

lpad:                                             ; preds = %entry
  %3 = landingpad { ptr, i32 }
          cleanup
  call void @_ZNSt7__cxx1112basic_stringIcSt11char_traitsIcESaIcEED1Ev(ptr noundef nonnull align 8 dereferenceable(32) %ref.tmp) #22
  br label %eh.resume

lpad5:                                            ; preds = %invoke.cont
  %4 = landingpad { ptr, i32 }
          cleanup
  br label %ehcleanup

invoke.cont11:                                    ; preds = %invoke.cont6
  call void @_ZNSt7__cxx1112basic_stringIcSt11char_traitsIcESaIcEEC1Ev(ptr noundef nonnull align 8 dereferenceable(32) %result) #22
  %_M_node_count.i.i.i = getelementptr inbounds i8, ptr %errors, i64 40
  %5 = load i64, ptr %_M_node_count.i.i.i, align 8
  %vtable = load ptr, ptr @_ZN9grpc_core19NoDestructSingletonINS_11json_detail10AutoLoaderINSt7__cxx1112basic_stringIcSt11char_traitsIcESaIcEEEEEE6value_E, align 8
  %6 = load ptr, ptr %vtable, align 8
  invoke void %6(ptr noundef nonnull align 8 dereferenceable(8) @_ZN9grpc_core19NoDestructSingletonINS_11json_detail10AutoLoaderINSt7__cxx1112basic_stringIcSt11char_traitsIcESaIcEEEEEE6value_E, ptr noundef nonnull align 8 dereferenceable(56) %call7, ptr noundef nonnull align 8 dereferenceable(8) %args, ptr noundef nonnull %result, ptr noundef nonnull %errors)
          to label %invoke.cont13 unwind label %lpad10

invoke.cont13:                                    ; preds = %invoke.cont11
  %7 = load i64, ptr %_M_node_count.i.i.i, align 8
  %cmp15 = icmp ugt i64 %7, %5
  br i1 %cmp15, label %cleanup, label %if.end18

lpad10:                                           ; preds = %invoke.cont11
  %8 = landingpad { ptr, i32 }
          cleanup
  call void @_ZNSt7__cxx1112basic_stringIcSt11char_traitsIcESaIcEED1Ev(ptr noundef nonnull align 8 dereferenceable(32) %result) #22
  br label %ehcleanup

if.end18:                                         ; preds = %invoke.cont13
  call void @_ZNSt7__cxx1112basic_stringIcSt11char_traitsIcESaIcEEC1EOS4_(ptr noundef nonnull align 8 dereferenceable(32) %agg.result, ptr noundef nonnull align 8 dereferenceable(32) %result) #22
  br label %cleanup

cleanup:                                          ; preds = %invoke.cont13, %if.end18
  %.sink = phi i8 [ 1, %if.end18 ], [ 0, %invoke.cont13 ]
  %9 = getelementptr inbounds i8, ptr %agg.result, i64 32
  store i8 %.sink, ptr %9, align 8
  call void @_ZNSt7__cxx1112basic_stringIcSt11char_traitsIcESaIcEED1Ev(ptr noundef nonnull align 8 dereferenceable(32) %result) #22
  br label %cleanup19

cleanup19:                                        ; preds = %cleanup, %if.then
  %10 = load ptr, ptr %error_field, align 8
  %cmp.not.i = icmp eq ptr %10, null
  br i1 %cmp.not.i, label %_ZN9grpc_core16ValidationErrors11ScopedFieldD2Ev.exit, label %if.then.i

if.then.i:                                        ; preds = %cleanup19
  invoke void @_ZN9grpc_core16ValidationErrors8PopFieldEv(ptr noundef nonnull align 8 dereferenceable(72) %10)
          to label %_ZN9grpc_core16ValidationErrors11ScopedFieldD2Ev.exit unwind label %terminate.lpad.i

terminate.lpad.i:                                 ; preds = %if.then.i
  %11 = landingpad { ptr, i32 }
          catch ptr null
  %12 = extractvalue { ptr, i32 } %11, 0
  call void @__clang_call_terminate(ptr %12) #23
  unreachable

_ZN9grpc_core16ValidationErrors11ScopedFieldD2Ev.exit: ; preds = %cleanup19, %if.then.i
  ret void

ehcleanup:                                        ; preds = %lpad10, %lpad5
  %.pn = phi { ptr, i32 } [ %8, %lpad10 ], [ %4, %lpad5 ]
  call void @_ZN9grpc_core16ValidationErrors11ScopedFieldD2Ev(ptr noundef nonnull align 8 dereferenceable(8) %error_field) #22
  br label %eh.resume

eh.resume:                                        ; preds = %ehcleanup, %lpad
  %.pn.pn = phi { ptr, i32 } [ %.pn, %ehcleanup ], [ %3, %lpad ]
  resume { ptr, i32 } %.pn.pn
}

; Function Attrs: nounwind
declare void @_ZNSt7__cxx1112basic_stringIcSt11char_traitsIcESaIcEEC1EOS4_(ptr noundef nonnull align 8 dereferenceable(32), ptr noundef nonnull align 8 dereferenceable(32)) unnamed_addr #1

declare noundef nonnull align 8 dereferenceable(49) ptr @_ZN9grpc_core13StringMatcheraSERKS0_(ptr noundef nonnull align 8 dereferenceable(49), ptr noundef nonnull align 8 dereferenceable(49)) local_unnamed_addr #0

declare void @_ZN4absl12lts_202308026Status15UnrefNonInlinedEm(i64 noundef) local_unnamed_addr #0

; Function Attrs: mustprogress uwtable
define internal void @_ZNK9grpc_core11json_detail10AutoLoaderINS_12_GLOBAL__N_110RbacConfig10RbacPolicy5Rules6Policy10PermissionEE8LoadIntoERKNS_12experimental4JsonERKNS_8JsonArgsEPvPNS_16ValidationErrorsE(ptr nocapture nonnull readnone align 8 %this, ptr noundef nonnull align 8 dereferenceable(56) %json, ptr noundef nonnull align 8 dereferenceable(8) %args, ptr noundef %dst, ptr noundef %errors) unnamed_addr #3 align 2 personality ptr @__gxx_personality_v0 {
entry:
  %0 = load atomic i8, ptr @_ZGVZN9grpc_core12_GLOBAL__N_110RbacConfig10RbacPolicy5Rules6Policy10Permission10JsonLoaderERKNS_8JsonArgsEE6loader acquire, align 8
  %guard.uninitialized.i = icmp eq i8 %0, 0
  br i1 %guard.uninitialized.i, label %init.check.i, label %_ZN9grpc_core12_GLOBAL__N_110RbacConfig10RbacPolicy5Rules6Policy10Permission10JsonLoaderERKNS_8JsonArgsE.exit, !prof !82

init.check.i:                                     ; preds = %entry
  %1 = tail call i32 @__cxa_guard_acquire(ptr nonnull @_ZGVZN9grpc_core12_GLOBAL__N_110RbacConfig10RbacPolicy5Rules6Policy10Permission10JsonLoaderERKNS_8JsonArgsEE6loader) #22
  %tobool.not.i = icmp eq i32 %1, 0
  br i1 %tobool.not.i, label %_ZN9grpc_core12_GLOBAL__N_110RbacConfig10RbacPolicy5Rules6Policy10Permission10JsonLoaderERKNS_8JsonArgsE.exit, label %init.i

init.i:                                           ; preds = %init.check.i
  %call.i1.i = invoke noalias noundef nonnull dereferenceable(8) ptr @_Znwm(i64 noundef 8) #21
          to label %invoke.cont1.i unwind label %lpad.i

invoke.cont1.i:                                   ; preds = %init.i
  store ptr getelementptr inbounds ({ [3 x ptr] }, ptr @_ZTVN9grpc_core11json_detail24FinishedJsonObjectLoaderINS_12_GLOBAL__N_110RbacConfig10RbacPolicy5Rules6Policy10PermissionELm0EvEE, i64 0, inrange i32 0, i64 2), ptr %call.i1.i, align 8
  store ptr %call.i1.i, ptr @_ZZN9grpc_core12_GLOBAL__N_110RbacConfig10RbacPolicy5Rules6Policy10Permission10JsonLoaderERKNS_8JsonArgsEE6loader, align 8
  tail call void @__cxa_guard_release(ptr nonnull @_ZGVZN9grpc_core12_GLOBAL__N_110RbacConfig10RbacPolicy5Rules6Policy10Permission10JsonLoaderERKNS_8JsonArgsEE6loader) #22
  br label %_ZN9grpc_core12_GLOBAL__N_110RbacConfig10RbacPolicy5Rules6Policy10Permission10JsonLoaderERKNS_8JsonArgsE.exit

lpad.i:                                           ; preds = %init.i
  %2 = landingpad { ptr, i32 }
          cleanup
  tail call void @__cxa_guard_abort(ptr nonnull @_ZGVZN9grpc_core12_GLOBAL__N_110RbacConfig10RbacPolicy5Rules6Policy10Permission10JsonLoaderERKNS_8JsonArgsEE6loader) #22
  resume { ptr, i32 } %2

_ZN9grpc_core12_GLOBAL__N_110RbacConfig10RbacPolicy5Rules6Policy10Permission10JsonLoaderERKNS_8JsonArgsE.exit: ; preds = %entry, %init.check.i, %invoke.cont1.i
  %3 = load ptr, ptr @_ZZN9grpc_core12_GLOBAL__N_110RbacConfig10RbacPolicy5Rules6Policy10Permission10JsonLoaderERKNS_8JsonArgsEE6loader, align 8
  %vtable = load ptr, ptr %3, align 8
  %4 = load ptr, ptr %vtable, align 8
  tail call void %4(ptr noundef nonnull align 8 dereferenceable(8) %3, ptr noundef nonnull align 8 dereferenceable(56) %json, ptr noundef nonnull align 8 dereferenceable(8) %args, ptr noundef %dst, ptr noundef %errors)
  ret void
}

; Function Attrs: mustprogress uwtable
define internal void @_ZNK9grpc_core11json_detail24FinishedJsonObjectLoaderINS_12_GLOBAL__N_110RbacConfig10RbacPolicy5Rules6Policy10PermissionELm0EvE8LoadIntoERKNS_12experimental4JsonERKNS_8JsonArgsEPvPNS_16ValidationErrorsE(ptr nocapture nonnull readnone align 8 %this, ptr noundef nonnull align 8 dereferenceable(56) %json, ptr noundef nonnull align 8 dereferenceable(8) %args, ptr noundef %dst, ptr noundef %errors) unnamed_addr #3 align 2 personality ptr @__gxx_personality_v0 {
entry:
  %ref.tmp7.i = alloca %"struct.grpc_core::Rbac::Permission", align 8
  %header.i = alloca %"class.std::optional.311", align 8
  %ref.tmp14.i = alloca %"struct.grpc_core::Rbac::Permission", align 8
  %agg.tmp15.i = alloca %"class.grpc_core::HeaderMatcher", align 8
  %url_path.i = alloca %"class.std::optional.321", align 8
  %ref.tmp32.i = alloca %"struct.grpc_core::Rbac::Permission", align 8
  %agg.tmp33.i = alloca %"class.grpc_core::StringMatcher", align 8
  %destination_ip.i = alloca %"class.std::optional.331", align 8
  %ref.tmp54.i = alloca %"struct.grpc_core::Rbac::Permission", align 8
  %agg.tmp55.i = alloca %"struct.grpc_core::Rbac::CidrRange", align 8
  %ref.tmp77.i = alloca %"struct.grpc_core::Rbac::Permission", align 8
  %ref.tmp96.i = alloca %"class.std::unique_ptr.200", align 8
  %ref.tmp97.i = alloca %"struct.grpc_core::Rbac::Permission", align 8
  %requested_server_name.i = alloca %"class.std::optional.355", align 8
  %ref.tmp112.i = alloca %"class.std::unique_ptr.200", align 8
  %ref.tmp113.i = alloca %"struct.grpc_core::Rbac::Permission", align 8
  %agg.tmp114.i = alloca %"class.grpc_core::StringMatcher", align 8
  %rules.i = alloca %"class.std::optional.365", align 16
  %ref.tmp133.i = alloca %"class.std::unique_ptr.200", align 8
  %ref.tmp134.i = alloca %"struct.grpc_core::Rbac::Permission", align 8
  %agg.tmp135.i = alloca %"class.std::vector.168", align 8
  %agg.tmp136.i = alloca %"class.std::vector.212", align 16
  %ref.tmp151.i = alloca %"class.std::optional.365", align 8
  %ref.tmp160.i = alloca %"class.std::unique_ptr.200", align 8
  %ref.tmp161.i = alloca %"struct.grpc_core::Rbac::Permission", align 8
  %agg.tmp162.i = alloca %"class.std::vector.168", align 8
  %agg.tmp163.i = alloca %"class.std::vector.212", align 16
  %not_rule.i = alloca %"class.std::optional.375", align 8
  %ref.tmp184.i = alloca %"class.std::unique_ptr.200", align 8
  %ref.tmp185.i = alloca %"struct.grpc_core::Rbac::Permission", align 8
  %agg.tmp186.i = alloca %"struct.grpc_core::Rbac::Permission", align 8
  %call3 = tail call noundef zeroext i1 @_ZN9grpc_core11json_detail10LoadObjectERKNS_12experimental4JsonERKNS_8JsonArgsEPKNS0_7ElementEmPvPNS_16ValidationErrorsE(ptr noundef nonnull align 8 dereferenceable(56) %json, ptr noundef nonnull align 8 dereferenceable(8) %args, ptr noundef null, i64 noundef 0, ptr noundef %dst, ptr noundef %errors)
  br i1 %call3, label %if.then, label %if.end

if.then:                                          ; preds = %entry
  call void @llvm.lifetime.start.p0(i64 264, ptr nonnull %ref.tmp7.i)
  call void @llvm.lifetime.start.p0(i64 128, ptr nonnull %header.i)
  call void @llvm.lifetime.start.p0(i64 264, ptr nonnull %ref.tmp14.i)
  call void @llvm.lifetime.start.p0(i64 120, ptr nonnull %agg.tmp15.i)
  call void @llvm.lifetime.start.p0(i64 64, ptr nonnull %url_path.i)
  call void @llvm.lifetime.start.p0(i64 264, ptr nonnull %ref.tmp32.i)
  call void @llvm.lifetime.start.p0(i64 56, ptr nonnull %agg.tmp33.i)
