; ModuleID = 'bench/grpc/original/xds_client.cc.ll'
source_filename = "bench/grpc/original/xds_client.cc.ll"
target datalayout = "e-m:e-p270:32:32-p271:32:32-p272:64:64-i64:64-i128:128-f80:128-n8:16:32:64-S128"
target triple = "x86_64-unknown-linux-gnu"

%"class.std::ios_base::Init" = type { i8 }
%"class.grpc_core::TraceFlag" = type <{ ptr, ptr, %"struct.std::atomic", [7 x i8] }>
%"struct.std::atomic" = type { %"struct.std::__atomic_base" }
%"struct.std::__atomic_base" = type { i8 }
%"struct.std::piecewise_construct_t" = type { i8 }
%"class.absl::lts_20230802::Status" = type { i64 }
%"class.std::unique_ptr" = type { %"struct.std::__uniq_ptr_data" }
%"struct.std::__uniq_ptr_data" = type { %"class.std::__uniq_ptr_impl" }
%"class.std::__uniq_ptr_impl" = type { %"class.std::tuple" }
%"class.std::tuple" = type { %"struct.std::_Tuple_impl" }
%"struct.std::_Tuple_impl" = type { %"struct.std::_Head_base.3" }
%"struct.std::_Head_base.3" = type { ptr }
%"class.std::function" = type { %"class.std::_Function_base", ptr }
%"class.std::_Function_base" = type { %"union.std::_Any_data", ptr }
%"union.std::_Any_data" = type { %"union.std::_Nocopy_types" }
%"union.std::_Nocopy_types" = type { { i64, i64 } }
%"class.grpc_core::DualRefCounted" = type { %"class.grpc_core::Orphanable", %"struct.std::atomic.0" }
%"class.grpc_core::Orphanable" = type { ptr }
%"struct.std::atomic.0" = type { %"struct.std::__atomic_base.1" }
%"struct.std::__atomic_base.1" = type { i64 }
%"class.grpc_core::XdsClient::ChannelState" = type { %"class.grpc_core::DualRefCounted", %"class.grpc_core::WeakRefCountedPtr", ptr, %"class.std::unique_ptr", i8, %"class.std::unique_ptr.4", %"class.std::unique_ptr.10", %"class.std::map", %"class.absl::lts_20230802::Status" }
%"class.grpc_core::WeakRefCountedPtr" = type { ptr }
%"class.std::unique_ptr.4" = type { %"struct.std::__uniq_ptr_data.5" }
%"struct.std::__uniq_ptr_data.5" = type { %"class.std::__uniq_ptr_impl.6" }
%"class.std::__uniq_ptr_impl.6" = type { %"class.std::tuple.7" }
%"class.std::tuple.7" = type { %"struct.std::_Tuple_impl.8" }
%"struct.std::_Tuple_impl.8" = type { %"struct.std::_Head_base.9" }
%"struct.std::_Head_base.9" = type { ptr }
%"class.std::unique_ptr.10" = type { %"struct.std::__uniq_ptr_data.11" }
%"struct.std::__uniq_ptr_data.11" = type { %"class.std::__uniq_ptr_impl.12" }
%"class.std::__uniq_ptr_impl.12" = type { %"class.std::tuple.13" }
%"class.std::tuple.13" = type { %"struct.std::_Tuple_impl.14" }
%"struct.std::_Tuple_impl.14" = type { %"struct.std::_Head_base.15" }
%"struct.std::_Head_base.15" = type { ptr }
%"class.std::map" = type { %"class.std::_Rb_tree" }
%"class.std::_Rb_tree" = type { %"struct.std::_Rb_tree<const grpc_core::XdsResourceType *, std::pair<const grpc_core::XdsResourceType *const, std::__cxx11::basic_string<char>>, std::_Select1st<std::pair<const grpc_core::XdsResourceType *const, std::__cxx11::basic_string<char>>>, std::less<const grpc_core::XdsResourceType *>>::_Rb_tree_impl" }
%"struct.std::_Rb_tree<const grpc_core::XdsResourceType *, std::pair<const grpc_core::XdsResourceType *const, std::__cxx11::basic_string<char>>, std::_Select1st<std::pair<const grpc_core::XdsResourceType *const, std::__cxx11::basic_string<char>>>, std::less<const grpc_core::XdsResourceType *>>::_Rb_tree_impl" = type { %"struct.std::_Rb_tree_key_compare", %"struct.std::_Rb_tree_header" }
%"struct.std::_Rb_tree_key_compare" = type { %"struct.std::less" }
%"struct.std::less" = type { i8 }
%"struct.std::_Rb_tree_header" = type { %"struct.std::_Rb_tree_node_base", i64 }
%"struct.std::_Rb_tree_node_base" = type { i32, ptr, ptr, ptr }
%"class.grpc_core::XdsClient" = type <{ %"class.grpc_core::DualRefCounted.21", %"class.std::unique_ptr.22", %"class.std::unique_ptr.30", %"class.grpc_core::Duration", i8, [7 x i8], %"class.grpc_core::XdsApi", %"class.grpc_core::WorkSerializer", %"class.std::shared_ptr", %"class.absl::lts_20230802::Mutex", %"class.std::map.42", %"class.upb::DefPool", %"class.std::map.58", %"class.std::map.66", %"class.std::map.74", %"class.std::map.79", i8, [7 x i8] }>
%"class.grpc_core::DualRefCounted.21" = type { %"class.grpc_core::Orphanable", %"struct.std::atomic.0" }
%"class.std::unique_ptr.22" = type { %"struct.std::__uniq_ptr_data.23" }
%"struct.std::__uniq_ptr_data.23" = type { %"class.std::__uniq_ptr_impl.24" }
%"class.std::__uniq_ptr_impl.24" = type { %"class.std::tuple.25" }
%"class.std::tuple.25" = type { %"struct.std::_Tuple_impl.26" }
%"struct.std::_Tuple_impl.26" = type { %"struct.std::_Head_base.29" }
%"struct.std::_Head_base.29" = type { ptr }
%"class.std::unique_ptr.30" = type { %"struct.std::__uniq_ptr_data.31" }
%"struct.std::__uniq_ptr_data.31" = type { %"class.std::__uniq_ptr_impl.32" }
%"class.std::__uniq_ptr_impl.32" = type { %"class.std::tuple.33" }
%"class.std::tuple.33" = type { %"struct.std::_Tuple_impl.34" }
%"struct.std::_Tuple_impl.34" = type { %"struct.std::_Head_base.35" }
%"struct.std::_Head_base.35" = type { ptr }
%"class.grpc_core::Duration" = type { i64 }
%"class.grpc_core::XdsApi" = type { ptr, ptr, ptr, ptr, %"class.std::__cxx11::basic_string", %"class.std::__cxx11::basic_string" }
%"class.std::__cxx11::basic_string" = type { %"struct.std::__cxx11::basic_string<char>::_Alloc_hider", i64, %union.anon }
%"struct.std::__cxx11::basic_string<char>::_Alloc_hider" = type { ptr }
%union.anon = type { i64, [8 x i8] }
%"class.grpc_core::WorkSerializer" = type { %"class.std::unique_ptr.36" }
%"class.std::unique_ptr.36" = type { %"struct.std::__uniq_ptr_data.37" }
%"struct.std::__uniq_ptr_data.37" = type { %"class.std::__uniq_ptr_impl.38" }
%"class.std::__uniq_ptr_impl.38" = type { %"class.std::tuple.39" }
%"class.std::tuple.39" = type { %"struct.std::_Tuple_impl.40" }
%"struct.std::_Tuple_impl.40" = type { %"struct.std::_Head_base.41" }
%"struct.std::_Head_base.41" = type { ptr }
%"class.std::shared_ptr" = type { %"class.std::__shared_ptr" }
%"class.std::__shared_ptr" = type { ptr, %"class.std::__shared_count" }
%"class.std::__shared_count" = type { ptr }
%"class.absl::lts_20230802::Mutex" = type { %"struct.std::atomic.19" }
%"struct.std::atomic.19" = type { %"struct.std::__atomic_base.20" }
%"struct.std::__atomic_base.20" = type { i64 }
%"class.std::map.42" = type { %"class.std::_Rb_tree.43" }
%"class.std::_Rb_tree.43" = type { %"struct.std::_Rb_tree<std::basic_string_view<char>, std::pair<const std::basic_string_view<char>, const grpc_core::XdsResourceType *>, std::_Select1st<std::pair<const std::basic_string_view<char>, const grpc_core::XdsResourceType *>>, std::less<std::basic_string_view<char>>>::_Rb_tree_impl" }
%"struct.std::_Rb_tree<std::basic_string_view<char>, std::pair<const std::basic_string_view<char>, const grpc_core::XdsResourceType *>, std::_Select1st<std::pair<const std::basic_string_view<char>, const grpc_core::XdsResourceType *>>, std::less<std::basic_string_view<char>>>::_Rb_tree_impl" = type { %"struct.std::_Rb_tree_key_compare.47", %"struct.std::_Rb_tree_header" }
%"struct.std::_Rb_tree_key_compare.47" = type { %"struct.std::less.48" }
%"struct.std::less.48" = type { i8 }
%"class.upb::DefPool" = type { %"class.std::unique_ptr.50" }
%"class.std::unique_ptr.50" = type { %"struct.std::__uniq_ptr_data.51" }
%"struct.std::__uniq_ptr_data.51" = type { %"class.std::__uniq_ptr_impl.52" }
%"class.std::__uniq_ptr_impl.52" = type { %"class.std::tuple.53" }
%"class.std::tuple.53" = type { %"struct.std::_Tuple_impl.54" }
%"struct.std::_Tuple_impl.54" = type { %"struct.std::_Tuple_impl.55", %"struct.std::_Head_base.57" }
%"struct.std::_Tuple_impl.55" = type { %"struct.std::_Head_base.56" }
%"struct.std::_Head_base.56" = type { ptr }
%"struct.std::_Head_base.57" = type { ptr }
%"class.std::map.58" = type { %"class.std::_Rb_tree.59" }
%"class.std::_Rb_tree.59" = type { %"struct.std::_Rb_tree<const grpc_core::XdsBootstrap::XdsServer *, std::pair<const grpc_core::XdsBootstrap::XdsServer *const, grpc_core::XdsClient::ChannelState *>, std::_Select1st<std::pair<const grpc_core::XdsBootstrap::XdsServer *const, grpc_core::XdsClient::ChannelState *>>, std::less<const grpc_core::XdsBootstrap::XdsServer *>>::_Rb_tree_impl" }
%"struct.std::_Rb_tree<const grpc_core::XdsBootstrap::XdsServer *, std::pair<const grpc_core::XdsBootstrap::XdsServer *const, grpc_core::XdsClient::ChannelState *>, std::_Select1st<std::pair<const grpc_core::XdsBootstrap::XdsServer *const, grpc_core::XdsClient::ChannelState *>>, std::less<const grpc_core::XdsBootstrap::XdsServer *>>::_Rb_tree_impl" = type { %"struct.std::_Rb_tree_key_compare.63", %"struct.std::_Rb_tree_header" }
%"struct.std::_Rb_tree_key_compare.63" = type { %"struct.std::less.64" }
%"struct.std::less.64" = type { i8 }
%"class.std::map.66" = type { %"class.std::_Rb_tree.67" }
%"class.std::_Rb_tree.67" = type { %"struct.std::_Rb_tree<std::__cxx11::basic_string<char>, std::pair<const std::__cxx11::basic_string<char>, grpc_core::XdsClient::AuthorityState>, std::_Select1st<std::pair<const std::__cxx11::basic_string<char>, grpc_core::XdsClient::AuthorityState>>, std::less<std::__cxx11::basic_string<char>>>::_Rb_tree_impl" }
%"struct.std::_Rb_tree<std::__cxx11::basic_string<char>, std::pair<const std::__cxx11::basic_string<char>, grpc_core::XdsClient::AuthorityState>, std::_Select1st<std::pair<const std::__cxx11::basic_string<char>, grpc_core::XdsClient::AuthorityState>>, std::less<std::__cxx11::basic_string<char>>>::_Rb_tree_impl" = type { %"struct.std::_Rb_tree_key_compare.71", %"struct.std::_Rb_tree_header" }
%"struct.std::_Rb_tree_key_compare.71" = type { %"struct.std::less.72" }
%"struct.std::less.72" = type { i8 }
%"class.std::map.74" = type { %"class.std::_Rb_tree.75" }
%"class.std::_Rb_tree.75" = type { %"struct.std::_Rb_tree<const grpc_core::XdsBootstrap::XdsServer *, std::pair<const grpc_core::XdsBootstrap::XdsServer *const, grpc_core::XdsClient::LoadReportServer>, std::_Select1st<std::pair<const grpc_core::XdsBootstrap::XdsServer *const, grpc_core::XdsClient::LoadReportServer>>, std::less<const grpc_core::XdsBootstrap::XdsServer *>>::_Rb_tree_impl" }
%"struct.std::_Rb_tree<const grpc_core::XdsBootstrap::XdsServer *, std::pair<const grpc_core::XdsBootstrap::XdsServer *const, grpc_core::XdsClient::LoadReportServer>, std::_Select1st<std::pair<const grpc_core::XdsBootstrap::XdsServer *const, grpc_core::XdsClient::LoadReportServer>>, std::less<const grpc_core::XdsBootstrap::XdsServer *>>::_Rb_tree_impl" = type { %"struct.std::_Rb_tree_key_compare.63", %"struct.std::_Rb_tree_header" }
%"class.std::map.79" = type { %"class.std::_Rb_tree.80" }
%"class.std::_Rb_tree.80" = type { %"struct.std::_Rb_tree<grpc_core::XdsClient::ResourceWatcherInterface *, std::pair<grpc_core::XdsClient::ResourceWatcherInterface *const, grpc_core::RefCountedPtr<grpc_core::XdsClient::ResourceWatcherInterface>>, std::_Select1st<std::pair<grpc_core::XdsClient::ResourceWatcherInterface *const, grpc_core::RefCountedPtr<grpc_core::XdsClient::ResourceWatcherInterface>>>, std::less<grpc_core::XdsClient::ResourceWatcherInterface *>>::_Rb_tree_impl" }
%"struct.std::_Rb_tree<grpc_core::XdsClient::ResourceWatcherInterface *, std::pair<grpc_core::XdsClient::ResourceWatcherInterface *const, grpc_core::RefCountedPtr<grpc_core::XdsClient::ResourceWatcherInterface>>, std::_Select1st<std::pair<grpc_core::XdsClient::ResourceWatcherInterface *const, grpc_core::RefCountedPtr<grpc_core::XdsClient::ResourceWatcherInterface>>>, std::less<grpc_core::XdsClient::ResourceWatcherInterface *>>::_Rb_tree_impl" = type { %"struct.std::_Rb_tree_key_compare.84", %"struct.std::_Rb_tree_header" }
%"struct.std::_Rb_tree_key_compare.84" = type { %"struct.std::less.85" }
%"struct.std::less.85" = type { i8 }
%"class.absl::lts_20230802::AlphaNum" = type { %"class.std::basic_string_view", [32 x i8] }
%"class.std::basic_string_view" = type { i64, ptr }
%"class.std::set.124" = type { %"class.std::_Rb_tree.125" }
%"class.std::_Rb_tree.125" = type { %"struct.std::_Rb_tree<grpc_core::RefCountedPtr<grpc_core::XdsClient::ResourceWatcherInterface>, grpc_core::RefCountedPtr<grpc_core::XdsClient::ResourceWatcherInterface>, std::_Identity<grpc_core::RefCountedPtr<grpc_core::XdsClient::ResourceWatcherInterface>>, std::less<grpc_core::RefCountedPtr<grpc_core::XdsClient::ResourceWatcherInterface>>>::_Rb_tree_impl" }
%"struct.std::_Rb_tree<grpc_core::RefCountedPtr<grpc_core::XdsClient::ResourceWatcherInterface>, grpc_core::RefCountedPtr<grpc_core::XdsClient::ResourceWatcherInterface>, std::_Identity<grpc_core::RefCountedPtr<grpc_core::XdsClient::ResourceWatcherInterface>>, std::less<grpc_core::RefCountedPtr<grpc_core::XdsClient::ResourceWatcherInterface>>>::_Rb_tree_impl" = type { %"struct.std::_Rb_tree_key_compare.129", %"struct.std::_Rb_tree_header" }
%"struct.std::_Rb_tree_key_compare.129" = type { %"struct.std::less.130" }
%"struct.std::less.130" = type { i8 }
%"class.std::function.161" = type { %"class.std::_Function_base", ptr }
%class.anon.163 = type { %"class.std::set.124", %"class.absl::lts_20230802::Status" }
%"class.grpc_core::DebugLocation" = type { i8 }
%"struct.absl::lts_20230802::status_internal::StatusRep" = type { %"struct.std::atomic.396", i32, %"class.std::__cxx11::basic_string", %"class.std::unique_ptr.398" }
%"struct.std::atomic.396" = type { %"struct.std::__atomic_base.397" }
%"struct.std::__atomic_base.397" = type { i32 }
%"class.std::unique_ptr.398" = type { %"struct.std::__uniq_ptr_data.399" }
%"struct.std::__uniq_ptr_data.399" = type { %"class.std::__uniq_ptr_impl.400" }
%"class.std::__uniq_ptr_impl.400" = type { %"class.std::tuple.401" }
%"class.std::tuple.401" = type { %"struct.std::_Tuple_impl.402" }
%"struct.std::_Tuple_impl.402" = type { %"struct.std::_Head_base.405" }
%"struct.std::_Head_base.405" = type { ptr }
%"struct.std::_Rb_tree_node.457" = type { %"struct.std::_Rb_tree_node_base", %"struct.__gnu_cxx::__aligned_membuf.458" }
%"struct.__gnu_cxx::__aligned_membuf.458" = type { [88 x i8] }
%"struct.std::_Rb_tree_node.459" = type { %"struct.std::_Rb_tree_node_base", %"struct.__gnu_cxx::__aligned_membuf.460" }
%"struct.__gnu_cxx::__aligned_membuf.460" = type { [56 x i8] }
%"struct.std::_Rb_tree_node.461" = type { %"struct.std::_Rb_tree_node_base", %"struct.__gnu_cxx::__aligned_membuf.462" }
%"struct.__gnu_cxx::__aligned_membuf.462" = type { [280 x i8] }
%"struct.std::_Rb_tree_node.409" = type { %"struct.std::_Rb_tree_node_base", %"struct.__gnu_cxx::__aligned_membuf.410" }
%"struct.__gnu_cxx::__aligned_membuf.410" = type { [16 x i8] }
%"struct.std::_Rb_tree_node.406" = type { %"struct.std::_Rb_tree_node_base", %"struct.__gnu_cxx::__aligned_membuf.407" }
%"struct.__gnu_cxx::__aligned_membuf.407" = type { [8 x i8] }
%"class.grpc_core::RefCounted.408" = type { %"class.grpc_core::PolymorphicRefCount", %"class.grpc_core::RefCount" }
%"class.grpc_core::PolymorphicRefCount" = type { ptr }
%"class.grpc_core::RefCount" = type { %"struct.std::atomic.19" }
%"class.grpc_core::XdsClient::ChannelState::RetryableCall" = type <{ %"class.grpc_core::InternallyRefCounted.89", %"class.std::unique_ptr.90", %"class.grpc_core::WeakRefCountedPtr.87", %"class.grpc_core::BackOff", %"class.std::optional", i8, [7 x i8] }>
%"class.grpc_core::InternallyRefCounted.89" = type { %"class.grpc_core::Orphanable", %"class.grpc_core::RefCount" }
%"class.std::unique_ptr.90" = type { %"struct.std::__uniq_ptr_data.91" }
%"struct.std::__uniq_ptr_data.91" = type { %"class.std::__uniq_ptr_impl.92" }
%"class.std::__uniq_ptr_impl.92" = type { %"class.std::tuple.93" }
%"class.std::tuple.93" = type { %"struct.std::_Tuple_impl.94" }
%"struct.std::_Tuple_impl.94" = type { %"struct.std::_Head_base.95" }
%"struct.std::_Head_base.95" = type { ptr }
%"class.grpc_core::WeakRefCountedPtr.87" = type { ptr }
%"class.grpc_core::BackOff" = type { %"class.grpc_core::BackOff::Options", %"class.absl::lts_20230802::random_internal::NonsecureURBGBase", i8, %"class.grpc_core::Duration" }
%"class.grpc_core::BackOff::Options" = type { %"class.grpc_core::Duration", double, double, %"class.grpc_core::Duration" }
%"class.absl::lts_20230802::random_internal::NonsecureURBGBase" = type { %"class.absl::lts_20230802::random_internal::randen_engine" }
%"class.absl::lts_20230802::random_internal::randen_engine" = type { [264 x i8], i64, %"class.absl::lts_20230802::random_internal::Randen" }
%"class.absl::lts_20230802::random_internal::Randen" = type <{ ptr, i8, [7 x i8] }>
%"class.std::optional" = type { %"struct.std::_Optional_base" }
%"struct.std::_Optional_base" = type { %"struct.std::_Optional_payload" }
%"struct.std::_Optional_payload" = type { %"struct.std::_Optional_payload_base.base", [7 x i8] }
%"struct.std::_Optional_payload_base.base" = type <{ %"union.std::_Optional_payload_base<grpc_event_engine::experimental::EventEngine::TaskHandle>::_Storage", i8 }>
%"union.std::_Optional_payload_base<grpc_event_engine::experimental::EventEngine::TaskHandle>::_Storage" = type { %"struct.grpc_event_engine::experimental::EventEngine::TaskHandle" }
%"struct.grpc_event_engine::experimental::EventEngine::TaskHandle" = type { [2 x i64] }
%"class.grpc_core::XdsClient::ChannelState::RetryableCall.96" = type <{ %"class.grpc_core::InternallyRefCounted.97", %"class.std::unique_ptr.98", %"class.grpc_core::WeakRefCountedPtr.87", %"class.grpc_core::BackOff", %"class.std::optional", i8, [7 x i8] }>
%"class.grpc_core::InternallyRefCounted.97" = type { %"class.grpc_core::Orphanable", %"class.grpc_core::RefCount" }
%"class.std::unique_ptr.98" = type { %"struct.std::__uniq_ptr_data.99" }
%"struct.std::__uniq_ptr_data.99" = type { %"class.std::__uniq_ptr_impl.100" }
%"class.std::__uniq_ptr_impl.100" = type { %"class.std::tuple.101" }
%"class.std::tuple.101" = type { %"struct.std::_Tuple_impl.102" }
%"struct.std::_Tuple_impl.102" = type { %"struct.std::_Head_base.103" }
%"struct.std::_Head_base.103" = type { ptr }
%"class.std::tuple.498" = type { %"struct.std::_Tuple_impl.499" }
%"struct.std::_Tuple_impl.499" = type { %"struct.std::_Head_base.500" }
%"struct.std::_Head_base.500" = type { ptr }
%"class.std::tuple.479" = type { i8 }
%"class.grpc_core::XdsClient::ChannelState::AdsCallState" = type { %"class.grpc_core::InternallyRefCounted.105", %"class.grpc_core::RefCountedPtr", %"class.std::unique_ptr.106", i8, i8, ptr, %"class.std::set", %"class.std::map.116" }
%"class.grpc_core::InternallyRefCounted.105" = type { %"class.grpc_core::Orphanable", %"class.grpc_core::RefCount" }
%"class.grpc_core::RefCountedPtr" = type { ptr }
%"class.std::unique_ptr.106" = type { %"struct.std::__uniq_ptr_data.107" }
%"struct.std::__uniq_ptr_data.107" = type { %"class.std::__uniq_ptr_impl.108" }
%"class.std::__uniq_ptr_impl.108" = type { %"class.std::tuple.109" }
%"class.std::tuple.109" = type { %"struct.std::_Tuple_impl.110" }
%"struct.std::_Tuple_impl.110" = type { %"struct.std::_Head_base.111" }
%"struct.std::_Head_base.111" = type { ptr }
%"class.std::set" = type { %"class.std::_Rb_tree.112" }
%"class.std::_Rb_tree.112" = type { %"struct.std::_Rb_tree<const grpc_core::XdsResourceType *, const grpc_core::XdsResourceType *, std::_Identity<const grpc_core::XdsResourceType *>, std::less<const grpc_core::XdsResourceType *>>::_Rb_tree_impl" }
%"struct.std::_Rb_tree<const grpc_core::XdsResourceType *, const grpc_core::XdsResourceType *, std::_Identity<const grpc_core::XdsResourceType *>, std::less<const grpc_core::XdsResourceType *>>::_Rb_tree_impl" = type { %"struct.std::_Rb_tree_key_compare", %"struct.std::_Rb_tree_header" }
%"class.std::map.116" = type { %"class.std::_Rb_tree.117" }
%"class.std::_Rb_tree.117" = type { %"struct.std::_Rb_tree<const grpc_core::XdsResourceType *, std::pair<const grpc_core::XdsResourceType *const, grpc_core::XdsClient::ChannelState::AdsCallState::ResourceTypeState>, std::_Select1st<std::pair<const grpc_core::XdsResourceType *const, grpc_core::XdsClient::ChannelState::AdsCallState::ResourceTypeState>>, std::less<const grpc_core::XdsResourceType *>>::_Rb_tree_impl" }
%"struct.std::_Rb_tree<const grpc_core::XdsResourceType *, std::pair<const grpc_core::XdsResourceType *const, grpc_core::XdsClient::ChannelState::AdsCallState::ResourceTypeState>, std::_Select1st<std::pair<const grpc_core::XdsResourceType *const, grpc_core::XdsClient::ChannelState::AdsCallState::ResourceTypeState>>, std::less<const grpc_core::XdsResourceType *>>::_Rb_tree_impl" = type { %"struct.std::_Rb_tree_key_compare", %"struct.std::_Rb_tree_header" }
%"struct.std::_Rb_tree_node.411" = type { %"struct.std::_Rb_tree_node_base", %"struct.__gnu_cxx::__aligned_membuf.412" }
%"struct.__gnu_cxx::__aligned_membuf.412" = type { [96 x i8] }
%"struct.grpc_core::XdsClient::XdsResourceName" = type { %"class.std::__cxx11::basic_string", %"struct.grpc_core::XdsClient::XdsResourceKey" }
%"struct.grpc_core::XdsClient::XdsResourceKey" = type { %"class.std::__cxx11::basic_string", %"class.std::vector" }
%"class.std::vector" = type { %"struct.std::_Vector_base" }
%"struct.std::_Vector_base" = type { %"struct.std::_Vector_base<grpc_core::URI::QueryParam, std::allocator<grpc_core::URI::QueryParam>>::_Vector_impl" }
%"struct.std::_Vector_base<grpc_core::URI::QueryParam, std::allocator<grpc_core::URI::QueryParam>>::_Vector_impl" = type { %"struct.std::_Vector_base<grpc_core::URI::QueryParam, std::allocator<grpc_core::URI::QueryParam>>::_Vector_impl_data" }
%"struct.std::_Vector_base<grpc_core::URI::QueryParam, std::allocator<grpc_core::URI::QueryParam>>::_Vector_impl_data" = type { ptr, ptr, ptr }
%"class.grpc_core::InternallyRefCounted.211" = type { %"class.grpc_core::Orphanable", %"class.grpc_core::RefCount" }
%"class.grpc_core::XdsClient::ChannelState::AdsCallState::ResourceTimer" = type { %"class.grpc_core::InternallyRefCounted.211", ptr, %"struct.grpc_core::XdsClient::XdsResourceName", %"class.grpc_core::RefCountedPtr.212", i8, i8, [6 x i8], %"class.std::optional" }
%"class.grpc_core::RefCountedPtr.212" = type { ptr }
%"class.std::allocator.16" = type { i8 }
%"class.grpc_core::XdsClient::ChannelState::AdsCallState::AdsResponseParser" = type { %"class.grpc_core::XdsApi::AdsResponseParserInterface", ptr, %"class.grpc_core::Timestamp", %"struct.grpc_core::XdsClient::ChannelState::AdsCallState::AdsResponseParser::Result" }
%"class.grpc_core::XdsApi::AdsResponseParserInterface" = type { ptr }
%"class.grpc_core::Timestamp" = type { i64 }
%"struct.grpc_core::XdsClient::ChannelState::AdsCallState::AdsResponseParser::Result" = type <{ ptr, %"class.std::__cxx11::basic_string", %"class.std::__cxx11::basic_string", %"class.std::__cxx11::basic_string", %"class.std::vector.164", %"class.std::map.169", i8, [7 x i8] }>
%"class.std::vector.164" = type { %"struct.std::_Vector_base.165" }
%"struct.std::_Vector_base.165" = type { %"struct.std::_Vector_base<std::__cxx11::basic_string<char>, std::allocator<std::__cxx11::basic_string<char>>>::_Vector_impl" }
%"struct.std::_Vector_base<std::__cxx11::basic_string<char>, std::allocator<std::__cxx11::basic_string<char>>>::_Vector_impl" = type { %"struct.std::_Vector_base<std::__cxx11::basic_string<char>, std::allocator<std::__cxx11::basic_string<char>>>::_Vector_impl_data" }
%"struct.std::_Vector_base<std::__cxx11::basic_string<char>, std::allocator<std::__cxx11::basic_string<char>>>::_Vector_impl_data" = type { ptr, ptr, ptr }
%"class.std::map.169" = type { %"class.std::_Rb_tree.170" }
%"class.std::_Rb_tree.170" = type { %"struct.std::_Rb_tree<std::__cxx11::basic_string<char>, std::pair<const std::__cxx11::basic_string<char>, std::set<grpc_core::XdsClient::XdsResourceKey>>, std::_Select1st<std::pair<const std::__cxx11::basic_string<char>, std::set<grpc_core::XdsClient::XdsResourceKey>>>, std::less<std::__cxx11::basic_string<char>>>::_Rb_tree_impl" }
%"struct.std::_Rb_tree<std::__cxx11::basic_string<char>, std::pair<const std::__cxx11::basic_string<char>, std::set<grpc_core::XdsClient::XdsResourceKey>>, std::_Select1st<std::pair<const std::__cxx11::basic_string<char>, std::set<grpc_core::XdsClient::XdsResourceKey>>>, std::less<std::__cxx11::basic_string<char>>>::_Rb_tree_impl" = type { %"struct.std::_Rb_tree_key_compare.71", %"struct.std::_Rb_tree_header" }
%"struct.grpc_core::XdsApi::AdsResponseParserInterface::AdsResponseFields" = type { %"class.std::__cxx11::basic_string", %"class.std::__cxx11::basic_string", %"class.std::__cxx11::basic_string", i64 }
%"struct.std::_Rb_tree_node.465" = type { %"struct.std::_Rb_tree_node_base", %"struct.__gnu_cxx::__aligned_membuf.466" }
%"struct.__gnu_cxx::__aligned_membuf.466" = type { [24 x i8] }
%"struct.grpc_core::XdsResourceType::DecodeContext" = type { ptr, ptr, ptr, ptr, ptr }
%"struct.grpc_core::XdsResourceType::DecodeResult" = type { %"class.std::optional.174", %"class.absl::lts_20230802::StatusOr" }
%"class.std::optional.174" = type { %"struct.std::_Optional_base.175" }
%"struct.std::_Optional_base.175" = type { %"struct.std::_Optional_payload.177" }
%"struct.std::_Optional_payload.177" = type { %"struct.std::_Optional_payload.base.181", [7 x i8] }
%"struct.std::_Optional_payload.base.181" = type { %"struct.std::_Optional_payload_base.base.180" }
%"struct.std::_Optional_payload_base.base.180" = type <{ %"union.std::_Optional_payload_base<std::__cxx11::basic_string<char>>::_Storage", i8 }>
%"union.std::_Optional_payload_base<std::__cxx11::basic_string<char>>::_Storage" = type { %"class.std::__cxx11::basic_string" }
%"class.absl::lts_20230802::StatusOr" = type { %"class.absl::lts_20230802::internal_statusor::StatusOrData" }
%"class.absl::lts_20230802::internal_statusor::StatusOrData" = type { %union.anon.184, %union.anon.185 }
%union.anon.184 = type { %"class.absl::lts_20230802::Status" }
%union.anon.185 = type { %"class.std::shared_ptr.151" }
%"class.std::shared_ptr.151" = type { %"class.std::__shared_ptr.152" }
%"class.std::__shared_ptr.152" = type { ptr, %"class.std::__shared_count" }
%"class.absl::lts_20230802::StatusOr.186" = type { %"class.absl::lts_20230802::internal_statusor::StatusOrData.187" }
%"class.absl::lts_20230802::internal_statusor::StatusOrData.187" = type { %union.anon.188, %union.anon.189 }
%union.anon.188 = type { %"class.absl::lts_20230802::Status" }
%union.anon.189 = type { %"struct.grpc_core::XdsClient::XdsResourceName" }
%"struct.grpc_core::XdsApi::ResourceMetadata" = type { i32, %"class.std::__cxx11::basic_string", %"class.grpc_core::Timestamp", %"class.std::__cxx11::basic_string", %"class.std::__cxx11::basic_string", %"class.std::__cxx11::basic_string", %"class.grpc_core::Timestamp" }
%class.anon.232 = type { %"class.std::map.79", %"class.std::shared_ptr.151" }
%"struct.std::_Optional_payload_base.179" = type <{ %"union.std::_Optional_payload_base<std::__cxx11::basic_string<char>>::_Storage", i8, [7 x i8] }>
%"struct.std::_Rb_tree_node.413" = type { %"struct.std::_Rb_tree_node_base", %"struct.__gnu_cxx::__aligned_membuf.414" }
%"struct.__gnu_cxx::__aligned_membuf.414" = type { [80 x i8] }
%"struct.std::_Rb_tree_node.415" = type { %"struct.std::_Rb_tree_node_base", %"struct.__gnu_cxx::__aligned_membuf.416" }
%"struct.__gnu_cxx::__aligned_membuf.416" = type { [64 x i8] }
%"class.std::_Sp_counted_base" = type { ptr, i32, i32 }
%"struct.std::__cxx11::basic_string<char>::__sv_wrapper" = type { %"class.std::basic_string_view" }
%"class.absl::lts_20230802::StatusOr.315" = type { %"class.absl::lts_20230802::internal_statusor::StatusOrData.316" }
%"class.absl::lts_20230802::internal_statusor::StatusOrData.316" = type { %union.anon.317, %union.anon.318 }
%union.anon.317 = type { %"class.absl::lts_20230802::Status" }
%union.anon.318 = type { %"class.grpc_core::URI" }
%"class.grpc_core::URI" = type { %"class.std::__cxx11::basic_string", %"class.std::__cxx11::basic_string", %"class.std::__cxx11::basic_string", %"class.std::map.319", %"class.std::vector", %"class.std::__cxx11::basic_string" }
%"class.std::map.319" = type { %"class.std::_Rb_tree.320" }
%"class.std::_Rb_tree.320" = type { %"struct.std::_Rb_tree<std::basic_string_view<char>, std::pair<const std::basic_string_view<char>, std::basic_string_view<char>>, std::_Select1st<std::pair<const std::basic_string_view<char>, std::basic_string_view<char>>>, std::less<std::basic_string_view<char>>>::_Rb_tree_impl" }
%"struct.std::_Rb_tree<std::basic_string_view<char>, std::pair<const std::basic_string_view<char>, std::basic_string_view<char>>, std::_Select1st<std::pair<const std::basic_string_view<char>, std::basic_string_view<char>>>, std::less<std::basic_string_view<char>>>::_Rb_tree_impl" = type { %"struct.std::_Rb_tree_key_compare.47", %"struct.std::_Rb_tree_header" }
%"struct.std::pair.328" = type { %"class.std::basic_string_view", %"class.std::basic_string_view" }
%"class.absl::lts_20230802::strings_internal::Splitter" = type <{ %"class.std::basic_string_view", %"class.absl::lts_20230802::strings_internal::MaxSplitsImpl", %"struct.absl::lts_20230802::AllowEmpty", [3 x i8] }>
%"class.absl::lts_20230802::strings_internal::MaxSplitsImpl" = type { %"class.absl::lts_20230802::ByChar", i32, i32 }
%"class.absl::lts_20230802::ByChar" = type { i8 }
%"struct.absl::lts_20230802::AllowEmpty" = type { i8 }
%"struct.grpc_core::URI::QueryParam" = type { %"class.std::__cxx11::basic_string", %"class.std::__cxx11::basic_string" }
%"struct.std::_Rb_tree_node.469" = type { %"struct.std::_Rb_tree_node_base", %"struct.__gnu_cxx::__aligned_membuf.470" }
%"struct.__gnu_cxx::__aligned_membuf.470" = type { [32 x i8] }
%"class.std::tuple.476" = type { %"struct.std::_Tuple_impl.477" }
%"struct.std::_Tuple_impl.477" = type { %"struct.std::_Head_base.478" }
%"struct.std::_Head_base.478" = type { ptr }
%"struct.std::_Rb_tree_node.429" = type { %"struct.std::_Rb_tree_node_base", %"struct.__gnu_cxx::__aligned_membuf.430" }
%"struct.__gnu_cxx::__aligned_membuf.430" = type { [80 x i8] }
%"struct.std::_Rb_tree<grpc_core::XdsClient::XdsResourceKey, grpc_core::XdsClient::XdsResourceKey, std::_Identity<grpc_core::XdsClient::XdsResourceKey>, std::less<grpc_core::XdsClient::XdsResourceKey>>::_Alloc_node" = type { ptr }
%"struct.std::_Rb_tree<grpc_core::XdsClient::ResourceWatcherInterface *, std::pair<grpc_core::XdsClient::ResourceWatcherInterface *const, grpc_core::RefCountedPtr<grpc_core::XdsClient::ResourceWatcherInterface>>, std::_Select1st<std::pair<grpc_core::XdsClient::ResourceWatcherInterface *const, grpc_core::RefCountedPtr<grpc_core::XdsClient::ResourceWatcherInterface>>>, std::less<grpc_core::XdsClient::ResourceWatcherInterface *>>::_Alloc_node" = type { ptr }
%class.anon.376 = type { %"class.std::map.79", %"class.absl::lts_20230802::Status" }
%"class.std::unique_ptr.233" = type { %"struct.std::__uniq_ptr_data.234" }
%"struct.std::__uniq_ptr_data.234" = type { %"class.std::__uniq_ptr_impl.235" }
%"class.std::__uniq_ptr_impl.235" = type { %"class.std::tuple.236" }
%"class.std::tuple.236" = type { %"struct.std::_Tuple_impl.237" }
%"struct.std::_Tuple_impl.237" = type { %"struct.std::_Head_base.240" }
%"struct.std::_Head_base.240" = type { ptr }
%"class.grpc_core::XdsClient::ChannelState::AdsCallState::StreamEventHandler" = type { %"class.grpc_core::XdsTransportFactory::XdsTransport::StreamingCall::EventHandler", %"class.grpc_core::RefCountedPtr.212" }
%"class.grpc_core::XdsTransportFactory::XdsTransport::StreamingCall::EventHandler" = type { ptr }
%"struct.std::_Rb_tree_node.417" = type { %"struct.std::_Rb_tree_node_base", %"struct.__gnu_cxx::__aligned_membuf.418" }
%"struct.__gnu_cxx::__aligned_membuf.418" = type { [8 x i8] }
%"struct.std::_Rb_tree_node" = type { %"struct.std::_Rb_tree_node_base", %"struct.__gnu_cxx::__aligned_membuf" }
%"struct.__gnu_cxx::__aligned_membuf" = type { [40 x i8] }
%"class.std::tuple.503" = type { %"struct.std::_Tuple_impl.504" }
%"struct.std::_Tuple_impl.504" = type { %"struct.std::_Head_base.505" }
%"struct.std::_Head_base.505" = type { ptr }
%class.anon.377 = type { %"class.std::map.79" }
%"class.grpc_core::XdsClient::ChannelState::LrsCallState" = type { %"class.grpc_core::InternallyRefCounted.259", %"class.grpc_core::RefCountedPtr.260", %"class.std::unique_ptr.106", i8, i8, i8, %"class.std::set.261", %"class.grpc_core::Duration", %"class.std::unique_ptr.266" }
%"class.grpc_core::InternallyRefCounted.259" = type { %"class.grpc_core::Orphanable", %"class.grpc_core::RefCount" }
%"class.grpc_core::RefCountedPtr.260" = type { ptr }
%"class.std::set.261" = type { %"class.std::_Rb_tree.262" }
%"class.std::_Rb_tree.262" = type { %"struct.std::_Rb_tree<std::__cxx11::basic_string<char>, std::__cxx11::basic_string<char>, std::_Identity<std::__cxx11::basic_string<char>>, std::less<std::__cxx11::basic_string<char>>>::_Rb_tree_impl" }
%"struct.std::_Rb_tree<std::__cxx11::basic_string<char>, std::__cxx11::basic_string<char>, std::_Identity<std::__cxx11::basic_string<char>>, std::less<std::__cxx11::basic_string<char>>>::_Rb_tree_impl" = type { %"struct.std::_Rb_tree_key_compare.71", %"struct.std::_Rb_tree_header" }
%"class.std::unique_ptr.266" = type { %"struct.std::__uniq_ptr_data.267" }
%"struct.std::__uniq_ptr_data.267" = type { %"class.std::__uniq_ptr_impl.268" }
%"class.std::__uniq_ptr_impl.268" = type { %"class.std::tuple.269" }
%"class.std::tuple.269" = type { %"struct.std::_Tuple_impl.270" }
%"struct.std::_Tuple_impl.270" = type { %"struct.std::_Head_base.271" }
%"struct.std::_Head_base.271" = type { ptr }
%"class.grpc_core::InternallyRefCounted.273" = type { %"class.grpc_core::Orphanable", %"class.grpc_core::RefCount" }
%"class.grpc_core::XdsClient::ChannelState::LrsCallState::Reporter" = type { %"class.grpc_core::InternallyRefCounted.273", %"class.grpc_core::RefCountedPtr.274", %"class.grpc_core::Duration", i8, [7 x i8], %"class.std::optional" }
%"class.grpc_core::RefCountedPtr.274" = type { ptr }
%"class.absl::lts_20230802::AnyInvocable" = type { %"class.absl::lts_20230802::internal_any_invocable::Impl" }
%"class.absl::lts_20230802::internal_any_invocable::Impl" = type { %"class.absl::lts_20230802::internal_any_invocable::CoreImpl" }
%"class.absl::lts_20230802::internal_any_invocable::CoreImpl" = type { %"union.absl::lts_20230802::internal_any_invocable::TypeErasedState", ptr, ptr }
%"union.absl::lts_20230802::internal_any_invocable::TypeErasedState" = type { %struct.anon }
%struct.anon = type { ptr, i64 }
%"class.std::map.276" = type { %"class.std::_Rb_tree.277" }
%"class.std::_Rb_tree.277" = type { %"struct.std::_Rb_tree<std::pair<std::__cxx11::basic_string<char>, std::__cxx11::basic_string<char>>, std::pair<const std::pair<std::__cxx11::basic_string<char>, std::__cxx11::basic_string<char>>, grpc_core::XdsApi::ClusterLoadReport>, std::_Select1st<std::pair<const std::pair<std::__cxx11::basic_string<char>, std::__cxx11::basic_string<char>>, grpc_core::XdsApi::ClusterLoadReport>>, std::less<std::pair<std::__cxx11::basic_string<char>, std::__cxx11::basic_string<char>>>>::_Rb_tree_impl" }
%"struct.std::_Rb_tree<std::pair<std::__cxx11::basic_string<char>, std::__cxx11::basic_string<char>>, std::pair<const std::pair<std::__cxx11::basic_string<char>, std::__cxx11::basic_string<char>>, grpc_core::XdsApi::ClusterLoadReport>, std::_Select1st<std::pair<const std::pair<std::__cxx11::basic_string<char>, std::__cxx11::basic_string<char>>, grpc_core::XdsApi::ClusterLoadReport>>, std::less<std::pair<std::__cxx11::basic_string<char>, std::__cxx11::basic_string<char>>>>::_Rb_tree_impl" = type { %"struct.std::_Rb_tree_key_compare.281", %"struct.std::_Rb_tree_header" }
%"struct.std::_Rb_tree_key_compare.281" = type { %"struct.std::less.282" }
%"struct.std::less.282" = type { i8 }
%"struct.std::_Rb_tree_node.439" = type { %"struct.std::_Rb_tree_node_base", %"struct.__gnu_cxx::__aligned_membuf.440" }
%"struct.__gnu_cxx::__aligned_membuf.440" = type { [176 x i8] }
%"struct.std::_Rb_tree_node.444" = type { %"struct.std::_Rb_tree_node_base", %"struct.__gnu_cxx::__aligned_membuf.445" }
%"struct.__gnu_cxx::__aligned_membuf.445" = type { [40 x i8] }
%"struct.std::_Rb_tree_node.446" = type { %"struct.std::_Rb_tree_node_base", %"struct.__gnu_cxx::__aligned_membuf.447" }
%"struct.__gnu_cxx::__aligned_membuf.447" = type { [88 x i8] }
%"struct.std::_Rb_tree_node.451" = type { %"struct.std::_Rb_tree_node_base", %"struct.__gnu_cxx::__aligned_membuf.452" }
%"struct.__gnu_cxx::__aligned_membuf.452" = type { [48 x i8] }
%"struct.std::_Rb_tree_node.455" = type { %"struct.std::_Rb_tree_node_base", %"struct.__gnu_cxx::__aligned_membuf.456" }
%"struct.__gnu_cxx::__aligned_membuf.456" = type { [64 x i8] }
%"class.absl::lts_20230802::str_format_internal::FormatArgImpl" = type { %"union.absl::lts_20230802::str_format_internal::FormatArgImpl::Data", ptr }
%"union.absl::lts_20230802::str_format_internal::FormatArgImpl::Data" = type { ptr }
%"class.std::tuple.592" = type { %"struct.std::_Tuple_impl.593" }
%"struct.std::_Tuple_impl.593" = type { %"struct.std::_Head_base.594" }
%"struct.std::_Head_base.594" = type { ptr }
%"struct.grpc_core::XdsApi::ClusterLoadReport" = type { %"struct.grpc_core::XdsClusterDropStats::Snapshot", %"class.std::map.378", %"class.grpc_core::Duration" }
%"struct.grpc_core::XdsClusterDropStats::Snapshot" = type { i64, %"class.std::map.343" }
%"class.std::map.343" = type { %"class.std::_Rb_tree.344" }
%"class.std::_Rb_tree.344" = type { %"struct.std::_Rb_tree<std::__cxx11::basic_string<char>, std::pair<const std::__cxx11::basic_string<char>, unsigned long>, std::_Select1st<std::pair<const std::__cxx11::basic_string<char>, unsigned long>>, std::less<std::__cxx11::basic_string<char>>>::_Rb_tree_impl" }
%"struct.std::_Rb_tree<std::__cxx11::basic_string<char>, std::pair<const std::__cxx11::basic_string<char>, unsigned long>, std::_Select1st<std::pair<const std::__cxx11::basic_string<char>, unsigned long>>, std::less<std::__cxx11::basic_string<char>>>::_Rb_tree_impl" = type { %"struct.std::_Rb_tree_key_compare.71", %"struct.std::_Rb_tree_header" }
%"class.std::map.378" = type { %"class.std::_Rb_tree.379" }
%"class.std::_Rb_tree.379" = type { %"struct.std::_Rb_tree<grpc_core::RefCountedPtr<grpc_core::XdsLocalityName>, std::pair<const grpc_core::RefCountedPtr<grpc_core::XdsLocalityName>, grpc_core::XdsClusterLocalityStats::Snapshot>, std::_Select1st<std::pair<const grpc_core::RefCountedPtr<grpc_core::XdsLocalityName>, grpc_core::XdsClusterLocalityStats::Snapshot>>, grpc_core::XdsLocalityName::Less>::_Rb_tree_impl" }
%"struct.std::_Rb_tree<grpc_core::RefCountedPtr<grpc_core::XdsLocalityName>, std::pair<const grpc_core::RefCountedPtr<grpc_core::XdsLocalityName>, grpc_core::XdsClusterLocalityStats::Snapshot>, std::_Select1st<std::pair<const grpc_core::RefCountedPtr<grpc_core::XdsLocalityName>, grpc_core::XdsClusterLocalityStats::Snapshot>>, grpc_core::XdsLocalityName::Less>::_Rb_tree_impl" = type { %"struct.std::_Rb_tree_key_compare.353", %"struct.std::_Rb_tree_header" }
%"struct.std::_Rb_tree_key_compare.353" = type { %"struct.grpc_core::XdsLocalityName::Less" }
%"struct.grpc_core::XdsLocalityName::Less" = type { i8 }
%"struct.grpc_core::XdsClusterLocalityStats::Snapshot" = type { i64, i64, i64, i64, %"class.std::map.359" }
%"class.std::map.359" = type { %"class.std::_Rb_tree.360" }
%"class.std::_Rb_tree.360" = type { %"struct.std::_Rb_tree<std::__cxx11::basic_string<char>, std::pair<const std::__cxx11::basic_string<char>, grpc_core::XdsClusterLocalityStats::BackendMetric>, std::_Select1st<std::pair<const std::__cxx11::basic_string<char>, grpc_core::XdsClusterLocalityStats::BackendMetric>>, std::less<std::__cxx11::basic_string<char>>>::_Rb_tree_impl" }
%"struct.std::_Rb_tree<std::__cxx11::basic_string<char>, std::pair<const std::__cxx11::basic_string<char>, grpc_core::XdsClusterLocalityStats::BackendMetric>, std::_Select1st<std::pair<const std::__cxx11::basic_string<char>, grpc_core::XdsClusterLocalityStats::BackendMetric>>, std::less<std::__cxx11::basic_string<char>>>::_Rb_tree_impl" = type { %"struct.std::_Rb_tree_key_compare.71", %"struct.std::_Rb_tree_header" }
%"struct.std::_Rb_tree_node.471" = type { %"struct.std::_Rb_tree_node_base", %"struct.__gnu_cxx::__aligned_membuf.472" }
%"struct.__gnu_cxx::__aligned_membuf.472" = type { [184 x i8] }
%"struct.std::_Rb_tree_node.453" = type { %"struct.std::_Rb_tree_node_base", %"struct.__gnu_cxx::__aligned_membuf.454" }
%"struct.__gnu_cxx::__aligned_membuf.454" = type { [32 x i8] }
%"struct.std::_Rb_tree_node.473" = type { %"struct.std::_Rb_tree_node_base", %"struct.__gnu_cxx::__aligned_membuf.474" }
%"struct.__gnu_cxx::__aligned_membuf.474" = type { [96 x i8] }
%"class.grpc_core::XdsLocalityName" = type { %"class.grpc_core::RefCounted.383", %"class.std::__cxx11::basic_string", %"class.std::__cxx11::basic_string", %"class.std::__cxx11::basic_string", %"class.std::__cxx11::basic_string" }
%"class.grpc_core::RefCounted.383" = type { %"class.grpc_core::PolymorphicRefCount", %"class.grpc_core::RefCount" }
%"class.grpc_core::XdsClient::ChannelState::LrsCallState::StreamEventHandler" = type { %"class.grpc_core::XdsTransportFactory::XdsTransport::StreamingCall::EventHandler", %"class.grpc_core::RefCountedPtr.274" }
%"class.grpc_core::RefCountedPtr.132" = type { ptr }
%"struct.std::_Rb_tree_node.463" = type { %"struct.std::_Rb_tree_node_base", %"struct.__gnu_cxx::__aligned_membuf.464" }
%"struct.__gnu_cxx::__aligned_membuf.464" = type { [16 x i8] }
%"class.std::tuple.571" = type { %"struct.std::_Tuple_impl.572" }
%"struct.std::_Tuple_impl.572" = type { %"struct.std::_Head_base.573" }
%"struct.std::_Head_base.573" = type { ptr }
%class.anon.304 = type { ptr, ptr, ptr, ptr }
%class.anon.305 = type { %"class.grpc_core::RefCountedPtr.157", %"class.std::shared_ptr.151" }
%"class.grpc_core::RefCountedPtr.157" = type { ptr }
%class.anon.307 = type { %"class.grpc_core::RefCountedPtr.157", %"class.std::__cxx11::basic_string" }
%class.anon.308 = type { %"class.grpc_core::RefCountedPtr.157", %"class.absl::lts_20230802::Status" }
%"struct.grpc_core::XdsClient::AuthorityState" = type { %"class.grpc_core::RefCountedPtr.132", %"class.std::map.133" }
%"class.std::map.133" = type { %"class.std::_Rb_tree.134" }
%"class.std::_Rb_tree.134" = type { %"struct.std::_Rb_tree<const grpc_core::XdsResourceType *, std::pair<const grpc_core::XdsResourceType *const, std::map<grpc_core::XdsClient::XdsResourceKey, grpc_core::XdsClient::ResourceState>>, std::_Select1st<std::pair<const grpc_core::XdsResourceType *const, std::map<grpc_core::XdsClient::XdsResourceKey, grpc_core::XdsClient::ResourceState>>>, std::less<const grpc_core::XdsResourceType *>>::_Rb_tree_impl" }
%"struct.std::_Rb_tree<const grpc_core::XdsResourceType *, std::pair<const grpc_core::XdsResourceType *const, std::map<grpc_core::XdsClient::XdsResourceKey, grpc_core::XdsClient::ResourceState>>, std::_Select1st<std::pair<const grpc_core::XdsResourceType *const, std::map<grpc_core::XdsClient::XdsResourceKey, grpc_core::XdsClient::ResourceState>>>, std::less<const grpc_core::XdsResourceType *>>::_Rb_tree_impl" = type { %"struct.std::_Rb_tree_key_compare", %"struct.std::_Rb_tree_header" }
%"struct.grpc_core::XdsClient::ResourceState" = type <{ %"class.std::map.79", %"class.std::shared_ptr.151", %"struct.grpc_core::XdsApi::ResourceMetadata", i8, [7 x i8] }>
%class.anon.467 = type { %"class.grpc_core::RefCountedPtr.157", %"class.absl::lts_20230802::Status" }
%"class.grpc_core::RefCountedPtr.333" = type { ptr }
%"struct.std::pair.334" = type { %"class.std::__cxx11::basic_string", %"class.std::__cxx11::basic_string" }
%"struct.grpc_core::XdsClient::LoadReportServer" = type { %"class.grpc_core::RefCountedPtr.132", %"class.std::map.287" }
%"class.std::map.287" = type { %"class.std::_Rb_tree.288" }
%"class.std::_Rb_tree.288" = type { %"struct.std::_Rb_tree<std::pair<std::__cxx11::basic_string<char>, std::__cxx11::basic_string<char>>, std::pair<const std::pair<std::__cxx11::basic_string<char>, std::__cxx11::basic_string<char>>, grpc_core::XdsClient::LoadReportState>, std::_Select1st<std::pair<const std::pair<std::__cxx11::basic_string<char>, std::__cxx11::basic_string<char>>, grpc_core::XdsClient::LoadReportState>>, std::less<std::pair<std::__cxx11::basic_string<char>, std::__cxx11::basic_string<char>>>>::_Rb_tree_impl" }
%"struct.std::_Rb_tree<std::pair<std::__cxx11::basic_string<char>, std::__cxx11::basic_string<char>>, std::pair<const std::pair<std::__cxx11::basic_string<char>, std::__cxx11::basic_string<char>>, grpc_core::XdsClient::LoadReportState>, std::_Select1st<std::pair<const std::pair<std::__cxx11::basic_string<char>, std::__cxx11::basic_string<char>>, grpc_core::XdsClient::LoadReportState>>, std::less<std::pair<std::__cxx11::basic_string<char>, std::__cxx11::basic_string<char>>>>::_Rb_tree_impl" = type { %"struct.std::_Rb_tree_key_compare.281", %"struct.std::_Rb_tree_header" }
%"struct.grpc_core::XdsClient::LoadReportState" = type { ptr, %"struct.grpc_core::XdsClusterDropStats::Snapshot", %"class.std::map.348", %"class.grpc_core::Timestamp" }
%"class.std::map.348" = type { %"class.std::_Rb_tree.349" }
%"class.std::_Rb_tree.349" = type { %"struct.std::_Rb_tree<grpc_core::RefCountedPtr<grpc_core::XdsLocalityName>, std::pair<const grpc_core::RefCountedPtr<grpc_core::XdsLocalityName>, grpc_core::XdsClient::LoadReportState::LocalityState>, std::_Select1st<std::pair<const grpc_core::RefCountedPtr<grpc_core::XdsLocalityName>, grpc_core::XdsClient::LoadReportState::LocalityState>>, grpc_core::XdsLocalityName::Less>::_Rb_tree_impl" }
%"struct.std::_Rb_tree<grpc_core::RefCountedPtr<grpc_core::XdsLocalityName>, std::pair<const grpc_core::RefCountedPtr<grpc_core::XdsLocalityName>, grpc_core::XdsClient::LoadReportState::LocalityState>, std::_Select1st<std::pair<const grpc_core::RefCountedPtr<grpc_core::XdsLocalityName>, grpc_core::XdsClient::LoadReportState::LocalityState>>, grpc_core::XdsLocalityName::Less>::_Rb_tree_impl" = type { %"struct.std::_Rb_tree_key_compare.353", %"struct.std::_Rb_tree_header" }
%"class.grpc_core::RefCountedPtr.356" = type { ptr }
%"class.grpc_core::RefCounted" = type { %"class.grpc_core::PolymorphicRefCount", %"class.grpc_core::RefCount" }
%"struct.std::_Rb_tree<std::pair<std::__cxx11::basic_string<char>, std::__cxx11::basic_string<char>>, std::pair<const std::pair<std::__cxx11::basic_string<char>, std::__cxx11::basic_string<char>>, grpc_core::XdsClient::LoadReportState>, std::_Select1st<std::pair<const std::pair<std::__cxx11::basic_string<char>, std::__cxx11::basic_string<char>>, grpc_core::XdsClient::LoadReportState>>, std::less<std::pair<std::__cxx11::basic_string<char>, std::__cxx11::basic_string<char>>>>::_Auto_node" = type { ptr, ptr }
%"class.grpc_core::RefCountedPtr.357" = type { ptr }
%"class.grpc_core::RefCounted.364" = type { %"class.grpc_core::PolymorphicRefCount", %"class.grpc_core::RefCount" }
%"struct.grpc_core::XdsClient::LoadReportState::LocalityState" = type { ptr, %"struct.grpc_core::XdsClusterLocalityStats::Snapshot" }
%"struct.grpc_core::XdsClusterLocalityStats::BackendMetric" = type { i64, double }
%"class.grpc_core::RefCountedPtr.358" = type { ptr }
%"struct.std::_Rb_tree<std::pair<std::__cxx11::basic_string<char>, std::__cxx11::basic_string<char>>, std::pair<const std::pair<std::__cxx11::basic_string<char>, std::__cxx11::basic_string<char>>, grpc_core::XdsApi::ClusterLoadReport>, std::_Select1st<std::pair<const std::pair<std::__cxx11::basic_string<char>, std::__cxx11::basic_string<char>>, grpc_core::XdsApi::ClusterLoadReport>>, std::less<std::pair<std::__cxx11::basic_string<char>, std::__cxx11::basic_string<char>>>>::_Auto_node" = type { ptr, ptr }
%"class.std::tuple.603" = type { %"struct.std::_Tuple_impl.604" }
%"struct.std::_Tuple_impl.604" = type { %"struct.std::_Head_base.605" }
%"struct.std::_Head_base.605" = type { ptr }
%"struct.std::_Rb_tree<std::__cxx11::basic_string<char>, std::pair<const std::__cxx11::basic_string<char>, const grpc_core::XdsApi::ResourceMetadata *>, std::_Select1st<std::pair<const std::__cxx11::basic_string<char>, const grpc_core::XdsApi::ResourceMetadata *>>, std::less<std::__cxx11::basic_string<char>>>::_Auto_node" = type { ptr, ptr }
%"struct.std::_Rb_tree<std::basic_string_view<char>, std::pair<const std::basic_string_view<char>, std::map<std::__cxx11::basic_string<char>, const grpc_core::XdsApi::ResourceMetadata *>>, std::_Select1st<std::pair<const std::basic_string_view<char>, std::map<std::__cxx11::basic_string<char>, const grpc_core::XdsApi::ResourceMetadata *>>>, std::less<std::basic_string_view<char>>>::_Auto_node" = type { ptr, ptr }
%"class.std::map.384" = type { %"class.std::_Rb_tree.385" }
%"class.std::_Rb_tree.385" = type { %"struct.std::_Rb_tree<std::basic_string_view<char>, std::pair<const std::basic_string_view<char>, std::map<std::__cxx11::basic_string<char>, const grpc_core::XdsApi::ResourceMetadata *>>, std::_Select1st<std::pair<const std::basic_string_view<char>, std::map<std::__cxx11::basic_string<char>, const grpc_core::XdsApi::ResourceMetadata *>>>, std::less<std::basic_string_view<char>>>::_Rb_tree_impl" }
%"struct.std::_Rb_tree<std::basic_string_view<char>, std::pair<const std::basic_string_view<char>, std::map<std::__cxx11::basic_string<char>, const grpc_core::XdsApi::ResourceMetadata *>>, std::_Select1st<std::pair<const std::basic_string_view<char>, std::map<std::__cxx11::basic_string<char>, const grpc_core::XdsApi::ResourceMetadata *>>>, std::less<std::basic_string_view<char>>>::_Rb_tree_impl" = type { %"struct.std::_Rb_tree_key_compare.47", %"struct.std::_Rb_tree_header" }
%"struct.std::_Rb_tree_node.487" = type { %"struct.std::_Rb_tree_node_base", %"struct.__gnu_cxx::__aligned_membuf.488" }
%"struct.__gnu_cxx::__aligned_membuf.488" = type { [64 x i8] }
%"struct.std::_Rb_tree_node.491" = type { %"struct.std::_Rb_tree_node_base", %"struct.__gnu_cxx::__aligned_membuf.492" }
%"struct.__gnu_cxx::__aligned_membuf.492" = type { [40 x i8] }
%"class.grpc_core::ApplicationCallbackExecCtx" = type { i64, ptr, ptr }
%"class.grpc_core::ExecCtx" = type { ptr, %struct.grpc_closure_list, %"struct.grpc_core::ExecCtx::CombinerData", i64, %"class.grpc_core::ScopedTimeCache", ptr }
%struct.grpc_closure_list = type { ptr, ptr }
%"struct.grpc_core::ExecCtx::CombinerData" = type { ptr, ptr }
%"class.grpc_core::ScopedTimeCache" = type { %"class.grpc_core::Timestamp::ScopedSource", %"class.std::optional.421" }
%"class.grpc_core::Timestamp::ScopedSource" = type { %"class.grpc_core::Timestamp::Source", ptr }
%"class.grpc_core::Timestamp::Source" = type { ptr }
%"class.std::optional.421" = type { %"struct.std::_Optional_base.422" }
%"struct.std::_Optional_base.422" = type { %"struct.std::_Optional_payload.424" }
%"struct.std::_Optional_payload.424" = type { %"struct.std::_Optional_payload_base.base.426", [7 x i8] }
%"struct.std::_Optional_payload_base.base.426" = type <{ %"union.std::_Optional_payload_base<grpc_core::Timestamp>::_Storage", i8 }>
%"union.std::_Optional_payload_base<grpc_core::Timestamp>::_Storage" = type { %"class.grpc_core::Timestamp" }
%struct.grpc_completion_queue_functor = type { ptr, i32, i32, ptr }
%"struct.std::_Rb_tree_node.431" = type { %"struct.std::_Rb_tree_node_base", %"struct.__gnu_cxx::__aligned_membuf.432" }
%"struct.__gnu_cxx::__aligned_membuf.432" = type { [56 x i8] }
%"struct.std::_Rb_tree<std::__cxx11::basic_string<char>, std::pair<const std::__cxx11::basic_string<char>, unsigned long>, std::_Select1st<std::pair<const std::__cxx11::basic_string<char>, unsigned long>>, std::less<std::__cxx11::basic_string<char>>>::_Auto_node" = type { ptr, ptr }
%"struct.std::_Rb_tree<std::__cxx11::basic_string<char>, std::pair<const std::__cxx11::basic_string<char>, grpc_core::XdsClusterLocalityStats::BackendMetric>, std::_Select1st<std::pair<const std::__cxx11::basic_string<char>, grpc_core::XdsClusterLocalityStats::BackendMetric>>, std::less<std::__cxx11::basic_string<char>>>::_Auto_node" = type { ptr, ptr }
%struct._Guard = type { ptr }
%"struct.std::_Rb_tree<std::__cxx11::basic_string<char>, std::pair<const std::__cxx11::basic_string<char>, grpc_core::XdsClient::AuthorityState>, std::_Select1st<std::pair<const std::__cxx11::basic_string<char>, grpc_core::XdsClient::AuthorityState>>, std::less<std::__cxx11::basic_string<char>>>::_Auto_node" = type { ptr, ptr }
%"struct.std::_Rb_tree<const grpc_core::XdsResourceType *, std::pair<const grpc_core::XdsResourceType *const, std::map<grpc_core::XdsClient::XdsResourceKey, grpc_core::XdsClient::ResourceState>>, std::_Select1st<std::pair<const grpc_core::XdsResourceType *const, std::map<grpc_core::XdsClient::XdsResourceKey, grpc_core::XdsClient::ResourceState>>>, std::less<const grpc_core::XdsResourceType *>>::_Auto_node" = type { ptr, ptr }
%"struct.std::_Rb_tree<grpc_core::XdsClient::XdsResourceKey, std::pair<const grpc_core::XdsClient::XdsResourceKey, grpc_core::XdsClient::ResourceState>, std::_Select1st<std::pair<const grpc_core::XdsClient::XdsResourceKey, grpc_core::XdsClient::ResourceState>>, std::less<grpc_core::XdsClient::XdsResourceKey>>::_Auto_node" = type { ptr, ptr }
%"struct.std::_Rb_tree<grpc_core::RefCountedPtr<grpc_core::XdsClient::ResourceWatcherInterface>, grpc_core::RefCountedPtr<grpc_core::XdsClient::ResourceWatcherInterface>, std::_Identity<grpc_core::RefCountedPtr<grpc_core::XdsClient::ResourceWatcherInterface>>, std::less<grpc_core::RefCountedPtr<grpc_core::XdsClient::ResourceWatcherInterface>>>::_Alloc_node" = type { ptr }
%"struct.std::_Rb_tree<std::__cxx11::basic_string<char>, std::pair<const std::__cxx11::basic_string<char>, std::set<grpc_core::XdsClient::XdsResourceKey>>, std::_Select1st<std::pair<const std::__cxx11::basic_string<char>, std::set<grpc_core::XdsClient::XdsResourceKey>>>, std::less<std::__cxx11::basic_string<char>>>::_Auto_node" = type { ptr, ptr }
%"struct.std::_Rb_tree<const grpc_core::XdsResourceType *, std::pair<const grpc_core::XdsResourceType *const, grpc_core::XdsClient::ChannelState::AdsCallState::ResourceTypeState>, std::_Select1st<std::pair<const grpc_core::XdsResourceType *const, grpc_core::XdsClient::ChannelState::AdsCallState::ResourceTypeState>>, std::less<const grpc_core::XdsResourceType *>>::_Auto_node" = type { ptr, ptr }
%"struct.std::_Rb_tree<const grpc_core::XdsResourceType *, std::pair<const grpc_core::XdsResourceType *const, std::__cxx11::basic_string<char>>, std::_Select1st<std::pair<const grpc_core::XdsResourceType *const, std::__cxx11::basic_string<char>>>, std::less<const grpc_core::XdsResourceType *>>::_Auto_node" = type { ptr, ptr }
%"struct.std::_Rb_tree<std::__cxx11::basic_string<char>, std::pair<const std::__cxx11::basic_string<char>, std::map<grpc_core::XdsClient::XdsResourceKey, std::unique_ptr<grpc_core::XdsClient::ChannelState::AdsCallState::ResourceTimer, grpc_core::OrphanableDelete>>>, std::_Select1st<std::pair<const std::__cxx11::basic_string<char>, std::map<grpc_core::XdsClient::XdsResourceKey, std::unique_ptr<grpc_core::XdsClient::ChannelState::AdsCallState::ResourceTimer, grpc_core::OrphanableDelete>>>>, std::less<std::__cxx11::basic_string<char>>>::_Auto_node" = type { ptr, ptr }
%"struct.std::_Rb_tree<grpc_core::XdsClient::ResourceWatcherInterface *, std::pair<grpc_core::XdsClient::ResourceWatcherInterface *const, grpc_core::RefCountedPtr<grpc_core::XdsClient::ResourceWatcherInterface>>, std::_Select1st<std::pair<grpc_core::XdsClient::ResourceWatcherInterface *const, grpc_core::RefCountedPtr<grpc_core::XdsClient::ResourceWatcherInterface>>>, std::less<grpc_core::XdsClient::ResourceWatcherInterface *>>::_Auto_node" = type { ptr, ptr }
%"class.absl::lts_20230802::strings_internal::SplitIterator" = type <{ i64, i32, [4 x i8], %"class.std::basic_string_view", ptr, %"class.absl::lts_20230802::strings_internal::MaxSplitsImpl", %"struct.absl::lts_20230802::AllowEmpty", [3 x i8] }>
%"struct.std::_Rb_tree<const grpc_core::XdsBootstrap::XdsServer *, std::pair<const grpc_core::XdsBootstrap::XdsServer *const, grpc_core::XdsClient::LoadReportServer>, std::_Select1st<std::pair<const grpc_core::XdsBootstrap::XdsServer *const, grpc_core::XdsClient::LoadReportServer>>, std::less<const grpc_core::XdsBootstrap::XdsServer *>>::_Auto_node" = type { ptr, ptr }
%"struct.std::pair.354" = type { %"struct.std::pair.334", %"struct.grpc_core::XdsClient::LoadReportState" }
%"struct.std::_Rb_tree<grpc_core::RefCountedPtr<grpc_core::XdsLocalityName>, std::pair<const grpc_core::RefCountedPtr<grpc_core::XdsLocalityName>, grpc_core::XdsClient::LoadReportState::LocalityState>, std::_Select1st<std::pair<const grpc_core::RefCountedPtr<grpc_core::XdsLocalityName>, grpc_core::XdsClient::LoadReportState::LocalityState>>, grpc_core::XdsLocalityName::Less>::_Auto_node" = type { ptr, ptr }
%"struct.std::_Rb_tree<grpc_core::RefCountedPtr<grpc_core::XdsLocalityName>, std::pair<const grpc_core::RefCountedPtr<grpc_core::XdsLocalityName>, grpc_core::XdsClusterLocalityStats::Snapshot>, std::_Select1st<std::pair<const grpc_core::RefCountedPtr<grpc_core::XdsLocalityName>, grpc_core::XdsClusterLocalityStats::Snapshot>>, grpc_core::XdsLocalityName::Less>::_Auto_node" = type { ptr, ptr }

$_ZNSt10unique_ptrIN9grpc_core19XdsTransportFactory12XdsTransportENS0_16OrphanableDeleteEED2Ev = comdat any

$_ZN4absl12lts_202308026StatusD2Ev = comdat any

$_ZNSt3mapIPKN9grpc_core15XdsResourceTypeENSt7__cxx1112basic_stringIcSt11char_traitsIcESaIcEEESt4lessIS3_ESaISt4pairIKS3_S9_EEED2Ev = comdat any

$_ZNSt10unique_ptrIN9grpc_core9XdsClient12ChannelState13RetryableCallINS2_12LrsCallStateEEENS0_16OrphanableDeleteEED2Ev = comdat any

$_ZNSt10unique_ptrIN9grpc_core9XdsClient12ChannelState13RetryableCallINS2_12AdsCallStateEEENS0_16OrphanableDeleteEED2Ev = comdat any

$__clang_call_terminate = comdat any

$_ZNK4absl12lts_202308026Status8ToStringB5cxx11ENS0_18StatusToStringModeE = comdat any

$_ZNSt3mapINSt7__cxx1112basic_stringIcSt11char_traitsIcESaIcEEESt3setIN9grpc_core9XdsClient14XdsResourceKeyESt4lessIS9_ESaIS9_EESA_IS5_ESaISt4pairIKS5_SD_EEEixERSG_ = comdat any

$_ZNSt3setIN9grpc_core9XdsClient14XdsResourceKeyESt4lessIS2_ESaIS2_EE6insertERKS2_ = comdat any

$_ZNSt7__cxx1112basic_stringIcSt11char_traitsIcESaIcEEC2ISt17basic_string_viewIcS2_EvEERKT_RKS3_ = comdat any

$_ZNSt10shared_ptrIKN9grpc_core15XdsResourceType12ResourceDataEEaSEOS4_ = comdat any

$_ZN9grpc_core6XdsApi16ResourceMetadataaSEOS1_ = comdat any

$_ZN9grpc_core6XdsApi16ResourceMetadataD2Ev = comdat any

$_ZNSt3mapIPN9grpc_core9XdsClient24ResourceWatcherInterfaceENS0_13RefCountedPtrIS2_EESt4lessIS3_ESaISt4pairIKS3_S5_EEEC2ERKSC_ = comdat any

$_ZN9grpc_core15XdsResourceType12DecodeResultD2Ev = comdat any

$_ZNSt10unique_ptrIN9grpc_core19XdsTransportFactory12XdsTransport13StreamingCallENS0_16OrphanableDeleteEED2Ev = comdat any

$_ZN9grpc_core9XdsClient14XdsResourceKeyC2ERKS1_ = comdat any

$_ZN9grpc_core9XdsClient15XdsResourceNameD2Ev = comdat any

$_ZNSt6vectorINSt7__cxx1112basic_stringIcSt11char_traitsIcESaIcEEESaIS5_EED2Ev = comdat any

$_ZNSt3mapINSt7__cxx1112basic_stringIcSt11char_traitsIcESaIcEEES_IN9grpc_core9XdsClient14XdsResourceKeyESt10unique_ptrINS7_12ChannelState12AdsCallState13ResourceTimerENS6_16OrphanableDeleteEESt4lessIS8_ESaISt4pairIKS8_SE_EEESF_IS5_ESaISH_IKS5_SL_EEEixERSN_ = comdat any

$_ZNSt3mapIN9grpc_core9XdsClient14XdsResourceKeyESt10unique_ptrINS1_12ChannelState12AdsCallState13ResourceTimerENS0_16OrphanableDeleteEESt4lessIS2_ESaISt4pairIKS2_S8_EEEixERSC_ = comdat any

$_ZN9grpc_core9XdsClient12ChannelState12AdsCallState17AdsResponseParser6ResultD2Ev = comdat any

$_ZN9grpc_core9XdsClient12ChannelState12AdsCallState17AdsResponseParserD2Ev = comdat any

$_ZNSt3mapISt4pairINSt7__cxx1112basic_stringIcSt11char_traitsIcESaIcEEES6_EN9grpc_core6XdsApi17ClusterLoadReportESt4lessIS7_ESaIS0_IKS7_SA_EEED2Ev = comdat any

$_ZNSt10unique_ptrIN9grpc_core9XdsClient12ChannelState12LrsCallState8ReporterENS0_16OrphanableDeleteEED2Ev = comdat any

$_ZNSt3setINSt7__cxx1112basic_stringIcSt11char_traitsIcESaIcEEESt4lessIS5_ESaIS5_EED2Ev = comdat any

$_ZNSt10shared_ptrIN17grpc_event_engine12experimental11EventEngineEED2Ev = comdat any

$_ZNSt3mapIPN9grpc_core9XdsClient24ResourceWatcherInterfaceENS0_13RefCountedPtrIS2_EESt4lessIS3_ESaISt4pairIKS3_S5_EEED2Ev = comdat any

$_ZNSt3mapIPKN9grpc_core12XdsBootstrap9XdsServerENS0_9XdsClient16LoadReportServerESt4lessIS4_ESaISt4pairIKS4_S6_EEED2Ev = comdat any

$_ZNSt3mapINSt7__cxx1112basic_stringIcSt11char_traitsIcESaIcEEEN9grpc_core9XdsClient14AuthorityStateESt4lessIS5_ESaISt4pairIKS5_S8_EEED2Ev = comdat any

$_ZNSt3mapIPKN9grpc_core12XdsBootstrap9XdsServerEPNS0_9XdsClient12ChannelStateESt4lessIS4_ESaISt4pairIKS4_S7_EEED2Ev = comdat any

$_ZNSt3mapISt17basic_string_viewIcSt11char_traitsIcEEPKN9grpc_core15XdsResourceTypeESt4lessIS3_ESaISt4pairIKS3_S7_EEED2Ev = comdat any

$_ZNSt10unique_ptrIN9grpc_core19XdsTransportFactoryENS0_16OrphanableDeleteEED2Ev = comdat any

$_ZNSt3mapIPKN9grpc_core12XdsBootstrap9XdsServerEPNS0_9XdsClient12ChannelStateESt4lessIS4_ESaISt4pairIKS4_S7_EEEixEOS4_ = comdat any

$_ZN9grpc_core13RefCountedPtrINS_9XdsClient12ChannelStateEED2Ev = comdat any

$_ZNSt3mapINSt7__cxx1112basic_stringIcSt11char_traitsIcESaIcEEEN9grpc_core9XdsClient14AuthorityStateESt4lessIS5_ESaISt4pairIKS5_S8_EEEixERSC_ = comdat any

$_ZNSt3mapIN9grpc_core9XdsClient14XdsResourceKeyENS1_13ResourceStateESt4lessIS2_ESaISt4pairIKS2_S3_EEEixERS7_ = comdat any

$_ZNSt3mapIPKN9grpc_core15XdsResourceTypeES_INS0_9XdsClient14XdsResourceKeyENS4_13ResourceStateESt4lessIS5_ESaISt4pairIKS5_S6_EEES7_IS3_ESaIS9_IKS3_SD_EEE5eraseB5cxx11ESt17_Rb_tree_iteratorISG_E = comdat any

$_ZN9grpc_core13RefCountedPtrINS_9XdsClient12ChannelStateEE5resetEPS2_ = comdat any

$_ZNSt3mapISt17basic_string_viewIcSt11char_traitsIcEEPKN9grpc_core15XdsResourceTypeESt4lessIS3_ESaISt4pairIKS3_S7_EEE7emplaceIJS3_RS7_EEESA_ISt17_Rb_tree_iteratorISC_EbEDpOT_ = comdat any

$_ZNSt6vectorIN9grpc_core3URI10QueryParamESaIS2_EED2Ev = comdat any

$_ZN4absl12lts_202308028StatusOrIN9grpc_core3URIEED2Ev = comdat any

$_ZN9grpc_core9XdsClient16LoadReportServerD2Ev = comdat any

$_ZNSt3mapISt4pairINSt7__cxx1112basic_stringIcSt11char_traitsIcESaIcEEES6_EN9grpc_core9XdsClient15LoadReportStateESt4lessIS7_ESaIS0_IKS7_SA_EEE7emplaceIJS7_SA_EEES0_ISt17_Rb_tree_iteratorISE_EbEDpOT_ = comdat any

$_ZN9grpc_core9XdsClient15LoadReportStateD2Ev = comdat any

$_ZN9grpc_core19XdsClusterDropStats8SnapshotD2Ev = comdat any

$_ZN9grpc_core14MakeRefCountedINS_19XdsClusterDropStatsEJNS_13RefCountedPtrINS_9XdsClientEEERKNS_12XdsBootstrap9XdsServerERKNSt7__cxx1112basic_stringIcSt11char_traitsIcESaIcEEESG_EEENS2_IT_EEDpOT0_ = comdat any

$_ZN9grpc_core13RefCountedPtrINS_9XdsClientEED2Ev = comdat any

$_ZNSt3mapIN9grpc_core13RefCountedPtrINS0_15XdsLocalityNameEEENS0_9XdsClient15LoadReportState13LocalityStateENS2_4LessESaISt4pairIKS3_S6_EEEixERS9_ = comdat any

$_ZN9grpc_core23XdsClusterLocalityStats8SnapshotD2Ev = comdat any

$_ZN9grpc_core14MakeRefCountedINS_23XdsClusterLocalityStatsEJNS_13RefCountedPtrINS_9XdsClientEEERKNS_12XdsBootstrap9XdsServerERKNSt7__cxx1112basic_stringIcSt11char_traitsIcESaIcEEESG_NS2_INS_15XdsLocalityNameEEEEEENS2_IT_EEDpOT0_ = comdat any

$_ZNSt3mapISt4pairINSt7__cxx1112basic_stringIcSt11char_traitsIcESaIcEEES6_EN9grpc_core6XdsApi17ClusterLoadReportESt4lessIS7_ESaIS0_IKS7_SA_EEEixERSD_ = comdat any

$_ZN9grpc_core6XdsApi17ClusterLoadReportaSEOS1_ = comdat any

$_ZN9grpc_core6XdsApi17ClusterLoadReportD2Ev = comdat any

$_ZN9grpc_core9XdsClient12ChannelState12AdsCallState17AdsResponseParserD0Ev = comdat any

$_ZN9grpc_core9XdsClient12ChannelState12LrsCallState8ReporterD2Ev = comdat any

$_ZN9grpc_core9XdsClient12ChannelState12LrsCallState8ReporterD0Ev = comdat any

$_ZN9grpc_core9XdsClient12ChannelState12AdsCallStateD2Ev = comdat any

$_ZN9grpc_core9XdsClient12ChannelState12AdsCallStateD0Ev = comdat any

$_ZN9grpc_core9XdsClient12ChannelState12LrsCallStateD2Ev = comdat any

$_ZN9grpc_core9XdsClient12ChannelState12LrsCallStateD0Ev = comdat any

$_ZNSt8_Rb_treeIPKN9grpc_core15XdsResourceTypeESt4pairIKS3_NSt7__cxx1112basic_stringIcSt11char_traitsIcESaIcEEEESt10_Select1stISC_ESt4lessIS3_ESaISC_EE8_M_eraseEPSt13_Rb_tree_nodeISC_E = comdat any

$_ZNSt8_Rb_treeIN9grpc_core13RefCountedPtrINS0_9XdsClient24ResourceWatcherInterfaceEEES4_St9_IdentityIS4_ESt4lessIS4_ESaIS4_EE8_M_eraseEPSt13_Rb_tree_nodeIS4_E = comdat any

$_ZNSt8_Rb_treeIPN9grpc_core9XdsClient24ResourceWatcherInterfaceESt4pairIKS3_NS0_13RefCountedPtrIS2_EEESt10_Select1stIS8_ESt4lessIS3_ESaIS8_EE7_M_copyILb0ENSE_11_Alloc_nodeEEEPSt13_Rb_tree_nodeIS8_ESJ_PSt18_Rb_tree_node_baseRT0_ = comdat any

$_ZNSt8_Rb_treeIPN9grpc_core9XdsClient24ResourceWatcherInterfaceESt4pairIKS3_NS0_13RefCountedPtrIS2_EEESt10_Select1stIS8_ESt4lessIS3_ESaIS8_EE8_M_eraseEPSt13_Rb_tree_nodeIS8_E = comdat any

$_ZNSt10shared_ptrIKN9grpc_core15XdsResourceType12ResourceDataEED2Ev = comdat any

$_ZN4absl12lts_2023080217internal_statusor12StatusOrDataIN9grpc_core9XdsClient15XdsResourceNameEED2Ev = comdat any

$_ZN4absl12lts_2023080217internal_statusor12StatusOrDataISt10shared_ptrIKN9grpc_core15XdsResourceType12ResourceDataEEED2Ev = comdat any

$_ZNSt8_Rb_treeIPKN9grpc_core15XdsResourceTypeESt4pairIKS3_NS0_9XdsClient12ChannelState12AdsCallState17ResourceTypeStateEESt10_Select1stISA_ESt4lessIS3_ESaISA_EE8_M_eraseEPSt13_Rb_tree_nodeISA_E = comdat any

$_ZNSt8_Rb_treeINSt7__cxx1112basic_stringIcSt11char_traitsIcESaIcEEESt4pairIKS5_St3mapIN9grpc_core9XdsClient14XdsResourceKeyESt10unique_ptrINSA_12ChannelState12AdsCallState13ResourceTimerENS9_16OrphanableDeleteEESt4lessISB_ESaIS6_IKSB_SH_EEEESt10_Select1stISO_ESI_IS5_ESaISO_EE8_M_eraseEPSt13_Rb_tree_nodeISO_E = comdat any

$_ZNSt8_Rb_treeIN9grpc_core9XdsClient14XdsResourceKeyESt4pairIKS2_St10unique_ptrINS1_12ChannelState12AdsCallState13ResourceTimerENS0_16OrphanableDeleteEEESt10_Select1stISB_ESt4lessIS2_ESaISB_EE8_M_eraseEPSt13_Rb_tree_nodeISB_E = comdat any

$_ZNSt8_Rb_treeIN9grpc_core9XdsClient14XdsResourceKeyESt4pairIKS2_St10unique_ptrINS1_12ChannelState12AdsCallState13ResourceTimerENS0_16OrphanableDeleteEEESt10_Select1stISB_ESt4lessIS2_ESaISB_EE12_M_drop_nodeEPSt13_Rb_tree_nodeISB_E = comdat any

$_ZNSt8_Rb_treeIPKN9grpc_core15XdsResourceTypeES3_St9_IdentityIS3_ESt4lessIS3_ESaIS3_EE8_M_eraseEPSt13_Rb_tree_nodeIS3_E = comdat any

$_ZN9grpc_core9XdsClient12ChannelState12AdsCallState13ResourceTimer15MaybeStartTimerENS_13RefCountedPtrIS2_EE = comdat any

$_ZN4absl12lts_2023080222internal_any_invocable12LocalInvokerILb0EvRZN9grpc_core9XdsClient12ChannelState12AdsCallState13ResourceTimer15MaybeStartTimerENS3_13RefCountedPtrIS6_EEEUlvE_JEEET0_PNS1_15TypeErasedStateEDpNS1_18ForwardedParameterIT2_E4typeE = comdat any

$_ZZN9grpc_core9XdsClient12ChannelState12AdsCallState13ResourceTimer15MaybeStartTimerENS_13RefCountedPtrIS2_EEENKUlvE_clEv = comdat any

$_ZN9grpc_core9XdsClient12ChannelState12AdsCallState13ResourceTimer7OnTimerEv = comdat any

$_ZN9grpc_core7ExecCtxD2Ev = comdat any

$_ZN9grpc_core26ApplicationCallbackExecCtxD2Ev = comdat any

$_ZN9grpc_core7ExecCtxD0Ev = comdat any

$_ZN9grpc_core7ExecCtx18CheckReadyToFinishEv = comdat any

$_ZN9grpc_core9Timestamp12ScopedSource15InvalidateCacheEv = comdat any

$_ZN4absl12lts_2023080222internal_any_invocable22LocalManagerNontrivialIZN9grpc_core9XdsClient12ChannelState12AdsCallState13ResourceTimer15MaybeStartTimerENS3_13RefCountedPtrIS6_EEEUlvE_EEvNS1_14FunctionToCallEPNS1_15TypeErasedStateESD_ = comdat any

$_ZN9grpc_core9XdsClient12ChannelState12AdsCallState17AdsResponseParser6ResultC2EOS4_ = comdat any

$_ZNSt8_Rb_treeINSt7__cxx1112basic_stringIcSt11char_traitsIcESaIcEEESt4pairIKS5_St3setIN9grpc_core9XdsClient14XdsResourceKeyESt4lessISB_ESaISB_EEESt10_Select1stISG_ESC_IS5_ESaISG_EE8_M_eraseEPSt13_Rb_tree_nodeISG_E = comdat any

$_ZNSt8_Rb_treeIN9grpc_core9XdsClient14XdsResourceKeyES2_St9_IdentityIS2_ESt4lessIS2_ESaIS2_EE8_M_eraseEPSt13_Rb_tree_nodeIS2_E = comdat any

$_ZNSt8_Rb_treeISt4pairINSt7__cxx1112basic_stringIcSt11char_traitsIcESaIcEEES6_ES0_IKS7_N9grpc_core6XdsApi17ClusterLoadReportEESt10_Select1stISC_ESt4lessIS7_ESaISC_EE8_M_eraseEPSt13_Rb_tree_nodeISC_E = comdat any

$_ZNSt8_Rb_treeINSt7__cxx1112basic_stringIcSt11char_traitsIcESaIcEEES5_St9_IdentityIS5_ESt4lessIS5_ESaIS5_EE8_M_eraseEPSt13_Rb_tree_nodeIS5_E = comdat any

$_ZNSt8_Rb_treeIPKN9grpc_core12XdsBootstrap9XdsServerESt4pairIKS4_NS0_9XdsClient16LoadReportServerEESt10_Select1stIS9_ESt4lessIS4_ESaIS9_EE8_M_eraseEPSt13_Rb_tree_nodeIS9_E = comdat any

$_ZNSt8_Rb_treeINSt7__cxx1112basic_stringIcSt11char_traitsIcESaIcEEESt4pairIKS5_N9grpc_core9XdsClient14AuthorityStateEESt10_Select1stISB_ESt4lessIS5_ESaISB_EE8_M_eraseEPSt13_Rb_tree_nodeISB_E = comdat any

$_ZNSt8_Rb_treeIPKN9grpc_core15XdsResourceTypeESt4pairIKS3_St3mapINS0_9XdsClient14XdsResourceKeyENS7_13ResourceStateESt4lessIS8_ESaIS4_IKS8_S9_EEEESt10_Select1stISG_ESA_IS3_ESaISG_EE8_M_eraseEPSt13_Rb_tree_nodeISG_E = comdat any

$_ZNSt8_Rb_treeIN9grpc_core9XdsClient14XdsResourceKeyESt4pairIKS2_NS1_13ResourceStateEESt10_Select1stIS6_ESt4lessIS2_ESaIS6_EE8_M_eraseEPSt13_Rb_tree_nodeIS6_E = comdat any

$_ZN9grpc_core9XdsClient13ResourceStateD2Ev = comdat any

$_ZNSt8_Rb_treeIPKN9grpc_core12XdsBootstrap9XdsServerESt4pairIKS4_PNS0_9XdsClient12ChannelStateEESt10_Select1stISA_ESt4lessIS4_ESaISA_EE8_M_eraseEPSt13_Rb_tree_nodeISA_E = comdat any

$_ZNSt8_Rb_treeISt17basic_string_viewIcSt11char_traitsIcEESt4pairIKS3_PKN9grpc_core15XdsResourceTypeEESt10_Select1stISA_ESt4lessIS3_ESaISA_EE8_M_eraseEPSt13_Rb_tree_nodeISA_E = comdat any

$_ZN9grpc_core3URID2Ev = comdat any

$_ZNSt8_Rb_treeISt17basic_string_viewIcSt11char_traitsIcEESt4pairIKS3_S3_ESt10_Select1stIS6_ESt4lessIS3_ESaIS6_EE8_M_eraseEPSt13_Rb_tree_nodeIS6_E = comdat any

$_ZNSt8_Rb_treeISt4pairINSt7__cxx1112basic_stringIcSt11char_traitsIcESaIcEEES6_ES0_IKS7_N9grpc_core9XdsClient15LoadReportStateEESt10_Select1stISC_ESt4lessIS7_ESaISC_EE8_M_eraseEPSt13_Rb_tree_nodeISC_E = comdat any

$_ZNSt3mapIN9grpc_core13RefCountedPtrINS0_15XdsLocalityNameEEENS0_9XdsClient15LoadReportState13LocalityStateENS2_4LessESaISt4pairIKS3_S6_EEED2Ev = comdat any

$_ZNSt8_Rb_treeIN9grpc_core13RefCountedPtrINS0_15XdsLocalityNameEEESt4pairIKS3_NS0_9XdsClient15LoadReportState13LocalityStateEESt10_Select1stIS9_ENS2_4LessESaIS9_EE8_M_eraseEPSt13_Rb_tree_nodeIS9_E = comdat any

$_ZNSt3mapINSt7__cxx1112basic_stringIcSt11char_traitsIcESaIcEEEmSt4lessIS5_ESaISt4pairIKS5_mEEEixERS9_ = comdat any

$_ZNSt8_Rb_treeINSt7__cxx1112basic_stringIcSt11char_traitsIcESaIcEEESt4pairIKS5_mESt10_Select1stIS8_ESt4lessIS5_ESaIS8_EE22_M_emplace_hint_uniqueIJRKSt21piecewise_construct_tSt5tupleIJRS7_EESJ_IJEEEEESt17_Rb_tree_iteratorIS8_ESt23_Rb_tree_const_iteratorIS8_EDpOT_ = comdat any

$_ZNSt8_Rb_treeINSt7__cxx1112basic_stringIcSt11char_traitsIcESaIcEEESt4pairIKS5_mESt10_Select1stIS8_ESt4lessIS5_ESaIS8_EE29_M_get_insert_hint_unique_posESt23_Rb_tree_const_iteratorIS8_ERS7_ = comdat any

$_ZNSt8_Rb_treeINSt7__cxx1112basic_stringIcSt11char_traitsIcESaIcEEESt4pairIKS5_mESt10_Select1stIS8_ESt4lessIS5_ESaIS8_EE10_Auto_nodeD2Ev = comdat any

$_ZNSt8_Rb_treeINSt7__cxx1112basic_stringIcSt11char_traitsIcESaIcEEESt4pairIKS5_mESt10_Select1stIS8_ESt4lessIS5_ESaIS8_EE8_M_eraseEPSt13_Rb_tree_nodeIS8_E = comdat any

$_ZNSt3mapINSt7__cxx1112basic_stringIcSt11char_traitsIcESaIcEEEN9grpc_core23XdsClusterLocalityStats13BackendMetricESt4lessIS5_ESaISt4pairIKS5_S8_EEEixERSC_ = comdat any

$_ZNSt8_Rb_treeINSt7__cxx1112basic_stringIcSt11char_traitsIcESaIcEEESt4pairIKS5_N9grpc_core23XdsClusterLocalityStats13BackendMetricEESt10_Select1stISB_ESt4lessIS5_ESaISB_EE22_M_emplace_hint_uniqueIJRKSt21piecewise_construct_tSt5tupleIJRS7_EESM_IJEEEEESt17_Rb_tree_iteratorISB_ESt23_Rb_tree_const_iteratorISB_EDpOT_ = comdat any

$_ZNSt8_Rb_treeINSt7__cxx1112basic_stringIcSt11char_traitsIcESaIcEEESt4pairIKS5_N9grpc_core23XdsClusterLocalityStats13BackendMetricEESt10_Select1stISB_ESt4lessIS5_ESaISB_EE29_M_get_insert_hint_unique_posESt23_Rb_tree_const_iteratorISB_ERS7_ = comdat any

$_ZNSt8_Rb_treeINSt7__cxx1112basic_stringIcSt11char_traitsIcESaIcEEESt4pairIKS5_N9grpc_core23XdsClusterLocalityStats13BackendMetricEESt10_Select1stISB_ESt4lessIS5_ESaISB_EE10_Auto_nodeD2Ev = comdat any

$_ZNSt8_Rb_treeINSt7__cxx1112basic_stringIcSt11char_traitsIcESaIcEEESt4pairIKS5_N9grpc_core23XdsClusterLocalityStats13BackendMetricEESt10_Select1stISB_ESt4lessIS5_ESaISB_EE8_M_eraseEPSt13_Rb_tree_nodeISB_E = comdat any

$_ZNSt8_Rb_treeIN9grpc_core13RefCountedPtrINS0_15XdsLocalityNameEEESt4pairIKS3_NS0_23XdsClusterLocalityStats8SnapshotEESt10_Select1stIS8_ENS2_4LessESaIS8_EE8_M_eraseEPSt13_Rb_tree_nodeIS8_E = comdat any

$_ZNSt8_Rb_treeISt17basic_string_viewIcSt11char_traitsIcEESt4pairIKS3_St3mapINSt7__cxx1112basic_stringIcS2_SaIcEEEPKN9grpc_core6XdsApi16ResourceMetadataESt4lessISA_ESaIS4_IKSA_SF_EEEESt10_Select1stISM_ESG_IS3_ESaISM_EE8_M_eraseEPSt13_Rb_tree_nodeISM_E = comdat any

$_ZNSt8_Rb_treeINSt7__cxx1112basic_stringIcSt11char_traitsIcESaIcEEESt4pairIKS5_PKN9grpc_core6XdsApi16ResourceMetadataEESt10_Select1stISD_ESt4lessIS5_ESaISD_EE8_M_eraseEPSt13_Rb_tree_nodeISD_E = comdat any

$_ZNSt7__cxx1112basic_stringIcSt11char_traitsIcESaIcEE12_M_constructIPKcEEvT_S8_St20forward_iterator_tag = comdat any

$_ZZNSt7__cxx1112basic_stringIcSt11char_traitsIcESaIcEE12_M_constructIPKcEEvT_S8_St20forward_iterator_tagEN6_GuardD2Ev = comdat any

$_ZSt16__do_uninit_copyIN9__gnu_cxx17__normal_iteratorIPKN9grpc_core3URI10QueryParamESt6vectorIS4_SaIS4_EEEEPS4_ET0_T_SD_SC_ = comdat any

$_ZSt8_DestroyIPN9grpc_core3URI10QueryParamEEvT_S4_ = comdat any

$_ZNSt8_Rb_treeINSt7__cxx1112basic_stringIcSt11char_traitsIcESaIcEEESt4pairIKS5_N9grpc_core9XdsClient14AuthorityStateEESt10_Select1stISB_ESt4lessIS5_ESaISB_EE22_M_emplace_hint_uniqueIJRKSt21piecewise_construct_tSt5tupleIJRS7_EESM_IJEEEEESt17_Rb_tree_iteratorISB_ESt23_Rb_tree_const_iteratorISB_EDpOT_ = comdat any

$_ZNSt8_Rb_treeINSt7__cxx1112basic_stringIcSt11char_traitsIcESaIcEEESt4pairIKS5_N9grpc_core9XdsClient14AuthorityStateEESt10_Select1stISB_ESt4lessIS5_ESaISB_EE29_M_get_insert_hint_unique_posESt23_Rb_tree_const_iteratorISB_ERS7_ = comdat any

$_ZNSt8_Rb_treeINSt7__cxx1112basic_stringIcSt11char_traitsIcESaIcEEESt4pairIKS5_N9grpc_core9XdsClient14AuthorityStateEESt10_Select1stISB_ESt4lessIS5_ESaISB_EE10_Auto_nodeD2Ev = comdat any

$_ZNSt8_Rb_treeIPKN9grpc_core15XdsResourceTypeESt4pairIKS3_St3mapINS0_9XdsClient14XdsResourceKeyENS7_13ResourceStateESt4lessIS8_ESaIS4_IKS8_S9_EEEESt10_Select1stISG_ESA_IS3_ESaISG_EE22_M_emplace_hint_uniqueIJRKSt21piecewise_construct_tSt5tupleIJRS5_EESQ_IJEEEEESt17_Rb_tree_iteratorISG_ESt23_Rb_tree_const_iteratorISG_EDpOT_ = comdat any

$_ZNSt8_Rb_treeIPKN9grpc_core15XdsResourceTypeESt4pairIKS3_St3mapINS0_9XdsClient14XdsResourceKeyENS7_13ResourceStateESt4lessIS8_ESaIS4_IKS8_S9_EEEESt10_Select1stISG_ESA_IS3_ESaISG_EE29_M_get_insert_hint_unique_posESt23_Rb_tree_const_iteratorISG_ERS5_ = comdat any

$_ZNSt8_Rb_treeIPKN9grpc_core15XdsResourceTypeESt4pairIKS3_St3mapINS0_9XdsClient14XdsResourceKeyENS7_13ResourceStateESt4lessIS8_ESaIS4_IKS8_S9_EEEESt10_Select1stISG_ESA_IS3_ESaISG_EE10_Auto_nodeD2Ev = comdat any

$_ZNSt8_Rb_treeIN9grpc_core9XdsClient14XdsResourceKeyESt4pairIKS2_NS1_13ResourceStateEESt10_Select1stIS6_ESt4lessIS2_ESaIS6_EE22_M_emplace_hint_uniqueIJRKSt21piecewise_construct_tSt5tupleIJRS4_EESH_IJEEEEESt17_Rb_tree_iteratorIS6_ESt23_Rb_tree_const_iteratorIS6_EDpOT_ = comdat any

$_ZSt30__lexicographical_compare_implIPKN9grpc_core3URI10QueryParamES4_N9__gnu_cxx5__ops15_Iter_less_iterEEbT_S8_T0_S9_T1_ = comdat any

$_ZNSt8_Rb_treeIN9grpc_core9XdsClient14XdsResourceKeyESt4pairIKS2_NS1_13ResourceStateEESt10_Select1stIS6_ESt4lessIS2_ESaIS6_EE29_M_get_insert_hint_unique_posESt23_Rb_tree_const_iteratorIS6_ERS4_ = comdat any

$_ZNSt8_Rb_treeIN9grpc_core9XdsClient14XdsResourceKeyESt4pairIKS2_NS1_13ResourceStateEESt10_Select1stIS6_ESt4lessIS2_ESaIS6_EE10_Auto_nodeD2Ev = comdat any

$_ZNSt8_Rb_treeIN9grpc_core9XdsClient14XdsResourceKeyESt4pairIKS2_NS1_13ResourceStateEESt10_Select1stIS6_ESt4lessIS2_ESaIS6_EE17_M_construct_nodeIJRKSt21piecewise_construct_tSt5tupleIJRS4_EESH_IJEEEEEvPSt13_Rb_tree_nodeIS6_EDpOT_ = comdat any

$_ZNSt8_Rb_treeIN9grpc_core9XdsClient14XdsResourceKeyESt4pairIKS2_NS1_13ResourceStateEESt10_Select1stIS6_ESt4lessIS2_ESaIS6_EE24_M_get_insert_unique_posERS4_ = comdat any

$_ZNSt8_Rb_treeIPKN9grpc_core12XdsBootstrap9XdsServerESt4pairIKS4_PNS0_9XdsClient12ChannelStateEESt10_Select1stISA_ESt4lessIS4_ESaISA_EE5eraseERS6_ = comdat any

$_ZN9grpc_core9XdsClient12ChannelState13RetryableCallINS1_12LrsCallStateEE18StartNewCallLockedEv = comdat any

$_ZNSt10unique_ptrIN9grpc_core9XdsClient12ChannelState12LrsCallStateENS0_16OrphanableDeleteEED2Ev = comdat any

$_ZN9grpc_core9XdsClient12ChannelState13RetryableCallINS1_12LrsCallStateEE6OrphanEv = comdat any

$_ZN9grpc_core9XdsClient12ChannelState13RetryableCallINS1_12LrsCallStateEED2Ev = comdat any

$_ZN9grpc_core9XdsClient12ChannelState13RetryableCallINS1_12LrsCallStateEED0Ev = comdat any

$_ZNSt8_Rb_treeIPKN9grpc_core12XdsBootstrap9XdsServerESt4pairIKS4_NS0_9XdsClient16LoadReportServerEESt10_Select1stIS9_ESt4lessIS4_ESaIS9_EE5eraseERS6_ = comdat any

$_ZNSt8_Rb_treeIPKN9grpc_core12XdsBootstrap9XdsServerESt4pairIKS4_NS0_9XdsClient16LoadReportServerEESt10_Select1stIS9_ESt4lessIS4_ESaIS9_EE12_M_erase_auxESt23_Rb_tree_const_iteratorIS9_E = comdat any

$_ZN9grpc_core9XdsClient12ChannelState13RetryableCallINS1_12AdsCallStateEE18StartNewCallLockedEv = comdat any

$_ZNSt10unique_ptrIN9grpc_core9XdsClient12ChannelState12AdsCallStateENS0_16OrphanableDeleteEED2Ev = comdat any

$_ZN9grpc_core9XdsClient12ChannelState13RetryableCallINS1_12AdsCallStateEE6OrphanEv = comdat any

$_ZN9grpc_core9XdsClient12ChannelState13RetryableCallINS1_12AdsCallStateEED2Ev = comdat any

$_ZN9grpc_core9XdsClient12ChannelState13RetryableCallINS1_12AdsCallStateEED0Ev = comdat any

$_ZNSt8_Rb_treeIN9grpc_core13RefCountedPtrINS0_9XdsClient24ResourceWatcherInterfaceEEES4_St9_IdentityIS4_ESt4lessIS4_ESaIS4_EE7_M_copyILb0ENSA_11_Alloc_nodeEEEPSt13_Rb_tree_nodeIS4_ESF_PSt18_Rb_tree_node_baseRT0_ = comdat any

$_ZNSt6vectorINSt7__cxx1112basic_stringIcSt11char_traitsIcESaIcEEESaIS5_EE17_M_realloc_insertIJS5_EEEvN9__gnu_cxx17__normal_iteratorIPS5_S7_EEDpOT_ = comdat any

$_ZNSt8_Rb_treeIN9grpc_core9XdsClient14XdsResourceKeyESt4pairIKS2_St10unique_ptrINS1_12ChannelState12AdsCallState13ResourceTimerENS0_16OrphanableDeleteEEESt10_Select1stISB_ESt4lessIS2_ESaISB_EE4findERS4_ = comdat any

$_ZNSt8_Rb_treeIN9grpc_core9XdsClient14XdsResourceKeyESt4pairIKS2_NS1_13ResourceStateEESt10_Select1stIS6_ESt4lessIS2_ESaIS6_EE4findERS4_ = comdat any

$_ZNSt8_Rb_treeINSt7__cxx1112basic_stringIcSt11char_traitsIcESaIcEEESt4pairIKS5_St3setIN9grpc_core9XdsClient14XdsResourceKeyESt4lessISB_ESaISB_EEESt10_Select1stISG_ESC_IS5_ESaISG_EE22_M_emplace_hint_uniqueIJRKSt21piecewise_construct_tSt5tupleIJRS7_EESQ_IJEEEEESt17_Rb_tree_iteratorISG_ESt23_Rb_tree_const_iteratorISG_EDpOT_ = comdat any

$_ZNSt8_Rb_treeINSt7__cxx1112basic_stringIcSt11char_traitsIcESaIcEEESt4pairIKS5_St3setIN9grpc_core9XdsClient14XdsResourceKeyESt4lessISB_ESaISB_EEESt10_Select1stISG_ESC_IS5_ESaISG_EE29_M_get_insert_hint_unique_posESt23_Rb_tree_const_iteratorISG_ERS7_ = comdat any

$_ZNSt8_Rb_treeINSt7__cxx1112basic_stringIcSt11char_traitsIcESaIcEEESt4pairIKS5_St3setIN9grpc_core9XdsClient14XdsResourceKeyESt4lessISB_ESaISB_EEESt10_Select1stISG_ESC_IS5_ESaISG_EE10_Auto_nodeD2Ev = comdat any

$_ZNSt8_Rb_treeIN9grpc_core9XdsClient14XdsResourceKeyES2_St9_IdentityIS2_ESt4lessIS2_ESaIS2_EE24_M_get_insert_unique_posERKS2_ = comdat any

$_ZNSt8_Rb_treeIN9grpc_core9XdsClient14XdsResourceKeyES2_St9_IdentityIS2_ESt4lessIS2_ESaIS2_EE10_M_insert_IRKS2_NS8_11_Alloc_nodeEEESt17_Rb_tree_iteratorIS2_EPSt18_Rb_tree_node_baseSG_OT_RT0_ = comdat any

$_ZN9grpc_core9XdsClient12ChannelState12AdsCallState18StreamEventHandlerD2Ev = comdat any

$_ZN9grpc_core9XdsClient12ChannelState12AdsCallState18StreamEventHandlerD0Ev = comdat any

$_ZN9grpc_core9XdsClient12ChannelState12AdsCallState18StreamEventHandler13OnRequestSentEb = comdat any

$_ZN9grpc_core9XdsClient12ChannelState12AdsCallState18StreamEventHandler13OnRecvMessageESt17basic_string_viewIcSt11char_traitsIcEE = comdat any

$_ZN9grpc_core9XdsClient12ChannelState12AdsCallState18StreamEventHandler16OnStatusReceivedEN4absl12lts_202308026StatusE = comdat any

$_ZNSt8_Rb_treeIPKN9grpc_core15XdsResourceTypeESt4pairIKS3_NS0_9XdsClient12ChannelState12AdsCallState17ResourceTypeStateEESt10_Select1stISA_ESt4lessIS3_ESaISA_EE22_M_emplace_hint_uniqueIJRKSt21piecewise_construct_tSt5tupleIJRS5_EESL_IJEEEEESt17_Rb_tree_iteratorISA_ESt23_Rb_tree_const_iteratorISA_EDpOT_ = comdat any

$_ZNSt8_Rb_treeIPKN9grpc_core15XdsResourceTypeESt4pairIKS3_NS0_9XdsClient12ChannelState12AdsCallState17ResourceTypeStateEESt10_Select1stISA_ESt4lessIS3_ESaISA_EE29_M_get_insert_hint_unique_posESt23_Rb_tree_const_iteratorISA_ERS5_ = comdat any

$_ZNSt8_Rb_treeIPKN9grpc_core15XdsResourceTypeESt4pairIKS3_NS0_9XdsClient12ChannelState12AdsCallState17ResourceTypeStateEESt10_Select1stISA_ESt4lessIS3_ESaISA_EE10_Auto_nodeD2Ev = comdat any

$_ZNSt8_Rb_treeIPKN9grpc_core15XdsResourceTypeESt4pairIKS3_NSt7__cxx1112basic_stringIcSt11char_traitsIcESaIcEEEESt10_Select1stISC_ESt4lessIS3_ESaISC_EE22_M_emplace_hint_uniqueIJRKSt21piecewise_construct_tSt5tupleIJRS5_EESN_IJEEEEESt17_Rb_tree_iteratorISC_ESt23_Rb_tree_const_iteratorISC_EDpOT_ = comdat any

$_ZNSt8_Rb_treeIPKN9grpc_core15XdsResourceTypeESt4pairIKS3_NSt7__cxx1112basic_stringIcSt11char_traitsIcESaIcEEEESt10_Select1stISC_ESt4lessIS3_ESaISC_EE29_M_get_insert_hint_unique_posESt23_Rb_tree_const_iteratorISC_ERS5_ = comdat any

$_ZNSt8_Rb_treeIPKN9grpc_core15XdsResourceTypeESt4pairIKS3_NSt7__cxx1112basic_stringIcSt11char_traitsIcESaIcEEEESt10_Select1stISC_ESt4lessIS3_ESaISC_EE10_Auto_nodeD2Ev = comdat any

$_ZNSt8_Rb_treeINSt7__cxx1112basic_stringIcSt11char_traitsIcESaIcEEESt4pairIKS5_St3mapIN9grpc_core9XdsClient14XdsResourceKeyESt10unique_ptrINSA_12ChannelState12AdsCallState13ResourceTimerENS9_16OrphanableDeleteEESt4lessISB_ESaIS6_IKSB_SH_EEEESt10_Select1stISO_ESI_IS5_ESaISO_EE22_M_emplace_hint_uniqueIJRKSt21piecewise_construct_tSt5tupleIJRS7_EESY_IJEEEEESt17_Rb_tree_iteratorISO_ESt23_Rb_tree_const_iteratorISO_EDpOT_ = comdat any

$_ZNSt8_Rb_treeINSt7__cxx1112basic_stringIcSt11char_traitsIcESaIcEEESt4pairIKS5_St3mapIN9grpc_core9XdsClient14XdsResourceKeyESt10unique_ptrINSA_12ChannelState12AdsCallState13ResourceTimerENS9_16OrphanableDeleteEESt4lessISB_ESaIS6_IKSB_SH_EEEESt10_Select1stISO_ESI_IS5_ESaISO_EE29_M_get_insert_hint_unique_posESt23_Rb_tree_const_iteratorISO_ERS7_ = comdat any

$_ZNSt8_Rb_treeINSt7__cxx1112basic_stringIcSt11char_traitsIcESaIcEEESt4pairIKS5_St3mapIN9grpc_core9XdsClient14XdsResourceKeyESt10unique_ptrINSA_12ChannelState12AdsCallState13ResourceTimerENS9_16OrphanableDeleteEESt4lessISB_ESaIS6_IKSB_SH_EEEESt10_Select1stISO_ESI_IS5_ESaISO_EE10_Auto_nodeD2Ev = comdat any

$_ZNSt8_Rb_treeIN9grpc_core9XdsClient14XdsResourceKeyESt4pairIKS2_St10unique_ptrINS1_12ChannelState12AdsCallState13ResourceTimerENS0_16OrphanableDeleteEEESt10_Select1stISB_ESt4lessIS2_ESaISB_EE22_M_emplace_hint_uniqueIJRKSt21piecewise_construct_tSt5tupleIJRS4_EESM_IJEEEEESt17_Rb_tree_iteratorISB_ESt23_Rb_tree_const_iteratorISB_EDpOT_ = comdat any

$_ZNSt8_Rb_treeIN9grpc_core9XdsClient14XdsResourceKeyESt4pairIKS2_St10unique_ptrINS1_12ChannelState12AdsCallState13ResourceTimerENS0_16OrphanableDeleteEEESt10_Select1stISB_ESt4lessIS2_ESaISB_EE29_M_get_insert_hint_unique_posESt23_Rb_tree_const_iteratorISB_ERS4_ = comdat any

$_ZNSt8_Rb_treeIN9grpc_core9XdsClient14XdsResourceKeyESt4pairIKS2_St10unique_ptrINS1_12ChannelState12AdsCallState13ResourceTimerENS0_16OrphanableDeleteEEESt10_Select1stISB_ESt4lessIS2_ESaISB_EE24_M_get_insert_unique_posERS4_ = comdat any

$_ZN9grpc_core9XdsClient12ChannelState12AdsCallState13ResourceTimer6OrphanEv = comdat any

$_ZN9grpc_core9XdsClient12ChannelState12AdsCallState13ResourceTimerD2Ev = comdat any

$_ZN9grpc_core9XdsClient12ChannelState12AdsCallState13ResourceTimerD0Ev = comdat any

$_ZNSt8_Rb_treeIN9grpc_core9XdsClient14XdsResourceKeyESt4pairIKS2_St10unique_ptrINS1_12ChannelState12AdsCallState13ResourceTimerENS0_16OrphanableDeleteEEESt10_Select1stISB_ESt4lessIS2_ESaISB_EE5eraseERS4_ = comdat any

$_ZNSt8_Rb_treeIN9grpc_core9XdsClient14XdsResourceKeyESt4pairIKS2_St10unique_ptrINS1_12ChannelState12AdsCallState13ResourceTimerENS0_16OrphanableDeleteEEESt10_Select1stISB_ESt4lessIS2_ESaISB_EE11equal_rangeERS4_ = comdat any

$_ZNSt8_Rb_treeINSt7__cxx1112basic_stringIcSt11char_traitsIcESaIcEEESt4pairIKS5_St3mapIN9grpc_core9XdsClient14XdsResourceKeyESt10unique_ptrINSA_12ChannelState12AdsCallState13ResourceTimerENS9_16OrphanableDeleteEESt4lessISB_ESaIS6_IKSB_SH_EEEESt10_Select1stISO_ESI_IS5_ESaISO_EE11equal_rangeERS7_ = comdat any

$_ZNSt8_Rb_treeINSt7__cxx1112basic_stringIcSt11char_traitsIcESaIcEEESt4pairIKS5_St3mapIN9grpc_core9XdsClient14XdsResourceKeyESt10unique_ptrINSA_12ChannelState12AdsCallState13ResourceTimerENS9_16OrphanableDeleteEESt4lessISB_ESaIS6_IKSB_SH_EEEESt10_Select1stISO_ESI_IS5_ESaISO_EE12_M_erase_auxESt23_Rb_tree_const_iteratorISO_ESV_ = comdat any

$_ZN4absl12lts_2023080216strings_internal13JoinAlgorithmIN9__gnu_cxx17__normal_iteratorIPKNSt7__cxx1112basic_stringIcSt11char_traitsIcESaIcEEESt6vectorISA_SaISA_EEEEvEESA_T_SH_St17basic_string_viewIcS8_ENS1_11NoFormatterE = comdat any

$_ZNSt8_Rb_treeIN9grpc_core9XdsClient14XdsResourceKeyES2_St9_IdentityIS2_ESt4lessIS2_ESaIS2_EE4findERKS2_ = comdat any

$_ZN9grpc_core9XdsClient12ChannelState13RetryableCallINS1_12AdsCallStateEE21StartRetryTimerLockedEv = comdat any

$_ZN4absl12lts_2023080222internal_any_invocable12LocalInvokerILb0EvRZN9grpc_core9XdsClient12ChannelState13RetryableCallINS5_12AdsCallStateEE21StartRetryTimerLockedEvEUlvE_JEEET0_PNS1_15TypeErasedStateEDpNS1_18ForwardedParameterIT2_E4typeE = comdat any

$_ZZN9grpc_core9XdsClient12ChannelState13RetryableCallINS1_12AdsCallStateEE21StartRetryTimerLockedEvENKUlvE_clEv = comdat any

$_ZN9grpc_core9XdsClient12ChannelState13RetryableCallINS1_12AdsCallStateEE12OnRetryTimerEv = comdat any

$_ZN4absl12lts_2023080222internal_any_invocable22LocalManagerNontrivialIZN9grpc_core9XdsClient12ChannelState13RetryableCallINS5_12AdsCallStateEE21StartRetryTimerLockedEvEUlvE_EEvNS1_14FunctionToCallEPNS1_15TypeErasedStateESC_ = comdat any

$_ZN4absl12lts_2023080222internal_any_invocable19LocalManagerTrivialENS1_14FunctionToCallEPNS1_15TypeErasedStateES4_ = comdat any

$_ZN9grpc_core9XdsClient12ChannelState12LrsCallState18StreamEventHandlerD2Ev = comdat any

$_ZN9grpc_core9XdsClient12ChannelState12LrsCallState18StreamEventHandlerD0Ev = comdat any

$_ZN9grpc_core9XdsClient12ChannelState12LrsCallState18StreamEventHandler13OnRequestSentEb = comdat any

$_ZN9grpc_core9XdsClient12ChannelState12LrsCallState18StreamEventHandler13OnRecvMessageESt17basic_string_viewIcSt11char_traitsIcEE = comdat any

$_ZN9grpc_core9XdsClient12ChannelState12LrsCallState18StreamEventHandler16OnStatusReceivedEN4absl12lts_202308026StatusE = comdat any

$_ZNSt7__equalILb0EE5equalISt23_Rb_tree_const_iteratorINSt7__cxx1112basic_stringIcSt11char_traitsIcESaIcEEEES9_EEbT_SA_T0_ = comdat any

$_ZN9grpc_core9XdsClient12ChannelState13RetryableCallINS1_12LrsCallStateEE21StartRetryTimerLockedEv = comdat any

$_ZN4absl12lts_2023080222internal_any_invocable12LocalInvokerILb0EvRZN9grpc_core9XdsClient12ChannelState13RetryableCallINS5_12LrsCallStateEE21StartRetryTimerLockedEvEUlvE_JEEET0_PNS1_15TypeErasedStateEDpNS1_18ForwardedParameterIT2_E4typeE = comdat any

$_ZZN9grpc_core9XdsClient12ChannelState13RetryableCallINS1_12LrsCallStateEE21StartRetryTimerLockedEvENKUlvE_clEv = comdat any

$_ZN9grpc_core9XdsClient12ChannelState13RetryableCallINS1_12LrsCallStateEE12OnRetryTimerEv = comdat any

$_ZN4absl12lts_2023080222internal_any_invocable22LocalManagerNontrivialIZN9grpc_core9XdsClient12ChannelState13RetryableCallINS5_12LrsCallStateEE21StartRetryTimerLockedEvEUlvE_EEvNS1_14FunctionToCallEPNS1_15TypeErasedStateESC_ = comdat any

$_ZNSt8_Rb_treeIPKN9grpc_core12XdsBootstrap9XdsServerESt4pairIKS4_PNS0_9XdsClient12ChannelStateEESt10_Select1stISA_ESt4lessIS4_ESaISA_EE29_M_get_insert_hint_unique_posESt23_Rb_tree_const_iteratorISA_ERS6_ = comdat any

$_ZNSt8_Rb_treeIPN9grpc_core9XdsClient24ResourceWatcherInterfaceESt4pairIKS3_NS0_13RefCountedPtrIS2_EEESt10_Select1stIS8_ESt4lessIS3_ESaIS8_EE22_M_emplace_hint_uniqueIJRKSt21piecewise_construct_tSt5tupleIJRS5_EESJ_IJEEEEESt17_Rb_tree_iteratorIS8_ESt23_Rb_tree_const_iteratorIS8_EDpOT_ = comdat any

$_ZNSt8_Rb_treeIPN9grpc_core9XdsClient24ResourceWatcherInterfaceESt4pairIKS3_NS0_13RefCountedPtrIS2_EEESt10_Select1stIS8_ESt4lessIS3_ESaIS8_EE29_M_get_insert_hint_unique_posESt23_Rb_tree_const_iteratorIS8_ERS5_ = comdat any

$_ZNSt8_Rb_treeIPN9grpc_core9XdsClient24ResourceWatcherInterfaceESt4pairIKS3_NS0_13RefCountedPtrIS2_EEESt10_Select1stIS8_ESt4lessIS3_ESaIS8_EE10_Auto_nodeD2Ev = comdat any

$_ZNSt8_Rb_treeIPN9grpc_core9XdsClient24ResourceWatcherInterfaceESt4pairIKS3_NS0_13RefCountedPtrIS2_EEESt10_Select1stIS8_ESt4lessIS3_ESaIS8_EE12_M_erase_auxESt23_Rb_tree_const_iteratorIS8_ESG_ = comdat any

$_ZNSt8_Rb_treeIN9grpc_core9XdsClient14XdsResourceKeyESt4pairIKS2_NS1_13ResourceStateEESt10_Select1stIS6_ESt4lessIS2_ESaIS6_EE12_M_erase_auxESt23_Rb_tree_const_iteratorIS6_E = comdat any

$_ZNSt8_Rb_treeISt17basic_string_viewIcSt11char_traitsIcEESt4pairIKS3_PKN9grpc_core15XdsResourceTypeEESt10_Select1stISA_ESt4lessIS3_ESaISA_EE22_M_emplace_hint_uniqueIJS3_RS9_EEESt17_Rb_tree_iteratorISA_ESt23_Rb_tree_const_iteratorISA_EDpOT_ = comdat any

$_ZNSt8_Rb_treeISt17basic_string_viewIcSt11char_traitsIcEESt4pairIKS3_PKN9grpc_core15XdsResourceTypeEESt10_Select1stISA_ESt4lessIS3_ESaISA_EE29_M_get_insert_hint_unique_posESt23_Rb_tree_const_iteratorISA_ERS5_ = comdat any

$_ZNSt8_Rb_treeISt17basic_string_viewIcSt11char_traitsIcEESt4pairIKS3_PKN9grpc_core15XdsResourceTypeEESt10_Select1stISA_ESt4lessIS3_ESaISA_EE24_M_get_insert_unique_posERS5_ = comdat any

$_ZNK4absl12lts_2023080216strings_internal8SplitterINS1_13MaxSplitsImplINS0_6ByCharEEENS0_10AllowEmptyESt17basic_string_viewIcSt11char_traitsIcEEE13ConvertToPairISA_SA_EESt4pairIT_T0_Ev = comdat any

$_ZNSt6vectorIN9grpc_core3URI10QueryParamESaIS2_EE17_M_realloc_insertIJS2_EEEvN9__gnu_cxx17__normal_iteratorIPS2_S4_EEDpOT_ = comdat any

$_ZNSt8_Rb_treeIPKN9grpc_core12XdsBootstrap9XdsServerESt4pairIKS4_NS0_9XdsClient16LoadReportServerEESt10_Select1stIS9_ESt4lessIS4_ESaIS9_EE22_M_emplace_hint_uniqueIJRS4_S8_EEESt17_Rb_tree_iteratorIS9_ESt23_Rb_tree_const_iteratorIS9_EDpOT_ = comdat any

$_ZNSt8_Rb_treeIPKN9grpc_core12XdsBootstrap9XdsServerESt4pairIKS4_NS0_9XdsClient16LoadReportServerEESt10_Select1stIS9_ESt4lessIS4_ESaIS9_EE29_M_get_insert_hint_unique_posESt23_Rb_tree_const_iteratorIS9_ERS6_ = comdat any

$_ZNSt8_Rb_treeIPKN9grpc_core12XdsBootstrap9XdsServerESt4pairIKS4_NS0_9XdsClient16LoadReportServerEESt10_Select1stIS9_ESt4lessIS4_ESaIS9_EE10_Auto_nodeD2Ev = comdat any

$_ZNSt8_Rb_treeISt4pairINSt7__cxx1112basic_stringIcSt11char_traitsIcESaIcEEES6_ES0_IKS7_N9grpc_core9XdsClient15LoadReportStateEESt10_Select1stISC_ESt4lessIS7_ESaISC_EE11lower_boundERS8_ = comdat any

$_ZNSt8_Rb_treeISt4pairINSt7__cxx1112basic_stringIcSt11char_traitsIcESaIcEEES6_ES0_IKS7_N9grpc_core9XdsClient15LoadReportStateEESt10_Select1stISC_ESt4lessIS7_ESaISC_EE29_M_get_insert_hint_unique_posESt23_Rb_tree_const_iteratorISC_ERS8_ = comdat any

$_ZNSt8_Rb_treeISt4pairINSt7__cxx1112basic_stringIcSt11char_traitsIcESaIcEEES6_ES0_IKS7_N9grpc_core9XdsClient15LoadReportStateEESt10_Select1stISC_ESt4lessIS7_ESaISC_EE10_Auto_nodeD2Ev = comdat any

$_ZNSt4pairIKS_INSt7__cxx1112basic_stringIcSt11char_traitsIcESaIcEEES5_EN9grpc_core9XdsClient15LoadReportStateEEC2IS6_SA_TnNSt9enable_ifIXaaclsr5_PCCPE22_MoveConstructiblePairIT_T0_EEclsr5_PCCPE30_ImplicitlyMoveConvertiblePairISE_SF_EEEbE4typeELb1EEEOSE_OSF_ = comdat any

$_ZNSt8_Rb_treeISt4pairINSt7__cxx1112basic_stringIcSt11char_traitsIcESaIcEEES6_ES0_IKS7_N9grpc_core9XdsClient15LoadReportStateEESt10_Select1stISC_ESt4lessIS7_ESaISC_EE24_M_get_insert_unique_posERS8_ = comdat any

$_ZNSt8_Rb_treeISt4pairINSt7__cxx1112basic_stringIcSt11char_traitsIcESaIcEEES6_ES0_IKS7_N9grpc_core9XdsClient15LoadReportStateEESt10_Select1stISC_ESt4lessIS7_ESaISC_EE14_M_insert_nodeEPSt18_Rb_tree_node_baseSK_PSt13_Rb_tree_nodeISC_E = comdat any

$_ZNSt8_Rb_treeISt4pairINSt7__cxx1112basic_stringIcSt11char_traitsIcESaIcEEES6_ES0_IKS7_N9grpc_core9XdsClient15LoadReportStateEESt10_Select1stISC_ESt4lessIS7_ESaISC_EE4findERS8_ = comdat any

$_ZNSt8_Rb_treeIN9grpc_core13RefCountedPtrINS0_15XdsLocalityNameEEESt4pairIKS3_NS0_9XdsClient15LoadReportState13LocalityStateEESt10_Select1stIS9_ENS2_4LessESaIS9_EE22_M_emplace_hint_uniqueIJRKSt21piecewise_construct_tSt5tupleIJRS5_EESJ_IJEEEEESt17_Rb_tree_iteratorIS9_ESt23_Rb_tree_const_iteratorIS9_EDpOT_ = comdat any

$_ZNSt8_Rb_treeIN9grpc_core13RefCountedPtrINS0_15XdsLocalityNameEEESt4pairIKS3_NS0_9XdsClient15LoadReportState13LocalityStateEESt10_Select1stIS9_ENS2_4LessESaIS9_EE29_M_get_insert_hint_unique_posESt23_Rb_tree_const_iteratorIS9_ERS5_ = comdat any

$_ZNSt8_Rb_treeIN9grpc_core13RefCountedPtrINS0_15XdsLocalityNameEEESt4pairIKS3_NS0_9XdsClient15LoadReportState13LocalityStateEESt10_Select1stIS9_ENS2_4LessESaIS9_EE10_Auto_nodeD2Ev = comdat any

$_ZNSt8_Rb_treeIN9grpc_core13RefCountedPtrINS0_15XdsLocalityNameEEESt4pairIKS3_NS0_9XdsClient15LoadReportState13LocalityStateEESt10_Select1stIS9_ENS2_4LessESaIS9_EE24_M_get_insert_unique_posERS5_ = comdat any

$_ZNSt8_Rb_treeIN9grpc_core13RefCountedPtrINS0_15XdsLocalityNameEEESt4pairIKS3_NS0_9XdsClient15LoadReportState13LocalityStateEESt10_Select1stIS9_ENS2_4LessESaIS9_EE4findERS5_ = comdat any

$_ZNSt8_Rb_treeIN9grpc_core13RefCountedPtrINS0_15XdsLocalityNameEEESt4pairIKS3_NS0_23XdsClusterLocalityStats8SnapshotEESt10_Select1stIS8_ENS2_4LessESaIS8_EE22_M_emplace_hint_uniqueIJRKSt21piecewise_construct_tSt5tupleIJRS5_EESI_IJEEEEESt17_Rb_tree_iteratorIS8_ESt23_Rb_tree_const_iteratorIS8_EDpOT_ = comdat any

$_ZNSt8_Rb_treeIN9grpc_core13RefCountedPtrINS0_15XdsLocalityNameEEESt4pairIKS3_NS0_23XdsClusterLocalityStats8SnapshotEESt10_Select1stIS8_ENS2_4LessESaIS8_EE29_M_get_insert_hint_unique_posESt23_Rb_tree_const_iteratorIS8_ERS5_ = comdat any

$_ZNSt8_Rb_treeIN9grpc_core13RefCountedPtrINS0_15XdsLocalityNameEEESt4pairIKS3_NS0_23XdsClusterLocalityStats8SnapshotEESt10_Select1stIS8_ENS2_4LessESaIS8_EE10_Auto_nodeD2Ev = comdat any

$_ZNSt8_Rb_treeIN9grpc_core13RefCountedPtrINS0_15XdsLocalityNameEEESt4pairIKS3_NS0_23XdsClusterLocalityStats8SnapshotEESt10_Select1stIS8_ENS2_4LessESaIS8_EE24_M_get_insert_unique_posERS5_ = comdat any

$_ZNSt8_Rb_treeISt4pairINSt7__cxx1112basic_stringIcSt11char_traitsIcESaIcEEES6_ES0_IKS7_N9grpc_core6XdsApi17ClusterLoadReportEESt10_Select1stISC_ESt4lessIS7_ESaISC_EE11lower_boundERS8_ = comdat any

$_ZNSt8_Rb_treeISt4pairINSt7__cxx1112basic_stringIcSt11char_traitsIcESaIcEEES6_ES0_IKS7_N9grpc_core6XdsApi17ClusterLoadReportEESt10_Select1stISC_ESt4lessIS7_ESaISC_EE29_M_get_insert_hint_unique_posESt23_Rb_tree_const_iteratorISC_ERS8_ = comdat any

$_ZNSt8_Rb_treeISt4pairINSt7__cxx1112basic_stringIcSt11char_traitsIcESaIcEEES6_ES0_IKS7_N9grpc_core6XdsApi17ClusterLoadReportEESt10_Select1stISC_ESt4lessIS7_ESaISC_EE10_Auto_nodeD2Ev = comdat any

$_ZNSt8_Rb_treeISt4pairINSt7__cxx1112basic_stringIcSt11char_traitsIcESaIcEEES6_ES0_IKS7_N9grpc_core6XdsApi17ClusterLoadReportEESt10_Select1stISC_ESt4lessIS7_ESaISC_EE17_M_construct_nodeIJRKSt21piecewise_construct_tSt5tupleIJRS8_EESN_IJEEEEEvPSt13_Rb_tree_nodeISC_EDpOT_ = comdat any

$_ZNSt8_Rb_treeISt4pairINSt7__cxx1112basic_stringIcSt11char_traitsIcESaIcEEES6_ES0_IKS7_N9grpc_core6XdsApi17ClusterLoadReportEESt10_Select1stISC_ESt4lessIS7_ESaISC_EE24_M_get_insert_unique_posERS8_ = comdat any

$_ZNSt8_Rb_treeISt4pairINSt7__cxx1112basic_stringIcSt11char_traitsIcESaIcEEES6_ES0_IKS7_N9grpc_core6XdsApi17ClusterLoadReportEESt10_Select1stISC_ESt4lessIS7_ESaISC_EE14_M_insert_nodeEPSt18_Rb_tree_node_baseSK_PSt13_Rb_tree_nodeISC_E = comdat any

$_ZNSt8_Rb_treeISt4pairINSt7__cxx1112basic_stringIcSt11char_traitsIcESaIcEEES6_ES0_IKS7_N9grpc_core9XdsClient15LoadReportStateEESt10_Select1stISC_ESt4lessIS7_ESaISC_EE12_M_erase_auxESt23_Rb_tree_const_iteratorISC_E = comdat any

$_ZNSt8_Rb_treeISt17basic_string_viewIcSt11char_traitsIcEESt4pairIKS3_St3mapINSt7__cxx1112basic_stringIcS2_SaIcEEEPKN9grpc_core6XdsApi16ResourceMetadataESt4lessISA_ESaIS4_IKSA_SF_EEEESt10_Select1stISM_ESG_IS3_ESaISM_EE29_M_get_insert_hint_unique_posESt23_Rb_tree_const_iteratorISM_ERS5_ = comdat any

$_ZNSt8_Rb_treeISt17basic_string_viewIcSt11char_traitsIcEESt4pairIKS3_St3mapINSt7__cxx1112basic_stringIcS2_SaIcEEEPKN9grpc_core6XdsApi16ResourceMetadataESt4lessISA_ESaIS4_IKSA_SF_EEEESt10_Select1stISM_ESG_IS3_ESaISM_EE10_Auto_nodeD2Ev = comdat any

$_ZNSt8_Rb_treeISt17basic_string_viewIcSt11char_traitsIcEESt4pairIKS3_St3mapINSt7__cxx1112basic_stringIcS2_SaIcEEEPKN9grpc_core6XdsApi16ResourceMetadataESt4lessISA_ESaIS4_IKSA_SF_EEEESt10_Select1stISM_ESG_IS3_ESaISM_EE24_M_get_insert_unique_posERS5_ = comdat any

$_ZNSt8_Rb_treeINSt7__cxx1112basic_stringIcSt11char_traitsIcESaIcEEESt4pairIKS5_PKN9grpc_core6XdsApi16ResourceMetadataEESt10_Select1stISD_ESt4lessIS5_ESaISD_EE29_M_get_insert_hint_unique_posESt23_Rb_tree_const_iteratorISD_ERS7_ = comdat any

$_ZNSt8_Rb_treeINSt7__cxx1112basic_stringIcSt11char_traitsIcESaIcEEESt4pairIKS5_PKN9grpc_core6XdsApi16ResourceMetadataEESt10_Select1stISD_ESt4lessIS5_ESaISD_EE10_Auto_nodeD2Ev = comdat any

$_ZTSN9grpc_core6XdsApi26AdsResponseParserInterfaceE = comdat any

$_ZTIN9grpc_core6XdsApi26AdsResponseParserInterfaceE = comdat any

$_ZTSN9grpc_core20InternallyRefCountedINS_9XdsClient12ChannelState12LrsCallState8ReporterENS_11UnrefDeleteEEE = comdat any

$_ZTSN9grpc_core10OrphanableE = comdat any

$_ZTIN9grpc_core10OrphanableE = comdat any

$_ZTIN9grpc_core20InternallyRefCountedINS_9XdsClient12ChannelState12LrsCallState8ReporterENS_11UnrefDeleteEEE = comdat any

$_ZTSN9grpc_core14DualRefCountedINS_9XdsClient12ChannelStateEEE = comdat any

$_ZTIN9grpc_core14DualRefCountedINS_9XdsClient12ChannelStateEEE = comdat any

$_ZTSN9grpc_core20InternallyRefCountedINS_9XdsClient12ChannelState12AdsCallStateENS_11UnrefDeleteEEE = comdat any

$_ZTIN9grpc_core20InternallyRefCountedINS_9XdsClient12ChannelState12AdsCallStateENS_11UnrefDeleteEEE = comdat any

$_ZTSN9grpc_core20InternallyRefCountedINS_9XdsClient12ChannelState12LrsCallStateENS_11UnrefDeleteEEE = comdat any

$_ZTIN9grpc_core20InternallyRefCountedINS_9XdsClient12ChannelState12LrsCallStateENS_11UnrefDeleteEEE = comdat any

$_ZTSN9grpc_core14DualRefCountedINS_9XdsClientEEE = comdat any

$_ZTIN9grpc_core14DualRefCountedINS_9XdsClientEEE = comdat any

$_ZN4absl12lts_202308026Status16kMovedFromStringE = comdat any

$_ZTVN9grpc_core7ExecCtxE = comdat any

$_ZTSN9grpc_core7ExecCtxE = comdat any

$_ZTIN9grpc_core7ExecCtxE = comdat any

$_ZTVN9grpc_core9Timestamp12ScopedSourceE = comdat any

$_ZTSN9grpc_core9Timestamp12ScopedSourceE = comdat any

$_ZTSN9grpc_core9Timestamp6SourceE = comdat any

$_ZTIN9grpc_core9Timestamp6SourceE = comdat any

$_ZTIN9grpc_core9Timestamp12ScopedSourceE = comdat any

$_ZSt19piecewise_construct = comdat any

$_ZTVN9grpc_core9XdsClient12ChannelState13RetryableCallINS1_12LrsCallStateEEE = comdat any

$_ZTSN9grpc_core9XdsClient12ChannelState13RetryableCallINS1_12LrsCallStateEEE = comdat any

$_ZTSN9grpc_core20InternallyRefCountedINS_9XdsClient12ChannelState13RetryableCallINS2_12LrsCallStateEEENS_11UnrefDeleteEEE = comdat any

$_ZTIN9grpc_core20InternallyRefCountedINS_9XdsClient12ChannelState13RetryableCallINS2_12LrsCallStateEEENS_11UnrefDeleteEEE = comdat any

$_ZTIN9grpc_core9XdsClient12ChannelState13RetryableCallINS1_12LrsCallStateEEE = comdat any

$_ZTVN9grpc_core9XdsClient12ChannelState13RetryableCallINS1_12AdsCallStateEEE = comdat any

$_ZTSN9grpc_core9XdsClient12ChannelState13RetryableCallINS1_12AdsCallStateEEE = comdat any

$_ZTSN9grpc_core20InternallyRefCountedINS_9XdsClient12ChannelState13RetryableCallINS2_12AdsCallStateEEENS_11UnrefDeleteEEE = comdat any

$_ZTIN9grpc_core20InternallyRefCountedINS_9XdsClient12ChannelState13RetryableCallINS2_12AdsCallStateEEENS_11UnrefDeleteEEE = comdat any

$_ZTIN9grpc_core9XdsClient12ChannelState13RetryableCallINS1_12AdsCallStateEEE = comdat any

$_ZTVN9grpc_core9XdsClient12ChannelState12AdsCallState18StreamEventHandlerE = comdat any

$_ZTSN9grpc_core9XdsClient12ChannelState12AdsCallState18StreamEventHandlerE = comdat any

$_ZTSN9grpc_core19XdsTransportFactory12XdsTransport13StreamingCall12EventHandlerE = comdat any

$_ZTIN9grpc_core19XdsTransportFactory12XdsTransport13StreamingCall12EventHandlerE = comdat any

$_ZTIN9grpc_core9XdsClient12ChannelState12AdsCallState18StreamEventHandlerE = comdat any

$_ZTVN9grpc_core9XdsClient12ChannelState12AdsCallState13ResourceTimerE = comdat any

$_ZTSN9grpc_core9XdsClient12ChannelState12AdsCallState13ResourceTimerE = comdat any

$_ZTSN9grpc_core20InternallyRefCountedINS_9XdsClient12ChannelState12AdsCallState13ResourceTimerENS_11UnrefDeleteEEE = comdat any

$_ZTIN9grpc_core20InternallyRefCountedINS_9XdsClient12ChannelState12AdsCallState13ResourceTimerENS_11UnrefDeleteEEE = comdat any

$_ZTIN9grpc_core9XdsClient12ChannelState12AdsCallState13ResourceTimerE = comdat any

$_ZTVN9grpc_core9XdsClient12ChannelState12LrsCallState18StreamEventHandlerE = comdat any

$_ZTSN9grpc_core9XdsClient12ChannelState12LrsCallState18StreamEventHandlerE = comdat any

$_ZTIN9grpc_core9XdsClient12ChannelState12LrsCallState18StreamEventHandlerE = comdat any

@_ZStL8__ioinit = internal global %"class.std::ios_base::Init" zeroinitializer, align 1
@__dso_handle = external hidden global i8
@_ZN9grpc_core21grpc_xds_client_traceE = global %"class.grpc_core::TraceFlag" zeroinitializer, align 8
@.str = private unnamed_addr constant [11 x i8] c"xds_client\00", align 1
@_ZN9grpc_core30grpc_xds_client_refcount_traceE = global %"class.grpc_core::TraceFlag" zeroinitializer, align 8
@.str.3 = private unnamed_addr constant [20 x i8] c"xds_client_refcount\00", align 1
@_ZTVN9grpc_core9XdsClient12ChannelStateE = unnamed_addr constant { [5 x ptr] } { [5 x ptr] [ptr null, ptr @_ZTIN9grpc_core9XdsClient12ChannelStateE, ptr @_ZN9grpc_core9XdsClient12ChannelState6OrphanEv, ptr @_ZN9grpc_core9XdsClient12ChannelStateD1Ev, ptr @_ZN9grpc_core9XdsClient12ChannelStateD0Ev] }, align 8
@.str.5 = private unnamed_addr constant [118 x i8] c"generated/home/dtcxzyw/WorkSpace/Projects/compilers/llvm-opt-benchmark/bench/grpc/grpc/src/core/ext/xds/xds_client.cc\00", align 1
@.str.6 = private unnamed_addr constant [50 x i8] c"[xds_client %p] creating channel %p for server %s\00", align 1
@.str.8 = private unnamed_addr constant [22 x i8] c"transport_ != nullptr\00", align 1
@.str.9 = private unnamed_addr constant [56 x i8] c"[xds_client %p] destroying xds channel %p for server %s\00", align 1
@.str.10 = private unnamed_addr constant [55 x i8] c"[xds_client %p] orphaning xds channel %p for server %s\00", align 1
@.str.13 = private unnamed_addr constant [24 x i8] c"xDS channel for server \00", align 1
@.str.14 = private unnamed_addr constant [3 x i8] c": \00", align 1
@.str.15 = private unnamed_addr constant [19 x i8] c"[xds_client %p] %s\00", align 1
@.str.16 = private unnamed_addr constant [11 x i8] c" (node ID:\00", align 1
@.str.17 = private unnamed_addr constant [2 x i8] c")\00", align 1
@.str.18 = private unnamed_addr constant [107 x i8] c"[xds_client %p] xds server %s: received ADS response: type_url=%s, version=%s, nonce=%s, num_resources=%lu\00", align 1
@.str.19 = private unnamed_addr constant [23 x i8] c"unknown resource type \00", align 1
@.str.20 = private unnamed_addr constant [16 x i8] c"resource index \00", align 1
@.str.21 = private unnamed_addr constant [1 x i8] zeroinitializer, align 1
@.str.22 = private unnamed_addr constant [26 x i8] c"incorrect resource type \22\00", align 1
@.str.23 = private unnamed_addr constant [15 x i8] c"\22 (should be \22\00", align 1
@.str.24 = private unnamed_addr constant [3 x i8] c"\22)\00", align 1
@.str.25 = private unnamed_addr constant [31 x i8] c"Cannot parse xDS resource name\00", align 1
@.str.26 = private unnamed_addr constant [131 x i8] c"[xds_client %p] xds server %s: server returned new version of resource for which we previously ignored a deletion: type %s name %s\00", align 1
@.str.27 = private unnamed_addr constant [19 x i8] c"invalid resource: \00", align 1
@.str.28 = private unnamed_addr constant [63 x i8] c"[xds_client %p] %s resource %s identical to current, ignoring.\00", align 1
@_ZTVN9grpc_core9XdsClient12ChannelState12AdsCallStateE = unnamed_addr constant { [5 x ptr] } { [5 x ptr] [ptr null, ptr @_ZTIN9grpc_core9XdsClient12ChannelState12AdsCallStateE, ptr @_ZN9grpc_core9XdsClient12ChannelState12AdsCallState6OrphanEv, ptr @_ZN9grpc_core9XdsClient12ChannelState12AdsCallStateD2Ev, ptr @_ZN9grpc_core9XdsClient12ChannelState12AdsCallStateD0Ev] }, align 8
@.str.30 = private unnamed_addr constant [24 x i8] c"xds_client() != nullptr\00", align 1
@.str.31 = private unnamed_addr constant [81 x i8] c"/envoy.service.discovery.v3.AggregatedDiscoveryService/StreamAggregatedResources\00", align 1
@.str.32 = private unnamed_addr constant [17 x i8] c"call_ != nullptr\00", align 1
@.str.33 = private unnamed_addr constant [71 x i8] c"[xds_client %p] xds server %s: starting ADS call (calld: %p, call: %p)\00", align 1
@.str.34 = private unnamed_addr constant [89 x i8] c"[xds_client %p] xds server %s: sending ADS request: type=%s version=%s nonce=%s error=%s\00", align 1
@.str.36 = private unnamed_addr constant [75 x i8] c"[xds_client %p] xds server %s: error parsing ADS response (%s) -- ignoring\00", align 1
@.str.37 = private unnamed_addr constant [34 x i8] c"xDS response validation errors: [\00", align 1
@.str.38 = private unnamed_addr constant [3 x i8] c"; \00", align 1
@.str.39 = private unnamed_addr constant [2 x i8] c"]\00", align 1
@.str.40 = private unnamed_addr constant [115 x i8] c"[xds_client %p] xds server %s: ADS response invalid for resource type %s version %s, will NACK: nonce=%s status=%s\00", align 1
@.str.41 = private unnamed_addr constant [78 x i8] c"[xds_client %p] xds server %s: ignoring deletion for resource type %s name %s\00", align 1
@.str.42 = private unnamed_addr constant [94 x i8] c"[xds_client %p] xds server %s: ADS call status received (chand=%p, ads_calld=%p, call=%p): %s\00", align 1
@.str.43 = private unnamed_addr constant [53 x i8] c"xDS call failed with no responses received; status: \00", align 1
@.str.45 = private unnamed_addr constant [60 x i8] c"[xds_client %p] xds server %s: scheduling load report timer\00", align 1
@_ZTVN9grpc_core9XdsClient12ChannelState12LrsCallStateE = unnamed_addr constant { [5 x ptr] } { [5 x ptr] [ptr null, ptr @_ZTIN9grpc_core9XdsClient12ChannelState12LrsCallStateE, ptr @_ZN9grpc_core9XdsClient12ChannelState12LrsCallState6OrphanEv, ptr @_ZN9grpc_core9XdsClient12ChannelState12LrsCallStateD2Ev, ptr @_ZN9grpc_core9XdsClient12ChannelState12LrsCallStateD0Ev] }, align 8
@.str.47 = private unnamed_addr constant [66 x i8] c"/envoy.service.load_stats.v3.LoadReportingService/StreamLoadStats\00", align 1
@.str.48 = private unnamed_addr constant [69 x i8] c"[xds_client %p] xds server %s: starting LRS call (calld=%p, call=%p)\00", align 1
@.str.49 = private unnamed_addr constant [54 x i8] c"[xds_client %p] xds server %s: creating load reporter\00", align 1
@.str.51 = private unnamed_addr constant [63 x i8] c"[xds_client %p] xds server %s: LRS response parsing failed: %s\00", align 1
@.str.52 = private unnamed_addr constant [122 x i8] c"[xds_client %p] xds server %s: LRS response received, %lu cluster names, send_all_clusters=%d, load_report_interval=%ldms\00", align 1
@.str.53 = private unnamed_addr constant [37 x i8] c"[xds_client %p] cluster_name %lu: %s\00", align 1
@.str.54 = private unnamed_addr constant [84 x i8] c"[xds_client %p] xds server %s: increased load_report_interval to minimum value %dms\00", align 1
@.str.55 = private unnamed_addr constant [85 x i8] c"[xds_client %p] xds server %s: incoming LRS response identical to current, ignoring.\00", align 1
@.str.56 = private unnamed_addr constant [90 x i8] c"[xds_client %p] xds server %s: LRS call status received (chand=%p, calld=%p, call=%p): %s\00", align 1
@_ZTVN9grpc_core9XdsClientE = unnamed_addr constant { [5 x ptr] } { [5 x ptr] [ptr null, ptr @_ZTIN9grpc_core9XdsClientE, ptr @_ZN9grpc_core9XdsClient6OrphanEv, ptr @_ZN9grpc_core9XdsClientD1Ev, ptr @_ZN9grpc_core9XdsClientD0Ev] }, align 8
@.str.58 = private unnamed_addr constant [36 x i8] c"[xds_client %p] creating xds client\00", align 1
@.str.59 = private unnamed_addr constant [22 x i8] c"bootstrap_ != nullptr\00", align 1
@.str.60 = private unnamed_addr constant [32 x i8] c"[xds_client %p] xDS node ID: %s\00", align 1
@.str.61 = private unnamed_addr constant [38 x i8] c"[xds_client %p] destroying xds client\00", align 1
@.str.62 = private unnamed_addr constant [41 x i8] c"[xds_client %p] shutting down xds client\00", align 1
@.str.64 = private unnamed_addr constant [31 x i8] c"Unable to parse resource name \00", align 1
@.str.65 = private unnamed_addr constant [7 x i8] c"xdstp:\00", align 1
@.str.66 = private unnamed_addr constant [12 x i8] c"authority \22\00", align 1
@.str.67 = private unnamed_addr constant [34 x i8] c"\22 not present in bootstrap config\00", align 1
@.str.68 = private unnamed_addr constant [54 x i8] c"[xds_client %p] returning cached listener data for %s\00", align 1
@.str.69 = private unnamed_addr constant [55 x i8] c"[xds_client %p] reporting cached does-not-exist for %s\00", align 1
@.str.70 = private unnamed_addr constant [63 x i8] c"[xds_client %p] reporting cached validation failure for %s: %s\00", align 1
@.str.72 = private unnamed_addr constant [58 x i8] c"[xds_client %p] returning cached channel error for %s: %s\00", align 1
@.str.73 = private unnamed_addr constant [106 x i8] c"[xds_client %p] unsubscribing from a resource for which we previously ignored a deletion: type %s name %s\00", align 1
@.str.74 = private unnamed_addr constant [28 x i8] c"it->second == resource_type\00", align 1
@.str.75 = private unnamed_addr constant [5 x i8] c"old:\00", align 1
@.str.76 = private unnamed_addr constant [2 x i8] c"/\00", align 1
@.str.77 = private unnamed_addr constant [53 x i8] c"xdstp URI path must indicate valid xDS resource type\00", align 1
@.str.78 = private unnamed_addr constant [6 x i8] c"xdstp\00", align 1
@.str.79 = private unnamed_addr constant [9 x i8] c"uri.ok()\00", align 1
@.str.84 = private unnamed_addr constant [43 x i8] c"[xds_client %p] start building load report\00", align 1
@.str.85 = private unnamed_addr constant [61 x i8] c"[xds_client %p] cluster=%s eds_service_name=%s drop_stats=%p\00", align 1
@.str.86 = private unnamed_addr constant [77 x i8] c"[xds_client %p] cluster=%s eds_service_name=%s locality=%s locality_stats=%p\00", align 1
@_ZTVN9grpc_core9XdsClient12ChannelState12AdsCallState17AdsResponseParserE = unnamed_addr constant { [7 x ptr] } { [7 x ptr] [ptr null, ptr @_ZTIN9grpc_core9XdsClient12ChannelState12AdsCallState17AdsResponseParserE, ptr @_ZN9grpc_core9XdsClient12ChannelState12AdsCallState17AdsResponseParserD2Ev, ptr @_ZN9grpc_core9XdsClient12ChannelState12AdsCallState17AdsResponseParserD0Ev, ptr @_ZN9grpc_core9XdsClient12ChannelState12AdsCallState17AdsResponseParser24ProcessAdsResponseFieldsENS_6XdsApi26AdsResponseParserInterface17AdsResponseFieldsE, ptr @_ZN9grpc_core9XdsClient12ChannelState12AdsCallState17AdsResponseParser13ParseResourceEP9upb_ArenamSt17basic_string_viewIcSt11char_traitsIcEES9_S9_, ptr @_ZN9grpc_core9XdsClient12ChannelState12AdsCallState17AdsResponseParser28ResourceWrapperParsingFailedEmSt17basic_string_viewIcSt11char_traitsIcEE] }, align 8
@_ZTVN10__cxxabiv120__si_class_type_infoE = external global [0 x ptr]
@_ZTSN9grpc_core9XdsClient12ChannelState12AdsCallState17AdsResponseParserE = constant [70 x i8] c"N9grpc_core9XdsClient12ChannelState12AdsCallState17AdsResponseParserE\00", align 1
@_ZTVN10__cxxabiv117__class_type_infoE = external global [0 x ptr]
@_ZTSN9grpc_core6XdsApi26AdsResponseParserInterfaceE = linkonce_odr constant [48 x i8] c"N9grpc_core6XdsApi26AdsResponseParserInterfaceE\00", comdat, align 1
@_ZTIN9grpc_core6XdsApi26AdsResponseParserInterfaceE = linkonce_odr constant { ptr, ptr } { ptr getelementptr inbounds (ptr, ptr @_ZTVN10__cxxabiv117__class_type_infoE, i64 2), ptr @_ZTSN9grpc_core6XdsApi26AdsResponseParserInterfaceE }, comdat, align 8
@_ZTIN9grpc_core9XdsClient12ChannelState12AdsCallState17AdsResponseParserE = constant { ptr, ptr, ptr } { ptr getelementptr inbounds (ptr, ptr @_ZTVN10__cxxabiv120__si_class_type_infoE, i64 2), ptr @_ZTSN9grpc_core9XdsClient12ChannelState12AdsCallState17AdsResponseParserE, ptr @_ZTIN9grpc_core6XdsApi26AdsResponseParserInterfaceE }, align 8
@_ZTVN9grpc_core9XdsClient12ChannelState12LrsCallState8ReporterE = unnamed_addr constant { [5 x ptr] } { [5 x ptr] [ptr null, ptr @_ZTIN9grpc_core9XdsClient12ChannelState12LrsCallState8ReporterE, ptr @_ZN9grpc_core9XdsClient12ChannelState12LrsCallState8Reporter6OrphanEv, ptr @_ZN9grpc_core9XdsClient12ChannelState12LrsCallState8ReporterD2Ev, ptr @_ZN9grpc_core9XdsClient12ChannelState12LrsCallState8ReporterD0Ev] }, align 8
@_ZTSN9grpc_core9XdsClient12ChannelState12LrsCallState8ReporterE = constant [60 x i8] c"N9grpc_core9XdsClient12ChannelState12LrsCallState8ReporterE\00", align 1
@_ZTSN9grpc_core20InternallyRefCountedINS_9XdsClient12ChannelState12LrsCallState8ReporterENS_11UnrefDeleteEEE = linkonce_odr constant [105 x i8] c"N9grpc_core20InternallyRefCountedINS_9XdsClient12ChannelState12LrsCallState8ReporterENS_11UnrefDeleteEEE\00", comdat, align 1
@_ZTSN9grpc_core10OrphanableE = linkonce_odr constant [25 x i8] c"N9grpc_core10OrphanableE\00", comdat, align 1
@_ZTIN9grpc_core10OrphanableE = linkonce_odr constant { ptr, ptr } { ptr getelementptr inbounds (ptr, ptr @_ZTVN10__cxxabiv117__class_type_infoE, i64 2), ptr @_ZTSN9grpc_core10OrphanableE }, comdat, align 8
@_ZTIN9grpc_core20InternallyRefCountedINS_9XdsClient12ChannelState12LrsCallState8ReporterENS_11UnrefDeleteEEE = linkonce_odr constant { ptr, ptr, ptr } { ptr getelementptr inbounds (ptr, ptr @_ZTVN10__cxxabiv120__si_class_type_infoE, i64 2), ptr @_ZTSN9grpc_core20InternallyRefCountedINS_9XdsClient12ChannelState12LrsCallState8ReporterENS_11UnrefDeleteEEE, ptr @_ZTIN9grpc_core10OrphanableE }, comdat, align 8
@_ZTIN9grpc_core9XdsClient12ChannelState12LrsCallState8ReporterE = constant { ptr, ptr, ptr } { ptr getelementptr inbounds (ptr, ptr @_ZTVN10__cxxabiv120__si_class_type_infoE, i64 2), ptr @_ZTSN9grpc_core9XdsClient12ChannelState12LrsCallState8ReporterE, ptr @_ZTIN9grpc_core20InternallyRefCountedINS_9XdsClient12ChannelState12LrsCallState8ReporterENS_11UnrefDeleteEEE }, align 8
@_ZTSN9grpc_core9XdsClient12ChannelStateE = constant [37 x i8] c"N9grpc_core9XdsClient12ChannelStateE\00", align 1
@_ZTSN9grpc_core14DualRefCountedINS_9XdsClient12ChannelStateEEE = linkonce_odr constant [59 x i8] c"N9grpc_core14DualRefCountedINS_9XdsClient12ChannelStateEEE\00", comdat, align 1
@_ZTIN9grpc_core14DualRefCountedINS_9XdsClient12ChannelStateEEE = linkonce_odr constant { ptr, ptr, ptr } { ptr getelementptr inbounds (ptr, ptr @_ZTVN10__cxxabiv120__si_class_type_infoE, i64 2), ptr @_ZTSN9grpc_core14DualRefCountedINS_9XdsClient12ChannelStateEEE, ptr @_ZTIN9grpc_core10OrphanableE }, comdat, align 8
@_ZTIN9grpc_core9XdsClient12ChannelStateE = constant { ptr, ptr, ptr } { ptr getelementptr inbounds (ptr, ptr @_ZTVN10__cxxabiv120__si_class_type_infoE, i64 2), ptr @_ZTSN9grpc_core9XdsClient12ChannelStateE, ptr @_ZTIN9grpc_core14DualRefCountedINS_9XdsClient12ChannelStateEEE }, align 8
@_ZTSN9grpc_core9XdsClient12ChannelState12AdsCallStateE = constant [51 x i8] c"N9grpc_core9XdsClient12ChannelState12AdsCallStateE\00", align 1
@_ZTSN9grpc_core20InternallyRefCountedINS_9XdsClient12ChannelState12AdsCallStateENS_11UnrefDeleteEEE = linkonce_odr constant [96 x i8] c"N9grpc_core20InternallyRefCountedINS_9XdsClient12ChannelState12AdsCallStateENS_11UnrefDeleteEEE\00", comdat, align 1
@_ZTIN9grpc_core20InternallyRefCountedINS_9XdsClient12ChannelState12AdsCallStateENS_11UnrefDeleteEEE = linkonce_odr constant { ptr, ptr, ptr } { ptr getelementptr inbounds (ptr, ptr @_ZTVN10__cxxabiv120__si_class_type_infoE, i64 2), ptr @_ZTSN9grpc_core20InternallyRefCountedINS_9XdsClient12ChannelState12AdsCallStateENS_11UnrefDeleteEEE, ptr @_ZTIN9grpc_core10OrphanableE }, comdat, align 8
@_ZTIN9grpc_core9XdsClient12ChannelState12AdsCallStateE = constant { ptr, ptr, ptr } { ptr getelementptr inbounds (ptr, ptr @_ZTVN10__cxxabiv120__si_class_type_infoE, i64 2), ptr @_ZTSN9grpc_core9XdsClient12ChannelState12AdsCallStateE, ptr @_ZTIN9grpc_core20InternallyRefCountedINS_9XdsClient12ChannelState12AdsCallStateENS_11UnrefDeleteEEE }, align 8
@_ZTSN9grpc_core9XdsClient12ChannelState12LrsCallStateE = constant [51 x i8] c"N9grpc_core9XdsClient12ChannelState12LrsCallStateE\00", align 1
@_ZTSN9grpc_core20InternallyRefCountedINS_9XdsClient12ChannelState12LrsCallStateENS_11UnrefDeleteEEE = linkonce_odr constant [96 x i8] c"N9grpc_core20InternallyRefCountedINS_9XdsClient12ChannelState12LrsCallStateENS_11UnrefDeleteEEE\00", comdat, align 1
@_ZTIN9grpc_core20InternallyRefCountedINS_9XdsClient12ChannelState12LrsCallStateENS_11UnrefDeleteEEE = linkonce_odr constant { ptr, ptr, ptr } { ptr getelementptr inbounds (ptr, ptr @_ZTVN10__cxxabiv120__si_class_type_infoE, i64 2), ptr @_ZTSN9grpc_core20InternallyRefCountedINS_9XdsClient12ChannelState12LrsCallStateENS_11UnrefDeleteEEE, ptr @_ZTIN9grpc_core10OrphanableE }, comdat, align 8
@_ZTIN9grpc_core9XdsClient12ChannelState12LrsCallStateE = constant { ptr, ptr, ptr } { ptr getelementptr inbounds (ptr, ptr @_ZTVN10__cxxabiv120__si_class_type_infoE, i64 2), ptr @_ZTSN9grpc_core9XdsClient12ChannelState12LrsCallStateE, ptr @_ZTIN9grpc_core20InternallyRefCountedINS_9XdsClient12ChannelState12LrsCallStateENS_11UnrefDeleteEEE }, align 8
@_ZTSN9grpc_core9XdsClientE = constant [23 x i8] c"N9grpc_core9XdsClientE\00", align 1
@_ZTSN9grpc_core14DualRefCountedINS_9XdsClientEEE = linkonce_odr constant [45 x i8] c"N9grpc_core14DualRefCountedINS_9XdsClientEEE\00", comdat, align 1
@_ZTIN9grpc_core14DualRefCountedINS_9XdsClientEEE = linkonce_odr constant { ptr, ptr, ptr } { ptr getelementptr inbounds (ptr, ptr @_ZTVN10__cxxabiv120__si_class_type_infoE, i64 2), ptr @_ZTSN9grpc_core14DualRefCountedINS_9XdsClientEEE, ptr @_ZTIN9grpc_core10OrphanableE }, comdat, align 8
@_ZTIN9grpc_core9XdsClientE = constant { ptr, ptr, ptr } { ptr getelementptr inbounds (ptr, ptr @_ZTVN10__cxxabiv120__si_class_type_infoE, i64 2), ptr @_ZTSN9grpc_core9XdsClientE, ptr @_ZTIN9grpc_core14DualRefCountedINS_9XdsClientEEE }, align 8
@_ZN4absl12lts_202308026Status16kMovedFromStringE = linkonce_odr constant [28 x i8] c"Status accessed after move.\00", comdat, align 16
@.str.87 = private unnamed_addr constant [3 x i8] c"OK\00", align 1
@__libc_single_threaded = external local_unnamed_addr global i8, align 1
@_ZN9grpc_core26ApplicationCallbackExecCtx18callback_exec_ctx_E = external thread_local global ptr, align 8
@_ZN9grpc_core4Fork16support_enabled_E = external local_unnamed_addr global %"struct.std::atomic", align 1
@_ZTVN9grpc_core7ExecCtxE = linkonce_odr unnamed_addr constant { [5 x ptr] } { [5 x ptr] [ptr null, ptr @_ZTIN9grpc_core7ExecCtxE, ptr @_ZN9grpc_core7ExecCtxD2Ev, ptr @_ZN9grpc_core7ExecCtxD0Ev, ptr @_ZN9grpc_core7ExecCtx18CheckReadyToFinishEv] }, comdat, align 8
@_ZTSN9grpc_core7ExecCtxE = linkonce_odr constant [21 x i8] c"N9grpc_core7ExecCtxE\00", comdat, align 1
@_ZTIN9grpc_core7ExecCtxE = linkonce_odr constant { ptr, ptr } { ptr getelementptr inbounds (ptr, ptr @_ZTVN10__cxxabiv117__class_type_infoE, i64 2), ptr @_ZTSN9grpc_core7ExecCtxE }, comdat, align 8
@_ZTVN9grpc_core15ScopedTimeCacheE = external unnamed_addr constant { [4 x ptr] }, align 8
@_ZTVN9grpc_core9Timestamp12ScopedSourceE = linkonce_odr unnamed_addr constant { [4 x ptr] } { [4 x ptr] [ptr null, ptr @_ZTIN9grpc_core9Timestamp12ScopedSourceE, ptr @__cxa_pure_virtual, ptr @_ZN9grpc_core9Timestamp12ScopedSource15InvalidateCacheEv] }, comdat, align 8
@_ZN9grpc_core9Timestamp25thread_local_time_source_E = external thread_local global ptr, align 8
@_ZTSN9grpc_core9Timestamp12ScopedSourceE = linkonce_odr constant [37 x i8] c"N9grpc_core9Timestamp12ScopedSourceE\00", comdat, align 1
@_ZTSN9grpc_core9Timestamp6SourceE = linkonce_odr constant [30 x i8] c"N9grpc_core9Timestamp6SourceE\00", comdat, align 1
@_ZTIN9grpc_core9Timestamp6SourceE = linkonce_odr constant { ptr, ptr } { ptr getelementptr inbounds (ptr, ptr @_ZTVN10__cxxabiv117__class_type_infoE, i64 2), ptr @_ZTSN9grpc_core9Timestamp6SourceE }, comdat, align 8
@_ZTIN9grpc_core9Timestamp12ScopedSourceE = linkonce_odr constant { ptr, ptr, ptr } { ptr getelementptr inbounds (ptr, ptr @_ZTVN10__cxxabiv120__si_class_type_infoE, i64 2), ptr @_ZTSN9grpc_core9Timestamp12ScopedSourceE, ptr @_ZTIN9grpc_core9Timestamp6SourceE }, comdat, align 8
@_ZN9grpc_core7ExecCtx9exec_ctx_E = external thread_local global ptr, align 8
@.str.89 = private unnamed_addr constant [92 x i8] c"[xds_client %p] xds server %s: timeout obtaining resource {type=%s name=%s} from xds server\00", align 1
@"_ZTSZZN9grpc_core9XdsClient13WatchResourceEPKNS_15XdsResourceTypeESt17basic_string_viewIcSt11char_traitsIcEENS_13RefCountedPtrINS0_24ResourceWatcherInterfaceEEEEN3$_0clEN4absl12lts_202308026StatusEEUlvE_" = internal constant [200 x i8] c"ZZN9grpc_core9XdsClient13WatchResourceEPKNS_15XdsResourceTypeESt17basic_string_viewIcSt11char_traitsIcEENS_13RefCountedPtrINS0_24ResourceWatcherInterfaceEEEEN3$_0clEN4absl12lts_202308026StatusEEUlvE_\00", align 1
@"_ZTIZZN9grpc_core9XdsClient13WatchResourceEPKNS_15XdsResourceTypeESt17basic_string_viewIcSt11char_traitsIcEENS_13RefCountedPtrINS0_24ResourceWatcherInterfaceEEEEN3$_0clEN4absl12lts_202308026StatusEEUlvE_" = internal constant { ptr, ptr } { ptr getelementptr inbounds (ptr, ptr @_ZTVN10__cxxabiv117__class_type_infoE, i64 2), ptr @"_ZTSZZN9grpc_core9XdsClient13WatchResourceEPKNS_15XdsResourceTypeESt17basic_string_viewIcSt11char_traitsIcEENS_13RefCountedPtrINS0_24ResourceWatcherInterfaceEEEEN3$_0clEN4absl12lts_202308026StatusEEUlvE_" }, align 8
@_ZSt19piecewise_construct = linkonce_odr constant %"struct.std::piecewise_construct_t" zeroinitializer, comdat, align 1
@.str.90 = private unnamed_addr constant [40 x i8] c"{region=\22%s\22, zone=\22%s\22, sub_zone=\22%s\22}\00", align 1
@"_ZTSZN9grpc_core9XdsClient12ChannelStateC1ENS_17WeakRefCountedPtrIS0_EERKNS_12XdsBootstrap9XdsServerEE3$_0" = internal constant [103 x i8] c"ZN9grpc_core9XdsClient12ChannelStateC1ENS_17WeakRefCountedPtrIS0_EERKNS_12XdsBootstrap9XdsServerEE3$_0\00", align 1
@"_ZTIZN9grpc_core9XdsClient12ChannelStateC1ENS_17WeakRefCountedPtrIS0_EERKNS_12XdsBootstrap9XdsServerEE3$_0" = internal constant { ptr, ptr } { ptr getelementptr inbounds (ptr, ptr @_ZTVN10__cxxabiv117__class_type_infoE, i64 2), ptr @"_ZTSZN9grpc_core9XdsClient12ChannelStateC1ENS_17WeakRefCountedPtrIS0_EERKNS_12XdsBootstrap9XdsServerEE3$_0" }, align 8
@_ZTVN9grpc_core9XdsClient12ChannelState13RetryableCallINS1_12LrsCallStateEEE = linkonce_odr unnamed_addr constant { [5 x ptr] } { [5 x ptr] [ptr null, ptr @_ZTIN9grpc_core9XdsClient12ChannelState13RetryableCallINS1_12LrsCallStateEEE, ptr @_ZN9grpc_core9XdsClient12ChannelState13RetryableCallINS1_12LrsCallStateEE6OrphanEv, ptr @_ZN9grpc_core9XdsClient12ChannelState13RetryableCallINS1_12LrsCallStateEED2Ev, ptr @_ZN9grpc_core9XdsClient12ChannelState13RetryableCallINS1_12LrsCallStateEED0Ev] }, comdat, align 8
@_ZTSN9grpc_core9XdsClient12ChannelState13RetryableCallINS1_12LrsCallStateEEE = linkonce_odr constant [73 x i8] c"N9grpc_core9XdsClient12ChannelState13RetryableCallINS1_12LrsCallStateEEE\00", comdat, align 1
@_ZTSN9grpc_core20InternallyRefCountedINS_9XdsClient12ChannelState13RetryableCallINS2_12LrsCallStateEEENS_11UnrefDeleteEEE = linkonce_odr constant [118 x i8] c"N9grpc_core20InternallyRefCountedINS_9XdsClient12ChannelState13RetryableCallINS2_12LrsCallStateEEENS_11UnrefDeleteEEE\00", comdat, align 1
@_ZTIN9grpc_core20InternallyRefCountedINS_9XdsClient12ChannelState13RetryableCallINS2_12LrsCallStateEEENS_11UnrefDeleteEEE = linkonce_odr constant { ptr, ptr, ptr } { ptr getelementptr inbounds (ptr, ptr @_ZTVN10__cxxabiv120__si_class_type_infoE, i64 2), ptr @_ZTSN9grpc_core20InternallyRefCountedINS_9XdsClient12ChannelState13RetryableCallINS2_12LrsCallStateEEENS_11UnrefDeleteEEE, ptr @_ZTIN9grpc_core10OrphanableE }, comdat, align 8
@_ZTIN9grpc_core9XdsClient12ChannelState13RetryableCallINS1_12LrsCallStateEEE = linkonce_odr constant { ptr, ptr, ptr } { ptr getelementptr inbounds (ptr, ptr @_ZTVN10__cxxabiv120__si_class_type_infoE, i64 2), ptr @_ZTSN9grpc_core9XdsClient12ChannelState13RetryableCallINS1_12LrsCallStateEEE, ptr @_ZTIN9grpc_core20InternallyRefCountedINS_9XdsClient12ChannelState13RetryableCallINS2_12LrsCallStateEEENS_11UnrefDeleteEEE }, comdat, align 8
@.str.92 = private unnamed_addr constant [30 x i8] c"chand_->transport_ != nullptr\00", align 1
@.str.93 = private unnamed_addr constant [18 x i8] c"calld_ == nullptr\00", align 1
@.str.94 = private unnamed_addr constant [69 x i8] c"[xds_client %p] xds server %s: start new call from retryable call %p\00", align 1
@_ZTVN9grpc_core9XdsClient12ChannelState13RetryableCallINS1_12AdsCallStateEEE = linkonce_odr unnamed_addr constant { [5 x ptr] } { [5 x ptr] [ptr null, ptr @_ZTIN9grpc_core9XdsClient12ChannelState13RetryableCallINS1_12AdsCallStateEEE, ptr @_ZN9grpc_core9XdsClient12ChannelState13RetryableCallINS1_12AdsCallStateEE6OrphanEv, ptr @_ZN9grpc_core9XdsClient12ChannelState13RetryableCallINS1_12AdsCallStateEED2Ev, ptr @_ZN9grpc_core9XdsClient12ChannelState13RetryableCallINS1_12AdsCallStateEED0Ev] }, comdat, align 8
@_ZTSN9grpc_core9XdsClient12ChannelState13RetryableCallINS1_12AdsCallStateEEE = linkonce_odr constant [73 x i8] c"N9grpc_core9XdsClient12ChannelState13RetryableCallINS1_12AdsCallStateEEE\00", comdat, align 1
@_ZTSN9grpc_core20InternallyRefCountedINS_9XdsClient12ChannelState13RetryableCallINS2_12AdsCallStateEEENS_11UnrefDeleteEEE = linkonce_odr constant [118 x i8] c"N9grpc_core20InternallyRefCountedINS_9XdsClient12ChannelState13RetryableCallINS2_12AdsCallStateEEENS_11UnrefDeleteEEE\00", comdat, align 1
@_ZTIN9grpc_core20InternallyRefCountedINS_9XdsClient12ChannelState13RetryableCallINS2_12AdsCallStateEEENS_11UnrefDeleteEEE = linkonce_odr constant { ptr, ptr, ptr } { ptr getelementptr inbounds (ptr, ptr @_ZTVN10__cxxabiv120__si_class_type_infoE, i64 2), ptr @_ZTSN9grpc_core20InternallyRefCountedINS_9XdsClient12ChannelState13RetryableCallINS2_12AdsCallStateEEENS_11UnrefDeleteEEE, ptr @_ZTIN9grpc_core10OrphanableE }, comdat, align 8
@_ZTIN9grpc_core9XdsClient12ChannelState13RetryableCallINS1_12AdsCallStateEEE = linkonce_odr constant { ptr, ptr, ptr } { ptr getelementptr inbounds (ptr, ptr @_ZTVN10__cxxabiv120__si_class_type_infoE, i64 2), ptr @_ZTSN9grpc_core9XdsClient12ChannelState13RetryableCallINS1_12AdsCallStateEEE, ptr @_ZTIN9grpc_core20InternallyRefCountedINS_9XdsClient12ChannelState13RetryableCallINS2_12AdsCallStateEEENS_11UnrefDeleteEEE }, comdat, align 8
@"_ZTSZN9grpc_core9XdsClient12ChannelState22SetChannelStatusLockedEN4absl12lts_202308026StatusEE3$_0" = internal constant [95 x i8] c"ZN9grpc_core9XdsClient12ChannelState22SetChannelStatusLockedEN4absl12lts_202308026StatusEE3$_0\00", align 1
@"_ZTIZN9grpc_core9XdsClient12ChannelState22SetChannelStatusLockedEN4absl12lts_202308026StatusEE3$_0" = internal constant { ptr, ptr } { ptr getelementptr inbounds (ptr, ptr @_ZTVN10__cxxabiv117__class_type_infoE, i64 2), ptr @"_ZTSZN9grpc_core9XdsClient12ChannelState22SetChannelStatusLockedEN4absl12lts_202308026StatusEE3$_0" }, align 8
@.str.97 = private unnamed_addr constant [26 x i8] c"vector::_M_realloc_insert\00", align 1
@"_ZTSZN9grpc_core9XdsClient12ChannelState12AdsCallState17AdsResponseParser13ParseResourceEP9upb_ArenamSt17basic_string_viewIcSt11char_traitsIcEES9_S9_E3$_0" = internal constant [151 x i8] c"ZN9grpc_core9XdsClient12ChannelState12AdsCallState17AdsResponseParser13ParseResourceEP9upb_ArenamSt17basic_string_viewIcSt11char_traitsIcEES9_S9_E3$_0\00", align 1
@"_ZTIZN9grpc_core9XdsClient12ChannelState12AdsCallState17AdsResponseParser13ParseResourceEP9upb_ArenamSt17basic_string_viewIcSt11char_traitsIcEES9_S9_E3$_0" = internal constant { ptr, ptr } { ptr getelementptr inbounds (ptr, ptr @_ZTVN10__cxxabiv117__class_type_infoE, i64 2), ptr @"_ZTSZN9grpc_core9XdsClient12ChannelState12AdsCallState17AdsResponseParser13ParseResourceEP9upb_ArenamSt17basic_string_viewIcSt11char_traitsIcEES9_S9_E3$_0" }, align 8
@_ZTVN9grpc_core9XdsClient12ChannelState12AdsCallState18StreamEventHandlerE = linkonce_odr unnamed_addr constant { [7 x ptr] } { [7 x ptr] [ptr null, ptr @_ZTIN9grpc_core9XdsClient12ChannelState12AdsCallState18StreamEventHandlerE, ptr @_ZN9grpc_core9XdsClient12ChannelState12AdsCallState18StreamEventHandlerD2Ev, ptr @_ZN9grpc_core9XdsClient12ChannelState12AdsCallState18StreamEventHandlerD0Ev, ptr @_ZN9grpc_core9XdsClient12ChannelState12AdsCallState18StreamEventHandler13OnRequestSentEb, ptr @_ZN9grpc_core9XdsClient12ChannelState12AdsCallState18StreamEventHandler13OnRecvMessageESt17basic_string_viewIcSt11char_traitsIcEE, ptr @_ZN9grpc_core9XdsClient12ChannelState12AdsCallState18StreamEventHandler16OnStatusReceivedEN4absl12lts_202308026StatusE] }, comdat, align 8
@_ZTSN9grpc_core9XdsClient12ChannelState12AdsCallState18StreamEventHandlerE = linkonce_odr constant [71 x i8] c"N9grpc_core9XdsClient12ChannelState12AdsCallState18StreamEventHandlerE\00", comdat, align 1
@_ZTSN9grpc_core19XdsTransportFactory12XdsTransport13StreamingCall12EventHandlerE = linkonce_odr constant [77 x i8] c"N9grpc_core19XdsTransportFactory12XdsTransport13StreamingCall12EventHandlerE\00", comdat, align 1
@_ZTIN9grpc_core19XdsTransportFactory12XdsTransport13StreamingCall12EventHandlerE = linkonce_odr constant { ptr, ptr } { ptr getelementptr inbounds (ptr, ptr @_ZTVN10__cxxabiv117__class_type_infoE, i64 2), ptr @_ZTSN9grpc_core19XdsTransportFactory12XdsTransport13StreamingCall12EventHandlerE }, comdat, align 8
@_ZTIN9grpc_core9XdsClient12ChannelState12AdsCallState18StreamEventHandlerE = linkonce_odr constant { ptr, ptr, ptr } { ptr getelementptr inbounds (ptr, ptr @_ZTVN10__cxxabiv120__si_class_type_infoE, i64 2), ptr @_ZTSN9grpc_core9XdsClient12ChannelState12AdsCallState18StreamEventHandlerE, ptr @_ZTIN9grpc_core19XdsTransportFactory12XdsTransport13StreamingCall12EventHandlerE }, comdat, align 8
@_ZTVN9grpc_core9XdsClient12ChannelState12AdsCallState13ResourceTimerE = linkonce_odr unnamed_addr constant { [5 x ptr] } { [5 x ptr] [ptr null, ptr @_ZTIN9grpc_core9XdsClient12ChannelState12AdsCallState13ResourceTimerE, ptr @_ZN9grpc_core9XdsClient12ChannelState12AdsCallState13ResourceTimer6OrphanEv, ptr @_ZN9grpc_core9XdsClient12ChannelState12AdsCallState13ResourceTimerD2Ev, ptr @_ZN9grpc_core9XdsClient12ChannelState12AdsCallState13ResourceTimerD0Ev] }, comdat, align 8
@_ZTSN9grpc_core9XdsClient12ChannelState12AdsCallState13ResourceTimerE = linkonce_odr constant [66 x i8] c"N9grpc_core9XdsClient12ChannelState12AdsCallState13ResourceTimerE\00", comdat, align 1
@_ZTSN9grpc_core20InternallyRefCountedINS_9XdsClient12ChannelState12AdsCallState13ResourceTimerENS_11UnrefDeleteEEE = linkonce_odr constant [111 x i8] c"N9grpc_core20InternallyRefCountedINS_9XdsClient12ChannelState12AdsCallState13ResourceTimerENS_11UnrefDeleteEEE\00", comdat, align 1
@_ZTIN9grpc_core20InternallyRefCountedINS_9XdsClient12ChannelState12AdsCallState13ResourceTimerENS_11UnrefDeleteEEE = linkonce_odr constant { ptr, ptr, ptr } { ptr getelementptr inbounds (ptr, ptr @_ZTVN10__cxxabiv120__si_class_type_infoE, i64 2), ptr @_ZTSN9grpc_core20InternallyRefCountedINS_9XdsClient12ChannelState12AdsCallState13ResourceTimerENS_11UnrefDeleteEEE, ptr @_ZTIN9grpc_core10OrphanableE }, comdat, align 8
@_ZTIN9grpc_core9XdsClient12ChannelState12AdsCallState13ResourceTimerE = linkonce_odr constant { ptr, ptr, ptr } { ptr getelementptr inbounds (ptr, ptr @_ZTVN10__cxxabiv120__si_class_type_infoE, i64 2), ptr @_ZTSN9grpc_core9XdsClient12ChannelState12AdsCallState13ResourceTimerE, ptr @_ZTIN9grpc_core20InternallyRefCountedINS_9XdsClient12ChannelState12AdsCallState13ResourceTimerENS_11UnrefDeleteEEE }, comdat, align 8
@.str.98 = private unnamed_addr constant [84 x i8] c"[xds_client %p] xds server %s: call attempt failed; retry timer will fire in %ldms.\00", align 1
@.str.100 = private unnamed_addr constant [70 x i8] c"[xds_client %p] xds server %s: retry timer fired (retryable call: %p)\00", align 1
@_ZTVN9grpc_core9XdsClient12ChannelState12LrsCallState18StreamEventHandlerE = linkonce_odr unnamed_addr constant { [7 x ptr] } { [7 x ptr] [ptr null, ptr @_ZTIN9grpc_core9XdsClient12ChannelState12LrsCallState18StreamEventHandlerE, ptr @_ZN9grpc_core9XdsClient12ChannelState12LrsCallState18StreamEventHandlerD2Ev, ptr @_ZN9grpc_core9XdsClient12ChannelState12LrsCallState18StreamEventHandlerD0Ev, ptr @_ZN9grpc_core9XdsClient12ChannelState12LrsCallState18StreamEventHandler13OnRequestSentEb, ptr @_ZN9grpc_core9XdsClient12ChannelState12LrsCallState18StreamEventHandler13OnRecvMessageESt17basic_string_viewIcSt11char_traitsIcEE, ptr @_ZN9grpc_core9XdsClient12ChannelState12LrsCallState18StreamEventHandler16OnStatusReceivedEN4absl12lts_202308026StatusE] }, comdat, align 8
@_ZTSN9grpc_core9XdsClient12ChannelState12LrsCallState18StreamEventHandlerE = linkonce_odr constant [71 x i8] c"N9grpc_core9XdsClient12ChannelState12LrsCallState18StreamEventHandlerE\00", comdat, align 1
@_ZTIN9grpc_core9XdsClient12ChannelState12LrsCallState18StreamEventHandlerE = linkonce_odr constant { ptr, ptr, ptr } { ptr getelementptr inbounds (ptr, ptr @_ZTVN10__cxxabiv120__si_class_type_infoE, i64 2), ptr @_ZTSN9grpc_core9XdsClient12ChannelState12LrsCallState18StreamEventHandlerE, ptr @_ZTIN9grpc_core19XdsTransportFactory12XdsTransport13StreamingCall12EventHandlerE }, comdat, align 8
@"_ZTSZN9grpc_core9XdsClient13WatchResourceEPKNS_15XdsResourceTypeESt17basic_string_viewIcSt11char_traitsIcEENS_13RefCountedPtrINS0_24ResourceWatcherInterfaceEEEE3$_1" = internal constant [161 x i8] c"ZN9grpc_core9XdsClient13WatchResourceEPKNS_15XdsResourceTypeESt17basic_string_viewIcSt11char_traitsIcEENS_13RefCountedPtrINS0_24ResourceWatcherInterfaceEEEE3$_1\00", align 1
@"_ZTIZN9grpc_core9XdsClient13WatchResourceEPKNS_15XdsResourceTypeESt17basic_string_viewIcSt11char_traitsIcEENS_13RefCountedPtrINS0_24ResourceWatcherInterfaceEEEE3$_1" = internal constant { ptr, ptr } { ptr getelementptr inbounds (ptr, ptr @_ZTVN10__cxxabiv117__class_type_infoE, i64 2), ptr @"_ZTSZN9grpc_core9XdsClient13WatchResourceEPKNS_15XdsResourceTypeESt17basic_string_viewIcSt11char_traitsIcEENS_13RefCountedPtrINS0_24ResourceWatcherInterfaceEEEE3$_1" }, align 8
@"_ZTSZN9grpc_core9XdsClient13WatchResourceEPKNS_15XdsResourceTypeESt17basic_string_viewIcSt11char_traitsIcEENS_13RefCountedPtrINS0_24ResourceWatcherInterfaceEEEE3$_2" = internal constant [161 x i8] c"ZN9grpc_core9XdsClient13WatchResourceEPKNS_15XdsResourceTypeESt17basic_string_viewIcSt11char_traitsIcEENS_13RefCountedPtrINS0_24ResourceWatcherInterfaceEEEE3$_2\00", align 1
@"_ZTIZN9grpc_core9XdsClient13WatchResourceEPKNS_15XdsResourceTypeESt17basic_string_viewIcSt11char_traitsIcEENS_13RefCountedPtrINS0_24ResourceWatcherInterfaceEEEE3$_2" = internal constant { ptr, ptr } { ptr getelementptr inbounds (ptr, ptr @_ZTVN10__cxxabiv117__class_type_infoE, i64 2), ptr @"_ZTSZN9grpc_core9XdsClient13WatchResourceEPKNS_15XdsResourceTypeESt17basic_string_viewIcSt11char_traitsIcEENS_13RefCountedPtrINS0_24ResourceWatcherInterfaceEEEE3$_2" }, align 8
@"_ZTSZN9grpc_core9XdsClient13WatchResourceEPKNS_15XdsResourceTypeESt17basic_string_viewIcSt11char_traitsIcEENS_13RefCountedPtrINS0_24ResourceWatcherInterfaceEEEE3$_3" = internal constant [161 x i8] c"ZN9grpc_core9XdsClient13WatchResourceEPKNS_15XdsResourceTypeESt17basic_string_viewIcSt11char_traitsIcEENS_13RefCountedPtrINS0_24ResourceWatcherInterfaceEEEE3$_3\00", align 1
@"_ZTIZN9grpc_core9XdsClient13WatchResourceEPKNS_15XdsResourceTypeESt17basic_string_viewIcSt11char_traitsIcEENS_13RefCountedPtrINS0_24ResourceWatcherInterfaceEEEE3$_3" = internal constant { ptr, ptr } { ptr getelementptr inbounds (ptr, ptr @_ZTVN10__cxxabiv117__class_type_infoE, i64 2), ptr @"_ZTSZN9grpc_core9XdsClient13WatchResourceEPKNS_15XdsResourceTypeESt17basic_string_viewIcSt11char_traitsIcEENS_13RefCountedPtrINS0_24ResourceWatcherInterfaceEEEE3$_3" }, align 8
@"_ZTSZN9grpc_core9XdsClient13WatchResourceEPKNS_15XdsResourceTypeESt17basic_string_viewIcSt11char_traitsIcEENS_13RefCountedPtrINS0_24ResourceWatcherInterfaceEEEE3$_4" = internal constant [161 x i8] c"ZN9grpc_core9XdsClient13WatchResourceEPKNS_15XdsResourceTypeESt17basic_string_viewIcSt11char_traitsIcEENS_13RefCountedPtrINS0_24ResourceWatcherInterfaceEEEE3$_4\00", align 1
@"_ZTIZN9grpc_core9XdsClient13WatchResourceEPKNS_15XdsResourceTypeESt17basic_string_viewIcSt11char_traitsIcEENS_13RefCountedPtrINS0_24ResourceWatcherInterfaceEEEE3$_4" = internal constant { ptr, ptr } { ptr getelementptr inbounds (ptr, ptr @_ZTVN10__cxxabiv117__class_type_infoE, i64 2), ptr @"_ZTSZN9grpc_core9XdsClient13WatchResourceEPKNS_15XdsResourceTypeESt17basic_string_viewIcSt11char_traitsIcEENS_13RefCountedPtrINS0_24ResourceWatcherInterfaceEEEE3$_4" }, align 8
@.str.102 = private unnamed_addr constant [26 x i8] c"basic_string_view::substr\00", align 1
@.str.103 = private unnamed_addr constant [49 x i8] c"%s: __pos (which is %zu) > __size (which is %zu)\00", align 1
@"_ZTSZN9grpc_core9XdsClient27NotifyWatchersOnErrorLockedERKSt3mapIPNS0_24ResourceWatcherInterfaceENS_13RefCountedPtrIS2_EESt4lessIS3_ESaISt4pairIKS3_S5_EEEN4absl12lts_202308026StatusEE3$_0" = internal constant [184 x i8] c"ZN9grpc_core9XdsClient27NotifyWatchersOnErrorLockedERKSt3mapIPNS0_24ResourceWatcherInterfaceENS_13RefCountedPtrIS2_EESt4lessIS3_ESaISt4pairIKS3_S5_EEEN4absl12lts_202308026StatusEE3$_0\00", align 1
@"_ZTIZN9grpc_core9XdsClient27NotifyWatchersOnErrorLockedERKSt3mapIPNS0_24ResourceWatcherInterfaceENS_13RefCountedPtrIS2_EESt4lessIS3_ESaISt4pairIKS3_S5_EEEN4absl12lts_202308026StatusEE3$_0" = internal constant { ptr, ptr } { ptr getelementptr inbounds (ptr, ptr @_ZTVN10__cxxabiv117__class_type_infoE, i64 2), ptr @"_ZTSZN9grpc_core9XdsClient27NotifyWatchersOnErrorLockedERKSt3mapIPNS0_24ResourceWatcherInterfaceENS_13RefCountedPtrIS2_EESt4lessIS3_ESaISt4pairIKS3_S5_EEEN4absl12lts_202308026StatusEE3$_0" }, align 8
@"_ZTSZN9grpc_core9XdsClient36NotifyWatchersOnResourceDoesNotExistERKSt3mapIPNS0_24ResourceWatcherInterfaceENS_13RefCountedPtrIS2_EESt4lessIS3_ESaISt4pairIKS3_S5_EEEE3$_0" = internal constant [165 x i8] c"ZN9grpc_core9XdsClient36NotifyWatchersOnResourceDoesNotExistERKSt3mapIPNS0_24ResourceWatcherInterfaceENS_13RefCountedPtrIS2_EESt4lessIS3_ESaISt4pairIKS3_S5_EEEE3$_0\00", align 1
@"_ZTIZN9grpc_core9XdsClient36NotifyWatchersOnResourceDoesNotExistERKSt3mapIPNS0_24ResourceWatcherInterfaceENS_13RefCountedPtrIS2_EESt4lessIS3_ESaISt4pairIKS3_S5_EEEE3$_0" = internal constant { ptr, ptr } { ptr getelementptr inbounds (ptr, ptr @_ZTVN10__cxxabiv117__class_type_infoE, i64 2), ptr @"_ZTSZN9grpc_core9XdsClient36NotifyWatchersOnResourceDoesNotExistERKSt3mapIPNS0_24ResourceWatcherInterfaceENS_13RefCountedPtrIS2_EESt4lessIS3_ESaISt4pairIKS3_S5_EEEE3$_0" }, align 8
@llvm.global_ctors = appending global [1 x { i32, ptr, ptr }] [{ i32, ptr, ptr } { i32 65535, ptr @_GLOBAL__sub_I_xds_client.cc, ptr null }]

@_ZN9grpc_core9XdsClient12ChannelStateC1ENS_17WeakRefCountedPtrIS0_EERKNS_12XdsBootstrap9XdsServerE = unnamed_addr alias void (ptr, ptr, ptr), ptr @_ZN9grpc_core9XdsClient12ChannelStateC2ENS_17WeakRefCountedPtrIS0_EERKNS_12XdsBootstrap9XdsServerE
@_ZN9grpc_core9XdsClient12ChannelStateD1Ev = unnamed_addr alias void (ptr), ptr @_ZN9grpc_core9XdsClient12ChannelStateD2Ev
@_ZN9grpc_core9XdsClient12ChannelState12AdsCallStateC1ENS_13RefCountedPtrINS1_13RetryableCallIS2_EEEE = unnamed_addr alias void (ptr, ptr), ptr @_ZN9grpc_core9XdsClient12ChannelState12AdsCallStateC2ENS_13RefCountedPtrINS1_13RetryableCallIS2_EEEE
@_ZN9grpc_core9XdsClient12ChannelState12LrsCallStateC1ENS_13RefCountedPtrINS1_13RetryableCallIS2_EEEE = unnamed_addr alias void (ptr, ptr), ptr @_ZN9grpc_core9XdsClient12ChannelState12LrsCallStateC2ENS_13RefCountedPtrINS1_13RetryableCallIS2_EEEE
@_ZN9grpc_core9XdsClientC1ESt10unique_ptrINS_12XdsBootstrapESt14default_deleteIS2_EES1_INS_19XdsTransportFactoryENS_16OrphanableDeleteEESt10shared_ptrIN17grpc_event_engine12experimental11EventEngineEENSt7__cxx1112basic_stringIcSt11char_traitsIcESaIcEEESJ_NS_8DurationE = unnamed_addr alias void (ptr, ptr, ptr, ptr, ptr, ptr, i64), ptr @_ZN9grpc_core9XdsClientC2ESt10unique_ptrINS_12XdsBootstrapESt14default_deleteIS2_EES1_INS_19XdsTransportFactoryENS_16OrphanableDeleteEESt10shared_ptrIN17grpc_event_engine12experimental11EventEngineEENSt7__cxx1112basic_stringIcSt11char_traitsIcESaIcEEESJ_NS_8DurationE
@_ZN9grpc_core9XdsClientD1Ev = unnamed_addr alias void (ptr), ptr @_ZN9grpc_core9XdsClientD2Ev

declare void @_ZNSt8ios_base4InitC1Ev(ptr noundef nonnull align 1 dereferenceable(1)) unnamed_addr #0

; Function Attrs: nounwind
declare void @_ZNSt8ios_base4InitD1Ev(ptr noundef nonnull align 1 dereferenceable(1)) unnamed_addr #1

; Function Attrs: nofree nounwind
declare i32 @__cxa_atexit(ptr, ptr, ptr) local_unnamed_addr #2

declare void @_ZN9grpc_core9TraceFlagC1EbPKc(ptr noundef nonnull align 8 dereferenceable(17), i1 noundef zeroext, ptr noundef) unnamed_addr #0

; Function Attrs: mustprogress uwtable
define void @_ZN9grpc_core9XdsClient12ChannelStateC2ENS_17WeakRefCountedPtrIS0_EERKNS_12XdsBootstrap9XdsServerE(ptr noundef nonnull align 8 dereferenceable(120) %this, ptr nocapture noundef %xds_client, ptr noundef nonnull align 8 dereferenceable(8) %server) unnamed_addr #3 align 2 personality ptr @__gxx_personality_v0 {
invoke.cont:
  %status = alloca %"class.absl::lts_20230802::Status", align 8
  %ref.tmp = alloca %"class.std::unique_ptr", align 8
  %agg.tmp = alloca %"class.std::function", align 8
  %agg.tmp38 = alloca %"class.absl::lts_20230802::Status", align 8
  %0 = load atomic i8, ptr getelementptr inbounds (%"class.grpc_core::TraceFlag", ptr @_ZN9grpc_core30grpc_xds_client_refcount_traceE, i64 0, i32 2) monotonic, align 8
  %refs_.i = getelementptr inbounds %"class.grpc_core::DualRefCounted", ptr %this, i64 0, i32 1
  store i64 4294967296, ptr %refs_.i, align 8
  store ptr getelementptr inbounds ({ [5 x ptr] }, ptr @_ZTVN9grpc_core9XdsClient12ChannelStateE, i64 0, inrange i32 0, i64 2), ptr %this, align 8
  %xds_client_ = getelementptr inbounds %"class.grpc_core::XdsClient::ChannelState", ptr %this, i64 0, i32 1
  store ptr null, ptr %xds_client_, align 8
  %1 = load ptr, ptr %xds_client, align 8
  store ptr %1, ptr %xds_client_, align 8
  store ptr null, ptr %xds_client, align 8
  %server_ = getelementptr inbounds %"class.grpc_core::XdsClient::ChannelState", ptr %this, i64 0, i32 2
  store ptr %server, ptr %server_, align 8
  %transport_ = getelementptr inbounds %"class.grpc_core::XdsClient::ChannelState", ptr %this, i64 0, i32 3
  store ptr null, ptr %transport_, align 8
  %shutting_down_ = getelementptr inbounds %"class.grpc_core::XdsClient::ChannelState", ptr %this, i64 0, i32 4
  store i8 0, ptr %shutting_down_, align 8
  %ads_calld_ = getelementptr inbounds %"class.grpc_core::XdsClient::ChannelState", ptr %this, i64 0, i32 5
  %lrs_calld_ = getelementptr inbounds %"class.grpc_core::XdsClient::ChannelState", ptr %this, i64 0, i32 6
  %resource_type_version_map_ = getelementptr inbounds %"class.grpc_core::XdsClient::ChannelState", ptr %this, i64 0, i32 7
  %2 = getelementptr inbounds %"class.grpc_core::XdsClient::ChannelState", ptr %this, i64 0, i32 7, i32 0, i32 0, i32 1
  store i32 0, ptr %2, align 8
  %_M_parent.i.i.i.i.i = getelementptr inbounds %"class.grpc_core::XdsClient::ChannelState", ptr %this, i64 0, i32 7, i32 0, i32 0, i32 1, i32 0, i32 1
  store ptr null, ptr %_M_parent.i.i.i.i.i, align 8
  %_M_left.i.i.i.i.i = getelementptr inbounds %"class.grpc_core::XdsClient::ChannelState", ptr %this, i64 0, i32 7, i32 0, i32 0, i32 1, i32 0, i32 2
  tail call void @llvm.memset.p0.i64(ptr noundef nonnull align 8 dereferenceable(16) %ads_calld_, i8 0, i64 16, i1 false)
  store ptr %2, ptr %_M_left.i.i.i.i.i, align 8
  %_M_right.i.i.i.i.i = getelementptr inbounds %"class.grpc_core::XdsClient::ChannelState", ptr %this, i64 0, i32 7, i32 0, i32 0, i32 1, i32 0, i32 3
  store ptr %2, ptr %_M_right.i.i.i.i.i, align 8
  %_M_node_count.i.i.i.i.i = getelementptr inbounds %"class.grpc_core::XdsClient::ChannelState", ptr %this, i64 0, i32 7, i32 0, i32 0, i32 1, i32 1
  %status_ = getelementptr inbounds %"class.grpc_core::XdsClient::ChannelState", ptr %this, i64 0, i32 8
  tail call void @llvm.memset.p0.i64(ptr noundef nonnull align 8 dereferenceable(16) %_M_node_count.i.i.i.i.i, i8 0, i64 16, i1 false)
  %3 = load atomic i8, ptr getelementptr inbounds (%"class.grpc_core::TraceFlag", ptr @_ZN9grpc_core21grpc_xds_client_traceE, i64 0, i32 2) monotonic, align 8
  %4 = and i8 %3, 1
  %tobool.i.i.i9.not = icmp eq i8 %4, 0
  br i1 %tobool.i.i.i9.not, label %invoke.cont21, label %if.then

if.then:                                          ; preds = %invoke.cont
  %5 = load ptr, ptr %xds_client_, align 8
  %vtable = load ptr, ptr %server, align 8
  %vfn = getelementptr inbounds ptr, ptr %vtable, i64 2
  %6 = load ptr, ptr %vfn, align 8
  %call9 = invoke noundef nonnull align 8 dereferenceable(32) ptr %6(ptr noundef nonnull align 8 dereferenceable(8) %server)
          to label %invoke.cont8 unwind label %lpad2

invoke.cont8:                                     ; preds = %if.then
  %call10 = tail call noundef ptr @_ZNKSt7__cxx1112basic_stringIcSt11char_traitsIcESaIcEE5c_strEv(ptr noundef nonnull align 8 dereferenceable(32) %call9) #25
  invoke void (ptr, i32, i32, ptr, ...) @gpr_log(ptr noundef nonnull @.str.5, i32 noundef 450, i32 noundef 1, ptr noundef nonnull @.str.6, ptr noundef %5, ptr noundef nonnull %this, ptr noundef %call10)
          to label %invoke.cont21 unwind label %lpad2

lpad2:                                            ; preds = %invoke.cont8, %if.then
  %7 = landingpad { ptr, i32 }
          cleanup
  br label %ehcleanup44

invoke.cont21:                                    ; preds = %invoke.cont8, %invoke.cont
  store i64 0, ptr %status, align 8
  %8 = load ptr, ptr %xds_client_, align 8
  %transport_factory_ = getelementptr inbounds %"class.grpc_core::XdsClient", ptr %8, i64 0, i32 2
  %9 = load ptr, ptr %transport_factory_, align 8
  %10 = atomicrmw add ptr %refs_.i, i64 1 monotonic, align 8, !noalias !4
  %_M_manager.i.i = getelementptr inbounds %"class.std::_Function_base", ptr %agg.tmp, i64 0, i32 1
  call void @llvm.memset.p0.i64(ptr noundef nonnull align 8 dereferenceable(32) %agg.tmp, i8 0, i64 32, i1 false)
  %call.i.i2.i10 = invoke noalias noundef nonnull dereferenceable(8) ptr @_Znwm(i64 noundef 8) #26
          to label %invoke.cont23 unwind label %if.then.i.i20

invoke.cont23:                                    ; preds = %invoke.cont21
  %_M_invoker.i = getelementptr inbounds %"class.std::function", ptr %agg.tmp, i64 0, i32 1
  store ptr %this, ptr %call.i.i2.i10, align 8
  store ptr %call.i.i2.i10, ptr %agg.tmp, align 8
  store ptr @"_ZNSt17_Function_handlerIFvN4absl12lts_202308026StatusEEZN9grpc_core9XdsClient12ChannelStateC1ENS4_17WeakRefCountedPtrIS5_EERKNS4_12XdsBootstrap9XdsServerEE3$_0E9_M_invokeERKSt9_Any_dataOS2_", ptr %_M_invoker.i, align 8
  store ptr @"_ZNSt17_Function_handlerIFvN4absl12lts_202308026StatusEEZN9grpc_core9XdsClient12ChannelStateC1ENS4_17WeakRefCountedPtrIS5_EERKNS4_12XdsBootstrap9XdsServerEE3$_0E10_M_managerERSt9_Any_dataRKSF_St18_Manager_operation", ptr %_M_manager.i.i, align 8
  %vtable24 = load ptr, ptr %9, align 8
  %vfn25 = getelementptr inbounds ptr, ptr %vtable24, i64 3
  %11 = load ptr, ptr %vfn25, align 8
  invoke void %11(ptr nonnull sret(%"class.std::unique_ptr") align 8 %ref.tmp, ptr noundef nonnull align 8 dereferenceable(16) %9, ptr noundef nonnull align 8 dereferenceable(8) %server, ptr noundef nonnull %agg.tmp, ptr noundef nonnull %status)
          to label %invoke.cont27 unwind label %lpad26

invoke.cont27:                                    ; preds = %invoke.cont23
  %12 = load ptr, ptr %ref.tmp, align 8
  store ptr null, ptr %ref.tmp, align 8
  %13 = load ptr, ptr %transport_, align 8
  store ptr %12, ptr %transport_, align 8
  %tobool.not.i.i.i.i = icmp eq ptr %13, null
  br i1 %tobool.not.i.i.i.i, label %_ZNSt10unique_ptrIN9grpc_core19XdsTransportFactory12XdsTransportENS0_16OrphanableDeleteEED2Ev.exit, label %if.then.i.i.i.i

if.then.i.i.i.i:                                  ; preds = %invoke.cont27
  %vtable.i.i.i.i.i = load ptr, ptr %13, align 8
  %14 = load ptr, ptr %vtable.i.i.i.i.i, align 8
  invoke void %14(ptr noundef nonnull align 8 dereferenceable(8) %13)
          to label %_ZNSt10unique_ptrIN9grpc_core19XdsTransportFactory12XdsTransportENS0_16OrphanableDeleteEEaSEOS4_.exit unwind label %terminate.lpad.i.i.i.i

terminate.lpad.i.i.i.i:                           ; preds = %if.then.i.i.i.i
  %15 = landingpad { ptr, i32 }
          catch ptr null
  %16 = extractvalue { ptr, i32 } %15, 0
  call void @__clang_call_terminate(ptr %16) #27
  unreachable

_ZNSt10unique_ptrIN9grpc_core19XdsTransportFactory12XdsTransportENS0_16OrphanableDeleteEEaSEOS4_.exit: ; preds = %if.then.i.i.i.i
  %.pr = load ptr, ptr %ref.tmp, align 8
  %cmp.not.i = icmp eq ptr %.pr, null
  br i1 %cmp.not.i, label %_ZNSt10unique_ptrIN9grpc_core19XdsTransportFactory12XdsTransportENS0_16OrphanableDeleteEED2Ev.exit, label %if.then.i

if.then.i:                                        ; preds = %_ZNSt10unique_ptrIN9grpc_core19XdsTransportFactory12XdsTransportENS0_16OrphanableDeleteEEaSEOS4_.exit
  %vtable.i.i = load ptr, ptr %.pr, align 8
  %17 = load ptr, ptr %vtable.i.i, align 8
  invoke void %17(ptr noundef nonnull align 8 dereferenceable(8) %.pr)
          to label %_ZNSt10unique_ptrIN9grpc_core19XdsTransportFactory12XdsTransportENS0_16OrphanableDeleteEED2Ev.exit unwind label %terminate.lpad.i

terminate.lpad.i:                                 ; preds = %if.then.i
  %18 = landingpad { ptr, i32 }
          catch ptr null
  %19 = extractvalue { ptr, i32 } %18, 0
  call void @__clang_call_terminate(ptr %19) #27
  unreachable

_ZNSt10unique_ptrIN9grpc_core19XdsTransportFactory12XdsTransportENS0_16OrphanableDeleteEED2Ev.exit: ; preds = %invoke.cont27, %_ZNSt10unique_ptrIN9grpc_core19XdsTransportFactory12XdsTransportENS0_16OrphanableDeleteEEaSEOS4_.exit, %if.then.i
  store ptr null, ptr %ref.tmp, align 8
  %20 = load ptr, ptr %_M_manager.i.i, align 8
  %tobool.not.i.i = icmp eq ptr %20, null
  br i1 %tobool.not.i.i, label %"_ZZN9grpc_core9XdsClient12ChannelStateC1ENS_17WeakRefCountedPtrIS0_EERKNS_12XdsBootstrap9XdsServerEEN3$_0D2Ev.exit", label %if.then.i.i

if.then.i.i:                                      ; preds = %_ZNSt10unique_ptrIN9grpc_core19XdsTransportFactory12XdsTransportENS0_16OrphanableDeleteEED2Ev.exit
  %call.i.i = invoke noundef zeroext i1 %20(ptr noundef nonnull align 8 dereferenceable(16) %agg.tmp, ptr noundef nonnull align 8 dereferenceable(16) %agg.tmp, i32 noundef 3)
          to label %"_ZZN9grpc_core9XdsClient12ChannelStateC1ENS_17WeakRefCountedPtrIS0_EERKNS_12XdsBootstrap9XdsServerEEN3$_0D2Ev.exit" unwind label %terminate.lpad.i.i

terminate.lpad.i.i:                               ; preds = %if.then.i.i
  %21 = landingpad { ptr, i32 }
          catch ptr null
  %22 = extractvalue { ptr, i32 } %21, 0
  call void @__clang_call_terminate(ptr %22) #27
  unreachable

"_ZZN9grpc_core9XdsClient12ChannelStateC1ENS_17WeakRefCountedPtrIS0_EERKNS_12XdsBootstrap9XdsServerEEN3$_0D2Ev.exit": ; preds = %if.then.i.i, %_ZNSt10unique_ptrIN9grpc_core19XdsTransportFactory12XdsTransportENS0_16OrphanableDeleteEED2Ev.exit
  %23 = load ptr, ptr %transport_, align 8
  %cmp.i.i.not = icmp eq ptr %23, null
  br i1 %cmp.i.i.not, label %if.then32, label %do.end

if.then32:                                        ; preds = %"_ZZN9grpc_core9XdsClient12ChannelStateC1ENS_17WeakRefCountedPtrIS0_EERKNS_12XdsBootstrap9XdsServerEEN3$_0D2Ev.exit"
  invoke void @gpr_assertion_failed(ptr noundef nonnull @.str.5, i32 noundef 461, ptr noundef nonnull @.str.8) #28
          to label %invoke.cont33 unwind label %lpad14

invoke.cont33:                                    ; preds = %if.then32
  unreachable

lpad14:                                           ; preds = %if.then32
  %24 = landingpad { ptr, i32 }
          cleanup
  br label %ehcleanup43

lpad26:                                           ; preds = %invoke.cont23
  %25 = landingpad { ptr, i32 }
          cleanup
  %26 = load ptr, ptr %_M_manager.i.i, align 8
  %tobool.not.i.i14 = icmp eq ptr %26, null
  br i1 %tobool.not.i.i14, label %ehcleanup43, label %if.then.i.i15

if.then.i.i15:                                    ; preds = %lpad26
  %call.i.i16 = invoke noundef zeroext i1 %26(ptr noundef nonnull align 8 dereferenceable(16) %agg.tmp, ptr noundef nonnull align 8 dereferenceable(16) %agg.tmp, i32 noundef 3)
          to label %ehcleanup43 unwind label %terminate.lpad.i.i17

terminate.lpad.i.i17:                             ; preds = %if.then.i.i15
  %27 = landingpad { ptr, i32 }
          catch ptr null
  %28 = extractvalue { ptr, i32 } %27, 0
  call void @__clang_call_terminate(ptr %28) #27
  unreachable

if.then.i.i20:                                    ; preds = %invoke.cont21
  %29 = landingpad { ptr, i32 }
          cleanup
  %30 = atomicrmw sub ptr %refs_.i, i64 1 acq_rel, align 8
  %cmp.not.i.i.i22 = icmp eq i64 %30, 1
  br i1 %cmp.not.i.i.i22, label %delete.notnull.i.i.i23, label %ehcleanup43

delete.notnull.i.i.i23:                           ; preds = %if.then.i.i20
  %vtable.i.i.i24 = load ptr, ptr %this, align 8
  %vfn.i.i.i25 = getelementptr inbounds ptr, ptr %vtable.i.i.i24, i64 2
  %31 = load ptr, ptr %vfn.i.i.i25, align 8
  tail call void %31(ptr noundef nonnull align 8 dereferenceable(120) %this) #25
  br label %ehcleanup43

do.end:                                           ; preds = %"_ZZN9grpc_core9XdsClient12ChannelStateC1ENS_17WeakRefCountedPtrIS0_EERKNS_12XdsBootstrap9XdsServerEEN3$_0D2Ev.exit"
  %32 = load i64, ptr %status, align 8
  %cmp.i = icmp eq i64 %32, 0
  br i1 %cmp.i, label %if.end42, label %if.then37

if.then37:                                        ; preds = %do.end
  store i64 %32, ptr %agg.tmp38, align 8
  store i64 54, ptr %status, align 8
  invoke void @_ZN9grpc_core9XdsClient12ChannelState22SetChannelStatusLockedEN4absl12lts_202308026StatusE(ptr noundef nonnull align 8 dereferenceable(120) %this, ptr noundef nonnull %agg.tmp38)
          to label %invoke.cont40 unwind label %lpad39

invoke.cont40:                                    ; preds = %if.then37
  %33 = load i64, ptr %agg.tmp38, align 8
  %and.i.i.i = and i64 %33, 1
  %cmp.i.i.i = icmp eq i64 %and.i.i.i, 0
  br i1 %cmp.i.i.i, label %if.end42, label %if.then.i.i27

if.then.i.i27:                                    ; preds = %invoke.cont40
  invoke void @_ZN4absl12lts_202308026Status15UnrefNonInlinedEm(i64 noundef %33)
          to label %if.end42 unwind label %terminate.lpad.i28

terminate.lpad.i28:                               ; preds = %if.then.i.i27
  %34 = landingpad { ptr, i32 }
          catch ptr null
  %35 = extractvalue { ptr, i32 } %34, 0
  call void @__clang_call_terminate(ptr %35) #27
  unreachable

lpad39:                                           ; preds = %if.then37
  %36 = landingpad { ptr, i32 }
          cleanup
  call void @_ZN4absl12lts_202308026StatusD2Ev(ptr noundef nonnull align 8 dereferenceable(8) %agg.tmp38) #25
  br label %ehcleanup43

if.end42:                                         ; preds = %if.then.i.i27, %invoke.cont40, %do.end
  %37 = load i64, ptr %status, align 8
  %and.i.i.i29 = and i64 %37, 1
  %cmp.i.i.i30 = icmp eq i64 %and.i.i.i29, 0
  br i1 %cmp.i.i.i30, label %_ZN4absl12lts_202308026StatusD2Ev.exit33, label %if.then.i.i31

if.then.i.i31:                                    ; preds = %if.end42
  invoke void @_ZN4absl12lts_202308026Status15UnrefNonInlinedEm(i64 noundef %37)
          to label %_ZN4absl12lts_202308026StatusD2Ev.exit33 unwind label %terminate.lpad.i32

terminate.lpad.i32:                               ; preds = %if.then.i.i31
  %38 = landingpad { ptr, i32 }
          catch ptr null
  %39 = extractvalue { ptr, i32 } %38, 0
  call void @__clang_call_terminate(ptr %39) #27
  unreachable

_ZN4absl12lts_202308026StatusD2Ev.exit33:         ; preds = %if.end42, %if.then.i.i31
  ret void

ehcleanup43:                                      ; preds = %if.then.i.i15, %lpad26, %delete.notnull.i.i.i23, %if.then.i.i20, %lpad39, %lpad14
  %.pn4 = phi { ptr, i32 } [ %24, %lpad14 ], [ %36, %lpad39 ], [ %29, %if.then.i.i20 ], [ %29, %delete.notnull.i.i.i23 ], [ %25, %lpad26 ], [ %25, %if.then.i.i15 ]
  call void @_ZN4absl12lts_202308026StatusD2Ev(ptr noundef nonnull align 8 dereferenceable(8) %status) #25
  br label %ehcleanup44

ehcleanup44:                                      ; preds = %ehcleanup43, %lpad2
  %.pn4.pn = phi { ptr, i32 } [ %.pn4, %ehcleanup43 ], [ %7, %lpad2 ]
  call void @_ZN4absl12lts_202308026StatusD2Ev(ptr noundef nonnull align 8 dereferenceable(8) %status_) #25
  call void @_ZNSt3mapIPKN9grpc_core15XdsResourceTypeENSt7__cxx1112basic_stringIcSt11char_traitsIcESaIcEEESt4lessIS3_ESaISt4pairIKS3_S9_EEED2Ev(ptr noundef nonnull align 8 dereferenceable(48) %resource_type_version_map_) #25
  call void @_ZNSt10unique_ptrIN9grpc_core9XdsClient12ChannelState13RetryableCallINS2_12LrsCallStateEEENS0_16OrphanableDeleteEED2Ev(ptr noundef nonnull align 8 dereferenceable(8) %lrs_calld_) #25
  call void @_ZNSt10unique_ptrIN9grpc_core9XdsClient12ChannelState13RetryableCallINS2_12AdsCallStateEEENS0_16OrphanableDeleteEED2Ev(ptr noundef nonnull align 8 dereferenceable(8) %ads_calld_) #25
  call void @_ZNSt10unique_ptrIN9grpc_core19XdsTransportFactory12XdsTransportENS0_16OrphanableDeleteEED2Ev(ptr noundef nonnull align 8 dereferenceable(8) %transport_) #25
  %40 = load ptr, ptr %xds_client_, align 8
  %cmp.not.i34 = icmp eq ptr %40, null
  br i1 %cmp.not.i34, label %_ZN9grpc_core17WeakRefCountedPtrINS_9XdsClientEED2Ev.exit, label %if.then.i35

if.then.i35:                                      ; preds = %ehcleanup44
  %refs_.i.i36 = getelementptr inbounds %"class.grpc_core::DualRefCounted.21", ptr %40, i64 0, i32 1
  %41 = atomicrmw sub ptr %refs_.i.i36, i64 1 acq_rel, align 8
  %cmp.not.i.i37 = icmp eq i64 %41, 1
  br i1 %cmp.not.i.i37, label %delete.notnull.i.i, label %_ZN9grpc_core17WeakRefCountedPtrINS_9XdsClientEED2Ev.exit

delete.notnull.i.i:                               ; preds = %if.then.i35
  %vtable.i.i38 = load ptr, ptr %40, align 8
  %vfn.i.i = getelementptr inbounds ptr, ptr %vtable.i.i38, i64 2
  %42 = load ptr, ptr %vfn.i.i, align 8
  call void %42(ptr noundef nonnull align 8 dereferenceable(433) %40) #25
  br label %_ZN9grpc_core17WeakRefCountedPtrINS_9XdsClientEED2Ev.exit

_ZN9grpc_core17WeakRefCountedPtrINS_9XdsClientEED2Ev.exit: ; preds = %ehcleanup44, %if.then.i35, %delete.notnull.i.i
  resume { ptr, i32 } %.pn4.pn
}

declare i32 @__gxx_personality_v0(...)

declare void @gpr_log(ptr noundef, i32 noundef, i32 noundef, ptr noundef, ...) local_unnamed_addr #0

; Function Attrs: nounwind
declare noundef ptr @_ZNKSt7__cxx1112basic_stringIcSt11char_traitsIcESaIcEE5c_strEv(ptr noundef nonnull align 8 dereferenceable(32)) local_unnamed_addr #1

; Function Attrs: mustprogress nounwind uwtable
define linkonce_odr void @_ZNSt10unique_ptrIN9grpc_core19XdsTransportFactory12XdsTransportENS0_16OrphanableDeleteEED2Ev(ptr noundef nonnull align 8 dereferenceable(8) %this) unnamed_addr #4 comdat align 2 personality ptr @__gxx_personality_v0 {
entry:
  %0 = load ptr, ptr %this, align 8
  %cmp.not = icmp eq ptr %0, null
  br i1 %cmp.not, label %if.end, label %if.then

if.then:                                          ; preds = %entry
  %vtable.i = load ptr, ptr %0, align 8
  %1 = load ptr, ptr %vtable.i, align 8
  invoke void %1(ptr noundef nonnull align 8 dereferenceable(8) %0)
          to label %if.end unwind label %terminate.lpad

if.end:                                           ; preds = %if.then, %entry
  store ptr null, ptr %this, align 8
  ret void

terminate.lpad:                                   ; preds = %if.then
  %2 = landingpad { ptr, i32 }
          catch ptr null
  %3 = extractvalue { ptr, i32 } %2, 0
  tail call void @__clang_call_terminate(ptr %3) #27
  unreachable
}

; Function Attrs: noreturn
declare void @gpr_assertion_failed(ptr noundef, i32 noundef, ptr noundef) local_unnamed_addr #5

; Function Attrs: mustprogress uwtable
define void @_ZN9grpc_core9XdsClient12ChannelState22SetChannelStatusLockedEN4absl12lts_202308026StatusE(ptr noundef nonnull align 8 dereferenceable(120) %this, ptr noundef %status) local_unnamed_addr #3 align 2 personality ptr @__gxx_personality_v0 {
entry:
  %ref.tmp = alloca %"class.absl::lts_20230802::Status", align 8
  %ref.tmp2 = alloca %"class.std::__cxx11::basic_string", align 8
  %ref.tmp3 = alloca %"class.absl::lts_20230802::AlphaNum", align 8
  %ref.tmp4 = alloca %"class.absl::lts_20230802::AlphaNum", align 8
  %ref.tmp6 = alloca %"class.absl::lts_20230802::AlphaNum", align 8
  %ref.tmp7 = alloca %"class.absl::lts_20230802::AlphaNum", align 8
  %ref.tmp15 = alloca %"class.std::__cxx11::basic_string", align 8
  %ref.tmp26 = alloca %"class.absl::lts_20230802::Status", align 8
  %ref.tmp29 = alloca %"class.std::__cxx11::basic_string", align 8
  %ref.tmp30 = alloca %"class.absl::lts_20230802::AlphaNum", align 8
  %ref.tmp33 = alloca %"class.absl::lts_20230802::AlphaNum", align 8
  %ref.tmp34 = alloca %"class.absl::lts_20230802::AlphaNum", align 8
  %ref.tmp45 = alloca %"class.absl::lts_20230802::AlphaNum", align 8
  %watchers = alloca %"class.std::set.124", align 8
  %agg.tmp113 = alloca %"class.std::function.161", align 8
  %ref.tmp114 = alloca %class.anon.163, align 8
  %ref.tmp117 = alloca %"class.grpc_core::DebugLocation", align 1
  %shutting_down_ = getelementptr inbounds %"class.grpc_core::XdsClient::ChannelState", ptr %this, i64 0, i32 4
  %0 = load i8, ptr %shutting_down_, align 8
  %1 = and i8 %0, 1
  %tobool.not = icmp eq i8 %1, 0
  br i1 %tobool.not, label %if.end, label %return

if.end:                                           ; preds = %entry
  %call = tail call noundef i32 @_ZNK4absl12lts_202308026Status4codeEv(ptr noundef nonnull align 8 dereferenceable(8) %status)
  store i64 23, ptr %ref.tmp3, align 8
  %2 = getelementptr inbounds { i64, ptr }, ptr %ref.tmp3, i64 0, i32 1
  store ptr @.str.13, ptr %2, align 8
  %server_ = getelementptr inbounds %"class.grpc_core::XdsClient::ChannelState", ptr %this, i64 0, i32 2
  %3 = load ptr, ptr %server_, align 8
  %vtable = load ptr, ptr %3, align 8
  %vfn = getelementptr inbounds ptr, ptr %vtable, i64 2
  %4 = load ptr, ptr %vfn, align 8
  %call5 = tail call noundef nonnull align 8 dereferenceable(32) ptr %4(ptr noundef nonnull align 8 dereferenceable(8) %3)
  %call.i = tail call { i64, ptr } @_ZNKSt7__cxx1112basic_stringIcSt11char_traitsIcESaIcEEcvSt17basic_string_viewIcS2_EEv(ptr noundef nonnull align 8 dereferenceable(32) %call5) #25
  %5 = extractvalue { i64, ptr } %call.i, 0
  store i64 %5, ptr %ref.tmp4, align 8
  %6 = getelementptr inbounds { i64, ptr }, ptr %ref.tmp4, i64 0, i32 1
  %7 = extractvalue { i64, ptr } %call.i, 1
  store ptr %7, ptr %6, align 8
  store i64 2, ptr %ref.tmp6, align 8
  %8 = getelementptr inbounds { i64, ptr }, ptr %ref.tmp6, i64 0, i32 1
  store ptr @.str.14, ptr %8, align 8
  %9 = load i64, ptr %status, align 8
  %and.i.i = and i64 %9, 1
  %cmp.i.i = icmp eq i64 %and.i.i, 0
  br i1 %cmp.i.i, label %cond.false.i, label %cond.true.i

cond.true.i:                                      ; preds = %if.end
  %sub.i.i = add nsw i64 %9, -1
  %10 = inttoptr i64 %sub.i.i to ptr
  %message.i = getelementptr inbounds %"struct.absl::lts_20230802::status_internal::StatusRep", ptr %10, i64 0, i32 2
  %call4.i = tail call { i64, ptr } @_ZNKSt7__cxx1112basic_stringIcSt11char_traitsIcESaIcEEcvSt17basic_string_viewIcS2_EEv(ptr noundef nonnull align 8 dereferenceable(32) %message.i) #25
  %11 = extractvalue { i64, ptr } %call4.i, 0
  %12 = extractvalue { i64, ptr } %call4.i, 1
  br label %_ZNK4absl12lts_202308026Status7messageEv.exit

cond.false.i:                                     ; preds = %if.end
  %13 = and i64 %9, 2
  %.not.i = icmp eq i64 %13, 0
  %spec.select.i = select i1 %.not.i, i64 0, i64 27
  %spec.select1.i = select i1 %.not.i, ptr null, ptr @_ZN4absl12lts_202308026Status16kMovedFromStringE
  br label %_ZNK4absl12lts_202308026Status7messageEv.exit

_ZNK4absl12lts_202308026Status7messageEv.exit:    ; preds = %cond.true.i, %cond.false.i
  %retval.sroa.0.0.i = phi i64 [ %11, %cond.true.i ], [ %spec.select.i, %cond.false.i ]
  %retval.sroa.4.0.i = phi ptr [ %12, %cond.true.i ], [ %spec.select1.i, %cond.false.i ]
  store i64 %retval.sroa.0.0.i, ptr %ref.tmp7, align 8
  %pc.sroa.2.0.piece_.sroa_idx.i = getelementptr inbounds i8, ptr %ref.tmp7, i64 8
  store ptr %retval.sroa.4.0.i, ptr %pc.sroa.2.0.piece_.sroa_idx.i, align 8
  call void @_ZN4absl12lts_202308026StrCatB5cxx11ERKNS0_8AlphaNumES3_S3_S3_(ptr nonnull sret(%"class.std::__cxx11::basic_string") align 8 %ref.tmp2, ptr noundef nonnull align 8 dereferenceable(48) %ref.tmp3, ptr noundef nonnull align 8 dereferenceable(48) %ref.tmp4, ptr noundef nonnull align 8 dereferenceable(48) %ref.tmp6, ptr noundef nonnull align 8 dereferenceable(48) %ref.tmp7)
  %call10 = call { i64, ptr } @_ZNKSt7__cxx1112basic_stringIcSt11char_traitsIcESaIcEEcvSt17basic_string_viewIcS2_EEv(ptr noundef nonnull align 8 dereferenceable(32) %ref.tmp2) #25
  %14 = extractvalue { i64, ptr } %call10, 0
  %15 = extractvalue { i64, ptr } %call10, 1
  invoke void @_ZN4absl12lts_202308026StatusC1ENS0_10StatusCodeESt17basic_string_viewIcSt11char_traitsIcEE(ptr noundef nonnull align 8 dereferenceable(8) %ref.tmp, i32 noundef %call, i64 %14, ptr %15)
          to label %invoke.cont unwind label %lpad

invoke.cont:                                      ; preds = %_ZNK4absl12lts_202308026Status7messageEv.exit
  %16 = load i64, ptr %status, align 8
  %17 = load i64, ptr %ref.tmp, align 8
  %cmp.not.i = icmp eq i64 %17, %16
  br i1 %cmp.not.i, label %invoke.cont12, label %if.then.i

if.then.i:                                        ; preds = %invoke.cont
  store i64 %17, ptr %status, align 8
  store i64 54, ptr %ref.tmp, align 8
  %and.i.i.i = and i64 %16, 1
  %cmp.i.i.i = icmp eq i64 %and.i.i.i, 0
  br i1 %cmp.i.i.i, label %_ZN4absl12lts_202308026StatusD2Ev.exit, label %if.then.i.i

if.then.i.i:                                      ; preds = %if.then.i
  invoke void @_ZN4absl12lts_202308026Status15UnrefNonInlinedEm(i64 noundef %16)
          to label %if.then.i.i.invoke.cont12_crit_edge unwind label %lpad11

if.then.i.i.invoke.cont12_crit_edge:              ; preds = %if.then.i.i
  %.pre = load i64, ptr %ref.tmp, align 8
  br label %invoke.cont12

invoke.cont12:                                    ; preds = %if.then.i.i.invoke.cont12_crit_edge, %invoke.cont
  %18 = phi i64 [ %.pre, %if.then.i.i.invoke.cont12_crit_edge ], [ %16, %invoke.cont ]
  %and.i.i.i15 = and i64 %18, 1
  %cmp.i.i.i16 = icmp eq i64 %and.i.i.i15, 0
  br i1 %cmp.i.i.i16, label %_ZN4absl12lts_202308026StatusD2Ev.exit, label %if.then.i.i17

if.then.i.i17:                                    ; preds = %invoke.cont12
  invoke void @_ZN4absl12lts_202308026Status15UnrefNonInlinedEm(i64 noundef %18)
          to label %_ZN4absl12lts_202308026StatusD2Ev.exit unwind label %terminate.lpad.i

terminate.lpad.i:                                 ; preds = %if.then.i.i17
  %19 = landingpad { ptr, i32 }
          catch ptr null
  %20 = extractvalue { ptr, i32 } %19, 0
  call void @__clang_call_terminate(ptr %20) #27
  unreachable

_ZN4absl12lts_202308026StatusD2Ev.exit:           ; preds = %if.then.i, %invoke.cont12, %if.then.i.i17
  call void @_ZNSt7__cxx1112basic_stringIcSt11char_traitsIcESaIcEED1Ev(ptr noundef nonnull align 8 dereferenceable(32) %ref.tmp2) #25
  %xds_client_.i = getelementptr inbounds %"class.grpc_core::XdsClient::ChannelState", ptr %this, i64 0, i32 1
  %21 = load ptr, ptr %xds_client_.i, align 8
  call void @_ZNK4absl12lts_202308026Status8ToStringB5cxx11ENS0_18StatusToStringModeE(ptr nonnull sret(%"class.std::__cxx11::basic_string") align 8 %ref.tmp15, ptr noundef nonnull align 8 dereferenceable(8) %status, i32 noundef 1)
  %call16 = call noundef ptr @_ZNKSt7__cxx1112basic_stringIcSt11char_traitsIcESaIcEE5c_strEv(ptr noundef nonnull align 8 dereferenceable(32) %ref.tmp15) #25
  invoke void (ptr, i32, i32, ptr, ...) @gpr_log(ptr noundef nonnull @.str.5, i32 noundef 560, i32 noundef 1, ptr noundef nonnull @.str.15, ptr noundef %21, ptr noundef %call16)
          to label %invoke.cont18 unwind label %lpad17

invoke.cont18:                                    ; preds = %_ZN4absl12lts_202308026StatusD2Ev.exit
  call void @_ZNSt7__cxx1112basic_stringIcSt11char_traitsIcESaIcEED1Ev(ptr noundef nonnull align 8 dereferenceable(32) %ref.tmp15) #25
  %22 = load ptr, ptr %xds_client_.i, align 8
  %bootstrap_ = getelementptr inbounds %"class.grpc_core::XdsClient", ptr %22, i64 0, i32 1
  %23 = load ptr, ptr %bootstrap_, align 8
  %vtable22 = load ptr, ptr %23, align 8
  %vfn23 = getelementptr inbounds ptr, ptr %vtable22, i64 4
  %24 = load ptr, ptr %vfn23, align 8
  %call24 = call noundef ptr %24(ptr noundef nonnull align 8 dereferenceable(8) %23)
  %cmp.not = icmp eq ptr %call24, null
  br i1 %cmp.not, label %if.end54, label %if.then25

if.then25:                                        ; preds = %invoke.cont18
  %call27 = call noundef i32 @_ZNK4absl12lts_202308026Status4codeEv(ptr noundef nonnull align 8 dereferenceable(8) %status)
  %25 = load i64, ptr %status, align 8
  %and.i.i18 = and i64 %25, 1
  %cmp.i.i19 = icmp eq i64 %and.i.i18, 0
  br i1 %cmp.i.i19, label %cond.false.i28, label %cond.true.i20

cond.true.i20:                                    ; preds = %if.then25
  %sub.i.i21 = add nsw i64 %25, -1
  %26 = inttoptr i64 %sub.i.i21 to ptr
  %message.i22 = getelementptr inbounds %"struct.absl::lts_20230802::status_internal::StatusRep", ptr %26, i64 0, i32 2
  %call4.i23 = call { i64, ptr } @_ZNKSt7__cxx1112basic_stringIcSt11char_traitsIcESaIcEEcvSt17basic_string_viewIcS2_EEv(ptr noundef nonnull align 8 dereferenceable(32) %message.i22) #25
  %27 = extractvalue { i64, ptr } %call4.i23, 0
  %28 = extractvalue { i64, ptr } %call4.i23, 1
  br label %_ZNK4absl12lts_202308026Status7messageEv.exit32

cond.false.i28:                                   ; preds = %if.then25
  %29 = and i64 %25, 2
  %.not.i29 = icmp eq i64 %29, 0
  %spec.select.i30 = select i1 %.not.i29, i64 0, i64 27
  %spec.select1.i31 = select i1 %.not.i29, ptr null, ptr @_ZN4absl12lts_202308026Status16kMovedFromStringE
  br label %_ZNK4absl12lts_202308026Status7messageEv.exit32

_ZNK4absl12lts_202308026Status7messageEv.exit32:  ; preds = %cond.true.i20, %cond.false.i28
  %retval.sroa.0.0.i24 = phi i64 [ %27, %cond.true.i20 ], [ %spec.select.i30, %cond.false.i28 ]
  %retval.sroa.4.0.i25 = phi ptr [ %28, %cond.true.i20 ], [ %spec.select1.i31, %cond.false.i28 ]
  store i64 %retval.sroa.0.0.i24, ptr %ref.tmp30, align 8
  %pc.sroa.2.0.piece_.sroa_idx.i33 = getelementptr inbounds i8, ptr %ref.tmp30, i64 8
  store ptr %retval.sroa.4.0.i25, ptr %pc.sroa.2.0.piece_.sroa_idx.i33, align 8
  store i64 10, ptr %ref.tmp33, align 8
  %30 = getelementptr inbounds { i64, ptr }, ptr %ref.tmp33, i64 0, i32 1
  store ptr @.str.16, ptr %30, align 8
  %31 = load ptr, ptr %xds_client_.i, align 8
  %bootstrap_37 = getelementptr inbounds %"class.grpc_core::XdsClient", ptr %31, i64 0, i32 1
  %32 = load ptr, ptr %bootstrap_37, align 8
  %vtable39 = load ptr, ptr %32, align 8
  %vfn40 = getelementptr inbounds ptr, ptr %vtable39, i64 4
  %33 = load ptr, ptr %vfn40, align 8
  %call41 = call noundef ptr %33(ptr noundef nonnull align 8 dereferenceable(8) %32)
  %vtable42 = load ptr, ptr %call41, align 8
  %vfn43 = getelementptr inbounds ptr, ptr %vtable42, i64 2
  %34 = load ptr, ptr %vfn43, align 8
  %call44 = call noundef nonnull align 8 dereferenceable(32) ptr %34(ptr noundef nonnull align 8 dereferenceable(8) %call41)
  %call.i35 = call { i64, ptr } @_ZNKSt7__cxx1112basic_stringIcSt11char_traitsIcESaIcEEcvSt17basic_string_viewIcS2_EEv(ptr noundef nonnull align 8 dereferenceable(32) %call44) #25
  %35 = extractvalue { i64, ptr } %call.i35, 0
  store i64 %35, ptr %ref.tmp34, align 8
  %36 = getelementptr inbounds { i64, ptr }, ptr %ref.tmp34, i64 0, i32 1
  %37 = extractvalue { i64, ptr } %call.i35, 1
  store ptr %37, ptr %36, align 8
  store i64 1, ptr %ref.tmp45, align 8
  %38 = getelementptr inbounds { i64, ptr }, ptr %ref.tmp45, i64 0, i32 1
  store ptr @.str.17, ptr %38, align 8
  call void @_ZN4absl12lts_202308026StrCatB5cxx11ERKNS0_8AlphaNumES3_S3_S3_(ptr nonnull sret(%"class.std::__cxx11::basic_string") align 8 %ref.tmp29, ptr noundef nonnull align 8 dereferenceable(48) %ref.tmp30, ptr noundef nonnull align 8 dereferenceable(48) %ref.tmp33, ptr noundef nonnull align 8 dereferenceable(48) %ref.tmp34, ptr noundef nonnull align 8 dereferenceable(48) %ref.tmp45)
  %call46 = call { i64, ptr } @_ZNKSt7__cxx1112basic_stringIcSt11char_traitsIcESaIcEEcvSt17basic_string_viewIcS2_EEv(ptr noundef nonnull align 8 dereferenceable(32) %ref.tmp29) #25
  %39 = extractvalue { i64, ptr } %call46, 0
  %40 = extractvalue { i64, ptr } %call46, 1
  invoke void @_ZN4absl12lts_202308026StatusC1ENS0_10StatusCodeESt17basic_string_viewIcSt11char_traitsIcEE(ptr noundef nonnull align 8 dereferenceable(8) %ref.tmp26, i32 noundef %call27, i64 %39, ptr %40)
          to label %invoke.cont48 unwind label %lpad47

invoke.cont48:                                    ; preds = %_ZNK4absl12lts_202308026Status7messageEv.exit32
  %41 = load i64, ptr %status, align 8
  %42 = load i64, ptr %ref.tmp26, align 8
  %cmp.not.i37 = icmp eq i64 %42, %41
  br i1 %cmp.not.i37, label %invoke.cont50, label %if.then.i38

if.then.i38:                                      ; preds = %invoke.cont48
  store i64 %42, ptr %status, align 8
  store i64 54, ptr %ref.tmp26, align 8
  %and.i.i.i39 = and i64 %41, 1
  %cmp.i.i.i40 = icmp eq i64 %and.i.i.i39, 0
  br i1 %cmp.i.i.i40, label %_ZN4absl12lts_202308026StatusD2Ev.exit48, label %if.then.i.i41

if.then.i.i41:                                    ; preds = %if.then.i38
  invoke void @_ZN4absl12lts_202308026Status15UnrefNonInlinedEm(i64 noundef %41)
          to label %if.then.i.i41.invoke.cont50_crit_edge unwind label %lpad49

if.then.i.i41.invoke.cont50_crit_edge:            ; preds = %if.then.i.i41
  %.pre122 = load i64, ptr %ref.tmp26, align 8
  br label %invoke.cont50

invoke.cont50:                                    ; preds = %if.then.i.i41.invoke.cont50_crit_edge, %invoke.cont48
  %43 = phi i64 [ %.pre122, %if.then.i.i41.invoke.cont50_crit_edge ], [ %41, %invoke.cont48 ]
  %and.i.i.i44 = and i64 %43, 1
  %cmp.i.i.i45 = icmp eq i64 %and.i.i.i44, 0
  br i1 %cmp.i.i.i45, label %_ZN4absl12lts_202308026StatusD2Ev.exit48, label %if.then.i.i46

if.then.i.i46:                                    ; preds = %invoke.cont50
  invoke void @_ZN4absl12lts_202308026Status15UnrefNonInlinedEm(i64 noundef %43)
          to label %_ZN4absl12lts_202308026StatusD2Ev.exit48 unwind label %terminate.lpad.i47

terminate.lpad.i47:                               ; preds = %if.then.i.i46
  %44 = landingpad { ptr, i32 }
          catch ptr null
  %45 = extractvalue { ptr, i32 } %44, 0
  call void @__clang_call_terminate(ptr %45) #27
  unreachable

_ZN4absl12lts_202308026StatusD2Ev.exit48:         ; preds = %if.then.i38, %invoke.cont50, %if.then.i.i46
  call void @_ZNSt7__cxx1112basic_stringIcSt11char_traitsIcESaIcEED1Ev(ptr noundef nonnull align 8 dereferenceable(32) %ref.tmp29) #25
  br label %if.end54

lpad:                                             ; preds = %_ZNK4absl12lts_202308026Status7messageEv.exit
  %46 = landingpad { ptr, i32 }
          cleanup
  br label %eh.resume.sink.split

lpad11:                                           ; preds = %if.then.i.i
  %47 = landingpad { ptr, i32 }
          cleanup
  call void @_ZN4absl12lts_202308026StatusD2Ev(ptr noundef nonnull align 8 dereferenceable(8) %ref.tmp) #25
  br label %eh.resume.sink.split

lpad17:                                           ; preds = %_ZN4absl12lts_202308026StatusD2Ev.exit
  %48 = landingpad { ptr, i32 }
          cleanup
  br label %eh.resume.sink.split

lpad47:                                           ; preds = %_ZNK4absl12lts_202308026Status7messageEv.exit32
  %49 = landingpad { ptr, i32 }
          cleanup
  br label %eh.resume.sink.split

lpad49:                                           ; preds = %if.then.i.i41
  %50 = landingpad { ptr, i32 }
          cleanup
  call void @_ZN4absl12lts_202308026StatusD2Ev(ptr noundef nonnull align 8 dereferenceable(8) %ref.tmp26) #25
  br label %eh.resume.sink.split

if.end54:                                         ; preds = %_ZN4absl12lts_202308026StatusD2Ev.exit48, %invoke.cont18
  %status_ = getelementptr inbounds %"class.grpc_core::XdsClient::ChannelState", ptr %this, i64 0, i32 8
  %51 = load i64, ptr %status_, align 8
  %52 = load i64, ptr %status, align 8
  %cmp.not.i49 = icmp eq i64 %52, %51
  br i1 %cmp.not.i49, label %_ZN4absl12lts_202308026StatusaSERKS1_.exit, label %if.then.i50

if.then.i50:                                      ; preds = %if.end54
  %and.i.i.i51 = and i64 %52, 1
  %cmp.i.i.i52 = icmp eq i64 %and.i.i.i51, 0
  br i1 %cmp.i.i.i52, label %_ZN4absl12lts_202308026Status3RefEm.exit.i, label %if.then.i.i53

if.then.i.i53:                                    ; preds = %if.then.i50
  %sub.i.i.i = add nsw i64 %52, -1
  %53 = inttoptr i64 %sub.i.i.i to ptr
  %54 = atomicrmw add ptr %53, i32 1 monotonic, align 4
  %.pre.i = load i64, ptr %status, align 8
  br label %_ZN4absl12lts_202308026Status3RefEm.exit.i

_ZN4absl12lts_202308026Status3RefEm.exit.i:       ; preds = %if.then.i.i53, %if.then.i50
  %55 = phi i64 [ %52, %if.then.i50 ], [ %.pre.i, %if.then.i.i53 ]
  store i64 %55, ptr %status_, align 8
  %and.i.i5.i = and i64 %51, 1
  %cmp.i.i6.i = icmp eq i64 %and.i.i5.i, 0
  br i1 %cmp.i.i6.i, label %_ZN4absl12lts_202308026StatusaSERKS1_.exit, label %if.then.i7.i

if.then.i7.i:                                     ; preds = %_ZN4absl12lts_202308026Status3RefEm.exit.i
  call void @_ZN4absl12lts_202308026Status15UnrefNonInlinedEm(i64 noundef %51)
  br label %_ZN4absl12lts_202308026StatusaSERKS1_.exit

_ZN4absl12lts_202308026StatusaSERKS1_.exit:       ; preds = %if.end54, %_ZN4absl12lts_202308026Status3RefEm.exit.i, %if.then.i7.i
  %56 = getelementptr inbounds i8, ptr %watchers, i64 8
  store i32 0, ptr %56, align 8
  %_M_parent.i.i.i.i.i = getelementptr inbounds i8, ptr %watchers, i64 16
  store ptr null, ptr %_M_parent.i.i.i.i.i, align 8
  %_M_left.i.i.i.i.i = getelementptr inbounds i8, ptr %watchers, i64 24
  store ptr %56, ptr %_M_left.i.i.i.i.i, align 8
  %_M_right.i.i.i.i.i = getelementptr inbounds i8, ptr %watchers, i64 32
  store ptr %56, ptr %_M_right.i.i.i.i.i, align 8
  %_M_node_count.i.i.i.i.i = getelementptr inbounds i8, ptr %watchers, i64 40
  store i64 0, ptr %_M_node_count.i.i.i.i.i, align 8
  %57 = load ptr, ptr %xds_client_.i, align 8
  %_M_left.i.i = getelementptr inbounds %"class.grpc_core::XdsClient", ptr %57, i64 0, i32 13, i32 0, i32 0, i32 1, i32 0, i32 2
  %58 = load ptr, ptr %_M_left.i.i, align 8
  %add.ptr.i.i = getelementptr inbounds %"class.grpc_core::XdsClient", ptr %57, i64 0, i32 13, i32 0, i32 0, i32 1
  %cmp.i.not120 = icmp eq ptr %58, %add.ptr.i.i
  br i1 %cmp.i.not120, label %for.end109.thread, label %for.body

for.end109.thread:                                ; preds = %_ZN4absl12lts_202308026StatusaSERKS1_.exit
  %59 = getelementptr inbounds i8, ptr %ref.tmp114, i64 8
  br label %if.else.i.i.i.i

for.body:                                         ; preds = %_ZN4absl12lts_202308026StatusaSERKS1_.exit, %for.inc107
  %__begin1.sroa.0.0121 = phi ptr [ %call.i73, %for.inc107 ], [ %58, %_ZN4absl12lts_202308026StatusaSERKS1_.exit ]
  %second = getelementptr inbounds %"struct.std::_Rb_tree_node.457", ptr %__begin1.sroa.0.0121, i64 0, i32 1, i32 0, i64 32
  %60 = load ptr, ptr %second, align 8
  %cmp.i54.not = icmp eq ptr %60, %this
  br i1 %cmp.i54.not, label %if.end68, label %for.inc107

lpad57:                                           ; preds = %lor.end.i.i
  %61 = landingpad { ptr, i32 }
          cleanup
  br label %ehcleanup123

if.end68:                                         ; preds = %for.body
  %_M_left.i.i55 = getelementptr inbounds %"struct.std::_Rb_tree_node.457", ptr %__begin1.sroa.0.0121, i64 0, i32 1, i32 0, i64 64
  %62 = load ptr, ptr %_M_left.i.i55, align 8
  %add.ptr.i.i56 = getelementptr inbounds %"struct.std::_Rb_tree_node.457", ptr %__begin1.sroa.0.0121, i64 0, i32 1, i32 0, i64 48
  %cmp.i57.not118 = icmp eq ptr %62, %add.ptr.i.i56
  br i1 %cmp.i57.not118, label %for.inc107, label %for.body76

for.body76:                                       ; preds = %if.end68, %for.inc104
  %__begin2.sroa.0.0119 = phi ptr [ %call.i72, %for.inc104 ], [ %62, %if.end68 ]
  %_M_left.i.i59 = getelementptr inbounds %"struct.std::_Rb_tree_node.459", ptr %__begin2.sroa.0.0119, i64 0, i32 1, i32 0, i64 32
  %63 = load ptr, ptr %_M_left.i.i59, align 8
  %add.ptr.i.i60 = getelementptr inbounds %"struct.std::_Rb_tree_node.459", ptr %__begin2.sroa.0.0119, i64 0, i32 1, i32 0, i64 16
  %cmp.i61.not116 = icmp eq ptr %63, %add.ptr.i.i60
  br i1 %cmp.i61.not116, label %for.inc104, label %for.body85

for.body85:                                       ; preds = %for.body76, %for.inc101
  %__begin3.sroa.0.0117 = phi ptr [ %call.i71, %for.inc101 ], [ %63, %for.body76 ]
  %_M_left.i.i63 = getelementptr inbounds %"struct.std::_Rb_tree_node.461", ptr %__begin3.sroa.0.0117, i64 0, i32 1, i32 0, i64 80
  %64 = load ptr, ptr %_M_left.i.i63, align 8
  %add.ptr.i.i64 = getelementptr inbounds %"struct.std::_Rb_tree_node.461", ptr %__begin3.sroa.0.0117, i64 0, i32 1, i32 0, i64 64
  %cmp.i65.not114 = icmp eq ptr %64, %add.ptr.i.i64
  br i1 %cmp.i65.not114, label %for.inc101, label %for.body95

for.body95:                                       ; preds = %for.body85, %invoke.cont98
  %__begin4.sroa.0.0115 = phi ptr [ %call.i70, %invoke.cont98 ], [ %64, %for.body85 ]
  %second97 = getelementptr inbounds %"struct.std::_Rb_tree_node.409", ptr %__begin4.sroa.0.0115, i64 0, i32 1, i32 0, i64 8
  %__x.018.i.i = load ptr, ptr %_M_parent.i.i.i.i.i, align 8
  %cmp.not19.i.i = icmp eq ptr %__x.018.i.i, null
  br i1 %cmp.not19.i.i, label %if.then.i.i102, label %while.body.lr.ph.i.i

while.body.lr.ph.i.i:                             ; preds = %for.body95
  %65 = load ptr, ptr %second97, align 8
  br label %while.body.i.i

while.body.i.i:                                   ; preds = %while.body.i.i, %while.body.lr.ph.i.i
  %__x.020.i.i = phi ptr [ %__x.018.i.i, %while.body.lr.ph.i.i ], [ %__x.0.i.i, %while.body.i.i ]
  %_M_storage.i.i.i.i = getelementptr inbounds %"struct.std::_Rb_tree_node.406", ptr %__x.020.i.i, i64 0, i32 1
  %66 = load ptr, ptr %_M_storage.i.i.i.i, align 8
  %cmp.i.i.i.i95 = icmp ult ptr %65, %66
  %_M_left.i.i.i = getelementptr inbounds %"struct.std::_Rb_tree_node_base", ptr %__x.020.i.i, i64 0, i32 2
  %_M_right.i.i.i = getelementptr inbounds %"struct.std::_Rb_tree_node_base", ptr %__x.020.i.i, i64 0, i32 3
  %cond.in.i.i = select i1 %cmp.i.i.i.i95, ptr %_M_left.i.i.i, ptr %_M_right.i.i.i
  %__x.0.i.i = load ptr, ptr %cond.in.i.i, align 8
  %cmp.not.i.i = icmp eq ptr %__x.0.i.i, null
  br i1 %cmp.not.i.i, label %while.end.i.i, label %while.body.i.i, !llvm.loop !7

while.end.i.i:                                    ; preds = %while.body.i.i
  br i1 %cmp.i.i.i.i95, label %if.then.i.i102, label %if.end12.i.i

if.then.i.i102:                                   ; preds = %while.end.i.i, %for.body95
  %__y.0.lcssa24.i.i = phi ptr [ %__x.020.i.i, %while.end.i.i ], [ %56, %for.body95 ]
  %67 = load ptr, ptr %_M_left.i.i.i.i.i, align 8
  %cmp.i.i.i103 = icmp eq ptr %__y.0.lcssa24.i.i, %67
  br i1 %cmp.i.i.i103, label %if.then.i99, label %if.else.i.i

if.else.i.i:                                      ; preds = %if.then.i.i102
  %call.i.i.i = call noundef ptr @_ZSt18_Rb_tree_decrementPSt18_Rb_tree_node_base(ptr noundef nonnull %__y.0.lcssa24.i.i) #29
  %_M_storage.i.i.i.i.phi.trans.insert.i = getelementptr inbounds %"struct.std::_Rb_tree_node.406", ptr %call.i.i.i, i64 0, i32 1
  %.pre.i104 = load ptr, ptr %_M_storage.i.i.i.i.phi.trans.insert.i, align 8
  %.pre16.i = load ptr, ptr %second97, align 8
  br label %if.end12.i.i

if.end12.i.i:                                     ; preds = %if.else.i.i, %while.end.i.i
  %68 = phi ptr [ %.pre16.i, %if.else.i.i ], [ %65, %while.end.i.i ]
  %69 = phi ptr [ %.pre.i104, %if.else.i.i ], [ %66, %while.end.i.i ]
  %__y.0.lcssa25.i.i = phi ptr [ %__y.0.lcssa24.i.i, %if.else.i.i ], [ %__x.020.i.i, %while.end.i.i ]
  %cmp.i.i4.i.i = icmp ult ptr %69, %68
  br i1 %cmp.i.i4.i.i, label %if.then.i99, label %invoke.cont98

if.then.i99:                                      ; preds = %if.end12.i.i, %if.then.i.i102
  %retval.sroa.4.0.i.ph.i = phi ptr [ %__y.0.lcssa24.i.i, %if.then.i.i102 ], [ %__y.0.lcssa25.i.i, %if.end12.i.i ]
  %cmp2.i.i = icmp eq ptr %56, %retval.sroa.4.0.i.ph.i
  br i1 %cmp2.i.i, label %lor.endthread-pre-split.i.i, label %lor.rhs.i.i

lor.rhs.i.i:                                      ; preds = %if.then.i99
  %_M_storage.i.i.i.i6.i = getelementptr inbounds %"struct.std::_Rb_tree_node.406", ptr %retval.sroa.4.0.i.ph.i, i64 0, i32 1
  %70 = load ptr, ptr %second97, align 8
  %71 = load ptr, ptr %_M_storage.i.i.i.i6.i, align 8
  %cmp.i.i.i7.i = icmp ult ptr %70, %71
  br label %lor.end.i.i

lor.endthread-pre-split.i.i:                      ; preds = %if.then.i99
  %.pr.i.i = load ptr, ptr %second97, align 8
  br label %lor.end.i.i

lor.end.i.i:                                      ; preds = %lor.endthread-pre-split.i.i, %lor.rhs.i.i
  %72 = phi ptr [ %.pr.i.i, %lor.endthread-pre-split.i.i ], [ %70, %lor.rhs.i.i ]
  %73 = phi i1 [ true, %lor.endthread-pre-split.i.i ], [ %cmp.i.i.i7.i, %lor.rhs.i.i ]
  %call5.i.i.i.i.i.i.i105 = invoke noalias noundef nonnull dereferenceable(40) ptr @_Znwm(i64 noundef 40) #26
          to label %call5.i.i.i.i.i.i.i.noexc unwind label %lpad57

call5.i.i.i.i.i.i.i.noexc:                        ; preds = %lor.end.i.i
  %cmp.not.i.i.i.i.i.i.i.i100 = icmp eq ptr %72, null
  br i1 %cmp.not.i.i.i.i.i.i.i.i100, label %_ZNSt8_Rb_treeIN9grpc_core13RefCountedPtrINS0_9XdsClient24ResourceWatcherInterfaceEEES4_St9_IdentityIS4_ESt4lessIS4_ESaIS4_EE10_M_insert_IRKS4_NSA_11_Alloc_nodeEEESt17_Rb_tree_iteratorIS4_EPSt18_Rb_tree_node_baseSI_OT_RT0_.exit.i, label %if.then.i.i.i.i.i.i.i.i101

if.then.i.i.i.i.i.i.i.i101:                       ; preds = %call5.i.i.i.i.i.i.i.noexc
  %refs_.i.i.i.i.i.i.i.i.i = getelementptr inbounds %"class.grpc_core::RefCounted.408", ptr %72, i64 0, i32 1
  %74 = atomicrmw add ptr %refs_.i.i.i.i.i.i.i.i.i, i64 1 monotonic, align 8
  %.pre.i.i.i.i.i.i.i.i = load ptr, ptr %second97, align 8
  br label %_ZNSt8_Rb_treeIN9grpc_core13RefCountedPtrINS0_9XdsClient24ResourceWatcherInterfaceEEES4_St9_IdentityIS4_ESt4lessIS4_ESaIS4_EE10_M_insert_IRKS4_NSA_11_Alloc_nodeEEESt17_Rb_tree_iteratorIS4_EPSt18_Rb_tree_node_baseSI_OT_RT0_.exit.i

_ZNSt8_Rb_treeIN9grpc_core13RefCountedPtrINS0_9XdsClient24ResourceWatcherInterfaceEEES4_St9_IdentityIS4_ESt4lessIS4_ESaIS4_EE10_M_insert_IRKS4_NSA_11_Alloc_nodeEEESt17_Rb_tree_iteratorIS4_EPSt18_Rb_tree_node_baseSI_OT_RT0_.exit.i: ; preds = %if.then.i.i.i.i.i.i.i.i101, %call5.i.i.i.i.i.i.i.noexc
  %75 = phi ptr [ %.pre.i.i.i.i.i.i.i.i, %if.then.i.i.i.i.i.i.i.i101 ], [ null, %call5.i.i.i.i.i.i.i.noexc ]
  %_M_storage.i.i.i.i.i.i = getelementptr inbounds %"struct.std::_Rb_tree_node.406", ptr %call5.i.i.i.i.i.i.i105, i64 0, i32 1
  store ptr %75, ptr %_M_storage.i.i.i.i.i.i, align 8
  call void @_ZSt29_Rb_tree_insert_and_rebalancebPSt18_Rb_tree_node_baseS0_RS_(i1 noundef zeroext %73, ptr noundef nonnull %call5.i.i.i.i.i.i.i105, ptr noundef nonnull %retval.sroa.4.0.i.ph.i, ptr noundef nonnull align 8 dereferenceable(32) %56) #25
  %76 = load i64, ptr %_M_node_count.i.i.i.i.i, align 8
  %inc.i.i = add i64 %76, 1
  store i64 %inc.i.i, ptr %_M_node_count.i.i.i.i.i, align 8
  br label %invoke.cont98

invoke.cont98:                                    ; preds = %if.end12.i.i, %_ZNSt8_Rb_treeIN9grpc_core13RefCountedPtrINS0_9XdsClient24ResourceWatcherInterfaceEEES4_St9_IdentityIS4_ESt4lessIS4_ESaIS4_EE10_M_insert_IRKS4_NSA_11_Alloc_nodeEEESt17_Rb_tree_iteratorIS4_EPSt18_Rb_tree_node_baseSI_OT_RT0_.exit.i
  %call.i70 = call noundef ptr @_ZSt18_Rb_tree_incrementPKSt18_Rb_tree_node_base(ptr noundef %__begin4.sroa.0.0115) #29
  %cmp.i65.not = icmp eq ptr %call.i70, %add.ptr.i.i64
  br i1 %cmp.i65.not, label %for.inc101, label %for.body95

for.inc101:                                       ; preds = %invoke.cont98, %for.body85
  %call.i71 = call noundef ptr @_ZSt18_Rb_tree_incrementPKSt18_Rb_tree_node_base(ptr noundef %__begin3.sroa.0.0117) #29
  %cmp.i61.not = icmp eq ptr %call.i71, %add.ptr.i.i60
  br i1 %cmp.i61.not, label %for.inc104, label %for.body85

for.inc104:                                       ; preds = %for.inc101, %for.body76
  %call.i72 = call noundef ptr @_ZSt18_Rb_tree_incrementPKSt18_Rb_tree_node_base(ptr noundef %__begin2.sroa.0.0119) #29
  %cmp.i57.not = icmp eq ptr %call.i72, %add.ptr.i.i56
  br i1 %cmp.i57.not, label %for.inc107, label %for.body76

for.inc107:                                       ; preds = %for.inc104, %if.end68, %for.body
  %call.i73 = call noundef ptr @_ZSt18_Rb_tree_incrementPSt18_Rb_tree_node_base(ptr noundef %__begin1.sroa.0.0121) #29
  %cmp.i.not = icmp eq ptr %call.i73, %add.ptr.i.i
  br i1 %cmp.i.not, label %for.end109, label %for.body

for.end109:                                       ; preds = %for.inc107
  %.pre123 = load ptr, ptr %xds_client_.i, align 8
  %.pre124 = load ptr, ptr %_M_parent.i.i.i.i.i, align 8
  %77 = getelementptr inbounds i8, ptr %ref.tmp114, i64 8
  %cmp.not.i.i.i.i = icmp eq ptr %.pre124, null
  br i1 %cmp.not.i.i.i.i, label %if.else.i.i.i.i, label %if.then.i.i.i.i

if.then.i.i.i.i:                                  ; preds = %for.end109
  %78 = load i32, ptr %56, align 8
  store i32 %78, ptr %77, align 8
  %_M_parent6.i.i.i.i.i = getelementptr inbounds i8, ptr %ref.tmp114, i64 16
  store ptr %.pre124, ptr %_M_parent6.i.i.i.i.i, align 8
  %79 = load ptr, ptr %_M_left.i.i.i.i.i, align 8
  %_M_left9.i.i.i.i.i = getelementptr inbounds i8, ptr %ref.tmp114, i64 24
  store ptr %79, ptr %_M_left9.i.i.i.i.i, align 8
  %80 = load ptr, ptr %_M_right.i.i.i.i.i, align 8
  %_M_right12.i.i.i.i.i = getelementptr inbounds i8, ptr %ref.tmp114, i64 32
  store ptr %80, ptr %_M_right12.i.i.i.i.i, align 8
  %_M_parent16.i.i.i.i.i = getelementptr inbounds %"struct.std::_Rb_tree_node_base", ptr %.pre124, i64 0, i32 1
  store ptr %77, ptr %_M_parent16.i.i.i.i.i, align 8
  %81 = load i64, ptr %_M_node_count.i.i.i.i.i, align 8
  %_M_node_count17.i.i.i.i.i = getelementptr inbounds i8, ptr %ref.tmp114, i64 40
  store i64 %81, ptr %_M_node_count17.i.i.i.i.i, align 8
  store ptr null, ptr %_M_parent.i.i.i.i.i, align 8
  store ptr %56, ptr %_M_left.i.i.i.i.i, align 8
  store ptr %56, ptr %_M_right.i.i.i.i.i, align 8
  br label %_ZNSt3setIN9grpc_core13RefCountedPtrINS0_9XdsClient24ResourceWatcherInterfaceEEESt4lessIS4_ESaIS4_EEC2EOS8_.exit

if.else.i.i.i.i:                                  ; preds = %for.end109.thread, %for.end109
  %82 = phi ptr [ %59, %for.end109.thread ], [ %77, %for.end109 ]
  %83 = phi ptr [ %57, %for.end109.thread ], [ %.pre123, %for.end109 ]
  store i32 0, ptr %82, align 8
  %_M_parent.i2.i.i.i.i = getelementptr inbounds i8, ptr %ref.tmp114, i64 16
  store ptr null, ptr %_M_parent.i2.i.i.i.i, align 8
  %_M_left.i3.i.i.i.i = getelementptr inbounds i8, ptr %ref.tmp114, i64 24
  store ptr %82, ptr %_M_left.i3.i.i.i.i, align 8
  %_M_right.i4.i.i.i.i = getelementptr inbounds i8, ptr %ref.tmp114, i64 32
  store ptr %82, ptr %_M_right.i4.i.i.i.i, align 8
  %_M_node_count.i5.i.i.i.i = getelementptr inbounds i8, ptr %ref.tmp114, i64 40
  br label %_ZNSt3setIN9grpc_core13RefCountedPtrINS0_9XdsClient24ResourceWatcherInterfaceEEESt4lessIS4_ESaIS4_EEC2EOS8_.exit

_ZNSt3setIN9grpc_core13RefCountedPtrINS0_9XdsClient24ResourceWatcherInterfaceEEESt4lessIS4_ESaIS4_EEC2EOS8_.exit: ; preds = %if.then.i.i.i.i, %if.else.i.i.i.i
  %84 = phi ptr [ %82, %if.else.i.i.i.i ], [ %77, %if.then.i.i.i.i ]
  %85 = phi ptr [ %83, %if.else.i.i.i.i ], [ %.pre123, %if.then.i.i.i.i ]
  %86 = phi ptr [ %82, %if.else.i.i.i.i ], [ %80, %if.then.i.i.i.i ]
  %87 = phi ptr [ %82, %if.else.i.i.i.i ], [ %79, %if.then.i.i.i.i ]
  %88 = phi i32 [ 0, %if.else.i.i.i.i ], [ %78, %if.then.i.i.i.i ]
  %89 = phi ptr [ null, %if.else.i.i.i.i ], [ %.pre124, %if.then.i.i.i.i ]
  %_M_node_count.i5.sink.i.i.i.i = phi ptr [ %_M_node_count.i5.i.i.i.i, %if.else.i.i.i.i ], [ %_M_node_count.i.i.i.i.i, %if.then.i.i.i.i ]
  store i64 0, ptr %_M_node_count.i5.sink.i.i.i.i, align 8
  %90 = getelementptr inbounds %class.anon.163, ptr %ref.tmp114, i64 0, i32 1
  %91 = load i64, ptr %status, align 8
  store i64 %91, ptr %90, align 8
  store i64 54, ptr %status, align 8
  call void @llvm.memset.p0.i64(ptr noundef nonnull align 8 dereferenceable(32) %agg.tmp113, i8 0, i64 32, i1 false)
  %call.i.i2.i77 = invoke noalias noundef nonnull dereferenceable(56) ptr @_Znwm(i64 noundef 56) #26
          to label %call.i.i2.i.noexc unwind label %lpad115

call.i.i2.i.noexc:                                ; preds = %_ZNSt3setIN9grpc_core13RefCountedPtrINS0_9XdsClient24ResourceWatcherInterfaceEEESt4lessIS4_ESaIS4_EEC2EOS8_.exit
  %92 = getelementptr inbounds i8, ptr %call.i.i2.i77, i64 8
  %_M_parent.i.i.i.i.i.i.i.i = getelementptr inbounds i8, ptr %ref.tmp114, i64 16
  %cmp.not.i.i.i.i.i.i.i.i = icmp eq ptr %89, null
  %_M_parent.i2.i.i.i.i.i.i.i.i = getelementptr inbounds i8, ptr %call.i.i2.i77, i64 16
  br i1 %cmp.not.i.i.i.i.i.i.i.i, label %if.else.i.i.i.i.i.i.i.i, label %if.then.i.i.i.i.i.i.i.i

if.then.i.i.i.i.i.i.i.i:                          ; preds = %call.i.i2.i.noexc
  store i32 %88, ptr %92, align 8
  store ptr %89, ptr %_M_parent.i2.i.i.i.i.i.i.i.i, align 8
  %_M_left.i.i.i.i.i.i.i.i.i = getelementptr inbounds i8, ptr %ref.tmp114, i64 24
  %_M_left9.i.i.i.i.i.i.i.i.i = getelementptr inbounds i8, ptr %call.i.i2.i77, i64 24
  store ptr %87, ptr %_M_left9.i.i.i.i.i.i.i.i.i, align 8
  %_M_right.i.i.i.i.i.i.i.i.i = getelementptr inbounds i8, ptr %ref.tmp114, i64 32
  %_M_right12.i.i.i.i.i.i.i.i.i = getelementptr inbounds i8, ptr %call.i.i2.i77, i64 32
  store ptr %86, ptr %_M_right12.i.i.i.i.i.i.i.i.i, align 8
  %_M_parent16.i.i.i.i.i.i.i.i.i = getelementptr inbounds %"struct.std::_Rb_tree_node_base", ptr %89, i64 0, i32 1
  store ptr %92, ptr %_M_parent16.i.i.i.i.i.i.i.i.i, align 8
  %_M_node_count.i.i.i.i.i.i.i.i.i = getelementptr inbounds i8, ptr %ref.tmp114, i64 40
  %93 = load i64, ptr %_M_node_count.i.i.i.i.i.i.i.i.i, align 8
  %_M_node_count17.i.i.i.i.i.i.i.i.i = getelementptr inbounds i8, ptr %call.i.i2.i77, i64 40
  store i64 %93, ptr %_M_node_count17.i.i.i.i.i.i.i.i.i, align 8
  store ptr null, ptr %_M_parent.i.i.i.i.i.i.i.i, align 8
  store ptr %84, ptr %_M_left.i.i.i.i.i.i.i.i.i, align 8
  store ptr %84, ptr %_M_right.i.i.i.i.i.i.i.i.i, align 8
  %.pre125 = load i64, ptr %90, align 8
  br label %invoke.cont116

if.else.i.i.i.i.i.i.i.i:                          ; preds = %call.i.i2.i.noexc
  store i32 0, ptr %92, align 8
  store ptr null, ptr %_M_parent.i2.i.i.i.i.i.i.i.i, align 8
  %_M_left.i3.i.i.i.i.i.i.i.i = getelementptr inbounds i8, ptr %call.i.i2.i77, i64 24
  store ptr %92, ptr %_M_left.i3.i.i.i.i.i.i.i.i, align 8
  %_M_right.i4.i.i.i.i.i.i.i.i = getelementptr inbounds i8, ptr %call.i.i2.i77, i64 32
  store ptr %92, ptr %_M_right.i4.i.i.i.i.i.i.i.i, align 8
  %_M_node_count.i5.i.i.i.i.i.i.i.i = getelementptr inbounds i8, ptr %call.i.i2.i77, i64 40
  br label %invoke.cont116

invoke.cont116:                                   ; preds = %if.else.i.i.i.i.i.i.i.i, %if.then.i.i.i.i.i.i.i.i
  %94 = phi i64 [ %91, %if.else.i.i.i.i.i.i.i.i ], [ %.pre125, %if.then.i.i.i.i.i.i.i.i ]
  %_M_node_count.i5.sink.i.i.i.i.i.i.i.i = phi ptr [ %_M_node_count.i5.i.i.i.i.i.i.i.i, %if.else.i.i.i.i.i.i.i.i ], [ %_M_node_count.i.i.i.i.i.i.i.i.i, %if.then.i.i.i.i.i.i.i.i ]
  %_M_invoker.i = getelementptr inbounds %"class.std::function.161", ptr %agg.tmp113, i64 0, i32 1
  %_M_manager.i.i = getelementptr inbounds %"class.std::_Function_base", ptr %agg.tmp113, i64 0, i32 1
  store i64 0, ptr %_M_node_count.i5.sink.i.i.i.i.i.i.i.i, align 8
  %95 = getelementptr inbounds %class.anon.163, ptr %call.i.i2.i77, i64 0, i32 1
  store i64 %94, ptr %95, align 8
  store i64 54, ptr %90, align 8
  store ptr %call.i.i2.i77, ptr %agg.tmp113, align 8
  store ptr @"_ZNSt17_Function_handlerIFvvEZN9grpc_core9XdsClient12ChannelState22SetChannelStatusLockedEN4absl12lts_202308026StatusEE3$_0E9_M_invokeERKSt9_Any_data", ptr %_M_invoker.i, align 8
  store ptr @"_ZNSt17_Function_handlerIFvvEZN9grpc_core9XdsClient12ChannelState22SetChannelStatusLockedEN4absl12lts_202308026StatusEE3$_0E10_M_managerERSt9_Any_dataRKS9_St18_Manager_operation", ptr %_M_manager.i.i, align 8
  %work_serializer_ = getelementptr inbounds %"class.grpc_core::XdsClient", ptr %85, i64 0, i32 7
  invoke void @_ZN9grpc_core14WorkSerializer8ScheduleESt8functionIFvvEERKNS_13DebugLocationE(ptr noundef nonnull align 8 dereferenceable(8) %work_serializer_, ptr noundef nonnull %agg.tmp113, ptr noundef nonnull align 1 dereferenceable(1) %ref.tmp117)
          to label %invoke.cont120 unwind label %lpad118

invoke.cont120:                                   ; preds = %invoke.cont116
  %96 = load ptr, ptr %_M_manager.i.i, align 8
  %tobool.not.i.i = icmp eq ptr %96, null
  br i1 %tobool.not.i.i, label %_ZNSt8functionIFvvEED2Ev.exit, label %if.then.i.i79

if.then.i.i79:                                    ; preds = %invoke.cont120
  %call.i.i = invoke noundef zeroext i1 %96(ptr noundef nonnull align 8 dereferenceable(16) %agg.tmp113, ptr noundef nonnull align 8 dereferenceable(16) %agg.tmp113, i32 noundef 3)
          to label %_ZNSt8functionIFvvEED2Ev.exit unwind label %terminate.lpad.i.i

terminate.lpad.i.i:                               ; preds = %if.then.i.i79
  %97 = landingpad { ptr, i32 }
          catch ptr null
  %98 = extractvalue { ptr, i32 } %97, 0
  call void @__clang_call_terminate(ptr %98) #27
  unreachable

_ZNSt8functionIFvvEED2Ev.exit:                    ; preds = %invoke.cont120, %if.then.i.i79
  %99 = load i64, ptr %90, align 8
  %and.i.i.i.i = and i64 %99, 1
  %cmp.i.i.i.i = icmp eq i64 %and.i.i.i.i, 0
  br i1 %cmp.i.i.i.i, label %_ZN4absl12lts_202308026StatusD2Ev.exit.i, label %if.then.i.i.i

if.then.i.i.i:                                    ; preds = %_ZNSt8functionIFvvEED2Ev.exit
  invoke void @_ZN4absl12lts_202308026Status15UnrefNonInlinedEm(i64 noundef %99)
          to label %_ZN4absl12lts_202308026StatusD2Ev.exit.i unwind label %terminate.lpad.i.i80

terminate.lpad.i.i80:                             ; preds = %if.then.i.i.i
  %100 = landingpad { ptr, i32 }
          catch ptr null
  %101 = extractvalue { ptr, i32 } %100, 0
  call void @__clang_call_terminate(ptr %101) #27
  unreachable

_ZN4absl12lts_202308026StatusD2Ev.exit.i:         ; preds = %if.then.i.i.i, %_ZNSt8functionIFvvEED2Ev.exit
  %102 = load ptr, ptr %_M_parent.i.i.i.i.i.i.i.i, align 8
  invoke void @_ZNSt8_Rb_treeIN9grpc_core13RefCountedPtrINS0_9XdsClient24ResourceWatcherInterfaceEEES4_St9_IdentityIS4_ESt4lessIS4_ESaIS4_EE8_M_eraseEPSt13_Rb_tree_nodeIS4_E(ptr noundef nonnull align 8 dereferenceable(48) %ref.tmp114, ptr noundef %102)
          to label %"_ZZN9grpc_core9XdsClient12ChannelState22SetChannelStatusLockedEN4absl12lts_202308026StatusEEN3$_0D2Ev.exit" unwind label %terminate.lpad.i.i.i

terminate.lpad.i.i.i:                             ; preds = %_ZN4absl12lts_202308026StatusD2Ev.exit.i
  %103 = landingpad { ptr, i32 }
          catch ptr null
  %104 = extractvalue { ptr, i32 } %103, 0
  call void @__clang_call_terminate(ptr %104) #27
  unreachable

"_ZZN9grpc_core9XdsClient12ChannelState22SetChannelStatusLockedEN4absl12lts_202308026StatusEEN3$_0D2Ev.exit": ; preds = %_ZN4absl12lts_202308026StatusD2Ev.exit.i
  %105 = load ptr, ptr %_M_parent.i.i.i.i.i, align 8
  invoke void @_ZNSt8_Rb_treeIN9grpc_core13RefCountedPtrINS0_9XdsClient24ResourceWatcherInterfaceEEES4_St9_IdentityIS4_ESt4lessIS4_ESaIS4_EE8_M_eraseEPSt13_Rb_tree_nodeIS4_E(ptr noundef nonnull align 8 dereferenceable(48) %watchers, ptr noundef %105)
          to label %return unwind label %terminate.lpad.i.i83

terminate.lpad.i.i83:                             ; preds = %"_ZZN9grpc_core9XdsClient12ChannelState22SetChannelStatusLockedEN4absl12lts_202308026StatusEEN3$_0D2Ev.exit"
  %106 = landingpad { ptr, i32 }
          catch ptr null
  %107 = extractvalue { ptr, i32 } %106, 0
  call void @__clang_call_terminate(ptr %107) #27
  unreachable

return:                                           ; preds = %"_ZZN9grpc_core9XdsClient12ChannelState22SetChannelStatusLockedEN4absl12lts_202308026StatusEEN3$_0D2Ev.exit", %entry
  ret void

lpad115:                                          ; preds = %_ZNSt3setIN9grpc_core13RefCountedPtrINS0_9XdsClient24ResourceWatcherInterfaceEEESt4lessIS4_ESaIS4_EEC2EOS8_.exit
  %108 = landingpad { ptr, i32 }
          cleanup
  br label %ehcleanup122

lpad118:                                          ; preds = %invoke.cont116
  %109 = landingpad { ptr, i32 }
          cleanup
  %110 = load ptr, ptr %_M_manager.i.i, align 8
  %tobool.not.i.i85 = icmp eq ptr %110, null
  br i1 %tobool.not.i.i85, label %ehcleanup122, label %if.then.i.i86

if.then.i.i86:                                    ; preds = %lpad118
  %call.i.i87 = invoke noundef zeroext i1 %110(ptr noundef nonnull align 8 dereferenceable(16) %agg.tmp113, ptr noundef nonnull align 8 dereferenceable(16) %agg.tmp113, i32 noundef 3)
          to label %ehcleanup122 unwind label %terminate.lpad.i.i88

terminate.lpad.i.i88:                             ; preds = %if.then.i.i86
  %111 = landingpad { ptr, i32 }
          catch ptr null
  %112 = extractvalue { ptr, i32 } %111, 0
  call void @__clang_call_terminate(ptr %112) #27
  unreachable

ehcleanup122:                                     ; preds = %if.then.i.i86, %lpad118, %lpad115
  %.pn9 = phi { ptr, i32 } [ %108, %lpad115 ], [ %109, %lpad118 ], [ %109, %if.then.i.i86 ]
  call fastcc void @"_ZZN9grpc_core9XdsClient12ChannelState22SetChannelStatusLockedEN4absl12lts_202308026StatusEEN3$_0D2Ev"(ptr noundef nonnull align 8 dereferenceable(56) %ref.tmp114) #25
  %.pre126 = load ptr, ptr %_M_parent.i.i.i.i.i, align 8
  br label %ehcleanup123

ehcleanup123:                                     ; preds = %ehcleanup122, %lpad57
  %113 = phi ptr [ %__x.018.i.i, %lpad57 ], [ %.pre126, %ehcleanup122 ]
  %.pn11 = phi { ptr, i32 } [ %61, %lpad57 ], [ %.pn9, %ehcleanup122 ]
  invoke void @_ZNSt8_Rb_treeIN9grpc_core13RefCountedPtrINS0_9XdsClient24ResourceWatcherInterfaceEEES4_St9_IdentityIS4_ESt4lessIS4_ESaIS4_EE8_M_eraseEPSt13_Rb_tree_nodeIS4_E(ptr noundef nonnull align 8 dereferenceable(48) %watchers, ptr noundef %113)
          to label %eh.resume unwind label %terminate.lpad.i.i91

terminate.lpad.i.i91:                             ; preds = %ehcleanup123
  %114 = landingpad { ptr, i32 }
          catch ptr null
  %115 = extractvalue { ptr, i32 } %114, 0
  call void @__clang_call_terminate(ptr %115) #27
  unreachable

eh.resume.sink.split:                             ; preds = %lpad47, %lpad49, %lpad, %lpad11, %lpad17
  %ref.tmp29.sink = phi ptr [ %ref.tmp15, %lpad17 ], [ %ref.tmp2, %lpad11 ], [ %ref.tmp2, %lpad ], [ %ref.tmp29, %lpad49 ], [ %ref.tmp29, %lpad47 ]
  %.pn11.pn.ph = phi { ptr, i32 } [ %48, %lpad17 ], [ %47, %lpad11 ], [ %46, %lpad ], [ %50, %lpad49 ], [ %49, %lpad47 ]
  call void @_ZNSt7__cxx1112basic_stringIcSt11char_traitsIcESaIcEED1Ev(ptr noundef nonnull align 8 dereferenceable(32) %ref.tmp29.sink) #25
  br label %eh.resume

eh.resume:                                        ; preds = %eh.resume.sink.split, %ehcleanup123
  %.pn11.pn = phi { ptr, i32 } [ %.pn11, %ehcleanup123 ], [ %.pn11.pn.ph, %eh.resume.sink.split ]
  resume { ptr, i32 } %.pn11.pn
}

; Function Attrs: mustprogress nounwind uwtable
define linkonce_odr void @_ZN4absl12lts_202308026StatusD2Ev(ptr noundef nonnull align 8 dereferenceable(8) %this) unnamed_addr #4 comdat align 2 personality ptr @__gxx_personality_v0 {
entry:
  %0 = load i64, ptr %this, align 8
  %and.i.i = and i64 %0, 1
  %cmp.i.i = icmp eq i64 %and.i.i, 0
  br i1 %cmp.i.i, label %invoke.cont, label %if.then.i

if.then.i:                                        ; preds = %entry
  invoke void @_ZN4absl12lts_202308026Status15UnrefNonInlinedEm(i64 noundef %0)
          to label %invoke.cont unwind label %terminate.lpad

invoke.cont:                                      ; preds = %entry, %if.then.i
  ret void

terminate.lpad:                                   ; preds = %if.then.i
  %1 = landingpad { ptr, i32 }
          catch ptr null
  %2 = extractvalue { ptr, i32 } %1, 0
  tail call void @__clang_call_terminate(ptr %2) #27
  unreachable
}

; Function Attrs: mustprogress nounwind uwtable
define linkonce_odr void @_ZNSt3mapIPKN9grpc_core15XdsResourceTypeENSt7__cxx1112basic_stringIcSt11char_traitsIcESaIcEEESt4lessIS3_ESaISt4pairIKS3_S9_EEED2Ev(ptr noundef nonnull align 8 dereferenceable(48) %this) unnamed_addr #4 comdat align 2 personality ptr @__gxx_personality_v0 {
entry:
  %_M_parent.i.i.i = getelementptr inbounds i8, ptr %this, i64 16
  %0 = load ptr, ptr %_M_parent.i.i.i, align 8
  invoke void @_ZNSt8_Rb_treeIPKN9grpc_core15XdsResourceTypeESt4pairIKS3_NSt7__cxx1112basic_stringIcSt11char_traitsIcESaIcEEEESt10_Select1stISC_ESt4lessIS3_ESaISC_EE8_M_eraseEPSt13_Rb_tree_nodeISC_E(ptr noundef nonnull align 8 dereferenceable(48) %this, ptr noundef %0)
          to label %_ZNSt8_Rb_treeIPKN9grpc_core15XdsResourceTypeESt4pairIKS3_NSt7__cxx1112basic_stringIcSt11char_traitsIcESaIcEEEESt10_Select1stISC_ESt4lessIS3_ESaISC_EED2Ev.exit unwind label %terminate.lpad.i

terminate.lpad.i:                                 ; preds = %entry
  %1 = landingpad { ptr, i32 }
          catch ptr null
  %2 = extractvalue { ptr, i32 } %1, 0
  tail call void @__clang_call_terminate(ptr %2) #27
  unreachable

_ZNSt8_Rb_treeIPKN9grpc_core15XdsResourceTypeESt4pairIKS3_NSt7__cxx1112basic_stringIcSt11char_traitsIcESaIcEEEESt10_Select1stISC_ESt4lessIS3_ESaISC_EED2Ev.exit: ; preds = %entry
  ret void
}

; Function Attrs: mustprogress nounwind uwtable
define linkonce_odr void @_ZNSt10unique_ptrIN9grpc_core9XdsClient12ChannelState13RetryableCallINS2_12LrsCallStateEEENS0_16OrphanableDeleteEED2Ev(ptr noundef nonnull align 8 dereferenceable(8) %this) unnamed_addr #4 comdat align 2 personality ptr @__gxx_personality_v0 {
entry:
  %0 = load ptr, ptr %this, align 8
  %cmp.not = icmp eq ptr %0, null
  br i1 %cmp.not, label %if.end, label %if.then

if.then:                                          ; preds = %entry
  %vtable.i = load ptr, ptr %0, align 8
  %1 = load ptr, ptr %vtable.i, align 8
  invoke void %1(ptr noundef nonnull align 8 dereferenceable(393) %0)
          to label %if.end unwind label %terminate.lpad

if.end:                                           ; preds = %if.then, %entry
  store ptr null, ptr %this, align 8
  ret void

terminate.lpad:                                   ; preds = %if.then
  %2 = landingpad { ptr, i32 }
          catch ptr null
  %3 = extractvalue { ptr, i32 } %2, 0
  tail call void @__clang_call_terminate(ptr %3) #27
  unreachable
}

; Function Attrs: mustprogress nounwind uwtable
define linkonce_odr void @_ZNSt10unique_ptrIN9grpc_core9XdsClient12ChannelState13RetryableCallINS2_12AdsCallStateEEENS0_16OrphanableDeleteEED2Ev(ptr noundef nonnull align 8 dereferenceable(8) %this) unnamed_addr #4 comdat align 2 personality ptr @__gxx_personality_v0 {
entry:
  %0 = load ptr, ptr %this, align 8
  %cmp.not = icmp eq ptr %0, null
  br i1 %cmp.not, label %if.end, label %if.then

if.then:                                          ; preds = %entry
  %vtable.i = load ptr, ptr %0, align 8
  %1 = load ptr, ptr %vtable.i, align 8
  invoke void %1(ptr noundef nonnull align 8 dereferenceable(393) %0)
          to label %if.end unwind label %terminate.lpad

if.end:                                           ; preds = %if.then, %entry
  store ptr null, ptr %this, align 8
  ret void

terminate.lpad:                                   ; preds = %if.then
  %2 = landingpad { ptr, i32 }
          catch ptr null
  %3 = extractvalue { ptr, i32 } %2, 0
  tail call void @__clang_call_terminate(ptr %3) #27
  unreachable
}

; Function Attrs: mustprogress nounwind uwtable
define void @_ZN9grpc_core9XdsClient12ChannelStateD2Ev(ptr noundef nonnull align 8 dereferenceable(120) %this) unnamed_addr #4 align 2 personality ptr @__gxx_personality_v0 {
entry:
  store ptr getelementptr inbounds ({ [5 x ptr] }, ptr @_ZTVN9grpc_core9XdsClient12ChannelStateE, i64 0, inrange i32 0, i64 2), ptr %this, align 8
  %0 = load atomic i8, ptr getelementptr inbounds (%"class.grpc_core::TraceFlag", ptr @_ZN9grpc_core21grpc_xds_client_traceE, i64 0, i32 2) monotonic, align 8
  %1 = and i8 %0, 1
  %tobool.i.i.i.not = icmp eq i8 %1, 0
  br i1 %tobool.i.i.i.not, label %if.end, label %invoke.cont2

invoke.cont2:                                     ; preds = %entry
  %xds_client_.i = getelementptr inbounds %"class.grpc_core::XdsClient::ChannelState", ptr %this, i64 0, i32 1
  %2 = load ptr, ptr %xds_client_.i, align 8
  %server_ = getelementptr inbounds %"class.grpc_core::XdsClient::ChannelState", ptr %this, i64 0, i32 2
  %3 = load ptr, ptr %server_, align 8
  %vtable = load ptr, ptr %3, align 8
  %vfn = getelementptr inbounds ptr, ptr %vtable, i64 2
  %4 = load ptr, ptr %vfn, align 8
  %call5 = invoke noundef nonnull align 8 dereferenceable(32) ptr %4(ptr noundef nonnull align 8 dereferenceable(8) %3)
          to label %invoke.cont4 unwind label %terminate.lpad

invoke.cont4:                                     ; preds = %invoke.cont2
  %call6 = tail call noundef ptr @_ZNKSt7__cxx1112basic_stringIcSt11char_traitsIcESaIcEE5c_strEv(ptr noundef nonnull align 8 dereferenceable(32) %call5) #25
  invoke void (ptr, i32, i32, ptr, ...) @gpr_log(ptr noundef nonnull @.str.5, i32 noundef 467, i32 noundef 1, ptr noundef nonnull @.str.9, ptr noundef %2, ptr noundef nonnull %this, ptr noundef %call6)
          to label %if.end unwind label %terminate.lpad

if.end:                                           ; preds = %invoke.cont4, %entry
  %xds_client_ = getelementptr inbounds %"class.grpc_core::XdsClient::ChannelState", ptr %this, i64 0, i32 1
  %5 = load ptr, ptr %xds_client_, align 8
  store ptr null, ptr %xds_client_, align 8
  %cmp.not.i = icmp eq ptr %5, null
  br i1 %cmp.not.i, label %invoke.cont9, label %if.then.i

if.then.i:                                        ; preds = %if.end
  %refs_.i.i = getelementptr inbounds %"class.grpc_core::DualRefCounted.21", ptr %5, i64 0, i32 1
  %6 = atomicrmw sub ptr %refs_.i.i, i64 1 acq_rel, align 8
  %cmp.not.i.i = icmp eq i64 %6, 1
  br i1 %cmp.not.i.i, label %delete.notnull.i.i, label %invoke.cont9

delete.notnull.i.i:                               ; preds = %if.then.i
  %vtable.i.i = load ptr, ptr %5, align 8
  %vfn.i.i = getelementptr inbounds ptr, ptr %vtable.i.i, i64 2
  %7 = load ptr, ptr %vfn.i.i, align 8
  tail call void %7(ptr noundef nonnull align 8 dereferenceable(433) %5) #25
  br label %invoke.cont9

invoke.cont9:                                     ; preds = %delete.notnull.i.i, %if.then.i, %if.end
  %status_ = getelementptr inbounds %"class.grpc_core::XdsClient::ChannelState", ptr %this, i64 0, i32 8
  %8 = load i64, ptr %status_, align 8
  %and.i.i.i = and i64 %8, 1
  %cmp.i.i.i = icmp eq i64 %and.i.i.i, 0
  br i1 %cmp.i.i.i, label %_ZN4absl12lts_202308026StatusD2Ev.exit, label %if.then.i.i

if.then.i.i:                                      ; preds = %invoke.cont9
  invoke void @_ZN4absl12lts_202308026Status15UnrefNonInlinedEm(i64 noundef %8)
          to label %_ZN4absl12lts_202308026StatusD2Ev.exit unwind label %terminate.lpad.i

terminate.lpad.i:                                 ; preds = %if.then.i.i
  %9 = landingpad { ptr, i32 }
          catch ptr null
  %10 = extractvalue { ptr, i32 } %9, 0
  tail call void @__clang_call_terminate(ptr %10) #27
  unreachable

_ZN4absl12lts_202308026StatusD2Ev.exit:           ; preds = %invoke.cont9, %if.then.i.i
  %resource_type_version_map_ = getelementptr inbounds %"class.grpc_core::XdsClient::ChannelState", ptr %this, i64 0, i32 7
  %_M_parent.i.i.i.i = getelementptr inbounds %"class.grpc_core::XdsClient::ChannelState", ptr %this, i64 0, i32 7, i32 0, i32 0, i32 1, i32 0, i32 1
  %11 = load ptr, ptr %_M_parent.i.i.i.i, align 8
  invoke void @_ZNSt8_Rb_treeIPKN9grpc_core15XdsResourceTypeESt4pairIKS3_NSt7__cxx1112basic_stringIcSt11char_traitsIcESaIcEEEESt10_Select1stISC_ESt4lessIS3_ESaISC_EE8_M_eraseEPSt13_Rb_tree_nodeISC_E(ptr noundef nonnull align 8 dereferenceable(48) %resource_type_version_map_, ptr noundef %11)
          to label %_ZNSt3mapIPKN9grpc_core15XdsResourceTypeENSt7__cxx1112basic_stringIcSt11char_traitsIcESaIcEEESt4lessIS3_ESaISt4pairIKS3_S9_EEED2Ev.exit unwind label %terminate.lpad.i.i

terminate.lpad.i.i:                               ; preds = %_ZN4absl12lts_202308026StatusD2Ev.exit
  %12 = landingpad { ptr, i32 }
          catch ptr null
  %13 = extractvalue { ptr, i32 } %12, 0
  tail call void @__clang_call_terminate(ptr %13) #27
  unreachable

_ZNSt3mapIPKN9grpc_core15XdsResourceTypeENSt7__cxx1112basic_stringIcSt11char_traitsIcESaIcEEESt4lessIS3_ESaISt4pairIKS3_S9_EEED2Ev.exit: ; preds = %_ZN4absl12lts_202308026StatusD2Ev.exit
  %lrs_calld_ = getelementptr inbounds %"class.grpc_core::XdsClient::ChannelState", ptr %this, i64 0, i32 6
  %14 = load ptr, ptr %lrs_calld_, align 8
  %cmp.not.i1 = icmp eq ptr %14, null
  br i1 %cmp.not.i1, label %_ZNSt10unique_ptrIN9grpc_core9XdsClient12ChannelState13RetryableCallINS2_12LrsCallStateEEENS0_16OrphanableDeleteEED2Ev.exit, label %if.then.i2

if.then.i2:                                       ; preds = %_ZNSt3mapIPKN9grpc_core15XdsResourceTypeENSt7__cxx1112basic_stringIcSt11char_traitsIcESaIcEEESt4lessIS3_ESaISt4pairIKS3_S9_EEED2Ev.exit
  %vtable.i.i3 = load ptr, ptr %14, align 8
  %15 = load ptr, ptr %vtable.i.i3, align 8
  invoke void %15(ptr noundef nonnull align 8 dereferenceable(393) %14)
          to label %_ZNSt10unique_ptrIN9grpc_core9XdsClient12ChannelState13RetryableCallINS2_12LrsCallStateEEENS0_16OrphanableDeleteEED2Ev.exit unwind label %terminate.lpad.i4

terminate.lpad.i4:                                ; preds = %if.then.i2
  %16 = landingpad { ptr, i32 }
          catch ptr null
  %17 = extractvalue { ptr, i32 } %16, 0
  tail call void @__clang_call_terminate(ptr %17) #27
  unreachable

_ZNSt10unique_ptrIN9grpc_core9XdsClient12ChannelState13RetryableCallINS2_12LrsCallStateEEENS0_16OrphanableDeleteEED2Ev.exit: ; preds = %_ZNSt3mapIPKN9grpc_core15XdsResourceTypeENSt7__cxx1112basic_stringIcSt11char_traitsIcESaIcEEESt4lessIS3_ESaISt4pairIKS3_S9_EEED2Ev.exit, %if.then.i2
  store ptr null, ptr %lrs_calld_, align 8
  %ads_calld_ = getelementptr inbounds %"class.grpc_core::XdsClient::ChannelState", ptr %this, i64 0, i32 5
  %18 = load ptr, ptr %ads_calld_, align 8
  %cmp.not.i5 = icmp eq ptr %18, null
  br i1 %cmp.not.i5, label %_ZNSt10unique_ptrIN9grpc_core9XdsClient12ChannelState13RetryableCallINS2_12AdsCallStateEEENS0_16OrphanableDeleteEED2Ev.exit, label %if.then.i6

if.then.i6:                                       ; preds = %_ZNSt10unique_ptrIN9grpc_core9XdsClient12ChannelState13RetryableCallINS2_12LrsCallStateEEENS0_16OrphanableDeleteEED2Ev.exit
  %vtable.i.i7 = load ptr, ptr %18, align 8
  %19 = load ptr, ptr %vtable.i.i7, align 8
  invoke void %19(ptr noundef nonnull align 8 dereferenceable(393) %18)
          to label %_ZNSt10unique_ptrIN9grpc_core9XdsClient12ChannelState13RetryableCallINS2_12AdsCallStateEEENS0_16OrphanableDeleteEED2Ev.exit unwind label %terminate.lpad.i8

terminate.lpad.i8:                                ; preds = %if.then.i6
  %20 = landingpad { ptr, i32 }
          catch ptr null
  %21 = extractvalue { ptr, i32 } %20, 0
  tail call void @__clang_call_terminate(ptr %21) #27
  unreachable

_ZNSt10unique_ptrIN9grpc_core9XdsClient12ChannelState13RetryableCallINS2_12AdsCallStateEEENS0_16OrphanableDeleteEED2Ev.exit: ; preds = %_ZNSt10unique_ptrIN9grpc_core9XdsClient12ChannelState13RetryableCallINS2_12LrsCallStateEEENS0_16OrphanableDeleteEED2Ev.exit, %if.then.i6
  store ptr null, ptr %ads_calld_, align 8
  %transport_ = getelementptr inbounds %"class.grpc_core::XdsClient::ChannelState", ptr %this, i64 0, i32 3
  %22 = load ptr, ptr %transport_, align 8
  %cmp.not.i9 = icmp eq ptr %22, null
  br i1 %cmp.not.i9, label %_ZNSt10unique_ptrIN9grpc_core19XdsTransportFactory12XdsTransportENS0_16OrphanableDeleteEED2Ev.exit, label %if.then.i10

if.then.i10:                                      ; preds = %_ZNSt10unique_ptrIN9grpc_core9XdsClient12ChannelState13RetryableCallINS2_12AdsCallStateEEENS0_16OrphanableDeleteEED2Ev.exit
  %vtable.i.i11 = load ptr, ptr %22, align 8
  %23 = load ptr, ptr %vtable.i.i11, align 8
  invoke void %23(ptr noundef nonnull align 8 dereferenceable(8) %22)
          to label %_ZNSt10unique_ptrIN9grpc_core19XdsTransportFactory12XdsTransportENS0_16OrphanableDeleteEED2Ev.exit unwind label %terminate.lpad.i12

terminate.lpad.i12:                               ; preds = %if.then.i10
  %24 = landingpad { ptr, i32 }
          catch ptr null
  %25 = extractvalue { ptr, i32 } %24, 0
  tail call void @__clang_call_terminate(ptr %25) #27
  unreachable

_ZNSt10unique_ptrIN9grpc_core19XdsTransportFactory12XdsTransportENS0_16OrphanableDeleteEED2Ev.exit: ; preds = %_ZNSt10unique_ptrIN9grpc_core9XdsClient12ChannelState13RetryableCallINS2_12AdsCallStateEEENS0_16OrphanableDeleteEED2Ev.exit, %if.then.i10
  store ptr null, ptr %transport_, align 8
  %26 = load ptr, ptr %xds_client_, align 8
  %cmp.not.i13 = icmp eq ptr %26, null
  br i1 %cmp.not.i13, label %_ZN9grpc_core17WeakRefCountedPtrINS_9XdsClientEED2Ev.exit, label %if.then.i14

if.then.i14:                                      ; preds = %_ZNSt10unique_ptrIN9grpc_core19XdsTransportFactory12XdsTransportENS0_16OrphanableDeleteEED2Ev.exit
  %refs_.i.i15 = getelementptr inbounds %"class.grpc_core::DualRefCounted.21", ptr %26, i64 0, i32 1
  %27 = atomicrmw sub ptr %refs_.i.i15, i64 1 acq_rel, align 8
  %cmp.not.i.i16 = icmp eq i64 %27, 1
  br i1 %cmp.not.i.i16, label %delete.notnull.i.i17, label %_ZN9grpc_core17WeakRefCountedPtrINS_9XdsClientEED2Ev.exit

delete.notnull.i.i17:                             ; preds = %if.then.i14
  %vtable.i.i18 = load ptr, ptr %26, align 8
  %vfn.i.i19 = getelementptr inbounds ptr, ptr %vtable.i.i18, i64 2
  %28 = load ptr, ptr %vfn.i.i19, align 8
  tail call void %28(ptr noundef nonnull align 8 dereferenceable(433) %26) #25
  br label %_ZN9grpc_core17WeakRefCountedPtrINS_9XdsClientEED2Ev.exit

_ZN9grpc_core17WeakRefCountedPtrINS_9XdsClientEED2Ev.exit: ; preds = %_ZNSt10unique_ptrIN9grpc_core19XdsTransportFactory12XdsTransportENS0_16OrphanableDeleteEED2Ev.exit, %if.then.i14, %delete.notnull.i.i17
  ret void

terminate.lpad:                                   ; preds = %invoke.cont4, %invoke.cont2
  %29 = landingpad { ptr, i32 }
          catch ptr null
  %30 = extractvalue { ptr, i32 } %29, 0
  tail call void @__clang_call_terminate(ptr %30) #27
  unreachable
}

; Function Attrs: noreturn nounwind uwtable
define linkonce_odr hidden void @__clang_call_terminate(ptr noundef %0) local_unnamed_addr #6 comdat {
  %2 = tail call ptr @__cxa_begin_catch(ptr %0) #25
  tail call void @_ZSt9terminatev() #27
  unreachable
}

declare ptr @__cxa_begin_catch(ptr) local_unnamed_addr

declare void @_ZSt9terminatev() local_unnamed_addr

; Function Attrs: mustprogress nounwind uwtable
define void @_ZN9grpc_core9XdsClient12ChannelStateD0Ev(ptr noundef nonnull align 8 dereferenceable(120) %this) unnamed_addr #4 align 2 {
entry:
  tail call void @_ZN9grpc_core9XdsClient12ChannelStateD1Ev(ptr noundef nonnull align 8 dereferenceable(120) %this) #25
  tail call void @_ZdlPv(ptr noundef nonnull %this) #30
  ret void
}

; Function Attrs: nobuiltin nounwind
declare void @_ZdlPv(ptr noundef) local_unnamed_addr #7

; Function Attrs: mustprogress uwtable
define void @_ZN9grpc_core9XdsClient12ChannelState6OrphanEv(ptr noundef nonnull align 8 dereferenceable(120) %this) unnamed_addr #3 align 2 personality ptr @__gxx_personality_v0 {
entry:
  %ref.tmp = alloca ptr, align 8
  %0 = load atomic i8, ptr getelementptr inbounds (%"class.grpc_core::TraceFlag", ptr @_ZN9grpc_core21grpc_xds_client_traceE, i64 0, i32 2) monotonic, align 8
  %1 = and i8 %0, 1
  %tobool.i.i.i.not = icmp eq i8 %1, 0
  br i1 %tobool.i.i.i.not, label %if.end, label %if.then

if.then:                                          ; preds = %entry
  %xds_client_.i = getelementptr inbounds %"class.grpc_core::XdsClient::ChannelState", ptr %this, i64 0, i32 1
  %2 = load ptr, ptr %xds_client_.i, align 8
  %server_ = getelementptr inbounds %"class.grpc_core::XdsClient::ChannelState", ptr %this, i64 0, i32 2
  %3 = load ptr, ptr %server_, align 8
  %vtable = load ptr, ptr %3, align 8
  %vfn = getelementptr inbounds ptr, ptr %vtable, i64 2
  %4 = load ptr, ptr %vfn, align 8
  %call3 = tail call noundef nonnull align 8 dereferenceable(32) ptr %4(ptr noundef nonnull align 8 dereferenceable(8) %3)
  %call4 = tail call noundef ptr @_ZNKSt7__cxx1112basic_stringIcSt11char_traitsIcESaIcEE5c_strEv(ptr noundef nonnull align 8 dereferenceable(32) %call3) #25
  tail call void (ptr, i32, i32, ptr, ...) @gpr_log(ptr noundef nonnull @.str.5, i32 noundef 479, i32 noundef 1, ptr noundef nonnull @.str.10, ptr noundef %2, ptr noundef nonnull %this, ptr noundef %call4)
  br label %if.end

if.end:                                           ; preds = %if.then, %entry
  %shutting_down_ = getelementptr inbounds %"class.grpc_core::XdsClient::ChannelState", ptr %this, i64 0, i32 4
  store i8 1, ptr %shutting_down_, align 8
  %transport_ = getelementptr inbounds %"class.grpc_core::XdsClient::ChannelState", ptr %this, i64 0, i32 3
  %5 = load ptr, ptr %transport_, align 8
  store ptr null, ptr %transport_, align 8
  %tobool.not.i.i = icmp eq ptr %5, null
  br i1 %tobool.not.i.i, label %_ZNSt10unique_ptrIN9grpc_core19XdsTransportFactory12XdsTransportENS0_16OrphanableDeleteEE5resetEPS2_.exit, label %if.then.i.i

if.then.i.i:                                      ; preds = %if.end
  %vtable.i.i.i = load ptr, ptr %5, align 8
  %6 = load ptr, ptr %vtable.i.i.i, align 8
  invoke void %6(ptr noundef nonnull align 8 dereferenceable(8) %5)
          to label %_ZNSt10unique_ptrIN9grpc_core19XdsTransportFactory12XdsTransportENS0_16OrphanableDeleteEE5resetEPS2_.exit unwind label %terminate.lpad.i.i

terminate.lpad.i.i:                               ; preds = %if.then.i.i
  %7 = landingpad { ptr, i32 }
          catch ptr null
  %8 = extractvalue { ptr, i32 } %7, 0
  tail call void @__clang_call_terminate(ptr %8) #27
  unreachable

_ZNSt10unique_ptrIN9grpc_core19XdsTransportFactory12XdsTransportENS0_16OrphanableDeleteEE5resetEPS2_.exit: ; preds = %if.end, %if.then.i.i
  %xds_client_ = getelementptr inbounds %"class.grpc_core::XdsClient::ChannelState", ptr %this, i64 0, i32 1
  %9 = load ptr, ptr %xds_client_, align 8
  %xds_server_channel_map_ = getelementptr inbounds %"class.grpc_core::XdsClient", ptr %9, i64 0, i32 12
  %server_6 = getelementptr inbounds %"class.grpc_core::XdsClient::ChannelState", ptr %this, i64 0, i32 2
  %10 = load ptr, ptr %server_6, align 8
  store ptr %10, ptr %ref.tmp, align 8
  %call.i = call noundef i64 @_ZNSt8_Rb_treeIPKN9grpc_core12XdsBootstrap9XdsServerESt4pairIKS4_PNS0_9XdsClient12ChannelStateEESt10_Select1stISA_ESt4lessIS4_ESaISA_EE5eraseERS6_(ptr noundef nonnull align 8 dereferenceable(48) %xds_server_channel_map_, ptr noundef nonnull align 8 dereferenceable(8) %ref.tmp)
  %ads_calld_ = getelementptr inbounds %"class.grpc_core::XdsClient::ChannelState", ptr %this, i64 0, i32 5
  %11 = load ptr, ptr %ads_calld_, align 8
  store ptr null, ptr %ads_calld_, align 8
  %tobool.not.i.i1 = icmp eq ptr %11, null
  br i1 %tobool.not.i.i1, label %_ZNSt10unique_ptrIN9grpc_core9XdsClient12ChannelState13RetryableCallINS2_12AdsCallStateEEENS0_16OrphanableDeleteEE5resetEPS5_.exit, label %if.then.i.i2

if.then.i.i2:                                     ; preds = %_ZNSt10unique_ptrIN9grpc_core19XdsTransportFactory12XdsTransportENS0_16OrphanableDeleteEE5resetEPS2_.exit
  %vtable.i.i.i3 = load ptr, ptr %11, align 8
  %12 = load ptr, ptr %vtable.i.i.i3, align 8
  invoke void %12(ptr noundef nonnull align 8 dereferenceable(393) %11)
          to label %_ZNSt10unique_ptrIN9grpc_core9XdsClient12ChannelState13RetryableCallINS2_12AdsCallStateEEENS0_16OrphanableDeleteEE5resetEPS5_.exit unwind label %terminate.lpad.i.i4

terminate.lpad.i.i4:                              ; preds = %if.then.i.i2
  %13 = landingpad { ptr, i32 }
          catch ptr null
  %14 = extractvalue { ptr, i32 } %13, 0
  call void @__clang_call_terminate(ptr %14) #27
  unreachable

_ZNSt10unique_ptrIN9grpc_core9XdsClient12ChannelState13RetryableCallINS2_12AdsCallStateEEENS0_16OrphanableDeleteEE5resetEPS5_.exit: ; preds = %_ZNSt10unique_ptrIN9grpc_core19XdsTransportFactory12XdsTransportENS0_16OrphanableDeleteEE5resetEPS2_.exit, %if.then.i.i2
  %lrs_calld_ = getelementptr inbounds %"class.grpc_core::XdsClient::ChannelState", ptr %this, i64 0, i32 6
  %15 = load ptr, ptr %lrs_calld_, align 8
  store ptr null, ptr %lrs_calld_, align 8
  %tobool.not.i.i5 = icmp eq ptr %15, null
  br i1 %tobool.not.i.i5, label %_ZNSt10unique_ptrIN9grpc_core9XdsClient12ChannelState13RetryableCallINS2_12LrsCallStateEEENS0_16OrphanableDeleteEE5resetEPS5_.exit, label %if.then.i.i6

if.then.i.i6:                                     ; preds = %_ZNSt10unique_ptrIN9grpc_core9XdsClient12ChannelState13RetryableCallINS2_12AdsCallStateEEENS0_16OrphanableDeleteEE5resetEPS5_.exit
  %vtable.i.i.i7 = load ptr, ptr %15, align 8
  %16 = load ptr, ptr %vtable.i.i.i7, align 8
  invoke void %16(ptr noundef nonnull align 8 dereferenceable(393) %15)
          to label %_ZNSt10unique_ptrIN9grpc_core9XdsClient12ChannelState13RetryableCallINS2_12LrsCallStateEEENS0_16OrphanableDeleteEE5resetEPS5_.exit unwind label %terminate.lpad.i.i8

terminate.lpad.i.i8:                              ; preds = %if.then.i.i6
  %17 = landingpad { ptr, i32 }
          catch ptr null
  %18 = extractvalue { ptr, i32 } %17, 0
  call void @__clang_call_terminate(ptr %18) #27
  unreachable

_ZNSt10unique_ptrIN9grpc_core9XdsClient12ChannelState13RetryableCallINS2_12LrsCallStateEEENS0_16OrphanableDeleteEE5resetEPS5_.exit: ; preds = %_ZNSt10unique_ptrIN9grpc_core9XdsClient12ChannelState13RetryableCallINS2_12AdsCallStateEEENS0_16OrphanableDeleteEE5resetEPS5_.exit, %if.then.i.i6
  ret void
}

; Function Attrs: mustprogress uwtable
define void @_ZN9grpc_core9XdsClient12ChannelState12ResetBackoffEv(ptr nocapture noundef nonnull readonly align 8 dereferenceable(120) %this) local_unnamed_addr #3 align 2 {
entry:
  %transport_ = getelementptr inbounds %"class.grpc_core::XdsClient::ChannelState", ptr %this, i64 0, i32 3
  %0 = load ptr, ptr %transport_, align 8
  %vtable = load ptr, ptr %0, align 8
  %vfn = getelementptr inbounds ptr, ptr %vtable, i64 4
  %1 = load ptr, ptr %vfn, align 8
  tail call void %1(ptr noundef nonnull align 8 dereferenceable(16) %0)
  ret void
}

; Function Attrs: mustprogress nofree norecurse nosync nounwind willreturn memory(read, inaccessiblemem: none) uwtable
define noundef ptr @_ZNK9grpc_core9XdsClient12ChannelState9ads_calldEv(ptr nocapture noundef nonnull readonly align 8 dereferenceable(120) %this) local_unnamed_addr #8 align 2 {
entry:
  %ads_calld_ = getelementptr inbounds %"class.grpc_core::XdsClient::ChannelState", ptr %this, i64 0, i32 5
  %0 = load ptr, ptr %ads_calld_, align 8
  %calld_.i = getelementptr inbounds %"class.grpc_core::XdsClient::ChannelState::RetryableCall", ptr %0, i64 0, i32 1
  %1 = load ptr, ptr %calld_.i, align 8
  ret ptr %1
}

; Function Attrs: mustprogress nofree norecurse nosync nounwind willreturn memory(read, inaccessiblemem: none) uwtable
define noundef ptr @_ZNK9grpc_core9XdsClient12ChannelState9lrs_calldEv(ptr nocapture noundef nonnull readonly align 8 dereferenceable(120) %this) local_unnamed_addr #8 align 2 {
entry:
  %lrs_calld_ = getelementptr inbounds %"class.grpc_core::XdsClient::ChannelState", ptr %this, i64 0, i32 6
  %0 = load ptr, ptr %lrs_calld_, align 8
  %calld_.i = getelementptr inbounds %"class.grpc_core::XdsClient::ChannelState::RetryableCall.96", ptr %0, i64 0, i32 1
  %1 = load ptr, ptr %calld_.i, align 8
  ret ptr %1
}

; Function Attrs: mustprogress uwtable
define void @_ZN9grpc_core9XdsClient12ChannelState17MaybeStartLrsCallEv(ptr noundef nonnull align 8 dereferenceable(120) %this) local_unnamed_addr #3 align 2 personality ptr @__gxx_personality_v0 {
entry:
  %ref.tmp.i = alloca %"class.grpc_core::BackOff::Options", align 8
  %lrs_calld_ = getelementptr inbounds %"class.grpc_core::XdsClient::ChannelState", ptr %this, i64 0, i32 6
  %0 = load ptr, ptr %lrs_calld_, align 8
  %cmp.i.i.not = icmp eq ptr %0, null
  br i1 %cmp.i.i.not, label %invoke.cont4, label %return

invoke.cont4:                                     ; preds = %entry
  %call3 = tail call noalias noundef nonnull dereferenceable(400) ptr @_Znwm(i64 noundef 400) #26
  %refs_.i.i = getelementptr inbounds %"class.grpc_core::DualRefCounted", ptr %this, i64 0, i32 1
  %1 = atomicrmw add ptr %refs_.i.i, i64 1 monotonic, align 8, !noalias !9
  call void @llvm.lifetime.start.p0(i64 32, ptr nonnull %ref.tmp.i)
  %refs_.i.i2 = getelementptr inbounds %"class.grpc_core::InternallyRefCounted.97", ptr %call3, i64 0, i32 1
  store i64 1, ptr %refs_.i.i2, align 8
  store ptr getelementptr inbounds ({ [5 x ptr] }, ptr @_ZTVN9grpc_core9XdsClient12ChannelState13RetryableCallINS1_12LrsCallStateEEE, i64 0, inrange i32 0, i64 2), ptr %call3, align 8
  %calld_.i = getelementptr inbounds %"class.grpc_core::XdsClient::ChannelState::RetryableCall.96", ptr %call3, i64 0, i32 1
  %chand_.i = getelementptr inbounds %"class.grpc_core::XdsClient::ChannelState::RetryableCall.96", ptr %call3, i64 0, i32 2
  store i64 0, ptr %calld_.i, align 8
  store ptr %this, ptr %chand_.i, align 8
  %backoff_.i = getelementptr inbounds %"class.grpc_core::XdsClient::ChannelState::RetryableCall.96", ptr %call3, i64 0, i32 3
  %max_backoff_.i.i = getelementptr inbounds %"class.grpc_core::BackOff::Options", ptr %ref.tmp.i, i64 0, i32 3
  store i64 1000, ptr %ref.tmp.i, align 8
  %multiplier_.i.i = getelementptr inbounds %"class.grpc_core::BackOff::Options", ptr %ref.tmp.i, i64 0, i32 1
  store <2 x double> <double 1.600000e+00, double 2.000000e-01>, ptr %multiplier_.i.i, align 8
  store i64 120000, ptr %max_backoff_.i.i, align 8
  invoke void @_ZN9grpc_core7BackOffC1ERKNS0_7OptionsE(ptr noundef nonnull align 8 dereferenceable(336) %backoff_.i, ptr noundef nonnull align 8 dereferenceable(32) %ref.tmp.i)
          to label %invoke.cont16.i unwind label %lpad.i

invoke.cont16.i:                                  ; preds = %invoke.cont4
  %_M_engaged.i.i.i.i.i = getelementptr inbounds %"class.grpc_core::XdsClient::ChannelState::RetryableCall.96", ptr %call3, i64 0, i32 4, i32 0, i32 0, i32 0, i32 1
  store i8 0, ptr %_M_engaged.i.i.i.i.i, align 8
  %shutting_down_.i = getelementptr inbounds %"class.grpc_core::XdsClient::ChannelState::RetryableCall.96", ptr %call3, i64 0, i32 5
  store i8 0, ptr %shutting_down_.i, align 8
  invoke void @_ZN9grpc_core9XdsClient12ChannelState13RetryableCallINS1_12LrsCallStateEE18StartNewCallLockedEv(ptr noundef nonnull align 8 dereferenceable(393) %call3)
          to label %invoke.cont6 unwind label %lpad.i

lpad.i:                                           ; preds = %invoke.cont16.i, %invoke.cont4
  %2 = landingpad { ptr, i32 }
          cleanup
  %3 = load ptr, ptr %chand_.i, align 8
  %cmp.not.i.i = icmp eq ptr %3, null
  br i1 %cmp.not.i.i, label %_ZN9grpc_core17WeakRefCountedPtrINS_9XdsClient12ChannelStateEED2Ev.exit.i, label %if.then.i.i

if.then.i.i:                                      ; preds = %lpad.i
  %refs_.i.i.i = getelementptr inbounds %"class.grpc_core::DualRefCounted", ptr %3, i64 0, i32 1
  %4 = atomicrmw sub ptr %refs_.i.i.i, i64 1 acq_rel, align 8
  %cmp.not.i.i.i = icmp eq i64 %4, 1
  br i1 %cmp.not.i.i.i, label %delete.notnull.i.i.i, label %_ZN9grpc_core17WeakRefCountedPtrINS_9XdsClient12ChannelStateEED2Ev.exit.i

delete.notnull.i.i.i:                             ; preds = %if.then.i.i
  %vtable.i.i.i = load ptr, ptr %3, align 8
  %vfn.i.i.i = getelementptr inbounds ptr, ptr %vtable.i.i.i, i64 2
  %5 = load ptr, ptr %vfn.i.i.i, align 8
  call void %5(ptr noundef nonnull align 8 dereferenceable(120) %3) #25
  br label %_ZN9grpc_core17WeakRefCountedPtrINS_9XdsClient12ChannelStateEED2Ev.exit.i

_ZN9grpc_core17WeakRefCountedPtrINS_9XdsClient12ChannelStateEED2Ev.exit.i: ; preds = %delete.notnull.i.i.i, %if.then.i.i, %lpad.i
  call void @_ZNSt10unique_ptrIN9grpc_core9XdsClient12ChannelState12LrsCallStateENS0_16OrphanableDeleteEED2Ev(ptr noundef nonnull align 8 dereferenceable(8) %calld_.i) #25
  call void @_ZdlPv(ptr noundef nonnull %call3) #30
  resume { ptr, i32 } %2

invoke.cont6:                                     ; preds = %invoke.cont16.i
  call void @llvm.lifetime.end.p0(i64 32, ptr nonnull %ref.tmp.i)
  %6 = load ptr, ptr %lrs_calld_, align 8
  store ptr %call3, ptr %lrs_calld_, align 8
  %tobool.not.i.i = icmp eq ptr %6, null
  br i1 %tobool.not.i.i, label %return, label %if.then.i.i3

if.then.i.i3:                                     ; preds = %invoke.cont6
  %vtable.i.i.i4 = load ptr, ptr %6, align 8
  %7 = load ptr, ptr %vtable.i.i.i4, align 8
  invoke void %7(ptr noundef nonnull align 8 dereferenceable(393) %6)
          to label %return unwind label %terminate.lpad.i.i

terminate.lpad.i.i:                               ; preds = %if.then.i.i3
  %8 = landingpad { ptr, i32 }
          catch ptr null
  %9 = extractvalue { ptr, i32 } %8, 0
  call void @__clang_call_terminate(ptr %9) #27
  unreachable

return:                                           ; preds = %invoke.cont6, %if.then.i.i3, %entry
  ret void
}

; Function Attrs: nobuiltin allocsize(0)
declare noundef nonnull ptr @_Znwm(i64 noundef) local_unnamed_addr #9

; Function Attrs: mustprogress uwtable
define void @_ZN9grpc_core9XdsClient12ChannelState17StopLrsCallLockedEv(ptr nocapture noundef nonnull align 8 dereferenceable(120) %this) local_unnamed_addr #3 align 2 personality ptr @__gxx_personality_v0 {
entry:
  %ref.tmp = alloca ptr, align 8
  %xds_client_ = getelementptr inbounds %"class.grpc_core::XdsClient::ChannelState", ptr %this, i64 0, i32 1
  %0 = load ptr, ptr %xds_client_, align 8
  %xds_load_report_server_map_ = getelementptr inbounds %"class.grpc_core::XdsClient", ptr %0, i64 0, i32 14
  %server_ = getelementptr inbounds %"class.grpc_core::XdsClient::ChannelState", ptr %this, i64 0, i32 2
  %1 = load ptr, ptr %server_, align 8
  store ptr %1, ptr %ref.tmp, align 8
  %call.i = call noundef i64 @_ZNSt8_Rb_treeIPKN9grpc_core12XdsBootstrap9XdsServerESt4pairIKS4_NS0_9XdsClient16LoadReportServerEESt10_Select1stIS9_ESt4lessIS4_ESaIS9_EE5eraseERS6_(ptr noundef nonnull align 8 dereferenceable(48) %xds_load_report_server_map_, ptr noundef nonnull align 8 dereferenceable(8) %ref.tmp)
  %lrs_calld_ = getelementptr inbounds %"class.grpc_core::XdsClient::ChannelState", ptr %this, i64 0, i32 6
  %2 = load ptr, ptr %lrs_calld_, align 8
  store ptr null, ptr %lrs_calld_, align 8
  %tobool.not.i.i = icmp eq ptr %2, null
  br i1 %tobool.not.i.i, label %_ZNSt10unique_ptrIN9grpc_core9XdsClient12ChannelState13RetryableCallINS2_12LrsCallStateEEENS0_16OrphanableDeleteEE5resetEPS5_.exit, label %if.then.i.i

if.then.i.i:                                      ; preds = %entry
  %vtable.i.i.i = load ptr, ptr %2, align 8
  %3 = load ptr, ptr %vtable.i.i.i, align 8
  invoke void %3(ptr noundef nonnull align 8 dereferenceable(393) %2)
          to label %_ZNSt10unique_ptrIN9grpc_core9XdsClient12ChannelState13RetryableCallINS2_12LrsCallStateEEENS0_16OrphanableDeleteEE5resetEPS5_.exit unwind label %terminate.lpad.i.i

terminate.lpad.i.i:                               ; preds = %if.then.i.i
  %4 = landingpad { ptr, i32 }
          catch ptr null
  %5 = extractvalue { ptr, i32 } %4, 0
  call void @__clang_call_terminate(ptr %5) #27
  unreachable

_ZNSt10unique_ptrIN9grpc_core9XdsClient12ChannelState13RetryableCallINS2_12LrsCallStateEEENS0_16OrphanableDeleteEE5resetEPS5_.exit: ; preds = %entry, %if.then.i.i
  ret void
}

; Function Attrs: mustprogress uwtable
define void @_ZN9grpc_core9XdsClient12ChannelState15SubscribeLockedEPKNS_15XdsResourceTypeERKNS0_15XdsResourceNameE(ptr noundef nonnull align 8 dereferenceable(120) %this, ptr noundef %type, ptr noundef nonnull align 8 dereferenceable(88) %name) local_unnamed_addr #3 align 2 personality ptr @__gxx_personality_v0 {
entry:
  %ref.tmp.i = alloca %"class.grpc_core::BackOff::Options", align 8
  %ads_calld_ = getelementptr inbounds %"class.grpc_core::XdsClient::ChannelState", ptr %this, i64 0, i32 5
  %0 = load ptr, ptr %ads_calld_, align 8
  %cmp.i.not.i = icmp eq ptr %0, null
  br i1 %cmp.i.not.i, label %invoke.cont4, label %if.end

invoke.cont4:                                     ; preds = %entry
  %call3 = tail call noalias noundef nonnull dereferenceable(400) ptr @_Znwm(i64 noundef 400) #26
  %refs_.i.i = getelementptr inbounds %"class.grpc_core::DualRefCounted", ptr %this, i64 0, i32 1
  %1 = atomicrmw add ptr %refs_.i.i, i64 1 monotonic, align 8, !noalias !12
  call void @llvm.lifetime.start.p0(i64 32, ptr nonnull %ref.tmp.i)
  %refs_.i.i2 = getelementptr inbounds %"class.grpc_core::InternallyRefCounted.89", ptr %call3, i64 0, i32 1
  store i64 1, ptr %refs_.i.i2, align 8
  store ptr getelementptr inbounds ({ [5 x ptr] }, ptr @_ZTVN9grpc_core9XdsClient12ChannelState13RetryableCallINS1_12AdsCallStateEEE, i64 0, inrange i32 0, i64 2), ptr %call3, align 8
  %calld_.i = getelementptr inbounds %"class.grpc_core::XdsClient::ChannelState::RetryableCall", ptr %call3, i64 0, i32 1
  %chand_.i = getelementptr inbounds %"class.grpc_core::XdsClient::ChannelState::RetryableCall", ptr %call3, i64 0, i32 2
  store i64 0, ptr %calld_.i, align 8
  store ptr %this, ptr %chand_.i, align 8
  %backoff_.i = getelementptr inbounds %"class.grpc_core::XdsClient::ChannelState::RetryableCall", ptr %call3, i64 0, i32 3
  %max_backoff_.i.i = getelementptr inbounds %"class.grpc_core::BackOff::Options", ptr %ref.tmp.i, i64 0, i32 3
  store i64 1000, ptr %ref.tmp.i, align 8
  %multiplier_.i.i = getelementptr inbounds %"class.grpc_core::BackOff::Options", ptr %ref.tmp.i, i64 0, i32 1
  store <2 x double> <double 1.600000e+00, double 2.000000e-01>, ptr %multiplier_.i.i, align 8
  store i64 120000, ptr %max_backoff_.i.i, align 8
  invoke void @_ZN9grpc_core7BackOffC1ERKNS0_7OptionsE(ptr noundef nonnull align 8 dereferenceable(336) %backoff_.i, ptr noundef nonnull align 8 dereferenceable(32) %ref.tmp.i)
          to label %invoke.cont12.i unwind label %lpad.i

invoke.cont12.i:                                  ; preds = %invoke.cont4
  %_M_engaged.i.i.i.i.i = getelementptr inbounds %"class.grpc_core::XdsClient::ChannelState::RetryableCall", ptr %call3, i64 0, i32 4, i32 0, i32 0, i32 0, i32 1
  store i8 0, ptr %_M_engaged.i.i.i.i.i, align 8
  %shutting_down_.i = getelementptr inbounds %"class.grpc_core::XdsClient::ChannelState::RetryableCall", ptr %call3, i64 0, i32 5
  store i8 0, ptr %shutting_down_.i, align 8
  invoke void @_ZN9grpc_core9XdsClient12ChannelState13RetryableCallINS1_12AdsCallStateEE18StartNewCallLockedEv(ptr noundef nonnull align 8 dereferenceable(393) %call3)
          to label %invoke.cont6 unwind label %lpad.i

lpad.i:                                           ; preds = %invoke.cont12.i, %invoke.cont4
  %2 = landingpad { ptr, i32 }
          cleanup
  %3 = load ptr, ptr %chand_.i, align 8
  %cmp.not.i.i = icmp eq ptr %3, null
  br i1 %cmp.not.i.i, label %_ZN9grpc_core17WeakRefCountedPtrINS_9XdsClient12ChannelStateEED2Ev.exit.i, label %if.then.i.i

if.then.i.i:                                      ; preds = %lpad.i
  %refs_.i.i.i = getelementptr inbounds %"class.grpc_core::DualRefCounted", ptr %3, i64 0, i32 1
  %4 = atomicrmw sub ptr %refs_.i.i.i, i64 1 acq_rel, align 8
  %cmp.not.i.i.i = icmp eq i64 %4, 1
  br i1 %cmp.not.i.i.i, label %delete.notnull.i.i.i, label %_ZN9grpc_core17WeakRefCountedPtrINS_9XdsClient12ChannelStateEED2Ev.exit.i

delete.notnull.i.i.i:                             ; preds = %if.then.i.i
  %vtable.i.i.i = load ptr, ptr %3, align 8
  %vfn.i.i.i = getelementptr inbounds ptr, ptr %vtable.i.i.i, i64 2
  %5 = load ptr, ptr %vfn.i.i.i, align 8
  call void %5(ptr noundef nonnull align 8 dereferenceable(120) %3) #25
  br label %_ZN9grpc_core17WeakRefCountedPtrINS_9XdsClient12ChannelStateEED2Ev.exit.i

_ZN9grpc_core17WeakRefCountedPtrINS_9XdsClient12ChannelStateEED2Ev.exit.i: ; preds = %delete.notnull.i.i.i, %if.then.i.i, %lpad.i
  call void @_ZNSt10unique_ptrIN9grpc_core9XdsClient12ChannelState12AdsCallStateENS0_16OrphanableDeleteEED2Ev(ptr noundef nonnull align 8 dereferenceable(8) %calld_.i) #25
  call void @_ZdlPv(ptr noundef nonnull %call3) #30
  resume { ptr, i32 } %2

invoke.cont6:                                     ; preds = %invoke.cont12.i
  call void @llvm.lifetime.end.p0(i64 32, ptr nonnull %ref.tmp.i)
  %6 = load ptr, ptr %ads_calld_, align 8
  store ptr %call3, ptr %ads_calld_, align 8
  %tobool.not.i.i = icmp eq ptr %6, null
  br i1 %tobool.not.i.i, label %return, label %if.then.i.i3

if.then.i.i3:                                     ; preds = %invoke.cont6
  %vtable.i.i.i4 = load ptr, ptr %6, align 8
  %7 = load ptr, ptr %vtable.i.i.i4, align 8
  invoke void %7(ptr noundef nonnull align 8 dereferenceable(393) %6)
          to label %return unwind label %terminate.lpad.i.i

terminate.lpad.i.i:                               ; preds = %if.then.i.i3
  %8 = landingpad { ptr, i32 }
          catch ptr null
  %9 = extractvalue { ptr, i32 } %8, 0
  call void @__clang_call_terminate(ptr %9) #27
  unreachable

if.end:                                           ; preds = %entry
  %calld_.i.i = getelementptr inbounds %"class.grpc_core::XdsClient::ChannelState::RetryableCall", ptr %0, i64 0, i32 1
  %10 = load ptr, ptr %calld_.i.i, align 8
  %cmp = icmp eq ptr %10, null
  br i1 %cmp, label %return, label %if.end9

if.end9:                                          ; preds = %if.end
  tail call void @_ZN9grpc_core9XdsClient12ChannelState12AdsCallState15SubscribeLockedEPKNS_15XdsResourceTypeERKNS0_15XdsResourceNameEb(ptr noundef nonnull align 8 dereferenceable(144) %10, ptr noundef %type, ptr noundef nonnull align 8 dereferenceable(88) %name, i1 noundef zeroext false)
  br label %return

return:                                           ; preds = %invoke.cont6, %if.then.i.i3, %if.end, %if.end9
  ret void
}

; Function Attrs: mustprogress uwtable
define void @_ZN9grpc_core9XdsClient12ChannelState12AdsCallState15SubscribeLockedEPKNS_15XdsResourceTypeERKNS0_15XdsResourceNameEb(ptr noundef nonnull align 8 dereferenceable(144) %this, ptr noundef %type, ptr noundef nonnull align 8 dereferenceable(88) %name, i1 noundef zeroext %delay_send) local_unnamed_addr #3 align 2 personality ptr @__gxx_personality_v0 {
entry:
  %ref.tmp9.i = alloca %"class.std::tuple.498", align 8
  %ref.tmp10.i = alloca %"class.std::tuple.479", align 1
  %type.addr = alloca ptr, align 8
  store ptr %type, ptr %type.addr, align 8
  %state_map_ = getelementptr inbounds %"class.grpc_core::XdsClient::ChannelState::AdsCallState", ptr %this, i64 0, i32 7
  call void @llvm.lifetime.start.p0(i64 8, ptr nonnull %ref.tmp9.i)
  call void @llvm.lifetime.start.p0(i64 1, ptr nonnull %ref.tmp10.i)
  %_M_parent.i.i.i.i.i = getelementptr inbounds %"class.grpc_core::XdsClient::ChannelState::AdsCallState", ptr %this, i64 0, i32 7, i32 0, i32 0, i32 1, i32 0, i32 1
  %0 = load ptr, ptr %_M_parent.i.i.i.i.i, align 8
  %add.ptr.i.i.i.i = getelementptr inbounds %"class.grpc_core::XdsClient::ChannelState::AdsCallState", ptr %this, i64 0, i32 7, i32 0, i32 0, i32 1
  %cmp.not5.i.i.i.i = icmp eq ptr %0, null
  br i1 %cmp.not5.i.i.i.i, label %if.then.i, label %while.body.i.i.i.i

while.body.i.i.i.i:                               ; preds = %entry, %while.body.i.i.i.i
  %__x.addr.07.i.i.i.i = phi ptr [ %__x.addr.1.i.i.i.i, %while.body.i.i.i.i ], [ %0, %entry ]
  %__y.addr.06.i.i.i.i = phi ptr [ %__y.addr.1.i.i.i.i, %while.body.i.i.i.i ], [ %add.ptr.i.i.i.i, %entry ]
  %_M_storage.i.i.i.i.i.i = getelementptr inbounds %"struct.std::_Rb_tree_node.411", ptr %__x.addr.07.i.i.i.i, i64 0, i32 1
  %1 = load ptr, ptr %_M_storage.i.i.i.i.i.i, align 8
  %cmp.i.i.i.i.i = icmp ult ptr %1, %type
  %_M_right.i.i.i.i.i = getelementptr inbounds %"struct.std::_Rb_tree_node_base", ptr %__x.addr.07.i.i.i.i, i64 0, i32 3
  %_M_left.i.i.i.i.i = getelementptr inbounds %"struct.std::_Rb_tree_node_base", ptr %__x.addr.07.i.i.i.i, i64 0, i32 2
  %__y.addr.1.i.i.i.i = select i1 %cmp.i.i.i.i.i, ptr %__y.addr.06.i.i.i.i, ptr %__x.addr.07.i.i.i.i
  %__x.addr.1.in.i.i.i.i = select i1 %cmp.i.i.i.i.i, ptr %_M_right.i.i.i.i.i, ptr %_M_left.i.i.i.i.i
  %__x.addr.1.i.i.i.i = load ptr, ptr %__x.addr.1.in.i.i.i.i, align 8
  %cmp.not.i.i.i.i = icmp eq ptr %__x.addr.1.i.i.i.i, null
  br i1 %cmp.not.i.i.i.i, label %_ZNSt3mapIPKN9grpc_core15XdsResourceTypeENS0_9XdsClient12ChannelState12AdsCallState17ResourceTypeStateESt4lessIS3_ESaISt4pairIKS3_S7_EEE11lower_boundERSB_.exit.i, label %while.body.i.i.i.i, !llvm.loop !15

_ZNSt3mapIPKN9grpc_core15XdsResourceTypeENS0_9XdsClient12ChannelState12AdsCallState17ResourceTypeStateESt4lessIS3_ESaISt4pairIKS3_S7_EEE11lower_boundERSB_.exit.i: ; preds = %while.body.i.i.i.i
  %cmp.i.i = icmp eq ptr %__y.addr.1.i.i.i.i, %add.ptr.i.i.i.i
  br i1 %cmp.i.i, label %if.then.i, label %lor.rhs.i

lor.rhs.i:                                        ; preds = %_ZNSt3mapIPKN9grpc_core15XdsResourceTypeENS0_9XdsClient12ChannelState12AdsCallState17ResourceTypeStateESt4lessIS3_ESaISt4pairIKS3_S7_EEE11lower_boundERSB_.exit.i
  %_M_storage.i.i.i = getelementptr inbounds %"struct.std::_Rb_tree_node.411", ptr %__y.addr.1.i.i.i.i, i64 0, i32 1
  %2 = load ptr, ptr %_M_storage.i.i.i, align 8
  %cmp.i3.i = icmp ugt ptr %2, %type
  br i1 %cmp.i3.i, label %if.then.i, label %_ZNSt3mapIPKN9grpc_core15XdsResourceTypeENS0_9XdsClient12ChannelState12AdsCallState17ResourceTypeStateESt4lessIS3_ESaISt4pairIKS3_S7_EEEixERSB_.exit

if.then.i:                                        ; preds = %lor.rhs.i, %_ZNSt3mapIPKN9grpc_core15XdsResourceTypeENS0_9XdsClient12ChannelState12AdsCallState17ResourceTypeStateESt4lessIS3_ESaISt4pairIKS3_S7_EEE11lower_boundERSB_.exit.i, %entry
  %__y.addr.0.lcssa.i.i.i10.i = phi ptr [ %add.ptr.i.i.i.i, %_ZNSt3mapIPKN9grpc_core15XdsResourceTypeENS0_9XdsClient12ChannelState12AdsCallState17ResourceTypeStateESt4lessIS3_ESaISt4pairIKS3_S7_EEE11lower_boundERSB_.exit.i ], [ %__y.addr.1.i.i.i.i, %lor.rhs.i ], [ %add.ptr.i.i.i.i, %entry ]
  store ptr %type.addr, ptr %ref.tmp9.i, align 8
  %call12.i = call ptr @_ZNSt8_Rb_treeIPKN9grpc_core15XdsResourceTypeESt4pairIKS3_NS0_9XdsClient12ChannelState12AdsCallState17ResourceTypeStateEESt10_Select1stISA_ESt4lessIS3_ESaISA_EE22_M_emplace_hint_uniqueIJRKSt21piecewise_construct_tSt5tupleIJRS5_EESL_IJEEEEESt17_Rb_tree_iteratorISA_ESt23_Rb_tree_const_iteratorISA_EDpOT_(ptr noundef nonnull align 8 dereferenceable(48) %state_map_, ptr %__y.addr.0.lcssa.i.i.i10.i, ptr noundef nonnull align 1 dereferenceable(1) @_ZSt19piecewise_construct, ptr noundef nonnull align 8 dereferenceable(8) %ref.tmp9.i, ptr noundef nonnull align 1 dereferenceable(1) %ref.tmp10.i)
  br label %_ZNSt3mapIPKN9grpc_core15XdsResourceTypeENS0_9XdsClient12ChannelState12AdsCallState17ResourceTypeStateESt4lessIS3_ESaISt4pairIKS3_S7_EEEixERSB_.exit

_ZNSt3mapIPKN9grpc_core15XdsResourceTypeENS0_9XdsClient12ChannelState12AdsCallState17ResourceTypeStateESt4lessIS3_ESaISt4pairIKS3_S7_EEEixERSB_.exit: ; preds = %lor.rhs.i, %if.then.i
  %__i.sroa.0.0.i = phi ptr [ %call12.i, %if.then.i ], [ %__y.addr.1.i.i.i.i, %lor.rhs.i ]
  call void @llvm.lifetime.end.p0(i64 8, ptr nonnull %ref.tmp9.i)
  call void @llvm.lifetime.end.p0(i64 1, ptr nonnull %ref.tmp10.i)
  %subscribed_resources = getelementptr inbounds %"struct.std::_Rb_tree_node.411", ptr %__i.sroa.0.0.i, i64 0, i32 1, i32 0, i64 48
  %call2 = call noundef nonnull align 8 dereferenceable(48) ptr @_ZNSt3mapINSt7__cxx1112basic_stringIcSt11char_traitsIcESaIcEEES_IN9grpc_core9XdsClient14XdsResourceKeyESt10unique_ptrINS7_12ChannelState12AdsCallState13ResourceTimerENS6_16OrphanableDeleteEESt4lessIS8_ESaISt4pairIKS8_SE_EEESF_IS5_ESaISH_IKS5_SL_EEEixERSN_(ptr noundef nonnull align 8 dereferenceable(48) %subscribed_resources, ptr noundef nonnull align 8 dereferenceable(32) %name)
  %key = getelementptr inbounds %"struct.grpc_core::XdsClient::XdsResourceName", ptr %name, i64 0, i32 1
  %call3 = call noundef nonnull align 8 dereferenceable(8) ptr @_ZNSt3mapIN9grpc_core9XdsClient14XdsResourceKeyESt10unique_ptrINS1_12ChannelState12AdsCallState13ResourceTimerENS0_16OrphanableDeleteEESt4lessIS2_ESaISt4pairIKS2_S8_EEEixERSC_(ptr noundef nonnull align 8 dereferenceable(48) %call2, ptr noundef nonnull align 8 dereferenceable(56) %key)
  %3 = load ptr, ptr %call3, align 8
  %cmp.i.not.i = icmp eq ptr %3, null
  br i1 %cmp.i.not.i, label %if.then, label %if.end7

if.then:                                          ; preds = %_ZNSt3mapIPKN9grpc_core15XdsResourceTypeENS0_9XdsClient12ChannelState12AdsCallState17ResourceTypeStateESt4lessIS3_ESaISt4pairIKS3_S7_EEEixERSB_.exit
  %call.i = call noalias noundef nonnull dereferenceable(152) ptr @_Znwm(i64 noundef 152) #26, !noalias !16
  %4 = load ptr, ptr %type.addr, align 8, !noalias !16
  %refs_.i.i.i = getelementptr inbounds %"class.grpc_core::InternallyRefCounted.211", ptr %call.i, i64 0, i32 1
  store i64 1, ptr %refs_.i.i.i, align 8, !noalias !16
  store ptr getelementptr inbounds ({ [5 x ptr] }, ptr @_ZTVN9grpc_core9XdsClient12ChannelState12AdsCallState13ResourceTimerE, i64 0, inrange i32 0, i64 2), ptr %call.i, align 8, !noalias !16
  %type_.i.i = getelementptr inbounds %"class.grpc_core::XdsClient::ChannelState::AdsCallState::ResourceTimer", ptr %call.i, i64 0, i32 1
  store ptr %4, ptr %type_.i.i, align 8, !noalias !16
  %name_.i.i = getelementptr inbounds %"class.grpc_core::XdsClient::ChannelState::AdsCallState::ResourceTimer", ptr %call.i, i64 0, i32 2
  invoke void @_ZNSt7__cxx1112basic_stringIcSt11char_traitsIcESaIcEEC1ERKS4_(ptr noundef nonnull align 8 dereferenceable(32) %name_.i.i, ptr noundef nonnull align 8 dereferenceable(32) %name)
          to label %.noexc.i unwind label %lpad.i, !noalias !16

.noexc.i:                                         ; preds = %if.then
  %key.i.i.i = getelementptr inbounds %"class.grpc_core::XdsClient::ChannelState::AdsCallState::ResourceTimer", ptr %call.i, i64 0, i32 2, i32 1
  invoke void @_ZN9grpc_core9XdsClient14XdsResourceKeyC2ERKS1_(ptr noundef nonnull align 8 dereferenceable(56) %key.i.i.i, ptr noundef nonnull align 8 dereferenceable(56) %key)
          to label %_ZN9grpc_core14MakeOrphanableINS_9XdsClient12ChannelState12AdsCallState13ResourceTimerEJRPKNS_15XdsResourceTypeERKNS1_15XdsResourceNameEEEESt10unique_ptrIT_NS_16OrphanableDeleteEEDpOT0_.exit unwind label %lpad.i.i.i, !noalias !16

lpad.i.i.i:                                       ; preds = %.noexc.i
  %5 = landingpad { ptr, i32 }
          cleanup
  call void @_ZNSt7__cxx1112basic_stringIcSt11char_traitsIcESaIcEED1Ev(ptr noundef nonnull align 8 dereferenceable(32) %name_.i.i) #25, !noalias !16
  br label %lpad.body.i

lpad.i:                                           ; preds = %if.then
  %6 = landingpad { ptr, i32 }
          cleanup
  br label %lpad.body.i

lpad.body.i:                                      ; preds = %lpad.i, %lpad.i.i.i
  %eh.lpad-body.i = phi { ptr, i32 } [ %6, %lpad.i ], [ %5, %lpad.i.i.i ]
  call void @_ZdlPv(ptr noundef nonnull %call.i) #30, !noalias !16
  resume { ptr, i32 } %eh.lpad-body.i

_ZN9grpc_core14MakeOrphanableINS_9XdsClient12ChannelState12AdsCallState13ResourceTimerEJRPKNS_15XdsResourceTypeERKNS1_15XdsResourceNameEEEESt10unique_ptrIT_NS_16OrphanableDeleteEEDpOT0_.exit: ; preds = %.noexc.i
  %ads_calld_.i.i = getelementptr inbounds %"class.grpc_core::XdsClient::ChannelState::AdsCallState::ResourceTimer", ptr %call.i, i64 0, i32 3
  store ptr null, ptr %ads_calld_.i.i, align 8, !noalias !16
  %subscription_sent_.i.i = getelementptr inbounds %"class.grpc_core::XdsClient::ChannelState::AdsCallState::ResourceTimer", ptr %call.i, i64 0, i32 4
  store i8 0, ptr %subscription_sent_.i.i, align 8, !noalias !16
  %resource_seen_.i.i = getelementptr inbounds %"class.grpc_core::XdsClient::ChannelState::AdsCallState::ResourceTimer", ptr %call.i, i64 0, i32 5
  store i8 0, ptr %resource_seen_.i.i, align 1, !noalias !16
  %_M_engaged.i.i.i.i.i.i = getelementptr inbounds %"class.grpc_core::XdsClient::ChannelState::AdsCallState::ResourceTimer", ptr %call.i, i64 0, i32 7, i32 0, i32 0, i32 0, i32 1
  store i8 0, ptr %_M_engaged.i.i.i.i.i.i, align 8, !noalias !16
  %7 = load ptr, ptr %call3, align 8
  store ptr %call.i, ptr %call3, align 8
  %tobool.not.i.i.i.i = icmp eq ptr %7, null
  br i1 %tobool.not.i.i.i.i, label %_ZNSt10unique_ptrIN9grpc_core9XdsClient12ChannelState12AdsCallState13ResourceTimerENS0_16OrphanableDeleteEED2Ev.exit, label %if.then.i.i.i.i

if.then.i.i.i.i:                                  ; preds = %_ZN9grpc_core14MakeOrphanableINS_9XdsClient12ChannelState12AdsCallState13ResourceTimerEJRPKNS_15XdsResourceTypeERKNS1_15XdsResourceNameEEEESt10unique_ptrIT_NS_16OrphanableDeleteEEDpOT0_.exit
  %vtable.i.i.i.i.i = load ptr, ptr %7, align 8
  %8 = load ptr, ptr %vtable.i.i.i.i.i, align 8
  invoke void %8(ptr noundef nonnull align 8 dereferenceable(152) %7)
          to label %_ZNSt10unique_ptrIN9grpc_core9XdsClient12ChannelState12AdsCallState13ResourceTimerENS0_16OrphanableDeleteEED2Ev.exit unwind label %terminate.lpad.i.i.i.i

terminate.lpad.i.i.i.i:                           ; preds = %if.then.i.i.i.i
  %9 = landingpad { ptr, i32 }
          catch ptr null
  %10 = extractvalue { ptr, i32 } %9, 0
  call void @__clang_call_terminate(ptr %10) #27
  unreachable

_ZNSt10unique_ptrIN9grpc_core9XdsClient12ChannelState12AdsCallState13ResourceTimerENS0_16OrphanableDeleteEED2Ev.exit: ; preds = %if.then.i.i.i.i, %_ZN9grpc_core14MakeOrphanableINS_9XdsClient12ChannelState12AdsCallState13ResourceTimerEJRPKNS_15XdsResourceTypeERKNS1_15XdsResourceNameEEEESt10unique_ptrIT_NS_16OrphanableDeleteEEDpOT0_.exit
  br i1 %delay_send, label %if.end7, label %if.then6

if.then6:                                         ; preds = %_ZNSt10unique_ptrIN9grpc_core9XdsClient12ChannelState12AdsCallState13ResourceTimerENS0_16OrphanableDeleteEED2Ev.exit
  %11 = load ptr, ptr %type.addr, align 8
  call void @_ZN9grpc_core9XdsClient12ChannelState12AdsCallState17SendMessageLockedEPKNS_15XdsResourceTypeE(ptr noundef nonnull align 8 dereferenceable(144) %this, ptr noundef %11)
  br label %if.end7

if.end7:                                          ; preds = %_ZNSt10unique_ptrIN9grpc_core9XdsClient12ChannelState12AdsCallState13ResourceTimerENS0_16OrphanableDeleteEED2Ev.exit, %if.then6, %_ZNSt3mapIPKN9grpc_core15XdsResourceTypeENS0_9XdsClient12ChannelState12AdsCallState17ResourceTypeStateESt4lessIS3_ESaISt4pairIKS3_S7_EEEixERSB_.exit
  ret void
}

; Function Attrs: mustprogress uwtable
define void @_ZN9grpc_core9XdsClient12ChannelState17UnsubscribeLockedEPKNS_15XdsResourceTypeERKNS0_15XdsResourceNameEb(ptr nocapture noundef nonnull align 8 dereferenceable(120) %this, ptr noundef %type, ptr noundef nonnull align 8 dereferenceable(88) %name, i1 noundef zeroext %delay_unsubscription) local_unnamed_addr #3 align 2 personality ptr @__gxx_personality_v0 {
entry:
  %ads_calld_ = getelementptr inbounds %"class.grpc_core::XdsClient::ChannelState", ptr %this, i64 0, i32 5
  %0 = load ptr, ptr %ads_calld_, align 8
  %cmp.i.i.not = icmp eq ptr %0, null
  br i1 %cmp.i.i.not, label %if.end10, label %if.then

if.then:                                          ; preds = %entry
  %calld_.i = getelementptr inbounds %"class.grpc_core::XdsClient::ChannelState::RetryableCall", ptr %0, i64 0, i32 1
  %1 = load ptr, ptr %calld_.i, align 8
  %cmp.not = icmp eq ptr %1, null
  br i1 %cmp.not, label %if.end10, label %if.then5

if.then5:                                         ; preds = %if.then
  tail call void @_ZN9grpc_core9XdsClient12ChannelState12AdsCallState17UnsubscribeLockedEPKNS_15XdsResourceTypeERKNS0_15XdsResourceNameEb(ptr noundef nonnull align 8 dereferenceable(144) %1, ptr noundef %type, ptr noundef nonnull align 8 dereferenceable(88) %name, i1 noundef zeroext %delay_unsubscription)
  %_M_left.i.i.i = getelementptr inbounds %"class.grpc_core::XdsClient::ChannelState::AdsCallState", ptr %1, i64 0, i32 7, i32 0, i32 0, i32 1, i32 0, i32 2
  %2 = load ptr, ptr %_M_left.i.i.i, align 8
  %add.ptr.i.i.i = getelementptr inbounds %"class.grpc_core::XdsClient::ChannelState::AdsCallState", ptr %1, i64 0, i32 7, i32 0, i32 0, i32 1
  %cmp.i4.not.i = icmp eq ptr %2, %add.ptr.i.i.i
  br i1 %cmp.i4.not.i, label %if.then7, label %for.body.i

for.body.i:                                       ; preds = %if.then5, %for.inc.i
  %__begin1.sroa.0.05.i = phi ptr [ %call.i.i, %for.inc.i ], [ %2, %if.then5 ]
  %_M_node_count.i.i.i = getelementptr inbounds %"struct.std::_Rb_tree_node.411", ptr %__begin1.sroa.0.05.i, i64 0, i32 1, i32 0, i64 88
  %3 = load i64, ptr %_M_node_count.i.i.i, align 8
  %cmp.i.i.not.i = icmp eq i64 %3, 0
  br i1 %cmp.i.i.not.i, label %for.inc.i, label %if.end10

for.inc.i:                                        ; preds = %for.body.i
  %call.i.i = tail call noundef ptr @_ZSt18_Rb_tree_incrementPKSt18_Rb_tree_node_base(ptr noundef nonnull %__begin1.sroa.0.05.i) #29
  %cmp.i.not.i = icmp eq ptr %call.i.i, %add.ptr.i.i.i
  br i1 %cmp.i.not.i, label %if.then7, label %for.body.i

if.then7:                                         ; preds = %for.inc.i, %if.then5
  %4 = load ptr, ptr %ads_calld_, align 8
  store ptr null, ptr %ads_calld_, align 8
  %tobool.not.i.i = icmp eq ptr %4, null
  br i1 %tobool.not.i.i, label %if.end10, label %if.then.i.i

if.then.i.i:                                      ; preds = %if.then7
  %vtable.i.i.i = load ptr, ptr %4, align 8
  %5 = load ptr, ptr %vtable.i.i.i, align 8
  invoke void %5(ptr noundef nonnull align 8 dereferenceable(393) %4)
          to label %if.end10 unwind label %terminate.lpad.i.i

terminate.lpad.i.i:                               ; preds = %if.then.i.i
  %6 = landingpad { ptr, i32 }
          catch ptr null
  %7 = extractvalue { ptr, i32 } %6, 0
  tail call void @__clang_call_terminate(ptr %7) #27
  unreachable

if.end10:                                         ; preds = %for.body.i, %if.then.i.i, %if.then7, %if.then, %entry
  ret void
}

; Function Attrs: mustprogress uwtable
define void @_ZN9grpc_core9XdsClient12ChannelState12AdsCallState17UnsubscribeLockedEPKNS_15XdsResourceTypeERKNS0_15XdsResourceNameEb(ptr noundef nonnull align 8 dereferenceable(144) %this, ptr noundef %type, ptr noundef nonnull align 8 dereferenceable(88) %name, i1 noundef zeroext %delay_unsubscription) local_unnamed_addr #3 align 2 personality ptr @__gxx_personality_v0 {
entry:
  %ref.tmp9.i = alloca %"class.std::tuple.498", align 8
  %ref.tmp10.i = alloca %"class.std::tuple.479", align 1
  %type.addr = alloca ptr, align 8
  store ptr %type, ptr %type.addr, align 8
  %state_map_ = getelementptr inbounds %"class.grpc_core::XdsClient::ChannelState::AdsCallState", ptr %this, i64 0, i32 7
  call void @llvm.lifetime.start.p0(i64 8, ptr nonnull %ref.tmp9.i)
  call void @llvm.lifetime.start.p0(i64 1, ptr nonnull %ref.tmp10.i)
  %_M_parent.i.i.i.i.i = getelementptr inbounds %"class.grpc_core::XdsClient::ChannelState::AdsCallState", ptr %this, i64 0, i32 7, i32 0, i32 0, i32 1, i32 0, i32 1
  %0 = load ptr, ptr %_M_parent.i.i.i.i.i, align 8
  %add.ptr.i.i.i.i = getelementptr inbounds %"class.grpc_core::XdsClient::ChannelState::AdsCallState", ptr %this, i64 0, i32 7, i32 0, i32 0, i32 1
  %cmp.not5.i.i.i.i = icmp eq ptr %0, null
  br i1 %cmp.not5.i.i.i.i, label %if.then.i, label %while.body.i.i.i.i

while.body.i.i.i.i:                               ; preds = %entry, %while.body.i.i.i.i
  %__x.addr.07.i.i.i.i = phi ptr [ %__x.addr.1.i.i.i.i, %while.body.i.i.i.i ], [ %0, %entry ]
  %__y.addr.06.i.i.i.i = phi ptr [ %__y.addr.1.i.i.i.i, %while.body.i.i.i.i ], [ %add.ptr.i.i.i.i, %entry ]
  %_M_storage.i.i.i.i.i.i = getelementptr inbounds %"struct.std::_Rb_tree_node.411", ptr %__x.addr.07.i.i.i.i, i64 0, i32 1
  %1 = load ptr, ptr %_M_storage.i.i.i.i.i.i, align 8
  %cmp.i.i.i.i.i = icmp ult ptr %1, %type
  %_M_right.i.i.i.i.i = getelementptr inbounds %"struct.std::_Rb_tree_node_base", ptr %__x.addr.07.i.i.i.i, i64 0, i32 3
  %_M_left.i.i.i.i.i = getelementptr inbounds %"struct.std::_Rb_tree_node_base", ptr %__x.addr.07.i.i.i.i, i64 0, i32 2
  %__y.addr.1.i.i.i.i = select i1 %cmp.i.i.i.i.i, ptr %__y.addr.06.i.i.i.i, ptr %__x.addr.07.i.i.i.i
  %__x.addr.1.in.i.i.i.i = select i1 %cmp.i.i.i.i.i, ptr %_M_right.i.i.i.i.i, ptr %_M_left.i.i.i.i.i
  %__x.addr.1.i.i.i.i = load ptr, ptr %__x.addr.1.in.i.i.i.i, align 8
  %cmp.not.i.i.i.i = icmp eq ptr %__x.addr.1.i.i.i.i, null
  br i1 %cmp.not.i.i.i.i, label %_ZNSt3mapIPKN9grpc_core15XdsResourceTypeENS0_9XdsClient12ChannelState12AdsCallState17ResourceTypeStateESt4lessIS3_ESaISt4pairIKS3_S7_EEE11lower_boundERSB_.exit.i, label %while.body.i.i.i.i, !llvm.loop !15

_ZNSt3mapIPKN9grpc_core15XdsResourceTypeENS0_9XdsClient12ChannelState12AdsCallState17ResourceTypeStateESt4lessIS3_ESaISt4pairIKS3_S7_EEE11lower_boundERSB_.exit.i: ; preds = %while.body.i.i.i.i
  %cmp.i.i = icmp eq ptr %__y.addr.1.i.i.i.i, %add.ptr.i.i.i.i
  br i1 %cmp.i.i, label %if.then.i, label %lor.rhs.i

lor.rhs.i:                                        ; preds = %_ZNSt3mapIPKN9grpc_core15XdsResourceTypeENS0_9XdsClient12ChannelState12AdsCallState17ResourceTypeStateESt4lessIS3_ESaISt4pairIKS3_S7_EEE11lower_boundERSB_.exit.i
  %_M_storage.i.i.i = getelementptr inbounds %"struct.std::_Rb_tree_node.411", ptr %__y.addr.1.i.i.i.i, i64 0, i32 1
  %2 = load ptr, ptr %_M_storage.i.i.i, align 8
  %cmp.i3.i = icmp ugt ptr %2, %type
  br i1 %cmp.i3.i, label %if.then.i, label %_ZNSt3mapIPKN9grpc_core15XdsResourceTypeENS0_9XdsClient12ChannelState12AdsCallState17ResourceTypeStateESt4lessIS3_ESaISt4pairIKS3_S7_EEEixERSB_.exit

if.then.i:                                        ; preds = %lor.rhs.i, %_ZNSt3mapIPKN9grpc_core15XdsResourceTypeENS0_9XdsClient12ChannelState12AdsCallState17ResourceTypeStateESt4lessIS3_ESaISt4pairIKS3_S7_EEE11lower_boundERSB_.exit.i, %entry
  %__y.addr.0.lcssa.i.i.i10.i = phi ptr [ %add.ptr.i.i.i.i, %_ZNSt3mapIPKN9grpc_core15XdsResourceTypeENS0_9XdsClient12ChannelState12AdsCallState17ResourceTypeStateESt4lessIS3_ESaISt4pairIKS3_S7_EEE11lower_boundERSB_.exit.i ], [ %__y.addr.1.i.i.i.i, %lor.rhs.i ], [ %add.ptr.i.i.i.i, %entry ]
  store ptr %type.addr, ptr %ref.tmp9.i, align 8
  %call12.i = call ptr @_ZNSt8_Rb_treeIPKN9grpc_core15XdsResourceTypeESt4pairIKS3_NS0_9XdsClient12ChannelState12AdsCallState17ResourceTypeStateEESt10_Select1stISA_ESt4lessIS3_ESaISA_EE22_M_emplace_hint_uniqueIJRKSt21piecewise_construct_tSt5tupleIJRS5_EESL_IJEEEEESt17_Rb_tree_iteratorISA_ESt23_Rb_tree_const_iteratorISA_EDpOT_(ptr noundef nonnull align 8 dereferenceable(48) %state_map_, ptr %__y.addr.0.lcssa.i.i.i10.i, ptr noundef nonnull align 1 dereferenceable(1) @_ZSt19piecewise_construct, ptr noundef nonnull align 8 dereferenceable(8) %ref.tmp9.i, ptr noundef nonnull align 1 dereferenceable(1) %ref.tmp10.i)
  br label %_ZNSt3mapIPKN9grpc_core15XdsResourceTypeENS0_9XdsClient12ChannelState12AdsCallState17ResourceTypeStateESt4lessIS3_ESaISt4pairIKS3_S7_EEEixERSB_.exit

_ZNSt3mapIPKN9grpc_core15XdsResourceTypeENS0_9XdsClient12ChannelState12AdsCallState17ResourceTypeStateESt4lessIS3_ESaISt4pairIKS3_S7_EEEixERSB_.exit: ; preds = %lor.rhs.i, %if.then.i
  %__i.sroa.0.0.i = phi ptr [ %call12.i, %if.then.i ], [ %__y.addr.1.i.i.i.i, %lor.rhs.i ]
  call void @llvm.lifetime.end.p0(i64 8, ptr nonnull %ref.tmp9.i)
  call void @llvm.lifetime.end.p0(i64 1, ptr nonnull %ref.tmp10.i)
  %subscribed_resources = getelementptr inbounds %"struct.std::_Rb_tree_node.411", ptr %__i.sroa.0.0.i, i64 0, i32 1, i32 0, i64 48
  %call2 = call noundef nonnull align 8 dereferenceable(48) ptr @_ZNSt3mapINSt7__cxx1112basic_stringIcSt11char_traitsIcESaIcEEES_IN9grpc_core9XdsClient14XdsResourceKeyESt10unique_ptrINS7_12ChannelState12AdsCallState13ResourceTimerENS6_16OrphanableDeleteEESt4lessIS8_ESaISt4pairIKS8_SE_EEESF_IS5_ESaISH_IKS5_SL_EEEixERSN_(ptr noundef nonnull align 8 dereferenceable(48) %subscribed_resources, ptr noundef nonnull align 8 dereferenceable(32) %name)
  %key = getelementptr inbounds %"struct.grpc_core::XdsClient::XdsResourceName", ptr %name, i64 0, i32 1
  %call.i = call noundef i64 @_ZNSt8_Rb_treeIN9grpc_core9XdsClient14XdsResourceKeyESt4pairIKS2_St10unique_ptrINS1_12ChannelState12AdsCallState13ResourceTimerENS0_16OrphanableDeleteEEESt10_Select1stISB_ESt4lessIS2_ESaISB_EE5eraseERS4_(ptr noundef nonnull align 8 dereferenceable(48) %call2, ptr noundef nonnull align 8 dereferenceable(56) %key)
  %_M_node_count.i.i = getelementptr inbounds i8, ptr %call2, i64 40
  %3 = load i64, ptr %_M_node_count.i.i, align 8
  %cmp.i.i5 = icmp eq i64 %3, 0
  br i1 %cmp.i.i5, label %if.then, label %if.end

if.then:                                          ; preds = %_ZNSt3mapIPKN9grpc_core15XdsResourceTypeENS0_9XdsClient12ChannelState12AdsCallState17ResourceTypeStateESt4lessIS3_ESaISt4pairIKS3_S7_EEEixERSB_.exit
  %call.i.i = call { ptr, ptr } @_ZNSt8_Rb_treeINSt7__cxx1112basic_stringIcSt11char_traitsIcESaIcEEESt4pairIKS5_St3mapIN9grpc_core9XdsClient14XdsResourceKeyESt10unique_ptrINSA_12ChannelState12AdsCallState13ResourceTimerENS9_16OrphanableDeleteEESt4lessISB_ESaIS6_IKSB_SH_EEEESt10_Select1stISO_ESI_IS5_ESaISO_EE11equal_rangeERS7_(ptr noundef nonnull align 8 dereferenceable(48) %subscribed_resources, ptr noundef nonnull align 8 dereferenceable(32) %name)
  %4 = extractvalue { ptr, ptr } %call.i.i, 0
  %5 = extractvalue { ptr, ptr } %call.i.i, 1
  call void @_ZNSt8_Rb_treeINSt7__cxx1112basic_stringIcSt11char_traitsIcESaIcEEESt4pairIKS5_St3mapIN9grpc_core9XdsClient14XdsResourceKeyESt10unique_ptrINSA_12ChannelState12AdsCallState13ResourceTimerENS9_16OrphanableDeleteEESt4lessISB_ESaIS6_IKSB_SH_EEEESt10_Select1stISO_ESI_IS5_ESaISO_EE12_M_erase_auxESt23_Rb_tree_const_iteratorISO_ESV_(ptr noundef nonnull align 8 dereferenceable(48) %subscribed_resources, ptr %4, ptr %5)
  br label %if.end

if.end:                                           ; preds = %if.then, %_ZNSt3mapIPKN9grpc_core15XdsResourceTypeENS0_9XdsClient12ChannelState12AdsCallState17ResourceTypeStateESt4lessIS3_ESaISt4pairIKS3_S7_EEEixERSB_.exit
  %_M_left.i.i.i = getelementptr inbounds %"class.grpc_core::XdsClient::ChannelState::AdsCallState", ptr %this, i64 0, i32 7, i32 0, i32 0, i32 1, i32 0, i32 2
  %6 = load ptr, ptr %_M_left.i.i.i, align 8
  %cmp.i4.not.i = icmp eq ptr %6, %add.ptr.i.i.i.i
  %or.cond = select i1 %delay_unsubscription, i1 true, i1 %cmp.i4.not.i
  br i1 %or.cond, label %if.end10, label %for.body.i

for.body.i:                                       ; preds = %if.end, %for.inc.i
  %__begin1.sroa.0.05.i = phi ptr [ %call.i.i7, %for.inc.i ], [ %6, %if.end ]
  %_M_node_count.i.i.i6 = getelementptr inbounds %"struct.std::_Rb_tree_node.411", ptr %__begin1.sroa.0.05.i, i64 0, i32 1, i32 0, i64 88
  %7 = load i64, ptr %_M_node_count.i.i.i6, align 8
  %cmp.i.i.not.i = icmp eq i64 %7, 0
  br i1 %cmp.i.i.not.i, label %for.inc.i, label %if.then9

for.inc.i:                                        ; preds = %for.body.i
  %call.i.i7 = call noundef ptr @_ZSt18_Rb_tree_incrementPKSt18_Rb_tree_node_base(ptr noundef nonnull %__begin1.sroa.0.05.i) #29
  %cmp.i.not.i = icmp eq ptr %call.i.i7, %add.ptr.i.i.i.i
  br i1 %cmp.i.not.i, label %if.end10, label %for.body.i

if.then9:                                         ; preds = %for.body.i
  %8 = load ptr, ptr %type.addr, align 8
  call void @_ZN9grpc_core9XdsClient12ChannelState12AdsCallState17SendMessageLockedEPKNS_15XdsResourceTypeE(ptr noundef nonnull align 8 dereferenceable(144) %this, ptr noundef %8)
  br label %if.end10

if.end10:                                         ; preds = %for.inc.i, %if.then9, %if.end
  ret void
}

; Function Attrs: mustprogress nofree nounwind willreturn memory(read) uwtable
define noundef zeroext i1 @_ZNK9grpc_core9XdsClient12ChannelState12AdsCallState22HasSubscribedResourcesEv(ptr noundef nonnull readonly align 8 dereferenceable(144) %this) local_unnamed_addr #10 align 2 {
entry:
  %_M_left.i.i = getelementptr inbounds %"class.grpc_core::XdsClient::ChannelState::AdsCallState", ptr %this, i64 0, i32 7, i32 0, i32 0, i32 1, i32 0, i32 2
  %0 = load ptr, ptr %_M_left.i.i, align 8
  %add.ptr.i.i = getelementptr inbounds %"class.grpc_core::XdsClient::ChannelState::AdsCallState", ptr %this, i64 0, i32 7, i32 0, i32 0, i32 1
  %cmp.i4.not = icmp eq ptr %0, %add.ptr.i.i
  br i1 %cmp.i4.not, label %return, label %for.body

for.body:                                         ; preds = %entry, %for.inc
  %__begin1.sroa.0.05 = phi ptr [ %call.i, %for.inc ], [ %0, %entry ]
  %_M_node_count.i.i = getelementptr inbounds %"struct.std::_Rb_tree_node.411", ptr %__begin1.sroa.0.05, i64 0, i32 1, i32 0, i64 88
  %1 = load i64, ptr %_M_node_count.i.i, align 8
  %cmp.i.i.not = icmp ne i64 %1, 0
  br i1 %cmp.i.i.not, label %return, label %for.inc

for.inc:                                          ; preds = %for.body
  %call.i = tail call noundef ptr @_ZSt18_Rb_tree_incrementPKSt18_Rb_tree_node_base(ptr noundef nonnull %__begin1.sroa.0.05) #29
  %cmp.i.not = icmp eq ptr %call.i, %add.ptr.i.i
  br i1 %cmp.i.not, label %return, label %for.body

return:                                           ; preds = %for.body, %for.inc, %entry
  %cmp.i.lcssa = phi i1 [ false, %entry ], [ %cmp.i.i.not, %for.inc ], [ %cmp.i.i.not, %for.body ]
  ret i1 %cmp.i.lcssa
}

; Function Attrs: mustprogress uwtable
define void @_ZN9grpc_core9XdsClient12ChannelState21OnConnectivityFailureEN4absl12lts_202308026StatusE(ptr noundef nonnull align 8 dereferenceable(120) %this, ptr nocapture noundef %status) local_unnamed_addr #3 align 2 personality ptr @__gxx_personality_v0 {
entry:
  %agg.tmp = alloca %"class.absl::lts_20230802::Status", align 8
  %xds_client_ = getelementptr inbounds %"class.grpc_core::XdsClient::ChannelState", ptr %this, i64 0, i32 1
  %0 = load ptr, ptr %xds_client_, align 8
  %mu_ = getelementptr inbounds %"class.grpc_core::XdsClient", ptr %0, i64 0, i32 9
  tail call void @_ZN4absl12lts_202308025Mutex4LockEv(ptr noundef nonnull align 8 dereferenceable(8) %mu_)
  %1 = load i64, ptr %status, align 8
  store i64 %1, ptr %agg.tmp, align 8
  store i64 54, ptr %status, align 8
  invoke void @_ZN9grpc_core9XdsClient12ChannelState22SetChannelStatusLockedEN4absl12lts_202308026StatusE(ptr noundef nonnull align 8 dereferenceable(120) %this, ptr noundef nonnull %agg.tmp)
          to label %invoke.cont unwind label %lpad

invoke.cont:                                      ; preds = %entry
  %2 = load i64, ptr %agg.tmp, align 8
  %and.i.i.i = and i64 %2, 1
  %cmp.i.i.i = icmp eq i64 %and.i.i.i, 0
  br i1 %cmp.i.i.i, label %_ZN4absl12lts_202308026StatusD2Ev.exit, label %if.then.i.i

if.then.i.i:                                      ; preds = %invoke.cont
  invoke void @_ZN4absl12lts_202308026Status15UnrefNonInlinedEm(i64 noundef %2)
          to label %_ZN4absl12lts_202308026StatusD2Ev.exit unwind label %terminate.lpad.i

terminate.lpad.i:                                 ; preds = %if.then.i.i
  %3 = landingpad { ptr, i32 }
          catch ptr null
  %4 = extractvalue { ptr, i32 } %3, 0
  call void @__clang_call_terminate(ptr %4) #27
  unreachable

_ZN4absl12lts_202308026StatusD2Ev.exit:           ; preds = %invoke.cont, %if.then.i.i
  invoke void @_ZN4absl12lts_202308025Mutex6UnlockEv(ptr noundef nonnull align 8 dereferenceable(8) %mu_)
          to label %_ZN4absl12lts_202308029MutexLockD2Ev.exit unwind label %terminate.lpad.i1

terminate.lpad.i1:                                ; preds = %_ZN4absl12lts_202308026StatusD2Ev.exit
  %5 = landingpad { ptr, i32 }
          catch ptr null
  %6 = extractvalue { ptr, i32 } %5, 0
  call void @__clang_call_terminate(ptr %6) #27
  unreachable

_ZN4absl12lts_202308029MutexLockD2Ev.exit:        ; preds = %_ZN4absl12lts_202308026StatusD2Ev.exit
  %7 = load ptr, ptr %xds_client_, align 8
  %work_serializer_ = getelementptr inbounds %"class.grpc_core::XdsClient", ptr %7, i64 0, i32 7
  call void @_ZN9grpc_core14WorkSerializer10DrainQueueEv(ptr noundef nonnull align 8 dereferenceable(8) %work_serializer_)
  ret void

lpad:                                             ; preds = %entry
  %8 = landingpad { ptr, i32 }
          cleanup
  call void @_ZN4absl12lts_202308026StatusD2Ev(ptr noundef nonnull align 8 dereferenceable(8) %agg.tmp) #25
  invoke void @_ZN4absl12lts_202308025Mutex6UnlockEv(ptr noundef nonnull align 8 dereferenceable(8) %mu_)
          to label %_ZN4absl12lts_202308029MutexLockD2Ev.exit3 unwind label %terminate.lpad.i2

terminate.lpad.i2:                                ; preds = %lpad
  %9 = landingpad { ptr, i32 }
          catch ptr null
  %10 = extractvalue { ptr, i32 } %9, 0
  call void @__clang_call_terminate(ptr %10) #27
  unreachable

_ZN4absl12lts_202308029MutexLockD2Ev.exit3:       ; preds = %lpad
  resume { ptr, i32 } %8
}

declare void @_ZN9grpc_core14WorkSerializer10DrainQueueEv(ptr noundef nonnull align 8 dereferenceable(8)) local_unnamed_addr #0

declare noundef i32 @_ZNK4absl12lts_202308026Status4codeEv(ptr noundef nonnull align 8 dereferenceable(8)) local_unnamed_addr #0

declare void @_ZN4absl12lts_202308026StrCatB5cxx11ERKNS0_8AlphaNumES3_S3_S3_(ptr sret(%"class.std::__cxx11::basic_string") align 8, ptr noundef nonnull align 8 dereferenceable(48), ptr noundef nonnull align 8 dereferenceable(48), ptr noundef nonnull align 8 dereferenceable(48), ptr noundef nonnull align 8 dereferenceable(48)) local_unnamed_addr #0

; Function Attrs: nounwind
declare { i64, ptr } @_ZNKSt7__cxx1112basic_stringIcSt11char_traitsIcESaIcEEcvSt17basic_string_viewIcS2_EEv(ptr noundef nonnull align 8 dereferenceable(32)) local_unnamed_addr #1

declare void @_ZN4absl12lts_202308026StatusC1ENS0_10StatusCodeESt17basic_string_viewIcSt11char_traitsIcEE(ptr noundef nonnull align 8 dereferenceable(8), i32 noundef, i64, ptr) unnamed_addr #0

; Function Attrs: nounwind
declare void @_ZNSt7__cxx1112basic_stringIcSt11char_traitsIcESaIcEED1Ev(ptr noundef nonnull align 8 dereferenceable(32)) unnamed_addr #1

; Function Attrs: mustprogress uwtable
define linkonce_odr void @_ZNK4absl12lts_202308026Status8ToStringB5cxx11ENS0_18StatusToStringModeE(ptr noalias sret(%"class.std::__cxx11::basic_string") align 8 %agg.result, ptr noundef nonnull align 8 dereferenceable(8) %this, i32 noundef %mode) local_unnamed_addr #3 comdat align 2 personality ptr @__gxx_personality_v0 {
entry:
  %ref.tmp = alloca %"class.std::allocator.16", align 1
  %0 = load i64, ptr %this, align 8
  %cmp.i = icmp eq i64 %0, 0
  br i1 %cmp.i, label %cond.true, label %cond.false

cond.true:                                        ; preds = %entry
  call void @_ZNSaIcEC1Ev(ptr noundef nonnull align 1 dereferenceable(1) %ref.tmp) #25
  %call.i1 = invoke noundef ptr @_ZNSt7__cxx1112basic_stringIcSt11char_traitsIcESaIcEE13_M_local_dataEv(ptr noundef nonnull align 8 dereferenceable(32) %agg.result)
          to label %call.i.noexc unwind label %lpad.body.thread5

call.i.noexc:                                     ; preds = %cond.true
  invoke void @_ZNSt7__cxx1112basic_stringIcSt11char_traitsIcESaIcEE12_Alloc_hiderC1EPcRKS3_(ptr noundef nonnull align 8 dereferenceable(8) %agg.result, ptr noundef %call.i1, ptr noundef nonnull align 1 dereferenceable(1) %ref.tmp)
          to label %.noexc unwind label %lpad.body.thread5

.noexc:                                           ; preds = %call.i.noexc
  invoke void @_ZNSt7__cxx1112basic_stringIcSt11char_traitsIcESaIcEE12_M_constructIPKcEEvT_S8_St20forward_iterator_tag(ptr noundef nonnull align 8 dereferenceable(32) %agg.result, ptr noundef nonnull @.str.87, ptr noundef nonnull getelementptr inbounds ([3 x i8], ptr @.str.87, i64 0, i64 2))
          to label %cleanup.action unwind label %lpad.body.thread

lpad.body.thread:                                 ; preds = %.noexc
  %1 = landingpad { ptr, i32 }
          cleanup
  call void @_ZNSaIcED2Ev(ptr noundef nonnull align 1 dereferenceable(1) %agg.result) #25
  br label %cleanup.action4

cond.false:                                       ; preds = %entry
  tail call void @_ZNK4absl12lts_202308026Status12ToStringSlowB5cxx11ENS0_18StatusToStringModeE(ptr sret(%"class.std::__cxx11::basic_string") align 8 %agg.result, ptr noundef nonnull align 8 dereferenceable(8) %this, i32 noundef %mode)
  br label %cleanup.done

cleanup.action:                                   ; preds = %.noexc
  call void @_ZNSaIcED1Ev(ptr noundef nonnull align 1 dereferenceable(1) %ref.tmp) #25
  br label %cleanup.done

cleanup.done:                                     ; preds = %cond.false, %cleanup.action
  ret void

lpad.body.thread5:                                ; preds = %cond.true, %call.i.noexc
  %lpad.thr_comm = landingpad { ptr, i32 }
          cleanup
  br label %cleanup.action4

cleanup.action4:                                  ; preds = %lpad.body.thread5, %lpad.body.thread
  %eh.lpad-body4 = phi { ptr, i32 } [ %1, %lpad.body.thread ], [ %lpad.thr_comm, %lpad.body.thread5 ]
  call void @_ZNSaIcED1Ev(ptr noundef nonnull align 1 dereferenceable(1) %ref.tmp) #25
  resume { ptr, i32 } %eh.lpad-body4
}

declare void @_ZN9grpc_core14WorkSerializer8ScheduleESt8functionIFvvEERKNS_13DebugLocationE(ptr noundef nonnull align 8 dereferenceable(8), ptr noundef, ptr noundef nonnull align 1 dereferenceable(1)) local_unnamed_addr #0

; Function Attrs: mustprogress nounwind uwtable
define internal fastcc void @"_ZZN9grpc_core9XdsClient12ChannelState22SetChannelStatusLockedEN4absl12lts_202308026StatusEEN3$_0D2Ev"(ptr noundef nonnull align 8 dereferenceable(56) %this) unnamed_addr #4 align 2 personality ptr @__gxx_personality_v0 {
entry:
  %0 = getelementptr inbounds %class.anon.163, ptr %this, i64 0, i32 1
  %1 = load i64, ptr %0, align 8
  %and.i.i.i = and i64 %1, 1
  %cmp.i.i.i = icmp eq i64 %and.i.i.i, 0
  br i1 %cmp.i.i.i, label %_ZN4absl12lts_202308026StatusD2Ev.exit, label %if.then.i.i

if.then.i.i:                                      ; preds = %entry
  invoke void @_ZN4absl12lts_202308026Status15UnrefNonInlinedEm(i64 noundef %1)
          to label %_ZN4absl12lts_202308026StatusD2Ev.exit unwind label %terminate.lpad.i

terminate.lpad.i:                                 ; preds = %if.then.i.i
  %2 = landingpad { ptr, i32 }
          catch ptr null
  %3 = extractvalue { ptr, i32 } %2, 0
  tail call void @__clang_call_terminate(ptr %3) #27
  unreachable

_ZN4absl12lts_202308026StatusD2Ev.exit:           ; preds = %entry, %if.then.i.i
  %_M_parent.i.i.i.i = getelementptr inbounds i8, ptr %this, i64 16
  %4 = load ptr, ptr %_M_parent.i.i.i.i, align 8
  invoke void @_ZNSt8_Rb_treeIN9grpc_core13RefCountedPtrINS0_9XdsClient24ResourceWatcherInterfaceEEES4_St9_IdentityIS4_ESt4lessIS4_ESaIS4_EE8_M_eraseEPSt13_Rb_tree_nodeIS4_E(ptr noundef nonnull align 8 dereferenceable(48) %this, ptr noundef %4)
          to label %_ZNSt3setIN9grpc_core13RefCountedPtrINS0_9XdsClient24ResourceWatcherInterfaceEEESt4lessIS4_ESaIS4_EED2Ev.exit unwind label %terminate.lpad.i.i

terminate.lpad.i.i:                               ; preds = %_ZN4absl12lts_202308026StatusD2Ev.exit
  %5 = landingpad { ptr, i32 }
          catch ptr null
  %6 = extractvalue { ptr, i32 } %5, 0
  tail call void @__clang_call_terminate(ptr %6) #27
  unreachable

_ZNSt3setIN9grpc_core13RefCountedPtrINS0_9XdsClient24ResourceWatcherInterfaceEEESt4lessIS4_ESaIS4_EED2Ev.exit: ; preds = %_ZN4absl12lts_202308026StatusD2Ev.exit
  ret void
}

; Function Attrs: mustprogress uwtable
define void @_ZN9grpc_core9XdsClient12ChannelState12AdsCallState17AdsResponseParser24ProcessAdsResponseFieldsENS_6XdsApi26AdsResponseParserInterface17AdsResponseFieldsE(ptr noalias sret(%"class.absl::lts_20230802::Status") align 8 %agg.result, ptr noundef nonnull align 8 dereferenceable(208) %this, ptr noundef %fields) unnamed_addr #3 align 2 personality ptr @__gxx_personality_v0 {
entry:
  %ref.tmp = alloca %"class.std::__cxx11::basic_string", align 8
  %ref.tmp19 = alloca %"class.absl::lts_20230802::AlphaNum", align 8
  %ref.tmp20 = alloca %"class.absl::lts_20230802::AlphaNum", align 8
  %0 = load atomic i8, ptr getelementptr inbounds (%"class.grpc_core::TraceFlag", ptr @_ZN9grpc_core21grpc_xds_client_traceE, i64 0, i32 2) monotonic, align 8
  %1 = and i8 %0, 1
  %tobool.i.i.i.not = icmp eq i8 %1, 0
  br i1 %tobool.i.i.i.not, label %if.end, label %if.then

if.then:                                          ; preds = %entry
  %ads_call_state_ = getelementptr inbounds %"class.grpc_core::XdsClient::ChannelState::AdsCallState::AdsResponseParser", ptr %this, i64 0, i32 1
  %2 = load ptr, ptr %ads_call_state_, align 8
  %parent_.i.i = getelementptr inbounds %"class.grpc_core::XdsClient::ChannelState::AdsCallState", ptr %2, i64 0, i32 1
  %3 = load ptr, ptr %parent_.i.i, align 8
  %chand_.i.i.i = getelementptr inbounds %"class.grpc_core::XdsClient::ChannelState::RetryableCall", ptr %3, i64 0, i32 2
  %4 = load ptr, ptr %chand_.i.i.i, align 8
  %xds_client_.i.i = getelementptr inbounds %"class.grpc_core::XdsClient::ChannelState", ptr %4, i64 0, i32 1
  %5 = load ptr, ptr %xds_client_.i.i, align 8
  %server_ = getelementptr inbounds %"class.grpc_core::XdsClient::ChannelState", ptr %4, i64 0, i32 2
  %6 = load ptr, ptr %server_, align 8
  %vtable = load ptr, ptr %6, align 8
  %vfn = getelementptr inbounds ptr, ptr %vtable, i64 2
  %7 = load ptr, ptr %vfn, align 8
  %call5 = tail call noundef nonnull align 8 dereferenceable(32) ptr %7(ptr noundef nonnull align 8 dereferenceable(8) %6)
  %call6 = tail call noundef ptr @_ZNKSt7__cxx1112basic_stringIcSt11char_traitsIcESaIcEE5c_strEv(ptr noundef nonnull align 8 dereferenceable(32) %call5) #25
  %call7 = tail call noundef ptr @_ZNKSt7__cxx1112basic_stringIcSt11char_traitsIcESaIcEE5c_strEv(ptr noundef nonnull align 8 dereferenceable(32) %fields) #25
  %version = getelementptr inbounds %"struct.grpc_core::XdsApi::AdsResponseParserInterface::AdsResponseFields", ptr %fields, i64 0, i32 1
  %call8 = tail call noundef ptr @_ZNKSt7__cxx1112basic_stringIcSt11char_traitsIcESaIcEE5c_strEv(ptr noundef nonnull align 8 dereferenceable(32) %version) #25
  %nonce = getelementptr inbounds %"struct.grpc_core::XdsApi::AdsResponseParserInterface::AdsResponseFields", ptr %fields, i64 0, i32 2
  %call9 = tail call noundef ptr @_ZNKSt7__cxx1112basic_stringIcSt11char_traitsIcESaIcEE5c_strEv(ptr noundef nonnull align 8 dereferenceable(32) %nonce) #25
  %num_resources = getelementptr inbounds %"struct.grpc_core::XdsApi::AdsResponseParserInterface::AdsResponseFields", ptr %fields, i64 0, i32 3
  %8 = load i64, ptr %num_resources, align 8
  tail call void (ptr, i32, i32, ptr, ...) @gpr_log(ptr noundef nonnull @.str.5, i32 noundef 697, i32 noundef 1, ptr noundef nonnull @.str.18, ptr noundef %5, ptr noundef %call6, ptr noundef %call7, ptr noundef %call8, ptr noundef %call9, i64 noundef %8)
  br label %if.end

if.end:                                           ; preds = %if.then, %entry
  %ads_call_state_10 = getelementptr inbounds %"class.grpc_core::XdsClient::ChannelState::AdsCallState::AdsResponseParser", ptr %this, i64 0, i32 1
  %9 = load ptr, ptr %ads_call_state_10, align 8
  %parent_.i.i1 = getelementptr inbounds %"class.grpc_core::XdsClient::ChannelState::AdsCallState", ptr %9, i64 0, i32 1
  %10 = load ptr, ptr %parent_.i.i1, align 8
  %chand_.i.i.i2 = getelementptr inbounds %"class.grpc_core::XdsClient::ChannelState::RetryableCall", ptr %10, i64 0, i32 2
  %11 = load ptr, ptr %chand_.i.i.i2, align 8
  %xds_client_.i.i3 = getelementptr inbounds %"class.grpc_core::XdsClient::ChannelState", ptr %11, i64 0, i32 1
  %12 = load ptr, ptr %xds_client_.i.i3, align 8
  %call13 = tail call { i64, ptr } @_ZNKSt7__cxx1112basic_stringIcSt11char_traitsIcESaIcEEcvSt17basic_string_viewIcS2_EEv(ptr noundef nonnull align 8 dereferenceable(32) %fields) #25
  %13 = extractvalue { i64, ptr } %call13, 0
  %14 = extractvalue { i64, ptr } %call13, 1
  %_M_parent.i.i.i.i.i = getelementptr inbounds %"class.grpc_core::XdsClient", ptr %12, i64 0, i32 10, i32 0, i32 0, i32 1, i32 0, i32 1
  %15 = load ptr, ptr %_M_parent.i.i.i.i.i, align 8
  %add.ptr.i.i.i.i = getelementptr inbounds %"class.grpc_core::XdsClient", ptr %12, i64 0, i32 10, i32 0, i32 0, i32 1
  %cmp.not5.i.i.i.i = icmp eq ptr %15, null
  br i1 %cmp.not5.i.i.i.i, label %_ZN9grpc_core9XdsClient21GetResourceTypeLockedESt17basic_string_viewIcSt11char_traitsIcEE.exit.thread, label %while.body.i.i.i.i

while.body.i.i.i.i:                               ; preds = %if.end, %_ZNKSt4lessISt17basic_string_viewIcSt11char_traitsIcEEEclERKS3_S6_.exit.i.i.i.i
  %__x.addr.07.i.i.i.i = phi ptr [ %__x.addr.1.i.i.i.i, %_ZNKSt4lessISt17basic_string_viewIcSt11char_traitsIcEEEclERKS3_S6_.exit.i.i.i.i ], [ %15, %if.end ]
  %__y.addr.06.i.i.i.i = phi ptr [ %__y.addr.1.i.i.i.i, %_ZNKSt4lessISt17basic_string_viewIcSt11char_traitsIcEEEclERKS3_S6_.exit.i.i.i.i ], [ %add.ptr.i.i.i.i, %if.end ]
  %_M_storage.i.i.i.i.i.i = getelementptr inbounds %"struct.std::_Rb_tree_node.465", ptr %__x.addr.07.i.i.i.i, i64 0, i32 1
  %agg.tmp.sroa.0.0.copyload.i.i.i.i.i = load i64, ptr %_M_storage.i.i.i.i.i.i, align 8
  %.sroa.speculated.i.i.i.i.i.i.i = tail call i64 @llvm.umin.i64(i64 %agg.tmp.sroa.0.0.copyload.i.i.i.i.i, i64 %13)
  %cmp.i2.i.i.i.i.i.i.i = icmp eq i64 %.sroa.speculated.i.i.i.i.i.i.i, 0
  br i1 %cmp.i2.i.i.i.i.i.i.i, label %if.then.i.i.i.i.i.i.i, label %_ZNSt11char_traitsIcE7compareEPKcS2_m.exit.i.i.i.i.i.i.i

_ZNSt11char_traitsIcE7compareEPKcS2_m.exit.i.i.i.i.i.i.i: ; preds = %while.body.i.i.i.i
  %agg.tmp.sroa.2.0..sroa_idx.i.i.i.i.i = getelementptr inbounds %"struct.std::_Rb_tree_node.465", ptr %__x.addr.07.i.i.i.i, i64 0, i32 1, i32 0, i64 8
  %agg.tmp.sroa.2.0.copyload.i.i.i.i.i = load ptr, ptr %agg.tmp.sroa.2.0..sroa_idx.i.i.i.i.i, align 8
  %call.i.i.i.i.i.i.i.i = tail call i32 @memcmp(ptr noundef %agg.tmp.sroa.2.0.copyload.i.i.i.i.i, ptr noundef %14, i64 noundef %.sroa.speculated.i.i.i.i.i.i.i) #25
  %cmp.i.i.i.i.i.i.i = icmp eq i32 %call.i.i.i.i.i.i.i.i, 0
  br i1 %cmp.i.i.i.i.i.i.i, label %if.then.i.i.i.i.i.i.i, label %_ZNKSt4lessISt17basic_string_viewIcSt11char_traitsIcEEEclERKS3_S6_.exit.i.i.i.i

if.then.i.i.i.i.i.i.i:                            ; preds = %_ZNSt11char_traitsIcE7compareEPKcS2_m.exit.i.i.i.i.i.i.i, %while.body.i.i.i.i
  %sub.i.i.i.i.i.i.i.i = sub i64 %agg.tmp.sroa.0.0.copyload.i.i.i.i.i, %13
  %spec.select3.i.i.i.i.i.i.i.i = tail call i64 @llvm.smax.i64(i64 %sub.i.i.i.i.i.i.i.i, i64 -2147483648)
  %retval.04.i.i.i.i.i.i.i.i = tail call i64 @llvm.smin.i64(i64 %spec.select3.i.i.i.i.i.i.i.i, i64 2147483647)
  %retval.0.i3.i.i.i.i.i.i.i = trunc i64 %retval.04.i.i.i.i.i.i.i.i to i32
  br label %_ZNKSt4lessISt17basic_string_viewIcSt11char_traitsIcEEEclERKS3_S6_.exit.i.i.i.i

_ZNKSt4lessISt17basic_string_viewIcSt11char_traitsIcEEEclERKS3_S6_.exit.i.i.i.i: ; preds = %if.then.i.i.i.i.i.i.i, %_ZNSt11char_traitsIcE7compareEPKcS2_m.exit.i.i.i.i.i.i.i
  %__ret.0.i.i.i.i.i.i.i = phi i32 [ %retval.0.i3.i.i.i.i.i.i.i, %if.then.i.i.i.i.i.i.i ], [ %call.i.i.i.i.i.i.i.i, %_ZNSt11char_traitsIcE7compareEPKcS2_m.exit.i.i.i.i.i.i.i ]
  %cmp.i.i.i.i.i.i = icmp slt i32 %__ret.0.i.i.i.i.i.i.i, 0
  %_M_right.i.i.i.i.i = getelementptr inbounds %"struct.std::_Rb_tree_node_base", ptr %__x.addr.07.i.i.i.i, i64 0, i32 3
  %_M_left.i.i.i.i.i = getelementptr inbounds %"struct.std::_Rb_tree_node_base", ptr %__x.addr.07.i.i.i.i, i64 0, i32 2
  %__y.addr.1.i.i.i.i = select i1 %cmp.i.i.i.i.i.i, ptr %__y.addr.06.i.i.i.i, ptr %__x.addr.07.i.i.i.i
  %__x.addr.1.in.i.i.i.i = select i1 %cmp.i.i.i.i.i.i, ptr %_M_right.i.i.i.i.i, ptr %_M_left.i.i.i.i.i
  %__x.addr.1.i.i.i.i = load ptr, ptr %__x.addr.1.in.i.i.i.i, align 8
  %cmp.not.i.i.i.i = icmp eq ptr %__x.addr.1.i.i.i.i, null
  br i1 %cmp.not.i.i.i.i, label %_ZNSt8_Rb_treeISt17basic_string_viewIcSt11char_traitsIcEESt4pairIKS3_PKN9grpc_core15XdsResourceTypeEESt10_Select1stISA_ESt4lessIS3_ESaISA_EE14_M_lower_boundEPSt13_Rb_tree_nodeISA_EPSt18_Rb_tree_node_baseRS5_.exit.i.i.i, label %while.body.i.i.i.i, !llvm.loop !19

_ZNSt8_Rb_treeISt17basic_string_viewIcSt11char_traitsIcEESt4pairIKS3_PKN9grpc_core15XdsResourceTypeEESt10_Select1stISA_ESt4lessIS3_ESaISA_EE14_M_lower_boundEPSt13_Rb_tree_nodeISA_EPSt18_Rb_tree_node_baseRS5_.exit.i.i.i: ; preds = %_ZNKSt4lessISt17basic_string_viewIcSt11char_traitsIcEEEclERKS3_S6_.exit.i.i.i.i
  %cmp.i.i.i.i = icmp eq ptr %__y.addr.1.i.i.i.i, %add.ptr.i.i.i.i
  br i1 %cmp.i.i.i.i, label %_ZN9grpc_core9XdsClient21GetResourceTypeLockedESt17basic_string_viewIcSt11char_traitsIcEE.exit.thread, label %lor.lhs.false.i.i.i

lor.lhs.false.i.i.i:                              ; preds = %_ZNSt8_Rb_treeISt17basic_string_viewIcSt11char_traitsIcEESt4pairIKS3_PKN9grpc_core15XdsResourceTypeEESt10_Select1stISA_ESt4lessIS3_ESaISA_EE14_M_lower_boundEPSt13_Rb_tree_nodeISA_EPSt18_Rb_tree_node_baseRS5_.exit.i.i.i
  %_M_storage.i.i.i3.i.i.i = getelementptr inbounds %"struct.std::_Rb_tree_node.465", ptr %__y.addr.1.i.i.i.i, i64 0, i32 1
  %agg.tmp2.sroa.0.0.copyload.i.i.i.i = load i64, ptr %_M_storage.i.i.i3.i.i.i, align 8
  %.sroa.speculated.i.i.i.i.i.i = tail call i64 @llvm.umin.i64(i64 %13, i64 %agg.tmp2.sroa.0.0.copyload.i.i.i.i)
  %cmp.i2.i.i.i.i.i.i = icmp eq i64 %.sroa.speculated.i.i.i.i.i.i, 0
  br i1 %cmp.i2.i.i.i.i.i.i, label %if.then.i.i.i.i.i.i, label %_ZNSt11char_traitsIcE7compareEPKcS2_m.exit.i.i.i.i.i.i

_ZNSt11char_traitsIcE7compareEPKcS2_m.exit.i.i.i.i.i.i: ; preds = %lor.lhs.false.i.i.i
  %agg.tmp2.sroa.2.0..sroa_idx.i.i.i.i = getelementptr inbounds %"struct.std::_Rb_tree_node.465", ptr %__y.addr.1.i.i.i.i, i64 0, i32 1, i32 0, i64 8
  %agg.tmp2.sroa.2.0.copyload.i.i.i.i = load ptr, ptr %agg.tmp2.sroa.2.0..sroa_idx.i.i.i.i, align 8
  %call.i.i.i.i.i.i.i = tail call i32 @memcmp(ptr noundef %14, ptr noundef %agg.tmp2.sroa.2.0.copyload.i.i.i.i, i64 noundef %.sroa.speculated.i.i.i.i.i.i) #25
  %cmp.i.i.i4.i.i.i = icmp eq i32 %call.i.i.i.i.i.i.i, 0
  br i1 %cmp.i.i.i4.i.i.i, label %if.then.i.i.i.i.i.i, label %_ZNSt3mapISt17basic_string_viewIcSt11char_traitsIcEEPKN9grpc_core15XdsResourceTypeESt4lessIS3_ESaISt4pairIKS3_S7_EEE4findERSB_.exit.i

if.then.i.i.i.i.i.i:                              ; preds = %_ZNSt11char_traitsIcE7compareEPKcS2_m.exit.i.i.i.i.i.i, %lor.lhs.false.i.i.i
  %sub.i.i.i.i.i.i.i = sub i64 %13, %agg.tmp2.sroa.0.0.copyload.i.i.i.i
  %spec.select3.i.i.i.i.i.i.i = tail call i64 @llvm.smax.i64(i64 %sub.i.i.i.i.i.i.i, i64 -2147483648)
  %retval.04.i.i.i.i.i.i.i = tail call i64 @llvm.smin.i64(i64 %spec.select3.i.i.i.i.i.i.i, i64 2147483647)
  %retval.0.i3.i.i.i.i.i.i = trunc i64 %retval.04.i.i.i.i.i.i.i to i32
  br label %_ZNSt3mapISt17basic_string_viewIcSt11char_traitsIcEEPKN9grpc_core15XdsResourceTypeESt4lessIS3_ESaISt4pairIKS3_S7_EEE4findERSB_.exit.i

_ZNSt3mapISt17basic_string_viewIcSt11char_traitsIcEEPKN9grpc_core15XdsResourceTypeESt4lessIS3_ESaISt4pairIKS3_S7_EEE4findERSB_.exit.i: ; preds = %if.then.i.i.i.i.i.i, %_ZNSt11char_traitsIcE7compareEPKcS2_m.exit.i.i.i.i.i.i
  %__ret.0.i.i.i.i.i.i = phi i32 [ %retval.0.i3.i.i.i.i.i.i, %if.then.i.i.i.i.i.i ], [ %call.i.i.i.i.i.i.i, %_ZNSt11char_traitsIcE7compareEPKcS2_m.exit.i.i.i.i.i.i ]
  %cmp.i.i.i.i.i = icmp slt i32 %__ret.0.i.i.i.i.i.i, 0
  br i1 %cmp.i.i.i.i.i, label %_ZN9grpc_core9XdsClient21GetResourceTypeLockedESt17basic_string_viewIcSt11char_traitsIcEE.exit.thread, label %_ZN9grpc_core9XdsClient21GetResourceTypeLockedESt17basic_string_viewIcSt11char_traitsIcEE.exit

_ZN9grpc_core9XdsClient21GetResourceTypeLockedESt17basic_string_viewIcSt11char_traitsIcEE.exit.thread: ; preds = %_ZNSt3mapISt17basic_string_viewIcSt11char_traitsIcEEPKN9grpc_core15XdsResourceTypeESt4lessIS3_ESaISt4pairIKS3_S7_EEE4findERSB_.exit.i, %_ZNSt8_Rb_treeISt17basic_string_viewIcSt11char_traitsIcEESt4pairIKS3_PKN9grpc_core15XdsResourceTypeEESt10_Select1stISA_ESt4lessIS3_ESaISA_EE14_M_lower_boundEPSt13_Rb_tree_nodeISA_EPSt18_Rb_tree_node_baseRS5_.exit.i.i.i, %if.end
  %result_5 = getelementptr inbounds %"class.grpc_core::XdsClient::ChannelState::AdsCallState::AdsResponseParser", ptr %this, i64 0, i32 3
  store ptr null, ptr %result_5, align 8
  br label %if.then17

_ZN9grpc_core9XdsClient21GetResourceTypeLockedESt17basic_string_viewIcSt11char_traitsIcEE.exit: ; preds = %_ZNSt3mapISt17basic_string_viewIcSt11char_traitsIcEEPKN9grpc_core15XdsResourceTypeESt4lessIS3_ESaISt4pairIKS3_S7_EEE4findERSB_.exit.i
  %second.i = getelementptr inbounds %"struct.std::_Rb_tree_node.465", ptr %__y.addr.1.i.i.i.i, i64 0, i32 1, i32 0, i64 16
  %16 = load ptr, ptr %second.i, align 8
  %result_ = getelementptr inbounds %"class.grpc_core::XdsClient::ChannelState::AdsCallState::AdsResponseParser", ptr %this, i64 0, i32 3
  store ptr %16, ptr %result_, align 8
  %cmp = icmp eq ptr %16, null
  br i1 %cmp, label %if.then17, label %if.end23

if.then17:                                        ; preds = %_ZN9grpc_core9XdsClient21GetResourceTypeLockedESt17basic_string_viewIcSt11char_traitsIcEE.exit.thread, %_ZN9grpc_core9XdsClient21GetResourceTypeLockedESt17basic_string_viewIcSt11char_traitsIcEE.exit
  store i64 22, ptr %ref.tmp19, align 8
  %17 = getelementptr inbounds { i64, ptr }, ptr %ref.tmp19, i64 0, i32 1
  store ptr @.str.19, ptr %17, align 8
  %call.i = tail call { i64, ptr } @_ZNKSt7__cxx1112basic_stringIcSt11char_traitsIcESaIcEEcvSt17basic_string_viewIcS2_EEv(ptr noundef nonnull align 8 dereferenceable(32) %fields) #25
  %18 = extractvalue { i64, ptr } %call.i, 0
  store i64 %18, ptr %ref.tmp20, align 8
  %19 = getelementptr inbounds { i64, ptr }, ptr %ref.tmp20, i64 0, i32 1
  %20 = extractvalue { i64, ptr } %call.i, 1
  store ptr %20, ptr %19, align 8
  call void @_ZN4absl12lts_202308026StrCatB5cxx11ERKNS0_8AlphaNumES3_(ptr nonnull sret(%"class.std::__cxx11::basic_string") align 8 %ref.tmp, ptr noundef nonnull align 8 dereferenceable(48) %ref.tmp19, ptr noundef nonnull align 8 dereferenceable(48) %ref.tmp20)
  %call22 = call { i64, ptr } @_ZNKSt7__cxx1112basic_stringIcSt11char_traitsIcESaIcEEcvSt17basic_string_viewIcS2_EEv(ptr noundef nonnull align 8 dereferenceable(32) %ref.tmp) #25
  %21 = extractvalue { i64, ptr } %call22, 0
  %22 = extractvalue { i64, ptr } %call22, 1
  invoke void @_ZN4absl12lts_2023080220InvalidArgumentErrorESt17basic_string_viewIcSt11char_traitsIcEE(ptr sret(%"class.absl::lts_20230802::Status") align 8 %agg.result, i64 %21, ptr %22)
          to label %invoke.cont unwind label %lpad

invoke.cont:                                      ; preds = %if.then17
  call void @_ZNSt7__cxx1112basic_stringIcSt11char_traitsIcESaIcEED1Ev(ptr noundef nonnull align 8 dereferenceable(32) %ref.tmp) #25
  br label %return

lpad:                                             ; preds = %if.then17
  %23 = landingpad { ptr, i32 }
          cleanup
  call void @_ZNSt7__cxx1112basic_stringIcSt11char_traitsIcESaIcEED1Ev(ptr noundef nonnull align 8 dereferenceable(32) %ref.tmp) #25
  resume { ptr, i32 } %23

if.end23:                                         ; preds = %_ZN9grpc_core9XdsClient21GetResourceTypeLockedESt17basic_string_viewIcSt11char_traitsIcEE.exit
  %type_url26 = getelementptr inbounds %"class.grpc_core::XdsClient::ChannelState::AdsCallState::AdsResponseParser", ptr %this, i64 0, i32 3, i32 1
  %call27 = tail call noundef nonnull align 8 dereferenceable(32) ptr @_ZNSt7__cxx1112basic_stringIcSt11char_traitsIcESaIcEEaSEOS4_(ptr noundef nonnull align 8 dereferenceable(32) %type_url26, ptr noundef nonnull align 8 dereferenceable(32) %fields) #25
  %version28 = getelementptr inbounds %"struct.grpc_core::XdsApi::AdsResponseParserInterface::AdsResponseFields", ptr %fields, i64 0, i32 1
  %version30 = getelementptr inbounds %"class.grpc_core::XdsClient::ChannelState::AdsCallState::AdsResponseParser", ptr %this, i64 0, i32 3, i32 2
  %call31 = tail call noundef nonnull align 8 dereferenceable(32) ptr @_ZNSt7__cxx1112basic_stringIcSt11char_traitsIcESaIcEEaSEOS4_(ptr noundef nonnull align 8 dereferenceable(32) %version30, ptr noundef nonnull align 8 dereferenceable(32) %version28) #25
  %nonce32 = getelementptr inbounds %"struct.grpc_core::XdsApi::AdsResponseParserInterface::AdsResponseFields", ptr %fields, i64 0, i32 2
  %nonce34 = getelementptr inbounds %"class.grpc_core::XdsClient::ChannelState::AdsCallState::AdsResponseParser", ptr %this, i64 0, i32 3, i32 3
  %call35 = tail call noundef nonnull align 8 dereferenceable(32) ptr @_ZNSt7__cxx1112basic_stringIcSt11char_traitsIcESaIcEEaSEOS4_(ptr noundef nonnull align 8 dereferenceable(32) %nonce34, ptr noundef nonnull align 8 dereferenceable(32) %nonce32) #25
  store i64 0, ptr %agg.result, align 8, !alias.scope !20
  br label %return

return:                                           ; preds = %if.end23, %invoke.cont
  ret void
}

; Function Attrs: mustprogress nofree nounwind willreturn memory(read, inaccessiblemem: none) uwtable
define noundef ptr @_ZN9grpc_core9XdsClient21GetResourceTypeLockedESt17basic_string_viewIcSt11char_traitsIcEE(ptr noundef nonnull readonly align 8 dereferenceable(433) %this, i64 %resource_type.coerce0, ptr nocapture readonly %resource_type.coerce1) local_unnamed_addr #11 align 2 personality ptr @__gxx_personality_v0 {
entry:
  %_M_parent.i.i.i.i = getelementptr inbounds %"class.grpc_core::XdsClient", ptr %this, i64 0, i32 10, i32 0, i32 0, i32 1, i32 0, i32 1
  %0 = load ptr, ptr %_M_parent.i.i.i.i, align 8
  %add.ptr.i.i.i = getelementptr inbounds %"class.grpc_core::XdsClient", ptr %this, i64 0, i32 10, i32 0, i32 0, i32 1
  %cmp.not5.i.i.i = icmp eq ptr %0, null
  br i1 %cmp.not5.i.i.i, label %return, label %while.body.i.i.i

while.body.i.i.i:                                 ; preds = %entry, %_ZNKSt4lessISt17basic_string_viewIcSt11char_traitsIcEEEclERKS3_S6_.exit.i.i.i
  %__x.addr.07.i.i.i = phi ptr [ %__x.addr.1.i.i.i, %_ZNKSt4lessISt17basic_string_viewIcSt11char_traitsIcEEEclERKS3_S6_.exit.i.i.i ], [ %0, %entry ]
  %__y.addr.06.i.i.i = phi ptr [ %__y.addr.1.i.i.i, %_ZNKSt4lessISt17basic_string_viewIcSt11char_traitsIcEEEclERKS3_S6_.exit.i.i.i ], [ %add.ptr.i.i.i, %entry ]
  %_M_storage.i.i.i.i.i = getelementptr inbounds %"struct.std::_Rb_tree_node.465", ptr %__x.addr.07.i.i.i, i64 0, i32 1
  %agg.tmp.sroa.0.0.copyload.i.i.i.i = load i64, ptr %_M_storage.i.i.i.i.i, align 8
  %.sroa.speculated.i.i.i.i.i.i = tail call i64 @llvm.umin.i64(i64 %agg.tmp.sroa.0.0.copyload.i.i.i.i, i64 %resource_type.coerce0)
  %cmp.i2.i.i.i.i.i.i = icmp eq i64 %.sroa.speculated.i.i.i.i.i.i, 0
  br i1 %cmp.i2.i.i.i.i.i.i, label %if.then.i.i.i.i.i.i, label %_ZNSt11char_traitsIcE7compareEPKcS2_m.exit.i.i.i.i.i.i

_ZNSt11char_traitsIcE7compareEPKcS2_m.exit.i.i.i.i.i.i: ; preds = %while.body.i.i.i
  %agg.tmp.sroa.2.0..sroa_idx.i.i.i.i = getelementptr inbounds %"struct.std::_Rb_tree_node.465", ptr %__x.addr.07.i.i.i, i64 0, i32 1, i32 0, i64 8
  %agg.tmp.sroa.2.0.copyload.i.i.i.i = load ptr, ptr %agg.tmp.sroa.2.0..sroa_idx.i.i.i.i, align 8
  %call.i.i.i.i.i.i.i = tail call i32 @memcmp(ptr noundef %agg.tmp.sroa.2.0.copyload.i.i.i.i, ptr noundef %resource_type.coerce1, i64 noundef %.sroa.speculated.i.i.i.i.i.i) #25
  %cmp.i.i.i.i.i.i = icmp eq i32 %call.i.i.i.i.i.i.i, 0
  br i1 %cmp.i.i.i.i.i.i, label %if.then.i.i.i.i.i.i, label %_ZNKSt4lessISt17basic_string_viewIcSt11char_traitsIcEEEclERKS3_S6_.exit.i.i.i

if.then.i.i.i.i.i.i:                              ; preds = %_ZNSt11char_traitsIcE7compareEPKcS2_m.exit.i.i.i.i.i.i, %while.body.i.i.i
  %sub.i.i.i.i.i.i.i = sub i64 %agg.tmp.sroa.0.0.copyload.i.i.i.i, %resource_type.coerce0
  %spec.select3.i.i.i.i.i.i.i = tail call i64 @llvm.smax.i64(i64 %sub.i.i.i.i.i.i.i, i64 -2147483648)
  %retval.04.i.i.i.i.i.i.i = tail call i64 @llvm.smin.i64(i64 %spec.select3.i.i.i.i.i.i.i, i64 2147483647)
  %retval.0.i3.i.i.i.i.i.i = trunc i64 %retval.04.i.i.i.i.i.i.i to i32
  br label %_ZNKSt4lessISt17basic_string_viewIcSt11char_traitsIcEEEclERKS3_S6_.exit.i.i.i

_ZNKSt4lessISt17basic_string_viewIcSt11char_traitsIcEEEclERKS3_S6_.exit.i.i.i: ; preds = %if.then.i.i.i.i.i.i, %_ZNSt11char_traitsIcE7compareEPKcS2_m.exit.i.i.i.i.i.i
  %__ret.0.i.i.i.i.i.i = phi i32 [ %retval.0.i3.i.i.i.i.i.i, %if.then.i.i.i.i.i.i ], [ %call.i.i.i.i.i.i.i, %_ZNSt11char_traitsIcE7compareEPKcS2_m.exit.i.i.i.i.i.i ]
  %cmp.i.i.i.i.i = icmp slt i32 %__ret.0.i.i.i.i.i.i, 0
  %_M_right.i.i.i.i = getelementptr inbounds %"struct.std::_Rb_tree_node_base", ptr %__x.addr.07.i.i.i, i64 0, i32 3
  %_M_left.i.i.i.i = getelementptr inbounds %"struct.std::_Rb_tree_node_base", ptr %__x.addr.07.i.i.i, i64 0, i32 2
  %__y.addr.1.i.i.i = select i1 %cmp.i.i.i.i.i, ptr %__y.addr.06.i.i.i, ptr %__x.addr.07.i.i.i
  %__x.addr.1.in.i.i.i = select i1 %cmp.i.i.i.i.i, ptr %_M_right.i.i.i.i, ptr %_M_left.i.i.i.i
  %__x.addr.1.i.i.i = load ptr, ptr %__x.addr.1.in.i.i.i, align 8
  %cmp.not.i.i.i = icmp eq ptr %__x.addr.1.i.i.i, null
  br i1 %cmp.not.i.i.i, label %_ZNSt8_Rb_treeISt17basic_string_viewIcSt11char_traitsIcEESt4pairIKS3_PKN9grpc_core15XdsResourceTypeEESt10_Select1stISA_ESt4lessIS3_ESaISA_EE14_M_lower_boundEPSt13_Rb_tree_nodeISA_EPSt18_Rb_tree_node_baseRS5_.exit.i.i, label %while.body.i.i.i, !llvm.loop !19

_ZNSt8_Rb_treeISt17basic_string_viewIcSt11char_traitsIcEESt4pairIKS3_PKN9grpc_core15XdsResourceTypeEESt10_Select1stISA_ESt4lessIS3_ESaISA_EE14_M_lower_boundEPSt13_Rb_tree_nodeISA_EPSt18_Rb_tree_node_baseRS5_.exit.i.i: ; preds = %_ZNKSt4lessISt17basic_string_viewIcSt11char_traitsIcEEEclERKS3_S6_.exit.i.i.i
  %cmp.i.i.i = icmp eq ptr %__y.addr.1.i.i.i, %add.ptr.i.i.i
  br i1 %cmp.i.i.i, label %return, label %lor.lhs.false.i.i

lor.lhs.false.i.i:                                ; preds = %_ZNSt8_Rb_treeISt17basic_string_viewIcSt11char_traitsIcEESt4pairIKS3_PKN9grpc_core15XdsResourceTypeEESt10_Select1stISA_ESt4lessIS3_ESaISA_EE14_M_lower_boundEPSt13_Rb_tree_nodeISA_EPSt18_Rb_tree_node_baseRS5_.exit.i.i
  %_M_storage.i.i.i3.i.i = getelementptr inbounds %"struct.std::_Rb_tree_node.465", ptr %__y.addr.1.i.i.i, i64 0, i32 1
  %agg.tmp2.sroa.0.0.copyload.i.i.i = load i64, ptr %_M_storage.i.i.i3.i.i, align 8
  %.sroa.speculated.i.i.i.i.i = tail call i64 @llvm.umin.i64(i64 %resource_type.coerce0, i64 %agg.tmp2.sroa.0.0.copyload.i.i.i)
  %cmp.i2.i.i.i.i.i = icmp eq i64 %.sroa.speculated.i.i.i.i.i, 0
  br i1 %cmp.i2.i.i.i.i.i, label %if.then.i.i.i.i.i, label %_ZNSt11char_traitsIcE7compareEPKcS2_m.exit.i.i.i.i.i

_ZNSt11char_traitsIcE7compareEPKcS2_m.exit.i.i.i.i.i: ; preds = %lor.lhs.false.i.i
  %agg.tmp2.sroa.2.0..sroa_idx.i.i.i = getelementptr inbounds %"struct.std::_Rb_tree_node.465", ptr %__y.addr.1.i.i.i, i64 0, i32 1, i32 0, i64 8
  %agg.tmp2.sroa.2.0.copyload.i.i.i = load ptr, ptr %agg.tmp2.sroa.2.0..sroa_idx.i.i.i, align 8
  %call.i.i.i.i.i.i = tail call i32 @memcmp(ptr noundef %resource_type.coerce1, ptr noundef %agg.tmp2.sroa.2.0.copyload.i.i.i, i64 noundef %.sroa.speculated.i.i.i.i.i) #25
  %cmp.i.i.i4.i.i = icmp eq i32 %call.i.i.i.i.i.i, 0
  br i1 %cmp.i.i.i4.i.i, label %if.then.i.i.i.i.i, label %_ZNSt3mapISt17basic_string_viewIcSt11char_traitsIcEEPKN9grpc_core15XdsResourceTypeESt4lessIS3_ESaISt4pairIKS3_S7_EEE4findERSB_.exit

if.then.i.i.i.i.i:                                ; preds = %_ZNSt11char_traitsIcE7compareEPKcS2_m.exit.i.i.i.i.i, %lor.lhs.false.i.i
  %sub.i.i.i.i.i.i = sub i64 %resource_type.coerce0, %agg.tmp2.sroa.0.0.copyload.i.i.i
  %spec.select3.i.i.i.i.i.i = tail call i64 @llvm.smax.i64(i64 %sub.i.i.i.i.i.i, i64 -2147483648)
  %retval.04.i.i.i.i.i.i = tail call i64 @llvm.smin.i64(i64 %spec.select3.i.i.i.i.i.i, i64 2147483647)
  %retval.0.i3.i.i.i.i.i = trunc i64 %retval.04.i.i.i.i.i.i to i32
  br label %_ZNSt3mapISt17basic_string_viewIcSt11char_traitsIcEEPKN9grpc_core15XdsResourceTypeESt4lessIS3_ESaISt4pairIKS3_S7_EEE4findERSB_.exit

_ZNSt3mapISt17basic_string_viewIcSt11char_traitsIcEEPKN9grpc_core15XdsResourceTypeESt4lessIS3_ESaISt4pairIKS3_S7_EEE4findERSB_.exit: ; preds = %_ZNSt11char_traitsIcE7compareEPKcS2_m.exit.i.i.i.i.i, %if.then.i.i.i.i.i
  %__ret.0.i.i.i.i.i = phi i32 [ %retval.0.i3.i.i.i.i.i, %if.then.i.i.i.i.i ], [ %call.i.i.i.i.i.i, %_ZNSt11char_traitsIcE7compareEPKcS2_m.exit.i.i.i.i.i ]
  %cmp.i.i.i.i = icmp slt i32 %__ret.0.i.i.i.i.i, 0
  br i1 %cmp.i.i.i.i, label %return, label %if.then

if.then:                                          ; preds = %_ZNSt3mapISt17basic_string_viewIcSt11char_traitsIcEEPKN9grpc_core15XdsResourceTypeESt4lessIS3_ESaISt4pairIKS3_S7_EEE4findERSB_.exit
  %second = getelementptr inbounds %"struct.std::_Rb_tree_node.465", ptr %__y.addr.1.i.i.i, i64 0, i32 1, i32 0, i64 16
  %1 = load ptr, ptr %second, align 8
  br label %return

return:                                           ; preds = %entry, %_ZNSt8_Rb_treeISt17basic_string_viewIcSt11char_traitsIcEESt4pairIKS3_PKN9grpc_core15XdsResourceTypeEESt10_Select1stISA_ESt4lessIS3_ESaISA_EE14_M_lower_boundEPSt13_Rb_tree_nodeISA_EPSt18_Rb_tree_node_baseRS5_.exit.i.i, %_ZNSt3mapISt17basic_string_viewIcSt11char_traitsIcEEPKN9grpc_core15XdsResourceTypeESt4lessIS3_ESaISt4pairIKS3_S7_EEE4findERSB_.exit, %if.then
  %retval.0 = phi ptr [ %1, %if.then ], [ null, %_ZNSt3mapISt17basic_string_viewIcSt11char_traitsIcEEPKN9grpc_core15XdsResourceTypeESt4lessIS3_ESaISt4pairIKS3_S7_EEE4findERSB_.exit ], [ null, %_ZNSt8_Rb_treeISt17basic_string_viewIcSt11char_traitsIcEESt4pairIKS3_PKN9grpc_core15XdsResourceTypeEESt10_Select1stISA_ESt4lessIS3_ESaISA_EE14_M_lower_boundEPSt13_Rb_tree_nodeISA_EPSt18_Rb_tree_node_baseRS5_.exit.i.i ], [ null, %entry ]
  ret ptr %retval.0
}

declare void @_ZN4absl12lts_2023080220InvalidArgumentErrorESt17basic_string_viewIcSt11char_traitsIcEE(ptr sret(%"class.absl::lts_20230802::Status") align 8, i64, ptr) local_unnamed_addr #0

declare void @_ZN4absl12lts_202308026StrCatB5cxx11ERKNS0_8AlphaNumES3_(ptr sret(%"class.std::__cxx11::basic_string") align 8, ptr noundef nonnull align 8 dereferenceable(48), ptr noundef nonnull align 8 dereferenceable(48)) local_unnamed_addr #0

; Function Attrs: nounwind
declare noundef nonnull align 8 dereferenceable(32) ptr @_ZNSt7__cxx1112basic_stringIcSt11char_traitsIcESaIcEEaSEOS4_(ptr noundef nonnull align 8 dereferenceable(32), ptr noundef nonnull align 8 dereferenceable(32)) local_unnamed_addr #1

; Function Attrs: mustprogress uwtable
define void @_ZN9grpc_core9XdsClient12ChannelState12AdsCallState17AdsResponseParser13ParseResourceEP9upb_ArenamSt17basic_string_viewIcSt11char_traitsIcEES9_S9_(ptr noundef nonnull align 8 dereferenceable(208) %this, ptr noundef %arena, i64 noundef %idx, i64 %type_url.coerce0, ptr %type_url.coerce1, ptr noundef byval(%"class.std::basic_string_view") align 8 %resource_name, ptr noundef byval(%"class.std::basic_string_view") align 8 %serialized_resource) unnamed_addr #3 align 2 personality ptr @__gxx_personality_v0 {
entry:
  %ref.tmp.i67 = alloca [5 x %"class.std::basic_string_view"], align 8
  %ref.tmp.i = alloca [6 x %"class.std::basic_string_view"], align 8
  %type_url = alloca %"class.std::basic_string_view", align 8
  %error_prefix = alloca %"class.std::__cxx11::basic_string", align 8
  %ref.tmp = alloca %"class.absl::lts_20230802::AlphaNum", align 8
  %ref.tmp2 = alloca %"class.absl::lts_20230802::AlphaNum", align 8
  %ref.tmp3 = alloca %"class.absl::lts_20230802::AlphaNum", align 8
  %ref.tmp4 = alloca %"class.absl::lts_20230802::AlphaNum", align 8
  %ref.tmp5 = alloca %"class.std::__cxx11::basic_string", align 8
  %ref.tmp6 = alloca %"class.std::allocator.16", align 1
  %ref.tmp7 = alloca %"class.absl::lts_20230802::AlphaNum", align 8
  %ref.tmp9 = alloca %"class.absl::lts_20230802::AlphaNum", align 8
  %ref.tmp24 = alloca %"class.std::__cxx11::basic_string", align 8
  %context = alloca %"struct.grpc_core::XdsResourceType::DecodeContext", align 16
  %decode_result = alloca %"struct.grpc_core::XdsResourceType::DecodeResult", align 8
  %ref.tmp64 = alloca %"class.std::__cxx11::basic_string", align 8
  %ref.tmp68 = alloca %"class.absl::lts_20230802::AlphaNum", align 8
  %ref.tmp81 = alloca %"class.std::__cxx11::basic_string", align 8
  %ref.tmp82 = alloca %"class.absl::lts_20230802::AlphaNum", align 8
  %ref.tmp84 = alloca %"class.absl::lts_20230802::AlphaNum", align 8
  %ref.tmp85 = alloca %"class.std::__cxx11::basic_string", align 8
  %ref.tmp107 = alloca %"class.std::__cxx11::basic_string", align 8
  %ref.tmp108 = alloca %"class.absl::lts_20230802::AlphaNum", align 8
  %ref.tmp110 = alloca %"class.absl::lts_20230802::AlphaNum", align 8
  %ref.tmp111 = alloca %"class.std::__cxx11::basic_string", align 8
  %parsed_resource_name = alloca %"class.absl::lts_20230802::StatusOr.186", align 8
  %ref.tmp134 = alloca %"class.std::__cxx11::basic_string", align 8
  %ref.tmp135 = alloca %"class.absl::lts_20230802::AlphaNum", align 8
  %ref.tmp137 = alloca %"class.absl::lts_20230802::AlphaNum", align 8
  %ref.tmp271 = alloca %"class.std::__cxx11::basic_string", align 8
  %ref.tmp272 = alloca %"class.std::allocator.16", align 1
  %ref.tmp276 = alloca %"class.std::__cxx11::basic_string", align 8
  %ref.tmp277 = alloca %"class.std::allocator.16", align 1
  %agg.tmp294 = alloca %"class.absl::lts_20230802::Status", align 8
  %ref.tmp296 = alloca %"class.std::__cxx11::basic_string", align 8
  %ref.tmp297 = alloca %"class.absl::lts_20230802::AlphaNum", align 8
  %ref.tmp299 = alloca %"class.absl::lts_20230802::AlphaNum", align 8
  %ref.tmp300 = alloca %"class.std::__cxx11::basic_string", align 8
  %ref.tmp314 = alloca %"class.std::__cxx11::basic_string", align 8
  %ref.tmp346 = alloca %"class.std::__cxx11::basic_string", align 8
  %ref.tmp347 = alloca %"class.std::allocator.16", align 1
  %ref.tmp362 = alloca %"struct.grpc_core::XdsApi::ResourceMetadata", align 8
  %agg.tmp363 = alloca %"class.std::__cxx11::basic_string", align 8
  %ref.tmp364 = alloca %"class.std::allocator.16", align 1
  %agg.tmp367 = alloca %"class.std::__cxx11::basic_string", align 8
  %agg.tmp385 = alloca %"class.std::function.161", align 8
  %ref.tmp386 = alloca %class.anon.232, align 8
  %ref.tmp391 = alloca %"class.grpc_core::DebugLocation", align 1
  store i64 %type_url.coerce0, ptr %type_url, align 8
  %0 = getelementptr inbounds { i64, ptr }, ptr %type_url, i64 0, i32 1
  store ptr %type_url.coerce1, ptr %0, align 8
  store i64 15, ptr %ref.tmp, align 8
  %1 = getelementptr inbounds { i64, ptr }, ptr %ref.tmp, i64 0, i32 1
  store ptr @.str.20, ptr %1, align 8
  %digits_.i = getelementptr inbounds %"class.absl::lts_20230802::AlphaNum", ptr %ref.tmp2, i64 0, i32 1
  %call.i = call noundef ptr @_ZN4absl12lts_2023080216numbers_internal15FastIntToBufferEmPc(i64 noundef %idx, ptr noundef nonnull %digits_.i)
  %sub.ptr.lhs.cast.i = ptrtoint ptr %call.i to i64
  %sub.ptr.rhs.cast.i = ptrtoint ptr %digits_.i to i64
  %sub.ptr.sub.i = sub i64 %sub.ptr.lhs.cast.i, %sub.ptr.rhs.cast.i
  store i64 %sub.ptr.sub.i, ptr %ref.tmp2, align 8
  %_M_str.i.i = getelementptr inbounds %"class.std::basic_string_view", ptr %ref.tmp2, i64 0, i32 1
  store ptr %digits_.i, ptr %_M_str.i.i, align 8
  store i64 2, ptr %ref.tmp3, align 8
  %2 = getelementptr inbounds { i64, ptr }, ptr %ref.tmp3, i64 0, i32 1
  store ptr @.str.14, ptr %2, align 8
  %3 = load i64, ptr %resource_name, align 8
  %cmp.i = icmp eq i64 %3, 0
  br i1 %cmp.i, label %cond.true, label %invoke.cont10

cond.true:                                        ; preds = %entry
  call void @_ZNSaIcEC1Ev(ptr noundef nonnull align 1 dereferenceable(1) %ref.tmp6) #25
  %call.i4041 = invoke noundef ptr @_ZNSt7__cxx1112basic_stringIcSt11char_traitsIcESaIcEE13_M_local_dataEv(ptr noundef nonnull align 8 dereferenceable(32) %ref.tmp5)
          to label %call.i40.noexc unwind label %lpad

call.i40.noexc:                                   ; preds = %cond.true
  invoke void @_ZNSt7__cxx1112basic_stringIcSt11char_traitsIcESaIcEE12_Alloc_hiderC1EPcRKS3_(ptr noundef nonnull align 8 dereferenceable(8) %ref.tmp5, ptr noundef %call.i4041, ptr noundef nonnull align 1 dereferenceable(1) %ref.tmp6)
          to label %.noexc unwind label %lpad

.noexc:                                           ; preds = %call.i40.noexc
  invoke void @_ZNSt7__cxx1112basic_stringIcSt11char_traitsIcESaIcEE12_M_constructIPKcEEvT_S8_St20forward_iterator_tag(ptr noundef nonnull align 8 dereferenceable(32) %ref.tmp5, ptr noundef nonnull @.str.21, ptr noundef nonnull @.str.21)
          to label %cond.end unwind label %ehcleanup.thread

ehcleanup.thread:                                 ; preds = %.noexc
  %4 = landingpad { ptr, i32 }
          cleanup
  call void @_ZNSaIcED2Ev(ptr noundef nonnull align 1 dereferenceable(1) %ref.tmp5) #25
  br label %cleanup.action16

invoke.cont10:                                    ; preds = %entry
  %agg.tmp.sroa.2.0.resource_name.sroa_idx = getelementptr inbounds i8, ptr %resource_name, i64 8
  %agg.tmp.sroa.2.0.copyload = load ptr, ptr %agg.tmp.sroa.2.0.resource_name.sroa_idx, align 8
  store i64 %3, ptr %ref.tmp7, align 8
  %pc.sroa.2.0.piece_.sroa_idx.i = getelementptr inbounds i8, ptr %ref.tmp7, i64 8
  store ptr %agg.tmp.sroa.2.0.copyload, ptr %pc.sroa.2.0.piece_.sroa_idx.i, align 8
  store i64 2, ptr %ref.tmp9, align 8
  %5 = getelementptr inbounds { i64, ptr }, ptr %ref.tmp9, i64 0, i32 1
  store ptr @.str.14, ptr %5, align 8
  invoke void @_ZN4absl12lts_202308026StrCatB5cxx11ERKNS0_8AlphaNumES3_(ptr nonnull sret(%"class.std::__cxx11::basic_string") align 8 %ref.tmp5, ptr noundef nonnull align 8 dereferenceable(48) %ref.tmp7, ptr noundef nonnull align 8 dereferenceable(48) %ref.tmp9)
          to label %cond.end unwind label %lpad

cond.end:                                         ; preds = %.noexc, %invoke.cont10
  %call.i43 = call { i64, ptr } @_ZNKSt7__cxx1112basic_stringIcSt11char_traitsIcESaIcEEcvSt17basic_string_viewIcS2_EEv(ptr noundef nonnull align 8 dereferenceable(32) %ref.tmp5) #25
  %6 = extractvalue { i64, ptr } %call.i43, 0
  store i64 %6, ptr %ref.tmp4, align 8
  %7 = getelementptr inbounds { i64, ptr }, ptr %ref.tmp4, i64 0, i32 1
  %8 = extractvalue { i64, ptr } %call.i43, 1
  store ptr %8, ptr %7, align 8
  invoke void @_ZN4absl12lts_202308026StrCatB5cxx11ERKNS0_8AlphaNumES3_S3_S3_(ptr nonnull sret(%"class.std::__cxx11::basic_string") align 8 %error_prefix, ptr noundef nonnull align 8 dereferenceable(48) %ref.tmp, ptr noundef nonnull align 8 dereferenceable(48) %ref.tmp2, ptr noundef nonnull align 8 dereferenceable(48) %ref.tmp3, ptr noundef nonnull align 8 dereferenceable(48) %ref.tmp4)
          to label %invoke.cont14 unwind label %lpad12

invoke.cont14:                                    ; preds = %cond.end
  call void @_ZNSt7__cxx1112basic_stringIcSt11char_traitsIcESaIcEED1Ev(ptr noundef nonnull align 8 dereferenceable(32) %ref.tmp5) #25
  br i1 %cmp.i, label %cleanup.action, label %cleanup.done

cleanup.action:                                   ; preds = %invoke.cont14
  call void @_ZNSaIcED1Ev(ptr noundef nonnull align 1 dereferenceable(1) %ref.tmp6) #25
  br label %cleanup.done

cleanup.done:                                     ; preds = %cleanup.action, %invoke.cont14
  %result_ = getelementptr inbounds %"class.grpc_core::XdsClient::ChannelState::AdsCallState::AdsResponseParser", ptr %this, i64 0, i32 3
  %type_url19 = getelementptr inbounds %"class.grpc_core::XdsClient::ChannelState::AdsCallState::AdsResponseParser", ptr %this, i64 0, i32 3, i32 1
  %call20 = call { i64, ptr } @_ZNKSt7__cxx1112basic_stringIcSt11char_traitsIcESaIcEEcvSt17basic_string_viewIcS2_EEv(ptr noundef nonnull align 8 dereferenceable(32) %type_url19) #25
  %9 = extractvalue { i64, ptr } %call20, 0
  %10 = extractvalue { i64, ptr } %call20, 1
  %agg.tmp21.sroa.0.0.copyload = load i64, ptr %type_url, align 8
  %agg.tmp21.sroa.2.0.copyload = load ptr, ptr %0, align 8
  %cmp.i.i = icmp eq i64 %9, %agg.tmp21.sroa.0.0.copyload
  br i1 %cmp.i.i, label %land.rhs.i.i, label %invoke.cont34

land.rhs.i.i:                                     ; preds = %cleanup.done
  %cmp.i2.i.i.i = icmp eq i64 %9, 0
  br i1 %cmp.i2.i.i.i, label %invoke.cont48, label %_ZNSt11char_traitsIcE7compareEPKcS2_m.exit.i.i.i

_ZNSt11char_traitsIcE7compareEPKcS2_m.exit.i.i.i: ; preds = %land.rhs.i.i
  %bcmp.i.i = call i32 @bcmp(ptr %10, ptr %agg.tmp21.sroa.2.0.copyload, i64 %9)
  %cmp.i.i.i = icmp eq i32 %bcmp.i.i, 0
  br i1 %cmp.i.i.i, label %invoke.cont48, label %invoke.cont34

invoke.cont34:                                    ; preds = %cleanup.done, %_ZNSt11char_traitsIcE7compareEPKcS2_m.exit.i.i.i
  %errors = getelementptr inbounds %"class.grpc_core::XdsClient::ChannelState::AdsCallState::AdsResponseParser", ptr %this, i64 0, i32 3, i32 4
  %call.i44 = call { i64, ptr } @_ZNKSt7__cxx1112basic_stringIcSt11char_traitsIcESaIcEEcvSt17basic_string_viewIcS2_EEv(ptr noundef nonnull align 8 dereferenceable(32) %error_prefix) #25
  %11 = extractvalue { i64, ptr } %call.i44, 0
  %12 = extractvalue { i64, ptr } %call.i44, 1
  %agg.tmp31.sroa.0.0.copyload = load i64, ptr %type_url, align 8
  %agg.tmp31.sroa.2.0.copyload = load ptr, ptr %0, align 8
  %call.i48 = call { i64, ptr } @_ZNKSt7__cxx1112basic_stringIcSt11char_traitsIcESaIcEEcvSt17basic_string_viewIcS2_EEv(ptr noundef nonnull align 8 dereferenceable(32) %type_url19) #25
  %13 = extractvalue { i64, ptr } %call.i48, 0
  %14 = extractvalue { i64, ptr } %call.i48, 1
  call void @llvm.lifetime.start.p0(i64 96, ptr nonnull %ref.tmp.i)
  store i64 %11, ptr %ref.tmp.i, align 8, !noalias !23
  %15 = getelementptr inbounds { i64, ptr }, ptr %ref.tmp.i, i64 0, i32 1
  store ptr %12, ptr %15, align 8, !noalias !23
  %arrayinit.element.i = getelementptr inbounds %"class.std::basic_string_view", ptr %ref.tmp.i, i64 1
  store i64 25, ptr %arrayinit.element.i, align 8, !noalias !23
  %16 = getelementptr inbounds %"class.std::basic_string_view", ptr %ref.tmp.i, i64 1, i32 1
  store ptr @.str.22, ptr %16, align 8, !noalias !23
  %arrayinit.element2.i = getelementptr inbounds %"class.std::basic_string_view", ptr %ref.tmp.i, i64 2
  store i64 %agg.tmp31.sroa.0.0.copyload, ptr %arrayinit.element2.i, align 8, !noalias !23
  %17 = getelementptr inbounds %"class.std::basic_string_view", ptr %ref.tmp.i, i64 2, i32 1
  store ptr %agg.tmp31.sroa.2.0.copyload, ptr %17, align 8, !noalias !23
  %arrayinit.element4.i = getelementptr inbounds %"class.std::basic_string_view", ptr %ref.tmp.i, i64 3
  store i64 14, ptr %arrayinit.element4.i, align 8, !noalias !23
  %18 = getelementptr inbounds %"class.std::basic_string_view", ptr %ref.tmp.i, i64 3, i32 1
  store ptr @.str.23, ptr %18, align 8, !noalias !23
  %arrayinit.element6.i = getelementptr inbounds %"class.std::basic_string_view", ptr %ref.tmp.i, i64 4
  store i64 %13, ptr %arrayinit.element6.i, align 8, !noalias !23
  %19 = getelementptr inbounds %"class.std::basic_string_view", ptr %ref.tmp.i, i64 4, i32 1
  store ptr %14, ptr %19, align 8, !noalias !23
  %arrayinit.element8.i = getelementptr inbounds %"class.std::basic_string_view", ptr %ref.tmp.i, i64 5
  store i64 2, ptr %arrayinit.element8.i, align 8, !noalias !23
  %20 = getelementptr inbounds %"class.std::basic_string_view", ptr %ref.tmp.i, i64 5, i32 1
  store ptr @.str.24, ptr %20, align 8, !noalias !23
  invoke void @_ZN4absl12lts_2023080216strings_internal9CatPiecesB5cxx11ESt16initializer_listISt17basic_string_viewIcSt11char_traitsIcEEE(ptr nonnull sret(%"class.std::__cxx11::basic_string") align 8 %ref.tmp24, ptr nonnull %ref.tmp.i, i64 6)
          to label %invoke.cont39 unwind label %lpad26

invoke.cont39:                                    ; preds = %invoke.cont34
  call void @llvm.lifetime.end.p0(i64 96, ptr nonnull %ref.tmp.i)
  %_M_finish.i = getelementptr inbounds %"class.grpc_core::XdsClient::ChannelState::AdsCallState::AdsResponseParser", ptr %this, i64 0, i32 3, i32 4, i32 0, i32 0, i32 0, i32 1
  %21 = load ptr, ptr %_M_finish.i, align 8
  %_M_end_of_storage.i = getelementptr inbounds %"class.grpc_core::XdsClient::ChannelState::AdsCallState::AdsResponseParser", ptr %this, i64 0, i32 3, i32 4, i32 0, i32 0, i32 0, i32 2
  %22 = load ptr, ptr %_M_end_of_storage.i, align 8
  %cmp.not.i = icmp eq ptr %21, %22
  br i1 %cmp.not.i, label %if.else.i, label %if.then.i

if.then.i:                                        ; preds = %invoke.cont39
  call void @_ZNSt7__cxx1112basic_stringIcSt11char_traitsIcESaIcEEC1EOS4_(ptr noundef nonnull align 8 dereferenceable(32) %21, ptr noundef nonnull align 8 dereferenceable(32) %ref.tmp24) #25
  %23 = load ptr, ptr %_M_finish.i, align 8
  %incdec.ptr.i = getelementptr inbounds %"class.std::__cxx11::basic_string", ptr %23, i64 1
  store ptr %incdec.ptr.i, ptr %_M_finish.i, align 8
  br label %cleanup400.sink.split

if.else.i:                                        ; preds = %invoke.cont39
  invoke void @_ZNSt6vectorINSt7__cxx1112basic_stringIcSt11char_traitsIcESaIcEEESaIS5_EE17_M_realloc_insertIJS5_EEEvN9__gnu_cxx17__normal_iteratorIPS5_S7_EEDpOT_(ptr noundef nonnull align 8 dereferenceable(24) %errors, ptr %21, ptr noundef nonnull align 8 dereferenceable(32) %ref.tmp24)
          to label %cleanup400.sink.split unwind label %lpad40

lpad:                                             ; preds = %call.i40.noexc, %cond.true, %invoke.cont10
  %24 = landingpad { ptr, i32 }
          cleanup
  br label %ehcleanup

lpad12:                                           ; preds = %cond.end
  %25 = landingpad { ptr, i32 }
          cleanup
  call void @_ZNSt7__cxx1112basic_stringIcSt11char_traitsIcESaIcEED1Ev(ptr noundef nonnull align 8 dereferenceable(32) %ref.tmp5) #25
  br label %ehcleanup

ehcleanup:                                        ; preds = %lpad, %lpad12
  %.pn = phi { ptr, i32 } [ %25, %lpad12 ], [ %24, %lpad ]
  br i1 %cmp.i, label %cleanup.action16, label %eh.resume

cleanup.action16:                                 ; preds = %ehcleanup.thread, %ehcleanup
  %.pn310 = phi { ptr, i32 } [ %4, %ehcleanup.thread ], [ %.pn, %ehcleanup ]
  call void @_ZNSaIcED1Ev(ptr noundef nonnull align 1 dereferenceable(1) %ref.tmp6) #25
  br label %eh.resume

lpad26:                                           ; preds = %invoke.cont34, %invoke.cont48
  %26 = landingpad { ptr, i32 }
          cleanup
  br label %ehcleanup401

lpad40:                                           ; preds = %if.else.i
  %27 = landingpad { ptr, i32 }
          cleanup
  call void @_ZNSt7__cxx1112basic_stringIcSt11char_traitsIcESaIcEED1Ev(ptr noundef nonnull align 8 dereferenceable(32) %ref.tmp24) #25
  br label %ehcleanup401

invoke.cont48:                                    ; preds = %land.rhs.i.i, %_ZNSt11char_traitsIcE7compareEPKcS2_m.exit.i.i.i
  %ads_call_state_.i = getelementptr inbounds %"class.grpc_core::XdsClient::ChannelState::AdsCallState::AdsResponseParser", ptr %this, i64 0, i32 1
  %28 = load ptr, ptr %ads_call_state_.i, align 8
  %parent_.i.i.i = getelementptr inbounds %"class.grpc_core::XdsClient::ChannelState::AdsCallState", ptr %28, i64 0, i32 1
  %29 = load ptr, ptr %parent_.i.i.i, align 8
  %chand_.i.i.i.i = getelementptr inbounds %"class.grpc_core::XdsClient::ChannelState::RetryableCall", ptr %29, i64 0, i32 2
  %30 = load ptr, ptr %chand_.i.i.i.i, align 8
  %xds_client_.i.i.i = getelementptr inbounds %"class.grpc_core::XdsClient::ChannelState", ptr %30, i64 0, i32 1
  %31 = load <2 x ptr>, ptr %xds_client_.i.i.i, align 8
  store <2 x ptr> %31, ptr %context, align 16
  %tracer = getelementptr inbounds %"struct.grpc_core::XdsResourceType::DecodeContext", ptr %context, i64 0, i32 2
  store ptr @_ZN9grpc_core21grpc_xds_client_traceE, ptr %tracer, align 16
  %32 = load ptr, ptr %parent_.i.i.i, align 8
  %chand_.i.i.i.i53 = getelementptr inbounds %"class.grpc_core::XdsClient::ChannelState::RetryableCall", ptr %32, i64 0, i32 2
  %33 = load ptr, ptr %chand_.i.i.i.i53, align 8
  %xds_client_.i.i.i54 = getelementptr inbounds %"class.grpc_core::XdsClient::ChannelState", ptr %33, i64 0, i32 1
  %34 = load ptr, ptr %xds_client_.i.i.i54, align 8
  %symtab = getelementptr inbounds %"struct.grpc_core::XdsResourceType::DecodeContext", ptr %context, i64 0, i32 3
  %add.ptr.i.i.i.i.i.i = getelementptr inbounds %"class.grpc_core::XdsClient", ptr %34, i64 0, i32 11, i32 0, i32 0, i32 0, i32 0, i32 0, i32 1
  %35 = load ptr, ptr %add.ptr.i.i.i.i.i.i, align 8
  store ptr %35, ptr %symtab, align 8
  %arena52 = getelementptr inbounds %"struct.grpc_core::XdsResourceType::DecodeContext", ptr %context, i64 0, i32 4
  store ptr %arena, ptr %arena52, align 16
  %36 = load ptr, ptr %result_, align 8
  %agg.tmp54.sroa.0.0.copyload = load i64, ptr %serialized_resource, align 8
  %agg.tmp54.sroa.2.0.serialized_resource.sroa_idx = getelementptr inbounds i8, ptr %serialized_resource, i64 8
  %agg.tmp54.sroa.2.0.copyload = load ptr, ptr %agg.tmp54.sroa.2.0.serialized_resource.sroa_idx, align 8
  %vtable = load ptr, ptr %36, align 8
  %vfn = getelementptr inbounds ptr, ptr %vtable, i64 3
  %37 = load ptr, ptr %vfn, align 8
  invoke void %37(ptr nonnull sret(%"struct.grpc_core::XdsResourceType::DecodeResult") align 8 %decode_result, ptr noundef nonnull align 8 dereferenceable(8) %36, ptr noundef nonnull align 8 dereferenceable(40) %context, i64 %agg.tmp54.sroa.0.0.copyload, ptr %agg.tmp54.sroa.2.0.copyload)
          to label %invoke.cont55 unwind label %lpad26

invoke.cont55:                                    ; preds = %invoke.cont48
  %38 = load i64, ptr %resource_name, align 8
  %cmp.i55 = icmp eq i64 %38, 0
  br i1 %cmp.i55, label %if.then57, label %if.end98

if.then57:                                        ; preds = %invoke.cont55
  %_M_engaged.i.i = getelementptr inbounds %"struct.std::_Optional_payload_base.179", ptr %decode_result, i64 0, i32 1
  %39 = load i8, ptr %_M_engaged.i.i, align 8
  %40 = and i8 %39, 1
  %tobool.i.i.not = icmp eq i8 %40, 0
  br i1 %tobool.i.i.not, label %if.else, label %invoke.cont67

invoke.cont67:                                    ; preds = %if.then57
  %call63 = call { i64, ptr } @_ZNKSt7__cxx1112basic_stringIcSt11char_traitsIcESaIcEEcvSt17basic_string_viewIcS2_EEv(ptr noundef nonnull align 8 dereferenceable(32) %decode_result) #25
  %41 = extractvalue { i64, ptr } %call63, 0
  %42 = extractvalue { i64, ptr } %call63, 1
  store i64 %41, ptr %resource_name, align 8
  %ref.tmp60.sroa.2.0.resource_name.sroa_idx = getelementptr inbounds i8, ptr %resource_name, i64 8
  store ptr %42, ptr %ref.tmp60.sroa.2.0.resource_name.sroa_idx, align 8
  %digits_.i57 = getelementptr inbounds %"class.absl::lts_20230802::AlphaNum", ptr %ref.tmp68, i64 0, i32 1
  %call.i5863 = invoke noundef ptr @_ZN4absl12lts_2023080216numbers_internal15FastIntToBufferEmPc(i64 noundef %idx, ptr noundef nonnull %digits_.i57)
          to label %invoke.cont76 unwind label %lpad66

invoke.cont76:                                    ; preds = %invoke.cont67
  %sub.ptr.lhs.cast.i59 = ptrtoint ptr %call.i5863 to i64
  %sub.ptr.rhs.cast.i60 = ptrtoint ptr %digits_.i57 to i64
  %sub.ptr.sub.i61 = sub i64 %sub.ptr.lhs.cast.i59, %sub.ptr.rhs.cast.i60
  store i64 %sub.ptr.sub.i61, ptr %ref.tmp68, align 8
  %_M_str.i.i62 = getelementptr inbounds %"class.std::basic_string_view", ptr %ref.tmp68, i64 0, i32 1
  store ptr %digits_.i57, ptr %_M_str.i.i62, align 8
  %agg.tmp73.sroa.0.0.copyload = load i64, ptr %resource_name, align 8
  %agg.tmp73.sroa.2.0.copyload = load ptr, ptr %ref.tmp60.sroa.2.0.resource_name.sroa_idx, align 8
  call void @llvm.lifetime.start.p0(i64 80, ptr nonnull %ref.tmp.i67)
  store i64 15, ptr %ref.tmp.i67, align 8, !noalias !26
  %43 = getelementptr inbounds { i64, ptr }, ptr %ref.tmp.i67, i64 0, i32 1
  store ptr @.str.20, ptr %43, align 8, !noalias !26
  %arrayinit.element.i71 = getelementptr inbounds %"class.std::basic_string_view", ptr %ref.tmp.i67, i64 1
  store i64 %sub.ptr.sub.i61, ptr %arrayinit.element.i71, align 8, !noalias !26
  %44 = getelementptr inbounds %"class.std::basic_string_view", ptr %ref.tmp.i67, i64 1, i32 1
  store ptr %digits_.i57, ptr %44, align 8, !noalias !26
  %arrayinit.element2.i75 = getelementptr inbounds %"class.std::basic_string_view", ptr %ref.tmp.i67, i64 2
  store i64 2, ptr %arrayinit.element2.i75, align 8, !noalias !26
  %45 = getelementptr inbounds %"class.std::basic_string_view", ptr %ref.tmp.i67, i64 2, i32 1
  store ptr @.str.14, ptr %45, align 8, !noalias !26
  %arrayinit.element4.i79 = getelementptr inbounds %"class.std::basic_string_view", ptr %ref.tmp.i67, i64 3
  store i64 %agg.tmp73.sroa.0.0.copyload, ptr %arrayinit.element4.i79, align 8, !noalias !26
  %46 = getelementptr inbounds %"class.std::basic_string_view", ptr %ref.tmp.i67, i64 3, i32 1
  store ptr %agg.tmp73.sroa.2.0.copyload, ptr %46, align 8, !noalias !26
  %arrayinit.element6.i83 = getelementptr inbounds %"class.std::basic_string_view", ptr %ref.tmp.i67, i64 4
  store i64 2, ptr %arrayinit.element6.i83, align 8, !noalias !26
  %47 = getelementptr inbounds %"class.std::basic_string_view", ptr %ref.tmp.i67, i64 4, i32 1
  store ptr @.str.14, ptr %47, align 8, !noalias !26
  invoke void @_ZN4absl12lts_2023080216strings_internal9CatPiecesB5cxx11ESt16initializer_listISt17basic_string_viewIcSt11char_traitsIcEEE(ptr nonnull sret(%"class.std::__cxx11::basic_string") align 8 %ref.tmp64, ptr nonnull %ref.tmp.i67, i64 5)
          to label %invoke.cont77 unwind label %lpad66

invoke.cont77:                                    ; preds = %invoke.cont76
  call void @llvm.lifetime.end.p0(i64 80, ptr nonnull %ref.tmp.i67)
  %call78 = call noundef nonnull align 8 dereferenceable(32) ptr @_ZNSt7__cxx1112basic_stringIcSt11char_traitsIcESaIcEEaSEOS4_(ptr noundef nonnull align 8 dereferenceable(32) %error_prefix, ptr noundef nonnull align 8 dereferenceable(32) %ref.tmp64) #25
  call void @_ZNSt7__cxx1112basic_stringIcSt11char_traitsIcESaIcEED1Ev(ptr noundef nonnull align 8 dereferenceable(32) %ref.tmp64) #25
  br label %if.end98

lpad66:                                           ; preds = %invoke.cont76, %invoke.cont67, %invoke.cont122, %if.then104, %if.else
  %48 = landingpad { ptr, i32 }
          cleanup
  br label %ehcleanup399

if.else:                                          ; preds = %if.then57
  %errors80 = getelementptr inbounds %"class.grpc_core::XdsClient::ChannelState::AdsCallState::AdsResponseParser", ptr %this, i64 0, i32 3, i32 4
  %call.i88 = call { i64, ptr } @_ZNKSt7__cxx1112basic_stringIcSt11char_traitsIcESaIcEEcvSt17basic_string_viewIcS2_EEv(ptr noundef nonnull align 8 dereferenceable(32) %error_prefix) #25
  %49 = extractvalue { i64, ptr } %call.i88, 0
  store i64 %49, ptr %ref.tmp82, align 8
  %50 = getelementptr inbounds { i64, ptr }, ptr %ref.tmp82, i64 0, i32 1
  %51 = extractvalue { i64, ptr } %call.i88, 1
  store ptr %51, ptr %50, align 8
  %resource = getelementptr inbounds %"struct.grpc_core::XdsResourceType::DecodeResult", ptr %decode_result, i64 0, i32 1
  invoke void @_ZNK4absl12lts_202308026Status8ToStringB5cxx11ENS0_18StatusToStringModeE(ptr nonnull sret(%"class.std::__cxx11::basic_string") align 8 %ref.tmp85, ptr noundef nonnull align 8 dereferenceable(8) %resource, i32 noundef 1)
          to label %invoke.cont88 unwind label %lpad66

invoke.cont88:                                    ; preds = %if.else
  %call.i89 = call { i64, ptr } @_ZNKSt7__cxx1112basic_stringIcSt11char_traitsIcESaIcEEcvSt17basic_string_viewIcS2_EEv(ptr noundef nonnull align 8 dereferenceable(32) %ref.tmp85) #25
  %52 = extractvalue { i64, ptr } %call.i89, 0
  store i64 %52, ptr %ref.tmp84, align 8
  %53 = getelementptr inbounds { i64, ptr }, ptr %ref.tmp84, i64 0, i32 1
  %54 = extractvalue { i64, ptr } %call.i89, 1
  store ptr %54, ptr %53, align 8
  invoke void @_ZN4absl12lts_202308026StrCatB5cxx11ERKNS0_8AlphaNumES3_(ptr nonnull sret(%"class.std::__cxx11::basic_string") align 8 %ref.tmp81, ptr noundef nonnull align 8 dereferenceable(48) %ref.tmp82, ptr noundef nonnull align 8 dereferenceable(48) %ref.tmp84)
          to label %invoke.cont91 unwind label %lpad89

invoke.cont91:                                    ; preds = %invoke.cont88
  %_M_finish.i90 = getelementptr inbounds %"class.grpc_core::XdsClient::ChannelState::AdsCallState::AdsResponseParser", ptr %this, i64 0, i32 3, i32 4, i32 0, i32 0, i32 0, i32 1
  %55 = load ptr, ptr %_M_finish.i90, align 8
  %_M_end_of_storage.i91 = getelementptr inbounds %"class.grpc_core::XdsClient::ChannelState::AdsCallState::AdsResponseParser", ptr %this, i64 0, i32 3, i32 4, i32 0, i32 0, i32 0, i32 2
  %56 = load ptr, ptr %_M_end_of_storage.i91, align 8
  %cmp.not.i92 = icmp eq ptr %55, %56
  br i1 %cmp.not.i92, label %if.else.i96, label %if.then.i93

if.then.i93:                                      ; preds = %invoke.cont91
  call void @_ZNSt7__cxx1112basic_stringIcSt11char_traitsIcESaIcEEC1EOS4_(ptr noundef nonnull align 8 dereferenceable(32) %55, ptr noundef nonnull align 8 dereferenceable(32) %ref.tmp81) #25
  %57 = load ptr, ptr %_M_finish.i90, align 8
  %incdec.ptr.i94 = getelementptr inbounds %"class.std::__cxx11::basic_string", ptr %57, i64 1
  store ptr %incdec.ptr.i94, ptr %_M_finish.i90, align 8
  br label %invoke.cont93

if.else.i96:                                      ; preds = %invoke.cont91
  invoke void @_ZNSt6vectorINSt7__cxx1112basic_stringIcSt11char_traitsIcESaIcEEESaIS5_EE17_M_realloc_insertIJS5_EEEvN9__gnu_cxx17__normal_iteratorIPS5_S7_EEDpOT_(ptr noundef nonnull align 8 dereferenceable(24) %errors80, ptr %55, ptr noundef nonnull align 8 dereferenceable(32) %ref.tmp81)
          to label %invoke.cont93 unwind label %lpad92

invoke.cont93:                                    ; preds = %if.else.i96, %if.then.i93
  call void @_ZNSt7__cxx1112basic_stringIcSt11char_traitsIcESaIcEED1Ev(ptr noundef nonnull align 8 dereferenceable(32) %ref.tmp81) #25
  call void @_ZNSt7__cxx1112basic_stringIcSt11char_traitsIcESaIcEED1Ev(ptr noundef nonnull align 8 dereferenceable(32) %ref.tmp85) #25
  br label %cleanup398

lpad89:                                           ; preds = %invoke.cont88
  %58 = landingpad { ptr, i32 }
          cleanup
  br label %ehcleanup96

lpad92:                                           ; preds = %if.else.i96
  %59 = landingpad { ptr, i32 }
          cleanup
  call void @_ZNSt7__cxx1112basic_stringIcSt11char_traitsIcESaIcEED1Ev(ptr noundef nonnull align 8 dereferenceable(32) %ref.tmp81) #25
  br label %ehcleanup96

ehcleanup96:                                      ; preds = %lpad92, %lpad89
  %.pn18 = phi { ptr, i32 } [ %59, %lpad92 ], [ %58, %lpad89 ]
  call void @_ZNSt7__cxx1112basic_stringIcSt11char_traitsIcESaIcEED1Ev(ptr noundef nonnull align 8 dereferenceable(32) %ref.tmp85) #25
  br label %ehcleanup399

if.end98:                                         ; preds = %invoke.cont77, %invoke.cont55
  %resource99 = getelementptr inbounds %"struct.grpc_core::XdsResourceType::DecodeResult", ptr %decode_result, i64 0, i32 1
  %60 = load i64, ptr %resource99, align 8
  %cmp.i100 = icmp eq i64 %60, 0
  br i1 %cmp.i100, label %invoke.cont122, label %if.then104

if.then104:                                       ; preds = %if.end98
  %errors106 = getelementptr inbounds %"class.grpc_core::XdsClient::ChannelState::AdsCallState::AdsResponseParser", ptr %this, i64 0, i32 3, i32 4
  %call.i101 = call { i64, ptr } @_ZNKSt7__cxx1112basic_stringIcSt11char_traitsIcESaIcEEcvSt17basic_string_viewIcS2_EEv(ptr noundef nonnull align 8 dereferenceable(32) %error_prefix) #25
  %61 = extractvalue { i64, ptr } %call.i101, 0
  store i64 %61, ptr %ref.tmp108, align 8
  %62 = getelementptr inbounds { i64, ptr }, ptr %ref.tmp108, i64 0, i32 1
  %63 = extractvalue { i64, ptr } %call.i101, 1
  store ptr %63, ptr %62, align 8
  invoke void @_ZNK4absl12lts_202308026Status8ToStringB5cxx11ENS0_18StatusToStringModeE(ptr nonnull sret(%"class.std::__cxx11::basic_string") align 8 %ref.tmp111, ptr noundef nonnull align 8 dereferenceable(8) %resource99, i32 noundef 1)
          to label %invoke.cont112 unwind label %lpad66

invoke.cont112:                                   ; preds = %if.then104
  %call.i102 = call { i64, ptr } @_ZNKSt7__cxx1112basic_stringIcSt11char_traitsIcESaIcEEcvSt17basic_string_viewIcS2_EEv(ptr noundef nonnull align 8 dereferenceable(32) %ref.tmp111) #25
  %64 = extractvalue { i64, ptr } %call.i102, 0
  store i64 %64, ptr %ref.tmp110, align 8
  %65 = getelementptr inbounds { i64, ptr }, ptr %ref.tmp110, i64 0, i32 1
  %66 = extractvalue { i64, ptr } %call.i102, 1
  store ptr %66, ptr %65, align 8
  invoke void @_ZN4absl12lts_202308026StrCatB5cxx11ERKNS0_8AlphaNumES3_(ptr nonnull sret(%"class.std::__cxx11::basic_string") align 8 %ref.tmp107, ptr noundef nonnull align 8 dereferenceable(48) %ref.tmp108, ptr noundef nonnull align 8 dereferenceable(48) %ref.tmp110)
          to label %invoke.cont115 unwind label %lpad113

invoke.cont115:                                   ; preds = %invoke.cont112
  %_M_finish.i103 = getelementptr inbounds %"class.grpc_core::XdsClient::ChannelState::AdsCallState::AdsResponseParser", ptr %this, i64 0, i32 3, i32 4, i32 0, i32 0, i32 0, i32 1
  %67 = load ptr, ptr %_M_finish.i103, align 8
  %_M_end_of_storage.i104 = getelementptr inbounds %"class.grpc_core::XdsClient::ChannelState::AdsCallState::AdsResponseParser", ptr %this, i64 0, i32 3, i32 4, i32 0, i32 0, i32 0, i32 2
  %68 = load ptr, ptr %_M_end_of_storage.i104, align 8
  %cmp.not.i105 = icmp eq ptr %67, %68
  br i1 %cmp.not.i105, label %if.else.i109, label %if.then.i106

if.then.i106:                                     ; preds = %invoke.cont115
  call void @_ZNSt7__cxx1112basic_stringIcSt11char_traitsIcESaIcEEC1EOS4_(ptr noundef nonnull align 8 dereferenceable(32) %67, ptr noundef nonnull align 8 dereferenceable(32) %ref.tmp107) #25
  %69 = load ptr, ptr %_M_finish.i103, align 8
  %incdec.ptr.i107 = getelementptr inbounds %"class.std::__cxx11::basic_string", ptr %69, i64 1
  store ptr %incdec.ptr.i107, ptr %_M_finish.i103, align 8
  br label %invoke.cont117

if.else.i109:                                     ; preds = %invoke.cont115
  invoke void @_ZNSt6vectorINSt7__cxx1112basic_stringIcSt11char_traitsIcESaIcEEESaIS5_EE17_M_realloc_insertIJS5_EEEvN9__gnu_cxx17__normal_iteratorIPS5_S7_EEDpOT_(ptr noundef nonnull align 8 dereferenceable(24) %errors106, ptr %67, ptr noundef nonnull align 8 dereferenceable(32) %ref.tmp107)
          to label %invoke.cont117 unwind label %lpad116

invoke.cont117:                                   ; preds = %if.else.i109, %if.then.i106
  call void @_ZNSt7__cxx1112basic_stringIcSt11char_traitsIcESaIcEED1Ev(ptr noundef nonnull align 8 dereferenceable(32) %ref.tmp107) #25
  call void @_ZNSt7__cxx1112basic_stringIcSt11char_traitsIcESaIcEED1Ev(ptr noundef nonnull align 8 dereferenceable(32) %ref.tmp111) #25
  br label %invoke.cont122

lpad113:                                          ; preds = %invoke.cont112
  %70 = landingpad { ptr, i32 }
          cleanup
  br label %ehcleanup120

lpad116:                                          ; preds = %if.else.i109
  %71 = landingpad { ptr, i32 }
          cleanup
  call void @_ZNSt7__cxx1112basic_stringIcSt11char_traitsIcESaIcEED1Ev(ptr noundef nonnull align 8 dereferenceable(32) %ref.tmp107) #25
  br label %ehcleanup120

ehcleanup120:                                     ; preds = %lpad116, %lpad113
  %.pn20 = phi { ptr, i32 } [ %71, %lpad116 ], [ %70, %lpad113 ]
  call void @_ZNSt7__cxx1112basic_stringIcSt11char_traitsIcESaIcEED1Ev(ptr noundef nonnull align 8 dereferenceable(32) %ref.tmp111) #25
  br label %ehcleanup399

invoke.cont122:                                   ; preds = %if.end98, %invoke.cont117
  %72 = load ptr, ptr %ads_call_state_.i, align 8
  %parent_.i.i.i114 = getelementptr inbounds %"class.grpc_core::XdsClient::ChannelState::AdsCallState", ptr %72, i64 0, i32 1
  %73 = load ptr, ptr %parent_.i.i.i114, align 8
  %chand_.i.i.i.i115 = getelementptr inbounds %"class.grpc_core::XdsClient::ChannelState::RetryableCall", ptr %73, i64 0, i32 2
  %74 = load ptr, ptr %chand_.i.i.i.i115, align 8
  %xds_client_.i.i.i116 = getelementptr inbounds %"class.grpc_core::XdsClient::ChannelState", ptr %74, i64 0, i32 1
  %75 = load ptr, ptr %xds_client_.i.i.i116, align 8
  %agg.tmp124.sroa.0.0.copyload = load i64, ptr %resource_name, align 8
  %agg.tmp124.sroa.2.0.resource_name.sroa_idx = getelementptr inbounds i8, ptr %resource_name, i64 8
  %agg.tmp124.sroa.2.0.copyload = load ptr, ptr %agg.tmp124.sroa.2.0.resource_name.sroa_idx, align 8
  %76 = load ptr, ptr %result_, align 8
  invoke void @_ZN9grpc_core9XdsClient20ParseXdsResourceNameESt17basic_string_viewIcSt11char_traitsIcEEPKNS_15XdsResourceTypeE(ptr nonnull sret(%"class.absl::lts_20230802::StatusOr.186") align 8 %parsed_resource_name, ptr noundef nonnull align 8 dereferenceable(433) %75, i64 %agg.tmp124.sroa.0.0.copyload, ptr %agg.tmp124.sroa.2.0.copyload, ptr noundef %76)
          to label %invoke.cont127 unwind label %lpad66

invoke.cont127:                                   ; preds = %invoke.cont122
  %77 = load i64, ptr %parsed_resource_name, align 8
  %cmp.i.i117 = icmp eq i64 %77, 0
  br i1 %cmp.i.i117, label %if.end144, label %invoke.cont138

invoke.cont138:                                   ; preds = %invoke.cont127
  %errors133 = getelementptr inbounds %"class.grpc_core::XdsClient::ChannelState::AdsCallState::AdsResponseParser", ptr %this, i64 0, i32 3, i32 4
  %call.i118 = call { i64, ptr } @_ZNKSt7__cxx1112basic_stringIcSt11char_traitsIcESaIcEEcvSt17basic_string_viewIcS2_EEv(ptr noundef nonnull align 8 dereferenceable(32) %error_prefix) #25
  %78 = extractvalue { i64, ptr } %call.i118, 0
  store i64 %78, ptr %ref.tmp135, align 8
  %79 = getelementptr inbounds { i64, ptr }, ptr %ref.tmp135, i64 0, i32 1
  %80 = extractvalue { i64, ptr } %call.i118, 1
  store ptr %80, ptr %79, align 8
  store i64 30, ptr %ref.tmp137, align 8
  %81 = getelementptr inbounds { i64, ptr }, ptr %ref.tmp137, i64 0, i32 1
  store ptr @.str.25, ptr %81, align 8
  invoke void @_ZN4absl12lts_202308026StrCatB5cxx11ERKNS0_8AlphaNumES3_(ptr nonnull sret(%"class.std::__cxx11::basic_string") align 8 %ref.tmp134, ptr noundef nonnull align 8 dereferenceable(48) %ref.tmp135, ptr noundef nonnull align 8 dereferenceable(48) %ref.tmp137)
          to label %invoke.cont139 unwind label %lpad128

invoke.cont139:                                   ; preds = %invoke.cont138
  %_M_finish.i120 = getelementptr inbounds %"class.grpc_core::XdsClient::ChannelState::AdsCallState::AdsResponseParser", ptr %this, i64 0, i32 3, i32 4, i32 0, i32 0, i32 0, i32 1
  %82 = load ptr, ptr %_M_finish.i120, align 8
  %_M_end_of_storage.i121 = getelementptr inbounds %"class.grpc_core::XdsClient::ChannelState::AdsCallState::AdsResponseParser", ptr %this, i64 0, i32 3, i32 4, i32 0, i32 0, i32 0, i32 2
  %83 = load ptr, ptr %_M_end_of_storage.i121, align 8
  %cmp.not.i122 = icmp eq ptr %82, %83
  br i1 %cmp.not.i122, label %if.else.i126, label %if.then.i123

if.then.i123:                                     ; preds = %invoke.cont139
  call void @_ZNSt7__cxx1112basic_stringIcSt11char_traitsIcESaIcEEC1EOS4_(ptr noundef nonnull align 8 dereferenceable(32) %82, ptr noundef nonnull align 8 dereferenceable(32) %ref.tmp134) #25
  %84 = load ptr, ptr %_M_finish.i120, align 8
  %incdec.ptr.i124 = getelementptr inbounds %"class.std::__cxx11::basic_string", ptr %84, i64 1
  store ptr %incdec.ptr.i124, ptr %_M_finish.i120, align 8
  br label %invoke.cont141

if.else.i126:                                     ; preds = %invoke.cont139
  invoke void @_ZNSt6vectorINSt7__cxx1112basic_stringIcSt11char_traitsIcESaIcEEESaIS5_EE17_M_realloc_insertIJS5_EEEvN9__gnu_cxx17__normal_iteratorIPS5_S7_EEDpOT_(ptr noundef nonnull align 8 dereferenceable(24) %errors133, ptr %82, ptr noundef nonnull align 8 dereferenceable(32) %ref.tmp134)
          to label %invoke.cont141 unwind label %lpad140

invoke.cont141:                                   ; preds = %if.else.i126, %if.then.i123
  call void @_ZNSt7__cxx1112basic_stringIcSt11char_traitsIcESaIcEED1Ev(ptr noundef nonnull align 8 dereferenceable(32) %ref.tmp134) #25
  br label %cleanup

lpad128:                                          ; preds = %if.then.i.i277.invoke, %invoke.cont226, %land.lhs.true.i.i, %invoke.cont173, %invoke.cont383, %invoke.cont330, %invoke.cont309, %invoke.cont298, %invoke.cont263, %invoke.cont253, %invoke.cont248, %if.end237, %invoke.cont138
  %85 = landingpad { ptr, i32 }
          cleanup
  br label %ehcleanup397

lpad140:                                          ; preds = %if.else.i126
  %86 = landingpad { ptr, i32 }
          cleanup
  call void @_ZNSt7__cxx1112basic_stringIcSt11char_traitsIcESaIcEED1Ev(ptr noundef nonnull align 8 dereferenceable(32) %ref.tmp134) #25
  br label %ehcleanup397

if.end144:                                        ; preds = %invoke.cont127
  %87 = load ptr, ptr %ads_call_state_.i, align 8
  %_M_parent.i.i.i.i = getelementptr inbounds %"class.grpc_core::XdsClient::ChannelState::AdsCallState", ptr %87, i64 0, i32 7, i32 0, i32 0, i32 1, i32 0, i32 1
  %88 = load ptr, ptr %_M_parent.i.i.i.i, align 8
  %add.ptr.i.i.i130 = getelementptr inbounds %"class.grpc_core::XdsClient::ChannelState::AdsCallState", ptr %87, i64 0, i32 7, i32 0, i32 0, i32 1
  %cmp.not5.i.i.i = icmp eq ptr %88, null
  br i1 %cmp.not5.i.i.i, label %invoke.cont192, label %while.body.lr.ph.i.i.i

while.body.lr.ph.i.i.i:                           ; preds = %if.end144
  %89 = load ptr, ptr %result_, align 8
  br label %while.body.i.i.i

while.body.i.i.i:                                 ; preds = %while.body.i.i.i, %while.body.lr.ph.i.i.i
  %__x.addr.07.i.i.i = phi ptr [ %88, %while.body.lr.ph.i.i.i ], [ %__x.addr.1.i.i.i, %while.body.i.i.i ]
  %__y.addr.06.i.i.i = phi ptr [ %add.ptr.i.i.i130, %while.body.lr.ph.i.i.i ], [ %__y.addr.1.i.i.i, %while.body.i.i.i ]
  %_M_storage.i.i.i.i.i = getelementptr inbounds %"struct.std::_Rb_tree_node.411", ptr %__x.addr.07.i.i.i, i64 0, i32 1
  %90 = load ptr, ptr %_M_storage.i.i.i.i.i, align 8
  %cmp.i.i.i.i = icmp ult ptr %90, %89
  %_M_right.i.i.i.i = getelementptr inbounds %"struct.std::_Rb_tree_node_base", ptr %__x.addr.07.i.i.i, i64 0, i32 3
  %_M_left.i.i.i.i = getelementptr inbounds %"struct.std::_Rb_tree_node_base", ptr %__x.addr.07.i.i.i, i64 0, i32 2
  %__y.addr.1.i.i.i = select i1 %cmp.i.i.i.i, ptr %__y.addr.06.i.i.i, ptr %__x.addr.07.i.i.i
  %__x.addr.1.in.i.i.i = select i1 %cmp.i.i.i.i, ptr %_M_right.i.i.i.i, ptr %_M_left.i.i.i.i
  %__x.addr.1.i.i.i = load ptr, ptr %__x.addr.1.in.i.i.i, align 8
  %cmp.not.i.i.i = icmp eq ptr %__x.addr.1.i.i.i, null
  br i1 %cmp.not.i.i.i, label %_ZNSt8_Rb_treeIPKN9grpc_core15XdsResourceTypeESt4pairIKS3_NS0_9XdsClient12ChannelState12AdsCallState17ResourceTypeStateEESt10_Select1stISA_ESt4lessIS3_ESaISA_EE14_M_lower_boundEPSt13_Rb_tree_nodeISA_EPSt18_Rb_tree_node_baseRS5_.exit.i.i, label %while.body.i.i.i, !llvm.loop !15

_ZNSt8_Rb_treeIPKN9grpc_core15XdsResourceTypeESt4pairIKS3_NS0_9XdsClient12ChannelState12AdsCallState17ResourceTypeStateEESt10_Select1stISA_ESt4lessIS3_ESaISA_EE14_M_lower_boundEPSt13_Rb_tree_nodeISA_EPSt18_Rb_tree_node_baseRS5_.exit.i.i: ; preds = %while.body.i.i.i
  %cmp.i.i.i131 = icmp eq ptr %__y.addr.1.i.i.i, %add.ptr.i.i.i130
  br i1 %cmp.i.i.i131, label %invoke.cont192, label %invoke.cont148

invoke.cont148:                                   ; preds = %_ZNSt8_Rb_treeIPKN9grpc_core15XdsResourceTypeESt4pairIKS3_NS0_9XdsClient12ChannelState12AdsCallState17ResourceTypeStateEESt10_Select1stISA_ESt4lessIS3_ESaISA_EE14_M_lower_boundEPSt13_Rb_tree_nodeISA_EPSt18_Rb_tree_node_baseRS5_.exit.i.i
  %_M_storage.i.i.i3.i.i = getelementptr inbounds %"struct.std::_Rb_tree_node.411", ptr %__y.addr.1.i.i.i, i64 0, i32 1
  %91 = load ptr, ptr %_M_storage.i.i.i3.i.i, align 8
  %cmp.i4.i.i = icmp ult ptr %89, %91
  br i1 %cmp.i4.i.i, label %invoke.cont192, label %invoke.cont158

invoke.cont158:                                   ; preds = %invoke.cont148
  %92 = getelementptr inbounds %"class.absl::lts_20230802::internal_statusor::StatusOrData.187", ptr %parsed_resource_name, i64 0, i32 1
  %_M_parent.i.i.i.i135 = getelementptr inbounds %"struct.std::_Rb_tree_node.411", ptr %__y.addr.1.i.i.i, i64 0, i32 1, i32 0, i64 64
  %93 = load ptr, ptr %_M_parent.i.i.i.i135, align 8
  %add.ptr.i.i.i136 = getelementptr inbounds %"struct.std::_Rb_tree_node.411", ptr %__y.addr.1.i.i.i, i64 0, i32 1, i32 0, i64 56
  %cmp.not6.i.i.i = icmp eq ptr %93, null
  br i1 %cmp.not6.i.i.i, label %invoke.cont192, label %while.body.i.i.i137

while.body.i.i.i137:                              ; preds = %invoke.cont158, %_ZNKSt4lessINSt7__cxx1112basic_stringIcSt11char_traitsIcESaIcEEEEclERKS5_S8_.exit.i.i.i
  %__x.addr.08.i.i.i = phi ptr [ %__x.addr.1.i.i.i144, %_ZNKSt4lessINSt7__cxx1112basic_stringIcSt11char_traitsIcESaIcEEEEclERKS5_S8_.exit.i.i.i ], [ %93, %invoke.cont158 ]
  %__y.addr.07.i.i.i = phi ptr [ %__y.addr.1.i.i.i142, %_ZNKSt4lessINSt7__cxx1112basic_stringIcSt11char_traitsIcESaIcEEEEclERKS5_S8_.exit.i.i.i ], [ %add.ptr.i.i.i136, %invoke.cont158 ]
  %_M_storage.i.i.i.i.i138 = getelementptr inbounds %"struct.std::_Rb_tree_node.413", ptr %__x.addr.08.i.i.i, i64 0, i32 1
  %call.i.i.i.i.i139 = invoke noundef i32 @_ZNKSt7__cxx1112basic_stringIcSt11char_traitsIcESaIcEE7compareERKS4_(ptr noundef nonnull align 8 dereferenceable(32) %_M_storage.i.i.i.i.i138, ptr noundef nonnull align 8 dereferenceable(32) %92)
          to label %_ZNKSt4lessINSt7__cxx1112basic_stringIcSt11char_traitsIcESaIcEEEEclERKS5_S8_.exit.i.i.i unwind label %terminate.lpad.i.i.i.i.i

terminate.lpad.i.i.i.i.i:                         ; preds = %while.body.i.i.i137
  %94 = landingpad { ptr, i32 }
          catch ptr null
  %95 = extractvalue { ptr, i32 } %94, 0
  call void @__clang_call_terminate(ptr %95) #27
  unreachable

_ZNKSt4lessINSt7__cxx1112basic_stringIcSt11char_traitsIcESaIcEEEEclERKS5_S8_.exit.i.i.i: ; preds = %while.body.i.i.i137
  %cmp.i.i.i.i.i = icmp slt i32 %call.i.i.i.i.i139, 0
  %_M_right.i.i.i.i140 = getelementptr inbounds %"struct.std::_Rb_tree_node_base", ptr %__x.addr.08.i.i.i, i64 0, i32 3
  %_M_left.i.i.i.i141 = getelementptr inbounds %"struct.std::_Rb_tree_node_base", ptr %__x.addr.08.i.i.i, i64 0, i32 2
  %__y.addr.1.i.i.i142 = select i1 %cmp.i.i.i.i.i, ptr %__y.addr.07.i.i.i, ptr %__x.addr.08.i.i.i
  %__x.addr.1.in.i.i.i143 = select i1 %cmp.i.i.i.i.i, ptr %_M_right.i.i.i.i140, ptr %_M_left.i.i.i.i141
  %__x.addr.1.i.i.i144 = load ptr, ptr %__x.addr.1.in.i.i.i143, align 8
  %cmp.not.i.i.i145 = icmp eq ptr %__x.addr.1.i.i.i144, null
  br i1 %cmp.not.i.i.i145, label %_ZNSt8_Rb_treeINSt7__cxx1112basic_stringIcSt11char_traitsIcESaIcEEESt4pairIKS5_St3mapIN9grpc_core9XdsClient14XdsResourceKeyESt10unique_ptrINSA_12ChannelState12AdsCallState13ResourceTimerENS9_16OrphanableDeleteEESt4lessISB_ESaIS6_IKSB_SH_EEEESt10_Select1stISO_ESI_IS5_ESaISO_EE14_M_lower_boundEPSt13_Rb_tree_nodeISO_EPSt18_Rb_tree_node_baseRS7_.exit.i.i, label %while.body.i.i.i137, !llvm.loop !29

_ZNSt8_Rb_treeINSt7__cxx1112basic_stringIcSt11char_traitsIcESaIcEEESt4pairIKS5_St3mapIN9grpc_core9XdsClient14XdsResourceKeyESt10unique_ptrINSA_12ChannelState12AdsCallState13ResourceTimerENS9_16OrphanableDeleteEESt4lessISB_ESaIS6_IKSB_SH_EEEESt10_Select1stISO_ESI_IS5_ESaISO_EE14_M_lower_boundEPSt13_Rb_tree_nodeISO_EPSt18_Rb_tree_node_baseRS7_.exit.i.i: ; preds = %_ZNKSt4lessINSt7__cxx1112basic_stringIcSt11char_traitsIcESaIcEEEEclERKS5_S8_.exit.i.i.i
  %cmp.i.i.i146 = icmp eq ptr %__y.addr.1.i.i.i142, %add.ptr.i.i.i136
  br i1 %cmp.i.i.i146, label %invoke.cont192, label %lor.lhs.false.i.i147

lor.lhs.false.i.i147:                             ; preds = %_ZNSt8_Rb_treeINSt7__cxx1112basic_stringIcSt11char_traitsIcESaIcEEESt4pairIKS5_St3mapIN9grpc_core9XdsClient14XdsResourceKeyESt10unique_ptrINSA_12ChannelState12AdsCallState13ResourceTimerENS9_16OrphanableDeleteEESt4lessISB_ESaIS6_IKSB_SH_EEEESt10_Select1stISO_ESI_IS5_ESaISO_EE14_M_lower_boundEPSt13_Rb_tree_nodeISO_EPSt18_Rb_tree_node_baseRS7_.exit.i.i
  %_M_storage.i.i.i3.i.i148 = getelementptr inbounds %"struct.std::_Rb_tree_node.413", ptr %__y.addr.1.i.i.i142, i64 0, i32 1
  %call.i.i.i.i149 = invoke noundef i32 @_ZNKSt7__cxx1112basic_stringIcSt11char_traitsIcESaIcEE7compareERKS4_(ptr noundef nonnull align 8 dereferenceable(32) %92, ptr noundef nonnull align 8 dereferenceable(32) %_M_storage.i.i.i3.i.i148)
          to label %invoke.cont160 unwind label %terminate.lpad.i.i.i.i

terminate.lpad.i.i.i.i:                           ; preds = %lor.lhs.false.i.i147
  %96 = landingpad { ptr, i32 }
          catch ptr null
  %97 = extractvalue { ptr, i32 } %96, 0
  call void @__clang_call_terminate(ptr %97) #27
  unreachable

invoke.cont160:                                   ; preds = %lor.lhs.false.i.i147
  %cmp.i.i.i.i150 = icmp slt i32 %call.i.i.i.i149, 0
  br i1 %cmp.i.i.i.i150, label %invoke.cont192, label %if.then170

if.then170:                                       ; preds = %invoke.cont160
  %98 = load i64, ptr %parsed_resource_name, align 8
  %cmp.i.i.i.i157 = icmp eq i64 %98, 0
  br i1 %cmp.i.i.i.i157, label %invoke.cont173, label %if.then.i.i277.invoke

invoke.cont173:                                   ; preds = %if.then170
  %second172 = getelementptr inbounds %"struct.std::_Rb_tree_node.413", ptr %__y.addr.1.i.i.i142, i64 0, i32 1, i32 0, i64 32
  %key = getelementptr inbounds %"class.absl::lts_20230802::internal_statusor::StatusOrData.187", ptr %parsed_resource_name, i64 0, i32 1, i32 0, i32 1
  %call.i161162 = invoke ptr @_ZNSt8_Rb_treeIN9grpc_core9XdsClient14XdsResourceKeyESt4pairIKS2_St10unique_ptrINS1_12ChannelState12AdsCallState13ResourceTimerENS0_16OrphanableDeleteEEESt10_Select1stISB_ESt4lessIS2_ESaISB_EE4findERS4_(ptr noundef nonnull align 8 dereferenceable(48) %second172, ptr noundef nonnull align 8 dereferenceable(56) %key)
          to label %invoke.cont175 unwind label %lpad128

invoke.cont175:                                   ; preds = %invoke.cont173
  %add.ptr.i.i164 = getelementptr inbounds %"struct.std::_Rb_tree_node.413", ptr %__y.addr.1.i.i.i142, i64 0, i32 1, i32 0, i64 40
  %cmp.i165.not = icmp eq ptr %call.i161162, %add.ptr.i.i164
  br i1 %cmp.i165.not, label %invoke.cont192, label %if.then184

if.then184:                                       ; preds = %invoke.cont175
  %second186 = getelementptr inbounds %"struct.std::_Rb_tree_node.415", ptr %call.i161162, i64 0, i32 1, i32 0, i64 56
  %99 = load ptr, ptr %second186, align 8
  %resource_seen_.i = getelementptr inbounds %"class.grpc_core::XdsClient::ChannelState::AdsCallState::ResourceTimer", ptr %99, i64 0, i32 5
  store i8 1, ptr %resource_seen_.i, align 1
  %_M_engaged.i.i.i.i = getelementptr inbounds %"class.grpc_core::XdsClient::ChannelState::AdsCallState::ResourceTimer", ptr %99, i64 0, i32 7, i32 0, i32 0, i32 0, i32 1
  %100 = load i8, ptr %_M_engaged.i.i.i.i, align 8
  %101 = and i8 %100, 1
  %tobool.i.i.not.i.i = icmp eq i8 %101, 0
  br i1 %tobool.i.i.not.i.i, label %invoke.cont192, label %land.lhs.true.i.i

land.lhs.true.i.i:                                ; preds = %if.then184
  %timer_handle_.i.i = getelementptr inbounds %"class.grpc_core::XdsClient::ChannelState::AdsCallState::ResourceTimer", ptr %99, i64 0, i32 7
  %ads_calld_.i.i = getelementptr inbounds %"class.grpc_core::XdsClient::ChannelState::AdsCallState::ResourceTimer", ptr %99, i64 0, i32 3
  %102 = load ptr, ptr %ads_calld_.i.i, align 8
  %parent_.i.i.i.i = getelementptr inbounds %"class.grpc_core::XdsClient::ChannelState::AdsCallState", ptr %102, i64 0, i32 1
  %103 = load ptr, ptr %parent_.i.i.i.i, align 8
  %chand_.i.i.i.i.i = getelementptr inbounds %"class.grpc_core::XdsClient::ChannelState::RetryableCall", ptr %103, i64 0, i32 2
  %104 = load ptr, ptr %chand_.i.i.i.i.i, align 8
  %xds_client_.i.i.i.i = getelementptr inbounds %"class.grpc_core::XdsClient::ChannelState", ptr %104, i64 0, i32 1
  %105 = load ptr, ptr %xds_client_.i.i.i.i, align 8
  %engine_.i.i.i = getelementptr inbounds %"class.grpc_core::XdsClient", ptr %105, i64 0, i32 8
  %106 = load ptr, ptr %engine_.i.i.i, align 8
  %agg.tmp.sroa.0.0.copyload.i.i = load i64, ptr %timer_handle_.i.i, align 8
  %agg.tmp.sroa.2.0.call6.sroa_idx.i.i = getelementptr inbounds %"class.grpc_core::XdsClient::ChannelState::AdsCallState::ResourceTimer", ptr %99, i64 0, i32 7, i32 0, i32 0, i32 0, i32 0, i32 0, i32 0, i64 1
  %agg.tmp.sroa.2.0.copyload.i.i = load i64, ptr %agg.tmp.sroa.2.0.call6.sroa_idx.i.i, align 8
  %vtable.i.i = load ptr, ptr %106, align 8
  %vfn.i.i = getelementptr inbounds ptr, ptr %vtable.i.i, i64 11
  %107 = load ptr, ptr %vfn.i.i, align 8
  %call7.i.i168 = invoke noundef zeroext i1 %107(ptr noundef nonnull align 8 dereferenceable(24) %106, i64 %agg.tmp.sroa.0.0.copyload.i.i, i64 %agg.tmp.sroa.2.0.copyload.i.i)
          to label %call7.i.i.noexc unwind label %lpad128

call7.i.i.noexc:                                  ; preds = %land.lhs.true.i.i
  br i1 %call7.i.i168, label %if.then.i.i167, label %invoke.cont192

if.then.i.i167:                                   ; preds = %call7.i.i.noexc
  %108 = load i8, ptr %_M_engaged.i.i.i.i, align 8
  %109 = and i8 %108, 1
  %tobool.not.i.i.i.i.i = icmp eq i8 %109, 0
  br i1 %tobool.not.i.i.i.i.i, label %invoke.cont192, label %if.then.i.i.i.i.i

if.then.i.i.i.i.i:                                ; preds = %if.then.i.i167
  store i8 0, ptr %_M_engaged.i.i.i.i, align 8
  br label %invoke.cont192

invoke.cont192:                                   ; preds = %invoke.cont158, %_ZNSt8_Rb_treeINSt7__cxx1112basic_stringIcSt11char_traitsIcESaIcEEESt4pairIKS5_St3mapIN9grpc_core9XdsClient14XdsResourceKeyESt10unique_ptrINSA_12ChannelState12AdsCallState13ResourceTimerENS9_16OrphanableDeleteEESt4lessISB_ESaIS6_IKSB_SH_EEEESt10_Select1stISO_ESI_IS5_ESaISO_EE14_M_lower_boundEPSt13_Rb_tree_nodeISO_EPSt18_Rb_tree_node_baseRS7_.exit.i.i, %if.end144, %_ZNSt8_Rb_treeIPKN9grpc_core15XdsResourceTypeESt4pairIKS3_NS0_9XdsClient12ChannelState12AdsCallState17ResourceTypeStateEESt10_Select1stISA_ESt4lessIS3_ESaISA_EE14_M_lower_boundEPSt13_Rb_tree_nodeISA_EPSt18_Rb_tree_node_baseRS5_.exit.i.i, %invoke.cont148, %invoke.cont175, %invoke.cont160, %if.then184, %call7.i.i.noexc, %if.then.i.i167, %if.then.i.i.i.i.i
  %110 = load i64, ptr %parsed_resource_name, align 8
  %cmp.i.i.i.i173 = icmp eq i64 %110, 0
  br i1 %cmp.i.i.i.i173, label %invoke.cont194, label %if.then.i.i277.invoke

invoke.cont194:                                   ; preds = %invoke.cont192
  %111 = load ptr, ptr %ads_call_state_.i, align 8
  %parent_.i.i.i170 = getelementptr inbounds %"class.grpc_core::XdsClient::ChannelState::AdsCallState", ptr %111, i64 0, i32 1
  %112 = load ptr, ptr %parent_.i.i.i170, align 8
  %chand_.i.i.i.i171 = getelementptr inbounds %"class.grpc_core::XdsClient::ChannelState::RetryableCall", ptr %112, i64 0, i32 2
  %113 = load ptr, ptr %chand_.i.i.i.i171, align 8
  %xds_client_.i.i.i172 = getelementptr inbounds %"class.grpc_core::XdsClient::ChannelState", ptr %113, i64 0, i32 1
  %114 = load ptr, ptr %xds_client_.i.i.i172, align 8
  %115 = getelementptr inbounds %"class.absl::lts_20230802::internal_statusor::StatusOrData.187", ptr %parsed_resource_name, i64 0, i32 1
  %_M_parent.i.i.i.i177 = getelementptr inbounds %"class.grpc_core::XdsClient", ptr %114, i64 0, i32 13, i32 0, i32 0, i32 1, i32 0, i32 1
  %116 = load ptr, ptr %_M_parent.i.i.i.i177, align 8
  %add.ptr.i.i.i178 = getelementptr inbounds %"class.grpc_core::XdsClient", ptr %114, i64 0, i32 13, i32 0, i32 0, i32 1
  %cmp.not6.i.i.i179 = icmp eq ptr %116, null
  br i1 %cmp.not6.i.i.i179, label %invoke.cont201, label %while.body.i.i.i180

while.body.i.i.i180:                              ; preds = %invoke.cont194, %_ZNKSt4lessINSt7__cxx1112basic_stringIcSt11char_traitsIcESaIcEEEEclERKS5_S8_.exit.i.i.i186
  %__x.addr.08.i.i.i181 = phi ptr [ %__x.addr.1.i.i.i192, %_ZNKSt4lessINSt7__cxx1112basic_stringIcSt11char_traitsIcESaIcEEEEclERKS5_S8_.exit.i.i.i186 ], [ %116, %invoke.cont194 ]
  %__y.addr.07.i.i.i182 = phi ptr [ %__y.addr.1.i.i.i190, %_ZNKSt4lessINSt7__cxx1112basic_stringIcSt11char_traitsIcESaIcEEEEclERKS5_S8_.exit.i.i.i186 ], [ %add.ptr.i.i.i178, %invoke.cont194 ]
  %_M_storage.i.i.i.i.i183 = getelementptr inbounds %"struct.std::_Rb_tree_node.457", ptr %__x.addr.08.i.i.i181, i64 0, i32 1
  %call.i.i.i.i.i184 = invoke noundef i32 @_ZNKSt7__cxx1112basic_stringIcSt11char_traitsIcESaIcEE7compareERKS4_(ptr noundef nonnull align 8 dereferenceable(32) %_M_storage.i.i.i.i.i183, ptr noundef nonnull align 8 dereferenceable(32) %115)
          to label %_ZNKSt4lessINSt7__cxx1112basic_stringIcSt11char_traitsIcESaIcEEEEclERKS5_S8_.exit.i.i.i186 unwind label %terminate.lpad.i.i.i.i.i185

terminate.lpad.i.i.i.i.i185:                      ; preds = %while.body.i.i.i180
  %117 = landingpad { ptr, i32 }
          catch ptr null
  %118 = extractvalue { ptr, i32 } %117, 0
  call void @__clang_call_terminate(ptr %118) #27
  unreachable

_ZNKSt4lessINSt7__cxx1112basic_stringIcSt11char_traitsIcESaIcEEEEclERKS5_S8_.exit.i.i.i186: ; preds = %while.body.i.i.i180
  %cmp.i.i.i.i.i187 = icmp slt i32 %call.i.i.i.i.i184, 0
  %_M_right.i.i.i.i188 = getelementptr inbounds %"struct.std::_Rb_tree_node_base", ptr %__x.addr.08.i.i.i181, i64 0, i32 3
  %_M_left.i.i.i.i189 = getelementptr inbounds %"struct.std::_Rb_tree_node_base", ptr %__x.addr.08.i.i.i181, i64 0, i32 2
  %__y.addr.1.i.i.i190 = select i1 %cmp.i.i.i.i.i187, ptr %__y.addr.07.i.i.i182, ptr %__x.addr.08.i.i.i181
  %__x.addr.1.in.i.i.i191 = select i1 %cmp.i.i.i.i.i187, ptr %_M_right.i.i.i.i188, ptr %_M_left.i.i.i.i189
  %__x.addr.1.i.i.i192 = load ptr, ptr %__x.addr.1.in.i.i.i191, align 8
  %cmp.not.i.i.i193 = icmp eq ptr %__x.addr.1.i.i.i192, null
  br i1 %cmp.not.i.i.i193, label %_ZNSt8_Rb_treeINSt7__cxx1112basic_stringIcSt11char_traitsIcESaIcEEESt4pairIKS5_N9grpc_core9XdsClient14AuthorityStateEESt10_Select1stISB_ESt4lessIS5_ESaISB_EE14_M_lower_boundEPSt13_Rb_tree_nodeISB_EPSt18_Rb_tree_node_baseRS7_.exit.i.i, label %while.body.i.i.i180, !llvm.loop !30

_ZNSt8_Rb_treeINSt7__cxx1112basic_stringIcSt11char_traitsIcESaIcEEESt4pairIKS5_N9grpc_core9XdsClient14AuthorityStateEESt10_Select1stISB_ESt4lessIS5_ESaISB_EE14_M_lower_boundEPSt13_Rb_tree_nodeISB_EPSt18_Rb_tree_node_baseRS7_.exit.i.i: ; preds = %_ZNKSt4lessINSt7__cxx1112basic_stringIcSt11char_traitsIcESaIcEEEEclERKS5_S8_.exit.i.i.i186
  %cmp.i.i.i194 = icmp eq ptr %__y.addr.1.i.i.i190, %add.ptr.i.i.i178
  br i1 %cmp.i.i.i194, label %invoke.cont201, label %lor.lhs.false.i.i195

lor.lhs.false.i.i195:                             ; preds = %_ZNSt8_Rb_treeINSt7__cxx1112basic_stringIcSt11char_traitsIcESaIcEEESt4pairIKS5_N9grpc_core9XdsClient14AuthorityStateEESt10_Select1stISB_ESt4lessIS5_ESaISB_EE14_M_lower_boundEPSt13_Rb_tree_nodeISB_EPSt18_Rb_tree_node_baseRS7_.exit.i.i
  %_M_storage.i.i.i3.i.i196 = getelementptr inbounds %"struct.std::_Rb_tree_node.457", ptr %__y.addr.1.i.i.i190, i64 0, i32 1
  %call.i.i.i.i197 = invoke noundef i32 @_ZNKSt7__cxx1112basic_stringIcSt11char_traitsIcESaIcEE7compareERKS4_(ptr noundef nonnull align 8 dereferenceable(32) %115, ptr noundef nonnull align 8 dereferenceable(32) %_M_storage.i.i.i3.i.i196)
          to label %_ZNKSt4lessINSt7__cxx1112basic_stringIcSt11char_traitsIcESaIcEEEEclERKS5_S8_.exit.i.i199 unwind label %terminate.lpad.i.i.i.i198

terminate.lpad.i.i.i.i198:                        ; preds = %lor.lhs.false.i.i195
  %119 = landingpad { ptr, i32 }
          catch ptr null
  %120 = extractvalue { ptr, i32 } %119, 0
  call void @__clang_call_terminate(ptr %120) #27
  unreachable

_ZNKSt4lessINSt7__cxx1112basic_stringIcSt11char_traitsIcESaIcEEEEclERKS5_S8_.exit.i.i199: ; preds = %lor.lhs.false.i.i195
  %cmp.i.i.i.i200 = icmp slt i32 %call.i.i.i.i197, 0
  %spec.select.i.i201 = select i1 %cmp.i.i.i.i200, ptr %add.ptr.i.i.i178, ptr %__y.addr.1.i.i.i190
  br label %invoke.cont201

invoke.cont201:                                   ; preds = %invoke.cont194, %_ZNSt8_Rb_treeINSt7__cxx1112basic_stringIcSt11char_traitsIcESaIcEEESt4pairIKS5_N9grpc_core9XdsClient14AuthorityStateEESt10_Select1stISB_ESt4lessIS5_ESaISB_EE14_M_lower_boundEPSt13_Rb_tree_nodeISB_EPSt18_Rb_tree_node_baseRS7_.exit.i.i, %_ZNKSt4lessINSt7__cxx1112basic_stringIcSt11char_traitsIcESaIcEEEEclERKS5_S8_.exit.i.i199
  %retval.sroa.0.0.i.i202 = phi ptr [ %add.ptr.i.i.i178, %_ZNSt8_Rb_treeINSt7__cxx1112basic_stringIcSt11char_traitsIcESaIcEEESt4pairIKS5_N9grpc_core9XdsClient14AuthorityStateEESt10_Select1stISB_ESt4lessIS5_ESaISB_EE14_M_lower_boundEPSt13_Rb_tree_nodeISB_EPSt18_Rb_tree_node_baseRS7_.exit.i.i ], [ %add.ptr.i.i.i178, %invoke.cont194 ], [ %spec.select.i.i201, %_ZNKSt4lessINSt7__cxx1112basic_stringIcSt11char_traitsIcESaIcEEEEclERKS5_S8_.exit.i.i199 ]
  %121 = load ptr, ptr %ads_call_state_.i, align 8
  %parent_.i.i.i204 = getelementptr inbounds %"class.grpc_core::XdsClient::ChannelState::AdsCallState", ptr %121, i64 0, i32 1
  %122 = load ptr, ptr %parent_.i.i.i204, align 8
  %chand_.i.i.i.i205 = getelementptr inbounds %"class.grpc_core::XdsClient::ChannelState::RetryableCall", ptr %122, i64 0, i32 2
  %123 = load ptr, ptr %chand_.i.i.i.i205, align 8
  %xds_client_.i.i.i206 = getelementptr inbounds %"class.grpc_core::XdsClient::ChannelState", ptr %123, i64 0, i32 1
  %124 = load ptr, ptr %xds_client_.i.i.i206, align 8
  %add.ptr.i.i207 = getelementptr inbounds %"class.grpc_core::XdsClient", ptr %124, i64 0, i32 13, i32 0, i32 0, i32 1
  %cmp.i208 = icmp eq ptr %retval.sroa.0.0.i.i202, %add.ptr.i.i207
  br i1 %cmp.i208, label %cleanup, label %if.end208

if.end208:                                        ; preds = %invoke.cont201
  %_M_parent.i.i.i.i210 = getelementptr inbounds %"struct.std::_Rb_tree_node.457", ptr %retval.sroa.0.0.i.i202, i64 0, i32 1, i32 0, i64 56
  %125 = load ptr, ptr %_M_parent.i.i.i.i210, align 8
  %add.ptr.i.i.i211 = getelementptr inbounds %"struct.std::_Rb_tree_node.457", ptr %retval.sroa.0.0.i.i202, i64 0, i32 1, i32 0, i64 48
  %cmp.not5.i.i.i212 = icmp eq ptr %125, null
  br i1 %cmp.not5.i.i.i212, label %cleanup, label %while.body.lr.ph.i.i.i213

while.body.lr.ph.i.i.i213:                        ; preds = %if.end208
  %126 = load ptr, ptr %result_, align 8
  br label %while.body.i.i.i214

while.body.i.i.i214:                              ; preds = %while.body.i.i.i214, %while.body.lr.ph.i.i.i213
  %__x.addr.07.i.i.i215 = phi ptr [ %125, %while.body.lr.ph.i.i.i213 ], [ %__x.addr.1.i.i.i223, %while.body.i.i.i214 ]
  %__y.addr.06.i.i.i216 = phi ptr [ %add.ptr.i.i.i211, %while.body.lr.ph.i.i.i213 ], [ %__y.addr.1.i.i.i221, %while.body.i.i.i214 ]
  %_M_storage.i.i.i.i.i217 = getelementptr inbounds %"struct.std::_Rb_tree_node.459", ptr %__x.addr.07.i.i.i215, i64 0, i32 1
  %127 = load ptr, ptr %_M_storage.i.i.i.i.i217, align 8
  %cmp.i.i.i.i218 = icmp ult ptr %127, %126
  %_M_right.i.i.i.i219 = getelementptr inbounds %"struct.std::_Rb_tree_node_base", ptr %__x.addr.07.i.i.i215, i64 0, i32 3
  %_M_left.i.i.i.i220 = getelementptr inbounds %"struct.std::_Rb_tree_node_base", ptr %__x.addr.07.i.i.i215, i64 0, i32 2
  %__y.addr.1.i.i.i221 = select i1 %cmp.i.i.i.i218, ptr %__y.addr.06.i.i.i216, ptr %__x.addr.07.i.i.i215
  %__x.addr.1.in.i.i.i222 = select i1 %cmp.i.i.i.i218, ptr %_M_right.i.i.i.i219, ptr %_M_left.i.i.i.i220
  %__x.addr.1.i.i.i223 = load ptr, ptr %__x.addr.1.in.i.i.i222, align 8
  %cmp.not.i.i.i224 = icmp eq ptr %__x.addr.1.i.i.i223, null
  br i1 %cmp.not.i.i.i224, label %_ZNSt8_Rb_treeIPKN9grpc_core15XdsResourceTypeESt4pairIKS3_St3mapINS0_9XdsClient14XdsResourceKeyENS7_13ResourceStateESt4lessIS8_ESaIS4_IKS8_S9_EEEESt10_Select1stISG_ESA_IS3_ESaISG_EE14_M_lower_boundEPSt13_Rb_tree_nodeISG_EPSt18_Rb_tree_node_baseRS5_.exit.i.i, label %while.body.i.i.i214, !llvm.loop !31

_ZNSt8_Rb_treeIPKN9grpc_core15XdsResourceTypeESt4pairIKS3_St3mapINS0_9XdsClient14XdsResourceKeyENS7_13ResourceStateESt4lessIS8_ESaIS4_IKS8_S9_EEEESt10_Select1stISG_ESA_IS3_ESaISG_EE14_M_lower_boundEPSt13_Rb_tree_nodeISG_EPSt18_Rb_tree_node_baseRS5_.exit.i.i: ; preds = %while.body.i.i.i214
  %cmp.i.i.i225 = icmp eq ptr %__y.addr.1.i.i.i221, %add.ptr.i.i.i211
  br i1 %cmp.i.i.i225, label %cleanup, label %invoke.cont213

invoke.cont213:                                   ; preds = %_ZNSt8_Rb_treeIPKN9grpc_core15XdsResourceTypeESt4pairIKS3_St3mapINS0_9XdsClient14XdsResourceKeyENS7_13ResourceStateESt4lessIS8_ESaIS4_IKS8_S9_EEEESt10_Select1stISG_ESA_IS3_ESaISG_EE14_M_lower_boundEPSt13_Rb_tree_nodeISG_EPSt18_Rb_tree_node_baseRS5_.exit.i.i
  %_M_storage.i.i.i3.i.i227 = getelementptr inbounds %"struct.std::_Rb_tree_node.459", ptr %__y.addr.1.i.i.i221, i64 0, i32 1
  %128 = load ptr, ptr %_M_storage.i.i.i3.i.i227, align 8
  %cmp.i4.i.i228 = icmp ult ptr %126, %128
  br i1 %cmp.i4.i.i228, label %cleanup, label %if.end222

if.end222:                                        ; preds = %invoke.cont213
  %129 = load i64, ptr %parsed_resource_name, align 8
  %cmp.i.i.i.i234 = icmp eq i64 %129, 0
  br i1 %cmp.i.i.i.i234, label %invoke.cont226, label %if.then.i.i277.invoke

invoke.cont226:                                   ; preds = %if.end222
  %second224 = getelementptr inbounds %"struct.std::_Rb_tree_node.459", ptr %__y.addr.1.i.i.i221, i64 0, i32 1, i32 0, i64 8
  %key228 = getelementptr inbounds %"class.absl::lts_20230802::internal_statusor::StatusOrData.187", ptr %parsed_resource_name, i64 0, i32 1, i32 0, i32 1
  %call.i238239 = invoke ptr @_ZNSt8_Rb_treeIN9grpc_core9XdsClient14XdsResourceKeyESt4pairIKS2_NS1_13ResourceStateEESt10_Select1stIS6_ESt4lessIS2_ESaIS6_EE4findERS4_(ptr noundef nonnull align 8 dereferenceable(48) %second224, ptr noundef nonnull align 8 dereferenceable(56) %key228)
          to label %invoke.cont229 unwind label %lpad128

invoke.cont229:                                   ; preds = %invoke.cont226
  %add.ptr.i.i240 = getelementptr inbounds %"struct.std::_Rb_tree_node.459", ptr %__y.addr.1.i.i.i221, i64 0, i32 1, i32 0, i64 16
  %cmp.i241 = icmp eq ptr %call.i238239, %add.ptr.i.i240
  br i1 %cmp.i241, label %cleanup, label %if.end237

if.end237:                                        ; preds = %invoke.cont229
  %second239 = getelementptr inbounds %"struct.std::_Rb_tree_node.461", ptr %call.i238239, i64 0, i32 1, i32 0, i64 56
  %130 = load ptr, ptr %result_, align 8
  %vtable242 = load ptr, ptr %130, align 8
  %vfn243 = getelementptr inbounds ptr, ptr %vtable242, i64 5
  %131 = load ptr, ptr %vfn243, align 8
  %call245 = invoke noundef zeroext i1 %131(ptr noundef nonnull align 8 dereferenceable(8) %130)
          to label %invoke.cont244 unwind label %lpad128

invoke.cont244:                                   ; preds = %if.end237
  br i1 %call245, label %if.then246, label %if.end258

if.then246:                                       ; preds = %invoke.cont244
  %132 = load i64, ptr %parsed_resource_name, align 8
  %cmp.i.i.i.i243 = icmp eq i64 %132, 0
  br i1 %cmp.i.i.i.i243, label %invoke.cont248, label %if.then.i.i277.invoke

invoke.cont248:                                   ; preds = %if.then246
  %resources_seen = getelementptr inbounds %"class.grpc_core::XdsClient::ChannelState::AdsCallState::AdsResponseParser", ptr %this, i64 0, i32 3, i32 5
  %call252 = invoke noundef nonnull align 8 dereferenceable(48) ptr @_ZNSt3mapINSt7__cxx1112basic_stringIcSt11char_traitsIcESaIcEEESt3setIN9grpc_core9XdsClient14XdsResourceKeyESt4lessIS9_ESaIS9_EESA_IS5_ESaISt4pairIKS5_SD_EEEixERSG_(ptr noundef nonnull align 8 dereferenceable(48) %resources_seen, ptr noundef nonnull align 8 dereferenceable(32) %115)
          to label %invoke.cont251 unwind label %lpad128

invoke.cont251:                                   ; preds = %invoke.cont248
  %133 = load i64, ptr %parsed_resource_name, align 8
  %cmp.i.i.i.i247 = icmp eq i64 %133, 0
  br i1 %cmp.i.i.i.i247, label %invoke.cont253, label %if.then.i.i277.invoke

invoke.cont253:                                   ; preds = %invoke.cont251
  %call257 = invoke { ptr, i8 } @_ZNSt3setIN9grpc_core9XdsClient14XdsResourceKeyESt4lessIS2_ESaIS2_EE6insertERKS2_(ptr noundef nonnull align 8 dereferenceable(48) %call252, ptr noundef nonnull align 8 dereferenceable(56) %key228)
          to label %if.end258 unwind label %lpad128

if.end258:                                        ; preds = %invoke.cont253, %invoke.cont244
  %ignored_deletion = getelementptr inbounds %"struct.std::_Rb_tree_node.461", ptr %call.i238239, i64 0, i32 1, i32 0, i64 272
  %134 = load i8, ptr %ignored_deletion, align 8
  %135 = and i8 %134, 1
  %tobool.not = icmp eq i8 %135, 0
  br i1 %tobool.not, label %if.end288, label %invoke.cont263

invoke.cont263:                                   ; preds = %if.end258
  %136 = load ptr, ptr %ads_call_state_.i, align 8
  %parent_.i.i.i252 = getelementptr inbounds %"class.grpc_core::XdsClient::ChannelState::AdsCallState", ptr %136, i64 0, i32 1
  %137 = load ptr, ptr %parent_.i.i.i252, align 8
  %chand_.i.i.i.i253 = getelementptr inbounds %"class.grpc_core::XdsClient::ChannelState::RetryableCall", ptr %137, i64 0, i32 2
  %138 = load ptr, ptr %chand_.i.i.i.i253, align 8
  %xds_client_.i.i.i254 = getelementptr inbounds %"class.grpc_core::XdsClient::ChannelState", ptr %138, i64 0, i32 1
  %139 = load ptr, ptr %xds_client_.i.i.i254, align 8
  %server_265 = getelementptr inbounds %"class.grpc_core::XdsClient::ChannelState", ptr %138, i64 0, i32 2
  %140 = load ptr, ptr %server_265, align 8
  %vtable266 = load ptr, ptr %140, align 8
  %vfn267 = getelementptr inbounds ptr, ptr %vtable266, i64 2
  %141 = load ptr, ptr %vfn267, align 8
  %call269 = invoke noundef nonnull align 8 dereferenceable(32) ptr %141(ptr noundef nonnull align 8 dereferenceable(8) %140)
          to label %invoke.cont268 unwind label %lpad128

invoke.cont268:                                   ; preds = %invoke.cont263
  %call270 = call noundef ptr @_ZNKSt7__cxx1112basic_stringIcSt11char_traitsIcESaIcEE5c_strEv(ptr noundef nonnull align 8 dereferenceable(32) %call269) #25
  call void @_ZNSaIcEC1Ev(ptr noundef nonnull align 1 dereferenceable(1) %ref.tmp272) #25
  invoke void @_ZNSt7__cxx1112basic_stringIcSt11char_traitsIcESaIcEEC2ISt17basic_string_viewIcS2_EvEERKT_RKS3_(ptr noundef nonnull align 8 dereferenceable(32) %ref.tmp271, ptr noundef nonnull align 8 dereferenceable(16) %type_url, ptr noundef nonnull align 1 dereferenceable(1) %ref.tmp272)
          to label %invoke.cont274 unwind label %lpad273

invoke.cont274:                                   ; preds = %invoke.cont268
  %call275 = call noundef ptr @_ZNKSt7__cxx1112basic_stringIcSt11char_traitsIcESaIcEE5c_strEv(ptr noundef nonnull align 8 dereferenceable(32) %ref.tmp271) #25
  call void @_ZNSaIcEC1Ev(ptr noundef nonnull align 1 dereferenceable(1) %ref.tmp277) #25
  invoke void @_ZNSt7__cxx1112basic_stringIcSt11char_traitsIcESaIcEEC2ISt17basic_string_viewIcS2_EvEERKT_RKS3_(ptr noundef nonnull align 8 dereferenceable(32) %ref.tmp276, ptr noundef nonnull align 8 dereferenceable(16) %resource_name, ptr noundef nonnull align 1 dereferenceable(1) %ref.tmp277)
          to label %invoke.cont279 unwind label %lpad278

invoke.cont279:                                   ; preds = %invoke.cont274
  %call280 = call noundef ptr @_ZNKSt7__cxx1112basic_stringIcSt11char_traitsIcESaIcEE5c_strEv(ptr noundef nonnull align 8 dereferenceable(32) %ref.tmp276) #25
  invoke void (ptr, i32, i32, ptr, ...) @gpr_log(ptr noundef nonnull @.str.5, i32 noundef 830, i32 noundef 1, ptr noundef nonnull @.str.26, ptr noundef %139, ptr noundef %call270, ptr noundef %call275, ptr noundef %call280)
          to label %invoke.cont282 unwind label %lpad281

invoke.cont282:                                   ; preds = %invoke.cont279
  call void @_ZNSt7__cxx1112basic_stringIcSt11char_traitsIcESaIcEED1Ev(ptr noundef nonnull align 8 dereferenceable(32) %ref.tmp276) #25
  call void @_ZNSaIcED1Ev(ptr noundef nonnull align 1 dereferenceable(1) %ref.tmp277) #25
  call void @_ZNSt7__cxx1112basic_stringIcSt11char_traitsIcESaIcEED1Ev(ptr noundef nonnull align 8 dereferenceable(32) %ref.tmp271) #25
  call void @_ZNSaIcED1Ev(ptr noundef nonnull align 1 dereferenceable(1) %ref.tmp272) #25
  store i8 0, ptr %ignored_deletion, align 8
  br label %if.end288

lpad273:                                          ; preds = %invoke.cont268
  %142 = landingpad { ptr, i32 }
          cleanup
  br label %ehcleanup286

lpad278:                                          ; preds = %invoke.cont274
  %143 = landingpad { ptr, i32 }
          cleanup
  br label %ehcleanup284

lpad281:                                          ; preds = %invoke.cont279
  %144 = landingpad { ptr, i32 }
          cleanup
  call void @_ZNSt7__cxx1112basic_stringIcSt11char_traitsIcESaIcEED1Ev(ptr noundef nonnull align 8 dereferenceable(32) %ref.tmp276) #25
  br label %ehcleanup284

ehcleanup284:                                     ; preds = %lpad281, %lpad278
  %.pn22 = phi { ptr, i32 } [ %144, %lpad281 ], [ %143, %lpad278 ]
  call void @_ZNSaIcED1Ev(ptr noundef nonnull align 1 dereferenceable(1) %ref.tmp277) #25
  call void @_ZNSt7__cxx1112basic_stringIcSt11char_traitsIcESaIcEED1Ev(ptr noundef nonnull align 8 dereferenceable(32) %ref.tmp271) #25
  br label %ehcleanup286

ehcleanup286:                                     ; preds = %ehcleanup284, %lpad273
  %.pn22.pn = phi { ptr, i32 } [ %.pn22, %ehcleanup284 ], [ %142, %lpad273 ]
  call void @_ZNSaIcED1Ev(ptr noundef nonnull align 1 dereferenceable(1) %ref.tmp272) #25
  br label %ehcleanup397

if.end288:                                        ; preds = %invoke.cont282, %if.end258
  %145 = load i64, ptr %resource99, align 8
  %cmp.i257 = icmp eq i64 %145, 0
  br i1 %cmp.i257, label %if.end321, label %invoke.cont298

invoke.cont298:                                   ; preds = %if.end288
  %146 = load ptr, ptr %ads_call_state_.i, align 8
  %parent_.i.i.i259 = getelementptr inbounds %"class.grpc_core::XdsClient::ChannelState::AdsCallState", ptr %146, i64 0, i32 1
  %147 = load ptr, ptr %parent_.i.i.i259, align 8
  %chand_.i.i.i.i260 = getelementptr inbounds %"class.grpc_core::XdsClient::ChannelState::RetryableCall", ptr %147, i64 0, i32 2
  %148 = load ptr, ptr %chand_.i.i.i.i260, align 8
  %xds_client_.i.i.i261 = getelementptr inbounds %"class.grpc_core::XdsClient::ChannelState", ptr %148, i64 0, i32 1
  %149 = load ptr, ptr %xds_client_.i.i.i261, align 8
  store i64 18, ptr %ref.tmp297, align 8
  %150 = getelementptr inbounds { i64, ptr }, ptr %ref.tmp297, i64 0, i32 1
  store ptr @.str.27, ptr %150, align 8
  invoke void @_ZNK4absl12lts_202308026Status8ToStringB5cxx11ENS0_18StatusToStringModeE(ptr nonnull sret(%"class.std::__cxx11::basic_string") align 8 %ref.tmp300, ptr noundef nonnull align 8 dereferenceable(8) %resource99, i32 noundef 1)
          to label %invoke.cont301 unwind label %lpad128

invoke.cont301:                                   ; preds = %invoke.cont298
  %call.i264 = call { i64, ptr } @_ZNKSt7__cxx1112basic_stringIcSt11char_traitsIcESaIcEEcvSt17basic_string_viewIcS2_EEv(ptr noundef nonnull align 8 dereferenceable(32) %ref.tmp300) #25
  %151 = extractvalue { i64, ptr } %call.i264, 0
  store i64 %151, ptr %ref.tmp299, align 8
  %152 = getelementptr inbounds { i64, ptr }, ptr %ref.tmp299, i64 0, i32 1
  %153 = extractvalue { i64, ptr } %call.i264, 1
  store ptr %153, ptr %152, align 8
  invoke void @_ZN4absl12lts_202308026StrCatB5cxx11ERKNS0_8AlphaNumES3_(ptr nonnull sret(%"class.std::__cxx11::basic_string") align 8 %ref.tmp296, ptr noundef nonnull align 8 dereferenceable(48) %ref.tmp297, ptr noundef nonnull align 8 dereferenceable(48) %ref.tmp299)
          to label %invoke.cont304 unwind label %lpad302

invoke.cont304:                                   ; preds = %invoke.cont301
  %call305 = call { i64, ptr } @_ZNKSt7__cxx1112basic_stringIcSt11char_traitsIcESaIcEEcvSt17basic_string_viewIcS2_EEv(ptr noundef nonnull align 8 dereferenceable(32) %ref.tmp296) #25
  %154 = extractvalue { i64, ptr } %call305, 0
  %155 = extractvalue { i64, ptr } %call305, 1
  invoke void @_ZN4absl12lts_2023080216UnavailableErrorESt17basic_string_viewIcSt11char_traitsIcEE(ptr nonnull sret(%"class.absl::lts_20230802::Status") align 8 %agg.tmp294, i64 %154, ptr %155)
          to label %invoke.cont307 unwind label %lpad306

invoke.cont307:                                   ; preds = %invoke.cont304
  invoke void @_ZN9grpc_core9XdsClient27NotifyWatchersOnErrorLockedERKSt3mapIPNS0_24ResourceWatcherInterfaceENS_13RefCountedPtrIS2_EESt4lessIS3_ESaISt4pairIKS3_S5_EEEN4absl12lts_202308026StatusE(ptr noundef nonnull align 8 dereferenceable(433) %149, ptr noundef nonnull align 8 dereferenceable(48) %second239, ptr noundef nonnull %agg.tmp294)
          to label %invoke.cont309 unwind label %lpad308

invoke.cont309:                                   ; preds = %invoke.cont307
  call void @_ZN4absl12lts_202308026StatusD2Ev(ptr noundef nonnull align 8 dereferenceable(8) %agg.tmp294) #25
  call void @_ZNSt7__cxx1112basic_stringIcSt11char_traitsIcESaIcEED1Ev(ptr noundef nonnull align 8 dereferenceable(32) %ref.tmp296) #25
  call void @_ZNSt7__cxx1112basic_stringIcSt11char_traitsIcESaIcEED1Ev(ptr noundef nonnull align 8 dereferenceable(32) %ref.tmp300) #25
  invoke void @_ZNK4absl12lts_202308026Status8ToStringB5cxx11ENS0_18StatusToStringModeE(ptr nonnull sret(%"class.std::__cxx11::basic_string") align 8 %ref.tmp314, ptr noundef nonnull align 8 dereferenceable(8) %resource99, i32 noundef 1)
          to label %invoke.cont315 unwind label %lpad128

invoke.cont315:                                   ; preds = %invoke.cont309
  %version = getelementptr inbounds %"class.grpc_core::XdsClient::ChannelState::AdsCallState::AdsResponseParser", ptr %this, i64 0, i32 3, i32 2
  %update_time_ = getelementptr inbounds %"class.grpc_core::XdsClient::ChannelState::AdsCallState::AdsResponseParser", ptr %this, i64 0, i32 2
  %agg.tmp316.sroa.0.0.copyload = load i64, ptr %update_time_, align 8
  %meta = getelementptr inbounds %"struct.std::_Rb_tree_node.461", ptr %call.i238239, i64 0, i32 1, i32 0, i64 120
  store i32 4, ptr %meta, align 8
  %failed_version.i = getelementptr inbounds %"struct.std::_Rb_tree_node.461", ptr %call.i238239, i64 0, i32 1, i32 0, i64 200
  %call.i265266 = invoke noundef nonnull align 8 dereferenceable(32) ptr @_ZNSt7__cxx1112basic_stringIcSt11char_traitsIcESaIcEEaSERKS4_(ptr noundef nonnull align 8 dereferenceable(32) %failed_version.i, ptr noundef nonnull align 8 dereferenceable(32) %version)
          to label %call.i265.noexc unwind label %lpad318

call.i265.noexc:                                  ; preds = %invoke.cont315
  %failed_details.i = getelementptr inbounds %"struct.std::_Rb_tree_node.461", ptr %call.i238239, i64 0, i32 1, i32 0, i64 232
  %call1.i267 = invoke noundef nonnull align 8 dereferenceable(32) ptr @_ZNSt7__cxx1112basic_stringIcSt11char_traitsIcESaIcEEaSERKS4_(ptr noundef nonnull align 8 dereferenceable(32) %failed_details.i, ptr noundef nonnull align 8 dereferenceable(32) %ref.tmp314)
          to label %invoke.cont319 unwind label %lpad318

invoke.cont319:                                   ; preds = %call.i265.noexc
  %failed_update_time.i = getelementptr inbounds %"struct.std::_Rb_tree_node.461", ptr %call.i238239, i64 0, i32 1, i32 0, i64 264
  store i64 %agg.tmp316.sroa.0.0.copyload, ptr %failed_update_time.i, align 8
  call void @_ZNSt7__cxx1112basic_stringIcSt11char_traitsIcESaIcEED1Ev(ptr noundef nonnull align 8 dereferenceable(32) %ref.tmp314) #25
  br label %cleanup

lpad302:                                          ; preds = %invoke.cont301
  %156 = landingpad { ptr, i32 }
          cleanup
  br label %ehcleanup312

lpad306:                                          ; preds = %invoke.cont304
  %157 = landingpad { ptr, i32 }
          cleanup
  br label %ehcleanup311

lpad308:                                          ; preds = %invoke.cont307
  %158 = landingpad { ptr, i32 }
          cleanup
  call void @_ZN4absl12lts_202308026StatusD2Ev(ptr noundef nonnull align 8 dereferenceable(8) %agg.tmp294) #25
  br label %ehcleanup311

ehcleanup311:                                     ; preds = %lpad308, %lpad306
  %.pn25 = phi { ptr, i32 } [ %158, %lpad308 ], [ %157, %lpad306 ]
  call void @_ZNSt7__cxx1112basic_stringIcSt11char_traitsIcESaIcEED1Ev(ptr noundef nonnull align 8 dereferenceable(32) %ref.tmp296) #25
  br label %ehcleanup312

ehcleanup312:                                     ; preds = %ehcleanup311, %lpad302
  %.pn25.pn = phi { ptr, i32 } [ %.pn25, %ehcleanup311 ], [ %156, %lpad302 ]
  call void @_ZNSt7__cxx1112basic_stringIcSt11char_traitsIcESaIcEED1Ev(ptr noundef nonnull align 8 dereferenceable(32) %ref.tmp300) #25
  br label %ehcleanup397

lpad318:                                          ; preds = %call.i265.noexc, %invoke.cont315
  %159 = landingpad { ptr, i32 }
          cleanup
  call void @_ZNSt7__cxx1112basic_stringIcSt11char_traitsIcESaIcEED1Ev(ptr noundef nonnull align 8 dereferenceable(32) %ref.tmp314) #25
  br label %ehcleanup397

if.end321:                                        ; preds = %if.end288
  %have_valid_resources = getelementptr inbounds %"class.grpc_core::XdsClient::ChannelState::AdsCallState::AdsResponseParser", ptr %this, i64 0, i32 3, i32 6
  store i8 1, ptr %have_valid_resources, align 8
  %resource323 = getelementptr inbounds %"struct.std::_Rb_tree_node.461", ptr %call.i238239, i64 0, i32 1, i32 0, i64 104
  %160 = load ptr, ptr %resource323, align 8
  %cmp.i.i268.not = icmp eq ptr %160, null
  br i1 %cmp.i.i268.not, label %invoke.cont358, label %invoke.cont330

invoke.cont330:                                   ; preds = %if.end321
  %161 = load ptr, ptr %result_, align 8
  %162 = getelementptr inbounds %"struct.grpc_core::XdsResourceType::DecodeResult", ptr %decode_result, i64 0, i32 1, i32 0, i32 1
  %163 = load ptr, ptr %162, align 8
  %vtable333 = load ptr, ptr %161, align 8
  %vfn334 = getelementptr inbounds ptr, ptr %vtable333, i64 4
  %164 = load ptr, ptr %vfn334, align 8
  %call336 = invoke noundef zeroext i1 %164(ptr noundef nonnull align 8 dereferenceable(8) %161, ptr noundef nonnull %160, ptr noundef %163)
          to label %invoke.cont335 unwind label %lpad128

invoke.cont335:                                   ; preds = %invoke.cont330
  br i1 %call336, label %if.then337, label %if.end356

if.then337:                                       ; preds = %invoke.cont335
  %165 = load atomic i8, ptr getelementptr inbounds (%"class.grpc_core::TraceFlag", ptr @_ZN9grpc_core21grpc_xds_client_traceE, i64 0, i32 2) monotonic, align 8
  %166 = and i8 %165, 1
  %tobool.i.i.i.not = icmp eq i8 %166, 0
  br i1 %tobool.i.i.i.not, label %cleanup, label %invoke.cont341

invoke.cont341:                                   ; preds = %if.then337
  %167 = load ptr, ptr %ads_call_state_.i, align 8
  %parent_.i.i.i273 = getelementptr inbounds %"class.grpc_core::XdsClient::ChannelState::AdsCallState", ptr %167, i64 0, i32 1
  %168 = load ptr, ptr %parent_.i.i.i273, align 8
  %chand_.i.i.i.i274 = getelementptr inbounds %"class.grpc_core::XdsClient::ChannelState::RetryableCall", ptr %168, i64 0, i32 2
  %169 = load ptr, ptr %chand_.i.i.i.i274, align 8
  %xds_client_.i.i.i275 = getelementptr inbounds %"class.grpc_core::XdsClient::ChannelState", ptr %169, i64 0, i32 1
  %170 = load ptr, ptr %xds_client_.i.i.i275, align 8
  %call345 = call noundef ptr @_ZNKSt7__cxx1112basic_stringIcSt11char_traitsIcESaIcEE5c_strEv(ptr noundef nonnull align 8 dereferenceable(32) %type_url19) #25
  call void @_ZNSaIcEC1Ev(ptr noundef nonnull align 1 dereferenceable(1) %ref.tmp347) #25
  invoke void @_ZNSt7__cxx1112basic_stringIcSt11char_traitsIcESaIcEEC2ISt17basic_string_viewIcS2_EvEERKT_RKS3_(ptr noundef nonnull align 8 dereferenceable(32) %ref.tmp346, ptr noundef nonnull align 8 dereferenceable(16) %resource_name, ptr noundef nonnull align 1 dereferenceable(1) %ref.tmp347)
          to label %invoke.cont349 unwind label %lpad348

invoke.cont349:                                   ; preds = %invoke.cont341
  %call350 = call noundef ptr @_ZNKSt7__cxx1112basic_stringIcSt11char_traitsIcESaIcEE5c_strEv(ptr noundef nonnull align 8 dereferenceable(32) %ref.tmp346) #25
  invoke void (ptr, i32, i32, ptr, ...) @gpr_log(ptr noundef nonnull @.str.5, i32 noundef 856, i32 noundef 1, ptr noundef nonnull @.str.28, ptr noundef %170, ptr noundef %call345, ptr noundef %call350)
          to label %invoke.cont352 unwind label %lpad351

invoke.cont352:                                   ; preds = %invoke.cont349
  call void @_ZNSt7__cxx1112basic_stringIcSt11char_traitsIcESaIcEED1Ev(ptr noundef nonnull align 8 dereferenceable(32) %ref.tmp346) #25
  call void @_ZNSaIcED1Ev(ptr noundef nonnull align 1 dereferenceable(1) %ref.tmp347) #25
  br label %cleanup

lpad348:                                          ; preds = %invoke.cont341
  %171 = landingpad { ptr, i32 }
          cleanup
  br label %ehcleanup354

lpad351:                                          ; preds = %invoke.cont349
  %172 = landingpad { ptr, i32 }
          cleanup
  call void @_ZNSt7__cxx1112basic_stringIcSt11char_traitsIcESaIcEED1Ev(ptr noundef nonnull align 8 dereferenceable(32) %ref.tmp346) #25
  br label %ehcleanup354

ehcleanup354:                                     ; preds = %lpad351, %lpad348
  %.pn32 = phi { ptr, i32 } [ %172, %lpad351 ], [ %171, %lpad348 ]
  call void @_ZNSaIcED1Ev(ptr noundef nonnull align 1 dereferenceable(1) %ref.tmp347) #25
  br label %ehcleanup397

if.end356:                                        ; preds = %invoke.cont335
  %.pre = load i64, ptr %resource99, align 8
  %cmp.i.i.i.i276 = icmp eq i64 %.pre, 0
  br i1 %cmp.i.i.i.i276, label %invoke.cont358, label %if.then.i.i277.invoke

if.then.i.i277.invoke:                            ; preds = %if.end356, %invoke.cont251, %if.then246, %if.end222, %invoke.cont192, %if.then170
  %173 = phi ptr [ %parsed_resource_name, %if.then170 ], [ %parsed_resource_name, %invoke.cont192 ], [ %parsed_resource_name, %if.end222 ], [ %parsed_resource_name, %if.then246 ], [ %parsed_resource_name, %invoke.cont251 ], [ %resource99, %if.end356 ]
  invoke void @_ZN4absl12lts_2023080217internal_statusor6Helper5CrashERKNS0_6StatusE(ptr noundef nonnull align 8 dereferenceable(8) %173) #28
          to label %if.then.i.i277.cont unwind label %lpad128

if.then.i.i277.cont:                              ; preds = %if.then.i.i277.invoke
  unreachable

invoke.cont358:                                   ; preds = %if.end321, %if.end356
  %174 = getelementptr inbounds %"struct.grpc_core::XdsResourceType::DecodeResult", ptr %decode_result, i64 0, i32 1, i32 0, i32 1
  %call361 = call noundef nonnull align 8 dereferenceable(16) ptr @_ZNSt10shared_ptrIKN9grpc_core15XdsResourceType12ResourceDataEEaSEOS4_(ptr noundef nonnull align 8 dereferenceable(16) %resource323, ptr noundef nonnull align 8 dereferenceable(16) %174) #25
  call void @_ZNSaIcEC1Ev(ptr noundef nonnull align 1 dereferenceable(1) %ref.tmp364) #25
  invoke void @_ZNSt7__cxx1112basic_stringIcSt11char_traitsIcESaIcEEC2ISt17basic_string_viewIcS2_EvEERKT_RKS3_(ptr noundef nonnull align 8 dereferenceable(32) %agg.tmp363, ptr noundef nonnull align 8 dereferenceable(16) %serialized_resource, ptr noundef nonnull align 1 dereferenceable(1) %ref.tmp364)
          to label %invoke.cont366 unwind label %lpad365

invoke.cont366:                                   ; preds = %invoke.cont358
  %version369 = getelementptr inbounds %"class.grpc_core::XdsClient::ChannelState::AdsCallState::AdsResponseParser", ptr %this, i64 0, i32 3, i32 2
  invoke void @_ZNSt7__cxx1112basic_stringIcSt11char_traitsIcESaIcEEC1ERKS4_(ptr noundef nonnull align 8 dereferenceable(32) %agg.tmp367, ptr noundef nonnull align 8 dereferenceable(32) %version369)
          to label %invoke.cont383 unwind label %lpad370

invoke.cont383:                                   ; preds = %invoke.cont366
  %update_time_373 = getelementptr inbounds %"class.grpc_core::XdsClient::ChannelState::AdsCallState::AdsResponseParser", ptr %this, i64 0, i32 2
  %agg.tmp372.sroa.0.0.copyload = load i64, ptr %update_time_373, align 8
  call fastcc void @_ZN9grpc_core12_GLOBAL__N_127CreateResourceMetadataAckedENSt7__cxx1112basic_stringIcSt11char_traitsIcESaIcEEES6_NS_9TimestampE(ptr noalias nonnull align 8 %ref.tmp362, ptr noundef nonnull %agg.tmp363, ptr noundef nonnull %agg.tmp367, i64 %agg.tmp372.sroa.0.0.copyload)
  %meta377 = getelementptr inbounds %"struct.std::_Rb_tree_node.461", ptr %call.i238239, i64 0, i32 1, i32 0, i64 120
  %call378 = call noundef nonnull align 8 dereferenceable(152) ptr @_ZN9grpc_core6XdsApi16ResourceMetadataaSEOS1_(ptr noundef nonnull align 8 dereferenceable(152) %meta377, ptr noundef nonnull align 8 dereferenceable(152) %ref.tmp362) #25
  call void @_ZN9grpc_core6XdsApi16ResourceMetadataD2Ev(ptr noundef nonnull align 8 dereferenceable(152) %ref.tmp362) #25
  call void @_ZNSt7__cxx1112basic_stringIcSt11char_traitsIcESaIcEED1Ev(ptr noundef nonnull align 8 dereferenceable(32) %agg.tmp367) #25
  call void @_ZNSt7__cxx1112basic_stringIcSt11char_traitsIcESaIcEED1Ev(ptr noundef nonnull align 8 dereferenceable(32) %agg.tmp363) #25
  call void @_ZNSaIcED1Ev(ptr noundef nonnull align 1 dereferenceable(1) %ref.tmp364) #25
  %175 = load ptr, ptr %ads_call_state_.i, align 8
  %parent_.i.i.i280 = getelementptr inbounds %"class.grpc_core::XdsClient::ChannelState::AdsCallState", ptr %175, i64 0, i32 1
  %176 = load ptr, ptr %parent_.i.i.i280, align 8
  %chand_.i.i.i.i281 = getelementptr inbounds %"class.grpc_core::XdsClient::ChannelState::RetryableCall", ptr %176, i64 0, i32 2
  %177 = load ptr, ptr %chand_.i.i.i.i281, align 8
  %xds_client_.i.i.i282 = getelementptr inbounds %"class.grpc_core::XdsClient::ChannelState", ptr %177, i64 0, i32 1
  %178 = load ptr, ptr %xds_client_.i.i.i282, align 8
  %work_serializer_ = getelementptr inbounds %"class.grpc_core::XdsClient", ptr %178, i64 0, i32 7
  invoke void @_ZNSt3mapIPN9grpc_core9XdsClient24ResourceWatcherInterfaceENS0_13RefCountedPtrIS2_EESt4lessIS3_ESaISt4pairIKS3_S5_EEEC2ERKSC_(ptr noundef nonnull align 8 dereferenceable(48) %ref.tmp386, ptr noundef nonnull align 8 dereferenceable(48) %second239)
          to label %invoke.cont387 unwind label %lpad128

invoke.cont387:                                   ; preds = %invoke.cont383
  %179 = getelementptr inbounds %class.anon.232, ptr %ref.tmp386, i64 0, i32 1
  %180 = load ptr, ptr %resource323, align 8
  store ptr %180, ptr %179, align 8
  %_M_refcount.i.i = getelementptr inbounds %class.anon.232, ptr %ref.tmp386, i64 0, i32 1, i32 0, i32 1
  %_M_refcount3.i.i = getelementptr inbounds %"struct.std::_Rb_tree_node.461", ptr %call.i238239, i64 0, i32 1, i32 0, i64 112
  %181 = load ptr, ptr %_M_refcount3.i.i, align 8
  store ptr %181, ptr %_M_refcount.i.i, align 8
  %cmp.not.i.i.i283 = icmp eq ptr %181, null
  br i1 %cmp.not.i.i.i283, label %_ZNSt10shared_ptrIKN9grpc_core15XdsResourceType12ResourceDataEEC2ERKS4_.exit, label %if.then.i.i.i284

if.then.i.i.i284:                                 ; preds = %invoke.cont387
  %_M_use_count.i.i.i.i = getelementptr inbounds %"class.std::_Sp_counted_base", ptr %181, i64 0, i32 1
  %182 = load i8, ptr @__libc_single_threaded, align 1
  %tobool.i.not.i.i.i.i = icmp eq i8 %182, 0
  br i1 %tobool.i.not.i.i.i.i, label %if.else.i.i.i.i.i, label %if.then.i.i.i.i.i285

if.then.i.i.i.i.i285:                             ; preds = %if.then.i.i.i284
  %183 = load i32, ptr %_M_use_count.i.i.i.i, align 4
  %add.i.i.i.i.i = add nsw i32 %183, 1
  store i32 %add.i.i.i.i.i, ptr %_M_use_count.i.i.i.i, align 4
  br label %_ZNSt10shared_ptrIKN9grpc_core15XdsResourceType12ResourceDataEEC2ERKS4_.exit

if.else.i.i.i.i.i:                                ; preds = %if.then.i.i.i284
  %184 = atomicrmw volatile add ptr %_M_use_count.i.i.i.i, i32 1 acq_rel, align 4
  br label %_ZNSt10shared_ptrIKN9grpc_core15XdsResourceType12ResourceDataEEC2ERKS4_.exit

_ZNSt10shared_ptrIKN9grpc_core15XdsResourceType12ResourceDataEEC2ERKS4_.exit: ; preds = %invoke.cont387, %if.then.i.i.i.i.i285, %if.else.i.i.i.i.i
  invoke fastcc void @"_ZNSt8functionIFvvEEC2IZN9grpc_core9XdsClient12ChannelState12AdsCallState17AdsResponseParser13ParseResourceEP9upb_ArenamSt17basic_string_viewIcSt11char_traitsIcEESD_SD_E3$_0vEEOT_"(ptr noundef nonnull align 8 dereferenceable(32) %agg.tmp385, ptr noundef nonnull align 8 dereferenceable(64) %ref.tmp386)
          to label %invoke.cont390 unwind label %lpad389

invoke.cont390:                                   ; preds = %_ZNSt10shared_ptrIKN9grpc_core15XdsResourceType12ResourceDataEEC2ERKS4_.exit
  invoke void @_ZN9grpc_core14WorkSerializer8ScheduleESt8functionIFvvEERKNS_13DebugLocationE(ptr noundef nonnull align 8 dereferenceable(8) %work_serializer_, ptr noundef nonnull %agg.tmp385, ptr noundef nonnull align 1 dereferenceable(1) %ref.tmp391)
          to label %invoke.cont394 unwind label %lpad392

invoke.cont394:                                   ; preds = %invoke.cont390
  %_M_manager.i.i = getelementptr inbounds %"class.std::_Function_base", ptr %agg.tmp385, i64 0, i32 1
  %185 = load ptr, ptr %_M_manager.i.i, align 8
  %tobool.not.i.i = icmp eq ptr %185, null
  br i1 %tobool.not.i.i, label %_ZNSt8functionIFvvEED2Ev.exit, label %if.then.i.i286

if.then.i.i286:                                   ; preds = %invoke.cont394
  %call.i.i287 = invoke noundef zeroext i1 %185(ptr noundef nonnull align 8 dereferenceable(16) %agg.tmp385, ptr noundef nonnull align 8 dereferenceable(16) %agg.tmp385, i32 noundef 3)
          to label %_ZNSt8functionIFvvEED2Ev.exit unwind label %terminate.lpad.i.i

terminate.lpad.i.i:                               ; preds = %if.then.i.i286
  %186 = landingpad { ptr, i32 }
          catch ptr null
  %187 = extractvalue { ptr, i32 } %186, 0
  call void @__clang_call_terminate(ptr %187) #27
  unreachable

_ZNSt8functionIFvvEED2Ev.exit:                    ; preds = %invoke.cont394, %if.then.i.i286
  call fastcc void @"_ZZN9grpc_core9XdsClient12ChannelState12AdsCallState17AdsResponseParser13ParseResourceEP9upb_ArenamSt17basic_string_viewIcSt11char_traitsIcEES9_S9_EN3$_0D2Ev"(ptr noundef nonnull align 8 dereferenceable(64) %ref.tmp386) #25
  br label %cleanup

cleanup:                                          ; preds = %if.end208, %_ZNSt8_Rb_treeIPKN9grpc_core15XdsResourceTypeESt4pairIKS3_St3mapINS0_9XdsClient14XdsResourceKeyENS7_13ResourceStateESt4lessIS8_ESaIS4_IKS8_S9_EEEESt10_Select1stISG_ESA_IS3_ESaISG_EE14_M_lower_boundEPSt13_Rb_tree_nodeISG_EPSt18_Rb_tree_node_baseRS5_.exit.i.i, %if.then337, %invoke.cont352, %invoke.cont229, %invoke.cont213, %invoke.cont201, %_ZNSt8functionIFvvEED2Ev.exit, %invoke.cont319, %invoke.cont141
  call void @_ZN4absl12lts_2023080217internal_statusor12StatusOrDataIN9grpc_core9XdsClient15XdsResourceNameEED2Ev(ptr noundef nonnull align 8 dereferenceable(96) %parsed_resource_name) #25
  br label %cleanup398

cleanup398:                                       ; preds = %cleanup, %invoke.cont93
  %resource.i = getelementptr inbounds %"struct.grpc_core::XdsResourceType::DecodeResult", ptr %decode_result, i64 0, i32 1
  %188 = load i64, ptr %resource.i, align 8
  %cmp.i.i.i296 = icmp eq i64 %188, 0
  br i1 %cmp.i.i.i296, label %_ZN4absl12lts_202308026StatusD2Ev.exit.i, label %if.else.i297

_ZN4absl12lts_202308026StatusD2Ev.exit.i:         ; preds = %cleanup398
  %_M_refcount.i.i.i = getelementptr inbounds %"struct.grpc_core::XdsResourceType::DecodeResult", ptr %decode_result, i64 0, i32 1, i32 0, i32 1, i32 0, i32 0, i32 1
  %189 = load ptr, ptr %_M_refcount.i.i.i, align 8
  %cmp.not.i.i.i.i = icmp eq ptr %189, null
  br i1 %cmp.not.i.i.i.i, label %_ZN4absl12lts_2023080217internal_statusor12StatusOrDataISt10shared_ptrIKN9grpc_core15XdsResourceType12ResourceDataEEED2Ev.exit, label %if.then.i.i.i.i

if.then.i.i.i.i:                                  ; preds = %_ZN4absl12lts_202308026StatusD2Ev.exit.i
  %_M_use_count.i.i.i.i.i = getelementptr inbounds %"class.std::_Sp_counted_base", ptr %189, i64 0, i32 1
  %190 = load atomic i64, ptr %_M_use_count.i.i.i.i.i acquire, align 8
  %cmp.i.i.i.i.i298 = icmp eq i64 %190, 4294967297
  %191 = trunc i64 %190 to i32
  br i1 %cmp.i.i.i.i.i298, label %if.then.i.i.i.i.i299, label %if.end.i.i.i.i.i

if.then.i.i.i.i.i299:                             ; preds = %if.then.i.i.i.i
  store i32 0, ptr %_M_use_count.i.i.i.i.i, align 8
  %_M_weak_count.i.i.i.i.i = getelementptr inbounds %"class.std::_Sp_counted_base", ptr %189, i64 0, i32 2
  store i32 0, ptr %_M_weak_count.i.i.i.i.i, align 4
  %vtable.i.i.i.i.i = load ptr, ptr %189, align 8
  %vfn.i.i.i.i.i = getelementptr inbounds ptr, ptr %vtable.i.i.i.i.i, i64 2
  %192 = load ptr, ptr %vfn.i.i.i.i.i, align 8
  call void %192(ptr noundef nonnull align 8 dereferenceable(16) %189) #25
  br label %if.end8.sink.split.i.i.i.i.i

if.end.i.i.i.i.i:                                 ; preds = %if.then.i.i.i.i
  %193 = load i8, ptr @__libc_single_threaded, align 1
  %tobool.i.i.not.i.i.i.i.i = icmp eq i8 %193, 0
  br i1 %tobool.i.i.not.i.i.i.i.i, label %if.else.i.i.i.i.i.i, label %if.then.i.i.i.i.i.i

if.then.i.i.i.i.i.i:                              ; preds = %if.end.i.i.i.i.i
  %add.i.i.i.i.i.i = add nsw i32 %191, -1
  store i32 %add.i.i.i.i.i.i, ptr %_M_use_count.i.i.i.i.i, align 4
  br label %_ZN9__gnu_cxx27__exchange_and_add_dispatchEPii.exit.i.i.i.i.i

if.else.i.i.i.i.i.i:                              ; preds = %if.end.i.i.i.i.i
  %194 = atomicrmw volatile add ptr %_M_use_count.i.i.i.i.i, i32 -1 acq_rel, align 4
  br label %_ZN9__gnu_cxx27__exchange_and_add_dispatchEPii.exit.i.i.i.i.i

_ZN9__gnu_cxx27__exchange_and_add_dispatchEPii.exit.i.i.i.i.i: ; preds = %if.else.i.i.i.i.i.i, %if.then.i.i.i.i.i.i
  %retval.i.0.i.i.i.i.i = phi i32 [ %191, %if.then.i.i.i.i.i.i ], [ %194, %if.else.i.i.i.i.i.i ]
  %cmp6.i.i.i.i.i = icmp eq i32 %retval.i.0.i.i.i.i.i, 1
  br i1 %cmp6.i.i.i.i.i, label %if.then7.i.i.i.i.i, label %_ZN4absl12lts_2023080217internal_statusor12StatusOrDataISt10shared_ptrIKN9grpc_core15XdsResourceType12ResourceDataEEED2Ev.exit

if.then7.i.i.i.i.i:                               ; preds = %_ZN9__gnu_cxx27__exchange_and_add_dispatchEPii.exit.i.i.i.i.i
  %vtable.i.i.i.i.i.i.i = load ptr, ptr %189, align 8
  %vfn.i.i.i.i.i.i.i = getelementptr inbounds ptr, ptr %vtable.i.i.i.i.i.i.i, i64 2
  %195 = load ptr, ptr %vfn.i.i.i.i.i.i.i, align 8
  call void %195(ptr noundef nonnull align 8 dereferenceable(16) %189) #25
  %_M_weak_count.i.i.i.i.i.i.i = getelementptr inbounds %"class.std::_Sp_counted_base", ptr %189, i64 0, i32 2
  %196 = load i8, ptr @__libc_single_threaded, align 1
  %tobool.i.i.not.i.i.i.i.i.i.i = icmp eq i8 %196, 0
  br i1 %tobool.i.i.not.i.i.i.i.i.i.i, label %if.else.i.i.i.i.i.i.i.i, label %if.then.i.i.i.i.i.i.i.i

if.then.i.i.i.i.i.i.i.i:                          ; preds = %if.then7.i.i.i.i.i
  %197 = load i32, ptr %_M_weak_count.i.i.i.i.i.i.i, align 4
  %add.i.i.i.i.i.i.i.i = add nsw i32 %197, -1
  store i32 %add.i.i.i.i.i.i.i.i, ptr %_M_weak_count.i.i.i.i.i.i.i, align 4
  br label %_ZN9__gnu_cxx27__exchange_and_add_dispatchEPii.exit.i.i.i.i.i.i.i

if.else.i.i.i.i.i.i.i.i:                          ; preds = %if.then7.i.i.i.i.i
  %198 = atomicrmw volatile add ptr %_M_weak_count.i.i.i.i.i.i.i, i32 -1 acq_rel, align 4
  br label %_ZN9__gnu_cxx27__exchange_and_add_dispatchEPii.exit.i.i.i.i.i.i.i

_ZN9__gnu_cxx27__exchange_and_add_dispatchEPii.exit.i.i.i.i.i.i.i: ; preds = %if.else.i.i.i.i.i.i.i.i, %if.then.i.i.i.i.i.i.i.i
  %retval.i.0.i.i.i.i.i.i.i = phi i32 [ %197, %if.then.i.i.i.i.i.i.i.i ], [ %198, %if.else.i.i.i.i.i.i.i.i ]
  %cmp.i.i.i.i.i.i.i = icmp eq i32 %retval.i.0.i.i.i.i.i.i.i, 1
  br i1 %cmp.i.i.i.i.i.i.i, label %if.end8.sink.split.i.i.i.i.i, label %_ZN4absl12lts_2023080217internal_statusor12StatusOrDataISt10shared_ptrIKN9grpc_core15XdsResourceType12ResourceDataEEED2Ev.exit

if.end8.sink.split.i.i.i.i.i:                     ; preds = %_ZN9__gnu_cxx27__exchange_and_add_dispatchEPii.exit.i.i.i.i.i.i.i, %if.then.i.i.i.i.i299
  %vtable2.i.i.i.i.i.i.i = load ptr, ptr %189, align 8
  %vfn3.i.i.i.i.i.i.i = getelementptr inbounds ptr, ptr %vtable2.i.i.i.i.i.i.i, i64 3
  %199 = load ptr, ptr %vfn3.i.i.i.i.i.i.i, align 8
  call void %199(ptr noundef nonnull align 8 dereferenceable(16) %189) #25
  br label %_ZN4absl12lts_2023080217internal_statusor12StatusOrDataISt10shared_ptrIKN9grpc_core15XdsResourceType12ResourceDataEEED2Ev.exit

if.else.i297:                                     ; preds = %cleanup398
  %and.i.i.i1.i = and i64 %188, 1
  %cmp.i.i.i2.i = icmp eq i64 %and.i.i.i1.i, 0
  br i1 %cmp.i.i.i2.i, label %_ZN4absl12lts_2023080217internal_statusor12StatusOrDataISt10shared_ptrIKN9grpc_core15XdsResourceType12ResourceDataEEED2Ev.exit, label %if.then.i.i3.i

if.then.i.i3.i:                                   ; preds = %if.else.i297
  invoke void @_ZN4absl12lts_202308026Status15UnrefNonInlinedEm(i64 noundef %188)
          to label %_ZN4absl12lts_2023080217internal_statusor12StatusOrDataISt10shared_ptrIKN9grpc_core15XdsResourceType12ResourceDataEEED2Ev.exit unwind label %terminate.lpad.i4.i

terminate.lpad.i4.i:                              ; preds = %if.then.i.i3.i
  %200 = landingpad { ptr, i32 }
          catch ptr null
  %201 = extractvalue { ptr, i32 } %200, 0
  call void @__clang_call_terminate(ptr %201) #27
  unreachable

_ZN4absl12lts_2023080217internal_statusor12StatusOrDataISt10shared_ptrIKN9grpc_core15XdsResourceType12ResourceDataEEED2Ev.exit: ; preds = %_ZN4absl12lts_202308026StatusD2Ev.exit.i, %_ZN9__gnu_cxx27__exchange_and_add_dispatchEPii.exit.i.i.i.i.i, %_ZN9__gnu_cxx27__exchange_and_add_dispatchEPii.exit.i.i.i.i.i.i.i, %if.end8.sink.split.i.i.i.i.i, %if.else.i297, %if.then.i.i3.i
  %_M_engaged.i.i.i.i.i = getelementptr inbounds %"struct.std::_Optional_payload_base.179", ptr %decode_result, i64 0, i32 1
  %202 = load i8, ptr %_M_engaged.i.i.i.i.i, align 8
  %203 = and i8 %202, 1
  %tobool.not.i.i.i.i.i288 = icmp eq i8 %203, 0
  br i1 %tobool.not.i.i.i.i.i288, label %cleanup400, label %if.then.i.i.i.i.i289

if.then.i.i.i.i.i289:                             ; preds = %_ZN4absl12lts_2023080217internal_statusor12StatusOrDataISt10shared_ptrIKN9grpc_core15XdsResourceType12ResourceDataEEED2Ev.exit
  store i8 0, ptr %_M_engaged.i.i.i.i.i, align 8
  br label %cleanup400.sink.split

cleanup400.sink.split:                            ; preds = %if.then.i, %if.else.i, %if.then.i.i.i.i.i289
  %decode_result.sink = phi ptr [ %decode_result, %if.then.i.i.i.i.i289 ], [ %ref.tmp24, %if.else.i ], [ %ref.tmp24, %if.then.i ]
  call void @_ZNSt7__cxx1112basic_stringIcSt11char_traitsIcESaIcEED1Ev(ptr noundef nonnull align 8 dereferenceable(32) %decode_result.sink) #25
  br label %cleanup400

cleanup400:                                       ; preds = %cleanup400.sink.split, %_ZN4absl12lts_2023080217internal_statusor12StatusOrDataISt10shared_ptrIKN9grpc_core15XdsResourceType12ResourceDataEEED2Ev.exit
  call void @_ZNSt7__cxx1112basic_stringIcSt11char_traitsIcESaIcEED1Ev(ptr noundef nonnull align 8 dereferenceable(32) %error_prefix) #25
  ret void

lpad365:                                          ; preds = %invoke.cont358
  %204 = landingpad { ptr, i32 }
          cleanup
  br label %ehcleanup381

lpad370:                                          ; preds = %invoke.cont366
  %205 = landingpad { ptr, i32 }
          cleanup
  call void @_ZNSt7__cxx1112basic_stringIcSt11char_traitsIcESaIcEED1Ev(ptr noundef nonnull align 8 dereferenceable(32) %agg.tmp363) #25
  br label %ehcleanup381

ehcleanup381:                                     ; preds = %lpad370, %lpad365
  %.pn28 = phi { ptr, i32 } [ %205, %lpad370 ], [ %204, %lpad365 ]
  call void @_ZNSaIcED1Ev(ptr noundef nonnull align 1 dereferenceable(1) %ref.tmp364) #25
  br label %ehcleanup397

lpad389:                                          ; preds = %_ZNSt10shared_ptrIKN9grpc_core15XdsResourceType12ResourceDataEEC2ERKS4_.exit
  %206 = landingpad { ptr, i32 }
          cleanup
  br label %ehcleanup396

lpad392:                                          ; preds = %invoke.cont390
  %207 = landingpad { ptr, i32 }
          cleanup
  %_M_manager.i.i290 = getelementptr inbounds %"class.std::_Function_base", ptr %agg.tmp385, i64 0, i32 1
  %208 = load ptr, ptr %_M_manager.i.i290, align 8
  %tobool.not.i.i291 = icmp eq ptr %208, null
  br i1 %tobool.not.i.i291, label %ehcleanup396, label %if.then.i.i292

if.then.i.i292:                                   ; preds = %lpad392
  %call.i.i293 = invoke noundef zeroext i1 %208(ptr noundef nonnull align 8 dereferenceable(16) %agg.tmp385, ptr noundef nonnull align 8 dereferenceable(16) %agg.tmp385, i32 noundef 3)
          to label %ehcleanup396 unwind label %terminate.lpad.i.i294

terminate.lpad.i.i294:                            ; preds = %if.then.i.i292
  %209 = landingpad { ptr, i32 }
          catch ptr null
  %210 = extractvalue { ptr, i32 } %209, 0
  call void @__clang_call_terminate(ptr %210) #27
  unreachable

ehcleanup396:                                     ; preds = %if.then.i.i292, %lpad392, %lpad389
  %.pn30 = phi { ptr, i32 } [ %206, %lpad389 ], [ %207, %lpad392 ], [ %207, %if.then.i.i292 ]
  call fastcc void @"_ZZN9grpc_core9XdsClient12ChannelState12AdsCallState17AdsResponseParser13ParseResourceEP9upb_ArenamSt17basic_string_viewIcSt11char_traitsIcEES9_S9_EN3$_0D2Ev"(ptr noundef nonnull align 8 dereferenceable(64) %ref.tmp386) #25
  br label %ehcleanup397

ehcleanup397:                                     ; preds = %ehcleanup396, %ehcleanup381, %ehcleanup354, %lpad318, %ehcleanup312, %ehcleanup286, %lpad140, %lpad128
  %.pn32.pn = phi { ptr, i32 } [ %.pn32, %ehcleanup354 ], [ %85, %lpad128 ], [ %.pn30, %ehcleanup396 ], [ %.pn28, %ehcleanup381 ], [ %159, %lpad318 ], [ %.pn25.pn, %ehcleanup312 ], [ %.pn22.pn, %ehcleanup286 ], [ %86, %lpad140 ]
  call void @_ZN4absl12lts_2023080217internal_statusor12StatusOrDataIN9grpc_core9XdsClient15XdsResourceNameEED2Ev(ptr noundef nonnull align 8 dereferenceable(96) %parsed_resource_name) #25
  br label %ehcleanup399

ehcleanup399:                                     ; preds = %ehcleanup397, %ehcleanup120, %ehcleanup96, %lpad66
  %.pn32.pn.pn = phi { ptr, i32 } [ %.pn32.pn, %ehcleanup397 ], [ %48, %lpad66 ], [ %.pn20, %ehcleanup120 ], [ %.pn18, %ehcleanup96 ]
  call void @_ZN9grpc_core15XdsResourceType12DecodeResultD2Ev(ptr noundef nonnull align 8 dereferenceable(64) %decode_result) #25
  br label %ehcleanup401

ehcleanup401:                                     ; preds = %ehcleanup399, %lpad40, %lpad26
  %.pn36 = phi { ptr, i32 } [ %27, %lpad40 ], [ %26, %lpad26 ], [ %.pn32.pn.pn, %ehcleanup399 ]
  call void @_ZNSt7__cxx1112basic_stringIcSt11char_traitsIcESaIcEED1Ev(ptr noundef nonnull align 8 dereferenceable(32) %error_prefix) #25
  br label %eh.resume

eh.resume:                                        ; preds = %ehcleanup, %cleanup.action16, %ehcleanup401
  %.pn36.pn = phi { ptr, i32 } [ %.pn36, %ehcleanup401 ], [ %.pn310, %cleanup.action16 ], [ %.pn, %ehcleanup ]
  resume { ptr, i32 } %.pn36.pn
}

; Function Attrs: nounwind
declare void @_ZNSaIcEC1Ev(ptr noundef nonnull align 1 dereferenceable(1)) unnamed_addr #1

; Function Attrs: mustprogress nocallback nofree nounwind willreturn memory(argmem: readwrite)
declare void @llvm.memcpy.p0.p0.i64(ptr noalias nocapture writeonly, ptr noalias nocapture readonly, i64, i1 immarg) #12

; Function Attrs: nounwind
declare void @_ZNSaIcED1Ev(ptr noundef nonnull align 1 dereferenceable(1)) unnamed_addr #1

; Function Attrs: mustprogress uwtable
define void @_ZN9grpc_core9XdsClient20ParseXdsResourceNameESt17basic_string_viewIcSt11char_traitsIcEEPKNS_15XdsResourceTypeE(ptr noalias sret(%"class.absl::lts_20230802::StatusOr.186") align 8 %agg.result, ptr nocapture noundef nonnull readonly align 8 dereferenceable(433) %this, i64 %name.coerce0, ptr %name.coerce1, ptr noundef %type) local_unnamed_addr #3 align 2 personality ptr @__gxx_personality_v0 {
entry:
  %agg.tmp.i64 = alloca %"struct.std::__cxx11::basic_string<char>::__sv_wrapper", align 8
  %agg.tmp.i47 = alloca %"struct.std::__cxx11::basic_string<char>::__sv_wrapper", align 8
  %agg.tmp.i40 = alloca %"struct.std::__cxx11::basic_string<char>::__sv_wrapper", align 8
  %agg.tmp.i = alloca %"struct.std::__cxx11::basic_string<char>::__sv_wrapper", align 8
  %ref.tmp = alloca %"struct.grpc_core::XdsClient::XdsResourceName", align 8
  %ref.tmp3 = alloca %"class.std::allocator.16", align 1
  %ref.tmp4 = alloca %"class.std::allocator.16", align 1
  %uri = alloca %"class.absl::lts_20230802::StatusOr.315", align 8
  %path_parts = alloca %"struct.std::pair.328", align 8
  %ref.tmp20 = alloca %"class.absl::lts_20230802::strings_internal::Splitter", align 8
  %ref.tmp44 = alloca %"class.absl::lts_20230802::Status", align 8
  %query_params51 = alloca %"class.std::vector", align 16
  %ref.tmp62 = alloca %"struct.grpc_core::URI::QueryParam", align 8
  %ref.tmp65 = alloca %"class.std::allocator.16", align 1
  %ref.tmp68 = alloca %"class.std::allocator.16", align 1
  %ref.tmp83 = alloca %"struct.grpc_core::XdsClient::XdsResourceName", align 8
  %ref.tmp85 = alloca %"class.absl::lts_20230802::AlphaNum", align 8
  %ref.tmp87 = alloca %"class.absl::lts_20230802::AlphaNum", align 8
  %ref.tmp97 = alloca %"class.std::allocator.16", align 1
  %xds_federation_enabled_ = getelementptr inbounds %"class.grpc_core::XdsClient", ptr %this, i64 0, i32 4
  %0 = load i8, ptr %xds_federation_enabled_, align 8
  %1 = and i8 %0, 1
  %tobool.not = icmp eq i8 %1, 0
  %cmp.not.i = icmp ult i64 %name.coerce0, 6
  %or.cond = select i1 %tobool.not, i1 true, i1 %cmp.not.i
  br i1 %or.cond, label %if.then, label %_ZN4absl12lts_2023080210StartsWithESt17basic_string_viewIcSt11char_traitsIcEES4_.exit

_ZN4absl12lts_2023080210StartsWithESt17basic_string_viewIcSt11char_traitsIcEES4_.exit: ; preds = %entry
  %bcmp.i = tail call i32 @bcmp(ptr noundef nonnull dereferenceable(6) %name.coerce1, ptr noundef nonnull dereferenceable(6) @.str.65, i64 6)
  %cmp7.i = icmp eq i32 %bcmp.i, 0
  br i1 %cmp7.i, label %if.end, label %if.then

if.then:                                          ; preds = %_ZN4absl12lts_2023080210StartsWithESt17basic_string_viewIcSt11char_traitsIcEES4_.exit, %entry
  call void @_ZNSaIcEC1Ev(ptr noundef nonnull align 1 dereferenceable(1) %ref.tmp3) #25
  %call.i15 = invoke noundef ptr @_ZNSt7__cxx1112basic_stringIcSt11char_traitsIcESaIcEE13_M_local_dataEv(ptr noundef nonnull align 8 dereferenceable(32) %ref.tmp)
          to label %call.i.noexc unwind label %lpad

call.i.noexc:                                     ; preds = %if.then
  invoke void @_ZNSt7__cxx1112basic_stringIcSt11char_traitsIcESaIcEE12_Alloc_hiderC1EPcRKS3_(ptr noundef nonnull align 8 dereferenceable(8) %ref.tmp, ptr noundef %call.i15, ptr noundef nonnull align 1 dereferenceable(1) %ref.tmp3)
          to label %.noexc unwind label %lpad

.noexc:                                           ; preds = %call.i.noexc
  invoke void @_ZNSt7__cxx1112basic_stringIcSt11char_traitsIcESaIcEE12_M_constructIPKcEEvT_S8_St20forward_iterator_tag(ptr noundef nonnull align 8 dereferenceable(32) %ref.tmp, ptr noundef nonnull @.str.75, ptr noundef nonnull getelementptr inbounds ([5 x i8], ptr @.str.75, i64 0, i64 4))
          to label %invoke.cont unwind label %lpad.i

lpad.i:                                           ; preds = %.noexc
  %2 = landingpad { ptr, i32 }
          cleanup
  call void @_ZNSaIcED2Ev(ptr noundef nonnull align 1 dereferenceable(1) %ref.tmp) #25
  br label %ehcleanup10

invoke.cont:                                      ; preds = %.noexc
  %key = getelementptr inbounds %"struct.grpc_core::XdsClient::XdsResourceName", ptr %ref.tmp, i64 0, i32 1
  call void @_ZNSaIcEC1Ev(ptr noundef nonnull align 1 dereferenceable(1) %ref.tmp4) #25
  call void @llvm.lifetime.start.p0(i64 16, ptr nonnull %agg.tmp.i)
  %call.i = call { i64, ptr } @_ZNSt7__cxx1112basic_stringIcSt11char_traitsIcESaIcEE17_S_to_string_viewESt17basic_string_viewIcS2_E(i64 %name.coerce0, ptr %name.coerce1) #25
  %3 = extractvalue { i64, ptr } %call.i, 0
  %4 = extractvalue { i64, ptr } %call.i, 1
  call void @_ZNSt7__cxx1112basic_stringIcSt11char_traitsIcESaIcEE12__sv_wrapperC1ESt17basic_string_viewIcS2_E(ptr noundef nonnull align 8 dereferenceable(16) %agg.tmp.i, i64 %3, ptr %4) #25
  %5 = load i64, ptr %agg.tmp.i, align 8
  %6 = getelementptr inbounds { i64, ptr }, ptr %agg.tmp.i, i64 0, i32 1
  %7 = load ptr, ptr %6, align 8
  invoke void @_ZNSt7__cxx1112basic_stringIcSt11char_traitsIcESaIcEEC2ENS4_12__sv_wrapperERKS3_(ptr noundef nonnull align 8 dereferenceable(32) %key, i64 %5, ptr %7, ptr noundef nonnull align 1 dereferenceable(1) %ref.tmp4)
          to label %_ZN9grpc_core9XdsClient15XdsResourceNameD2Ev.exit unwind label %cleanup.action

_ZN9grpc_core9XdsClient15XdsResourceNameD2Ev.exit: ; preds = %invoke.cont
  call void @llvm.lifetime.end.p0(i64 16, ptr nonnull %agg.tmp.i)
  %query_params = getelementptr inbounds %"struct.grpc_core::XdsClient::XdsResourceName", ptr %ref.tmp, i64 0, i32 1, i32 1
  %8 = getelementptr inbounds %"class.absl::lts_20230802::internal_statusor::StatusOrData.187", ptr %agg.result, i64 0, i32 1
  call void @llvm.memset.p0.i64(ptr noundef nonnull align 8 dereferenceable(24) %query_params, i8 0, i64 24, i1 false)
  call void @_ZNSt7__cxx1112basic_stringIcSt11char_traitsIcESaIcEEC1EOS4_(ptr noundef nonnull align 8 dereferenceable(32) %8, ptr noundef nonnull align 8 dereferenceable(32) %ref.tmp) #25
  %key.i.i.i.i = getelementptr inbounds %"class.absl::lts_20230802::internal_statusor::StatusOrData.187", ptr %agg.result, i64 0, i32 1, i32 0, i32 1
  call void @_ZNSt7__cxx1112basic_stringIcSt11char_traitsIcESaIcEEC1EOS4_(ptr noundef nonnull align 8 dereferenceable(32) %key.i.i.i.i, ptr noundef nonnull align 8 dereferenceable(32) %key) #25
  %query_params.i.i.i.i.i = getelementptr inbounds %"class.absl::lts_20230802::internal_statusor::StatusOrData.187", ptr %agg.result, i64 0, i32 1, i32 0, i32 1, i32 1
  %9 = load <2 x ptr>, ptr %query_params, align 8
  store <2 x ptr> %9, ptr %query_params.i.i.i.i.i, align 8
  %_M_end_of_storage.i.i.i.i.i.i.i.i.i = getelementptr inbounds %"class.absl::lts_20230802::internal_statusor::StatusOrData.187", ptr %agg.result, i64 0, i32 1, i32 0, i32 1, i32 1, i32 0, i32 0, i32 0, i32 2
  %_M_end_of_storage4.i.i.i.i.i.i.i.i.i = getelementptr inbounds %"struct.grpc_core::XdsClient::XdsResourceName", ptr %ref.tmp, i64 0, i32 1, i32 1, i32 0, i32 0, i32 0, i32 2
  %10 = load ptr, ptr %_M_end_of_storage4.i.i.i.i.i.i.i.i.i, align 8
  store ptr %10, ptr %_M_end_of_storage.i.i.i.i.i.i.i.i.i, align 8
  call void @llvm.memset.p0.i64(ptr noundef nonnull align 8 dereferenceable(24) %query_params, i8 0, i64 24, i1 false)
  store i64 0, ptr %agg.result, align 8
  call void @_ZNSt7__cxx1112basic_stringIcSt11char_traitsIcESaIcEED1Ev(ptr noundef nonnull align 8 dereferenceable(32) %key) #25
  call void @_ZNSt7__cxx1112basic_stringIcSt11char_traitsIcESaIcEED1Ev(ptr noundef nonnull align 8 dereferenceable(32) %ref.tmp) #25
  call void @_ZNSaIcED1Ev(ptr noundef nonnull align 1 dereferenceable(1) %ref.tmp4) #25
  call void @_ZNSaIcED1Ev(ptr noundef nonnull align 1 dereferenceable(1) %ref.tmp3) #25
  br label %return

lpad:                                             ; preds = %call.i.noexc, %if.then
  %11 = landingpad { ptr, i32 }
          cleanup
  br label %ehcleanup10

cleanup.action:                                   ; preds = %invoke.cont
  %12 = landingpad { ptr, i32 }
          cleanup
  call void @_ZNSaIcED1Ev(ptr noundef nonnull align 1 dereferenceable(1) %ref.tmp4) #25
  call void @_ZNSt7__cxx1112basic_stringIcSt11char_traitsIcESaIcEED1Ev(ptr noundef nonnull align 8 dereferenceable(32) %ref.tmp) #25
  br label %ehcleanup10

ehcleanup10:                                      ; preds = %lpad, %lpad.i, %cleanup.action
  %.pn.pn = phi { ptr, i32 } [ %12, %cleanup.action ], [ %11, %lpad ], [ %2, %lpad.i ]
  call void @_ZNSaIcED1Ev(ptr noundef nonnull align 1 dereferenceable(1) %ref.tmp3) #25
  br label %eh.resume

if.end:                                           ; preds = %_ZN4absl12lts_2023080210StartsWithESt17basic_string_viewIcSt11char_traitsIcEES4_.exit
  call void @_ZN9grpc_core3URI5ParseESt17basic_string_viewIcSt11char_traitsIcEE(ptr nonnull sret(%"class.absl::lts_20230802::StatusOr.315") align 8 %uri, i64 %name.coerce0, ptr %name.coerce1)
  %13 = load i64, ptr %uri, align 8
  %cmp.i.i17 = icmp eq i64 %13, 0
  br i1 %cmp.i.i17, label %invoke.cont24, label %if.then15

if.then15:                                        ; preds = %if.end
  store i64 %13, ptr %agg.result, align 8
  %and.i.i.i.i.i = and i64 %13, 1
  %cmp.i.i.i.i.i = icmp eq i64 %and.i.i.i.i.i, 0
  br i1 %cmp.i.i.i.i.i, label %cleanup, label %_ZN4absl12lts_202308026StatusC2ERKS1_.exit.i.i

_ZN4absl12lts_202308026StatusC2ERKS1_.exit.i.i:   ; preds = %if.then15
  %sub.i.i.i.i.i = add nsw i64 %13, -1
  %14 = inttoptr i64 %sub.i.i.i.i.i to ptr
  %15 = atomicrmw add ptr %14, i32 1 monotonic, align 4
  %.pr.i.i = load i64, ptr %agg.result, align 8
  %cmp.i.i.i1.i.i = icmp eq i64 %.pr.i.i, 0
  br i1 %cmp.i.i.i1.i.i, label %if.then.i.i.i, label %cleanup

if.then.i.i.i:                                    ; preds = %_ZN4absl12lts_202308026StatusC2ERKS1_.exit.i.i
  invoke void @_ZN4absl12lts_2023080217internal_statusor6Helper26HandleInvalidStatusCtorArgEPNS0_6StatusE(ptr noundef nonnull %agg.result)
          to label %cleanup unwind label %lpad.i.i

lpad.i.i:                                         ; preds = %if.then.i.i.i
  %16 = landingpad { ptr, i32 }
          cleanup
  call void @_ZN4absl12lts_202308026StatusD2Ev(ptr noundef nonnull align 8 dereferenceable(8) %agg.result) #25
  br label %ehcleanup111

lpad12:                                           ; preds = %invoke.cont36, %if.then43, %invoke.cont37
  %17 = landingpad { ptr, i32 }
          cleanup
  br label %ehcleanup111

invoke.cont24:                                    ; preds = %if.end
  %path_.i = getelementptr inbounds %"class.absl::lts_20230802::internal_statusor::StatusOrData.316", ptr %uri, i64 0, i32 1, i32 0, i32 2
  %call28 = call { i64, ptr } @_ZNKSt7__cxx1112basic_stringIcSt11char_traitsIcESaIcEEcvSt17basic_string_viewIcS2_EEv(ptr noundef nonnull align 8 dereferenceable(32) %path_.i) #25
  %18 = extractvalue { i64, ptr } %call28, 0
  %19 = extractvalue { i64, ptr } %call28, 1
  %cmp.not.i.i = icmp eq i64 %18, 0
  br i1 %cmp.not.i.i, label %invoke.cont36, label %_ZN4absl12lts_2023080210StartsWithESt17basic_string_viewIcSt11char_traitsIcEES4_.exit.i

_ZN4absl12lts_2023080210StartsWithESt17basic_string_viewIcSt11char_traitsIcEES4_.exit.i: ; preds = %invoke.cont24
  %lhsc = load i8, ptr %19, align 1
  %cmp7.i.i = icmp eq i8 %lhsc, 47
  br i1 %cmp7.i.i, label %if.then.i, label %invoke.cont36

if.then.i:                                        ; preds = %_ZN4absl12lts_2023080210StartsWithESt17basic_string_viewIcSt11char_traitsIcEES4_.exit.i
  %add.ptr.i.i = getelementptr inbounds i8, ptr %19, i64 1
  %sub.i.i = add i64 %18, -1
  br label %invoke.cont36

invoke.cont36:                                    ; preds = %invoke.cont24, %_ZN4absl12lts_2023080210StartsWithESt17basic_string_viewIcSt11char_traitsIcEES4_.exit.i, %if.then.i
  %str.sroa.0.0.i = phi i64 [ %sub.i.i, %if.then.i ], [ %18, %_ZN4absl12lts_2023080210StartsWithESt17basic_string_viewIcSt11char_traitsIcEES4_.exit.i ], [ 0, %invoke.cont24 ]
  %str.sroa.4.0.i = phi ptr [ %add.ptr.i.i, %if.then.i ], [ %19, %_ZN4absl12lts_2023080210StartsWithESt17basic_string_viewIcSt11char_traitsIcEES4_.exit.i ], [ %19, %invoke.cont24 ]
  store i64 %str.sroa.0.0.i, ptr %ref.tmp20, align 8, !alias.scope !32
  %input_text.sroa.2.0.text_.sroa_idx.i.i = getelementptr inbounds i8, ptr %ref.tmp20, i64 8
  store ptr %str.sroa.4.0.i, ptr %input_text.sroa.2.0.text_.sroa_idx.i.i, align 8, !alias.scope !32
  %delimiter_.i.i = getelementptr inbounds %"class.absl::lts_20230802::strings_internal::Splitter", ptr %ref.tmp20, i64 0, i32 1
  store i64 4294967343, ptr %delimiter_.i.i, align 8, !alias.scope !32
  %d.sroa.2.0.delimiter_.sroa_idx.i.i = getelementptr inbounds %"class.absl::lts_20230802::strings_internal::Splitter", ptr %ref.tmp20, i64 0, i32 1, i32 2
  store i32 0, ptr %d.sroa.2.0.delimiter_.sroa_idx.i.i, align 8, !alias.scope !32
  invoke void @_ZNK4absl12lts_2023080216strings_internal8SplitterINS1_13MaxSplitsImplINS0_6ByCharEEENS0_10AllowEmptyESt17basic_string_viewIcSt11char_traitsIcEEE13ConvertToPairISA_SA_EESt4pairIT_T0_Ev(ptr nonnull sret(%"struct.std::pair.328") align 8 %path_parts, ptr noundef nonnull align 8 dereferenceable(29) %ref.tmp20)
          to label %invoke.cont37 unwind label %lpad12

invoke.cont37:                                    ; preds = %invoke.cont36
  %vtable = load ptr, ptr %type, align 8
  %vfn = getelementptr inbounds ptr, ptr %vtable, i64 2
  %20 = load ptr, ptr %vfn, align 8
  %call40 = invoke { i64, ptr } %20(ptr noundef nonnull align 8 dereferenceable(8) %type)
          to label %invoke.cont39 unwind label %lpad12

invoke.cont39:                                    ; preds = %invoke.cont37
  %21 = extractvalue { i64, ptr } %call40, 0
  %22 = extractvalue { i64, ptr } %call40, 1
  %agg.tmp41.sroa.0.0.copyload = load i64, ptr %path_parts, align 8
  %agg.tmp41.sroa.2.0.first.sroa_idx = getelementptr inbounds i8, ptr %path_parts, i64 8
  %agg.tmp41.sroa.2.0.copyload = load ptr, ptr %agg.tmp41.sroa.2.0.first.sroa_idx, align 8
  %cmp.i.i23 = icmp eq i64 %21, %agg.tmp41.sroa.0.0.copyload
  br i1 %cmp.i.i23, label %land.rhs.i.i, label %if.then43

land.rhs.i.i:                                     ; preds = %invoke.cont39
  %cmp.i2.i.i.i = icmp eq i64 %21, 0
  br i1 %cmp.i2.i.i.i, label %if.end50, label %_ZNSt11char_traitsIcE7compareEPKcS2_m.exit.i.i.i

_ZNSt11char_traitsIcE7compareEPKcS2_m.exit.i.i.i: ; preds = %land.rhs.i.i
  %bcmp.i.i24 = call i32 @bcmp(ptr %22, ptr %agg.tmp41.sroa.2.0.copyload, i64 %21)
  %cmp.i.i.i25 = icmp eq i32 %bcmp.i.i24, 0
  br i1 %cmp.i.i.i25, label %if.end50, label %if.then43

if.then43:                                        ; preds = %invoke.cont39, %_ZNSt11char_traitsIcE7compareEPKcS2_m.exit.i.i.i
  invoke void @_ZN4absl12lts_2023080220InvalidArgumentErrorESt17basic_string_viewIcSt11char_traitsIcEE(ptr nonnull sret(%"class.absl::lts_20230802::Status") align 8 %ref.tmp44, i64 52, ptr nonnull @.str.77)
          to label %invoke.cont46 unwind label %lpad12

invoke.cont46:                                    ; preds = %if.then43
  %23 = load i64, ptr %ref.tmp44, align 8
  store i64 %23, ptr %agg.result, align 8
  store i64 54, ptr %ref.tmp44, align 8
  %cmp.i.i.i.i.i29 = icmp eq i64 %23, 0
  br i1 %cmp.i.i.i.i.i29, label %if.then.i.i.i30, label %cleanup

if.then.i.i.i30:                                  ; preds = %invoke.cont46
  invoke void @_ZN4absl12lts_2023080217internal_statusor6Helper26HandleInvalidStatusCtorArgEPNS0_6StatusE(ptr noundef nonnull %agg.result)
          to label %invoke.cont48 unwind label %lpad.i.i31

lpad.i.i31:                                       ; preds = %if.then.i.i.i30
  %24 = landingpad { ptr, i32 }
          cleanup
  call void @_ZN4absl12lts_202308026StatusD2Ev(ptr noundef nonnull align 8 dereferenceable(8) %agg.result) #25
  call void @_ZN4absl12lts_202308026StatusD2Ev(ptr noundef nonnull align 8 dereferenceable(8) %ref.tmp44) #25
  br label %ehcleanup111

invoke.cont48:                                    ; preds = %if.then.i.i.i30
  %.pre = load i64, ptr %ref.tmp44, align 8
  %and.i.i.i = and i64 %.pre, 1
  %cmp.i.i.i33 = icmp eq i64 %and.i.i.i, 0
  br i1 %cmp.i.i.i33, label %cleanup, label %if.then.i.i34

if.then.i.i34:                                    ; preds = %invoke.cont48
  invoke void @_ZN4absl12lts_202308026Status15UnrefNonInlinedEm(i64 noundef %.pre)
          to label %cleanup unwind label %terminate.lpad.i

terminate.lpad.i:                                 ; preds = %if.then.i.i34
  %25 = landingpad { ptr, i32 }
          catch ptr null
  %26 = extractvalue { ptr, i32 } %25, 0
  call void @__clang_call_terminate(ptr %26) #27
  unreachable

if.end50:                                         ; preds = %_ZNSt11char_traitsIcE7compareEPKcS2_m.exit.i.i.i, %land.rhs.i.i
  call void @llvm.memset.p0.i64(ptr noundef nonnull align 16 dereferenceable(24) %query_params51, i8 0, i64 24, i1 false)
  %27 = load i64, ptr %uri, align 8
  %cmp.i.i.i.i35 = icmp eq i64 %27, 0
  br i1 %cmp.i.i.i.i35, label %invoke.cont53, label %if.then.i.i60.invoke

invoke.cont53:                                    ; preds = %if.end50
  %_M_left.i.i = getelementptr inbounds %"class.absl::lts_20230802::internal_statusor::StatusOrData.316", ptr %uri, i64 0, i32 1, i32 0, i32 3, i32 0, i32 0, i32 1, i32 0, i32 2
  %28 = load ptr, ptr %_M_left.i.i, align 8
  %add.ptr.i.i39 = getelementptr inbounds %"class.absl::lts_20230802::internal_statusor::StatusOrData.316", ptr %uri, i64 0, i32 1, i32 0, i32 3, i32 0, i32 0, i32 1
  %cmp.i.not114 = icmp eq ptr %28, %add.ptr.i.i39
  br i1 %cmp.i.not114, label %invoke.cont86.thread, label %for.body.lr.ph

invoke.cont86.thread:                             ; preds = %invoke.cont53
  store i64 6, ptr %ref.tmp85, align 8
  %29 = getelementptr inbounds { i64, ptr }, ptr %ref.tmp85, i64 0, i32 1
  store ptr @.str.65, ptr %29, align 8
  br label %invoke.cont88

for.body.lr.ph:                                   ; preds = %invoke.cont53
  %30 = getelementptr inbounds { i64, ptr }, ptr %agg.tmp.i40, i64 0, i32 1
  %value = getelementptr inbounds %"struct.grpc_core::URI::QueryParam", ptr %ref.tmp62, i64 0, i32 1
  %31 = getelementptr inbounds { i64, ptr }, ptr %agg.tmp.i47, i64 0, i32 1
  %_M_finish.i = getelementptr inbounds %"struct.std::_Vector_base<grpc_core::URI::QueryParam, std::allocator<grpc_core::URI::QueryParam>>::_Vector_impl_data", ptr %query_params51, i64 0, i32 1
  %_M_end_of_storage.i = getelementptr inbounds %"struct.std::_Vector_base<grpc_core::URI::QueryParam, std::allocator<grpc_core::URI::QueryParam>>::_Vector_impl_data", ptr %query_params51, i64 0, i32 2
  br label %for.body

for.body:                                         ; preds = %for.body.lr.ph, %invoke.cont73
  %__begin1.sroa.0.0115 = phi ptr [ %28, %for.body.lr.ph ], [ %call.i57, %invoke.cont73 ]
  %_M_storage.i.i = getelementptr inbounds %"struct.std::_Rb_tree_node.469", ptr %__begin1.sroa.0.0115, i64 0, i32 1
  call void @_ZNSaIcEC1Ev(ptr noundef nonnull align 1 dereferenceable(1) %ref.tmp65) #25
  call void @llvm.lifetime.start.p0(i64 16, ptr nonnull %agg.tmp.i40)
  %agg.tmp3.sroa.0.0.copyload.i41 = load i64, ptr %_M_storage.i.i, align 8
  %agg.tmp3.sroa.2.0..sroa_idx.i42 = getelementptr inbounds %"struct.std::_Rb_tree_node.469", ptr %__begin1.sroa.0.0115, i64 0, i32 1, i32 0, i64 8
  %agg.tmp3.sroa.2.0.copyload.i43 = load ptr, ptr %agg.tmp3.sroa.2.0..sroa_idx.i42, align 8
  %call.i44 = call { i64, ptr } @_ZNSt7__cxx1112basic_stringIcSt11char_traitsIcESaIcEE17_S_to_string_viewESt17basic_string_viewIcS2_E(i64 %agg.tmp3.sroa.0.0.copyload.i41, ptr %agg.tmp3.sroa.2.0.copyload.i43) #25
  %32 = extractvalue { i64, ptr } %call.i44, 0
  %33 = extractvalue { i64, ptr } %call.i44, 1
  call void @_ZNSt7__cxx1112basic_stringIcSt11char_traitsIcESaIcEE12__sv_wrapperC1ESt17basic_string_viewIcS2_E(ptr noundef nonnull align 8 dereferenceable(16) %agg.tmp.i40, i64 %32, ptr %33) #25
  %34 = load i64, ptr %agg.tmp.i40, align 8
  %35 = load ptr, ptr %30, align 8
  invoke void @_ZNSt7__cxx1112basic_stringIcSt11char_traitsIcESaIcEEC2ENS4_12__sv_wrapperERKS3_(ptr noundef nonnull align 8 dereferenceable(32) %ref.tmp62, i64 %34, ptr %35, ptr noundef nonnull align 1 dereferenceable(1) %ref.tmp65)
          to label %invoke.cont67 unwind label %lpad66

invoke.cont67:                                    ; preds = %for.body
  call void @llvm.lifetime.end.p0(i64 16, ptr nonnull %agg.tmp.i40)
  %second = getelementptr inbounds %"struct.std::_Rb_tree_node.469", ptr %__begin1.sroa.0.0115, i64 0, i32 1, i32 0, i64 16
  call void @_ZNSaIcEC1Ev(ptr noundef nonnull align 1 dereferenceable(1) %ref.tmp68) #25
  call void @llvm.lifetime.start.p0(i64 16, ptr nonnull %agg.tmp.i47)
  %agg.tmp3.sroa.0.0.copyload.i48 = load i64, ptr %second, align 8
  %agg.tmp3.sroa.2.0..sroa_idx.i49 = getelementptr inbounds %"struct.std::_Rb_tree_node.469", ptr %__begin1.sroa.0.0115, i64 0, i32 1, i32 0, i64 24
  %agg.tmp3.sroa.2.0.copyload.i50 = load ptr, ptr %agg.tmp3.sroa.2.0..sroa_idx.i49, align 8
  %call.i51 = call { i64, ptr } @_ZNSt7__cxx1112basic_stringIcSt11char_traitsIcESaIcEE17_S_to_string_viewESt17basic_string_viewIcS2_E(i64 %agg.tmp3.sroa.0.0.copyload.i48, ptr %agg.tmp3.sroa.2.0.copyload.i50) #25
  %36 = extractvalue { i64, ptr } %call.i51, 0
  %37 = extractvalue { i64, ptr } %call.i51, 1
  call void @_ZNSt7__cxx1112basic_stringIcSt11char_traitsIcESaIcEE12__sv_wrapperC1ESt17basic_string_viewIcS2_E(ptr noundef nonnull align 8 dereferenceable(16) %agg.tmp.i47, i64 %36, ptr %37) #25
  %38 = load i64, ptr %agg.tmp.i47, align 8
  %39 = load ptr, ptr %31, align 8
  invoke void @_ZNSt7__cxx1112basic_stringIcSt11char_traitsIcESaIcEEC2ENS4_12__sv_wrapperERKS3_(ptr noundef nonnull align 8 dereferenceable(32) %value, i64 %38, ptr %39, ptr noundef nonnull align 1 dereferenceable(1) %ref.tmp68)
          to label %invoke.cont70 unwind label %cleanup.action79

invoke.cont70:                                    ; preds = %invoke.cont67
  call void @llvm.lifetime.end.p0(i64 16, ptr nonnull %agg.tmp.i47)
  %40 = load ptr, ptr %_M_finish.i, align 8
  %41 = load ptr, ptr %_M_end_of_storage.i, align 16
  %cmp.not.i54 = icmp eq ptr %40, %41
  br i1 %cmp.not.i54, label %if.else.i, label %if.then.i55

if.then.i55:                                      ; preds = %invoke.cont70
  call void @_ZNSt7__cxx1112basic_stringIcSt11char_traitsIcESaIcEEC1EOS4_(ptr noundef nonnull align 8 dereferenceable(32) %40, ptr noundef nonnull align 8 dereferenceable(32) %ref.tmp62) #25
  %value.i.i.i.i = getelementptr inbounds %"struct.grpc_core::URI::QueryParam", ptr %40, i64 0, i32 1
  call void @_ZNSt7__cxx1112basic_stringIcSt11char_traitsIcESaIcEEC1EOS4_(ptr noundef nonnull align 8 dereferenceable(32) %value.i.i.i.i, ptr noundef nonnull align 8 dereferenceable(32) %value) #25
  %42 = load ptr, ptr %_M_finish.i, align 8
  %incdec.ptr.i = getelementptr inbounds %"struct.grpc_core::URI::QueryParam", ptr %42, i64 1
  store ptr %incdec.ptr.i, ptr %_M_finish.i, align 8
  br label %invoke.cont73

if.else.i:                                        ; preds = %invoke.cont70
  invoke void @_ZNSt6vectorIN9grpc_core3URI10QueryParamESaIS2_EE17_M_realloc_insertIJS2_EEEvN9__gnu_cxx17__normal_iteratorIPS2_S4_EEDpOT_(ptr noundef nonnull align 8 dereferenceable(24) %query_params51, ptr %40, ptr noundef nonnull align 8 dereferenceable(64) %ref.tmp62)
          to label %invoke.cont73 unwind label %ehcleanup76

invoke.cont73:                                    ; preds = %if.else.i, %if.then.i55
  call void @_ZNSt7__cxx1112basic_stringIcSt11char_traitsIcESaIcEED1Ev(ptr noundef nonnull align 8 dereferenceable(32) %value) #25
  call void @_ZNSt7__cxx1112basic_stringIcSt11char_traitsIcESaIcEED1Ev(ptr noundef nonnull align 8 dereferenceable(32) %ref.tmp62) #25
  call void @_ZNSaIcED1Ev(ptr noundef nonnull align 1 dereferenceable(1) %ref.tmp68) #25
  call void @_ZNSaIcED1Ev(ptr noundef nonnull align 1 dereferenceable(1) %ref.tmp65) #25
  %call.i57 = call noundef ptr @_ZSt18_Rb_tree_incrementPKSt18_Rb_tree_node_base(ptr noundef nonnull %__begin1.sroa.0.0115) #29
  %cmp.i.not = icmp eq ptr %call.i57, %add.ptr.i.i39
  br i1 %cmp.i.not, label %invoke.cont86, label %for.body

lpad52:                                           ; preds = %if.then.i.i60.invoke, %invoke.cont88
  %43 = landingpad { ptr, i32 }
          cleanup
  br label %ehcleanup110

lpad66:                                           ; preds = %for.body
  %44 = landingpad { ptr, i32 }
          cleanup
  br label %ehcleanup81

ehcleanup76:                                      ; preds = %if.else.i
  %45 = landingpad { ptr, i32 }
          cleanup
  call void @_ZNSt7__cxx1112basic_stringIcSt11char_traitsIcESaIcEED1Ev(ptr noundef nonnull align 8 dereferenceable(32) %value) #25
  call void @_ZNSt7__cxx1112basic_stringIcSt11char_traitsIcESaIcEED1Ev(ptr noundef nonnull align 8 dereferenceable(32) %ref.tmp62) #25
  call void @_ZNSaIcED1Ev(ptr noundef nonnull align 1 dereferenceable(1) %ref.tmp68) #25
  br label %ehcleanup81

cleanup.action79:                                 ; preds = %invoke.cont67
  %46 = landingpad { ptr, i32 }
          cleanup
  call void @_ZNSaIcED1Ev(ptr noundef nonnull align 1 dereferenceable(1) %ref.tmp68) #25
  call void @_ZNSt7__cxx1112basic_stringIcSt11char_traitsIcESaIcEED1Ev(ptr noundef nonnull align 8 dereferenceable(32) %ref.tmp62) #25
  br label %ehcleanup81

ehcleanup81:                                      ; preds = %ehcleanup76, %cleanup.action79, %lpad66
  %.pn7.pn = phi { ptr, i32 } [ %46, %cleanup.action79 ], [ %45, %ehcleanup76 ], [ %44, %lpad66 ]
  call void @_ZNSaIcED1Ev(ptr noundef nonnull align 1 dereferenceable(1) %ref.tmp65) #25
  br label %ehcleanup110

invoke.cont86:                                    ; preds = %invoke.cont73
  %.pre116 = load i64, ptr %uri, align 8
  %47 = icmp eq i64 %.pre116, 0
  store i64 6, ptr %ref.tmp85, align 8
  %48 = getelementptr inbounds { i64, ptr }, ptr %ref.tmp85, i64 0, i32 1
  store ptr @.str.65, ptr %48, align 8
  br i1 %47, label %invoke.cont88, label %if.then.i.i60.invoke

if.then.i.i60.invoke:                             ; preds = %if.end50, %invoke.cont86
  invoke void @_ZN4absl12lts_2023080217internal_statusor6Helper5CrashERKNS0_6StatusE(ptr noundef nonnull align 8 dereferenceable(8) %uri) #28
          to label %if.then.i.i60.cont unwind label %lpad52

if.then.i.i60.cont:                               ; preds = %if.then.i.i60.invoke
  unreachable

invoke.cont88:                                    ; preds = %invoke.cont86.thread, %invoke.cont86
  %authority_.i = getelementptr inbounds %"class.absl::lts_20230802::internal_statusor::StatusOrData.316", ptr %uri, i64 0, i32 1, i32 0, i32 1
  %call.i63 = call { i64, ptr } @_ZNKSt7__cxx1112basic_stringIcSt11char_traitsIcESaIcEEcvSt17basic_string_viewIcS2_EEv(ptr noundef nonnull align 8 dereferenceable(32) %authority_.i) #25
  %49 = extractvalue { i64, ptr } %call.i63, 0
  store i64 %49, ptr %ref.tmp87, align 8
  %50 = getelementptr inbounds { i64, ptr }, ptr %ref.tmp87, i64 0, i32 1
  %51 = extractvalue { i64, ptr } %call.i63, 1
  store ptr %51, ptr %50, align 8
  invoke void @_ZN4absl12lts_202308026StrCatB5cxx11ERKNS0_8AlphaNumES3_(ptr nonnull sret(%"class.std::__cxx11::basic_string") align 8 %ref.tmp83, ptr noundef nonnull align 8 dereferenceable(48) %ref.tmp85, ptr noundef nonnull align 8 dereferenceable(48) %ref.tmp87)
          to label %invoke.cont93 unwind label %lpad52

invoke.cont93:                                    ; preds = %invoke.cont88
  %key94 = getelementptr inbounds %"struct.grpc_core::XdsClient::XdsResourceName", ptr %ref.tmp83, i64 0, i32 1
  %second96 = getelementptr inbounds %"struct.std::pair.328", ptr %path_parts, i64 0, i32 1
  call void @_ZNSaIcEC1Ev(ptr noundef nonnull align 1 dereferenceable(1) %ref.tmp97) #25
  call void @llvm.lifetime.start.p0(i64 16, ptr nonnull %agg.tmp.i64)
  %agg.tmp3.sroa.0.0.copyload.i65 = load i64, ptr %second96, align 8
  %agg.tmp3.sroa.2.0..sroa_idx.i66 = getelementptr inbounds %"struct.std::pair.328", ptr %path_parts, i64 0, i32 1, i32 1
  %agg.tmp3.sroa.2.0.copyload.i67 = load ptr, ptr %agg.tmp3.sroa.2.0..sroa_idx.i66, align 8
  %call.i68 = call { i64, ptr } @_ZNSt7__cxx1112basic_stringIcSt11char_traitsIcESaIcEE17_S_to_string_viewESt17basic_string_viewIcS2_E(i64 %agg.tmp3.sroa.0.0.copyload.i65, ptr %agg.tmp3.sroa.2.0.copyload.i67) #25
  %52 = extractvalue { i64, ptr } %call.i68, 0
  %53 = extractvalue { i64, ptr } %call.i68, 1
  call void @_ZNSt7__cxx1112basic_stringIcSt11char_traitsIcESaIcEE12__sv_wrapperC1ESt17basic_string_viewIcS2_E(ptr noundef nonnull align 8 dereferenceable(16) %agg.tmp.i64, i64 %52, ptr %53) #25
  %54 = load i64, ptr %agg.tmp.i64, align 8
  %55 = getelementptr inbounds { i64, ptr }, ptr %agg.tmp.i64, i64 0, i32 1
  %56 = load ptr, ptr %55, align 8
  invoke void @_ZNSt7__cxx1112basic_stringIcSt11char_traitsIcESaIcEEC2ENS4_12__sv_wrapperERKS3_(ptr noundef nonnull align 8 dereferenceable(32) %key94, i64 %54, ptr %56, ptr noundef nonnull align 1 dereferenceable(1) %ref.tmp97)
          to label %_ZN9grpc_core9XdsClient15XdsResourceNameD2Ev.exit93 unwind label %cleanup.action108

_ZN9grpc_core9XdsClient15XdsResourceNameD2Ev.exit93: ; preds = %invoke.cont93
  call void @llvm.lifetime.end.p0(i64 16, ptr nonnull %agg.tmp.i64)
  %query_params100 = getelementptr inbounds %"struct.grpc_core::XdsClient::XdsResourceName", ptr %ref.tmp83, i64 0, i32 1, i32 1
  %_M_finish3.i.i.i.i = getelementptr inbounds %"struct.std::_Vector_base<grpc_core::URI::QueryParam, std::allocator<grpc_core::URI::QueryParam>>::_Vector_impl_data", ptr %query_params51, i64 0, i32 1
  %57 = load <2 x ptr>, ptr %query_params51, align 16
  store <2 x ptr> %57, ptr %query_params100, align 8
  %_M_end_of_storage.i.i.i.i = getelementptr inbounds %"struct.grpc_core::XdsClient::XdsResourceName", ptr %ref.tmp83, i64 0, i32 1, i32 1, i32 0, i32 0, i32 0, i32 2
  %_M_end_of_storage4.i.i.i.i = getelementptr inbounds %"struct.std::_Vector_base<grpc_core::URI::QueryParam, std::allocator<grpc_core::URI::QueryParam>>::_Vector_impl_data", ptr %query_params51, i64 0, i32 2
  %58 = load ptr, ptr %_M_end_of_storage4.i.i.i.i, align 16
  store ptr %58, ptr %_M_end_of_storage.i.i.i.i, align 8
  call void @llvm.memset.p0.i64(ptr noundef nonnull align 16 dereferenceable(24) %query_params51, i8 0, i64 24, i1 false)
  %59 = getelementptr inbounds %"class.absl::lts_20230802::internal_statusor::StatusOrData.187", ptr %agg.result, i64 0, i32 1
  call void @_ZNSt7__cxx1112basic_stringIcSt11char_traitsIcESaIcEEC1EOS4_(ptr noundef nonnull align 8 dereferenceable(32) %59, ptr noundef nonnull align 8 dereferenceable(32) %ref.tmp83) #25
  %key.i.i.i.i71 = getelementptr inbounds %"class.absl::lts_20230802::internal_statusor::StatusOrData.187", ptr %agg.result, i64 0, i32 1, i32 0, i32 1
  call void @_ZNSt7__cxx1112basic_stringIcSt11char_traitsIcESaIcEEC1EOS4_(ptr noundef nonnull align 8 dereferenceable(32) %key.i.i.i.i71, ptr noundef nonnull align 8 dereferenceable(32) %key94) #25
  %query_params.i.i.i.i.i73 = getelementptr inbounds %"class.absl::lts_20230802::internal_statusor::StatusOrData.187", ptr %agg.result, i64 0, i32 1, i32 0, i32 1, i32 1
  %60 = load <2 x ptr>, ptr %query_params100, align 8
  store <2 x ptr> %60, ptr %query_params.i.i.i.i.i73, align 8
  %_M_end_of_storage.i.i.i.i.i.i.i.i.i77 = getelementptr inbounds %"class.absl::lts_20230802::internal_statusor::StatusOrData.187", ptr %agg.result, i64 0, i32 1, i32 0, i32 1, i32 1, i32 0, i32 0, i32 0, i32 2
  %61 = load ptr, ptr %_M_end_of_storage.i.i.i.i, align 8
  store ptr %61, ptr %_M_end_of_storage.i.i.i.i.i.i.i.i.i77, align 8
  call void @llvm.memset.p0.i64(ptr noundef nonnull align 8 dereferenceable(24) %query_params100, i8 0, i64 24, i1 false)
  store i64 0, ptr %agg.result, align 8
  call void @_ZNSt7__cxx1112basic_stringIcSt11char_traitsIcESaIcEED1Ev(ptr noundef nonnull align 8 dereferenceable(32) %key94) #25
  call void @_ZNSt7__cxx1112basic_stringIcSt11char_traitsIcESaIcEED1Ev(ptr noundef nonnull align 8 dereferenceable(32) %ref.tmp83) #25
  call void @_ZNSaIcED1Ev(ptr noundef nonnull align 1 dereferenceable(1) %ref.tmp97) #25
  %62 = load ptr, ptr %query_params51, align 16
  %63 = load ptr, ptr %_M_finish3.i.i.i.i, align 8
  %cmp.not3.i.i.i.i = icmp eq ptr %62, %63
  br i1 %cmp.not3.i.i.i.i, label %invoke.cont.i, label %for.body.i.i.i.i

for.body.i.i.i.i:                                 ; preds = %_ZN9grpc_core9XdsClient15XdsResourceNameD2Ev.exit93, %for.body.i.i.i.i
  %__first.addr.04.i.i.i.i = phi ptr [ %incdec.ptr.i.i.i.i, %for.body.i.i.i.i ], [ %62, %_ZN9grpc_core9XdsClient15XdsResourceNameD2Ev.exit93 ]
  %value.i.i.i.i.i.i = getelementptr inbounds %"struct.grpc_core::URI::QueryParam", ptr %__first.addr.04.i.i.i.i, i64 0, i32 1
  call void @_ZNSt7__cxx1112basic_stringIcSt11char_traitsIcESaIcEED1Ev(ptr noundef nonnull align 8 dereferenceable(32) %value.i.i.i.i.i.i) #25
  call void @_ZNSt7__cxx1112basic_stringIcSt11char_traitsIcESaIcEED1Ev(ptr noundef nonnull align 8 dereferenceable(32) %__first.addr.04.i.i.i.i) #25
  %incdec.ptr.i.i.i.i = getelementptr inbounds %"struct.grpc_core::URI::QueryParam", ptr %__first.addr.04.i.i.i.i, i64 1
  %cmp.not.i.i.i.i = icmp eq ptr %incdec.ptr.i.i.i.i, %63
  br i1 %cmp.not.i.i.i.i, label %invoke.contthread-pre-split.i, label %for.body.i.i.i.i, !llvm.loop !35

invoke.contthread-pre-split.i:                    ; preds = %for.body.i.i.i.i
  %.pr.i = load ptr, ptr %query_params51, align 16
  br label %invoke.cont.i

invoke.cont.i:                                    ; preds = %invoke.contthread-pre-split.i, %_ZN9grpc_core9XdsClient15XdsResourceNameD2Ev.exit93
  %64 = phi ptr [ %.pr.i, %invoke.contthread-pre-split.i ], [ %62, %_ZN9grpc_core9XdsClient15XdsResourceNameD2Ev.exit93 ]
  %tobool.not.i.i.i = icmp eq ptr %64, null
  br i1 %tobool.not.i.i.i, label %cleanup, label %if.then.i.i.i95

if.then.i.i.i95:                                  ; preds = %invoke.cont.i
  call void @_ZdlPv(ptr noundef nonnull %64) #30
  br label %cleanup

cleanup.action108:                                ; preds = %invoke.cont93
  %65 = landingpad { ptr, i32 }
          cleanup
  call void @_ZNSaIcED1Ev(ptr noundef nonnull align 1 dereferenceable(1) %ref.tmp97) #25
  call void @_ZNSt7__cxx1112basic_stringIcSt11char_traitsIcESaIcEED1Ev(ptr noundef nonnull align 8 dereferenceable(32) %ref.tmp83) #25
  br label %ehcleanup110

ehcleanup110:                                     ; preds = %cleanup.action108, %ehcleanup81, %lpad52
  %.pn7.pn.pn = phi { ptr, i32 } [ %.pn7.pn, %ehcleanup81 ], [ %65, %cleanup.action108 ], [ %43, %lpad52 ]
  call void @_ZNSt6vectorIN9grpc_core3URI10QueryParamESaIS2_EED2Ev(ptr noundef nonnull align 8 dereferenceable(24) %query_params51) #25
  br label %ehcleanup111

cleanup:                                          ; preds = %invoke.cont46, %if.then15, %if.then.i.i.i95, %invoke.cont.i, %if.then.i.i34, %invoke.cont48, %if.then.i.i.i, %_ZN4absl12lts_202308026StatusC2ERKS1_.exit.i.i
  %66 = load i64, ptr %uri, align 8
  %cmp.i.i.i.i96 = icmp eq i64 %66, 0
  br i1 %cmp.i.i.i.i96, label %_ZN4absl12lts_202308026StatusD2Ev.exit.i.i, label %if.else.i.i

_ZN4absl12lts_202308026StatusD2Ev.exit.i.i:       ; preds = %cleanup
  %67 = getelementptr inbounds %"class.absl::lts_20230802::internal_statusor::StatusOrData.316", ptr %uri, i64 0, i32 1
  call void @_ZN9grpc_core3URID2Ev(ptr noundef nonnull align 8 dereferenceable(200) %67) #25
  br label %return

if.else.i.i:                                      ; preds = %cleanup
  %and.i.i.i1.i.i = and i64 %66, 1
  %cmp.i.i.i2.i.i = icmp eq i64 %and.i.i.i1.i.i, 0
  br i1 %cmp.i.i.i2.i.i, label %return, label %if.then.i.i3.i.i

if.then.i.i3.i.i:                                 ; preds = %if.else.i.i
  invoke void @_ZN4absl12lts_202308026Status15UnrefNonInlinedEm(i64 noundef %66)
          to label %return unwind label %terminate.lpad.i4.i.i

terminate.lpad.i4.i.i:                            ; preds = %if.then.i.i3.i.i
  %68 = landingpad { ptr, i32 }
          catch ptr null
  %69 = extractvalue { ptr, i32 } %68, 0
  call void @__clang_call_terminate(ptr %69) #27
  unreachable

ehcleanup111:                                     ; preds = %lpad12, %lpad.i.i, %ehcleanup110, %lpad.i.i31
  %.pn11 = phi { ptr, i32 } [ %24, %lpad.i.i31 ], [ %.pn7.pn.pn, %ehcleanup110 ], [ %17, %lpad12 ], [ %16, %lpad.i.i ]
  call void @_ZN4absl12lts_202308028StatusOrIN9grpc_core3URIEED2Ev(ptr noundef nonnull align 8 dereferenceable(208) %uri) #25
  br label %eh.resume

return:                                           ; preds = %if.then.i.i3.i.i, %if.else.i.i, %_ZN4absl12lts_202308026StatusD2Ev.exit.i.i, %_ZN9grpc_core9XdsClient15XdsResourceNameD2Ev.exit
  ret void

eh.resume:                                        ; preds = %ehcleanup111, %ehcleanup10
  %.pn11.pn = phi { ptr, i32 } [ %.pn11, %ehcleanup111 ], [ %.pn.pn, %ehcleanup10 ]
  resume { ptr, i32 } %.pn11.pn
}

; Function Attrs: mustprogress uwtable
define linkonce_odr noundef nonnull align 8 dereferenceable(48) ptr @_ZNSt3mapINSt7__cxx1112basic_stringIcSt11char_traitsIcESaIcEEESt3setIN9grpc_core9XdsClient14XdsResourceKeyESt4lessIS9_ESaIS9_EESA_IS5_ESaISt4pairIKS5_SD_EEEixERSG_(ptr noundef nonnull align 8 dereferenceable(48) %this, ptr noundef nonnull align 8 dereferenceable(32) %__k) local_unnamed_addr #3 comdat align 2 personality ptr @__gxx_personality_v0 {
entry:
  %ref.tmp9 = alloca %"class.std::tuple.476", align 8
  %ref.tmp10 = alloca %"class.std::tuple.479", align 1
  %_M_parent.i.i.i.i = getelementptr inbounds i8, ptr %this, i64 16
  %0 = load ptr, ptr %_M_parent.i.i.i.i, align 8
  %add.ptr.i.i.i = getelementptr inbounds i8, ptr %this, i64 8
  %cmp.not6.i.i.i = icmp eq ptr %0, null
  br i1 %cmp.not6.i.i.i, label %if.then, label %while.body.i.i.i

while.body.i.i.i:                                 ; preds = %entry, %_ZNKSt4lessINSt7__cxx1112basic_stringIcSt11char_traitsIcESaIcEEEEclERKS5_S8_.exit.i.i.i
  %__x.addr.08.i.i.i = phi ptr [ %__x.addr.1.i.i.i, %_ZNKSt4lessINSt7__cxx1112basic_stringIcSt11char_traitsIcESaIcEEEEclERKS5_S8_.exit.i.i.i ], [ %0, %entry ]
  %__y.addr.07.i.i.i = phi ptr [ %__y.addr.1.i.i.i, %_ZNKSt4lessINSt7__cxx1112basic_stringIcSt11char_traitsIcESaIcEEEEclERKS5_S8_.exit.i.i.i ], [ %add.ptr.i.i.i, %entry ]
  %_M_storage.i.i.i.i.i = getelementptr inbounds %"struct.std::_Rb_tree_node.429", ptr %__x.addr.08.i.i.i, i64 0, i32 1
  %call.i.i.i.i.i = invoke noundef i32 @_ZNKSt7__cxx1112basic_stringIcSt11char_traitsIcESaIcEE7compareERKS4_(ptr noundef nonnull align 8 dereferenceable(32) %_M_storage.i.i.i.i.i, ptr noundef nonnull align 8 dereferenceable(32) %__k)
          to label %_ZNKSt4lessINSt7__cxx1112basic_stringIcSt11char_traitsIcESaIcEEEEclERKS5_S8_.exit.i.i.i unwind label %terminate.lpad.i.i.i.i.i

terminate.lpad.i.i.i.i.i:                         ; preds = %while.body.i.i.i
  %1 = landingpad { ptr, i32 }
          catch ptr null
  %2 = extractvalue { ptr, i32 } %1, 0
  tail call void @__clang_call_terminate(ptr %2) #27
  unreachable

_ZNKSt4lessINSt7__cxx1112basic_stringIcSt11char_traitsIcESaIcEEEEclERKS5_S8_.exit.i.i.i: ; preds = %while.body.i.i.i
  %cmp.i.i.i.i.i = icmp slt i32 %call.i.i.i.i.i, 0
  %_M_right.i.i.i.i = getelementptr inbounds %"struct.std::_Rb_tree_node_base", ptr %__x.addr.08.i.i.i, i64 0, i32 3
  %_M_left.i.i.i.i = getelementptr inbounds %"struct.std::_Rb_tree_node_base", ptr %__x.addr.08.i.i.i, i64 0, i32 2
  %__y.addr.1.i.i.i = select i1 %cmp.i.i.i.i.i, ptr %__y.addr.07.i.i.i, ptr %__x.addr.08.i.i.i
  %__x.addr.1.in.i.i.i = select i1 %cmp.i.i.i.i.i, ptr %_M_right.i.i.i.i, ptr %_M_left.i.i.i.i
  %__x.addr.1.i.i.i = load ptr, ptr %__x.addr.1.in.i.i.i, align 8
  %cmp.not.i.i.i = icmp eq ptr %__x.addr.1.i.i.i, null
  br i1 %cmp.not.i.i.i, label %_ZNSt3mapINSt7__cxx1112basic_stringIcSt11char_traitsIcESaIcEEESt3setIN9grpc_core9XdsClient14XdsResourceKeyESt4lessIS9_ESaIS9_EESA_IS5_ESaISt4pairIKS5_SD_EEE11lower_boundERSG_.exit, label %while.body.i.i.i, !llvm.loop !36

_ZNSt3mapINSt7__cxx1112basic_stringIcSt11char_traitsIcESaIcEEESt3setIN9grpc_core9XdsClient14XdsResourceKeyESt4lessIS9_ESaIS9_EESA_IS5_ESaISt4pairIKS5_SD_EEE11lower_boundERSG_.exit: ; preds = %_ZNKSt4lessINSt7__cxx1112basic_stringIcSt11char_traitsIcESaIcEEEEclERKS5_S8_.exit.i.i.i
  %cmp.i = icmp eq ptr %__y.addr.1.i.i.i, %add.ptr.i.i.i
  br i1 %cmp.i, label %if.then, label %lor.rhs

lor.rhs:                                          ; preds = %_ZNSt3mapINSt7__cxx1112basic_stringIcSt11char_traitsIcESaIcEEESt3setIN9grpc_core9XdsClient14XdsResourceKeyESt4lessIS9_ESaIS9_EESA_IS5_ESaISt4pairIKS5_SD_EEE11lower_boundERSG_.exit
  %_M_storage.i.i = getelementptr inbounds %"struct.std::_Rb_tree_node.429", ptr %__y.addr.1.i.i.i, i64 0, i32 1
  %call.i.i = invoke noundef i32 @_ZNKSt7__cxx1112basic_stringIcSt11char_traitsIcESaIcEE7compareERKS4_(ptr noundef nonnull align 8 dereferenceable(32) %__k, ptr noundef nonnull align 8 dereferenceable(32) %_M_storage.i.i)
          to label %_ZNKSt4lessINSt7__cxx1112basic_stringIcSt11char_traitsIcESaIcEEEEclERKS5_S8_.exit unwind label %terminate.lpad.i.i

terminate.lpad.i.i:                               ; preds = %lor.rhs
  %3 = landingpad { ptr, i32 }
          catch ptr null
  %4 = extractvalue { ptr, i32 } %3, 0
  tail call void @__clang_call_terminate(ptr %4) #27
  unreachable

_ZNKSt4lessINSt7__cxx1112basic_stringIcSt11char_traitsIcESaIcEEEEclERKS5_S8_.exit: ; preds = %lor.rhs
  %cmp.i.i = icmp slt i32 %call.i.i, 0
  br i1 %cmp.i.i, label %if.then, label %if.end

if.then:                                          ; preds = %entry, %_ZNSt3mapINSt7__cxx1112basic_stringIcSt11char_traitsIcESaIcEEESt3setIN9grpc_core9XdsClient14XdsResourceKeyESt4lessIS9_ESaIS9_EESA_IS5_ESaISt4pairIKS5_SD_EEE11lower_boundERSG_.exit, %_ZNKSt4lessINSt7__cxx1112basic_stringIcSt11char_traitsIcESaIcEEEEclERKS5_S8_.exit
  %__y.addr.0.lcssa.i.i.i9 = phi ptr [ %add.ptr.i.i.i, %_ZNSt3mapINSt7__cxx1112basic_stringIcSt11char_traitsIcESaIcEEESt3setIN9grpc_core9XdsClient14XdsResourceKeyESt4lessIS9_ESaIS9_EESA_IS5_ESaISt4pairIKS5_SD_EEE11lower_boundERSG_.exit ], [ %__y.addr.1.i.i.i, %_ZNKSt4lessINSt7__cxx1112basic_stringIcSt11char_traitsIcESaIcEEEEclERKS5_S8_.exit ], [ %add.ptr.i.i.i, %entry ]
  store ptr %__k, ptr %ref.tmp9, align 8
  %call12 = call ptr @_ZNSt8_Rb_treeINSt7__cxx1112basic_stringIcSt11char_traitsIcESaIcEEESt4pairIKS5_St3setIN9grpc_core9XdsClient14XdsResourceKeyESt4lessISB_ESaISB_EEESt10_Select1stISG_ESC_IS5_ESaISG_EE22_M_emplace_hint_uniqueIJRKSt21piecewise_construct_tSt5tupleIJRS7_EESQ_IJEEEEESt17_Rb_tree_iteratorISG_ESt23_Rb_tree_const_iteratorISG_EDpOT_(ptr noundef nonnull align 8 dereferenceable(48) %this, ptr %__y.addr.0.lcssa.i.i.i9, ptr noundef nonnull align 1 dereferenceable(1) @_ZSt19piecewise_construct, ptr noundef nonnull align 8 dereferenceable(8) %ref.tmp9, ptr noundef nonnull align 1 dereferenceable(1) %ref.tmp10)
  br label %if.end

if.end:                                           ; preds = %if.then, %_ZNKSt4lessINSt7__cxx1112basic_stringIcSt11char_traitsIcESaIcEEEEclERKS5_S8_.exit
  %__i.sroa.0.0 = phi ptr [ %call12, %if.then ], [ %__y.addr.1.i.i.i, %_ZNKSt4lessINSt7__cxx1112basic_stringIcSt11char_traitsIcESaIcEEEEclERKS5_S8_.exit ]
  %second = getelementptr inbounds %"struct.std::_Rb_tree_node.429", ptr %__i.sroa.0.0, i64 0, i32 1, i32 0, i64 32
  ret ptr %second
}

; Function Attrs: mustprogress uwtable
define linkonce_odr { ptr, i8 } @_ZNSt3setIN9grpc_core9XdsClient14XdsResourceKeyESt4lessIS2_ESaIS2_EE6insertERKS2_(ptr noundef nonnull align 8 dereferenceable(48) %this, ptr noundef nonnull align 8 dereferenceable(56) %__x) local_unnamed_addr #3 comdat align 2 {
entry:
  %__an.i = alloca %"struct.std::_Rb_tree<grpc_core::XdsClient::XdsResourceKey, grpc_core::XdsClient::XdsResourceKey, std::_Identity<grpc_core::XdsClient::XdsResourceKey>, std::less<grpc_core::XdsClient::XdsResourceKey>>::_Alloc_node", align 8
  call void @llvm.lifetime.start.p0(i64 8, ptr nonnull %__an.i)
  %call2.i = tail call { ptr, ptr } @_ZNSt8_Rb_treeIN9grpc_core9XdsClient14XdsResourceKeyES2_St9_IdentityIS2_ESt4lessIS2_ESaIS2_EE24_M_get_insert_unique_posERKS2_(ptr noundef nonnull align 8 dereferenceable(48) %this, ptr noundef nonnull align 8 dereferenceable(56) %__x)
  %0 = extractvalue { ptr, ptr } %call2.i, 0
  %1 = extractvalue { ptr, ptr } %call2.i, 1
  %tobool.not.i = icmp eq ptr %1, null
  br i1 %tobool.not.i, label %_ZNSt8_Rb_treeIN9grpc_core9XdsClient14XdsResourceKeyES2_St9_IdentityIS2_ESt4lessIS2_ESaIS2_EE16_M_insert_uniqueIRKS2_EESt4pairISt17_Rb_tree_iteratorIS2_EbEOT_.exit, label %if.then.i

if.then.i:                                        ; preds = %entry
  store ptr %this, ptr %__an.i, align 8
  %call5.i = call ptr @_ZNSt8_Rb_treeIN9grpc_core9XdsClient14XdsResourceKeyES2_St9_IdentityIS2_ESt4lessIS2_ESaIS2_EE10_M_insert_IRKS2_NS8_11_Alloc_nodeEEESt17_Rb_tree_iteratorIS2_EPSt18_Rb_tree_node_baseSG_OT_RT0_(ptr noundef nonnull align 8 dereferenceable(48) %this, ptr noundef %0, ptr noundef nonnull %1, ptr noundef nonnull align 8 dereferenceable(56) %__x, ptr noundef nonnull align 8 dereferenceable(8) %__an.i)
  br label %_ZNSt8_Rb_treeIN9grpc_core9XdsClient14XdsResourceKeyES2_St9_IdentityIS2_ESt4lessIS2_ESaIS2_EE16_M_insert_uniqueIRKS2_EESt4pairISt17_Rb_tree_iteratorIS2_EbEOT_.exit

_ZNSt8_Rb_treeIN9grpc_core9XdsClient14XdsResourceKeyES2_St9_IdentityIS2_ESt4lessIS2_ESaIS2_EE16_M_insert_uniqueIRKS2_EESt4pairISt17_Rb_tree_iteratorIS2_EbEOT_.exit: ; preds = %entry, %if.then.i
  %retval.sroa.0.0.i = phi ptr [ %call5.i, %if.then.i ], [ %0, %entry ]
  %retval.sroa.3.0.i = phi i8 [ 1, %if.then.i ], [ 0, %entry ]
  %.fca.0.insert.i = insertvalue { ptr, i8 } poison, ptr %retval.sroa.0.0.i, 0
  call void @llvm.lifetime.end.p0(i64 8, ptr nonnull %__an.i)
  %.fca.1.insert = insertvalue { ptr, i8 } %.fca.0.insert.i, i8 %retval.sroa.3.0.i, 1
  ret { ptr, i8 } %.fca.1.insert
}

; Function Attrs: mustprogress uwtable
define linkonce_odr void @_ZNSt7__cxx1112basic_stringIcSt11char_traitsIcESaIcEEC2ISt17basic_string_viewIcS2_EvEERKT_RKS3_(ptr noundef nonnull align 8 dereferenceable(32) %this, ptr noundef nonnull align 8 dereferenceable(16) %__t, ptr noundef nonnull align 1 dereferenceable(1) %__a) unnamed_addr #3 comdat align 2 {
entry:
  %agg.tmp = alloca %"struct.std::__cxx11::basic_string<char>::__sv_wrapper", align 8
  %agg.tmp3.sroa.0.0.copyload = load i64, ptr %__t, align 8
  %agg.tmp3.sroa.2.0..sroa_idx = getelementptr inbounds i8, ptr %__t, i64 8
  %agg.tmp3.sroa.2.0.copyload = load ptr, ptr %agg.tmp3.sroa.2.0..sroa_idx, align 8
  %call = tail call { i64, ptr } @_ZNSt7__cxx1112basic_stringIcSt11char_traitsIcESaIcEE17_S_to_string_viewESt17basic_string_viewIcS2_E(i64 %agg.tmp3.sroa.0.0.copyload, ptr %agg.tmp3.sroa.2.0.copyload) #25
  %0 = extractvalue { i64, ptr } %call, 0
  %1 = extractvalue { i64, ptr } %call, 1
  call void @_ZNSt7__cxx1112basic_stringIcSt11char_traitsIcESaIcEE12__sv_wrapperC1ESt17basic_string_viewIcS2_E(ptr noundef nonnull align 8 dereferenceable(16) %agg.tmp, i64 %0, ptr %1) #25
  %2 = load i64, ptr %agg.tmp, align 8
  %3 = getelementptr inbounds { i64, ptr }, ptr %agg.tmp, i64 0, i32 1
  %4 = load ptr, ptr %3, align 8
  call void @_ZNSt7__cxx1112basic_stringIcSt11char_traitsIcESaIcEEC2ENS4_12__sv_wrapperERKS3_(ptr noundef nonnull align 8 dereferenceable(32) %this, i64 %2, ptr %4, ptr noundef nonnull align 1 dereferenceable(1) %__a)
  ret void
}

; Function Attrs: mustprogress uwtable
define void @_ZN9grpc_core9XdsClient27NotifyWatchersOnErrorLockedERKSt3mapIPNS0_24ResourceWatcherInterfaceENS_13RefCountedPtrIS2_EESt4lessIS3_ESaISt4pairIKS3_S5_EEEN4absl12lts_202308026StatusE(ptr noundef nonnull align 8 dereferenceable(433) %this, ptr nocapture noundef nonnull readonly align 8 dereferenceable(48) %watchers, ptr noundef %status) local_unnamed_addr #3 align 2 personality ptr @__gxx_personality_v0 {
entry:
  %__an.i.i.i.i.i.i.i = alloca %"struct.std::_Rb_tree<grpc_core::XdsClient::ResourceWatcherInterface *, std::pair<grpc_core::XdsClient::ResourceWatcherInterface *const, grpc_core::RefCountedPtr<grpc_core::XdsClient::ResourceWatcherInterface>>, std::_Select1st<std::pair<grpc_core::XdsClient::ResourceWatcherInterface *const, grpc_core::RefCountedPtr<grpc_core::XdsClient::ResourceWatcherInterface>>>, std::less<grpc_core::XdsClient::ResourceWatcherInterface *>>::_Alloc_node", align 8
  %__an.i.i.i = alloca %"struct.std::_Rb_tree<grpc_core::XdsClient::ResourceWatcherInterface *, std::pair<grpc_core::XdsClient::ResourceWatcherInterface *const, grpc_core::RefCountedPtr<grpc_core::XdsClient::ResourceWatcherInterface>>, std::_Select1st<std::pair<grpc_core::XdsClient::ResourceWatcherInterface *const, grpc_core::RefCountedPtr<grpc_core::XdsClient::ResourceWatcherInterface>>>, std::less<grpc_core::XdsClient::ResourceWatcherInterface *>>::_Alloc_node", align 8
  %ref.tmp = alloca %"class.absl::lts_20230802::Status", align 8
  %ref.tmp4 = alloca %"class.std::__cxx11::basic_string", align 8
  %ref.tmp5 = alloca %"class.absl::lts_20230802::AlphaNum", align 8
  %ref.tmp8 = alloca %"class.absl::lts_20230802::AlphaNum", align 8
  %ref.tmp9 = alloca %"class.absl::lts_20230802::AlphaNum", align 8
  %ref.tmp13 = alloca %"class.absl::lts_20230802::AlphaNum", align 8
  %agg.tmp18 = alloca %"class.std::function.161", align 8
  %ref.tmp19 = alloca %class.anon.376, align 8
  %ref.tmp22 = alloca %"class.grpc_core::DebugLocation", align 1
  %bootstrap_ = getelementptr inbounds %"class.grpc_core::XdsClient", ptr %this, i64 0, i32 1
  %0 = load ptr, ptr %bootstrap_, align 8
  %vtable = load ptr, ptr %0, align 8
  %vfn = getelementptr inbounds ptr, ptr %vtable, i64 4
  %1 = load ptr, ptr %vfn, align 8
  %call2 = tail call noundef ptr %1(ptr noundef nonnull align 8 dereferenceable(8) %0)
  %cmp.not = icmp eq ptr %call2, null
  br i1 %cmp.not, label %if.end, label %if.then

if.then:                                          ; preds = %entry
  %call3 = tail call noundef i32 @_ZNK4absl12lts_202308026Status4codeEv(ptr noundef nonnull align 8 dereferenceable(8) %status)
  %2 = load i64, ptr %status, align 8
  %and.i.i = and i64 %2, 1
  %cmp.i.i = icmp eq i64 %and.i.i, 0
  br i1 %cmp.i.i, label %cond.false.i, label %cond.true.i

cond.true.i:                                      ; preds = %if.then
  %sub.i.i = add nsw i64 %2, -1
  %3 = inttoptr i64 %sub.i.i to ptr
  %message.i = getelementptr inbounds %"struct.absl::lts_20230802::status_internal::StatusRep", ptr %3, i64 0, i32 2
  %call4.i = tail call { i64, ptr } @_ZNKSt7__cxx1112basic_stringIcSt11char_traitsIcESaIcEEcvSt17basic_string_viewIcS2_EEv(ptr noundef nonnull align 8 dereferenceable(32) %message.i) #25
  %4 = extractvalue { i64, ptr } %call4.i, 0
  %5 = extractvalue { i64, ptr } %call4.i, 1
  br label %_ZNK4absl12lts_202308026Status7messageEv.exit

cond.false.i:                                     ; preds = %if.then
  %6 = and i64 %2, 2
  %.not.i = icmp eq i64 %6, 0
  %spec.select.i = select i1 %.not.i, i64 0, i64 27
  %spec.select1.i = select i1 %.not.i, ptr null, ptr @_ZN4absl12lts_202308026Status16kMovedFromStringE
  br label %_ZNK4absl12lts_202308026Status7messageEv.exit

_ZNK4absl12lts_202308026Status7messageEv.exit:    ; preds = %cond.true.i, %cond.false.i
  %retval.sroa.0.0.i = phi i64 [ %4, %cond.true.i ], [ %spec.select.i, %cond.false.i ]
  %retval.sroa.4.0.i = phi ptr [ %5, %cond.true.i ], [ %spec.select1.i, %cond.false.i ]
  store i64 %retval.sroa.0.0.i, ptr %ref.tmp5, align 8
  %pc.sroa.2.0.piece_.sroa_idx.i = getelementptr inbounds i8, ptr %ref.tmp5, i64 8
  store ptr %retval.sroa.4.0.i, ptr %pc.sroa.2.0.piece_.sroa_idx.i, align 8
  store i64 10, ptr %ref.tmp8, align 8
  %7 = getelementptr inbounds { i64, ptr }, ptr %ref.tmp8, i64 0, i32 1
  store ptr @.str.16, ptr %7, align 8
  %vtable10 = load ptr, ptr %call2, align 8
  %vfn11 = getelementptr inbounds ptr, ptr %vtable10, i64 2
  %8 = load ptr, ptr %vfn11, align 8
  %call12 = tail call noundef nonnull align 8 dereferenceable(32) ptr %8(ptr noundef nonnull align 8 dereferenceable(8) %call2)
  %call.i = tail call { i64, ptr } @_ZNKSt7__cxx1112basic_stringIcSt11char_traitsIcESaIcEEcvSt17basic_string_viewIcS2_EEv(ptr noundef nonnull align 8 dereferenceable(32) %call12) #25
  %9 = extractvalue { i64, ptr } %call.i, 0
  store i64 %9, ptr %ref.tmp9, align 8
  %10 = getelementptr inbounds { i64, ptr }, ptr %ref.tmp9, i64 0, i32 1
  %11 = extractvalue { i64, ptr } %call.i, 1
  store ptr %11, ptr %10, align 8
  store i64 1, ptr %ref.tmp13, align 8
  %12 = getelementptr inbounds { i64, ptr }, ptr %ref.tmp13, i64 0, i32 1
  store ptr @.str.17, ptr %12, align 8
  call void @_ZN4absl12lts_202308026StrCatB5cxx11ERKNS0_8AlphaNumES3_S3_S3_(ptr nonnull sret(%"class.std::__cxx11::basic_string") align 8 %ref.tmp4, ptr noundef nonnull align 8 dereferenceable(48) %ref.tmp5, ptr noundef nonnull align 8 dereferenceable(48) %ref.tmp8, ptr noundef nonnull align 8 dereferenceable(48) %ref.tmp9, ptr noundef nonnull align 8 dereferenceable(48) %ref.tmp13)
  %call14 = call { i64, ptr } @_ZNKSt7__cxx1112basic_stringIcSt11char_traitsIcESaIcEEcvSt17basic_string_viewIcS2_EEv(ptr noundef nonnull align 8 dereferenceable(32) %ref.tmp4) #25
  %13 = extractvalue { i64, ptr } %call14, 0
  %14 = extractvalue { i64, ptr } %call14, 1
  invoke void @_ZN4absl12lts_202308026StatusC1ENS0_10StatusCodeESt17basic_string_viewIcSt11char_traitsIcEE(ptr noundef nonnull align 8 dereferenceable(8) %ref.tmp, i32 noundef %call3, i64 %13, ptr %14)
          to label %invoke.cont unwind label %lpad

invoke.cont:                                      ; preds = %_ZNK4absl12lts_202308026Status7messageEv.exit
  %15 = load i64, ptr %status, align 8
  %16 = load i64, ptr %ref.tmp, align 8
  %cmp.not.i = icmp eq i64 %16, %15
  br i1 %cmp.not.i, label %invoke.cont16, label %if.then.i

if.then.i:                                        ; preds = %invoke.cont
  store i64 %16, ptr %status, align 8
  store i64 54, ptr %ref.tmp, align 8
  %and.i.i.i = and i64 %15, 1
  %cmp.i.i.i = icmp eq i64 %and.i.i.i, 0
  br i1 %cmp.i.i.i, label %_ZN4absl12lts_202308026StatusD2Ev.exit, label %if.then.i.i

if.then.i.i:                                      ; preds = %if.then.i
  invoke void @_ZN4absl12lts_202308026Status15UnrefNonInlinedEm(i64 noundef %15)
          to label %if.then.i.i.invoke.cont16_crit_edge unwind label %lpad15

if.then.i.i.invoke.cont16_crit_edge:              ; preds = %if.then.i.i
  %.pre = load i64, ptr %ref.tmp, align 8
  br label %invoke.cont16

invoke.cont16:                                    ; preds = %if.then.i.i.invoke.cont16_crit_edge, %invoke.cont
  %17 = phi i64 [ %.pre, %if.then.i.i.invoke.cont16_crit_edge ], [ %15, %invoke.cont ]
  %and.i.i.i7 = and i64 %17, 1
  %cmp.i.i.i8 = icmp eq i64 %and.i.i.i7, 0
  br i1 %cmp.i.i.i8, label %_ZN4absl12lts_202308026StatusD2Ev.exit, label %if.then.i.i9

if.then.i.i9:                                     ; preds = %invoke.cont16
  invoke void @_ZN4absl12lts_202308026Status15UnrefNonInlinedEm(i64 noundef %17)
          to label %_ZN4absl12lts_202308026StatusD2Ev.exit unwind label %terminate.lpad.i

terminate.lpad.i:                                 ; preds = %if.then.i.i9
  %18 = landingpad { ptr, i32 }
          catch ptr null
  %19 = extractvalue { ptr, i32 } %18, 0
  call void @__clang_call_terminate(ptr %19) #27
  unreachable

_ZN4absl12lts_202308026StatusD2Ev.exit:           ; preds = %if.then.i, %invoke.cont16, %if.then.i.i9
  call void @_ZNSt7__cxx1112basic_stringIcSt11char_traitsIcESaIcEED1Ev(ptr noundef nonnull align 8 dereferenceable(32) %ref.tmp4) #25
  br label %if.end

lpad:                                             ; preds = %_ZNK4absl12lts_202308026Status7messageEv.exit
  %20 = landingpad { ptr, i32 }
          cleanup
  br label %ehcleanup

lpad15:                                           ; preds = %if.then.i.i
  %21 = landingpad { ptr, i32 }
          cleanup
  call void @_ZN4absl12lts_202308026StatusD2Ev(ptr noundef nonnull align 8 dereferenceable(8) %ref.tmp) #25
  br label %ehcleanup

ehcleanup:                                        ; preds = %lpad15, %lpad
  %.pn = phi { ptr, i32 } [ %21, %lpad15 ], [ %20, %lpad ]
  call void @_ZNSt7__cxx1112basic_stringIcSt11char_traitsIcESaIcEED1Ev(ptr noundef nonnull align 8 dereferenceable(32) %ref.tmp4) #25
  br label %eh.resume

if.end:                                           ; preds = %_ZN4absl12lts_202308026StatusD2Ev.exit, %entry
  %22 = getelementptr inbounds i8, ptr %ref.tmp19, i64 8
  store i32 0, ptr %22, align 8
  %_M_parent.i.i.i.i.i = getelementptr inbounds i8, ptr %ref.tmp19, i64 16
  store ptr null, ptr %_M_parent.i.i.i.i.i, align 8
  %_M_left.i.i.i.i.i = getelementptr inbounds i8, ptr %ref.tmp19, i64 24
  store ptr %22, ptr %_M_left.i.i.i.i.i, align 8
  %_M_right.i.i.i.i.i = getelementptr inbounds i8, ptr %ref.tmp19, i64 32
  store ptr %22, ptr %_M_right.i.i.i.i.i, align 8
  %_M_node_count.i.i.i.i.i = getelementptr inbounds i8, ptr %ref.tmp19, i64 40
  store i64 0, ptr %_M_node_count.i.i.i.i.i, align 8
  %_M_parent.i.i.i = getelementptr inbounds i8, ptr %watchers, i64 16
  %23 = load ptr, ptr %_M_parent.i.i.i, align 8
  %cmp.not.i.i = icmp eq ptr %23, null
  br i1 %cmp.not.i.i, label %_ZNSt3mapIPN9grpc_core9XdsClient24ResourceWatcherInterfaceENS0_13RefCountedPtrIS2_EESt4lessIS3_ESaISt4pairIKS3_S5_EEEC2ERKSC_.exit, label %if.then.i.i10

if.then.i.i10:                                    ; preds = %if.end
  call void @llvm.lifetime.start.p0(i64 8, ptr nonnull %__an.i.i.i)
  store ptr %ref.tmp19, ptr %__an.i.i.i, align 8
  %call3.i.i6.i.i = call noundef ptr @_ZNSt8_Rb_treeIPN9grpc_core9XdsClient24ResourceWatcherInterfaceESt4pairIKS3_NS0_13RefCountedPtrIS2_EEESt10_Select1stIS8_ESt4lessIS3_ESaIS8_EE7_M_copyILb0ENSE_11_Alloc_nodeEEEPSt13_Rb_tree_nodeIS8_ESJ_PSt18_Rb_tree_node_baseRT0_(ptr noundef nonnull align 8 dereferenceable(48) %ref.tmp19, ptr noundef nonnull %23, ptr noundef nonnull %22, ptr noundef nonnull align 8 dereferenceable(8) %__an.i.i.i)
  br label %while.cond.i.i.i.i.i.i

while.cond.i.i.i.i.i.i:                           ; preds = %while.cond.i.i.i.i.i.i, %if.then.i.i10
  %__x.addr.0.i.i.i.i.i.i = phi ptr [ %24, %while.cond.i.i.i.i.i.i ], [ %call3.i.i6.i.i, %if.then.i.i10 ]
  %_M_left.i.i.i.i.i.i = getelementptr inbounds %"struct.std::_Rb_tree_node_base", ptr %__x.addr.0.i.i.i.i.i.i, i64 0, i32 2
  %24 = load ptr, ptr %_M_left.i.i.i.i.i.i, align 8
  %cmp.not.i.i.i.i.i.i = icmp eq ptr %24, null
  br i1 %cmp.not.i.i.i.i.i.i, label %_ZNSt8_Rb_treeIPN9grpc_core9XdsClient24ResourceWatcherInterfaceESt4pairIKS3_NS0_13RefCountedPtrIS2_EEESt10_Select1stIS8_ESt4lessIS3_ESaIS8_EE10_S_minimumEPSt18_Rb_tree_node_base.exit.i.i.i.i, label %while.cond.i.i.i.i.i.i, !llvm.loop !37

_ZNSt8_Rb_treeIPN9grpc_core9XdsClient24ResourceWatcherInterfaceESt4pairIKS3_NS0_13RefCountedPtrIS2_EEESt10_Select1stIS8_ESt4lessIS3_ESaIS8_EE10_S_minimumEPSt18_Rb_tree_node_base.exit.i.i.i.i: ; preds = %while.cond.i.i.i.i.i.i
  store ptr %__x.addr.0.i.i.i.i.i.i, ptr %_M_left.i.i.i.i.i, align 8
  br label %while.cond.i.i4.i.i.i.i

while.cond.i.i4.i.i.i.i:                          ; preds = %while.cond.i.i4.i.i.i.i, %_ZNSt8_Rb_treeIPN9grpc_core9XdsClient24ResourceWatcherInterfaceESt4pairIKS3_NS0_13RefCountedPtrIS2_EEESt10_Select1stIS8_ESt4lessIS3_ESaIS8_EE10_S_minimumEPSt18_Rb_tree_node_base.exit.i.i.i.i
  %__x.addr.0.i.i5.i.i.i.i = phi ptr [ %call3.i.i6.i.i, %_ZNSt8_Rb_treeIPN9grpc_core9XdsClient24ResourceWatcherInterfaceESt4pairIKS3_NS0_13RefCountedPtrIS2_EEESt10_Select1stIS8_ESt4lessIS3_ESaIS8_EE10_S_minimumEPSt18_Rb_tree_node_base.exit.i.i.i.i ], [ %25, %while.cond.i.i4.i.i.i.i ]
  %_M_right.i.i.i.i.i.i = getelementptr inbounds %"struct.std::_Rb_tree_node_base", ptr %__x.addr.0.i.i5.i.i.i.i, i64 0, i32 3
  %25 = load ptr, ptr %_M_right.i.i.i.i.i.i, align 8
  %cmp.not.i.i6.i.i.i.i = icmp eq ptr %25, null
  br i1 %cmp.not.i.i6.i.i.i.i, label %invoke.cont.i.i, label %while.cond.i.i4.i.i.i.i, !llvm.loop !38

invoke.cont.i.i:                                  ; preds = %while.cond.i.i4.i.i.i.i
  store ptr %__x.addr.0.i.i5.i.i.i.i, ptr %_M_right.i.i.i.i.i, align 8
  %_M_node_count.i.i.i.i = getelementptr inbounds i8, ptr %watchers, i64 40
  %26 = load i64, ptr %_M_node_count.i.i.i.i, align 8
  store i64 %26, ptr %_M_node_count.i.i.i.i.i, align 8
  call void @llvm.lifetime.end.p0(i64 8, ptr nonnull %__an.i.i.i)
  store ptr %call3.i.i6.i.i, ptr %_M_parent.i.i.i.i.i, align 8
  br label %_ZNSt3mapIPN9grpc_core9XdsClient24ResourceWatcherInterfaceENS0_13RefCountedPtrIS2_EESt4lessIS3_ESaISt4pairIKS3_S5_EEEC2ERKSC_.exit

_ZNSt3mapIPN9grpc_core9XdsClient24ResourceWatcherInterfaceENS0_13RefCountedPtrIS2_EESt4lessIS3_ESaISt4pairIKS3_S5_EEEC2ERKSC_.exit: ; preds = %if.end, %invoke.cont.i.i
  %27 = phi ptr [ null, %if.end ], [ %call3.i.i6.i.i, %invoke.cont.i.i ]
  %28 = getelementptr inbounds %class.anon.376, ptr %ref.tmp19, i64 0, i32 1
  %29 = load i64, ptr %status, align 8
  store i64 %29, ptr %28, align 8
  store i64 54, ptr %status, align 8
  %_M_manager.i.i = getelementptr inbounds %"class.std::_Function_base", ptr %agg.tmp18, i64 0, i32 1
  call void @llvm.memset.p0.i64(ptr noundef nonnull align 8 dereferenceable(32) %agg.tmp18, i8 0, i64 32, i1 false)
  %call.i.i2.i13 = invoke noalias noundef nonnull dereferenceable(56) ptr @_Znwm(i64 noundef 56) #26
          to label %call.i.i2.i.noexc unwind label %lpad20

call.i.i2.i.noexc:                                ; preds = %_ZNSt3mapIPN9grpc_core9XdsClient24ResourceWatcherInterfaceENS0_13RefCountedPtrIS2_EESt4lessIS3_ESaISt4pairIKS3_S5_EEEC2ERKSC_.exit
  %30 = getelementptr inbounds i8, ptr %call.i.i2.i13, i64 8
  store i32 0, ptr %30, align 8
  %_M_parent.i.i.i.i.i.i.i.i.i = getelementptr inbounds i8, ptr %call.i.i2.i13, i64 16
  store ptr null, ptr %_M_parent.i.i.i.i.i.i.i.i.i, align 8
  %_M_left.i.i.i.i.i.i.i.i.i = getelementptr inbounds i8, ptr %call.i.i2.i13, i64 24
  store ptr %30, ptr %_M_left.i.i.i.i.i.i.i.i.i, align 8
  %_M_right.i.i.i.i.i.i.i.i.i = getelementptr inbounds i8, ptr %call.i.i2.i13, i64 32
  store ptr %30, ptr %_M_right.i.i.i.i.i.i.i.i.i, align 8
  %_M_node_count.i.i.i.i.i.i.i.i.i = getelementptr inbounds i8, ptr %call.i.i2.i13, i64 40
  store i64 0, ptr %_M_node_count.i.i.i.i.i.i.i.i.i, align 8
  %cmp.not.i.i.i.i.i.i11 = icmp eq ptr %27, null
  br i1 %cmp.not.i.i.i.i.i.i11, label %invoke.cont21, label %if.then.i.i.i.i.i.i

if.then.i.i.i.i.i.i:                              ; preds = %call.i.i2.i.noexc
  call void @llvm.lifetime.start.p0(i64 8, ptr nonnull %__an.i.i.i.i.i.i.i)
  store ptr %call.i.i2.i13, ptr %__an.i.i.i.i.i.i.i, align 8
  %call3.i.i6.i.i.i1.i.i.i = invoke noundef ptr @_ZNSt8_Rb_treeIPN9grpc_core9XdsClient24ResourceWatcherInterfaceESt4pairIKS3_NS0_13RefCountedPtrIS2_EEESt10_Select1stIS8_ESt4lessIS3_ESaIS8_EE7_M_copyILb0ENSE_11_Alloc_nodeEEEPSt13_Rb_tree_nodeIS8_ESJ_PSt18_Rb_tree_node_baseRT0_(ptr noundef nonnull align 8 dereferenceable(48) %call.i.i2.i13, ptr noundef nonnull %27, ptr noundef nonnull %30, ptr noundef nonnull align 8 dereferenceable(8) %__an.i.i.i.i.i.i.i)
          to label %while.cond.i.i.i.i.i.i.i.i.i.i unwind label %lpad.body.i

while.cond.i.i.i.i.i.i.i.i.i.i:                   ; preds = %if.then.i.i.i.i.i.i, %while.cond.i.i.i.i.i.i.i.i.i.i
  %__x.addr.0.i.i.i.i.i.i.i.i.i.i = phi ptr [ %31, %while.cond.i.i.i.i.i.i.i.i.i.i ], [ %call3.i.i6.i.i.i1.i.i.i, %if.then.i.i.i.i.i.i ]
  %_M_left.i.i.i.i.i.i.i.i.i.i = getelementptr inbounds %"struct.std::_Rb_tree_node_base", ptr %__x.addr.0.i.i.i.i.i.i.i.i.i.i, i64 0, i32 2
  %31 = load ptr, ptr %_M_left.i.i.i.i.i.i.i.i.i.i, align 8
  %cmp.not.i.i.i.i.i.i.i.i.i.i = icmp eq ptr %31, null
  br i1 %cmp.not.i.i.i.i.i.i.i.i.i.i, label %_ZNSt8_Rb_treeIPN9grpc_core9XdsClient24ResourceWatcherInterfaceESt4pairIKS3_NS0_13RefCountedPtrIS2_EEESt10_Select1stIS8_ESt4lessIS3_ESaIS8_EE10_S_minimumEPSt18_Rb_tree_node_base.exit.i.i.i.i.i.i.i.i, label %while.cond.i.i.i.i.i.i.i.i.i.i, !llvm.loop !37

_ZNSt8_Rb_treeIPN9grpc_core9XdsClient24ResourceWatcherInterfaceESt4pairIKS3_NS0_13RefCountedPtrIS2_EEESt10_Select1stIS8_ESt4lessIS3_ESaIS8_EE10_S_minimumEPSt18_Rb_tree_node_base.exit.i.i.i.i.i.i.i.i: ; preds = %while.cond.i.i.i.i.i.i.i.i.i.i
  store ptr %__x.addr.0.i.i.i.i.i.i.i.i.i.i, ptr %_M_left.i.i.i.i.i.i.i.i.i, align 8
  br label %while.cond.i.i4.i.i.i.i.i.i.i.i

while.cond.i.i4.i.i.i.i.i.i.i.i:                  ; preds = %while.cond.i.i4.i.i.i.i.i.i.i.i, %_ZNSt8_Rb_treeIPN9grpc_core9XdsClient24ResourceWatcherInterfaceESt4pairIKS3_NS0_13RefCountedPtrIS2_EEESt10_Select1stIS8_ESt4lessIS3_ESaIS8_EE10_S_minimumEPSt18_Rb_tree_node_base.exit.i.i.i.i.i.i.i.i
  %__x.addr.0.i.i5.i.i.i.i.i.i.i.i = phi ptr [ %call3.i.i6.i.i.i1.i.i.i, %_ZNSt8_Rb_treeIPN9grpc_core9XdsClient24ResourceWatcherInterfaceESt4pairIKS3_NS0_13RefCountedPtrIS2_EEESt10_Select1stIS8_ESt4lessIS3_ESaIS8_EE10_S_minimumEPSt18_Rb_tree_node_base.exit.i.i.i.i.i.i.i.i ], [ %32, %while.cond.i.i4.i.i.i.i.i.i.i.i ]
  %_M_right.i.i.i.i.i.i.i.i.i.i = getelementptr inbounds %"struct.std::_Rb_tree_node_base", ptr %__x.addr.0.i.i5.i.i.i.i.i.i.i.i, i64 0, i32 3
  %32 = load ptr, ptr %_M_right.i.i.i.i.i.i.i.i.i.i, align 8
  %cmp.not.i.i6.i.i.i.i.i.i.i.i = icmp eq ptr %32, null
  br i1 %cmp.not.i.i6.i.i.i.i.i.i.i.i, label %invoke.cont.i.i.i.i.i.i, label %while.cond.i.i4.i.i.i.i.i.i.i.i, !llvm.loop !38

invoke.cont.i.i.i.i.i.i:                          ; preds = %while.cond.i.i4.i.i.i.i.i.i.i.i
  store ptr %__x.addr.0.i.i5.i.i.i.i.i.i.i.i, ptr %_M_right.i.i.i.i.i.i.i.i.i, align 8
  %33 = load i64, ptr %_M_node_count.i.i.i.i.i, align 8
  store i64 %33, ptr %_M_node_count.i.i.i.i.i.i.i.i.i, align 8
  call void @llvm.lifetime.end.p0(i64 8, ptr nonnull %__an.i.i.i.i.i.i.i)
  store ptr %call3.i.i6.i.i.i1.i.i.i, ptr %_M_parent.i.i.i.i.i.i.i.i.i, align 8
  %.pre29 = load i64, ptr %28, align 8
  br label %invoke.cont21

lpad.body.i:                                      ; preds = %if.then.i.i.i.i.i.i
  %34 = landingpad { ptr, i32 }
          cleanup
  call void @_ZdlPv(ptr noundef nonnull %call.i.i2.i13) #30
  %.pr.i = load ptr, ptr %_M_manager.i.i, align 8
  %tobool.not.i.i = icmp eq ptr %.pr.i, null
  br i1 %tobool.not.i.i, label %ehcleanup27, label %if.then.i.i12

if.then.i.i12:                                    ; preds = %lpad.body.i
  %call.i.i = invoke noundef zeroext i1 %.pr.i(ptr noundef nonnull align 8 dereferenceable(16) %agg.tmp18, ptr noundef nonnull align 8 dereferenceable(16) %agg.tmp18, i32 noundef 3)
          to label %ehcleanup27 unwind label %terminate.lpad.i.i

terminate.lpad.i.i:                               ; preds = %if.then.i.i12
  %35 = landingpad { ptr, i32 }
          catch ptr null
  %36 = extractvalue { ptr, i32 } %35, 0
  call void @__clang_call_terminate(ptr %36) #27
  unreachable

invoke.cont21:                                    ; preds = %invoke.cont.i.i.i.i.i.i, %call.i.i2.i.noexc
  %37 = phi i64 [ %.pre29, %invoke.cont.i.i.i.i.i.i ], [ %29, %call.i.i2.i.noexc ]
  %_M_invoker.i = getelementptr inbounds %"class.std::function.161", ptr %agg.tmp18, i64 0, i32 1
  %38 = getelementptr inbounds %class.anon.376, ptr %call.i.i2.i13, i64 0, i32 1
  store i64 %37, ptr %38, align 8
  store i64 54, ptr %28, align 8
  store ptr %call.i.i2.i13, ptr %agg.tmp18, align 8
  store ptr @"_ZNSt17_Function_handlerIFvvEZN9grpc_core9XdsClient27NotifyWatchersOnErrorLockedERKSt3mapIPNS2_24ResourceWatcherInterfaceENS1_13RefCountedPtrIS4_EESt4lessIS5_ESaISt4pairIKS5_S7_EEEN4absl12lts_202308026StatusEE3$_0E9_M_invokeERKSt9_Any_data", ptr %_M_invoker.i, align 8
  store ptr @"_ZNSt17_Function_handlerIFvvEZN9grpc_core9XdsClient27NotifyWatchersOnErrorLockedERKSt3mapIPNS2_24ResourceWatcherInterfaceENS1_13RefCountedPtrIS4_EESt4lessIS5_ESaISt4pairIKS5_S7_EEEN4absl12lts_202308026StatusEE3$_0E10_M_managerERSt9_Any_dataRKSM_St18_Manager_operation", ptr %_M_manager.i.i, align 8
  %work_serializer_ = getelementptr inbounds %"class.grpc_core::XdsClient", ptr %this, i64 0, i32 7
  invoke void @_ZN9grpc_core14WorkSerializer8ScheduleESt8functionIFvvEERKNS_13DebugLocationE(ptr noundef nonnull align 8 dereferenceable(8) %work_serializer_, ptr noundef nonnull %agg.tmp18, ptr noundef nonnull align 1 dereferenceable(1) %ref.tmp22)
          to label %invoke.cont25 unwind label %lpad23

invoke.cont25:                                    ; preds = %invoke.cont21
  %39 = load ptr, ptr %_M_manager.i.i, align 8
  %tobool.not.i.i15 = icmp eq ptr %39, null
  br i1 %tobool.not.i.i15, label %_ZNSt8functionIFvvEED2Ev.exit, label %if.then.i.i16

if.then.i.i16:                                    ; preds = %invoke.cont25
  %call.i.i17 = invoke noundef zeroext i1 %39(ptr noundef nonnull align 8 dereferenceable(16) %agg.tmp18, ptr noundef nonnull align 8 dereferenceable(16) %agg.tmp18, i32 noundef 3)
          to label %_ZNSt8functionIFvvEED2Ev.exit unwind label %terminate.lpad.i.i18

terminate.lpad.i.i18:                             ; preds = %if.then.i.i16
  %40 = landingpad { ptr, i32 }
          catch ptr null
  %41 = extractvalue { ptr, i32 } %40, 0
  call void @__clang_call_terminate(ptr %41) #27
  unreachable

_ZNSt8functionIFvvEED2Ev.exit:                    ; preds = %invoke.cont25, %if.then.i.i16
  %42 = load i64, ptr %28, align 8
  %and.i.i.i.i = and i64 %42, 1
  %cmp.i.i.i.i = icmp eq i64 %and.i.i.i.i, 0
  br i1 %cmp.i.i.i.i, label %_ZN4absl12lts_202308026StatusD2Ev.exit.i, label %if.then.i.i.i

if.then.i.i.i:                                    ; preds = %_ZNSt8functionIFvvEED2Ev.exit
  invoke void @_ZN4absl12lts_202308026Status15UnrefNonInlinedEm(i64 noundef %42)
          to label %_ZN4absl12lts_202308026StatusD2Ev.exit.i unwind label %terminate.lpad.i.i20

terminate.lpad.i.i20:                             ; preds = %if.then.i.i.i
  %43 = landingpad { ptr, i32 }
          catch ptr null
  %44 = extractvalue { ptr, i32 } %43, 0
  call void @__clang_call_terminate(ptr %44) #27
  unreachable

_ZN4absl12lts_202308026StatusD2Ev.exit.i:         ; preds = %if.then.i.i.i, %_ZNSt8functionIFvvEED2Ev.exit
  %45 = load ptr, ptr %_M_parent.i.i.i.i.i, align 8
  invoke void @_ZNSt8_Rb_treeIPN9grpc_core9XdsClient24ResourceWatcherInterfaceESt4pairIKS3_NS0_13RefCountedPtrIS2_EEESt10_Select1stIS8_ESt4lessIS3_ESaIS8_EE8_M_eraseEPSt13_Rb_tree_nodeIS8_E(ptr noundef nonnull align 8 dereferenceable(48) %ref.tmp19, ptr noundef %45)
          to label %"_ZZN9grpc_core9XdsClient27NotifyWatchersOnErrorLockedERKSt3mapIPNS0_24ResourceWatcherInterfaceENS_13RefCountedPtrIS2_EESt4lessIS3_ESaISt4pairIKS3_S5_EEEN4absl12lts_202308026StatusEEN3$_0D2Ev.exit" unwind label %terminate.lpad.i.i.i

terminate.lpad.i.i.i:                             ; preds = %_ZN4absl12lts_202308026StatusD2Ev.exit.i
  %46 = landingpad { ptr, i32 }
          catch ptr null
  %47 = extractvalue { ptr, i32 } %46, 0
  call void @__clang_call_terminate(ptr %47) #27
  unreachable

"_ZZN9grpc_core9XdsClient27NotifyWatchersOnErrorLockedERKSt3mapIPNS0_24ResourceWatcherInterfaceENS_13RefCountedPtrIS2_EESt4lessIS3_ESaISt4pairIKS3_S5_EEEN4absl12lts_202308026StatusEEN3$_0D2Ev.exit": ; preds = %_ZN4absl12lts_202308026StatusD2Ev.exit.i
  ret void

lpad20:                                           ; preds = %_ZNSt3mapIPN9grpc_core9XdsClient24ResourceWatcherInterfaceENS0_13RefCountedPtrIS2_EESt4lessIS3_ESaISt4pairIKS3_S5_EEEC2ERKSC_.exit
  %48 = landingpad { ptr, i32 }
          cleanup
  br label %ehcleanup27

lpad23:                                           ; preds = %invoke.cont21
  %49 = landingpad { ptr, i32 }
          cleanup
  %50 = load ptr, ptr %_M_manager.i.i, align 8
  %tobool.not.i.i23 = icmp eq ptr %50, null
  br i1 %tobool.not.i.i23, label %ehcleanup27, label %if.then.i.i24

if.then.i.i24:                                    ; preds = %lpad23
  %call.i.i25 = invoke noundef zeroext i1 %50(ptr noundef nonnull align 8 dereferenceable(16) %agg.tmp18, ptr noundef nonnull align 8 dereferenceable(16) %agg.tmp18, i32 noundef 3)
          to label %ehcleanup27 unwind label %terminate.lpad.i.i26

terminate.lpad.i.i26:                             ; preds = %if.then.i.i24
  %51 = landingpad { ptr, i32 }
          catch ptr null
  %52 = extractvalue { ptr, i32 } %51, 0
  call void @__clang_call_terminate(ptr %52) #27
  unreachable

ehcleanup27:                                      ; preds = %if.then.i.i24, %lpad23, %lpad20, %if.then.i.i12, %lpad.body.i
  %.pn3 = phi { ptr, i32 } [ %48, %lpad20 ], [ %34, %if.then.i.i12 ], [ %34, %lpad.body.i ], [ %49, %lpad23 ], [ %49, %if.then.i.i24 ]
  call fastcc void @"_ZZN9grpc_core9XdsClient27NotifyWatchersOnErrorLockedERKSt3mapIPNS0_24ResourceWatcherInterfaceENS_13RefCountedPtrIS2_EESt4lessIS3_ESaISt4pairIKS3_S5_EEEN4absl12lts_202308026StatusEEN3$_0D2Ev"(ptr noundef nonnull align 8 dereferenceable(56) %ref.tmp19) #25
  br label %eh.resume

eh.resume:                                        ; preds = %ehcleanup27, %ehcleanup
  %.pn3.pn = phi { ptr, i32 } [ %.pn3, %ehcleanup27 ], [ %.pn, %ehcleanup ]
  resume { ptr, i32 } %.pn3.pn
}

declare void @_ZN4absl12lts_2023080216UnavailableErrorESt17basic_string_viewIcSt11char_traitsIcEE(ptr sret(%"class.absl::lts_20230802::Status") align 8, i64, ptr) local_unnamed_addr #0

; Function Attrs: mustprogress nounwind uwtable
define linkonce_odr noundef nonnull align 8 dereferenceable(16) ptr @_ZNSt10shared_ptrIKN9grpc_core15XdsResourceType12ResourceDataEEaSEOS4_(ptr noundef nonnull align 8 dereferenceable(16) %this, ptr noundef nonnull align 8 dereferenceable(16) %__r) local_unnamed_addr #4 comdat align 2 personality ptr @__gxx_personality_v0 {
entry:
  %_M_refcount3.i.i = getelementptr inbounds %"class.std::__shared_ptr.152", ptr %this, i64 0, i32 1
  %0 = load <2 x ptr>, ptr %__r, align 8
  tail call void @llvm.memset.p0.i64(ptr noundef nonnull align 8 dereferenceable(16) %__r, i8 0, i64 16, i1 false)
  %1 = load ptr, ptr %_M_refcount3.i.i, align 8
  store <2 x ptr> %0, ptr %this, align 8
  %cmp.not.i.i.i = icmp eq ptr %1, null
  br i1 %cmp.not.i.i.i, label %_ZNSt12__shared_ptrIKN9grpc_core15XdsResourceType12ResourceDataELN9__gnu_cxx12_Lock_policyE2EEaSEOS6_.exit, label %if.then.i.i.i

if.then.i.i.i:                                    ; preds = %entry
  %_M_use_count.i.i.i.i = getelementptr inbounds %"class.std::_Sp_counted_base", ptr %1, i64 0, i32 1
  %2 = load atomic i64, ptr %_M_use_count.i.i.i.i acquire, align 8
  %cmp.i.i.i.i = icmp eq i64 %2, 4294967297
  %3 = trunc i64 %2 to i32
  br i1 %cmp.i.i.i.i, label %if.then.i.i.i.i, label %if.end.i.i.i.i

if.then.i.i.i.i:                                  ; preds = %if.then.i.i.i
  store i32 0, ptr %_M_use_count.i.i.i.i, align 8
  %_M_weak_count.i.i.i.i = getelementptr inbounds %"class.std::_Sp_counted_base", ptr %1, i64 0, i32 2
  store i32 0, ptr %_M_weak_count.i.i.i.i, align 4
  %vtable.i.i.i.i = load ptr, ptr %1, align 8
  %vfn.i.i.i.i = getelementptr inbounds ptr, ptr %vtable.i.i.i.i, i64 2
  %4 = load ptr, ptr %vfn.i.i.i.i, align 8
  tail call void %4(ptr noundef nonnull align 8 dereferenceable(16) %1) #25
  br label %if.end8.sink.split.i.i.i.i

if.end.i.i.i.i:                                   ; preds = %if.then.i.i.i
  %5 = load i8, ptr @__libc_single_threaded, align 1
  %tobool.i.i.not.i.i.i.i = icmp eq i8 %5, 0
  br i1 %tobool.i.i.not.i.i.i.i, label %if.else.i.i.i.i.i, label %if.then.i.i.i.i.i

if.then.i.i.i.i.i:                                ; preds = %if.end.i.i.i.i
  %add.i.i.i.i.i = add nsw i32 %3, -1
  store i32 %add.i.i.i.i.i, ptr %_M_use_count.i.i.i.i, align 4
  br label %_ZN9__gnu_cxx27__exchange_and_add_dispatchEPii.exit.i.i.i.i

if.else.i.i.i.i.i:                                ; preds = %if.end.i.i.i.i
  %6 = atomicrmw volatile add ptr %_M_use_count.i.i.i.i, i32 -1 acq_rel, align 4
  br label %_ZN9__gnu_cxx27__exchange_and_add_dispatchEPii.exit.i.i.i.i

_ZN9__gnu_cxx27__exchange_and_add_dispatchEPii.exit.i.i.i.i: ; preds = %if.else.i.i.i.i.i, %if.then.i.i.i.i.i
  %retval.i.0.i.i.i.i = phi i32 [ %3, %if.then.i.i.i.i.i ], [ %6, %if.else.i.i.i.i.i ]
  %cmp6.i.i.i.i = icmp eq i32 %retval.i.0.i.i.i.i, 1
  br i1 %cmp6.i.i.i.i, label %if.then7.i.i.i.i, label %_ZNSt12__shared_ptrIKN9grpc_core15XdsResourceType12ResourceDataELN9__gnu_cxx12_Lock_policyE2EEaSEOS6_.exit

if.then7.i.i.i.i:                                 ; preds = %_ZN9__gnu_cxx27__exchange_and_add_dispatchEPii.exit.i.i.i.i
  %vtable.i.i.i.i.i.i = load ptr, ptr %1, align 8
  %vfn.i.i.i.i.i.i = getelementptr inbounds ptr, ptr %vtable.i.i.i.i.i.i, i64 2
  %7 = load ptr, ptr %vfn.i.i.i.i.i.i, align 8
  tail call void %7(ptr noundef nonnull align 8 dereferenceable(16) %1) #25
  %_M_weak_count.i.i.i.i.i.i = getelementptr inbounds %"class.std::_Sp_counted_base", ptr %1, i64 0, i32 2
  %8 = load i8, ptr @__libc_single_threaded, align 1
  %tobool.i.i.not.i.i.i.i.i.i = icmp eq i8 %8, 0
  br i1 %tobool.i.i.not.i.i.i.i.i.i, label %if.else.i.i.i.i.i.i.i, label %if.then.i.i.i.i.i.i.i

if.then.i.i.i.i.i.i.i:                            ; preds = %if.then7.i.i.i.i
  %9 = load i32, ptr %_M_weak_count.i.i.i.i.i.i, align 4
  %add.i.i.i.i.i.i.i = add nsw i32 %9, -1
  store i32 %add.i.i.i.i.i.i.i, ptr %_M_weak_count.i.i.i.i.i.i, align 4
  br label %_ZN9__gnu_cxx27__exchange_and_add_dispatchEPii.exit.i.i.i.i.i.i

if.else.i.i.i.i.i.i.i:                            ; preds = %if.then7.i.i.i.i
  %10 = atomicrmw volatile add ptr %_M_weak_count.i.i.i.i.i.i, i32 -1 acq_rel, align 4
  br label %_ZN9__gnu_cxx27__exchange_and_add_dispatchEPii.exit.i.i.i.i.i.i

_ZN9__gnu_cxx27__exchange_and_add_dispatchEPii.exit.i.i.i.i.i.i: ; preds = %if.else.i.i.i.i.i.i.i, %if.then.i.i.i.i.i.i.i
  %retval.i.0.i.i.i.i.i.i = phi i32 [ %9, %if.then.i.i.i.i.i.i.i ], [ %10, %if.else.i.i.i.i.i.i.i ]
  %cmp.i.i.i.i.i.i = icmp eq i32 %retval.i.0.i.i.i.i.i.i, 1
  br i1 %cmp.i.i.i.i.i.i, label %if.end8.sink.split.i.i.i.i, label %_ZNSt12__shared_ptrIKN9grpc_core15XdsResourceType12ResourceDataELN9__gnu_cxx12_Lock_policyE2EEaSEOS6_.exit

if.end8.sink.split.i.i.i.i:                       ; preds = %_ZN9__gnu_cxx27__exchange_and_add_dispatchEPii.exit.i.i.i.i.i.i, %if.then.i.i.i.i
  %vtable2.i.i.i.i.i.i = load ptr, ptr %1, align 8
  %vfn3.i.i.i.i.i.i = getelementptr inbounds ptr, ptr %vtable2.i.i.i.i.i.i, i64 3
  %11 = load ptr, ptr %vfn3.i.i.i.i.i.i, align 8
  tail call void %11(ptr noundef nonnull align 8 dereferenceable(16) %1) #25
  br label %_ZNSt12__shared_ptrIKN9grpc_core15XdsResourceType12ResourceDataELN9__gnu_cxx12_Lock_policyE2EEaSEOS6_.exit

_ZNSt12__shared_ptrIKN9grpc_core15XdsResourceType12ResourceDataELN9__gnu_cxx12_Lock_policyE2EEaSEOS6_.exit: ; preds = %entry, %_ZN9__gnu_cxx27__exchange_and_add_dispatchEPii.exit.i.i.i.i, %_ZN9__gnu_cxx27__exchange_and_add_dispatchEPii.exit.i.i.i.i.i.i, %if.end8.sink.split.i.i.i.i
  ret ptr %this
}

; Function Attrs: mustprogress nounwind uwtable
define internal fastcc void @_ZN9grpc_core12_GLOBAL__N_127CreateResourceMetadataAckedENSt7__cxx1112basic_stringIcSt11char_traitsIcESaIcEEES6_NS_9TimestampE(ptr noalias align 8 %agg.result, ptr noundef %serialized_proto, ptr noundef %version, i64 %update_time.coerce) unnamed_addr #4 {
entry:
  store i32 1, ptr %agg.result, align 8
  %serialized_proto.i = getelementptr inbounds %"struct.grpc_core::XdsApi::ResourceMetadata", ptr %agg.result, i64 0, i32 1
  tail call void @_ZNSt7__cxx1112basic_stringIcSt11char_traitsIcESaIcEEC1Ev(ptr noundef nonnull align 8 dereferenceable(32) %serialized_proto.i) #25
  %update_time.i = getelementptr inbounds %"struct.grpc_core::XdsApi::ResourceMetadata", ptr %agg.result, i64 0, i32 2
  store i64 0, ptr %update_time.i, align 8
  %version.i = getelementptr inbounds %"struct.grpc_core::XdsApi::ResourceMetadata", ptr %agg.result, i64 0, i32 3
  tail call void @_ZNSt7__cxx1112basic_stringIcSt11char_traitsIcESaIcEEC1Ev(ptr noundef nonnull align 8 dereferenceable(32) %version.i) #25
  %failed_version.i = getelementptr inbounds %"struct.grpc_core::XdsApi::ResourceMetadata", ptr %agg.result, i64 0, i32 4
  tail call void @_ZNSt7__cxx1112basic_stringIcSt11char_traitsIcESaIcEEC1Ev(ptr noundef nonnull align 8 dereferenceable(32) %failed_version.i) #25
  %failed_details.i = getelementptr inbounds %"struct.grpc_core::XdsApi::ResourceMetadata", ptr %agg.result, i64 0, i32 5
  tail call void @_ZNSt7__cxx1112basic_stringIcSt11char_traitsIcESaIcEEC1Ev(ptr noundef nonnull align 8 dereferenceable(32) %failed_details.i) #25
  %failed_update_time.i = getelementptr inbounds %"struct.grpc_core::XdsApi::ResourceMetadata", ptr %agg.result, i64 0, i32 6
  store i64 0, ptr %failed_update_time.i, align 8
  %call = tail call noundef nonnull align 8 dereferenceable(32) ptr @_ZNSt7__cxx1112basic_stringIcSt11char_traitsIcESaIcEEaSEOS4_(ptr noundef nonnull align 8 dereferenceable(32) %serialized_proto.i, ptr noundef nonnull align 8 dereferenceable(32) %serialized_proto) #25
  store i64 %update_time.coerce, ptr %update_time.i, align 8
  %call4 = tail call noundef nonnull align 8 dereferenceable(32) ptr @_ZNSt7__cxx1112basic_stringIcSt11char_traitsIcESaIcEEaSEOS4_(ptr noundef nonnull align 8 dereferenceable(32) %version.i, ptr noundef nonnull align 8 dereferenceable(32) %version) #25
  store i32 3, ptr %agg.result, align 8
  ret void
}

declare void @_ZNSt7__cxx1112basic_stringIcSt11char_traitsIcESaIcEEC1ERKS4_(ptr noundef nonnull align 8 dereferenceable(32), ptr noundef nonnull align 8 dereferenceable(32)) unnamed_addr #0

; Function Attrs: mustprogress nounwind uwtable
define linkonce_odr noundef nonnull align 8 dereferenceable(152) ptr @_ZN9grpc_core6XdsApi16ResourceMetadataaSEOS1_(ptr noundef nonnull align 8 dereferenceable(152) %this, ptr noundef nonnull align 8 dereferenceable(152) %0) local_unnamed_addr #4 comdat align 2 {
entry:
  %1 = load i32, ptr %0, align 8
  store i32 %1, ptr %this, align 8
  %serialized_proto = getelementptr inbounds %"struct.grpc_core::XdsApi::ResourceMetadata", ptr %this, i64 0, i32 1
  %serialized_proto3 = getelementptr inbounds %"struct.grpc_core::XdsApi::ResourceMetadata", ptr %0, i64 0, i32 1
  %call = tail call noundef nonnull align 8 dereferenceable(32) ptr @_ZNSt7__cxx1112basic_stringIcSt11char_traitsIcESaIcEEaSEOS4_(ptr noundef nonnull align 8 dereferenceable(32) %serialized_proto, ptr noundef nonnull align 8 dereferenceable(32) %serialized_proto3) #25
  %update_time = getelementptr inbounds %"struct.grpc_core::XdsApi::ResourceMetadata", ptr %this, i64 0, i32 2
  %update_time4 = getelementptr inbounds %"struct.grpc_core::XdsApi::ResourceMetadata", ptr %0, i64 0, i32 2
  %2 = load i64, ptr %update_time4, align 8
  store i64 %2, ptr %update_time, align 8
  %version = getelementptr inbounds %"struct.grpc_core::XdsApi::ResourceMetadata", ptr %this, i64 0, i32 3
  %version5 = getelementptr inbounds %"struct.grpc_core::XdsApi::ResourceMetadata", ptr %0, i64 0, i32 3
  %call6 = tail call noundef nonnull align 8 dereferenceable(32) ptr @_ZNSt7__cxx1112basic_stringIcSt11char_traitsIcESaIcEEaSEOS4_(ptr noundef nonnull align 8 dereferenceable(32) %version, ptr noundef nonnull align 8 dereferenceable(32) %version5) #25
  %failed_version = getelementptr inbounds %"struct.grpc_core::XdsApi::ResourceMetadata", ptr %this, i64 0, i32 4
  %failed_version7 = getelementptr inbounds %"struct.grpc_core::XdsApi::ResourceMetadata", ptr %0, i64 0, i32 4
  %call8 = tail call noundef nonnull align 8 dereferenceable(32) ptr @_ZNSt7__cxx1112basic_stringIcSt11char_traitsIcESaIcEEaSEOS4_(ptr noundef nonnull align 8 dereferenceable(32) %failed_version, ptr noundef nonnull align 8 dereferenceable(32) %failed_version7) #25
  %failed_details = getelementptr inbounds %"struct.grpc_core::XdsApi::ResourceMetadata", ptr %this, i64 0, i32 5
  %failed_details9 = getelementptr inbounds %"struct.grpc_core::XdsApi::ResourceMetadata", ptr %0, i64 0, i32 5
  %call10 = tail call noundef nonnull align 8 dereferenceable(32) ptr @_ZNSt7__cxx1112basic_stringIcSt11char_traitsIcESaIcEEaSEOS4_(ptr noundef nonnull align 8 dereferenceable(32) %failed_details, ptr noundef nonnull align 8 dereferenceable(32) %failed_details9) #25
  %failed_update_time = getelementptr inbounds %"struct.grpc_core::XdsApi::ResourceMetadata", ptr %this, i64 0, i32 6
  %failed_update_time11 = getelementptr inbounds %"struct.grpc_core::XdsApi::ResourceMetadata", ptr %0, i64 0, i32 6
  %3 = load i64, ptr %failed_update_time11, align 8
  store i64 %3, ptr %failed_update_time, align 8
  ret ptr %this
}

; Function Attrs: mustprogress nounwind uwtable
define linkonce_odr void @_ZN9grpc_core6XdsApi16ResourceMetadataD2Ev(ptr noundef nonnull align 8 dereferenceable(152) %this) unnamed_addr #4 comdat align 2 {
entry:
  %failed_details = getelementptr inbounds %"struct.grpc_core::XdsApi::ResourceMetadata", ptr %this, i64 0, i32 5
  tail call void @_ZNSt7__cxx1112basic_stringIcSt11char_traitsIcESaIcEED1Ev(ptr noundef nonnull align 8 dereferenceable(32) %failed_details) #25
  %failed_version = getelementptr inbounds %"struct.grpc_core::XdsApi::ResourceMetadata", ptr %this, i64 0, i32 4
  tail call void @_ZNSt7__cxx1112basic_stringIcSt11char_traitsIcESaIcEED1Ev(ptr noundef nonnull align 8 dereferenceable(32) %failed_version) #25
  %version = getelementptr inbounds %"struct.grpc_core::XdsApi::ResourceMetadata", ptr %this, i64 0, i32 3
  tail call void @_ZNSt7__cxx1112basic_stringIcSt11char_traitsIcESaIcEED1Ev(ptr noundef nonnull align 8 dereferenceable(32) %version) #25
  %serialized_proto = getelementptr inbounds %"struct.grpc_core::XdsApi::ResourceMetadata", ptr %this, i64 0, i32 1
  tail call void @_ZNSt7__cxx1112basic_stringIcSt11char_traitsIcESaIcEED1Ev(ptr noundef nonnull align 8 dereferenceable(32) %serialized_proto) #25
  ret void
}

; Function Attrs: mustprogress uwtable
define linkonce_odr void @_ZNSt3mapIPN9grpc_core9XdsClient24ResourceWatcherInterfaceENS0_13RefCountedPtrIS2_EESt4lessIS3_ESaISt4pairIKS3_S5_EEEC2ERKSC_(ptr noundef nonnull align 8 dereferenceable(48) %this, ptr noundef nonnull align 8 dereferenceable(48) %0) unnamed_addr #3 comdat align 2 personality ptr @__gxx_personality_v0 {
entry:
  %__an.i.i = alloca %"struct.std::_Rb_tree<grpc_core::XdsClient::ResourceWatcherInterface *, std::pair<grpc_core::XdsClient::ResourceWatcherInterface *const, grpc_core::RefCountedPtr<grpc_core::XdsClient::ResourceWatcherInterface>>, std::_Select1st<std::pair<grpc_core::XdsClient::ResourceWatcherInterface *const, grpc_core::RefCountedPtr<grpc_core::XdsClient::ResourceWatcherInterface>>>, std::less<grpc_core::XdsClient::ResourceWatcherInterface *>>::_Alloc_node", align 8
  %1 = getelementptr inbounds i8, ptr %this, i64 8
  store i32 0, ptr %1, align 8
  %_M_parent.i.i.i.i = getelementptr inbounds i8, ptr %this, i64 16
  store ptr null, ptr %_M_parent.i.i.i.i, align 8
  %_M_left.i.i.i.i = getelementptr inbounds i8, ptr %this, i64 24
  store ptr %1, ptr %_M_left.i.i.i.i, align 8
  %_M_right.i.i.i.i = getelementptr inbounds i8, ptr %this, i64 32
  store ptr %1, ptr %_M_right.i.i.i.i, align 8
  %_M_node_count.i.i.i.i = getelementptr inbounds i8, ptr %this, i64 40
  store i64 0, ptr %_M_node_count.i.i.i.i, align 8
  %_M_parent.i.i = getelementptr inbounds i8, ptr %0, i64 16
  %2 = load ptr, ptr %_M_parent.i.i, align 8
  %cmp.not.i = icmp eq ptr %2, null
  br i1 %cmp.not.i, label %_ZNSt8_Rb_treeIPN9grpc_core9XdsClient24ResourceWatcherInterfaceESt4pairIKS3_NS0_13RefCountedPtrIS2_EEESt10_Select1stIS8_ESt4lessIS3_ESaIS8_EEC2ERKSE_.exit, label %if.then.i

if.then.i:                                        ; preds = %entry
  call void @llvm.lifetime.start.p0(i64 8, ptr nonnull %__an.i.i)
  store ptr %this, ptr %__an.i.i, align 8
  %call3.i.i6.i = call noundef ptr @_ZNSt8_Rb_treeIPN9grpc_core9XdsClient24ResourceWatcherInterfaceESt4pairIKS3_NS0_13RefCountedPtrIS2_EEESt10_Select1stIS8_ESt4lessIS3_ESaIS8_EE7_M_copyILb0ENSE_11_Alloc_nodeEEEPSt13_Rb_tree_nodeIS8_ESJ_PSt18_Rb_tree_node_baseRT0_(ptr noundef nonnull align 8 dereferenceable(48) %this, ptr noundef nonnull %2, ptr noundef nonnull %1, ptr noundef nonnull align 8 dereferenceable(8) %__an.i.i)
  br label %while.cond.i.i.i.i.i

while.cond.i.i.i.i.i:                             ; preds = %while.cond.i.i.i.i.i, %if.then.i
