; ModuleID = 'bench/openvdb/original/Transform.cc.ll'
source_filename = "bench/openvdb/original/Transform.cc.ll"
target datalayout = "e-m:e-p270:32:32-p271:32:32-p272:64:64-i64:64-i128:128-f80:128-n8:16:32:64-S128"
target triple = "x86_64-unknown-linux-gnu"

%"class.std::ios_base::Init" = type { i8 }
%"class.openvdb::v11_0::math::Mat3" = type { %"class.openvdb::v11_0::math::Mat.9" }
%"class.openvdb::v11_0::math::Mat.9" = type { [9 x double] }
%"class.openvdb::v11_0::math::Mat4" = type { %"class.openvdb::v11_0::math::Mat" }
%"class.openvdb::v11_0::math::Mat" = type { [16 x double] }
%"class.std::shared_ptr" = type { %"class.std::__shared_ptr" }
%"class.std::__shared_ptr" = type { ptr, %"class.std::__shared_count" }
%"class.std::__shared_count" = type { ptr }
%"class.openvdb::v11_0::math::Vec3" = type { %"class.openvdb::v11_0::math::Tuple" }
%"class.openvdb::v11_0::math::Tuple" = type { [3 x double] }
%"class.openvdb::v11_0::math::ScaleMap" = type { %"class.openvdb::v11_0::math::MapBase", %"class.openvdb::v11_0::math::Vec3", %"class.openvdb::v11_0::math::Vec3", %"class.openvdb::v11_0::math::Vec3", %"class.openvdb::v11_0::math::Vec3", %"class.openvdb::v11_0::math::Vec3" }
%"class.openvdb::v11_0::math::MapBase" = type { ptr }
%"class.std::_Sp_counted_base" = type { ptr, i32, i32 }
%"class.std::_Sp_counted_ptr.23" = type { %"class.std::_Sp_counted_base", ptr }
%"class.std::__cxx11::basic_string" = type { %"struct.std::__cxx11::basic_string<char>::_Alloc_hider", i64, %union.anon }
%"struct.std::__cxx11::basic_string<char>::_Alloc_hider" = type { ptr }
%union.anon = type { i64, [8 x i8] }
%"class.std::__cxx11::basic_ostringstream" = type { %"class.std::basic_ostream.base", %"class.std::__cxx11::basic_stringbuf", %"class.std::basic_ios" }
%"class.std::basic_ostream.base" = type { ptr }
%"class.std::__cxx11::basic_stringbuf" = type { %"class.std::basic_streambuf", i32, %"class.std::__cxx11::basic_string" }
%"class.std::basic_streambuf" = type { ptr, ptr, ptr, ptr, ptr, ptr, ptr, %"class.std::locale" }
%"class.std::locale" = type { ptr }
%"class.std::basic_ios" = type { %"class.std::ios_base", ptr, i8, i8, ptr, ptr, ptr, ptr }
%"class.std::ios_base" = type { ptr, i64, i64, i32, i32, i32, ptr, %"struct.std::ios_base::_Words", [8 x %"struct.std::ios_base::_Words"], i32, ptr, %"class.std::locale" }
%"struct.std::ios_base::_Words" = type { ptr, i64 }
%"class.openvdb::v11_0::math::ScaleTranslateMap" = type { %"class.openvdb::v11_0::math::MapBase", %"class.openvdb::v11_0::math::Vec3", %"class.openvdb::v11_0::math::Vec3", %"class.openvdb::v11_0::math::Vec3", %"class.openvdb::v11_0::math::Vec3", %"class.openvdb::v11_0::math::Vec3", %"class.openvdb::v11_0::math::Vec3" }
%"class.std::_Sp_counted_ptr.24" = type { %"class.std::_Sp_counted_base", ptr }
%"class.std::shared_ptr.3" = type { %"class.std::__shared_ptr.4" }
%"class.std::__shared_ptr.4" = type { ptr, %"class.std::__shared_count" }
%"class.std::__shared_ptr.1" = type { ptr, %"class.std::__shared_count" }
%"class.std::shared_ptr.6" = type { %"class.std::__shared_ptr.7" }
%"class.std::__shared_ptr.7" = type { ptr, %"class.std::__shared_count" }
%"class.std::_Sp_counted_ptr.22" = type { %"class.std::_Sp_counted_base", ptr }
%"class.std::_Sp_counted_ptr.21" = type { %"class.std::_Sp_counted_base", ptr }
%"class.openvdb::v11_0::math::AffineMap" = type <{ %"class.openvdb::v11_0::math::MapBase", %"class.openvdb::v11_0::math::Mat4", %"class.openvdb::v11_0::math::Mat4", %"class.openvdb::v11_0::math::Mat3", double, %"class.openvdb::v11_0::math::Vec3", i8, i8, [6 x i8] }>
%"class.openvdb::v11_0::math::NonlinearFrustumMap" = type <{ %"class.openvdb::v11_0::math::MapBase", %"class.openvdb::v11_0::math::BBox", double, double, %"class.openvdb::v11_0::math::AffineMap", double, double, double, double, double, double, double, double, i8, [7 x i8] }>
%"class.openvdb::v11_0::math::BBox" = type { %"class.openvdb::v11_0::math::Vec3", %"class.openvdb::v11_0::math::Vec3" }
%"class.std::_Sp_counted_ptr.25" = type { %"class.std::_Sp_counted_base", ptr }
%"class.openvdb::v11_0::math::Coord" = type { %"struct.std::array" }
%"struct.std::array" = type { [3 x i32] }
%"class.openvdb::v11_0::math::internal::LegacyFrustum" = type { %"class.openvdb::v11_0::math::Mat4", %"class.openvdb::v11_0::math::Mat4", %"class.openvdb::v11_0::math::Mat4", %"class.openvdb::v11_0::math::Mat4", %"class.openvdb::v11_0::math::CoordBBox", %"class.openvdb::v11_0::math::Vec3", %"class.openvdb::v11_0::math::Vec3", %"class.openvdb::v11_0::math::Vec3", %"class.openvdb::v11_0::math::Vec3", %"class.openvdb::v11_0::math::Vec3", %"class.openvdb::v11_0::math::Vec3", double, double }
%"class.openvdb::v11_0::math::CoordBBox" = type { %"class.openvdb::v11_0::math::Coord", %"class.openvdb::v11_0::math::Coord" }
%"class.std::allocator" = type { i8 }
%"class.openvdb::v11_0::math::Vec3.18" = type { %"class.openvdb::v11_0::math::Tuple.19" }
%"class.openvdb::v11_0::math::Tuple.19" = type { [3 x i32] }
%"class.openvdb::v11_0::Exception" = type { %"class.std::exception", %"class.std::__cxx11::basic_string" }
%"class.std::exception" = type { ptr }
%"class.std::shared_ptr.11" = type { %"class.std::__shared_ptr.12" }
%"class.std::__shared_ptr.12" = type { ptr, %"class.std::__shared_count" }
%"class.std::shared_ptr.0" = type { %"class.std::__shared_ptr.1" }
%"class.openvdb::v11_0::math::Vec4" = type { %"class.openvdb::v11_0::math::Tuple.10" }
%"class.openvdb::v11_0::math::Tuple.10" = type { [4 x double] }
%"class.std::vector" = type { %"struct.std::_Vector_base" }
%"struct.std::_Vector_base" = type { %"struct.std::_Vector_base<std::__cxx11::basic_string<char>, std::allocator<std::__cxx11::basic_string<char>>>::_Vector_impl" }
%"struct.std::_Vector_base<std::__cxx11::basic_string<char>, std::allocator<std::__cxx11::basic_string<char>>>::_Vector_impl" = type { %"struct.std::_Vector_base<std::__cxx11::basic_string<char>, std::allocator<std::__cxx11::basic_string<char>>>::_Vector_impl_data" }
%"struct.std::_Vector_base<std::__cxx11::basic_string<char>, std::allocator<std::__cxx11::basic_string<char>>>::_Vector_impl_data" = type { ptr, ptr, ptr }
%"class.std::_Sp_counted_ptr" = type { %"class.std::_Sp_counted_base", ptr }
%struct._Guard = type { ptr }
%struct.__va_list_tag = type { i32, i32, ptr, ptr }
%struct._Guard.17 = type { ptr }
%"class.std::_Sp_counted_ptr.26" = type { %"class.std::_Sp_counted_base", ptr }

$_ZNK7openvdb5v11_04math8ScaleMap12preTranslateERKNS1_4Vec3IdEE = comdat any

$_ZN7openvdb5v11_04math17ScaleTranslateMapC2ERKNS1_4Vec3IdEES6_ = comdat any

$_ZNK7openvdb5v11_04math15UniformScaleMap12preTranslateERKNS1_4Vec3IdEE = comdat any

$_ZNK7openvdb5v11_04math17ScaleTranslateMap8preScaleERKNS1_4Vec3IdEE = comdat any

$_ZNSt10shared_ptrIKN7openvdb5v11_04math7MapBaseEED2Ev = comdat any

$_ZNK7openvdb5v11_04math7MapBase6isTypeINS1_15UniformScaleMapEEEbv = comdat any

$_ZNSt10shared_ptrIN7openvdb5v11_04math7MapBaseEED2Ev = comdat any

$_ZNSt10shared_ptrIN7openvdb5v11_04math9AffineMapEED2Ev = comdat any

$_ZN7openvdb5v11_04math9AffineMapC2ERKNS1_4Mat4IdEE = comdat any

$_ZNK7openvdb5v11_04math19NonlinearFrustumMap8preScaleERKNS1_4Vec3IdEE = comdat any

$_ZN7openvdb5v11_04math19NonlinearFrustumMapD2Ev = comdat any

$_ZN7openvdb5v11_010readStringB5cxx11ERSi = comdat any

$_ZN7openvdb5v11_04math8internal13LegacyFrustumC2ERSi = comdat any

$_ZNK7openvdb5v11_04math9AffineMap12getAffineMapEv = comdat any

$_ZN7openvdb5v11_04math9AffineMapD2Ev = comdat any

$_ZN7openvdb5v11_04math19NonlinearFrustumMapC2ERKNS1_4BBoxINS1_4Vec3IdEEEEddRKSt10shared_ptrINS1_7MapBaseEE = comdat any

$_ZStplIcSt11char_traitsIcESaIcEENSt7__cxx1112basic_stringIT_T0_T1_EEPKS5_RKS8_ = comdat any

$_ZN7openvdb5v11_07IoErrorD2Ev = comdat any

$_ZN7openvdb5v11_08KeyErrorD2Ev = comdat any

$_ZNK7openvdb5v11_04math7MapBase6isTypeINS1_19NonlinearFrustumMapEEEbv = comdat any

$_ZNK7openvdb5v11_04math19NonlinearFrustumMap10isIdentityEv = comdat any

$_ZNSt10shared_ptrIN7openvdb5v11_04math19NonlinearFrustumMapEED2Ev = comdat any

$_ZNK7openvdb5v11_04math9AffineMap4copyEv = comdat any

$_ZNK7openvdb5v11_04math4Vec3IdE2eqERKS3_d = comdat any

$_ZSt4leftRSt8ios_base = comdat any

$_ZN7openvdb5v11_04math19NonlinearFrustumMap7mapTypeB5cxx11Ev = comdat any

$_ZN7openvdb5v11_04mathlsINS1_4Vec3IdEEEERSoS5_RKNS1_4BBoxIT_EE = comdat any

$_ZNSt6vectorINSt7__cxx1112basic_stringIcSt11char_traitsIcESaIcEEESaIS5_EED2Ev = comdat any

$_ZN7openvdb5v11_04math8ScaleMapD2Ev = comdat any

$_ZN7openvdb5v11_04math8ScaleMapD0Ev = comdat any

$_ZNK7openvdb5v11_04math8ScaleMap12getAffineMapEv = comdat any

$_ZNK7openvdb5v11_04math8ScaleMap4typeB5cxx11Ev = comdat any

$_ZNK7openvdb5v11_04math8ScaleMap7isEqualERKNS1_7MapBaseE = comdat any

$_ZNK7openvdb5v11_04math8ScaleMap8isLinearEv = comdat any

$_ZNK7openvdb5v11_04math8ScaleMap15hasUniformScaleEv = comdat any

$_ZNK7openvdb5v11_04math8ScaleMap8applyMapERKNS1_4Vec3IdEE = comdat any

$_ZNK7openvdb5v11_04math8ScaleMap15applyInverseMapERKNS1_4Vec3IdEE = comdat any

$_ZNK7openvdb5v11_04math8ScaleMap8applyIJTERKNS1_4Vec3IdEE = comdat any

$_ZNK7openvdb5v11_04math8ScaleMap8applyIJTERKNS1_4Vec3IdEES6_ = comdat any

$_ZNK7openvdb5v11_04math8ScaleMap8applyIJCERKNS1_4Mat3IdEE = comdat any

$_ZNK7openvdb5v11_04math8ScaleMap8applyIJCERKNS1_4Mat3IdEERKNS1_4Vec3IdEESA_ = comdat any

$_ZNK7openvdb5v11_04math8ScaleMap11determinantEv = comdat any

$_ZNK7openvdb5v11_04math8ScaleMap11determinantERKNS1_4Vec3IdEE = comdat any

$_ZNK7openvdb5v11_04math8ScaleMap9voxelSizeEv = comdat any

$_ZNK7openvdb5v11_04math8ScaleMap9voxelSizeERKNS1_4Vec3IdEE = comdat any

$_ZN7openvdb5v11_04math8ScaleMap4readERSi = comdat any

$_ZNK7openvdb5v11_04math8ScaleMap5writeERSo = comdat any

$_ZNK7openvdb5v11_04math8ScaleMap3strB5cxx11Ev = comdat any

$_ZNK7openvdb5v11_04math8ScaleMap4copyEv = comdat any

$_ZNK7openvdb5v11_04math8ScaleMap9preRotateEdNS1_4AxisE = comdat any

$_ZNK7openvdb5v11_04math8ScaleMap8preScaleERKNS1_4Vec3IdEE = comdat any

$_ZNK7openvdb5v11_04math8ScaleMap8preShearEdNS1_4AxisES3_ = comdat any

$_ZNK7openvdb5v11_04math8ScaleMap10postRotateEdNS1_4AxisE = comdat any

$_ZNK7openvdb5v11_04math8ScaleMap13postTranslateERKNS1_4Vec3IdEE = comdat any

$_ZNK7openvdb5v11_04math8ScaleMap9postScaleERKNS1_4Vec3IdEE = comdat any

$_ZNK7openvdb5v11_04math8ScaleMap9postShearEdNS1_4AxisES3_ = comdat any

$_ZNK7openvdb5v11_04math8ScaleMap13applyJacobianERKNS1_4Vec3IdEE = comdat any

$_ZNK7openvdb5v11_04math8ScaleMap13applyJacobianERKNS1_4Vec3IdEES6_ = comdat any

$_ZNK7openvdb5v11_04math8ScaleMap20applyInverseJacobianERKNS1_4Vec3IdEE = comdat any

$_ZNK7openvdb5v11_04math8ScaleMap20applyInverseJacobianERKNS1_4Vec3IdEES6_ = comdat any

$_ZNK7openvdb5v11_04math8ScaleMap7applyJTERKNS1_4Vec3IdEE = comdat any

$_ZNK7openvdb5v11_04math8ScaleMap7applyJTERKNS1_4Vec3IdEES6_ = comdat any

$_ZNK7openvdb5v11_04math8ScaleMap10inverseMapEv = comdat any

$_ZN7openvdb5v11_04math15UniformScaleMapD2Ev = comdat any

$_ZN7openvdb5v11_04math15UniformScaleMapD0Ev = comdat any

$_ZNK7openvdb5v11_04math15UniformScaleMap4typeB5cxx11Ev = comdat any

$_ZNK7openvdb5v11_04math15UniformScaleMap7isEqualERKNS1_7MapBaseE = comdat any

$_ZNK7openvdb5v11_04math15UniformScaleMap4copyEv = comdat any

$_ZNK7openvdb5v11_04math15UniformScaleMap13postTranslateERKNS1_4Vec3IdEE = comdat any

$_ZNK7openvdb5v11_04math15UniformScaleMap10inverseMapEv = comdat any

$_ZN7openvdb5v11_04math17ScaleTranslateMapD2Ev = comdat any

$_ZN7openvdb5v11_04math17ScaleTranslateMapD0Ev = comdat any

$_ZNK7openvdb5v11_04math17ScaleTranslateMap12getAffineMapEv = comdat any

$_ZNK7openvdb5v11_04math17ScaleTranslateMap4typeB5cxx11Ev = comdat any

$_ZNK7openvdb5v11_04math17ScaleTranslateMap7isEqualERKNS1_7MapBaseE = comdat any

$_ZNK7openvdb5v11_04math17ScaleTranslateMap8isLinearEv = comdat any

$_ZNK7openvdb5v11_04math17ScaleTranslateMap15hasUniformScaleEv = comdat any

$_ZNK7openvdb5v11_04math17ScaleTranslateMap8applyMapERKNS1_4Vec3IdEE = comdat any

$_ZNK7openvdb5v11_04math17ScaleTranslateMap15applyInverseMapERKNS1_4Vec3IdEE = comdat any

$_ZNK7openvdb5v11_04math17ScaleTranslateMap8applyIJTERKNS1_4Vec3IdEE = comdat any

$_ZNK7openvdb5v11_04math17ScaleTranslateMap8applyIJTERKNS1_4Vec3IdEES6_ = comdat any

$_ZNK7openvdb5v11_04math17ScaleTranslateMap8applyIJCERKNS1_4Mat3IdEE = comdat any

$_ZNK7openvdb5v11_04math17ScaleTranslateMap8applyIJCERKNS1_4Mat3IdEERKNS1_4Vec3IdEESA_ = comdat any

$_ZNK7openvdb5v11_04math17ScaleTranslateMap11determinantEv = comdat any

$_ZNK7openvdb5v11_04math17ScaleTranslateMap11determinantERKNS1_4Vec3IdEE = comdat any

$_ZNK7openvdb5v11_04math17ScaleTranslateMap9voxelSizeEv = comdat any

$_ZNK7openvdb5v11_04math17ScaleTranslateMap9voxelSizeERKNS1_4Vec3IdEE = comdat any

$_ZN7openvdb5v11_04math17ScaleTranslateMap4readERSi = comdat any

$_ZNK7openvdb5v11_04math17ScaleTranslateMap5writeERSo = comdat any

$_ZNK7openvdb5v11_04math17ScaleTranslateMap3strB5cxx11Ev = comdat any

$_ZNK7openvdb5v11_04math17ScaleTranslateMap4copyEv = comdat any

$_ZNK7openvdb5v11_04math17ScaleTranslateMap9preRotateEdNS1_4AxisE = comdat any

$_ZNK7openvdb5v11_04math17ScaleTranslateMap12preTranslateERKNS1_4Vec3IdEE = comdat any

$_ZNK7openvdb5v11_04math17ScaleTranslateMap8preShearEdNS1_4AxisES3_ = comdat any

$_ZNK7openvdb5v11_04math17ScaleTranslateMap10postRotateEdNS1_4AxisE = comdat any

$_ZNK7openvdb5v11_04math17ScaleTranslateMap13postTranslateERKNS1_4Vec3IdEE = comdat any

$_ZNK7openvdb5v11_04math17ScaleTranslateMap9postScaleERKNS1_4Vec3IdEE = comdat any

$_ZNK7openvdb5v11_04math17ScaleTranslateMap9postShearEdNS1_4AxisES3_ = comdat any

$_ZNK7openvdb5v11_04math17ScaleTranslateMap13applyJacobianERKNS1_4Vec3IdEE = comdat any

$_ZNK7openvdb5v11_04math17ScaleTranslateMap13applyJacobianERKNS1_4Vec3IdEES6_ = comdat any

$_ZNK7openvdb5v11_04math17ScaleTranslateMap20applyInverseJacobianERKNS1_4Vec3IdEE = comdat any

$_ZNK7openvdb5v11_04math17ScaleTranslateMap20applyInverseJacobianERKNS1_4Vec3IdEES6_ = comdat any

$_ZNK7openvdb5v11_04math17ScaleTranslateMap7applyJTERKNS1_4Vec3IdEE = comdat any

$_ZNK7openvdb5v11_04math17ScaleTranslateMap7applyJTERKNS1_4Vec3IdEES6_ = comdat any

$_ZNK7openvdb5v11_04math17ScaleTranslateMap10inverseMapEv = comdat any

$_ZN7openvdb5v11_015ArithmeticErrorD2Ev = comdat any

$_ZN7openvdb5v11_09ExceptionC2EPKcPKNSt7__cxx1112basic_stringIcSt11char_traitsIcESaIcEEE = comdat any

$_ZN7openvdb5v11_015ArithmeticErrorD0Ev = comdat any

$_ZNK7openvdb5v11_09Exception4whatEv = comdat any

$__clang_call_terminate = comdat any

$_ZN7openvdb5v11_09ExceptionD2Ev = comdat any

$_ZN7openvdb5v11_09ExceptionD0Ev = comdat any

$_ZN7openvdb5v11_04math24UniformScaleTranslateMapD2Ev = comdat any

$_ZN7openvdb5v11_04math24UniformScaleTranslateMapD0Ev = comdat any

$_ZNK7openvdb5v11_04math24UniformScaleTranslateMap4typeB5cxx11Ev = comdat any

$_ZNK7openvdb5v11_04math24UniformScaleTranslateMap7isEqualERKNS1_7MapBaseE = comdat any

$_ZNK7openvdb5v11_04math24UniformScaleTranslateMap4copyEv = comdat any

$_ZNK7openvdb5v11_04math24UniformScaleTranslateMap12preTranslateERKNS1_4Vec3IdEE = comdat any

$_ZNK7openvdb5v11_04math24UniformScaleTranslateMap13postTranslateERKNS1_4Vec3IdEE = comdat any

$_ZNK7openvdb5v11_04math24UniformScaleTranslateMap10inverseMapEv = comdat any

$_ZN7openvdb5v11_04math24UniformScaleTranslateMap7mapTypeB5cxx11Ev = comdat any

$_ZNSt7__cxx1112basic_stringIcSt11char_traitsIcESaIcEE12_M_constructIPKcEEvT_S8_St20forward_iterator_tag = comdat any

$_ZZNSt7__cxx1112basic_stringIcSt11char_traitsIcESaIcEE12_M_constructIPKcEEvT_S8_St20forward_iterator_tagEN6_GuardD2Ev = comdat any

$_ZNK7openvdb5v11_04math7MapBase6isTypeINS1_24UniformScaleTranslateMapEEEbv = comdat any

$_ZNK7openvdb5v11_04math17ScaleTranslateMapeqERKS2_ = comdat any

$_ZN7openvdb5v11_04math9AffineMap18updateAccelerationEv = comdat any

$_ZN7openvdb5v11_04math9AffineMapD0Ev = comdat any

$_ZNK7openvdb5v11_04math9AffineMap4typeB5cxx11Ev = comdat any

$_ZNK7openvdb5v11_04math9AffineMap7isEqualERKNS1_7MapBaseE = comdat any

$_ZNK7openvdb5v11_04math9AffineMap8isLinearEv = comdat any

$_ZNK7openvdb5v11_04math9AffineMap15hasUniformScaleEv = comdat any

$_ZNK7openvdb5v11_04math9AffineMap8applyMapERKNS1_4Vec3IdEE = comdat any

$_ZNK7openvdb5v11_04math9AffineMap15applyInverseMapERKNS1_4Vec3IdEE = comdat any

$_ZNK7openvdb5v11_04math9AffineMap8applyIJTERKNS1_4Vec3IdEE = comdat any

$_ZNK7openvdb5v11_04math9AffineMap8applyIJTERKNS1_4Vec3IdEES6_ = comdat any

$_ZNK7openvdb5v11_04math9AffineMap8applyIJCERKNS1_4Mat3IdEE = comdat any

$_ZNK7openvdb5v11_04math9AffineMap8applyIJCERKNS1_4Mat3IdEERKNS1_4Vec3IdEESA_ = comdat any

$_ZNK7openvdb5v11_04math9AffineMap11determinantEv = comdat any

$_ZNK7openvdb5v11_04math9AffineMap11determinantERKNS1_4Vec3IdEE = comdat any

$_ZNK7openvdb5v11_04math9AffineMap9voxelSizeEv = comdat any

$_ZNK7openvdb5v11_04math9AffineMap9voxelSizeERKNS1_4Vec3IdEE = comdat any

$_ZN7openvdb5v11_04math9AffineMap4readERSi = comdat any

$_ZNK7openvdb5v11_04math9AffineMap5writeERSo = comdat any

$_ZNK7openvdb5v11_04math9AffineMap3strB5cxx11Ev = comdat any

$_ZNK7openvdb5v11_04math9AffineMap9preRotateEdNS1_4AxisE = comdat any

$_ZNK7openvdb5v11_04math9AffineMap12preTranslateERKNS1_4Vec3IdEE = comdat any

$_ZNK7openvdb5v11_04math9AffineMap8preScaleERKNS1_4Vec3IdEE = comdat any

$_ZNK7openvdb5v11_04math9AffineMap8preShearEdNS1_4AxisES3_ = comdat any

$_ZNK7openvdb5v11_04math9AffineMap10postRotateEdNS1_4AxisE = comdat any

$_ZNK7openvdb5v11_04math9AffineMap13postTranslateERKNS1_4Vec3IdEE = comdat any

$_ZNK7openvdb5v11_04math9AffineMap9postScaleERKNS1_4Vec3IdEE = comdat any

$_ZNK7openvdb5v11_04math9AffineMap9postShearEdNS1_4AxisES3_ = comdat any

$_ZNK7openvdb5v11_04math9AffineMap13applyJacobianERKNS1_4Vec3IdEE = comdat any

$_ZNK7openvdb5v11_04math9AffineMap13applyJacobianERKNS1_4Vec3IdEES6_ = comdat any

$_ZNK7openvdb5v11_04math9AffineMap20applyInverseJacobianERKNS1_4Vec3IdEE = comdat any

$_ZNK7openvdb5v11_04math9AffineMap20applyInverseJacobianERKNS1_4Vec3IdEES6_ = comdat any

$_ZNK7openvdb5v11_04math9AffineMap7applyJTERKNS1_4Vec3IdEE = comdat any

$_ZNK7openvdb5v11_04math9AffineMap7applyJTERKNS1_4Vec3IdEES6_ = comdat any

$_ZNK7openvdb5v11_04math9AffineMap10inverseMapEv = comdat any

$_ZNK7openvdb5v11_04math4Mat4IdE7inverseEd = comdat any

$_ZNK7openvdb5v11_04math4Mat3IdE7inverseEd = comdat any

$_ZNK7openvdb5v11_04math4Mat4IdE6invertERS3_d = comdat any

$_ZN7openvdb5v11_04math9AffineMap7mapTypeB5cxx11Ev = comdat any

$_ZNK7openvdb5v11_04math7MapBase6isTypeINS1_9AffineMapEEEbv = comdat any

$_ZN7openvdb5v11_04math9isUnitaryINS1_4Mat3IdEEEEbRKT_ = comdat any

$_ZNK7openvdb5v11_04math3MatILj4EdE3strB5cxx11Ej = comdat any

$_ZN9__gnu_cxx12__to_xstringINSt7__cxx1112basic_stringIcSt11char_traitsIcESaIcEEEcEET_PFiPT0_mPKS8_P13__va_list_tagEmSB_z = comdat any

$_ZNSt7__cxx1112basic_stringIcSt11char_traitsIcESaIcEE12_M_constructIPcEEvT_S7_St20forward_iterator_tag = comdat any

$_ZZNSt7__cxx1112basic_stringIcSt11char_traitsIcESaIcEE12_M_constructIPcEEvT_S7_St20forward_iterator_tagEN6_GuardD2Ev = comdat any

$_ZN7openvdb5v11_04math4Mat4IdE9preRotateENS1_4AxisEd = comdat any

$_ZN7openvdb5v11_04math4Mat4IdE12preTranslateIdEEvRKNS1_4Vec3IT_EE = comdat any

$_ZN7openvdb5v11_04math4Mat4IdE10postRotateENS1_4AxisEd = comdat any

$_ZN7openvdb5v11_04math9AffineMapC2Ev = comdat any

$_ZN7openvdb5v11_04math19NonlinearFrustumMap4initEv = comdat any

$_ZN7openvdb5v11_04math19NonlinearFrustumMapD0Ev = comdat any

$_ZNK7openvdb5v11_04math19NonlinearFrustumMap12getAffineMapEv = comdat any

$_ZNK7openvdb5v11_04math19NonlinearFrustumMap4typeB5cxx11Ev = comdat any

$_ZNK7openvdb5v11_04math19NonlinearFrustumMap7isEqualERKNS1_7MapBaseE = comdat any

$_ZNK7openvdb5v11_04math19NonlinearFrustumMap8isLinearEv = comdat any

$_ZNK7openvdb5v11_04math19NonlinearFrustumMap15hasUniformScaleEv = comdat any

$_ZNK7openvdb5v11_04math19NonlinearFrustumMap8applyMapERKNS1_4Vec3IdEE = comdat any

$_ZNK7openvdb5v11_04math19NonlinearFrustumMap15applyInverseMapERKNS1_4Vec3IdEE = comdat any

$_ZNK7openvdb5v11_04math19NonlinearFrustumMap8applyIJTERKNS1_4Vec3IdEE = comdat any

$_ZNK7openvdb5v11_04math19NonlinearFrustumMap8applyIJTERKNS1_4Vec3IdEES6_ = comdat any

$_ZNK7openvdb5v11_04math19NonlinearFrustumMap8applyIJCERKNS1_4Mat3IdEE = comdat any

$_ZNK7openvdb5v11_04math19NonlinearFrustumMap8applyIJCERKNS1_4Mat3IdEERKNS1_4Vec3IdEESA_ = comdat any

$_ZNK7openvdb5v11_04math19NonlinearFrustumMap11determinantEv = comdat any

$_ZNK7openvdb5v11_04math19NonlinearFrustumMap11determinantERKNS1_4Vec3IdEE = comdat any

$_ZNK7openvdb5v11_04math19NonlinearFrustumMap9voxelSizeEv = comdat any

$_ZNK7openvdb5v11_04math19NonlinearFrustumMap9voxelSizeERKNS1_4Vec3IdEE = comdat any

$_ZN7openvdb5v11_04math19NonlinearFrustumMap4readERSi = comdat any

$_ZNK7openvdb5v11_04math19NonlinearFrustumMap5writeERSo = comdat any

$_ZNK7openvdb5v11_04math19NonlinearFrustumMap3strB5cxx11Ev = comdat any

$_ZNK7openvdb5v11_04math19NonlinearFrustumMap4copyEv = comdat any

$_ZNK7openvdb5v11_04math19NonlinearFrustumMap9preRotateEdNS1_4AxisE = comdat any

$_ZNK7openvdb5v11_04math19NonlinearFrustumMap12preTranslateERKNS1_4Vec3IdEE = comdat any

$_ZNK7openvdb5v11_04math19NonlinearFrustumMap8preShearEdNS1_4AxisES3_ = comdat any

$_ZNK7openvdb5v11_04math19NonlinearFrustumMap10postRotateEdNS1_4AxisE = comdat any

$_ZNK7openvdb5v11_04math19NonlinearFrustumMap13postTranslateERKNS1_4Vec3IdEE = comdat any

$_ZNK7openvdb5v11_04math19NonlinearFrustumMap9postScaleERKNS1_4Vec3IdEE = comdat any

$_ZNK7openvdb5v11_04math19NonlinearFrustumMap9postShearEdNS1_4AxisES3_ = comdat any

$_ZNK7openvdb5v11_04math19NonlinearFrustumMap13applyJacobianERKNS1_4Vec3IdEE = comdat any

$_ZNK7openvdb5v11_04math19NonlinearFrustumMap13applyJacobianERKNS1_4Vec3IdEES6_ = comdat any

$_ZNK7openvdb5v11_04math19NonlinearFrustumMap20applyInverseJacobianERKNS1_4Vec3IdEE = comdat any

$_ZNK7openvdb5v11_04math19NonlinearFrustumMap20applyInverseJacobianERKNS1_4Vec3IdEES6_ = comdat any

$_ZNK7openvdb5v11_04math19NonlinearFrustumMap7applyJTERKNS1_4Vec3IdEE = comdat any

$_ZNK7openvdb5v11_04math19NonlinearFrustumMap7applyJTERKNS1_4Vec3IdEES6_ = comdat any

$_ZNK7openvdb5v11_04math19NonlinearFrustumMap10inverseMapEv = comdat any

$_ZNK7openvdb5v11_04math19NonlinearFrustumMapeqERKS2_ = comdat any

$_ZNK7openvdb5v11_04math4BBoxINS1_4Vec3IdEEEeqERKS5_ = comdat any

$_ZN7openvdb5v11_019NotImplementedErrorD2Ev = comdat any

$_ZN7openvdb5v11_019NotImplementedErrorD0Ev = comdat any

$_ZNK7openvdb5v11_04math8internal13LegacyFrustum16getFarPlaneWidthEv = comdat any

$_ZN7openvdb5v11_07IoErrorD0Ev = comdat any

$_ZN7openvdb5v11_08KeyErrorD0Ev = comdat any

$_ZN7openvdb5v11_04math8ScaleMap7mapTypeB5cxx11Ev = comdat any

$_ZNK7openvdb5v11_04math7MapBase6isTypeINS1_8ScaleMapEEEbv = comdat any

$_ZNSt15_Sp_counted_ptrIPN7openvdb5v11_04math8ScaleMapELN9__gnu_cxx12_Lock_policyE2EED2Ev = comdat any

$_ZNSt15_Sp_counted_ptrIPN7openvdb5v11_04math8ScaleMapELN9__gnu_cxx12_Lock_policyE2EED0Ev = comdat any

$_ZNSt15_Sp_counted_ptrIPN7openvdb5v11_04math8ScaleMapELN9__gnu_cxx12_Lock_policyE2EE10_M_disposeEv = comdat any

$_ZNSt15_Sp_counted_ptrIPN7openvdb5v11_04math8ScaleMapELN9__gnu_cxx12_Lock_policyE2EE10_M_destroyEv = comdat any

$_ZNSt15_Sp_counted_ptrIPN7openvdb5v11_04math8ScaleMapELN9__gnu_cxx12_Lock_policyE2EE14_M_get_deleterERKSt9type_info = comdat any

$_ZN7openvdb5v11_04math8ScaleMapC2ERKNS1_4Vec3IdEE = comdat any

$_ZN7openvdb5v11_04math15UniformScaleMap7mapTypeB5cxx11Ev = comdat any

$_ZN7openvdb5v11_04math17ScaleTranslateMap7mapTypeB5cxx11Ev = comdat any

$_ZNK7openvdb5v11_04math7MapBase6isTypeINS1_17ScaleTranslateMapEEEbv = comdat any

$_ZNSt15_Sp_counted_ptrIPN7openvdb5v11_04math9AffineMapELN9__gnu_cxx12_Lock_policyE2EED2Ev = comdat any

$_ZNSt15_Sp_counted_ptrIPN7openvdb5v11_04math9AffineMapELN9__gnu_cxx12_Lock_policyE2EED0Ev = comdat any

$_ZNSt15_Sp_counted_ptrIPN7openvdb5v11_04math9AffineMapELN9__gnu_cxx12_Lock_policyE2EE10_M_disposeEv = comdat any

$_ZNSt15_Sp_counted_ptrIPN7openvdb5v11_04math9AffineMapELN9__gnu_cxx12_Lock_policyE2EE10_M_destroyEv = comdat any

$_ZNSt15_Sp_counted_ptrIPN7openvdb5v11_04math9AffineMapELN9__gnu_cxx12_Lock_policyE2EE14_M_get_deleterERKSt9type_info = comdat any

$_ZNK7openvdb5v11_04math5TupleILi3EdE3strB5cxx11Ev = comdat any

$_ZNSt15_Sp_counted_ptrIPN7openvdb5v11_04math15UniformScaleMapELN9__gnu_cxx12_Lock_policyE2EED2Ev = comdat any

$_ZNSt15_Sp_counted_ptrIPN7openvdb5v11_04math15UniformScaleMapELN9__gnu_cxx12_Lock_policyE2EED0Ev = comdat any

$_ZNSt15_Sp_counted_ptrIPN7openvdb5v11_04math15UniformScaleMapELN9__gnu_cxx12_Lock_policyE2EE10_M_disposeEv = comdat any

$_ZNSt15_Sp_counted_ptrIPN7openvdb5v11_04math15UniformScaleMapELN9__gnu_cxx12_Lock_policyE2EE10_M_destroyEv = comdat any

$_ZNSt15_Sp_counted_ptrIPN7openvdb5v11_04math15UniformScaleMapELN9__gnu_cxx12_Lock_policyE2EE14_M_get_deleterERKSt9type_info = comdat any

$_ZNSt15_Sp_counted_ptrIPN7openvdb5v11_04math17ScaleTranslateMapELN9__gnu_cxx12_Lock_policyE2EED2Ev = comdat any

$_ZNSt15_Sp_counted_ptrIPN7openvdb5v11_04math17ScaleTranslateMapELN9__gnu_cxx12_Lock_policyE2EED0Ev = comdat any

$_ZNSt15_Sp_counted_ptrIPN7openvdb5v11_04math17ScaleTranslateMapELN9__gnu_cxx12_Lock_policyE2EE10_M_disposeEv = comdat any

$_ZNSt15_Sp_counted_ptrIPN7openvdb5v11_04math17ScaleTranslateMapELN9__gnu_cxx12_Lock_policyE2EE10_M_destroyEv = comdat any

$_ZNSt15_Sp_counted_ptrIPN7openvdb5v11_04math17ScaleTranslateMapELN9__gnu_cxx12_Lock_policyE2EE14_M_get_deleterERKSt9type_info = comdat any

$_ZNSt15_Sp_counted_ptrIPN7openvdb5v11_04math24UniformScaleTranslateMapELN9__gnu_cxx12_Lock_policyE2EED2Ev = comdat any

$_ZNSt15_Sp_counted_ptrIPN7openvdb5v11_04math24UniformScaleTranslateMapELN9__gnu_cxx12_Lock_policyE2EED0Ev = comdat any

$_ZNSt15_Sp_counted_ptrIPN7openvdb5v11_04math24UniformScaleTranslateMapELN9__gnu_cxx12_Lock_policyE2EE10_M_disposeEv = comdat any

$_ZNSt15_Sp_counted_ptrIPN7openvdb5v11_04math24UniformScaleTranslateMapELN9__gnu_cxx12_Lock_policyE2EE10_M_destroyEv = comdat any

$_ZNSt15_Sp_counted_ptrIPN7openvdb5v11_04math24UniformScaleTranslateMapELN9__gnu_cxx12_Lock_policyE2EE14_M_get_deleterERKSt9type_info = comdat any

$_ZNSt15_Sp_counted_ptrIPN7openvdb5v11_04math19NonlinearFrustumMapELN9__gnu_cxx12_Lock_policyE2EED2Ev = comdat any

$_ZNSt15_Sp_counted_ptrIPN7openvdb5v11_04math19NonlinearFrustumMapELN9__gnu_cxx12_Lock_policyE2EED0Ev = comdat any

$_ZNSt15_Sp_counted_ptrIPN7openvdb5v11_04math19NonlinearFrustumMapELN9__gnu_cxx12_Lock_policyE2EE10_M_disposeEv = comdat any

$_ZNSt15_Sp_counted_ptrIPN7openvdb5v11_04math19NonlinearFrustumMapELN9__gnu_cxx12_Lock_policyE2EE10_M_destroyEv = comdat any

$_ZNSt15_Sp_counted_ptrIPN7openvdb5v11_04math19NonlinearFrustumMapELN9__gnu_cxx12_Lock_policyE2EE14_M_get_deleterERKSt9type_info = comdat any

$_ZNSt14__shared_countILN9__gnu_cxx12_Lock_policyE2EEC2IPN7openvdb5v11_04math9TransformEEET_ = comdat any

$_ZN7openvdb5v11_04math9TransformD2Ev = comdat any

$_ZNSt15_Sp_counted_ptrIPN7openvdb5v11_04math9TransformELN9__gnu_cxx12_Lock_policyE2EED2Ev = comdat any

$_ZNSt15_Sp_counted_ptrIPN7openvdb5v11_04math9TransformELN9__gnu_cxx12_Lock_policyE2EED0Ev = comdat any

$_ZNSt15_Sp_counted_ptrIPN7openvdb5v11_04math9TransformELN9__gnu_cxx12_Lock_policyE2EE10_M_disposeEv = comdat any

$_ZNSt15_Sp_counted_ptrIPN7openvdb5v11_04math9TransformELN9__gnu_cxx12_Lock_policyE2EE10_M_destroyEv = comdat any

$_ZNSt15_Sp_counted_ptrIPN7openvdb5v11_04math9TransformELN9__gnu_cxx12_Lock_policyE2EE14_M_get_deleterERKSt9type_info = comdat any

$_ZNSt6vectorINSt7__cxx1112basic_stringIcSt11char_traitsIcESaIcEEESaIS5_EE17_M_realloc_insertIJRKS5_EEEvN9__gnu_cxx17__normal_iteratorIPS5_S7_EEDpOT_ = comdat any

$_ZTSN7openvdb5v11_07IoErrorE = comdat any

$_ZTSN7openvdb5v11_09ExceptionE = comdat any

$_ZTIN7openvdb5v11_09ExceptionE = comdat any

$_ZTIN7openvdb5v11_07IoErrorE = comdat any

$_ZTSN7openvdb5v11_08KeyErrorE = comdat any

$_ZTIN7openvdb5v11_08KeyErrorE = comdat any

$_ZTVN7openvdb5v11_04math8ScaleMapE = comdat any

$_ZTSN7openvdb5v11_04math8ScaleMapE = comdat any

$_ZTSN7openvdb5v11_04math7MapBaseE = comdat any

$_ZTIN7openvdb5v11_04math7MapBaseE = comdat any

$_ZTIN7openvdb5v11_04math8ScaleMapE = comdat any

$_ZTVN7openvdb5v11_04math15UniformScaleMapE = comdat any

$_ZTSN7openvdb5v11_04math15UniformScaleMapE = comdat any

$_ZTIN7openvdb5v11_04math15UniformScaleMapE = comdat any

$_ZTVN7openvdb5v11_04math17ScaleTranslateMapE = comdat any

$_ZTSN7openvdb5v11_04math17ScaleTranslateMapE = comdat any

$_ZTIN7openvdb5v11_04math17ScaleTranslateMapE = comdat any

$_ZTSN7openvdb5v11_015ArithmeticErrorE = comdat any

$_ZTIN7openvdb5v11_015ArithmeticErrorE = comdat any

$_ZTVN7openvdb5v11_015ArithmeticErrorE = comdat any

$_ZTVN7openvdb5v11_09ExceptionE = comdat any

$_ZTVN7openvdb5v11_04math24UniformScaleTranslateMapE = comdat any

$_ZTSN7openvdb5v11_04math24UniformScaleTranslateMapE = comdat any

$_ZTIN7openvdb5v11_04math24UniformScaleTranslateMapE = comdat any

$_ZTVN7openvdb5v11_04math9AffineMapE = comdat any

$_ZTSN7openvdb5v11_04math9AffineMapE = comdat any

$_ZTIN7openvdb5v11_04math9AffineMapE = comdat any

$_ZZN7openvdb5v11_04math4Mat3IdE8identityEvE9sIdentity = comdat any

$_ZGVZN7openvdb5v11_04math4Mat3IdE8identityEvE9sIdentity = comdat any

$_ZTVN7openvdb5v11_04math19NonlinearFrustumMapE = comdat any

$_ZTSN7openvdb5v11_04math19NonlinearFrustumMapE = comdat any

$_ZTIN7openvdb5v11_04math19NonlinearFrustumMapE = comdat any

$_ZZN7openvdb5v11_04math4Mat3IdE4zeroEvE5sZero = comdat any

$_ZGVZN7openvdb5v11_04math4Mat3IdE4zeroEvE5sZero = comdat any

$_ZTSN7openvdb5v11_019NotImplementedErrorE = comdat any

$_ZTIN7openvdb5v11_019NotImplementedErrorE = comdat any

$_ZTVN7openvdb5v11_019NotImplementedErrorE = comdat any

$_ZTVN7openvdb5v11_07IoErrorE = comdat any

$_ZTVN7openvdb5v11_08KeyErrorE = comdat any

$_ZTVSt15_Sp_counted_ptrIPN7openvdb5v11_04math8ScaleMapELN9__gnu_cxx12_Lock_policyE2EE = comdat any

$_ZTSSt15_Sp_counted_ptrIPN7openvdb5v11_04math8ScaleMapELN9__gnu_cxx12_Lock_policyE2EE = comdat any

$_ZTSSt16_Sp_counted_baseILN9__gnu_cxx12_Lock_policyE2EE = comdat any

$_ZTSSt11_Mutex_baseILN9__gnu_cxx12_Lock_policyE2EE = comdat any

$_ZTISt11_Mutex_baseILN9__gnu_cxx12_Lock_policyE2EE = comdat any

$_ZTISt16_Sp_counted_baseILN9__gnu_cxx12_Lock_policyE2EE = comdat any

$_ZTISt15_Sp_counted_ptrIPN7openvdb5v11_04math8ScaleMapELN9__gnu_cxx12_Lock_policyE2EE = comdat any

$_ZZN7openvdb5v11_04math4Mat4IdE8identityEvE9sIdentity = comdat any

$_ZGVZN7openvdb5v11_04math4Mat4IdE8identityEvE9sIdentity = comdat any

$_ZTVSt15_Sp_counted_ptrIPN7openvdb5v11_04math9AffineMapELN9__gnu_cxx12_Lock_policyE2EE = comdat any

$_ZTSSt15_Sp_counted_ptrIPN7openvdb5v11_04math9AffineMapELN9__gnu_cxx12_Lock_policyE2EE = comdat any

$_ZTISt15_Sp_counted_ptrIPN7openvdb5v11_04math9AffineMapELN9__gnu_cxx12_Lock_policyE2EE = comdat any

$_ZTVSt15_Sp_counted_ptrIPN7openvdb5v11_04math15UniformScaleMapELN9__gnu_cxx12_Lock_policyE2EE = comdat any

$_ZTSSt15_Sp_counted_ptrIPN7openvdb5v11_04math15UniformScaleMapELN9__gnu_cxx12_Lock_policyE2EE = comdat any

$_ZTISt15_Sp_counted_ptrIPN7openvdb5v11_04math15UniformScaleMapELN9__gnu_cxx12_Lock_policyE2EE = comdat any

$_ZTVSt15_Sp_counted_ptrIPN7openvdb5v11_04math17ScaleTranslateMapELN9__gnu_cxx12_Lock_policyE2EE = comdat any

$_ZTSSt15_Sp_counted_ptrIPN7openvdb5v11_04math17ScaleTranslateMapELN9__gnu_cxx12_Lock_policyE2EE = comdat any

$_ZTISt15_Sp_counted_ptrIPN7openvdb5v11_04math17ScaleTranslateMapELN9__gnu_cxx12_Lock_policyE2EE = comdat any

$_ZTVSt15_Sp_counted_ptrIPN7openvdb5v11_04math24UniformScaleTranslateMapELN9__gnu_cxx12_Lock_policyE2EE = comdat any

$_ZTSSt15_Sp_counted_ptrIPN7openvdb5v11_04math24UniformScaleTranslateMapELN9__gnu_cxx12_Lock_policyE2EE = comdat any

$_ZTISt15_Sp_counted_ptrIPN7openvdb5v11_04math24UniformScaleTranslateMapELN9__gnu_cxx12_Lock_policyE2EE = comdat any

$_ZTVSt15_Sp_counted_ptrIPN7openvdb5v11_04math19NonlinearFrustumMapELN9__gnu_cxx12_Lock_policyE2EE = comdat any

$_ZTSSt15_Sp_counted_ptrIPN7openvdb5v11_04math19NonlinearFrustumMapELN9__gnu_cxx12_Lock_policyE2EE = comdat any

$_ZTISt15_Sp_counted_ptrIPN7openvdb5v11_04math19NonlinearFrustumMapELN9__gnu_cxx12_Lock_policyE2EE = comdat any

$_ZTVSt15_Sp_counted_ptrIPN7openvdb5v11_04math9TransformELN9__gnu_cxx12_Lock_policyE2EE = comdat any

$_ZTSSt15_Sp_counted_ptrIPN7openvdb5v11_04math9TransformELN9__gnu_cxx12_Lock_policyE2EE = comdat any

$_ZTISt15_Sp_counted_ptrIPN7openvdb5v11_04math9TransformELN9__gnu_cxx12_Lock_policyE2EE = comdat any

@_ZStL8__ioinit = internal global %"class.std::ios_base::Init" zeroinitializer, align 1
@__dso_handle = external hidden global i8
@.str = private unnamed_addr constant [16 x i8] c"LinearTransform\00", align 1
@.str.1 = private unnamed_addr constant [17 x i8] c"FrustumTransform\00", align 1
@.str.2 = private unnamed_addr constant [20 x i8] c"Transforms of type \00", align 1
@.str.3 = private unnamed_addr constant [25 x i8] c" are no longer supported\00", align 1
@_ZTVN10__cxxabiv120__si_class_type_infoE = external global [0 x ptr]
@_ZTSN7openvdb5v11_07IoErrorE = linkonce_odr constant [25 x i8] c"N7openvdb5v11_07IoErrorE\00", comdat, align 1
@_ZTSN7openvdb5v11_09ExceptionE = linkonce_odr constant [27 x i8] c"N7openvdb5v11_09ExceptionE\00", comdat, align 1
@_ZTISt9exception = external constant ptr
@_ZTIN7openvdb5v11_09ExceptionE = linkonce_odr constant { ptr, ptr, ptr } { ptr getelementptr inbounds (ptr, ptr @_ZTVN10__cxxabiv120__si_class_type_infoE, i64 2), ptr @_ZTSN7openvdb5v11_09ExceptionE, ptr @_ZTISt9exception }, comdat, align 8
@_ZTIN7openvdb5v11_07IoErrorE = linkonce_odr constant { ptr, ptr, ptr } { ptr getelementptr inbounds (ptr, ptr @_ZTVN10__cxxabiv120__si_class_type_infoE, i64 2), ptr @_ZTSN7openvdb5v11_07IoErrorE, ptr @_ZTIN7openvdb5v11_09ExceptionE }, comdat, align 8
@.str.4 = private unnamed_addr constant [5 x i8] c"Map \00", align 1
@.str.5 = private unnamed_addr constant [19 x i8] c" is not registered\00", align 1
@_ZTSN7openvdb5v11_08KeyErrorE = linkonce_odr constant [26 x i8] c"N7openvdb5v11_08KeyErrorE\00", comdat, align 1
@_ZTIN7openvdb5v11_08KeyErrorE = linkonce_odr constant { ptr, ptr, ptr } { ptr getelementptr inbounds (ptr, ptr @_ZTVN10__cxxabiv120__si_class_type_infoE, i64 2), ptr @_ZTSN7openvdb5v11_08KeyErrorE, ptr @_ZTIN7openvdb5v11_09ExceptionE }, comdat, align 8
@.str.6 = private unnamed_addr constant [30 x i8] c"Transform does not have a map\00", align 1
@.str.7 = private unnamed_addr constant [13 x i8] c"voxel size: \00", align 1
@.str.8 = private unnamed_addr constant [20 x i8] c"voxel dimensions: [\00", align 1
@.str.9 = private unnamed_addr constant [3 x i8] c", \00", align 1
@.str.10 = private unnamed_addr constant [2 x i8] c"]\00", align 1
@.str.11 = private unnamed_addr constant [2 x i8] c"\0A\00", align 1
@.str.12 = private unnamed_addr constant [17 x i8] c"index to world:\0A\00", align 1
@.str.13 = private unnamed_addr constant [4 x i8] c"   \00", align 1
@.str.14 = private unnamed_addr constant [8 x i8] c"linear:\00", align 1
@.str.15 = private unnamed_addr constant [12 x i8] c"  frustum:\0A\00", align 1
@.str.16 = private unnamed_addr constant [11 x i8] c"  taper:  \00", align 1
@.str.17 = private unnamed_addr constant [11 x i8] c"  depth:  \00", align 1
@.str.18 = private unnamed_addr constant [11 x i8] c"  bounds: \00", align 1
@.str.19 = private unnamed_addr constant [5 x i8] c" ->\0A\00", align 1
@.str.20 = private unnamed_addr constant [14 x i8] c"             \00", align 1
@.str.21 = private unnamed_addr constant [17 x i8] c"Transform type: \00", align 1
@_ZTVN7openvdb5v11_04math8ScaleMapE = linkonce_odr unnamed_addr constant { [38 x ptr] } { [38 x ptr] [ptr null, ptr @_ZTIN7openvdb5v11_04math8ScaleMapE, ptr @_ZN7openvdb5v11_04math8ScaleMapD2Ev, ptr @_ZN7openvdb5v11_04math8ScaleMapD0Ev, ptr @_ZNK7openvdb5v11_04math8ScaleMap12getAffineMapEv, ptr @_ZNK7openvdb5v11_04math8ScaleMap4typeB5cxx11Ev, ptr @_ZNK7openvdb5v11_04math8ScaleMap7isEqualERKNS1_7MapBaseE, ptr @_ZNK7openvdb5v11_04math8ScaleMap8isLinearEv, ptr @_ZNK7openvdb5v11_04math8ScaleMap15hasUniformScaleEv, ptr @_ZNK7openvdb5v11_04math8ScaleMap8applyMapERKNS1_4Vec3IdEE, ptr @_ZNK7openvdb5v11_04math8ScaleMap15applyInverseMapERKNS1_4Vec3IdEE, ptr @_ZNK7openvdb5v11_04math8ScaleMap8applyIJTERKNS1_4Vec3IdEE, ptr @_ZNK7openvdb5v11_04math8ScaleMap8applyIJTERKNS1_4Vec3IdEES6_, ptr @_ZNK7openvdb5v11_04math8ScaleMap8applyIJCERKNS1_4Mat3IdEE, ptr @_ZNK7openvdb5v11_04math8ScaleMap8applyIJCERKNS1_4Mat3IdEERKNS1_4Vec3IdEESA_, ptr @_ZNK7openvdb5v11_04math8ScaleMap11determinantEv, ptr @_ZNK7openvdb5v11_04math8ScaleMap11determinantERKNS1_4Vec3IdEE, ptr @_ZNK7openvdb5v11_04math8ScaleMap9voxelSizeEv, ptr @_ZNK7openvdb5v11_04math8ScaleMap9voxelSizeERKNS1_4Vec3IdEE, ptr @_ZN7openvdb5v11_04math8ScaleMap4readERSi, ptr @_ZNK7openvdb5v11_04math8ScaleMap5writeERSo, ptr @_ZNK7openvdb5v11_04math8ScaleMap3strB5cxx11Ev, ptr @_ZNK7openvdb5v11_04math8ScaleMap4copyEv, ptr @_ZNK7openvdb5v11_04math8ScaleMap9preRotateEdNS1_4AxisE, ptr @_ZNK7openvdb5v11_04math8ScaleMap12preTranslateERKNS1_4Vec3IdEE, ptr @_ZNK7openvdb5v11_04math8ScaleMap8preScaleERKNS1_4Vec3IdEE, ptr @_ZNK7openvdb5v11_04math8ScaleMap8preShearEdNS1_4AxisES3_, ptr @_ZNK7openvdb5v11_04math8ScaleMap10postRotateEdNS1_4AxisE, ptr @_ZNK7openvdb5v11_04math8ScaleMap13postTranslateERKNS1_4Vec3IdEE, ptr @_ZNK7openvdb5v11_04math8ScaleMap9postScaleERKNS1_4Vec3IdEE, ptr @_ZNK7openvdb5v11_04math8ScaleMap9postShearEdNS1_4AxisES3_, ptr @_ZNK7openvdb5v11_04math8ScaleMap13applyJacobianERKNS1_4Vec3IdEE, ptr @_ZNK7openvdb5v11_04math8ScaleMap13applyJacobianERKNS1_4Vec3IdEES6_, ptr @_ZNK7openvdb5v11_04math8ScaleMap20applyInverseJacobianERKNS1_4Vec3IdEE, ptr @_ZNK7openvdb5v11_04math8ScaleMap20applyInverseJacobianERKNS1_4Vec3IdEES6_, ptr @_ZNK7openvdb5v11_04math8ScaleMap7applyJTERKNS1_4Vec3IdEE, ptr @_ZNK7openvdb5v11_04math8ScaleMap7applyJTERKNS1_4Vec3IdEES6_, ptr @_ZNK7openvdb5v11_04math8ScaleMap10inverseMapEv] }, comdat, align 8
@_ZTSN7openvdb5v11_04math8ScaleMapE = linkonce_odr constant [31 x i8] c"N7openvdb5v11_04math8ScaleMapE\00", comdat, align 1
@_ZTVN10__cxxabiv117__class_type_infoE = external global [0 x ptr]
@_ZTSN7openvdb5v11_04math7MapBaseE = linkonce_odr constant [30 x i8] c"N7openvdb5v11_04math7MapBaseE\00", comdat, align 1
@_ZTIN7openvdb5v11_04math7MapBaseE = linkonce_odr constant { ptr, ptr } { ptr getelementptr inbounds (ptr, ptr @_ZTVN10__cxxabiv117__class_type_infoE, i64 2), ptr @_ZTSN7openvdb5v11_04math7MapBaseE }, comdat, align 8
@_ZTIN7openvdb5v11_04math8ScaleMapE = linkonce_odr constant { ptr, ptr, ptr } { ptr getelementptr inbounds (ptr, ptr @_ZTVN10__cxxabiv120__si_class_type_infoE, i64 2), ptr @_ZTSN7openvdb5v11_04math8ScaleMapE, ptr @_ZTIN7openvdb5v11_04math7MapBaseE }, comdat, align 8
@_ZTVN7openvdb5v11_04math15UniformScaleMapE = linkonce_odr unnamed_addr constant { [38 x ptr] } { [38 x ptr] [ptr null, ptr @_ZTIN7openvdb5v11_04math15UniformScaleMapE, ptr @_ZN7openvdb5v11_04math15UniformScaleMapD2Ev, ptr @_ZN7openvdb5v11_04math15UniformScaleMapD0Ev, ptr @_ZNK7openvdb5v11_04math8ScaleMap12getAffineMapEv, ptr @_ZNK7openvdb5v11_04math15UniformScaleMap4typeB5cxx11Ev, ptr @_ZNK7openvdb5v11_04math15UniformScaleMap7isEqualERKNS1_7MapBaseE, ptr @_ZNK7openvdb5v11_04math8ScaleMap8isLinearEv, ptr @_ZNK7openvdb5v11_04math8ScaleMap15hasUniformScaleEv, ptr @_ZNK7openvdb5v11_04math8ScaleMap8applyMapERKNS1_4Vec3IdEE, ptr @_ZNK7openvdb5v11_04math8ScaleMap15applyInverseMapERKNS1_4Vec3IdEE, ptr @_ZNK7openvdb5v11_04math8ScaleMap8applyIJTERKNS1_4Vec3IdEE, ptr @_ZNK7openvdb5v11_04math8ScaleMap8applyIJTERKNS1_4Vec3IdEES6_, ptr @_ZNK7openvdb5v11_04math8ScaleMap8applyIJCERKNS1_4Mat3IdEE, ptr @_ZNK7openvdb5v11_04math8ScaleMap8applyIJCERKNS1_4Mat3IdEERKNS1_4Vec3IdEESA_, ptr @_ZNK7openvdb5v11_04math8ScaleMap11determinantEv, ptr @_ZNK7openvdb5v11_04math8ScaleMap11determinantERKNS1_4Vec3IdEE, ptr @_ZNK7openvdb5v11_04math8ScaleMap9voxelSizeEv, ptr @_ZNK7openvdb5v11_04math8ScaleMap9voxelSizeERKNS1_4Vec3IdEE, ptr @_ZN7openvdb5v11_04math8ScaleMap4readERSi, ptr @_ZNK7openvdb5v11_04math8ScaleMap5writeERSo, ptr @_ZNK7openvdb5v11_04math8ScaleMap3strB5cxx11Ev, ptr @_ZNK7openvdb5v11_04math15UniformScaleMap4copyEv, ptr @_ZNK7openvdb5v11_04math8ScaleMap9preRotateEdNS1_4AxisE, ptr @_ZNK7openvdb5v11_04math15UniformScaleMap12preTranslateERKNS1_4Vec3IdEE, ptr @_ZNK7openvdb5v11_04math8ScaleMap8preScaleERKNS1_4Vec3IdEE, ptr @_ZNK7openvdb5v11_04math8ScaleMap8preShearEdNS1_4AxisES3_, ptr @_ZNK7openvdb5v11_04math8ScaleMap10postRotateEdNS1_4AxisE, ptr @_ZNK7openvdb5v11_04math15UniformScaleMap13postTranslateERKNS1_4Vec3IdEE, ptr @_ZNK7openvdb5v11_04math8ScaleMap9postScaleERKNS1_4Vec3IdEE, ptr @_ZNK7openvdb5v11_04math8ScaleMap9postShearEdNS1_4AxisES3_, ptr @_ZNK7openvdb5v11_04math8ScaleMap13applyJacobianERKNS1_4Vec3IdEE, ptr @_ZNK7openvdb5v11_04math8ScaleMap13applyJacobianERKNS1_4Vec3IdEES6_, ptr @_ZNK7openvdb5v11_04math8ScaleMap20applyInverseJacobianERKNS1_4Vec3IdEE, ptr @_ZNK7openvdb5v11_04math8ScaleMap20applyInverseJacobianERKNS1_4Vec3IdEES6_, ptr @_ZNK7openvdb5v11_04math8ScaleMap7applyJTERKNS1_4Vec3IdEE, ptr @_ZNK7openvdb5v11_04math8ScaleMap7applyJTERKNS1_4Vec3IdEES6_, ptr @_ZNK7openvdb5v11_04math15UniformScaleMap10inverseMapEv] }, comdat, align 8
@_ZTSN7openvdb5v11_04math15UniformScaleMapE = linkonce_odr constant [39 x i8] c"N7openvdb5v11_04math15UniformScaleMapE\00", comdat, align 1
@_ZTIN7openvdb5v11_04math15UniformScaleMapE = linkonce_odr constant { ptr, ptr, ptr } { ptr getelementptr inbounds (ptr, ptr @_ZTVN10__cxxabiv120__si_class_type_infoE, i64 2), ptr @_ZTSN7openvdb5v11_04math15UniformScaleMapE, ptr @_ZTIN7openvdb5v11_04math8ScaleMapE }, comdat, align 8
@_ZTVN7openvdb5v11_04math17ScaleTranslateMapE = linkonce_odr unnamed_addr constant { [38 x ptr] } { [38 x ptr] [ptr null, ptr @_ZTIN7openvdb5v11_04math17ScaleTranslateMapE, ptr @_ZN7openvdb5v11_04math17ScaleTranslateMapD2Ev, ptr @_ZN7openvdb5v11_04math17ScaleTranslateMapD0Ev, ptr @_ZNK7openvdb5v11_04math17ScaleTranslateMap12getAffineMapEv, ptr @_ZNK7openvdb5v11_04math17ScaleTranslateMap4typeB5cxx11Ev, ptr @_ZNK7openvdb5v11_04math17ScaleTranslateMap7isEqualERKNS1_7MapBaseE, ptr @_ZNK7openvdb5v11_04math17ScaleTranslateMap8isLinearEv, ptr @_ZNK7openvdb5v11_04math17ScaleTranslateMap15hasUniformScaleEv, ptr @_ZNK7openvdb5v11_04math17ScaleTranslateMap8applyMapERKNS1_4Vec3IdEE, ptr @_ZNK7openvdb5v11_04math17ScaleTranslateMap15applyInverseMapERKNS1_4Vec3IdEE, ptr @_ZNK7openvdb5v11_04math17ScaleTranslateMap8applyIJTERKNS1_4Vec3IdEE, ptr @_ZNK7openvdb5v11_04math17ScaleTranslateMap8applyIJTERKNS1_4Vec3IdEES6_, ptr @_ZNK7openvdb5v11_04math17ScaleTranslateMap8applyIJCERKNS1_4Mat3IdEE, ptr @_ZNK7openvdb5v11_04math17ScaleTranslateMap8applyIJCERKNS1_4Mat3IdEERKNS1_4Vec3IdEESA_, ptr @_ZNK7openvdb5v11_04math17ScaleTranslateMap11determinantEv, ptr @_ZNK7openvdb5v11_04math17ScaleTranslateMap11determinantERKNS1_4Vec3IdEE, ptr @_ZNK7openvdb5v11_04math17ScaleTranslateMap9voxelSizeEv, ptr @_ZNK7openvdb5v11_04math17ScaleTranslateMap9voxelSizeERKNS1_4Vec3IdEE, ptr @_ZN7openvdb5v11_04math17ScaleTranslateMap4readERSi, ptr @_ZNK7openvdb5v11_04math17ScaleTranslateMap5writeERSo, ptr @_ZNK7openvdb5v11_04math17ScaleTranslateMap3strB5cxx11Ev, ptr @_ZNK7openvdb5v11_04math17ScaleTranslateMap4copyEv, ptr @_ZNK7openvdb5v11_04math17ScaleTranslateMap9preRotateEdNS1_4AxisE, ptr @_ZNK7openvdb5v11_04math17ScaleTranslateMap12preTranslateERKNS1_4Vec3IdEE, ptr @_ZNK7openvdb5v11_04math17ScaleTranslateMap8preScaleERKNS1_4Vec3IdEE, ptr @_ZNK7openvdb5v11_04math17ScaleTranslateMap8preShearEdNS1_4AxisES3_, ptr @_ZNK7openvdb5v11_04math17ScaleTranslateMap10postRotateEdNS1_4AxisE, ptr @_ZNK7openvdb5v11_04math17ScaleTranslateMap13postTranslateERKNS1_4Vec3IdEE, ptr @_ZNK7openvdb5v11_04math17ScaleTranslateMap9postScaleERKNS1_4Vec3IdEE, ptr @_ZNK7openvdb5v11_04math17ScaleTranslateMap9postShearEdNS1_4AxisES3_, ptr @_ZNK7openvdb5v11_04math17ScaleTranslateMap13applyJacobianERKNS1_4Vec3IdEE, ptr @_ZNK7openvdb5v11_04math17ScaleTranslateMap13applyJacobianERKNS1_4Vec3IdEES6_, ptr @_ZNK7openvdb5v11_04math17ScaleTranslateMap20applyInverseJacobianERKNS1_4Vec3IdEE, ptr @_ZNK7openvdb5v11_04math17ScaleTranslateMap20applyInverseJacobianERKNS1_4Vec3IdEES6_, ptr @_ZNK7openvdb5v11_04math17ScaleTranslateMap7applyJTERKNS1_4Vec3IdEE, ptr @_ZNK7openvdb5v11_04math17ScaleTranslateMap7applyJTERKNS1_4Vec3IdEES6_, ptr @_ZNK7openvdb5v11_04math17ScaleTranslateMap10inverseMapEv] }, comdat, align 8
@_ZTSN7openvdb5v11_04math17ScaleTranslateMapE = linkonce_odr constant [41 x i8] c"N7openvdb5v11_04math17ScaleTranslateMapE\00", comdat, align 1
@_ZTIN7openvdb5v11_04math17ScaleTranslateMapE = linkonce_odr constant { ptr, ptr, ptr } { ptr getelementptr inbounds (ptr, ptr @_ZTVN10__cxxabiv120__si_class_type_infoE, i64 2), ptr @_ZTSN7openvdb5v11_04math17ScaleTranslateMapE, ptr @_ZTIN7openvdb5v11_04math7MapBaseE }, comdat, align 8
@.str.22 = private unnamed_addr constant [31 x i8] c"Non-zero scale values required\00", align 1
@_ZTSN7openvdb5v11_015ArithmeticErrorE = linkonce_odr constant [34 x i8] c"N7openvdb5v11_015ArithmeticErrorE\00", comdat, align 1
@_ZTIN7openvdb5v11_015ArithmeticErrorE = linkonce_odr constant { ptr, ptr, ptr } { ptr getelementptr inbounds (ptr, ptr @_ZTVN10__cxxabiv120__si_class_type_infoE, i64 2), ptr @_ZTSN7openvdb5v11_015ArithmeticErrorE, ptr @_ZTIN7openvdb5v11_09ExceptionE }, comdat, align 8
@.str.23 = private unnamed_addr constant [16 x i8] c"ArithmeticError\00", align 1
@_ZTVN7openvdb5v11_015ArithmeticErrorE = linkonce_odr unnamed_addr constant { [5 x ptr] } { [5 x ptr] [ptr null, ptr @_ZTIN7openvdb5v11_015ArithmeticErrorE, ptr @_ZN7openvdb5v11_015ArithmeticErrorD2Ev, ptr @_ZN7openvdb5v11_015ArithmeticErrorD0Ev, ptr @_ZNK7openvdb5v11_09Exception4whatEv] }, comdat, align 8
@_ZTVN7openvdb5v11_09ExceptionE = linkonce_odr unnamed_addr constant { [5 x ptr] } { [5 x ptr] [ptr null, ptr @_ZTIN7openvdb5v11_09ExceptionE, ptr @_ZN7openvdb5v11_09ExceptionD2Ev, ptr @_ZN7openvdb5v11_09ExceptionD0Ev, ptr @_ZNK7openvdb5v11_09Exception4whatEv] }, comdat, align 8
@.str.24 = private unnamed_addr constant [3 x i8] c": \00", align 1
@_ZTVN7openvdb5v11_04math24UniformScaleTranslateMapE = linkonce_odr unnamed_addr constant { [38 x ptr] } { [38 x ptr] [ptr null, ptr @_ZTIN7openvdb5v11_04math24UniformScaleTranslateMapE, ptr @_ZN7openvdb5v11_04math24UniformScaleTranslateMapD2Ev, ptr @_ZN7openvdb5v11_04math24UniformScaleTranslateMapD0Ev, ptr @_ZNK7openvdb5v11_04math17ScaleTranslateMap12getAffineMapEv, ptr @_ZNK7openvdb5v11_04math24UniformScaleTranslateMap4typeB5cxx11Ev, ptr @_ZNK7openvdb5v11_04math24UniformScaleTranslateMap7isEqualERKNS1_7MapBaseE, ptr @_ZNK7openvdb5v11_04math17ScaleTranslateMap8isLinearEv, ptr @_ZNK7openvdb5v11_04math17ScaleTranslateMap15hasUniformScaleEv, ptr @_ZNK7openvdb5v11_04math17ScaleTranslateMap8applyMapERKNS1_4Vec3IdEE, ptr @_ZNK7openvdb5v11_04math17ScaleTranslateMap15applyInverseMapERKNS1_4Vec3IdEE, ptr @_ZNK7openvdb5v11_04math17ScaleTranslateMap8applyIJTERKNS1_4Vec3IdEE, ptr @_ZNK7openvdb5v11_04math17ScaleTranslateMap8applyIJTERKNS1_4Vec3IdEES6_, ptr @_ZNK7openvdb5v11_04math17ScaleTranslateMap8applyIJCERKNS1_4Mat3IdEE, ptr @_ZNK7openvdb5v11_04math17ScaleTranslateMap8applyIJCERKNS1_4Mat3IdEERKNS1_4Vec3IdEESA_, ptr @_ZNK7openvdb5v11_04math17ScaleTranslateMap11determinantEv, ptr @_ZNK7openvdb5v11_04math17ScaleTranslateMap11determinantERKNS1_4Vec3IdEE, ptr @_ZNK7openvdb5v11_04math17ScaleTranslateMap9voxelSizeEv, ptr @_ZNK7openvdb5v11_04math17ScaleTranslateMap9voxelSizeERKNS1_4Vec3IdEE, ptr @_ZN7openvdb5v11_04math17ScaleTranslateMap4readERSi, ptr @_ZNK7openvdb5v11_04math17ScaleTranslateMap5writeERSo, ptr @_ZNK7openvdb5v11_04math17ScaleTranslateMap3strB5cxx11Ev, ptr @_ZNK7openvdb5v11_04math24UniformScaleTranslateMap4copyEv, ptr @_ZNK7openvdb5v11_04math17ScaleTranslateMap9preRotateEdNS1_4AxisE, ptr @_ZNK7openvdb5v11_04math24UniformScaleTranslateMap12preTranslateERKNS1_4Vec3IdEE, ptr @_ZNK7openvdb5v11_04math17ScaleTranslateMap8preScaleERKNS1_4Vec3IdEE, ptr @_ZNK7openvdb5v11_04math17ScaleTranslateMap8preShearEdNS1_4AxisES3_, ptr @_ZNK7openvdb5v11_04math17ScaleTranslateMap10postRotateEdNS1_4AxisE, ptr @_ZNK7openvdb5v11_04math24UniformScaleTranslateMap13postTranslateERKNS1_4Vec3IdEE, ptr @_ZNK7openvdb5v11_04math17ScaleTranslateMap9postScaleERKNS1_4Vec3IdEE, ptr @_ZNK7openvdb5v11_04math17ScaleTranslateMap9postShearEdNS1_4AxisES3_, ptr @_ZNK7openvdb5v11_04math17ScaleTranslateMap13applyJacobianERKNS1_4Vec3IdEE, ptr @_ZNK7openvdb5v11_04math17ScaleTranslateMap13applyJacobianERKNS1_4Vec3IdEES6_, ptr @_ZNK7openvdb5v11_04math17ScaleTranslateMap20applyInverseJacobianERKNS1_4Vec3IdEE, ptr @_ZNK7openvdb5v11_04math17ScaleTranslateMap20applyInverseJacobianERKNS1_4Vec3IdEES6_, ptr @_ZNK7openvdb5v11_04math17ScaleTranslateMap7applyJTERKNS1_4Vec3IdEE, ptr @_ZNK7openvdb5v11_04math17ScaleTranslateMap7applyJTERKNS1_4Vec3IdEES6_, ptr @_ZNK7openvdb5v11_04math24UniformScaleTranslateMap10inverseMapEv] }, comdat, align 8
@_ZTSN7openvdb5v11_04math24UniformScaleTranslateMapE = linkonce_odr constant [48 x i8] c"N7openvdb5v11_04math24UniformScaleTranslateMapE\00", comdat, align 1
@_ZTIN7openvdb5v11_04math24UniformScaleTranslateMapE = linkonce_odr constant { ptr, ptr, ptr } { ptr getelementptr inbounds (ptr, ptr @_ZTVN10__cxxabiv120__si_class_type_infoE, i64 2), ptr @_ZTSN7openvdb5v11_04math24UniformScaleTranslateMapE, ptr @_ZTIN7openvdb5v11_04math17ScaleTranslateMapE }, comdat, align 8
@.str.25 = private unnamed_addr constant [25 x i8] c"UniformScaleTranslateMap\00", align 1
@__libc_single_threaded = external local_unnamed_addr global i8, align 1
@_ZTVN7openvdb5v11_04math9AffineMapE = linkonce_odr unnamed_addr constant { [38 x ptr] } { [38 x ptr] [ptr null, ptr @_ZTIN7openvdb5v11_04math9AffineMapE, ptr @_ZN7openvdb5v11_04math9AffineMapD2Ev, ptr @_ZN7openvdb5v11_04math9AffineMapD0Ev, ptr @_ZNK7openvdb5v11_04math9AffineMap12getAffineMapEv, ptr @_ZNK7openvdb5v11_04math9AffineMap4typeB5cxx11Ev, ptr @_ZNK7openvdb5v11_04math9AffineMap7isEqualERKNS1_7MapBaseE, ptr @_ZNK7openvdb5v11_04math9AffineMap8isLinearEv, ptr @_ZNK7openvdb5v11_04math9AffineMap15hasUniformScaleEv, ptr @_ZNK7openvdb5v11_04math9AffineMap8applyMapERKNS1_4Vec3IdEE, ptr @_ZNK7openvdb5v11_04math9AffineMap15applyInverseMapERKNS1_4Vec3IdEE, ptr @_ZNK7openvdb5v11_04math9AffineMap8applyIJTERKNS1_4Vec3IdEE, ptr @_ZNK7openvdb5v11_04math9AffineMap8applyIJTERKNS1_4Vec3IdEES6_, ptr @_ZNK7openvdb5v11_04math9AffineMap8applyIJCERKNS1_4Mat3IdEE, ptr @_ZNK7openvdb5v11_04math9AffineMap8applyIJCERKNS1_4Mat3IdEERKNS1_4Vec3IdEESA_, ptr @_ZNK7openvdb5v11_04math9AffineMap11determinantEv, ptr @_ZNK7openvdb5v11_04math9AffineMap11determinantERKNS1_4Vec3IdEE, ptr @_ZNK7openvdb5v11_04math9AffineMap9voxelSizeEv, ptr @_ZNK7openvdb5v11_04math9AffineMap9voxelSizeERKNS1_4Vec3IdEE, ptr @_ZN7openvdb5v11_04math9AffineMap4readERSi, ptr @_ZNK7openvdb5v11_04math9AffineMap5writeERSo, ptr @_ZNK7openvdb5v11_04math9AffineMap3strB5cxx11Ev, ptr @_ZNK7openvdb5v11_04math9AffineMap4copyEv, ptr @_ZNK7openvdb5v11_04math9AffineMap9preRotateEdNS1_4AxisE, ptr @_ZNK7openvdb5v11_04math9AffineMap12preTranslateERKNS1_4Vec3IdEE, ptr @_ZNK7openvdb5v11_04math9AffineMap8preScaleERKNS1_4Vec3IdEE, ptr @_ZNK7openvdb5v11_04math9AffineMap8preShearEdNS1_4AxisES3_, ptr @_ZNK7openvdb5v11_04math9AffineMap10postRotateEdNS1_4AxisE, ptr @_ZNK7openvdb5v11_04math9AffineMap13postTranslateERKNS1_4Vec3IdEE, ptr @_ZNK7openvdb5v11_04math9AffineMap9postScaleERKNS1_4Vec3IdEE, ptr @_ZNK7openvdb5v11_04math9AffineMap9postShearEdNS1_4AxisES3_, ptr @_ZNK7openvdb5v11_04math9AffineMap13applyJacobianERKNS1_4Vec3IdEE, ptr @_ZNK7openvdb5v11_04math9AffineMap13applyJacobianERKNS1_4Vec3IdEES6_, ptr @_ZNK7openvdb5v11_04math9AffineMap20applyInverseJacobianERKNS1_4Vec3IdEE, ptr @_ZNK7openvdb5v11_04math9AffineMap20applyInverseJacobianERKNS1_4Vec3IdEES6_, ptr @_ZNK7openvdb5v11_04math9AffineMap7applyJTERKNS1_4Vec3IdEE, ptr @_ZNK7openvdb5v11_04math9AffineMap7applyJTERKNS1_4Vec3IdEES6_, ptr @_ZNK7openvdb5v11_04math9AffineMap10inverseMapEv] }, comdat, align 8
@.str.27 = private unnamed_addr constant [69 x i8] c"Tried to initialize an affine transform from a non-affine 4x4 matrix\00", align 1
@_ZTSN7openvdb5v11_04math9AffineMapE = linkonce_odr constant [32 x i8] c"N7openvdb5v11_04math9AffineMapE\00", comdat, align 1
@_ZTIN7openvdb5v11_04math9AffineMapE = linkonce_odr constant { ptr, ptr, ptr } { ptr getelementptr inbounds (ptr, ptr @_ZTVN10__cxxabiv120__si_class_type_infoE, i64 2), ptr @_ZTSN7openvdb5v11_04math9AffineMapE, ptr @_ZTIN7openvdb5v11_04math7MapBaseE }, comdat, align 8
@.str.28 = private unnamed_addr constant [70 x i8] c"Tried to initialize an affine transform from a nearly singular matrix\00", align 1
@.str.29 = private unnamed_addr constant [33 x i8] c"Inversion of singular 4x4 matrix\00", align 1
@.str.30 = private unnamed_addr constant [33 x i8] c"Inversion of singular 3x3 matrix\00", align 1
@.str.31 = private unnamed_addr constant [10 x i8] c"AffineMap\00", align 1
@_ZZN7openvdb5v11_04math4Mat3IdE8identityEvE9sIdentity = linkonce_odr local_unnamed_addr global %"class.openvdb::v11_0::math::Mat3" zeroinitializer, comdat, align 8
@_ZGVZN7openvdb5v11_04math4Mat3IdE8identityEvE9sIdentity = linkonce_odr global i64 0, comdat, align 8
@.str.32 = private unnamed_addr constant [10 x i8] c" - mat4:\0A\00", align 1
@.str.33 = private unnamed_addr constant [22 x i8] c" - voxel dimensions: \00", align 1
@.str.34 = private unnamed_addr constant [2 x i8] c"[\00", align 1
@.str.35 = private unnamed_addr constant [3 x i8] c",\0A\00", align 1
@.str.36 = private unnamed_addr constant [3 x i8] c"%f\00", align 1
@_ZTVN7openvdb5v11_04math19NonlinearFrustumMapE = linkonce_odr unnamed_addr constant { [38 x ptr] } { [38 x ptr] [ptr null, ptr @_ZTIN7openvdb5v11_04math19NonlinearFrustumMapE, ptr @_ZN7openvdb5v11_04math19NonlinearFrustumMapD2Ev, ptr @_ZN7openvdb5v11_04math19NonlinearFrustumMapD0Ev, ptr @_ZNK7openvdb5v11_04math19NonlinearFrustumMap12getAffineMapEv, ptr @_ZNK7openvdb5v11_04math19NonlinearFrustumMap4typeB5cxx11Ev, ptr @_ZNK7openvdb5v11_04math19NonlinearFrustumMap7isEqualERKNS1_7MapBaseE, ptr @_ZNK7openvdb5v11_04math19NonlinearFrustumMap8isLinearEv, ptr @_ZNK7openvdb5v11_04math19NonlinearFrustumMap15hasUniformScaleEv, ptr @_ZNK7openvdb5v11_04math19NonlinearFrustumMap8applyMapERKNS1_4Vec3IdEE, ptr @_ZNK7openvdb5v11_04math19NonlinearFrustumMap15applyInverseMapERKNS1_4Vec3IdEE, ptr @_ZNK7openvdb5v11_04math19NonlinearFrustumMap8applyIJTERKNS1_4Vec3IdEE, ptr @_ZNK7openvdb5v11_04math19NonlinearFrustumMap8applyIJTERKNS1_4Vec3IdEES6_, ptr @_ZNK7openvdb5v11_04math19NonlinearFrustumMap8applyIJCERKNS1_4Mat3IdEE, ptr @_ZNK7openvdb5v11_04math19NonlinearFrustumMap8applyIJCERKNS1_4Mat3IdEERKNS1_4Vec3IdEESA_, ptr @_ZNK7openvdb5v11_04math19NonlinearFrustumMap11determinantEv, ptr @_ZNK7openvdb5v11_04math19NonlinearFrustumMap11determinantERKNS1_4Vec3IdEE, ptr @_ZNK7openvdb5v11_04math19NonlinearFrustumMap9voxelSizeEv, ptr @_ZNK7openvdb5v11_04math19NonlinearFrustumMap9voxelSizeERKNS1_4Vec3IdEE, ptr @_ZN7openvdb5v11_04math19NonlinearFrustumMap4readERSi, ptr @_ZNK7openvdb5v11_04math19NonlinearFrustumMap5writeERSo, ptr @_ZNK7openvdb5v11_04math19NonlinearFrustumMap3strB5cxx11Ev, ptr @_ZNK7openvdb5v11_04math19NonlinearFrustumMap4copyEv, ptr @_ZNK7openvdb5v11_04math19NonlinearFrustumMap9preRotateEdNS1_4AxisE, ptr @_ZNK7openvdb5v11_04math19NonlinearFrustumMap12preTranslateERKNS1_4Vec3IdEE, ptr @_ZNK7openvdb5v11_04math19NonlinearFrustumMap8preScaleERKNS1_4Vec3IdEE, ptr @_ZNK7openvdb5v11_04math19NonlinearFrustumMap8preShearEdNS1_4AxisES3_, ptr @_ZNK7openvdb5v11_04math19NonlinearFrustumMap10postRotateEdNS1_4AxisE, ptr @_ZNK7openvdb5v11_04math19NonlinearFrustumMap13postTranslateERKNS1_4Vec3IdEE, ptr @_ZNK7openvdb5v11_04math19NonlinearFrustumMap9postScaleERKNS1_4Vec3IdEE, ptr @_ZNK7openvdb5v11_04math19NonlinearFrustumMap9postShearEdNS1_4AxisES3_, ptr @_ZNK7openvdb5v11_04math19NonlinearFrustumMap13applyJacobianERKNS1_4Vec3IdEE, ptr @_ZNK7openvdb5v11_04math19NonlinearFrustumMap13applyJacobianERKNS1_4Vec3IdEES6_, ptr @_ZNK7openvdb5v11_04math19NonlinearFrustumMap20applyInverseJacobianERKNS1_4Vec3IdEE, ptr @_ZNK7openvdb5v11_04math19NonlinearFrustumMap20applyInverseJacobianERKNS1_4Vec3IdEES6_, ptr @_ZNK7openvdb5v11_04math19NonlinearFrustumMap7applyJTERKNS1_4Vec3IdEE, ptr @_ZNK7openvdb5v11_04math19NonlinearFrustumMap7applyJTERKNS1_4Vec3IdEES6_, ptr @_ZNK7openvdb5v11_04math19NonlinearFrustumMap10inverseMapEv] }, comdat, align 8
@_ZTSN7openvdb5v11_04math19NonlinearFrustumMapE = linkonce_odr constant [43 x i8] c"N7openvdb5v11_04math19NonlinearFrustumMapE\00", comdat, align 1
@_ZTIN7openvdb5v11_04math19NonlinearFrustumMapE = linkonce_odr constant { ptr, ptr, ptr } { ptr getelementptr inbounds (ptr, ptr @_ZTVN10__cxxabiv120__si_class_type_infoE, i64 2), ptr @_ZTSN7openvdb5v11_04math19NonlinearFrustumMapE, ptr @_ZTIN7openvdb5v11_04math7MapBaseE }, comdat, align 8
@.str.37 = private unnamed_addr constant [84 x i8] c"The index space bounding box must have at least two index points in each direction.\00", align 1
@.str.38 = private unnamed_addr constant [82 x i8] c"Tried to evaluate the frustum transform at the singular focal point (e.g. camera)\00", align 1
@_ZZN7openvdb5v11_04math4Mat3IdE4zeroEvE5sZero = linkonce_odr local_unnamed_addr global %"class.openvdb::v11_0::math::Mat3" zeroinitializer, comdat, align 8
@_ZGVZN7openvdb5v11_04math4Mat3IdE4zeroEvE5sZero = linkonce_odr global i64 0, comdat, align 8
@.str.39 = private unnamed_addr constant [11 x i8] c" - taper: \00", align 1
@.str.40 = private unnamed_addr constant [11 x i8] c" - depth: \00", align 1
@.str.41 = private unnamed_addr constant [13 x i8] c" SecondMap: \00", align 1
@.str.42 = private unnamed_addr constant [56 x i8] c"inverseMap() is not implemented for NonlinearFrustumMap\00", align 1
@_ZTSN7openvdb5v11_019NotImplementedErrorE = linkonce_odr constant [38 x i8] c"N7openvdb5v11_019NotImplementedErrorE\00", comdat, align 1
@_ZTIN7openvdb5v11_019NotImplementedErrorE = linkonce_odr constant { ptr, ptr, ptr } { ptr getelementptr inbounds (ptr, ptr @_ZTVN10__cxxabiv120__si_class_type_infoE, i64 2), ptr @_ZTSN7openvdb5v11_019NotImplementedErrorE, ptr @_ZTIN7openvdb5v11_09ExceptionE }, comdat, align 8
@.str.43 = private unnamed_addr constant [20 x i8] c"NotImplementedError\00", align 1
@_ZTVN7openvdb5v11_019NotImplementedErrorE = linkonce_odr unnamed_addr constant { [5 x ptr] } { [5 x ptr] [ptr null, ptr @_ZTIN7openvdb5v11_019NotImplementedErrorE, ptr @_ZN7openvdb5v11_019NotImplementedErrorD2Ev, ptr @_ZN7openvdb5v11_019NotImplementedErrorD0Ev, ptr @_ZNK7openvdb5v11_09Exception4whatEv] }, comdat, align 8
@.str.44 = private unnamed_addr constant [55 x i8] c"The second map in the Frustum transfrom must be linear\00", align 1
@.str.45 = private unnamed_addr constant [8 x i8] c"IoError\00", align 1
@_ZTVN7openvdb5v11_07IoErrorE = linkonce_odr unnamed_addr constant { [5 x ptr] } { [5 x ptr] [ptr null, ptr @_ZTIN7openvdb5v11_07IoErrorE, ptr @_ZN7openvdb5v11_07IoErrorD2Ev, ptr @_ZN7openvdb5v11_07IoErrorD0Ev, ptr @_ZNK7openvdb5v11_09Exception4whatEv] }, comdat, align 8
@.str.46 = private unnamed_addr constant [9 x i8] c"KeyError\00", align 1
@_ZTVN7openvdb5v11_08KeyErrorE = linkonce_odr unnamed_addr constant { [5 x ptr] } { [5 x ptr] [ptr null, ptr @_ZTIN7openvdb5v11_08KeyErrorE, ptr @_ZN7openvdb5v11_08KeyErrorD2Ev, ptr @_ZN7openvdb5v11_08KeyErrorD0Ev, ptr @_ZNK7openvdb5v11_09Exception4whatEv] }, comdat, align 8
@.str.47 = private unnamed_addr constant [3 x i8] c"] \00", align 1
@.str.48 = private unnamed_addr constant [20 x i8] c"NonlinearFrustumMap\00", align 1
@.str.49 = private unnamed_addr constant [9 x i8] c"ScaleMap\00", align 1
@.str.50 = private unnamed_addr constant [11 x i8] c" - scale: \00", align 1
@_ZTVSt15_Sp_counted_ptrIPN7openvdb5v11_04math8ScaleMapELN9__gnu_cxx12_Lock_policyE2EE = linkonce_odr unnamed_addr constant { [7 x ptr] } { [7 x ptr] [ptr null, ptr @_ZTISt15_Sp_counted_ptrIPN7openvdb5v11_04math8ScaleMapELN9__gnu_cxx12_Lock_policyE2EE, ptr @_ZNSt15_Sp_counted_ptrIPN7openvdb5v11_04math8ScaleMapELN9__gnu_cxx12_Lock_policyE2EED2Ev, ptr @_ZNSt15_Sp_counted_ptrIPN7openvdb5v11_04math8ScaleMapELN9__gnu_cxx12_Lock_policyE2EED0Ev, ptr @_ZNSt15_Sp_counted_ptrIPN7openvdb5v11_04math8ScaleMapELN9__gnu_cxx12_Lock_policyE2EE10_M_disposeEv, ptr @_ZNSt15_Sp_counted_ptrIPN7openvdb5v11_04math8ScaleMapELN9__gnu_cxx12_Lock_policyE2EE10_M_destroyEv, ptr @_ZNSt15_Sp_counted_ptrIPN7openvdb5v11_04math8ScaleMapELN9__gnu_cxx12_Lock_policyE2EE14_M_get_deleterERKSt9type_info] }, comdat, align 8
@_ZTSSt15_Sp_counted_ptrIPN7openvdb5v11_04math8ScaleMapELN9__gnu_cxx12_Lock_policyE2EE = linkonce_odr constant [82 x i8] c"St15_Sp_counted_ptrIPN7openvdb5v11_04math8ScaleMapELN9__gnu_cxx12_Lock_policyE2EE\00", comdat, align 1
@_ZTSSt16_Sp_counted_baseILN9__gnu_cxx12_Lock_policyE2EE = linkonce_odr constant [52 x i8] c"St16_Sp_counted_baseILN9__gnu_cxx12_Lock_policyE2EE\00", comdat, align 1
@_ZTSSt11_Mutex_baseILN9__gnu_cxx12_Lock_policyE2EE = linkonce_odr constant [47 x i8] c"St11_Mutex_baseILN9__gnu_cxx12_Lock_policyE2EE\00", comdat, align 1
@_ZTISt11_Mutex_baseILN9__gnu_cxx12_Lock_policyE2EE = linkonce_odr constant { ptr, ptr } { ptr getelementptr inbounds (ptr, ptr @_ZTVN10__cxxabiv117__class_type_infoE, i64 2), ptr @_ZTSSt11_Mutex_baseILN9__gnu_cxx12_Lock_policyE2EE }, comdat, align 8
@_ZTISt16_Sp_counted_baseILN9__gnu_cxx12_Lock_policyE2EE = linkonce_odr constant { ptr, ptr, ptr } { ptr getelementptr inbounds (ptr, ptr @_ZTVN10__cxxabiv120__si_class_type_infoE, i64 2), ptr @_ZTSSt16_Sp_counted_baseILN9__gnu_cxx12_Lock_policyE2EE, ptr @_ZTISt11_Mutex_baseILN9__gnu_cxx12_Lock_policyE2EE }, comdat, align 8
@_ZTISt15_Sp_counted_ptrIPN7openvdb5v11_04math8ScaleMapELN9__gnu_cxx12_Lock_policyE2EE = linkonce_odr constant { ptr, ptr, ptr } { ptr getelementptr inbounds (ptr, ptr @_ZTVN10__cxxabiv120__si_class_type_infoE, i64 2), ptr @_ZTSSt15_Sp_counted_ptrIPN7openvdb5v11_04math8ScaleMapELN9__gnu_cxx12_Lock_policyE2EE, ptr @_ZTISt16_Sp_counted_baseILN9__gnu_cxx12_Lock_policyE2EE }, comdat, align 8
@.str.51 = private unnamed_addr constant [16 x i8] c"UniformScaleMap\00", align 1
@.str.53 = private unnamed_addr constant [17 x i8] c" - translation: \00", align 1
@.str.54 = private unnamed_addr constant [18 x i8] c"ScaleTranslateMap\00", align 1
@_ZZN7openvdb5v11_04math4Mat4IdE8identityEvE9sIdentity = linkonce_odr local_unnamed_addr global %"class.openvdb::v11_0::math::Mat4" zeroinitializer, comdat, align 8
@_ZGVZN7openvdb5v11_04math4Mat4IdE8identityEvE9sIdentity = linkonce_odr global i64 0, comdat, align 8
@_ZTVSt15_Sp_counted_ptrIPN7openvdb5v11_04math9AffineMapELN9__gnu_cxx12_Lock_policyE2EE = linkonce_odr unnamed_addr constant { [7 x ptr] } { [7 x ptr] [ptr null, ptr @_ZTISt15_Sp_counted_ptrIPN7openvdb5v11_04math9AffineMapELN9__gnu_cxx12_Lock_policyE2EE, ptr @_ZNSt15_Sp_counted_ptrIPN7openvdb5v11_04math9AffineMapELN9__gnu_cxx12_Lock_policyE2EED2Ev, ptr @_ZNSt15_Sp_counted_ptrIPN7openvdb5v11_04math9AffineMapELN9__gnu_cxx12_Lock_policyE2EED0Ev, ptr @_ZNSt15_Sp_counted_ptrIPN7openvdb5v11_04math9AffineMapELN9__gnu_cxx12_Lock_policyE2EE10_M_disposeEv, ptr @_ZNSt15_Sp_counted_ptrIPN7openvdb5v11_04math9AffineMapELN9__gnu_cxx12_Lock_policyE2EE10_M_destroyEv, ptr @_ZNSt15_Sp_counted_ptrIPN7openvdb5v11_04math9AffineMapELN9__gnu_cxx12_Lock_policyE2EE14_M_get_deleterERKSt9type_info] }, comdat, align 8
@_ZTSSt15_Sp_counted_ptrIPN7openvdb5v11_04math9AffineMapELN9__gnu_cxx12_Lock_policyE2EE = linkonce_odr constant [83 x i8] c"St15_Sp_counted_ptrIPN7openvdb5v11_04math9AffineMapELN9__gnu_cxx12_Lock_policyE2EE\00", comdat, align 1
@_ZTISt15_Sp_counted_ptrIPN7openvdb5v11_04math9AffineMapELN9__gnu_cxx12_Lock_policyE2EE = linkonce_odr constant { ptr, ptr, ptr } { ptr getelementptr inbounds (ptr, ptr @_ZTVN10__cxxabiv120__si_class_type_infoE, i64 2), ptr @_ZTSSt15_Sp_counted_ptrIPN7openvdb5v11_04math9AffineMapELN9__gnu_cxx12_Lock_policyE2EE, ptr @_ZTISt16_Sp_counted_baseILN9__gnu_cxx12_Lock_policyE2EE }, comdat, align 8
@_ZTVSt15_Sp_counted_ptrIPN7openvdb5v11_04math15UniformScaleMapELN9__gnu_cxx12_Lock_policyE2EE = linkonce_odr unnamed_addr constant { [7 x ptr] } { [7 x ptr] [ptr null, ptr @_ZTISt15_Sp_counted_ptrIPN7openvdb5v11_04math15UniformScaleMapELN9__gnu_cxx12_Lock_policyE2EE, ptr @_ZNSt15_Sp_counted_ptrIPN7openvdb5v11_04math15UniformScaleMapELN9__gnu_cxx12_Lock_policyE2EED2Ev, ptr @_ZNSt15_Sp_counted_ptrIPN7openvdb5v11_04math15UniformScaleMapELN9__gnu_cxx12_Lock_policyE2EED0Ev, ptr @_ZNSt15_Sp_counted_ptrIPN7openvdb5v11_04math15UniformScaleMapELN9__gnu_cxx12_Lock_policyE2EE10_M_disposeEv, ptr @_ZNSt15_Sp_counted_ptrIPN7openvdb5v11_04math15UniformScaleMapELN9__gnu_cxx12_Lock_policyE2EE10_M_destroyEv, ptr @_ZNSt15_Sp_counted_ptrIPN7openvdb5v11_04math15UniformScaleMapELN9__gnu_cxx12_Lock_policyE2EE14_M_get_deleterERKSt9type_info] }, comdat, align 8
@_ZTSSt15_Sp_counted_ptrIPN7openvdb5v11_04math15UniformScaleMapELN9__gnu_cxx12_Lock_policyE2EE = linkonce_odr constant [90 x i8] c"St15_Sp_counted_ptrIPN7openvdb5v11_04math15UniformScaleMapELN9__gnu_cxx12_Lock_policyE2EE\00", comdat, align 1
@_ZTISt15_Sp_counted_ptrIPN7openvdb5v11_04math15UniformScaleMapELN9__gnu_cxx12_Lock_policyE2EE = linkonce_odr constant { ptr, ptr, ptr } { ptr getelementptr inbounds (ptr, ptr @_ZTVN10__cxxabiv120__si_class_type_infoE, i64 2), ptr @_ZTSSt15_Sp_counted_ptrIPN7openvdb5v11_04math15UniformScaleMapELN9__gnu_cxx12_Lock_policyE2EE, ptr @_ZTISt16_Sp_counted_baseILN9__gnu_cxx12_Lock_policyE2EE }, comdat, align 8
@_ZTVSt15_Sp_counted_ptrIPN7openvdb5v11_04math17ScaleTranslateMapELN9__gnu_cxx12_Lock_policyE2EE = linkonce_odr unnamed_addr constant { [7 x ptr] } { [7 x ptr] [ptr null, ptr @_ZTISt15_Sp_counted_ptrIPN7openvdb5v11_04math17ScaleTranslateMapELN9__gnu_cxx12_Lock_policyE2EE, ptr @_ZNSt15_Sp_counted_ptrIPN7openvdb5v11_04math17ScaleTranslateMapELN9__gnu_cxx12_Lock_policyE2EED2Ev, ptr @_ZNSt15_Sp_counted_ptrIPN7openvdb5v11_04math17ScaleTranslateMapELN9__gnu_cxx12_Lock_policyE2EED0Ev, ptr @_ZNSt15_Sp_counted_ptrIPN7openvdb5v11_04math17ScaleTranslateMapELN9__gnu_cxx12_Lock_policyE2EE10_M_disposeEv, ptr @_ZNSt15_Sp_counted_ptrIPN7openvdb5v11_04math17ScaleTranslateMapELN9__gnu_cxx12_Lock_policyE2EE10_M_destroyEv, ptr @_ZNSt15_Sp_counted_ptrIPN7openvdb5v11_04math17ScaleTranslateMapELN9__gnu_cxx12_Lock_policyE2EE14_M_get_deleterERKSt9type_info] }, comdat, align 8
@_ZTSSt15_Sp_counted_ptrIPN7openvdb5v11_04math17ScaleTranslateMapELN9__gnu_cxx12_Lock_policyE2EE = linkonce_odr constant [92 x i8] c"St15_Sp_counted_ptrIPN7openvdb5v11_04math17ScaleTranslateMapELN9__gnu_cxx12_Lock_policyE2EE\00", comdat, align 1
@_ZTISt15_Sp_counted_ptrIPN7openvdb5v11_04math17ScaleTranslateMapELN9__gnu_cxx12_Lock_policyE2EE = linkonce_odr constant { ptr, ptr, ptr } { ptr getelementptr inbounds (ptr, ptr @_ZTVN10__cxxabiv120__si_class_type_infoE, i64 2), ptr @_ZTSSt15_Sp_counted_ptrIPN7openvdb5v11_04math17ScaleTranslateMapELN9__gnu_cxx12_Lock_policyE2EE, ptr @_ZTISt16_Sp_counted_baseILN9__gnu_cxx12_Lock_policyE2EE }, comdat, align 8
@_ZTVSt15_Sp_counted_ptrIPN7openvdb5v11_04math24UniformScaleTranslateMapELN9__gnu_cxx12_Lock_policyE2EE = linkonce_odr unnamed_addr constant { [7 x ptr] } { [7 x ptr] [ptr null, ptr @_ZTISt15_Sp_counted_ptrIPN7openvdb5v11_04math24UniformScaleTranslateMapELN9__gnu_cxx12_Lock_policyE2EE, ptr @_ZNSt15_Sp_counted_ptrIPN7openvdb5v11_04math24UniformScaleTranslateMapELN9__gnu_cxx12_Lock_policyE2EED2Ev, ptr @_ZNSt15_Sp_counted_ptrIPN7openvdb5v11_04math24UniformScaleTranslateMapELN9__gnu_cxx12_Lock_policyE2EED0Ev, ptr @_ZNSt15_Sp_counted_ptrIPN7openvdb5v11_04math24UniformScaleTranslateMapELN9__gnu_cxx12_Lock_policyE2EE10_M_disposeEv, ptr @_ZNSt15_Sp_counted_ptrIPN7openvdb5v11_04math24UniformScaleTranslateMapELN9__gnu_cxx12_Lock_policyE2EE10_M_destroyEv, ptr @_ZNSt15_Sp_counted_ptrIPN7openvdb5v11_04math24UniformScaleTranslateMapELN9__gnu_cxx12_Lock_policyE2EE14_M_get_deleterERKSt9type_info] }, comdat, align 8
@_ZTSSt15_Sp_counted_ptrIPN7openvdb5v11_04math24UniformScaleTranslateMapELN9__gnu_cxx12_Lock_policyE2EE = linkonce_odr constant [99 x i8] c"St15_Sp_counted_ptrIPN7openvdb5v11_04math24UniformScaleTranslateMapELN9__gnu_cxx12_Lock_policyE2EE\00", comdat, align 1
@_ZTISt15_Sp_counted_ptrIPN7openvdb5v11_04math24UniformScaleTranslateMapELN9__gnu_cxx12_Lock_policyE2EE = linkonce_odr constant { ptr, ptr, ptr } { ptr getelementptr inbounds (ptr, ptr @_ZTVN10__cxxabiv120__si_class_type_infoE, i64 2), ptr @_ZTSSt15_Sp_counted_ptrIPN7openvdb5v11_04math24UniformScaleTranslateMapELN9__gnu_cxx12_Lock_policyE2EE, ptr @_ZTISt16_Sp_counted_baseILN9__gnu_cxx12_Lock_policyE2EE }, comdat, align 8
@_ZTVSt15_Sp_counted_ptrIPN7openvdb5v11_04math19NonlinearFrustumMapELN9__gnu_cxx12_Lock_policyE2EE = linkonce_odr unnamed_addr constant { [7 x ptr] } { [7 x ptr] [ptr null, ptr @_ZTISt15_Sp_counted_ptrIPN7openvdb5v11_04math19NonlinearFrustumMapELN9__gnu_cxx12_Lock_policyE2EE, ptr @_ZNSt15_Sp_counted_ptrIPN7openvdb5v11_04math19NonlinearFrustumMapELN9__gnu_cxx12_Lock_policyE2EED2Ev, ptr @_ZNSt15_Sp_counted_ptrIPN7openvdb5v11_04math19NonlinearFrustumMapELN9__gnu_cxx12_Lock_policyE2EED0Ev, ptr @_ZNSt15_Sp_counted_ptrIPN7openvdb5v11_04math19NonlinearFrustumMapELN9__gnu_cxx12_Lock_policyE2EE10_M_disposeEv, ptr @_ZNSt15_Sp_counted_ptrIPN7openvdb5v11_04math19NonlinearFrustumMapELN9__gnu_cxx12_Lock_policyE2EE10_M_destroyEv, ptr @_ZNSt15_Sp_counted_ptrIPN7openvdb5v11_04math19NonlinearFrustumMapELN9__gnu_cxx12_Lock_policyE2EE14_M_get_deleterERKSt9type_info] }, comdat, align 8
@_ZTSSt15_Sp_counted_ptrIPN7openvdb5v11_04math19NonlinearFrustumMapELN9__gnu_cxx12_Lock_policyE2EE = linkonce_odr constant [94 x i8] c"St15_Sp_counted_ptrIPN7openvdb5v11_04math19NonlinearFrustumMapELN9__gnu_cxx12_Lock_policyE2EE\00", comdat, align 1
@_ZTISt15_Sp_counted_ptrIPN7openvdb5v11_04math19NonlinearFrustumMapELN9__gnu_cxx12_Lock_policyE2EE = linkonce_odr constant { ptr, ptr, ptr } { ptr getelementptr inbounds (ptr, ptr @_ZTVN10__cxxabiv120__si_class_type_infoE, i64 2), ptr @_ZTSSt15_Sp_counted_ptrIPN7openvdb5v11_04math19NonlinearFrustumMapELN9__gnu_cxx12_Lock_policyE2EE, ptr @_ZTISt16_Sp_counted_baseILN9__gnu_cxx12_Lock_policyE2EE }, comdat, align 8
@_ZTVSt15_Sp_counted_ptrIPN7openvdb5v11_04math9TransformELN9__gnu_cxx12_Lock_policyE2EE = linkonce_odr unnamed_addr constant { [7 x ptr] } { [7 x ptr] [ptr null, ptr @_ZTISt15_Sp_counted_ptrIPN7openvdb5v11_04math9TransformELN9__gnu_cxx12_Lock_policyE2EE, ptr @_ZNSt15_Sp_counted_ptrIPN7openvdb5v11_04math9TransformELN9__gnu_cxx12_Lock_policyE2EED2Ev, ptr @_ZNSt15_Sp_counted_ptrIPN7openvdb5v11_04math9TransformELN9__gnu_cxx12_Lock_policyE2EED0Ev, ptr @_ZNSt15_Sp_counted_ptrIPN7openvdb5v11_04math9TransformELN9__gnu_cxx12_Lock_policyE2EE10_M_disposeEv, ptr @_ZNSt15_Sp_counted_ptrIPN7openvdb5v11_04math9TransformELN9__gnu_cxx12_Lock_policyE2EE10_M_destroyEv, ptr @_ZNSt15_Sp_counted_ptrIPN7openvdb5v11_04math9TransformELN9__gnu_cxx12_Lock_policyE2EE14_M_get_deleterERKSt9type_info] }, comdat, align 8
@_ZTSSt15_Sp_counted_ptrIPN7openvdb5v11_04math9TransformELN9__gnu_cxx12_Lock_policyE2EE = linkonce_odr constant [83 x i8] c"St15_Sp_counted_ptrIPN7openvdb5v11_04math9TransformELN9__gnu_cxx12_Lock_policyE2EE\00", comdat, align 1
@_ZTISt15_Sp_counted_ptrIPN7openvdb5v11_04math9TransformELN9__gnu_cxx12_Lock_policyE2EE = linkonce_odr constant { ptr, ptr, ptr } { ptr getelementptr inbounds (ptr, ptr @_ZTVN10__cxxabiv120__si_class_type_infoE, i64 2), ptr @_ZTSSt15_Sp_counted_ptrIPN7openvdb5v11_04math9TransformELN9__gnu_cxx12_Lock_policyE2EE, ptr @_ZTISt16_Sp_counted_baseILN9__gnu_cxx12_Lock_policyE2EE }, comdat, align 8
@.str.55 = private unnamed_addr constant [26 x i8] c"vector::_M_realloc_insert\00", align 1
@.str.56 = private unnamed_addr constant [5 x i8] c" -> \00", align 1
@llvm.global_ctors = appending global [1 x { i32, ptr, ptr }] [{ i32, ptr, ptr } { i32 65535, ptr @_GLOBAL__sub_I_Transform.cc, ptr null }]

@_ZN7openvdb5v11_04math9TransformC1ERKSt10shared_ptrINS1_7MapBaseEE = unnamed_addr alias void (ptr, ptr), ptr @_ZN7openvdb5v11_04math9TransformC2ERKSt10shared_ptrINS1_7MapBaseEE
@_ZN7openvdb5v11_04math9TransformC1ERKS2_ = unnamed_addr alias void (ptr, ptr), ptr @_ZN7openvdb5v11_04math9TransformC2ERKS2_

declare void @_ZNSt8ios_base4InitC1Ev(ptr noundef nonnull align 1 dereferenceable(1)) unnamed_addr #0

; Function Attrs: nounwind
declare void @_ZNSt8ios_base4InitD1Ev(ptr noundef nonnull align 1 dereferenceable(1)) unnamed_addr #1

; Function Attrs: nofree nounwind
declare i32 @__cxa_atexit(ptr, ptr, ptr) local_unnamed_addr #2

; Function Attrs: mustprogress uwtable
define linkonce_odr void @_ZNK7openvdb5v11_04math8ScaleMap12preTranslateERKNS1_4Vec3IdEE(ptr noalias sret(%"class.std::shared_ptr") align 8 %agg.result, ptr noundef nonnull align 8 dereferenceable(128) %this, ptr noundef nonnull align 8 dereferenceable(24) %t) unnamed_addr #3 comdat align 2 personality ptr @__gxx_personality_v0 {
entry:
  %scaled_trans = alloca %"class.openvdb::v11_0::math::Vec3", align 16
  %mScaleValues = getelementptr inbounds %"class.openvdb::v11_0::math::ScaleMap", ptr %this, i64 0, i32 1
  %arrayidx.i6 = getelementptr inbounds [3 x double], ptr %t, i64 0, i64 2
  %0 = load double, ptr %arrayidx.i6, align 8
  %arrayidx.i7 = getelementptr inbounds %"class.openvdb::v11_0::math::ScaleMap", ptr %this, i64 0, i32 1, i32 0, i32 0, i64 2
  %1 = load double, ptr %arrayidx.i7, align 8
  %mul8 = fmul double %0, %1
  %2 = load <2 x double>, ptr %t, align 8
  %3 = load <2 x double>, ptr %mScaleValues, align 8
  %4 = fmul <2 x double> %2, %3
  store <2 x double> %4, ptr %scaled_trans, align 16
  %arrayidx5.i = getelementptr inbounds [3 x double], ptr %scaled_trans, i64 0, i64 2
  store double %mul8, ptr %arrayidx5.i, align 16
  %call9 = tail call noalias noundef nonnull dereferenceable(152) ptr @_Znwm(i64 noundef 152) #22
  invoke void @_ZN7openvdb5v11_04math17ScaleTranslateMapC2ERKNS1_4Vec3IdEES6_(ptr noundef nonnull align 8 dereferenceable(152) %call9, ptr noundef nonnull align 8 dereferenceable(24) %mScaleValues, ptr noundef nonnull align 8 dereferenceable(24) %scaled_trans)
          to label %invoke.cont unwind label %lpad

invoke.cont:                                      ; preds = %entry
  store ptr %call9, ptr %agg.result, align 8
  %_M_refcount.i.i = getelementptr inbounds %"class.std::__shared_ptr", ptr %agg.result, i64 0, i32 1
  store ptr null, ptr %_M_refcount.i.i, align 8
  %call.i.i.i.i = invoke noalias noundef nonnull dereferenceable(24) ptr @_Znwm(i64 noundef 24) #22
          to label %_ZNSt10shared_ptrIN7openvdb5v11_04math7MapBaseEEC2INS2_17ScaleTranslateMapEvEEPT_.exit unwind label %lpad.i.i.i.i

lpad.i.i.i.i:                                     ; preds = %invoke.cont
  %5 = landingpad { ptr, i32 }
          catch ptr null
  %6 = extractvalue { ptr, i32 } %5, 0
  %7 = call ptr @__cxa_begin_catch(ptr %6) #23
  %vtable.i.i.i.i = load ptr, ptr %call9, align 8
  %vfn.i.i.i.i = getelementptr inbounds ptr, ptr %vtable.i.i.i.i, i64 1
  %8 = load ptr, ptr %vfn.i.i.i.i, align 8
  call void %8(ptr noundef nonnull align 8 dereferenceable(152) %call9) #23
  invoke void @__cxa_rethrow() #24
          to label %unreachable.i.i.i.i unwind label %lpad3.i.i.i.i

lpad3.i.i.i.i:                                    ; preds = %lpad.i.i.i.i
  %9 = landingpad { ptr, i32 }
          cleanup
  invoke void @__cxa_end_catch()
          to label %common.resume unwind label %terminate.lpad.i.i.i.i

common.resume:                                    ; preds = %lpad3.i.i.i.i, %lpad
  %common.resume.op = phi { ptr, i32 } [ %12, %lpad ], [ %9, %lpad3.i.i.i.i ]
  resume { ptr, i32 } %common.resume.op

terminate.lpad.i.i.i.i:                           ; preds = %lpad3.i.i.i.i
  %10 = landingpad { ptr, i32 }
          catch ptr null
  %11 = extractvalue { ptr, i32 } %10, 0
  call void @__clang_call_terminate(ptr %11) #25
  unreachable

unreachable.i.i.i.i:                              ; preds = %lpad.i.i.i.i
  unreachable

_ZNSt10shared_ptrIN7openvdb5v11_04math7MapBaseEEC2INS2_17ScaleTranslateMapEvEEPT_.exit: ; preds = %invoke.cont
  %_M_use_count.i.i.i.i.i.i = getelementptr inbounds %"class.std::_Sp_counted_base", ptr %call.i.i.i.i, i64 0, i32 1
  store i32 1, ptr %_M_use_count.i.i.i.i.i.i, align 8
  %_M_weak_count.i.i.i.i.i.i = getelementptr inbounds %"class.std::_Sp_counted_base", ptr %call.i.i.i.i, i64 0, i32 2
  store i32 1, ptr %_M_weak_count.i.i.i.i.i.i, align 4
  store ptr getelementptr inbounds ({ [7 x ptr] }, ptr @_ZTVSt15_Sp_counted_ptrIPN7openvdb5v11_04math17ScaleTranslateMapELN9__gnu_cxx12_Lock_policyE2EE, i64 0, inrange i32 0, i64 2), ptr %call.i.i.i.i, align 8
  %_M_ptr.i.i.i.i.i = getelementptr inbounds %"class.std::_Sp_counted_ptr.23", ptr %call.i.i.i.i, i64 0, i32 1
  store ptr %call9, ptr %_M_ptr.i.i.i.i.i, align 8
  store ptr %call.i.i.i.i, ptr %_M_refcount.i.i, align 8
  ret void

lpad:                                             ; preds = %entry
  %12 = landingpad { ptr, i32 }
          cleanup
  call void @_ZdlPv(ptr noundef nonnull %call9) #26
  br label %common.resume
}

; Function Attrs: nobuiltin allocsize(0)
declare noundef nonnull ptr @_Znwm(i64 noundef) local_unnamed_addr #4

; Function Attrs: mustprogress uwtable
define linkonce_odr void @_ZN7openvdb5v11_04math17ScaleTranslateMapC2ERKNS1_4Vec3IdEES6_(ptr noundef nonnull align 8 dereferenceable(152) %this, ptr noundef nonnull align 8 dereferenceable(24) %scale, ptr noundef nonnull align 8 dereferenceable(24) %translate) unnamed_addr #3 comdat align 2 personality ptr @__gxx_personality_v0 {
invoke.cont17:
  %_openvdb_throw_msg = alloca %"class.std::__cxx11::basic_string", align 8
  %_openvdb_throw_os = alloca %"class.std::__cxx11::basic_ostringstream", align 8
  %ref.tmp = alloca %"class.std::__cxx11::basic_string", align 8
  store ptr getelementptr inbounds ({ [38 x ptr] }, ptr @_ZTVN7openvdb5v11_04math17ScaleTranslateMapE, i64 0, inrange i32 0, i64 2), ptr %this, align 8
  %mTranslation = getelementptr inbounds %"class.openvdb::v11_0::math::ScaleTranslateMap", ptr %this, i64 0, i32 1
  tail call void @llvm.memcpy.p0.p0.i64(ptr noundef nonnull align 8 dereferenceable(24) %mTranslation, ptr noundef nonnull align 8 dereferenceable(24) %translate, i64 24, i1 false)
  %mScaleValues = getelementptr inbounds %"class.openvdb::v11_0::math::ScaleTranslateMap", ptr %this, i64 0, i32 2
  tail call void @llvm.memcpy.p0.p0.i64(ptr noundef nonnull align 8 dereferenceable(24) %mScaleValues, ptr noundef nonnull align 8 dereferenceable(24) %scale, i64 24, i1 false)
  %mVoxelSize = getelementptr inbounds %"class.openvdb::v11_0::math::ScaleTranslateMap", ptr %this, i64 0, i32 3
  %arrayidx.i = getelementptr inbounds [3 x double], ptr %scale, i64 0, i64 1
  %arrayidx.i9 = getelementptr inbounds [3 x double], ptr %scale, i64 0, i64 2
  %0 = load double, ptr %arrayidx.i9, align 8
  %1 = tail call noundef double @llvm.fabs.f64(double %0)
  %2 = load <2 x double>, ptr %scale, align 8
  %3 = tail call <2 x double> @llvm.fabs.v2f64(<2 x double> %2)
  store <2 x double> %3, ptr %mVoxelSize, align 8
  %arrayidx5.i = getelementptr inbounds %"class.openvdb::v11_0::math::ScaleTranslateMap", ptr %this, i64 0, i32 3, i32 0, i32 0, i64 2
  store double %1, ptr %arrayidx5.i, align 8
  %4 = load double, ptr %scale, align 8
  %5 = load double, ptr %arrayidx.i, align 8
  %6 = load double, ptr %arrayidx.i9, align 8
  %mul = fmul double %4, %5
  %mul19 = fmul double %mul, %6
  %7 = tail call noundef double @llvm.fabs.f64(double %mul19)
  %cmp = fcmp olt double %7, 0x3CEB05876E5B0121
  br i1 %cmp, label %if.then, label %invoke.cont45

if.then:                                          ; preds = %invoke.cont17
  call void @_ZNSt7__cxx1112basic_stringIcSt11char_traitsIcESaIcEEC1Ev(ptr noundef nonnull align 8 dereferenceable(32) %_openvdb_throw_msg) #23
  invoke void @_ZNSt7__cxx1119basic_ostringstreamIcSt11char_traitsIcESaIcEEC1Ev(ptr noundef nonnull align 8 dereferenceable(112) %_openvdb_throw_os)
          to label %invoke.cont26 unwind label %lpad25

invoke.cont26:                                    ; preds = %if.then
  %call29 = invoke noundef nonnull align 8 dereferenceable(8) ptr @_ZStlsISt11char_traitsIcEERSt13basic_ostreamIcT_ES5_PKc(ptr noundef nonnull align 8 dereferenceable(8) %_openvdb_throw_os, ptr noundef nonnull @.str.22)
          to label %invoke.cont28 unwind label %lpad27

invoke.cont28:                                    ; preds = %invoke.cont26
  invoke void @_ZNKSt7__cxx1119basic_ostringstreamIcSt11char_traitsIcESaIcEE3strEv(ptr nonnull sret(%"class.std::__cxx11::basic_string") align 8 %ref.tmp, ptr noundef nonnull align 8 dereferenceable(112) %_openvdb_throw_os)
          to label %invoke.cont30 unwind label %lpad27

invoke.cont30:                                    ; preds = %invoke.cont28
  %call31 = call noundef nonnull align 8 dereferenceable(32) ptr @_ZNSt7__cxx1112basic_stringIcSt11char_traitsIcESaIcEEaSEOS4_(ptr noundef nonnull align 8 dereferenceable(32) %_openvdb_throw_msg, ptr noundef nonnull align 8 dereferenceable(32) %ref.tmp) #23
  call void @_ZNSt7__cxx1112basic_stringIcSt11char_traitsIcESaIcEED1Ev(ptr noundef nonnull align 8 dereferenceable(32) %ref.tmp) #23
  call void @_ZNSt7__cxx1119basic_ostringstreamIcSt11char_traitsIcESaIcEED1Ev(ptr noundef nonnull align 8 dereferenceable(112) %_openvdb_throw_os) #23
  br label %try.cont

lpad25:                                           ; preds = %if.then
  %8 = landingpad { ptr, i32 }
          catch ptr null
  br label %catch

lpad27:                                           ; preds = %invoke.cont28, %invoke.cont26
  %9 = landingpad { ptr, i32 }
          catch ptr null
  call void @_ZNSt7__cxx1119basic_ostringstreamIcSt11char_traitsIcESaIcEED1Ev(ptr noundef nonnull align 8 dereferenceable(112) %_openvdb_throw_os) #23
  br label %catch

catch:                                            ; preds = %lpad27, %lpad25
  %.pn = phi { ptr, i32 } [ %9, %lpad27 ], [ %8, %lpad25 ]
  %exn.slot.0 = extractvalue { ptr, i32 } %.pn, 0
  %10 = call ptr @__cxa_begin_catch(ptr %exn.slot.0) #23
  invoke void @__cxa_end_catch()
          to label %try.cont unwind label %lpad32

try.cont:                                         ; preds = %catch, %invoke.cont30
  %exception = call ptr @__cxa_allocate_exception(i64 40) #23
  call void @_ZN7openvdb5v11_09ExceptionC2EPKcPKNSt7__cxx1112basic_stringIcSt11char_traitsIcESaIcEEE(ptr noundef nonnull align 8 dereferenceable(40) %exception, ptr noundef nonnull @.str.23, ptr noundef nonnull %_openvdb_throw_msg) #23
  store ptr getelementptr inbounds ({ [5 x ptr] }, ptr @_ZTVN7openvdb5v11_015ArithmeticErrorE, i64 0, inrange i32 0, i64 2), ptr %exception, align 8
  invoke void @__cxa_throw(ptr nonnull %exception, ptr nonnull @_ZTIN7openvdb5v11_015ArithmeticErrorE, ptr nonnull @_ZN7openvdb5v11_015ArithmeticErrorD2Ev) #24
          to label %unreachable unwind label %lpad32

lpad32:                                           ; preds = %try.cont, %catch
  %11 = landingpad { ptr, i32 }
          cleanup
  call void @_ZNSt7__cxx1112basic_stringIcSt11char_traitsIcESaIcEED1Ev(ptr noundef nonnull align 8 dereferenceable(32) %_openvdb_throw_msg) #23
  resume { ptr, i32 } %11

invoke.cont45:                                    ; preds = %invoke.cont17
  %arrayidx.i.i5.i = getelementptr inbounds %"class.openvdb::v11_0::math::ScaleTranslateMap", ptr %this, i64 0, i32 2, i32 0, i32 0, i64 2
  %12 = load double, ptr %arrayidx.i.i5.i, align 8, !noalias !4
  %div4.i = fdiv double 1.000000e+00, %12
  %mScaleValuesInverse37 = getelementptr inbounds %"class.openvdb::v11_0::math::ScaleTranslateMap", ptr %this, i64 0, i32 4
  %13 = load <2 x double>, ptr %mScaleValues, align 8, !noalias !4
  %14 = fdiv <2 x double> <double 1.000000e+00, double 1.000000e+00>, %13
  store <2 x double> %14, ptr %mScaleValuesInverse37, align 8
  %ref.tmp34.sroa.3.0.mScaleValuesInverse37.sroa_idx = getelementptr inbounds %"class.openvdb::v11_0::math::ScaleTranslateMap", ptr %this, i64 0, i32 4, i32 0, i32 0, i64 2
  store double %div4.i, ptr %ref.tmp34.sroa.3.0.mScaleValuesInverse37.sroa_idx, align 8
  %mul7.i = fmul double %div4.i, %div4.i
  %mInvScaleSqr42 = getelementptr inbounds %"class.openvdb::v11_0::math::ScaleTranslateMap", ptr %this, i64 0, i32 5
  %15 = fmul <2 x double> %14, %14
  store <2 x double> %15, ptr %mInvScaleSqr42, align 8
  %ref.tmp38.sroa.3.0.mInvScaleSqr42.sroa_idx = getelementptr inbounds %"class.openvdb::v11_0::math::ScaleTranslateMap", ptr %this, i64 0, i32 5, i32 0, i32 0, i64 2
  store double %mul7.i, ptr %ref.tmp38.sroa.3.0.mInvScaleSqr42.sroa_idx, align 8
  %div9.i.i = fmul double %div4.i, 5.000000e-01
  %mInvTwiceScale46 = getelementptr inbounds %"class.openvdb::v11_0::math::ScaleTranslateMap", ptr %this, i64 0, i32 6
  %16 = fmul <2 x double> %14, <double 5.000000e-01, double 5.000000e-01>
  store <2 x double> %16, ptr %mInvTwiceScale46, align 8
  %ref.tmp43.sroa.6.0.mInvTwiceScale46.sroa_idx = getelementptr inbounds %"class.openvdb::v11_0::math::ScaleTranslateMap", ptr %this, i64 0, i32 6, i32 0, i32 0, i64 2
  store double %div9.i.i, ptr %ref.tmp43.sroa.6.0.mInvTwiceScale46.sroa_idx, align 8
  ret void

unreachable:                                      ; preds = %try.cont
  unreachable
}

declare i32 @__gxx_personality_v0(...)

; Function Attrs: nobuiltin nounwind
declare void @_ZdlPv(ptr noundef) local_unnamed_addr #5

; Function Attrs: mustprogress uwtable
define linkonce_odr void @_ZNK7openvdb5v11_04math15UniformScaleMap12preTranslateERKNS1_4Vec3IdEE(ptr noalias sret(%"class.std::shared_ptr") align 8 %agg.result, ptr noundef nonnull align 8 dereferenceable(128) %this, ptr noundef nonnull align 8 dereferenceable(24) %t) unnamed_addr #3 comdat align 2 personality ptr @__gxx_personality_v0 {
entry:
  %ref.tmp.i = alloca %"class.openvdb::v11_0::math::Vec3", align 8
  %ref.tmp = alloca %"class.openvdb::v11_0::math::Vec3", align 16
  %mScaleValues.i = getelementptr inbounds %"class.openvdb::v11_0::math::ScaleMap", ptr %this, i64 0, i32 1
  %0 = load double, ptr %mScaleValues.i, align 8
  %call3 = tail call noalias noundef nonnull dereferenceable(152) ptr @_Znwm(i64 noundef 152) #22
  call void @llvm.memcpy.p0.p0.i64(ptr noundef nonnull align 16 dereferenceable(24) %ref.tmp, ptr noundef nonnull align 8 dereferenceable(24) %t, i64 24, i1 false)
  %arrayidx6.i.i.i = getelementptr inbounds [3 x double], ptr %ref.tmp, i64 0, i64 2
  %1 = load double, ptr %arrayidx6.i.i.i, align 16, !alias.scope !7
  %mul7.i.i.i = fmul double %0, %1
  %2 = load <2 x double>, ptr %ref.tmp, align 16, !alias.scope !7
  %3 = insertelement <2 x double> poison, double %0, i64 0
  %4 = shufflevector <2 x double> %3, <2 x double> poison, <2 x i32> zeroinitializer
  %5 = fmul <2 x double> %4, %2
  store <2 x double> %5, ptr %ref.tmp, align 16, !alias.scope !7
  store double %mul7.i.i.i, ptr %arrayidx6.i.i.i, align 16, !alias.scope !7
  call void @llvm.lifetime.start.p0(i64 24, ptr nonnull %ref.tmp.i)
  store double %0, ptr %ref.tmp.i, align 8
  %arrayidx3.i.i = getelementptr inbounds [3 x double], ptr %ref.tmp.i, i64 0, i64 1
  store double %0, ptr %arrayidx3.i.i, align 8
  %arrayidx5.i.i = getelementptr inbounds [3 x double], ptr %ref.tmp.i, i64 0, i64 2
  store double %0, ptr %arrayidx5.i.i, align 8
  invoke void @_ZN7openvdb5v11_04math17ScaleTranslateMapC2ERKNS1_4Vec3IdEES6_(ptr noundef nonnull align 8 dereferenceable(152) %call3, ptr noundef nonnull align 8 dereferenceable(24) %ref.tmp.i, ptr noundef nonnull align 8 dereferenceable(24) %ref.tmp)
          to label %invoke.cont4 unwind label %lpad

invoke.cont4:                                     ; preds = %entry
  store ptr getelementptr inbounds ({ [38 x ptr] }, ptr @_ZTVN7openvdb5v11_04math24UniformScaleTranslateMapE, i64 0, inrange i32 0, i64 2), ptr %call3, align 8
  call void @llvm.lifetime.end.p0(i64 24, ptr nonnull %ref.tmp.i)
  store ptr %call3, ptr %agg.result, align 8
  %_M_refcount.i.i = getelementptr inbounds %"class.std::__shared_ptr", ptr %agg.result, i64 0, i32 1
  store ptr null, ptr %_M_refcount.i.i, align 8
  %call.i.i.i.i = invoke noalias noundef nonnull dereferenceable(24) ptr @_Znwm(i64 noundef 24) #22
          to label %_ZNSt10shared_ptrIN7openvdb5v11_04math7MapBaseEEC2INS2_24UniformScaleTranslateMapEvEEPT_.exit unwind label %lpad.i.i.i.i

lpad.i.i.i.i:                                     ; preds = %invoke.cont4
  %6 = landingpad { ptr, i32 }
          catch ptr null
  %7 = extractvalue { ptr, i32 } %6, 0
  %8 = call ptr @__cxa_begin_catch(ptr %7) #23
  call void @_ZdlPv(ptr noundef nonnull %call3) #26
  invoke void @__cxa_rethrow() #24
          to label %unreachable.i.i.i.i unwind label %lpad3.i.i.i.i

lpad3.i.i.i.i:                                    ; preds = %lpad.i.i.i.i
  %9 = landingpad { ptr, i32 }
          cleanup
  invoke void @__cxa_end_catch()
          to label %common.resume unwind label %terminate.lpad.i.i.i.i

common.resume:                                    ; preds = %lpad3.i.i.i.i, %lpad
  %common.resume.op = phi { ptr, i32 } [ %12, %lpad ], [ %9, %lpad3.i.i.i.i ]
  resume { ptr, i32 } %common.resume.op

terminate.lpad.i.i.i.i:                           ; preds = %lpad3.i.i.i.i
  %10 = landingpad { ptr, i32 }
          catch ptr null
  %11 = extractvalue { ptr, i32 } %10, 0
  call void @__clang_call_terminate(ptr %11) #25
  unreachable

unreachable.i.i.i.i:                              ; preds = %lpad.i.i.i.i
  unreachable

_ZNSt10shared_ptrIN7openvdb5v11_04math7MapBaseEEC2INS2_24UniformScaleTranslateMapEvEEPT_.exit: ; preds = %invoke.cont4
  %_M_use_count.i.i.i.i.i.i = getelementptr inbounds %"class.std::_Sp_counted_base", ptr %call.i.i.i.i, i64 0, i32 1
  store i32 1, ptr %_M_use_count.i.i.i.i.i.i, align 8
  %_M_weak_count.i.i.i.i.i.i = getelementptr inbounds %"class.std::_Sp_counted_base", ptr %call.i.i.i.i, i64 0, i32 2
  store i32 1, ptr %_M_weak_count.i.i.i.i.i.i, align 4
  store ptr getelementptr inbounds ({ [7 x ptr] }, ptr @_ZTVSt15_Sp_counted_ptrIPN7openvdb5v11_04math24UniformScaleTranslateMapELN9__gnu_cxx12_Lock_policyE2EE, i64 0, inrange i32 0, i64 2), ptr %call.i.i.i.i, align 8
  %_M_ptr.i.i.i.i.i = getelementptr inbounds %"class.std::_Sp_counted_ptr.24", ptr %call.i.i.i.i, i64 0, i32 1
  store ptr %call3, ptr %_M_ptr.i.i.i.i.i, align 8
  store ptr %call.i.i.i.i, ptr %_M_refcount.i.i, align 8
  ret void

lpad:                                             ; preds = %entry
  %12 = landingpad { ptr, i32 }
          cleanup
  call void @_ZdlPv(ptr noundef nonnull %call3) #26
  br label %common.resume
}

; Function Attrs: mustprogress uwtable
define linkonce_odr void @_ZNK7openvdb5v11_04math17ScaleTranslateMap8preScaleERKNS1_4Vec3IdEE(ptr noalias sret(%"class.std::shared_ptr") align 8 %agg.result, ptr noundef nonnull align 8 dereferenceable(152) %this, ptr noundef nonnull align 8 dereferenceable(24) %v) unnamed_addr #3 comdat align 2 personality ptr @__gxx_personality_v0 {
entry:
  %ref.tmp.i = alloca %"class.openvdb::v11_0::math::Vec3", align 8
  %new_scale = alloca %"class.openvdb::v11_0::math::Vec3", align 16
  %mScaleValues = getelementptr inbounds %"class.openvdb::v11_0::math::ScaleTranslateMap", ptr %this, i64 0, i32 2
  tail call void @llvm.experimental.noalias.scope.decl(metadata !12)
  %arrayidx.i.i6.i = getelementptr inbounds [3 x double], ptr %v, i64 0, i64 2
  %0 = load double, ptr %arrayidx.i.i6.i, align 8, !noalias !12
  %arrayidx.i.i7.i = getelementptr inbounds %"class.openvdb::v11_0::math::ScaleTranslateMap", ptr %this, i64 0, i32 2, i32 0, i32 0, i64 2
  %1 = load double, ptr %arrayidx.i.i7.i, align 8, !noalias !12
  %mul7.i = fmul double %0, %1
  %2 = load <2 x double>, ptr %v, align 8, !noalias !12
  %3 = load <2 x double>, ptr %mScaleValues, align 8, !noalias !12
  %4 = fmul <2 x double> %2, %3
  store <2 x double> %4, ptr %new_scale, align 16, !alias.scope !12
  %arrayidx5.i.i = getelementptr inbounds [3 x double], ptr %new_scale, i64 0, i64 2
  store double %mul7.i, ptr %arrayidx5.i.i, align 16, !alias.scope !12
  %5 = extractelement <2 x double> %4, i64 0
  %shift = shufflevector <2 x double> %4, <2 x double> poison, <2 x i32> <i32 1, i32 poison>
  %6 = fsub <2 x double> %4, %shift
  %sub.i.i = extractelement <2 x double> %6, i64 0
  %7 = tail call noundef double @llvm.fabs.f64(double %sub.i.i)
  %cmp.i.i.i = fcmp ule double %7, 1.000000e-15
  br i1 %cmp.i.i.i, label %land.rhs, label %if.else

land.rhs:                                         ; preds = %entry
  %sub.i.i3 = fsub double %5, %mul7.i
  %8 = tail call noundef double @llvm.fabs.f64(double %sub.i.i3)
  %cmp.i.i.i4 = fcmp ule double %8, 1.000000e-15
  br i1 %cmp.i.i.i4, label %invoke.cont, label %if.else

invoke.cont:                                      ; preds = %land.rhs
  %call10 = tail call noalias noundef nonnull dereferenceable(152) ptr @_Znwm(i64 noundef 152) #22
  %mTranslation = getelementptr inbounds %"class.openvdb::v11_0::math::ScaleTranslateMap", ptr %this, i64 0, i32 1
  call void @llvm.lifetime.start.p0(i64 24, ptr nonnull %ref.tmp.i)
  store double %5, ptr %ref.tmp.i, align 8
  %arrayidx3.i.i5 = getelementptr inbounds [3 x double], ptr %ref.tmp.i, i64 0, i64 1
  store double %5, ptr %arrayidx3.i.i5, align 8
  %arrayidx5.i.i6 = getelementptr inbounds [3 x double], ptr %ref.tmp.i, i64 0, i64 2
  store double %5, ptr %arrayidx5.i.i6, align 8
  invoke void @_ZN7openvdb5v11_04math17ScaleTranslateMapC2ERKNS1_4Vec3IdEES6_(ptr noundef nonnull align 8 dereferenceable(152) %call10, ptr noundef nonnull align 8 dereferenceable(24) %ref.tmp.i, ptr noundef nonnull align 8 dereferenceable(24) %mTranslation)
          to label %invoke.cont12 unwind label %lpad

invoke.cont12:                                    ; preds = %invoke.cont
  store ptr getelementptr inbounds ({ [38 x ptr] }, ptr @_ZTVN7openvdb5v11_04math24UniformScaleTranslateMapE, i64 0, inrange i32 0, i64 2), ptr %call10, align 8
  call void @llvm.lifetime.end.p0(i64 24, ptr nonnull %ref.tmp.i)
  store ptr %call10, ptr %agg.result, align 8
  %_M_refcount.i.i = getelementptr inbounds %"class.std::__shared_ptr", ptr %agg.result, i64 0, i32 1
  store ptr null, ptr %_M_refcount.i.i, align 8
  %call.i.i.i.i = invoke noalias noundef nonnull dereferenceable(24) ptr @_Znwm(i64 noundef 24) #22
          to label %_ZNSt10shared_ptrIN7openvdb5v11_04math7MapBaseEEC2INS2_24UniformScaleTranslateMapEvEEPT_.exit unwind label %lpad.i.i.i.i

lpad.i.i.i.i:                                     ; preds = %invoke.cont12
  %9 = landingpad { ptr, i32 }
          catch ptr null
  %10 = extractvalue { ptr, i32 } %9, 0
  %11 = call ptr @__cxa_begin_catch(ptr %10) #23
  call void @_ZdlPv(ptr noundef nonnull %call10) #26
  invoke void @__cxa_rethrow() #24
          to label %unreachable.i.i.i.i unwind label %lpad3.i.i.i.i

lpad3.i.i.i.i:                                    ; preds = %lpad.i.i.i.i
  %12 = landingpad { ptr, i32 }
          cleanup
  invoke void @__cxa_end_catch()
          to label %common.resume unwind label %terminate.lpad.i.i.i.i

common.resume.sink.split:                         ; preds = %lpad15, %lpad
  %call10.sink = phi ptr [ %call10, %lpad ], [ %call13, %lpad15 ]
  %common.resume.op.ph = phi { ptr, i32 } [ %15, %lpad ], [ %23, %lpad15 ]
  call void @_ZdlPv(ptr noundef nonnull %call10.sink) #26
  br label %common.resume

common.resume:                                    ; preds = %common.resume.sink.split, %lpad3.i.i.i.i10, %lpad3.i.i.i.i
  %common.resume.op = phi { ptr, i32 } [ %12, %lpad3.i.i.i.i ], [ %20, %lpad3.i.i.i.i10 ], [ %common.resume.op.ph, %common.resume.sink.split ]
  resume { ptr, i32 } %common.resume.op

terminate.lpad.i.i.i.i:                           ; preds = %lpad3.i.i.i.i
  %13 = landingpad { ptr, i32 }
          catch ptr null
  %14 = extractvalue { ptr, i32 } %13, 0
  call void @__clang_call_terminate(ptr %14) #25
  unreachable

unreachable.i.i.i.i:                              ; preds = %lpad.i.i.i.i
  unreachable

_ZNSt10shared_ptrIN7openvdb5v11_04math7MapBaseEEC2INS2_24UniformScaleTranslateMapEvEEPT_.exit: ; preds = %invoke.cont12
  %_M_use_count.i.i.i.i.i.i = getelementptr inbounds %"class.std::_Sp_counted_base", ptr %call.i.i.i.i, i64 0, i32 1
  store i32 1, ptr %_M_use_count.i.i.i.i.i.i, align 8
  %_M_weak_count.i.i.i.i.i.i = getelementptr inbounds %"class.std::_Sp_counted_base", ptr %call.i.i.i.i, i64 0, i32 2
  store i32 1, ptr %_M_weak_count.i.i.i.i.i.i, align 4
  store ptr getelementptr inbounds ({ [7 x ptr] }, ptr @_ZTVSt15_Sp_counted_ptrIPN7openvdb5v11_04math24UniformScaleTranslateMapELN9__gnu_cxx12_Lock_policyE2EE, i64 0, inrange i32 0, i64 2), ptr %call.i.i.i.i, align 8
  %_M_ptr.i.i.i.i.i = getelementptr inbounds %"class.std::_Sp_counted_ptr.24", ptr %call.i.i.i.i, i64 0, i32 1
  store ptr %call10, ptr %_M_ptr.i.i.i.i.i, align 8
  store ptr %call.i.i.i.i, ptr %_M_refcount.i.i, align 8
  br label %return

lpad:                                             ; preds = %invoke.cont
  %15 = landingpad { ptr, i32 }
          cleanup
  br label %common.resume.sink.split

if.else:                                          ; preds = %entry, %land.rhs
  %call13 = tail call noalias noundef nonnull dereferenceable(152) ptr @_Znwm(i64 noundef 152) #22
  %mTranslation14 = getelementptr inbounds %"class.openvdb::v11_0::math::ScaleTranslateMap", ptr %this, i64 0, i32 1
  invoke void @_ZN7openvdb5v11_04math17ScaleTranslateMapC2ERKNS1_4Vec3IdEES6_(ptr noundef nonnull align 8 dereferenceable(152) %call13, ptr noundef nonnull align 8 dereferenceable(24) %new_scale, ptr noundef nonnull align 8 dereferenceable(24) %mTranslation14)
          to label %invoke.cont16 unwind label %lpad15

invoke.cont16:                                    ; preds = %if.else
  store ptr %call13, ptr %agg.result, align 8
  %_M_refcount.i.i7 = getelementptr inbounds %"class.std::__shared_ptr", ptr %agg.result, i64 0, i32 1
  store ptr null, ptr %_M_refcount.i.i7, align 8
  %call.i.i.i.i8 = invoke noalias noundef nonnull dereferenceable(24) ptr @_Znwm(i64 noundef 24) #22
          to label %_ZNSt10shared_ptrIN7openvdb5v11_04math7MapBaseEEC2INS2_17ScaleTranslateMapEvEEPT_.exit unwind label %lpad.i.i.i.i9

lpad.i.i.i.i9:                                    ; preds = %invoke.cont16
  %16 = landingpad { ptr, i32 }
          catch ptr null
  %17 = extractvalue { ptr, i32 } %16, 0
  %18 = call ptr @__cxa_begin_catch(ptr %17) #23
  %vtable.i.i.i.i = load ptr, ptr %call13, align 8
  %vfn.i.i.i.i = getelementptr inbounds ptr, ptr %vtable.i.i.i.i, i64 1
  %19 = load ptr, ptr %vfn.i.i.i.i, align 8
  call void %19(ptr noundef nonnull align 8 dereferenceable(152) %call13) #23
  invoke void @__cxa_rethrow() #24
          to label %unreachable.i.i.i.i13 unwind label %lpad3.i.i.i.i10

lpad3.i.i.i.i10:                                  ; preds = %lpad.i.i.i.i9
  %20 = landingpad { ptr, i32 }
          cleanup
  invoke void @__cxa_end_catch()
          to label %common.resume unwind label %terminate.lpad.i.i.i.i11

terminate.lpad.i.i.i.i11:                         ; preds = %lpad3.i.i.i.i10
  %21 = landingpad { ptr, i32 }
          catch ptr null
  %22 = extractvalue { ptr, i32 } %21, 0
  call void @__clang_call_terminate(ptr %22) #25
  unreachable

unreachable.i.i.i.i13:                            ; preds = %lpad.i.i.i.i9
  unreachable

_ZNSt10shared_ptrIN7openvdb5v11_04math7MapBaseEEC2INS2_17ScaleTranslateMapEvEEPT_.exit: ; preds = %invoke.cont16
  %_M_use_count.i.i.i.i.i.i14 = getelementptr inbounds %"class.std::_Sp_counted_base", ptr %call.i.i.i.i8, i64 0, i32 1
  store i32 1, ptr %_M_use_count.i.i.i.i.i.i14, align 8
  %_M_weak_count.i.i.i.i.i.i15 = getelementptr inbounds %"class.std::_Sp_counted_base", ptr %call.i.i.i.i8, i64 0, i32 2
  store i32 1, ptr %_M_weak_count.i.i.i.i.i.i15, align 4
  store ptr getelementptr inbounds ({ [7 x ptr] }, ptr @_ZTVSt15_Sp_counted_ptrIPN7openvdb5v11_04math17ScaleTranslateMapELN9__gnu_cxx12_Lock_policyE2EE, i64 0, inrange i32 0, i64 2), ptr %call.i.i.i.i8, align 8
  %_M_ptr.i.i.i.i.i16 = getelementptr inbounds %"class.std::_Sp_counted_ptr.23", ptr %call.i.i.i.i8, i64 0, i32 1
  store ptr %call13, ptr %_M_ptr.i.i.i.i.i16, align 8
  store ptr %call.i.i.i.i8, ptr %_M_refcount.i.i7, align 8
  br label %return

lpad15:                                           ; preds = %if.else
  %23 = landingpad { ptr, i32 }
          cleanup
  br label %common.resume.sink.split

return:                                           ; preds = %_ZNSt10shared_ptrIN7openvdb5v11_04math7MapBaseEEC2INS2_17ScaleTranslateMapEvEEPT_.exit, %_ZNSt10shared_ptrIN7openvdb5v11_04math7MapBaseEEC2INS2_24UniformScaleTranslateMapEvEEPT_.exit
  ret void
}

; Function Attrs: mustprogress uwtable
define void @_ZN7openvdb5v11_04math9TransformC2ERKSt10shared_ptrINS1_7MapBaseEE(ptr noundef nonnull align 8 dereferenceable(16) %this, ptr nocapture noundef nonnull readonly align 8 dereferenceable(16) %map) unnamed_addr #3 align 2 personality ptr @__gxx_personality_v0 {
entry:
  %affine = alloca %"class.std::shared_ptr.3", align 8
  %ref.tmp15 = alloca %"class.std::shared_ptr", align 8
  %agg.tmp = alloca %"class.std::shared_ptr.3", align 8
  %0 = load ptr, ptr %map, align 8
  %_M_refcount3.i.i = getelementptr inbounds %"class.std::__shared_ptr", ptr %map, i64 0, i32 1
  %1 = load ptr, ptr %_M_refcount3.i.i, align 8
  %cmp.not.i.i.i = icmp eq ptr %1, null
  br i1 %cmp.not.i.i.i, label %_ZN7openvdb5v11_012ConstPtrCastINS0_4math7MapBaseEKS3_EESt10shared_ptrIT_ERKS5_IT0_E.exit, label %if.then.i.i.i

if.then.i.i.i:                                    ; preds = %entry
  %_M_use_count.i.i.i.i = getelementptr inbounds %"class.std::_Sp_counted_base", ptr %1, i64 0, i32 1
  %2 = load i8, ptr @__libc_single_threaded, align 1
  %tobool.i.i.not.i.i.i.i = icmp eq i8 %2, 0
  br i1 %tobool.i.i.not.i.i.i.i, label %if.else.i.i.i.i.i, label %if.then.i.i.i.i.i

if.then.i.i.i.i.i:                                ; preds = %if.then.i.i.i
  %3 = load i32, ptr %_M_use_count.i.i.i.i, align 4
  %add.i.i.i.i.i = add nsw i32 %3, 1
  store i32 %add.i.i.i.i.i, ptr %_M_use_count.i.i.i.i, align 4
  br label %if.then.i.i.i.i.i2

if.else.i.i.i.i.i:                                ; preds = %if.then.i.i.i
  %4 = atomicrmw volatile add ptr %_M_use_count.i.i.i.i, i32 1 acq_rel, align 4
  br label %if.then.i.i.i.i.i2

if.then.i.i.i.i.i2:                               ; preds = %if.then.i.i.i.i.i, %if.else.i.i.i.i.i
  store ptr %0, ptr %this, align 8, !alias.scope !15
  %_M_refcount.i.i.i.i119 = getelementptr inbounds %"class.std::__shared_ptr", ptr %this, i64 0, i32 1
  store ptr %1, ptr %_M_refcount.i.i.i.i119, align 8, !alias.scope !15
  %5 = load i8, ptr @__libc_single_threaded, align 1, !noalias !20
  %tobool.i.i.not.i.i.i.i.i.i = icmp eq i8 %5, 0
  br i1 %tobool.i.i.not.i.i.i.i.i.i, label %if.else.i.i.i.i.i.i.i, label %if.then.i.i.i.i.i.i.i

if.then.i.i.i.i.i.i.i:                            ; preds = %if.then.i.i.i.i.i2
  %6 = load i32, ptr %_M_use_count.i.i.i.i, align 4, !noalias !20
  %add.i.i.i.i.i.i.i = add nsw i32 %6, 1
  store i32 %add.i.i.i.i.i.i.i, ptr %_M_use_count.i.i.i.i, align 4, !noalias !20
  br label %if.then.i.i.i5

if.else.i.i.i.i.i.i.i:                            ; preds = %if.then.i.i.i.i.i2
  %7 = atomicrmw volatile add ptr %_M_use_count.i.i.i.i, i32 1 acq_rel, align 4, !noalias !20
  br label %if.then.i.i.i5

_ZN7openvdb5v11_012ConstPtrCastINS0_4math7MapBaseEKS3_EESt10shared_ptrIT_ERKS5_IT0_E.exit: ; preds = %entry
  tail call void @llvm.experimental.noalias.scope.decl(metadata !23)
  tail call void @llvm.experimental.noalias.scope.decl(metadata !24)
  store ptr %0, ptr %this, align 8, !alias.scope !20
  %_M_refcount.i.i.i.i = getelementptr inbounds %"class.std::__shared_ptr", ptr %this, i64 0, i32 1
  store ptr null, ptr %_M_refcount.i.i.i.i, align 8, !alias.scope !20
  br label %_ZNSt10shared_ptrIKN7openvdb5v11_04math7MapBaseEED2Ev.exit

if.then.i.i.i5:                                   ; preds = %if.then.i.i.i.i.i.i.i, %if.else.i.i.i.i.i.i.i
  %8 = load atomic i64, ptr %_M_use_count.i.i.i.i acquire, align 8
  %cmp.i.i.i.i = icmp eq i64 %8, 4294967297
  %9 = trunc i64 %8 to i32
  br i1 %cmp.i.i.i.i, label %if.then.i.i.i.i, label %if.end.i.i.i.i

if.then.i.i.i.i:                                  ; preds = %if.then.i.i.i5
  store i32 0, ptr %_M_use_count.i.i.i.i, align 8
  %_M_weak_count.i.i.i.i = getelementptr inbounds %"class.std::_Sp_counted_base", ptr %1, i64 0, i32 2
  store i32 0, ptr %_M_weak_count.i.i.i.i, align 4
  %vtable.i.i.i.i = load ptr, ptr %1, align 8
  %vfn.i.i.i.i = getelementptr inbounds ptr, ptr %vtable.i.i.i.i, i64 2
  %10 = load ptr, ptr %vfn.i.i.i.i, align 8
  tail call void %10(ptr noundef nonnull align 8 dereferenceable(16) %1) #23
  br label %if.end8.sink.split.i.i.i.i

if.end.i.i.i.i:                                   ; preds = %if.then.i.i.i5
  %11 = load i8, ptr @__libc_single_threaded, align 1
  %tobool.i.not.i.i.i.i = icmp eq i8 %11, 0
  br i1 %tobool.i.not.i.i.i.i, label %if.else.i.i.i.i.i12, label %if.then.i.i.i.i.i7

if.then.i.i.i.i.i7:                               ; preds = %if.end.i.i.i.i
  %add.i.i.i.i.i8 = add nsw i32 %9, -1
  store i32 %add.i.i.i.i.i8, ptr %_M_use_count.i.i.i.i, align 4
  br label %_ZN9__gnu_cxx27__exchange_and_add_dispatchEPii.exit.i.i.i.i

if.else.i.i.i.i.i12:                              ; preds = %if.end.i.i.i.i
  %12 = atomicrmw volatile add ptr %_M_use_count.i.i.i.i, i32 -1 acq_rel, align 4
  br label %_ZN9__gnu_cxx27__exchange_and_add_dispatchEPii.exit.i.i.i.i

_ZN9__gnu_cxx27__exchange_and_add_dispatchEPii.exit.i.i.i.i: ; preds = %if.else.i.i.i.i.i12, %if.then.i.i.i.i.i7
  %retval.i.0.i.i.i.i = phi i32 [ %9, %if.then.i.i.i.i.i7 ], [ %12, %if.else.i.i.i.i.i12 ]
  %cmp6.i.i.i.i = icmp eq i32 %retval.i.0.i.i.i.i, 1
  br i1 %cmp6.i.i.i.i, label %if.then7.i.i.i.i, label %_ZNSt10shared_ptrIKN7openvdb5v11_04math7MapBaseEED2Ev.exit

if.then7.i.i.i.i:                                 ; preds = %_ZN9__gnu_cxx27__exchange_and_add_dispatchEPii.exit.i.i.i.i
  %vtable.i.i.i.i.i.i = load ptr, ptr %1, align 8
  %vfn.i.i.i.i.i.i = getelementptr inbounds ptr, ptr %vtable.i.i.i.i.i.i, i64 2
  %13 = load ptr, ptr %vfn.i.i.i.i.i.i, align 8
  tail call void %13(ptr noundef nonnull align 8 dereferenceable(16) %1) #23
  %_M_weak_count.i.i.i.i.i.i = getelementptr inbounds %"class.std::_Sp_counted_base", ptr %1, i64 0, i32 2
  %14 = load i8, ptr @__libc_single_threaded, align 1
  %tobool.i.not.i.i.i.i.i.i = icmp eq i8 %14, 0
  br i1 %tobool.i.not.i.i.i.i.i.i, label %if.else.i.i.i.i.i.i.i11, label %if.then.i.i.i.i.i.i.i9

if.then.i.i.i.i.i.i.i9:                           ; preds = %if.then7.i.i.i.i
  %15 = load i32, ptr %_M_weak_count.i.i.i.i.i.i, align 4
  %add.i.i.i.i.i.i.i10 = add nsw i32 %15, -1
  store i32 %add.i.i.i.i.i.i.i10, ptr %_M_weak_count.i.i.i.i.i.i, align 4
  br label %_ZN9__gnu_cxx27__exchange_and_add_dispatchEPii.exit.i.i.i.i.i.i

if.else.i.i.i.i.i.i.i11:                          ; preds = %if.then7.i.i.i.i
  %16 = atomicrmw volatile add ptr %_M_weak_count.i.i.i.i.i.i, i32 -1 acq_rel, align 4
  br label %_ZN9__gnu_cxx27__exchange_and_add_dispatchEPii.exit.i.i.i.i.i.i

_ZN9__gnu_cxx27__exchange_and_add_dispatchEPii.exit.i.i.i.i.i.i: ; preds = %if.else.i.i.i.i.i.i.i11, %if.then.i.i.i.i.i.i.i9
  %retval.i.0.i.i.i.i.i.i = phi i32 [ %15, %if.then.i.i.i.i.i.i.i9 ], [ %16, %if.else.i.i.i.i.i.i.i11 ]
  %cmp.i.i.i.i.i.i = icmp eq i32 %retval.i.0.i.i.i.i.i.i, 1
  br i1 %cmp.i.i.i.i.i.i, label %if.end8.sink.split.i.i.i.i, label %_ZNSt10shared_ptrIKN7openvdb5v11_04math7MapBaseEED2Ev.exit

if.end8.sink.split.i.i.i.i:                       ; preds = %_ZN9__gnu_cxx27__exchange_and_add_dispatchEPii.exit.i.i.i.i.i.i, %if.then.i.i.i.i
  %vtable2.i.i.i.i.i.i = load ptr, ptr %1, align 8
  %vfn3.i.i.i.i.i.i = getelementptr inbounds ptr, ptr %vtable2.i.i.i.i.i.i, i64 3
  %17 = load ptr, ptr %vfn3.i.i.i.i.i.i, align 8
  tail call void %17(ptr noundef nonnull align 8 dereferenceable(16) %1) #23
  br label %_ZNSt10shared_ptrIKN7openvdb5v11_04math7MapBaseEED2Ev.exit

_ZNSt10shared_ptrIKN7openvdb5v11_04math7MapBaseEED2Ev.exit: ; preds = %_ZN7openvdb5v11_012ConstPtrCastINS0_4math7MapBaseEKS3_EESt10shared_ptrIT_ERKS5_IT0_E.exit, %_ZN9__gnu_cxx27__exchange_and_add_dispatchEPii.exit.i.i.i.i, %_ZN9__gnu_cxx27__exchange_and_add_dispatchEPii.exit.i.i.i.i.i.i, %if.end8.sink.split.i.i.i.i
  %_M_refcount.i.i.i.i121124 = phi ptr [ %_M_refcount.i.i.i.i, %_ZN7openvdb5v11_012ConstPtrCastINS0_4math7MapBaseEKS3_EESt10shared_ptrIT_ERKS5_IT0_E.exit ], [ %_M_refcount.i.i.i.i119, %_ZN9__gnu_cxx27__exchange_and_add_dispatchEPii.exit.i.i.i.i ], [ %_M_refcount.i.i.i.i119, %_ZN9__gnu_cxx27__exchange_and_add_dispatchEPii.exit.i.i.i.i.i.i ], [ %_M_refcount.i.i.i.i119, %if.end8.sink.split.i.i.i.i ]
  %18 = load ptr, ptr %this, align 8
  %call5 = invoke noundef zeroext i1 @_ZNK7openvdb5v11_04math7MapBase6isTypeINS1_15UniformScaleMapEEEbv(ptr noundef nonnull align 8 dereferenceable(8) %18)
          to label %invoke.cont4 unwind label %lpad3

invoke.cont4:                                     ; preds = %_ZNSt10shared_ptrIKN7openvdb5v11_04math7MapBaseEED2Ev.exit
  br i1 %call5, label %if.end, label %land.lhs.true

land.lhs.true:                                    ; preds = %invoke.cont4
  %19 = load ptr, ptr %this, align 8
  %vtable = load ptr, ptr %19, align 8
  %vfn = getelementptr inbounds ptr, ptr %vtable, i64 5
  %20 = load ptr, ptr %vfn, align 8
  %call9 = invoke noundef zeroext i1 %20(ptr noundef nonnull align 8 dereferenceable(8) %19)
          to label %invoke.cont8 unwind label %lpad3

invoke.cont8:                                     ; preds = %land.lhs.true
  br i1 %call9, label %if.then, label %if.end

if.then:                                          ; preds = %invoke.cont8
  %21 = load ptr, ptr %this, align 8
  %vtable12 = load ptr, ptr %21, align 8
  %vfn13 = getelementptr inbounds ptr, ptr %vtable12, i64 2
  %22 = load ptr, ptr %vfn13, align 8
  invoke void %22(ptr nonnull sret(%"class.std::shared_ptr.3") align 8 %affine, ptr noundef nonnull align 8 dereferenceable(8) %21)
          to label %invoke.cont14 unwind label %lpad3

invoke.cont14:                                    ; preds = %if.then
  %23 = load ptr, ptr %affine, align 8
  store ptr %23, ptr %agg.tmp, align 8
  %_M_refcount.i.i13 = getelementptr inbounds %"class.std::__shared_ptr.4", ptr %agg.tmp, i64 0, i32 1
  %_M_refcount3.i.i14 = getelementptr inbounds %"class.std::__shared_ptr.4", ptr %affine, i64 0, i32 1
  %24 = load ptr, ptr %_M_refcount3.i.i14, align 8
  store ptr %24, ptr %_M_refcount.i.i13, align 8
  %cmp.not.i.i.i15 = icmp eq ptr %24, null
  br i1 %cmp.not.i.i.i15, label %_ZNSt10shared_ptrIN7openvdb5v11_04math9AffineMapEEC2ERKS4_.exit, label %if.then.i.i.i16

if.then.i.i.i16:                                  ; preds = %invoke.cont14
  %_M_use_count.i.i.i.i17 = getelementptr inbounds %"class.std::_Sp_counted_base", ptr %24, i64 0, i32 1
  %25 = load i8, ptr @__libc_single_threaded, align 1
  %tobool.i.i.not.i.i.i.i18 = icmp eq i8 %25, 0
  br i1 %tobool.i.i.not.i.i.i.i18, label %if.else.i.i.i.i.i21, label %if.then.i.i.i.i.i19

if.then.i.i.i.i.i19:                              ; preds = %if.then.i.i.i16
  %26 = load i32, ptr %_M_use_count.i.i.i.i17, align 4
  %add.i.i.i.i.i20 = add nsw i32 %26, 1
  store i32 %add.i.i.i.i.i20, ptr %_M_use_count.i.i.i.i17, align 4
  br label %_ZNSt10shared_ptrIN7openvdb5v11_04math9AffineMapEEC2ERKS4_.exit

if.else.i.i.i.i.i21:                              ; preds = %if.then.i.i.i16
  %27 = atomicrmw volatile add ptr %_M_use_count.i.i.i.i17, i32 1 acq_rel, align 4
  br label %_ZNSt10shared_ptrIN7openvdb5v11_04math9AffineMapEEC2ERKS4_.exit

_ZNSt10shared_ptrIN7openvdb5v11_04math9AffineMapEEC2ERKS4_.exit: ; preds = %invoke.cont14, %if.then.i.i.i.i.i19, %if.else.i.i.i.i.i21
  invoke void @_ZN7openvdb5v11_04math8simplifyESt10shared_ptrINS1_9AffineMapEE(ptr nonnull sret(%"class.std::shared_ptr") align 8 %ref.tmp15, ptr noundef nonnull %agg.tmp)
          to label %invoke.cont17 unwind label %lpad16

invoke.cont17:                                    ; preds = %_ZNSt10shared_ptrIN7openvdb5v11_04math9AffineMapEEC2ERKS4_.exit
  %28 = load ptr, ptr %ref.tmp15, align 8
  %_M_refcount4.i.i.i = getelementptr inbounds %"class.std::__shared_ptr", ptr %ref.tmp15, i64 0, i32 1
  %29 = load ptr, ptr %_M_refcount4.i.i.i, align 8
  call void @llvm.memset.p0.i64(ptr noundef nonnull align 8 dereferenceable(16) %ref.tmp15, i8 0, i64 16, i1 false)
  store ptr %28, ptr %this, align 8
  %30 = load ptr, ptr %_M_refcount.i.i.i.i121124, align 8
  store ptr %29, ptr %_M_refcount.i.i.i.i121124, align 8
  %cmp.not.i.i.i.i = icmp eq ptr %30, null
  br i1 %cmp.not.i.i.i.i, label %_ZNSt10shared_ptrIN7openvdb5v11_04math7MapBaseEEaSEOS4_.exit, label %if.then.i.i.i.i22

if.then.i.i.i.i22:                                ; preds = %invoke.cont17
  %_M_use_count.i.i.i.i.i = getelementptr inbounds %"class.std::_Sp_counted_base", ptr %30, i64 0, i32 1
  %31 = load atomic i64, ptr %_M_use_count.i.i.i.i.i acquire, align 8
  %cmp.i.i.i.i.i = icmp eq i64 %31, 4294967297
  %32 = trunc i64 %31 to i32
  br i1 %cmp.i.i.i.i.i, label %if.then.i.i.i.i.i23, label %if.end.i.i.i.i.i

if.then.i.i.i.i.i23:                              ; preds = %if.then.i.i.i.i22
  store i32 0, ptr %_M_use_count.i.i.i.i.i, align 8
  %_M_weak_count.i.i.i.i.i = getelementptr inbounds %"class.std::_Sp_counted_base", ptr %30, i64 0, i32 2
  store i32 0, ptr %_M_weak_count.i.i.i.i.i, align 4
  %vtable.i.i.i.i.i = load ptr, ptr %30, align 8
  %vfn.i.i.i.i.i = getelementptr inbounds ptr, ptr %vtable.i.i.i.i.i, i64 2
  %33 = load ptr, ptr %vfn.i.i.i.i.i, align 8
  call void %33(ptr noundef nonnull align 8 dereferenceable(16) %30) #23
  br label %if.end8.sink.split.i.i.i.i.i

if.end.i.i.i.i.i:                                 ; preds = %if.then.i.i.i.i22
  %34 = load i8, ptr @__libc_single_threaded, align 1
  %tobool.i.not.i.i.i.i.i = icmp eq i8 %34, 0
  br i1 %tobool.i.not.i.i.i.i.i, label %if.else.i.i.i.i.i.i, label %if.then.i.i.i.i.i.i

if.then.i.i.i.i.i.i:                              ; preds = %if.end.i.i.i.i.i
  %add.i.i.i.i.i.i = add nsw i32 %32, -1
  store i32 %add.i.i.i.i.i.i, ptr %_M_use_count.i.i.i.i.i, align 4
  br label %_ZN9__gnu_cxx27__exchange_and_add_dispatchEPii.exit.i.i.i.i.i

if.else.i.i.i.i.i.i:                              ; preds = %if.end.i.i.i.i.i
  %35 = atomicrmw volatile add ptr %_M_use_count.i.i.i.i.i, i32 -1 acq_rel, align 4
  br label %_ZN9__gnu_cxx27__exchange_and_add_dispatchEPii.exit.i.i.i.i.i

_ZN9__gnu_cxx27__exchange_and_add_dispatchEPii.exit.i.i.i.i.i: ; preds = %if.else.i.i.i.i.i.i, %if.then.i.i.i.i.i.i
  %retval.i.0.i.i.i.i.i = phi i32 [ %32, %if.then.i.i.i.i.i.i ], [ %35, %if.else.i.i.i.i.i.i ]
  %cmp6.i.i.i.i.i = icmp eq i32 %retval.i.0.i.i.i.i.i, 1
  br i1 %cmp6.i.i.i.i.i, label %if.then7.i.i.i.i.i, label %_ZNSt10shared_ptrIN7openvdb5v11_04math7MapBaseEEaSEOS4_.exit

if.then7.i.i.i.i.i:                               ; preds = %_ZN9__gnu_cxx27__exchange_and_add_dispatchEPii.exit.i.i.i.i.i
  %vtable.i.i.i.i.i.i.i = load ptr, ptr %30, align 8
  %vfn.i.i.i.i.i.i.i = getelementptr inbounds ptr, ptr %vtable.i.i.i.i.i.i.i, i64 2
  %36 = load ptr, ptr %vfn.i.i.i.i.i.i.i, align 8
  call void %36(ptr noundef nonnull align 8 dereferenceable(16) %30) #23
  %_M_weak_count.i.i.i.i.i.i.i = getelementptr inbounds %"class.std::_Sp_counted_base", ptr %30, i64 0, i32 2
  %37 = load i8, ptr @__libc_single_threaded, align 1
  %tobool.i.not.i.i.i.i.i.i.i = icmp eq i8 %37, 0
  br i1 %tobool.i.not.i.i.i.i.i.i.i, label %if.else.i.i.i.i.i.i.i.i, label %if.then.i.i.i.i.i.i.i.i

if.then.i.i.i.i.i.i.i.i:                          ; preds = %if.then7.i.i.i.i.i
  %38 = load i32, ptr %_M_weak_count.i.i.i.i.i.i.i, align 4
  %add.i.i.i.i.i.i.i.i = add nsw i32 %38, -1
  store i32 %add.i.i.i.i.i.i.i.i, ptr %_M_weak_count.i.i.i.i.i.i.i, align 4
  br label %_ZN9__gnu_cxx27__exchange_and_add_dispatchEPii.exit.i.i.i.i.i.i.i

if.else.i.i.i.i.i.i.i.i:                          ; preds = %if.then7.i.i.i.i.i
  %39 = atomicrmw volatile add ptr %_M_weak_count.i.i.i.i.i.i.i, i32 -1 acq_rel, align 4
  br label %_ZN9__gnu_cxx27__exchange_and_add_dispatchEPii.exit.i.i.i.i.i.i.i

_ZN9__gnu_cxx27__exchange_and_add_dispatchEPii.exit.i.i.i.i.i.i.i: ; preds = %if.else.i.i.i.i.i.i.i.i, %if.then.i.i.i.i.i.i.i.i
  %retval.i.0.i.i.i.i.i.i.i = phi i32 [ %38, %if.then.i.i.i.i.i.i.i.i ], [ %39, %if.else.i.i.i.i.i.i.i.i ]
  %cmp.i.i.i.i.i.i.i = icmp eq i32 %retval.i.0.i.i.i.i.i.i.i, 1
  br i1 %cmp.i.i.i.i.i.i.i, label %if.end8.sink.split.i.i.i.i.i, label %_ZNSt10shared_ptrIN7openvdb5v11_04math7MapBaseEEaSEOS4_.exit

if.end8.sink.split.i.i.i.i.i:                     ; preds = %_ZN9__gnu_cxx27__exchange_and_add_dispatchEPii.exit.i.i.i.i.i.i.i, %if.then.i.i.i.i.i23
  %vtable2.i.i.i.i.i.i.i = load ptr, ptr %30, align 8
  %vfn3.i.i.i.i.i.i.i = getelementptr inbounds ptr, ptr %vtable2.i.i.i.i.i.i.i, i64 3
  %40 = load ptr, ptr %vfn3.i.i.i.i.i.i.i, align 8
  call void %40(ptr noundef nonnull align 8 dereferenceable(16) %30) #23
  br label %_ZNSt10shared_ptrIN7openvdb5v11_04math7MapBaseEEaSEOS4_.exit

_ZNSt10shared_ptrIN7openvdb5v11_04math7MapBaseEEaSEOS4_.exit: ; preds = %invoke.cont17, %_ZN9__gnu_cxx27__exchange_and_add_dispatchEPii.exit.i.i.i.i.i, %_ZN9__gnu_cxx27__exchange_and_add_dispatchEPii.exit.i.i.i.i.i.i.i, %if.end8.sink.split.i.i.i.i.i
  %41 = load ptr, ptr %_M_refcount4.i.i.i, align 8
  %cmp.not.i.i.i25 = icmp eq ptr %41, null
  br i1 %cmp.not.i.i.i25, label %_ZNSt10shared_ptrIN7openvdb5v11_04math7MapBaseEED2Ev.exit, label %if.then.i.i.i26

if.then.i.i.i26:                                  ; preds = %_ZNSt10shared_ptrIN7openvdb5v11_04math7MapBaseEEaSEOS4_.exit
  %_M_use_count.i.i.i.i27 = getelementptr inbounds %"class.std::_Sp_counted_base", ptr %41, i64 0, i32 1
  %42 = load atomic i64, ptr %_M_use_count.i.i.i.i27 acquire, align 8
  %cmp.i.i.i.i28 = icmp eq i64 %42, 4294967297
  %43 = trunc i64 %42 to i32
  br i1 %cmp.i.i.i.i28, label %if.then.i.i.i.i51, label %if.end.i.i.i.i29

if.then.i.i.i.i51:                                ; preds = %if.then.i.i.i26
  store i32 0, ptr %_M_use_count.i.i.i.i27, align 8
  %_M_weak_count.i.i.i.i52 = getelementptr inbounds %"class.std::_Sp_counted_base", ptr %41, i64 0, i32 2
  store i32 0, ptr %_M_weak_count.i.i.i.i52, align 4
  %vtable.i.i.i.i53 = load ptr, ptr %41, align 8
  %vfn.i.i.i.i54 = getelementptr inbounds ptr, ptr %vtable.i.i.i.i53, i64 2
  %44 = load ptr, ptr %vfn.i.i.i.i54, align 8
  call void %44(ptr noundef nonnull align 8 dereferenceable(16) %41) #23
  br label %if.end8.sink.split.i.i.i.i46

if.end.i.i.i.i29:                                 ; preds = %if.then.i.i.i26
  %45 = load i8, ptr @__libc_single_threaded, align 1
  %tobool.i.not.i.i.i.i30 = icmp eq i8 %45, 0
  br i1 %tobool.i.not.i.i.i.i30, label %if.else.i.i.i.i.i50, label %if.then.i.i.i.i.i31

if.then.i.i.i.i.i31:                              ; preds = %if.end.i.i.i.i29
  %add.i.i.i.i.i32 = add nsw i32 %43, -1
  store i32 %add.i.i.i.i.i32, ptr %_M_use_count.i.i.i.i27, align 4
  br label %_ZN9__gnu_cxx27__exchange_and_add_dispatchEPii.exit.i.i.i.i33

if.else.i.i.i.i.i50:                              ; preds = %if.end.i.i.i.i29
  %46 = atomicrmw volatile add ptr %_M_use_count.i.i.i.i27, i32 -1 acq_rel, align 4
  br label %_ZN9__gnu_cxx27__exchange_and_add_dispatchEPii.exit.i.i.i.i33

_ZN9__gnu_cxx27__exchange_and_add_dispatchEPii.exit.i.i.i.i33: ; preds = %if.else.i.i.i.i.i50, %if.then.i.i.i.i.i31
  %retval.i.0.i.i.i.i34 = phi i32 [ %43, %if.then.i.i.i.i.i31 ], [ %46, %if.else.i.i.i.i.i50 ]
  %cmp6.i.i.i.i35 = icmp eq i32 %retval.i.0.i.i.i.i34, 1
  br i1 %cmp6.i.i.i.i35, label %if.then7.i.i.i.i36, label %_ZNSt10shared_ptrIN7openvdb5v11_04math7MapBaseEED2Ev.exit

if.then7.i.i.i.i36:                               ; preds = %_ZN9__gnu_cxx27__exchange_and_add_dispatchEPii.exit.i.i.i.i33
  %vtable.i.i.i.i.i.i37 = load ptr, ptr %41, align 8
  %vfn.i.i.i.i.i.i38 = getelementptr inbounds ptr, ptr %vtable.i.i.i.i.i.i37, i64 2
  %47 = load ptr, ptr %vfn.i.i.i.i.i.i38, align 8
  call void %47(ptr noundef nonnull align 8 dereferenceable(16) %41) #23
  %_M_weak_count.i.i.i.i.i.i39 = getelementptr inbounds %"class.std::_Sp_counted_base", ptr %41, i64 0, i32 2
  %48 = load i8, ptr @__libc_single_threaded, align 1
  %tobool.i.not.i.i.i.i.i.i40 = icmp eq i8 %48, 0
  br i1 %tobool.i.not.i.i.i.i.i.i40, label %if.else.i.i.i.i.i.i.i49, label %if.then.i.i.i.i.i.i.i41

if.then.i.i.i.i.i.i.i41:                          ; preds = %if.then7.i.i.i.i36
  %49 = load i32, ptr %_M_weak_count.i.i.i.i.i.i39, align 4
  %add.i.i.i.i.i.i.i42 = add nsw i32 %49, -1
  store i32 %add.i.i.i.i.i.i.i42, ptr %_M_weak_count.i.i.i.i.i.i39, align 4
  br label %_ZN9__gnu_cxx27__exchange_and_add_dispatchEPii.exit.i.i.i.i.i.i43

if.else.i.i.i.i.i.i.i49:                          ; preds = %if.then7.i.i.i.i36
  %50 = atomicrmw volatile add ptr %_M_weak_count.i.i.i.i.i.i39, i32 -1 acq_rel, align 4
  br label %_ZN9__gnu_cxx27__exchange_and_add_dispatchEPii.exit.i.i.i.i.i.i43

_ZN9__gnu_cxx27__exchange_and_add_dispatchEPii.exit.i.i.i.i.i.i43: ; preds = %if.else.i.i.i.i.i.i.i49, %if.then.i.i.i.i.i.i.i41
  %retval.i.0.i.i.i.i.i.i44 = phi i32 [ %49, %if.then.i.i.i.i.i.i.i41 ], [ %50, %if.else.i.i.i.i.i.i.i49 ]
  %cmp.i.i.i.i.i.i45 = icmp eq i32 %retval.i.0.i.i.i.i.i.i44, 1
  br i1 %cmp.i.i.i.i.i.i45, label %if.end8.sink.split.i.i.i.i46, label %_ZNSt10shared_ptrIN7openvdb5v11_04math7MapBaseEED2Ev.exit

if.end8.sink.split.i.i.i.i46:                     ; preds = %_ZN9__gnu_cxx27__exchange_and_add_dispatchEPii.exit.i.i.i.i.i.i43, %if.then.i.i.i.i51
  %vtable2.i.i.i.i.i.i47 = load ptr, ptr %41, align 8
  %vfn3.i.i.i.i.i.i48 = getelementptr inbounds ptr, ptr %vtable2.i.i.i.i.i.i47, i64 3
  %51 = load ptr, ptr %vfn3.i.i.i.i.i.i48, align 8
  call void %51(ptr noundef nonnull align 8 dereferenceable(16) %41) #23
  br label %_ZNSt10shared_ptrIN7openvdb5v11_04math7MapBaseEED2Ev.exit

_ZNSt10shared_ptrIN7openvdb5v11_04math7MapBaseEED2Ev.exit: ; preds = %_ZNSt10shared_ptrIN7openvdb5v11_04math7MapBaseEEaSEOS4_.exit, %_ZN9__gnu_cxx27__exchange_and_add_dispatchEPii.exit.i.i.i.i33, %_ZN9__gnu_cxx27__exchange_and_add_dispatchEPii.exit.i.i.i.i.i.i43, %if.end8.sink.split.i.i.i.i46
  %52 = load ptr, ptr %_M_refcount.i.i13, align 8
  %cmp.not.i.i.i56 = icmp eq ptr %52, null
  br i1 %cmp.not.i.i.i56, label %_ZNSt10shared_ptrIN7openvdb5v11_04math9AffineMapEED2Ev.exit, label %if.then.i.i.i57

if.then.i.i.i57:                                  ; preds = %_ZNSt10shared_ptrIN7openvdb5v11_04math7MapBaseEED2Ev.exit
  %_M_use_count.i.i.i.i58 = getelementptr inbounds %"class.std::_Sp_counted_base", ptr %52, i64 0, i32 1
  %53 = load atomic i64, ptr %_M_use_count.i.i.i.i58 acquire, align 8
  %cmp.i.i.i.i59 = icmp eq i64 %53, 4294967297
  %54 = trunc i64 %53 to i32
  br i1 %cmp.i.i.i.i59, label %if.then.i.i.i.i82, label %if.end.i.i.i.i60

if.then.i.i.i.i82:                                ; preds = %if.then.i.i.i57
  store i32 0, ptr %_M_use_count.i.i.i.i58, align 8
  %_M_weak_count.i.i.i.i83 = getelementptr inbounds %"class.std::_Sp_counted_base", ptr %52, i64 0, i32 2
  store i32 0, ptr %_M_weak_count.i.i.i.i83, align 4
  %vtable.i.i.i.i84 = load ptr, ptr %52, align 8
  %vfn.i.i.i.i85 = getelementptr inbounds ptr, ptr %vtable.i.i.i.i84, i64 2
  %55 = load ptr, ptr %vfn.i.i.i.i85, align 8
  call void %55(ptr noundef nonnull align 8 dereferenceable(16) %52) #23
  br label %if.end8.sink.split.i.i.i.i77

if.end.i.i.i.i60:                                 ; preds = %if.then.i.i.i57
  %56 = load i8, ptr @__libc_single_threaded, align 1
  %tobool.i.not.i.i.i.i61 = icmp eq i8 %56, 0
  br i1 %tobool.i.not.i.i.i.i61, label %if.else.i.i.i.i.i81, label %if.then.i.i.i.i.i62

if.then.i.i.i.i.i62:                              ; preds = %if.end.i.i.i.i60
  %add.i.i.i.i.i63 = add nsw i32 %54, -1
  store i32 %add.i.i.i.i.i63, ptr %_M_use_count.i.i.i.i58, align 4
  br label %_ZN9__gnu_cxx27__exchange_and_add_dispatchEPii.exit.i.i.i.i64

if.else.i.i.i.i.i81:                              ; preds = %if.end.i.i.i.i60
  %57 = atomicrmw volatile add ptr %_M_use_count.i.i.i.i58, i32 -1 acq_rel, align 4
  br label %_ZN9__gnu_cxx27__exchange_and_add_dispatchEPii.exit.i.i.i.i64

_ZN9__gnu_cxx27__exchange_and_add_dispatchEPii.exit.i.i.i.i64: ; preds = %if.else.i.i.i.i.i81, %if.then.i.i.i.i.i62
  %retval.i.0.i.i.i.i65 = phi i32 [ %54, %if.then.i.i.i.i.i62 ], [ %57, %if.else.i.i.i.i.i81 ]
  %cmp6.i.i.i.i66 = icmp eq i32 %retval.i.0.i.i.i.i65, 1
  br i1 %cmp6.i.i.i.i66, label %if.then7.i.i.i.i67, label %_ZNSt10shared_ptrIN7openvdb5v11_04math9AffineMapEED2Ev.exit

if.then7.i.i.i.i67:                               ; preds = %_ZN9__gnu_cxx27__exchange_and_add_dispatchEPii.exit.i.i.i.i64
  %vtable.i.i.i.i.i.i68 = load ptr, ptr %52, align 8
  %vfn.i.i.i.i.i.i69 = getelementptr inbounds ptr, ptr %vtable.i.i.i.i.i.i68, i64 2
  %58 = load ptr, ptr %vfn.i.i.i.i.i.i69, align 8
  call void %58(ptr noundef nonnull align 8 dereferenceable(16) %52) #23
  %_M_weak_count.i.i.i.i.i.i70 = getelementptr inbounds %"class.std::_Sp_counted_base", ptr %52, i64 0, i32 2
  %59 = load i8, ptr @__libc_single_threaded, align 1
  %tobool.i.not.i.i.i.i.i.i71 = icmp eq i8 %59, 0
  br i1 %tobool.i.not.i.i.i.i.i.i71, label %if.else.i.i.i.i.i.i.i80, label %if.then.i.i.i.i.i.i.i72

if.then.i.i.i.i.i.i.i72:                          ; preds = %if.then7.i.i.i.i67
  %60 = load i32, ptr %_M_weak_count.i.i.i.i.i.i70, align 4
  %add.i.i.i.i.i.i.i73 = add nsw i32 %60, -1
  store i32 %add.i.i.i.i.i.i.i73, ptr %_M_weak_count.i.i.i.i.i.i70, align 4
  br label %_ZN9__gnu_cxx27__exchange_and_add_dispatchEPii.exit.i.i.i.i.i.i74

if.else.i.i.i.i.i.i.i80:                          ; preds = %if.then7.i.i.i.i67
  %61 = atomicrmw volatile add ptr %_M_weak_count.i.i.i.i.i.i70, i32 -1 acq_rel, align 4
  br label %_ZN9__gnu_cxx27__exchange_and_add_dispatchEPii.exit.i.i.i.i.i.i74

_ZN9__gnu_cxx27__exchange_and_add_dispatchEPii.exit.i.i.i.i.i.i74: ; preds = %if.else.i.i.i.i.i.i.i80, %if.then.i.i.i.i.i.i.i72
  %retval.i.0.i.i.i.i.i.i75 = phi i32 [ %60, %if.then.i.i.i.i.i.i.i72 ], [ %61, %if.else.i.i.i.i.i.i.i80 ]
  %cmp.i.i.i.i.i.i76 = icmp eq i32 %retval.i.0.i.i.i.i.i.i75, 1
  br i1 %cmp.i.i.i.i.i.i76, label %if.end8.sink.split.i.i.i.i77, label %_ZNSt10shared_ptrIN7openvdb5v11_04math9AffineMapEED2Ev.exit

if.end8.sink.split.i.i.i.i77:                     ; preds = %_ZN9__gnu_cxx27__exchange_and_add_dispatchEPii.exit.i.i.i.i.i.i74, %if.then.i.i.i.i82
  %vtable2.i.i.i.i.i.i78 = load ptr, ptr %52, align 8
  %vfn3.i.i.i.i.i.i79 = getelementptr inbounds ptr, ptr %vtable2.i.i.i.i.i.i78, i64 3
  %62 = load ptr, ptr %vfn3.i.i.i.i.i.i79, align 8
  call void %62(ptr noundef nonnull align 8 dereferenceable(16) %52) #23
  br label %_ZNSt10shared_ptrIN7openvdb5v11_04math9AffineMapEED2Ev.exit

_ZNSt10shared_ptrIN7openvdb5v11_04math9AffineMapEED2Ev.exit: ; preds = %_ZNSt10shared_ptrIN7openvdb5v11_04math7MapBaseEED2Ev.exit, %_ZN9__gnu_cxx27__exchange_and_add_dispatchEPii.exit.i.i.i.i64, %_ZN9__gnu_cxx27__exchange_and_add_dispatchEPii.exit.i.i.i.i.i.i74, %if.end8.sink.split.i.i.i.i77
  %63 = load ptr, ptr %_M_refcount3.i.i14, align 8
  %cmp.not.i.i.i87 = icmp eq ptr %63, null
  br i1 %cmp.not.i.i.i87, label %if.end, label %if.then.i.i.i88

if.then.i.i.i88:                                  ; preds = %_ZNSt10shared_ptrIN7openvdb5v11_04math9AffineMapEED2Ev.exit
  %_M_use_count.i.i.i.i89 = getelementptr inbounds %"class.std::_Sp_counted_base", ptr %63, i64 0, i32 1
  %64 = load atomic i64, ptr %_M_use_count.i.i.i.i89 acquire, align 8
  %cmp.i.i.i.i90 = icmp eq i64 %64, 4294967297
  %65 = trunc i64 %64 to i32
  br i1 %cmp.i.i.i.i90, label %if.then.i.i.i.i113, label %if.end.i.i.i.i91

if.then.i.i.i.i113:                               ; preds = %if.then.i.i.i88
  store i32 0, ptr %_M_use_count.i.i.i.i89, align 8
  %_M_weak_count.i.i.i.i114 = getelementptr inbounds %"class.std::_Sp_counted_base", ptr %63, i64 0, i32 2
  store i32 0, ptr %_M_weak_count.i.i.i.i114, align 4
  %vtable.i.i.i.i115 = load ptr, ptr %63, align 8
  %vfn.i.i.i.i116 = getelementptr inbounds ptr, ptr %vtable.i.i.i.i115, i64 2
  %66 = load ptr, ptr %vfn.i.i.i.i116, align 8
  call void %66(ptr noundef nonnull align 8 dereferenceable(16) %63) #23
  br label %if.end8.sink.split.i.i.i.i108

if.end.i.i.i.i91:                                 ; preds = %if.then.i.i.i88
  %67 = load i8, ptr @__libc_single_threaded, align 1
  %tobool.i.not.i.i.i.i92 = icmp eq i8 %67, 0
  br i1 %tobool.i.not.i.i.i.i92, label %if.else.i.i.i.i.i112, label %if.then.i.i.i.i.i93

if.then.i.i.i.i.i93:                              ; preds = %if.end.i.i.i.i91
  %add.i.i.i.i.i94 = add nsw i32 %65, -1
  store i32 %add.i.i.i.i.i94, ptr %_M_use_count.i.i.i.i89, align 4
  br label %_ZN9__gnu_cxx27__exchange_and_add_dispatchEPii.exit.i.i.i.i95

if.else.i.i.i.i.i112:                             ; preds = %if.end.i.i.i.i91
  %68 = atomicrmw volatile add ptr %_M_use_count.i.i.i.i89, i32 -1 acq_rel, align 4
  br label %_ZN9__gnu_cxx27__exchange_and_add_dispatchEPii.exit.i.i.i.i95

_ZN9__gnu_cxx27__exchange_and_add_dispatchEPii.exit.i.i.i.i95: ; preds = %if.else.i.i.i.i.i112, %if.then.i.i.i.i.i93
  %retval.i.0.i.i.i.i96 = phi i32 [ %65, %if.then.i.i.i.i.i93 ], [ %68, %if.else.i.i.i.i.i112 ]
  %cmp6.i.i.i.i97 = icmp eq i32 %retval.i.0.i.i.i.i96, 1
  br i1 %cmp6.i.i.i.i97, label %if.then7.i.i.i.i98, label %if.end

if.then7.i.i.i.i98:                               ; preds = %_ZN9__gnu_cxx27__exchange_and_add_dispatchEPii.exit.i.i.i.i95
  %vtable.i.i.i.i.i.i99 = load ptr, ptr %63, align 8
  %vfn.i.i.i.i.i.i100 = getelementptr inbounds ptr, ptr %vtable.i.i.i.i.i.i99, i64 2
  %69 = load ptr, ptr %vfn.i.i.i.i.i.i100, align 8
  call void %69(ptr noundef nonnull align 8 dereferenceable(16) %63) #23
  %_M_weak_count.i.i.i.i.i.i101 = getelementptr inbounds %"class.std::_Sp_counted_base", ptr %63, i64 0, i32 2
  %70 = load i8, ptr @__libc_single_threaded, align 1
  %tobool.i.not.i.i.i.i.i.i102 = icmp eq i8 %70, 0
  br i1 %tobool.i.not.i.i.i.i.i.i102, label %if.else.i.i.i.i.i.i.i111, label %if.then.i.i.i.i.i.i.i103

if.then.i.i.i.i.i.i.i103:                         ; preds = %if.then7.i.i.i.i98
  %71 = load i32, ptr %_M_weak_count.i.i.i.i.i.i101, align 4
  %add.i.i.i.i.i.i.i104 = add nsw i32 %71, -1
  store i32 %add.i.i.i.i.i.i.i104, ptr %_M_weak_count.i.i.i.i.i.i101, align 4
  br label %_ZN9__gnu_cxx27__exchange_and_add_dispatchEPii.exit.i.i.i.i.i.i105

if.else.i.i.i.i.i.i.i111:                         ; preds = %if.then7.i.i.i.i98
  %72 = atomicrmw volatile add ptr %_M_weak_count.i.i.i.i.i.i101, i32 -1 acq_rel, align 4
  br label %_ZN9__gnu_cxx27__exchange_and_add_dispatchEPii.exit.i.i.i.i.i.i105

_ZN9__gnu_cxx27__exchange_and_add_dispatchEPii.exit.i.i.i.i.i.i105: ; preds = %if.else.i.i.i.i.i.i.i111, %if.then.i.i.i.i.i.i.i103
  %retval.i.0.i.i.i.i.i.i106 = phi i32 [ %71, %if.then.i.i.i.i.i.i.i103 ], [ %72, %if.else.i.i.i.i.i.i.i111 ]
  %cmp.i.i.i.i.i.i107 = icmp eq i32 %retval.i.0.i.i.i.i.i.i106, 1
  br i1 %cmp.i.i.i.i.i.i107, label %if.end8.sink.split.i.i.i.i108, label %if.end

if.end8.sink.split.i.i.i.i108:                    ; preds = %_ZN9__gnu_cxx27__exchange_and_add_dispatchEPii.exit.i.i.i.i.i.i105, %if.then.i.i.i.i113
  %vtable2.i.i.i.i.i.i109 = load ptr, ptr %63, align 8
  %vfn3.i.i.i.i.i.i110 = getelementptr inbounds ptr, ptr %vtable2.i.i.i.i.i.i109, i64 3
  %73 = load ptr, ptr %vfn3.i.i.i.i.i.i110, align 8
  call void %73(ptr noundef nonnull align 8 dereferenceable(16) %63) #23
  br label %if.end

lpad3:                                            ; preds = %if.then, %land.lhs.true, %_ZNSt10shared_ptrIKN7openvdb5v11_04math7MapBaseEED2Ev.exit
  %74 = landingpad { ptr, i32 }
          cleanup
  br label %ehcleanup

lpad16:                                           ; preds = %_ZNSt10shared_ptrIN7openvdb5v11_04math9AffineMapEEC2ERKS4_.exit
  %75 = landingpad { ptr, i32 }
          cleanup
  call void @_ZNSt10shared_ptrIN7openvdb5v11_04math9AffineMapEED2Ev(ptr noundef nonnull align 8 dereferenceable(16) %agg.tmp) #23
  call void @_ZNSt10shared_ptrIN7openvdb5v11_04math9AffineMapEED2Ev(ptr noundef nonnull align 8 dereferenceable(16) %affine) #23
  br label %ehcleanup

if.end:                                           ; preds = %if.end8.sink.split.i.i.i.i108, %_ZN9__gnu_cxx27__exchange_and_add_dispatchEPii.exit.i.i.i.i.i.i105, %_ZN9__gnu_cxx27__exchange_and_add_dispatchEPii.exit.i.i.i.i95, %_ZNSt10shared_ptrIN7openvdb5v11_04math9AffineMapEED2Ev.exit, %invoke.cont8, %invoke.cont4
  ret void

ehcleanup:                                        ; preds = %lpad16, %lpad3
  %.pn = phi { ptr, i32 } [ %75, %lpad16 ], [ %74, %lpad3 ]
  call void @_ZNSt10shared_ptrIN7openvdb5v11_04math7MapBaseEED2Ev(ptr noundef nonnull align 8 dereferenceable(16) %this) #23
  resume { ptr, i32 } %.pn
}

; Function Attrs: mustprogress nounwind uwtable
define linkonce_odr void @_ZNSt10shared_ptrIKN7openvdb5v11_04math7MapBaseEED2Ev(ptr noundef nonnull align 8 dereferenceable(16) %this) unnamed_addr #6 comdat align 2 personality ptr @__gxx_personality_v0 {
entry:
  %_M_refcount.i = getelementptr inbounds %"class.std::__shared_ptr.1", ptr %this, i64 0, i32 1
  %0 = load ptr, ptr %_M_refcount.i, align 8
  %cmp.not.i.i = icmp eq ptr %0, null
  br i1 %cmp.not.i.i, label %_ZNSt12__shared_ptrIKN7openvdb5v11_04math7MapBaseELN9__gnu_cxx12_Lock_policyE2EED2Ev.exit, label %if.then.i.i

if.then.i.i:                                      ; preds = %entry
  %_M_use_count.i.i.i = getelementptr inbounds %"class.std::_Sp_counted_base", ptr %0, i64 0, i32 1
  %1 = load atomic i64, ptr %_M_use_count.i.i.i acquire, align 8
  %cmp.i.i.i = icmp eq i64 %1, 4294967297
  %2 = trunc i64 %1 to i32
  br i1 %cmp.i.i.i, label %if.then.i.i.i, label %if.end.i.i.i

if.then.i.i.i:                                    ; preds = %if.then.i.i
  store i32 0, ptr %_M_use_count.i.i.i, align 8
  %_M_weak_count.i.i.i = getelementptr inbounds %"class.std::_Sp_counted_base", ptr %0, i64 0, i32 2
  store i32 0, ptr %_M_weak_count.i.i.i, align 4
  %vtable.i.i.i = load ptr, ptr %0, align 8
  %vfn.i.i.i = getelementptr inbounds ptr, ptr %vtable.i.i.i, i64 2
  %3 = load ptr, ptr %vfn.i.i.i, align 8
  tail call void %3(ptr noundef nonnull align 8 dereferenceable(16) %0) #23
  br label %if.end8.sink.split.i.i.i

if.end.i.i.i:                                     ; preds = %if.then.i.i
  %4 = load i8, ptr @__libc_single_threaded, align 1
  %tobool.i.not.i.i.i = icmp eq i8 %4, 0
  br i1 %tobool.i.not.i.i.i, label %if.else.i.i.i.i, label %if.then.i.i.i.i

if.then.i.i.i.i:                                  ; preds = %if.end.i.i.i
  %add.i.i.i.i = add nsw i32 %2, -1
  store i32 %add.i.i.i.i, ptr %_M_use_count.i.i.i, align 4
  br label %_ZN9__gnu_cxx27__exchange_and_add_dispatchEPii.exit.i.i.i

if.else.i.i.i.i:                                  ; preds = %if.end.i.i.i
  %5 = atomicrmw volatile add ptr %_M_use_count.i.i.i, i32 -1 acq_rel, align 4
  br label %_ZN9__gnu_cxx27__exchange_and_add_dispatchEPii.exit.i.i.i

_ZN9__gnu_cxx27__exchange_and_add_dispatchEPii.exit.i.i.i: ; preds = %if.else.i.i.i.i, %if.then.i.i.i.i
  %retval.i.0.i.i.i = phi i32 [ %2, %if.then.i.i.i.i ], [ %5, %if.else.i.i.i.i ]
  %cmp6.i.i.i = icmp eq i32 %retval.i.0.i.i.i, 1
  br i1 %cmp6.i.i.i, label %if.then7.i.i.i, label %_ZNSt12__shared_ptrIKN7openvdb5v11_04math7MapBaseELN9__gnu_cxx12_Lock_policyE2EED2Ev.exit

if.then7.i.i.i:                                   ; preds = %_ZN9__gnu_cxx27__exchange_and_add_dispatchEPii.exit.i.i.i
  %vtable.i.i.i.i.i = load ptr, ptr %0, align 8
  %vfn.i.i.i.i.i = getelementptr inbounds ptr, ptr %vtable.i.i.i.i.i, i64 2
  %6 = load ptr, ptr %vfn.i.i.i.i.i, align 8
  tail call void %6(ptr noundef nonnull align 8 dereferenceable(16) %0) #23
  %_M_weak_count.i.i.i.i.i = getelementptr inbounds %"class.std::_Sp_counted_base", ptr %0, i64 0, i32 2
  %7 = load i8, ptr @__libc_single_threaded, align 1
  %tobool.i.not.i.i.i.i.i = icmp eq i8 %7, 0
  br i1 %tobool.i.not.i.i.i.i.i, label %if.else.i.i.i.i.i.i, label %if.then.i.i.i.i.i.i

if.then.i.i.i.i.i.i:                              ; preds = %if.then7.i.i.i
  %8 = load i32, ptr %_M_weak_count.i.i.i.i.i, align 4
  %add.i.i.i.i.i.i = add nsw i32 %8, -1
  store i32 %add.i.i.i.i.i.i, ptr %_M_weak_count.i.i.i.i.i, align 4
  br label %_ZN9__gnu_cxx27__exchange_and_add_dispatchEPii.exit.i.i.i.i.i

if.else.i.i.i.i.i.i:                              ; preds = %if.then7.i.i.i
  %9 = atomicrmw volatile add ptr %_M_weak_count.i.i.i.i.i, i32 -1 acq_rel, align 4
  br label %_ZN9__gnu_cxx27__exchange_and_add_dispatchEPii.exit.i.i.i.i.i

_ZN9__gnu_cxx27__exchange_and_add_dispatchEPii.exit.i.i.i.i.i: ; preds = %if.else.i.i.i.i.i.i, %if.then.i.i.i.i.i.i
  %retval.i.0.i.i.i.i.i = phi i32 [ %8, %if.then.i.i.i.i.i.i ], [ %9, %if.else.i.i.i.i.i.i ]
  %cmp.i.i.i.i.i = icmp eq i32 %retval.i.0.i.i.i.i.i, 1
  br i1 %cmp.i.i.i.i.i, label %if.end8.sink.split.i.i.i, label %_ZNSt12__shared_ptrIKN7openvdb5v11_04math7MapBaseELN9__gnu_cxx12_Lock_policyE2EED2Ev.exit

if.end8.sink.split.i.i.i:                         ; preds = %_ZN9__gnu_cxx27__exchange_and_add_dispatchEPii.exit.i.i.i.i.i, %if.then.i.i.i
  %vtable2.i.i.i.i.i = load ptr, ptr %0, align 8
  %vfn3.i.i.i.i.i = getelementptr inbounds ptr, ptr %vtable2.i.i.i.i.i, i64 3
  %10 = load ptr, ptr %vfn3.i.i.i.i.i, align 8
  tail call void %10(ptr noundef nonnull align 8 dereferenceable(16) %0) #23
  br label %_ZNSt12__shared_ptrIKN7openvdb5v11_04math7MapBaseELN9__gnu_cxx12_Lock_policyE2EED2Ev.exit

_ZNSt12__shared_ptrIKN7openvdb5v11_04math7MapBaseELN9__gnu_cxx12_Lock_policyE2EED2Ev.exit: ; preds = %entry, %_ZN9__gnu_cxx27__exchange_and_add_dispatchEPii.exit.i.i.i, %_ZN9__gnu_cxx27__exchange_and_add_dispatchEPii.exit.i.i.i.i.i, %if.end8.sink.split.i.i.i
  ret void
}

; Function Attrs: mustprogress uwtable
define linkonce_odr noundef zeroext i1 @_ZNK7openvdb5v11_04math7MapBase6isTypeINS1_15UniformScaleMapEEEbv(ptr noundef nonnull align 8 dereferenceable(8) %this) local_unnamed_addr #3 comdat align 2 personality ptr @__gxx_personality_v0 {
entry:
  %ref.tmp = alloca %"class.std::__cxx11::basic_string", align 8
  %ref.tmp2 = alloca %"class.std::__cxx11::basic_string", align 8
  %vtable = load ptr, ptr %this, align 8
  %vfn = getelementptr inbounds ptr, ptr %vtable, i64 3
  %0 = load ptr, ptr %vfn, align 8
  call void %0(ptr nonnull sret(%"class.std::__cxx11::basic_string") align 8 %ref.tmp, ptr noundef nonnull align 8 dereferenceable(8) %this)
  invoke void @_ZN7openvdb5v11_04math15UniformScaleMap7mapTypeB5cxx11Ev(ptr nonnull sret(%"class.std::__cxx11::basic_string") align 8 %ref.tmp2)
          to label %invoke.cont unwind label %lpad

invoke.cont:                                      ; preds = %entry
  %call.i = call noundef i64 @_ZNKSt7__cxx1112basic_stringIcSt11char_traitsIcESaIcEE4sizeEv(ptr noundef nonnull align 8 dereferenceable(32) %ref.tmp) #23
  %call1.i = call noundef i64 @_ZNKSt7__cxx1112basic_stringIcSt11char_traitsIcESaIcEE4sizeEv(ptr noundef nonnull align 8 dereferenceable(32) %ref.tmp2) #23
  %cmp.i = icmp eq i64 %call.i, %call1.i
  br i1 %cmp.i, label %land.rhs.i, label %_ZSteqIcEN9__gnu_cxx11__enable_ifIXsr9__is_charIT_EE7__valueEbE6__typeERKNSt7__cxx1112basic_stringIS2_St11char_traitsIS2_ESaIS2_EEESC_.exit

land.rhs.i:                                       ; preds = %invoke.cont
  %call2.i = call noundef ptr @_ZNKSt7__cxx1112basic_stringIcSt11char_traitsIcESaIcEE4dataEv(ptr noundef nonnull align 8 dereferenceable(32) %ref.tmp) #23
  %call3.i = call noundef ptr @_ZNKSt7__cxx1112basic_stringIcSt11char_traitsIcESaIcEE4dataEv(ptr noundef nonnull align 8 dereferenceable(32) %ref.tmp2) #23
  %call4.i = call noundef i64 @_ZNKSt7__cxx1112basic_stringIcSt11char_traitsIcESaIcEE4sizeEv(ptr noundef nonnull align 8 dereferenceable(32) %ref.tmp) #23
  %cmp.i.i = icmp eq i64 %call4.i, 0
  br i1 %cmp.i.i, label %_ZSteqIcEN9__gnu_cxx11__enable_ifIXsr9__is_charIT_EE7__valueEbE6__typeERKNSt7__cxx1112basic_stringIS2_St11char_traitsIS2_ESaIS2_EEESC_.exit, label %if.end.i.i

if.end.i.i:                                       ; preds = %land.rhs.i
  %bcmp.i = call i32 @bcmp(ptr %call2.i, ptr %call3.i, i64 %call4.i)
  %1 = icmp eq i32 %bcmp.i, 0
  br label %_ZSteqIcEN9__gnu_cxx11__enable_ifIXsr9__is_charIT_EE7__valueEbE6__typeERKNSt7__cxx1112basic_stringIS2_St11char_traitsIS2_ESaIS2_EEESC_.exit

_ZSteqIcEN9__gnu_cxx11__enable_ifIXsr9__is_charIT_EE7__valueEbE6__typeERKNSt7__cxx1112basic_stringIS2_St11char_traitsIS2_ESaIS2_EEESC_.exit: ; preds = %invoke.cont, %land.rhs.i, %if.end.i.i
  %2 = phi i1 [ false, %invoke.cont ], [ %1, %if.end.i.i ], [ true, %land.rhs.i ]
  call void @_ZNSt7__cxx1112basic_stringIcSt11char_traitsIcESaIcEED1Ev(ptr noundef nonnull align 8 dereferenceable(32) %ref.tmp2) #23
  call void @_ZNSt7__cxx1112basic_stringIcSt11char_traitsIcESaIcEED1Ev(ptr noundef nonnull align 8 dereferenceable(32) %ref.tmp) #23
  ret i1 %2

lpad:                                             ; preds = %entry
  %3 = landingpad { ptr, i32 }
          cleanup
  call void @_ZNSt7__cxx1112basic_stringIcSt11char_traitsIcESaIcEED1Ev(ptr noundef nonnull align 8 dereferenceable(32) %ref.tmp) #23
  resume { ptr, i32 } %3
}

declare void @_ZN7openvdb5v11_04math8simplifyESt10shared_ptrINS1_9AffineMapEE(ptr sret(%"class.std::shared_ptr") align 8, ptr noundef) local_unnamed_addr #0

; Function Attrs: mustprogress nounwind uwtable
define linkonce_odr void @_ZNSt10shared_ptrIN7openvdb5v11_04math7MapBaseEED2Ev(ptr noundef nonnull align 8 dereferenceable(16) %this) unnamed_addr #6 comdat align 2 personality ptr @__gxx_personality_v0 {
entry:
  %_M_refcount.i = getelementptr inbounds %"class.std::__shared_ptr", ptr %this, i64 0, i32 1
  %0 = load ptr, ptr %_M_refcount.i, align 8
  %cmp.not.i.i = icmp eq ptr %0, null
  br i1 %cmp.not.i.i, label %_ZNSt12__shared_ptrIN7openvdb5v11_04math7MapBaseELN9__gnu_cxx12_Lock_policyE2EED2Ev.exit, label %if.then.i.i

if.then.i.i:                                      ; preds = %entry
  %_M_use_count.i.i.i = getelementptr inbounds %"class.std::_Sp_counted_base", ptr %0, i64 0, i32 1
  %1 = load atomic i64, ptr %_M_use_count.i.i.i acquire, align 8
  %cmp.i.i.i = icmp eq i64 %1, 4294967297
  %2 = trunc i64 %1 to i32
  br i1 %cmp.i.i.i, label %if.then.i.i.i, label %if.end.i.i.i

if.then.i.i.i:                                    ; preds = %if.then.i.i
  store i32 0, ptr %_M_use_count.i.i.i, align 8
  %_M_weak_count.i.i.i = getelementptr inbounds %"class.std::_Sp_counted_base", ptr %0, i64 0, i32 2
  store i32 0, ptr %_M_weak_count.i.i.i, align 4
  %vtable.i.i.i = load ptr, ptr %0, align 8
  %vfn.i.i.i = getelementptr inbounds ptr, ptr %vtable.i.i.i, i64 2
  %3 = load ptr, ptr %vfn.i.i.i, align 8
  tail call void %3(ptr noundef nonnull align 8 dereferenceable(16) %0) #23
  br label %if.end8.sink.split.i.i.i

if.end.i.i.i:                                     ; preds = %if.then.i.i
  %4 = load i8, ptr @__libc_single_threaded, align 1
  %tobool.i.not.i.i.i = icmp eq i8 %4, 0
  br i1 %tobool.i.not.i.i.i, label %if.else.i.i.i.i, label %if.then.i.i.i.i

if.then.i.i.i.i:                                  ; preds = %if.end.i.i.i
  %add.i.i.i.i = add nsw i32 %2, -1
  store i32 %add.i.i.i.i, ptr %_M_use_count.i.i.i, align 4
  br label %_ZN9__gnu_cxx27__exchange_and_add_dispatchEPii.exit.i.i.i

if.else.i.i.i.i:                                  ; preds = %if.end.i.i.i
  %5 = atomicrmw volatile add ptr %_M_use_count.i.i.i, i32 -1 acq_rel, align 4
  br label %_ZN9__gnu_cxx27__exchange_and_add_dispatchEPii.exit.i.i.i

_ZN9__gnu_cxx27__exchange_and_add_dispatchEPii.exit.i.i.i: ; preds = %if.else.i.i.i.i, %if.then.i.i.i.i
  %retval.i.0.i.i.i = phi i32 [ %2, %if.then.i.i.i.i ], [ %5, %if.else.i.i.i.i ]
  %cmp6.i.i.i = icmp eq i32 %retval.i.0.i.i.i, 1
  br i1 %cmp6.i.i.i, label %if.then7.i.i.i, label %_ZNSt12__shared_ptrIN7openvdb5v11_04math7MapBaseELN9__gnu_cxx12_Lock_policyE2EED2Ev.exit

if.then7.i.i.i:                                   ; preds = %_ZN9__gnu_cxx27__exchange_and_add_dispatchEPii.exit.i.i.i
  %vtable.i.i.i.i.i = load ptr, ptr %0, align 8
  %vfn.i.i.i.i.i = getelementptr inbounds ptr, ptr %vtable.i.i.i.i.i, i64 2
  %6 = load ptr, ptr %vfn.i.i.i.i.i, align 8
  tail call void %6(ptr noundef nonnull align 8 dereferenceable(16) %0) #23
  %_M_weak_count.i.i.i.i.i = getelementptr inbounds %"class.std::_Sp_counted_base", ptr %0, i64 0, i32 2
  %7 = load i8, ptr @__libc_single_threaded, align 1
  %tobool.i.not.i.i.i.i.i = icmp eq i8 %7, 0
  br i1 %tobool.i.not.i.i.i.i.i, label %if.else.i.i.i.i.i.i, label %if.then.i.i.i.i.i.i

if.then.i.i.i.i.i.i:                              ; preds = %if.then7.i.i.i
  %8 = load i32, ptr %_M_weak_count.i.i.i.i.i, align 4
  %add.i.i.i.i.i.i = add nsw i32 %8, -1
  store i32 %add.i.i.i.i.i.i, ptr %_M_weak_count.i.i.i.i.i, align 4
  br label %_ZN9__gnu_cxx27__exchange_and_add_dispatchEPii.exit.i.i.i.i.i

if.else.i.i.i.i.i.i:                              ; preds = %if.then7.i.i.i
  %9 = atomicrmw volatile add ptr %_M_weak_count.i.i.i.i.i, i32 -1 acq_rel, align 4
  br label %_ZN9__gnu_cxx27__exchange_and_add_dispatchEPii.exit.i.i.i.i.i

_ZN9__gnu_cxx27__exchange_and_add_dispatchEPii.exit.i.i.i.i.i: ; preds = %if.else.i.i.i.i.i.i, %if.then.i.i.i.i.i.i
  %retval.i.0.i.i.i.i.i = phi i32 [ %8, %if.then.i.i.i.i.i.i ], [ %9, %if.else.i.i.i.i.i.i ]
  %cmp.i.i.i.i.i = icmp eq i32 %retval.i.0.i.i.i.i.i, 1
  br i1 %cmp.i.i.i.i.i, label %if.end8.sink.split.i.i.i, label %_ZNSt12__shared_ptrIN7openvdb5v11_04math7MapBaseELN9__gnu_cxx12_Lock_policyE2EED2Ev.exit

if.end8.sink.split.i.i.i:                         ; preds = %_ZN9__gnu_cxx27__exchange_and_add_dispatchEPii.exit.i.i.i.i.i, %if.then.i.i.i
  %vtable2.i.i.i.i.i = load ptr, ptr %0, align 8
  %vfn3.i.i.i.i.i = getelementptr inbounds ptr, ptr %vtable2.i.i.i.i.i, i64 3
  %10 = load ptr, ptr %vfn3.i.i.i.i.i, align 8
  tail call void %10(ptr noundef nonnull align 8 dereferenceable(16) %0) #23
  br label %_ZNSt12__shared_ptrIN7openvdb5v11_04math7MapBaseELN9__gnu_cxx12_Lock_policyE2EED2Ev.exit

_ZNSt12__shared_ptrIN7openvdb5v11_04math7MapBaseELN9__gnu_cxx12_Lock_policyE2EED2Ev.exit: ; preds = %entry, %_ZN9__gnu_cxx27__exchange_and_add_dispatchEPii.exit.i.i.i, %_ZN9__gnu_cxx27__exchange_and_add_dispatchEPii.exit.i.i.i.i.i, %if.end8.sink.split.i.i.i
  ret void
}

; Function Attrs: mustprogress nounwind uwtable
define linkonce_odr void @_ZNSt10shared_ptrIN7openvdb5v11_04math9AffineMapEED2Ev(ptr noundef nonnull align 8 dereferenceable(16) %this) unnamed_addr #6 comdat align 2 personality ptr @__gxx_personality_v0 {
entry:
  %_M_refcount.i = getelementptr inbounds %"class.std::__shared_ptr.4", ptr %this, i64 0, i32 1
  %0 = load ptr, ptr %_M_refcount.i, align 8
  %cmp.not.i.i = icmp eq ptr %0, null
  br i1 %cmp.not.i.i, label %_ZNSt12__shared_ptrIN7openvdb5v11_04math9AffineMapELN9__gnu_cxx12_Lock_policyE2EED2Ev.exit, label %if.then.i.i

if.then.i.i:                                      ; preds = %entry
  %_M_use_count.i.i.i = getelementptr inbounds %"class.std::_Sp_counted_base", ptr %0, i64 0, i32 1
  %1 = load atomic i64, ptr %_M_use_count.i.i.i acquire, align 8
  %cmp.i.i.i = icmp eq i64 %1, 4294967297
  %2 = trunc i64 %1 to i32
  br i1 %cmp.i.i.i, label %if.then.i.i.i, label %if.end.i.i.i

if.then.i.i.i:                                    ; preds = %if.then.i.i
  store i32 0, ptr %_M_use_count.i.i.i, align 8
  %_M_weak_count.i.i.i = getelementptr inbounds %"class.std::_Sp_counted_base", ptr %0, i64 0, i32 2
  store i32 0, ptr %_M_weak_count.i.i.i, align 4
  %vtable.i.i.i = load ptr, ptr %0, align 8
  %vfn.i.i.i = getelementptr inbounds ptr, ptr %vtable.i.i.i, i64 2
  %3 = load ptr, ptr %vfn.i.i.i, align 8
  tail call void %3(ptr noundef nonnull align 8 dereferenceable(16) %0) #23
  br label %if.end8.sink.split.i.i.i

if.end.i.i.i:                                     ; preds = %if.then.i.i
  %4 = load i8, ptr @__libc_single_threaded, align 1
  %tobool.i.not.i.i.i = icmp eq i8 %4, 0
  br i1 %tobool.i.not.i.i.i, label %if.else.i.i.i.i, label %if.then.i.i.i.i

if.then.i.i.i.i:                                  ; preds = %if.end.i.i.i
  %add.i.i.i.i = add nsw i32 %2, -1
  store i32 %add.i.i.i.i, ptr %_M_use_count.i.i.i, align 4
  br label %_ZN9__gnu_cxx27__exchange_and_add_dispatchEPii.exit.i.i.i

if.else.i.i.i.i:                                  ; preds = %if.end.i.i.i
  %5 = atomicrmw volatile add ptr %_M_use_count.i.i.i, i32 -1 acq_rel, align 4
  br label %_ZN9__gnu_cxx27__exchange_and_add_dispatchEPii.exit.i.i.i

_ZN9__gnu_cxx27__exchange_and_add_dispatchEPii.exit.i.i.i: ; preds = %if.else.i.i.i.i, %if.then.i.i.i.i
  %retval.i.0.i.i.i = phi i32 [ %2, %if.then.i.i.i.i ], [ %5, %if.else.i.i.i.i ]
  %cmp6.i.i.i = icmp eq i32 %retval.i.0.i.i.i, 1
  br i1 %cmp6.i.i.i, label %if.then7.i.i.i, label %_ZNSt12__shared_ptrIN7openvdb5v11_04math9AffineMapELN9__gnu_cxx12_Lock_policyE2EED2Ev.exit

if.then7.i.i.i:                                   ; preds = %_ZN9__gnu_cxx27__exchange_and_add_dispatchEPii.exit.i.i.i
  %vtable.i.i.i.i.i = load ptr, ptr %0, align 8
  %vfn.i.i.i.i.i = getelementptr inbounds ptr, ptr %vtable.i.i.i.i.i, i64 2
  %6 = load ptr, ptr %vfn.i.i.i.i.i, align 8
  tail call void %6(ptr noundef nonnull align 8 dereferenceable(16) %0) #23
  %_M_weak_count.i.i.i.i.i = getelementptr inbounds %"class.std::_Sp_counted_base", ptr %0, i64 0, i32 2
  %7 = load i8, ptr @__libc_single_threaded, align 1
  %tobool.i.not.i.i.i.i.i = icmp eq i8 %7, 0
  br i1 %tobool.i.not.i.i.i.i.i, label %if.else.i.i.i.i.i.i, label %if.then.i.i.i.i.i.i

if.then.i.i.i.i.i.i:                              ; preds = %if.then7.i.i.i
  %8 = load i32, ptr %_M_weak_count.i.i.i.i.i, align 4
  %add.i.i.i.i.i.i = add nsw i32 %8, -1
  store i32 %add.i.i.i.i.i.i, ptr %_M_weak_count.i.i.i.i.i, align 4
  br label %_ZN9__gnu_cxx27__exchange_and_add_dispatchEPii.exit.i.i.i.i.i

if.else.i.i.i.i.i.i:                              ; preds = %if.then7.i.i.i
  %9 = atomicrmw volatile add ptr %_M_weak_count.i.i.i.i.i, i32 -1 acq_rel, align 4
  br label %_ZN9__gnu_cxx27__exchange_and_add_dispatchEPii.exit.i.i.i.i.i

_ZN9__gnu_cxx27__exchange_and_add_dispatchEPii.exit.i.i.i.i.i: ; preds = %if.else.i.i.i.i.i.i, %if.then.i.i.i.i.i.i
  %retval.i.0.i.i.i.i.i = phi i32 [ %8, %if.then.i.i.i.i.i.i ], [ %9, %if.else.i.i.i.i.i.i ]
  %cmp.i.i.i.i.i = icmp eq i32 %retval.i.0.i.i.i.i.i, 1
  br i1 %cmp.i.i.i.i.i, label %if.end8.sink.split.i.i.i, label %_ZNSt12__shared_ptrIN7openvdb5v11_04math9AffineMapELN9__gnu_cxx12_Lock_policyE2EED2Ev.exit

if.end8.sink.split.i.i.i:                         ; preds = %_ZN9__gnu_cxx27__exchange_and_add_dispatchEPii.exit.i.i.i.i.i, %if.then.i.i.i
  %vtable2.i.i.i.i.i = load ptr, ptr %0, align 8
  %vfn3.i.i.i.i.i = getelementptr inbounds ptr, ptr %vtable2.i.i.i.i.i, i64 3
  %10 = load ptr, ptr %vfn3.i.i.i.i.i, align 8
  tail call void %10(ptr noundef nonnull align 8 dereferenceable(16) %0) #23
  br label %_ZNSt12__shared_ptrIN7openvdb5v11_04math9AffineMapELN9__gnu_cxx12_Lock_policyE2EED2Ev.exit

_ZNSt12__shared_ptrIN7openvdb5v11_04math9AffineMapELN9__gnu_cxx12_Lock_policyE2EED2Ev.exit: ; preds = %entry, %_ZN9__gnu_cxx27__exchange_and_add_dispatchEPii.exit.i.i.i, %_ZN9__gnu_cxx27__exchange_and_add_dispatchEPii.exit.i.i.i.i.i, %if.end8.sink.split.i.i.i
  ret void
}

; Function Attrs: mustprogress uwtable
define void @_ZN7openvdb5v11_04math9TransformC2ERKS2_(ptr nocapture noundef nonnull writeonly align 8 dereferenceable(16) %this, ptr nocapture noundef nonnull readonly align 8 dereferenceable(16) %other) unnamed_addr #3 align 2 personality ptr @__gxx_personality_v0 {
entry:
  %0 = load ptr, ptr %other, align 8, !noalias !25
  %_M_refcount3.i.i.i = getelementptr inbounds %"class.std::__shared_ptr", ptr %other, i64 0, i32 1
  %1 = load ptr, ptr %_M_refcount3.i.i.i, align 8, !noalias !25
  %cmp.not.i.i.i.i = icmp eq ptr %1, null
  br i1 %cmp.not.i.i.i.i, label %_ZN7openvdb5v11_012ConstPtrCastINS0_4math7MapBaseEKS3_EESt10shared_ptrIT_ERKS5_IT0_E.exit, label %if.then.i.i.i.i

if.then.i.i.i.i:                                  ; preds = %entry
  %_M_use_count.i.i.i.i.i = getelementptr inbounds %"class.std::_Sp_counted_base", ptr %1, i64 0, i32 1
  %2 = load i8, ptr @__libc_single_threaded, align 1, !noalias !25
  %tobool.i.i.not.i.i.i.i.i = icmp eq i8 %2, 0
  br i1 %tobool.i.i.not.i.i.i.i.i, label %if.else.i.i.i.i.i.i, label %if.then.i.i.i.i.i.i

if.then.i.i.i.i.i.i:                              ; preds = %if.then.i.i.i.i
  %3 = load i32, ptr %_M_use_count.i.i.i.i.i, align 4, !noalias !25
  %add.i.i.i.i.i.i = add nsw i32 %3, 1
  store i32 %add.i.i.i.i.i.i, ptr %_M_use_count.i.i.i.i.i, align 4, !noalias !25
  br label %if.then.i.i.i.i.i

if.else.i.i.i.i.i.i:                              ; preds = %if.then.i.i.i.i
  %4 = atomicrmw volatile add ptr %_M_use_count.i.i.i.i.i, i32 1 acq_rel, align 4, !noalias !25
  br label %if.then.i.i.i.i.i

if.then.i.i.i.i.i:                                ; preds = %if.then.i.i.i.i.i.i, %if.else.i.i.i.i.i.i
  store ptr %0, ptr %this, align 8, !alias.scope !28
  %_M_refcount.i.i.i.i7 = getelementptr inbounds %"class.std::__shared_ptr", ptr %this, i64 0, i32 1
  store ptr %1, ptr %_M_refcount.i.i.i.i7, align 8, !alias.scope !28
  %5 = load i8, ptr @__libc_single_threaded, align 1, !noalias !33
  %tobool.i.i.not.i.i.i.i.i.i = icmp eq i8 %5, 0
  br i1 %tobool.i.i.not.i.i.i.i.i.i, label %if.else.i.i.i.i.i.i.i, label %if.then.i.i.i.i.i.i.i

if.then.i.i.i.i.i.i.i:                            ; preds = %if.then.i.i.i.i.i
  %6 = load i32, ptr %_M_use_count.i.i.i.i.i, align 4, !noalias !33
  %add.i.i.i.i.i.i.i = add nsw i32 %6, 1
  store i32 %add.i.i.i.i.i.i.i, ptr %_M_use_count.i.i.i.i.i, align 4, !noalias !33
  br label %if.then.i.i.i

if.else.i.i.i.i.i.i.i:                            ; preds = %if.then.i.i.i.i.i
  %7 = atomicrmw volatile add ptr %_M_use_count.i.i.i.i.i, i32 1 acq_rel, align 4, !noalias !33
  br label %if.then.i.i.i

_ZN7openvdb5v11_012ConstPtrCastINS0_4math7MapBaseEKS3_EESt10shared_ptrIT_ERKS5_IT0_E.exit: ; preds = %entry
  tail call void @llvm.experimental.noalias.scope.decl(metadata !36)
  tail call void @llvm.experimental.noalias.scope.decl(metadata !37)
  store ptr %0, ptr %this, align 8, !alias.scope !33
  %_M_refcount.i.i.i.i = getelementptr inbounds %"class.std::__shared_ptr", ptr %this, i64 0, i32 1
  store ptr null, ptr %_M_refcount.i.i.i.i, align 8, !alias.scope !33
  br label %_ZNSt10shared_ptrIKN7openvdb5v11_04math7MapBaseEED2Ev.exit

if.then.i.i.i:                                    ; preds = %if.then.i.i.i.i.i.i.i, %if.else.i.i.i.i.i.i.i
  %8 = load atomic i64, ptr %_M_use_count.i.i.i.i.i acquire, align 8
  %cmp.i.i.i.i = icmp eq i64 %8, 4294967297
  %9 = trunc i64 %8 to i32
  br i1 %cmp.i.i.i.i, label %if.then.i.i.i.i5, label %if.end.i.i.i.i

if.then.i.i.i.i5:                                 ; preds = %if.then.i.i.i
  store i32 0, ptr %_M_use_count.i.i.i.i.i, align 8
  %_M_weak_count.i.i.i.i = getelementptr inbounds %"class.std::_Sp_counted_base", ptr %1, i64 0, i32 2
  store i32 0, ptr %_M_weak_count.i.i.i.i, align 4
  %vtable.i.i.i.i = load ptr, ptr %1, align 8
  %vfn.i.i.i.i = getelementptr inbounds ptr, ptr %vtable.i.i.i.i, i64 2
  %10 = load ptr, ptr %vfn.i.i.i.i, align 8
  tail call void %10(ptr noundef nonnull align 8 dereferenceable(16) %1) #23
  br label %if.end8.sink.split.i.i.i.i

if.end.i.i.i.i:                                   ; preds = %if.then.i.i.i
  %11 = load i8, ptr @__libc_single_threaded, align 1
  %tobool.i.not.i.i.i.i = icmp eq i8 %11, 0
  br i1 %tobool.i.not.i.i.i.i, label %if.else.i.i.i.i.i, label %if.then.i.i.i.i.i1

if.then.i.i.i.i.i1:                               ; preds = %if.end.i.i.i.i
  %add.i.i.i.i.i = add nsw i32 %9, -1
  store i32 %add.i.i.i.i.i, ptr %_M_use_count.i.i.i.i.i, align 4
  br label %_ZN9__gnu_cxx27__exchange_and_add_dispatchEPii.exit.i.i.i.i

if.else.i.i.i.i.i:                                ; preds = %if.end.i.i.i.i
  %12 = atomicrmw volatile add ptr %_M_use_count.i.i.i.i.i, i32 -1 acq_rel, align 4
  br label %_ZN9__gnu_cxx27__exchange_and_add_dispatchEPii.exit.i.i.i.i

_ZN9__gnu_cxx27__exchange_and_add_dispatchEPii.exit.i.i.i.i: ; preds = %if.else.i.i.i.i.i, %if.then.i.i.i.i.i1
  %retval.i.0.i.i.i.i = phi i32 [ %9, %if.then.i.i.i.i.i1 ], [ %12, %if.else.i.i.i.i.i ]
  %cmp6.i.i.i.i = icmp eq i32 %retval.i.0.i.i.i.i, 1
  br i1 %cmp6.i.i.i.i, label %if.then7.i.i.i.i, label %_ZNSt10shared_ptrIKN7openvdb5v11_04math7MapBaseEED2Ev.exit

if.then7.i.i.i.i:                                 ; preds = %_ZN9__gnu_cxx27__exchange_and_add_dispatchEPii.exit.i.i.i.i
  %vtable.i.i.i.i.i.i = load ptr, ptr %1, align 8
  %vfn.i.i.i.i.i.i = getelementptr inbounds ptr, ptr %vtable.i.i.i.i.i.i, i64 2
  %13 = load ptr, ptr %vfn.i.i.i.i.i.i, align 8
  tail call void %13(ptr noundef nonnull align 8 dereferenceable(16) %1) #23
  %_M_weak_count.i.i.i.i.i.i = getelementptr inbounds %"class.std::_Sp_counted_base", ptr %1, i64 0, i32 2
  %14 = load i8, ptr @__libc_single_threaded, align 1
  %tobool.i.not.i.i.i.i.i.i = icmp eq i8 %14, 0
  br i1 %tobool.i.not.i.i.i.i.i.i, label %if.else.i.i.i.i.i.i.i4, label %if.then.i.i.i.i.i.i.i2

if.then.i.i.i.i.i.i.i2:                           ; preds = %if.then7.i.i.i.i
  %15 = load i32, ptr %_M_weak_count.i.i.i.i.i.i, align 4
  %add.i.i.i.i.i.i.i3 = add nsw i32 %15, -1
  store i32 %add.i.i.i.i.i.i.i3, ptr %_M_weak_count.i.i.i.i.i.i, align 4
  br label %_ZN9__gnu_cxx27__exchange_and_add_dispatchEPii.exit.i.i.i.i.i.i

if.else.i.i.i.i.i.i.i4:                           ; preds = %if.then7.i.i.i.i
  %16 = atomicrmw volatile add ptr %_M_weak_count.i.i.i.i.i.i, i32 -1 acq_rel, align 4
  br label %_ZN9__gnu_cxx27__exchange_and_add_dispatchEPii.exit.i.i.i.i.i.i

_ZN9__gnu_cxx27__exchange_and_add_dispatchEPii.exit.i.i.i.i.i.i: ; preds = %if.else.i.i.i.i.i.i.i4, %if.then.i.i.i.i.i.i.i2
  %retval.i.0.i.i.i.i.i.i = phi i32 [ %15, %if.then.i.i.i.i.i.i.i2 ], [ %16, %if.else.i.i.i.i.i.i.i4 ]
  %cmp.i.i.i.i.i.i = icmp eq i32 %retval.i.0.i.i.i.i.i.i, 1
  br i1 %cmp.i.i.i.i.i.i, label %if.end8.sink.split.i.i.i.i, label %_ZNSt10shared_ptrIKN7openvdb5v11_04math7MapBaseEED2Ev.exit

if.end8.sink.split.i.i.i.i:                       ; preds = %_ZN9__gnu_cxx27__exchange_and_add_dispatchEPii.exit.i.i.i.i.i.i, %if.then.i.i.i.i5
  %vtable2.i.i.i.i.i.i = load ptr, ptr %1, align 8
  %vfn3.i.i.i.i.i.i = getelementptr inbounds ptr, ptr %vtable2.i.i.i.i.i.i, i64 3
  %17 = load ptr, ptr %vfn3.i.i.i.i.i.i, align 8
  tail call void %17(ptr noundef nonnull align 8 dereferenceable(16) %1) #23
  br label %_ZNSt10shared_ptrIKN7openvdb5v11_04math7MapBaseEED2Ev.exit

_ZNSt10shared_ptrIKN7openvdb5v11_04math7MapBaseEED2Ev.exit: ; preds = %_ZN7openvdb5v11_012ConstPtrCastINS0_4math7MapBaseEKS3_EESt10shared_ptrIT_ERKS5_IT0_E.exit, %_ZN9__gnu_cxx27__exchange_and_add_dispatchEPii.exit.i.i.i.i, %_ZN9__gnu_cxx27__exchange_and_add_dispatchEPii.exit.i.i.i.i.i.i, %if.end8.sink.split.i.i.i.i
  ret void
}

; Function Attrs: mustprogress uwtable
define void @_ZN7openvdb5v11_04math9Transform21createLinearTransformEd(ptr noalias sret(%"class.std::shared_ptr.6") align 8 %agg.result, double noundef %voxelDim) local_unnamed_addr #3 align 2 personality ptr @__gxx_personality_v0 {
entry:
  %ref.tmp.i = alloca %"class.openvdb::v11_0::math::Vec3", align 8
  %ref.tmp = alloca %"class.std::shared_ptr", align 8
  %call = tail call noalias noundef nonnull dereferenceable(16) ptr @_Znwm(i64 noundef 16) #22
  %call1 = invoke noalias noundef nonnull dereferenceable(128) ptr @_Znwm(i64 noundef 128) #22
          to label %invoke.cont unwind label %lpad

invoke.cont:                                      ; preds = %entry
  call void @llvm.lifetime.start.p0(i64 24, ptr nonnull %ref.tmp.i)
  store double %voxelDim, ptr %ref.tmp.i, align 8
  %arrayidx3.i.i = getelementptr inbounds [3 x double], ptr %ref.tmp.i, i64 0, i64 1
  store double %voxelDim, ptr %arrayidx3.i.i, align 8
  %arrayidx5.i.i = getelementptr inbounds [3 x double], ptr %ref.tmp.i, i64 0, i64 2
  store double %voxelDim, ptr %arrayidx5.i.i, align 8
  invoke void @_ZN7openvdb5v11_04math8ScaleMapC2ERKNS1_4Vec3IdEE(ptr noundef nonnull align 8 dereferenceable(128) %call1, ptr noundef nonnull align 8 dereferenceable(24) %ref.tmp.i)
          to label %invoke.cont3 unwind label %lpad2

invoke.cont3:                                     ; preds = %invoke.cont
  store ptr getelementptr inbounds ({ [38 x ptr] }, ptr @_ZTVN7openvdb5v11_04math15UniformScaleMapE, i64 0, inrange i32 0, i64 2), ptr %call1, align 8
  call void @llvm.lifetime.end.p0(i64 24, ptr nonnull %ref.tmp.i)
  store ptr %call1, ptr %ref.tmp, align 8
  %_M_refcount.i.i = getelementptr inbounds %"class.std::__shared_ptr", ptr %ref.tmp, i64 0, i32 1
  store ptr null, ptr %_M_refcount.i.i, align 8
  %call.i.i.i.i = invoke noalias noundef nonnull dereferenceable(24) ptr @_Znwm(i64 noundef 24) #22
          to label %invoke.cont4 unwind label %lpad.i.i.i.i

lpad.i.i.i.i:                                     ; preds = %invoke.cont3
  %0 = landingpad { ptr, i32 }
          catch ptr null
  %1 = extractvalue { ptr, i32 } %0, 0
  %2 = call ptr @__cxa_begin_catch(ptr %1) #23
  call void @_ZdlPv(ptr noundef nonnull %call1) #26
  invoke void @__cxa_rethrow() #24
          to label %unreachable.i.i.i.i unwind label %lpad3.i.i.i.i

lpad3.i.i.i.i:                                    ; preds = %lpad.i.i.i.i
  %3 = landingpad { ptr, i32 }
          cleanup
  invoke void @__cxa_end_catch()
          to label %cleanup.action unwind label %terminate.lpad.i.i.i.i

terminate.lpad.i.i.i.i:                           ; preds = %lpad3.i.i.i.i
  %4 = landingpad { ptr, i32 }
          catch ptr null
  %5 = extractvalue { ptr, i32 } %4, 0
  call void @__clang_call_terminate(ptr %5) #25
  unreachable

unreachable.i.i.i.i:                              ; preds = %lpad.i.i.i.i
  unreachable

invoke.cont4:                                     ; preds = %invoke.cont3
  %_M_use_count.i.i.i.i.i.i = getelementptr inbounds %"class.std::_Sp_counted_base", ptr %call.i.i.i.i, i64 0, i32 1
  store i32 1, ptr %_M_use_count.i.i.i.i.i.i, align 8
  %_M_weak_count.i.i.i.i.i.i = getelementptr inbounds %"class.std::_Sp_counted_base", ptr %call.i.i.i.i, i64 0, i32 2
  store i32 1, ptr %_M_weak_count.i.i.i.i.i.i, align 4
  store ptr getelementptr inbounds ({ [7 x ptr] }, ptr @_ZTVSt15_Sp_counted_ptrIPN7openvdb5v11_04math15UniformScaleMapELN9__gnu_cxx12_Lock_policyE2EE, i64 0, inrange i32 0, i64 2), ptr %call.i.i.i.i, align 8
  %_M_ptr.i.i.i.i.i = getelementptr inbounds %"class.std::_Sp_counted_ptr.22", ptr %call.i.i.i.i, i64 0, i32 1
  store ptr %call1, ptr %_M_ptr.i.i.i.i.i, align 8
  store ptr %call.i.i.i.i, ptr %_M_refcount.i.i, align 8
  invoke void @_ZN7openvdb5v11_04math9TransformC1ERKSt10shared_ptrINS1_7MapBaseEE(ptr noundef nonnull align 8 dereferenceable(16) %call, ptr noundef nonnull align 8 dereferenceable(16) %ref.tmp)
          to label %invoke.cont6 unwind label %ehcleanup.thread9

ehcleanup.thread9:                                ; preds = %invoke.cont4
  %6 = landingpad { ptr, i32 }
          cleanup
  call void @_ZNSt10shared_ptrIN7openvdb5v11_04math7MapBaseEED2Ev(ptr noundef nonnull align 8 dereferenceable(16) %ref.tmp) #23
  br label %cleanup.action

invoke.cont6:                                     ; preds = %invoke.cont4
  store ptr %call, ptr %agg.result, align 8
  %_M_refcount.i.i2 = getelementptr inbounds %"class.std::__shared_ptr.7", ptr %agg.result, i64 0, i32 1
  invoke void @_ZNSt14__shared_countILN9__gnu_cxx12_Lock_policyE2EEC2IPN7openvdb5v11_04math9TransformEEET_(ptr noundef nonnull align 8 dereferenceable(8) %_M_refcount.i.i2, ptr noundef nonnull %call)
          to label %invoke.cont7 unwind label %ehcleanup

invoke.cont7:                                     ; preds = %invoke.cont6
  %7 = load ptr, ptr %_M_refcount.i.i, align 8
  %cmp.not.i.i.i = icmp eq ptr %7, null
  br i1 %cmp.not.i.i.i, label %_ZNSt10shared_ptrIN7openvdb5v11_04math7MapBaseEED2Ev.exit, label %if.then.i.i.i

if.then.i.i.i:                                    ; preds = %invoke.cont7
  %_M_use_count.i.i.i.i = getelementptr inbounds %"class.std::_Sp_counted_base", ptr %7, i64 0, i32 1
  %8 = load atomic i64, ptr %_M_use_count.i.i.i.i acquire, align 8
  %cmp.i.i.i.i = icmp eq i64 %8, 4294967297
  %9 = trunc i64 %8 to i32
  br i1 %cmp.i.i.i.i, label %if.then.i.i.i.i, label %if.end.i.i.i.i

if.then.i.i.i.i:                                  ; preds = %if.then.i.i.i
  store i32 0, ptr %_M_use_count.i.i.i.i, align 8
  %_M_weak_count.i.i.i.i = getelementptr inbounds %"class.std::_Sp_counted_base", ptr %7, i64 0, i32 2
  store i32 0, ptr %_M_weak_count.i.i.i.i, align 4
  %vtable.i.i.i.i = load ptr, ptr %7, align 8
  %vfn.i.i.i.i = getelementptr inbounds ptr, ptr %vtable.i.i.i.i, i64 2
  %10 = load ptr, ptr %vfn.i.i.i.i, align 8
  call void %10(ptr noundef nonnull align 8 dereferenceable(16) %7) #23
  br label %if.end8.sink.split.i.i.i.i

if.end.i.i.i.i:                                   ; preds = %if.then.i.i.i
  %11 = load i8, ptr @__libc_single_threaded, align 1
  %tobool.i.not.i.i.i.i = icmp eq i8 %11, 0
  br i1 %tobool.i.not.i.i.i.i, label %if.else.i.i.i.i.i, label %if.then.i.i.i.i.i

if.then.i.i.i.i.i:                                ; preds = %if.end.i.i.i.i
  %add.i.i.i.i.i = add nsw i32 %9, -1
  store i32 %add.i.i.i.i.i, ptr %_M_use_count.i.i.i.i, align 4
  br label %_ZN9__gnu_cxx27__exchange_and_add_dispatchEPii.exit.i.i.i.i

if.else.i.i.i.i.i:                                ; preds = %if.end.i.i.i.i
  %12 = atomicrmw volatile add ptr %_M_use_count.i.i.i.i, i32 -1 acq_rel, align 4
  br label %_ZN9__gnu_cxx27__exchange_and_add_dispatchEPii.exit.i.i.i.i

_ZN9__gnu_cxx27__exchange_and_add_dispatchEPii.exit.i.i.i.i: ; preds = %if.else.i.i.i.i.i, %if.then.i.i.i.i.i
  %retval.i.0.i.i.i.i = phi i32 [ %9, %if.then.i.i.i.i.i ], [ %12, %if.else.i.i.i.i.i ]
  %cmp6.i.i.i.i = icmp eq i32 %retval.i.0.i.i.i.i, 1
  br i1 %cmp6.i.i.i.i, label %if.then7.i.i.i.i, label %_ZNSt10shared_ptrIN7openvdb5v11_04math7MapBaseEED2Ev.exit

if.then7.i.i.i.i:                                 ; preds = %_ZN9__gnu_cxx27__exchange_and_add_dispatchEPii.exit.i.i.i.i
  %vtable.i.i.i.i.i.i = load ptr, ptr %7, align 8
  %vfn.i.i.i.i.i.i = getelementptr inbounds ptr, ptr %vtable.i.i.i.i.i.i, i64 2
  %13 = load ptr, ptr %vfn.i.i.i.i.i.i, align 8
  call void %13(ptr noundef nonnull align 8 dereferenceable(16) %7) #23
  %_M_weak_count.i.i.i.i.i.i4 = getelementptr inbounds %"class.std::_Sp_counted_base", ptr %7, i64 0, i32 2
  %14 = load i8, ptr @__libc_single_threaded, align 1
  %tobool.i.not.i.i.i.i.i.i = icmp eq i8 %14, 0
  br i1 %tobool.i.not.i.i.i.i.i.i, label %if.else.i.i.i.i.i.i.i, label %if.then.i.i.i.i.i.i.i

if.then.i.i.i.i.i.i.i:                            ; preds = %if.then7.i.i.i.i
  %15 = load i32, ptr %_M_weak_count.i.i.i.i.i.i4, align 4
  %add.i.i.i.i.i.i.i = add nsw i32 %15, -1
  store i32 %add.i.i.i.i.i.i.i, ptr %_M_weak_count.i.i.i.i.i.i4, align 4
  br label %_ZN9__gnu_cxx27__exchange_and_add_dispatchEPii.exit.i.i.i.i.i.i

if.else.i.i.i.i.i.i.i:                            ; preds = %if.then7.i.i.i.i
  %16 = atomicrmw volatile add ptr %_M_weak_count.i.i.i.i.i.i4, i32 -1 acq_rel, align 4
  br label %_ZN9__gnu_cxx27__exchange_and_add_dispatchEPii.exit.i.i.i.i.i.i

_ZN9__gnu_cxx27__exchange_and_add_dispatchEPii.exit.i.i.i.i.i.i: ; preds = %if.else.i.i.i.i.i.i.i, %if.then.i.i.i.i.i.i.i
  %retval.i.0.i.i.i.i.i.i = phi i32 [ %15, %if.then.i.i.i.i.i.i.i ], [ %16, %if.else.i.i.i.i.i.i.i ]
  %cmp.i.i.i.i.i.i = icmp eq i32 %retval.i.0.i.i.i.i.i.i, 1
  br i1 %cmp.i.i.i.i.i.i, label %if.end8.sink.split.i.i.i.i, label %_ZNSt10shared_ptrIN7openvdb5v11_04math7MapBaseEED2Ev.exit

if.end8.sink.split.i.i.i.i:                       ; preds = %_ZN9__gnu_cxx27__exchange_and_add_dispatchEPii.exit.i.i.i.i.i.i, %if.then.i.i.i.i
  %vtable2.i.i.i.i.i.i = load ptr, ptr %7, align 8
  %vfn3.i.i.i.i.i.i = getelementptr inbounds ptr, ptr %vtable2.i.i.i.i.i.i, i64 3
  %17 = load ptr, ptr %vfn3.i.i.i.i.i.i, align 8
  call void %17(ptr noundef nonnull align 8 dereferenceable(16) %7) #23
  br label %_ZNSt10shared_ptrIN7openvdb5v11_04math7MapBaseEED2Ev.exit

_ZNSt10shared_ptrIN7openvdb5v11_04math7MapBaseEED2Ev.exit: ; preds = %invoke.cont7, %_ZN9__gnu_cxx27__exchange_and_add_dispatchEPii.exit.i.i.i.i, %_ZN9__gnu_cxx27__exchange_and_add_dispatchEPii.exit.i.i.i.i.i.i, %if.end8.sink.split.i.i.i.i
  ret void

lpad:                                             ; preds = %entry
  %18 = landingpad { ptr, i32 }
          cleanup
  br label %cleanup.action

lpad2:                                            ; preds = %invoke.cont
  %19 = landingpad { ptr, i32 }
          cleanup
  call void @_ZdlPv(ptr noundef nonnull %call1) #26
  br label %cleanup.action

ehcleanup:                                        ; preds = %invoke.cont6
  %20 = landingpad { ptr, i32 }
          cleanup
  call void @_ZNSt10shared_ptrIN7openvdb5v11_04math7MapBaseEED2Ev(ptr noundef nonnull align 8 dereferenceable(16) %ref.tmp) #23
  br label %eh.resume

cleanup.action:                                   ; preds = %lpad, %lpad3.i.i.i.i, %lpad2, %ehcleanup.thread9
  %.pn8 = phi { ptr, i32 } [ %6, %ehcleanup.thread9 ], [ %3, %lpad3.i.i.i.i ], [ %18, %lpad ], [ %19, %lpad2 ]
  call void @_ZdlPv(ptr noundef nonnull %call) #26
  br label %eh.resume

eh.resume:                                        ; preds = %ehcleanup, %cleanup.action
  %.pn7 = phi { ptr, i32 } [ %20, %ehcleanup ], [ %.pn8, %cleanup.action ]
  resume { ptr, i32 } %.pn7
}

; Function Attrs: mustprogress uwtable
define void @_ZN7openvdb5v11_04math9Transform21createLinearTransformERKNS1_4Mat4IdEE(ptr noalias sret(%"class.std::shared_ptr.6") align 8 %agg.result, ptr noundef nonnull align 8 dereferenceable(128) %m) local_unnamed_addr #3 align 2 personality ptr @__gxx_personality_v0 {
entry:
  %ref.tmp = alloca %"class.std::shared_ptr", align 8
  %call = tail call noalias noundef nonnull dereferenceable(16) ptr @_Znwm(i64 noundef 16) #22
  %call1 = invoke noalias noundef nonnull dereferenceable(376) ptr @_Znwm(i64 noundef 376) #22
          to label %invoke.cont unwind label %lpad

invoke.cont:                                      ; preds = %entry
  invoke void @_ZN7openvdb5v11_04math9AffineMapC2ERKNS1_4Mat4IdEE(ptr noundef nonnull align 8 dereferenceable(376) %call1, ptr noundef nonnull align 8 dereferenceable(128) %m)
          to label %invoke.cont3 unwind label %lpad2

invoke.cont3:                                     ; preds = %invoke.cont
  store ptr %call1, ptr %ref.tmp, align 8
  %_M_refcount.i.i = getelementptr inbounds %"class.std::__shared_ptr", ptr %ref.tmp, i64 0, i32 1
  store ptr null, ptr %_M_refcount.i.i, align 8
  %call.i.i.i.i = invoke noalias noundef nonnull dereferenceable(24) ptr @_Znwm(i64 noundef 24) #22
          to label %invoke.cont4 unwind label %lpad.i.i.i.i

lpad.i.i.i.i:                                     ; preds = %invoke.cont3
  %0 = landingpad { ptr, i32 }
          catch ptr null
  %1 = extractvalue { ptr, i32 } %0, 0
  %2 = tail call ptr @__cxa_begin_catch(ptr %1) #23
  tail call void @_ZdlPv(ptr noundef nonnull %call1) #26
  invoke void @__cxa_rethrow() #24
          to label %unreachable.i.i.i.i unwind label %lpad3.i.i.i.i

lpad3.i.i.i.i:                                    ; preds = %lpad.i.i.i.i
  %3 = landingpad { ptr, i32 }
          cleanup
  invoke void @__cxa_end_catch()
          to label %cleanup.action unwind label %terminate.lpad.i.i.i.i

terminate.lpad.i.i.i.i:                           ; preds = %lpad3.i.i.i.i
  %4 = landingpad { ptr, i32 }
          catch ptr null
  %5 = extractvalue { ptr, i32 } %4, 0
  tail call void @__clang_call_terminate(ptr %5) #25
  unreachable

unreachable.i.i.i.i:                              ; preds = %lpad.i.i.i.i
  unreachable

invoke.cont4:                                     ; preds = %invoke.cont3
  %_M_use_count.i.i.i.i.i.i = getelementptr inbounds %"class.std::_Sp_counted_base", ptr %call.i.i.i.i, i64 0, i32 1
  store i32 1, ptr %_M_use_count.i.i.i.i.i.i, align 8
  %_M_weak_count.i.i.i.i.i.i = getelementptr inbounds %"class.std::_Sp_counted_base", ptr %call.i.i.i.i, i64 0, i32 2
  store i32 1, ptr %_M_weak_count.i.i.i.i.i.i, align 4
  store ptr getelementptr inbounds ({ [7 x ptr] }, ptr @_ZTVSt15_Sp_counted_ptrIPN7openvdb5v11_04math9AffineMapELN9__gnu_cxx12_Lock_policyE2EE, i64 0, inrange i32 0, i64 2), ptr %call.i.i.i.i, align 8
  %_M_ptr.i.i.i.i.i = getelementptr inbounds %"class.std::_Sp_counted_ptr.21", ptr %call.i.i.i.i, i64 0, i32 1
  store ptr %call1, ptr %_M_ptr.i.i.i.i.i, align 8
  store ptr %call.i.i.i.i, ptr %_M_refcount.i.i, align 8
  invoke void @_ZN7openvdb5v11_04math9TransformC1ERKSt10shared_ptrINS1_7MapBaseEE(ptr noundef nonnull align 8 dereferenceable(16) %call, ptr noundef nonnull align 8 dereferenceable(16) %ref.tmp)
          to label %invoke.cont6 unwind label %ehcleanup.thread9

ehcleanup.thread9:                                ; preds = %invoke.cont4
  %6 = landingpad { ptr, i32 }
          cleanup
  call void @_ZNSt10shared_ptrIN7openvdb5v11_04math7MapBaseEED2Ev(ptr noundef nonnull align 8 dereferenceable(16) %ref.tmp) #23
  br label %cleanup.action

invoke.cont6:                                     ; preds = %invoke.cont4
  store ptr %call, ptr %agg.result, align 8
  %_M_refcount.i.i2 = getelementptr inbounds %"class.std::__shared_ptr.7", ptr %agg.result, i64 0, i32 1
  invoke void @_ZNSt14__shared_countILN9__gnu_cxx12_Lock_policyE2EEC2IPN7openvdb5v11_04math9TransformEEET_(ptr noundef nonnull align 8 dereferenceable(8) %_M_refcount.i.i2, ptr noundef nonnull %call)
          to label %invoke.cont7 unwind label %ehcleanup

invoke.cont7:                                     ; preds = %invoke.cont6
  %7 = load ptr, ptr %_M_refcount.i.i, align 8
  %cmp.not.i.i.i = icmp eq ptr %7, null
  br i1 %cmp.not.i.i.i, label %_ZNSt10shared_ptrIN7openvdb5v11_04math7MapBaseEED2Ev.exit, label %if.then.i.i.i

if.then.i.i.i:                                    ; preds = %invoke.cont7
  %_M_use_count.i.i.i.i = getelementptr inbounds %"class.std::_Sp_counted_base", ptr %7, i64 0, i32 1
  %8 = load atomic i64, ptr %_M_use_count.i.i.i.i acquire, align 8
  %cmp.i.i.i.i = icmp eq i64 %8, 4294967297
  %9 = trunc i64 %8 to i32
  br i1 %cmp.i.i.i.i, label %if.then.i.i.i.i, label %if.end.i.i.i.i

if.then.i.i.i.i:                                  ; preds = %if.then.i.i.i
  store i32 0, ptr %_M_use_count.i.i.i.i, align 8
  %_M_weak_count.i.i.i.i = getelementptr inbounds %"class.std::_Sp_counted_base", ptr %7, i64 0, i32 2
  store i32 0, ptr %_M_weak_count.i.i.i.i, align 4
  %vtable.i.i.i.i = load ptr, ptr %7, align 8
  %vfn.i.i.i.i = getelementptr inbounds ptr, ptr %vtable.i.i.i.i, i64 2
  %10 = load ptr, ptr %vfn.i.i.i.i, align 8
  call void %10(ptr noundef nonnull align 8 dereferenceable(16) %7) #23
  br label %if.end8.sink.split.i.i.i.i

if.end.i.i.i.i:                                   ; preds = %if.then.i.i.i
  %11 = load i8, ptr @__libc_single_threaded, align 1
  %tobool.i.not.i.i.i.i = icmp eq i8 %11, 0
  br i1 %tobool.i.not.i.i.i.i, label %if.else.i.i.i.i.i, label %if.then.i.i.i.i.i

if.then.i.i.i.i.i:                                ; preds = %if.end.i.i.i.i
  %add.i.i.i.i.i = add nsw i32 %9, -1
  store i32 %add.i.i.i.i.i, ptr %_M_use_count.i.i.i.i, align 4
  br label %_ZN9__gnu_cxx27__exchange_and_add_dispatchEPii.exit.i.i.i.i

if.else.i.i.i.i.i:                                ; preds = %if.end.i.i.i.i
  %12 = atomicrmw volatile add ptr %_M_use_count.i.i.i.i, i32 -1 acq_rel, align 4
  br label %_ZN9__gnu_cxx27__exchange_and_add_dispatchEPii.exit.i.i.i.i

_ZN9__gnu_cxx27__exchange_and_add_dispatchEPii.exit.i.i.i.i: ; preds = %if.else.i.i.i.i.i, %if.then.i.i.i.i.i
  %retval.i.0.i.i.i.i = phi i32 [ %9, %if.then.i.i.i.i.i ], [ %12, %if.else.i.i.i.i.i ]
  %cmp6.i.i.i.i = icmp eq i32 %retval.i.0.i.i.i.i, 1
  br i1 %cmp6.i.i.i.i, label %if.then7.i.i.i.i, label %_ZNSt10shared_ptrIN7openvdb5v11_04math7MapBaseEED2Ev.exit

if.then7.i.i.i.i:                                 ; preds = %_ZN9__gnu_cxx27__exchange_and_add_dispatchEPii.exit.i.i.i.i
  %vtable.i.i.i.i.i.i = load ptr, ptr %7, align 8
  %vfn.i.i.i.i.i.i = getelementptr inbounds ptr, ptr %vtable.i.i.i.i.i.i, i64 2
  %13 = load ptr, ptr %vfn.i.i.i.i.i.i, align 8
  call void %13(ptr noundef nonnull align 8 dereferenceable(16) %7) #23
  %_M_weak_count.i.i.i.i.i.i4 = getelementptr inbounds %"class.std::_Sp_counted_base", ptr %7, i64 0, i32 2
  %14 = load i8, ptr @__libc_single_threaded, align 1
  %tobool.i.not.i.i.i.i.i.i = icmp eq i8 %14, 0
  br i1 %tobool.i.not.i.i.i.i.i.i, label %if.else.i.i.i.i.i.i.i, label %if.then.i.i.i.i.i.i.i

if.then.i.i.i.i.i.i.i:                            ; preds = %if.then7.i.i.i.i
  %15 = load i32, ptr %_M_weak_count.i.i.i.i.i.i4, align 4
  %add.i.i.i.i.i.i.i = add nsw i32 %15, -1
  store i32 %add.i.i.i.i.i.i.i, ptr %_M_weak_count.i.i.i.i.i.i4, align 4
  br label %_ZN9__gnu_cxx27__exchange_and_add_dispatchEPii.exit.i.i.i.i.i.i

if.else.i.i.i.i.i.i.i:                            ; preds = %if.then7.i.i.i.i
  %16 = atomicrmw volatile add ptr %_M_weak_count.i.i.i.i.i.i4, i32 -1 acq_rel, align 4
  br label %_ZN9__gnu_cxx27__exchange_and_add_dispatchEPii.exit.i.i.i.i.i.i

_ZN9__gnu_cxx27__exchange_and_add_dispatchEPii.exit.i.i.i.i.i.i: ; preds = %if.else.i.i.i.i.i.i.i, %if.then.i.i.i.i.i.i.i
  %retval.i.0.i.i.i.i.i.i = phi i32 [ %15, %if.then.i.i.i.i.i.i.i ], [ %16, %if.else.i.i.i.i.i.i.i ]
  %cmp.i.i.i.i.i.i = icmp eq i32 %retval.i.0.i.i.i.i.i.i, 1
  br i1 %cmp.i.i.i.i.i.i, label %if.end8.sink.split.i.i.i.i, label %_ZNSt10shared_ptrIN7openvdb5v11_04math7MapBaseEED2Ev.exit

if.end8.sink.split.i.i.i.i:                       ; preds = %_ZN9__gnu_cxx27__exchange_and_add_dispatchEPii.exit.i.i.i.i.i.i, %if.then.i.i.i.i
  %vtable2.i.i.i.i.i.i = load ptr, ptr %7, align 8
  %vfn3.i.i.i.i.i.i = getelementptr inbounds ptr, ptr %vtable2.i.i.i.i.i.i, i64 3
  %17 = load ptr, ptr %vfn3.i.i.i.i.i.i, align 8
  call void %17(ptr noundef nonnull align 8 dereferenceable(16) %7) #23
  br label %_ZNSt10shared_ptrIN7openvdb5v11_04math7MapBaseEED2Ev.exit

_ZNSt10shared_ptrIN7openvdb5v11_04math7MapBaseEED2Ev.exit: ; preds = %invoke.cont7, %_ZN9__gnu_cxx27__exchange_and_add_dispatchEPii.exit.i.i.i.i, %_ZN9__gnu_cxx27__exchange_and_add_dispatchEPii.exit.i.i.i.i.i.i, %if.end8.sink.split.i.i.i.i
  ret void

lpad:                                             ; preds = %entry
  %18 = landingpad { ptr, i32 }
          cleanup
  br label %cleanup.action

lpad2:                                            ; preds = %invoke.cont
  %19 = landingpad { ptr, i32 }
          cleanup
  tail call void @_ZdlPv(ptr noundef nonnull %call1) #26
  br label %cleanup.action

ehcleanup:                                        ; preds = %invoke.cont6
  %20 = landingpad { ptr, i32 }
          cleanup
  call void @_ZNSt10shared_ptrIN7openvdb5v11_04math7MapBaseEED2Ev(ptr noundef nonnull align 8 dereferenceable(16) %ref.tmp) #23
  br label %eh.resume

cleanup.action:                                   ; preds = %lpad, %lpad3.i.i.i.i, %lpad2, %ehcleanup.thread9
  %.pn8 = phi { ptr, i32 } [ %6, %ehcleanup.thread9 ], [ %3, %lpad3.i.i.i.i ], [ %18, %lpad ], [ %19, %lpad2 ]
  call void @_ZdlPv(ptr noundef nonnull %call) #26
  br label %eh.resume

eh.resume:                                        ; preds = %ehcleanup, %cleanup.action
  %.pn7 = phi { ptr, i32 } [ %20, %ehcleanup ], [ %.pn8, %cleanup.action ]
  resume { ptr, i32 } %.pn7
}

; Function Attrs: mustprogress uwtable
define linkonce_odr void @_ZN7openvdb5v11_04math9AffineMapC2ERKNS1_4Mat4IdEE(ptr noundef nonnull align 8 dereferenceable(376) %this, ptr noundef nonnull align 8 dereferenceable(128) %m) unnamed_addr #3 comdat align 2 personality ptr @__gxx_personality_v0 {
entry:
  %_openvdb_throw_msg = alloca %"class.std::__cxx11::basic_string", align 8
  %_openvdb_throw_os = alloca %"class.std::__cxx11::basic_ostringstream", align 8
  %ref.tmp = alloca %"class.std::__cxx11::basic_string", align 8
  store ptr getelementptr inbounds ({ [38 x ptr] }, ptr @_ZTVN7openvdb5v11_04math9AffineMapE, i64 0, inrange i32 0, i64 2), ptr %this, align 8
  %mMatrix = getelementptr inbounds %"class.openvdb::v11_0::math::AffineMap", ptr %this, i64 0, i32 1
  tail call void @llvm.memcpy.p0.p0.i64(ptr noundef nonnull align 8 dereferenceable(128) %mMatrix, ptr noundef nonnull align 8 dereferenceable(128) %m, i64 128, i1 false)
  %arrayidx.i.i.i = getelementptr inbounds [16 x double], ptr %m, i64 0, i64 3
  %0 = load double, ptr %arrayidx.i.i.i, align 8, !noalias !38
  %arrayidx.i5.i.i = getelementptr inbounds [16 x double], ptr %m, i64 0, i64 7
  %1 = load double, ptr %arrayidx.i5.i.i, align 8, !noalias !38
  %arrayidx.i8.i.i = getelementptr inbounds [16 x double], ptr %m, i64 0, i64 11
  %2 = load double, ptr %arrayidx.i8.i.i, align 8, !noalias !38
  %cmp.i.i.i = fcmp oeq double %0, 0.000000e+00
  %cmp.i8.i.i = fcmp oeq double %1, 0.000000e+00
  %or.cond.i = select i1 %cmp.i.i.i, i1 %cmp.i8.i.i, i1 false
  %cmp.i11.i.i = fcmp oeq double %2, 0.000000e+00
  %or.cond1.i = select i1 %or.cond.i, i1 %cmp.i11.i.i, i1 false
  %arrayidx.i11.i.i = getelementptr inbounds [16 x double], ptr %m, i64 0, i64 15
  %3 = load double, ptr %arrayidx.i11.i.i, align 8
  %cmp.i14.i.i = fcmp oeq double %3, 1.000000e+00
  %or.cond = select i1 %or.cond1.i, i1 %cmp.i14.i.i, i1 false
  br i1 %or.cond, label %if.end, label %if.then

if.then:                                          ; preds = %entry
  call void @_ZNSt7__cxx1112basic_stringIcSt11char_traitsIcESaIcEEC1Ev(ptr noundef nonnull align 8 dereferenceable(32) %_openvdb_throw_msg) #23
  invoke void @_ZNSt7__cxx1119basic_ostringstreamIcSt11char_traitsIcESaIcEEC1Ev(ptr noundef nonnull align 8 dereferenceable(112) %_openvdb_throw_os)
          to label %invoke.cont3 unwind label %lpad2

invoke.cont3:                                     ; preds = %if.then
  %call6 = invoke noundef nonnull align 8 dereferenceable(8) ptr @_ZStlsISt11char_traitsIcEERSt13basic_ostreamIcT_ES5_PKc(ptr noundef nonnull align 8 dereferenceable(8) %_openvdb_throw_os, ptr noundef nonnull @.str.27)
          to label %invoke.cont5 unwind label %lpad4

invoke.cont5:                                     ; preds = %invoke.cont3
  invoke void @_ZNKSt7__cxx1119basic_ostringstreamIcSt11char_traitsIcESaIcEE3strEv(ptr nonnull sret(%"class.std::__cxx11::basic_string") align 8 %ref.tmp, ptr noundef nonnull align 8 dereferenceable(112) %_openvdb_throw_os)
          to label %invoke.cont7 unwind label %lpad4

invoke.cont7:                                     ; preds = %invoke.cont5
  %call8 = call noundef nonnull align 8 dereferenceable(32) ptr @_ZNSt7__cxx1112basic_stringIcSt11char_traitsIcESaIcEEaSEOS4_(ptr noundef nonnull align 8 dereferenceable(32) %_openvdb_throw_msg, ptr noundef nonnull align 8 dereferenceable(32) %ref.tmp) #23
  call void @_ZNSt7__cxx1112basic_stringIcSt11char_traitsIcESaIcEED1Ev(ptr noundef nonnull align 8 dereferenceable(32) %ref.tmp) #23
  call void @_ZNSt7__cxx1119basic_ostringstreamIcSt11char_traitsIcESaIcEED1Ev(ptr noundef nonnull align 8 dereferenceable(112) %_openvdb_throw_os) #23
  br label %try.cont

lpad2:                                            ; preds = %if.then
  %4 = landingpad { ptr, i32 }
          catch ptr null
  br label %catch

lpad4:                                            ; preds = %invoke.cont5, %invoke.cont3
  %5 = landingpad { ptr, i32 }
          catch ptr null
  call void @_ZNSt7__cxx1119basic_ostringstreamIcSt11char_traitsIcESaIcEED1Ev(ptr noundef nonnull align 8 dereferenceable(112) %_openvdb_throw_os) #23
  br label %catch

catch:                                            ; preds = %lpad4, %lpad2
  %.pn = phi { ptr, i32 } [ %5, %lpad4 ], [ %4, %lpad2 ]
  %exn.slot.0 = extractvalue { ptr, i32 } %.pn, 0
  %6 = call ptr @__cxa_begin_catch(ptr %exn.slot.0) #23
  invoke void @__cxa_end_catch()
          to label %try.cont unwind label %lpad9

try.cont:                                         ; preds = %catch, %invoke.cont7
  %exception = call ptr @__cxa_allocate_exception(i64 40) #23
  call void @_ZN7openvdb5v11_09ExceptionC2EPKcPKNSt7__cxx1112basic_stringIcSt11char_traitsIcESaIcEEE(ptr noundef nonnull align 8 dereferenceable(40) %exception, ptr noundef nonnull @.str.23, ptr noundef nonnull %_openvdb_throw_msg) #23
  store ptr getelementptr inbounds ({ [5 x ptr] }, ptr @_ZTVN7openvdb5v11_015ArithmeticErrorE, i64 0, inrange i32 0, i64 2), ptr %exception, align 8
  invoke void @__cxa_throw(ptr nonnull %exception, ptr nonnull @_ZTIN7openvdb5v11_015ArithmeticErrorE, ptr nonnull @_ZN7openvdb5v11_015ArithmeticErrorD2Ev) #24
          to label %unreachable unwind label %lpad9

lpad9:                                            ; preds = %try.cont, %catch
  %7 = landingpad { ptr, i32 }
          cleanup
  call void @_ZNSt7__cxx1112basic_stringIcSt11char_traitsIcESaIcEED1Ev(ptr noundef nonnull align 8 dereferenceable(32) %_openvdb_throw_msg) #23
  resume { ptr, i32 } %7

if.end:                                           ; preds = %entry
  tail call void @_ZN7openvdb5v11_04math9AffineMap18updateAccelerationEv(ptr noundef nonnull align 8 dereferenceable(376) %this)
  ret void

unreachable:                                      ; preds = %try.cont
  unreachable
}

; Function Attrs: mustprogress uwtable
define void @_ZN7openvdb5v11_04math9Transform22createFrustumTransformERKNS1_4BBoxINS1_4Vec3IdEEEEddd(ptr noalias sret(%"class.std::shared_ptr.6") align 8 %agg.result, ptr nocapture noundef nonnull readonly align 8 dereferenceable(48) %bbox, double noundef %taper, double noundef %depth, double noundef %voxelDim) local_unnamed_addr #3 align 2 personality ptr @__gxx_personality_v0 {
entry:
  %ref.tmp = alloca %"class.std::shared_ptr", align 8
  %ref.tmp1 = alloca %"class.openvdb::v11_0::math::NonlinearFrustumMap", align 8
  %ref.tmp2 = alloca %"class.openvdb::v11_0::math::Vec3", align 8
  %call = tail call noalias noundef nonnull dereferenceable(16) ptr @_Znwm(i64 noundef 16) #22
  store ptr getelementptr inbounds ({ [38 x ptr] }, ptr @_ZTVN7openvdb5v11_04math19NonlinearFrustumMapE, i64 0, inrange i32 0, i64 2), ptr %ref.tmp1, align 8
  %mBBox.i = getelementptr inbounds %"class.openvdb::v11_0::math::NonlinearFrustumMap", ptr %ref.tmp1, i64 0, i32 1
  call void @llvm.memcpy.p0.p0.i64(ptr noundef nonnull align 8 dereferenceable(48) %mBBox.i, ptr noundef nonnull align 8 dereferenceable(48) %bbox, i64 48, i1 false)
  %mTaper.i = getelementptr inbounds %"class.openvdb::v11_0::math::NonlinearFrustumMap", ptr %ref.tmp1, i64 0, i32 2
  store double %taper, ptr %mTaper.i, align 8
  %mDepth.i = getelementptr inbounds %"class.openvdb::v11_0::math::NonlinearFrustumMap", ptr %ref.tmp1, i64 0, i32 3
  store double %depth, ptr %mDepth.i, align 8
  %mSecondMap.i = getelementptr inbounds %"class.openvdb::v11_0::math::NonlinearFrustumMap", ptr %ref.tmp1, i64 0, i32 4
  invoke void @_ZN7openvdb5v11_04math9AffineMapC2Ev(ptr noundef nonnull align 8 dereferenceable(376) %mSecondMap.i)
          to label %.noexc unwind label %lpad

.noexc:                                           ; preds = %entry
  invoke void @_ZN7openvdb5v11_04math19NonlinearFrustumMap4initEv(ptr noundef nonnull align 8 dereferenceable(520) %ref.tmp1)
          to label %invoke.cont unwind label %lpad

invoke.cont:                                      ; preds = %.noexc
  store double %voxelDim, ptr %ref.tmp2, align 8
  %arrayidx3.i = getelementptr inbounds [3 x double], ptr %ref.tmp2, i64 0, i64 1
  store double %voxelDim, ptr %arrayidx3.i, align 8
  %arrayidx5.i = getelementptr inbounds [3 x double], ptr %ref.tmp2, i64 0, i64 2
  store double %voxelDim, ptr %arrayidx5.i, align 8
  invoke void @_ZNK7openvdb5v11_04math19NonlinearFrustumMap8preScaleERKNS1_4Vec3IdEE(ptr nonnull sret(%"class.std::shared_ptr") align 8 %ref.tmp, ptr noundef nonnull align 8 dereferenceable(520) %ref.tmp1, ptr noundef nonnull align 8 dereferenceable(24) %ref.tmp2)
          to label %invoke.cont5 unwind label %lpad3

invoke.cont5:                                     ; preds = %invoke.cont
  invoke void @_ZN7openvdb5v11_04math9TransformC1ERKSt10shared_ptrINS1_7MapBaseEE(ptr noundef nonnull align 8 dereferenceable(16) %call, ptr noundef nonnull align 8 dereferenceable(16) %ref.tmp)
          to label %invoke.cont7 unwind label %ehcleanup9.thread12

ehcleanup9.thread12:                              ; preds = %invoke.cont5
  %0 = landingpad { ptr, i32 }
          cleanup
  call void @_ZNSt10shared_ptrIN7openvdb5v11_04math7MapBaseEED2Ev(ptr noundef nonnull align 8 dereferenceable(16) %ref.tmp) #23
  br label %cleanup.action

invoke.cont7:                                     ; preds = %invoke.cont5
  store ptr %call, ptr %agg.result, align 8
  %_M_refcount.i.i = getelementptr inbounds %"class.std::__shared_ptr.7", ptr %agg.result, i64 0, i32 1
  invoke void @_ZNSt14__shared_countILN9__gnu_cxx12_Lock_policyE2EEC2IPN7openvdb5v11_04math9TransformEEET_(ptr noundef nonnull align 8 dereferenceable(8) %_M_refcount.i.i, ptr noundef nonnull %call)
          to label %invoke.cont8 unwind label %ehcleanup9

invoke.cont8:                                     ; preds = %invoke.cont7
  %_M_refcount.i.i7 = getelementptr inbounds %"class.std::__shared_ptr", ptr %ref.tmp, i64 0, i32 1
  %1 = load ptr, ptr %_M_refcount.i.i7, align 8
  %cmp.not.i.i.i = icmp eq ptr %1, null
  br i1 %cmp.not.i.i.i, label %_ZNSt10shared_ptrIN7openvdb5v11_04math7MapBaseEED2Ev.exit, label %if.then.i.i.i

if.then.i.i.i:                                    ; preds = %invoke.cont8
  %_M_use_count.i.i.i.i = getelementptr inbounds %"class.std::_Sp_counted_base", ptr %1, i64 0, i32 1
  %2 = load atomic i64, ptr %_M_use_count.i.i.i.i acquire, align 8
  %cmp.i.i.i.i = icmp eq i64 %2, 4294967297
  %3 = trunc i64 %2 to i32
  br i1 %cmp.i.i.i.i, label %if.then.i.i.i.i, label %if.end.i.i.i.i

if.then.i.i.i.i:                                  ; preds = %if.then.i.i.i
  store i32 0, ptr %_M_use_count.i.i.i.i, align 8
  %_M_weak_count.i.i.i.i = getelementptr inbounds %"class.std::_Sp_counted_base", ptr %1, i64 0, i32 2
  store i32 0, ptr %_M_weak_count.i.i.i.i, align 4
  %vtable.i.i.i.i = load ptr, ptr %1, align 8
  %vfn.i.i.i.i = getelementptr inbounds ptr, ptr %vtable.i.i.i.i, i64 2
  %4 = load ptr, ptr %vfn.i.i.i.i, align 8
  call void %4(ptr noundef nonnull align 8 dereferenceable(16) %1) #23
  br label %if.end8.sink.split.i.i.i.i

if.end.i.i.i.i:                                   ; preds = %if.then.i.i.i
  %5 = load i8, ptr @__libc_single_threaded, align 1
  %tobool.i.not.i.i.i.i = icmp eq i8 %5, 0
  br i1 %tobool.i.not.i.i.i.i, label %if.else.i.i.i.i.i, label %if.then.i.i.i.i.i

if.then.i.i.i.i.i:                                ; preds = %if.end.i.i.i.i
  %add.i.i.i.i.i = add nsw i32 %3, -1
  store i32 %add.i.i.i.i.i, ptr %_M_use_count.i.i.i.i, align 4
  br label %_ZN9__gnu_cxx27__exchange_and_add_dispatchEPii.exit.i.i.i.i

if.else.i.i.i.i.i:                                ; preds = %if.end.i.i.i.i
  %6 = atomicrmw volatile add ptr %_M_use_count.i.i.i.i, i32 -1 acq_rel, align 4
  br label %_ZN9__gnu_cxx27__exchange_and_add_dispatchEPii.exit.i.i.i.i

_ZN9__gnu_cxx27__exchange_and_add_dispatchEPii.exit.i.i.i.i: ; preds = %if.else.i.i.i.i.i, %if.then.i.i.i.i.i
  %retval.i.0.i.i.i.i = phi i32 [ %3, %if.then.i.i.i.i.i ], [ %6, %if.else.i.i.i.i.i ]
  %cmp6.i.i.i.i = icmp eq i32 %retval.i.0.i.i.i.i, 1
  br i1 %cmp6.i.i.i.i, label %if.then7.i.i.i.i, label %_ZNSt10shared_ptrIN7openvdb5v11_04math7MapBaseEED2Ev.exit

if.then7.i.i.i.i:                                 ; preds = %_ZN9__gnu_cxx27__exchange_and_add_dispatchEPii.exit.i.i.i.i
  %vtable.i.i.i.i.i.i = load ptr, ptr %1, align 8
  %vfn.i.i.i.i.i.i = getelementptr inbounds ptr, ptr %vtable.i.i.i.i.i.i, i64 2
  %7 = load ptr, ptr %vfn.i.i.i.i.i.i, align 8
  call void %7(ptr noundef nonnull align 8 dereferenceable(16) %1) #23
  %_M_weak_count.i.i.i.i.i.i = getelementptr inbounds %"class.std::_Sp_counted_base", ptr %1, i64 0, i32 2
  %8 = load i8, ptr @__libc_single_threaded, align 1
  %tobool.i.not.i.i.i.i.i.i = icmp eq i8 %8, 0
  br i1 %tobool.i.not.i.i.i.i.i.i, label %if.else.i.i.i.i.i.i.i, label %if.then.i.i.i.i.i.i.i

if.then.i.i.i.i.i.i.i:                            ; preds = %if.then7.i.i.i.i
  %9 = load i32, ptr %_M_weak_count.i.i.i.i.i.i, align 4
  %add.i.i.i.i.i.i.i = add nsw i32 %9, -1
  store i32 %add.i.i.i.i.i.i.i, ptr %_M_weak_count.i.i.i.i.i.i, align 4
  br label %_ZN9__gnu_cxx27__exchange_and_add_dispatchEPii.exit.i.i.i.i.i.i

if.else.i.i.i.i.i.i.i:                            ; preds = %if.then7.i.i.i.i
  %10 = atomicrmw volatile add ptr %_M_weak_count.i.i.i.i.i.i, i32 -1 acq_rel, align 4
  br label %_ZN9__gnu_cxx27__exchange_and_add_dispatchEPii.exit.i.i.i.i.i.i

_ZN9__gnu_cxx27__exchange_and_add_dispatchEPii.exit.i.i.i.i.i.i: ; preds = %if.else.i.i.i.i.i.i.i, %if.then.i.i.i.i.i.i.i
  %retval.i.0.i.i.i.i.i.i = phi i32 [ %9, %if.then.i.i.i.i.i.i.i ], [ %10, %if.else.i.i.i.i.i.i.i ]
  %cmp.i.i.i.i.i.i = icmp eq i32 %retval.i.0.i.i.i.i.i.i, 1
  br i1 %cmp.i.i.i.i.i.i, label %if.end8.sink.split.i.i.i.i, label %_ZNSt10shared_ptrIN7openvdb5v11_04math7MapBaseEED2Ev.exit

if.end8.sink.split.i.i.i.i:                       ; preds = %_ZN9__gnu_cxx27__exchange_and_add_dispatchEPii.exit.i.i.i.i.i.i, %if.then.i.i.i.i
  %vtable2.i.i.i.i.i.i = load ptr, ptr %1, align 8
  %vfn3.i.i.i.i.i.i = getelementptr inbounds ptr, ptr %vtable2.i.i.i.i.i.i, i64 3
  %11 = load ptr, ptr %vfn3.i.i.i.i.i.i, align 8
  call void %11(ptr noundef nonnull align 8 dereferenceable(16) %1) #23
  br label %_ZNSt10shared_ptrIN7openvdb5v11_04math7MapBaseEED2Ev.exit

_ZNSt10shared_ptrIN7openvdb5v11_04math7MapBaseEED2Ev.exit: ; preds = %invoke.cont8, %_ZN9__gnu_cxx27__exchange_and_add_dispatchEPii.exit.i.i.i.i, %_ZN9__gnu_cxx27__exchange_and_add_dispatchEPii.exit.i.i.i.i.i.i, %if.end8.sink.split.i.i.i.i
  ret void

lpad:                                             ; preds = %.noexc, %entry
  %12 = landingpad { ptr, i32 }
          cleanup
  br label %cleanup.action

lpad3:                                            ; preds = %invoke.cont
  %13 = landingpad { ptr, i32 }
          cleanup
  br label %cleanup.action

ehcleanup9:                                       ; preds = %invoke.cont7
  %14 = landingpad { ptr, i32 }
          cleanup
  call void @_ZNSt10shared_ptrIN7openvdb5v11_04math7MapBaseEED2Ev(ptr noundef nonnull align 8 dereferenceable(16) %ref.tmp) #23
  br label %eh.resume

cleanup.action:                                   ; preds = %lpad3, %lpad, %ehcleanup9.thread12
  %.pn.pn11 = phi { ptr, i32 } [ %0, %ehcleanup9.thread12 ], [ %13, %lpad3 ], [ %12, %lpad ]
  call void @_ZdlPv(ptr noundef nonnull %call) #26
  br label %eh.resume

eh.resume:                                        ; preds = %ehcleanup9, %cleanup.action
  %.pn.pn10 = phi { ptr, i32 } [ %14, %ehcleanup9 ], [ %.pn.pn11, %cleanup.action ]
  resume { ptr, i32 } %.pn.pn10
}

; Function Attrs: mustprogress uwtable
define linkonce_odr void @_ZNK7openvdb5v11_04math19NonlinearFrustumMap8preScaleERKNS1_4Vec3IdEE(ptr noalias sret(%"class.std::shared_ptr") align 8 %agg.result, ptr noundef nonnull align 8 dereferenceable(520) %this, ptr noundef nonnull align 8 dereferenceable(24) %s) unnamed_addr #3 comdat align 2 personality ptr @__gxx_personality_v0 {
entry:
  %ref.tmp = alloca %"class.std::shared_ptr", align 8
  %call = tail call noalias noundef nonnull dereferenceable(520) ptr @_Znwm(i64 noundef 520) #22
  %mTaper = getelementptr inbounds %"class.openvdb::v11_0::math::NonlinearFrustumMap", ptr %this, i64 0, i32 2
  %0 = load double, ptr %mTaper, align 8
  %mDepth = getelementptr inbounds %"class.openvdb::v11_0::math::NonlinearFrustumMap", ptr %this, i64 0, i32 3
  %1 = load double, ptr %mDepth, align 8
  %mSecondMap = getelementptr inbounds %"class.openvdb::v11_0::math::NonlinearFrustumMap", ptr %this, i64 0, i32 4
  invoke void @_ZNK7openvdb5v11_04math9AffineMap8preScaleERKNS1_4Vec3IdEE(ptr nonnull sret(%"class.std::shared_ptr") align 8 %ref.tmp, ptr noundef nonnull align 8 dereferenceable(376) %mSecondMap, ptr noundef nonnull align 8 dereferenceable(24) %s)
          to label %invoke.cont unwind label %ehcleanup.thread

invoke.cont:                                      ; preds = %entry
  %mBBox = getelementptr inbounds %"class.openvdb::v11_0::math::NonlinearFrustumMap", ptr %this, i64 0, i32 1
  invoke void @_ZN7openvdb5v11_04math19NonlinearFrustumMapC2ERKNS1_4BBoxINS1_4Vec3IdEEEEddRKSt10shared_ptrINS1_7MapBaseEE(ptr noundef nonnull align 8 dereferenceable(520) %call, ptr noundef nonnull align 8 dereferenceable(48) %mBBox, double noundef %0, double noundef %1, ptr noundef nonnull align 8 dereferenceable(16) %ref.tmp)
          to label %invoke.cont3 unwind label %ehcleanup.thread8

invoke.cont3:                                     ; preds = %invoke.cont
  store ptr %call, ptr %agg.result, align 8
  %_M_refcount.i.i = getelementptr inbounds %"class.std::__shared_ptr", ptr %agg.result, i64 0, i32 1
  store ptr null, ptr %_M_refcount.i.i, align 8
  %call.i.i.i.i = invoke noalias noundef nonnull dereferenceable(24) ptr @_Znwm(i64 noundef 24) #22
          to label %invoke.cont4 unwind label %lpad.i.i.i.i

lpad.i.i.i.i:                                     ; preds = %invoke.cont3
  %2 = landingpad { ptr, i32 }
          catch ptr null
  %3 = extractvalue { ptr, i32 } %2, 0
  %4 = call ptr @__cxa_begin_catch(ptr %3) #23
  call void @_ZdlPv(ptr noundef nonnull %call) #26
  invoke void @__cxa_rethrow() #24
          to label %unreachable.i.i.i.i unwind label %lpad3.i.i.i.i

lpad3.i.i.i.i:                                    ; preds = %lpad.i.i.i.i
  %5 = landingpad { ptr, i32 }
          cleanup
  invoke void @__cxa_end_catch()
          to label %ehcleanup unwind label %terminate.lpad.i.i.i.i

terminate.lpad.i.i.i.i:                           ; preds = %lpad3.i.i.i.i
  %6 = landingpad { ptr, i32 }
          catch ptr null
  %7 = extractvalue { ptr, i32 } %6, 0
  call void @__clang_call_terminate(ptr %7) #25
  unreachable

unreachable.i.i.i.i:                              ; preds = %lpad.i.i.i.i
  unreachable

invoke.cont4:                                     ; preds = %invoke.cont3
  %_M_use_count.i.i.i.i.i.i = getelementptr inbounds %"class.std::_Sp_counted_base", ptr %call.i.i.i.i, i64 0, i32 1
  store i32 1, ptr %_M_use_count.i.i.i.i.i.i, align 8
  %_M_weak_count.i.i.i.i.i.i = getelementptr inbounds %"class.std::_Sp_counted_base", ptr %call.i.i.i.i, i64 0, i32 2
  store i32 1, ptr %_M_weak_count.i.i.i.i.i.i, align 4
  store ptr getelementptr inbounds ({ [7 x ptr] }, ptr @_ZTVSt15_Sp_counted_ptrIPN7openvdb5v11_04math19NonlinearFrustumMapELN9__gnu_cxx12_Lock_policyE2EE, i64 0, inrange i32 0, i64 2), ptr %call.i.i.i.i, align 8
  %_M_ptr.i.i.i.i.i = getelementptr inbounds %"class.std::_Sp_counted_ptr.25", ptr %call.i.i.i.i, i64 0, i32 1
  store ptr %call, ptr %_M_ptr.i.i.i.i.i, align 8
  store ptr %call.i.i.i.i, ptr %_M_refcount.i.i, align 8
  %_M_refcount.i.i2 = getelementptr inbounds %"class.std::__shared_ptr", ptr %ref.tmp, i64 0, i32 1
  %8 = load ptr, ptr %_M_refcount.i.i2, align 8
  %cmp.not.i.i.i = icmp eq ptr %8, null
  br i1 %cmp.not.i.i.i, label %_ZNSt10shared_ptrIN7openvdb5v11_04math7MapBaseEED2Ev.exit, label %if.then.i.i.i

if.then.i.i.i:                                    ; preds = %invoke.cont4
  %_M_use_count.i.i.i.i = getelementptr inbounds %"class.std::_Sp_counted_base", ptr %8, i64 0, i32 1
  %9 = load atomic i64, ptr %_M_use_count.i.i.i.i acquire, align 8
  %cmp.i.i.i.i = icmp eq i64 %9, 4294967297
  %10 = trunc i64 %9 to i32
  br i1 %cmp.i.i.i.i, label %if.then.i.i.i.i, label %if.end.i.i.i.i

if.then.i.i.i.i:                                  ; preds = %if.then.i.i.i
  store i32 0, ptr %_M_use_count.i.i.i.i, align 8
  %_M_weak_count.i.i.i.i = getelementptr inbounds %"class.std::_Sp_counted_base", ptr %8, i64 0, i32 2
  store i32 0, ptr %_M_weak_count.i.i.i.i, align 4
  %vtable.i.i.i.i = load ptr, ptr %8, align 8
  %vfn.i.i.i.i = getelementptr inbounds ptr, ptr %vtable.i.i.i.i, i64 2
  %11 = load ptr, ptr %vfn.i.i.i.i, align 8
  call void %11(ptr noundef nonnull align 8 dereferenceable(16) %8) #23
  br label %if.end8.sink.split.i.i.i.i

if.end.i.i.i.i:                                   ; preds = %if.then.i.i.i
  %12 = load i8, ptr @__libc_single_threaded, align 1
  %tobool.i.not.i.i.i.i = icmp eq i8 %12, 0
  br i1 %tobool.i.not.i.i.i.i, label %if.else.i.i.i.i.i, label %if.then.i.i.i.i.i

if.then.i.i.i.i.i:                                ; preds = %if.end.i.i.i.i
  %add.i.i.i.i.i = add nsw i32 %10, -1
  store i32 %add.i.i.i.i.i, ptr %_M_use_count.i.i.i.i, align 4
  br label %_ZN9__gnu_cxx27__exchange_and_add_dispatchEPii.exit.i.i.i.i

if.else.i.i.i.i.i:                                ; preds = %if.end.i.i.i.i
  %13 = atomicrmw volatile add ptr %_M_use_count.i.i.i.i, i32 -1 acq_rel, align 4
  br label %_ZN9__gnu_cxx27__exchange_and_add_dispatchEPii.exit.i.i.i.i

_ZN9__gnu_cxx27__exchange_and_add_dispatchEPii.exit.i.i.i.i: ; preds = %if.else.i.i.i.i.i, %if.then.i.i.i.i.i
  %retval.i.0.i.i.i.i = phi i32 [ %10, %if.then.i.i.i.i.i ], [ %13, %if.else.i.i.i.i.i ]
  %cmp6.i.i.i.i = icmp eq i32 %retval.i.0.i.i.i.i, 1
  br i1 %cmp6.i.i.i.i, label %if.then7.i.i.i.i, label %_ZNSt10shared_ptrIN7openvdb5v11_04math7MapBaseEED2Ev.exit

if.then7.i.i.i.i:                                 ; preds = %_ZN9__gnu_cxx27__exchange_and_add_dispatchEPii.exit.i.i.i.i
  %vtable.i.i.i.i.i.i = load ptr, ptr %8, align 8
  %vfn.i.i.i.i.i.i = getelementptr inbounds ptr, ptr %vtable.i.i.i.i.i.i, i64 2
  %14 = load ptr, ptr %vfn.i.i.i.i.i.i, align 8
  call void %14(ptr noundef nonnull align 8 dereferenceable(16) %8) #23
  %_M_weak_count.i.i.i.i.i.i3 = getelementptr inbounds %"class.std::_Sp_counted_base", ptr %8, i64 0, i32 2
  %15 = load i8, ptr @__libc_single_threaded, align 1
  %tobool.i.not.i.i.i.i.i.i = icmp eq i8 %15, 0
  br i1 %tobool.i.not.i.i.i.i.i.i, label %if.else.i.i.i.i.i.i.i, label %if.then.i.i.i.i.i.i.i

if.then.i.i.i.i.i.i.i:                            ; preds = %if.then7.i.i.i.i
  %16 = load i32, ptr %_M_weak_count.i.i.i.i.i.i3, align 4
  %add.i.i.i.i.i.i.i = add nsw i32 %16, -1
  store i32 %add.i.i.i.i.i.i.i, ptr %_M_weak_count.i.i.i.i.i.i3, align 4
  br label %_ZN9__gnu_cxx27__exchange_and_add_dispatchEPii.exit.i.i.i.i.i.i

if.else.i.i.i.i.i.i.i:                            ; preds = %if.then7.i.i.i.i
  %17 = atomicrmw volatile add ptr %_M_weak_count.i.i.i.i.i.i3, i32 -1 acq_rel, align 4
  br label %_ZN9__gnu_cxx27__exchange_and_add_dispatchEPii.exit.i.i.i.i.i.i

_ZN9__gnu_cxx27__exchange_and_add_dispatchEPii.exit.i.i.i.i.i.i: ; preds = %if.else.i.i.i.i.i.i.i, %if.then.i.i.i.i.i.i.i
  %retval.i.0.i.i.i.i.i.i = phi i32 [ %16, %if.then.i.i.i.i.i.i.i ], [ %17, %if.else.i.i.i.i.i.i.i ]
  %cmp.i.i.i.i.i.i = icmp eq i32 %retval.i.0.i.i.i.i.i.i, 1
  br i1 %cmp.i.i.i.i.i.i, label %if.end8.sink.split.i.i.i.i, label %_ZNSt10shared_ptrIN7openvdb5v11_04math7MapBaseEED2Ev.exit

if.end8.sink.split.i.i.i.i:                       ; preds = %_ZN9__gnu_cxx27__exchange_and_add_dispatchEPii.exit.i.i.i.i.i.i, %if.then.i.i.i.i
  %vtable2.i.i.i.i.i.i = load ptr, ptr %8, align 8
  %vfn3.i.i.i.i.i.i = getelementptr inbounds ptr, ptr %vtable2.i.i.i.i.i.i, i64 3
  %18 = load ptr, ptr %vfn3.i.i.i.i.i.i, align 8
  call void %18(ptr noundef nonnull align 8 dereferenceable(16) %8) #23
  br label %_ZNSt10shared_ptrIN7openvdb5v11_04math7MapBaseEED2Ev.exit

_ZNSt10shared_ptrIN7openvdb5v11_04math7MapBaseEED2Ev.exit: ; preds = %invoke.cont4, %_ZN9__gnu_cxx27__exchange_and_add_dispatchEPii.exit.i.i.i.i, %_ZN9__gnu_cxx27__exchange_and_add_dispatchEPii.exit.i.i.i.i.i.i, %if.end8.sink.split.i.i.i.i
  ret void

ehcleanup.thread:                                 ; preds = %entry
  %19 = landingpad { ptr, i32 }
          cleanup
  br label %cleanup.action

ehcleanup.thread8:                                ; preds = %invoke.cont
  %20 = landingpad { ptr, i32 }
          cleanup
  call void @_ZNSt10shared_ptrIN7openvdb5v11_04math7MapBaseEED2Ev(ptr noundef nonnull align 8 dereferenceable(16) %ref.tmp) #23
  br label %cleanup.action

ehcleanup:                                        ; preds = %lpad3.i.i.i.i
  call void @_ZNSt10shared_ptrIN7openvdb5v11_04math7MapBaseEED2Ev(ptr noundef nonnull align 8 dereferenceable(16) %ref.tmp) #23
  br label %eh.resume

cleanup.action:                                   ; preds = %ehcleanup.thread8, %ehcleanup.thread
  %.pn7 = phi { ptr, i32 } [ %19, %ehcleanup.thread ], [ %20, %ehcleanup.thread8 ]
  call void @_ZdlPv(ptr noundef nonnull %call) #26
  br label %eh.resume

eh.resume:                                        ; preds = %ehcleanup, %cleanup.action
  %.pn6 = phi { ptr, i32 } [ %5, %ehcleanup ], [ %.pn7, %cleanup.action ]
  resume { ptr, i32 } %.pn6
}

; Function Attrs: mustprogress nounwind uwtable
define linkonce_odr void @_ZN7openvdb5v11_04math19NonlinearFrustumMapD2Ev(ptr noundef nonnull align 8 dereferenceable(520) %this) unnamed_addr #6 comdat align 2 {
entry:
  ret void
}

; Function Attrs: mustprogress uwtable
define void @_ZN7openvdb5v11_04math9Transform4readERSi(ptr nocapture noundef nonnull align 8 dereferenceable(16) %this, ptr noundef nonnull align 8 dereferenceable(16) %is) local_unnamed_addr #3 align 2 personality ptr @__gxx_personality_v0 {
entry:
  %m0.i.i130 = alloca %"class.openvdb::v11_0::math::Mat4", align 8
  %m0.i.i = alloca %"class.openvdb::v11_0::math::Mat4", align 8
  %type = alloca %"class.std::__cxx11::basic_string", align 8
  %tmpMin = alloca %"class.openvdb::v11_0::math::Coord", align 4
  %tmpMax = alloca %"class.openvdb::v11_0::math::Coord", align 4
  %tmpLocalToWorld = alloca %"class.openvdb::v11_0::math::Mat4", align 16
  %tmpWorldToLocal = alloca %"class.openvdb::v11_0::math::Mat4", align 8
  %tmpVoxelToLocal = alloca %"class.openvdb::v11_0::math::Mat4", align 8
  %tmpLocalToVoxel = alloca %"class.openvdb::v11_0::math::Mat4", align 8
  %affineMap = alloca %"class.std::shared_ptr.3", align 8
  %ref.tmp = alloca %"class.openvdb::v11_0::math::Mat4", align 8
  %ref.tmp21 = alloca %"class.std::shared_ptr", align 16
  %agg.tmp = alloca %"class.std::shared_ptr.3", align 8
  %legacyFrustum = alloca %"class.openvdb::v11_0::math::internal::LegacyFrustum", align 16
  %bbox = alloca %"class.openvdb::v11_0::math::BBox", align 16
  %second = alloca %"class.openvdb::v11_0::math::Mat4", align 8
  %linearMap = alloca %"class.std::shared_ptr", align 8
  %agg.tmp67 = alloca %"class.std::shared_ptr.3", align 8
  %ref.tmp68 = alloca %"class.openvdb::v11_0::math::AffineMap", align 8
  %_openvdb_throw_msg = alloca %"class.std::__cxx11::basic_string", align 8
  %_openvdb_throw_os = alloca %"class.std::__cxx11::basic_ostringstream", align 8
  %ref.tmp89 = alloca %"class.std::__cxx11::basic_string", align 8
  %ref.tmp90 = alloca %"class.std::__cxx11::basic_string", align 8
  %ref.tmp100 = alloca %"class.std::__cxx11::basic_string", align 8
  %_openvdb_throw_msg113 = alloca %"class.std::__cxx11::basic_string", align 8
  %_openvdb_throw_os114 = alloca %"class.std::__cxx11::basic_ostringstream", align 8
  %ref.tmp124 = alloca %"class.std::__cxx11::basic_string", align 8
  %ref.tmp136 = alloca %"class.std::shared_ptr", align 16
  call void @_ZN7openvdb5v11_010readStringB5cxx11ERSi(ptr nonnull sret(%"class.std::__cxx11::basic_string") align 8 %type, ptr noundef nonnull align 8 dereferenceable(16) %is)
  %vtable = load ptr, ptr %is, align 8
  %vbase.offset.ptr = getelementptr i8, ptr %vtable, i64 -24
  %vbase.offset = load i64, ptr %vbase.offset.ptr, align 8
  %add.ptr = getelementptr inbounds i8, ptr %is, i64 %vbase.offset
  %call = invoke noundef i32 @_ZN7openvdb5v11_02io16getFormatVersionERSt8ios_base(ptr noundef nonnull align 8 dereferenceable(216) %add.ptr)
          to label %invoke.cont unwind label %lpad

invoke.cont:                                      ; preds = %entry
  %cmp = icmp ult i32 %call, 219
  br i1 %cmp, label %if.then, label %if.else109

if.then:                                          ; preds = %invoke.cont
  %call.i = call noundef i32 @_ZNKSt7__cxx1112basic_stringIcSt11char_traitsIcESaIcEE7compareEPKc(ptr noundef nonnull align 8 dereferenceable(32) %type, ptr noundef nonnull @.str) #23
  %cmp.i = icmp eq i32 %call.i, 0
  br i1 %cmp.i, label %if.then4, label %if.else

if.then4:                                         ; preds = %if.then
  store i32 0, ptr %tmpMin, align 4
  %arrayinit.element.i = getelementptr inbounds i32, ptr %tmpMin, i64 1
  store i32 0, ptr %arrayinit.element.i, align 4
  %arrayinit.element2.i = getelementptr inbounds i32, ptr %tmpMin, i64 2
  store i32 0, ptr %arrayinit.element2.i, align 4
  store i32 0, ptr %tmpMax, align 4
  %arrayinit.element.i22 = getelementptr inbounds i32, ptr %tmpMax, i64 1
  store i32 0, ptr %arrayinit.element.i22, align 4
  %arrayinit.element2.i23 = getelementptr inbounds i32, ptr %tmpMax, i64 2
  store i32 0, ptr %arrayinit.element2.i23, align 4
  %call8 = invoke noundef nonnull align 8 dereferenceable(16) ptr @_ZNSi4readEPcl(ptr noundef nonnull align 8 dereferenceable(16) %is, ptr noundef nonnull %tmpMin, i64 noundef 12)
          to label %invoke.cont7 unwind label %lpad

invoke.cont7:                                     ; preds = %if.then4
  %call10 = invoke noundef nonnull align 8 dereferenceable(16) ptr @_ZNSi4readEPcl(ptr noundef nonnull align 8 dereferenceable(16) %is, ptr noundef nonnull %tmpMax, i64 noundef 12)
          to label %invoke.cont9 unwind label %lpad

invoke.cont9:                                     ; preds = %invoke.cont7
  %call.i2425 = invoke noundef nonnull align 8 dereferenceable(16) ptr @_ZNSi4readEPcl(ptr noundef nonnull align 8 dereferenceable(16) %is, ptr noundef nonnull %tmpLocalToWorld, i64 noundef 128)
          to label %invoke.cont11 unwind label %lpad

invoke.cont11:                                    ; preds = %invoke.cont9
  %call.i2627 = invoke noundef nonnull align 8 dereferenceable(16) ptr @_ZNSi4readEPcl(ptr noundef nonnull align 8 dereferenceable(16) %is, ptr noundef nonnull %tmpWorldToLocal, i64 noundef 128)
          to label %invoke.cont12 unwind label %lpad

invoke.cont12:                                    ; preds = %invoke.cont11
  %call.i2930 = invoke noundef nonnull align 8 dereferenceable(16) ptr @_ZNSi4readEPcl(ptr noundef nonnull align 8 dereferenceable(16) %is, ptr noundef nonnull %tmpVoxelToLocal, i64 noundef 128)
          to label %invoke.cont13 unwind label %lpad

invoke.cont13:                                    ; preds = %invoke.cont12
  %call.i3233 = invoke noundef nonnull align 8 dereferenceable(16) ptr @_ZNSi4readEPcl(ptr noundef nonnull align 8 dereferenceable(16) %is, ptr noundef nonnull %tmpLocalToVoxel, i64 noundef 128)
          to label %invoke.cont14 unwind label %lpad

invoke.cont14:                                    ; preds = %invoke.cont13
  %call16 = invoke noalias noundef nonnull dereferenceable(376) ptr @_Znwm(i64 noundef 376) #22
          to label %invoke.cont15 unwind label %lpad

invoke.cont15:                                    ; preds = %invoke.cont14
  call void @llvm.experimental.noalias.scope.decl(metadata !41)
  call void @llvm.memcpy.p0.p0.i64(ptr noundef nonnull align 8 dereferenceable(128) %ref.tmp, ptr noundef nonnull align 8 dereferenceable(128) %tmpVoxelToLocal, i64 128, i1 false)
  call void @llvm.lifetime.start.p0(i64 128, ptr nonnull %m0.i.i), !noalias !41
  call void @llvm.memcpy.p0.p0.i64(ptr noundef nonnull align 8 dereferenceable(128) %m0.i.i, ptr noundef nonnull align 8 dereferenceable(128) %tmpVoxelToLocal, i64 128, i1 false), !noalias !41
  %arrayidx8.i.i = getelementptr inbounds double, ptr %tmpLocalToWorld, i64 4
  %arrayidx13.i.i = getelementptr inbounds double, ptr %tmpLocalToWorld, i64 8
  %arrayidx18.i.i = getelementptr inbounds double, ptr %tmpLocalToWorld, i64 12
  %arrayidx50.i.i = getelementptr inbounds double, ptr %tmpLocalToWorld, i64 2
  %arrayidx55.i.i = getelementptr inbounds double, ptr %tmpLocalToWorld, i64 6
  %arrayidx60.i.i = getelementptr inbounds double, ptr %tmpLocalToWorld, i64 10
  %arrayidx65.i.i = getelementptr inbounds double, ptr %tmpLocalToWorld, i64 14
  %0 = load <2 x double>, ptr %tmpLocalToWorld, align 16, !noalias !41
  %1 = load <2 x double>, ptr %arrayidx8.i.i, align 16, !noalias !41
  %2 = load <2 x double>, ptr %arrayidx13.i.i, align 16, !noalias !41
  %3 = load <2 x double>, ptr %arrayidx18.i.i, align 16, !noalias !41
  %4 = load <2 x double>, ptr %arrayidx50.i.i, align 16, !noalias !41
  %5 = load <2 x double>, ptr %arrayidx55.i.i, align 16, !noalias !41
  %6 = load <2 x double>, ptr %arrayidx60.i.i, align 16, !noalias !41
  %7 = load <2 x double>, ptr %arrayidx65.i.i, align 16, !noalias !41
  br label %for.body.i.i

for.body.i.i:                                     ; preds = %for.body.i.i, %invoke.cont15
  %indvars.iv.i.i = phi i64 [ 0, %invoke.cont15 ], [ %indvars.iv.next.i.i, %for.body.i.i ]
  %8 = shl nuw nsw i64 %indvars.iv.i.i, 2
  %arrayidx.i.i = getelementptr inbounds double, ptr %m0.i.i, i64 %8
  %9 = load double, ptr %arrayidx.i.i, align 8, !noalias !41
  %10 = or disjoint i64 %8, 1
  %arrayidx7.i.i = getelementptr inbounds double, ptr %m0.i.i, i64 %10
  %11 = load double, ptr %arrayidx7.i.i, align 8, !noalias !41
  %12 = or disjoint i64 %8, 2
  %arrayidx12.i.i = getelementptr inbounds double, ptr %m0.i.i, i64 %12
  %13 = load double, ptr %arrayidx12.i.i, align 8, !noalias !41
  %14 = or disjoint i64 %8, 3
  %arrayidx17.i.i = getelementptr inbounds double, ptr %m0.i.i, i64 %14
  %15 = load double, ptr %arrayidx17.i.i, align 8, !noalias !41
  %arrayidx22.i.i = getelementptr inbounds [16 x double], ptr %ref.tmp, i64 0, i64 %8
  %16 = insertelement <2 x double> poison, double %11, i64 0
  %17 = shufflevector <2 x double> %16, <2 x double> poison, <2 x i32> zeroinitializer
  %18 = fmul <2 x double> %1, %17
  %19 = insertelement <2 x double> poison, double %9, i64 0
  %20 = shufflevector <2 x double> %19, <2 x double> poison, <2 x i32> zeroinitializer
  %21 = call <2 x double> @llvm.fmuladd.v2f64(<2 x double> %20, <2 x double> %0, <2 x double> %18)
  %22 = insertelement <2 x double> poison, double %13, i64 0
  %23 = shufflevector <2 x double> %22, <2 x double> poison, <2 x i32> zeroinitializer
  %24 = call <2 x double> @llvm.fmuladd.v2f64(<2 x double> %23, <2 x double> %2, <2 x double> %21)
  %25 = insertelement <2 x double> poison, double %15, i64 0
  %26 = shufflevector <2 x double> %25, <2 x double> poison, <2 x i32> zeroinitializer
  %27 = call <2 x double> @llvm.fmuladd.v2f64(<2 x double> %26, <2 x double> %3, <2 x double> %24)
  store <2 x double> %27, ptr %arrayidx22.i.i, align 8, !alias.scope !41
  %arrayidx70.i.i = getelementptr inbounds [16 x double], ptr %ref.tmp, i64 0, i64 %12
  %28 = fmul <2 x double> %5, %17
  %29 = call <2 x double> @llvm.fmuladd.v2f64(<2 x double> %20, <2 x double> %4, <2 x double> %28)
  %30 = call <2 x double> @llvm.fmuladd.v2f64(<2 x double> %23, <2 x double> %6, <2 x double> %29)
  %31 = call <2 x double> @llvm.fmuladd.v2f64(<2 x double> %26, <2 x double> %7, <2 x double> %30)
  store <2 x double> %31, ptr %arrayidx70.i.i, align 8, !alias.scope !41
  %indvars.iv.next.i.i = add nuw nsw i64 %indvars.iv.i.i, 1
  %exitcond.not.i.i = icmp eq i64 %indvars.iv.next.i.i, 4
  br i1 %exitcond.not.i.i, label %invoke.cont18, label %for.body.i.i, !llvm.loop !44

invoke.cont18:                                    ; preds = %for.body.i.i
  call void @llvm.lifetime.end.p0(i64 128, ptr nonnull %m0.i.i), !noalias !41
  invoke void @_ZN7openvdb5v11_04math9AffineMapC2ERKNS1_4Mat4IdEE(ptr noundef nonnull align 8 dereferenceable(376) %call16, ptr noundef nonnull align 8 dereferenceable(128) %ref.tmp)
          to label %invoke.cont19 unwind label %lpad17

invoke.cont19:                                    ; preds = %invoke.cont18
  store ptr %call16, ptr %affineMap, align 8
  %_M_refcount.i.i = getelementptr inbounds %"class.std::__shared_ptr.4", ptr %affineMap, i64 0, i32 1
  store ptr null, ptr %_M_refcount.i.i, align 8
  %call.i.i.i.i = invoke noalias noundef nonnull dereferenceable(24) ptr @_Znwm(i64 noundef 24) #22
          to label %if.then.i.i.i unwind label %lpad.i.i.i.i

lpad.i.i.i.i:                                     ; preds = %invoke.cont19
  %32 = landingpad { ptr, i32 }
          catch ptr null
  %33 = extractvalue { ptr, i32 } %32, 0
  %34 = call ptr @__cxa_begin_catch(ptr %33) #23
  call void @_ZdlPv(ptr noundef nonnull %call16) #26
  invoke void @__cxa_rethrow() #24
          to label %unreachable.i.i.i.i unwind label %lpad3.i.i.i.i

lpad3.i.i.i.i:                                    ; preds = %lpad.i.i.i.i
  %35 = landingpad { ptr, i32 }
          cleanup
  invoke void @__cxa_end_catch()
          to label %ehcleanup145 unwind label %terminate.lpad.i.i.i.i

terminate.lpad.i.i.i.i:                           ; preds = %lpad3.i.i.i.i
  %36 = landingpad { ptr, i32 }
          catch ptr null
  %37 = extractvalue { ptr, i32 } %36, 0
  call void @__clang_call_terminate(ptr %37) #25
  unreachable

unreachable.i.i.i.i:                              ; preds = %lpad.i.i.i.i
  unreachable

if.then.i.i.i:                                    ; preds = %invoke.cont19
  %_M_use_count.i.i.i.i.i.i = getelementptr inbounds %"class.std::_Sp_counted_base", ptr %call.i.i.i.i, i64 0, i32 1
  store i32 1, ptr %_M_use_count.i.i.i.i.i.i, align 8
  %_M_weak_count.i.i.i.i.i.i = getelementptr inbounds %"class.std::_Sp_counted_base", ptr %call.i.i.i.i, i64 0, i32 2
  store i32 1, ptr %_M_weak_count.i.i.i.i.i.i, align 4
  store ptr getelementptr inbounds ({ [7 x ptr] }, ptr @_ZTVSt15_Sp_counted_ptrIPN7openvdb5v11_04math9AffineMapELN9__gnu_cxx12_Lock_policyE2EE, i64 0, inrange i32 0, i64 2), ptr %call.i.i.i.i, align 8
  %_M_ptr.i.i.i.i.i = getelementptr inbounds %"class.std::_Sp_counted_ptr.21", ptr %call.i.i.i.i, i64 0, i32 1
  store ptr %call16, ptr %_M_ptr.i.i.i.i.i, align 8
  store ptr %call.i.i.i.i, ptr %_M_refcount.i.i, align 8
  store ptr %call16, ptr %agg.tmp, align 8
  %_M_refcount.i.i35 = getelementptr inbounds %"class.std::__shared_ptr.4", ptr %agg.tmp, i64 0, i32 1
  store ptr %call.i.i.i.i, ptr %_M_refcount.i.i35, align 8
  %38 = load i8, ptr @__libc_single_threaded, align 1
  %tobool.i.i.not.i.i.i.i = icmp eq i8 %38, 0
  br i1 %tobool.i.i.not.i.i.i.i, label %if.else.i.i.i.i.i, label %if.then.i.i.i.i.i

if.then.i.i.i.i.i:                                ; preds = %if.then.i.i.i
  store i32 2, ptr %_M_use_count.i.i.i.i.i.i, align 4
  br label %_ZNSt10shared_ptrIN7openvdb5v11_04math9AffineMapEEC2ERKS4_.exit

if.else.i.i.i.i.i:                                ; preds = %if.then.i.i.i
  %39 = atomicrmw volatile add ptr %_M_use_count.i.i.i.i.i.i, i32 1 acq_rel, align 4
  br label %_ZNSt10shared_ptrIN7openvdb5v11_04math9AffineMapEEC2ERKS4_.exit

_ZNSt10shared_ptrIN7openvdb5v11_04math9AffineMapEEC2ERKS4_.exit: ; preds = %if.then.i.i.i.i.i, %if.else.i.i.i.i.i
  invoke void @_ZN7openvdb5v11_04math8simplifyESt10shared_ptrINS1_9AffineMapEE(ptr nonnull sret(%"class.std::shared_ptr") align 8 %ref.tmp21, ptr noundef nonnull %agg.tmp)
          to label %invoke.cont23 unwind label %lpad22

invoke.cont23:                                    ; preds = %_ZNSt10shared_ptrIN7openvdb5v11_04math9AffineMapEEC2ERKS4_.exit
  %_M_refcount4.i.i.i = getelementptr inbounds %"class.std::__shared_ptr", ptr %ref.tmp21, i64 0, i32 1
  %_M_refcount3.i.i.i = getelementptr inbounds %"class.std::__shared_ptr", ptr %this, i64 0, i32 1
  %40 = load <2 x ptr>, ptr %ref.tmp21, align 16
  call void @llvm.memset.p0.i64(ptr noundef nonnull align 16 dereferenceable(16) %ref.tmp21, i8 0, i64 16, i1 false)
  %41 = load ptr, ptr %_M_refcount3.i.i.i, align 8
  store <2 x ptr> %40, ptr %this, align 8
  %cmp.not.i.i.i.i = icmp eq ptr %41, null
  br i1 %cmp.not.i.i.i.i, label %_ZNSt10shared_ptrIN7openvdb5v11_04math7MapBaseEEaSEOS4_.exit, label %if.then.i.i.i.i

if.then.i.i.i.i:                                  ; preds = %invoke.cont23
  %_M_use_count.i.i.i.i.i = getelementptr inbounds %"class.std::_Sp_counted_base", ptr %41, i64 0, i32 1
  %42 = load atomic i64, ptr %_M_use_count.i.i.i.i.i acquire, align 8
  %cmp.i.i.i.i.i = icmp eq i64 %42, 4294967297
  %43 = trunc i64 %42 to i32
  br i1 %cmp.i.i.i.i.i, label %if.then.i.i.i.i.i36, label %if.end.i.i.i.i.i

if.then.i.i.i.i.i36:                              ; preds = %if.then.i.i.i.i
  store i32 0, ptr %_M_use_count.i.i.i.i.i, align 8
  %_M_weak_count.i.i.i.i.i = getelementptr inbounds %"class.std::_Sp_counted_base", ptr %41, i64 0, i32 2
  store i32 0, ptr %_M_weak_count.i.i.i.i.i, align 4
  %vtable.i.i.i.i.i = load ptr, ptr %41, align 8
  %vfn.i.i.i.i.i = getelementptr inbounds ptr, ptr %vtable.i.i.i.i.i, i64 2
  %44 = load ptr, ptr %vfn.i.i.i.i.i, align 8
  call void %44(ptr noundef nonnull align 8 dereferenceable(16) %41) #23
  br label %if.end8.sink.split.i.i.i.i.i

if.end.i.i.i.i.i:                                 ; preds = %if.then.i.i.i.i
  %45 = load i8, ptr @__libc_single_threaded, align 1
  %tobool.i.not.i.i.i.i.i = icmp eq i8 %45, 0
  br i1 %tobool.i.not.i.i.i.i.i, label %if.else.i.i.i.i.i.i, label %if.then.i.i.i.i.i.i

if.then.i.i.i.i.i.i:                              ; preds = %if.end.i.i.i.i.i
  %add.i.i.i.i.i.i = add nsw i32 %43, -1
  store i32 %add.i.i.i.i.i.i, ptr %_M_use_count.i.i.i.i.i, align 4
  br label %_ZN9__gnu_cxx27__exchange_and_add_dispatchEPii.exit.i.i.i.i.i

if.else.i.i.i.i.i.i:                              ; preds = %if.end.i.i.i.i.i
  %46 = atomicrmw volatile add ptr %_M_use_count.i.i.i.i.i, i32 -1 acq_rel, align 4
  br label %_ZN9__gnu_cxx27__exchange_and_add_dispatchEPii.exit.i.i.i.i.i

_ZN9__gnu_cxx27__exchange_and_add_dispatchEPii.exit.i.i.i.i.i: ; preds = %if.else.i.i.i.i.i.i, %if.then.i.i.i.i.i.i
  %retval.i.0.i.i.i.i.i = phi i32 [ %43, %if.then.i.i.i.i.i.i ], [ %46, %if.else.i.i.i.i.i.i ]
  %cmp6.i.i.i.i.i = icmp eq i32 %retval.i.0.i.i.i.i.i, 1
  br i1 %cmp6.i.i.i.i.i, label %if.then7.i.i.i.i.i, label %_ZNSt10shared_ptrIN7openvdb5v11_04math7MapBaseEEaSEOS4_.exit

if.then7.i.i.i.i.i:                               ; preds = %_ZN9__gnu_cxx27__exchange_and_add_dispatchEPii.exit.i.i.i.i.i
  %vtable.i.i.i.i.i.i.i = load ptr, ptr %41, align 8
  %vfn.i.i.i.i.i.i.i = getelementptr inbounds ptr, ptr %vtable.i.i.i.i.i.i.i, i64 2
  %47 = load ptr, ptr %vfn.i.i.i.i.i.i.i, align 8
  call void %47(ptr noundef nonnull align 8 dereferenceable(16) %41) #23
  %_M_weak_count.i.i.i.i.i.i.i = getelementptr inbounds %"class.std::_Sp_counted_base", ptr %41, i64 0, i32 2
  %48 = load i8, ptr @__libc_single_threaded, align 1
  %tobool.i.not.i.i.i.i.i.i.i = icmp eq i8 %48, 0
  br i1 %tobool.i.not.i.i.i.i.i.i.i, label %if.else.i.i.i.i.i.i.i.i, label %if.then.i.i.i.i.i.i.i.i

if.then.i.i.i.i.i.i.i.i:                          ; preds = %if.then7.i.i.i.i.i
  %49 = load i32, ptr %_M_weak_count.i.i.i.i.i.i.i, align 4
  %add.i.i.i.i.i.i.i.i = add nsw i32 %49, -1
  store i32 %add.i.i.i.i.i.i.i.i, ptr %_M_weak_count.i.i.i.i.i.i.i, align 4
  br label %_ZN9__gnu_cxx27__exchange_and_add_dispatchEPii.exit.i.i.i.i.i.i.i

if.else.i.i.i.i.i.i.i.i:                          ; preds = %if.then7.i.i.i.i.i
  %50 = atomicrmw volatile add ptr %_M_weak_count.i.i.i.i.i.i.i, i32 -1 acq_rel, align 4
  br label %_ZN9__gnu_cxx27__exchange_and_add_dispatchEPii.exit.i.i.i.i.i.i.i

_ZN9__gnu_cxx27__exchange_and_add_dispatchEPii.exit.i.i.i.i.i.i.i: ; preds = %if.else.i.i.i.i.i.i.i.i, %if.then.i.i.i.i.i.i.i.i
  %retval.i.0.i.i.i.i.i.i.i = phi i32 [ %49, %if.then.i.i.i.i.i.i.i.i ], [ %50, %if.else.i.i.i.i.i.i.i.i ]
  %cmp.i.i.i.i.i.i.i = icmp eq i32 %retval.i.0.i.i.i.i.i.i.i, 1
  br i1 %cmp.i.i.i.i.i.i.i, label %if.end8.sink.split.i.i.i.i.i, label %_ZNSt10shared_ptrIN7openvdb5v11_04math7MapBaseEEaSEOS4_.exit

if.end8.sink.split.i.i.i.i.i:                     ; preds = %_ZN9__gnu_cxx27__exchange_and_add_dispatchEPii.exit.i.i.i.i.i.i.i, %if.then.i.i.i.i.i36
  %vtable2.i.i.i.i.i.i.i = load ptr, ptr %41, align 8
  %vfn3.i.i.i.i.i.i.i = getelementptr inbounds ptr, ptr %vtable2.i.i.i.i.i.i.i, i64 3
  %51 = load ptr, ptr %vfn3.i.i.i.i.i.i.i, align 8
  call void %51(ptr noundef nonnull align 8 dereferenceable(16) %41) #23
  br label %_ZNSt10shared_ptrIN7openvdb5v11_04math7MapBaseEEaSEOS4_.exit

_ZNSt10shared_ptrIN7openvdb5v11_04math7MapBaseEEaSEOS4_.exit: ; preds = %invoke.cont23, %_ZN9__gnu_cxx27__exchange_and_add_dispatchEPii.exit.i.i.i.i.i, %_ZN9__gnu_cxx27__exchange_and_add_dispatchEPii.exit.i.i.i.i.i.i.i, %if.end8.sink.split.i.i.i.i.i
  %52 = load ptr, ptr %_M_refcount4.i.i.i, align 8
  %cmp.not.i.i.i38 = icmp eq ptr %52, null
  br i1 %cmp.not.i.i.i38, label %_ZNSt10shared_ptrIN7openvdb5v11_04math7MapBaseEED2Ev.exit, label %if.then.i.i.i39

if.then.i.i.i39:                                  ; preds = %_ZNSt10shared_ptrIN7openvdb5v11_04math7MapBaseEEaSEOS4_.exit
  %_M_use_count.i.i.i.i40 = getelementptr inbounds %"class.std::_Sp_counted_base", ptr %52, i64 0, i32 1
  %53 = load atomic i64, ptr %_M_use_count.i.i.i.i40 acquire, align 8
  %cmp.i.i.i.i = icmp eq i64 %53, 4294967297
  %54 = trunc i64 %53 to i32
  br i1 %cmp.i.i.i.i, label %if.then.i.i.i.i45, label %if.end.i.i.i.i

if.then.i.i.i.i45:                                ; preds = %if.then.i.i.i39
  store i32 0, ptr %_M_use_count.i.i.i.i40, align 8
  %_M_weak_count.i.i.i.i = getelementptr inbounds %"class.std::_Sp_counted_base", ptr %52, i64 0, i32 2
  store i32 0, ptr %_M_weak_count.i.i.i.i, align 4
  %vtable.i.i.i.i = load ptr, ptr %52, align 8
  %vfn.i.i.i.i = getelementptr inbounds ptr, ptr %vtable.i.i.i.i, i64 2
  %55 = load ptr, ptr %vfn.i.i.i.i, align 8
  call void %55(ptr noundef nonnull align 8 dereferenceable(16) %52) #23
  br label %if.end8.sink.split.i.i.i.i

if.end.i.i.i.i:                                   ; preds = %if.then.i.i.i39
  %56 = load i8, ptr @__libc_single_threaded, align 1
  %tobool.i.not.i.i.i.i = icmp eq i8 %56, 0
  br i1 %tobool.i.not.i.i.i.i, label %if.else.i.i.i.i.i44, label %if.then.i.i.i.i.i41

if.then.i.i.i.i.i41:                              ; preds = %if.end.i.i.i.i
  %add.i.i.i.i.i42 = add nsw i32 %54, -1
  store i32 %add.i.i.i.i.i42, ptr %_M_use_count.i.i.i.i40, align 4
  br label %_ZN9__gnu_cxx27__exchange_and_add_dispatchEPii.exit.i.i.i.i

if.else.i.i.i.i.i44:                              ; preds = %if.end.i.i.i.i
  %57 = atomicrmw volatile add ptr %_M_use_count.i.i.i.i40, i32 -1 acq_rel, align 4
  br label %_ZN9__gnu_cxx27__exchange_and_add_dispatchEPii.exit.i.i.i.i

_ZN9__gnu_cxx27__exchange_and_add_dispatchEPii.exit.i.i.i.i: ; preds = %if.else.i.i.i.i.i44, %if.then.i.i.i.i.i41
  %retval.i.0.i.i.i.i = phi i32 [ %54, %if.then.i.i.i.i.i41 ], [ %57, %if.else.i.i.i.i.i44 ]
  %cmp6.i.i.i.i = icmp eq i32 %retval.i.0.i.i.i.i, 1
  br i1 %cmp6.i.i.i.i, label %if.then7.i.i.i.i, label %_ZNSt10shared_ptrIN7openvdb5v11_04math7MapBaseEED2Ev.exit

if.then7.i.i.i.i:                                 ; preds = %_ZN9__gnu_cxx27__exchange_and_add_dispatchEPii.exit.i.i.i.i
  %vtable.i.i.i.i.i.i = load ptr, ptr %52, align 8
  %vfn.i.i.i.i.i.i = getelementptr inbounds ptr, ptr %vtable.i.i.i.i.i.i, i64 2
  %58 = load ptr, ptr %vfn.i.i.i.i.i.i, align 8
  call void %58(ptr noundef nonnull align 8 dereferenceable(16) %52) #23
  %_M_weak_count.i.i.i.i.i.i43 = getelementptr inbounds %"class.std::_Sp_counted_base", ptr %52, i64 0, i32 2
  %59 = load i8, ptr @__libc_single_threaded, align 1
  %tobool.i.not.i.i.i.i.i.i = icmp eq i8 %59, 0
  br i1 %tobool.i.not.i.i.i.i.i.i, label %if.else.i.i.i.i.i.i.i, label %if.then.i.i.i.i.i.i.i

if.then.i.i.i.i.i.i.i:                            ; preds = %if.then7.i.i.i.i
  %60 = load i32, ptr %_M_weak_count.i.i.i.i.i.i43, align 4
  %add.i.i.i.i.i.i.i = add nsw i32 %60, -1
  store i32 %add.i.i.i.i.i.i.i, ptr %_M_weak_count.i.i.i.i.i.i43, align 4
  br label %_ZN9__gnu_cxx27__exchange_and_add_dispatchEPii.exit.i.i.i.i.i.i

if.else.i.i.i.i.i.i.i:                            ; preds = %if.then7.i.i.i.i
  %61 = atomicrmw volatile add ptr %_M_weak_count.i.i.i.i.i.i43, i32 -1 acq_rel, align 4
  br label %_ZN9__gnu_cxx27__exchange_and_add_dispatchEPii.exit.i.i.i.i.i.i

_ZN9__gnu_cxx27__exchange_and_add_dispatchEPii.exit.i.i.i.i.i.i: ; preds = %if.else.i.i.i.i.i.i.i, %if.then.i.i.i.i.i.i.i
  %retval.i.0.i.i.i.i.i.i = phi i32 [ %60, %if.then.i.i.i.i.i.i.i ], [ %61, %if.else.i.i.i.i.i.i.i ]
  %cmp.i.i.i.i.i.i = icmp eq i32 %retval.i.0.i.i.i.i.i.i, 1
  br i1 %cmp.i.i.i.i.i.i, label %if.end8.sink.split.i.i.i.i, label %_ZNSt10shared_ptrIN7openvdb5v11_04math7MapBaseEED2Ev.exit

if.end8.sink.split.i.i.i.i:                       ; preds = %_ZN9__gnu_cxx27__exchange_and_add_dispatchEPii.exit.i.i.i.i.i.i, %if.then.i.i.i.i45
  %vtable2.i.i.i.i.i.i = load ptr, ptr %52, align 8
  %vfn3.i.i.i.i.i.i = getelementptr inbounds ptr, ptr %vtable2.i.i.i.i.i.i, i64 3
  %62 = load ptr, ptr %vfn3.i.i.i.i.i.i, align 8
  call void %62(ptr noundef nonnull align 8 dereferenceable(16) %52) #23
  br label %_ZNSt10shared_ptrIN7openvdb5v11_04math7MapBaseEED2Ev.exit

_ZNSt10shared_ptrIN7openvdb5v11_04math7MapBaseEED2Ev.exit: ; preds = %_ZNSt10shared_ptrIN7openvdb5v11_04math7MapBaseEEaSEOS4_.exit, %_ZN9__gnu_cxx27__exchange_and_add_dispatchEPii.exit.i.i.i.i, %_ZN9__gnu_cxx27__exchange_and_add_dispatchEPii.exit.i.i.i.i.i.i, %if.end8.sink.split.i.i.i.i
  %63 = load ptr, ptr %_M_refcount.i.i35, align 8
  %cmp.not.i.i.i47 = icmp eq ptr %63, null
  br i1 %cmp.not.i.i.i47, label %_ZNSt10shared_ptrIN7openvdb5v11_04math9AffineMapEED2Ev.exit, label %if.then.i.i.i48

if.then.i.i.i48:                                  ; preds = %_ZNSt10shared_ptrIN7openvdb5v11_04math7MapBaseEED2Ev.exit
  %_M_use_count.i.i.i.i49 = getelementptr inbounds %"class.std::_Sp_counted_base", ptr %63, i64 0, i32 1
  %64 = load atomic i64, ptr %_M_use_count.i.i.i.i49 acquire, align 8
  %cmp.i.i.i.i50 = icmp eq i64 %64, 4294967297
  %65 = trunc i64 %64 to i32
  br i1 %cmp.i.i.i.i50, label %if.then.i.i.i.i73, label %if.end.i.i.i.i51

if.then.i.i.i.i73:                                ; preds = %if.then.i.i.i48
  store i32 0, ptr %_M_use_count.i.i.i.i49, align 8
  %_M_weak_count.i.i.i.i74 = getelementptr inbounds %"class.std::_Sp_counted_base", ptr %63, i64 0, i32 2
  store i32 0, ptr %_M_weak_count.i.i.i.i74, align 4
  %vtable.i.i.i.i75 = load ptr, ptr %63, align 8
  %vfn.i.i.i.i76 = getelementptr inbounds ptr, ptr %vtable.i.i.i.i75, i64 2
  %66 = load ptr, ptr %vfn.i.i.i.i76, align 8
  call void %66(ptr noundef nonnull align 8 dereferenceable(16) %63) #23
  br label %if.end8.sink.split.i.i.i.i68

if.end.i.i.i.i51:                                 ; preds = %if.then.i.i.i48
  %67 = load i8, ptr @__libc_single_threaded, align 1
  %tobool.i.not.i.i.i.i52 = icmp eq i8 %67, 0
  br i1 %tobool.i.not.i.i.i.i52, label %if.else.i.i.i.i.i72, label %if.then.i.i.i.i.i53

if.then.i.i.i.i.i53:                              ; preds = %if.end.i.i.i.i51
  %add.i.i.i.i.i54 = add nsw i32 %65, -1
  store i32 %add.i.i.i.i.i54, ptr %_M_use_count.i.i.i.i49, align 4
  br label %_ZN9__gnu_cxx27__exchange_and_add_dispatchEPii.exit.i.i.i.i55

if.else.i.i.i.i.i72:                              ; preds = %if.end.i.i.i.i51
  %68 = atomicrmw volatile add ptr %_M_use_count.i.i.i.i49, i32 -1 acq_rel, align 4
  br label %_ZN9__gnu_cxx27__exchange_and_add_dispatchEPii.exit.i.i.i.i55

_ZN9__gnu_cxx27__exchange_and_add_dispatchEPii.exit.i.i.i.i55: ; preds = %if.else.i.i.i.i.i72, %if.then.i.i.i.i.i53
  %retval.i.0.i.i.i.i56 = phi i32 [ %65, %if.then.i.i.i.i.i53 ], [ %68, %if.else.i.i.i.i.i72 ]
  %cmp6.i.i.i.i57 = icmp eq i32 %retval.i.0.i.i.i.i56, 1
  br i1 %cmp6.i.i.i.i57, label %if.then7.i.i.i.i58, label %_ZNSt10shared_ptrIN7openvdb5v11_04math9AffineMapEED2Ev.exit

if.then7.i.i.i.i58:                               ; preds = %_ZN9__gnu_cxx27__exchange_and_add_dispatchEPii.exit.i.i.i.i55
  %vtable.i.i.i.i.i.i59 = load ptr, ptr %63, align 8
  %vfn.i.i.i.i.i.i60 = getelementptr inbounds ptr, ptr %vtable.i.i.i.i.i.i59, i64 2
  %69 = load ptr, ptr %vfn.i.i.i.i.i.i60, align 8
  call void %69(ptr noundef nonnull align 8 dereferenceable(16) %63) #23
  %_M_weak_count.i.i.i.i.i.i61 = getelementptr inbounds %"class.std::_Sp_counted_base", ptr %63, i64 0, i32 2
  %70 = load i8, ptr @__libc_single_threaded, align 1
  %tobool.i.not.i.i.i.i.i.i62 = icmp eq i8 %70, 0
  br i1 %tobool.i.not.i.i.i.i.i.i62, label %if.else.i.i.i.i.i.i.i71, label %if.then.i.i.i.i.i.i.i63

if.then.i.i.i.i.i.i.i63:                          ; preds = %if.then7.i.i.i.i58
  %71 = load i32, ptr %_M_weak_count.i.i.i.i.i.i61, align 4
  %add.i.i.i.i.i.i.i64 = add nsw i32 %71, -1
  store i32 %add.i.i.i.i.i.i.i64, ptr %_M_weak_count.i.i.i.i.i.i61, align 4
  br label %_ZN9__gnu_cxx27__exchange_and_add_dispatchEPii.exit.i.i.i.i.i.i65

if.else.i.i.i.i.i.i.i71:                          ; preds = %if.then7.i.i.i.i58
  %72 = atomicrmw volatile add ptr %_M_weak_count.i.i.i.i.i.i61, i32 -1 acq_rel, align 4
  br label %_ZN9__gnu_cxx27__exchange_and_add_dispatchEPii.exit.i.i.i.i.i.i65

_ZN9__gnu_cxx27__exchange_and_add_dispatchEPii.exit.i.i.i.i.i.i65: ; preds = %if.else.i.i.i.i.i.i.i71, %if.then.i.i.i.i.i.i.i63
  %retval.i.0.i.i.i.i.i.i66 = phi i32 [ %71, %if.then.i.i.i.i.i.i.i63 ], [ %72, %if.else.i.i.i.i.i.i.i71 ]
  %cmp.i.i.i.i.i.i67 = icmp eq i32 %retval.i.0.i.i.i.i.i.i66, 1
  br i1 %cmp.i.i.i.i.i.i67, label %if.end8.sink.split.i.i.i.i68, label %_ZNSt10shared_ptrIN7openvdb5v11_04math9AffineMapEED2Ev.exit

if.end8.sink.split.i.i.i.i68:                     ; preds = %_ZN9__gnu_cxx27__exchange_and_add_dispatchEPii.exit.i.i.i.i.i.i65, %if.then.i.i.i.i73
  %vtable2.i.i.i.i.i.i69 = load ptr, ptr %63, align 8
  %vfn3.i.i.i.i.i.i70 = getelementptr inbounds ptr, ptr %vtable2.i.i.i.i.i.i69, i64 3
  %73 = load ptr, ptr %vfn3.i.i.i.i.i.i70, align 8
  call void %73(ptr noundef nonnull align 8 dereferenceable(16) %63) #23
  br label %_ZNSt10shared_ptrIN7openvdb5v11_04math9AffineMapEED2Ev.exit

_ZNSt10shared_ptrIN7openvdb5v11_04math9AffineMapEED2Ev.exit: ; preds = %_ZNSt10shared_ptrIN7openvdb5v11_04math7MapBaseEED2Ev.exit, %_ZN9__gnu_cxx27__exchange_and_add_dispatchEPii.exit.i.i.i.i55, %_ZN9__gnu_cxx27__exchange_and_add_dispatchEPii.exit.i.i.i.i.i.i65, %if.end8.sink.split.i.i.i.i68
  %74 = load ptr, ptr %_M_refcount.i.i, align 8
  %cmp.not.i.i.i78 = icmp eq ptr %74, null
  br i1 %cmp.not.i.i.i78, label %if.end144, label %if.then.i.i.i79

if.then.i.i.i79:                                  ; preds = %_ZNSt10shared_ptrIN7openvdb5v11_04math9AffineMapEED2Ev.exit
  %_M_use_count.i.i.i.i80 = getelementptr inbounds %"class.std::_Sp_counted_base", ptr %74, i64 0, i32 1
  %75 = load atomic i64, ptr %_M_use_count.i.i.i.i80 acquire, align 8
  %cmp.i.i.i.i81 = icmp eq i64 %75, 4294967297
  %76 = trunc i64 %75 to i32
  br i1 %cmp.i.i.i.i81, label %if.end144.sink.split.sink.split, label %if.end.i.i.i.i82

if.end.i.i.i.i82:                                 ; preds = %if.then.i.i.i79
  %77 = load i8, ptr @__libc_single_threaded, align 1
  %tobool.i.not.i.i.i.i83 = icmp eq i8 %77, 0
  br i1 %tobool.i.not.i.i.i.i83, label %if.else.i.i.i.i.i103, label %if.then.i.i.i.i.i84

if.then.i.i.i.i.i84:                              ; preds = %if.end.i.i.i.i82
  %add.i.i.i.i.i85 = add nsw i32 %76, -1
  store i32 %add.i.i.i.i.i85, ptr %_M_use_count.i.i.i.i80, align 4
  br label %_ZN9__gnu_cxx27__exchange_and_add_dispatchEPii.exit.i.i.i.i86

if.else.i.i.i.i.i103:                             ; preds = %if.end.i.i.i.i82
  %78 = atomicrmw volatile add ptr %_M_use_count.i.i.i.i80, i32 -1 acq_rel, align 4
  br label %_ZN9__gnu_cxx27__exchange_and_add_dispatchEPii.exit.i.i.i.i86

_ZN9__gnu_cxx27__exchange_and_add_dispatchEPii.exit.i.i.i.i86: ; preds = %if.else.i.i.i.i.i103, %if.then.i.i.i.i.i84
  %retval.i.0.i.i.i.i87 = phi i32 [ %76, %if.then.i.i.i.i.i84 ], [ %78, %if.else.i.i.i.i.i103 ]
  %cmp6.i.i.i.i88 = icmp eq i32 %retval.i.0.i.i.i.i87, 1
  br i1 %cmp6.i.i.i.i88, label %if.then7.i.i.i.i89, label %if.end144

if.then7.i.i.i.i89:                               ; preds = %_ZN9__gnu_cxx27__exchange_and_add_dispatchEPii.exit.i.i.i.i86
  %vtable.i.i.i.i.i.i90 = load ptr, ptr %74, align 8
  %vfn.i.i.i.i.i.i91 = getelementptr inbounds ptr, ptr %vtable.i.i.i.i.i.i90, i64 2
  %79 = load ptr, ptr %vfn.i.i.i.i.i.i91, align 8
  call void %79(ptr noundef nonnull align 8 dereferenceable(16) %74) #23
  %_M_weak_count.i.i.i.i.i.i92 = getelementptr inbounds %"class.std::_Sp_counted_base", ptr %74, i64 0, i32 2
  %80 = load i8, ptr @__libc_single_threaded, align 1
  %tobool.i.not.i.i.i.i.i.i93 = icmp eq i8 %80, 0
  br i1 %tobool.i.not.i.i.i.i.i.i93, label %if.else.i.i.i.i.i.i.i102, label %if.then.i.i.i.i.i.i.i94

if.then.i.i.i.i.i.i.i94:                          ; preds = %if.then7.i.i.i.i89
  %81 = load i32, ptr %_M_weak_count.i.i.i.i.i.i92, align 4
  %add.i.i.i.i.i.i.i95 = add nsw i32 %81, -1
  store i32 %add.i.i.i.i.i.i.i95, ptr %_M_weak_count.i.i.i.i.i.i92, align 4
  br label %_ZN9__gnu_cxx27__exchange_and_add_dispatchEPii.exit.i.i.i.i.i.i96

if.else.i.i.i.i.i.i.i102:                         ; preds = %if.then7.i.i.i.i89
  %82 = atomicrmw volatile add ptr %_M_weak_count.i.i.i.i.i.i92, i32 -1 acq_rel, align 4
  br label %_ZN9__gnu_cxx27__exchange_and_add_dispatchEPii.exit.i.i.i.i.i.i96

_ZN9__gnu_cxx27__exchange_and_add_dispatchEPii.exit.i.i.i.i.i.i96: ; preds = %if.else.i.i.i.i.i.i.i102, %if.then.i.i.i.i.i.i.i94
  %retval.i.0.i.i.i.i.i.i97 = phi i32 [ %81, %if.then.i.i.i.i.i.i.i94 ], [ %82, %if.else.i.i.i.i.i.i.i102 ]
  %cmp.i.i.i.i.i.i98 = icmp eq i32 %retval.i.0.i.i.i.i.i.i97, 1
  br i1 %cmp.i.i.i.i.i.i98, label %if.end144.sink.split, label %if.end144

lpad:                                             ; preds = %invoke.cont13, %invoke.cont12, %invoke.cont11, %invoke.cont9, %_ZNSt10shared_ptrIN7openvdb5v11_04math7MapBaseEED2Ev.exit383, %if.end135, %if.else109, %if.then27, %invoke.cont14, %invoke.cont7, %if.then4, %entry
  %83 = landingpad { ptr, i32 }
          cleanup
  br label %ehcleanup145

lpad17:                                           ; preds = %invoke.cont18
  %84 = landingpad { ptr, i32 }
          cleanup
  call void @_ZdlPv(ptr noundef nonnull %call16) #26
  br label %ehcleanup145

lpad22:                                           ; preds = %_ZNSt10shared_ptrIN7openvdb5v11_04math9AffineMapEEC2ERKS4_.exit
  %85 = landingpad { ptr, i32 }
          cleanup
  call void @_ZNSt10shared_ptrIN7openvdb5v11_04math9AffineMapEED2Ev(ptr noundef nonnull align 8 dereferenceable(16) %agg.tmp) #23
  call void @_ZNSt10shared_ptrIN7openvdb5v11_04math9AffineMapEED2Ev(ptr noundef nonnull align 8 dereferenceable(16) %affineMap) #23
  br label %ehcleanup145

if.else:                                          ; preds = %if.then
  %call.i109 = call noundef i32 @_ZNKSt7__cxx1112basic_stringIcSt11char_traitsIcESaIcEE7compareEPKc(ptr noundef nonnull align 8 dereferenceable(32) %type, ptr noundef nonnull @.str.1) #23
  %cmp.i110 = icmp eq i32 %call.i109, 0
  br i1 %cmp.i110, label %if.then27, label %if.else86

if.then27:                                        ; preds = %if.else
  invoke void @_ZN7openvdb5v11_04math8internal13LegacyFrustumC2ERSi(ptr noundef nonnull align 8 dereferenceable(696) %legacyFrustum, ptr noundef nonnull align 8 dereferenceable(16) %is)
          to label %call.i119.noexc unwind label %lpad

call.i119.noexc:                                  ; preds = %if.then27
  %mExtents.i = getelementptr inbounds %"class.openvdb::v11_0::math::internal::LegacyFrustum", ptr %legacyFrustum, i64 0, i32 4
  %bb.sroa.3.0.mExtents.i.sroa_idx = getelementptr inbounds %"class.openvdb::v11_0::math::internal::LegacyFrustum", ptr %legacyFrustum, i64 0, i32 4, i32 0, i32 0, i32 0, i64 2
  %bb.sroa.5.0.mExtents.i.sroa_idx = getelementptr inbounds %"class.openvdb::v11_0::math::internal::LegacyFrustum", ptr %legacyFrustum, i64 0, i32 4, i32 1, i32 0, i32 0, i64 1
  %86 = load <2 x i32>, ptr %mExtents.i, align 16
  %87 = sitofp <2 x i32> %86 to <2 x double>
  store <2 x double> %87, ptr %bbox, align 16
  %ref.tmp32.sroa.3.0.bbox.sroa_idx = getelementptr inbounds i8, ptr %bbox, i64 16
  %88 = load <2 x i32>, ptr %bb.sroa.3.0.mExtents.i.sroa_idx, align 8
  %89 = sitofp <2 x i32> %88 to <2 x double>
  store <2 x double> %89, ptr %ref.tmp32.sroa.3.0.bbox.sroa_idx, align 16
  %ref.tmp36.sroa.2.0.mMax.i118.sroa_idx = getelementptr inbounds %"class.openvdb::v11_0::math::BBox", ptr %bbox, i64 0, i32 1, i32 0, i32 0, i64 1
  %90 = load <2 x i32>, ptr %bb.sroa.5.0.mExtents.i.sroa_idx, align 16
  %91 = sitofp <2 x i32> %90 to <2 x double>
  store <2 x double> %91, ptr %ref.tmp36.sroa.2.0.mMax.i118.sroa_idx, align 16
  %mLocalToWorld.i.i384 = getelementptr inbounds %"class.openvdb::v11_0::math::internal::LegacyFrustum", ptr %legacyFrustum, i64 0, i32 1
  %mFrNearXBasis.i.i.i385 = getelementptr inbounds %"class.openvdb::v11_0::math::internal::LegacyFrustum", ptr %legacyFrustum, i64 0, i32 5
  %ref.tmp2.sroa.0.0.copyload.i.i.i386 = load double, ptr %mFrNearXBasis.i.i.i385, align 8, !noalias !46
  %ref.tmp2.sroa.4.0.mFrNearXBasis.sroa_idx.i.i.i387 = getelementptr inbounds %"class.openvdb::v11_0::math::internal::LegacyFrustum", ptr %legacyFrustum, i64 0, i32 5, i32 0, i32 0, i64 1
  %ref.tmp2.sroa.4.0.copyload.i.i.i388 = load double, ptr %ref.tmp2.sroa.4.0.mFrNearXBasis.sroa_idx.i.i.i387, align 16, !noalias !46
  %ref.tmp2.sroa.6.0.mFrNearXBasis.sroa_idx.i.i.i389 = getelementptr inbounds %"class.openvdb::v11_0::math::internal::LegacyFrustum", ptr %legacyFrustum, i64 0, i32 5, i32 0, i32 0, i64 2
  %ref.tmp2.sroa.6.0.copyload.i.i.i390 = load double, ptr %ref.tmp2.sroa.6.0.mFrNearXBasis.sroa_idx.i.i.i389, align 8, !noalias !46
  %mFrNearYBasis.i.i.i394 = getelementptr inbounds %"class.openvdb::v11_0::math::internal::LegacyFrustum", ptr %legacyFrustum, i64 0, i32 6
  %ref.tmp3.sroa.0.0.copyload.i.i.i395 = load double, ptr %mFrNearYBasis.i.i.i394, align 16, !noalias !46
  %ref.tmp3.sroa.4.0.mFrNearYBasis.sroa_idx.i.i.i396 = getelementptr inbounds %"class.openvdb::v11_0::math::internal::LegacyFrustum", ptr %legacyFrustum, i64 0, i32 6, i32 0, i32 0, i64 1
  %ref.tmp3.sroa.4.0.copyload.i.i.i397 = load double, ptr %ref.tmp3.sroa.4.0.mFrNearYBasis.sroa_idx.i.i.i396, align 8, !noalias !46
  %ref.tmp3.sroa.7.0.mFrNearYBasis.sroa_idx.i.i.i398 = getelementptr inbounds %"class.openvdb::v11_0::math::internal::LegacyFrustum", ptr %legacyFrustum, i64 0, i32 6, i32 0, i32 0, i64 2
  %ref.tmp3.sroa.7.0.copyload.i.i.i399 = load double, ptr %ref.tmp3.sroa.7.0.mFrNearYBasis.sroa_idx.i.i.i398, align 16, !noalias !46
  %mFrNearOrigin.i.i.i406 = getelementptr inbounds %"class.openvdb::v11_0::math::internal::LegacyFrustum", ptr %legacyFrustum, i64 0, i32 9
  %92 = load double, ptr %mFrNearOrigin.i.i.i406, align 8, !noalias !46
  %arrayidx.i.i.i.i12.i.i.i408 = getelementptr inbounds %"class.openvdb::v11_0::math::internal::LegacyFrustum", ptr %legacyFrustum, i64 0, i32 9, i32 0, i32 0, i64 1
  %93 = load double, ptr %arrayidx.i.i.i.i12.i.i.i408, align 16, !noalias !46
  %arrayidx.i.i3.i.i15.i.i.i410 = getelementptr inbounds %"class.openvdb::v11_0::math::internal::LegacyFrustum", ptr %legacyFrustum, i64 0, i32 9, i32 0, i32 0, i64 2
  %94 = load double, ptr %arrayidx.i.i3.i.i15.i.i.i410, align 8, !noalias !46
  %mFrFarXBasis.i.i.i412 = getelementptr inbounds %"class.openvdb::v11_0::math::internal::LegacyFrustum", ptr %legacyFrustum, i64 0, i32 7
  %ref.tmp6.sroa.0.0.copyload.i.i.i413 = load double, ptr %mFrFarXBasis.i.i.i412, align 8, !noalias !46
  %ref.tmp6.sroa.4.0.mFrFarXBasis.sroa_idx.i.i.i414 = getelementptr inbounds %"class.openvdb::v11_0::math::internal::LegacyFrustum", ptr %legacyFrustum, i64 0, i32 7, i32 0, i32 0, i64 1
  %ref.tmp6.sroa.4.0.copyload.i.i.i415 = load double, ptr %ref.tmp6.sroa.4.0.mFrFarXBasis.sroa_idx.i.i.i414, align 16, !noalias !46
  %ref.tmp6.sroa.6.0.mFrFarXBasis.sroa_idx.i.i.i416 = getelementptr inbounds %"class.openvdb::v11_0::math::internal::LegacyFrustum", ptr %legacyFrustum, i64 0, i32 7, i32 0, i32 0, i64 2
  %ref.tmp6.sroa.6.0.copyload.i.i.i417 = load double, ptr %ref.tmp6.sroa.6.0.mFrFarXBasis.sroa_idx.i.i.i416, align 8, !noalias !46
  %mFrFarYBasis.i.i.i421 = getelementptr inbounds %"class.openvdb::v11_0::math::internal::LegacyFrustum", ptr %legacyFrustum, i64 0, i32 8
  %ref.tmp8.sroa.0.0.copyload.i.i.i422 = load double, ptr %mFrFarYBasis.i.i.i421, align 16, !noalias !46
  %ref.tmp8.sroa.4.0.mFrFarYBasis.sroa_idx.i.i.i423 = getelementptr inbounds %"class.openvdb::v11_0::math::internal::LegacyFrustum", ptr %legacyFrustum, i64 0, i32 8, i32 0, i32 0, i64 1
  %ref.tmp8.sroa.4.0.copyload.i.i.i424 = load double, ptr %ref.tmp8.sroa.4.0.mFrFarYBasis.sroa_idx.i.i.i423, align 8, !noalias !46
  %ref.tmp8.sroa.7.0.mFrFarYBasis.sroa_idx.i.i.i425 = getelementptr inbounds %"class.openvdb::v11_0::math::internal::LegacyFrustum", ptr %legacyFrustum, i64 0, i32 8, i32 0, i32 0, i64 2
  %ref.tmp8.sroa.7.0.copyload.i.i.i426 = load double, ptr %ref.tmp8.sroa.7.0.mFrFarYBasis.sroa_idx.i.i.i425, align 16, !noalias !46
  %mFrFarOrigin.i.i.i433 = getelementptr inbounds %"class.openvdb::v11_0::math::internal::LegacyFrustum", ptr %legacyFrustum, i64 0, i32 10
  %95 = load double, ptr %mFrFarOrigin.i.i.i433, align 16, !noalias !46
  %arrayidx.i.i.i.i37.i.i.i435 = getelementptr inbounds %"class.openvdb::v11_0::math::internal::LegacyFrustum", ptr %legacyFrustum, i64 0, i32 10, i32 0, i32 0, i64 1
  %96 = load double, ptr %arrayidx.i.i.i.i37.i.i.i435, align 8, !noalias !46
  %arrayidx.i.i3.i.i40.i.i.i437 = getelementptr inbounds %"class.openvdb::v11_0::math::internal::LegacyFrustum", ptr %legacyFrustum, i64 0, i32 10, i32 0, i32 0, i64 2
  %97 = load double, ptr %arrayidx.i.i3.i.i40.i.i.i437, align 16, !noalias !46
  %98 = load double, ptr %mLocalToWorld.i.i384, align 16, !noalias !46
  %arrayidx3.i.i.i.i445 = getelementptr inbounds %"class.openvdb::v11_0::math::internal::LegacyFrustum", ptr %legacyFrustum, i64 0, i32 1, i32 0, i32 0, i64 4
  %99 = load double, ptr %arrayidx3.i.i.i.i445, align 16, !noalias !46
  %arrayidx6.i.i.i.i447 = getelementptr inbounds %"class.openvdb::v11_0::math::internal::LegacyFrustum", ptr %legacyFrustum, i64 0, i32 1, i32 0, i32 0, i64 8
  %100 = load double, ptr %arrayidx6.i.i.i.i447, align 16, !noalias !46
  %arrayidx7.i.i.i.i448 = getelementptr inbounds %"class.openvdb::v11_0::math::internal::LegacyFrustum", ptr %legacyFrustum, i64 0, i32 1, i32 0, i32 0, i64 12
  %101 = load double, ptr %arrayidx7.i.i.i.i448, align 16, !noalias !46
  %arrayidx9.i.i.i.i450 = getelementptr inbounds %"class.openvdb::v11_0::math::internal::LegacyFrustum", ptr %legacyFrustum, i64 0, i32 1, i32 0, i32 0, i64 1
  %102 = load double, ptr %arrayidx9.i.i.i.i450, align 8, !noalias !46
  %arrayidx11.i.i.i.i451 = getelementptr inbounds %"class.openvdb::v11_0::math::internal::LegacyFrustum", ptr %legacyFrustum, i64 0, i32 1, i32 0, i32 0, i64 5
  %103 = load double, ptr %arrayidx11.i.i.i.i451, align 8, !noalias !46
  %arrayidx14.i.i.i.i453 = getelementptr inbounds %"class.openvdb::v11_0::math::internal::LegacyFrustum", ptr %legacyFrustum, i64 0, i32 1, i32 0, i32 0, i64 9
  %104 = load double, ptr %arrayidx14.i.i.i.i453, align 8, !noalias !46
  %arrayidx15.i.i.i.i454 = getelementptr inbounds %"class.openvdb::v11_0::math::internal::LegacyFrustum", ptr %legacyFrustum, i64 0, i32 1, i32 0, i32 0, i64 13
  %105 = load double, ptr %arrayidx15.i.i.i.i454, align 8, !noalias !46
  %arrayidx18.i.i.i.i456 = getelementptr inbounds %"class.openvdb::v11_0::math::internal::LegacyFrustum", ptr %legacyFrustum, i64 0, i32 1, i32 0, i32 0, i64 2
  %106 = load double, ptr %arrayidx18.i.i.i.i456, align 16, !noalias !46
  %arrayidx20.i.i.i.i457 = getelementptr inbounds %"class.openvdb::v11_0::math::internal::LegacyFrustum", ptr %legacyFrustum, i64 0, i32 1, i32 0, i32 0, i64 6
  %107 = load double, ptr %arrayidx20.i.i.i.i457, align 16, !noalias !46
  %arrayidx23.i.i.i.i459 = getelementptr inbounds %"class.openvdb::v11_0::math::internal::LegacyFrustum", ptr %legacyFrustum, i64 0, i32 1, i32 0, i32 0, i64 10
  %108 = load double, ptr %arrayidx23.i.i.i.i459, align 16, !noalias !46
  %arrayidx24.i.i.i.i460 = getelementptr inbounds %"class.openvdb::v11_0::math::internal::LegacyFrustum", ptr %legacyFrustum, i64 0, i32 1, i32 0, i32 0, i64 14
  %109 = load double, ptr %arrayidx24.i.i.i.i460, align 16, !noalias !46
  %call2.i121 = invoke noundef double @_ZNK7openvdb5v11_04math8internal13LegacyFrustum16getFarPlaneWidthEv(ptr noundef nonnull align 8 dereferenceable(696) %legacyFrustum)
          to label %invoke.cont45 unwind label %lpad29

invoke.cont45:                                    ; preds = %call.i119.noexc
  %mul7.i.i.i.i.i.i393 = fmul double %ref.tmp2.sroa.6.0.copyload.i.i.i390, 0.000000e+00
  %mul7.i.i.i10.i.i.i402 = fmul double %ref.tmp3.sroa.7.0.copyload.i.i.i399, 0.000000e+00
  %add9.i.i.i.i.i405 = fadd double %mul7.i.i.i.i.i.i393, %mul7.i.i.i10.i.i.i402
  %add9.i.i17.i.i.i411 = fadd double %add9.i.i.i.i.i405, %94
  %mul7.i.i.i22.i.i.i420 = fmul double %ref.tmp6.sroa.6.0.copyload.i.i.i417, 0.000000e+00
  %mul7.i.i.i28.i.i.i429 = fmul double %ref.tmp8.sroa.7.0.copyload.i.i.i426, 0.000000e+00
  %add9.i.i35.i.i.i432 = fadd double %mul7.i.i.i22.i.i.i420, %mul7.i.i.i28.i.i.i429
  %add9.i.i42.i.i.i438 = fadd double %add9.i.i35.i.i.i432, %97
  %mul7.i.i.i48.i.i.i441 = fmul double %add9.i.i42.i.i.i438, 0.000000e+00
  %add9.i.i61.i.i.i444 = fadd double %add9.i.i17.i.i.i411, %mul7.i.i.i48.i.i.i441
  %mul.i.i.i.i.i.i391 = fmul double %ref.tmp2.sroa.0.0.copyload.i.i.i386, 0.000000e+00
  %mul.i.i.i6.i.i.i400 = fmul double %ref.tmp3.sroa.0.0.copyload.i.i.i395, 0.000000e+00
  %add.i.i.i.i.i403 = fadd double %mul.i.i.i.i.i.i391, %mul.i.i.i6.i.i.i400
  %add.i.i11.i.i.i407 = fadd double %add.i.i.i.i.i403, %92
  %mul.i.i.i18.i.i.i418 = fmul double %ref.tmp6.sroa.0.0.copyload.i.i.i413, 0.000000e+00
  %mul.i.i.i24.i.i.i427 = fmul double %ref.tmp8.sroa.0.0.copyload.i.i.i422, 0.000000e+00
  %add.i.i29.i.i.i430 = fadd double %mul.i.i.i18.i.i.i418, %mul.i.i.i24.i.i.i427
  %add.i.i36.i.i.i434 = fadd double %add.i.i29.i.i.i430, %95
  %mul.i.i.i44.i.i.i439 = fmul double %add.i.i36.i.i.i434, 0.000000e+00
  %add.i.i55.i.i.i442 = fadd double %add.i.i11.i.i.i407, %mul.i.i.i44.i.i.i439
  %mul4.i.i.i.i.i.i392 = fmul double %ref.tmp2.sroa.4.0.copyload.i.i.i388, 0.000000e+00
  %mul4.i.i.i8.i.i.i401 = fmul double %ref.tmp3.sroa.4.0.copyload.i.i.i397, 0.000000e+00
  %add5.i.i.i.i.i404 = fadd double %mul4.i.i.i.i.i.i392, %mul4.i.i.i8.i.i.i401
  %add5.i.i14.i.i.i409 = fadd double %add5.i.i.i.i.i404, %93
