; ModuleID = 'bench/proxygen/original/ByteEvents.cpp.ll'
source_filename = "bench/proxygen/original/ByteEvents.cpp.ll"
target datalayout = "e-m:e-p270:32:32-p271:32:32-p272:64:64-i64:64-i128:128-f80:128-n8:16:32:64-S128"
target triple = "x86_64-unknown-linux-gnu"

%"struct.folly::c_array" = type { [20 x i64] }
%"struct.folly::c_array.2" = type { [100 x i16] }
%"class.std::__cxx11::basic_string" = type { %"struct.std::__cxx11::basic_string<char>::_Alloc_hider", i64, %union.anon }
%"struct.std::__cxx11::basic_string<char>::_Alloc_hider" = type { ptr }
%union.anon = type { i64, [8 x i8] }

$_ZN5folly2toINSt7__cxx1112basic_stringIcSt11char_traitsIcESaIcEEEJA2_cPKcA3_cmS7_EEENSt9enable_ifIXaasr12IsSomeStringIT_EE5valueoonesZT0_Li1Entsr3std7is_sameISC_19__type_pack_elementIXmisPvDpT0_ELi1EEJvSF_EEEE5valueESC_E4typeEDpRKSE_ = comdat any

$_ZN8proxygen13PingByteEventD2Ev = comdat any

$_ZN8proxygen13PingByteEventD0Ev = comdat any

$_ZNK8proxygen9ByteEvent14getTransactionEv = comdat any

$_ZN8proxygen9ByteEventD2Ev = comdat any

$_ZN8proxygen9ByteEventD0Ev = comdat any

$_ZN8proxygen9ByteEvent10getLatencyEv = comdat any

$__clang_call_terminate = comdat any

$_ZN5folly6detail18ToAppendStrImplAllISt16integer_sequenceImJLm0ELm1ELm2ELm3ELm4ELm5EEEE4callIJA2_cPKcA3_cmS6_PNSt7__cxx1112basic_stringIcSt11char_traitsIcESaIcEEEEEEvDpRKT_ = comdat any

$_ZTSN8proxygen9ByteEventE = comdat any

$_ZTIN8proxygen9ByteEventE = comdat any

$_ZTVN8proxygen9ByteEventE = comdat any

@.str = private unnamed_addr constant [2 x i8] c"(\00", align 1
@_ZN8proxygenL12kTypeStringsE = internal constant [6 x ptr] [ptr @.str.3, ptr @.str.4, ptr @.str.5, ptr @.str.6, ptr @.str.7, ptr @.str.8], align 16
@.str.1 = private unnamed_addr constant [3 x i8] c", \00", align 1
@.str.2 = private unnamed_addr constant [2 x i8] c")\00", align 1
@_ZTVN8proxygen13PingByteEventE = unnamed_addr constant { [6 x ptr] } { [6 x ptr] [ptr null, ptr @_ZTIN8proxygen13PingByteEventE, ptr @_ZN8proxygen13PingByteEventD2Ev, ptr @_ZN8proxygen13PingByteEventD0Ev, ptr @_ZNK8proxygen9ByteEvent14getTransactionEv, ptr @_ZN8proxygen13PingByteEvent10getLatencyEv] }, align 8
@_ZTVN10__cxxabiv120__si_class_type_infoE = external global [0 x ptr]
@_ZTSN8proxygen13PingByteEventE = constant [27 x i8] c"N8proxygen13PingByteEventE\00", align 1
@_ZTVN10__cxxabiv117__class_type_infoE = external global [0 x ptr]
@_ZTSN8proxygen9ByteEventE = linkonce_odr constant [22 x i8] c"N8proxygen9ByteEventE\00", comdat, align 1
@_ZTIN8proxygen9ByteEventE = linkonce_odr constant { ptr, ptr } { ptr getelementptr inbounds (ptr, ptr @_ZTVN10__cxxabiv117__class_type_infoE, i64 2), ptr @_ZTSN8proxygen9ByteEventE }, comdat, align 8
@_ZTIN8proxygen13PingByteEventE = constant { ptr, ptr, ptr } { ptr getelementptr inbounds (ptr, ptr @_ZTVN10__cxxabiv120__si_class_type_infoE, i64 2), ptr @_ZTSN8proxygen13PingByteEventE, ptr @_ZTIN8proxygen9ByteEventE }, align 8
@.str.3 = private unnamed_addr constant [11 x i8] c"FIRST_BYTE\00", align 1
@.str.4 = private unnamed_addr constant [10 x i8] c"LAST_BYTE\00", align 1
@.str.5 = private unnamed_addr constant [16 x i8] c"PING_REPLY_SENT\00", align 1
@.str.6 = private unnamed_addr constant [18 x i8] c"FIRST_HEADER_BYTE\00", align 1
@.str.7 = private unnamed_addr constant [13 x i8] c"TRACKED_BYTE\00", align 1
@.str.8 = private unnamed_addr constant [22 x i8] c"SECOND_TO_LAST_PACKET\00", align 1
@_ZTVN8proxygen9ByteEventE = linkonce_odr unnamed_addr constant { [6 x ptr] } { [6 x ptr] [ptr null, ptr @_ZTIN8proxygen9ByteEventE, ptr @_ZN8proxygen9ByteEventD2Ev, ptr @_ZN8proxygen9ByteEventD0Ev, ptr @_ZNK8proxygen9ByteEvent14getTransactionEv, ptr @_ZN8proxygen9ByteEvent10getLatencyEv] }, comdat, align 8
@_ZN5folly6detail15to_ascii_powersILm10EmE4dataE = external local_unnamed_addr global %"struct.folly::c_array", align 8
@_ZN5folly6detail14to_ascii_tableILm10ENS_17to_ascii_alphabetILb0EEEE4dataE = external local_unnamed_addr global %"struct.folly::c_array.2", align 2

; Function Attrs: mustprogress uwtable
define noundef nonnull align 8 dereferenceable(8) ptr @_ZN8proxygenlsERSoRKNS_9ByteEventE(ptr noundef nonnull returned align 8 dereferenceable(8) %os, ptr nocapture noundef nonnull readonly align 8 dereferenceable(64) %be) local_unnamed_addr #0 personality ptr @__gxx_personality_v0 {
entry:
  %ref.tmp = alloca %"class.std::__cxx11::basic_string", align 8
  %ref.tmp1 = alloca i64, align 8
  %eventType_ = getelementptr inbounds i8, ptr %be, i64 24
  %bf.load = load i64, ptr %eventType_, align 8
  %bf.cast = and i64 %bf.load, 7
  %arrayidx = getelementptr inbounds [6 x ptr], ptr @_ZN8proxygenL12kTypeStringsE, i64 0, i64 %bf.cast
  %bf.lshr = lshr i64 %bf.load, 5
  store i64 %bf.lshr, ptr %ref.tmp1, align 8
  call void @_ZN5folly2toINSt7__cxx1112basic_stringIcSt11char_traitsIcESaIcEEEJA2_cPKcA3_cmS7_EEENSt9enable_ifIXaasr12IsSomeStringIT_EE5valueoonesZT0_Li1Entsr3std7is_sameISC_19__type_pack_elementIXmisPvDpT0_ELi1EEJvSF_EEEE5valueESC_E4typeEDpRKSE_(ptr nonnull sret(%"class.std::__cxx11::basic_string") align 8 %ref.tmp, ptr noundef nonnull align 1 dereferenceable(2) @.str, ptr noundef nonnull align 8 dereferenceable(8) %arrayidx, ptr noundef nonnull align 1 dereferenceable(3) @.str.1, ptr noundef nonnull align 8 dereferenceable(8) %ref.tmp1, ptr noundef nonnull align 1 dereferenceable(2) @.str.2)
  %call = invoke noundef nonnull align 8 dereferenceable(8) ptr @_ZStlsIcSt11char_traitsIcESaIcEERSt13basic_ostreamIT_T0_ES7_RKNSt7__cxx1112basic_stringIS4_S5_T1_EE(ptr noundef nonnull align 8 dereferenceable(8) %os, ptr noundef nonnull align 8 dereferenceable(32) %ref.tmp)
          to label %invoke.cont unwind label %lpad

invoke.cont:                                      ; preds = %entry
  call void @_ZNSt7__cxx1112basic_stringIcSt11char_traitsIcESaIcEED1Ev(ptr noundef nonnull align 8 dereferenceable(32) %ref.tmp) #8
  ret ptr %os

lpad:                                             ; preds = %entry
  %0 = landingpad { ptr, i32 }
          cleanup
  call void @_ZNSt7__cxx1112basic_stringIcSt11char_traitsIcESaIcEED1Ev(ptr noundef nonnull align 8 dereferenceable(32) %ref.tmp) #8
  resume { ptr, i32 } %0
}

declare noundef nonnull align 8 dereferenceable(8) ptr @_ZStlsIcSt11char_traitsIcESaIcEERSt13basic_ostreamIT_T0_ES7_RKNSt7__cxx1112basic_stringIS4_S5_T1_EE(ptr noundef nonnull align 8 dereferenceable(8), ptr noundef nonnull align 8 dereferenceable(32)) local_unnamed_addr #1

; Function Attrs: mustprogress uwtable
define linkonce_odr void @_ZN5folly2toINSt7__cxx1112basic_stringIcSt11char_traitsIcESaIcEEEJA2_cPKcA3_cmS7_EEENSt9enable_ifIXaasr12IsSomeStringIT_EE5valueoonesZT0_Li1Entsr3std7is_sameISC_19__type_pack_elementIXmisPvDpT0_ELi1EEJvSF_EEEE5valueESC_E4typeEDpRKSE_(ptr noalias sret(%"class.std::__cxx11::basic_string") align 8 %agg.result, ptr noundef nonnull align 1 dereferenceable(2) %vs, ptr noundef nonnull align 8 dereferenceable(8) %vs1, ptr noundef nonnull align 1 dereferenceable(3) %vs3, ptr noundef nonnull align 8 dereferenceable(8) %vs5, ptr noundef nonnull align 1 dereferenceable(2) %vs7) local_unnamed_addr #0 comdat personality ptr @__gxx_personality_v0 {
entry:
  %sizes.i.i.i = alloca [6 x i64], align 16
  %ref.tmp = alloca ptr, align 8
  tail call void @_ZNSt7__cxx1112basic_stringIcSt11char_traitsIcESaIcEEC1Ev(ptr noundef nonnull align 8 dereferenceable(32) %agg.result) #8
  store ptr %agg.result, ptr %ref.tmp, align 8
  call void @llvm.lifetime.start.p0(i64 48, ptr nonnull %sizes.i.i.i)
  store i64 2, ptr %sizes.i.i.i, align 16
  %arrayinit.element.i.i.i = getelementptr inbounds i8, ptr %sizes.i.i.i, i64 8
  %0 = load ptr, ptr %vs1, align 8
  %tobool.not.i.i.i.i = icmp eq ptr %0, null
  br i1 %tobool.not.i.i.i.i, label %_ZN5folly19estimateSpaceNeededIPKcEENSt9enable_ifIXsr3std14is_convertibleIT_S2_EE5valueEmE4typeES4_.exit.i.i.i, label %cond.true.i.i.i.i

cond.true.i.i.i.i:                                ; preds = %entry
  %call.i5.i.i.i = tail call i64 @strlen(ptr noundef nonnull dereferenceable(1) %0) #9
  br label %_ZN5folly19estimateSpaceNeededIPKcEENSt9enable_ifIXsr3std14is_convertibleIT_S2_EE5valueEmE4typeES4_.exit.i.i.i

_ZN5folly19estimateSpaceNeededIPKcEENSt9enable_ifIXsr3std14is_convertibleIT_S2_EE5valueEmE4typeES4_.exit.i.i.i: ; preds = %cond.true.i.i.i.i, %entry
  %cond.i.i.i.i = phi i64 [ %call.i5.i.i.i, %cond.true.i.i.i.i ], [ 0, %entry ]
  store i64 %cond.i.i.i.i, ptr %arrayinit.element.i.i.i, align 8
  %arrayinit.element13.i.i.i = getelementptr inbounds i8, ptr %sizes.i.i.i, i64 16
  store i64 3, ptr %arrayinit.element13.i.i.i, align 16
  %arrayinit.element16.i.i.i = getelementptr inbounds i8, ptr %sizes.i.i.i, i64 24
  %1 = load i64, ptr %vs5, align 8
  br label %for.body.i.i.i.i.i.i.i

for.body.i.i.i.i.i.i.i:                           ; preds = %if.end.i.i.i.i.i.i.i, %_ZN5folly19estimateSpaceNeededIPKcEENSt9enable_ifIXsr3std14is_convertibleIT_S2_EE5valueEmE4typeES4_.exit.i.i.i
  %i.i.06.i.i.i.i.i.i = phi i64 [ 0, %_ZN5folly19estimateSpaceNeededIPKcEENSt9enable_ifIXsr3std14is_convertibleIT_S2_EE5valueEmE4typeES4_.exit.i.i.i ], [ %inc.i.i.i.i.i.i.i, %if.end.i.i.i.i.i.i.i ]
  %arrayidx.i.i.i.i.i.i.i = getelementptr inbounds [20 x i64], ptr @_ZN5folly6detail15to_ascii_powersILm10EmE4dataE, i64 0, i64 %i.i.06.i.i.i.i.i.i
  %2 = load i64, ptr %arrayidx.i.i.i.i.i.i.i, align 8
  %cmp1.i.i.i.i.i.i.i = icmp ugt i64 %2, %1
  br i1 %cmp1.i.i.i.i.i.i.i, label %if.then.i.i.i.i.i.i.i, label %if.end.i.i.i.i.i.i.i

if.then.i.i.i.i.i.i.i:                            ; preds = %for.body.i.i.i.i.i.i.i
  %cmp2.i.i.i.i.i.i.i = icmp eq i64 %i.i.06.i.i.i.i.i.i, 0
  %conv.i.i.i.i.i.i.i = zext i1 %cmp2.i.i.i.i.i.i.i to i64
  %add.i.i.i.i.i.i.i = add nuw nsw i64 %i.i.06.i.i.i.i.i.i, %conv.i.i.i.i.i.i.i
  br label %_ZN5folly19estimateSpaceNeededImEENSt9enable_ifIXaaaaaa13is_integral_vIT_Ent11is_signed_vIS2_EgestS2_Li4EltstS2_Li16EEmE4typeES2_.exit.i.i.i

if.end.i.i.i.i.i.i.i:                             ; preds = %for.body.i.i.i.i.i.i.i
  %inc.i.i.i.i.i.i.i = add nuw nsw i64 %i.i.06.i.i.i.i.i.i, 1
  %exitcond.not.i.i.i.i.i.i = icmp eq i64 %inc.i.i.i.i.i.i.i, 20
  br i1 %exitcond.not.i.i.i.i.i.i, label %_ZN5folly19estimateSpaceNeededImEENSt9enable_ifIXaaaaaa13is_integral_vIT_Ent11is_signed_vIS2_EgestS2_Li4EltstS2_Li16EEmE4typeES2_.exit.i.i.i, label %for.body.i.i.i.i.i.i.i, !llvm.loop !4

_ZN5folly19estimateSpaceNeededImEENSt9enable_ifIXaaaaaa13is_integral_vIT_Ent11is_signed_vIS2_EgestS2_Li4EltstS2_Li16EEmE4typeES2_.exit.i.i.i: ; preds = %if.end.i.i.i.i.i.i.i, %if.then.i.i.i.i.i.i.i
  %retval.i.0.i.i.i.i.i.i = phi i64 [ %add.i.i.i.i.i.i.i, %if.then.i.i.i.i.i.i.i ], [ 20, %if.end.i.i.i.i.i.i.i ]
  store i64 %retval.i.0.i.i.i.i.i.i, ptr %arrayinit.element16.i.i.i, align 8
  %arrayinit.element19.i.i.i = getelementptr inbounds i8, ptr %sizes.i.i.i, i64 32
  store i64 2, ptr %arrayinit.element19.i.i.i, align 16
  %arrayinit.element22.i.i.i = getelementptr inbounds i8, ptr %sizes.i.i.i, i64 40
  store i64 0, ptr %arrayinit.element22.i.i.i, align 8
  br label %for.body.i.i.i

for.body.i.i.i:                                   ; preds = %for.body.i.i.i, %_ZN5folly19estimateSpaceNeededImEENSt9enable_ifIXaaaaaa13is_integral_vIT_Ent11is_signed_vIS2_EgestS2_Li4EltstS2_Li16EEmE4typeES2_.exit.i.i.i
  %size.08.i.i.i = phi i64 [ 0, %_ZN5folly19estimateSpaceNeededImEENSt9enable_ifIXaaaaaa13is_integral_vIT_Ent11is_signed_vIS2_EgestS2_Li4EltstS2_Li16EEmE4typeES2_.exit.i.i.i ], [ %add.i.i.i, %for.body.i.i.i ]
  %__begin0.0.idx7.i.i.i = phi i64 [ 0, %_ZN5folly19estimateSpaceNeededImEENSt9enable_ifIXaaaaaa13is_integral_vIT_Ent11is_signed_vIS2_EgestS2_Li4EltstS2_Li16EEmE4typeES2_.exit.i.i.i ], [ %__begin0.0.add.i.i.i, %for.body.i.i.i ]
  %__begin0.0.ptr.i.i.i = getelementptr inbounds i8, ptr %sizes.i.i.i, i64 %__begin0.0.idx7.i.i.i
  %3 = load i64, ptr %__begin0.0.ptr.i.i.i, align 8
  %add.i.i.i = add i64 %3, %size.08.i.i.i
  %__begin0.0.add.i.i.i = add nuw nsw i64 %__begin0.0.idx7.i.i.i, 8
  %cmp.not.i.i.i = icmp eq i64 %__begin0.0.add.i.i.i, 48
  br i1 %cmp.not.i.i.i, label %_ZN5folly6detail15reserveInTargetIA2_cPKcJA3_cmS2_PNSt7__cxx1112basic_stringIcSt11char_traitsIcESaIcEEEEEEvRKT_RKT0_DpRKT1_.exit.i, label %for.body.i.i.i

_ZN5folly6detail15reserveInTargetIA2_cPKcJA3_cmS2_PNSt7__cxx1112basic_stringIcSt11char_traitsIcESaIcEEEEEEvRKT_RKT0_DpRKT1_.exit.i: ; preds = %for.body.i.i.i
  call void @llvm.lifetime.end.p0(i64 48, ptr nonnull %sizes.i.i.i)
  invoke void @_ZNSt7__cxx1112basic_stringIcSt11char_traitsIcESaIcEE7reserveEm(ptr noundef nonnull align 8 dereferenceable(32) %agg.result, i64 noundef %add.i.i.i)
          to label %.noexc unwind label %lpad

.noexc:                                           ; preds = %_ZN5folly6detail15reserveInTargetIA2_cPKcJA3_cmS2_PNSt7__cxx1112basic_stringIcSt11char_traitsIcESaIcEEEEEEvRKT_RKT0_DpRKT1_.exit.i
  invoke void @_ZN5folly6detail18ToAppendStrImplAllISt16integer_sequenceImJLm0ELm1ELm2ELm3ELm4ELm5EEEE4callIJA2_cPKcA3_cmS6_PNSt7__cxx1112basic_stringIcSt11char_traitsIcESaIcEEEEEEvDpRKT_(ptr noundef nonnull align 1 dereferenceable(2) %vs, ptr noundef nonnull align 8 dereferenceable(8) %vs1, ptr noundef nonnull align 1 dereferenceable(3) %vs3, ptr noundef nonnull align 8 dereferenceable(8) %vs5, ptr noundef nonnull align 1 dereferenceable(2) %vs7, ptr noundef nonnull align 8 dereferenceable(8) %ref.tmp)
          to label %nrvo.skipdtor unwind label %lpad

lpad:                                             ; preds = %.noexc, %_ZN5folly6detail15reserveInTargetIA2_cPKcJA3_cmS2_PNSt7__cxx1112basic_stringIcSt11char_traitsIcESaIcEEEEEEvRKT_RKT0_DpRKT1_.exit.i
  %4 = landingpad { ptr, i32 }
          cleanup
  call void @_ZNSt7__cxx1112basic_stringIcSt11char_traitsIcESaIcEED1Ev(ptr noundef nonnull align 8 dereferenceable(32) %agg.result) #8
  resume { ptr, i32 } %4

nrvo.skipdtor:                                    ; preds = %.noexc
  ret void
}

declare i32 @__gxx_personality_v0(...)

; Function Attrs: nounwind
declare void @_ZNSt7__cxx1112basic_stringIcSt11char_traitsIcESaIcEED1Ev(ptr noundef nonnull align 8 dereferenceable(32)) unnamed_addr #2

; Function Attrs: mustprogress nounwind uwtable
define noundef i64 @_ZN8proxygen13PingByteEvent10getLatencyEv(ptr nocapture noundef nonnull readonly align 8 dereferenceable(72) %this) unnamed_addr #3 align 2 {
entry:
  %pingRequestReceivedTime_ = getelementptr inbounds i8, ptr %this, i64 64
  %agg.tmp.sroa.0.0.copyload = load i64, ptr %pingRequestReceivedTime_, align 8
  %call.i.i = tail call i64 @_ZNSt6chrono3_V212steady_clock3nowEv() #8
  %sub.i.i.i.i = sub nsw i64 %call.i.i, %agg.tmp.sroa.0.0.copyload
  %div.i.i.i.i = sdiv i64 %sub.i.i.i.i, 1000000
  ret i64 %div.i.i.i.i
}

; Function Attrs: mustprogress nounwind uwtable
define linkonce_odr void @_ZN8proxygen13PingByteEventD2Ev(ptr noundef nonnull align 8 dereferenceable(72) %this) unnamed_addr #3 comdat align 2 personality ptr @__gxx_personality_v0 {
entry:
  store ptr getelementptr inbounds ({ [6 x ptr] }, ptr @_ZTVN8proxygen9ByteEventE, i64 0, inrange i32 0, i64 2), ptr %this, align 8
  %_M_manager.i.i.i = getelementptr inbounds i8, ptr %this, i64 48
  %0 = load ptr, ptr %_M_manager.i.i.i, align 8
  %tobool.not.i.i.i = icmp eq ptr %0, null
  br i1 %tobool.not.i.i.i, label %_ZN8proxygen9ByteEventD2Ev.exit, label %if.then.i.i.i

if.then.i.i.i:                                    ; preds = %entry
  %callback_.i = getelementptr inbounds i8, ptr %this, i64 32
  %call.i.i.i = invoke noundef zeroext i1 %0(ptr noundef nonnull align 8 dereferenceable(16) %callback_.i, ptr noundef nonnull align 8 dereferenceable(16) %callback_.i, i32 noundef 3)
          to label %_ZN8proxygen9ByteEventD2Ev.exit unwind label %terminate.lpad.i.i.i

terminate.lpad.i.i.i:                             ; preds = %if.then.i.i.i
  %1 = landingpad { ptr, i32 }
          catch ptr null
  %2 = extractvalue { ptr, i32 } %1, 0
  tail call void @__clang_call_terminate(ptr %2) #10
  unreachable

_ZN8proxygen9ByteEventD2Ev.exit:                  ; preds = %entry, %if.then.i.i.i
  ret void
}

; Function Attrs: mustprogress nounwind uwtable
define linkonce_odr void @_ZN8proxygen13PingByteEventD0Ev(ptr noundef nonnull align 8 dereferenceable(72) %this) unnamed_addr #3 comdat align 2 personality ptr @__gxx_personality_v0 {
entry:
  store ptr getelementptr inbounds ({ [6 x ptr] }, ptr @_ZTVN8proxygen9ByteEventE, i64 0, inrange i32 0, i64 2), ptr %this, align 8
  %_M_manager.i.i.i.i = getelementptr inbounds i8, ptr %this, i64 48
  %0 = load ptr, ptr %_M_manager.i.i.i.i, align 8
  %tobool.not.i.i.i.i = icmp eq ptr %0, null
  br i1 %tobool.not.i.i.i.i, label %_ZN8proxygen13PingByteEventD2Ev.exit, label %if.then.i.i.i.i

if.then.i.i.i.i:                                  ; preds = %entry
  %callback_.i.i = getelementptr inbounds i8, ptr %this, i64 32
  %call.i.i.i.i = invoke noundef zeroext i1 %0(ptr noundef nonnull align 8 dereferenceable(16) %callback_.i.i, ptr noundef nonnull align 8 dereferenceable(16) %callback_.i.i, i32 noundef 3)
          to label %_ZN8proxygen13PingByteEventD2Ev.exit unwind label %terminate.lpad.i.i.i.i

terminate.lpad.i.i.i.i:                           ; preds = %if.then.i.i.i.i
  %1 = landingpad { ptr, i32 }
          catch ptr null
  %2 = extractvalue { ptr, i32 } %1, 0
  tail call void @__clang_call_terminate(ptr %2) #10
  unreachable

_ZN8proxygen13PingByteEventD2Ev.exit:             ; preds = %entry, %if.then.i.i.i.i
  tail call void @_ZdlPv(ptr noundef nonnull %this) #11
  ret void
}

; Function Attrs: mustprogress nounwind uwtable
define linkonce_odr noundef ptr @_ZNK8proxygen9ByteEvent14getTransactionEv(ptr noundef nonnull align 8 dereferenceable(64) %this) unnamed_addr #3 comdat align 2 {
entry:
  ret ptr null
}

; Function Attrs: mustprogress nounwind uwtable
define linkonce_odr void @_ZN8proxygen9ByteEventD2Ev(ptr noundef nonnull align 8 dereferenceable(64) %this) unnamed_addr #3 comdat align 2 personality ptr @__gxx_personality_v0 {
entry:
  store ptr getelementptr inbounds ({ [6 x ptr] }, ptr @_ZTVN8proxygen9ByteEventE, i64 0, inrange i32 0, i64 2), ptr %this, align 8
  %_M_manager.i.i = getelementptr inbounds i8, ptr %this, i64 48
  %0 = load ptr, ptr %_M_manager.i.i, align 8
  %tobool.not.i.i = icmp eq ptr %0, null
  br i1 %tobool.not.i.i, label %_ZNSt8functionIFvRN8proxygen9ByteEventEEED2Ev.exit, label %if.then.i.i

if.then.i.i:                                      ; preds = %entry
  %callback_ = getelementptr inbounds i8, ptr %this, i64 32
  %call.i.i = invoke noundef zeroext i1 %0(ptr noundef nonnull align 8 dereferenceable(16) %callback_, ptr noundef nonnull align 8 dereferenceable(16) %callback_, i32 noundef 3)
          to label %_ZNSt8functionIFvRN8proxygen9ByteEventEEED2Ev.exit unwind label %terminate.lpad.i.i

terminate.lpad.i.i:                               ; preds = %if.then.i.i
  %1 = landingpad { ptr, i32 }
          catch ptr null
  %2 = extractvalue { ptr, i32 } %1, 0
  tail call void @__clang_call_terminate(ptr %2) #10
  unreachable

_ZNSt8functionIFvRN8proxygen9ByteEventEEED2Ev.exit: ; preds = %entry, %if.then.i.i
  ret void
}

; Function Attrs: mustprogress nounwind uwtable
define linkonce_odr void @_ZN8proxygen9ByteEventD0Ev(ptr noundef nonnull align 8 dereferenceable(64) %this) unnamed_addr #3 comdat align 2 personality ptr @__gxx_personality_v0 {
entry:
  store ptr getelementptr inbounds ({ [6 x ptr] }, ptr @_ZTVN8proxygen9ByteEventE, i64 0, inrange i32 0, i64 2), ptr %this, align 8
  %_M_manager.i.i.i = getelementptr inbounds i8, ptr %this, i64 48
  %0 = load ptr, ptr %_M_manager.i.i.i, align 8
  %tobool.not.i.i.i = icmp eq ptr %0, null
  br i1 %tobool.not.i.i.i, label %_ZN8proxygen9ByteEventD2Ev.exit, label %if.then.i.i.i

if.then.i.i.i:                                    ; preds = %entry
  %callback_.i = getelementptr inbounds i8, ptr %this, i64 32
  %call.i.i.i = invoke noundef zeroext i1 %0(ptr noundef nonnull align 8 dereferenceable(16) %callback_.i, ptr noundef nonnull align 8 dereferenceable(16) %callback_.i, i32 noundef 3)
          to label %_ZN8proxygen9ByteEventD2Ev.exit unwind label %terminate.lpad.i.i.i

terminate.lpad.i.i.i:                             ; preds = %if.then.i.i.i
  %1 = landingpad { ptr, i32 }
          catch ptr null
  %2 = extractvalue { ptr, i32 } %1, 0
  tail call void @__clang_call_terminate(ptr %2) #10
  unreachable

_ZN8proxygen9ByteEventD2Ev.exit:                  ; preds = %entry, %if.then.i.i.i
  tail call void @_ZdlPv(ptr noundef nonnull %this) #11
  ret void
}

; Function Attrs: mustprogress nounwind uwtable
define linkonce_odr noundef i64 @_ZN8proxygen9ByteEvent10getLatencyEv(ptr noundef nonnull align 8 dereferenceable(64) %this) unnamed_addr #3 comdat align 2 {
entry:
  ret i64 -1
}

; Function Attrs: noreturn nounwind uwtable
define linkonce_odr hidden void @__clang_call_terminate(ptr noundef %0) local_unnamed_addr #4 comdat {
  %2 = tail call ptr @__cxa_begin_catch(ptr %0) #8
  tail call void @_ZSt9terminatev() #10
  unreachable
}

declare ptr @__cxa_begin_catch(ptr) local_unnamed_addr

declare void @_ZSt9terminatev() local_unnamed_addr

; Function Attrs: nobuiltin nounwind
declare void @_ZdlPv(ptr noundef) local_unnamed_addr #5

; Function Attrs: nounwind
declare void @_ZNSt7__cxx1112basic_stringIcSt11char_traitsIcESaIcEEC1Ev(ptr noundef nonnull align 8 dereferenceable(32)) unnamed_addr #2

declare void @_ZNSt7__cxx1112basic_stringIcSt11char_traitsIcESaIcEE7reserveEm(ptr noundef nonnull align 8 dereferenceable(32), i64 noundef) local_unnamed_addr #1

; Function Attrs: mustprogress nofree nounwind willreturn memory(argmem: read)
declare i64 @strlen(ptr nocapture noundef) local_unnamed_addr #6

; Function Attrs: mustprogress uwtable
define linkonce_odr void @_ZN5folly6detail18ToAppendStrImplAllISt16integer_sequenceImJLm0ELm1ELm2ELm3ELm4ELm5EEEE4callIJA2_cPKcA3_cmS6_PNSt7__cxx1112basic_stringIcSt11char_traitsIcESaIcEEEEEEvDpRKT_(ptr noundef nonnull align 1 dereferenceable(2) %v, ptr noundef nonnull align 8 dereferenceable(8) %v1, ptr noundef nonnull align 1 dereferenceable(3) %v3, ptr noundef nonnull align 8 dereferenceable(8) %v5, ptr noundef nonnull align 1 dereferenceable(2) %v7, ptr noundef nonnull align 8 dereferenceable(8) %v9) local_unnamed_addr #0 comdat align 2 {
entry:
  %buffer.i = alloca [20 x i8], align 16
  %0 = load ptr, ptr %v9, align 8
  %call.i = tail call noundef nonnull align 8 dereferenceable(32) ptr @_ZNSt7__cxx1112basic_stringIcSt11char_traitsIcESaIcEE6appendEPKc(ptr noundef nonnull align 8 dereferenceable(32) %0, ptr noundef nonnull %v)
  %1 = load ptr, ptr %v1, align 8
  %tobool.not.i = icmp eq ptr %1, null
  br i1 %tobool.not.i, label %_ZN5folly8toAppendINSt7__cxx1112basic_stringIcSt11char_traitsIcESaIcEEEPKcEENSt9enable_ifIXaasr3std14is_convertibleIT0_S8_EE5valuesr12IsSomeStringIT_EE5valueEvE4typeESA_PSB_.exit, label %if.then.i

if.then.i:                                        ; preds = %entry
  %call.i12 = tail call noundef nonnull align 8 dereferenceable(32) ptr @_ZNSt7__cxx1112basic_stringIcSt11char_traitsIcESaIcEE6appendEPKc(ptr noundef nonnull align 8 dereferenceable(32) %0, ptr noundef nonnull %1)
  br label %_ZN5folly8toAppendINSt7__cxx1112basic_stringIcSt11char_traitsIcESaIcEEEPKcEENSt9enable_ifIXaasr3std14is_convertibleIT0_S8_EE5valuesr12IsSomeStringIT_EE5valueEvE4typeESA_PSB_.exit

_ZN5folly8toAppendINSt7__cxx1112basic_stringIcSt11char_traitsIcESaIcEEEPKcEENSt9enable_ifIXaasr3std14is_convertibleIT0_S8_EE5valuesr12IsSomeStringIT_EE5valueEvE4typeESA_PSB_.exit: ; preds = %entry, %if.then.i
  %call.i14 = tail call noundef nonnull align 8 dereferenceable(32) ptr @_ZNSt7__cxx1112basic_stringIcSt11char_traitsIcESaIcEE6appendEPKc(ptr noundef nonnull align 8 dereferenceable(32) %0, ptr noundef nonnull %v3)
  %2 = load i64, ptr %v5, align 8
  call void @llvm.lifetime.start.p0(i64 20, ptr nonnull %buffer.i)
  br label %for.body.i.i.i.i.i.i

for.body.i.i.i.i.i.i:                             ; preds = %if.end.i.i.i.i.i.i, %_ZN5folly8toAppendINSt7__cxx1112basic_stringIcSt11char_traitsIcESaIcEEEPKcEENSt9enable_ifIXaasr3std14is_convertibleIT0_S8_EE5valuesr12IsSomeStringIT_EE5valueEvE4typeESA_PSB_.exit
  %i.i.i.015.i.i.i.i = phi i64 [ 0, %_ZN5folly8toAppendINSt7__cxx1112basic_stringIcSt11char_traitsIcESaIcEEEPKcEENSt9enable_ifIXaasr3std14is_convertibleIT0_S8_EE5valuesr12IsSomeStringIT_EE5valueEvE4typeESA_PSB_.exit ], [ %inc.i.i.i.i.i.i, %if.end.i.i.i.i.i.i ]
  %arrayidx.i.i.i.i.i.i = getelementptr inbounds [20 x i64], ptr @_ZN5folly6detail15to_ascii_powersILm10EmE4dataE, i64 0, i64 %i.i.i.015.i.i.i.i
  %3 = load i64, ptr %arrayidx.i.i.i.i.i.i, align 8
  %cmp1.i.i.i.i.i.i = icmp ugt i64 %3, %2
  br i1 %cmp1.i.i.i.i.i.i, label %_ZN5folly6detail19to_ascii_with_tableILm10ENS_17to_ascii_alphabetILb0EEEEEmPcm.exit.i.i.i.i, label %if.end.i.i.i.i.i.i

if.end.i.i.i.i.i.i:                               ; preds = %for.body.i.i.i.i.i.i
  %inc.i.i.i.i.i.i = add nuw nsw i64 %i.i.i.015.i.i.i.i, 1
  %exitcond.not.i.i.i.i = icmp eq i64 %inc.i.i.i.i.i.i, 20
  br i1 %exitcond.not.i.i.i.i, label %while.body.i.preheader.i.i.i.i, label %for.body.i.i.i.i.i.i, !llvm.loop !4

_ZN5folly6detail19to_ascii_with_tableILm10ENS_17to_ascii_alphabetILb0EEEEEmPcm.exit.i.i.i.i: ; preds = %for.body.i.i.i.i.i.i
  %cmp2.i.i.i.i.i.i = icmp eq i64 %i.i.i.015.i.i.i.i, 0
  %conv.i.i.i.i.i.i = zext i1 %cmp2.i.i.i.i.i.i to i64
  %add.i.i.i.i.i.i = add nuw nsw i64 %i.i.i.015.i.i.i.i, %conv.i.i.i.i.i.i
  %cmp.i16.i.i.i.i = icmp ugt i64 %add.i.i.i.i.i.i, 2
  br i1 %cmp.i16.i.i.i.i, label %while.body.i.preheader.i.i.i.i, label %while.end.i.i.i.i.i

while.body.i.preheader.i.i.i.i:                   ; preds = %if.end.i.i.i.i.i.i, %_ZN5folly6detail19to_ascii_with_tableILm10ENS_17to_ascii_alphabetILb0EEEEEmPcm.exit.i.i.i.i
  %retval.i.i.024.i.i.i.i = phi i64 [ %add.i.i.i.i.i.i, %_ZN5folly6detail19to_ascii_with_tableILm10ENS_17to_ascii_alphabetILb0EEEEEmPcm.exit.i.i.i.i ], [ 20, %if.end.i.i.i.i.i.i ]
  br label %while.body.i.i.i.i.i

while.body.i.i.i.i.i:                             ; preds = %while.body.i.i.i.i.i, %while.body.i.preheader.i.i.i.i
  %v.addr.i4.018.i.i.i.i = phi i64 [ %div.i.i.i.i.i, %while.body.i.i.i.i.i ], [ %2, %while.body.i.preheader.i.i.i.i ]
  %pos.i.017.i.i.i.i = phi i64 [ %sub.i.i.i.i.i, %while.body.i.i.i.i.i ], [ %retval.i.i.024.i.i.i.i, %while.body.i.preheader.i.i.i.i ]
  %sub.i.i.i.i.i = add i64 %pos.i.017.i.i.i.i, -2
  %div.i.i.i.i.i = udiv i64 %v.addr.i4.018.i.i.i.i, 100
  %rem.i.i.i.i.i = urem i64 %v.addr.i4.018.i.i.i.i, 100
  %arrayidx.i.i.i.i.i = getelementptr inbounds [100 x i16], ptr @_ZN5folly6detail14to_ascii_tableILm10ENS_17to_ascii_alphabetILb0EEEE4dataE, i64 0, i64 %rem.i.i.i.i.i
  %4 = load i16, ptr %arrayidx.i.i.i.i.i, align 2
  %add.ptr.i.i.i.i.i = getelementptr inbounds i8, ptr %buffer.i, i64 %sub.i.i.i.i.i
  store i16 %4, ptr %add.ptr.i.i.i.i.i, align 1
  %cmp.i.i.i.i.i = icmp ugt i64 %sub.i.i.i.i.i, 2
  br i1 %cmp.i.i.i.i.i, label %while.body.i.i.i.i.i, label %while.end.i.i.i.i.i, !llvm.loop !6

while.end.i.i.i.i.i:                              ; preds = %while.body.i.i.i.i.i, %_ZN5folly6detail19to_ascii_with_tableILm10ENS_17to_ascii_alphabetILb0EEEEEmPcm.exit.i.i.i.i
  %retval.i.i.023.i.i.i.i = phi i64 [ %add.i.i.i.i.i.i, %_ZN5folly6detail19to_ascii_with_tableILm10ENS_17to_ascii_alphabetILb0EEEEEmPcm.exit.i.i.i.i ], [ %retval.i.i.024.i.i.i.i, %while.body.i.i.i.i.i ]
  %pos.i.0.lcssa.i.i.i.i = phi i64 [ %add.i.i.i.i.i.i, %_ZN5folly6detail19to_ascii_with_tableILm10ENS_17to_ascii_alphabetILb0EEEEEmPcm.exit.i.i.i.i ], [ %sub.i.i.i.i.i, %while.body.i.i.i.i.i ]
  %v.addr.i4.0.lcssa.i.i.i.i = phi i64 [ %2, %_ZN5folly6detail19to_ascii_with_tableILm10ENS_17to_ascii_alphabetILb0EEEEEmPcm.exit.i.i.i.i ], [ %div.i.i.i.i.i, %while.body.i.i.i.i.i ]
  %arrayidx2.i.i.i.i.i = getelementptr inbounds [100 x i16], ptr @_ZN5folly6detail14to_ascii_tableILm10ENS_17to_ascii_alphabetILb0EEEE4dataE, i64 0, i64 %v.addr.i4.0.lcssa.i.i.i.i
  %5 = load i16, ptr %arrayidx2.i.i.i.i.i, align 2
  %cmp3.i.i.i.i.i = icmp eq i64 %pos.i.0.lcssa.i.i.i.i, 2
  br i1 %cmp3.i.i.i.i.i, label %if.then.i.i.i.i.i, label %if.else.i.i.i.i.i

if.then.i.i.i.i.i:                                ; preds = %while.end.i.i.i.i.i
  store i16 %5, ptr %buffer.i, align 16
  br label %_ZN5folly8toAppendINSt7__cxx1112basic_stringIcSt11char_traitsIcESaIcEEEmEENSt9enable_ifIXaaaaaa13is_integral_vIT0_Ent11is_signed_vIS8_Esr12IsSomeStringIT_EE5valuegestS8_Li4EEvE4typeES8_PS9_.exit

if.else.i.i.i.i.i:                                ; preds = %while.end.i.i.i.i.i
  %6 = lshr i16 %5, 8
  %conv4.i.i.i.i.i = trunc i16 %6 to i8
  store i8 %conv4.i.i.i.i.i, ptr %buffer.i, align 16
  br label %_ZN5folly8toAppendINSt7__cxx1112basic_stringIcSt11char_traitsIcESaIcEEEmEENSt9enable_ifIXaaaaaa13is_integral_vIT0_Ent11is_signed_vIS8_Esr12IsSomeStringIT_EE5valuegestS8_Li4EEvE4typeES8_PS9_.exit

_ZN5folly8toAppendINSt7__cxx1112basic_stringIcSt11char_traitsIcESaIcEEEmEENSt9enable_ifIXaaaaaa13is_integral_vIT0_Ent11is_signed_vIS8_Esr12IsSomeStringIT_EE5valuegestS8_Li4EEvE4typeES8_PS9_.exit: ; preds = %if.then.i.i.i.i.i, %if.else.i.i.i.i.i
  %call1.i = call noundef nonnull align 8 dereferenceable(32) ptr @_ZNSt7__cxx1112basic_stringIcSt11char_traitsIcESaIcEE6appendEPKcm(ptr noundef nonnull align 8 dereferenceable(32) %0, ptr noundef nonnull %buffer.i, i64 noundef %retval.i.i.023.i.i.i.i)
  call void @llvm.lifetime.end.p0(i64 20, ptr nonnull %buffer.i)
  %call.i16 = call noundef nonnull align 8 dereferenceable(32) ptr @_ZNSt7__cxx1112basic_stringIcSt11char_traitsIcESaIcEE6appendEPKc(ptr noundef nonnull align 8 dereferenceable(32) %0, ptr noundef nonnull %v7)
  ret void
}

declare noundef nonnull align 8 dereferenceable(32) ptr @_ZNSt7__cxx1112basic_stringIcSt11char_traitsIcESaIcEE6appendEPKc(ptr noundef nonnull align 8 dereferenceable(32), ptr noundef) local_unnamed_addr #1

declare noundef nonnull align 8 dereferenceable(32) ptr @_ZNSt7__cxx1112basic_stringIcSt11char_traitsIcESaIcEE6appendEPKcm(ptr noundef nonnull align 8 dereferenceable(32), ptr noundef, i64 noundef) local_unnamed_addr #1

; Function Attrs: nounwind
declare i64 @_ZNSt6chrono3_V212steady_clock3nowEv() local_unnamed_addr #2

; Function Attrs: nocallback nofree nosync nounwind willreturn memory(argmem: readwrite)
declare void @llvm.lifetime.start.p0(i64 immarg, ptr nocapture) #7

; Function Attrs: nocallback nofree nosync nounwind willreturn memory(argmem: readwrite)
declare void @llvm.lifetime.end.p0(i64 immarg, ptr nocapture) #7

attributes #0 = { mustprogress uwtable "frame-pointer"="all" "min-legal-vector-width"="0" "no-trapping-math"="true" "stack-protector-buffer-size"="8" "target-cpu"="x86-64" "target-features"="+cmov,+cx8,+fxsr,+mmx,+sse,+sse2,+x87" "tune-cpu"="generic" }
attributes #1 = { "frame-pointer"="all" "no-trapping-math"="true" "stack-protector-buffer-size"="8" "target-cpu"="x86-64" "target-features"="+cmov,+cx8,+fxsr,+mmx,+sse,+sse2,+x87" "tune-cpu"="generic" }
attributes #2 = { nounwind "frame-pointer"="all" "no-trapping-math"="true" "stack-protector-buffer-size"="8" "target-cpu"="x86-64" "target-features"="+cmov,+cx8,+fxsr,+mmx,+sse,+sse2,+x87" "tune-cpu"="generic" }
attributes #3 = { mustprogress nounwind uwtable "frame-pointer"="all" "min-legal-vector-width"="0" "no-trapping-math"="true" "stack-protector-buffer-size"="8" "target-cpu"="x86-64" "target-features"="+cmov,+cx8,+fxsr,+mmx,+sse,+sse2,+x87" "tune-cpu"="generic" }
attributes #4 = { noreturn nounwind uwtable "frame-pointer"="all" "no-trapping-math"="true" "stack-protector-buffer-size"="8" "target-cpu"="x86-64" "target-features"="+cmov,+cx8,+fxsr,+mmx,+sse,+sse2,+x87" "tune-cpu"="generic" }
attributes #5 = { nobuiltin nounwind "frame-pointer"="all" "no-trapping-math"="true" "stack-protector-buffer-size"="8" "target-cpu"="x86-64" "target-features"="+cmov,+cx8,+fxsr,+mmx,+sse,+sse2,+x87" "tune-cpu"="generic" }
attributes #6 = { mustprogress nofree nounwind willreturn memory(argmem: read) "frame-pointer"="all" "no-trapping-math"="true" "stack-protector-buffer-size"="8" "target-cpu"="x86-64" "target-features"="+cmov,+cx8,+fxsr,+mmx,+sse,+sse2,+x87" "tune-cpu"="generic" }
attributes #7 = { nocallback nofree nosync nounwind willreturn memory(argmem: readwrite) }
attributes #8 = { nounwind }
attributes #9 = { nounwind willreturn memory(read) }
attributes #10 = { noreturn nounwind }
attributes #11 = { builtin nounwind }

!llvm.module.flags = !{!0, !1, !2, !3}

!0 = !{i32 1, !"wchar_size", i32 4}
!1 = !{i32 8, !"PIC Level", i32 2}
!2 = !{i32 7, !"uwtable", i32 2}
!3 = !{i32 7, !"frame-pointer", i32 2}
!4 = distinct !{!4, !5}
!5 = !{!"llvm.loop.mustprogress"}
!6 = distinct !{!6, !5}
