target datalayout = "e-m:e-p270:32:32-p271:32:32-p272:64:64-i64:64-i128:128-f80:128-n8:16:32:64-S128"
target triple = "x86_64-unknown-linux-gnu"

%"class.std::ios_base::Init" = type { i8 }
%"class.grpc_core::NoDestruct" = type { [8 x i8] }
%"struct.grpc_core::arena_promise_detail::Vtable" = type { ptr, ptr }
%"class.grpc_core::RefCountedPtr" = type { ptr }
%struct._grpc_gcp_RpcProtocolVersions = type { %struct._grpc_gcp_RpcProtocolVersions_Version, %struct._grpc_gcp_RpcProtocolVersions_Version }
%struct._grpc_gcp_RpcProtocolVersions_Version = type { i32, i32 }
%struct.grpc_slice = type { ptr, %"union.grpc_slice::grpc_slice_data" }
%"union.grpc_slice::grpc_slice_data" = type { %"struct.grpc_slice::grpc_slice_data::grpc_slice_refcounted", [8 x i8] }
%"struct.grpc_slice::grpc_slice_data::grpc_slice_refcounted" = type { i64, ptr }
%"class.grpc_core::DebugLocation" = type { i8 }
%struct.tsi_peer_property = type { ptr, %struct.anon }
%struct.anon = type { ptr, i64 }
%struct.tsi_peer = type { ptr, i64 }
%"class.grpc_core::RefCountedPtr.0" = type { ptr }
%"class.grpc_core::RefCountedPtr.3" = type { ptr }
%"class.grpc_core::RefCountedPtr.1" = type { ptr }
%"class.grpc_core::RefCountedPtr.2" = type { ptr }
%"class.grpc_core::RefCountedPtr.4" = type { ptr }
%"class.grpc_core::RefCountedPtr.6" = type { ptr }
%"class.grpc_core::RefCountedPtr.5" = type { ptr }
%struct.grpc_slice_refcount = type { %"struct.std::atomic", ptr }
%"struct.std::atomic" = type { %"struct.std::__atomic_base" }
%"struct.std::__atomic_base" = type { i64 }
%"class.grpc_core::RefCounted" = type { %"class.grpc_core::RefCount" }
%"class.grpc_core::RefCount" = type { %"struct.std::atomic.7" }
%"struct.std::atomic.7" = type { %"struct.std::__atomic_base.8" }
%"struct.std::__atomic_base.8" = type { i64 }
%struct.grpc_auth_context = type { %"class.grpc_core::RefCounted", %"class.grpc_core::RefCountedPtr", %struct.grpc_auth_property_array, ptr, %"class.std::unique_ptr" }
%struct.grpc_auth_property_array = type { ptr, i64, i64 }
%"class.std::unique_ptr" = type { %"struct.std::__uniq_ptr_data" }
%"struct.std::__uniq_ptr_data" = type { %"class.std::__uniq_ptr_impl" }
%"class.std::__uniq_ptr_impl" = type { %"class.std::tuple" }
%"class.std::tuple" = type { %"struct.std::_Tuple_impl" }
%"struct.std::_Tuple_impl" = type { %"struct.std::_Head_base.10" }
%"struct.std::_Head_base.10" = type { ptr }
%struct.grpc_auth_property = type { ptr, ptr, i64 }
%"class.std::basic_string_view" = type { i64, ptr }
%"class.(anonymous namespace)::grpc_alts_channel_security_connector" = type { %class.grpc_channel_security_connector, ptr }
%class.grpc_channel_security_connector = type { %class.grpc_security_connector, %"class.grpc_core::RefCountedPtr.1", %"class.grpc_core::RefCountedPtr.2", %"class.std::unique_ptr.12" }
%class.grpc_security_connector = type { %"class.grpc_core::RefCounted.11", %"class.std::basic_string_view" }
%"class.grpc_core::RefCounted.11" = type { %"class.grpc_core::PolymorphicRefCount", %"class.grpc_core::RefCount" }
%"class.grpc_core::PolymorphicRefCount" = type { ptr }
%"class.std::unique_ptr.12" = type { %"struct.std::__uniq_ptr_data.13" }
%"struct.std::__uniq_ptr_data.13" = type { %"class.std::__uniq_ptr_impl.14" }
%"class.std::__uniq_ptr_impl.14" = type { %"class.std::tuple.15" }
%"class.std::tuple.15" = type { %"struct.std::_Tuple_impl.16" }
%"struct.std::_Tuple_impl.16" = type { %"struct.std::_Head_base.19" }
%"struct.std::_Head_base.19" = type { ptr }
%"class.grpc_core::UniqueTypeName" = type { %"class.std::basic_string_view" }
%"class.grpc_core::ArenaPromise" = type { %"struct.grpc_core::arena_promise_detail::VtableAndArg" }
%"struct.grpc_core::arena_promise_detail::VtableAndArg" = type { ptr, [8 x i8], %"struct.grpc_core::arena_promise_detail::ArgType" }
%"struct.grpc_core::arena_promise_detail::ArgType" = type { [8 x i8], [8 x i8] }
%"struct.grpc_core::ImmediateOkStatus" = type { i8 }
%"class.std::optional" = type { %"struct.std::_Optional_base" }
%"struct.std::_Optional_base" = type { %"struct.std::_Optional_payload" }
%"struct.std::_Optional_payload" = type { %"struct.std::_Optional_payload_base.base", [3 x i8] }
%"struct.std::_Optional_payload_base.base" = type <{ %"union.std::_Optional_payload_base<int>::_Storage", i8 }>
%"union.std::_Optional_payload_base<int>::_Storage" = type { i32 }
%"class.grpc_core::RefCountedPtr.45" = type { ptr }
%"class.absl::lts_20230802::Status" = type { i64 }
%"class.std::vector" = type { %"struct.std::_Vector_base" }
%"struct.std::_Vector_base" = type { %"struct.std::_Vector_base<absl::lts_20230802::Status, std::allocator<absl::lts_20230802::Status>>::_Vector_impl" }
%"struct.std::_Vector_base<absl::lts_20230802::Status, std::allocator<absl::lts_20230802::Status>>::_Vector_impl" = type { %"struct.std::_Vector_base<absl::lts_20230802::Status, std::allocator<absl::lts_20230802::Status>>::_Vector_impl_data" }
%"struct.std::_Vector_base<absl::lts_20230802::Status, std::allocator<absl::lts_20230802::Status>>::_Vector_impl_data" = type { ptr, ptr, ptr }
%"struct.absl::lts_20230802::status_internal::StatusRep" = type { %"struct.std::atomic.22", i32, %"class.std::__cxx11::basic_string", %"class.std::unique_ptr.27" }
%"struct.std::atomic.22" = type { %"struct.std::__atomic_base.23" }
%"struct.std::__atomic_base.23" = type { i32 }
%"class.std::__cxx11::basic_string" = type { %"struct.std::__cxx11::basic_string<char>::_Alloc_hider", i64, %union.anon }
%"struct.std::__cxx11::basic_string<char>::_Alloc_hider" = type { ptr }
%union.anon = type { i64, [8 x i8] }
%"class.std::unique_ptr.27" = type { %"struct.std::__uniq_ptr_data.28" }
%"struct.std::__uniq_ptr_data.28" = type { %"class.std::__uniq_ptr_impl.29" }
%"class.std::__uniq_ptr_impl.29" = type { %"class.std::tuple.30" }
%"class.std::tuple.30" = type { %"struct.std::_Tuple_impl.31" }
%"struct.std::_Tuple_impl.31" = type { %"struct.std::_Head_base.34" }
%"struct.std::_Head_base.34" = type { ptr }
%"class.grpc_core::Poll" = type { i8, %union.anon.35 }
%union.anon.35 = type { %"class.absl::lts_20230802::Status" }
%class.grpc_alts_credentials = type { %struct.grpc_channel_credentials, ptr, ptr }
%struct.grpc_channel_credentials = type { %"class.grpc_core::RefCounted.36" }
%"class.grpc_core::RefCounted.36" = type { %"class.grpc_core::PolymorphicRefCount", %"class.grpc_core::RefCount" }
%"struct.std::_Optional_payload_base" = type <{ %"union.std::_Optional_payload_base<int>::_Storage", i8, [3 x i8] }>
%"class.grpc_core::RefCounted.46" = type { %"class.grpc_core::PolymorphicRefCount", %"class.grpc_core::RefCount" }
%"class.grpc_core::RefCounted.47" = type { %"class.grpc_core::PolymorphicRefCount", %"class.grpc_core::RefCount" }
%class.grpc_server_security_connector = type { %class.grpc_security_connector, %"class.grpc_core::RefCountedPtr.5" }
%class.grpc_alts_server_credentials = type { %struct.grpc_server_credentials, ptr, ptr }
%struct.grpc_server_credentials = type { %"class.grpc_core::RefCounted.48", %struct.grpc_auth_metadata_processor }
%"class.grpc_core::RefCounted.48" = type { %"class.grpc_core::PolymorphicRefCount", %"class.grpc_core::RefCount" }
%struct.grpc_auth_metadata_processor = type { ptr, ptr, ptr }

$_ZN9grpc_core13RefCountedPtrI17grpc_auth_contextEC2EDn = comdat any

$_ZN9grpc_core11CSliceUnrefERK10grpc_sliceNS_13DebugLocationE = comdat any

$_ZN9grpc_core13DebugLocationC2Ev = comdat any

$_ZN9grpc_core14MakeRefCountedI17grpc_auth_contextJDnEEENS_13RefCountedPtrIT_EEDpOT0_ = comdat any

$_ZNK9grpc_core13RefCountedPtrI17grpc_auth_contextE3getEv = comdat any

$_ZN9grpc_core13RefCountedPtrI17grpc_auth_contextE5resetERKNS_13DebugLocationEPKcPS1_ = comdat any

$_ZN9grpc_core13DebugLocationC2EPKci = comdat any

$_ZN9grpc_core13RefCountedPtrI17grpc_auth_contextEC2EOS2_ = comdat any

$_ZN9grpc_core13RefCountedPtrI17grpc_auth_contextED2Ev = comdat any

$_ZNK9grpc_core13RefCountedPtrI24grpc_channel_credentialsEeqEDn = comdat any

$_ZN9grpc_core13RefCountedPtrI31grpc_channel_security_connectorEC2EDn = comdat any

$_ZNK9grpc_core13RefCountedPtrI23grpc_server_credentialsEeqEDn = comdat any

$_ZN9grpc_core13RefCountedPtrI30grpc_server_security_connectorEC2EDn = comdat any

$_ZN9grpc_core19NoDestructSingletonINS_14promise_detail10UnwakeableEE6value_E = comdat any

$_ZN9grpc_core10NoDestructINS_14promise_detail10UnwakeableEEC2IJEEEDpOT_ = comdat any

$_ZN19grpc_slice_refcount5UnrefEN9grpc_core13DebugLocationE = comdat any

$_ZN9grpc_core9ConstructINS_14promise_detail10UnwakeableEJEEEvPT_DpOT0_ = comdat any

$_ZN9grpc_core14promise_detail10UnwakeableC2Ev = comdat any

$_ZN9grpc_core8WakeableC2Ev = comdat any

$_ZNK9grpc_core10RefCountedI17grpc_auth_contextNS_22NonPolymorphicRefCountENS_11UnrefDeleteEE5UnrefEv = comdat any

$__clang_call_terminate = comdat any

$_ZN9grpc_core8RefCount5UnrefEv = comdat any

$_ZNK9grpc_core11UnrefDeleteclIK17grpc_auth_contextEEvPT_ = comdat any

$_ZN17grpc_auth_contextD2Ev = comdat any

$_ZNSt10unique_ptrIN17grpc_auth_context9ExtensionESt14default_deleteIS1_EED2Ev = comdat any

$_ZNSt15__uniq_ptr_implIN17grpc_auth_context9ExtensionESt14default_deleteIS1_EE6_M_ptrEv = comdat any

$_ZNSt10unique_ptrIN17grpc_auth_context9ExtensionESt14default_deleteIS1_EE11get_deleterEv = comdat any

$_ZNKSt14default_deleteIN17grpc_auth_context9ExtensionEEclEPS1_ = comdat any

$_ZSt3getILm0EJPN17grpc_auth_context9ExtensionESt14default_deleteIS1_EEERNSt13tuple_elementIXT_ESt5tupleIJDpT0_EEE4typeERS9_ = comdat any

$_ZSt12__get_helperILm0EPN17grpc_auth_context9ExtensionEJSt14default_deleteIS1_EEERT0_RSt11_Tuple_implIXT_EJS5_DpT1_EE = comdat any

$_ZNSt11_Tuple_implILm0EJPN17grpc_auth_context9ExtensionESt14default_deleteIS1_EEE7_M_headERS5_ = comdat any

$_ZNSt10_Head_baseILm0EPN17grpc_auth_context9ExtensionELb0EE7_M_headERS3_ = comdat any

$_ZNSt15__uniq_ptr_implIN17grpc_auth_context9ExtensionESt14default_deleteIS1_EE10_M_deleterEv = comdat any

$_ZSt3getILm1EJPN17grpc_auth_context9ExtensionESt14default_deleteIS1_EEERNSt13tuple_elementIXT_ESt5tupleIJDpT0_EEE4typeERS9_ = comdat any

$_ZSt12__get_helperILm1ESt14default_deleteIN17grpc_auth_context9ExtensionEEJEERT0_RSt11_Tuple_implIXT_EJS4_DpT1_EE = comdat any

$_ZNSt11_Tuple_implILm1EJSt14default_deleteIN17grpc_auth_context9ExtensionEEEE7_M_headERS4_ = comdat any

$_ZNSt10_Head_baseILm1ESt14default_deleteIN17grpc_auth_context9ExtensionEELb1EE7_M_headERS4_ = comdat any

$_ZSt8exchangeIP17grpc_auth_contextRS1_ET_RS3_OT0_ = comdat any

$_ZNK9grpc_core10RefCountedI17grpc_auth_contextNS_22NonPolymorphicRefCountENS_11UnrefDeleteEE5UnrefERKNS_13DebugLocationEPKc = comdat any

$_ZSt10__exchangeIP17grpc_auth_contextRS1_ET_RS3_OT0_ = comdat any

$_ZN9grpc_core8RefCount5UnrefERKNS_13DebugLocationEPKc = comdat any

$_ZN17grpc_auth_contextC2EN9grpc_core13RefCountedPtrIS_EE = comdat any

$_ZN9grpc_core13RefCountedPtrI17grpc_auth_contextEC2IS1_EEPT_ = comdat any

$_ZN9grpc_core10RefCountedI17grpc_auth_contextNS_22NonPolymorphicRefCountENS_11UnrefDeleteEEC2EPKcl = comdat any

$_ZN24grpc_auth_property_arrayC2Ev = comdat any

$_ZNSt10unique_ptrIN17grpc_auth_context9ExtensionESt14default_deleteIS1_EEC2IS3_vEEv = comdat any

$_ZNK9grpc_core13RefCountedPtrI17grpc_auth_contextEneEDn = comdat any

$_ZNK9grpc_core13RefCountedPtrI17grpc_auth_contextEptEv = comdat any

$_ZN9grpc_core8RefCountC2ElPKc = comdat any

$_ZNSt6atomicIlEC2El = comdat any

$_ZNSt13__atomic_baseIlEC2El = comdat any

$_ZNSt15__uniq_ptr_dataIN17grpc_auth_context9ExtensionESt14default_deleteIS1_ELb1ELb1EEC2Ev = comdat any

$_ZNSt15__uniq_ptr_implIN17grpc_auth_context9ExtensionESt14default_deleteIS1_EEC2Ev = comdat any

$_ZNSt5tupleIJPN17grpc_auth_context9ExtensionESt14default_deleteIS1_EEEC2ILb1ETnNSt9enable_ifIXclsr17_TupleConstraintsIXT_ES2_S4_EE37__is_implicitly_default_constructibleEEbE4typeELb1EEEv = comdat any

$_ZNSt11_Tuple_implILm0EJPN17grpc_auth_context9ExtensionESt14default_deleteIS1_EEEC2Ev = comdat any

$_ZNSt11_Tuple_implILm1EJSt14default_deleteIN17grpc_auth_context9ExtensionEEEEC2Ev = comdat any

$_ZNSt10_Head_baseILm0EPN17grpc_auth_context9ExtensionELb0EEC2Ev = comdat any

$_ZNSt10_Head_baseILm1ESt14default_deleteIN17grpc_auth_context9ExtensionEELb1EEC2Ev = comdat any

$_ZN9grpc_core13RefCountedPtrI24grpc_channel_credentialsEC2EOS2_ = comdat any

$_ZN9grpc_core13RefCountedPtrI21grpc_call_credentialsEC2EOS2_ = comdat any

$_ZN9grpc_core13RefCountedPtrI21grpc_call_credentialsED2Ev = comdat any

$_ZN9grpc_core13RefCountedPtrI24grpc_channel_credentialsED2Ev = comdat any

$_ZNSt17basic_string_viewIcSt11char_traitsIcEEC2EPKc = comdat any

$_ZN31grpc_channel_security_connectorD2Ev = comdat any

$_ZNSt11char_traitsIcE6lengthEPKc = comdat any

$_ZNSt10unique_ptrI17grpc_channel_argsSt14default_deleteIS0_EED2Ev = comdat any

$_ZN23grpc_security_connectorD2Ev = comdat any

$_ZNSt15__uniq_ptr_implI17grpc_channel_argsSt14default_deleteIS0_EE6_M_ptrEv = comdat any

$_ZNSt10unique_ptrI17grpc_channel_argsSt14default_deleteIS0_EE11get_deleterEv = comdat any

$_ZNKSt14default_deleteI17grpc_channel_argsEclEPS0_ = comdat any

$_ZSt3getILm0EJP17grpc_channel_argsSt14default_deleteIS0_EEERNSt13tuple_elementIXT_ESt5tupleIJDpT0_EEE4typeERS8_ = comdat any

$_ZSt12__get_helperILm0EP17grpc_channel_argsJSt14default_deleteIS0_EEERT0_RSt11_Tuple_implIXT_EJS4_DpT1_EE = comdat any

$_ZNSt11_Tuple_implILm0EJP17grpc_channel_argsSt14default_deleteIS0_EEE7_M_headERS4_ = comdat any

$_ZNSt10_Head_baseILm0EP17grpc_channel_argsLb0EE7_M_headERS2_ = comdat any

$_ZNSt15__uniq_ptr_implI17grpc_channel_argsSt14default_deleteIS0_EE10_M_deleterEv = comdat any

$_ZSt3getILm1EJP17grpc_channel_argsSt14default_deleteIS0_EEERNSt13tuple_elementIXT_ESt5tupleIJDpT0_EEE4typeERS8_ = comdat any

$_ZSt12__get_helperILm1ESt14default_deleteI17grpc_channel_argsEJEERT0_RSt11_Tuple_implIXT_EJS3_DpT1_EE = comdat any

$_ZNSt11_Tuple_implILm1EJSt14default_deleteI17grpc_channel_argsEEE7_M_headERS3_ = comdat any

$_ZNSt10_Head_baseILm1ESt14default_deleteI17grpc_channel_argsELb1EE7_M_headERS3_ = comdat any

$_ZN9grpc_core10RefCountedI23grpc_security_connectorNS_19PolymorphicRefCountENS_11UnrefDeleteEED2Ev = comdat any

$_ZN9grpc_core19PolymorphicRefCountD2Ev = comdat any

$_ZN9grpc_core13RefCountedPtrI17grpc_auth_contextEaSEOS2_ = comdat any

$_ZN4absl12lts_202308028OkStatusEv = comdat any

$_ZNSt6vectorIN4absl12lts_202308026StatusESaIS2_EEC2Ev = comdat any

$_ZNSt6vectorIN4absl12lts_202308026StatusESaIS2_EED2Ev = comdat any

$_ZN4absl12lts_202308026StatusC2ERKS1_ = comdat any

$_ZN4absl12lts_202308026StatusD2Ev = comdat any

$_ZN9grpc_core13RefCountedPtrI17grpc_auth_contextE5resetEPS1_ = comdat any

$_ZSt8exchangeIP17grpc_auth_contextDnET_RS2_OT0_ = comdat any

$_ZSt10__exchangeIP17grpc_auth_contextDnET_RS2_OT0_ = comdat any

$_ZN4absl12lts_202308026StatusC2Ev = comdat any

$_ZN4absl12lts_202308026Status16CodeToInlinedRepENS0_10StatusCodeE = comdat any

$_ZNSt12_Vector_baseIN4absl12lts_202308026StatusESaIS2_EEC2Ev = comdat any

$_ZNSt12_Vector_baseIN4absl12lts_202308026StatusESaIS2_EE12_Vector_implC2Ev = comdat any

$_ZNSaIN4absl12lts_202308026StatusEEC2Ev = comdat any

$_ZNSt12_Vector_baseIN4absl12lts_202308026StatusESaIS2_EE17_Vector_impl_dataC2Ev = comdat any

$_ZNSt15__new_allocatorIN4absl12lts_202308026StatusEEC2Ev = comdat any

$_ZSt8_DestroyIPN4absl12lts_202308026StatusES2_EvT_S4_RSaIT0_E = comdat any

$_ZNSt12_Vector_baseIN4absl12lts_202308026StatusESaIS2_EE19_M_get_Tp_allocatorEv = comdat any

$_ZNSt12_Vector_baseIN4absl12lts_202308026StatusESaIS2_EED2Ev = comdat any

$_ZSt8_DestroyIPN4absl12lts_202308026StatusEEvT_S4_ = comdat any

$_ZNSt12_Destroy_auxILb0EE9__destroyIPN4absl12lts_202308026StatusEEEvT_S6_ = comdat any

$_ZSt8_DestroyIN4absl12lts_202308026StatusEEvPT_ = comdat any

$_ZNSt12_Vector_baseIN4absl12lts_202308026StatusESaIS2_EE13_M_deallocateEPS2_m = comdat any

$_ZNSt12_Vector_baseIN4absl12lts_202308026StatusESaIS2_EE12_Vector_implD2Ev = comdat any

$_ZNSt16allocator_traitsISaIN4absl12lts_202308026StatusEEE10deallocateERS3_PS2_m = comdat any

$_ZNSt15__new_allocatorIN4absl12lts_202308026StatusEE10deallocateEPS2_m = comdat any

$_ZNSaIN4absl12lts_202308026StatusEED2Ev = comdat any

$_ZNSt15__new_allocatorIN4absl12lts_202308026StatusEED2Ev = comdat any

$_ZN4absl12lts_202308026Status3RefEm = comdat any

$_ZN4absl12lts_202308026Status9IsInlinedEm = comdat any

$_ZN4absl12lts_202308026Status12RepToPointerEm = comdat any

$_ZN4absl12lts_202308026Status5UnrefEm = comdat any

$_ZN9grpc_core12ArenaPromiseIN4absl12lts_202308026StatusEEC2INS_17ImmediateOkStatusEvEEOT_ = comdat any

$_ZN9grpc_core20arena_promise_detail19MakeImplForCallableIN4absl12lts_202308026StatusENS_17ImmediateOkStatusEEEvOT0_PNS0_12VtableAndArgIT_EE = comdat any

$_ZN9grpc_core20arena_promise_detail4NullIN4absl12lts_202308026StatusEE8PollOnceEPNS0_7ArgTypeE = comdat any

$_ZN9grpc_core20arena_promise_detail4NullIN4absl12lts_202308026StatusEE7DestroyEPNS0_7ArgTypeE = comdat any

$_ZN9grpc_core20arena_promise_detail21ChooseImplForCallableIN4absl12lts_202308026StatusENS_17ImmediateOkStatusEvE4MakeEOS5_PNS0_12VtableAndArgIS4_EE = comdat any

$_ZN9grpc_core20arena_promise_detail14SharedCallableIN4absl12lts_202308026StatusENS_17ImmediateOkStatusEE8PollOnceEPNS0_7ArgTypeE = comdat any

$_ZN9grpc_core17ImmediateOkStatusclEv = comdat any

$_ZN9grpc_core4PollIN4absl12lts_202308026StatusEEC2EOS3_ = comdat any

$_ZN9grpc_core9ConstructIN4absl12lts_202308026StatusEJS3_EEEvPT_DpOT0_ = comdat any

$_ZN4absl12lts_202308026StatusC2EOS1_ = comdat any

$_ZN4absl12lts_202308026Status12MovedFromRepEv = comdat any

$_ZNK31grpc_channel_security_connector13channel_credsEv = comdat any

$_ZSt3maxIiERKT_S2_S2_ = comdat any

$_ZNOSt8optionalIiE8value_orIiEEiOT_ = comdat any

$_ZNK21grpc_alts_credentials7optionsEv = comdat any

$_ZNK21grpc_alts_credentials22handshaker_service_urlEv = comdat any

$_ZN9grpc_core13RefCountedPtrINS_10HandshakerEED2Ev = comdat any

$_ZNK9grpc_core13RefCountedPtrI24grpc_channel_credentialsE3getEv = comdat any

$_ZNKSt19_Optional_base_implIiSt14_Optional_baseIiLb1ELb1EEE13_M_is_engagedEv = comdat any

$_ZNSt19_Optional_base_implIiSt14_Optional_baseIiLb1ELb1EEE6_M_getEv = comdat any

$_ZNSt22_Optional_payload_baseIiE6_M_getEv = comdat any

$_ZNK9grpc_core10RefCountedINS_10HandshakerENS_19PolymorphicRefCountENS_11UnrefDeleteEE5UnrefEv = comdat any

$_ZNK9grpc_core11UnrefDeleteclIKNS_10HandshakerEEEvPT_ = comdat any

$_ZNK9grpc_core10RefCountedI21grpc_call_credentialsNS_19PolymorphicRefCountENS_11UnrefDeleteEE5UnrefEv = comdat any

$_ZNK9grpc_core11UnrefDeleteclIK21grpc_call_credentialsEEvPT_ = comdat any

$_ZNK9grpc_core10RefCountedI24grpc_channel_credentialsNS_19PolymorphicRefCountENS_11UnrefDeleteEE5UnrefEv = comdat any

$_ZNK9grpc_core11UnrefDeleteclIK24grpc_channel_credentialsEEvPT_ = comdat any

$_ZNK9grpc_core10RefCountedI23grpc_security_connectorNS_19PolymorphicRefCountENS_11UnrefDeleteEE5UnrefEv = comdat any

$_ZNK9grpc_core11UnrefDeleteclIK23grpc_security_connectorEEvPT_ = comdat any

$_ZN9grpc_core13RefCountedPtrI23grpc_server_credentialsEC2EOS2_ = comdat any

$_ZN9grpc_core13RefCountedPtrI23grpc_server_credentialsED2Ev = comdat any

$_ZN30grpc_server_security_connectorD2Ev = comdat any

$_ZNK30grpc_server_security_connector12server_credsEv = comdat any

$_ZNK28grpc_alts_server_credentials7optionsEv = comdat any

$_ZNK28grpc_alts_server_credentials22handshaker_service_urlEv = comdat any

$_ZNK9grpc_core13RefCountedPtrI23grpc_server_credentialsE3getEv = comdat any

$_ZNK9grpc_core10RefCountedI23grpc_server_credentialsNS_19PolymorphicRefCountENS_11UnrefDeleteEE5UnrefEv = comdat any

$_ZNK9grpc_core11UnrefDeleteclIK23grpc_server_credentialsEEvPT_ = comdat any

$_ZTVN9grpc_core8WakeableE = comdat any

$_ZTSN9grpc_core8WakeableE = comdat any

$_ZTIN9grpc_core8WakeableE = comdat any

$_ZN9grpc_core20arena_promise_detail4NullIN4absl12lts_202308026StatusEE6vtableE = comdat any

$_ZN9grpc_core20arena_promise_detail14SharedCallableIN4absl12lts_202308026StatusENS_17ImmediateOkStatusEE6vtableE = comdat any

@_ZStL8__ioinit = internal global %"class.std::ios_base::Init" zeroinitializer, align 1
@__dso_handle = external hidden global i8
@.str = private unnamed_addr constant [160 x i8] c"generated/home/dtcxzyw/WorkSpace/Projects/compilers/llvm-opt-benchmark/bench/grpc/grpc/src/core/lib/security/security_connector/alts/alts_security_connector.cc\00", align 1
@.str.1 = private unnamed_addr constant [60 x i8] c"Invalid arguments to grpc_alts_auth_context_from_tsi_peer()\00", align 1
@.str.2 = private unnamed_addr constant [17 x i8] c"certificate_type\00", align 1
@.str.3 = private unnamed_addr constant [5 x i8] c"ALTS\00", align 1
@.str.4 = private unnamed_addr constant [46 x i8] c"Invalid or missing certificate type property.\00", align 1
@.str.5 = private unnamed_addr constant [15 x i8] c"security_level\00", align 1
@.str.6 = private unnamed_addr constant [33 x i8] c"Missing security level property.\00", align 1
@.str.7 = private unnamed_addr constant [13 x i8] c"rpc_versions\00", align 1
@.str.8 = private unnamed_addr constant [40 x i8] c"Missing rpc protocol versions property.\00", align 1
@.str.9 = private unnamed_addr constant [36 x i8] c"Invalid peer rpc protocol versions.\00", align 1
@.str.10 = private unnamed_addr constant [50 x i8] c"Mismatch of local and peer rpc protocol versions.\00", align 1
@.str.11 = private unnamed_addr constant [13 x i8] c"alts_context\00", align 1
@.str.12 = private unnamed_addr constant [31 x i8] c"Missing alts context property.\00", align 1
@.str.13 = private unnamed_addr constant [24 x i8] c"transport_security_type\00", align 1
@.str.14 = private unnamed_addr constant [5 x i8] c"alts\00", align 1
@.str.15 = private unnamed_addr constant [16 x i8] c"service_account\00", align 1
@.str.16 = private unnamed_addr constant [107 x i8] c"grpc_auth_context_set_peer_identity_property_name( ctx.get(), TSI_ALTS_SERVICE_ACCOUNT_PEER_PROPERTY) == 1\00", align 1
@.str.17 = private unnamed_addr constant [30 x i8] c"Invalid unauthenticated peer.\00", align 1
@.str.18 = private unnamed_addr constant [5 x i8] c"test\00", align 1
@.str.19 = private unnamed_addr constant [67 x i8] c"Invalid arguments to grpc_alts_channel_security_connector_create()\00", align 1
@.str.20 = private unnamed_addr constant [66 x i8] c"Invalid arguments to grpc_alts_server_security_connector_create()\00", align 1
@_ZN9grpc_core19NoDestructSingletonINS_14promise_detail10UnwakeableEE6value_E = linkonce_odr global %"class.grpc_core::NoDestruct" zeroinitializer, comdat, align 8
@_ZGVN9grpc_core19NoDestructSingletonINS_14promise_detail10UnwakeableEE6value_E = linkonce_odr global i64 0, comdat($_ZN9grpc_core19NoDestructSingletonINS_14promise_detail10UnwakeableEE6value_E), align 8
@_ZTVN9grpc_core14promise_detail10UnwakeableE = external unnamed_addr constant { [6 x ptr] }, align 8
@_ZTVN9grpc_core8WakeableE = linkonce_odr unnamed_addr constant { [6 x ptr] } { [6 x ptr] [ptr null, ptr @_ZTIN9grpc_core8WakeableE, ptr @__cxa_pure_virtual, ptr @__cxa_pure_virtual, ptr @__cxa_pure_virtual, ptr @__cxa_pure_virtual] }, comdat, align 8
@_ZTVN10__cxxabiv117__class_type_infoE = external global [0 x ptr]
@_ZTSN9grpc_core8WakeableE = linkonce_odr constant [22 x i8] c"N9grpc_core8WakeableE\00", comdat, align 1
@_ZTIN9grpc_core8WakeableE = linkonce_odr constant { ptr, ptr } { ptr getelementptr inbounds (ptr, ptr @_ZTVN10__cxxabiv117__class_type_infoE, i64 2), ptr @_ZTSN9grpc_core8WakeableE }, comdat, align 8
@.str.22 = private unnamed_addr constant [136 x i8] c"generated/home/dtcxzyw/WorkSpace/Projects/compilers/llvm-opt-benchmark/bench/grpc/grpc/src/core/lib/security/context/security_context.h\00", align 1
@.str.23 = private unnamed_addr constant [8 x i8] c"chained\00", align 1
@.str.24 = private unnamed_addr constant [6 x i8] c"https\00", align 1
@_ZTVN12_GLOBAL__N_136grpc_alts_channel_security_connectorE = internal unnamed_addr constant { [10 x ptr] } { [10 x ptr] [ptr null, ptr @_ZTIN12_GLOBAL__N_136grpc_alts_channel_security_connectorE, ptr @_ZN12_GLOBAL__N_136grpc_alts_channel_security_connectorD2Ev, ptr @_ZN12_GLOBAL__N_136grpc_alts_channel_security_connectorD0Ev, ptr @_ZN12_GLOBAL__N_136grpc_alts_channel_security_connector10check_peerE8tsi_peerP13grpc_endpointRKN9grpc_core11ChannelArgsEPNS4_13RefCountedPtrI17grpc_auth_contextEEP12grpc_closure, ptr @_ZN12_GLOBAL__N_136grpc_alts_channel_security_connector17cancel_check_peerEP12grpc_closureN4absl12lts_202308026StatusE, ptr @_ZNK12_GLOBAL__N_136grpc_alts_channel_security_connector3cmpEPK23grpc_security_connector, ptr @_ZNK31grpc_channel_security_connector4typeEv, ptr @_ZN12_GLOBAL__N_136grpc_alts_channel_security_connector13CheckCallHostESt17basic_string_viewIcSt11char_traitsIcEEP17grpc_auth_context, ptr @_ZN12_GLOBAL__N_136grpc_alts_channel_security_connector15add_handshakersERKN9grpc_core11ChannelArgsEP16grpc_pollset_setPNS1_16HandshakeManagerE] }, align 8
@_ZTVN10__cxxabiv120__si_class_type_infoE = external global [0 x ptr]
@_ZTSN12_GLOBAL__N_136grpc_alts_channel_security_connectorE = internal constant [55 x i8] c"N12_GLOBAL__N_136grpc_alts_channel_security_connectorE\00", align 1
@_ZTI31grpc_channel_security_connector = external constant ptr
@_ZTIN12_GLOBAL__N_136grpc_alts_channel_security_connectorE = internal constant { ptr, ptr, ptr } { ptr getelementptr inbounds (ptr, ptr @_ZTVN10__cxxabiv120__si_class_type_infoE, i64 2), ptr @_ZTSN12_GLOBAL__N_136grpc_alts_channel_security_connectorE, ptr @_ZTI31grpc_channel_security_connector }, align 8
@_ZTV31grpc_channel_security_connector = external unnamed_addr constant { [10 x ptr] }, align 8
@.str.25 = private unnamed_addr constant [46 x i8] c"Could not get ALTS auth context from TSI peer\00", align 1
@_ZN9grpc_core20arena_promise_detail4NullIN4absl12lts_202308026StatusEE6vtableE = linkonce_odr constant %"struct.grpc_core::arena_promise_detail::Vtable" { ptr @_ZN9grpc_core20arena_promise_detail4NullIN4absl12lts_202308026StatusEE8PollOnceEPNS0_7ArgTypeE, ptr @_ZN9grpc_core20arena_promise_detail4NullIN4absl12lts_202308026StatusEE7DestroyEPNS0_7ArgTypeE }, comdat, align 8
@_ZN9grpc_core20arena_promise_detail14SharedCallableIN4absl12lts_202308026StatusENS_17ImmediateOkStatusEE6vtableE = linkonce_odr constant %"struct.grpc_core::arena_promise_detail::Vtable" { ptr @_ZN9grpc_core20arena_promise_detail14SharedCallableIN4absl12lts_202308026StatusENS_17ImmediateOkStatusEE8PollOnceEPNS0_7ArgTypeE, ptr @_ZN9grpc_core20arena_promise_detail4NullIN4absl12lts_202308026StatusEE7DestroyEPNS0_7ArgTypeE }, comdat, align 8
@.str.26 = private unnamed_addr constant [24 x i8] c"grpc.tsi.max_frame_size\00", align 1
@.str.27 = private unnamed_addr constant [173 x i8] c"alts_tsi_handshaker_create( creds->options(), target_name_, creds->handshaker_service_url(), true, interested_parties, &handshaker, user_specified_max_frame_size) == TSI_OK\00", align 1
@_ZTVN12_GLOBAL__N_135grpc_alts_server_security_connectorE = internal unnamed_addr constant { [9 x ptr] } { [9 x ptr] [ptr null, ptr @_ZTIN12_GLOBAL__N_135grpc_alts_server_security_connectorE, ptr @_ZN12_GLOBAL__N_135grpc_alts_server_security_connectorD2Ev, ptr @_ZN12_GLOBAL__N_135grpc_alts_server_security_connectorD0Ev, ptr @_ZN12_GLOBAL__N_135grpc_alts_server_security_connector10check_peerE8tsi_peerP13grpc_endpointRKN9grpc_core11ChannelArgsEPNS4_13RefCountedPtrI17grpc_auth_contextEEP12grpc_closure, ptr @_ZN12_GLOBAL__N_135grpc_alts_server_security_connector17cancel_check_peerEP12grpc_closureN4absl12lts_202308026StatusE, ptr @_ZNK12_GLOBAL__N_135grpc_alts_server_security_connector3cmpEPK23grpc_security_connector, ptr @_ZNK30grpc_server_security_connector4typeEv, ptr @_ZN12_GLOBAL__N_135grpc_alts_server_security_connector15add_handshakersERKN9grpc_core11ChannelArgsEP16grpc_pollset_setPNS1_16HandshakeManagerE] }, align 8
@_ZTSN12_GLOBAL__N_135grpc_alts_server_security_connectorE = internal constant [54 x i8] c"N12_GLOBAL__N_135grpc_alts_server_security_connectorE\00", align 1
@_ZTI30grpc_server_security_connector = external constant ptr
@_ZTIN12_GLOBAL__N_135grpc_alts_server_security_connectorE = internal constant { ptr, ptr, ptr } { ptr getelementptr inbounds (ptr, ptr @_ZTVN10__cxxabiv120__si_class_type_infoE, i64 2), ptr @_ZTSN12_GLOBAL__N_135grpc_alts_server_security_connectorE, ptr @_ZTI30grpc_server_security_connector }, align 8
@_ZTV30grpc_server_security_connector = external unnamed_addr constant { [9 x ptr] }, align 8
@.str.28 = private unnamed_addr constant [169 x i8] c"alts_tsi_handshaker_create( creds->options(), nullptr, creds->handshaker_service_url(), false, interested_parties, &handshaker, user_specified_max_frame_size) == TSI_OK\00", align 1
@llvm.global_ctors = appending global [2 x { i32, ptr, ptr }] [{ i32, ptr, ptr } { i32 65535, ptr @__cxx_global_var_init.21, ptr @_ZN9grpc_core19NoDestructSingletonINS_14promise_detail10UnwakeableEE6value_E }, { i32, ptr, ptr } { i32 65535, ptr @_GLOBAL__sub_I_alts_security_connector.cc, ptr null }]
@llvm.used = appending global [1 x ptr] [ptr @_ZN9grpc_core19NoDestructSingletonINS_14promise_detail10UnwakeableEE6value_E], section "llvm.metadata"

; Function Attrs: uwtable
define internal void @__cxx_global_var_init() #0 section ".text.startup" {
entry:
  call void @_ZNSt8ios_base4InitC1Ev(ptr noundef nonnull align 1 dereferenceable(1) @_ZStL8__ioinit)
  %0 = call i32 @__cxa_atexit(ptr @_ZNSt8ios_base4InitD1Ev, ptr @_ZStL8__ioinit, ptr @__dso_handle) #3
  ret void
}

declare void @_ZNSt8ios_base4InitC1Ev(ptr noundef nonnull align 1 dereferenceable(1)) unnamed_addr #1

; Function Attrs: nounwind
declare void @_ZNSt8ios_base4InitD1Ev(ptr noundef nonnull align 1 dereferenceable(1)) unnamed_addr #2

; Function Attrs: nounwind
declare i32 @__cxa_atexit(ptr, ptr, ptr) #3

; Function Attrs: mustprogress uwtable
define void @_Z35grpc_alts_set_rpc_protocol_versionsP29_grpc_gcp_RpcProtocolVersions(ptr noundef %rpc_versions) #4 {
entry:
  %rpc_versions.addr = alloca ptr, align 8
  store ptr %rpc_versions, ptr %rpc_versions.addr, align 8
  %0 = load ptr, ptr %rpc_versions.addr, align 8
  %call = call noundef zeroext i1 @_Z38grpc_gcp_rpc_protocol_versions_set_maxP29_grpc_gcp_RpcProtocolVersionsjj(ptr noundef %0, i32 noundef 2, i32 noundef 1)
  %1 = load ptr, ptr %rpc_versions.addr, align 8
  %call1 = call noundef zeroext i1 @_Z38grpc_gcp_rpc_protocol_versions_set_minP29_grpc_gcp_RpcProtocolVersionsjj(ptr noundef %1, i32 noundef 2, i32 noundef 1)
  ret void
}

declare noundef zeroext i1 @_Z38grpc_gcp_rpc_protocol_versions_set_maxP29_grpc_gcp_RpcProtocolVersionsjj(ptr noundef, i32 noundef, i32 noundef) #1

declare noundef zeroext i1 @_Z38grpc_gcp_rpc_protocol_versions_set_minP29_grpc_gcp_RpcProtocolVersionsjj(ptr noundef, i32 noundef, i32 noundef) #1

; Function Attrs: mustprogress uwtable
define void @_ZN9grpc_core8internal36grpc_alts_auth_context_from_tsi_peerEPK8tsi_peer(ptr noalias sret(%"class.grpc_core::RefCountedPtr") align 8 %agg.result, ptr noundef %peer) #4 personality ptr @__gxx_personality_v0 {
entry:
  %result.ptr = alloca ptr, align 8
  %peer.addr = alloca ptr, align 8
  %cert_type_prop = alloca ptr, align 8
  %security_level_prop = alloca ptr, align 8
  %rpc_versions_prop = alloca ptr, align 8
  %local_versions = alloca %struct._grpc_gcp_RpcProtocolVersions, align 4
  %peer_versions = alloca %struct._grpc_gcp_RpcProtocolVersions, align 4
  %slice = alloca %struct.grpc_slice, align 8
  %decode_result = alloca i8, align 1
  %agg.tmp = alloca %"class.grpc_core::DebugLocation", align 1
  %check_result = alloca i8, align 1
  %alts_context_prop = alloca ptr, align 8
  %ctx = alloca %"class.grpc_core::RefCountedPtr", align 8
  %ref.tmp = alloca ptr, align 8
  %exn.slot = alloca ptr, align 8
  %ehselector.slot = alloca i32, align 4
  %i = alloca i64, align 8
  %tsi_prop = alloca ptr, align 8
  %ref.tmp84 = alloca %"class.grpc_core::DebugLocation", align 1
  %cleanup.dest.slot = alloca i32, align 4
  store ptr %agg.result, ptr %result.ptr, align 8
  store ptr %peer, ptr %peer.addr, align 8
  %0 = load ptr, ptr %peer.addr, align 8
  %cmp = icmp eq ptr %0, null
  br i1 %cmp, label %if.then, label %if.end

if.then:                                          ; preds = %entry
  call void (ptr, i32, i32, ptr, ...) @gpr_log(ptr noundef @.str, i32 noundef 190, i32 noundef 2, ptr noundef @.str.1)
  call void @_ZN9grpc_core13RefCountedPtrI17grpc_auth_contextEC2EDn(ptr noundef nonnull align 8 dereferenceable(8) %agg.result, ptr null)
  br label %return

if.end:                                           ; preds = %entry
  %1 = load ptr, ptr %peer.addr, align 8
  %call = call noundef ptr @_Z29tsi_peer_get_property_by_namePK8tsi_peerPKc(ptr noundef %1, ptr noundef @.str.2)
  store ptr %call, ptr %cert_type_prop, align 8
  %2 = load ptr, ptr %cert_type_prop, align 8
  %cmp1 = icmp eq ptr %2, null
  br i1 %cmp1, label %if.then5, label %lor.lhs.false

lor.lhs.false:                                    ; preds = %if.end
  %3 = load ptr, ptr %cert_type_prop, align 8
  %value = getelementptr inbounds %struct.tsi_peer_property, ptr %3, i32 0, i32 1
  %data = getelementptr inbounds %struct.anon, ptr %value, i32 0, i32 0
  %4 = load ptr, ptr %data, align 8
  %5 = load ptr, ptr %cert_type_prop, align 8
  %value2 = getelementptr inbounds %struct.tsi_peer_property, ptr %5, i32 0, i32 1
  %length = getelementptr inbounds %struct.anon, ptr %value2, i32 0, i32 1
  %6 = load i64, ptr %length, align 8
  %call3 = call i32 @strncmp(ptr noundef %4, ptr noundef @.str.3, i64 noundef %6) #14
  %cmp4 = icmp ne i32 %call3, 0
  br i1 %cmp4, label %if.then5, label %if.end6

if.then5:                                         ; preds = %lor.lhs.false, %if.end
  call void (ptr, i32, i32, ptr, ...) @gpr_log(ptr noundef @.str, i32 noundef 200, i32 noundef 2, ptr noundef @.str.4)
  call void @_ZN9grpc_core13RefCountedPtrI17grpc_auth_contextEC2EDn(ptr noundef nonnull align 8 dereferenceable(8) %agg.result, ptr null)
  br label %return

if.end6:                                          ; preds = %lor.lhs.false
  %7 = load ptr, ptr %peer.addr, align 8
  %call7 = call noundef ptr @_Z29tsi_peer_get_property_by_namePK8tsi_peerPKc(ptr noundef %7, ptr noundef @.str.5)
  store ptr %call7, ptr %security_level_prop, align 8
  %8 = load ptr, ptr %security_level_prop, align 8
  %cmp8 = icmp eq ptr %8, null
  br i1 %cmp8, label %if.then9, label %if.end10

if.then9:                                         ; preds = %if.end6
  call void (ptr, i32, i32, ptr, ...) @gpr_log(ptr noundef @.str, i32 noundef 207, i32 noundef 2, ptr noundef @.str.6)
  call void @_ZN9grpc_core13RefCountedPtrI17grpc_auth_contextEC2EDn(ptr noundef nonnull align 8 dereferenceable(8) %agg.result, ptr null)
  br label %return

if.end10:                                         ; preds = %if.end6
  %9 = load ptr, ptr %peer.addr, align 8
  %call11 = call noundef ptr @_Z29tsi_peer_get_property_by_namePK8tsi_peerPKc(ptr noundef %9, ptr noundef @.str.7)
  store ptr %call11, ptr %rpc_versions_prop, align 8
  %10 = load ptr, ptr %rpc_versions_prop, align 8
  %cmp12 = icmp eq ptr %10, null
  br i1 %cmp12, label %if.then13, label %if.end14

if.then13:                                        ; preds = %if.end10
  call void (ptr, i32, i32, ptr, ...) @gpr_log(ptr noundef @.str, i32 noundef 214, i32 noundef 2, ptr noundef @.str.8)
  call void @_ZN9grpc_core13RefCountedPtrI17grpc_auth_contextEC2EDn(ptr noundef nonnull align 8 dereferenceable(8) %agg.result, ptr null)
  br label %return

if.end14:                                         ; preds = %if.end10
  call void @_Z35grpc_alts_set_rpc_protocol_versionsP29_grpc_gcp_RpcProtocolVersions(ptr noundef %local_versions)
  %11 = load ptr, ptr %rpc_versions_prop, align 8
  %value15 = getelementptr inbounds %struct.tsi_peer_property, ptr %11, i32 0, i32 1
  %data16 = getelementptr inbounds %struct.anon, ptr %value15, i32 0, i32 0
  %12 = load ptr, ptr %data16, align 8
  %13 = load ptr, ptr %rpc_versions_prop, align 8
  %value17 = getelementptr inbounds %struct.tsi_peer_property, ptr %13, i32 0, i32 1
  %length18 = getelementptr inbounds %struct.anon, ptr %value17, i32 0, i32 1
  %14 = load i64, ptr %length18, align 8
  call void @grpc_slice_from_copied_buffer(ptr sret(%struct.grpc_slice) align 8 %slice, ptr noundef %12, i64 noundef %14)
  %call19 = call noundef zeroext i1 @_Z37grpc_gcp_rpc_protocol_versions_decodeRK10grpc_sliceP29_grpc_gcp_RpcProtocolVersions(ptr noundef nonnull align 8 dereferenceable(32) %slice, ptr noundef %peer_versions)
  %frombool = zext i1 %call19 to i8
  store i8 %frombool, ptr %decode_result, align 1
  call void @_ZN9grpc_core13DebugLocationC2Ev(ptr noundef nonnull align 1 dereferenceable(1) %agg.tmp)
  call void @_ZN9grpc_core11CSliceUnrefERK10grpc_sliceNS_13DebugLocationE(ptr noundef nonnull align 8 dereferenceable(32) %slice)
  %15 = load i8, ptr %decode_result, align 1
  %tobool = trunc i8 %15 to i1
  br i1 %tobool, label %if.end21, label %if.then20

if.then20:                                        ; preds = %if.end14
  call void (ptr, i32, i32, ptr, ...) @gpr_log(ptr noundef @.str, i32 noundef 225, i32 noundef 2, ptr noundef @.str.9)
  call void @_ZN9grpc_core13RefCountedPtrI17grpc_auth_contextEC2EDn(ptr noundef nonnull align 8 dereferenceable(8) %agg.result, ptr null)
  br label %return

if.end21:                                         ; preds = %if.end14
  %call22 = call noundef zeroext i1 @_Z36grpc_gcp_rpc_protocol_versions_checkPK29_grpc_gcp_RpcProtocolVersionsS1_P37_grpc_gcp_RpcProtocolVersions_Version(ptr noundef %local_versions, ptr noundef %peer_versions, ptr noundef null)
  %frombool23 = zext i1 %call22 to i8
  store i8 %frombool23, ptr %check_result, align 1
  %16 = load i8, ptr %check_result, align 1
  %tobool24 = trunc i8 %16 to i1
  br i1 %tobool24, label %if.end26, label %if.then25

if.then25:                                        ; preds = %if.end21
  call void (ptr, i32, i32, ptr, ...) @gpr_log(ptr noundef @.str, i32 noundef 232, i32 noundef 2, ptr noundef @.str.10)
  call void @_ZN9grpc_core13RefCountedPtrI17grpc_auth_contextEC2EDn(ptr noundef nonnull align 8 dereferenceable(8) %agg.result, ptr null)
  br label %return

if.end26:                                         ; preds = %if.end21
  %17 = load ptr, ptr %peer.addr, align 8
  %call27 = call noundef ptr @_Z29tsi_peer_get_property_by_namePK8tsi_peerPKc(ptr noundef %17, ptr noundef @.str.11)
  store ptr %call27, ptr %alts_context_prop, align 8
  %18 = load ptr, ptr %alts_context_prop, align 8
  %cmp28 = icmp eq ptr %18, null
  br i1 %cmp28, label %if.then29, label %if.end30

if.then29:                                        ; preds = %if.end26
  call void (ptr, i32, i32, ptr, ...) @gpr_log(ptr noundef @.str, i32 noundef 239, i32 noundef 2, ptr noundef @.str.12)
  call void @_ZN9grpc_core13RefCountedPtrI17grpc_auth_contextEC2EDn(ptr noundef nonnull align 8 dereferenceable(8) %agg.result, ptr null)
  br label %return

if.end30:                                         ; preds = %if.end26
  store ptr null, ptr %ref.tmp, align 8
  call void @_ZN9grpc_core14MakeRefCountedI17grpc_auth_contextJDnEEENS_13RefCountedPtrIT_EEDpOT0_(ptr sret(%"class.grpc_core::RefCountedPtr") align 8 %ctx, ptr noundef nonnull align 8 dereferenceable(8) %ref.tmp)
  %call31 = invoke noundef ptr @_ZNK9grpc_core13RefCountedPtrI17grpc_auth_contextE3getEv(ptr noundef nonnull align 8 dereferenceable(8) %ctx)
          to label %invoke.cont unwind label %lpad

invoke.cont:                                      ; preds = %if.end30
  invoke void @grpc_auth_context_add_cstring_property(ptr noundef %call31, ptr noundef @.str.13, ptr noundef @.str.14)
          to label %invoke.cont32 unwind label %lpad

invoke.cont32:                                    ; preds = %invoke.cont
  store i64 0, ptr %i, align 8
  store i64 0, ptr %i, align 8
  br label %for.cond

for.cond:                                         ; preds = %for.inc, %invoke.cont32
  %19 = load i64, ptr %i, align 8
  %20 = load ptr, ptr %peer.addr, align 8
  %property_count = getelementptr inbounds %struct.tsi_peer, ptr %20, i32 0, i32 1
  %21 = load i64, ptr %property_count, align 8
  %cmp33 = icmp ult i64 %19, %21
  br i1 %cmp33, label %for.body, label %for.end

for.body:                                         ; preds = %for.cond
  %22 = load ptr, ptr %peer.addr, align 8
  %properties = getelementptr inbounds %struct.tsi_peer, ptr %22, i32 0, i32 0
  %23 = load ptr, ptr %properties, align 8
  %24 = load i64, ptr %i, align 8
  %arrayidx = getelementptr inbounds %struct.tsi_peer_property, ptr %23, i64 %24
  store ptr %arrayidx, ptr %tsi_prop, align 8
  %25 = load ptr, ptr %tsi_prop, align 8
  %name = getelementptr inbounds %struct.tsi_peer_property, ptr %25, i32 0, i32 0
  %26 = load ptr, ptr %name, align 8
  %call34 = call i32 @strcmp(ptr noundef %26, ptr noundef @.str.15) #14
  %cmp35 = icmp eq i32 %call34, 0
  br i1 %cmp35, label %if.then36, label %if.end52

if.then36:                                        ; preds = %for.body
  %call38 = invoke noundef ptr @_ZNK9grpc_core13RefCountedPtrI17grpc_auth_contextE3getEv(ptr noundef nonnull align 8 dereferenceable(8) %ctx)
          to label %invoke.cont37 unwind label %lpad

invoke.cont37:                                    ; preds = %if.then36
  %27 = load ptr, ptr %tsi_prop, align 8
  %value39 = getelementptr inbounds %struct.tsi_peer_property, ptr %27, i32 0, i32 1
  %data40 = getelementptr inbounds %struct.anon, ptr %value39, i32 0, i32 0
  %28 = load ptr, ptr %data40, align 8
  %29 = load ptr, ptr %tsi_prop, align 8
  %value41 = getelementptr inbounds %struct.tsi_peer_property, ptr %29, i32 0, i32 1
  %length42 = getelementptr inbounds %struct.anon, ptr %value41, i32 0, i32 1
  %30 = load i64, ptr %length42, align 8
  invoke void @grpc_auth_context_add_property(ptr noundef %call38, ptr noundef @.str.15, ptr noundef %28, i64 noundef %30)
          to label %invoke.cont43 unwind label %lpad

invoke.cont43:                                    ; preds = %invoke.cont37
  br label %do.body

do.body:                                          ; preds = %invoke.cont43
  %call45 = invoke noundef ptr @_ZNK9grpc_core13RefCountedPtrI17grpc_auth_contextE3getEv(ptr noundef nonnull align 8 dereferenceable(8) %ctx)
          to label %invoke.cont44 unwind label %lpad

invoke.cont44:                                    ; preds = %do.body
  %call47 = invoke i32 @grpc_auth_context_set_peer_identity_property_name(ptr noundef %call45, ptr noundef @.str.15)
          to label %invoke.cont46 unwind label %lpad

invoke.cont46:                                    ; preds = %invoke.cont44
  %cmp48 = icmp eq i32 %call47, 1
  %lnot = xor i1 %cmp48, true
  br i1 %lnot, label %if.then49, label %if.end51

if.then49:                                        ; preds = %invoke.cont46
  invoke void @gpr_assertion_failed(ptr noundef @.str, i32 noundef 256, ptr noundef @.str.16) #15
          to label %invoke.cont50 unwind label %lpad

invoke.cont50:                                    ; preds = %if.then49
  unreachable

lpad:                                             ; preds = %invoke.cont86, %invoke.cont85, %invoke.cont83, %if.then82, %invoke.cont77, %for.end, %invoke.cont69, %if.then68, %invoke.cont57, %if.then56, %if.then49, %invoke.cont44, %do.body, %invoke.cont37, %if.then36, %invoke.cont, %if.end30
  %31 = landingpad { ptr, i32 }
          cleanup
  %32 = extractvalue { ptr, i32 } %31, 0
  store ptr %32, ptr %exn.slot, align 8
  %33 = extractvalue { ptr, i32 } %31, 1
  store i32 %33, ptr %ehselector.slot, align 4
  call void @_ZN9grpc_core13RefCountedPtrI17grpc_auth_contextED2Ev(ptr noundef nonnull align 8 dereferenceable(8) %ctx) #3
  br label %eh.resume

if.end51:                                         ; preds = %invoke.cont46
  br label %do.cond

do.cond:                                          ; preds = %if.end51
  br label %do.end

do.end:                                           ; preds = %do.cond
  br label %if.end52

if.end52:                                         ; preds = %do.end, %for.body
  %34 = load ptr, ptr %tsi_prop, align 8
  %name53 = getelementptr inbounds %struct.tsi_peer_property, ptr %34, i32 0, i32 0
  %35 = load ptr, ptr %name53, align 8
  %call54 = call i32 @strcmp(ptr noundef %35, ptr noundef @.str.11) #14
  %cmp55 = icmp eq i32 %call54, 0
  br i1 %cmp55, label %if.then56, label %if.end64

if.then56:                                        ; preds = %if.end52
  %call58 = invoke noundef ptr @_ZNK9grpc_core13RefCountedPtrI17grpc_auth_contextE3getEv(ptr noundef nonnull align 8 dereferenceable(8) %ctx)
          to label %invoke.cont57 unwind label %lpad

invoke.cont57:                                    ; preds = %if.then56
  %36 = load ptr, ptr %tsi_prop, align 8
  %value59 = getelementptr inbounds %struct.tsi_peer_property, ptr %36, i32 0, i32 1
  %data60 = getelementptr inbounds %struct.anon, ptr %value59, i32 0, i32 0
  %37 = load ptr, ptr %data60, align 8
  %38 = load ptr, ptr %tsi_prop, align 8
  %value61 = getelementptr inbounds %struct.tsi_peer_property, ptr %38, i32 0, i32 1
  %length62 = getelementptr inbounds %struct.anon, ptr %value61, i32 0, i32 1
  %39 = load i64, ptr %length62, align 8
  invoke void @grpc_auth_context_add_property(ptr noundef %call58, ptr noundef @.str.11, ptr noundef %37, i64 noundef %39)
          to label %invoke.cont63 unwind label %lpad

invoke.cont63:                                    ; preds = %invoke.cont57
  br label %if.end64

if.end64:                                         ; preds = %invoke.cont63, %if.end52
  %40 = load ptr, ptr %tsi_prop, align 8
  %name65 = getelementptr inbounds %struct.tsi_peer_property, ptr %40, i32 0, i32 0
  %41 = load ptr, ptr %name65, align 8
  %call66 = call i32 @strcmp(ptr noundef %41, ptr noundef @.str.5) #14
  %cmp67 = icmp eq i32 %call66, 0
  br i1 %cmp67, label %if.then68, label %if.end76

if.then68:                                        ; preds = %if.end64
  %call70 = invoke noundef ptr @_ZNK9grpc_core13RefCountedPtrI17grpc_auth_contextE3getEv(ptr noundef nonnull align 8 dereferenceable(8) %ctx)
          to label %invoke.cont69 unwind label %lpad

invoke.cont69:                                    ; preds = %if.then68
  %42 = load ptr, ptr %tsi_prop, align 8
  %value71 = getelementptr inbounds %struct.tsi_peer_property, ptr %42, i32 0, i32 1
  %data72 = getelementptr inbounds %struct.anon, ptr %value71, i32 0, i32 0
  %43 = load ptr, ptr %data72, align 8
  %44 = load ptr, ptr %tsi_prop, align 8
  %value73 = getelementptr inbounds %struct.tsi_peer_property, ptr %44, i32 0, i32 1
  %length74 = getelementptr inbounds %struct.anon, ptr %value73, i32 0, i32 1
  %45 = load i64, ptr %length74, align 8
  invoke void @grpc_auth_context_add_property(ptr noundef %call70, ptr noundef @.str.5, ptr noundef %43, i64 noundef %45)
          to label %invoke.cont75 unwind label %lpad

invoke.cont75:                                    ; preds = %invoke.cont69
  br label %if.end76

if.end76:                                         ; preds = %invoke.cont75, %if.end64
  br label %for.inc

for.inc:                                          ; preds = %if.end76
  %46 = load i64, ptr %i, align 8
  %inc = add i64 %46, 1
  store i64 %inc, ptr %i, align 8
  br label %for.cond, !llvm.loop !4

for.end:                                          ; preds = %for.cond
  %call78 = invoke noundef ptr @_ZNK9grpc_core13RefCountedPtrI17grpc_auth_contextE3getEv(ptr noundef nonnull align 8 dereferenceable(8) %ctx)
          to label %invoke.cont77 unwind label %lpad

invoke.cont77:                                    ; preds = %for.end
  %call80 = invoke i32 @grpc_auth_context_peer_is_authenticated(ptr noundef %call78)
          to label %invoke.cont79 unwind label %lpad

invoke.cont79:                                    ; preds = %invoke.cont77
  %tobool81 = icmp ne i32 %call80, 0
  br i1 %tobool81, label %if.end88, label %if.then82

if.then82:                                        ; preds = %invoke.cont79
  invoke void (ptr, i32, i32, ptr, ...) @gpr_log(ptr noundef @.str, i32 noundef 272, i32 noundef 2, ptr noundef @.str.17)
          to label %invoke.cont83 unwind label %lpad

invoke.cont83:                                    ; preds = %if.then82
  invoke void @_ZN9grpc_core13DebugLocationC2EPKci(ptr noundef nonnull align 1 dereferenceable(1) %ref.tmp84, ptr noundef @.str, i32 noundef 273)
          to label %invoke.cont85 unwind label %lpad

invoke.cont85:                                    ; preds = %invoke.cont83
  invoke void @_ZN9grpc_core13RefCountedPtrI17grpc_auth_contextE5resetERKNS_13DebugLocationEPKcPS1_(ptr noundef nonnull align 8 dereferenceable(8) %ctx, ptr noundef nonnull align 1 dereferenceable(1) %ref.tmp84, ptr noundef @.str.18, ptr noundef null)
          to label %invoke.cont86 unwind label %lpad

invoke.cont86:                                    ; preds = %invoke.cont85
  invoke void @_ZN9grpc_core13RefCountedPtrI17grpc_auth_contextEC2EDn(ptr noundef nonnull align 8 dereferenceable(8) %agg.result, ptr null)
          to label %invoke.cont87 unwind label %lpad

invoke.cont87:                                    ; preds = %invoke.cont86
  store i32 1, ptr %cleanup.dest.slot, align 4
  br label %cleanup

if.end88:                                         ; preds = %invoke.cont79
  call void @_ZN9grpc_core13RefCountedPtrI17grpc_auth_contextEC2EOS2_(ptr noundef nonnull align 8 dereferenceable(8) %agg.result, ptr noundef nonnull align 8 dereferenceable(8) %ctx) #3
  store i32 1, ptr %cleanup.dest.slot, align 4
  br label %cleanup

cleanup:                                          ; preds = %if.end88, %invoke.cont87
  call void @_ZN9grpc_core13RefCountedPtrI17grpc_auth_contextED2Ev(ptr noundef nonnull align 8 dereferenceable(8) %ctx) #3
  br label %return

return:                                           ; preds = %cleanup, %if.then29, %if.then25, %if.then20, %if.then13, %if.then9, %if.then5, %if.then
  ret void

eh.resume:                                        ; preds = %lpad
  %exn = load ptr, ptr %exn.slot, align 8
  %sel = load i32, ptr %ehselector.slot, align 4
  %lpad.val = insertvalue { ptr, i32 } poison, ptr %exn, 0
  %lpad.val89 = insertvalue { ptr, i32 } %lpad.val, i32 %sel, 1
  resume { ptr, i32 } %lpad.val89
}

declare void @gpr_log(ptr noundef, i32 noundef, i32 noundef, ptr noundef, ...) #1

; Function Attrs: mustprogress nounwind uwtable
define linkonce_odr void @_ZN9grpc_core13RefCountedPtrI17grpc_auth_contextEC2EDn(ptr noundef nonnull align 8 dereferenceable(8) %this, ptr %0) unnamed_addr #5 comdat align 2 {
entry:
  %this.addr = alloca ptr, align 8
  %.addr = alloca ptr, align 8
  store ptr %this, ptr %this.addr, align 8
  store ptr %0, ptr %.addr, align 8
  %this1 = load ptr, ptr %this.addr, align 8
  %value_ = getelementptr inbounds %"class.grpc_core::RefCountedPtr", ptr %this1, i32 0, i32 0
  store ptr null, ptr %value_, align 8
  ret void
}

declare noundef ptr @_Z29tsi_peer_get_property_by_namePK8tsi_peerPKc(ptr noundef, ptr noundef) #1

; Function Attrs: nounwind willreturn memory(read)
declare i32 @strncmp(ptr noundef, ptr noundef, i64 noundef) #6

declare void @grpc_slice_from_copied_buffer(ptr sret(%struct.grpc_slice) align 8, ptr noundef, i64 noundef) #1

declare noundef zeroext i1 @_Z37grpc_gcp_rpc_protocol_versions_decodeRK10grpc_sliceP29_grpc_gcp_RpcProtocolVersions(ptr noundef nonnull align 8 dereferenceable(32), ptr noundef) #1

; Function Attrs: mustprogress uwtable
define linkonce_odr void @_ZN9grpc_core11CSliceUnrefERK10grpc_sliceNS_13DebugLocationE(ptr noundef nonnull align 8 dereferenceable(32) %slice) #4 comdat {
entry:
  %slice.addr = alloca ptr, align 8
  store ptr %slice, ptr %slice.addr, align 8
  %0 = load ptr, ptr %slice.addr, align 8
  %refcount = getelementptr inbounds %struct.grpc_slice, ptr %0, i32 0, i32 0
  %1 = load ptr, ptr %refcount, align 8
  %2 = ptrtoint ptr %1 to i64
  %cmp = icmp ugt i64 %2, 1
  br i1 %cmp, label %if.then, label %if.end

if.then:                                          ; preds = %entry
  %3 = load ptr, ptr %slice.addr, align 8
  %refcount1 = getelementptr inbounds %struct.grpc_slice, ptr %3, i32 0, i32 0
  %4 = load ptr, ptr %refcount1, align 8
  call void @_ZN19grpc_slice_refcount5UnrefEN9grpc_core13DebugLocationE(ptr noundef nonnull align 8 dereferenceable(16) %4)
  br label %if.end

if.end:                                           ; preds = %if.then, %entry
  ret void
}

; Function Attrs: mustprogress nounwind uwtable
define linkonce_odr void @_ZN9grpc_core13DebugLocationC2Ev(ptr noundef nonnull align 1 dereferenceable(1) %this) unnamed_addr #5 comdat align 2 {
entry:
  %this.addr = alloca ptr, align 8
  store ptr %this, ptr %this.addr, align 8
  ret void
}

declare noundef zeroext i1 @_Z36grpc_gcp_rpc_protocol_versions_checkPK29_grpc_gcp_RpcProtocolVersionsS1_P37_grpc_gcp_RpcProtocolVersions_Version(ptr noundef, ptr noundef, ptr noundef) #1

; Function Attrs: mustprogress uwtable
define linkonce_odr void @_ZN9grpc_core14MakeRefCountedI17grpc_auth_contextJDnEEENS_13RefCountedPtrIT_EEDpOT0_(ptr noalias sret(%"class.grpc_core::RefCountedPtr") align 8 %agg.result, ptr noundef nonnull align 8 dereferenceable(8) %args) #4 comdat personality ptr @__gxx_personality_v0 {
entry:
  %result.ptr = alloca ptr, align 8
  %args.addr = alloca ptr, align 8
  %agg.tmp = alloca %"class.grpc_core::RefCountedPtr", align 8
  %exn.slot = alloca ptr, align 8
  %ehselector.slot = alloca i32, align 4
  %cleanup.isactive = alloca i1, align 1
  store ptr %agg.result, ptr %result.ptr, align 8
  store ptr %args, ptr %args.addr, align 8
  %call = call noalias noundef nonnull ptr @_Znwm(i64 noundef 56) #16
  store i1 true, ptr %cleanup.isactive, align 1
  invoke void @_ZN9grpc_core13RefCountedPtrI17grpc_auth_contextEC2EDn(ptr noundef nonnull align 8 dereferenceable(8) %agg.tmp, ptr null)
          to label %invoke.cont unwind label %lpad

invoke.cont:                                      ; preds = %entry
  invoke void @_ZN17grpc_auth_contextC2EN9grpc_core13RefCountedPtrIS_EE(ptr noundef nonnull align 8 dereferenceable(56) %call, ptr noundef %agg.tmp)
          to label %invoke.cont2 unwind label %lpad1

invoke.cont2:                                     ; preds = %invoke.cont
  store i1 false, ptr %cleanup.isactive, align 1
  invoke void @_ZN9grpc_core13RefCountedPtrI17grpc_auth_contextEC2IS1_EEPT_(ptr noundef nonnull align 8 dereferenceable(8) %agg.result, ptr noundef %call)
          to label %invoke.cont3 unwind label %lpad1

invoke.cont3:                                     ; preds = %invoke.cont2
  call void @_ZN9grpc_core13RefCountedPtrI17grpc_auth_contextED2Ev(ptr noundef nonnull align 8 dereferenceable(8) %agg.tmp) #3
  ret void

lpad:                                             ; preds = %entry
  %0 = landingpad { ptr, i32 }
          cleanup
  %1 = extractvalue { ptr, i32 } %0, 0
  store ptr %1, ptr %exn.slot, align 8
  %2 = extractvalue { ptr, i32 } %0, 1
  store i32 %2, ptr %ehselector.slot, align 4
  br label %ehcleanup

lpad1:                                            ; preds = %invoke.cont2, %invoke.cont
  %3 = landingpad { ptr, i32 }
          cleanup
  %4 = extractvalue { ptr, i32 } %3, 0
  store ptr %4, ptr %exn.slot, align 8
  %5 = extractvalue { ptr, i32 } %3, 1
  store i32 %5, ptr %ehselector.slot, align 4
  call void @_ZN9grpc_core13RefCountedPtrI17grpc_auth_contextED2Ev(ptr noundef nonnull align 8 dereferenceable(8) %agg.tmp) #3
  br label %ehcleanup

ehcleanup:                                        ; preds = %lpad1, %lpad
  %cleanup.is_active = load i1, ptr %cleanup.isactive, align 1
  br i1 %cleanup.is_active, label %cleanup.action, label %cleanup.done

cleanup.action:                                   ; preds = %ehcleanup
  call void @_ZdlPv(ptr noundef %call) #17
  br label %cleanup.done

cleanup.done:                                     ; preds = %cleanup.action, %ehcleanup
  br label %eh.resume

eh.resume:                                        ; preds = %cleanup.done
  %exn = load ptr, ptr %exn.slot, align 8
  %sel = load i32, ptr %ehselector.slot, align 4
  %lpad.val = insertvalue { ptr, i32 } poison, ptr %exn, 0
  %lpad.val4 = insertvalue { ptr, i32 } %lpad.val, i32 %sel, 1
  resume { ptr, i32 } %lpad.val4
}

declare void @grpc_auth_context_add_cstring_property(ptr noundef, ptr noundef, ptr noundef) #1

; Function Attrs: mustprogress nounwind uwtable
define linkonce_odr noundef ptr @_ZNK9grpc_core13RefCountedPtrI17grpc_auth_contextE3getEv(ptr noundef nonnull align 8 dereferenceable(8) %this) #5 comdat align 2 {
entry:
  %this.addr = alloca ptr, align 8
  store ptr %this, ptr %this.addr, align 8
  %this1 = load ptr, ptr %this.addr, align 8
  %value_ = getelementptr inbounds %"class.grpc_core::RefCountedPtr", ptr %this1, i32 0, i32 0
  %0 = load ptr, ptr %value_, align 8
  ret ptr %0
}

declare i32 @__gxx_personality_v0(...)

; Function Attrs: nounwind willreturn memory(read)
declare i32 @strcmp(ptr noundef, ptr noundef) #6

declare void @grpc_auth_context_add_property(ptr noundef, ptr noundef, ptr noundef, i64 noundef) #1

declare i32 @grpc_auth_context_set_peer_identity_property_name(ptr noundef, ptr noundef) #1

; Function Attrs: noreturn
declare void @gpr_assertion_failed(ptr noundef, i32 noundef, ptr noundef) #7

declare i32 @grpc_auth_context_peer_is_authenticated(ptr noundef) #1

; Function Attrs: mustprogress uwtable
define linkonce_odr void @_ZN9grpc_core13RefCountedPtrI17grpc_auth_contextE5resetERKNS_13DebugLocationEPKcPS1_(ptr noundef nonnull align 8 dereferenceable(8) %this, ptr noundef nonnull align 1 dereferenceable(1) %location, ptr noundef %reason, ptr noundef %value) #4 comdat align 2 {
entry:
  %this.addr = alloca ptr, align 8
  %location.addr = alloca ptr, align 8
  %reason.addr = alloca ptr, align 8
  %value.addr = alloca ptr, align 8
  %old_value = alloca ptr, align 8
  store ptr %this, ptr %this.addr, align 8
  store ptr %location, ptr %location.addr, align 8
  store ptr %reason, ptr %reason.addr, align 8
  store ptr %value, ptr %value.addr, align 8
  %this1 = load ptr, ptr %this.addr, align 8
  %value_ = getelementptr inbounds %"class.grpc_core::RefCountedPtr", ptr %this1, i32 0, i32 0
  %call = call noundef ptr @_ZSt8exchangeIP17grpc_auth_contextRS1_ET_RS3_OT0_(ptr noundef nonnull align 8 dereferenceable(8) %value_, ptr noundef nonnull align 8 dereferenceable(8) %value.addr) #3
  store ptr %call, ptr %old_value, align 8
  %0 = load ptr, ptr %old_value, align 8
  %cmp = icmp ne ptr %0, null
  br i1 %cmp, label %if.then, label %if.end

if.then:                                          ; preds = %entry
  %1 = load ptr, ptr %old_value, align 8
  %2 = load ptr, ptr %location.addr, align 8
  %3 = load ptr, ptr %reason.addr, align 8
  call void @_ZNK9grpc_core10RefCountedI17grpc_auth_contextNS_22NonPolymorphicRefCountENS_11UnrefDeleteEE5UnrefERKNS_13DebugLocationEPKc(ptr noundef nonnull align 8 dereferenceable(8) %1, ptr noundef nonnull align 1 dereferenceable(1) %2, ptr noundef %3)
  br label %if.end

if.end:                                           ; preds = %if.then, %entry
  ret void
}

; Function Attrs: mustprogress nounwind uwtable
define linkonce_odr void @_ZN9grpc_core13DebugLocationC2EPKci(ptr noundef nonnull align 1 dereferenceable(1) %this, ptr noundef %0, i32 noundef %1) unnamed_addr #5 comdat align 2 {
entry:
  %this.addr = alloca ptr, align 8
  %.addr = alloca ptr, align 8
  %.addr1 = alloca i32, align 4
  store ptr %this, ptr %this.addr, align 8
  store ptr %0, ptr %.addr, align 8
  store i32 %1, ptr %.addr1, align 4
  ret void
}

; Function Attrs: mustprogress nounwind uwtable
define linkonce_odr void @_ZN9grpc_core13RefCountedPtrI17grpc_auth_contextEC2EOS2_(ptr noundef nonnull align 8 dereferenceable(8) %this, ptr noundef nonnull align 8 dereferenceable(8) %other) unnamed_addr #5 comdat align 2 {
entry:
  %this.addr = alloca ptr, align 8
  %other.addr = alloca ptr, align 8
  store ptr %this, ptr %this.addr, align 8
  store ptr %other, ptr %other.addr, align 8
  %this1 = load ptr, ptr %this.addr, align 8
  %value_ = getelementptr inbounds %"class.grpc_core::RefCountedPtr", ptr %this1, i32 0, i32 0
  store ptr null, ptr %value_, align 8
  %0 = load ptr, ptr %other.addr, align 8
  %value_2 = getelementptr inbounds %"class.grpc_core::RefCountedPtr", ptr %0, i32 0, i32 0
  %1 = load ptr, ptr %value_2, align 8
  %value_3 = getelementptr inbounds %"class.grpc_core::RefCountedPtr", ptr %this1, i32 0, i32 0
  store ptr %1, ptr %value_3, align 8
  %2 = load ptr, ptr %other.addr, align 8
  %value_4 = getelementptr inbounds %"class.grpc_core::RefCountedPtr", ptr %2, i32 0, i32 0
  store ptr null, ptr %value_4, align 8
  ret void
}

; Function Attrs: mustprogress nounwind uwtable
define linkonce_odr void @_ZN9grpc_core13RefCountedPtrI17grpc_auth_contextED2Ev(ptr noundef nonnull align 8 dereferenceable(8) %this) unnamed_addr #5 comdat align 2 personality ptr @__gxx_personality_v0 {
entry:
  %this.addr = alloca ptr, align 8
  store ptr %this, ptr %this.addr, align 8
  %this1 = load ptr, ptr %this.addr, align 8
  %value_ = getelementptr inbounds %"class.grpc_core::RefCountedPtr", ptr %this1, i32 0, i32 0
  %0 = load ptr, ptr %value_, align 8
  %cmp = icmp ne ptr %0, null
  br i1 %cmp, label %if.then, label %if.end

if.then:                                          ; preds = %entry
  %value_2 = getelementptr inbounds %"class.grpc_core::RefCountedPtr", ptr %this1, i32 0, i32 0
  %1 = load ptr, ptr %value_2, align 8
  invoke void @_ZNK9grpc_core10RefCountedI17grpc_auth_contextNS_22NonPolymorphicRefCountENS_11UnrefDeleteEE5UnrefEv(ptr noundef nonnull align 8 dereferenceable(8) %1)
          to label %invoke.cont unwind label %terminate.lpad

invoke.cont:                                      ; preds = %if.then
  br label %if.end

if.end:                                           ; preds = %invoke.cont, %entry
  ret void

terminate.lpad:                                   ; preds = %if.then
  %2 = landingpad { ptr, i32 }
          catch ptr null
  %3 = extractvalue { ptr, i32 } %2, 0
  call void @__clang_call_terminate(ptr %3) #18
  unreachable
}

; Function Attrs: mustprogress uwtable
define void @_Z43grpc_alts_channel_security_connector_createN9grpc_core13RefCountedPtrI24grpc_channel_credentialsEENS0_I21grpc_call_credentialsEEPKc(ptr noalias sret(%"class.grpc_core::RefCountedPtr.0") align 8 %agg.result, ptr noundef %channel_creds, ptr noundef %request_metadata_creds, ptr noundef %target_name) #4 {
entry:
  %result.ptr = alloca ptr, align 8
  %channel_creds.indirect_addr = alloca ptr, align 8
  %request_metadata_creds.indirect_addr = alloca ptr, align 8
  %target_name.addr = alloca ptr, align 8
  %ref.tmp = alloca %"class.grpc_core::RefCountedPtr.3", align 8
  store ptr %agg.result, ptr %result.ptr, align 8
  store ptr %channel_creds, ptr %channel_creds.indirect_addr, align 8
  store ptr %request_metadata_creds, ptr %request_metadata_creds.indirect_addr, align 8
  store ptr %target_name, ptr %target_name.addr, align 8
  %call = call noundef zeroext i1 @_ZNK9grpc_core13RefCountedPtrI24grpc_channel_credentialsEeqEDn(ptr noundef nonnull align 8 dereferenceable(8) %channel_creds, ptr null)
  br i1 %call, label %if.then, label %lor.lhs.false

lor.lhs.false:                                    ; preds = %entry
  %0 = load ptr, ptr %target_name.addr, align 8
  %cmp = icmp eq ptr %0, null
  br i1 %cmp, label %if.then, label %if.end

if.then:                                          ; preds = %lor.lhs.false, %entry
  call void (ptr, i32, i32, ptr, ...) @gpr_log(ptr noundef @.str, i32 noundef 289, i32 noundef 2, ptr noundef @.str.19)
  call void @_ZN9grpc_core13RefCountedPtrI31grpc_channel_security_connectorEC2EDn(ptr noundef nonnull align 8 dereferenceable(8) %agg.result, ptr null)
  br label %return

if.end:                                           ; preds = %lor.lhs.false
  call void @_ZN9grpc_core14MakeRefCountedIN12_GLOBAL__N_136grpc_alts_channel_security_connectorEJNS_13RefCountedPtrI24grpc_channel_credentialsEENS3_I21grpc_call_credentialsEERPKcEEENS3_IT_EEDpOT0_(ptr sret(%"class.grpc_core::RefCountedPtr.3") align 8 %ref.tmp, ptr noundef nonnull align 8 dereferenceable(8) %channel_creds, ptr noundef nonnull align 8 dereferenceable(8) %request_metadata_creds, ptr noundef nonnull align 8 dereferenceable(8) %target_name.addr)
  call void @_ZN9grpc_core13RefCountedPtrI31grpc_channel_security_connectorEC2IN12_GLOBAL__N_136grpc_alts_channel_security_connectorEEEONS0_IT_EE(ptr noundef nonnull align 8 dereferenceable(8) %agg.result, ptr noundef nonnull align 8 dereferenceable(8) %ref.tmp) #3
  call void @_ZN9grpc_core13RefCountedPtrIN12_GLOBAL__N_136grpc_alts_channel_security_connectorEED2Ev(ptr noundef nonnull align 8 dereferenceable(8) %ref.tmp) #3
  br label %return

return:                                           ; preds = %if.end, %if.then
  ret void
}

; Function Attrs: mustprogress nounwind uwtable
define linkonce_odr noundef zeroext i1 @_ZNK9grpc_core13RefCountedPtrI24grpc_channel_credentialsEeqEDn(ptr noundef nonnull align 8 dereferenceable(8) %this, ptr %0) #5 comdat align 2 {
entry:
  %this.addr = alloca ptr, align 8
  %.addr = alloca ptr, align 8
  store ptr %this, ptr %this.addr, align 8
  store ptr %0, ptr %.addr, align 8
  %this1 = load ptr, ptr %this.addr, align 8
  %value_ = getelementptr inbounds %"class.grpc_core::RefCountedPtr.1", ptr %this1, i32 0, i32 0
  %1 = load ptr, ptr %value_, align 8
  %cmp = icmp eq ptr %1, null
  ret i1 %cmp
}

; Function Attrs: mustprogress nounwind uwtable
define linkonce_odr void @_ZN9grpc_core13RefCountedPtrI31grpc_channel_security_connectorEC2EDn(ptr noundef nonnull align 8 dereferenceable(8) %this, ptr %0) unnamed_addr #5 comdat align 2 {
entry:
  %this.addr = alloca ptr, align 8
  %.addr = alloca ptr, align 8
  store ptr %this, ptr %this.addr, align 8
  store ptr %0, ptr %.addr, align 8
  %this1 = load ptr, ptr %this.addr, align 8
  %value_ = getelementptr inbounds %"class.grpc_core::RefCountedPtr.0", ptr %this1, i32 0, i32 0
  store ptr null, ptr %value_, align 8
  ret void
}

; Function Attrs: mustprogress uwtable
define internal void @_ZN9grpc_core14MakeRefCountedIN12_GLOBAL__N_136grpc_alts_channel_security_connectorEJNS_13RefCountedPtrI24grpc_channel_credentialsEENS3_I21grpc_call_credentialsEERPKcEEENS3_IT_EEDpOT0_(ptr noalias sret(%"class.grpc_core::RefCountedPtr.3") align 8 %agg.result, ptr noundef nonnull align 8 dereferenceable(8) %args, ptr noundef nonnull align 8 dereferenceable(8) %args1, ptr noundef nonnull align 8 dereferenceable(8) %args3) #4 personality ptr @__gxx_personality_v0 {
entry:
  %result.ptr = alloca ptr, align 8
  %args.addr = alloca ptr, align 8
  %args.addr2 = alloca ptr, align 8
  %args.addr4 = alloca ptr, align 8
  %agg.tmp = alloca %"class.grpc_core::RefCountedPtr.1", align 8
  %agg.tmp5 = alloca %"class.grpc_core::RefCountedPtr.2", align 8
  %exn.slot = alloca ptr, align 8
  %ehselector.slot = alloca i32, align 4
  %cleanup.isactive = alloca i1, align 1
  store ptr %agg.result, ptr %result.ptr, align 8
  store ptr %args, ptr %args.addr, align 8
  store ptr %args1, ptr %args.addr2, align 8
  store ptr %args3, ptr %args.addr4, align 8
  %call = call noalias noundef nonnull ptr @_Znwm(i64 noundef 64) #16
  store i1 true, ptr %cleanup.isactive, align 1
  %0 = load ptr, ptr %args.addr, align 8
  call void @_ZN9grpc_core13RefCountedPtrI24grpc_channel_credentialsEC2EOS2_(ptr noundef nonnull align 8 dereferenceable(8) %agg.tmp, ptr noundef nonnull align 8 dereferenceable(8) %0) #3
  %1 = load ptr, ptr %args.addr2, align 8
  call void @_ZN9grpc_core13RefCountedPtrI21grpc_call_credentialsEC2EOS2_(ptr noundef nonnull align 8 dereferenceable(8) %agg.tmp5, ptr noundef nonnull align 8 dereferenceable(8) %1) #3
  %2 = load ptr, ptr %args.addr4, align 8
  %3 = load ptr, ptr %2, align 8
  invoke void @_ZN12_GLOBAL__N_136grpc_alts_channel_security_connectorC2EN9grpc_core13RefCountedPtrI24grpc_channel_credentialsEENS2_I21grpc_call_credentialsEEPKc(ptr noundef nonnull align 8 dereferenceable(64) %call, ptr noundef %agg.tmp, ptr noundef %agg.tmp5, ptr noundef %3)
          to label %invoke.cont unwind label %lpad

invoke.cont:                                      ; preds = %entry
  store i1 false, ptr %cleanup.isactive, align 1
  invoke void @_ZN9grpc_core13RefCountedPtrIN12_GLOBAL__N_136grpc_alts_channel_security_connectorEEC2IS2_EEPT_(ptr noundef nonnull align 8 dereferenceable(8) %agg.result, ptr noundef %call)
          to label %invoke.cont6 unwind label %lpad

invoke.cont6:                                     ; preds = %invoke.cont
  call void @_ZN9grpc_core13RefCountedPtrI21grpc_call_credentialsED2Ev(ptr noundef nonnull align 8 dereferenceable(8) %agg.tmp5) #3
  call void @_ZN9grpc_core13RefCountedPtrI24grpc_channel_credentialsED2Ev(ptr noundef nonnull align 8 dereferenceable(8) %agg.tmp) #3
  ret void

lpad:                                             ; preds = %invoke.cont, %entry
  %4 = landingpad { ptr, i32 }
          cleanup
  %5 = extractvalue { ptr, i32 } %4, 0
  store ptr %5, ptr %exn.slot, align 8
  %6 = extractvalue { ptr, i32 } %4, 1
  store i32 %6, ptr %ehselector.slot, align 4
  call void @_ZN9grpc_core13RefCountedPtrI21grpc_call_credentialsED2Ev(ptr noundef nonnull align 8 dereferenceable(8) %agg.tmp5) #3
  call void @_ZN9grpc_core13RefCountedPtrI24grpc_channel_credentialsED2Ev(ptr noundef nonnull align 8 dereferenceable(8) %agg.tmp) #3
  %cleanup.is_active = load i1, ptr %cleanup.isactive, align 1
  br i1 %cleanup.is_active, label %cleanup.action, label %cleanup.done

cleanup.action:                                   ; preds = %lpad
  call void @_ZdlPv(ptr noundef %call) #17
  br label %cleanup.done

cleanup.done:                                     ; preds = %cleanup.action, %lpad
  br label %eh.resume

eh.resume:                                        ; preds = %cleanup.done
  %exn = load ptr, ptr %exn.slot, align 8
  %sel = load i32, ptr %ehselector.slot, align 4
  %lpad.val = insertvalue { ptr, i32 } poison, ptr %exn, 0
  %lpad.val7 = insertvalue { ptr, i32 } %lpad.val, i32 %sel, 1
  resume { ptr, i32 } %lpad.val7
}

; Function Attrs: mustprogress nounwind uwtable
define internal void @_ZN9grpc_core13RefCountedPtrI31grpc_channel_security_connectorEC2IN12_GLOBAL__N_136grpc_alts_channel_security_connectorEEEONS0_IT_EE(ptr noundef nonnull align 8 dereferenceable(8) %this, ptr noundef nonnull align 8 dereferenceable(8) %other) unnamed_addr #5 align 2 {
entry:
  %this.addr = alloca ptr, align 8
  %other.addr = alloca ptr, align 8
  store ptr %this, ptr %this.addr, align 8
  store ptr %other, ptr %other.addr, align 8
  %this1 = load ptr, ptr %this.addr, align 8
  %value_ = getelementptr inbounds %"class.grpc_core::RefCountedPtr.0", ptr %this1, i32 0, i32 0
  store ptr null, ptr %value_, align 8
  %0 = load ptr, ptr %other.addr, align 8
  %value_2 = getelementptr inbounds %"class.grpc_core::RefCountedPtr.3", ptr %0, i32 0, i32 0
  %1 = load ptr, ptr %value_2, align 8
  %value_3 = getelementptr inbounds %"class.grpc_core::RefCountedPtr.0", ptr %this1, i32 0, i32 0
  store ptr %1, ptr %value_3, align 8
  %2 = load ptr, ptr %other.addr, align 8
  %value_4 = getelementptr inbounds %"class.grpc_core::RefCountedPtr.3", ptr %2, i32 0, i32 0
  store ptr null, ptr %value_4, align 8
  ret void
}

; Function Attrs: mustprogress nounwind uwtable
define internal void @_ZN9grpc_core13RefCountedPtrIN12_GLOBAL__N_136grpc_alts_channel_security_connectorEED2Ev(ptr noundef nonnull align 8 dereferenceable(8) %this) unnamed_addr #5 align 2 personality ptr @__gxx_personality_v0 {
entry:
  %this.addr = alloca ptr, align 8
  store ptr %this, ptr %this.addr, align 8
  %this1 = load ptr, ptr %this.addr, align 8
  %value_ = getelementptr inbounds %"class.grpc_core::RefCountedPtr.3", ptr %this1, i32 0, i32 0
  %0 = load ptr, ptr %value_, align 8
  %cmp = icmp ne ptr %0, null
  br i1 %cmp, label %if.then, label %if.end

if.then:                                          ; preds = %entry
  %value_2 = getelementptr inbounds %"class.grpc_core::RefCountedPtr.3", ptr %this1, i32 0, i32 0
  %1 = load ptr, ptr %value_2, align 8
  invoke void @_ZNK9grpc_core10RefCountedI23grpc_security_connectorNS_19PolymorphicRefCountENS_11UnrefDeleteEE5UnrefEv(ptr noundef nonnull align 8 dereferenceable(16) %1)
          to label %invoke.cont unwind label %terminate.lpad

invoke.cont:                                      ; preds = %if.then
  br label %if.end

if.end:                                           ; preds = %invoke.cont, %entry
  ret void

terminate.lpad:                                   ; preds = %if.then
  %2 = landingpad { ptr, i32 }
          catch ptr null
  %3 = extractvalue { ptr, i32 } %2, 0
  call void @__clang_call_terminate(ptr %3) #18
  unreachable
}

; Function Attrs: mustprogress uwtable
define void @_Z42grpc_alts_server_security_connector_createN9grpc_core13RefCountedPtrI23grpc_server_credentialsEE(ptr noalias sret(%"class.grpc_core::RefCountedPtr.4") align 8 %agg.result, ptr noundef %server_creds) #4 {
entry:
  %result.ptr = alloca ptr, align 8
  %server_creds.indirect_addr = alloca ptr, align 8
  %ref.tmp = alloca %"class.grpc_core::RefCountedPtr.6", align 8
  store ptr %agg.result, ptr %result.ptr, align 8
  store ptr %server_creds, ptr %server_creds.indirect_addr, align 8
  %call = call noundef zeroext i1 @_ZNK9grpc_core13RefCountedPtrI23grpc_server_credentialsEeqEDn(ptr noundef nonnull align 8 dereferenceable(8) %server_creds, ptr null)
  br i1 %call, label %if.then, label %if.end

if.then:                                          ; preds = %entry
  call void (ptr, i32, i32, ptr, ...) @gpr_log(ptr noundef @.str, i32 noundef 302, i32 noundef 2, ptr noundef @.str.20)
  call void @_ZN9grpc_core13RefCountedPtrI30grpc_server_security_connectorEC2EDn(ptr noundef nonnull align 8 dereferenceable(8) %agg.result, ptr null)
  br label %return

if.end:                                           ; preds = %entry
  call void @_ZN9grpc_core14MakeRefCountedIN12_GLOBAL__N_135grpc_alts_server_security_connectorEJNS_13RefCountedPtrI23grpc_server_credentialsEEEEENS3_IT_EEDpOT0_(ptr sret(%"class.grpc_core::RefCountedPtr.6") align 8 %ref.tmp, ptr noundef nonnull align 8 dereferenceable(8) %server_creds)
  call void @_ZN9grpc_core13RefCountedPtrI30grpc_server_security_connectorEC2IN12_GLOBAL__N_135grpc_alts_server_security_connectorEEEONS0_IT_EE(ptr noundef nonnull align 8 dereferenceable(8) %agg.result, ptr noundef nonnull align 8 dereferenceable(8) %ref.tmp) #3
  call void @_ZN9grpc_core13RefCountedPtrIN12_GLOBAL__N_135grpc_alts_server_security_connectorEED2Ev(ptr noundef nonnull align 8 dereferenceable(8) %ref.tmp) #3
  br label %return

return:                                           ; preds = %if.end, %if.then
  ret void
}

; Function Attrs: mustprogress nounwind uwtable
define linkonce_odr noundef zeroext i1 @_ZNK9grpc_core13RefCountedPtrI23grpc_server_credentialsEeqEDn(ptr noundef nonnull align 8 dereferenceable(8) %this, ptr %0) #5 comdat align 2 {
entry:
  %this.addr = alloca ptr, align 8
  %.addr = alloca ptr, align 8
  store ptr %this, ptr %this.addr, align 8
  store ptr %0, ptr %.addr, align 8
  %this1 = load ptr, ptr %this.addr, align 8
  %value_ = getelementptr inbounds %"class.grpc_core::RefCountedPtr.5", ptr %this1, i32 0, i32 0
  %1 = load ptr, ptr %value_, align 8
  %cmp = icmp eq ptr %1, null
  ret i1 %cmp
}

; Function Attrs: mustprogress nounwind uwtable
define linkonce_odr void @_ZN9grpc_core13RefCountedPtrI30grpc_server_security_connectorEC2EDn(ptr noundef nonnull align 8 dereferenceable(8) %this, ptr %0) unnamed_addr #5 comdat align 2 {
entry:
  %this.addr = alloca ptr, align 8
  %.addr = alloca ptr, align 8
  store ptr %this, ptr %this.addr, align 8
  store ptr %0, ptr %.addr, align 8
  %this1 = load ptr, ptr %this.addr, align 8
  %value_ = getelementptr inbounds %"class.grpc_core::RefCountedPtr.4", ptr %this1, i32 0, i32 0
  store ptr null, ptr %value_, align 8
  ret void
}

; Function Attrs: mustprogress uwtable
define internal void @_ZN9grpc_core14MakeRefCountedIN12_GLOBAL__N_135grpc_alts_server_security_connectorEJNS_13RefCountedPtrI23grpc_server_credentialsEEEEENS3_IT_EEDpOT0_(ptr noalias sret(%"class.grpc_core::RefCountedPtr.6") align 8 %agg.result, ptr noundef nonnull align 8 dereferenceable(8) %args) #4 personality ptr @__gxx_personality_v0 {
entry:
  %result.ptr = alloca ptr, align 8
  %args.addr = alloca ptr, align 8
  %agg.tmp = alloca %"class.grpc_core::RefCountedPtr.5", align 8
  %exn.slot = alloca ptr, align 8
  %ehselector.slot = alloca i32, align 4
  %cleanup.isactive = alloca i1, align 1
  store ptr %agg.result, ptr %result.ptr, align 8
  store ptr %args, ptr %args.addr, align 8
  %call = call noalias noundef nonnull ptr @_Znwm(i64 noundef 40) #16
  store i1 true, ptr %cleanup.isactive, align 1
  %0 = load ptr, ptr %args.addr, align 8
  call void @_ZN9grpc_core13RefCountedPtrI23grpc_server_credentialsEC2EOS2_(ptr noundef nonnull align 8 dereferenceable(8) %agg.tmp, ptr noundef nonnull align 8 dereferenceable(8) %0) #3
  invoke void @_ZN12_GLOBAL__N_135grpc_alts_server_security_connectorC2EN9grpc_core13RefCountedPtrI23grpc_server_credentialsEE(ptr noundef nonnull align 8 dereferenceable(40) %call, ptr noundef %agg.tmp)
          to label %invoke.cont unwind label %lpad

invoke.cont:                                      ; preds = %entry
  store i1 false, ptr %cleanup.isactive, align 1
  invoke void @_ZN9grpc_core13RefCountedPtrIN12_GLOBAL__N_135grpc_alts_server_security_connectorEEC2IS2_EEPT_(ptr noundef nonnull align 8 dereferenceable(8) %agg.result, ptr noundef %call)
          to label %invoke.cont1 unwind label %lpad

invoke.cont1:                                     ; preds = %invoke.cont
  call void @_ZN9grpc_core13RefCountedPtrI23grpc_server_credentialsED2Ev(ptr noundef nonnull align 8 dereferenceable(8) %agg.tmp) #3
  ret void

lpad:                                             ; preds = %invoke.cont, %entry
  %1 = landingpad { ptr, i32 }
          cleanup
  %2 = extractvalue { ptr, i32 } %1, 0
  store ptr %2, ptr %exn.slot, align 8
  %3 = extractvalue { ptr, i32 } %1, 1
  store i32 %3, ptr %ehselector.slot, align 4
  call void @_ZN9grpc_core13RefCountedPtrI23grpc_server_credentialsED2Ev(ptr noundef nonnull align 8 dereferenceable(8) %agg.tmp) #3
  %cleanup.is_active = load i1, ptr %cleanup.isactive, align 1
  br i1 %cleanup.is_active, label %cleanup.action, label %cleanup.done

cleanup.action:                                   ; preds = %lpad
  call void @_ZdlPv(ptr noundef %call) #17
  br label %cleanup.done

cleanup.done:                                     ; preds = %cleanup.action, %lpad
  br label %eh.resume

eh.resume:                                        ; preds = %cleanup.done
  %exn = load ptr, ptr %exn.slot, align 8
  %sel = load i32, ptr %ehselector.slot, align 4
  %lpad.val = insertvalue { ptr, i32 } poison, ptr %exn, 0
  %lpad.val2 = insertvalue { ptr, i32 } %lpad.val, i32 %sel, 1
  resume { ptr, i32 } %lpad.val2
}

; Function Attrs: mustprogress nounwind uwtable
define internal void @_ZN9grpc_core13RefCountedPtrI30grpc_server_security_connectorEC2IN12_GLOBAL__N_135grpc_alts_server_security_connectorEEEONS0_IT_EE(ptr noundef nonnull align 8 dereferenceable(8) %this, ptr noundef nonnull align 8 dereferenceable(8) %other) unnamed_addr #5 align 2 {
entry:
  %this.addr = alloca ptr, align 8
  %other.addr = alloca ptr, align 8
  store ptr %this, ptr %this.addr, align 8
  store ptr %other, ptr %other.addr, align 8
  %this1 = load ptr, ptr %this.addr, align 8
  %value_ = getelementptr inbounds %"class.grpc_core::RefCountedPtr.4", ptr %this1, i32 0, i32 0
  store ptr null, ptr %value_, align 8
  %0 = load ptr, ptr %other.addr, align 8
  %value_2 = getelementptr inbounds %"class.grpc_core::RefCountedPtr.6", ptr %0, i32 0, i32 0
  %1 = load ptr, ptr %value_2, align 8
  %value_3 = getelementptr inbounds %"class.grpc_core::RefCountedPtr.4", ptr %this1, i32 0, i32 0
  store ptr %1, ptr %value_3, align 8
  %2 = load ptr, ptr %other.addr, align 8
  %value_4 = getelementptr inbounds %"class.grpc_core::RefCountedPtr.6", ptr %2, i32 0, i32 0
  store ptr null, ptr %value_4, align 8
  ret void
}

; Function Attrs: mustprogress nounwind uwtable
define internal void @_ZN9grpc_core13RefCountedPtrIN12_GLOBAL__N_135grpc_alts_server_security_connectorEED2Ev(ptr noundef nonnull align 8 dereferenceable(8) %this) unnamed_addr #5 align 2 personality ptr @__gxx_personality_v0 {
entry:
  %this.addr = alloca ptr, align 8
  store ptr %this, ptr %this.addr, align 8
  %this1 = load ptr, ptr %this.addr, align 8
  %value_ = getelementptr inbounds %"class.grpc_core::RefCountedPtr.6", ptr %this1, i32 0, i32 0
  %0 = load ptr, ptr %value_, align 8
  %cmp = icmp ne ptr %0, null
  br i1 %cmp, label %if.then, label %if.end

if.then:                                          ; preds = %entry
  %value_2 = getelementptr inbounds %"class.grpc_core::RefCountedPtr.6", ptr %this1, i32 0, i32 0
  %1 = load ptr, ptr %value_2, align 8
  invoke void @_ZNK9grpc_core10RefCountedI23grpc_security_connectorNS_19PolymorphicRefCountENS_11UnrefDeleteEE5UnrefEv(ptr noundef nonnull align 8 dereferenceable(16) %1)
          to label %invoke.cont unwind label %terminate.lpad

invoke.cont:                                      ; preds = %if.then
  br label %if.end

if.end:                                           ; preds = %invoke.cont, %entry
  ret void

terminate.lpad:                                   ; preds = %if.then
  %2 = landingpad { ptr, i32 }
          catch ptr null
  %3 = extractvalue { ptr, i32 } %2, 0
  call void @__clang_call_terminate(ptr %3) #18
  unreachable
}

; Function Attrs: uwtable
define internal void @__cxx_global_var_init.21() #0 section ".text.startup" comdat($_ZN9grpc_core19NoDestructSingletonINS_14promise_detail10UnwakeableEE6value_E) {
entry:
  %0 = load i8, ptr @_ZGVN9grpc_core19NoDestructSingletonINS_14promise_detail10UnwakeableEE6value_E, align 8
  %guard.uninitialized = icmp eq i8 %0, 0
  br i1 %guard.uninitialized, label %init.check, label %init.end

init.check:                                       ; preds = %entry
  store i8 1, ptr @_ZGVN9grpc_core19NoDestructSingletonINS_14promise_detail10UnwakeableEE6value_E, align 8
  call void @_ZN9grpc_core10NoDestructINS_14promise_detail10UnwakeableEEC2IJEEEDpOT_(ptr noundef nonnull align 8 dereferenceable(8) @_ZN9grpc_core19NoDestructSingletonINS_14promise_detail10UnwakeableEE6value_E)
  br label %init.end

init.end:                                         ; preds = %init.check, %entry
  ret void
}

; Function Attrs: mustprogress uwtable
define linkonce_odr void @_ZN9grpc_core10NoDestructINS_14promise_detail10UnwakeableEEC2IJEEEDpOT_(ptr noundef nonnull align 8 dereferenceable(8) %this) unnamed_addr #4 comdat align 2 {
entry:
  %this.addr = alloca ptr, align 8
  store ptr %this, ptr %this.addr, align 8
  %this1 = load ptr, ptr %this.addr, align 8
  %space_ = getelementptr inbounds %"class.grpc_core::NoDestruct", ptr %this1, i32 0, i32 0
  call void @_ZN9grpc_core9ConstructINS_14promise_detail10UnwakeableEJEEEvPT_DpOT0_(ptr noundef %space_)
  ret void
}

; Function Attrs: mustprogress uwtable
define linkonce_odr void @_ZN19grpc_slice_refcount5UnrefEN9grpc_core13DebugLocationE(ptr noundef nonnull align 8 dereferenceable(16) %this) #4 comdat align 2 {
entry:
  %this.addr.i = alloca ptr, align 8
  %__i.addr.i = alloca i64, align 8
  %__m.addr.i = alloca i32, align 4
  %.atomictmp.i = alloca i64, align 8
  %atomic-temp.i = alloca i64, align 8
  %this.addr = alloca ptr, align 8
  %prev_refs = alloca i64, align 8
  store ptr %this, ptr %this.addr, align 8
  %this1 = load ptr, ptr %this.addr, align 8
  %ref_ = getelementptr inbounds %struct.grpc_slice_refcount, ptr %this1, i32 0, i32 0
  store ptr %ref_, ptr %this.addr.i, align 8
  store i64 1, ptr %__i.addr.i, align 8
  store i32 4, ptr %__m.addr.i, align 4
  %this1.i = load ptr, ptr %this.addr.i, align 8
  %0 = load i32, ptr %__m.addr.i, align 4
  %1 = load i64, ptr %__i.addr.i, align 8
  store i64 %1, ptr %.atomictmp.i, align 8
  switch i32 %0, label %monotonic.i [
    i32 1, label %acquire.i
    i32 2, label %acquire.i
    i32 3, label %release.i
    i32 4, label %acqrel.i
    i32 5, label %seqcst.i
  ]

monotonic.i:                                      ; preds = %entry
  %2 = load i64, ptr %.atomictmp.i, align 8
  %3 = atomicrmw sub ptr %this1.i, i64 %2 monotonic, align 8
  store i64 %3, ptr %atomic-temp.i, align 8
  br label %_ZNSt13__atomic_baseImE9fetch_subEmSt12memory_order.exit

acquire.i:                                        ; preds = %entry, %entry
  %4 = load i64, ptr %.atomictmp.i, align 8
  %5 = atomicrmw sub ptr %this1.i, i64 %4 acquire, align 8
  store i64 %5, ptr %atomic-temp.i, align 8
  br label %_ZNSt13__atomic_baseImE9fetch_subEmSt12memory_order.exit

release.i:                                        ; preds = %entry
  %6 = load i64, ptr %.atomictmp.i, align 8
  %7 = atomicrmw sub ptr %this1.i, i64 %6 release, align 8
  store i64 %7, ptr %atomic-temp.i, align 8
  br label %_ZNSt13__atomic_baseImE9fetch_subEmSt12memory_order.exit

acqrel.i:                                         ; preds = %entry
  %8 = load i64, ptr %.atomictmp.i, align 8
  %9 = atomicrmw sub ptr %this1.i, i64 %8 acq_rel, align 8
  store i64 %9, ptr %atomic-temp.i, align 8
  br label %_ZNSt13__atomic_baseImE9fetch_subEmSt12memory_order.exit

seqcst.i:                                         ; preds = %entry
  %10 = load i64, ptr %.atomictmp.i, align 8
  %11 = atomicrmw sub ptr %this1.i, i64 %10 seq_cst, align 8
  store i64 %11, ptr %atomic-temp.i, align 8
  br label %_ZNSt13__atomic_baseImE9fetch_subEmSt12memory_order.exit

_ZNSt13__atomic_baseImE9fetch_subEmSt12memory_order.exit: ; preds = %seqcst.i, %acqrel.i, %release.i, %acquire.i, %monotonic.i
  %12 = load i64, ptr %atomic-temp.i, align 8
  store i64 %12, ptr %prev_refs, align 8
  %13 = load i64, ptr %prev_refs, align 8
  %cmp = icmp eq i64 %13, 1
  br i1 %cmp, label %if.then, label %if.end

if.then:                                          ; preds = %_ZNSt13__atomic_baseImE9fetch_subEmSt12memory_order.exit
  %destroyer_fn_ = getelementptr inbounds %struct.grpc_slice_refcount, ptr %this1, i32 0, i32 1
  %14 = load ptr, ptr %destroyer_fn_, align 8
  call void %14(ptr noundef %this1)
  br label %if.end

if.end:                                           ; preds = %if.then, %_ZNSt13__atomic_baseImE9fetch_subEmSt12memory_order.exit
  ret void
}

; Function Attrs: mustprogress nounwind uwtable
define linkonce_odr void @_ZN9grpc_core9ConstructINS_14promise_detail10UnwakeableEJEEEvPT_DpOT0_(ptr noundef %p) #5 comdat {
entry:
  %p.addr = alloca ptr, align 8
  store ptr %p, ptr %p.addr, align 8
  %0 = load ptr, ptr %p.addr, align 8
  call void @llvm.memset.p0.i64(ptr align 8 %0, i8 0, i64 8, i1 false)
  call void @_ZN9grpc_core14promise_detail10UnwakeableC2Ev(ptr noundef nonnull align 8 dereferenceable(8) %0) #3
  ret void
}

; Function Attrs: nocallback nofree nounwind willreturn memory(argmem: write)
declare void @llvm.memset.p0.i64(ptr nocapture writeonly, i8, i64, i1 immarg) #8

; Function Attrs: mustprogress nounwind uwtable
define linkonce_odr void @_ZN9grpc_core14promise_detail10UnwakeableC2Ev(ptr noundef nonnull align 8 dereferenceable(8) %this) unnamed_addr #5 comdat align 2 {
entry:
  %this.addr = alloca ptr, align 8
  store ptr %this, ptr %this.addr, align 8
  %this1 = load ptr, ptr %this.addr, align 8
  call void @_ZN9grpc_core8WakeableC2Ev(ptr noundef nonnull align 8 dereferenceable(8) %this1) #3
  store ptr getelementptr inbounds ({ [6 x ptr] }, ptr @_ZTVN9grpc_core14promise_detail10UnwakeableE, i32 0, inrange i32 0, i32 2), ptr %this1, align 8
  ret void
}

; Function Attrs: mustprogress nounwind uwtable
define linkonce_odr void @_ZN9grpc_core8WakeableC2Ev(ptr noundef nonnull align 8 dereferenceable(8) %this) unnamed_addr #5 comdat align 2 {
entry:
  %this.addr = alloca ptr, align 8
  store ptr %this, ptr %this.addr, align 8
  %this1 = load ptr, ptr %this.addr, align 8
  store ptr getelementptr inbounds ({ [6 x ptr] }, ptr @_ZTVN9grpc_core8WakeableE, i32 0, inrange i32 0, i32 2), ptr %this1, align 8
  ret void
}

declare void @__cxa_pure_virtual() unnamed_addr

; Function Attrs: mustprogress uwtable
define linkonce_odr void @_ZNK9grpc_core10RefCountedI17grpc_auth_contextNS_22NonPolymorphicRefCountENS_11UnrefDeleteEE5UnrefEv(ptr noundef nonnull align 8 dereferenceable(8) %this) #4 comdat align 2 {
entry:
  %this.addr = alloca ptr, align 8
  store ptr %this, ptr %this.addr, align 8
  %this1 = load ptr, ptr %this.addr, align 8
  %refs_ = getelementptr inbounds %"class.grpc_core::RefCounted", ptr %this1, i32 0, i32 0
  %call = call noundef zeroext i1 @_ZN9grpc_core8RefCount5UnrefEv(ptr noundef nonnull align 8 dereferenceable(8) %refs_)
  br i1 %call, label %if.then, label %if.end

if.then:                                          ; preds = %entry
  call void @_ZNK9grpc_core11UnrefDeleteclIK17grpc_auth_contextEEvPT_(ptr noundef nonnull align 1 dereferenceable(1) %this1, ptr noundef %this1)
  br label %if.end

if.end:                                           ; preds = %if.then, %entry
  ret void
}

; Function Attrs: noreturn nounwind uwtable
define linkonce_odr hidden void @__clang_call_terminate(ptr noundef %0) #9 comdat {
  %2 = call ptr @__cxa_begin_catch(ptr %0) #3
  call void @_ZSt9terminatev() #18
  unreachable
}

declare ptr @__cxa_begin_catch(ptr)

declare void @_ZSt9terminatev()

; Function Attrs: mustprogress nounwind uwtable
define linkonce_odr noundef zeroext i1 @_ZN9grpc_core8RefCount5UnrefEv(ptr noundef nonnull align 8 dereferenceable(8) %this) #5 comdat align 2 {
entry:
  %this.addr.i = alloca ptr, align 8
  %__i.addr.i = alloca i64, align 8
  %__m.addr.i = alloca i32, align 4
  %.atomictmp.i = alloca i64, align 8
  %atomic-temp.i = alloca i64, align 8
  %this.addr = alloca ptr, align 8
  %prior = alloca i64, align 8
  store ptr %this, ptr %this.addr, align 8
  %this1 = load ptr, ptr %this.addr, align 8
  %value_ = getelementptr inbounds %"class.grpc_core::RefCount", ptr %this1, i32 0, i32 0
  store ptr %value_, ptr %this.addr.i, align 8
  store i64 1, ptr %__i.addr.i, align 8
  store i32 4, ptr %__m.addr.i, align 4
  %this1.i = load ptr, ptr %this.addr.i, align 8
  %0 = load i32, ptr %__m.addr.i, align 4
  %1 = load i64, ptr %__i.addr.i, align 8
  store i64 %1, ptr %.atomictmp.i, align 8
  switch i32 %0, label %monotonic.i [
    i32 1, label %acquire.i
    i32 2, label %acquire.i
    i32 3, label %release.i
    i32 4, label %acqrel.i
    i32 5, label %seqcst.i
  ]

monotonic.i:                                      ; preds = %entry
  %2 = load i64, ptr %.atomictmp.i, align 8
  %3 = atomicrmw sub ptr %this1.i, i64 %2 monotonic, align 8
  store i64 %3, ptr %atomic-temp.i, align 8
  br label %_ZNSt13__atomic_baseIlE9fetch_subElSt12memory_order.exit

acquire.i:                                        ; preds = %entry, %entry
  %4 = load i64, ptr %.atomictmp.i, align 8
  %5 = atomicrmw sub ptr %this1.i, i64 %4 acquire, align 8
  store i64 %5, ptr %atomic-temp.i, align 8
  br label %_ZNSt13__atomic_baseIlE9fetch_subElSt12memory_order.exit

release.i:                                        ; preds = %entry
  %6 = load i64, ptr %.atomictmp.i, align 8
  %7 = atomicrmw sub ptr %this1.i, i64 %6 release, align 8
  store i64 %7, ptr %atomic-temp.i, align 8
  br label %_ZNSt13__atomic_baseIlE9fetch_subElSt12memory_order.exit

acqrel.i:                                         ; preds = %entry
  %8 = load i64, ptr %.atomictmp.i, align 8
  %9 = atomicrmw sub ptr %this1.i, i64 %8 acq_rel, align 8
  store i64 %9, ptr %atomic-temp.i, align 8
  br label %_ZNSt13__atomic_baseIlE9fetch_subElSt12memory_order.exit

seqcst.i:                                         ; preds = %entry
  %10 = load i64, ptr %.atomictmp.i, align 8
  %11 = atomicrmw sub ptr %this1.i, i64 %10 seq_cst, align 8
  store i64 %11, ptr %atomic-temp.i, align 8
  br label %_ZNSt13__atomic_baseIlE9fetch_subElSt12memory_order.exit

_ZNSt13__atomic_baseIlE9fetch_subElSt12memory_order.exit: ; preds = %seqcst.i, %acqrel.i, %release.i, %acquire.i, %monotonic.i
  %12 = load i64, ptr %atomic-temp.i, align 8
  store i64 %12, ptr %prior, align 8
  %13 = load i64, ptr %prior, align 8
  %cmp = icmp eq i64 %13, 1
  ret i1 %cmp
}

; Function Attrs: mustprogress nounwind uwtable
define linkonce_odr void @_ZNK9grpc_core11UnrefDeleteclIK17grpc_auth_contextEEvPT_(ptr noundef nonnull align 1 dereferenceable(1) %this, ptr noundef %p) #5 comdat align 2 {
entry:
  %this.addr = alloca ptr, align 8
  %p.addr = alloca ptr, align 8
  store ptr %this, ptr %this.addr, align 8
  store ptr %p, ptr %p.addr, align 8
  %0 = load ptr, ptr %p.addr, align 8
  %isnull = icmp eq ptr %0, null
  br i1 %isnull, label %delete.end, label %delete.notnull

delete.notnull:                                   ; preds = %entry
  call void @_ZN17grpc_auth_contextD2Ev(ptr noundef nonnull align 8 dereferenceable(56) %0) #3
  call void @_ZdlPv(ptr noundef %0) #17
  br label %delete.end

delete.end:                                       ; preds = %delete.notnull, %entry
  ret void
}

; Function Attrs: mustprogress nounwind uwtable
define linkonce_odr void @_ZN17grpc_auth_contextD2Ev(ptr noundef nonnull align 8 dereferenceable(56) %this) unnamed_addr #5 comdat align 2 personality ptr @__gxx_personality_v0 {
entry:
  %this.addr = alloca ptr, align 8
  %ref.tmp = alloca %"class.grpc_core::DebugLocation", align 1
  %i = alloca i64, align 8
  store ptr %this, ptr %this.addr, align 8
  %this1 = load ptr, ptr %this.addr, align 8
  %chained_ = getelementptr inbounds %struct.grpc_auth_context, ptr %this1, i32 0, i32 1
  invoke void @_ZN9grpc_core13DebugLocationC2EPKci(ptr noundef nonnull align 1 dereferenceable(1) %ref.tmp, ptr noundef @.str.22, i32 noundef 87)
          to label %invoke.cont unwind label %terminate.lpad

invoke.cont:                                      ; preds = %entry
  invoke void @_ZN9grpc_core13RefCountedPtrI17grpc_auth_contextE5resetERKNS_13DebugLocationEPKcPS1_(ptr noundef nonnull align 8 dereferenceable(8) %chained_, ptr noundef nonnull align 1 dereferenceable(1) %ref.tmp, ptr noundef @.str.23, ptr noundef null)
          to label %invoke.cont2 unwind label %terminate.lpad

invoke.cont2:                                     ; preds = %invoke.cont
  %properties_ = getelementptr inbounds %struct.grpc_auth_context, ptr %this1, i32 0, i32 2
  %array = getelementptr inbounds %struct.grpc_auth_property_array, ptr %properties_, i32 0, i32 0
  %0 = load ptr, ptr %array, align 8
  %cmp = icmp ne ptr %0, null
  br i1 %cmp, label %if.then, label %if.end

if.then:                                          ; preds = %invoke.cont2
  store i64 0, ptr %i, align 8
  br label %for.cond

for.cond:                                         ; preds = %for.inc, %if.then
  %1 = load i64, ptr %i, align 8
  %properties_3 = getelementptr inbounds %struct.grpc_auth_context, ptr %this1, i32 0, i32 2
  %count = getelementptr inbounds %struct.grpc_auth_property_array, ptr %properties_3, i32 0, i32 1
  %2 = load i64, ptr %count, align 8
  %cmp4 = icmp ult i64 %1, %2
  br i1 %cmp4, label %for.body, label %for.end

for.body:                                         ; preds = %for.cond
  %properties_5 = getelementptr inbounds %struct.grpc_auth_context, ptr %this1, i32 0, i32 2
  %array6 = getelementptr inbounds %struct.grpc_auth_property_array, ptr %properties_5, i32 0, i32 0
  %3 = load ptr, ptr %array6, align 8
  %4 = load i64, ptr %i, align 8
  %arrayidx = getelementptr inbounds %struct.grpc_auth_property, ptr %3, i64 %4
  invoke void @_Z24grpc_auth_property_resetP18grpc_auth_property(ptr noundef %arrayidx)
          to label %invoke.cont7 unwind label %terminate.lpad

invoke.cont7:                                     ; preds = %for.body
  br label %for.inc

for.inc:                                          ; preds = %invoke.cont7
  %5 = load i64, ptr %i, align 8
  %inc = add i64 %5, 1
  store i64 %inc, ptr %i, align 8
  br label %for.cond, !llvm.loop !6

for.end:                                          ; preds = %for.cond
  %properties_8 = getelementptr inbounds %struct.grpc_auth_context, ptr %this1, i32 0, i32 2
  %array9 = getelementptr inbounds %struct.grpc_auth_property_array, ptr %properties_8, i32 0, i32 0
  %6 = load ptr, ptr %array9, align 8
  invoke void @gpr_free(ptr noundef %6)
          to label %invoke.cont10 unwind label %terminate.lpad

invoke.cont10:                                    ; preds = %for.end
  br label %if.end

if.end:                                           ; preds = %invoke.cont10, %invoke.cont2
  %extension_ = getelementptr inbounds %struct.grpc_auth_context, ptr %this1, i32 0, i32 4
  call void @_ZNSt10unique_ptrIN17grpc_auth_context9ExtensionESt14default_deleteIS1_EED2Ev(ptr noundef nonnull align 8 dereferenceable(8) %extension_) #3
  %chained_11 = getelementptr inbounds %struct.grpc_auth_context, ptr %this1, i32 0, i32 1
  call void @_ZN9grpc_core13RefCountedPtrI17grpc_auth_contextED2Ev(ptr noundef nonnull align 8 dereferenceable(8) %chained_11) #3
  ret void

terminate.lpad:                                   ; preds = %for.end, %for.body, %invoke.cont, %entry
  %7 = landingpad { ptr, i32 }
          catch ptr null
  %8 = extractvalue { ptr, i32 } %7, 0
  call void @__clang_call_terminate(ptr %8) #18
  unreachable
}

; Function Attrs: nobuiltin nounwind
declare void @_ZdlPv(ptr noundef) #10

declare void @_Z24grpc_auth_property_resetP18grpc_auth_property(ptr noundef) #1

declare void @gpr_free(ptr noundef) #1

; Function Attrs: mustprogress nounwind uwtable
define linkonce_odr void @_ZNSt10unique_ptrIN17grpc_auth_context9ExtensionESt14default_deleteIS1_EED2Ev(ptr noundef nonnull align 8 dereferenceable(8) %this) unnamed_addr #5 comdat align 2 personality ptr @__gxx_personality_v0 {
entry:
  %this.addr = alloca ptr, align 8
  %__ptr = alloca ptr, align 8
  store ptr %this, ptr %this.addr, align 8
  %this1 = load ptr, ptr %this.addr, align 8
  %_M_t = getelementptr inbounds %"class.std::unique_ptr", ptr %this1, i32 0, i32 0
  %call = call noundef nonnull align 8 dereferenceable(8) ptr @_ZNSt15__uniq_ptr_implIN17grpc_auth_context9ExtensionESt14default_deleteIS1_EE6_M_ptrEv(ptr noundef nonnull align 8 dereferenceable(8) %_M_t) #3
  store ptr %call, ptr %__ptr, align 8
  %0 = load ptr, ptr %__ptr, align 8
  %1 = load ptr, ptr %0, align 8
  %cmp = icmp ne ptr %1, null
  br i1 %cmp, label %if.then, label %if.end

if.then:                                          ; preds = %entry
  %call2 = call noundef nonnull align 1 dereferenceable(1) ptr @_ZNSt10unique_ptrIN17grpc_auth_context9ExtensionESt14default_deleteIS1_EE11get_deleterEv(ptr noundef nonnull align 8 dereferenceable(8) %this1) #3
  %2 = load ptr, ptr %__ptr, align 8
  %3 = load ptr, ptr %2, align 8
  invoke void @_ZNKSt14default_deleteIN17grpc_auth_context9ExtensionEEclEPS1_(ptr noundef nonnull align 1 dereferenceable(1) %call2, ptr noundef %3)
          to label %invoke.cont unwind label %terminate.lpad

invoke.cont:                                      ; preds = %if.then
  br label %if.end

if.end:                                           ; preds = %invoke.cont, %entry
  %4 = load ptr, ptr %__ptr, align 8
  store ptr null, ptr %4, align 8
  ret void

terminate.lpad:                                   ; preds = %if.then
  %5 = landingpad { ptr, i32 }
          catch ptr null
  %6 = extractvalue { ptr, i32 } %5, 0
  call void @__clang_call_terminate(ptr %6) #18
  unreachable
}

; Function Attrs: mustprogress nounwind uwtable
define linkonce_odr noundef nonnull align 8 dereferenceable(8) ptr @_ZNSt15__uniq_ptr_implIN17grpc_auth_context9ExtensionESt14default_deleteIS1_EE6_M_ptrEv(ptr noundef nonnull align 8 dereferenceable(8) %this) #5 comdat align 2 {
entry:
  %this.addr = alloca ptr, align 8
  store ptr %this, ptr %this.addr, align 8
  %this1 = load ptr, ptr %this.addr, align 8
  %_M_t = getelementptr inbounds %"class.std::__uniq_ptr_impl", ptr %this1, i32 0, i32 0
  %call = call noundef nonnull align 8 dereferenceable(8) ptr @_ZSt3getILm0EJPN17grpc_auth_context9ExtensionESt14default_deleteIS1_EEERNSt13tuple_elementIXT_ESt5tupleIJDpT0_EEE4typeERS9_(ptr noundef nonnull align 8 dereferenceable(8) %_M_t) #3
  ret ptr %call
}

; Function Attrs: mustprogress nounwind uwtable
define linkonce_odr noundef nonnull align 1 dereferenceable(1) ptr @_ZNSt10unique_ptrIN17grpc_auth_context9ExtensionESt14default_deleteIS1_EE11get_deleterEv(ptr noundef nonnull align 8 dereferenceable(8) %this) #5 comdat align 2 {
entry:
  %this.addr = alloca ptr, align 8
  store ptr %this, ptr %this.addr, align 8
  %this1 = load ptr, ptr %this.addr, align 8
  %_M_t = getelementptr inbounds %"class.std::unique_ptr", ptr %this1, i32 0, i32 0
  %call = call noundef nonnull align 1 dereferenceable(1) ptr @_ZNSt15__uniq_ptr_implIN17grpc_auth_context9ExtensionESt14default_deleteIS1_EE10_M_deleterEv(ptr noundef nonnull align 8 dereferenceable(8) %_M_t) #3
  ret ptr %call
}

; Function Attrs: mustprogress nounwind uwtable
define linkonce_odr void @_ZNKSt14default_deleteIN17grpc_auth_context9ExtensionEEclEPS1_(ptr noundef nonnull align 1 dereferenceable(1) %this, ptr noundef %__ptr) #5 comdat align 2 {
entry:
  %this.addr = alloca ptr, align 8
  %__ptr.addr = alloca ptr, align 8
  store ptr %this, ptr %this.addr, align 8
  store ptr %__ptr, ptr %__ptr.addr, align 8
  %0 = load ptr, ptr %__ptr.addr, align 8
  %isnull = icmp eq ptr %0, null
  br i1 %isnull, label %delete.end, label %delete.notnull

delete.notnull:                                   ; preds = %entry
  %vtable = load ptr, ptr %0, align 8
  %vfn = getelementptr inbounds ptr, ptr %vtable, i64 1
  %1 = load ptr, ptr %vfn, align 8
  call void %1(ptr noundef nonnull align 8 dereferenceable(8) %0) #3
  br label %delete.end

delete.end:                                       ; preds = %delete.notnull, %entry
  ret void
}

; Function Attrs: mustprogress nounwind uwtable
define linkonce_odr noundef nonnull align 8 dereferenceable(8) ptr @_ZSt3getILm0EJPN17grpc_auth_context9ExtensionESt14default_deleteIS1_EEERNSt13tuple_elementIXT_ESt5tupleIJDpT0_EEE4typeERS9_(ptr noundef nonnull align 8 dereferenceable(8) %__t) #5 comdat {
entry:
  %__t.addr = alloca ptr, align 8
  store ptr %__t, ptr %__t.addr, align 8
  %0 = load ptr, ptr %__t.addr, align 8
  %call = call noundef nonnull align 8 dereferenceable(8) ptr @_ZSt12__get_helperILm0EPN17grpc_auth_context9ExtensionEJSt14default_deleteIS1_EEERT0_RSt11_Tuple_implIXT_EJS5_DpT1_EE(ptr noundef nonnull align 8 dereferenceable(8) %0) #3
  ret ptr %call
}

; Function Attrs: mustprogress nounwind uwtable
define linkonce_odr noundef nonnull align 8 dereferenceable(8) ptr @_ZSt12__get_helperILm0EPN17grpc_auth_context9ExtensionEJSt14default_deleteIS1_EEERT0_RSt11_Tuple_implIXT_EJS5_DpT1_EE(ptr noundef nonnull align 8 dereferenceable(8) %__t) #5 comdat {
entry:
  %__t.addr = alloca ptr, align 8
  store ptr %__t, ptr %__t.addr, align 8
  %0 = load ptr, ptr %__t.addr, align 8
  %call = call noundef nonnull align 8 dereferenceable(8) ptr @_ZNSt11_Tuple_implILm0EJPN17grpc_auth_context9ExtensionESt14default_deleteIS1_EEE7_M_headERS5_(ptr noundef nonnull align 8 dereferenceable(8) %0) #3
  ret ptr %call
}

; Function Attrs: mustprogress nounwind uwtable
define linkonce_odr noundef nonnull align 8 dereferenceable(8) ptr @_ZNSt11_Tuple_implILm0EJPN17grpc_auth_context9ExtensionESt14default_deleteIS1_EEE7_M_headERS5_(ptr noundef nonnull align 8 dereferenceable(8) %__t) #5 comdat align 2 {
entry:
  %__t.addr = alloca ptr, align 8
  store ptr %__t, ptr %__t.addr, align 8
  %0 = load ptr, ptr %__t.addr, align 8
  %call = call noundef nonnull align 8 dereferenceable(8) ptr @_ZNSt10_Head_baseILm0EPN17grpc_auth_context9ExtensionELb0EE7_M_headERS3_(ptr noundef nonnull align 8 dereferenceable(8) %0) #3
  ret ptr %call
}

; Function Attrs: mustprogress nounwind uwtable
define linkonce_odr noundef nonnull align 8 dereferenceable(8) ptr @_ZNSt10_Head_baseILm0EPN17grpc_auth_context9ExtensionELb0EE7_M_headERS3_(ptr noundef nonnull align 8 dereferenceable(8) %__b) #5 comdat align 2 {
entry:
  %__b.addr = alloca ptr, align 8
  store ptr %__b, ptr %__b.addr, align 8
  %0 = load ptr, ptr %__b.addr, align 8
  %_M_head_impl = getelementptr inbounds %"struct.std::_Head_base.10", ptr %0, i32 0, i32 0
  ret ptr %_M_head_impl
}

; Function Attrs: mustprogress nounwind uwtable
define linkonce_odr noundef nonnull align 1 dereferenceable(1) ptr @_ZNSt15__uniq_ptr_implIN17grpc_auth_context9ExtensionESt14default_deleteIS1_EE10_M_deleterEv(ptr noundef nonnull align 8 dereferenceable(8) %this) #5 comdat align 2 {
entry:
  %this.addr = alloca ptr, align 8
  store ptr %this, ptr %this.addr, align 8
  %this1 = load ptr, ptr %this.addr, align 8
  %_M_t = getelementptr inbounds %"class.std::__uniq_ptr_impl", ptr %this1, i32 0, i32 0
  %call = call noundef nonnull align 1 dereferenceable(1) ptr @_ZSt3getILm1EJPN17grpc_auth_context9ExtensionESt14default_deleteIS1_EEERNSt13tuple_elementIXT_ESt5tupleIJDpT0_EEE4typeERS9_(ptr noundef nonnull align 8 dereferenceable(8) %_M_t) #3
  ret ptr %call
}

; Function Attrs: mustprogress nounwind uwtable
define linkonce_odr noundef nonnull align 1 dereferenceable(1) ptr @_ZSt3getILm1EJPN17grpc_auth_context9ExtensionESt14default_deleteIS1_EEERNSt13tuple_elementIXT_ESt5tupleIJDpT0_EEE4typeERS9_(ptr noundef nonnull align 8 dereferenceable(8) %__t) #5 comdat {
entry:
  %__t.addr = alloca ptr, align 8
  store ptr %__t, ptr %__t.addr, align 8
  %0 = load ptr, ptr %__t.addr, align 8
  %call = call noundef nonnull align 1 dereferenceable(1) ptr @_ZSt12__get_helperILm1ESt14default_deleteIN17grpc_auth_context9ExtensionEEJEERT0_RSt11_Tuple_implIXT_EJS4_DpT1_EE(ptr noundef nonnull align 1 dereferenceable(1) %0) #3
  ret ptr %call
}

; Function Attrs: mustprogress nounwind uwtable
define linkonce_odr noundef nonnull align 1 dereferenceable(1) ptr @_ZSt12__get_helperILm1ESt14default_deleteIN17grpc_auth_context9ExtensionEEJEERT0_RSt11_Tuple_implIXT_EJS4_DpT1_EE(ptr noundef nonnull align 1 dereferenceable(1) %__t) #5 comdat {
entry:
  %__t.addr = alloca ptr, align 8
  store ptr %__t, ptr %__t.addr, align 8
  %0 = load ptr, ptr %__t.addr, align 8
  %call = call noundef nonnull align 1 dereferenceable(1) ptr @_ZNSt11_Tuple_implILm1EJSt14default_deleteIN17grpc_auth_context9ExtensionEEEE7_M_headERS4_(ptr noundef nonnull align 1 dereferenceable(1) %0) #3
  ret ptr %call
}

; Function Attrs: mustprogress nounwind uwtable
define linkonce_odr noundef nonnull align 1 dereferenceable(1) ptr @_ZNSt11_Tuple_implILm1EJSt14default_deleteIN17grpc_auth_context9ExtensionEEEE7_M_headERS4_(ptr noundef nonnull align 1 dereferenceable(1) %__t) #5 comdat align 2 {
entry:
  %__t.addr = alloca ptr, align 8
  store ptr %__t, ptr %__t.addr, align 8
  %0 = load ptr, ptr %__t.addr, align 8
  %call = call noundef nonnull align 1 dereferenceable(1) ptr @_ZNSt10_Head_baseILm1ESt14default_deleteIN17grpc_auth_context9ExtensionEELb1EE7_M_headERS4_(ptr noundef nonnull align 1 dereferenceable(1) %0) #3
  ret ptr %call
}

; Function Attrs: mustprogress nounwind uwtable
define linkonce_odr noundef nonnull align 1 dereferenceable(1) ptr @_ZNSt10_Head_baseILm1ESt14default_deleteIN17grpc_auth_context9ExtensionEELb1EE7_M_headERS4_(ptr noundef nonnull align 1 dereferenceable(1) %__b) #5 comdat align 2 {
entry:
  %__b.addr = alloca ptr, align 8
  store ptr %__b, ptr %__b.addr, align 8
  %0 = load ptr, ptr %__b.addr, align 8
  ret ptr %0
}

; Function Attrs: mustprogress nounwind uwtable
define linkonce_odr noundef ptr @_ZSt8exchangeIP17grpc_auth_contextRS1_ET_RS3_OT0_(ptr noundef nonnull align 8 dereferenceable(8) %__obj, ptr noundef nonnull align 8 dereferenceable(8) %__new_val) #5 comdat personality ptr @__gxx_personality_v0 {
entry:
  %__obj.addr = alloca ptr, align 8
  %__new_val.addr = alloca ptr, align 8
  store ptr %__obj, ptr %__obj.addr, align 8
  store ptr %__new_val, ptr %__new_val.addr, align 8
  %0 = load ptr, ptr %__obj.addr, align 8
  %1 = load ptr, ptr %__new_val.addr, align 8
  %call = invoke noundef ptr @_ZSt10__exchangeIP17grpc_auth_contextRS1_ET_RS3_OT0_(ptr noundef nonnull align 8 dereferenceable(8) %0, ptr noundef nonnull align 8 dereferenceable(8) %1)
          to label %invoke.cont unwind label %terminate.lpad

invoke.cont:                                      ; preds = %entry
  ret ptr %call

terminate.lpad:                                   ; preds = %entry
  %2 = landingpad { ptr, i32 }
          catch ptr null
  %3 = extractvalue { ptr, i32 } %2, 0
  call void @__clang_call_terminate(ptr %3) #18
  unreachable
}

; Function Attrs: mustprogress uwtable
define linkonce_odr void @_ZNK9grpc_core10RefCountedI17grpc_auth_contextNS_22NonPolymorphicRefCountENS_11UnrefDeleteEE5UnrefERKNS_13DebugLocationEPKc(ptr noundef nonnull align 8 dereferenceable(8) %this, ptr noundef nonnull align 1 dereferenceable(1) %location, ptr noundef %reason) #4 comdat align 2 {
entry:
  %this.addr = alloca ptr, align 8
  %location.addr = alloca ptr, align 8
  %reason.addr = alloca ptr, align 8
  store ptr %this, ptr %this.addr, align 8
  store ptr %location, ptr %location.addr, align 8
  store ptr %reason, ptr %reason.addr, align 8
  %this1 = load ptr, ptr %this.addr, align 8
  %refs_ = getelementptr inbounds %"class.grpc_core::RefCounted", ptr %this1, i32 0, i32 0
  %0 = load ptr, ptr %location.addr, align 8
  %1 = load ptr, ptr %reason.addr, align 8
  %call = call noundef zeroext i1 @_ZN9grpc_core8RefCount5UnrefERKNS_13DebugLocationEPKc(ptr noundef nonnull align 8 dereferenceable(8) %refs_, ptr noundef nonnull align 1 dereferenceable(1) %0, ptr noundef %1)
  br i1 %call, label %if.then, label %if.end

if.then:                                          ; preds = %entry
  call void @_ZNK9grpc_core11UnrefDeleteclIK17grpc_auth_contextEEvPT_(ptr noundef nonnull align 1 dereferenceable(1) %this1, ptr noundef %this1)
  br label %if.end

if.end:                                           ; preds = %if.then, %entry
  ret void
}

; Function Attrs: mustprogress nounwind uwtable
define linkonce_odr noundef ptr @_ZSt10__exchangeIP17grpc_auth_contextRS1_ET_RS3_OT0_(ptr noundef nonnull align 8 dereferenceable(8) %__obj, ptr noundef nonnull align 8 dereferenceable(8) %__new_val) #5 comdat {
entry:
  %__obj.addr = alloca ptr, align 8
  %__new_val.addr = alloca ptr, align 8
  %__old_val = alloca ptr, align 8
  store ptr %__obj, ptr %__obj.addr, align 8
  store ptr %__new_val, ptr %__new_val.addr, align 8
  %0 = load ptr, ptr %__obj.addr, align 8
  %1 = load ptr, ptr %0, align 8
  store ptr %1, ptr %__old_val, align 8
  %2 = load ptr, ptr %__new_val.addr, align 8
  %3 = load ptr, ptr %2, align 8
  %4 = load ptr, ptr %__obj.addr, align 8
  store ptr %3, ptr %4, align 8
  %5 = load ptr, ptr %__old_val, align 8
  ret ptr %5
}

; Function Attrs: mustprogress nounwind uwtable
define linkonce_odr noundef zeroext i1 @_ZN9grpc_core8RefCount5UnrefERKNS_13DebugLocationEPKc(ptr noundef nonnull align 8 dereferenceable(8) %this, ptr noundef nonnull align 1 dereferenceable(1) %location, ptr noundef %reason) #5 comdat align 2 {
entry:
  %this.addr.i = alloca ptr, align 8
  %__i.addr.i = alloca i64, align 8
  %__m.addr.i = alloca i32, align 4
  %.atomictmp.i = alloca i64, align 8
  %atomic-temp.i = alloca i64, align 8
  %this.addr = alloca ptr, align 8
  %location.addr = alloca ptr, align 8
  %reason.addr = alloca ptr, align 8
  %prior = alloca i64, align 8
  store ptr %this, ptr %this.addr, align 8
  store ptr %location, ptr %location.addr, align 8
  store ptr %reason, ptr %reason.addr, align 8
  %this1 = load ptr, ptr %this.addr, align 8
  %value_ = getelementptr inbounds %"class.grpc_core::RefCount", ptr %this1, i32 0, i32 0
  store ptr %value_, ptr %this.addr.i, align 8
  store i64 1, ptr %__i.addr.i, align 8
  store i32 4, ptr %__m.addr.i, align 4
  %this1.i = load ptr, ptr %this.addr.i, align 8
  %0 = load i32, ptr %__m.addr.i, align 4
  %1 = load i64, ptr %__i.addr.i, align 8
  store i64 %1, ptr %.atomictmp.i, align 8
  switch i32 %0, label %monotonic.i [
    i32 1, label %acquire.i
    i32 2, label %acquire.i
    i32 3, label %release.i
    i32 4, label %acqrel.i
    i32 5, label %seqcst.i
  ]

monotonic.i:                                      ; preds = %entry
  %2 = load i64, ptr %.atomictmp.i, align 8
  %3 = atomicrmw sub ptr %this1.i, i64 %2 monotonic, align 8
  store i64 %3, ptr %atomic-temp.i, align 8
  br label %_ZNSt13__atomic_baseIlE9fetch_subElSt12memory_order.exit

acquire.i:                                        ; preds = %entry, %entry
  %4 = load i64, ptr %.atomictmp.i, align 8
  %5 = atomicrmw sub ptr %this1.i, i64 %4 acquire, align 8
  store i64 %5, ptr %atomic-temp.i, align 8
  br label %_ZNSt13__atomic_baseIlE9fetch_subElSt12memory_order.exit

release.i:                                        ; preds = %entry
  %6 = load i64, ptr %.atomictmp.i, align 8
  %7 = atomicrmw sub ptr %this1.i, i64 %6 release, align 8
  store i64 %7, ptr %atomic-temp.i, align 8
  br label %_ZNSt13__atomic_baseIlE9fetch_subElSt12memory_order.exit

acqrel.i:                                         ; preds = %entry
  %8 = load i64, ptr %.atomictmp.i, align 8
  %9 = atomicrmw sub ptr %this1.i, i64 %8 acq_rel, align 8
  store i64 %9, ptr %atomic-temp.i, align 8
  br label %_ZNSt13__atomic_baseIlE9fetch_subElSt12memory_order.exit

seqcst.i:                                         ; preds = %entry
  %10 = load i64, ptr %.atomictmp.i, align 8
  %11 = atomicrmw sub ptr %this1.i, i64 %10 seq_cst, align 8
  store i64 %11, ptr %atomic-temp.i, align 8
  br label %_ZNSt13__atomic_baseIlE9fetch_subElSt12memory_order.exit

_ZNSt13__atomic_baseIlE9fetch_subElSt12memory_order.exit: ; preds = %seqcst.i, %acqrel.i, %release.i, %acquire.i, %monotonic.i
  %12 = load i64, ptr %atomic-temp.i, align 8
  store i64 %12, ptr %prior, align 8
  %13 = load i64, ptr %prior, align 8
  %cmp = icmp eq i64 %13, 1
  ret i1 %cmp
}

; Function Attrs: nobuiltin allocsize(0)
declare noundef nonnull ptr @_Znwm(i64 noundef) #11

; Function Attrs: mustprogress uwtable
define linkonce_odr void @_ZN17grpc_auth_contextC2EN9grpc_core13RefCountedPtrIS_EE(ptr noundef nonnull align 8 dereferenceable(56) %this, ptr noundef %chained) unnamed_addr #4 comdat align 2 personality ptr @__gxx_personality_v0 {
entry:
  %this.addr = alloca ptr, align 8
  %chained.indirect_addr = alloca ptr, align 8
  %exn.slot = alloca ptr, align 8
  %ehselector.slot = alloca i32, align 4
  store ptr %this, ptr %this.addr, align 8
  store ptr %chained, ptr %chained.indirect_addr, align 8
  %this1 = load ptr, ptr %this.addr, align 8
  call void @_ZN9grpc_core10RefCountedI17grpc_auth_contextNS_22NonPolymorphicRefCountENS_11UnrefDeleteEEC2EPKcl(ptr noundef nonnull align 8 dereferenceable(8) %this1, ptr noundef null, i64 noundef 1)
  %chained_ = getelementptr inbounds %struct.grpc_auth_context, ptr %this1, i32 0, i32 1
  call void @_ZN9grpc_core13RefCountedPtrI17grpc_auth_contextEC2EOS2_(ptr noundef nonnull align 8 dereferenceable(8) %chained_, ptr noundef nonnull align 8 dereferenceable(8) %chained) #3
  %properties_ = getelementptr inbounds %struct.grpc_auth_context, ptr %this1, i32 0, i32 2
  call void @_ZN24grpc_auth_property_arrayC2Ev(ptr noundef nonnull align 8 dereferenceable(24) %properties_) #3
  %peer_identity_property_name_ = getelementptr inbounds %struct.grpc_auth_context, ptr %this1, i32 0, i32 3
  store ptr null, ptr %peer_identity_property_name_, align 8
  %extension_ = getelementptr inbounds %struct.grpc_auth_context, ptr %this1, i32 0, i32 4
  call void @_ZNSt10unique_ptrIN17grpc_auth_context9ExtensionESt14default_deleteIS1_EEC2IS3_vEEv(ptr noundef nonnull align 8 dereferenceable(8) %extension_) #3
  %chained_2 = getelementptr inbounds %struct.grpc_auth_context, ptr %this1, i32 0, i32 1
  %call = invoke noundef zeroext i1 @_ZNK9grpc_core13RefCountedPtrI17grpc_auth_contextEneEDn(ptr noundef nonnull align 8 dereferenceable(8) %chained_2, ptr null)
          to label %invoke.cont unwind label %lpad

invoke.cont:                                      ; preds = %entry
  br i1 %call, label %if.then, label %if.end

if.then:                                          ; preds = %invoke.cont
  %chained_3 = getelementptr inbounds %struct.grpc_auth_context, ptr %this1, i32 0, i32 1
  %call5 = invoke noundef ptr @_ZNK9grpc_core13RefCountedPtrI17grpc_auth_contextEptEv(ptr noundef nonnull align 8 dereferenceable(8) %chained_3)
          to label %invoke.cont4 unwind label %lpad

invoke.cont4:                                     ; preds = %if.then
  %peer_identity_property_name_6 = getelementptr inbounds %struct.grpc_auth_context, ptr %call5, i32 0, i32 3
  %0 = load ptr, ptr %peer_identity_property_name_6, align 8
  %peer_identity_property_name_7 = getelementptr inbounds %struct.grpc_auth_context, ptr %this1, i32 0, i32 3
  store ptr %0, ptr %peer_identity_property_name_7, align 8
  br label %if.end

lpad:                                             ; preds = %if.then, %entry
  %1 = landingpad { ptr, i32 }
          cleanup
  %2 = extractvalue { ptr, i32 } %1, 0
  store ptr %2, ptr %exn.slot, align 8
  %3 = extractvalue { ptr, i32 } %1, 1
  store i32 %3, ptr %ehselector.slot, align 4
  call void @_ZNSt10unique_ptrIN17grpc_auth_context9ExtensionESt14default_deleteIS1_EED2Ev(ptr noundef nonnull align 8 dereferenceable(8) %extension_) #3
  call void @_ZN9grpc_core13RefCountedPtrI17grpc_auth_contextED2Ev(ptr noundef nonnull align 8 dereferenceable(8) %chained_) #3
  br label %eh.resume

if.end:                                           ; preds = %invoke.cont4, %invoke.cont
  ret void

eh.resume:                                        ; preds = %lpad
  %exn = load ptr, ptr %exn.slot, align 8
  %sel = load i32, ptr %ehselector.slot, align 4
  %lpad.val = insertvalue { ptr, i32 } poison, ptr %exn, 0
  %lpad.val8 = insertvalue { ptr, i32 } %lpad.val, i32 %sel, 1
  resume { ptr, i32 } %lpad.val8
}

; Function Attrs: mustprogress nounwind uwtable
define linkonce_odr void @_ZN9grpc_core13RefCountedPtrI17grpc_auth_contextEC2IS1_EEPT_(ptr noundef nonnull align 8 dereferenceable(8) %this, ptr noundef %value) unnamed_addr #5 comdat align 2 {
entry:
  %this.addr = alloca ptr, align 8
  %value.addr = alloca ptr, align 8
  store ptr %this, ptr %this.addr, align 8
  store ptr %value, ptr %value.addr, align 8
  %this1 = load ptr, ptr %this.addr, align 8
  %value_ = getelementptr inbounds %"class.grpc_core::RefCountedPtr", ptr %this1, i32 0, i32 0
  %0 = load ptr, ptr %value.addr, align 8
  store ptr %0, ptr %value_, align 8
  ret void
}

; Function Attrs: mustprogress uwtable
define linkonce_odr void @_ZN9grpc_core10RefCountedI17grpc_auth_contextNS_22NonPolymorphicRefCountENS_11UnrefDeleteEEC2EPKcl(ptr noundef nonnull align 8 dereferenceable(8) %this, ptr noundef %trace, i64 noundef %initial_refcount) unnamed_addr #4 comdat align 2 {
entry:
  %this.addr = alloca ptr, align 8
  %trace.addr = alloca ptr, align 8
  %initial_refcount.addr = alloca i64, align 8
  store ptr %this, ptr %this.addr, align 8
  store ptr %trace, ptr %trace.addr, align 8
  store i64 %initial_refcount, ptr %initial_refcount.addr, align 8
  %this1 = load ptr, ptr %this.addr, align 8
  %refs_ = getelementptr inbounds %"class.grpc_core::RefCounted", ptr %this1, i32 0, i32 0
  %0 = load i64, ptr %initial_refcount.addr, align 8
  %1 = load ptr, ptr %trace.addr, align 8
  call void @_ZN9grpc_core8RefCountC2ElPKc(ptr noundef nonnull align 8 dereferenceable(8) %refs_, i64 noundef %0, ptr noundef %1)
  ret void
}

; Function Attrs: mustprogress nounwind uwtable
define linkonce_odr void @_ZN24grpc_auth_property_arrayC2Ev(ptr noundef nonnull align 8 dereferenceable(24) %this) unnamed_addr #5 comdat align 2 {
entry:
  %this.addr = alloca ptr, align 8
  store ptr %this, ptr %this.addr, align 8
  %this1 = load ptr, ptr %this.addr, align 8
  %array = getelementptr inbounds %struct.grpc_auth_property_array, ptr %this1, i32 0, i32 0
  store ptr null, ptr %array, align 8
  %count = getelementptr inbounds %struct.grpc_auth_property_array, ptr %this1, i32 0, i32 1
  store i64 0, ptr %count, align 8
  %capacity = getelementptr inbounds %struct.grpc_auth_property_array, ptr %this1, i32 0, i32 2
  store i64 0, ptr %capacity, align 8
  ret void
}

; Function Attrs: mustprogress nounwind uwtable
define linkonce_odr void @_ZNSt10unique_ptrIN17grpc_auth_context9ExtensionESt14default_deleteIS1_EEC2IS3_vEEv(ptr noundef nonnull align 8 dereferenceable(8) %this) unnamed_addr #5 comdat align 2 {
entry:
  %this.addr = alloca ptr, align 8
  store ptr %this, ptr %this.addr, align 8
  %this1 = load ptr, ptr %this.addr, align 8
  %_M_t = getelementptr inbounds %"class.std::unique_ptr", ptr %this1, i32 0, i32 0
  call void @llvm.memset.p0.i64(ptr align 8 %_M_t, i8 0, i64 8, i1 false)
  call void @_ZNSt15__uniq_ptr_dataIN17grpc_auth_context9ExtensionESt14default_deleteIS1_ELb1ELb1EEC2Ev(ptr noundef nonnull align 8 dereferenceable(8) %_M_t) #3
  ret void
}

; Function Attrs: mustprogress nounwind uwtable
define linkonce_odr noundef zeroext i1 @_ZNK9grpc_core13RefCountedPtrI17grpc_auth_contextEneEDn(ptr noundef nonnull align 8 dereferenceable(8) %this, ptr %0) #5 comdat align 2 {
entry:
  %this.addr = alloca ptr, align 8
  %.addr = alloca ptr, align 8
  store ptr %this, ptr %this.addr, align 8
  store ptr %0, ptr %.addr, align 8
  %this1 = load ptr, ptr %this.addr, align 8
  %value_ = getelementptr inbounds %"class.grpc_core::RefCountedPtr", ptr %this1, i32 0, i32 0
  %1 = load ptr, ptr %value_, align 8
  %cmp = icmp ne ptr %1, null
  ret i1 %cmp
}

; Function Attrs: mustprogress nounwind uwtable
define linkonce_odr noundef ptr @_ZNK9grpc_core13RefCountedPtrI17grpc_auth_contextEptEv(ptr noundef nonnull align 8 dereferenceable(8) %this) #5 comdat align 2 {
entry:
  %this.addr = alloca ptr, align 8
  store ptr %this, ptr %this.addr, align 8
  %this1 = load ptr, ptr %this.addr, align 8
  %value_ = getelementptr inbounds %"class.grpc_core::RefCountedPtr", ptr %this1, i32 0, i32 0
  %0 = load ptr, ptr %value_, align 8
  ret ptr %0
}

; Function Attrs: mustprogress nounwind uwtable
define linkonce_odr void @_ZN9grpc_core8RefCountC2ElPKc(ptr noundef nonnull align 8 dereferenceable(8) %this, i64 noundef %init, ptr noundef %0) unnamed_addr #5 comdat align 2 {
entry:
  %this.addr = alloca ptr, align 8
  %init.addr = alloca i64, align 8
  %.addr = alloca ptr, align 8
  store ptr %this, ptr %this.addr, align 8
  store i64 %init, ptr %init.addr, align 8
  store ptr %0, ptr %.addr, align 8
  %this1 = load ptr, ptr %this.addr, align 8
  %value_ = getelementptr inbounds %"class.grpc_core::RefCount", ptr %this1, i32 0, i32 0
  %1 = load i64, ptr %init.addr, align 8
  call void @_ZNSt6atomicIlEC2El(ptr noundef nonnull align 8 dereferenceable(8) %value_, i64 noundef %1) #3
  ret void
}

; Function Attrs: mustprogress nounwind uwtable
define linkonce_odr void @_ZNSt6atomicIlEC2El(ptr noundef nonnull align 8 dereferenceable(8) %this, i64 noundef %__i) unnamed_addr #5 comdat align 2 {
entry:
  %this.addr = alloca ptr, align 8
  %__i.addr = alloca i64, align 8
  store ptr %this, ptr %this.addr, align 8
  store i64 %__i, ptr %__i.addr, align 8
  %this1 = load ptr, ptr %this.addr, align 8
  %0 = load i64, ptr %__i.addr, align 8
  call void @_ZNSt13__atomic_baseIlEC2El(ptr noundef nonnull align 8 dereferenceable(8) %this1, i64 noundef %0) #3
  ret void
}

; Function Attrs: mustprogress nounwind uwtable
define linkonce_odr void @_ZNSt13__atomic_baseIlEC2El(ptr noundef nonnull align 8 dereferenceable(8) %this, i64 noundef %__i) unnamed_addr #5 comdat align 2 {
entry:
  %this.addr = alloca ptr, align 8
  %__i.addr = alloca i64, align 8
  store ptr %this, ptr %this.addr, align 8
  store i64 %__i, ptr %__i.addr, align 8
  %this1 = load ptr, ptr %this.addr, align 8
  %_M_i = getelementptr inbounds %"struct.std::__atomic_base.8", ptr %this1, i32 0, i32 0
  %0 = load i64, ptr %__i.addr, align 8
  store i64 %0, ptr %_M_i, align 8
  ret void
}

; Function Attrs: mustprogress nounwind uwtable
define linkonce_odr void @_ZNSt15__uniq_ptr_dataIN17grpc_auth_context9ExtensionESt14default_deleteIS1_ELb1ELb1EEC2Ev(ptr noundef nonnull align 8 dereferenceable(8) %this) unnamed_addr #5 comdat align 2 {
entry:
  %this.addr = alloca ptr, align 8
  store ptr %this, ptr %this.addr, align 8
  %this1 = load ptr, ptr %this.addr, align 8
  call void @_ZNSt15__uniq_ptr_implIN17grpc_auth_context9ExtensionESt14default_deleteIS1_EEC2Ev(ptr noundef nonnull align 8 dereferenceable(8) %this1) #3
  ret void
}

; Function Attrs: mustprogress nounwind uwtable
define linkonce_odr void @_ZNSt15__uniq_ptr_implIN17grpc_auth_context9ExtensionESt14default_deleteIS1_EEC2Ev(ptr noundef nonnull align 8 dereferenceable(8) %this) unnamed_addr #5 comdat align 2 {
entry:
  %this.addr = alloca ptr, align 8
  store ptr %this, ptr %this.addr, align 8
  %this1 = load ptr, ptr %this.addr, align 8
  %_M_t = getelementptr inbounds %"class.std::__uniq_ptr_impl", ptr %this1, i32 0, i32 0
  call void @_ZNSt5tupleIJPN17grpc_auth_context9ExtensionESt14default_deleteIS1_EEEC2ILb1ETnNSt9enable_ifIXclsr17_TupleConstraintsIXT_ES2_S4_EE37__is_implicitly_default_constructibleEEbE4typeELb1EEEv(ptr noundef nonnull align 8 dereferenceable(8) %_M_t) #3
  ret void
}

; Function Attrs: mustprogress nounwind uwtable
define linkonce_odr void @_ZNSt5tupleIJPN17grpc_auth_context9ExtensionESt14default_deleteIS1_EEEC2ILb1ETnNSt9enable_ifIXclsr17_TupleConstraintsIXT_ES2_S4_EE37__is_implicitly_default_constructibleEEbE4typeELb1EEEv(ptr noundef nonnull align 8 dereferenceable(8) %this) unnamed_addr #5 comdat align 2 personality ptr @__gxx_personality_v0 {
entry:
  %this.addr = alloca ptr, align 8
  store ptr %this, ptr %this.addr, align 8
  %this1 = load ptr, ptr %this.addr, align 8
  invoke void @_ZNSt11_Tuple_implILm0EJPN17grpc_auth_context9ExtensionESt14default_deleteIS1_EEEC2Ev(ptr noundef nonnull align 8 dereferenceable(8) %this1)
          to label %invoke.cont unwind label %terminate.lpad

invoke.cont:                                      ; preds = %entry
  ret void

terminate.lpad:                                   ; preds = %entry
  %0 = landingpad { ptr, i32 }
          catch ptr null
  %1 = extractvalue { ptr, i32 } %0, 0
  call void @__clang_call_terminate(ptr %1) #18
  unreachable
}

; Function Attrs: mustprogress uwtable
define linkonce_odr void @_ZNSt11_Tuple_implILm0EJPN17grpc_auth_context9ExtensionESt14default_deleteIS1_EEEC2Ev(ptr noundef nonnull align 8 dereferenceable(8) %this) unnamed_addr #4 comdat align 2 {
entry:
  %this.addr = alloca ptr, align 8
  store ptr %this, ptr %this.addr, align 8
  %this1 = load ptr, ptr %this.addr, align 8
  call void @_ZNSt11_Tuple_implILm1EJSt14default_deleteIN17grpc_auth_context9ExtensionEEEEC2Ev(ptr noundef nonnull align 1 dereferenceable(1) %this1)
  call void @_ZNSt10_Head_baseILm0EPN17grpc_auth_context9ExtensionELb0EEC2Ev(ptr noundef nonnull align 8 dereferenceable(8) %this1)
  ret void
}

; Function Attrs: mustprogress uwtable
define linkonce_odr void @_ZNSt11_Tuple_implILm1EJSt14default_deleteIN17grpc_auth_context9ExtensionEEEEC2Ev(ptr noundef nonnull align 1 dereferenceable(1) %this) unnamed_addr #4 comdat align 2 {
entry:
  %this.addr = alloca ptr, align 8
  store ptr %this, ptr %this.addr, align 8
  %this1 = load ptr, ptr %this.addr, align 8
  call void @_ZNSt10_Head_baseILm1ESt14default_deleteIN17grpc_auth_context9ExtensionEELb1EEC2Ev(ptr noundef nonnull align 1 dereferenceable(1) %this1)
  ret void
}

; Function Attrs: mustprogress nounwind uwtable
define linkonce_odr void @_ZNSt10_Head_baseILm0EPN17grpc_auth_context9ExtensionELb0EEC2Ev(ptr noundef nonnull align 8 dereferenceable(8) %this) unnamed_addr #5 comdat align 2 {
entry:
  %this.addr = alloca ptr, align 8
  store ptr %this, ptr %this.addr, align 8
  %this1 = load ptr, ptr %this.addr, align 8
  %_M_head_impl = getelementptr inbounds %"struct.std::_Head_base.10", ptr %this1, i32 0, i32 0
  store ptr null, ptr %_M_head_impl, align 8
  ret void
}

; Function Attrs: mustprogress nounwind uwtable
define linkonce_odr void @_ZNSt10_Head_baseILm1ESt14default_deleteIN17grpc_auth_context9ExtensionEELb1EEC2Ev(ptr noundef nonnull align 1 dereferenceable(1) %this) unnamed_addr #5 comdat align 2 {
entry:
  %this.addr = alloca ptr, align 8
  store ptr %this, ptr %this.addr, align 8
  ret void
}

; Function Attrs: mustprogress nounwind uwtable
define linkonce_odr void @_ZN9grpc_core13RefCountedPtrI24grpc_channel_credentialsEC2EOS2_(ptr noundef nonnull align 8 dereferenceable(8) %this, ptr noundef nonnull align 8 dereferenceable(8) %other) unnamed_addr #5 comdat align 2 {
entry:
  %this.addr = alloca ptr, align 8
  %other.addr = alloca ptr, align 8
  store ptr %this, ptr %this.addr, align 8
  store ptr %other, ptr %other.addr, align 8
  %this1 = load ptr, ptr %this.addr, align 8
  %value_ = getelementptr inbounds %"class.grpc_core::RefCountedPtr.1", ptr %this1, i32 0, i32 0
  store ptr null, ptr %value_, align 8
  %0 = load ptr, ptr %other.addr, align 8
  %value_2 = getelementptr inbounds %"class.grpc_core::RefCountedPtr.1", ptr %0, i32 0, i32 0
  %1 = load ptr, ptr %value_2, align 8
  %value_3 = getelementptr inbounds %"class.grpc_core::RefCountedPtr.1", ptr %this1, i32 0, i32 0
  store ptr %1, ptr %value_3, align 8
  %2 = load ptr, ptr %other.addr, align 8
  %value_4 = getelementptr inbounds %"class.grpc_core::RefCountedPtr.1", ptr %2, i32 0, i32 0
  store ptr null, ptr %value_4, align 8
  ret void
}

; Function Attrs: mustprogress nounwind uwtable
define linkonce_odr void @_ZN9grpc_core13RefCountedPtrI21grpc_call_credentialsEC2EOS2_(ptr noundef nonnull align 8 dereferenceable(8) %this, ptr noundef nonnull align 8 dereferenceable(8) %other) unnamed_addr #5 comdat align 2 {
entry:
  %this.addr = alloca ptr, align 8
  %other.addr = alloca ptr, align 8
  store ptr %this, ptr %this.addr, align 8
  store ptr %other, ptr %other.addr, align 8
  %this1 = load ptr, ptr %this.addr, align 8
  %value_ = getelementptr inbounds %"class.grpc_core::RefCountedPtr.2", ptr %this1, i32 0, i32 0
  store ptr null, ptr %value_, align 8
  %0 = load ptr, ptr %other.addr, align 8
  %value_2 = getelementptr inbounds %"class.grpc_core::RefCountedPtr.2", ptr %0, i32 0, i32 0
  %1 = load ptr, ptr %value_2, align 8
  %value_3 = getelementptr inbounds %"class.grpc_core::RefCountedPtr.2", ptr %this1, i32 0, i32 0
  store ptr %1, ptr %value_3, align 8
  %2 = load ptr, ptr %other.addr, align 8
  %value_4 = getelementptr inbounds %"class.grpc_core::RefCountedPtr.2", ptr %2, i32 0, i32 0
  store ptr null, ptr %value_4, align 8
  ret void
}

; Function Attrs: mustprogress uwtable
define internal void @_ZN12_GLOBAL__N_136grpc_alts_channel_security_connectorC2EN9grpc_core13RefCountedPtrI24grpc_channel_credentialsEENS2_I21grpc_call_credentialsEEPKc(ptr noundef nonnull align 8 dereferenceable(64) %this, ptr noundef %channel_creds, ptr noundef %request_metadata_creds, ptr noundef %target_name) unnamed_addr #4 align 2 personality ptr @__gxx_personality_v0 {
entry:
  %this.addr = alloca ptr, align 8
  %channel_creds.indirect_addr = alloca ptr, align 8
  %request_metadata_creds.indirect_addr = alloca ptr, align 8
  %target_name.addr = alloca ptr, align 8
  %agg.tmp = alloca %"class.std::basic_string_view", align 8
  %agg.tmp2 = alloca %"class.grpc_core::RefCountedPtr.1", align 8
  %agg.tmp3 = alloca %"class.grpc_core::RefCountedPtr.2", align 8
  %exn.slot = alloca ptr, align 8
  %ehselector.slot = alloca i32, align 4
  store ptr %this, ptr %this.addr, align 8
  store ptr %channel_creds, ptr %channel_creds.indirect_addr, align 8
  store ptr %request_metadata_creds, ptr %request_metadata_creds.indirect_addr, align 8
  store ptr %target_name, ptr %target_name.addr, align 8
  %this1 = load ptr, ptr %this.addr, align 8
  call void @_ZNSt17basic_string_viewIcSt11char_traitsIcEEC2EPKc(ptr noundef nonnull align 8 dereferenceable(16) %agg.tmp, ptr noundef @.str.24) #3
  call void @_ZN9grpc_core13RefCountedPtrI24grpc_channel_credentialsEC2EOS2_(ptr noundef nonnull align 8 dereferenceable(8) %agg.tmp2, ptr noundef nonnull align 8 dereferenceable(8) %channel_creds) #3
  call void @_ZN9grpc_core13RefCountedPtrI21grpc_call_credentialsEC2EOS2_(ptr noundef nonnull align 8 dereferenceable(8) %agg.tmp3, ptr noundef nonnull align 8 dereferenceable(8) %request_metadata_creds) #3
  %0 = getelementptr inbounds { i64, ptr }, ptr %agg.tmp, i32 0, i32 0
  %1 = load i64, ptr %0, align 8
  %2 = getelementptr inbounds { i64, ptr }, ptr %agg.tmp, i32 0, i32 1
  %3 = load ptr, ptr %2, align 8
  invoke void @_ZN31grpc_channel_security_connectorC2ESt17basic_string_viewIcSt11char_traitsIcEEN9grpc_core13RefCountedPtrI24grpc_channel_credentialsEENS5_I21grpc_call_credentialsEE(ptr noundef nonnull align 8 dereferenceable(56) %this1, i64 %1, ptr %3, ptr noundef %agg.tmp2, ptr noundef %agg.tmp3)
          to label %invoke.cont unwind label %lpad

invoke.cont:                                      ; preds = %entry
  call void @_ZN9grpc_core13RefCountedPtrI21grpc_call_credentialsED2Ev(ptr noundef nonnull align 8 dereferenceable(8) %agg.tmp3) #3
  call void @_ZN9grpc_core13RefCountedPtrI24grpc_channel_credentialsED2Ev(ptr noundef nonnull align 8 dereferenceable(8) %agg.tmp2) #3
  store ptr getelementptr inbounds ({ [10 x ptr] }, ptr @_ZTVN12_GLOBAL__N_136grpc_alts_channel_security_connectorE, i32 0, inrange i32 0, i32 2), ptr %this1, align 8
  %target_name_ = getelementptr inbounds %"class.(anonymous namespace)::grpc_alts_channel_security_connector", ptr %this1, i32 0, i32 1
  %4 = load ptr, ptr %target_name.addr, align 8
  %call = invoke ptr @gpr_strdup(ptr noundef %4)
          to label %invoke.cont5 unwind label %lpad4

invoke.cont5:                                     ; preds = %invoke.cont
  store ptr %call, ptr %target_name_, align 8
  ret void

lpad:                                             ; preds = %entry
  %5 = landingpad { ptr, i32 }
          cleanup
  %6 = extractvalue { ptr, i32 } %5, 0
  store ptr %6, ptr %exn.slot, align 8
  %7 = extractvalue { ptr, i32 } %5, 1
  store i32 %7, ptr %ehselector.slot, align 4
  call void @_ZN9grpc_core13RefCountedPtrI21grpc_call_credentialsED2Ev(ptr noundef nonnull align 8 dereferenceable(8) %agg.tmp3) #3
  call void @_ZN9grpc_core13RefCountedPtrI24grpc_channel_credentialsED2Ev(ptr noundef nonnull align 8 dereferenceable(8) %agg.tmp2) #3
  br label %eh.resume

lpad4:                                            ; preds = %invoke.cont
  %8 = landingpad { ptr, i32 }
          cleanup
  %9 = extractvalue { ptr, i32 } %8, 0
  store ptr %9, ptr %exn.slot, align 8
  %10 = extractvalue { ptr, i32 } %8, 1
  store i32 %10, ptr %ehselector.slot, align 4
  call void @_ZN31grpc_channel_security_connectorD2Ev(ptr noundef nonnull align 8 dereferenceable(56) %this1) #3
  br label %eh.resume

eh.resume:                                        ; preds = %lpad4, %lpad
  %exn = load ptr, ptr %exn.slot, align 8
  %sel = load i32, ptr %ehselector.slot, align 4
  %lpad.val = insertvalue { ptr, i32 } poison, ptr %exn, 0
  %lpad.val6 = insertvalue { ptr, i32 } %lpad.val, i32 %sel, 1
  resume { ptr, i32 } %lpad.val6
}

; Function Attrs: mustprogress nounwind uwtable
define internal void @_ZN9grpc_core13RefCountedPtrIN12_GLOBAL__N_136grpc_alts_channel_security_connectorEEC2IS2_EEPT_(ptr noundef nonnull align 8 dereferenceable(8) %this, ptr noundef %value) unnamed_addr #5 align 2 {
entry:
  %this.addr = alloca ptr, align 8
  %value.addr = alloca ptr, align 8
  store ptr %this, ptr %this.addr, align 8
  store ptr %value, ptr %value.addr, align 8
  %this1 = load ptr, ptr %this.addr, align 8
  %value_ = getelementptr inbounds %"class.grpc_core::RefCountedPtr.3", ptr %this1, i32 0, i32 0
  %0 = load ptr, ptr %value.addr, align 8
  store ptr %0, ptr %value_, align 8
  ret void
}

; Function Attrs: mustprogress nounwind uwtable
define linkonce_odr void @_ZN9grpc_core13RefCountedPtrI21grpc_call_credentialsED2Ev(ptr noundef nonnull align 8 dereferenceable(8) %this) unnamed_addr #5 comdat align 2 personality ptr @__gxx_personality_v0 {
entry:
  %this.addr = alloca ptr, align 8
  store ptr %this, ptr %this.addr, align 8
  %this1 = load ptr, ptr %this.addr, align 8
  %value_ = getelementptr inbounds %"class.grpc_core::RefCountedPtr.2", ptr %this1, i32 0, i32 0
  %0 = load ptr, ptr %value_, align 8
  %cmp = icmp ne ptr %0, null
  br i1 %cmp, label %if.then, label %if.end

if.then:                                          ; preds = %entry
  %value_2 = getelementptr inbounds %"class.grpc_core::RefCountedPtr.2", ptr %this1, i32 0, i32 0
  %1 = load ptr, ptr %value_2, align 8
  invoke void @_ZNK9grpc_core10RefCountedI21grpc_call_credentialsNS_19PolymorphicRefCountENS_11UnrefDeleteEE5UnrefEv(ptr noundef nonnull align 8 dereferenceable(16) %1)
          to label %invoke.cont unwind label %terminate.lpad

invoke.cont:                                      ; preds = %if.then
  br label %if.end

if.end:                                           ; preds = %invoke.cont, %entry
  ret void

terminate.lpad:                                   ; preds = %if.then
  %2 = landingpad { ptr, i32 }
          catch ptr null
  %3 = extractvalue { ptr, i32 } %2, 0
  call void @__clang_call_terminate(ptr %3) #18
  unreachable
}

; Function Attrs: mustprogress nounwind uwtable
define linkonce_odr void @_ZN9grpc_core13RefCountedPtrI24grpc_channel_credentialsED2Ev(ptr noundef nonnull align 8 dereferenceable(8) %this) unnamed_addr #5 comdat align 2 personality ptr @__gxx_personality_v0 {
entry:
  %this.addr = alloca ptr, align 8
  store ptr %this, ptr %this.addr, align 8
  %this1 = load ptr, ptr %this.addr, align 8
  %value_ = getelementptr inbounds %"class.grpc_core::RefCountedPtr.1", ptr %this1, i32 0, i32 0
  %0 = load ptr, ptr %value_, align 8
  %cmp = icmp ne ptr %0, null
  br i1 %cmp, label %if.then, label %if.end

if.then:                                          ; preds = %entry
  %value_2 = getelementptr inbounds %"class.grpc_core::RefCountedPtr.1", ptr %this1, i32 0, i32 0
  %1 = load ptr, ptr %value_2, align 8
  invoke void @_ZNK9grpc_core10RefCountedI24grpc_channel_credentialsNS_19PolymorphicRefCountENS_11UnrefDeleteEE5UnrefEv(ptr noundef nonnull align 8 dereferenceable(16) %1)
          to label %invoke.cont unwind label %terminate.lpad

invoke.cont:                                      ; preds = %if.then
  br label %if.end

if.end:                                           ; preds = %invoke.cont, %entry
  ret void

terminate.lpad:                                   ; preds = %if.then
  %2 = landingpad { ptr, i32 }
          catch ptr null
  %3 = extractvalue { ptr, i32 } %2, 0
  call void @__clang_call_terminate(ptr %3) #18
  unreachable
}

; Function Attrs: mustprogress nounwind uwtable
define linkonce_odr void @_ZNSt17basic_string_viewIcSt11char_traitsIcEEC2EPKc(ptr noundef nonnull align 8 dereferenceable(16) %this, ptr noundef nonnull %__str) unnamed_addr #5 comdat align 2 personality ptr @__gxx_personality_v0 {
entry:
  %this.addr = alloca ptr, align 8
  %__str.addr = alloca ptr, align 8
  store ptr %this, ptr %this.addr, align 8
  store ptr %__str, ptr %__str.addr, align 8
  %this1 = load ptr, ptr %this.addr, align 8
  %_M_len = getelementptr inbounds %"class.std::basic_string_view", ptr %this1, i32 0, i32 0
  %0 = load ptr, ptr %__str.addr, align 8
  %call = invoke noundef i64 @_ZNSt11char_traitsIcE6lengthEPKc(ptr noundef %0)
          to label %invoke.cont unwind label %terminate.lpad

invoke.cont:                                      ; preds = %entry
  store i64 %call, ptr %_M_len, align 8
  %_M_str = getelementptr inbounds %"class.std::basic_string_view", ptr %this1, i32 0, i32 1
  %1 = load ptr, ptr %__str.addr, align 8
  store ptr %1, ptr %_M_str, align 8
  ret void

terminate.lpad:                                   ; preds = %entry
  %2 = landingpad { ptr, i32 }
          catch ptr null
  %3 = extractvalue { ptr, i32 } %2, 0
  call void @__clang_call_terminate(ptr %3) #18
  unreachable
}

declare void @_ZN31grpc_channel_security_connectorC2ESt17basic_string_viewIcSt11char_traitsIcEEN9grpc_core13RefCountedPtrI24grpc_channel_credentialsEENS5_I21grpc_call_credentialsEE(ptr noundef nonnull align 8 dereferenceable(56), i64, ptr, ptr noundef, ptr noundef) unnamed_addr #1

declare ptr @gpr_strdup(ptr noundef) #1

; Function Attrs: mustprogress nounwind uwtable
define linkonce_odr void @_ZN31grpc_channel_security_connectorD2Ev(ptr noundef nonnull align 8 dereferenceable(56) %this) unnamed_addr #5 comdat align 2 {
entry:
  %this.addr = alloca ptr, align 8
  store ptr %this, ptr %this.addr, align 8
  %this1 = load ptr, ptr %this.addr, align 8
  store ptr getelementptr inbounds ({ [10 x ptr] }, ptr @_ZTV31grpc_channel_security_connector, i32 0, inrange i32 0, i32 2), ptr %this1, align 8
  %channel_args_ = getelementptr inbounds %class.grpc_channel_security_connector, ptr %this1, i32 0, i32 3
  call void @_ZNSt10unique_ptrI17grpc_channel_argsSt14default_deleteIS0_EED2Ev(ptr noundef nonnull align 8 dereferenceable(8) %channel_args_) #3
  %request_metadata_creds_ = getelementptr inbounds %class.grpc_channel_security_connector, ptr %this1, i32 0, i32 2
  call void @_ZN9grpc_core13RefCountedPtrI21grpc_call_credentialsED2Ev(ptr noundef nonnull align 8 dereferenceable(8) %request_metadata_creds_) #3
  %channel_creds_ = getelementptr inbounds %class.grpc_channel_security_connector, ptr %this1, i32 0, i32 1
  call void @_ZN9grpc_core13RefCountedPtrI24grpc_channel_credentialsED2Ev(ptr noundef nonnull align 8 dereferenceable(8) %channel_creds_) #3
  call void @_ZN23grpc_security_connectorD2Ev(ptr noundef nonnull align 8 dereferenceable(32) %this1) #3
  ret void
}

; Function Attrs: mustprogress nounwind uwtable
define internal void @_ZN12_GLOBAL__N_136grpc_alts_channel_security_connectorD2Ev(ptr noundef nonnull align 8 dereferenceable(64) %this) unnamed_addr #5 align 2 personality ptr @__gxx_personality_v0 {
entry:
  %this.addr = alloca ptr, align 8
  store ptr %this, ptr %this.addr, align 8
  %this1 = load ptr, ptr %this.addr, align 8
  %target_name_ = getelementptr inbounds %"class.(anonymous namespace)::grpc_alts_channel_security_connector", ptr %this1, i32 0, i32 1
  %0 = load ptr, ptr %target_name_, align 8
  invoke void @gpr_free(ptr noundef %0)
          to label %invoke.cont unwind label %terminate.lpad

invoke.cont:                                      ; preds = %entry
  call void @_ZN31grpc_channel_security_connectorD2Ev(ptr noundef nonnull align 8 dereferenceable(56) %this1) #3
  ret void

terminate.lpad:                                   ; preds = %entry
  %1 = landingpad { ptr, i32 }
          catch ptr null
  %2 = extractvalue { ptr, i32 } %1, 0
  call void @__clang_call_terminate(ptr %2) #18
  unreachable
}

; Function Attrs: mustprogress nounwind uwtable
define internal void @_ZN12_GLOBAL__N_136grpc_alts_channel_security_connectorD0Ev(ptr noundef nonnull align 8 dereferenceable(64) %this) unnamed_addr #5 align 2 {
entry:
  %this.addr = alloca ptr, align 8
  store ptr %this, ptr %this.addr, align 8
  %this1 = load ptr, ptr %this.addr, align 8
  call void @_ZN12_GLOBAL__N_136grpc_alts_channel_security_connectorD2Ev(ptr noundef nonnull align 8 dereferenceable(64) %this1) #3
  call void @_ZdlPv(ptr noundef %this1) #17
  ret void
}

; Function Attrs: mustprogress uwtable
define internal void @_ZN12_GLOBAL__N_136grpc_alts_channel_security_connector10check_peerE8tsi_peerP13grpc_endpointRKN9grpc_core11ChannelArgsEPNS4_13RefCountedPtrI17grpc_auth_contextEEP12grpc_closure(ptr noundef nonnull align 8 dereferenceable(64) %this, ptr %peer.coerce0, i64 %peer.coerce1, ptr noundef %0, ptr noundef nonnull align 8 dereferenceable(8) %1, ptr noundef %auth_context, ptr noundef %on_peer_checked) unnamed_addr #4 align 2 {
entry:
  %peer = alloca %struct.tsi_peer, align 8
  %this.addr = alloca ptr, align 8
  %.addr = alloca ptr, align 8
  %.addr1 = alloca ptr, align 8
  %auth_context.addr = alloca ptr, align 8
  %on_peer_checked.addr = alloca ptr, align 8
  %agg.tmp = alloca %struct.tsi_peer, align 8
  %2 = getelementptr inbounds { ptr, i64 }, ptr %peer, i32 0, i32 0
  store ptr %peer.coerce0, ptr %2, align 8
  %3 = getelementptr inbounds { ptr, i64 }, ptr %peer, i32 0, i32 1
  store i64 %peer.coerce1, ptr %3, align 8
  store ptr %this, ptr %this.addr, align 8
  store ptr %0, ptr %.addr, align 8
  store ptr %1, ptr %.addr1, align 8
  store ptr %auth_context, ptr %auth_context.addr, align 8
  store ptr %on_peer_checked, ptr %on_peer_checked.addr, align 8
  call void @llvm.memcpy.p0.p0.i64(ptr align 8 %agg.tmp, ptr align 8 %peer, i64 16, i1 false)
  %4 = load ptr, ptr %auth_context.addr, align 8
  %5 = load ptr, ptr %on_peer_checked.addr, align 8
  %6 = getelementptr inbounds { ptr, i64 }, ptr %agg.tmp, i32 0, i32 0
  %7 = load ptr, ptr %6, align 8
  %8 = getelementptr inbounds { ptr, i64 }, ptr %agg.tmp, i32 0, i32 1
  %9 = load i64, ptr %8, align 8
  call void @_ZN12_GLOBAL__N_115alts_check_peerE8tsi_peerPN9grpc_core13RefCountedPtrI17grpc_auth_contextEEP12grpc_closure(ptr %7, i64 %9, ptr noundef %4, ptr noundef %5)
  ret void
}

; Function Attrs: mustprogress nounwind uwtable
define internal void @_ZN12_GLOBAL__N_136grpc_alts_channel_security_connector17cancel_check_peerEP12grpc_closureN4absl12lts_202308026StatusE(ptr noundef nonnull align 8 dereferenceable(64) %this, ptr noundef %0, ptr noundef %1) unnamed_addr #5 align 2 {
entry:
  %this.addr = alloca ptr, align 8
  %.addr = alloca ptr, align 8
  %.indirect_addr = alloca ptr, align 8
  store ptr %this, ptr %this.addr, align 8
  store ptr %0, ptr %.addr, align 8
  store ptr %1, ptr %.indirect_addr, align 8
  ret void
}

; Function Attrs: mustprogress uwtable
define internal noundef i32 @_ZNK12_GLOBAL__N_136grpc_alts_channel_security_connector3cmpEPK23grpc_security_connector(ptr noundef nonnull align 8 dereferenceable(64) %this, ptr noundef %other_sc) unnamed_addr #4 align 2 {
entry:
  %retval = alloca i32, align 4
  %this.addr = alloca ptr, align 8
  %other_sc.addr = alloca ptr, align 8
  %other = alloca ptr, align 8
  %c = alloca i32, align 4
  store ptr %this, ptr %this.addr, align 8
  store ptr %other_sc, ptr %other_sc.addr, align 8
  %this1 = load ptr, ptr %this.addr, align 8
  %0 = load ptr, ptr %other_sc.addr, align 8
  store ptr %0, ptr %other, align 8
  %1 = load ptr, ptr %other, align 8
  %call = call noundef i32 @_ZNK31grpc_channel_security_connector30channel_security_connector_cmpEPKS_(ptr noundef nonnull align 8 dereferenceable(56) %this1, ptr noundef %1)
  store i32 %call, ptr %c, align 4
  %2 = load i32, ptr %c, align 4
  %cmp = icmp ne i32 %2, 0
  br i1 %cmp, label %if.then, label %if.end

if.then:                                          ; preds = %entry
  %3 = load i32, ptr %c, align 4
  store i32 %3, ptr %retval, align 4
  br label %return

if.end:                                           ; preds = %entry
  %target_name_ = getelementptr inbounds %"class.(anonymous namespace)::grpc_alts_channel_security_connector", ptr %this1, i32 0, i32 1
  %4 = load ptr, ptr %target_name_, align 8
  %5 = load ptr, ptr %other, align 8
  %target_name_2 = getelementptr inbounds %"class.(anonymous namespace)::grpc_alts_channel_security_connector", ptr %5, i32 0, i32 1
  %6 = load ptr, ptr %target_name_2, align 8
  %call3 = call i32 @strcmp(ptr noundef %4, ptr noundef %6) #14
  store i32 %call3, ptr %retval, align 4
  br label %return

return:                                           ; preds = %if.end, %if.then
  %7 = load i32, ptr %retval, align 4
  ret i32 %7
}

declare void @_ZNK31grpc_channel_security_connector4typeEv(ptr sret(%"class.grpc_core::UniqueTypeName") align 8, ptr noundef nonnull align 8 dereferenceable(56)) unnamed_addr #1

; Function Attrs: mustprogress uwtable
define internal void @_ZN12_GLOBAL__N_136grpc_alts_channel_security_connector13CheckCallHostESt17basic_string_viewIcSt11char_traitsIcEEP17grpc_auth_context(ptr noalias sret(%"class.grpc_core::ArenaPromise") align 16 %agg.result, ptr noundef nonnull align 8 dereferenceable(64) %this, i64 %.coerce0, ptr %.coerce1, ptr noundef %0) unnamed_addr #4 align 2 {
entry:
  %result.ptr = alloca ptr, align 8
  %1 = alloca %"class.std::basic_string_view", align 8
  %this.addr = alloca ptr, align 8
  %.addr = alloca ptr, align 8
  %ref.tmp = alloca %"struct.grpc_core::ImmediateOkStatus", align 1
  store ptr %agg.result, ptr %result.ptr, align 8
  %2 = getelementptr inbounds { i64, ptr }, ptr %1, i32 0, i32 0
  store i64 %.coerce0, ptr %2, align 8
  %3 = getelementptr inbounds { i64, ptr }, ptr %1, i32 0, i32 1
  store ptr %.coerce1, ptr %3, align 8
  store ptr %this, ptr %this.addr, align 8
  store ptr %0, ptr %.addr, align 8
  call void @_ZN9grpc_core12ArenaPromiseIN4absl12lts_202308026StatusEEC2INS_17ImmediateOkStatusEvEEOT_(ptr noundef nonnull align 16 dereferenceable(32) %agg.result, ptr noundef nonnull align 1 dereferenceable(1) %ref.tmp)
  ret void
}

; Function Attrs: mustprogress uwtable
define internal void @_ZN12_GLOBAL__N_136grpc_alts_channel_security_connector15add_handshakersERKN9grpc_core11ChannelArgsEP16grpc_pollset_setPNS1_16HandshakeManagerE(ptr noundef nonnull align 8 dereferenceable(64) %this, ptr noundef nonnull align 8 dereferenceable(8) %args, ptr noundef %interested_parties, ptr noundef %handshake_manager) unnamed_addr #4 align 2 personality ptr @__gxx_personality_v0 {
entry:
  %this.addr = alloca ptr, align 8
  %args.addr = alloca ptr, align 8
  %interested_parties.addr = alloca ptr, align 8
  %handshake_manager.addr = alloca ptr, align 8
  %handshaker = alloca ptr, align 8
  %creds = alloca ptr, align 8
  %user_specified_max_frame_size = alloca i64, align 8
  %ref.tmp = alloca i32, align 4
  %ref.tmp2 = alloca i32, align 4
  %ref.tmp3 = alloca %"class.std::optional", align 4
  %agg.tmp = alloca %"class.std::basic_string_view", align 8
  %ref.tmp6 = alloca i32, align 4
  %agg.tmp13 = alloca %"class.grpc_core::RefCountedPtr.45", align 8
  %exn.slot = alloca ptr, align 8
  %ehselector.slot = alloca i32, align 4
  store ptr %this, ptr %this.addr, align 8
  store ptr %args, ptr %args.addr, align 8
  store ptr %interested_parties, ptr %interested_parties.addr, align 8
  store ptr %handshake_manager, ptr %handshake_manager.addr, align 8
  %this1 = load ptr, ptr %this.addr, align 8
  store ptr null, ptr %handshaker, align 8
  %call = call noundef ptr @_ZNK31grpc_channel_security_connector13channel_credsEv(ptr noundef nonnull align 8 dereferenceable(56) %this1)
  store ptr %call, ptr %creds, align 8
  store i32 0, ptr %ref.tmp, align 4
  %0 = load ptr, ptr %args.addr, align 8
  call void @_ZNSt17basic_string_viewIcSt11char_traitsIcEEC2EPKc(ptr noundef nonnull align 8 dereferenceable(16) %agg.tmp, ptr noundef @.str.26) #3
  %1 = getelementptr inbounds { i64, ptr }, ptr %agg.tmp, i32 0, i32 0
  %2 = load i64, ptr %1, align 8
  %3 = getelementptr inbounds { i64, ptr }, ptr %agg.tmp, i32 0, i32 1
  %4 = load ptr, ptr %3, align 8
  %call4 = call i64 @_ZNK9grpc_core11ChannelArgs6GetIntESt17basic_string_viewIcSt11char_traitsIcEE(ptr noundef nonnull align 8 dereferenceable(8) %0, i64 %2, ptr %4)
  %coerce.dive = getelementptr inbounds %"class.std::optional", ptr %ref.tmp3, i32 0, i32 0
  %coerce.dive5 = getelementptr inbounds %"struct.std::_Optional_base", ptr %coerce.dive, i32 0, i32 0
  store i64 %call4, ptr %coerce.dive5, align 4
  store i32 0, ptr %ref.tmp6, align 4
  %call7 = call noundef i32 @_ZNOSt8optionalIiE8value_orIiEEiOT_(ptr noundef nonnull align 4 dereferenceable(8) %ref.tmp3, ptr noundef nonnull align 4 dereferenceable(4) %ref.tmp6)
  store i32 %call7, ptr %ref.tmp2, align 4
  %call8 = call noundef nonnull align 4 dereferenceable(4) ptr @_ZSt3maxIiERKT_S2_S2_(ptr noundef nonnull align 4 dereferenceable(4) %ref.tmp, ptr noundef nonnull align 4 dereferenceable(4) %ref.tmp2)
  %5 = load i32, ptr %call8, align 4
  %conv = sext i32 %5 to i64
  store i64 %conv, ptr %user_specified_max_frame_size, align 8
  br label %do.body

do.body:                                          ; preds = %entry
  %6 = load ptr, ptr %creds, align 8
  %call9 = call noundef ptr @_ZNK21grpc_alts_credentials7optionsEv(ptr noundef nonnull align 8 dereferenceable(32) %6)
  %target_name_ = getelementptr inbounds %"class.(anonymous namespace)::grpc_alts_channel_security_connector", ptr %this1, i32 0, i32 1
  %7 = load ptr, ptr %target_name_, align 8
  %8 = load ptr, ptr %creds, align 8
  %call10 = call noundef ptr @_ZNK21grpc_alts_credentials22handshaker_service_urlEv(ptr noundef nonnull align 8 dereferenceable(32) %8)
  %9 = load ptr, ptr %interested_parties.addr, align 8
  %10 = load i64, ptr %user_specified_max_frame_size, align 8
  %call11 = call noundef i32 @_Z26alts_tsi_handshaker_createPK29grpc_alts_credentials_optionsPKcS3_bP16grpc_pollset_setPP14tsi_handshakerm(ptr noundef %call9, ptr noundef %7, ptr noundef %call10, i1 noundef zeroext true, ptr noundef %9, ptr noundef %handshaker, i64 noundef %10)
  %cmp = icmp eq i32 %call11, 0
  %lnot = xor i1 %cmp, true
  br i1 %lnot, label %if.then, label %if.end

if.then:                                          ; preds = %do.body
  call void @gpr_assertion_failed(ptr noundef @.str, i32 noundef 110, ptr noundef @.str.27) #15
  unreachable

if.end:                                           ; preds = %do.body
  br label %do.end

do.end:                                           ; preds = %if.end
  %11 = load ptr, ptr %handshake_manager.addr, align 8
  %12 = load ptr, ptr %handshaker, align 8
  %13 = load ptr, ptr %args.addr, align 8
  call void @_ZN9grpc_core24SecurityHandshakerCreateEP14tsi_handshakerP23grpc_security_connectorRKNS_11ChannelArgsE(ptr sret(%"class.grpc_core::RefCountedPtr.45") align 8 %agg.tmp13, ptr noundef %12, ptr noundef %this1, ptr noundef nonnull align 8 dereferenceable(8) %13)
  invoke void @_ZN9grpc_core16HandshakeManager3AddENS_13RefCountedPtrINS_10HandshakerEEE(ptr noundef nonnull align 8 dereferenceable(216) %11, ptr noundef %agg.tmp13)
          to label %invoke.cont unwind label %lpad

invoke.cont:                                      ; preds = %do.end
  call void @_ZN9grpc_core13RefCountedPtrINS_10HandshakerEED2Ev(ptr noundef nonnull align 8 dereferenceable(8) %agg.tmp13) #3
  ret void

lpad:                                             ; preds = %do.end
  %14 = landingpad { ptr, i32 }
          cleanup
  %15 = extractvalue { ptr, i32 } %14, 0
  store ptr %15, ptr %exn.slot, align 8
  %16 = extractvalue { ptr, i32 } %14, 1
  store i32 %16, ptr %ehselector.slot, align 4
  call void @_ZN9grpc_core13RefCountedPtrINS_10HandshakerEED2Ev(ptr noundef nonnull align 8 dereferenceable(8) %agg.tmp13) #3
  br label %eh.resume

eh.resume:                                        ; preds = %lpad
  %exn = load ptr, ptr %exn.slot, align 8
  %sel = load i32, ptr %ehselector.slot, align 4
  %lpad.val = insertvalue { ptr, i32 } poison, ptr %exn, 0
  %lpad.val14 = insertvalue { ptr, i32 } %lpad.val, i32 %sel, 1
  resume { ptr, i32 } %lpad.val14
}

; Function Attrs: mustprogress nounwind uwtable
define linkonce_odr noundef i64 @_ZNSt11char_traitsIcE6lengthEPKc(ptr noundef %__s) #5 comdat align 2 {
entry:
  %__s.addr = alloca ptr, align 8
  store ptr %__s, ptr %__s.addr, align 8
  %0 = load ptr, ptr %__s.addr, align 8
  %call = call i64 @strlen(ptr noundef %0) #3
  ret i64 %call
}

; Function Attrs: nounwind
declare i64 @strlen(ptr noundef) #2

; Function Attrs: mustprogress nounwind uwtable
define linkonce_odr void @_ZNSt10unique_ptrI17grpc_channel_argsSt14default_deleteIS0_EED2Ev(ptr noundef nonnull align 8 dereferenceable(8) %this) unnamed_addr #5 comdat align 2 personality ptr @__gxx_personality_v0 {
entry:
  %this.addr = alloca ptr, align 8
  %__ptr = alloca ptr, align 8
  store ptr %this, ptr %this.addr, align 8
  %this1 = load ptr, ptr %this.addr, align 8
  %_M_t = getelementptr inbounds %"class.std::unique_ptr.12", ptr %this1, i32 0, i32 0
  %call = call noundef nonnull align 8 dereferenceable(8) ptr @_ZNSt15__uniq_ptr_implI17grpc_channel_argsSt14default_deleteIS0_EE6_M_ptrEv(ptr noundef nonnull align 8 dereferenceable(8) %_M_t) #3
  store ptr %call, ptr %__ptr, align 8
  %0 = load ptr, ptr %__ptr, align 8
  %1 = load ptr, ptr %0, align 8
  %cmp = icmp ne ptr %1, null
  br i1 %cmp, label %if.then, label %if.end

if.then:                                          ; preds = %entry
  %call2 = call noundef nonnull align 1 dereferenceable(1) ptr @_ZNSt10unique_ptrI17grpc_channel_argsSt14default_deleteIS0_EE11get_deleterEv(ptr noundef nonnull align 8 dereferenceable(8) %this1) #3
  %2 = load ptr, ptr %__ptr, align 8
  %3 = load ptr, ptr %2, align 8
  invoke void @_ZNKSt14default_deleteI17grpc_channel_argsEclEPS0_(ptr noundef nonnull align 1 dereferenceable(1) %call2, ptr noundef %3)
          to label %invoke.cont unwind label %terminate.lpad

invoke.cont:                                      ; preds = %if.then
  br label %if.end

if.end:                                           ; preds = %invoke.cont, %entry
  %4 = load ptr, ptr %__ptr, align 8
  store ptr null, ptr %4, align 8
  ret void

terminate.lpad:                                   ; preds = %if.then
  %5 = landingpad { ptr, i32 }
          catch ptr null
  %6 = extractvalue { ptr, i32 } %5, 0
  call void @__clang_call_terminate(ptr %6) #18
  unreachable
}

; Function Attrs: mustprogress nounwind uwtable
define linkonce_odr void @_ZN23grpc_security_connectorD2Ev(ptr noundef nonnull align 8 dereferenceable(32) %this) unnamed_addr #5 comdat align 2 {
entry:
  %this.addr = alloca ptr, align 8
  store ptr %this, ptr %this.addr, align 8
  %this1 = load ptr, ptr %this.addr, align 8
  call void @_ZN9grpc_core10RefCountedI23grpc_security_connectorNS_19PolymorphicRefCountENS_11UnrefDeleteEED2Ev(ptr noundef nonnull align 8 dereferenceable(16) %this1) #3
  ret void
}

; Function Attrs: mustprogress nounwind uwtable
define linkonce_odr noundef nonnull align 8 dereferenceable(8) ptr @_ZNSt15__uniq_ptr_implI17grpc_channel_argsSt14default_deleteIS0_EE6_M_ptrEv(ptr noundef nonnull align 8 dereferenceable(8) %this) #5 comdat align 2 {
entry:
  %this.addr = alloca ptr, align 8
  store ptr %this, ptr %this.addr, align 8
  %this1 = load ptr, ptr %this.addr, align 8
  %_M_t = getelementptr inbounds %"class.std::__uniq_ptr_impl.14", ptr %this1, i32 0, i32 0
  %call = call noundef nonnull align 8 dereferenceable(8) ptr @_ZSt3getILm0EJP17grpc_channel_argsSt14default_deleteIS0_EEERNSt13tuple_elementIXT_ESt5tupleIJDpT0_EEE4typeERS8_(ptr noundef nonnull align 8 dereferenceable(8) %_M_t) #3
  ret ptr %call
}

; Function Attrs: mustprogress nounwind uwtable
define linkonce_odr noundef nonnull align 1 dereferenceable(1) ptr @_ZNSt10unique_ptrI17grpc_channel_argsSt14default_deleteIS0_EE11get_deleterEv(ptr noundef nonnull align 8 dereferenceable(8) %this) #5 comdat align 2 {
entry:
  %this.addr = alloca ptr, align 8
  store ptr %this, ptr %this.addr, align 8
  %this1 = load ptr, ptr %this.addr, align 8
  %_M_t = getelementptr inbounds %"class.std::unique_ptr.12", ptr %this1, i32 0, i32 0
  %call = call noundef nonnull align 1 dereferenceable(1) ptr @_ZNSt15__uniq_ptr_implI17grpc_channel_argsSt14default_deleteIS0_EE10_M_deleterEv(ptr noundef nonnull align 8 dereferenceable(8) %_M_t) #3
  ret ptr %call
}

; Function Attrs: mustprogress nounwind uwtable
define linkonce_odr void @_ZNKSt14default_deleteI17grpc_channel_argsEclEPS0_(ptr noundef nonnull align 1 dereferenceable(1) %this, ptr noundef %__ptr) #5 comdat align 2 {
entry:
  %this.addr = alloca ptr, align 8
  %__ptr.addr = alloca ptr, align 8
  store ptr %this, ptr %this.addr, align 8
  store ptr %__ptr, ptr %__ptr.addr, align 8
  %0 = load ptr, ptr %__ptr.addr, align 8
  %isnull = icmp eq ptr %0, null
  br i1 %isnull, label %delete.end, label %delete.notnull

delete.notnull:                                   ; preds = %entry
  call void @_ZdlPv(ptr noundef %0) #17
  br label %delete.end

delete.end:                                       ; preds = %delete.notnull, %entry
  ret void
}

; Function Attrs: mustprogress nounwind uwtable
define linkonce_odr noundef nonnull align 8 dereferenceable(8) ptr @_ZSt3getILm0EJP17grpc_channel_argsSt14default_deleteIS0_EEERNSt13tuple_elementIXT_ESt5tupleIJDpT0_EEE4typeERS8_(ptr noundef nonnull align 8 dereferenceable(8) %__t) #5 comdat {
entry:
  %__t.addr = alloca ptr, align 8
  store ptr %__t, ptr %__t.addr, align 8
  %0 = load ptr, ptr %__t.addr, align 8
  %call = call noundef nonnull align 8 dereferenceable(8) ptr @_ZSt12__get_helperILm0EP17grpc_channel_argsJSt14default_deleteIS0_EEERT0_RSt11_Tuple_implIXT_EJS4_DpT1_EE(ptr noundef nonnull align 8 dereferenceable(8) %0) #3
  ret ptr %call
}

; Function Attrs: mustprogress nounwind uwtable
define linkonce_odr noundef nonnull align 8 dereferenceable(8) ptr @_ZSt12__get_helperILm0EP17grpc_channel_argsJSt14default_deleteIS0_EEERT0_RSt11_Tuple_implIXT_EJS4_DpT1_EE(ptr noundef nonnull align 8 dereferenceable(8) %__t) #5 comdat {
entry:
  %__t.addr = alloca ptr, align 8
  store ptr %__t, ptr %__t.addr, align 8
  %0 = load ptr, ptr %__t.addr, align 8
  %call = call noundef nonnull align 8 dereferenceable(8) ptr @_ZNSt11_Tuple_implILm0EJP17grpc_channel_argsSt14default_deleteIS0_EEE7_M_headERS4_(ptr noundef nonnull align 8 dereferenceable(8) %0) #3
  ret ptr %call
}

; Function Attrs: mustprogress nounwind uwtable
define linkonce_odr noundef nonnull align 8 dereferenceable(8) ptr @_ZNSt11_Tuple_implILm0EJP17grpc_channel_argsSt14default_deleteIS0_EEE7_M_headERS4_(ptr noundef nonnull align 8 dereferenceable(8) %__t) #5 comdat align 2 {
entry:
  %__t.addr = alloca ptr, align 8
  store ptr %__t, ptr %__t.addr, align 8
  %0 = load ptr, ptr %__t.addr, align 8
  %call = call noundef nonnull align 8 dereferenceable(8) ptr @_ZNSt10_Head_baseILm0EP17grpc_channel_argsLb0EE7_M_headERS2_(ptr noundef nonnull align 8 dereferenceable(8) %0) #3
  ret ptr %call
}

; Function Attrs: mustprogress nounwind uwtable
define linkonce_odr noundef nonnull align 8 dereferenceable(8) ptr @_ZNSt10_Head_baseILm0EP17grpc_channel_argsLb0EE7_M_headERS2_(ptr noundef nonnull align 8 dereferenceable(8) %__b) #5 comdat align 2 {
entry:
  %__b.addr = alloca ptr, align 8
  store ptr %__b, ptr %__b.addr, align 8
  %0 = load ptr, ptr %__b.addr, align 8
  %_M_head_impl = getelementptr inbounds %"struct.std::_Head_base.19", ptr %0, i32 0, i32 0
  ret ptr %_M_head_impl
}

; Function Attrs: mustprogress nounwind uwtable
define linkonce_odr noundef nonnull align 1 dereferenceable(1) ptr @_ZNSt15__uniq_ptr_implI17grpc_channel_argsSt14default_deleteIS0_EE10_M_deleterEv(ptr noundef nonnull align 8 dereferenceable(8) %this) #5 comdat align 2 {
entry:
  %this.addr = alloca ptr, align 8
  store ptr %this, ptr %this.addr, align 8
  %this1 = load ptr, ptr %this.addr, align 8
  %_M_t = getelementptr inbounds %"class.std::__uniq_ptr_impl.14", ptr %this1, i32 0, i32 0
  %call = call noundef nonnull align 1 dereferenceable(1) ptr @_ZSt3getILm1EJP17grpc_channel_argsSt14default_deleteIS0_EEERNSt13tuple_elementIXT_ESt5tupleIJDpT0_EEE4typeERS8_(ptr noundef nonnull align 8 dereferenceable(8) %_M_t) #3
  ret ptr %call
}

; Function Attrs: mustprogress nounwind uwtable
define linkonce_odr noundef nonnull align 1 dereferenceable(1) ptr @_ZSt3getILm1EJP17grpc_channel_argsSt14default_deleteIS0_EEERNSt13tuple_elementIXT_ESt5tupleIJDpT0_EEE4typeERS8_(ptr noundef nonnull align 8 dereferenceable(8) %__t) #5 comdat {
entry:
  %__t.addr = alloca ptr, align 8
  store ptr %__t, ptr %__t.addr, align 8
  %0 = load ptr, ptr %__t.addr, align 8
  %call = call noundef nonnull align 1 dereferenceable(1) ptr @_ZSt12__get_helperILm1ESt14default_deleteI17grpc_channel_argsEJEERT0_RSt11_Tuple_implIXT_EJS3_DpT1_EE(ptr noundef nonnull align 1 dereferenceable(1) %0) #3
  ret ptr %call
}

; Function Attrs: mustprogress nounwind uwtable
define linkonce_odr noundef nonnull align 1 dereferenceable(1) ptr @_ZSt12__get_helperILm1ESt14default_deleteI17grpc_channel_argsEJEERT0_RSt11_Tuple_implIXT_EJS3_DpT1_EE(ptr noundef nonnull align 1 dereferenceable(1) %__t) #5 comdat {
entry:
  %__t.addr = alloca ptr, align 8
  store ptr %__t, ptr %__t.addr, align 8
  %0 = load ptr, ptr %__t.addr, align 8
  %call = call noundef nonnull align 1 dereferenceable(1) ptr @_ZNSt11_Tuple_implILm1EJSt14default_deleteI17grpc_channel_argsEEE7_M_headERS3_(ptr noundef nonnull align 1 dereferenceable(1) %0) #3
  ret ptr %call
}

; Function Attrs: mustprogress nounwind uwtable
define linkonce_odr noundef nonnull align 1 dereferenceable(1) ptr @_ZNSt11_Tuple_implILm1EJSt14default_deleteI17grpc_channel_argsEEE7_M_headERS3_(ptr noundef nonnull align 1 dereferenceable(1) %__t) #5 comdat align 2 {
entry:
  %__t.addr = alloca ptr, align 8
  store ptr %__t, ptr %__t.addr, align 8
  %0 = load ptr, ptr %__t.addr, align 8
  %call = call noundef nonnull align 1 dereferenceable(1) ptr @_ZNSt10_Head_baseILm1ESt14default_deleteI17grpc_channel_argsELb1EE7_M_headERS3_(ptr noundef nonnull align 1 dereferenceable(1) %0) #3
  ret ptr %call
}

; Function Attrs: mustprogress nounwind uwtable
define linkonce_odr noundef nonnull align 1 dereferenceable(1) ptr @_ZNSt10_Head_baseILm1ESt14default_deleteI17grpc_channel_argsELb1EE7_M_headERS3_(ptr noundef nonnull align 1 dereferenceable(1) %__b) #5 comdat align 2 {
entry:
  %__b.addr = alloca ptr, align 8
  store ptr %__b, ptr %__b.addr, align 8
  %0 = load ptr, ptr %__b.addr, align 8
  ret ptr %0
}

; Function Attrs: mustprogress nounwind uwtable
define linkonce_odr void @_ZN9grpc_core10RefCountedI23grpc_security_connectorNS_19PolymorphicRefCountENS_11UnrefDeleteEED2Ev(ptr noundef nonnull align 8 dereferenceable(16) %this) unnamed_addr #5 comdat align 2 {
entry:
  %this.addr = alloca ptr, align 8
  store ptr %this, ptr %this.addr, align 8
  %this1 = load ptr, ptr %this.addr, align 8
  call void @_ZN9grpc_core19PolymorphicRefCountD2Ev(ptr noundef nonnull align 8 dereferenceable(8) %this1) #3
  ret void
}

; Function Attrs: mustprogress nounwind uwtable
define linkonce_odr void @_ZN9grpc_core19PolymorphicRefCountD2Ev(ptr noundef nonnull align 8 dereferenceable(8) %this) unnamed_addr #5 comdat align 2 {
entry:
  %this.addr = alloca ptr, align 8
  store ptr %this, ptr %this.addr, align 8
  ret void
}

; Function Attrs: mustprogress uwtable
define internal void @_ZN12_GLOBAL__N_115alts_check_peerE8tsi_peerPN9grpc_core13RefCountedPtrI17grpc_auth_contextEEP12grpc_closure(ptr %peer.coerce0, i64 %peer.coerce1, ptr noundef %auth_context, ptr noundef %on_peer_checked) #4 personality ptr @__gxx_personality_v0 {
entry:
  %peer = alloca %struct.tsi_peer, align 8
  %auth_context.addr = alloca ptr, align 8
  %on_peer_checked.addr = alloca ptr, align 8
  %ref.tmp = alloca %"class.grpc_core::RefCountedPtr", align 8
  %error = alloca %"class.absl::lts_20230802::Status", align 8
  %agg.tmp = alloca %"class.std::basic_string_view", align 8
  %ref.tmp2 = alloca %"class.grpc_core::DebugLocation", align 1
  %agg.tmp3 = alloca %"class.std::vector", align 8
  %cleanup.cond = alloca i1, align 1
  %exn.slot = alloca ptr, align 8
  %ehselector.slot = alloca i32, align 4
  %ref.tmp7 = alloca %"class.grpc_core::DebugLocation", align 1
  %agg.tmp10 = alloca %"class.absl::lts_20230802::Status", align 8
  %0 = getelementptr inbounds { ptr, i64 }, ptr %peer, i32 0, i32 0
  store ptr %peer.coerce0, ptr %0, align 8
  %1 = getelementptr inbounds { ptr, i64 }, ptr %peer, i32 0, i32 1
  store i64 %peer.coerce1, ptr %1, align 8
  store ptr %auth_context, ptr %auth_context.addr, align 8
  store ptr %on_peer_checked, ptr %on_peer_checked.addr, align 8
  call void @_ZN9grpc_core8internal36grpc_alts_auth_context_from_tsi_peerEPK8tsi_peer(ptr sret(%"class.grpc_core::RefCountedPtr") align 8 %ref.tmp, ptr noundef %peer)
  %2 = load ptr, ptr %auth_context.addr, align 8
  %call = call noundef nonnull align 8 dereferenceable(8) ptr @_ZN9grpc_core13RefCountedPtrI17grpc_auth_contextEaSEOS2_(ptr noundef nonnull align 8 dereferenceable(8) %2, ptr noundef nonnull align 8 dereferenceable(8) %ref.tmp) #3
  call void @_ZN9grpc_core13RefCountedPtrI17grpc_auth_contextED2Ev(ptr noundef nonnull align 8 dereferenceable(8) %ref.tmp) #3
  call void @_Z17tsi_peer_destructP8tsi_peer(ptr noundef %peer)
  %3 = load ptr, ptr %auth_context.addr, align 8
  %call1 = call noundef zeroext i1 @_ZNK9grpc_core13RefCountedPtrI17grpc_auth_contextEneEDn(ptr noundef nonnull align 8 dereferenceable(8) %3, ptr null)
  store i1 false, ptr %cleanup.cond, align 1
  br i1 %call1, label %cond.true, label %cond.false

cond.true:                                        ; preds = %entry
  call void @_ZN4absl12lts_202308028OkStatusEv(ptr sret(%"class.absl::lts_20230802::Status") align 8 %error)
  br label %cond.end

cond.false:                                       ; preds = %entry
  call void @_ZNSt17basic_string_viewIcSt11char_traitsIcEEC2EPKc(ptr noundef nonnull align 8 dereferenceable(16) %agg.tmp, ptr noundef @.str.25) #3
  call void @_ZN9grpc_core13DebugLocationC2EPKci(ptr noundef nonnull align 1 dereferenceable(1) %ref.tmp2, ptr noundef @.str, i32 noundef 81)
  call void @llvm.memset.p0.i64(ptr align 8 %agg.tmp3, i8 0, i64 24, i1 false)
  call void @_ZNSt6vectorIN4absl12lts_202308026StatusESaIS2_EEC2Ev(ptr noundef nonnull align 8 dereferenceable(24) %agg.tmp3) #3
  store i1 true, ptr %cleanup.cond, align 1
  %4 = getelementptr inbounds { i64, ptr }, ptr %agg.tmp, i32 0, i32 0
  %5 = load i64, ptr %4, align 8
  %6 = getelementptr inbounds { i64, ptr }, ptr %agg.tmp, i32 0, i32 1
  %7 = load ptr, ptr %6, align 8
  invoke void @_ZN9grpc_core12StatusCreateEN4absl12lts_2023080210StatusCodeESt17basic_string_viewIcSt11char_traitsIcEERKNS_13DebugLocationESt6vectorINS1_6StatusESaISB_EE(ptr sret(%"class.absl::lts_20230802::Status") align 8 %error, i32 noundef 2, i64 %5, ptr %7, ptr noundef nonnull align 1 dereferenceable(1) %ref.tmp2, ptr noundef %agg.tmp3)
          to label %invoke.cont unwind label %lpad

invoke.cont:                                      ; preds = %cond.false
  br label %cond.end

cond.end:                                         ; preds = %invoke.cont, %cond.true
  %cleanup.is_active = load i1, ptr %cleanup.cond, align 1
  br i1 %cleanup.is_active, label %cleanup.action, label %cleanup.done

cleanup.action:                                   ; preds = %cond.end
  call void @_ZNSt6vectorIN4absl12lts_202308026StatusESaIS2_EED2Ev(ptr noundef nonnull align 8 dereferenceable(24) %agg.tmp3) #3
  br label %cleanup.done

cleanup.done:                                     ; preds = %cleanup.action, %cond.end
  invoke void @_ZN9grpc_core13DebugLocationC2EPKci(ptr noundef nonnull align 1 dereferenceable(1) %ref.tmp7, ptr noundef @.str, i32 noundef 82)
          to label %invoke.cont9 unwind label %lpad8

invoke.cont9:                                     ; preds = %cleanup.done
  %8 = load ptr, ptr %on_peer_checked.addr, align 8
  invoke void @_ZN4absl12lts_202308026StatusC2ERKS1_(ptr noundef nonnull align 8 dereferenceable(8) %agg.tmp10, ptr noundef nonnull align 8 dereferenceable(8) %error)
          to label %invoke.cont11 unwind label %lpad8

invoke.cont11:                                    ; preds = %invoke.cont9
  invoke void @_ZN9grpc_core7ExecCtx3RunERKNS_13DebugLocationEP12grpc_closureN4absl12lts_202308026StatusE(ptr noundef nonnull align 1 dereferenceable(1) %ref.tmp7, ptr noundef %8, ptr noundef %agg.tmp10)
          to label %invoke.cont13 unwind label %lpad12

invoke.cont13:                                    ; preds = %invoke.cont11
  call void @_ZN4absl12lts_202308026StatusD2Ev(ptr noundef nonnull align 8 dereferenceable(8) %agg.tmp10) #3
  call void @_ZN4absl12lts_202308026StatusD2Ev(ptr noundef nonnull align 8 dereferenceable(8) %error) #3
  ret void

lpad:                                             ; preds = %cond.false
  %9 = landingpad { ptr, i32 }
          cleanup
  %10 = extractvalue { ptr, i32 } %9, 0
  store ptr %10, ptr %exn.slot, align 8
  %11 = extractvalue { ptr, i32 } %9, 1
  store i32 %11, ptr %ehselector.slot, align 4
  %cleanup.is_active4 = load i1, ptr %cleanup.cond, align 1
  br i1 %cleanup.is_active4, label %cleanup.action5, label %cleanup.done6

cleanup.action5:                                  ; preds = %lpad
  call void @_ZNSt6vectorIN4absl12lts_202308026StatusESaIS2_EED2Ev(ptr noundef nonnull align 8 dereferenceable(24) %agg.tmp3) #3
  br label %cleanup.done6

cleanup.done6:                                    ; preds = %cleanup.action5, %lpad
  br label %eh.resume

lpad8:                                            ; preds = %invoke.cont9, %cleanup.done
  %12 = landingpad { ptr, i32 }
          cleanup
  %13 = extractvalue { ptr, i32 } %12, 0
  store ptr %13, ptr %exn.slot, align 8
  %14 = extractvalue { ptr, i32 } %12, 1
  store i32 %14, ptr %ehselector.slot, align 4
  br label %ehcleanup

lpad12:                                           ; preds = %invoke.cont11
  %15 = landingpad { ptr, i32 }
          cleanup
  %16 = extractvalue { ptr, i32 } %15, 0
  store ptr %16, ptr %exn.slot, align 8
  %17 = extractvalue { ptr, i32 } %15, 1
  store i32 %17, ptr %ehselector.slot, align 4
  call void @_ZN4absl12lts_202308026StatusD2Ev(ptr noundef nonnull align 8 dereferenceable(8) %agg.tmp10) #3
  br label %ehcleanup

ehcleanup:                                        ; preds = %lpad12, %lpad8
  call void @_ZN4absl12lts_202308026StatusD2Ev(ptr noundef nonnull align 8 dereferenceable(8) %error) #3
  br label %eh.resume

eh.resume:                                        ; preds = %ehcleanup, %cleanup.done6
  %exn = load ptr, ptr %exn.slot, align 8
  %sel = load i32, ptr %ehselector.slot, align 4
  %lpad.val = insertvalue { ptr, i32 } poison, ptr %exn, 0
  %lpad.val14 = insertvalue { ptr, i32 } %lpad.val, i32 %sel, 1
  resume { ptr, i32 } %lpad.val14
}

; Function Attrs: nocallback nofree nounwind willreturn memory(argmem: readwrite)
declare void @llvm.memcpy.p0.p0.i64(ptr noalias nocapture writeonly, ptr noalias nocapture readonly, i64, i1 immarg) #12

; Function Attrs: mustprogress nounwind uwtable
define linkonce_odr noundef nonnull align 8 dereferenceable(8) ptr @_ZN9grpc_core13RefCountedPtrI17grpc_auth_contextEaSEOS2_(ptr noundef nonnull align 8 dereferenceable(8) %this, ptr noundef nonnull align 8 dereferenceable(8) %other) #5 comdat align 2 personality ptr @__gxx_personality_v0 {
entry:
  %this.addr = alloca ptr, align 8
  %other.addr = alloca ptr, align 8
  %ref.tmp = alloca ptr, align 8
  store ptr %this, ptr %this.addr, align 8
  store ptr %other, ptr %other.addr, align 8
  %this1 = load ptr, ptr %this.addr, align 8
  %0 = load ptr, ptr %other.addr, align 8
  %value_ = getelementptr inbounds %"class.grpc_core::RefCountedPtr", ptr %0, i32 0, i32 0
  store ptr null, ptr %ref.tmp, align 8
  %call = call noundef ptr @_ZSt8exchangeIP17grpc_auth_contextDnET_RS2_OT0_(ptr noundef nonnull align 8 dereferenceable(8) %value_, ptr noundef nonnull align 8 dereferenceable(8) %ref.tmp) #3
  invoke void @_ZN9grpc_core13RefCountedPtrI17grpc_auth_contextE5resetEPS1_(ptr noundef nonnull align 8 dereferenceable(8) %this1, ptr noundef %call)
          to label %invoke.cont unwind label %terminate.lpad

invoke.cont:                                      ; preds = %entry
  ret ptr %this1

terminate.lpad:                                   ; preds = %entry
  %1 = landingpad { ptr, i32 }
          catch ptr null
  %2 = extractvalue { ptr, i32 } %1, 0
  call void @__clang_call_terminate(ptr %2) #18
  unreachable
}

declare void @_Z17tsi_peer_destructP8tsi_peer(ptr noundef) #1

; Function Attrs: mustprogress uwtable
define linkonce_odr void @_ZN4absl12lts_202308028OkStatusEv(ptr noalias sret(%"class.absl::lts_20230802::Status") align 8 %agg.result) #4 comdat {
entry:
  %result.ptr = alloca ptr, align 8
  store ptr %agg.result, ptr %result.ptr, align 8
  call void @_ZN4absl12lts_202308026StatusC2Ev(ptr noundef nonnull align 8 dereferenceable(8) %agg.result)
  ret void
}

declare void @_ZN9grpc_core12StatusCreateEN4absl12lts_2023080210StatusCodeESt17basic_string_viewIcSt11char_traitsIcEERKNS_13DebugLocationESt6vectorINS1_6StatusESaISB_EE(ptr sret(%"class.absl::lts_20230802::Status") align 8, i32 noundef, i64, ptr, ptr noundef nonnull align 1 dereferenceable(1), ptr noundef) #1

; Function Attrs: mustprogress nounwind uwtable
define linkonce_odr void @_ZNSt6vectorIN4absl12lts_202308026StatusESaIS2_EEC2Ev(ptr noundef nonnull align 8 dereferenceable(24) %this) unnamed_addr #5 comdat align 2 {
entry:
  %this.addr = alloca ptr, align 8
  store ptr %this, ptr %this.addr, align 8
  %this1 = load ptr, ptr %this.addr, align 8
  call void @_ZNSt12_Vector_baseIN4absl12lts_202308026StatusESaIS2_EEC2Ev(ptr noundef nonnull align 8 dereferenceable(24) %this1) #3
  ret void
}

; Function Attrs: mustprogress nounwind uwtable
define linkonce_odr void @_ZNSt6vectorIN4absl12lts_202308026StatusESaIS2_EED2Ev(ptr noundef nonnull align 8 dereferenceable(24) %this) unnamed_addr #5 comdat align 2 personality ptr @__gxx_personality_v0 {
entry:
  %this.addr = alloca ptr, align 8
  store ptr %this, ptr %this.addr, align 8
  %this1 = load ptr, ptr %this.addr, align 8
  %_M_impl = getelementptr inbounds %"struct.std::_Vector_base", ptr %this1, i32 0, i32 0
  %_M_start = getelementptr inbounds %"struct.std::_Vector_base<absl::lts_20230802::Status, std::allocator<absl::lts_20230802::Status>>::_Vector_impl_data", ptr %_M_impl, i32 0, i32 0
  %0 = load ptr, ptr %_M_start, align 8
  %_M_impl2 = getelementptr inbounds %"struct.std::_Vector_base", ptr %this1, i32 0, i32 0
  %_M_finish = getelementptr inbounds %"struct.std::_Vector_base<absl::lts_20230802::Status, std::allocator<absl::lts_20230802::Status>>::_Vector_impl_data", ptr %_M_impl2, i32 0, i32 1
  %1 = load ptr, ptr %_M_finish, align 8
  %call = call noundef nonnull align 1 dereferenceable(1) ptr @_ZNSt12_Vector_baseIN4absl12lts_202308026StatusESaIS2_EE19_M_get_Tp_allocatorEv(ptr noundef nonnull align 8 dereferenceable(24) %this1) #3
  invoke void @_ZSt8_DestroyIPN4absl12lts_202308026StatusES2_EvT_S4_RSaIT0_E(ptr noundef %0, ptr noundef %1, ptr noundef nonnull align 1 dereferenceable(1) %call)
          to label %invoke.cont unwind label %terminate.lpad

invoke.cont:                                      ; preds = %entry
  call void @_ZNSt12_Vector_baseIN4absl12lts_202308026StatusESaIS2_EED2Ev(ptr noundef nonnull align 8 dereferenceable(24) %this1) #3
  ret void

terminate.lpad:                                   ; preds = %entry
  %2 = landingpad { ptr, i32 }
          catch ptr null
  %3 = extractvalue { ptr, i32 } %2, 0
  call void @__clang_call_terminate(ptr %3) #18
  unreachable
}

declare void @_ZN9grpc_core7ExecCtx3RunERKNS_13DebugLocationEP12grpc_closureN4absl12lts_202308026StatusE(ptr noundef nonnull align 1 dereferenceable(1), ptr noundef, ptr noundef) #1

; Function Attrs: mustprogress uwtable
define linkonce_odr void @_ZN4absl12lts_202308026StatusC2ERKS1_(ptr noundef nonnull align 8 dereferenceable(8) %this, ptr noundef nonnull align 8 dereferenceable(8) %x) unnamed_addr #4 comdat align 2 {
entry:
  %this.addr = alloca ptr, align 8
  %x.addr = alloca ptr, align 8
  store ptr %this, ptr %this.addr, align 8
  store ptr %x, ptr %x.addr, align 8
  %this1 = load ptr, ptr %this.addr, align 8
  %rep_ = getelementptr inbounds %"class.absl::lts_20230802::Status", ptr %this1, i32 0, i32 0
  %0 = load ptr, ptr %x.addr, align 8
  %rep_2 = getelementptr inbounds %"class.absl::lts_20230802::Status", ptr %0, i32 0, i32 0
  %1 = load i64, ptr %rep_2, align 8
  store i64 %1, ptr %rep_, align 8
  %rep_3 = getelementptr inbounds %"class.absl::lts_20230802::Status", ptr %this1, i32 0, i32 0
  %2 = load i64, ptr %rep_3, align 8
  call void @_ZN4absl12lts_202308026Status3RefEm(i64 noundef %2)
  ret void
}

; Function Attrs: mustprogress nounwind uwtable
define linkonce_odr void @_ZN4absl12lts_202308026StatusD2Ev(ptr noundef nonnull align 8 dereferenceable(8) %this) unnamed_addr #5 comdat align 2 personality ptr @__gxx_personality_v0 {
entry:
  %this.addr = alloca ptr, align 8
  store ptr %this, ptr %this.addr, align 8
  %this1 = load ptr, ptr %this.addr, align 8
  %rep_ = getelementptr inbounds %"class.absl::lts_20230802::Status", ptr %this1, i32 0, i32 0
  %0 = load i64, ptr %rep_, align 8
  invoke void @_ZN4absl12lts_202308026Status5UnrefEm(i64 noundef %0)
          to label %invoke.cont unwind label %terminate.lpad

invoke.cont:                                      ; preds = %entry
  ret void

terminate.lpad:                                   ; preds = %entry
  %1 = landingpad { ptr, i32 }
          catch ptr null
  %2 = extractvalue { ptr, i32 } %1, 0
  call void @__clang_call_terminate(ptr %2) #18
  unreachable
}

; Function Attrs: mustprogress uwtable
define linkonce_odr void @_ZN9grpc_core13RefCountedPtrI17grpc_auth_contextE5resetEPS1_(ptr noundef nonnull align 8 dereferenceable(8) %this, ptr noundef %value) #4 comdat align 2 {
entry:
  %this.addr = alloca ptr, align 8
  %value.addr = alloca ptr, align 8
  %old_value = alloca ptr, align 8
  store ptr %this, ptr %this.addr, align 8
  store ptr %value, ptr %value.addr, align 8
  %this1 = load ptr, ptr %this.addr, align 8
  %value_ = getelementptr inbounds %"class.grpc_core::RefCountedPtr", ptr %this1, i32 0, i32 0
  %call = call noundef ptr @_ZSt8exchangeIP17grpc_auth_contextRS1_ET_RS3_OT0_(ptr noundef nonnull align 8 dereferenceable(8) %value_, ptr noundef nonnull align 8 dereferenceable(8) %value.addr) #3
  store ptr %call, ptr %old_value, align 8
  %0 = load ptr, ptr %old_value, align 8
  %cmp = icmp ne ptr %0, null
  br i1 %cmp, label %if.then, label %if.end

if.then:                                          ; preds = %entry
  %1 = load ptr, ptr %old_value, align 8
  call void @_ZNK9grpc_core10RefCountedI17grpc_auth_contextNS_22NonPolymorphicRefCountENS_11UnrefDeleteEE5UnrefEv(ptr noundef nonnull align 8 dereferenceable(8) %1)
  br label %if.end

if.end:                                           ; preds = %if.then, %entry
  ret void
}

; Function Attrs: mustprogress nounwind uwtable
define linkonce_odr noundef ptr @_ZSt8exchangeIP17grpc_auth_contextDnET_RS2_OT0_(ptr noundef nonnull align 8 dereferenceable(8) %__obj, ptr noundef nonnull align 8 dereferenceable(8) %__new_val) #5 comdat personality ptr @__gxx_personality_v0 {
entry:
  %__obj.addr = alloca ptr, align 8
  %__new_val.addr = alloca ptr, align 8
  store ptr %__obj, ptr %__obj.addr, align 8
  store ptr %__new_val, ptr %__new_val.addr, align 8
  %0 = load ptr, ptr %__obj.addr, align 8
  %1 = load ptr, ptr %__new_val.addr, align 8
  %call = invoke noundef ptr @_ZSt10__exchangeIP17grpc_auth_contextDnET_RS2_OT0_(ptr noundef nonnull align 8 dereferenceable(8) %0, ptr noundef nonnull align 8 dereferenceable(8) %1)
          to label %invoke.cont unwind label %terminate.lpad

invoke.cont:                                      ; preds = %entry
  ret ptr %call

terminate.lpad:                                   ; preds = %entry
  %2 = landingpad { ptr, i32 }
          catch ptr null
  %3 = extractvalue { ptr, i32 } %2, 0
  call void @__clang_call_terminate(ptr %3) #18
  unreachable
}

; Function Attrs: mustprogress nounwind uwtable
define linkonce_odr noundef ptr @_ZSt10__exchangeIP17grpc_auth_contextDnET_RS2_OT0_(ptr noundef nonnull align 8 dereferenceable(8) %__obj, ptr noundef nonnull align 8 dereferenceable(8) %__new_val) #5 comdat {
entry:
  %__obj.addr = alloca ptr, align 8
  %__new_val.addr = alloca ptr, align 8
  %__old_val = alloca ptr, align 8
  store ptr %__obj, ptr %__obj.addr, align 8
  store ptr %__new_val, ptr %__new_val.addr, align 8
  %0 = load ptr, ptr %__obj.addr, align 8
  %1 = load ptr, ptr %0, align 8
  store ptr %1, ptr %__old_val, align 8
  %2 = load ptr, ptr %__obj.addr, align 8
  store ptr null, ptr %2, align 8
  %3 = load ptr, ptr %__old_val, align 8
  ret ptr %3
}

; Function Attrs: mustprogress uwtable
define linkonce_odr void @_ZN4absl12lts_202308026StatusC2Ev(ptr noundef nonnull align 8 dereferenceable(8) %this) unnamed_addr #4 comdat align 2 {
entry:
  %this.addr = alloca ptr, align 8
  store ptr %this, ptr %this.addr, align 8
  %this1 = load ptr, ptr %this.addr, align 8
  %rep_ = getelementptr inbounds %"class.absl::lts_20230802::Status", ptr %this1, i32 0, i32 0
  %call = call noundef i64 @_ZN4absl12lts_202308026Status16CodeToInlinedRepENS0_10StatusCodeE(i32 noundef 0)
  store i64 %call, ptr %rep_, align 8
  ret void
}

; Function Attrs: mustprogress nounwind uwtable
define linkonce_odr noundef i64 @_ZN4absl12lts_202308026Status16CodeToInlinedRepENS0_10StatusCodeE(i32 noundef %code) #5 comdat align 2 {
entry:
  %code.addr = alloca i32, align 4
  store i32 %code, ptr %code.addr, align 4
  %0 = load i32, ptr %code.addr, align 4
  %conv = sext i32 %0 to i64
  %shl = shl i64 %conv, 2
  ret i64 %shl
}

; Function Attrs: mustprogress nounwind uwtable
define linkonce_odr void @_ZNSt12_Vector_baseIN4absl12lts_202308026StatusESaIS2_EEC2Ev(ptr noundef nonnull align 8 dereferenceable(24) %this) unnamed_addr #5 comdat align 2 {
entry:
  %this.addr = alloca ptr, align 8
  store ptr %this, ptr %this.addr, align 8
  %this1 = load ptr, ptr %this.addr, align 8
  %_M_impl = getelementptr inbounds %"struct.std::_Vector_base", ptr %this1, i32 0, i32 0
  call void @_ZNSt12_Vector_baseIN4absl12lts_202308026StatusESaIS2_EE12_Vector_implC2Ev(ptr noundef nonnull align 8 dereferenceable(24) %_M_impl) #3
  ret void
}

; Function Attrs: mustprogress nounwind uwtable
define linkonce_odr void @_ZNSt12_Vector_baseIN4absl12lts_202308026StatusESaIS2_EE12_Vector_implC2Ev(ptr noundef nonnull align 8 dereferenceable(24) %this) unnamed_addr #5 comdat align 2 {
entry:
  %this.addr = alloca ptr, align 8
  store ptr %this, ptr %this.addr, align 8
  %this1 = load ptr, ptr %this.addr, align 8
  call void @_ZNSaIN4absl12lts_202308026StatusEEC2Ev(ptr noundef nonnull align 1 dereferenceable(1) %this1) #3
  call void @_ZNSt12_Vector_baseIN4absl12lts_202308026StatusESaIS2_EE17_Vector_impl_dataC2Ev(ptr noundef nonnull align 8 dereferenceable(24) %this1) #3
  ret void
}

; Function Attrs: mustprogress nounwind uwtable
define linkonce_odr void @_ZNSaIN4absl12lts_202308026StatusEEC2Ev(ptr noundef nonnull align 1 dereferenceable(1) %this) unnamed_addr #5 comdat align 2 {
entry:
  %this.addr = alloca ptr, align 8
  store ptr %this, ptr %this.addr, align 8
  %this1 = load ptr, ptr %this.addr, align 8
  call void @_ZNSt15__new_allocatorIN4absl12lts_202308026StatusEEC2Ev(ptr noundef nonnull align 1 dereferenceable(1) %this1) #3
  ret void
}

; Function Attrs: mustprogress nounwind uwtable
define linkonce_odr void @_ZNSt12_Vector_baseIN4absl12lts_202308026StatusESaIS2_EE17_Vector_impl_dataC2Ev(ptr noundef nonnull align 8 dereferenceable(24) %this) unnamed_addr #5 comdat align 2 {
entry:
  %this.addr = alloca ptr, align 8
  store ptr %this, ptr %this.addr, align 8
  %this1 = load ptr, ptr %this.addr, align 8
  %_M_start = getelementptr inbounds %"struct.std::_Vector_base<absl::lts_20230802::Status, std::allocator<absl::lts_20230802::Status>>::_Vector_impl_data", ptr %this1, i32 0, i32 0
  store ptr null, ptr %_M_start, align 8
  %_M_finish = getelementptr inbounds %"struct.std::_Vector_base<absl::lts_20230802::Status, std::allocator<absl::lts_20230802::Status>>::_Vector_impl_data", ptr %this1, i32 0, i32 1
  store ptr null, ptr %_M_finish, align 8
  %_M_end_of_storage = getelementptr inbounds %"struct.std::_Vector_base<absl::lts_20230802::Status, std::allocator<absl::lts_20230802::Status>>::_Vector_impl_data", ptr %this1, i32 0, i32 2
  store ptr null, ptr %_M_end_of_storage, align 8
  ret void
}

; Function Attrs: mustprogress nounwind uwtable
define linkonce_odr void @_ZNSt15__new_allocatorIN4absl12lts_202308026StatusEEC2Ev(ptr noundef nonnull align 1 dereferenceable(1) %this) unnamed_addr #5 comdat align 2 {
entry:
  %this.addr = alloca ptr, align 8
  store ptr %this, ptr %this.addr, align 8
  ret void
}

; Function Attrs: mustprogress uwtable
define linkonce_odr void @_ZSt8_DestroyIPN4absl12lts_202308026StatusES2_EvT_S4_RSaIT0_E(ptr noundef %__first, ptr noundef %__last, ptr noundef nonnull align 1 dereferenceable(1) %0) #4 comdat {
entry:
  %__first.addr = alloca ptr, align 8
  %__last.addr = alloca ptr, align 8
  %.addr = alloca ptr, align 8
  store ptr %__first, ptr %__first.addr, align 8
  store ptr %__last, ptr %__last.addr, align 8
  store ptr %0, ptr %.addr, align 8
  %1 = load ptr, ptr %__first.addr, align 8
  %2 = load ptr, ptr %__last.addr, align 8
  call void @_ZSt8_DestroyIPN4absl12lts_202308026StatusEEvT_S4_(ptr noundef %1, ptr noundef %2)
  ret void
}

; Function Attrs: mustprogress nounwind uwtable
define linkonce_odr noundef nonnull align 1 dereferenceable(1) ptr @_ZNSt12_Vector_baseIN4absl12lts_202308026StatusESaIS2_EE19_M_get_Tp_allocatorEv(ptr noundef nonnull align 8 dereferenceable(24) %this) #5 comdat align 2 {
entry:
  %this.addr = alloca ptr, align 8
  store ptr %this, ptr %this.addr, align 8
  %this1 = load ptr, ptr %this.addr, align 8
  %_M_impl = getelementptr inbounds %"struct.std::_Vector_base", ptr %this1, i32 0, i32 0
  ret ptr %_M_impl
}

; Function Attrs: mustprogress nounwind uwtable
define linkonce_odr void @_ZNSt12_Vector_baseIN4absl12lts_202308026StatusESaIS2_EED2Ev(ptr noundef nonnull align 8 dereferenceable(24) %this) unnamed_addr #5 comdat align 2 personality ptr @__gxx_personality_v0 {
entry:
  %this.addr = alloca ptr, align 8
  store ptr %this, ptr %this.addr, align 8
  %this1 = load ptr, ptr %this.addr, align 8
  %_M_impl = getelementptr inbounds %"struct.std::_Vector_base", ptr %this1, i32 0, i32 0
  %_M_start = getelementptr inbounds %"struct.std::_Vector_base<absl::lts_20230802::Status, std::allocator<absl::lts_20230802::Status>>::_Vector_impl_data", ptr %_M_impl, i32 0, i32 0
  %0 = load ptr, ptr %_M_start, align 8
  %_M_impl2 = getelementptr inbounds %"struct.std::_Vector_base", ptr %this1, i32 0, i32 0
  %_M_end_of_storage = getelementptr inbounds %"struct.std::_Vector_base<absl::lts_20230802::Status, std::allocator<absl::lts_20230802::Status>>::_Vector_impl_data", ptr %_M_impl2, i32 0, i32 2
  %1 = load ptr, ptr %_M_end_of_storage, align 8
  %_M_impl3 = getelementptr inbounds %"struct.std::_Vector_base", ptr %this1, i32 0, i32 0
  %_M_start4 = getelementptr inbounds %"struct.std::_Vector_base<absl::lts_20230802::Status, std::allocator<absl::lts_20230802::Status>>::_Vector_impl_data", ptr %_M_impl3, i32 0, i32 0
  %2 = load ptr, ptr %_M_start4, align 8
  %sub.ptr.lhs.cast = ptrtoint ptr %1 to i64
  %sub.ptr.rhs.cast = ptrtoint ptr %2 to i64
  %sub.ptr.sub = sub i64 %sub.ptr.lhs.cast, %sub.ptr.rhs.cast
  %sub.ptr.div = sdiv exact i64 %sub.ptr.sub, 8
  invoke void @_ZNSt12_Vector_baseIN4absl12lts_202308026StatusESaIS2_EE13_M_deallocateEPS2_m(ptr noundef nonnull align 8 dereferenceable(24) %this1, ptr noundef %0, i64 noundef %sub.ptr.div)
          to label %invoke.cont unwind label %terminate.lpad

invoke.cont:                                      ; preds = %entry
  %_M_impl5 = getelementptr inbounds %"struct.std::_Vector_base", ptr %this1, i32 0, i32 0
  call void @_ZNSt12_Vector_baseIN4absl12lts_202308026StatusESaIS2_EE12_Vector_implD2Ev(ptr noundef nonnull align 8 dereferenceable(24) %_M_impl5) #3
  ret void

terminate.lpad:                                   ; preds = %entry
  %3 = landingpad { ptr, i32 }
          catch ptr null
  %4 = extractvalue { ptr, i32 } %3, 0
  call void @__clang_call_terminate(ptr %4) #18
  unreachable
}

; Function Attrs: mustprogress uwtable
define linkonce_odr void @_ZSt8_DestroyIPN4absl12lts_202308026StatusEEvT_S4_(ptr noundef %__first, ptr noundef %__last) #4 comdat {
entry:
  %__first.addr = alloca ptr, align 8
  %__last.addr = alloca ptr, align 8
  store ptr %__first, ptr %__first.addr, align 8
  store ptr %__last, ptr %__last.addr, align 8
  %0 = load ptr, ptr %__first.addr, align 8
  %1 = load ptr, ptr %__last.addr, align 8
  call void @_ZNSt12_Destroy_auxILb0EE9__destroyIPN4absl12lts_202308026StatusEEEvT_S6_(ptr noundef %0, ptr noundef %1)
  ret void
}

; Function Attrs: mustprogress uwtable
define linkonce_odr void @_ZNSt12_Destroy_auxILb0EE9__destroyIPN4absl12lts_202308026StatusEEEvT_S6_(ptr noundef %__first, ptr noundef %__last) #4 comdat align 2 {
entry:
  %__first.addr = alloca ptr, align 8
  %__last.addr = alloca ptr, align 8
  store ptr %__first, ptr %__first.addr, align 8
  store ptr %__last, ptr %__last.addr, align 8
  br label %for.cond

for.cond:                                         ; preds = %for.inc, %entry
  %0 = load ptr, ptr %__first.addr, align 8
  %1 = load ptr, ptr %__last.addr, align 8
  %cmp = icmp ne ptr %0, %1
  br i1 %cmp, label %for.body, label %for.end

for.body:                                         ; preds = %for.cond
  %2 = load ptr, ptr %__first.addr, align 8
  call void @_ZSt8_DestroyIN4absl12lts_202308026StatusEEvPT_(ptr noundef %2)
  br label %for.inc

for.inc:                                          ; preds = %for.body
  %3 = load ptr, ptr %__first.addr, align 8
  %incdec.ptr = getelementptr inbounds %"class.absl::lts_20230802::Status", ptr %3, i32 1
  store ptr %incdec.ptr, ptr %__first.addr, align 8
  br label %for.cond, !llvm.loop !7

for.end:                                          ; preds = %for.cond
  ret void
}

; Function Attrs: mustprogress nounwind uwtable
define linkonce_odr void @_ZSt8_DestroyIN4absl12lts_202308026StatusEEvPT_(ptr noundef %__pointer) #5 comdat {
entry:
  %__pointer.addr = alloca ptr, align 8
  store ptr %__pointer, ptr %__pointer.addr, align 8
  %0 = load ptr, ptr %__pointer.addr, align 8
  call void @_ZN4absl12lts_202308026StatusD2Ev(ptr noundef nonnull align 8 dereferenceable(8) %0) #3
  ret void
}

; Function Attrs: mustprogress uwtable
define linkonce_odr void @_ZNSt12_Vector_baseIN4absl12lts_202308026StatusESaIS2_EE13_M_deallocateEPS2_m(ptr noundef nonnull align 8 dereferenceable(24) %this, ptr noundef %__p, i64 noundef %__n) #4 comdat align 2 {
entry:
  %this.addr = alloca ptr, align 8
  %__p.addr = alloca ptr, align 8
  %__n.addr = alloca i64, align 8
  store ptr %this, ptr %this.addr, align 8
  store ptr %__p, ptr %__p.addr, align 8
  store i64 %__n, ptr %__n.addr, align 8
  %this1 = load ptr, ptr %this.addr, align 8
  %0 = load ptr, ptr %__p.addr, align 8
  %tobool = icmp ne ptr %0, null
  br i1 %tobool, label %if.then, label %if.end

if.then:                                          ; preds = %entry
  %_M_impl = getelementptr inbounds %"struct.std::_Vector_base", ptr %this1, i32 0, i32 0
  %1 = load ptr, ptr %__p.addr, align 8
  %2 = load i64, ptr %__n.addr, align 8
  call void @_ZNSt16allocator_traitsISaIN4absl12lts_202308026StatusEEE10deallocateERS3_PS2_m(ptr noundef nonnull align 1 dereferenceable(1) %_M_impl, ptr noundef %1, i64 noundef %2)
  br label %if.end

if.end:                                           ; preds = %if.then, %entry
  ret void
}

; Function Attrs: mustprogress nounwind uwtable
define linkonce_odr void @_ZNSt12_Vector_baseIN4absl12lts_202308026StatusESaIS2_EE12_Vector_implD2Ev(ptr noundef nonnull align 8 dereferenceable(24) %this) unnamed_addr #5 comdat align 2 {
entry:
  %this.addr = alloca ptr, align 8
  store ptr %this, ptr %this.addr, align 8
  %this1 = load ptr, ptr %this.addr, align 8
  call void @_ZNSaIN4absl12lts_202308026StatusEED2Ev(ptr noundef nonnull align 1 dereferenceable(1) %this1) #3
  ret void
}

; Function Attrs: mustprogress uwtable
define linkonce_odr void @_ZNSt16allocator_traitsISaIN4absl12lts_202308026StatusEEE10deallocateERS3_PS2_m(ptr noundef nonnull align 1 dereferenceable(1) %__a, ptr noundef %__p, i64 noundef %__n) #4 comdat align 2 {
entry:
  %__a.addr = alloca ptr, align 8
  %__p.addr = alloca ptr, align 8
  %__n.addr = alloca i64, align 8
  store ptr %__a, ptr %__a.addr, align 8
  store ptr %__p, ptr %__p.addr, align 8
  store i64 %__n, ptr %__n.addr, align 8
  %0 = load ptr, ptr %__a.addr, align 8
  %1 = load ptr, ptr %__p.addr, align 8
  %2 = load i64, ptr %__n.addr, align 8
  call void @_ZNSt15__new_allocatorIN4absl12lts_202308026StatusEE10deallocateEPS2_m(ptr noundef nonnull align 1 dereferenceable(1) %0, ptr noundef %1, i64 noundef %2)
  ret void
}

; Function Attrs: mustprogress nounwind uwtable
define linkonce_odr void @_ZNSt15__new_allocatorIN4absl12lts_202308026StatusEE10deallocateEPS2_m(ptr noundef nonnull align 1 dereferenceable(1) %this, ptr noundef %__p, i64 noundef %__n) #5 comdat align 2 {
entry:
  %this.addr = alloca ptr, align 8
  %__p.addr = alloca ptr, align 8
  %__n.addr = alloca i64, align 8
  store ptr %this, ptr %this.addr, align 8
  store ptr %__p, ptr %__p.addr, align 8
  store i64 %__n, ptr %__n.addr, align 8
  %0 = load ptr, ptr %__p.addr, align 8
  call void @_ZdlPv(ptr noundef %0) #17
  ret void
}

; Function Attrs: mustprogress nounwind uwtable
define linkonce_odr void @_ZNSaIN4absl12lts_202308026StatusEED2Ev(ptr noundef nonnull align 1 dereferenceable(1) %this) unnamed_addr #5 comdat align 2 {
entry:
  %this.addr = alloca ptr, align 8
  store ptr %this, ptr %this.addr, align 8
  %this1 = load ptr, ptr %this.addr, align 8
  call void @_ZNSt15__new_allocatorIN4absl12lts_202308026StatusEED2Ev(ptr noundef nonnull align 1 dereferenceable(1) %this1) #3
  ret void
}

; Function Attrs: mustprogress nounwind uwtable
define linkonce_odr void @_ZNSt15__new_allocatorIN4absl12lts_202308026StatusEED2Ev(ptr noundef nonnull align 1 dereferenceable(1) %this) unnamed_addr #5 comdat align 2 {
entry:
  %this.addr = alloca ptr, align 8
  store ptr %this, ptr %this.addr, align 8
  ret void
}

; Function Attrs: mustprogress uwtable
define linkonce_odr void @_ZN4absl12lts_202308026Status3RefEm(i64 noundef %rep) #4 comdat align 2 {
entry:
  %this.addr.i = alloca ptr, align 8
  %__i.addr.i = alloca i32, align 4
  %__m.addr.i = alloca i32, align 4
  %.atomictmp.i = alloca i32, align 4
  %atomic-temp.i = alloca i32, align 4
  %rep.addr = alloca i64, align 8
  store i64 %rep, ptr %rep.addr, align 8
  %0 = load i64, ptr %rep.addr, align 8
  %call = call noundef zeroext i1 @_ZN4absl12lts_202308026Status9IsInlinedEm(i64 noundef %0)
  br i1 %call, label %if.end, label %if.then

if.then:                                          ; preds = %entry
  %1 = load i64, ptr %rep.addr, align 8
  %call1 = call noundef ptr @_ZN4absl12lts_202308026Status12RepToPointerEm(i64 noundef %1)
  %ref = getelementptr inbounds %"struct.absl::lts_20230802::status_internal::StatusRep", ptr %call1, i32 0, i32 0
  store ptr %ref, ptr %this.addr.i, align 8
  store i32 1, ptr %__i.addr.i, align 4
  store i32 0, ptr %__m.addr.i, align 4
  %this1.i = load ptr, ptr %this.addr.i, align 8
  %2 = load i32, ptr %__m.addr.i, align 4
  %3 = load i32, ptr %__i.addr.i, align 4
  store i32 %3, ptr %.atomictmp.i, align 4
  switch i32 %2, label %monotonic.i [
    i32 1, label %acquire.i
    i32 2, label %acquire.i
    i32 3, label %release.i
    i32 4, label %acqrel.i
    i32 5, label %seqcst.i
  ]

monotonic.i:                                      ; preds = %if.then
  %4 = load i32, ptr %.atomictmp.i, align 4
  %5 = atomicrmw add ptr %this1.i, i32 %4 monotonic, align 4
  store i32 %5, ptr %atomic-temp.i, align 4
  br label %_ZNSt13__atomic_baseIiE9fetch_addEiSt12memory_order.exit

acquire.i:                                        ; preds = %if.then, %if.then
  %6 = load i32, ptr %.atomictmp.i, align 4
  %7 = atomicrmw add ptr %this1.i, i32 %6 acquire, align 4
  store i32 %7, ptr %atomic-temp.i, align 4
  br label %_ZNSt13__atomic_baseIiE9fetch_addEiSt12memory_order.exit

release.i:                                        ; preds = %if.then
  %8 = load i32, ptr %.atomictmp.i, align 4
  %9 = atomicrmw add ptr %this1.i, i32 %8 release, align 4
  store i32 %9, ptr %atomic-temp.i, align 4
  br label %_ZNSt13__atomic_baseIiE9fetch_addEiSt12memory_order.exit

acqrel.i:                                         ; preds = %if.then
  %10 = load i32, ptr %.atomictmp.i, align 4
  %11 = atomicrmw add ptr %this1.i, i32 %10 acq_rel, align 4
  store i32 %11, ptr %atomic-temp.i, align 4
  br label %_ZNSt13__atomic_baseIiE9fetch_addEiSt12memory_order.exit

seqcst.i:                                         ; preds = %if.then
  %12 = load i32, ptr %.atomictmp.i, align 4
  %13 = atomicrmw add ptr %this1.i, i32 %12 seq_cst, align 4
  store i32 %13, ptr %atomic-temp.i, align 4
  br label %_ZNSt13__atomic_baseIiE9fetch_addEiSt12memory_order.exit

_ZNSt13__atomic_baseIiE9fetch_addEiSt12memory_order.exit: ; preds = %seqcst.i, %acqrel.i, %release.i, %acquire.i, %monotonic.i
  br label %if.end

if.end:                                           ; preds = %_ZNSt13__atomic_baseIiE9fetch_addEiSt12memory_order.exit, %entry
  ret void
}

; Function Attrs: mustprogress nounwind uwtable
define linkonce_odr noundef zeroext i1 @_ZN4absl12lts_202308026Status9IsInlinedEm(i64 noundef %rep) #5 comdat align 2 {
entry:
  %rep.addr = alloca i64, align 8
  store i64 %rep, ptr %rep.addr, align 8
  %0 = load i64, ptr %rep.addr, align 8
  %and = and i64 %0, 1
  %cmp = icmp eq i64 %and, 0
  ret i1 %cmp
}

; Function Attrs: mustprogress nounwind uwtable
define linkonce_odr noundef ptr @_ZN4absl12lts_202308026Status12RepToPointerEm(i64 noundef %rep) #5 comdat align 2 {
entry:
  %rep.addr = alloca i64, align 8
  store i64 %rep, ptr %rep.addr, align 8
  %0 = load i64, ptr %rep.addr, align 8
  %sub = sub i64 %0, 1
  %1 = inttoptr i64 %sub to ptr
  ret ptr %1
}

; Function Attrs: mustprogress uwtable
define linkonce_odr void @_ZN4absl12lts_202308026Status5UnrefEm(i64 noundef %rep) #4 comdat align 2 {
entry:
  %rep.addr = alloca i64, align 8
  store i64 %rep, ptr %rep.addr, align 8
  %0 = load i64, ptr %rep.addr, align 8
  %call = call noundef zeroext i1 @_ZN4absl12lts_202308026Status9IsInlinedEm(i64 noundef %0)
  br i1 %call, label %if.end, label %if.then

if.then:                                          ; preds = %entry
  %1 = load i64, ptr %rep.addr, align 8
  call void @_ZN4absl12lts_202308026Status15UnrefNonInlinedEm(i64 noundef %1)
  br label %if.end

if.end:                                           ; preds = %if.then, %entry
  ret void
}

declare void @_ZN4absl12lts_202308026Status15UnrefNonInlinedEm(i64 noundef) #1

declare noundef i32 @_ZNK31grpc_channel_security_connector30channel_security_connector_cmpEPKS_(ptr noundef nonnull align 8 dereferenceable(56), ptr noundef) #1

; Function Attrs: mustprogress uwtable
define linkonce_odr void @_ZN9grpc_core12ArenaPromiseIN4absl12lts_202308026StatusEEC2INS_17ImmediateOkStatusEvEEOT_(ptr noundef nonnull align 16 dereferenceable(32) %this, ptr noundef nonnull align 1 dereferenceable(1) %callable) unnamed_addr #4 comdat align 2 {
entry:
  %this.addr = alloca ptr, align 8
  %callable.addr = alloca ptr, align 8
  store ptr %this, ptr %this.addr, align 8
  store ptr %callable, ptr %callable.addr, align 8
  %this1 = load ptr, ptr %this.addr, align 8
  %vtable_and_arg_ = getelementptr inbounds %"class.grpc_core::ArenaPromise", ptr %this1, i32 0, i32 0
  %vtable = getelementptr inbounds %"struct.grpc_core::arena_promise_detail::VtableAndArg", ptr %vtable_and_arg_, i32 0, i32 0
  store ptr @_ZN9grpc_core20arena_promise_detail4NullIN4absl12lts_202308026StatusEE6vtableE, ptr %vtable, align 16
  %arg = getelementptr inbounds %"struct.grpc_core::arena_promise_detail::VtableAndArg", ptr %vtable_and_arg_, i32 0, i32 2
  %buffer = getelementptr inbounds %"struct.grpc_core::arena_promise_detail::ArgType", ptr %arg, i32 0, i32 0
  call void @llvm.memset.p0.i64(ptr align 16 %buffer, i8 0, i64 8, i1 false)
  %0 = load ptr, ptr %callable.addr, align 8
  %vtable_and_arg_2 = getelementptr inbounds %"class.grpc_core::ArenaPromise", ptr %this1, i32 0, i32 0
  call void @_ZN9grpc_core20arena_promise_detail19MakeImplForCallableIN4absl12lts_202308026StatusENS_17ImmediateOkStatusEEEvOT0_PNS0_12VtableAndArgIT_EE(ptr noundef nonnull align 1 dereferenceable(1) %0, ptr noundef %vtable_and_arg_2)
  ret void
}

; Function Attrs: mustprogress uwtable
define linkonce_odr void @_ZN9grpc_core20arena_promise_detail19MakeImplForCallableIN4absl12lts_202308026StatusENS_17ImmediateOkStatusEEEvOT0_PNS0_12VtableAndArgIT_EE(ptr noundef nonnull align 1 dereferenceable(1) %callable, ptr noundef %out) #4 comdat {
entry:
  %callable.addr = alloca ptr, align 8
  %out.addr = alloca ptr, align 8
  store ptr %callable, ptr %callable.addr, align 8
  store ptr %out, ptr %out.addr, align 8
  %0 = load ptr, ptr %callable.addr, align 8
  %1 = load ptr, ptr %out.addr, align 8
  call void @_ZN9grpc_core20arena_promise_detail21ChooseImplForCallableIN4absl12lts_202308026StatusENS_17ImmediateOkStatusEvE4MakeEOS5_PNS0_12VtableAndArgIS4_EE(ptr noundef nonnull align 1 dereferenceable(1) %0, ptr noundef %1)
  ret void
}

; Function Attrs: mustprogress nounwind uwtable
define linkonce_odr void @_ZN9grpc_core20arena_promise_detail4NullIN4absl12lts_202308026StatusEE8PollOnceEPNS0_7ArgTypeE(ptr noalias sret(%"class.grpc_core::Poll") align 8 %agg.result, ptr noundef %0) #5 comdat align 2 {
entry:
  %result.ptr = alloca ptr, align 8
  %.addr = alloca ptr, align 8
  store ptr %agg.result, ptr %result.ptr, align 8
  store ptr %0, ptr %.addr, align 8
  call void @abort() #18
  unreachable
}

; Function Attrs: mustprogress nounwind uwtable
define linkonce_odr void @_ZN9grpc_core20arena_promise_detail4NullIN4absl12lts_202308026StatusEE7DestroyEPNS0_7ArgTypeE(ptr noundef %0) #5 comdat align 2 {
entry:
  %.addr = alloca ptr, align 8
  store ptr %0, ptr %.addr, align 8
  ret void
}

; Function Attrs: noreturn nounwind
declare void @abort() #13

; Function Attrs: mustprogress nounwind uwtable
define linkonce_odr void @_ZN9grpc_core20arena_promise_detail21ChooseImplForCallableIN4absl12lts_202308026StatusENS_17ImmediateOkStatusEvE4MakeEOS5_PNS0_12VtableAndArgIS4_EE(ptr noundef nonnull align 1 dereferenceable(1) %0, ptr noundef %out) #5 comdat align 2 {
entry:
  %.addr = alloca ptr, align 8
  %out.addr = alloca ptr, align 8
  store ptr %0, ptr %.addr, align 8
  store ptr %out, ptr %out.addr, align 8
  %1 = load ptr, ptr %out.addr, align 8
  %vtable = getelementptr inbounds %"struct.grpc_core::arena_promise_detail::VtableAndArg", ptr %1, i32 0, i32 0
  store ptr @_ZN9grpc_core20arena_promise_detail14SharedCallableIN4absl12lts_202308026StatusENS_17ImmediateOkStatusEE6vtableE, ptr %vtable, align 16
  ret void
}

; Function Attrs: mustprogress uwtable
define linkonce_odr void @_ZN9grpc_core20arena_promise_detail14SharedCallableIN4absl12lts_202308026StatusENS_17ImmediateOkStatusEE8PollOnceEPNS0_7ArgTypeE(ptr noalias sret(%"class.grpc_core::Poll") align 8 %agg.result, ptr noundef %arg) #4 comdat align 2 {
entry:
  %result.ptr = alloca ptr, align 8
  %arg.addr = alloca ptr, align 8
  store ptr %agg.result, ptr %result.ptr, align 8
  store ptr %arg, ptr %arg.addr, align 8
  %0 = load ptr, ptr %arg.addr, align 8
  call void @_ZN9grpc_core17ImmediateOkStatusclEv(ptr sret(%"class.grpc_core::Poll") align 8 %agg.result, ptr noundef nonnull align 1 dereferenceable(1) %0)
  ret void
}

; Function Attrs: mustprogress uwtable
define linkonce_odr void @_ZN9grpc_core17ImmediateOkStatusclEv(ptr noalias sret(%"class.grpc_core::Poll") align 8 %agg.result, ptr noundef nonnull align 1 dereferenceable(1) %this) #4 comdat align 2 personality ptr @__gxx_personality_v0 {
entry:
  %result.ptr = alloca ptr, align 8
  %this.addr = alloca ptr, align 8
  %ref.tmp = alloca %"class.absl::lts_20230802::Status", align 8
  %exn.slot = alloca ptr, align 8
  %ehselector.slot = alloca i32, align 4
  store ptr %agg.result, ptr %result.ptr, align 8
  store ptr %this, ptr %this.addr, align 8
  call void @_ZN4absl12lts_202308028OkStatusEv(ptr sret(%"class.absl::lts_20230802::Status") align 8 %ref.tmp)
  invoke void @_ZN9grpc_core4PollIN4absl12lts_202308026StatusEEC2EOS3_(ptr noundef nonnull align 8 dereferenceable(16) %agg.result, ptr noundef nonnull align 8 dereferenceable(8) %ref.tmp)
          to label %invoke.cont unwind label %lpad

invoke.cont:                                      ; preds = %entry
  call void @_ZN4absl12lts_202308026StatusD2Ev(ptr noundef nonnull align 8 dereferenceable(8) %ref.tmp) #3
  ret void

lpad:                                             ; preds = %entry
  %0 = landingpad { ptr, i32 }
          cleanup
  %1 = extractvalue { ptr, i32 } %0, 0
  store ptr %1, ptr %exn.slot, align 8
  %2 = extractvalue { ptr, i32 } %0, 1
  store i32 %2, ptr %ehselector.slot, align 4
  call void @_ZN4absl12lts_202308026StatusD2Ev(ptr noundef nonnull align 8 dereferenceable(8) %ref.tmp) #3
  br label %eh.resume

eh.resume:                                        ; preds = %lpad
  %exn = load ptr, ptr %exn.slot, align 8
  %sel = load i32, ptr %ehselector.slot, align 4
  %lpad.val = insertvalue { ptr, i32 } poison, ptr %exn, 0
  %lpad.val2 = insertvalue { ptr, i32 } %lpad.val, i32 %sel, 1
  resume { ptr, i32 } %lpad.val2
}

; Function Attrs: mustprogress uwtable
define linkonce_odr void @_ZN9grpc_core4PollIN4absl12lts_202308026StatusEEC2EOS3_(ptr noundef nonnull align 8 dereferenceable(16) %this, ptr noundef nonnull align 8 dereferenceable(8) %value) unnamed_addr #4 comdat align 2 {
entry:
  %this.addr = alloca ptr, align 8
  %value.addr = alloca ptr, align 8
  store ptr %this, ptr %this.addr, align 8
  store ptr %value, ptr %value.addr, align 8
  %this1 = load ptr, ptr %this.addr, align 8
  %ready_ = getelementptr inbounds %"class.grpc_core::Poll", ptr %this1, i32 0, i32 0
  store i8 1, ptr %ready_, align 8
  %0 = getelementptr inbounds %"class.grpc_core::Poll", ptr %this1, i32 0, i32 1
  %1 = load ptr, ptr %value.addr, align 8
  call void @_ZN9grpc_core9ConstructIN4absl12lts_202308026StatusEJS3_EEEvPT_DpOT0_(ptr noundef %0, ptr noundef nonnull align 8 dereferenceable(8) %1)
  ret void
}

; Function Attrs: mustprogress nounwind uwtable
define linkonce_odr void @_ZN9grpc_core9ConstructIN4absl12lts_202308026StatusEJS3_EEEvPT_DpOT0_(ptr noundef %p, ptr noundef nonnull align 8 dereferenceable(8) %args) #5 comdat {
entry:
  %p.addr = alloca ptr, align 8
  %args.addr = alloca ptr, align 8
  store ptr %p, ptr %p.addr, align 8
  store ptr %args, ptr %args.addr, align 8
  %0 = load ptr, ptr %p.addr, align 8
  %1 = load ptr, ptr %args.addr, align 8
  call void @_ZN4absl12lts_202308026StatusC2EOS1_(ptr noundef nonnull align 8 dereferenceable(8) %0, ptr noundef nonnull align 8 dereferenceable(8) %1) #3
  ret void
}

; Function Attrs: mustprogress nounwind uwtable
define linkonce_odr void @_ZN4absl12lts_202308026StatusC2EOS1_(ptr noundef nonnull align 8 dereferenceable(8) %this, ptr noundef nonnull align 8 dereferenceable(8) %x) unnamed_addr #5 comdat align 2 personality ptr @__gxx_personality_v0 {
entry:
  %this.addr = alloca ptr, align 8
  %x.addr = alloca ptr, align 8
  store ptr %this, ptr %this.addr, align 8
  store ptr %x, ptr %x.addr, align 8
  %this1 = load ptr, ptr %this.addr, align 8
  %rep_ = getelementptr inbounds %"class.absl::lts_20230802::Status", ptr %this1, i32 0, i32 0
  %0 = load ptr, ptr %x.addr, align 8
  %rep_2 = getelementptr inbounds %"class.absl::lts_20230802::Status", ptr %0, i32 0, i32 0
  %1 = load i64, ptr %rep_2, align 8
  store i64 %1, ptr %rep_, align 8
  %call = invoke noundef i64 @_ZN4absl12lts_202308026Status12MovedFromRepEv()
          to label %invoke.cont unwind label %terminate.lpad

invoke.cont:                                      ; preds = %entry
  %2 = load ptr, ptr %x.addr, align 8
  %rep_3 = getelementptr inbounds %"class.absl::lts_20230802::Status", ptr %2, i32 0, i32 0
  store i64 %call, ptr %rep_3, align 8
  ret void

terminate.lpad:                                   ; preds = %entry
  %3 = landingpad { ptr, i32 }
          catch ptr null
  %4 = extractvalue { ptr, i32 } %3, 0
  call void @__clang_call_terminate(ptr %4) #18
  unreachable
}

; Function Attrs: mustprogress nounwind uwtable
define linkonce_odr noundef i64 @_ZN4absl12lts_202308026Status12MovedFromRepEv() #5 comdat align 2 {
entry:
  %call = call noundef i64 @_ZN4absl12lts_202308026Status16CodeToInlinedRepENS0_10StatusCodeE(i32 noundef 13)
  %or = or i64 %call, 2
  ret i64 %or
}

; Function Attrs: mustprogress uwtable
define linkonce_odr noundef ptr @_ZNK31grpc_channel_security_connector13channel_credsEv(ptr noundef nonnull align 8 dereferenceable(56) %this) #4 comdat align 2 {
entry:
  %this.addr = alloca ptr, align 8
  store ptr %this, ptr %this.addr, align 8
  %this1 = load ptr, ptr %this.addr, align 8
  %channel_creds_ = getelementptr inbounds %class.grpc_channel_security_connector, ptr %this1, i32 0, i32 1
  %call = call noundef ptr @_ZNK9grpc_core13RefCountedPtrI24grpc_channel_credentialsE3getEv(ptr noundef nonnull align 8 dereferenceable(8) %channel_creds_)
  ret ptr %call
}

; Function Attrs: mustprogress nounwind uwtable
define linkonce_odr noundef nonnull align 4 dereferenceable(4) ptr @_ZSt3maxIiERKT_S2_S2_(ptr noundef nonnull align 4 dereferenceable(4) %__a, ptr noundef nonnull align 4 dereferenceable(4) %__b) #5 comdat {
entry:
  %retval = alloca ptr, align 8
  %__a.addr = alloca ptr, align 8
  %__b.addr = alloca ptr, align 8
  store ptr %__a, ptr %__a.addr, align 8
  store ptr %__b, ptr %__b.addr, align 8
  %0 = load ptr, ptr %__a.addr, align 8
  %1 = load i32, ptr %0, align 4
  %2 = load ptr, ptr %__b.addr, align 8
  %3 = load i32, ptr %2, align 4
  %cmp = icmp slt i32 %1, %3
  br i1 %cmp, label %if.then, label %if.end

if.then:                                          ; preds = %entry
  %4 = load ptr, ptr %__b.addr, align 8
  store ptr %4, ptr %retval, align 8
  br label %return

if.end:                                           ; preds = %entry
  %5 = load ptr, ptr %__a.addr, align 8
  store ptr %5, ptr %retval, align 8
  br label %return

return:                                           ; preds = %if.end, %if.then
  %6 = load ptr, ptr %retval, align 8
  ret ptr %6
}

declare i64 @_ZNK9grpc_core11ChannelArgs6GetIntESt17basic_string_viewIcSt11char_traitsIcEE(ptr noundef nonnull align 8 dereferenceable(8), i64, ptr) #1

; Function Attrs: mustprogress nounwind uwtable
define linkonce_odr noundef i32 @_ZNOSt8optionalIiE8value_orIiEEiOT_(ptr noundef nonnull align 4 dereferenceable(8) %this, ptr noundef nonnull align 4 dereferenceable(4) %__u) #5 comdat align 2 {
entry:
  %retval = alloca i32, align 4
  %this.addr = alloca ptr, align 8
  %__u.addr = alloca ptr, align 8
  store ptr %this, ptr %this.addr, align 8
  store ptr %__u, ptr %__u.addr, align 8
  %this1 = load ptr, ptr %this.addr, align 8
  %call = call noundef zeroext i1 @_ZNKSt19_Optional_base_implIiSt14_Optional_baseIiLb1ELb1EEE13_M_is_engagedEv(ptr noundef nonnull align 1 dereferenceable(1) %this1) #3
  br i1 %call, label %if.then, label %if.else

if.then:                                          ; preds = %entry
  %call2 = call noundef nonnull align 4 dereferenceable(4) ptr @_ZNSt19_Optional_base_implIiSt14_Optional_baseIiLb1ELb1EEE6_M_getEv(ptr noundef nonnull align 1 dereferenceable(1) %this1) #3
  %0 = load i32, ptr %call2, align 4
  store i32 %0, ptr %retval, align 4
  br label %return

if.else:                                          ; preds = %entry
  %1 = load ptr, ptr %__u.addr, align 8
  %2 = load i32, ptr %1, align 4
  store i32 %2, ptr %retval, align 4
  br label %return

return:                                           ; preds = %if.else, %if.then
  %3 = load i32, ptr %retval, align 4
  ret i32 %3
}

declare noundef i32 @_Z26alts_tsi_handshaker_createPK29grpc_alts_credentials_optionsPKcS3_bP16grpc_pollset_setPP14tsi_handshakerm(ptr noundef, ptr noundef, ptr noundef, i1 noundef zeroext, ptr noundef, ptr noundef, i64 noundef) #1

; Function Attrs: mustprogress nounwind uwtable
define linkonce_odr noundef ptr @_ZNK21grpc_alts_credentials7optionsEv(ptr noundef nonnull align 8 dereferenceable(32) %this) #5 comdat align 2 {
entry:
  %this.addr = alloca ptr, align 8
  store ptr %this, ptr %this.addr, align 8
  %this1 = load ptr, ptr %this.addr, align 8
  %options_ = getelementptr inbounds %class.grpc_alts_credentials, ptr %this1, i32 0, i32 1
  %0 = load ptr, ptr %options_, align 8
  ret ptr %0
}

; Function Attrs: mustprogress nounwind uwtable
define linkonce_odr noundef ptr @_ZNK21grpc_alts_credentials22handshaker_service_urlEv(ptr noundef nonnull align 8 dereferenceable(32) %this) #5 comdat align 2 {
entry:
  %this.addr = alloca ptr, align 8
  store ptr %this, ptr %this.addr, align 8
  %this1 = load ptr, ptr %this.addr, align 8
  %handshaker_service_url_ = getelementptr inbounds %class.grpc_alts_credentials, ptr %this1, i32 0, i32 2
  %0 = load ptr, ptr %handshaker_service_url_, align 8
  ret ptr %0
}

declare void @_ZN9grpc_core16HandshakeManager3AddENS_13RefCountedPtrINS_10HandshakerEEE(ptr noundef nonnull align 8 dereferenceable(216), ptr noundef) #1

declare void @_ZN9grpc_core24SecurityHandshakerCreateEP14tsi_handshakerP23grpc_security_connectorRKNS_11ChannelArgsE(ptr sret(%"class.grpc_core::RefCountedPtr.45") align 8, ptr noundef, ptr noundef, ptr noundef nonnull align 8 dereferenceable(8)) #1

; Function Attrs: mustprogress nounwind uwtable
define linkonce_odr void @_ZN9grpc_core13RefCountedPtrINS_10HandshakerEED2Ev(ptr noundef nonnull align 8 dereferenceable(8) %this) unnamed_addr #5 comdat align 2 personality ptr @__gxx_personality_v0 {
entry:
  %this.addr = alloca ptr, align 8
  store ptr %this, ptr %this.addr, align 8
  %this1 = load ptr, ptr %this.addr, align 8
  %value_ = getelementptr inbounds %"class.grpc_core::RefCountedPtr.45", ptr %this1, i32 0, i32 0
  %0 = load ptr, ptr %value_, align 8
  %cmp = icmp ne ptr %0, null
  br i1 %cmp, label %if.then, label %if.end

if.then:                                          ; preds = %entry
  %value_2 = getelementptr inbounds %"class.grpc_core::RefCountedPtr.45", ptr %this1, i32 0, i32 0
  %1 = load ptr, ptr %value_2, align 8
  invoke void @_ZNK9grpc_core10RefCountedINS_10HandshakerENS_19PolymorphicRefCountENS_11UnrefDeleteEE5UnrefEv(ptr noundef nonnull align 8 dereferenceable(16) %1)
          to label %invoke.cont unwind label %terminate.lpad

invoke.cont:                                      ; preds = %if.then
  br label %if.end

if.end:                                           ; preds = %invoke.cont, %entry
  ret void

terminate.lpad:                                   ; preds = %if.then
  %2 = landingpad { ptr, i32 }
          catch ptr null
  %3 = extractvalue { ptr, i32 } %2, 0
  call void @__clang_call_terminate(ptr %3) #18
  unreachable
}

; Function Attrs: mustprogress nounwind uwtable
define linkonce_odr noundef ptr @_ZNK9grpc_core13RefCountedPtrI24grpc_channel_credentialsE3getEv(ptr noundef nonnull align 8 dereferenceable(8) %this) #5 comdat align 2 {
entry:
  %this.addr = alloca ptr, align 8
  store ptr %this, ptr %this.addr, align 8
  %this1 = load ptr, ptr %this.addr, align 8
  %value_ = getelementptr inbounds %"class.grpc_core::RefCountedPtr.1", ptr %this1, i32 0, i32 0
  %0 = load ptr, ptr %value_, align 8
  ret ptr %0
}

; Function Attrs: mustprogress nounwind uwtable
define linkonce_odr noundef zeroext i1 @_ZNKSt19_Optional_base_implIiSt14_Optional_baseIiLb1ELb1EEE13_M_is_engagedEv(ptr noundef nonnull align 1 dereferenceable(1) %this) #5 comdat align 2 {
entry:
  %this.addr = alloca ptr, align 8
  store ptr %this, ptr %this.addr, align 8
  %this1 = load ptr, ptr %this.addr, align 8
  %_M_payload = getelementptr inbounds %"struct.std::_Optional_base", ptr %this1, i32 0, i32 0
  %_M_engaged = getelementptr inbounds %"struct.std::_Optional_payload_base", ptr %_M_payload, i32 0, i32 1
  %0 = load i8, ptr %_M_engaged, align 4
  %tobool = trunc i8 %0 to i1
  ret i1 %tobool
}

; Function Attrs: mustprogress nounwind uwtable
define linkonce_odr noundef nonnull align 4 dereferenceable(4) ptr @_ZNSt19_Optional_base_implIiSt14_Optional_baseIiLb1ELb1EEE6_M_getEv(ptr noundef nonnull align 1 dereferenceable(1) %this) #5 comdat align 2 {
entry:
  %this.addr = alloca ptr, align 8
  store ptr %this, ptr %this.addr, align 8
  %this1 = load ptr, ptr %this.addr, align 8
  br label %do.body

do.body:                                          ; preds = %entry
  br label %do.cond

do.cond:                                          ; preds = %do.body
  br label %do.end

do.end:                                           ; preds = %do.cond
  %_M_payload = getelementptr inbounds %"struct.std::_Optional_base", ptr %this1, i32 0, i32 0
  %call = call noundef nonnull align 4 dereferenceable(4) ptr @_ZNSt22_Optional_payload_baseIiE6_M_getEv(ptr noundef nonnull align 4 dereferenceable(5) %_M_payload) #3
  ret ptr %call
}

; Function Attrs: mustprogress nounwind uwtable
define linkonce_odr noundef nonnull align 4 dereferenceable(4) ptr @_ZNSt22_Optional_payload_baseIiE6_M_getEv(ptr noundef nonnull align 4 dereferenceable(5) %this) #5 comdat align 2 {
entry:
  %this.addr = alloca ptr, align 8
  store ptr %this, ptr %this.addr, align 8
  %this1 = load ptr, ptr %this.addr, align 8
  %_M_payload = getelementptr inbounds %"struct.std::_Optional_payload_base", ptr %this1, i32 0, i32 0
  ret ptr %_M_payload
}

; Function Attrs: mustprogress uwtable
define linkonce_odr void @_ZNK9grpc_core10RefCountedINS_10HandshakerENS_19PolymorphicRefCountENS_11UnrefDeleteEE5UnrefEv(ptr noundef nonnull align 8 dereferenceable(16) %this) #4 comdat align 2 {
entry:
  %this.addr = alloca ptr, align 8
  store ptr %this, ptr %this.addr, align 8
  %this1 = load ptr, ptr %this.addr, align 8
  %refs_ = getelementptr inbounds %"class.grpc_core::RefCounted.46", ptr %this1, i32 0, i32 1
  %call = call noundef zeroext i1 @_ZN9grpc_core8RefCount5UnrefEv(ptr noundef nonnull align 8 dereferenceable(8) %refs_)
  br i1 %call, label %if.then, label %if.end

if.then:                                          ; preds = %entry
  call void @_ZNK9grpc_core11UnrefDeleteclIKNS_10HandshakerEEEvPT_(ptr noundef nonnull align 1 dereferenceable(1) %this1, ptr noundef %this1)
  br label %if.end

if.end:                                           ; preds = %if.then, %entry
  ret void
}

; Function Attrs: mustprogress nounwind uwtable
define linkonce_odr void @_ZNK9grpc_core11UnrefDeleteclIKNS_10HandshakerEEEvPT_(ptr noundef nonnull align 1 dereferenceable(1) %this, ptr noundef %p) #5 comdat align 2 {
entry:
  %this.addr = alloca ptr, align 8
  %p.addr = alloca ptr, align 8
  store ptr %this, ptr %this.addr, align 8
  store ptr %p, ptr %p.addr, align 8
  %0 = load ptr, ptr %p.addr, align 8
  %isnull = icmp eq ptr %0, null
  br i1 %isnull, label %delete.end, label %delete.notnull

delete.notnull:                                   ; preds = %entry
  %vtable = load ptr, ptr %0, align 8
  %vfn = getelementptr inbounds ptr, ptr %vtable, i64 1
  %1 = load ptr, ptr %vfn, align 8
  call void %1(ptr noundef nonnull align 8 dereferenceable(16) %0) #3
  br label %delete.end

delete.end:                                       ; preds = %delete.notnull, %entry
  ret void
}

; Function Attrs: mustprogress uwtable
define linkonce_odr void @_ZNK9grpc_core10RefCountedI21grpc_call_credentialsNS_19PolymorphicRefCountENS_11UnrefDeleteEE5UnrefEv(ptr noundef nonnull align 8 dereferenceable(16) %this) #4 comdat align 2 {
entry:
  %this.addr = alloca ptr, align 8
  store ptr %this, ptr %this.addr, align 8
  %this1 = load ptr, ptr %this.addr, align 8
  %refs_ = getelementptr inbounds %"class.grpc_core::RefCounted.47", ptr %this1, i32 0, i32 1
  %call = call noundef zeroext i1 @_ZN9grpc_core8RefCount5UnrefEv(ptr noundef nonnull align 8 dereferenceable(8) %refs_)
  br i1 %call, label %if.then, label %if.end

if.then:                                          ; preds = %entry
  call void @_ZNK9grpc_core11UnrefDeleteclIK21grpc_call_credentialsEEvPT_(ptr noundef nonnull align 1 dereferenceable(1) %this1, ptr noundef %this1)
  br label %if.end

if.end:                                           ; preds = %if.then, %entry
  ret void
}

; Function Attrs: mustprogress nounwind uwtable
define linkonce_odr void @_ZNK9grpc_core11UnrefDeleteclIK21grpc_call_credentialsEEvPT_(ptr noundef nonnull align 1 dereferenceable(1) %this, ptr noundef %p) #5 comdat align 2 {
entry:
  %this.addr = alloca ptr, align 8
  %p.addr = alloca ptr, align 8
  store ptr %this, ptr %this.addr, align 8
  store ptr %p, ptr %p.addr, align 8
  %0 = load ptr, ptr %p.addr, align 8
  %isnull = icmp eq ptr %0, null
  br i1 %isnull, label %delete.end, label %delete.notnull

delete.notnull:                                   ; preds = %entry
  %vtable = load ptr, ptr %0, align 8
  %vfn = getelementptr inbounds ptr, ptr %vtable, i64 1
  %1 = load ptr, ptr %vfn, align 8
  call void %1(ptr noundef nonnull align 8 dereferenceable(20) %0) #3
  br label %delete.end

delete.end:                                       ; preds = %delete.notnull, %entry
  ret void
}

; Function Attrs: mustprogress uwtable
define linkonce_odr void @_ZNK9grpc_core10RefCountedI24grpc_channel_credentialsNS_19PolymorphicRefCountENS_11UnrefDeleteEE5UnrefEv(ptr noundef nonnull align 8 dereferenceable(16) %this) #4 comdat align 2 {
entry:
  %this.addr = alloca ptr, align 8
  store ptr %this, ptr %this.addr, align 8
  %this1 = load ptr, ptr %this.addr, align 8
  %refs_ = getelementptr inbounds %"class.grpc_core::RefCounted.36", ptr %this1, i32 0, i32 1
  %call = call noundef zeroext i1 @_ZN9grpc_core8RefCount5UnrefEv(ptr noundef nonnull align 8 dereferenceable(8) %refs_)
  br i1 %call, label %if.then, label %if.end

if.then:                                          ; preds = %entry
  call void @_ZNK9grpc_core11UnrefDeleteclIK24grpc_channel_credentialsEEvPT_(ptr noundef nonnull align 1 dereferenceable(1) %this1, ptr noundef %this1)
  br label %if.end

if.end:                                           ; preds = %if.then, %entry
  ret void
}

; Function Attrs: mustprogress nounwind uwtable
define linkonce_odr void @_ZNK9grpc_core11UnrefDeleteclIK24grpc_channel_credentialsEEvPT_(ptr noundef nonnull align 1 dereferenceable(1) %this, ptr noundef %p) #5 comdat align 2 {
entry:
  %this.addr = alloca ptr, align 8
  %p.addr = alloca ptr, align 8
  store ptr %this, ptr %this.addr, align 8
  store ptr %p, ptr %p.addr, align 8
  %0 = load ptr, ptr %p.addr, align 8
  %isnull = icmp eq ptr %0, null
  br i1 %isnull, label %delete.end, label %delete.notnull

delete.notnull:                                   ; preds = %entry
  %vtable = load ptr, ptr %0, align 8
  %vfn = getelementptr inbounds ptr, ptr %vtable, i64 1
  %1 = load ptr, ptr %vfn, align 8
  call void %1(ptr noundef nonnull align 8 dereferenceable(16) %0) #3
  br label %delete.end

delete.end:                                       ; preds = %delete.notnull, %entry
  ret void
}

; Function Attrs: mustprogress uwtable
define linkonce_odr void @_ZNK9grpc_core10RefCountedI23grpc_security_connectorNS_19PolymorphicRefCountENS_11UnrefDeleteEE5UnrefEv(ptr noundef nonnull align 8 dereferenceable(16) %this) #4 comdat align 2 {
entry:
  %this.addr = alloca ptr, align 8
  store ptr %this, ptr %this.addr, align 8
  %this1 = load ptr, ptr %this.addr, align 8
  %refs_ = getelementptr inbounds %"class.grpc_core::RefCounted.11", ptr %this1, i32 0, i32 1
  %call = call noundef zeroext i1 @_ZN9grpc_core8RefCount5UnrefEv(ptr noundef nonnull align 8 dereferenceable(8) %refs_)
  br i1 %call, label %if.then, label %if.end

if.then:                                          ; preds = %entry
  call void @_ZNK9grpc_core11UnrefDeleteclIK23grpc_security_connectorEEvPT_(ptr noundef nonnull align 1 dereferenceable(1) %this1, ptr noundef %this1)
  br label %if.end

if.end:                                           ; preds = %if.then, %entry
  ret void
}

; Function Attrs: mustprogress nounwind uwtable
define linkonce_odr void @_ZNK9grpc_core11UnrefDeleteclIK23grpc_security_connectorEEvPT_(ptr noundef nonnull align 1 dereferenceable(1) %this, ptr noundef %p) #5 comdat align 2 {
entry:
  %this.addr = alloca ptr, align 8
  %p.addr = alloca ptr, align 8
  store ptr %this, ptr %this.addr, align 8
  store ptr %p, ptr %p.addr, align 8
  %0 = load ptr, ptr %p.addr, align 8
  %isnull = icmp eq ptr %0, null
  br i1 %isnull, label %delete.end, label %delete.notnull

delete.notnull:                                   ; preds = %entry
  %vtable = load ptr, ptr %0, align 8
  %vfn = getelementptr inbounds ptr, ptr %vtable, i64 1
  %1 = load ptr, ptr %vfn, align 8
  call void %1(ptr noundef nonnull align 8 dereferenceable(32) %0) #3
  br label %delete.end

delete.end:                                       ; preds = %delete.notnull, %entry
  ret void
}

; Function Attrs: mustprogress nounwind uwtable
define linkonce_odr void @_ZN9grpc_core13RefCountedPtrI23grpc_server_credentialsEC2EOS2_(ptr noundef nonnull align 8 dereferenceable(8) %this, ptr noundef nonnull align 8 dereferenceable(8) %other) unnamed_addr #5 comdat align 2 {
entry:
  %this.addr = alloca ptr, align 8
  %other.addr = alloca ptr, align 8
  store ptr %this, ptr %this.addr, align 8
  store ptr %other, ptr %other.addr, align 8
  %this1 = load ptr, ptr %this.addr, align 8
  %value_ = getelementptr inbounds %"class.grpc_core::RefCountedPtr.5", ptr %this1, i32 0, i32 0
  store ptr null, ptr %value_, align 8
  %0 = load ptr, ptr %other.addr, align 8
  %value_2 = getelementptr inbounds %"class.grpc_core::RefCountedPtr.5", ptr %0, i32 0, i32 0
  %1 = load ptr, ptr %value_2, align 8
  %value_3 = getelementptr inbounds %"class.grpc_core::RefCountedPtr.5", ptr %this1, i32 0, i32 0
  store ptr %1, ptr %value_3, align 8
  %2 = load ptr, ptr %other.addr, align 8
  %value_4 = getelementptr inbounds %"class.grpc_core::RefCountedPtr.5", ptr %2, i32 0, i32 0
  store ptr null, ptr %value_4, align 8
  ret void
}

; Function Attrs: mustprogress uwtable
define internal void @_ZN12_GLOBAL__N_135grpc_alts_server_security_connectorC2EN9grpc_core13RefCountedPtrI23grpc_server_credentialsEE(ptr noundef nonnull align 8 dereferenceable(40) %this, ptr noundef %server_creds) unnamed_addr #4 align 2 personality ptr @__gxx_personality_v0 {
entry:
  %this.addr = alloca ptr, align 8
  %server_creds.indirect_addr = alloca ptr, align 8
  %agg.tmp = alloca %"class.std::basic_string_view", align 8
  %agg.tmp2 = alloca %"class.grpc_core::RefCountedPtr.5", align 8
  %exn.slot = alloca ptr, align 8
  %ehselector.slot = alloca i32, align 4
  store ptr %this, ptr %this.addr, align 8
  store ptr %server_creds, ptr %server_creds.indirect_addr, align 8
  %this1 = load ptr, ptr %this.addr, align 8
  call void @_ZNSt17basic_string_viewIcSt11char_traitsIcEEC2EPKc(ptr noundef nonnull align 8 dereferenceable(16) %agg.tmp, ptr noundef @.str.24) #3
  call void @_ZN9grpc_core13RefCountedPtrI23grpc_server_credentialsEC2EOS2_(ptr noundef nonnull align 8 dereferenceable(8) %agg.tmp2, ptr noundef nonnull align 8 dereferenceable(8) %server_creds) #3
  %0 = getelementptr inbounds { i64, ptr }, ptr %agg.tmp, i32 0, i32 0
  %1 = load i64, ptr %0, align 8
  %2 = getelementptr inbounds { i64, ptr }, ptr %agg.tmp, i32 0, i32 1
  %3 = load ptr, ptr %2, align 8
  invoke void @_ZN30grpc_server_security_connectorC2ESt17basic_string_viewIcSt11char_traitsIcEEN9grpc_core13RefCountedPtrI23grpc_server_credentialsEE(ptr noundef nonnull align 8 dereferenceable(40) %this1, i64 %1, ptr %3, ptr noundef %agg.tmp2)
          to label %invoke.cont unwind label %lpad

invoke.cont:                                      ; preds = %entry
  call void @_ZN9grpc_core13RefCountedPtrI23grpc_server_credentialsED2Ev(ptr noundef nonnull align 8 dereferenceable(8) %agg.tmp2) #3
  store ptr getelementptr inbounds ({ [9 x ptr] }, ptr @_ZTVN12_GLOBAL__N_135grpc_alts_server_security_connectorE, i32 0, inrange i32 0, i32 2), ptr %this1, align 8
  ret void

lpad:                                             ; preds = %entry
  %4 = landingpad { ptr, i32 }
          cleanup
  %5 = extractvalue { ptr, i32 } %4, 0
  store ptr %5, ptr %exn.slot, align 8
  %6 = extractvalue { ptr, i32 } %4, 1
  store i32 %6, ptr %ehselector.slot, align 4
  call void @_ZN9grpc_core13RefCountedPtrI23grpc_server_credentialsED2Ev(ptr noundef nonnull align 8 dereferenceable(8) %agg.tmp2) #3
  br label %eh.resume

eh.resume:                                        ; preds = %lpad
  %exn = load ptr, ptr %exn.slot, align 8
  %sel = load i32, ptr %ehselector.slot, align 4
  %lpad.val = insertvalue { ptr, i32 } poison, ptr %exn, 0
  %lpad.val3 = insertvalue { ptr, i32 } %lpad.val, i32 %sel, 1
  resume { ptr, i32 } %lpad.val3
}

; Function Attrs: mustprogress nounwind uwtable
define internal void @_ZN9grpc_core13RefCountedPtrIN12_GLOBAL__N_135grpc_alts_server_security_connectorEEC2IS2_EEPT_(ptr noundef nonnull align 8 dereferenceable(8) %this, ptr noundef %value) unnamed_addr #5 align 2 {
entry:
  %this.addr = alloca ptr, align 8
  %value.addr = alloca ptr, align 8
  store ptr %this, ptr %this.addr, align 8
  store ptr %value, ptr %value.addr, align 8
  %this1 = load ptr, ptr %this.addr, align 8
  %value_ = getelementptr inbounds %"class.grpc_core::RefCountedPtr.6", ptr %this1, i32 0, i32 0
  %0 = load ptr, ptr %value.addr, align 8
  store ptr %0, ptr %value_, align 8
  ret void
}

; Function Attrs: mustprogress nounwind uwtable
define linkonce_odr void @_ZN9grpc_core13RefCountedPtrI23grpc_server_credentialsED2Ev(ptr noundef nonnull align 8 dereferenceable(8) %this) unnamed_addr #5 comdat align 2 personality ptr @__gxx_personality_v0 {
entry:
  %this.addr = alloca ptr, align 8
  store ptr %this, ptr %this.addr, align 8
  %this1 = load ptr, ptr %this.addr, align 8
  %value_ = getelementptr inbounds %"class.grpc_core::RefCountedPtr.5", ptr %this1, i32 0, i32 0
  %0 = load ptr, ptr %value_, align 8
  %cmp = icmp ne ptr %0, null
  br i1 %cmp, label %if.then, label %if.end

if.then:                                          ; preds = %entry
  %value_2 = getelementptr inbounds %"class.grpc_core::RefCountedPtr.5", ptr %this1, i32 0, i32 0
  %1 = load ptr, ptr %value_2, align 8
  invoke void @_ZNK9grpc_core10RefCountedI23grpc_server_credentialsNS_19PolymorphicRefCountENS_11UnrefDeleteEE5UnrefEv(ptr noundef nonnull align 8 dereferenceable(16) %1)
          to label %invoke.cont unwind label %terminate.lpad

invoke.cont:                                      ; preds = %if.then
  br label %if.end

if.end:                                           ; preds = %invoke.cont, %entry
  ret void

terminate.lpad:                                   ; preds = %if.then
  %2 = landingpad { ptr, i32 }
          catch ptr null
  %3 = extractvalue { ptr, i32 } %2, 0
  call void @__clang_call_terminate(ptr %3) #18
  unreachable
}

declare void @_ZN30grpc_server_security_connectorC2ESt17basic_string_viewIcSt11char_traitsIcEEN9grpc_core13RefCountedPtrI23grpc_server_credentialsEE(ptr noundef nonnull align 8 dereferenceable(40), i64, ptr, ptr noundef) unnamed_addr #1

; Function Attrs: mustprogress nounwind uwtable
define internal void @_ZN12_GLOBAL__N_135grpc_alts_server_security_connectorD2Ev(ptr noundef nonnull align 8 dereferenceable(40) %this) unnamed_addr #5 align 2 {
entry:
  %this.addr = alloca ptr, align 8
  store ptr %this, ptr %this.addr, align 8
  %this1 = load ptr, ptr %this.addr, align 8
  call void @_ZN30grpc_server_security_connectorD2Ev(ptr noundef nonnull align 8 dereferenceable(40) %this1) #3
  ret void
}

; Function Attrs: mustprogress nounwind uwtable
define internal void @_ZN12_GLOBAL__N_135grpc_alts_server_security_connectorD0Ev(ptr noundef nonnull align 8 dereferenceable(40) %this) unnamed_addr #5 align 2 {
entry:
  %this.addr = alloca ptr, align 8
  store ptr %this, ptr %this.addr, align 8
  %this1 = load ptr, ptr %this.addr, align 8
  call void @_ZN12_GLOBAL__N_135grpc_alts_server_security_connectorD2Ev(ptr noundef nonnull align 8 dereferenceable(40) %this1) #3
  call void @_ZdlPv(ptr noundef %this1) #17
  ret void
}

; Function Attrs: mustprogress uwtable
define internal void @_ZN12_GLOBAL__N_135grpc_alts_server_security_connector10check_peerE8tsi_peerP13grpc_endpointRKN9grpc_core11ChannelArgsEPNS4_13RefCountedPtrI17grpc_auth_contextEEP12grpc_closure(ptr noundef nonnull align 8 dereferenceable(40) %this, ptr %peer.coerce0, i64 %peer.coerce1, ptr noundef %0, ptr noundef nonnull align 8 dereferenceable(8) %1, ptr noundef %auth_context, ptr noundef %on_peer_checked) unnamed_addr #4 align 2 {
entry:
  %peer = alloca %struct.tsi_peer, align 8
  %this.addr = alloca ptr, align 8
  %.addr = alloca ptr, align 8
  %.addr1 = alloca ptr, align 8
  %auth_context.addr = alloca ptr, align 8
  %on_peer_checked.addr = alloca ptr, align 8
  %agg.tmp = alloca %struct.tsi_peer, align 8
  %2 = getelementptr inbounds { ptr, i64 }, ptr %peer, i32 0, i32 0
  store ptr %peer.coerce0, ptr %2, align 8
  %3 = getelementptr inbounds { ptr, i64 }, ptr %peer, i32 0, i32 1
  store i64 %peer.coerce1, ptr %3, align 8
  store ptr %this, ptr %this.addr, align 8
  store ptr %0, ptr %.addr, align 8
  store ptr %1, ptr %.addr1, align 8
  store ptr %auth_context, ptr %auth_context.addr, align 8
  store ptr %on_peer_checked, ptr %on_peer_checked.addr, align 8
  call void @llvm.memcpy.p0.p0.i64(ptr align 8 %agg.tmp, ptr align 8 %peer, i64 16, i1 false)
  %4 = load ptr, ptr %auth_context.addr, align 8
  %5 = load ptr, ptr %on_peer_checked.addr, align 8
  %6 = getelementptr inbounds { ptr, i64 }, ptr %agg.tmp, i32 0, i32 0
  %7 = load ptr, ptr %6, align 8
  %8 = getelementptr inbounds { ptr, i64 }, ptr %agg.tmp, i32 0, i32 1
  %9 = load i64, ptr %8, align 8
  call void @_ZN12_GLOBAL__N_115alts_check_peerE8tsi_peerPN9grpc_core13RefCountedPtrI17grpc_auth_contextEEP12grpc_closure(ptr %7, i64 %9, ptr noundef %4, ptr noundef %5)
  ret void
}

; Function Attrs: mustprogress nounwind uwtable
define internal void @_ZN12_GLOBAL__N_135grpc_alts_server_security_connector17cancel_check_peerEP12grpc_closureN4absl12lts_202308026StatusE(ptr noundef nonnull align 8 dereferenceable(40) %this, ptr noundef %0, ptr noundef %1) unnamed_addr #5 align 2 {
entry:
  %this.addr = alloca ptr, align 8
  %.addr = alloca ptr, align 8
  %.indirect_addr = alloca ptr, align 8
  store ptr %this, ptr %this.addr, align 8
  store ptr %0, ptr %.addr, align 8
  store ptr %1, ptr %.indirect_addr, align 8
  ret void
}

; Function Attrs: mustprogress uwtable
define internal noundef i32 @_ZNK12_GLOBAL__N_135grpc_alts_server_security_connector3cmpEPK23grpc_security_connector(ptr noundef nonnull align 8 dereferenceable(40) %this, ptr noundef %other) unnamed_addr #4 align 2 {
entry:
  %this.addr = alloca ptr, align 8
  %other.addr = alloca ptr, align 8
  store ptr %this, ptr %this.addr, align 8
  store ptr %other, ptr %other.addr, align 8
  %this1 = load ptr, ptr %this.addr, align 8
  %0 = load ptr, ptr %other.addr, align 8
  %call = call noundef i32 @_ZNK30grpc_server_security_connector29server_security_connector_cmpEPKS_(ptr noundef nonnull align 8 dereferenceable(40) %this1, ptr noundef %0)
  ret i32 %call
}

declare void @_ZNK30grpc_server_security_connector4typeEv(ptr sret(%"class.grpc_core::UniqueTypeName") align 8, ptr noundef nonnull align 8 dereferenceable(40)) unnamed_addr #1

; Function Attrs: mustprogress uwtable
define internal void @_ZN12_GLOBAL__N_135grpc_alts_server_security_connector15add_handshakersERKN9grpc_core11ChannelArgsEP16grpc_pollset_setPNS1_16HandshakeManagerE(ptr noundef nonnull align 8 dereferenceable(40) %this, ptr noundef nonnull align 8 dereferenceable(8) %args, ptr noundef %interested_parties, ptr noundef %handshake_manager) unnamed_addr #4 align 2 personality ptr @__gxx_personality_v0 {
entry:
  %this.addr = alloca ptr, align 8
  %args.addr = alloca ptr, align 8
  %interested_parties.addr = alloca ptr, align 8
  %handshake_manager.addr = alloca ptr, align 8
  %handshaker = alloca ptr, align 8
  %creds = alloca ptr, align 8
  %user_specified_max_frame_size = alloca i64, align 8
  %ref.tmp = alloca i32, align 4
  %ref.tmp2 = alloca i32, align 4
  %ref.tmp3 = alloca %"class.std::optional", align 4
  %agg.tmp = alloca %"class.std::basic_string_view", align 8
  %ref.tmp6 = alloca i32, align 4
  %agg.tmp13 = alloca %"class.grpc_core::RefCountedPtr.45", align 8
  %exn.slot = alloca ptr, align 8
  %ehselector.slot = alloca i32, align 4
  store ptr %this, ptr %this.addr, align 8
  store ptr %args, ptr %args.addr, align 8
  store ptr %interested_parties, ptr %interested_parties.addr, align 8
  store ptr %handshake_manager, ptr %handshake_manager.addr, align 8
  %this1 = load ptr, ptr %this.addr, align 8
  store ptr null, ptr %handshaker, align 8
  %call = call noundef ptr @_ZNK30grpc_server_security_connector12server_credsEv(ptr noundef nonnull align 8 dereferenceable(40) %this1)
  store ptr %call, ptr %creds, align 8
  store i32 0, ptr %ref.tmp, align 4
  %0 = load ptr, ptr %args.addr, align 8
  call void @_ZNSt17basic_string_viewIcSt11char_traitsIcEEC2EPKc(ptr noundef nonnull align 8 dereferenceable(16) %agg.tmp, ptr noundef @.str.26) #3
  %1 = getelementptr inbounds { i64, ptr }, ptr %agg.tmp, i32 0, i32 0
  %2 = load i64, ptr %1, align 8
  %3 = getelementptr inbounds { i64, ptr }, ptr %agg.tmp, i32 0, i32 1
  %4 = load ptr, ptr %3, align 8
  %call4 = call i64 @_ZNK9grpc_core11ChannelArgs6GetIntESt17basic_string_viewIcSt11char_traitsIcEE(ptr noundef nonnull align 8 dereferenceable(8) %0, i64 %2, ptr %4)
  %coerce.dive = getelementptr inbounds %"class.std::optional", ptr %ref.tmp3, i32 0, i32 0
  %coerce.dive5 = getelementptr inbounds %"struct.std::_Optional_base", ptr %coerce.dive, i32 0, i32 0
  store i64 %call4, ptr %coerce.dive5, align 4
  store i32 0, ptr %ref.tmp6, align 4
  %call7 = call noundef i32 @_ZNOSt8optionalIiE8value_orIiEEiOT_(ptr noundef nonnull align 4 dereferenceable(8) %ref.tmp3, ptr noundef nonnull align 4 dereferenceable(4) %ref.tmp6)
  store i32 %call7, ptr %ref.tmp2, align 4
  %call8 = call noundef nonnull align 4 dereferenceable(4) ptr @_ZSt3maxIiERKT_S2_S2_(ptr noundef nonnull align 4 dereferenceable(4) %ref.tmp, ptr noundef nonnull align 4 dereferenceable(4) %ref.tmp2)
  %5 = load i32, ptr %call8, align 4
  %conv = sext i32 %5 to i64
  store i64 %conv, ptr %user_specified_max_frame_size, align 8
  br label %do.body

do.body:                                          ; preds = %entry
  %6 = load ptr, ptr %creds, align 8
  %call9 = call noundef ptr @_ZNK28grpc_alts_server_credentials7optionsEv(ptr noundef nonnull align 8 dereferenceable(56) %6)
  %7 = load ptr, ptr %creds, align 8
  %call10 = call noundef ptr @_ZNK28grpc_alts_server_credentials22handshaker_service_urlEv(ptr noundef nonnull align 8 dereferenceable(56) %7)
  %8 = load ptr, ptr %interested_parties.addr, align 8
  %9 = load i64, ptr %user_specified_max_frame_size, align 8
  %call11 = call noundef i32 @_Z26alts_tsi_handshaker_createPK29grpc_alts_credentials_optionsPKcS3_bP16grpc_pollset_setPP14tsi_handshakerm(ptr noundef %call9, ptr noundef null, ptr noundef %call10, i1 noundef zeroext false, ptr noundef %8, ptr noundef %handshaker, i64 noundef %9)
  %cmp = icmp eq i32 %call11, 0
  %lnot = xor i1 %cmp, true
  br i1 %lnot, label %if.then, label %if.end

if.then:                                          ; preds = %do.body
  call void @gpr_assertion_failed(ptr noundef @.str, i32 noundef 163, ptr noundef @.str.28) #15
  unreachable

if.end:                                           ; preds = %do.body
  br label %do.end

do.end:                                           ; preds = %if.end
  %10 = load ptr, ptr %handshake_manager.addr, align 8
  %11 = load ptr, ptr %handshaker, align 8
  %12 = load ptr, ptr %args.addr, align 8
  call void @_ZN9grpc_core24SecurityHandshakerCreateEP14tsi_handshakerP23grpc_security_connectorRKNS_11ChannelArgsE(ptr sret(%"class.grpc_core::RefCountedPtr.45") align 8 %agg.tmp13, ptr noundef %11, ptr noundef %this1, ptr noundef nonnull align 8 dereferenceable(8) %12)
  invoke void @_ZN9grpc_core16HandshakeManager3AddENS_13RefCountedPtrINS_10HandshakerEEE(ptr noundef nonnull align 8 dereferenceable(216) %10, ptr noundef %agg.tmp13)
          to label %invoke.cont unwind label %lpad

invoke.cont:                                      ; preds = %do.end
  call void @_ZN9grpc_core13RefCountedPtrINS_10HandshakerEED2Ev(ptr noundef nonnull align 8 dereferenceable(8) %agg.tmp13) #3
  ret void

lpad:                                             ; preds = %do.end
  %13 = landingpad { ptr, i32 }
          cleanup
  %14 = extractvalue { ptr, i32 } %13, 0
  store ptr %14, ptr %exn.slot, align 8
  %15 = extractvalue { ptr, i32 } %13, 1
  store i32 %15, ptr %ehselector.slot, align 4
  call void @_ZN9grpc_core13RefCountedPtrINS_10HandshakerEED2Ev(ptr noundef nonnull align 8 dereferenceable(8) %agg.tmp13) #3
  br label %eh.resume

eh.resume:                                        ; preds = %lpad
  %exn = load ptr, ptr %exn.slot, align 8
  %sel = load i32, ptr %ehselector.slot, align 4
  %lpad.val = insertvalue { ptr, i32 } poison, ptr %exn, 0
  %lpad.val14 = insertvalue { ptr, i32 } %lpad.val, i32 %sel, 1
  resume { ptr, i32 } %lpad.val14
}

; Function Attrs: mustprogress nounwind uwtable
define linkonce_odr void @_ZN30grpc_server_security_connectorD2Ev(ptr noundef nonnull align 8 dereferenceable(40) %this) unnamed_addr #5 comdat align 2 {
entry:
  %this.addr = alloca ptr, align 8
  store ptr %this, ptr %this.addr, align 8
  %this1 = load ptr, ptr %this.addr, align 8
  store ptr getelementptr inbounds ({ [9 x ptr] }, ptr @_ZTV30grpc_server_security_connector, i32 0, inrange i32 0, i32 2), ptr %this1, align 8
  %server_creds_ = getelementptr inbounds %class.grpc_server_security_connector, ptr %this1, i32 0, i32 1
  call void @_ZN9grpc_core13RefCountedPtrI23grpc_server_credentialsED2Ev(ptr noundef nonnull align 8 dereferenceable(8) %server_creds_) #3
  call void @_ZN23grpc_security_connectorD2Ev(ptr noundef nonnull align 8 dereferenceable(32) %this1) #3
  ret void
}

declare noundef i32 @_ZNK30grpc_server_security_connector29server_security_connector_cmpEPKS_(ptr noundef nonnull align 8 dereferenceable(40), ptr noundef) #1

; Function Attrs: mustprogress uwtable
define linkonce_odr noundef ptr @_ZNK30grpc_server_security_connector12server_credsEv(ptr noundef nonnull align 8 dereferenceable(40) %this) #4 comdat align 2 {
entry:
  %this.addr = alloca ptr, align 8
  store ptr %this, ptr %this.addr, align 8
  %this1 = load ptr, ptr %this.addr, align 8
  %server_creds_ = getelementptr inbounds %class.grpc_server_security_connector, ptr %this1, i32 0, i32 1
  %call = call noundef ptr @_ZNK9grpc_core13RefCountedPtrI23grpc_server_credentialsE3getEv(ptr noundef nonnull align 8 dereferenceable(8) %server_creds_)
  ret ptr %call
}

; Function Attrs: mustprogress nounwind uwtable
define linkonce_odr noundef ptr @_ZNK28grpc_alts_server_credentials7optionsEv(ptr noundef nonnull align 8 dereferenceable(56) %this) #5 comdat align 2 {
entry:
  %this.addr = alloca ptr, align 8
  store ptr %this, ptr %this.addr, align 8
  %this1 = load ptr, ptr %this.addr, align 8
  %options_ = getelementptr inbounds %class.grpc_alts_server_credentials, ptr %this1, i32 0, i32 1
  %0 = load ptr, ptr %options_, align 8
  ret ptr %0
}

; Function Attrs: mustprogress nounwind uwtable
define linkonce_odr noundef ptr @_ZNK28grpc_alts_server_credentials22handshaker_service_urlEv(ptr noundef nonnull align 8 dereferenceable(56) %this) #5 comdat align 2 {
entry:
  %this.addr = alloca ptr, align 8
  store ptr %this, ptr %this.addr, align 8
  %this1 = load ptr, ptr %this.addr, align 8
  %handshaker_service_url_ = getelementptr inbounds %class.grpc_alts_server_credentials, ptr %this1, i32 0, i32 2
  %0 = load ptr, ptr %handshaker_service_url_, align 8
  ret ptr %0
}

; Function Attrs: mustprogress nounwind uwtable
define linkonce_odr noundef ptr @_ZNK9grpc_core13RefCountedPtrI23grpc_server_credentialsE3getEv(ptr noundef nonnull align 8 dereferenceable(8) %this) #5 comdat align 2 {
entry:
  %this.addr = alloca ptr, align 8
  store ptr %this, ptr %this.addr, align 8
  %this1 = load ptr, ptr %this.addr, align 8
  %value_ = getelementptr inbounds %"class.grpc_core::RefCountedPtr.5", ptr %this1, i32 0, i32 0
  %0 = load ptr, ptr %value_, align 8
  ret ptr %0
}

; Function Attrs: mustprogress uwtable
define linkonce_odr void @_ZNK9grpc_core10RefCountedI23grpc_server_credentialsNS_19PolymorphicRefCountENS_11UnrefDeleteEE5UnrefEv(ptr noundef nonnull align 8 dereferenceable(16) %this) #4 comdat align 2 {
entry:
  %this.addr = alloca ptr, align 8
  store ptr %this, ptr %this.addr, align 8
  %this1 = load ptr, ptr %this.addr, align 8
  %refs_ = getelementptr inbounds %"class.grpc_core::RefCounted.48", ptr %this1, i32 0, i32 1
  %call = call noundef zeroext i1 @_ZN9grpc_core8RefCount5UnrefEv(ptr noundef nonnull align 8 dereferenceable(8) %refs_)
  br i1 %call, label %if.then, label %if.end

if.then:                                          ; preds = %entry
  call void @_ZNK9grpc_core11UnrefDeleteclIK23grpc_server_credentialsEEvPT_(ptr noundef nonnull align 1 dereferenceable(1) %this1, ptr noundef %this1)
  br label %if.end

if.end:                                           ; preds = %if.then, %entry
  ret void
}

; Function Attrs: mustprogress nounwind uwtable
define linkonce_odr void @_ZNK9grpc_core11UnrefDeleteclIK23grpc_server_credentialsEEvPT_(ptr noundef nonnull align 1 dereferenceable(1) %this, ptr noundef %p) #5 comdat align 2 {
entry:
  %this.addr = alloca ptr, align 8
  %p.addr = alloca ptr, align 8
  store ptr %this, ptr %this.addr, align 8
  store ptr %p, ptr %p.addr, align 8
  %0 = load ptr, ptr %p.addr, align 8
  %isnull = icmp eq ptr %0, null
  br i1 %isnull, label %delete.end, label %delete.notnull

delete.notnull:                                   ; preds = %entry
  %vtable = load ptr, ptr %0, align 8
  %vfn = getelementptr inbounds ptr, ptr %vtable, i64 1
  %1 = load ptr, ptr %vfn, align 8
  call void %1(ptr noundef nonnull align 8 dereferenceable(40) %0) #3
  br label %delete.end

delete.end:                                       ; preds = %delete.notnull, %entry
  ret void
}

; Function Attrs: uwtable
define internal void @_GLOBAL__sub_I_alts_security_connector.cc() #0 section ".text.startup" {
entry:
  call void @__cxx_global_var_init()
  ret void
}

attributes #0 = { uwtable "frame-pointer"="all" "min-legal-vector-width"="0" "no-trapping-math"="true" "stack-protector-buffer-size"="8" "target-cpu"="x86-64" "target-features"="+cmov,+cx8,+fxsr,+mmx,+sse,+sse2,+x87" "tune-cpu"="generic" }
