target datalayout = "e-m:e-p270:32:32-p271:32:32-p272:64:64-i64:64-i128:128-f80:128-n8:16:32:64-S128"
target triple = "x86_64-unknown-linux-gnu"

%"class.std::ios_base::Init" = type { i8 }
%"class.grpc_core::NoDestruct" = type { [8 x i8] }
%"class.grpc_core::NoDestruct.132" = type { [8 x i8] }
%"class.grpc_core::NoDestruct.133" = type { [8 x i8] }
%"class.grpc_core::NoDestruct.134" = type { [8 x i8] }
%"class.grpc_core::NoDestruct.135" = type { [8 x i8] }
%"class.grpc_core::NoDestruct.136" = type { [8 x i8] }
%"class.grpc_core::NoDestruct.137" = type { [8 x i8] }
%"class.grpc_core::NoDestruct.138" = type { [8 x i8] }
%"class.grpc_core::NoDestruct.139" = type { [8 x i8] }
%"class.grpc_core::NoDestruct.140" = type { [8 x i8] }
%"struct.std::atomic" = type { %"struct.std::__atomic_base" }
%"struct.std::__atomic_base" = type { ptr }
%"class.grpc_core::json_detail::JsonObjectLoader" = type { %"class.grpc_core::json_detail::Vec" }
%"class.grpc_core::json_detail::Vec" = type { [1 x %"struct.grpc_core::json_detail::Element"] }
%"struct.grpc_core::json_detail::Element" = type { ptr, i16, i8, ptr, ptr }
%"class.grpc_core::json_detail::JsonObjectLoader.0" = type { i8 }
%"class.grpc_core::json_detail::JsonObjectLoader.1" = type { %"class.grpc_core::json_detail::Vec.2" }
%"class.grpc_core::json_detail::Vec.2" = type { [2 x %"struct.grpc_core::json_detail::Element"] }
%"class.grpc_core::json_detail::JsonObjectLoader.3" = type { %"class.grpc_core::json_detail::Vec" }
%"class.grpc_core::json_detail::JsonObjectLoader.4" = type { i8 }
%"class.grpc_core::ValidationErrors::ScopedField" = type { ptr }
%"class.std::basic_string_view" = type { i64, ptr }
%"struct.std::_Rb_tree_const_iterator" = type { ptr }
%"class.std::__cxx11::basic_string" = type { %"struct.std::__cxx11::basic_string<char>::_Alloc_hider", i64, %union.anon }
%"struct.std::__cxx11::basic_string<char>::_Alloc_hider" = type { ptr }
%union.anon = type { i64, [8 x i8] }
%"class.std::allocator.34" = type { i8 }
%"class.absl::lts_20230802::StatusOr" = type { %"class.absl::lts_20230802::internal_statusor::StatusOrData" }
%"class.absl::lts_20230802::internal_statusor::StatusOrData" = type { %union.anon.74, %union.anon.75 }
%union.anon.74 = type { %"class.absl::lts_20230802::Status" }
%"class.absl::lts_20230802::Status" = type { i64 }
%union.anon.75 = type { %"class.grpc_core::RefCountedPtr" }
%"class.grpc_core::RefCountedPtr" = type { ptr }
%"class.absl::lts_20230802::AlphaNum" = type { %"class.std::basic_string_view", [32 x i8] }
%"struct.std::pair" = type { %"class.std::__cxx11::basic_string", %"class.grpc_core::experimental::Json" }
%"class.grpc_core::experimental::Json" = type { %"class.std::variant" }
%"class.std::variant" = type { %"struct.std::__detail::__variant::_Variant_base.base", [7 x i8] }
%"struct.std::__detail::__variant::_Variant_base.base" = type { %"struct.std::__detail::__variant::_Move_assign_base.base" }
%"struct.std::__detail::__variant::_Move_assign_base.base" = type { %"struct.std::__detail::__variant::_Copy_assign_base.base" }
%"struct.std::__detail::__variant::_Copy_assign_base.base" = type { %"struct.std::__detail::__variant::_Move_ctor_base.base" }
%"struct.std::__detail::__variant::_Move_ctor_base.base" = type { %"struct.std::__detail::__variant::_Copy_ctor_base.base" }
%"struct.std::__detail::__variant::_Copy_ctor_base.base" = type { %"struct.std::__detail::__variant::_Variant_storage.base" }
%"struct.std::__detail::__variant::_Variant_storage.base" = type { %"union.std::__detail::__variant::_Variadic_union", i8 }
%"union.std::__detail::__variant::_Variadic_union" = type { %"union.std::__detail::__variant::_Variadic_union.52" }
%"union.std::__detail::__variant::_Variadic_union.52" = type { %"union.std::__detail::__variant::_Variadic_union.54" }
%"union.std::__detail::__variant::_Variadic_union.54" = type { %"union.std::__detail::__variant::_Variadic_union.56" }
%"union.std::__detail::__variant::_Variadic_union.56" = type { %"union.std::__detail::__variant::_Variadic_union.59" }
%"union.std::__detail::__variant::_Variadic_union.59" = type { %"struct.std::__detail::__variant::_Uninitialized.60" }
%"struct.std::__detail::__variant::_Uninitialized.60" = type { %"struct.__gnu_cxx::__aligned_membuf.61" }
%"struct.__gnu_cxx::__aligned_membuf.61" = type { [48 x i8] }
%"class.grpc_core::internal::ClientChannelGlobalParsedConfig" = type { %"class.grpc_core::ServiceConfigParser::ParsedConfig", %"class.grpc_core::RefCountedPtr", %"class.std::__cxx11::basic_string", %"struct.grpc_core::internal::ClientChannelGlobalParsedConfig::HealthCheckConfig" }
%"class.grpc_core::ServiceConfigParser::ParsedConfig" = type { ptr }
%"struct.grpc_core::internal::ClientChannelGlobalParsedConfig::HealthCheckConfig" = type { %"class.std::optional" }
%"class.std::optional" = type { %"struct.std::_Optional_base" }
%"struct.std::_Optional_base" = type { %"struct.std::_Optional_payload" }
%"struct.std::_Optional_payload" = type { %"struct.std::_Optional_payload.base", [7 x i8] }
%"struct.std::_Optional_payload.base" = type { %"struct.std::_Optional_payload_base.base" }
%"struct.std::_Optional_payload_base.base" = type <{ %"union.std::_Optional_payload_base<std::__cxx11::basic_string<char>>::_Storage", i8 }>
%"union.std::_Optional_payload_base<std::__cxx11::basic_string<char>>::_Storage" = type { %"class.std::__cxx11::basic_string" }
%"class.grpc_core::CoreConfiguration" = type { %"class.grpc_core::ChannelArgsPreconditioning", %"class.grpc_core::ChannelInit", %"class.grpc_core::HandshakerRegistry", %"class.grpc_core::ChannelCredsRegistry", %"class.grpc_core::ServiceConfigParser", %"class.grpc_core::ResolverRegistry", %"class.grpc_core::LoadBalancingPolicyRegistry", %"class.grpc_core::ProxyMapperRegistry", %"class.grpc_core::CertificateProviderRegistry" }
%"class.grpc_core::ChannelArgsPreconditioning" = type { %"class.std::vector" }
%"class.std::vector" = type { %"struct.std::_Vector_base" }
%"struct.std::_Vector_base" = type { %"struct.std::_Vector_base<std::function<grpc_core::ChannelArgs (grpc_core::ChannelArgs)>, std::allocator<std::function<grpc_core::ChannelArgs (grpc_core::ChannelArgs)>>>::_Vector_impl" }
%"struct.std::_Vector_base<std::function<grpc_core::ChannelArgs (grpc_core::ChannelArgs)>, std::allocator<std::function<grpc_core::ChannelArgs (grpc_core::ChannelArgs)>>>::_Vector_impl" = type { %"struct.std::_Vector_base<std::function<grpc_core::ChannelArgs (grpc_core::ChannelArgs)>, std::allocator<std::function<grpc_core::ChannelArgs (grpc_core::ChannelArgs)>>>::_Vector_impl_data" }
%"struct.std::_Vector_base<std::function<grpc_core::ChannelArgs (grpc_core::ChannelArgs)>, std::allocator<std::function<grpc_core::ChannelArgs (grpc_core::ChannelArgs)>>>::_Vector_impl_data" = type { ptr, ptr, ptr }
%"class.grpc_core::ChannelInit" = type { [6 x %"struct.grpc_core::ChannelInit::StackConfig"] }
%"struct.grpc_core::ChannelInit::StackConfig" = type { %"class.std::vector.6", %"class.std::vector.6", %"class.std::vector.11" }
%"class.std::vector.6" = type { %"struct.std::_Vector_base.7" }
%"struct.std::_Vector_base.7" = type { %"struct.std::_Vector_base<grpc_core::ChannelInit::Filter, std::allocator<grpc_core::ChannelInit::Filter>>::_Vector_impl" }
%"struct.std::_Vector_base<grpc_core::ChannelInit::Filter, std::allocator<grpc_core::ChannelInit::Filter>>::_Vector_impl" = type { %"struct.std::_Vector_base<grpc_core::ChannelInit::Filter, std::allocator<grpc_core::ChannelInit::Filter>>::_Vector_impl_data" }
%"struct.std::_Vector_base<grpc_core::ChannelInit::Filter, std::allocator<grpc_core::ChannelInit::Filter>>::_Vector_impl_data" = type { ptr, ptr, ptr }
%"class.std::vector.11" = type { %"struct.std::_Vector_base.12" }
%"struct.std::_Vector_base.12" = type { %"struct.std::_Vector_base<absl::lts_20230802::AnyInvocable<void (grpc_core::ChannelStackBuilder &) const>, std::allocator<absl::lts_20230802::AnyInvocable<void (grpc_core::ChannelStackBuilder &) const>>>::_Vector_impl" }
%"struct.std::_Vector_base<absl::lts_20230802::AnyInvocable<void (grpc_core::ChannelStackBuilder &) const>, std::allocator<absl::lts_20230802::AnyInvocable<void (grpc_core::ChannelStackBuilder &) const>>>::_Vector_impl" = type { %"struct.std::_Vector_base<absl::lts_20230802::AnyInvocable<void (grpc_core::ChannelStackBuilder &) const>, std::allocator<absl::lts_20230802::AnyInvocable<void (grpc_core::ChannelStackBuilder &) const>>>::_Vector_impl_data" }
%"struct.std::_Vector_base<absl::lts_20230802::AnyInvocable<void (grpc_core::ChannelStackBuilder &) const>, std::allocator<absl::lts_20230802::AnyInvocable<void (grpc_core::ChannelStackBuilder &) const>>>::_Vector_impl_data" = type { ptr, ptr, ptr }
%"class.grpc_core::HandshakerRegistry" = type { [2 x %"class.std::vector.16"] }
%"class.std::vector.16" = type { %"struct.std::_Vector_base.17" }
%"struct.std::_Vector_base.17" = type { %"struct.std::_Vector_base<std::unique_ptr<grpc_core::HandshakerFactory>, std::allocator<std::unique_ptr<grpc_core::HandshakerFactory>>>::_Vector_impl" }
%"struct.std::_Vector_base<std::unique_ptr<grpc_core::HandshakerFactory>, std::allocator<std::unique_ptr<grpc_core::HandshakerFactory>>>::_Vector_impl" = type { %"struct.std::_Vector_base<std::unique_ptr<grpc_core::HandshakerFactory>, std::allocator<std::unique_ptr<grpc_core::HandshakerFactory>>>::_Vector_impl_data" }
%"struct.std::_Vector_base<std::unique_ptr<grpc_core::HandshakerFactory>, std::allocator<std::unique_ptr<grpc_core::HandshakerFactory>>>::_Vector_impl_data" = type { ptr, ptr, ptr }
%"class.grpc_core::ChannelCredsRegistry" = type { %"class.std::map" }
%"class.std::map" = type { %"class.std::_Rb_tree" }
%"class.std::_Rb_tree" = type { %"struct.std::_Rb_tree<std::basic_string_view<char>, std::pair<const std::basic_string_view<char>, std::unique_ptr<grpc_core::ChannelCredsFactory<grpc_channel_credentials>>>, std::_Select1st<std::pair<const std::basic_string_view<char>, std::unique_ptr<grpc_core::ChannelCredsFactory<grpc_channel_credentials>>>>, std::less<std::basic_string_view<char>>>::_Rb_tree_impl" }
%"struct.std::_Rb_tree<std::basic_string_view<char>, std::pair<const std::basic_string_view<char>, std::unique_ptr<grpc_core::ChannelCredsFactory<grpc_channel_credentials>>>, std::_Select1st<std::pair<const std::basic_string_view<char>, std::unique_ptr<grpc_core::ChannelCredsFactory<grpc_channel_credentials>>>>, std::less<std::basic_string_view<char>>>::_Rb_tree_impl" = type { %"struct.std::_Rb_tree_key_compare", %"struct.std::_Rb_tree_header" }
%"struct.std::_Rb_tree_key_compare" = type { %"struct.std::less" }
%"struct.std::less" = type { i8 }
%"struct.std::_Rb_tree_header" = type { %"struct.std::_Rb_tree_node_base", i64 }
%"struct.std::_Rb_tree_node_base" = type { i32, ptr, ptr, ptr }
%"class.grpc_core::ServiceConfigParser" = type { %"class.std::vector.24" }
%"class.std::vector.24" = type { %"struct.std::_Vector_base.25" }
%"struct.std::_Vector_base.25" = type { %"struct.std::_Vector_base<std::unique_ptr<grpc_core::ServiceConfigParser::Parser>, std::allocator<std::unique_ptr<grpc_core::ServiceConfigParser::Parser>>>::_Vector_impl" }
%"struct.std::_Vector_base<std::unique_ptr<grpc_core::ServiceConfigParser::Parser>, std::allocator<std::unique_ptr<grpc_core::ServiceConfigParser::Parser>>>::_Vector_impl" = type { %"struct.std::_Vector_base<std::unique_ptr<grpc_core::ServiceConfigParser::Parser>, std::allocator<std::unique_ptr<grpc_core::ServiceConfigParser::Parser>>>::_Vector_impl_data" }
%"struct.std::_Vector_base<std::unique_ptr<grpc_core::ServiceConfigParser::Parser>, std::allocator<std::unique_ptr<grpc_core::ServiceConfigParser::Parser>>>::_Vector_impl_data" = type { ptr, ptr, ptr }
%"class.grpc_core::ResolverRegistry" = type { %"struct.grpc_core::ResolverRegistry::State" }
%"struct.grpc_core::ResolverRegistry::State" = type { %"class.std::map.29", %"class.std::__cxx11::basic_string" }
%"class.std::map.29" = type { %"class.std::_Rb_tree.30" }
%"class.std::_Rb_tree.30" = type { %"struct.std::_Rb_tree<std::basic_string_view<char>, std::pair<const std::basic_string_view<char>, std::unique_ptr<grpc_core::ResolverFactory>>, std::_Select1st<std::pair<const std::basic_string_view<char>, std::unique_ptr<grpc_core::ResolverFactory>>>, std::less<std::basic_string_view<char>>>::_Rb_tree_impl" }
%"struct.std::_Rb_tree<std::basic_string_view<char>, std::pair<const std::basic_string_view<char>, std::unique_ptr<grpc_core::ResolverFactory>>, std::_Select1st<std::pair<const std::basic_string_view<char>, std::unique_ptr<grpc_core::ResolverFactory>>>, std::less<std::basic_string_view<char>>>::_Rb_tree_impl" = type { %"struct.std::_Rb_tree_key_compare", %"struct.std::_Rb_tree_header" }
%"class.grpc_core::LoadBalancingPolicyRegistry" = type { %"class.std::map.37" }
%"class.std::map.37" = type { %"class.std::_Rb_tree.38" }
%"class.std::_Rb_tree.38" = type { %"struct.std::_Rb_tree<std::basic_string_view<char>, std::pair<const std::basic_string_view<char>, std::unique_ptr<grpc_core::LoadBalancingPolicyFactory>>, std::_Select1st<std::pair<const std::basic_string_view<char>, std::unique_ptr<grpc_core::LoadBalancingPolicyFactory>>>, std::less<std::basic_string_view<char>>>::_Rb_tree_impl" }
%"struct.std::_Rb_tree<std::basic_string_view<char>, std::pair<const std::basic_string_view<char>, std::unique_ptr<grpc_core::LoadBalancingPolicyFactory>>, std::_Select1st<std::pair<const std::basic_string_view<char>, std::unique_ptr<grpc_core::LoadBalancingPolicyFactory>>>, std::less<std::basic_string_view<char>>>::_Rb_tree_impl" = type { %"struct.std::_Rb_tree_key_compare", %"struct.std::_Rb_tree_header" }
%"class.grpc_core::ProxyMapperRegistry" = type { %"class.std::vector.42" }
%"class.std::vector.42" = type { %"struct.std::_Vector_base.43" }
%"struct.std::_Vector_base.43" = type { %"struct.std::_Vector_base<std::unique_ptr<grpc_core::ProxyMapperInterface>, std::allocator<std::unique_ptr<grpc_core::ProxyMapperInterface>>>::_Vector_impl" }
%"struct.std::_Vector_base<std::unique_ptr<grpc_core::ProxyMapperInterface>, std::allocator<std::unique_ptr<grpc_core::ProxyMapperInterface>>>::_Vector_impl" = type { %"struct.std::_Vector_base<std::unique_ptr<grpc_core::ProxyMapperInterface>, std::allocator<std::unique_ptr<grpc_core::ProxyMapperInterface>>>::_Vector_impl_data" }
%"struct.std::_Vector_base<std::unique_ptr<grpc_core::ProxyMapperInterface>, std::allocator<std::unique_ptr<grpc_core::ProxyMapperInterface>>>::_Vector_impl_data" = type { ptr, ptr, ptr }
%"class.grpc_core::CertificateProviderRegistry" = type { %"class.std::map.47" }
%"class.std::map.47" = type { %"class.std::_Rb_tree.48" }
%"class.std::_Rb_tree.48" = type { %"struct.std::_Rb_tree<std::basic_string_view<char>, std::pair<const std::basic_string_view<char>, std::unique_ptr<grpc_core::CertificateProviderFactory>>, std::_Select1st<std::pair<const std::basic_string_view<char>, std::unique_ptr<grpc_core::CertificateProviderFactory>>>, std::less<std::basic_string_view<char>>>::_Rb_tree_impl" }
%"struct.std::_Rb_tree<std::basic_string_view<char>, std::pair<const std::basic_string_view<char>, std::unique_ptr<grpc_core::CertificateProviderFactory>>, std::_Select1st<std::pair<const std::basic_string_view<char>, std::unique_ptr<grpc_core::CertificateProviderFactory>>>, std::less<std::basic_string_view<char>>>::_Rb_tree_impl" = type { %"struct.std::_Rb_tree_key_compare", %"struct.std::_Rb_tree_header" }
%"class.std::map.66" = type { %"class.std::_Rb_tree.67" }
%"class.std::_Rb_tree.67" = type { %"struct.std::_Rb_tree<std::__cxx11::basic_string<char>, std::pair<const std::__cxx11::basic_string<char>, grpc_core::experimental::Json>, std::_Select1st<std::pair<const std::__cxx11::basic_string<char>, grpc_core::experimental::Json>>, std::less<std::__cxx11::basic_string<char>>>::_Rb_tree_impl" }
%"struct.std::_Rb_tree<std::__cxx11::basic_string<char>, std::pair<const std::__cxx11::basic_string<char>, grpc_core::experimental::Json>, std::_Select1st<std::pair<const std::__cxx11::basic_string<char>, grpc_core::experimental::Json>>, std::less<std::__cxx11::basic_string<char>>>::_Rb_tree_impl" = type { %"struct.std::_Rb_tree_key_compare.71", %"struct.std::_Rb_tree_header" }
%"struct.std::_Rb_tree_key_compare.71" = type { %"struct.std::less.72" }
%"struct.std::less.72" = type { i8 }
%"struct.absl::lts_20230802::status_internal::StatusRep" = type { %"struct.std::atomic.141", i32, %"class.std::__cxx11::basic_string", %"class.std::unique_ptr.143" }
%"struct.std::atomic.141" = type { %"struct.std::__atomic_base.142" }
%"struct.std::__atomic_base.142" = type { i32 }
%"class.std::unique_ptr.143" = type { %"struct.std::__uniq_ptr_data.144" }
%"struct.std::__uniq_ptr_data.144" = type { %"class.std::__uniq_ptr_impl.145" }
%"class.std::__uniq_ptr_impl.145" = type { %"class.std::tuple.146" }
%"class.std::tuple.146" = type { %"struct.std::_Tuple_impl.147" }
%"struct.std::_Tuple_impl.147" = type { %"struct.std::_Head_base.150" }
%"struct.std::_Head_base.150" = type { ptr }
%"class.grpc_core::json_detail::JsonObjectLoader.89" = type { %"class.grpc_core::json_detail::Vec.2" }
%"class.grpc_core::json_detail::JsonObjectLoader.90" = type { %"class.grpc_core::json_detail::Vec" }
%"class.grpc_core::json_detail::JsonObjectLoader.91" = type { i8 }
%"class.std::unique_ptr" = type { %"struct.std::__uniq_ptr_data" }
%"struct.std::__uniq_ptr_data" = type { %"class.std::__uniq_ptr_impl" }
%"class.std::__uniq_ptr_impl" = type { %"class.std::tuple" }
%"class.std::tuple" = type { %"struct.std::_Tuple_impl" }
%"struct.std::_Tuple_impl" = type { %"struct.std::_Head_base.99" }
%"struct.std::_Head_base.99" = type { ptr }
%"class.std::unique_ptr.100" = type { %"struct.std::__uniq_ptr_data.101" }
%"struct.std::__uniq_ptr_data.101" = type { %"class.std::__uniq_ptr_impl.102" }
%"class.std::__uniq_ptr_impl.102" = type { %"class.std::tuple.103" }
%"class.std::tuple.103" = type { %"struct.std::_Tuple_impl.104" }
%"struct.std::_Tuple_impl.104" = type { %"struct.std::_Head_base.107" }
%"struct.std::_Head_base.107" = type { ptr }
%"class.grpc_core::CoreConfiguration::Builder" = type { %"class.grpc_core::ChannelArgsPreconditioning::Builder", [8 x i8], %"class.grpc_core::ChannelInit::Builder", %"class.grpc_core::HandshakerRegistry::Builder", %"class.grpc_core::ChannelCredsRegistry<>::Builder", %"class.grpc_core::ServiceConfigParser::Builder", %"class.grpc_core::ResolverRegistry::Builder", %"class.grpc_core::LoadBalancingPolicyRegistry::Builder", %"class.grpc_core::ProxyMapperRegistry::Builder", %"class.grpc_core::CertificateProviderRegistry::Builder" }
%"class.grpc_core::ChannelArgsPreconditioning::Builder" = type { %"class.std::vector" }
%"class.grpc_core::ChannelInit::Builder" = type { [6 x %"class.std::vector.93"], [6 x [2 x %"class.absl::lts_20230802::AnyInvocable"]] }
%"class.std::vector.93" = type { %"struct.std::_Vector_base.94" }
%"struct.std::_Vector_base.94" = type { %"struct.std::_Vector_base<std::unique_ptr<grpc_core::ChannelInit::FilterRegistration>, std::allocator<std::unique_ptr<grpc_core::ChannelInit::FilterRegistration>>>::_Vector_impl" }
%"struct.std::_Vector_base<std::unique_ptr<grpc_core::ChannelInit::FilterRegistration>, std::allocator<std::unique_ptr<grpc_core::ChannelInit::FilterRegistration>>>::_Vector_impl" = type { %"struct.std::_Vector_base<std::unique_ptr<grpc_core::ChannelInit::FilterRegistration>, std::allocator<std::unique_ptr<grpc_core::ChannelInit::FilterRegistration>>>::_Vector_impl_data" }
%"struct.std::_Vector_base<std::unique_ptr<grpc_core::ChannelInit::FilterRegistration>, std::allocator<std::unique_ptr<grpc_core::ChannelInit::FilterRegistration>>>::_Vector_impl_data" = type { ptr, ptr, ptr }
%"class.absl::lts_20230802::AnyInvocable" = type { %"class.absl::lts_20230802::internal_any_invocable::Impl" }
%"class.absl::lts_20230802::internal_any_invocable::Impl" = type { %"class.absl::lts_20230802::internal_any_invocable::CoreImpl" }
%"class.absl::lts_20230802::internal_any_invocable::CoreImpl" = type { %"union.absl::lts_20230802::internal_any_invocable::TypeErasedState", ptr, ptr }
%"union.absl::lts_20230802::internal_any_invocable::TypeErasedState" = type { %struct.anon }
%struct.anon = type { ptr, i64 }
%"class.grpc_core::HandshakerRegistry::Builder" = type { [2 x %"class.std::vector.16"] }
%"class.grpc_core::ChannelCredsRegistry<>::Builder" = type { %"class.std::map" }
%"class.grpc_core::ServiceConfigParser::Builder" = type { %"class.std::vector.24" }
%"class.grpc_core::ResolverRegistry::Builder" = type { %"struct.grpc_core::ResolverRegistry::State" }
%"class.grpc_core::LoadBalancingPolicyRegistry::Builder" = type { %"class.std::map.37" }
%"class.grpc_core::ProxyMapperRegistry::Builder" = type { %"class.std::vector.42" }
%"class.grpc_core::CertificateProviderRegistry::Builder" = type { %"class.std::map.47" }
%"class.std::unique_ptr.108" = type { %"struct.std::__uniq_ptr_data.109" }
%"struct.std::__uniq_ptr_data.109" = type { %"class.std::__uniq_ptr_impl.110" }
%"class.std::__uniq_ptr_impl.110" = type { %"class.std::tuple.111" }
%"class.std::tuple.111" = type { %"struct.std::_Tuple_impl.112" }
%"struct.std::_Tuple_impl.112" = type { %"struct.std::_Head_base.115" }
%"struct.std::_Head_base.115" = type { ptr }
%"class.std::unique_ptr.116" = type { %"struct.std::__uniq_ptr_data.117" }
%"struct.std::__uniq_ptr_data.117" = type { %"class.std::__uniq_ptr_impl.118" }
%"class.std::__uniq_ptr_impl.118" = type { %"class.std::tuple.119" }
%"class.std::tuple.119" = type { %"struct.std::_Tuple_impl.120" }
%"struct.std::_Tuple_impl.120" = type { %"struct.std::_Head_base.123" }
%"struct.std::_Head_base.123" = type { ptr }
%"class.grpc_core::JsonArgs" = type { ptr }
%"class.std::unique_ptr.124" = type { %"struct.std::__uniq_ptr_data.125" }
%"struct.std::__uniq_ptr_data.125" = type { %"class.std::__uniq_ptr_impl.126" }
%"class.std::__uniq_ptr_impl.126" = type { %"class.std::tuple.127" }
%"class.std::tuple.127" = type { %"struct.std::_Tuple_impl.128" }
%"struct.std::_Tuple_impl.128" = type { %"struct.std::_Head_base.131" }
%"struct.std::_Head_base.131" = type { ptr }
%"struct.std::__detail::__variant::_Variant_storage" = type { %"union.std::__detail::__variant::_Variadic_union", i8, [7 x i8] }
%"class.std::bad_variant_access" = type { %"class.std::exception", ptr }
%"class.std::exception" = type { ptr }
%"class.grpc_core::RefCounted" = type { %"class.grpc_core::PolymorphicRefCount", %"class.grpc_core::RefCount" }
%"class.grpc_core::PolymorphicRefCount" = type { ptr }
%"class.grpc_core::RefCount" = type { %"struct.std::atomic.151" }
%"struct.std::atomic.151" = type { %"struct.std::__atomic_base.152" }
%"struct.std::__atomic_base.152" = type { i64 }
%struct._Guard = type { ptr }
%"struct.std::_Optional_payload_base" = type <{ %"union.std::_Optional_payload_base<std::__cxx11::basic_string<char>>::_Storage", i8, [7 x i8] }>
%"class.grpc_core::json_detail::FinishedJsonObjectLoader" = type { %"class.grpc_core::json_detail::LoaderInterface", %"class.grpc_core::json_detail::Vec" }
%"class.grpc_core::json_detail::LoaderInterface" = type { ptr }
%"class.grpc_core::json_detail::FinishedJsonObjectLoader.5" = type { %"class.grpc_core::json_detail::LoaderInterface", %"class.grpc_core::json_detail::Vec.2" }
%"struct.std::_Select1st" = type { i8 }
%"struct.std::_Rb_tree_node" = type { %"struct.std::_Rb_tree_node_base", %"struct.__gnu_cxx::__aligned_membuf.156" }
%"struct.__gnu_cxx::__aligned_membuf.156" = type { [88 x i8] }
%"struct.std::_Optional_base.159" = type { %"struct.std::_Optional_payload.161" }
%"struct.std::_Optional_payload.161" = type { %"struct.std::_Optional_payload_base.162" }
%"struct.std::_Optional_payload_base.162" = type { %"union.std::_Optional_payload_base<bool>::_Storage", i8 }
%"union.std::_Optional_payload_base<bool>::_Storage" = type { %"struct.std::_Optional_payload_base<bool>::_Empty_byte" }
%"struct.std::_Optional_payload_base<bool>::_Empty_byte" = type { i8 }
%"class.grpc_core::json_detail::FinishedJsonObjectLoader.92" = type { %"class.grpc_core::json_detail::LoaderInterface", %"class.grpc_core::json_detail::Vec.2" }
%"class.grpc_core::internal::ClientChannelMethodParsedConfig" = type <{ %"class.grpc_core::ServiceConfigParser::ParsedConfig", %"class.grpc_core::Duration", %"class.std::optional.158", [6 x i8] }>
%"class.grpc_core::Duration" = type { i64 }
%"class.std::optional.158" = type { %"struct.std::_Optional_base.159" }

$_ZN9grpc_core11json_detail16JsonObjectLoaderINS_8internal31ClientChannelGlobalParsedConfig17HealthCheckConfigELm0EEC2Ev = comdat any

$_ZNK9grpc_core11json_detail16JsonObjectLoaderINS_8internal31ClientChannelGlobalParsedConfig17HealthCheckConfigELm0EE13OptionalFieldISt8optionalINSt7__cxx1112basic_stringIcSt11char_traitsIcESaIcEEEEEENS1_IS4_Lm1EEEPKcMS4_T_SH_ = comdat any

$_ZNK9grpc_core11json_detail16JsonObjectLoaderINS_8internal31ClientChannelGlobalParsedConfig17HealthCheckConfigELm1EE6FinishEv = comdat any

$_ZN9grpc_core11json_detail16JsonObjectLoaderINS_8internal31ClientChannelGlobalParsedConfigELm0EEC2Ev = comdat any

$_ZNK9grpc_core11json_detail16JsonObjectLoaderINS_8internal31ClientChannelGlobalParsedConfigELm0EE13OptionalFieldINSt7__cxx1112basic_stringIcSt11char_traitsIcESaIcEEEEENS1_IS3_Lm1EEEPKcMS3_T_SE_ = comdat any

$_ZNK9grpc_core11json_detail16JsonObjectLoaderINS_8internal31ClientChannelGlobalParsedConfigELm1EE13OptionalFieldINS3_17HealthCheckConfigEEENS1_IS3_Lm2EEEPKcMS3_T_S9_ = comdat any

$_ZNK9grpc_core11json_detail16JsonObjectLoaderINS_8internal31ClientChannelGlobalParsedConfigELm2EE6FinishEv = comdat any

$_ZN9grpc_core17CoreConfiguration3GetEv = comdat any

$_ZNK9grpc_core17CoreConfiguration18lb_policy_registryEv = comdat any

$_ZNSt17basic_string_viewIcSt11char_traitsIcEEC2EPKc = comdat any

$_ZN9grpc_core16ValidationErrors11ScopedFieldC2EPS0_St17basic_string_viewIcSt11char_traitsIcEE = comdat any

$_ZNK9grpc_core12experimental4Json6objectB5cxx11Ev = comdat any

$_ZNKSt3mapINSt7__cxx1112basic_stringIcSt11char_traitsIcESaIcEEEN9grpc_core12experimental4JsonESt4lessIS5_ESaISt4pairIKS5_S8_EEE4findERSC_ = comdat any

$_ZNSt7__cxx1112basic_stringIcSt11char_traitsIcESaIcEEC2IS3_EEPKcRKS3_ = comdat any

$_ZStneRKSt23_Rb_tree_const_iteratorISt4pairIKNSt7__cxx1112basic_stringIcSt11char_traitsIcESaIcEEEN9grpc_core12experimental4JsonEEESE_ = comdat any

$_ZNKSt3mapINSt7__cxx1112basic_stringIcSt11char_traitsIcESaIcEEEN9grpc_core12experimental4JsonESt4lessIS5_ESaISt4pairIKS5_S8_EEE3endEv = comdat any

$_ZNKSt23_Rb_tree_const_iteratorISt4pairIKNSt7__cxx1112basic_stringIcSt11char_traitsIcESaIcEEEN9grpc_core12experimental4JsonEEEptEv = comdat any

$_ZNK4absl12lts_202308028StatusOrIN9grpc_core13RefCountedPtrINS2_19LoadBalancingPolicy6ConfigEEEE2okEv = comdat any

$_ZNKR4absl12lts_202308028StatusOrIN9grpc_core13RefCountedPtrINS2_19LoadBalancingPolicy6ConfigEEEE6statusEv = comdat any

$_ZNK4absl12lts_202308026Status7messageEv = comdat any

$_ZNR4absl12lts_202308028StatusOrIN9grpc_core13RefCountedPtrINS2_19LoadBalancingPolicy6ConfigEEEEdeEv = comdat any

$_ZN9grpc_core13RefCountedPtrINS_19LoadBalancingPolicy6ConfigEEaSEOS3_ = comdat any

$_ZN4absl12lts_202308028StatusOrIN9grpc_core13RefCountedPtrINS2_19LoadBalancingPolicy6ConfigEEEED2Ev = comdat any

$_ZN9grpc_core16ValidationErrors11ScopedFieldD2Ev = comdat any

$_ZN4absl12lts_202308028AlphaNumC2EPKc = comdat any

$_ZN4absl12lts_202308028AlphaNumC2ISaIcEEERKNSt7__cxx1112basic_stringIcSt11char_traitsIcET_EE = comdat any

$_ZN9grpc_core11json_detail16JsonObjectLoaderINS_8internal31ClientChannelMethodParsedConfigELm0EEC2Ev = comdat any

$_ZNK9grpc_core11json_detail16JsonObjectLoaderINS_8internal31ClientChannelMethodParsedConfigELm0EE13OptionalFieldINS_8DurationEEENS1_IS3_Lm1EEEPKcMS3_T_S9_ = comdat any

$_ZNK9grpc_core11json_detail16JsonObjectLoaderINS_8internal31ClientChannelMethodParsedConfigELm1EE13OptionalFieldISt8optionalIbEEENS1_IS3_Lm2EEEPKcMS3_T_SA_ = comdat any

$_ZNK9grpc_core11json_detail16JsonObjectLoaderINS_8internal31ClientChannelMethodParsedConfigELm2EE6FinishEv = comdat any

$_ZNK9grpc_core17CoreConfiguration21service_config_parserEv = comdat any

$_ZN9grpc_core8internal32ClientChannelServiceConfigParser11parser_nameEv = comdat any

$_ZN9grpc_core17CoreConfiguration7Builder21service_config_parserEv = comdat any

$_ZSt11make_uniqueIN9grpc_core8internal32ClientChannelServiceConfigParserEJEENSt8__detail9_MakeUniqIT_E15__single_objectEDpOT0_ = comdat any

$_ZNSt10unique_ptrIN9grpc_core19ServiceConfigParser6ParserESt14default_deleteIS2_EEC2INS0_8internal32ClientChannelServiceConfigParserES3_IS8_EvEEOS_IT_T0_E = comdat any

$_ZNSt10unique_ptrIN9grpc_core19ServiceConfigParser6ParserESt14default_deleteIS2_EED2Ev = comdat any

$_ZNSt10unique_ptrIN9grpc_core8internal32ClientChannelServiceConfigParserESt14default_deleteIS2_EED2Ev = comdat any

$_ZN9grpc_core12LoadFromJsonISt10unique_ptrINS_8internal31ClientChannelGlobalParsedConfigESt14default_deleteIS3_EEEET_RKNS_12experimental4JsonERKNS_8JsonArgsEPNS_16ValidationErrorsE = comdat any

$_ZN9grpc_core8JsonArgsC2Ev = comdat any

$_ZNSt10unique_ptrIN9grpc_core19ServiceConfigParser12ParsedConfigESt14default_deleteIS2_EEC2INS0_8internal31ClientChannelGlobalParsedConfigES3_IS8_EvEEOS_IT_T0_E = comdat any

$_ZNSt10unique_ptrIN9grpc_core8internal31ClientChannelGlobalParsedConfigESt14default_deleteIS2_EED2Ev = comdat any

$_ZN9grpc_core8JsonArgsD2Ev = comdat any

$_ZN9grpc_core12LoadFromJsonISt10unique_ptrINS_8internal31ClientChannelMethodParsedConfigESt14default_deleteIS3_EEEET_RKNS_12experimental4JsonERKNS_8JsonArgsEPNS_16ValidationErrorsE = comdat any

$_ZNSt10unique_ptrIN9grpc_core19ServiceConfigParser12ParsedConfigESt14default_deleteIS2_EEC2INS0_8internal31ClientChannelMethodParsedConfigES3_IS8_EvEEOS_IT_T0_E = comdat any

$_ZNSt10unique_ptrIN9grpc_core8internal31ClientChannelMethodParsedConfigESt14default_deleteIS2_EED2Ev = comdat any

$_ZN9grpc_core8internal32ClientChannelServiceConfigParserD2Ev = comdat any

$_ZN9grpc_core8internal32ClientChannelServiceConfigParserD0Ev = comdat any

$_ZNK9grpc_core8internal32ClientChannelServiceConfigParser4nameEv = comdat any

$_ZN9grpc_core19NoDestructSingletonINS_11json_detail10AutoLoaderINSt7__cxx1112basic_stringIcSt11char_traitsIcESaIcEEEEEE6value_E = comdat any

$_ZN9grpc_core10NoDestructINS_11json_detail10AutoLoaderINSt7__cxx1112basic_stringIcSt11char_traitsIcESaIcEEEEEEC2IJEEEDpOT_ = comdat any

$_ZN9grpc_core19NoDestructSingletonINS_11json_detail10AutoLoaderISt8optionalINSt7__cxx1112basic_stringIcSt11char_traitsIcESaIcEEEEEEE6value_E = comdat any

$_ZN9grpc_core10NoDestructINS_11json_detail10AutoLoaderISt8optionalINSt7__cxx1112basic_stringIcSt11char_traitsIcESaIcEEEEEEEC2IJEEEDpOT_ = comdat any

$_ZN9grpc_core19NoDestructSingletonINS_11json_detail10AutoLoaderINS_8internal31ClientChannelGlobalParsedConfig17HealthCheckConfigEEEE6value_E = comdat any

$_ZN9grpc_core10NoDestructINS_11json_detail10AutoLoaderINS_8internal31ClientChannelGlobalParsedConfig17HealthCheckConfigEEEEC2IJEEEDpOT_ = comdat any

$_ZN9grpc_core19NoDestructSingletonINS_11json_detail10AutoLoaderINS_8DurationEEEE6value_E = comdat any

$_ZN9grpc_core10NoDestructINS_11json_detail10AutoLoaderINS_8DurationEEEEC2IJEEEDpOT_ = comdat any

$_ZN9grpc_core19NoDestructSingletonINS_11json_detail10AutoLoaderIbEEE6value_E = comdat any

$_ZN9grpc_core10NoDestructINS_11json_detail10AutoLoaderIbEEEC2IJEEEDpOT_ = comdat any

$_ZN9grpc_core19NoDestructSingletonINS_11json_detail10AutoLoaderISt8optionalIbEEEE6value_E = comdat any

$_ZN9grpc_core10NoDestructINS_11json_detail10AutoLoaderISt8optionalIbEEEEC2IJEEEDpOT_ = comdat any

$_ZN9grpc_core19NoDestructSingletonINS_11json_detail10AutoLoaderINS_8internal31ClientChannelGlobalParsedConfigEEEE6value_E = comdat any

$_ZN9grpc_core10NoDestructINS_11json_detail10AutoLoaderINS_8internal31ClientChannelGlobalParsedConfigEEEEC2IJEEEDpOT_ = comdat any

$_ZN9grpc_core19NoDestructSingletonINS_11json_detail10AutoLoaderISt10unique_ptrINS_8internal31ClientChannelGlobalParsedConfigESt14default_deleteIS5_EEEEE6value_E = comdat any

$_ZN9grpc_core10NoDestructINS_11json_detail10AutoLoaderISt10unique_ptrINS_8internal31ClientChannelGlobalParsedConfigESt14default_deleteIS5_EEEEEC2IJEEEDpOT_ = comdat any

$_ZN9grpc_core19NoDestructSingletonINS_11json_detail10AutoLoaderINS_8internal31ClientChannelMethodParsedConfigEEEE6value_E = comdat any

$_ZN9grpc_core10NoDestructINS_11json_detail10AutoLoaderINS_8internal31ClientChannelMethodParsedConfigEEEEC2IJEEEDpOT_ = comdat any

$_ZN9grpc_core19NoDestructSingletonINS_11json_detail10AutoLoaderISt10unique_ptrINS_8internal31ClientChannelMethodParsedConfigESt14default_deleteIS5_EEEEE6value_E = comdat any

$_ZN9grpc_core10NoDestructINS_11json_detail10AutoLoaderISt10unique_ptrINS_8internal31ClientChannelMethodParsedConfigESt14default_deleteIS5_EEEEEC2IJEEEDpOT_ = comdat any

$_ZNKSt6atomicIPN9grpc_core17CoreConfigurationEE4loadESt12memory_order = comdat any

$_ZStanSt12memory_orderSt23__memory_order_modifier = comdat any

$__clang_call_terminate = comdat any

$_ZNSt11char_traitsIcE6lengthEPKc = comdat any

$_ZSt3getISt3mapINSt7__cxx1112basic_stringIcSt11char_traitsIcESaIcEEEN9grpc_core12experimental4JsonESt4lessIS6_ESaISt4pairIKS6_S9_EEEJSt9monostatebNS9_11NumberValueES6_SG_St6vectorIS9_SaIS9_EEEERKT_RKSt7variantIJDpT0_EE = comdat any

$_ZSt3getILm4EJSt9monostatebN9grpc_core12experimental4Json11NumberValueENSt7__cxx1112basic_stringIcSt11char_traitsIcESaIcEEESt3mapISA_S3_St4lessISA_ESaISt4pairIKSA_S3_EEESt6vectorIS3_SaIS3_EEEERKNSt19variant_alternativeIXT_ESt7variantIJDpT0_EEE4typeERKSQ_ = comdat any

$_ZNKSt7variantIJSt9monostatebN9grpc_core12experimental4Json11NumberValueENSt7__cxx1112basic_stringIcSt11char_traitsIcESaIcEEESt3mapISA_S3_St4lessISA_ESaISt4pairIKSA_S3_EEESt6vectorIS3_SaIS3_EEEE5indexEv = comdat any

$_ZSt26__throw_bad_variant_accessb = comdat any

$_ZNKSt7variantIJSt9monostatebN9grpc_core12experimental4Json11NumberValueENSt7__cxx1112basic_stringIcSt11char_traitsIcESaIcEEESt3mapISA_S3_St4lessISA_ESaISt4pairIKSA_S3_EEESt6vectorIS3_SaIS3_EEEE22valueless_by_exceptionEv = comdat any

$_ZNSt8__detail9__variant5__getILm4ERKSt7variantIJSt9monostatebN9grpc_core12experimental4Json11NumberValueENSt7__cxx1112basic_stringIcSt11char_traitsIcESaIcEEESt3mapISD_S6_St4lessISD_ESaISt4pairIKSD_S6_EEESt6vectorIS6_SaIS6_EEEEEEDcOT0_ = comdat any

$_ZSt26__throw_bad_variant_accessPKc = comdat any

$_ZNSt18bad_variant_accessC2EPKc = comdat any

$_ZNSt18bad_variant_accessD2Ev = comdat any

$_ZNSt9exceptionC2Ev = comdat any

$_ZNSt18bad_variant_accessD0Ev = comdat any

$_ZNKSt18bad_variant_access4whatEv = comdat any

$_ZNKSt8__detail9__variant16_Variant_storageILb0EJSt9monostatebN9grpc_core12experimental4Json11NumberValueENSt7__cxx1112basic_stringIcSt11char_traitsIcESaIcEEESt3mapISC_S5_St4lessISC_ESaISt4pairIKSC_S5_EEESt6vectorIS5_SaIS5_EEEE8_M_validEv = comdat any

$_ZNSt8__detail9__variant7__get_nILm4ERKNS0_15_Variadic_unionIJSt9monostatebN9grpc_core12experimental4Json11NumberValueENSt7__cxx1112basic_stringIcSt11char_traitsIcESaIcEEESt3mapISD_S6_St4lessISD_ESaISt4pairIKSD_S6_EEESt6vectorIS6_SaIS6_EEEEEEEDcOT0_ = comdat any

$_ZNSt8__detail9__variant7__get_nILm1ERKNS0_15_Variadic_unionIJNSt7__cxx1112basic_stringIcSt11char_traitsIcESaIcEEESt3mapIS8_N9grpc_core12experimental4JsonESt4lessIS8_ESaISt4pairIKS8_SC_EEESt6vectorISC_SaISC_EEEEEEEDcOT0_ = comdat any

$_ZNKRSt8__detail9__variant14_UninitializedISt3mapINSt7__cxx1112basic_stringIcSt11char_traitsIcESaIcEEEN9grpc_core12experimental4JsonESt4lessIS8_ESaISt4pairIKS8_SB_EEELb0EE6_M_getEv = comdat any

$_ZNK9__gnu_cxx16__aligned_membufISt3mapINSt7__cxx1112basic_stringIcSt11char_traitsIcESaIcEEEN9grpc_core12experimental4JsonESt4lessIS7_ESaISt4pairIKS7_SA_EEEE6_M_ptrEv = comdat any

$_ZNK9__gnu_cxx16__aligned_membufISt3mapINSt7__cxx1112basic_stringIcSt11char_traitsIcESaIcEEEN9grpc_core12experimental4JsonESt4lessIS7_ESaISt4pairIKS7_SA_EEEE7_M_addrEv = comdat any

$_ZN4absl12lts_202308026Status9IsInlinedEm = comdat any

$_ZN4absl12lts_202308026Status12RepToPointerEm = comdat any

$_ZN4absl12lts_202308026Status11IsMovedFromEm = comdat any

$_ZNSt17basic_string_viewIcSt11char_traitsIcEEC2Ev = comdat any

$_ZN4absl12lts_2023080217internal_statusor12StatusOrDataIN9grpc_core13RefCountedPtrINS3_19LoadBalancingPolicy6ConfigEEEED2Ev = comdat any

$_ZNK4absl12lts_2023080217internal_statusor12StatusOrDataIN9grpc_core13RefCountedPtrINS3_19LoadBalancingPolicy6ConfigEEEE2okEv = comdat any

$_ZN4absl12lts_202308026StatusD2Ev = comdat any

$_ZN9grpc_core13RefCountedPtrINS_19LoadBalancingPolicy6ConfigEED2Ev = comdat any

$_ZNK4absl12lts_202308026Status2okEv = comdat any

$_ZN4absl12lts_202308026Status16CodeToInlinedRepENS0_10StatusCodeE = comdat any

$_ZN4absl12lts_202308026Status5UnrefEm = comdat any

$_ZNK9grpc_core10RefCountedINS_19LoadBalancingPolicy6ConfigENS_19PolymorphicRefCountENS_11UnrefDeleteEE5UnrefEv = comdat any

$_ZN9grpc_core8RefCount5UnrefEv = comdat any

$_ZNK9grpc_core11UnrefDeleteclIKNS_19LoadBalancingPolicy6ConfigEEEvPT_ = comdat any

$_ZN4absl12lts_2023080218NullSafeStringViewEPKc = comdat any

$_ZN9grpc_core8JsonArgsD0Ev = comdat any

$_ZNK9grpc_core8JsonArgs9IsEnabledESt17basic_string_viewIcSt11char_traitsIcEE = comdat any

$_ZNSt7__cxx1112basic_stringIcSt11char_traitsIcESaIcEE12_M_constructIPKcEEvT_S8_St20forward_iterator_tag = comdat any

$_ZNSt7__cxx1112basic_stringIcSt11char_traitsIcESaIcEE12_Alloc_hiderD2Ev = comdat any

$_ZSt8distanceIPKcENSt15iterator_traitsIT_E15difference_typeES3_S3_ = comdat any

$_ZZNSt7__cxx1112basic_stringIcSt11char_traitsIcESaIcEE12_M_constructIPKcEEvT_S8_St20forward_iterator_tagEN6_GuardC2EPS4_ = comdat any

$_ZZNSt7__cxx1112basic_stringIcSt11char_traitsIcESaIcEE12_M_constructIPKcEEvT_S8_St20forward_iterator_tagEN6_GuardD2Ev = comdat any

$_ZSt10__distanceIPKcENSt15iterator_traitsIT_E15difference_typeES3_S3_St26random_access_iterator_tag = comdat any

$_ZSt19__iterator_categoryIPKcENSt15iterator_traitsIT_E17iterator_categoryERKS3_ = comdat any

$_ZNK9grpc_core11json_detail16JsonObjectLoaderINS_8internal31ClientChannelGlobalParsedConfig17HealthCheckConfigELm0EE5FieldISt8optionalINSt7__cxx1112basic_stringIcSt11char_traitsIcESaIcEEEEEENS1_IS4_Lm1EEEPKcbMS4_T_SH_ = comdat any

$_ZN9grpc_core11json_detail13LoaderForTypeISt8optionalINSt7__cxx1112basic_stringIcSt11char_traitsIcESaIcEEEEEEPKNS0_15LoaderInterfaceEv = comdat any

$_ZN9grpc_core11json_detail7ElementC2INS_8internal31ClientChannelGlobalParsedConfig17HealthCheckConfigESt8optionalINSt7__cxx1112basic_stringIcSt11char_traitsIcESaIcEEEEEEPKcbMT_T0_PKNS0_15LoaderInterfaceESF_ = comdat any

$_ZN9grpc_core11json_detail16JsonObjectLoaderINS_8internal31ClientChannelGlobalParsedConfig17HealthCheckConfigELm1EEC2ERKNS0_3VecINS0_7ElementELm0EEES7_ = comdat any

$_ZN9grpc_core19NoDestructSingletonINS_11json_detail10AutoLoaderISt8optionalINSt7__cxx1112basic_stringIcSt11char_traitsIcESaIcEEEEEEE3GetEv = comdat any

$_ZN9grpc_core10NoDestructINS_11json_detail10AutoLoaderISt8optionalINSt7__cxx1112basic_stringIcSt11char_traitsIcESaIcEEEEEEEdeEv = comdat any

$_ZN9grpc_core10NoDestructINS_11json_detail10AutoLoaderISt8optionalINSt7__cxx1112basic_stringIcSt11char_traitsIcESaIcEEEEEEE3getEv = comdat any

$_ZN9grpc_core11json_detail3VecINS0_7ElementELm1EEC2ERKNS1_IS2_Lm0EEERKS2_ = comdat any

$_ZNK9grpc_core11json_detail3VecINS0_7ElementELm0EE4sizeEv = comdat any

$_ZNK9grpc_core11json_detail3VecINS0_7ElementELm0EE4dataEv = comdat any

$_ZN9grpc_core9ConstructINS_11json_detail10AutoLoaderINSt7__cxx1112basic_stringIcSt11char_traitsIcESaIcEEEEEJEEEvPT_DpOT0_ = comdat any

$_ZN9grpc_core11json_detail10AutoLoaderINSt7__cxx1112basic_stringIcSt11char_traitsIcESaIcEEEEC2Ev = comdat any

$_ZN9grpc_core11json_detail10LoadStringC2Ev = comdat any

$_ZN9grpc_core11json_detail10LoadScalarC2Ev = comdat any

$_ZN9grpc_core11json_detail15LoaderInterfaceC2Ev = comdat any

$_ZN9grpc_core9ConstructINS_11json_detail10AutoLoaderISt8optionalINSt7__cxx1112basic_stringIcSt11char_traitsIcESaIcEEEEEEJEEEvPT_DpOT0_ = comdat any

$_ZN9grpc_core11json_detail10AutoLoaderISt8optionalINSt7__cxx1112basic_stringIcSt11char_traitsIcESaIcEEEEEC2Ev = comdat any

$_ZN9grpc_core11json_detail11LoadWrappedC2Ev = comdat any

$_ZNK9grpc_core11json_detail10AutoLoaderISt8optionalINSt7__cxx1112basic_stringIcSt11char_traitsIcESaIcEEEEE7EmplaceEPv = comdat any

$_ZNK9grpc_core11json_detail10AutoLoaderISt8optionalINSt7__cxx1112basic_stringIcSt11char_traitsIcESaIcEEEEE5ResetEPv = comdat any

$_ZNK9grpc_core11json_detail10AutoLoaderISt8optionalINSt7__cxx1112basic_stringIcSt11char_traitsIcESaIcEEEEE13ElementLoaderEv = comdat any

$_ZNSt8optionalINSt7__cxx1112basic_stringIcSt11char_traitsIcESaIcEEEE7emplaceIJEEENSt9enable_ifIX18is_constructible_vIS5_DpT_EERS5_E4typeEDpOS9_ = comdat any

$_ZNSt19_Optional_base_implINSt7__cxx1112basic_stringIcSt11char_traitsIcESaIcEEESt14_Optional_baseIS5_Lb0ELb0EEE8_M_resetEv = comdat any

$_ZNSt19_Optional_base_implINSt7__cxx1112basic_stringIcSt11char_traitsIcESaIcEEESt14_Optional_baseIS5_Lb0ELb0EEE12_M_constructIJEEEvDpOT_ = comdat any

$_ZNSt19_Optional_base_implINSt7__cxx1112basic_stringIcSt11char_traitsIcESaIcEEESt14_Optional_baseIS5_Lb0ELb0EEE6_M_getEv = comdat any

$_ZNSt22_Optional_payload_baseINSt7__cxx1112basic_stringIcSt11char_traitsIcESaIcEEEE8_M_resetEv = comdat any

$_ZNSt22_Optional_payload_baseINSt7__cxx1112basic_stringIcSt11char_traitsIcESaIcEEEE10_M_destroyEv = comdat any

$_ZNSt22_Optional_payload_baseINSt7__cxx1112basic_stringIcSt11char_traitsIcESaIcEEEE12_M_constructIJEEEvDpOT_ = comdat any

$_ZSt10_ConstructINSt7__cxx1112basic_stringIcSt11char_traitsIcESaIcEEEJEEvPT_DpOT0_ = comdat any

$_ZNSt22_Optional_payload_baseINSt7__cxx1112basic_stringIcSt11char_traitsIcESaIcEEEE6_M_getEv = comdat any

$_ZNSt8optionalINSt7__cxx1112basic_stringIcSt11char_traitsIcESaIcEEEE5resetEv = comdat any

$_ZN9grpc_core11json_detail13LoaderForTypeINSt7__cxx1112basic_stringIcSt11char_traitsIcESaIcEEEEEPKNS0_15LoaderInterfaceEv = comdat any

$_ZN9grpc_core19NoDestructSingletonINS_11json_detail10AutoLoaderINSt7__cxx1112basic_stringIcSt11char_traitsIcESaIcEEEEEE3GetEv = comdat any

$_ZN9grpc_core10NoDestructINS_11json_detail10AutoLoaderINSt7__cxx1112basic_stringIcSt11char_traitsIcESaIcEEEEEEdeEv = comdat any

$_ZN9grpc_core10NoDestructINS_11json_detail10AutoLoaderINSt7__cxx1112basic_stringIcSt11char_traitsIcESaIcEEEEEE3getEv = comdat any

$_ZN9grpc_core11json_detail24FinishedJsonObjectLoaderINS_8internal31ClientChannelGlobalParsedConfig17HealthCheckConfigELm1EvEC2ERKNS0_3VecINS0_7ElementELm1EEE = comdat any

$_ZNK9grpc_core11json_detail24FinishedJsonObjectLoaderINS_8internal31ClientChannelGlobalParsedConfig17HealthCheckConfigELm1EvE8LoadIntoERKNS_12experimental4JsonERKNS_8JsonArgsEPvPNS_16ValidationErrorsE = comdat any

$_ZNK9grpc_core11json_detail3VecINS0_7ElementELm1EE4dataEv = comdat any

$_ZNK9grpc_core11json_detail3VecINS0_7ElementELm1EE4sizeEv = comdat any

$_ZNK9grpc_core11json_detail16JsonObjectLoaderINS_8internal31ClientChannelGlobalParsedConfigELm0EE5FieldINSt7__cxx1112basic_stringIcSt11char_traitsIcESaIcEEEEENS1_IS3_Lm1EEEPKcbMS3_T_SE_ = comdat any

$_ZN9grpc_core11json_detail7ElementC2INS_8internal31ClientChannelGlobalParsedConfigENSt7__cxx1112basic_stringIcSt11char_traitsIcESaIcEEEEEPKcbMT_T0_PKNS0_15LoaderInterfaceESC_ = comdat any

$_ZN9grpc_core11json_detail16JsonObjectLoaderINS_8internal31ClientChannelGlobalParsedConfigELm1EEC2ERKNS0_3VecINS0_7ElementELm0EEES6_ = comdat any

$_ZNK9grpc_core11json_detail16JsonObjectLoaderINS_8internal31ClientChannelGlobalParsedConfigELm1EE5FieldINS3_17HealthCheckConfigEEENS1_IS3_Lm2EEEPKcbMS3_T_S9_ = comdat any

$_ZN9grpc_core11json_detail13LoaderForTypeINS_8internal31ClientChannelGlobalParsedConfig17HealthCheckConfigEEEPKNS0_15LoaderInterfaceEv = comdat any

$_ZN9grpc_core11json_detail7ElementC2INS_8internal31ClientChannelGlobalParsedConfigENS4_17HealthCheckConfigEEEPKcbMT_T0_PKNS0_15LoaderInterfaceES7_ = comdat any

$_ZN9grpc_core11json_detail16JsonObjectLoaderINS_8internal31ClientChannelGlobalParsedConfigELm2EEC2ERKNS0_3VecINS0_7ElementELm1EEES6_ = comdat any

$_ZN9grpc_core19NoDestructSingletonINS_11json_detail10AutoLoaderINS_8internal31ClientChannelGlobalParsedConfig17HealthCheckConfigEEEE3GetEv = comdat any

$_ZN9grpc_core10NoDestructINS_11json_detail10AutoLoaderINS_8internal31ClientChannelGlobalParsedConfig17HealthCheckConfigEEEEdeEv = comdat any

$_ZN9grpc_core10NoDestructINS_11json_detail10AutoLoaderINS_8internal31ClientChannelGlobalParsedConfig17HealthCheckConfigEEEE3getEv = comdat any

$_ZN9grpc_core11json_detail3VecINS0_7ElementELm2EEC2ERKNS1_IS2_Lm1EEERKS2_ = comdat any

$_ZN9grpc_core9ConstructINS_11json_detail10AutoLoaderINS_8internal31ClientChannelGlobalParsedConfig17HealthCheckConfigEEEJEEEvPT_DpOT0_ = comdat any

$_ZN9grpc_core11json_detail10AutoLoaderINS_8internal31ClientChannelGlobalParsedConfig17HealthCheckConfigEEC2Ev = comdat any

$_ZNK9grpc_core11json_detail10AutoLoaderINS_8internal31ClientChannelGlobalParsedConfig17HealthCheckConfigEE8LoadIntoERKNS_12experimental4JsonERKNS_8JsonArgsEPvPNS_16ValidationErrorsE = comdat any

$_ZN9grpc_core11json_detail24FinishedJsonObjectLoaderINS_8internal31ClientChannelGlobalParsedConfigELm2EvEC2ERKNS0_3VecINS0_7ElementELm2EEE = comdat any

$_ZNK9grpc_core11json_detail24FinishedJsonObjectLoaderINS_8internal31ClientChannelGlobalParsedConfigELm2EvE8LoadIntoERKNS_12experimental4JsonERKNS_8JsonArgsEPvPNS_16ValidationErrorsE = comdat any

$_ZNK9grpc_core11json_detail3VecINS0_7ElementELm2EE4dataEv = comdat any

$_ZNK9grpc_core11json_detail3VecINS0_7ElementELm2EE4sizeEv = comdat any

$_ZNKSt8_Rb_treeINSt7__cxx1112basic_stringIcSt11char_traitsIcESaIcEEESt4pairIKS5_N9grpc_core12experimental4JsonEESt10_Select1stISB_ESt4lessIS5_ESaISB_EE4findERS7_ = comdat any

$_ZNKSt8_Rb_treeINSt7__cxx1112basic_stringIcSt11char_traitsIcESaIcEEESt4pairIKS5_N9grpc_core12experimental4JsonEESt10_Select1stISB_ESt4lessIS5_ESaISB_EE14_M_lower_boundEPKSt13_Rb_tree_nodeISB_EPKSt18_Rb_tree_node_baseRS7_ = comdat any

$_ZNKSt8_Rb_treeINSt7__cxx1112basic_stringIcSt11char_traitsIcESaIcEEESt4pairIKS5_N9grpc_core12experimental4JsonEESt10_Select1stISB_ESt4lessIS5_ESaISB_EE8_M_beginEv = comdat any

$_ZNKSt8_Rb_treeINSt7__cxx1112basic_stringIcSt11char_traitsIcESaIcEEESt4pairIKS5_N9grpc_core12experimental4JsonEESt10_Select1stISB_ESt4lessIS5_ESaISB_EE6_M_endEv = comdat any

$_ZSteqRKSt23_Rb_tree_const_iteratorISt4pairIKNSt7__cxx1112basic_stringIcSt11char_traitsIcESaIcEEEN9grpc_core12experimental4JsonEEESE_ = comdat any

$_ZNKSt8_Rb_treeINSt7__cxx1112basic_stringIcSt11char_traitsIcESaIcEEESt4pairIKS5_N9grpc_core12experimental4JsonEESt10_Select1stISB_ESt4lessIS5_ESaISB_EE3endEv = comdat any

$_ZNKSt4lessINSt7__cxx1112basic_stringIcSt11char_traitsIcESaIcEEEEclERKS5_S8_ = comdat any

$_ZNSt8_Rb_treeINSt7__cxx1112basic_stringIcSt11char_traitsIcESaIcEEESt4pairIKS5_N9grpc_core12experimental4JsonEESt10_Select1stISB_ESt4lessIS5_ESaISB_EE6_S_keyEPKSt18_Rb_tree_node_base = comdat any

$_ZNSt8_Rb_treeINSt7__cxx1112basic_stringIcSt11char_traitsIcESaIcEEESt4pairIKS5_N9grpc_core12experimental4JsonEESt10_Select1stISB_ESt4lessIS5_ESaISB_EE6_S_keyEPKSt13_Rb_tree_nodeISB_E = comdat any

$_ZNSt8_Rb_treeINSt7__cxx1112basic_stringIcSt11char_traitsIcESaIcEEESt4pairIKS5_N9grpc_core12experimental4JsonEESt10_Select1stISB_ESt4lessIS5_ESaISB_EE7_S_leftEPKSt18_Rb_tree_node_base = comdat any

$_ZNSt8_Rb_treeINSt7__cxx1112basic_stringIcSt11char_traitsIcESaIcEEESt4pairIKS5_N9grpc_core12experimental4JsonEESt10_Select1stISB_ESt4lessIS5_ESaISB_EE8_S_rightEPKSt18_Rb_tree_node_base = comdat any

$_ZNSt23_Rb_tree_const_iteratorISt4pairIKNSt7__cxx1112basic_stringIcSt11char_traitsIcESaIcEEEN9grpc_core12experimental4JsonEEEC2EPKSt18_Rb_tree_node_base = comdat any

$_ZNKSt10_Select1stISt4pairIKNSt7__cxx1112basic_stringIcSt11char_traitsIcESaIcEEEN9grpc_core12experimental4JsonEEEclERKSB_ = comdat any

$_ZNKSt13_Rb_tree_nodeISt4pairIKNSt7__cxx1112basic_stringIcSt11char_traitsIcESaIcEEEN9grpc_core12experimental4JsonEEE9_M_valptrEv = comdat any

$_ZNK9__gnu_cxx16__aligned_membufISt4pairIKNSt7__cxx1112basic_stringIcSt11char_traitsIcESaIcEEEN9grpc_core12experimental4JsonEEE6_M_ptrEv = comdat any

$_ZNK9__gnu_cxx16__aligned_membufISt4pairIKNSt7__cxx1112basic_stringIcSt11char_traitsIcESaIcEEEN9grpc_core12experimental4JsonEEE7_M_addrEv = comdat any

$_ZStltIcSt11char_traitsIcESaIcEEbRKNSt7__cxx1112basic_stringIT_T0_T1_EESA_ = comdat any

$_ZNK4absl12lts_2023080217internal_statusor12StatusOrDataIN9grpc_core13RefCountedPtrINS3_19LoadBalancingPolicy6ConfigEEEE8EnsureOkEv = comdat any

$_ZN9grpc_core13RefCountedPtrINS_19LoadBalancingPolicy6ConfigEE5resetEPS2_ = comdat any

$_ZSt8exchangeIPN9grpc_core19LoadBalancingPolicy6ConfigEDnET_RS4_OT0_ = comdat any

$_ZSt8exchangeIPN9grpc_core19LoadBalancingPolicy6ConfigERS3_ET_RS5_OT0_ = comdat any

$_ZSt10__exchangeIPN9grpc_core19LoadBalancingPolicy6ConfigERS3_ET_RS5_OT0_ = comdat any

$_ZSt10__exchangeIPN9grpc_core19LoadBalancingPolicy6ConfigEDnET_RS4_OT0_ = comdat any

$_ZNK9grpc_core11json_detail16JsonObjectLoaderINS_8internal31ClientChannelMethodParsedConfigELm0EE5FieldINS_8DurationEEENS1_IS3_Lm1EEEPKcbMS3_T_S9_ = comdat any

$_ZN9grpc_core11json_detail13LoaderForTypeINS_8DurationEEEPKNS0_15LoaderInterfaceEv = comdat any

$_ZN9grpc_core11json_detail7ElementC2INS_8internal31ClientChannelMethodParsedConfigENS_8DurationEEEPKcbMT_T0_PKNS0_15LoaderInterfaceES7_ = comdat any

$_ZN9grpc_core11json_detail16JsonObjectLoaderINS_8internal31ClientChannelMethodParsedConfigELm1EEC2ERKNS0_3VecINS0_7ElementELm0EEES6_ = comdat any

$_ZN9grpc_core19NoDestructSingletonINS_11json_detail10AutoLoaderINS_8DurationEEEE3GetEv = comdat any

$_ZN9grpc_core10NoDestructINS_11json_detail10AutoLoaderINS_8DurationEEEEdeEv = comdat any

$_ZN9grpc_core10NoDestructINS_11json_detail10AutoLoaderINS_8DurationEEEE3getEv = comdat any

$_ZN9grpc_core9ConstructINS_11json_detail10AutoLoaderINS_8DurationEEEJEEEvPT_DpOT0_ = comdat any

$_ZN9grpc_core11json_detail10AutoLoaderINS_8DurationEEC2Ev = comdat any

$_ZN9grpc_core11json_detail12LoadDurationC2Ev = comdat any

$_ZNK9grpc_core11json_detail16JsonObjectLoaderINS_8internal31ClientChannelMethodParsedConfigELm1EE5FieldISt8optionalIbEEENS1_IS3_Lm2EEEPKcbMS3_T_SA_ = comdat any

$_ZN9grpc_core11json_detail13LoaderForTypeISt8optionalIbEEEPKNS0_15LoaderInterfaceEv = comdat any

$_ZN9grpc_core11json_detail7ElementC2INS_8internal31ClientChannelMethodParsedConfigESt8optionalIbEEEPKcbMT_T0_PKNS0_15LoaderInterfaceES8_ = comdat any

$_ZN9grpc_core11json_detail16JsonObjectLoaderINS_8internal31ClientChannelMethodParsedConfigELm2EEC2ERKNS0_3VecINS0_7ElementELm1EEES6_ = comdat any

$_ZN9grpc_core19NoDestructSingletonINS_11json_detail10AutoLoaderISt8optionalIbEEEE3GetEv = comdat any

$_ZN9grpc_core10NoDestructINS_11json_detail10AutoLoaderISt8optionalIbEEEEdeEv = comdat any

$_ZN9grpc_core10NoDestructINS_11json_detail10AutoLoaderISt8optionalIbEEEE3getEv = comdat any

$_ZN9grpc_core9ConstructINS_11json_detail10AutoLoaderIbEEJEEEvPT_DpOT0_ = comdat any

$_ZN9grpc_core11json_detail10AutoLoaderIbEC2Ev = comdat any

$_ZN9grpc_core11json_detail8LoadBoolC2Ev = comdat any

$_ZN9grpc_core9ConstructINS_11json_detail10AutoLoaderISt8optionalIbEEEJEEEvPT_DpOT0_ = comdat any

$_ZN9grpc_core11json_detail10AutoLoaderISt8optionalIbEEC2Ev = comdat any

$_ZNK9grpc_core11json_detail10AutoLoaderISt8optionalIbEE7EmplaceEPv = comdat any

$_ZNK9grpc_core11json_detail10AutoLoaderISt8optionalIbEE5ResetEPv = comdat any

$_ZNK9grpc_core11json_detail10AutoLoaderISt8optionalIbEE13ElementLoaderEv = comdat any

$_ZNSt8optionalIbE7emplaceIJEEENSt9enable_ifIX18is_constructible_vIbDpT_EERbE4typeEDpOS3_ = comdat any

$_ZNSt19_Optional_base_implIbSt14_Optional_baseIbLb1ELb1EEE8_M_resetEv = comdat any

$_ZNSt19_Optional_base_implIbSt14_Optional_baseIbLb1ELb1EEE12_M_constructIJEEEvDpOT_ = comdat any

$_ZNSt19_Optional_base_implIbSt14_Optional_baseIbLb1ELb1EEE6_M_getEv = comdat any

$_ZNSt22_Optional_payload_baseIbE8_M_resetEv = comdat any

$_ZNSt22_Optional_payload_baseIbE10_M_destroyEv = comdat any

$_ZNSt22_Optional_payload_baseIbE12_M_constructIJEEEvDpOT_ = comdat any

$_ZSt10_ConstructIbJEEvPT_DpOT0_ = comdat any

$_ZNSt22_Optional_payload_baseIbE6_M_getEv = comdat any

$_ZNSt8optionalIbE5resetEv = comdat any

$_ZN9grpc_core11json_detail13LoaderForTypeIbEEPKNS0_15LoaderInterfaceEv = comdat any

$_ZN9grpc_core19NoDestructSingletonINS_11json_detail10AutoLoaderIbEEE3GetEv = comdat any

$_ZN9grpc_core10NoDestructINS_11json_detail10AutoLoaderIbEEEdeEv = comdat any

$_ZN9grpc_core10NoDestructINS_11json_detail10AutoLoaderIbEEE3getEv = comdat any

$_ZN9grpc_core11json_detail24FinishedJsonObjectLoaderINS_8internal31ClientChannelMethodParsedConfigELm2EvEC2ERKNS0_3VecINS0_7ElementELm2EEE = comdat any

$_ZNK9grpc_core11json_detail24FinishedJsonObjectLoaderINS_8internal31ClientChannelMethodParsedConfigELm2EvE8LoadIntoERKNS_12experimental4JsonERKNS_8JsonArgsEPvPNS_16ValidationErrorsE = comdat any

$_ZN9grpc_core8internal32ClientChannelServiceConfigParserC2Ev = comdat any

$_ZNSt10unique_ptrIN9grpc_core8internal32ClientChannelServiceConfigParserESt14default_deleteIS2_EEC2IS4_vEEPS2_ = comdat any

$_ZN9grpc_core19ServiceConfigParser6ParserC2Ev = comdat any

$_ZN9grpc_core19ServiceConfigParser6ParserD2Ev = comdat any

$_ZN9grpc_core19ServiceConfigParser6ParserD0Ev = comdat any

$_ZN9grpc_core19ServiceConfigParser6Parser17ParseGlobalParamsERKNS_11ChannelArgsERKNS_12experimental4JsonEPNS_16ValidationErrorsE = comdat any

$_ZN9grpc_core19ServiceConfigParser6Parser20ParsePerMethodParamsERKNS_11ChannelArgsERKNS_12experimental4JsonEPNS_16ValidationErrorsE = comdat any

$_ZNSt10unique_ptrIN9grpc_core19ServiceConfigParser12ParsedConfigESt14default_deleteIS2_EEC2IS4_vEEDn = comdat any

$_ZNSt15__uniq_ptr_dataIN9grpc_core19ServiceConfigParser12ParsedConfigESt14default_deleteIS2_ELb1ELb1EEC2Ev = comdat any

$_ZNSt15__uniq_ptr_implIN9grpc_core19ServiceConfigParser12ParsedConfigESt14default_deleteIS2_EEC2Ev = comdat any

$_ZNSt5tupleIJPN9grpc_core19ServiceConfigParser12ParsedConfigESt14default_deleteIS2_EEEC2ILb1ETnNSt9enable_ifIXclsr17_TupleConstraintsIXT_ES3_S5_EE37__is_implicitly_default_constructibleEEbE4typeELb1EEEv = comdat any

$_ZNSt11_Tuple_implILm0EJPN9grpc_core19ServiceConfigParser12ParsedConfigESt14default_deleteIS2_EEEC2Ev = comdat any

$_ZNSt11_Tuple_implILm1EJSt14default_deleteIN9grpc_core19ServiceConfigParser12ParsedConfigEEEEC2Ev = comdat any

$_ZNSt10_Head_baseILm0EPN9grpc_core19ServiceConfigParser12ParsedConfigELb0EEC2Ev = comdat any

$_ZNSt10_Head_baseILm1ESt14default_deleteIN9grpc_core19ServiceConfigParser12ParsedConfigEELb1EEC2Ev = comdat any

$_ZNSt15__uniq_ptr_dataIN9grpc_core8internal32ClientChannelServiceConfigParserESt14default_deleteIS2_ELb1ELb1EECI2St15__uniq_ptr_implIS2_S4_EEPS2_ = comdat any

$_ZNSt15__uniq_ptr_implIN9grpc_core8internal32ClientChannelServiceConfigParserESt14default_deleteIS2_EEC2EPS2_ = comdat any

$_ZNSt5tupleIJPN9grpc_core8internal32ClientChannelServiceConfigParserESt14default_deleteIS2_EEEC2ILb1ETnNSt9enable_ifIXclsr17_TupleConstraintsIXT_ES3_S5_EE37__is_implicitly_default_constructibleEEbE4typeELb1EEEv = comdat any

$_ZNSt15__uniq_ptr_implIN9grpc_core8internal32ClientChannelServiceConfigParserESt14default_deleteIS2_EE6_M_ptrEv = comdat any

$_ZNSt11_Tuple_implILm0EJPN9grpc_core8internal32ClientChannelServiceConfigParserESt14default_deleteIS2_EEEC2Ev = comdat any

$_ZNSt11_Tuple_implILm1EJSt14default_deleteIN9grpc_core8internal32ClientChannelServiceConfigParserEEEEC2Ev = comdat any

$_ZNSt10_Head_baseILm0EPN9grpc_core8internal32ClientChannelServiceConfigParserELb0EEC2Ev = comdat any

$_ZNSt10_Head_baseILm1ESt14default_deleteIN9grpc_core8internal32ClientChannelServiceConfigParserEELb1EEC2Ev = comdat any

$_ZSt3getILm0EJPN9grpc_core8internal32ClientChannelServiceConfigParserESt14default_deleteIS2_EEERNSt13tuple_elementIXT_ESt5tupleIJDpT0_EEE4typeERSA_ = comdat any

$_ZSt12__get_helperILm0EPN9grpc_core8internal32ClientChannelServiceConfigParserEJSt14default_deleteIS2_EEERT0_RSt11_Tuple_implIXT_EJS6_DpT1_EE = comdat any

$_ZNSt11_Tuple_implILm0EJPN9grpc_core8internal32ClientChannelServiceConfigParserESt14default_deleteIS2_EEE7_M_headERS6_ = comdat any

$_ZNSt10_Head_baseILm0EPN9grpc_core8internal32ClientChannelServiceConfigParserELb0EE7_M_headERS4_ = comdat any

$_ZNSt10unique_ptrIN9grpc_core8internal32ClientChannelServiceConfigParserESt14default_deleteIS2_EE11get_deleterEv = comdat any

$_ZNKSt14default_deleteIN9grpc_core8internal32ClientChannelServiceConfigParserEEclEPS2_ = comdat any

$_ZNSt15__uniq_ptr_implIN9grpc_core8internal32ClientChannelServiceConfigParserESt14default_deleteIS2_EE10_M_deleterEv = comdat any

$_ZSt3getILm1EJPN9grpc_core8internal32ClientChannelServiceConfigParserESt14default_deleteIS2_EEERNSt13tuple_elementIXT_ESt5tupleIJDpT0_EEE4typeERSA_ = comdat any

$_ZSt12__get_helperILm1ESt14default_deleteIN9grpc_core8internal32ClientChannelServiceConfigParserEEJEERT0_RSt11_Tuple_implIXT_EJS5_DpT1_EE = comdat any

$_ZNSt11_Tuple_implILm1EJSt14default_deleteIN9grpc_core8internal32ClientChannelServiceConfigParserEEEE7_M_headERS5_ = comdat any

$_ZNSt10_Head_baseILm1ESt14default_deleteIN9grpc_core8internal32ClientChannelServiceConfigParserEELb1EE7_M_headERS5_ = comdat any

$_ZNSt10unique_ptrIN9grpc_core8internal32ClientChannelServiceConfigParserESt14default_deleteIS2_EE7releaseEv = comdat any

$_ZNSt15__uniq_ptr_dataIN9grpc_core19ServiceConfigParser6ParserESt14default_deleteIS2_ELb1ELb1EECI2St15__uniq_ptr_implIS2_S4_EIS3_INS0_8internal32ClientChannelServiceConfigParserEEEEPS2_OT_ = comdat any

$_ZNSt15__uniq_ptr_implIN9grpc_core8internal32ClientChannelServiceConfigParserESt14default_deleteIS2_EE7releaseEv = comdat any

$_ZNSt15__uniq_ptr_implIN9grpc_core19ServiceConfigParser6ParserESt14default_deleteIS2_EEC2IS3_INS0_8internal32ClientChannelServiceConfigParserEEEEPS2_OT_ = comdat any

$_ZNSt5tupleIJPN9grpc_core19ServiceConfigParser6ParserESt14default_deleteIS2_EEEC2IRS3_S4_INS0_8internal32ClientChannelServiceConfigParserEETnNSt9enable_ifIXclsr4_TCCIXntcl14__is_alloc_argIT_EEEEE29__is_implicitly_constructibleISD_T0_EEEbE4typeELb1EEEOSD_OSE_ = comdat any

$_ZNSt11_Tuple_implILm0EJPN9grpc_core19ServiceConfigParser6ParserESt14default_deleteIS2_EEEC2IRS3_JS4_INS0_8internal32ClientChannelServiceConfigParserEEEvEEOT_DpOT0_ = comdat any

$_ZNSt11_Tuple_implILm1EJSt14default_deleteIN9grpc_core19ServiceConfigParser6ParserEEEEC2IS0_INS1_8internal32ClientChannelServiceConfigParserEEEEOT_ = comdat any

$_ZNSt10_Head_baseILm0EPN9grpc_core19ServiceConfigParser6ParserELb0EEC2IRS3_EEOT_ = comdat any

$_ZNSt10_Head_baseILm1ESt14default_deleteIN9grpc_core19ServiceConfigParser6ParserEELb1EEC2IS0_INS1_8internal32ClientChannelServiceConfigParserEEEEOT_ = comdat any

$_ZNSt14default_deleteIN9grpc_core19ServiceConfigParser6ParserEEC2INS0_8internal32ClientChannelServiceConfigParserEvEERKS_IT_E = comdat any

$_ZNSt15__uniq_ptr_implIN9grpc_core19ServiceConfigParser6ParserESt14default_deleteIS2_EE6_M_ptrEv = comdat any

$_ZNSt10unique_ptrIN9grpc_core19ServiceConfigParser6ParserESt14default_deleteIS2_EE11get_deleterEv = comdat any

$_ZNKSt14default_deleteIN9grpc_core19ServiceConfigParser6ParserEEclEPS2_ = comdat any

$_ZSt3getILm0EJPN9grpc_core19ServiceConfigParser6ParserESt14default_deleteIS2_EEERNSt13tuple_elementIXT_ESt5tupleIJDpT0_EEE4typeERSA_ = comdat any

$_ZSt12__get_helperILm0EPN9grpc_core19ServiceConfigParser6ParserEJSt14default_deleteIS2_EEERT0_RSt11_Tuple_implIXT_EJS6_DpT1_EE = comdat any

$_ZNSt11_Tuple_implILm0EJPN9grpc_core19ServiceConfigParser6ParserESt14default_deleteIS2_EEE7_M_headERS6_ = comdat any

$_ZNSt10_Head_baseILm0EPN9grpc_core19ServiceConfigParser6ParserELb0EE7_M_headERS4_ = comdat any

$_ZNSt15__uniq_ptr_implIN9grpc_core19ServiceConfigParser6ParserESt14default_deleteIS2_EE10_M_deleterEv = comdat any

$_ZSt3getILm1EJPN9grpc_core19ServiceConfigParser6ParserESt14default_deleteIS2_EEERNSt13tuple_elementIXT_ESt5tupleIJDpT0_EEE4typeERSA_ = comdat any

$_ZSt12__get_helperILm1ESt14default_deleteIN9grpc_core19ServiceConfigParser6ParserEEJEERT0_RSt11_Tuple_implIXT_EJS5_DpT1_EE = comdat any

$_ZNSt11_Tuple_implILm1EJSt14default_deleteIN9grpc_core19ServiceConfigParser6ParserEEEE7_M_headERS5_ = comdat any

$_ZNSt10_Head_baseILm1ESt14default_deleteIN9grpc_core19ServiceConfigParser6ParserEELb1EE7_M_headERS5_ = comdat any

$_ZNSt10unique_ptrIN9grpc_core8internal31ClientChannelGlobalParsedConfigESt14default_deleteIS2_EEC2IS4_vEEv = comdat any

$_ZN9grpc_core11json_detail13LoaderForTypeISt10unique_ptrINS_8internal31ClientChannelGlobalParsedConfigESt14default_deleteIS4_EEEEPKNS0_15LoaderInterfaceEv = comdat any

$_ZNSt15__uniq_ptr_dataIN9grpc_core8internal31ClientChannelGlobalParsedConfigESt14default_deleteIS2_ELb1ELb1EEC2Ev = comdat any

$_ZNSt15__uniq_ptr_implIN9grpc_core8internal31ClientChannelGlobalParsedConfigESt14default_deleteIS2_EEC2Ev = comdat any

$_ZNSt5tupleIJPN9grpc_core8internal31ClientChannelGlobalParsedConfigESt14default_deleteIS2_EEEC2ILb1ETnNSt9enable_ifIXclsr17_TupleConstraintsIXT_ES3_S5_EE37__is_implicitly_default_constructibleEEbE4typeELb1EEEv = comdat any

$_ZNSt11_Tuple_implILm0EJPN9grpc_core8internal31ClientChannelGlobalParsedConfigESt14default_deleteIS2_EEEC2Ev = comdat any

$_ZNSt11_Tuple_implILm1EJSt14default_deleteIN9grpc_core8internal31ClientChannelGlobalParsedConfigEEEEC2Ev = comdat any

$_ZNSt10_Head_baseILm0EPN9grpc_core8internal31ClientChannelGlobalParsedConfigELb0EEC2Ev = comdat any

$_ZNSt10_Head_baseILm1ESt14default_deleteIN9grpc_core8internal31ClientChannelGlobalParsedConfigEELb1EEC2Ev = comdat any

$_ZN9grpc_core19NoDestructSingletonINS_11json_detail10AutoLoaderISt10unique_ptrINS_8internal31ClientChannelGlobalParsedConfigESt14default_deleteIS5_EEEEE3GetEv = comdat any

$_ZN9grpc_core10NoDestructINS_11json_detail10AutoLoaderISt10unique_ptrINS_8internal31ClientChannelGlobalParsedConfigESt14default_deleteIS5_EEEEEdeEv = comdat any

$_ZN9grpc_core10NoDestructINS_11json_detail10AutoLoaderISt10unique_ptrINS_8internal31ClientChannelGlobalParsedConfigESt14default_deleteIS5_EEEEE3getEv = comdat any

$_ZN9grpc_core9ConstructINS_11json_detail10AutoLoaderINS_8internal31ClientChannelGlobalParsedConfigEEEJEEEvPT_DpOT0_ = comdat any

$_ZN9grpc_core11json_detail10AutoLoaderINS_8internal31ClientChannelGlobalParsedConfigEEC2Ev = comdat any

$_ZNK9grpc_core11json_detail10AutoLoaderINS_8internal31ClientChannelGlobalParsedConfigEE8LoadIntoERKNS_12experimental4JsonERKNS_8JsonArgsEPvPNS_16ValidationErrorsE = comdat any

$_ZN9grpc_core9ConstructINS_11json_detail10AutoLoaderISt10unique_ptrINS_8internal31ClientChannelGlobalParsedConfigESt14default_deleteIS5_EEEEJEEEvPT_DpOT0_ = comdat any

$_ZN9grpc_core11json_detail10AutoLoaderISt10unique_ptrINS_8internal31ClientChannelGlobalParsedConfigESt14default_deleteIS4_EEEC2Ev = comdat any

$_ZNK9grpc_core11json_detail10AutoLoaderISt10unique_ptrINS_8internal31ClientChannelGlobalParsedConfigESt14default_deleteIS4_EEE7EmplaceEPv = comdat any

$_ZNK9grpc_core11json_detail10AutoLoaderISt10unique_ptrINS_8internal31ClientChannelGlobalParsedConfigESt14default_deleteIS4_EEE5ResetEPv = comdat any

$_ZNK9grpc_core11json_detail10AutoLoaderISt10unique_ptrINS_8internal31ClientChannelGlobalParsedConfigESt14default_deleteIS4_EEE13ElementLoaderEv = comdat any

$_ZSt11make_uniqueIN9grpc_core8internal31ClientChannelGlobalParsedConfigEJEENSt8__detail9_MakeUniqIT_E15__single_objectEDpOT0_ = comdat any

$_ZNSt10unique_ptrIN9grpc_core8internal31ClientChannelGlobalParsedConfigESt14default_deleteIS2_EEaSEOS5_ = comdat any

$_ZNKSt10unique_ptrIN9grpc_core8internal31ClientChannelGlobalParsedConfigESt14default_deleteIS2_EE3getEv = comdat any

$_ZN9grpc_core8internal31ClientChannelGlobalParsedConfigC2Ev = comdat any

$_ZNSt10unique_ptrIN9grpc_core8internal31ClientChannelGlobalParsedConfigESt14default_deleteIS2_EEC2IS4_vEEPS2_ = comdat any

$_ZN9grpc_core19ServiceConfigParser12ParsedConfigC2Ev = comdat any

$_ZN9grpc_core13RefCountedPtrINS_19LoadBalancingPolicy6ConfigEEC2Ev = comdat any

$_ZN9grpc_core8internal31ClientChannelGlobalParsedConfig17HealthCheckConfigC2Ev = comdat any

$_ZN9grpc_core8internal31ClientChannelGlobalParsedConfigD2Ev = comdat any

$_ZN9grpc_core8internal31ClientChannelGlobalParsedConfigD0Ev = comdat any

$_ZN9grpc_core19ServiceConfigParser12ParsedConfigD2Ev = comdat any

$_ZN9grpc_core19ServiceConfigParser12ParsedConfigD0Ev = comdat any

$_ZNSt8optionalINSt7__cxx1112basic_stringIcSt11char_traitsIcESaIcEEEEC2Ev = comdat any

$_ZNSt14_Optional_baseINSt7__cxx1112basic_stringIcSt11char_traitsIcESaIcEEELb0ELb0EEC2Ev = comdat any

$_ZNSt17_Optional_payloadINSt7__cxx1112basic_stringIcSt11char_traitsIcESaIcEEELb0ELb0ELb0EEC2Ev = comdat any

$_ZNSt17_Optional_payloadINSt7__cxx1112basic_stringIcSt11char_traitsIcESaIcEEELb1ELb0ELb0EEC2Ev = comdat any

$_ZNSt22_Optional_payload_baseINSt7__cxx1112basic_stringIcSt11char_traitsIcESaIcEEEEC2Ev = comdat any

$_ZNSt22_Optional_payload_baseINSt7__cxx1112basic_stringIcSt11char_traitsIcESaIcEEEE8_StorageIS5_Lb0EEC2Ev = comdat any

$_ZN9grpc_core8internal31ClientChannelGlobalParsedConfig17HealthCheckConfigD2Ev = comdat any

$_ZNSt8optionalINSt7__cxx1112basic_stringIcSt11char_traitsIcESaIcEEEED2Ev = comdat any

$_ZNSt14_Optional_baseINSt7__cxx1112basic_stringIcSt11char_traitsIcESaIcEEELb0ELb0EED2Ev = comdat any

$_ZNSt17_Optional_payloadINSt7__cxx1112basic_stringIcSt11char_traitsIcESaIcEEELb0ELb0ELb0EED2Ev = comdat any

$_ZNSt17_Optional_payloadINSt7__cxx1112basic_stringIcSt11char_traitsIcESaIcEEELb1ELb0ELb0EED2Ev = comdat any

$_ZNSt22_Optional_payload_baseINSt7__cxx1112basic_stringIcSt11char_traitsIcESaIcEEEED2Ev = comdat any

$_ZNSt22_Optional_payload_baseINSt7__cxx1112basic_stringIcSt11char_traitsIcESaIcEEEE8_StorageIS5_Lb0EED2Ev = comdat any

$_ZNSt15__uniq_ptr_dataIN9grpc_core8internal31ClientChannelGlobalParsedConfigESt14default_deleteIS2_ELb1ELb1EECI2St15__uniq_ptr_implIS2_S4_EEPS2_ = comdat any

$_ZNSt15__uniq_ptr_implIN9grpc_core8internal31ClientChannelGlobalParsedConfigESt14default_deleteIS2_EEC2EPS2_ = comdat any

$_ZNSt15__uniq_ptr_implIN9grpc_core8internal31ClientChannelGlobalParsedConfigESt14default_deleteIS2_EE6_M_ptrEv = comdat any

$_ZSt3getILm0EJPN9grpc_core8internal31ClientChannelGlobalParsedConfigESt14default_deleteIS2_EEERNSt13tuple_elementIXT_ESt5tupleIJDpT0_EEE4typeERSA_ = comdat any

$_ZSt12__get_helperILm0EPN9grpc_core8internal31ClientChannelGlobalParsedConfigEJSt14default_deleteIS2_EEERT0_RSt11_Tuple_implIXT_EJS6_DpT1_EE = comdat any

$_ZNSt11_Tuple_implILm0EJPN9grpc_core8internal31ClientChannelGlobalParsedConfigESt14default_deleteIS2_EEE7_M_headERS6_ = comdat any

$_ZNSt10_Head_baseILm0EPN9grpc_core8internal31ClientChannelGlobalParsedConfigELb0EE7_M_headERS4_ = comdat any

$_ZNSt15__uniq_ptr_dataIN9grpc_core8internal31ClientChannelGlobalParsedConfigESt14default_deleteIS2_ELb1ELb1EEaSEOS5_ = comdat any

$_ZNSt15__uniq_ptr_implIN9grpc_core8internal31ClientChannelGlobalParsedConfigESt14default_deleteIS2_EEaSEOS5_ = comdat any

$_ZNSt15__uniq_ptr_implIN9grpc_core8internal31ClientChannelGlobalParsedConfigESt14default_deleteIS2_EE5resetEPS2_ = comdat any

$_ZNSt15__uniq_ptr_implIN9grpc_core8internal31ClientChannelGlobalParsedConfigESt14default_deleteIS2_EE7releaseEv = comdat any

$_ZNSt15__uniq_ptr_implIN9grpc_core8internal31ClientChannelGlobalParsedConfigESt14default_deleteIS2_EE10_M_deleterEv = comdat any

$_ZNKSt14default_deleteIN9grpc_core8internal31ClientChannelGlobalParsedConfigEEclEPS2_ = comdat any

$_ZSt3getILm1EJPN9grpc_core8internal31ClientChannelGlobalParsedConfigESt14default_deleteIS2_EEERNSt13tuple_elementIXT_ESt5tupleIJDpT0_EEE4typeERSA_ = comdat any

$_ZSt12__get_helperILm1ESt14default_deleteIN9grpc_core8internal31ClientChannelGlobalParsedConfigEEJEERT0_RSt11_Tuple_implIXT_EJS5_DpT1_EE = comdat any

$_ZNSt11_Tuple_implILm1EJSt14default_deleteIN9grpc_core8internal31ClientChannelGlobalParsedConfigEEEE7_M_headERS5_ = comdat any

$_ZNSt10_Head_baseILm1ESt14default_deleteIN9grpc_core8internal31ClientChannelGlobalParsedConfigEELb1EE7_M_headERS5_ = comdat any

$_ZNKSt15__uniq_ptr_implIN9grpc_core8internal31ClientChannelGlobalParsedConfigESt14default_deleteIS2_EE6_M_ptrEv = comdat any

$_ZSt3getILm0EJPN9grpc_core8internal31ClientChannelGlobalParsedConfigESt14default_deleteIS2_EEERKNSt13tuple_elementIXT_ESt5tupleIJDpT0_EEE4typeERKSA_ = comdat any

$_ZSt12__get_helperILm0EPN9grpc_core8internal31ClientChannelGlobalParsedConfigEJSt14default_deleteIS2_EEERKT0_RKSt11_Tuple_implIXT_EJS6_DpT1_EE = comdat any

$_ZNSt11_Tuple_implILm0EJPN9grpc_core8internal31ClientChannelGlobalParsedConfigESt14default_deleteIS2_EEE7_M_headERKS6_ = comdat any

$_ZNSt10_Head_baseILm0EPN9grpc_core8internal31ClientChannelGlobalParsedConfigELb0EE7_M_headERKS4_ = comdat any

$_ZNSt10unique_ptrIN9grpc_core8internal31ClientChannelGlobalParsedConfigESt14default_deleteIS2_EE5resetEPS2_ = comdat any

$_ZN9grpc_core11json_detail13LoaderForTypeINS_8internal31ClientChannelGlobalParsedConfigEEEPKNS0_15LoaderInterfaceEv = comdat any

$_ZN9grpc_core19NoDestructSingletonINS_11json_detail10AutoLoaderINS_8internal31ClientChannelGlobalParsedConfigEEEE3GetEv = comdat any

$_ZN9grpc_core10NoDestructINS_11json_detail10AutoLoaderINS_8internal31ClientChannelGlobalParsedConfigEEEEdeEv = comdat any

$_ZN9grpc_core10NoDestructINS_11json_detail10AutoLoaderINS_8internal31ClientChannelGlobalParsedConfigEEEE3getEv = comdat any

$_ZNSt10unique_ptrIN9grpc_core8internal31ClientChannelGlobalParsedConfigESt14default_deleteIS2_EE11get_deleterEv = comdat any

$_ZNSt10unique_ptrIN9grpc_core8internal31ClientChannelGlobalParsedConfigESt14default_deleteIS2_EE7releaseEv = comdat any

$_ZNSt15__uniq_ptr_dataIN9grpc_core19ServiceConfigParser12ParsedConfigESt14default_deleteIS2_ELb1ELb1EECI2St15__uniq_ptr_implIS2_S4_EIS3_INS0_8internal31ClientChannelGlobalParsedConfigEEEEPS2_OT_ = comdat any

$_ZNSt15__uniq_ptr_implIN9grpc_core19ServiceConfigParser12ParsedConfigESt14default_deleteIS2_EEC2IS3_INS0_8internal31ClientChannelGlobalParsedConfigEEEEPS2_OT_ = comdat any

$_ZNSt5tupleIJPN9grpc_core19ServiceConfigParser12ParsedConfigESt14default_deleteIS2_EEEC2IRS3_S4_INS0_8internal31ClientChannelGlobalParsedConfigEETnNSt9enable_ifIXclsr4_TCCIXntcl14__is_alloc_argIT_EEEEE29__is_implicitly_constructibleISD_T0_EEEbE4typeELb1EEEOSD_OSE_ = comdat any

$_ZNSt11_Tuple_implILm0EJPN9grpc_core19ServiceConfigParser12ParsedConfigESt14default_deleteIS2_EEEC2IRS3_JS4_INS0_8internal31ClientChannelGlobalParsedConfigEEEvEEOT_DpOT0_ = comdat any

$_ZNSt11_Tuple_implILm1EJSt14default_deleteIN9grpc_core19ServiceConfigParser12ParsedConfigEEEEC2IS0_INS1_8internal31ClientChannelGlobalParsedConfigEEEEOT_ = comdat any

$_ZNSt10_Head_baseILm0EPN9grpc_core19ServiceConfigParser12ParsedConfigELb0EEC2IRS3_EEOT_ = comdat any

$_ZNSt10_Head_baseILm1ESt14default_deleteIN9grpc_core19ServiceConfigParser12ParsedConfigEELb1EEC2IS0_INS1_8internal31ClientChannelGlobalParsedConfigEEEEOT_ = comdat any

$_ZNSt14default_deleteIN9grpc_core19ServiceConfigParser12ParsedConfigEEC2INS0_8internal31ClientChannelGlobalParsedConfigEvEERKS_IT_E = comdat any

$_ZNSt10unique_ptrIN9grpc_core8internal31ClientChannelMethodParsedConfigESt14default_deleteIS2_EEC2IS4_vEEv = comdat any

$_ZN9grpc_core11json_detail13LoaderForTypeISt10unique_ptrINS_8internal31ClientChannelMethodParsedConfigESt14default_deleteIS4_EEEEPKNS0_15LoaderInterfaceEv = comdat any

$_ZNSt15__uniq_ptr_dataIN9grpc_core8internal31ClientChannelMethodParsedConfigESt14default_deleteIS2_ELb1ELb1EEC2Ev = comdat any

$_ZNSt15__uniq_ptr_implIN9grpc_core8internal31ClientChannelMethodParsedConfigESt14default_deleteIS2_EEC2Ev = comdat any

$_ZNSt5tupleIJPN9grpc_core8internal31ClientChannelMethodParsedConfigESt14default_deleteIS2_EEEC2ILb1ETnNSt9enable_ifIXclsr17_TupleConstraintsIXT_ES3_S5_EE37__is_implicitly_default_constructibleEEbE4typeELb1EEEv = comdat any

$_ZNSt11_Tuple_implILm0EJPN9grpc_core8internal31ClientChannelMethodParsedConfigESt14default_deleteIS2_EEEC2Ev = comdat any

$_ZNSt11_Tuple_implILm1EJSt14default_deleteIN9grpc_core8internal31ClientChannelMethodParsedConfigEEEEC2Ev = comdat any

$_ZNSt10_Head_baseILm0EPN9grpc_core8internal31ClientChannelMethodParsedConfigELb0EEC2Ev = comdat any

$_ZNSt10_Head_baseILm1ESt14default_deleteIN9grpc_core8internal31ClientChannelMethodParsedConfigEELb1EEC2Ev = comdat any

$_ZN9grpc_core19NoDestructSingletonINS_11json_detail10AutoLoaderISt10unique_ptrINS_8internal31ClientChannelMethodParsedConfigESt14default_deleteIS5_EEEEE3GetEv = comdat any

$_ZN9grpc_core10NoDestructINS_11json_detail10AutoLoaderISt10unique_ptrINS_8internal31ClientChannelMethodParsedConfigESt14default_deleteIS5_EEEEEdeEv = comdat any

$_ZN9grpc_core10NoDestructINS_11json_detail10AutoLoaderISt10unique_ptrINS_8internal31ClientChannelMethodParsedConfigESt14default_deleteIS5_EEEEE3getEv = comdat any

$_ZN9grpc_core9ConstructINS_11json_detail10AutoLoaderINS_8internal31ClientChannelMethodParsedConfigEEEJEEEvPT_DpOT0_ = comdat any

$_ZN9grpc_core11json_detail10AutoLoaderINS_8internal31ClientChannelMethodParsedConfigEEC2Ev = comdat any

$_ZNK9grpc_core11json_detail10AutoLoaderINS_8internal31ClientChannelMethodParsedConfigEE8LoadIntoERKNS_12experimental4JsonERKNS_8JsonArgsEPvPNS_16ValidationErrorsE = comdat any

$_ZN9grpc_core9ConstructINS_11json_detail10AutoLoaderISt10unique_ptrINS_8internal31ClientChannelMethodParsedConfigESt14default_deleteIS5_EEEEJEEEvPT_DpOT0_ = comdat any

$_ZN9grpc_core11json_detail10AutoLoaderISt10unique_ptrINS_8internal31ClientChannelMethodParsedConfigESt14default_deleteIS4_EEEC2Ev = comdat any

$_ZNK9grpc_core11json_detail10AutoLoaderISt10unique_ptrINS_8internal31ClientChannelMethodParsedConfigESt14default_deleteIS4_EEE7EmplaceEPv = comdat any

$_ZNK9grpc_core11json_detail10AutoLoaderISt10unique_ptrINS_8internal31ClientChannelMethodParsedConfigESt14default_deleteIS4_EEE5ResetEPv = comdat any

$_ZNK9grpc_core11json_detail10AutoLoaderISt10unique_ptrINS_8internal31ClientChannelMethodParsedConfigESt14default_deleteIS4_EEE13ElementLoaderEv = comdat any

$_ZSt11make_uniqueIN9grpc_core8internal31ClientChannelMethodParsedConfigEJEENSt8__detail9_MakeUniqIT_E15__single_objectEDpOT0_ = comdat any

$_ZNSt10unique_ptrIN9grpc_core8internal31ClientChannelMethodParsedConfigESt14default_deleteIS2_EEaSEOS5_ = comdat any

$_ZNKSt10unique_ptrIN9grpc_core8internal31ClientChannelMethodParsedConfigESt14default_deleteIS2_EE3getEv = comdat any

$_ZN9grpc_core8internal31ClientChannelMethodParsedConfigC2Ev = comdat any

$_ZNSt10unique_ptrIN9grpc_core8internal31ClientChannelMethodParsedConfigESt14default_deleteIS2_EEC2IS4_vEEPS2_ = comdat any

$_ZN9grpc_core8DurationC2Ev = comdat any

$_ZNSt8optionalIbEC2Ev = comdat any

$_ZN9grpc_core8internal31ClientChannelMethodParsedConfigD2Ev = comdat any

$_ZN9grpc_core8internal31ClientChannelMethodParsedConfigD0Ev = comdat any

$_ZNSt14_Optional_baseIbLb1ELb1EEC2Ev = comdat any

$_ZNSt17_Optional_payloadIbLb1ELb1ELb1EEC2Ev = comdat any

$_ZNSt22_Optional_payload_baseIbEC2Ev = comdat any

$_ZNSt22_Optional_payload_baseIbE8_StorageIbLb1EEC2Ev = comdat any

$_ZNSt15__uniq_ptr_dataIN9grpc_core8internal31ClientChannelMethodParsedConfigESt14default_deleteIS2_ELb1ELb1EECI2St15__uniq_ptr_implIS2_S4_EEPS2_ = comdat any

$_ZNSt15__uniq_ptr_implIN9grpc_core8internal31ClientChannelMethodParsedConfigESt14default_deleteIS2_EEC2EPS2_ = comdat any

$_ZNSt15__uniq_ptr_implIN9grpc_core8internal31ClientChannelMethodParsedConfigESt14default_deleteIS2_EE6_M_ptrEv = comdat any

$_ZSt3getILm0EJPN9grpc_core8internal31ClientChannelMethodParsedConfigESt14default_deleteIS2_EEERNSt13tuple_elementIXT_ESt5tupleIJDpT0_EEE4typeERSA_ = comdat any

$_ZSt12__get_helperILm0EPN9grpc_core8internal31ClientChannelMethodParsedConfigEJSt14default_deleteIS2_EEERT0_RSt11_Tuple_implIXT_EJS6_DpT1_EE = comdat any

$_ZNSt11_Tuple_implILm0EJPN9grpc_core8internal31ClientChannelMethodParsedConfigESt14default_deleteIS2_EEE7_M_headERS6_ = comdat any

$_ZNSt10_Head_baseILm0EPN9grpc_core8internal31ClientChannelMethodParsedConfigELb0EE7_M_headERS4_ = comdat any

$_ZNSt15__uniq_ptr_dataIN9grpc_core8internal31ClientChannelMethodParsedConfigESt14default_deleteIS2_ELb1ELb1EEaSEOS5_ = comdat any

$_ZNSt15__uniq_ptr_implIN9grpc_core8internal31ClientChannelMethodParsedConfigESt14default_deleteIS2_EEaSEOS5_ = comdat any

$_ZNSt15__uniq_ptr_implIN9grpc_core8internal31ClientChannelMethodParsedConfigESt14default_deleteIS2_EE5resetEPS2_ = comdat any

$_ZNSt15__uniq_ptr_implIN9grpc_core8internal31ClientChannelMethodParsedConfigESt14default_deleteIS2_EE7releaseEv = comdat any

$_ZNSt15__uniq_ptr_implIN9grpc_core8internal31ClientChannelMethodParsedConfigESt14default_deleteIS2_EE10_M_deleterEv = comdat any

$_ZNKSt14default_deleteIN9grpc_core8internal31ClientChannelMethodParsedConfigEEclEPS2_ = comdat any

$_ZSt3getILm1EJPN9grpc_core8internal31ClientChannelMethodParsedConfigESt14default_deleteIS2_EEERNSt13tuple_elementIXT_ESt5tupleIJDpT0_EEE4typeERSA_ = comdat any

$_ZSt12__get_helperILm1ESt14default_deleteIN9grpc_core8internal31ClientChannelMethodParsedConfigEEJEERT0_RSt11_Tuple_implIXT_EJS5_DpT1_EE = comdat any

$_ZNSt11_Tuple_implILm1EJSt14default_deleteIN9grpc_core8internal31ClientChannelMethodParsedConfigEEEE7_M_headERS5_ = comdat any

$_ZNSt10_Head_baseILm1ESt14default_deleteIN9grpc_core8internal31ClientChannelMethodParsedConfigEELb1EE7_M_headERS5_ = comdat any

$_ZNKSt15__uniq_ptr_implIN9grpc_core8internal31ClientChannelMethodParsedConfigESt14default_deleteIS2_EE6_M_ptrEv = comdat any

$_ZSt3getILm0EJPN9grpc_core8internal31ClientChannelMethodParsedConfigESt14default_deleteIS2_EEERKNSt13tuple_elementIXT_ESt5tupleIJDpT0_EEE4typeERKSA_ = comdat any

$_ZSt12__get_helperILm0EPN9grpc_core8internal31ClientChannelMethodParsedConfigEJSt14default_deleteIS2_EEERKT0_RKSt11_Tuple_implIXT_EJS6_DpT1_EE = comdat any

$_ZNSt11_Tuple_implILm0EJPN9grpc_core8internal31ClientChannelMethodParsedConfigESt14default_deleteIS2_EEE7_M_headERKS6_ = comdat any

$_ZNSt10_Head_baseILm0EPN9grpc_core8internal31ClientChannelMethodParsedConfigELb0EE7_M_headERKS4_ = comdat any

$_ZNSt10unique_ptrIN9grpc_core8internal31ClientChannelMethodParsedConfigESt14default_deleteIS2_EE5resetEPS2_ = comdat any

$_ZN9grpc_core11json_detail13LoaderForTypeINS_8internal31ClientChannelMethodParsedConfigEEEPKNS0_15LoaderInterfaceEv = comdat any

$_ZN9grpc_core19NoDestructSingletonINS_11json_detail10AutoLoaderINS_8internal31ClientChannelMethodParsedConfigEEEE3GetEv = comdat any

$_ZN9grpc_core10NoDestructINS_11json_detail10AutoLoaderINS_8internal31ClientChannelMethodParsedConfigEEEEdeEv = comdat any

$_ZN9grpc_core10NoDestructINS_11json_detail10AutoLoaderINS_8internal31ClientChannelMethodParsedConfigEEEE3getEv = comdat any

$_ZNSt10unique_ptrIN9grpc_core8internal31ClientChannelMethodParsedConfigESt14default_deleteIS2_EE11get_deleterEv = comdat any

$_ZNSt10unique_ptrIN9grpc_core8internal31ClientChannelMethodParsedConfigESt14default_deleteIS2_EE7releaseEv = comdat any

$_ZNSt15__uniq_ptr_dataIN9grpc_core19ServiceConfigParser12ParsedConfigESt14default_deleteIS2_ELb1ELb1EECI2St15__uniq_ptr_implIS2_S4_EIS3_INS0_8internal31ClientChannelMethodParsedConfigEEEEPS2_OT_ = comdat any

$_ZNSt15__uniq_ptr_implIN9grpc_core19ServiceConfigParser12ParsedConfigESt14default_deleteIS2_EEC2IS3_INS0_8internal31ClientChannelMethodParsedConfigEEEEPS2_OT_ = comdat any

$_ZNSt5tupleIJPN9grpc_core19ServiceConfigParser12ParsedConfigESt14default_deleteIS2_EEEC2IRS3_S4_INS0_8internal31ClientChannelMethodParsedConfigEETnNSt9enable_ifIXclsr4_TCCIXntcl14__is_alloc_argIT_EEEEE29__is_implicitly_constructibleISD_T0_EEEbE4typeELb1EEEOSD_OSE_ = comdat any

$_ZNSt11_Tuple_implILm0EJPN9grpc_core19ServiceConfigParser12ParsedConfigESt14default_deleteIS2_EEEC2IRS3_JS4_INS0_8internal31ClientChannelMethodParsedConfigEEEvEEOT_DpOT0_ = comdat any

$_ZNSt11_Tuple_implILm1EJSt14default_deleteIN9grpc_core19ServiceConfigParser12ParsedConfigEEEEC2IS0_INS1_8internal31ClientChannelMethodParsedConfigEEEEOT_ = comdat any

$_ZNSt10_Head_baseILm1ESt14default_deleteIN9grpc_core19ServiceConfigParser12ParsedConfigEELb1EEC2IS0_INS1_8internal31ClientChannelMethodParsedConfigEEEEOT_ = comdat any

$_ZNSt14default_deleteIN9grpc_core19ServiceConfigParser12ParsedConfigEEC2INS0_8internal31ClientChannelMethodParsedConfigEvEERKS_IT_E = comdat any

$_ZTSN9grpc_core19ServiceConfigParser6ParserE = comdat any

$_ZTIN9grpc_core19ServiceConfigParser6ParserE = comdat any

$_ZTSSt18bad_variant_access = comdat any

$_ZTISt18bad_variant_access = comdat any

$_ZTVSt18bad_variant_access = comdat any

$_ZN4absl12lts_202308026Status16kMovedFromStringE = comdat any

$_ZTVN9grpc_core8JsonArgsE = comdat any

$_ZTSN9grpc_core8JsonArgsE = comdat any

$_ZTIN9grpc_core8JsonArgsE = comdat any

$_ZTVN9grpc_core11json_detail10AutoLoaderINSt7__cxx1112basic_stringIcSt11char_traitsIcESaIcEEEEE = comdat any

$_ZTSN9grpc_core11json_detail10AutoLoaderINSt7__cxx1112basic_stringIcSt11char_traitsIcESaIcEEEEE = comdat any

$_ZTIN9grpc_core11json_detail10AutoLoaderINSt7__cxx1112basic_stringIcSt11char_traitsIcESaIcEEEEE = comdat any

$_ZTVN9grpc_core11json_detail15LoaderInterfaceE = comdat any

$_ZTSN9grpc_core11json_detail15LoaderInterfaceE = comdat any

$_ZTIN9grpc_core11json_detail15LoaderInterfaceE = comdat any

$_ZTVN9grpc_core11json_detail10AutoLoaderISt8optionalINSt7__cxx1112basic_stringIcSt11char_traitsIcESaIcEEEEEE = comdat any

$_ZTSN9grpc_core11json_detail10AutoLoaderISt8optionalINSt7__cxx1112basic_stringIcSt11char_traitsIcESaIcEEEEEE = comdat any

$_ZTIN9grpc_core11json_detail10AutoLoaderISt8optionalINSt7__cxx1112basic_stringIcSt11char_traitsIcESaIcEEEEEE = comdat any

$_ZTVN9grpc_core11json_detail24FinishedJsonObjectLoaderINS_8internal31ClientChannelGlobalParsedConfig17HealthCheckConfigELm1EvEE = comdat any

$_ZTSN9grpc_core11json_detail24FinishedJsonObjectLoaderINS_8internal31ClientChannelGlobalParsedConfig17HealthCheckConfigELm1EvEE = comdat any

$_ZTIN9grpc_core11json_detail24FinishedJsonObjectLoaderINS_8internal31ClientChannelGlobalParsedConfig17HealthCheckConfigELm1EvEE = comdat any

$_ZTVN9grpc_core11json_detail10AutoLoaderINS_8internal31ClientChannelGlobalParsedConfig17HealthCheckConfigEEE = comdat any

$_ZTSN9grpc_core11json_detail10AutoLoaderINS_8internal31ClientChannelGlobalParsedConfig17HealthCheckConfigEEE = comdat any

$_ZTIN9grpc_core11json_detail10AutoLoaderINS_8internal31ClientChannelGlobalParsedConfig17HealthCheckConfigEEE = comdat any

$_ZTVN9grpc_core11json_detail24FinishedJsonObjectLoaderINS_8internal31ClientChannelGlobalParsedConfigELm2EvEE = comdat any

$_ZTSN9grpc_core11json_detail24FinishedJsonObjectLoaderINS_8internal31ClientChannelGlobalParsedConfigELm2EvEE = comdat any

$_ZTIN9grpc_core11json_detail24FinishedJsonObjectLoaderINS_8internal31ClientChannelGlobalParsedConfigELm2EvEE = comdat any

$_ZTVN9grpc_core11json_detail10AutoLoaderINS_8DurationEEE = comdat any

$_ZTSN9grpc_core11json_detail10AutoLoaderINS_8DurationEEE = comdat any

$_ZTIN9grpc_core11json_detail10AutoLoaderINS_8DurationEEE = comdat any

$_ZTVN9grpc_core11json_detail10AutoLoaderIbEE = comdat any

$_ZTSN9grpc_core11json_detail10AutoLoaderIbEE = comdat any

$_ZTIN9grpc_core11json_detail10AutoLoaderIbEE = comdat any

$_ZTVN9grpc_core11json_detail10AutoLoaderISt8optionalIbEEE = comdat any

$_ZTSN9grpc_core11json_detail10AutoLoaderISt8optionalIbEEE = comdat any

$_ZTIN9grpc_core11json_detail10AutoLoaderISt8optionalIbEEE = comdat any

$_ZTVN9grpc_core11json_detail24FinishedJsonObjectLoaderINS_8internal31ClientChannelMethodParsedConfigELm2EvEE = comdat any

$_ZTSN9grpc_core11json_detail24FinishedJsonObjectLoaderINS_8internal31ClientChannelMethodParsedConfigELm2EvEE = comdat any

$_ZTIN9grpc_core11json_detail24FinishedJsonObjectLoaderINS_8internal31ClientChannelMethodParsedConfigELm2EvEE = comdat any

$_ZTVN9grpc_core19ServiceConfigParser6ParserE = comdat any

$_ZTVN9grpc_core11json_detail10AutoLoaderINS_8internal31ClientChannelGlobalParsedConfigEEE = comdat any

$_ZTSN9grpc_core11json_detail10AutoLoaderINS_8internal31ClientChannelGlobalParsedConfigEEE = comdat any

$_ZTIN9grpc_core11json_detail10AutoLoaderINS_8internal31ClientChannelGlobalParsedConfigEEE = comdat any

$_ZTVN9grpc_core11json_detail10AutoLoaderISt10unique_ptrINS_8internal31ClientChannelGlobalParsedConfigESt14default_deleteIS4_EEEE = comdat any

$_ZTSN9grpc_core11json_detail10AutoLoaderISt10unique_ptrINS_8internal31ClientChannelGlobalParsedConfigESt14default_deleteIS4_EEEE = comdat any

$_ZTIN9grpc_core11json_detail10AutoLoaderISt10unique_ptrINS_8internal31ClientChannelGlobalParsedConfigESt14default_deleteIS4_EEEE = comdat any

$_ZTVN9grpc_core8internal31ClientChannelGlobalParsedConfigE = comdat any

$_ZTSN9grpc_core8internal31ClientChannelGlobalParsedConfigE = comdat any

$_ZTSN9grpc_core19ServiceConfigParser12ParsedConfigE = comdat any

$_ZTIN9grpc_core19ServiceConfigParser12ParsedConfigE = comdat any

$_ZTIN9grpc_core8internal31ClientChannelGlobalParsedConfigE = comdat any

$_ZTVN9grpc_core19ServiceConfigParser12ParsedConfigE = comdat any

$_ZTVN9grpc_core11json_detail10AutoLoaderINS_8internal31ClientChannelMethodParsedConfigEEE = comdat any

$_ZTSN9grpc_core11json_detail10AutoLoaderINS_8internal31ClientChannelMethodParsedConfigEEE = comdat any

$_ZTIN9grpc_core11json_detail10AutoLoaderINS_8internal31ClientChannelMethodParsedConfigEEE = comdat any

$_ZTVN9grpc_core11json_detail10AutoLoaderISt10unique_ptrINS_8internal31ClientChannelMethodParsedConfigESt14default_deleteIS4_EEEE = comdat any

$_ZTSN9grpc_core11json_detail10AutoLoaderISt10unique_ptrINS_8internal31ClientChannelMethodParsedConfigESt14default_deleteIS4_EEEE = comdat any

$_ZTIN9grpc_core11json_detail10AutoLoaderISt10unique_ptrINS_8internal31ClientChannelMethodParsedConfigESt14default_deleteIS4_EEEE = comdat any

$_ZTVN9grpc_core8internal31ClientChannelMethodParsedConfigE = comdat any

$_ZTSN9grpc_core8internal31ClientChannelMethodParsedConfigE = comdat any

$_ZTIN9grpc_core8internal31ClientChannelMethodParsedConfigE = comdat any

@_ZStL8__ioinit = internal global %"class.std::ios_base::Init" zeroinitializer, align 1
@__dso_handle = external hidden global i8
@_ZZN9grpc_core8internal31ClientChannelGlobalParsedConfig17HealthCheckConfig10JsonLoaderERKNS_8JsonArgsEE6loader = internal global ptr null, align 8
@_ZGVZN9grpc_core8internal31ClientChannelGlobalParsedConfig17HealthCheckConfig10JsonLoaderERKNS_8JsonArgsEE6loader = internal global i64 0, align 8
@.str = private unnamed_addr constant [12 x i8] c"serviceName\00", align 1
@_ZZN9grpc_core8internal31ClientChannelGlobalParsedConfig10JsonLoaderERKNS_8JsonArgsEE6loader = internal global ptr null, align 8
@_ZGVZN9grpc_core8internal31ClientChannelGlobalParsedConfig10JsonLoaderERKNS_8JsonArgsEE6loader = internal global i64 0, align 8
@.str.1 = private unnamed_addr constant [20 x i8] c"loadBalancingPolicy\00", align 1
@.str.2 = private unnamed_addr constant [18 x i8] c"healthCheckConfig\00", align 1
@.str.3 = private unnamed_addr constant [21 x i8] c".loadBalancingConfig\00", align 1
@.str.4 = private unnamed_addr constant [20 x i8] c"loadBalancingConfig\00", align 1
@.str.5 = private unnamed_addr constant [21 x i8] c".loadBalancingPolicy\00", align 1
@.str.6 = private unnamed_addr constant [20 x i8] c"unknown LB policy \22\00", align 1
@.str.7 = private unnamed_addr constant [2 x i8] c"\22\00", align 1
@.str.8 = private unnamed_addr constant [12 x i8] c"LB policy \22\00", align 1
@.str.9 = private unnamed_addr constant [61 x i8] c"\22 requires a config. Please use loadBalancingConfig instead.\00", align 1
@_ZZN9grpc_core8internal31ClientChannelMethodParsedConfig10JsonLoaderERKNS_8JsonArgsEE6loader = internal global ptr null, align 8
@_ZGVZN9grpc_core8internal31ClientChannelMethodParsedConfig10JsonLoaderERKNS_8JsonArgsEE6loader = internal global i64 0, align 8
@.str.10 = private unnamed_addr constant [8 x i8] c"timeout\00", align 1
@.str.11 = private unnamed_addr constant [13 x i8] c"waitForReady\00", align 1
@_ZTVN9grpc_core8internal32ClientChannelServiceConfigParserE = unnamed_addr constant { [7 x ptr] } { [7 x ptr] [ptr null, ptr @_ZTIN9grpc_core8internal32ClientChannelServiceConfigParserE, ptr @_ZN9grpc_core8internal32ClientChannelServiceConfigParserD2Ev, ptr @_ZN9grpc_core8internal32ClientChannelServiceConfigParserD0Ev, ptr @_ZNK9grpc_core8internal32ClientChannelServiceConfigParser4nameEv, ptr @_ZN9grpc_core8internal32ClientChannelServiceConfigParser17ParseGlobalParamsERKNS_11ChannelArgsERKNS_12experimental4JsonEPNS_16ValidationErrorsE, ptr @_ZN9grpc_core8internal32ClientChannelServiceConfigParser20ParsePerMethodParamsERKNS_11ChannelArgsERKNS_12experimental4JsonEPNS_16ValidationErrorsE] }, align 8
@_ZTVN10__cxxabiv120__si_class_type_infoE = external global [0 x ptr]
@_ZTSN9grpc_core8internal32ClientChannelServiceConfigParserE = constant [56 x i8] c"N9grpc_core8internal32ClientChannelServiceConfigParserE\00", align 1
@_ZTVN10__cxxabiv117__class_type_infoE = external global [0 x ptr]
@_ZTSN9grpc_core19ServiceConfigParser6ParserE = linkonce_odr constant [41 x i8] c"N9grpc_core19ServiceConfigParser6ParserE\00", comdat, align 1
@_ZTIN9grpc_core19ServiceConfigParser6ParserE = linkonce_odr constant { ptr, ptr } { ptr getelementptr inbounds (ptr, ptr @_ZTVN10__cxxabiv117__class_type_infoE, i64 2), ptr @_ZTSN9grpc_core19ServiceConfigParser6ParserE }, comdat, align 8
@_ZTIN9grpc_core8internal32ClientChannelServiceConfigParserE = constant { ptr, ptr, ptr } { ptr getelementptr inbounds (ptr, ptr @_ZTVN10__cxxabiv120__si_class_type_infoE, i64 2), ptr @_ZTSN9grpc_core8internal32ClientChannelServiceConfigParserE, ptr @_ZTIN9grpc_core19ServiceConfigParser6ParserE }, align 8
@_ZN9grpc_core19NoDestructSingletonINS_11json_detail10AutoLoaderINSt7__cxx1112basic_stringIcSt11char_traitsIcESaIcEEEEEE6value_E = linkonce_odr global %"class.grpc_core::NoDestruct" zeroinitializer, comdat, align 8
@_ZGVN9grpc_core19NoDestructSingletonINS_11json_detail10AutoLoaderINSt7__cxx1112basic_stringIcSt11char_traitsIcESaIcEEEEEE6value_E = linkonce_odr global i64 0, comdat($_ZN9grpc_core19NoDestructSingletonINS_11json_detail10AutoLoaderINSt7__cxx1112basic_stringIcSt11char_traitsIcESaIcEEEEEE6value_E), align 8
@_ZN9grpc_core19NoDestructSingletonINS_11json_detail10AutoLoaderISt8optionalINSt7__cxx1112basic_stringIcSt11char_traitsIcESaIcEEEEEEE6value_E = linkonce_odr global %"class.grpc_core::NoDestruct.132" zeroinitializer, comdat, align 8
@_ZGVN9grpc_core19NoDestructSingletonINS_11json_detail10AutoLoaderISt8optionalINSt7__cxx1112basic_stringIcSt11char_traitsIcESaIcEEEEEEE6value_E = linkonce_odr global i64 0, comdat($_ZN9grpc_core19NoDestructSingletonINS_11json_detail10AutoLoaderISt8optionalINSt7__cxx1112basic_stringIcSt11char_traitsIcESaIcEEEEEEE6value_E), align 8
@_ZN9grpc_core19NoDestructSingletonINS_11json_detail10AutoLoaderINS_8internal31ClientChannelGlobalParsedConfig17HealthCheckConfigEEEE6value_E = linkonce_odr global %"class.grpc_core::NoDestruct.133" zeroinitializer, comdat, align 8
@_ZGVN9grpc_core19NoDestructSingletonINS_11json_detail10AutoLoaderINS_8internal31ClientChannelGlobalParsedConfig17HealthCheckConfigEEEE6value_E = linkonce_odr global i64 0, comdat($_ZN9grpc_core19NoDestructSingletonINS_11json_detail10AutoLoaderINS_8internal31ClientChannelGlobalParsedConfig17HealthCheckConfigEEEE6value_E), align 8
@_ZN9grpc_core19NoDestructSingletonINS_11json_detail10AutoLoaderINS_8DurationEEEE6value_E = linkonce_odr global %"class.grpc_core::NoDestruct.134" zeroinitializer, comdat, align 8
@_ZGVN9grpc_core19NoDestructSingletonINS_11json_detail10AutoLoaderINS_8DurationEEEE6value_E = linkonce_odr global i64 0, comdat($_ZN9grpc_core19NoDestructSingletonINS_11json_detail10AutoLoaderINS_8DurationEEEE6value_E), align 8
@_ZN9grpc_core19NoDestructSingletonINS_11json_detail10AutoLoaderIbEEE6value_E = linkonce_odr global %"class.grpc_core::NoDestruct.135" zeroinitializer, comdat, align 8
@_ZGVN9grpc_core19NoDestructSingletonINS_11json_detail10AutoLoaderIbEEE6value_E = linkonce_odr global i64 0, comdat($_ZN9grpc_core19NoDestructSingletonINS_11json_detail10AutoLoaderIbEEE6value_E), align 8
@_ZN9grpc_core19NoDestructSingletonINS_11json_detail10AutoLoaderISt8optionalIbEEEE6value_E = linkonce_odr global %"class.grpc_core::NoDestruct.136" zeroinitializer, comdat, align 8
@_ZGVN9grpc_core19NoDestructSingletonINS_11json_detail10AutoLoaderISt8optionalIbEEEE6value_E = linkonce_odr global i64 0, comdat($_ZN9grpc_core19NoDestructSingletonINS_11json_detail10AutoLoaderISt8optionalIbEEEE6value_E), align 8
@_ZN9grpc_core19NoDestructSingletonINS_11json_detail10AutoLoaderINS_8internal31ClientChannelGlobalParsedConfigEEEE6value_E = linkonce_odr global %"class.grpc_core::NoDestruct.137" zeroinitializer, comdat, align 8
@_ZGVN9grpc_core19NoDestructSingletonINS_11json_detail10AutoLoaderINS_8internal31ClientChannelGlobalParsedConfigEEEE6value_E = linkonce_odr global i64 0, comdat($_ZN9grpc_core19NoDestructSingletonINS_11json_detail10AutoLoaderINS_8internal31ClientChannelGlobalParsedConfigEEEE6value_E), align 8
@_ZN9grpc_core19NoDestructSingletonINS_11json_detail10AutoLoaderISt10unique_ptrINS_8internal31ClientChannelGlobalParsedConfigESt14default_deleteIS5_EEEEE6value_E = linkonce_odr global %"class.grpc_core::NoDestruct.138" zeroinitializer, comdat, align 8
@_ZGVN9grpc_core19NoDestructSingletonINS_11json_detail10AutoLoaderISt10unique_ptrINS_8internal31ClientChannelGlobalParsedConfigESt14default_deleteIS5_EEEEE6value_E = linkonce_odr global i64 0, comdat($_ZN9grpc_core19NoDestructSingletonINS_11json_detail10AutoLoaderISt10unique_ptrINS_8internal31ClientChannelGlobalParsedConfigESt14default_deleteIS5_EEEEE6value_E), align 8
@_ZN9grpc_core19NoDestructSingletonINS_11json_detail10AutoLoaderINS_8internal31ClientChannelMethodParsedConfigEEEE6value_E = linkonce_odr global %"class.grpc_core::NoDestruct.139" zeroinitializer, comdat, align 8
@_ZGVN9grpc_core19NoDestructSingletonINS_11json_detail10AutoLoaderINS_8internal31ClientChannelMethodParsedConfigEEEE6value_E = linkonce_odr global i64 0, comdat($_ZN9grpc_core19NoDestructSingletonINS_11json_detail10AutoLoaderINS_8internal31ClientChannelMethodParsedConfigEEEE6value_E), align 8
@_ZN9grpc_core19NoDestructSingletonINS_11json_detail10AutoLoaderISt10unique_ptrINS_8internal31ClientChannelMethodParsedConfigESt14default_deleteIS5_EEEEE6value_E = linkonce_odr global %"class.grpc_core::NoDestruct.140" zeroinitializer, comdat, align 8
@_ZGVN9grpc_core19NoDestructSingletonINS_11json_detail10AutoLoaderISt10unique_ptrINS_8internal31ClientChannelMethodParsedConfigESt14default_deleteIS5_EEEEE6value_E = linkonce_odr global i64 0, comdat($_ZN9grpc_core19NoDestructSingletonINS_11json_detail10AutoLoaderISt10unique_ptrINS_8internal31ClientChannelMethodParsedConfigESt14default_deleteIS5_EEEEE6value_E), align 8
@_ZN9grpc_core17CoreConfiguration7config_E = external global %"struct.std::atomic", align 8
@.str.22 = private unnamed_addr constant [31 x i8] c"std::get: variant is valueless\00", align 1
@.str.23 = private unnamed_addr constant [34 x i8] c"std::get: wrong index for variant\00", align 1
@_ZTSSt18bad_variant_access = linkonce_odr constant [23 x i8] c"St18bad_variant_access\00", comdat, align 1
@_ZTISt9exception = external constant ptr
@_ZTISt18bad_variant_access = linkonce_odr constant { ptr, ptr, ptr } { ptr getelementptr inbounds (ptr, ptr @_ZTVN10__cxxabiv120__si_class_type_infoE, i64 2), ptr @_ZTSSt18bad_variant_access, ptr @_ZTISt9exception }, comdat, align 8
@_ZTVSt18bad_variant_access = linkonce_odr unnamed_addr constant { [5 x ptr] } { [5 x ptr] [ptr null, ptr @_ZTISt18bad_variant_access, ptr @_ZNSt18bad_variant_accessD2Ev, ptr @_ZNSt18bad_variant_accessD0Ev, ptr @_ZNKSt18bad_variant_access4whatEv] }, comdat, align 8
@_ZTVSt9exception = external unnamed_addr constant { [5 x ptr] }, align 8
@_ZN4absl12lts_202308026Status16kMovedFromStringE = linkonce_odr constant [28 x i8] c"Status accessed after move.\00", comdat, align 16
@.str.24 = private unnamed_addr constant [15 x i8] c"client_channel\00", align 1
@_ZTVN9grpc_core8JsonArgsE = linkonce_odr unnamed_addr constant { [5 x ptr] } { [5 x ptr] [ptr null, ptr @_ZTIN9grpc_core8JsonArgsE, ptr @_ZN9grpc_core8JsonArgsD2Ev, ptr @_ZN9grpc_core8JsonArgsD0Ev, ptr @_ZNK9grpc_core8JsonArgs9IsEnabledESt17basic_string_viewIcSt11char_traitsIcEE] }, comdat, align 8
@_ZTSN9grpc_core8JsonArgsE = linkonce_odr constant [22 x i8] c"N9grpc_core8JsonArgsE\00", comdat, align 1
@_ZTIN9grpc_core8JsonArgsE = linkonce_odr constant { ptr, ptr } { ptr getelementptr inbounds (ptr, ptr @_ZTVN10__cxxabiv117__class_type_infoE, i64 2), ptr @_ZTSN9grpc_core8JsonArgsE }, comdat, align 8
@.str.25 = private unnamed_addr constant [50 x i8] c"basic_string: construction from null is not valid\00", align 1
@_ZTVN9grpc_core11json_detail10AutoLoaderINSt7__cxx1112basic_stringIcSt11char_traitsIcESaIcEEEEE = linkonce_odr unnamed_addr constant { [5 x ptr] } { [5 x ptr] [ptr null, ptr @_ZTIN9grpc_core11json_detail10AutoLoaderINSt7__cxx1112basic_stringIcSt11char_traitsIcESaIcEEEEE, ptr @_ZNK9grpc_core11json_detail10LoadScalar8LoadIntoERKNS_12experimental4JsonERKNS_8JsonArgsEPvPNS_16ValidationErrorsE, ptr @_ZNK9grpc_core11json_detail10LoadString8IsNumberEv, ptr @_ZNK9grpc_core11json_detail10LoadString8LoadIntoERKNSt7__cxx1112basic_stringIcSt11char_traitsIcESaIcEEEPvPNS_16ValidationErrorsE] }, comdat, align 8
@_ZTSN9grpc_core11json_detail10AutoLoaderINSt7__cxx1112basic_stringIcSt11char_traitsIcESaIcEEEEE = linkonce_odr constant [92 x i8] c"N9grpc_core11json_detail10AutoLoaderINSt7__cxx1112basic_stringIcSt11char_traitsIcESaIcEEEEE\00", comdat, align 1
@_ZTIN9grpc_core11json_detail10LoadStringE = external constant ptr
@_ZTIN9grpc_core11json_detail10AutoLoaderINSt7__cxx1112basic_stringIcSt11char_traitsIcESaIcEEEEE = linkonce_odr constant { ptr, ptr, ptr } { ptr getelementptr inbounds (ptr, ptr @_ZTVN10__cxxabiv120__si_class_type_infoE, i64 2), ptr @_ZTSN9grpc_core11json_detail10AutoLoaderINSt7__cxx1112basic_stringIcSt11char_traitsIcESaIcEEEEE, ptr @_ZTIN9grpc_core11json_detail10LoadStringE }, comdat, align 8
@_ZTVN9grpc_core11json_detail10LoadStringE = external unnamed_addr constant { [5 x ptr] }, align 8
@_ZTVN9grpc_core11json_detail10LoadScalarE = external unnamed_addr constant { [5 x ptr] }, align 8
@_ZTVN9grpc_core11json_detail15LoaderInterfaceE = linkonce_odr unnamed_addr constant { [3 x ptr] } { [3 x ptr] [ptr null, ptr @_ZTIN9grpc_core11json_detail15LoaderInterfaceE, ptr @__cxa_pure_virtual] }, comdat, align 8
@_ZTSN9grpc_core11json_detail15LoaderInterfaceE = linkonce_odr constant [43 x i8] c"N9grpc_core11json_detail15LoaderInterfaceE\00", comdat, align 1
@_ZTIN9grpc_core11json_detail15LoaderInterfaceE = linkonce_odr constant { ptr, ptr } { ptr getelementptr inbounds (ptr, ptr @_ZTVN10__cxxabiv117__class_type_infoE, i64 2), ptr @_ZTSN9grpc_core11json_detail15LoaderInterfaceE }, comdat, align 8
@_ZTVN9grpc_core11json_detail10AutoLoaderISt8optionalINSt7__cxx1112basic_stringIcSt11char_traitsIcESaIcEEEEEE = linkonce_odr unnamed_addr constant { [6 x ptr] } { [6 x ptr] [ptr null, ptr @_ZTIN9grpc_core11json_detail10AutoLoaderISt8optionalINSt7__cxx1112basic_stringIcSt11char_traitsIcESaIcEEEEEE, ptr @_ZNK9grpc_core11json_detail11LoadWrapped8LoadIntoERKNS_12experimental4JsonERKNS_8JsonArgsEPvPNS_16ValidationErrorsE, ptr @_ZNK9grpc_core11json_detail10AutoLoaderISt8optionalINSt7__cxx1112basic_stringIcSt11char_traitsIcESaIcEEEEE7EmplaceEPv, ptr @_ZNK9grpc_core11json_detail10AutoLoaderISt8optionalINSt7__cxx1112basic_stringIcSt11char_traitsIcESaIcEEEEE5ResetEPv, ptr @_ZNK9grpc_core11json_detail10AutoLoaderISt8optionalINSt7__cxx1112basic_stringIcSt11char_traitsIcESaIcEEEEE13ElementLoaderEv] }, comdat, align 8
@_ZTSN9grpc_core11json_detail10AutoLoaderISt8optionalINSt7__cxx1112basic_stringIcSt11char_traitsIcESaIcEEEEEE = linkonce_odr constant [105 x i8] c"N9grpc_core11json_detail10AutoLoaderISt8optionalINSt7__cxx1112basic_stringIcSt11char_traitsIcESaIcEEEEEE\00", comdat, align 1
@_ZTIN9grpc_core11json_detail11LoadWrappedE = external constant ptr
@_ZTIN9grpc_core11json_detail10AutoLoaderISt8optionalINSt7__cxx1112basic_stringIcSt11char_traitsIcESaIcEEEEEE = linkonce_odr constant { ptr, ptr, ptr } { ptr getelementptr inbounds (ptr, ptr @_ZTVN10__cxxabiv120__si_class_type_infoE, i64 2), ptr @_ZTSN9grpc_core11json_detail10AutoLoaderISt8optionalINSt7__cxx1112basic_stringIcSt11char_traitsIcESaIcEEEEEE, ptr @_ZTIN9grpc_core11json_detail11LoadWrappedE }, comdat, align 8
@_ZTVN9grpc_core11json_detail11LoadWrappedE = external unnamed_addr constant { [6 x ptr] }, align 8
@_ZTVN9grpc_core11json_detail24FinishedJsonObjectLoaderINS_8internal31ClientChannelGlobalParsedConfig17HealthCheckConfigELm1EvEE = linkonce_odr unnamed_addr constant { [3 x ptr] } { [3 x ptr] [ptr null, ptr @_ZTIN9grpc_core11json_detail24FinishedJsonObjectLoaderINS_8internal31ClientChannelGlobalParsedConfig17HealthCheckConfigELm1EvEE, ptr @_ZNK9grpc_core11json_detail24FinishedJsonObjectLoaderINS_8internal31ClientChannelGlobalParsedConfig17HealthCheckConfigELm1EvE8LoadIntoERKNS_12experimental4JsonERKNS_8JsonArgsEPvPNS_16ValidationErrorsE] }, comdat, align 8
@_ZTSN9grpc_core11json_detail24FinishedJsonObjectLoaderINS_8internal31ClientChannelGlobalParsedConfig17HealthCheckConfigELm1EvEE = linkonce_odr constant [124 x i8] c"N9grpc_core11json_detail24FinishedJsonObjectLoaderINS_8internal31ClientChannelGlobalParsedConfig17HealthCheckConfigELm1EvEE\00", comdat, align 1
@_ZTIN9grpc_core11json_detail24FinishedJsonObjectLoaderINS_8internal31ClientChannelGlobalParsedConfig17HealthCheckConfigELm1EvEE = linkonce_odr constant { ptr, ptr, ptr } { ptr getelementptr inbounds (ptr, ptr @_ZTVN10__cxxabiv120__si_class_type_infoE, i64 2), ptr @_ZTSN9grpc_core11json_detail24FinishedJsonObjectLoaderINS_8internal31ClientChannelGlobalParsedConfig17HealthCheckConfigELm1EvEE, ptr @_ZTIN9grpc_core11json_detail15LoaderInterfaceE }, comdat, align 8
@_ZTVN9grpc_core11json_detail10AutoLoaderINS_8internal31ClientChannelGlobalParsedConfig17HealthCheckConfigEEE = linkonce_odr unnamed_addr constant { [3 x ptr] } { [3 x ptr] [ptr null, ptr @_ZTIN9grpc_core11json_detail10AutoLoaderINS_8internal31ClientChannelGlobalParsedConfig17HealthCheckConfigEEE, ptr @_ZNK9grpc_core11json_detail10AutoLoaderINS_8internal31ClientChannelGlobalParsedConfig17HealthCheckConfigEE8LoadIntoERKNS_12experimental4JsonERKNS_8JsonArgsEPvPNS_16ValidationErrorsE] }, comdat, align 8
@_ZTSN9grpc_core11json_detail10AutoLoaderINS_8internal31ClientChannelGlobalParsedConfig17HealthCheckConfigEEE = linkonce_odr constant [105 x i8] c"N9grpc_core11json_detail10AutoLoaderINS_8internal31ClientChannelGlobalParsedConfig17HealthCheckConfigEEE\00", comdat, align 1
@_ZTIN9grpc_core11json_detail10AutoLoaderINS_8internal31ClientChannelGlobalParsedConfig17HealthCheckConfigEEE = linkonce_odr constant { ptr, ptr, ptr } { ptr getelementptr inbounds (ptr, ptr @_ZTVN10__cxxabiv120__si_class_type_infoE, i64 2), ptr @_ZTSN9grpc_core11json_detail10AutoLoaderINS_8internal31ClientChannelGlobalParsedConfig17HealthCheckConfigEEE, ptr @_ZTIN9grpc_core11json_detail15LoaderInterfaceE }, comdat, align 8
@_ZTVN9grpc_core11json_detail24FinishedJsonObjectLoaderINS_8internal31ClientChannelGlobalParsedConfigELm2EvEE = linkonce_odr unnamed_addr constant { [3 x ptr] } { [3 x ptr] [ptr null, ptr @_ZTIN9grpc_core11json_detail24FinishedJsonObjectLoaderINS_8internal31ClientChannelGlobalParsedConfigELm2EvEE, ptr @_ZNK9grpc_core11json_detail24FinishedJsonObjectLoaderINS_8internal31ClientChannelGlobalParsedConfigELm2EvE8LoadIntoERKNS_12experimental4JsonERKNS_8JsonArgsEPvPNS_16ValidationErrorsE] }, comdat, align 8
@_ZTSN9grpc_core11json_detail24FinishedJsonObjectLoaderINS_8internal31ClientChannelGlobalParsedConfigELm2EvEE = linkonce_odr constant [105 x i8] c"N9grpc_core11json_detail24FinishedJsonObjectLoaderINS_8internal31ClientChannelGlobalParsedConfigELm2EvEE\00", comdat, align 1
@_ZTIN9grpc_core11json_detail24FinishedJsonObjectLoaderINS_8internal31ClientChannelGlobalParsedConfigELm2EvEE = linkonce_odr constant { ptr, ptr, ptr } { ptr getelementptr inbounds (ptr, ptr @_ZTVN10__cxxabiv120__si_class_type_infoE, i64 2), ptr @_ZTSN9grpc_core11json_detail24FinishedJsonObjectLoaderINS_8internal31ClientChannelGlobalParsedConfigELm2EvEE, ptr @_ZTIN9grpc_core11json_detail15LoaderInterfaceE }, comdat, align 8
@_ZTVN9grpc_core11json_detail10AutoLoaderINS_8DurationEEE = linkonce_odr unnamed_addr constant { [5 x ptr] } { [5 x ptr] [ptr null, ptr @_ZTIN9grpc_core11json_detail10AutoLoaderINS_8DurationEEE, ptr @_ZNK9grpc_core11json_detail10LoadScalar8LoadIntoERKNS_12experimental4JsonERKNS_8JsonArgsEPvPNS_16ValidationErrorsE, ptr @_ZNK9grpc_core11json_detail12LoadDuration8IsNumberEv, ptr @_ZNK9grpc_core11json_detail12LoadDuration8LoadIntoERKNSt7__cxx1112basic_stringIcSt11char_traitsIcESaIcEEEPvPNS_16ValidationErrorsE] }, comdat, align 8
@_ZTSN9grpc_core11json_detail10AutoLoaderINS_8DurationEEE = linkonce_odr constant [53 x i8] c"N9grpc_core11json_detail10AutoLoaderINS_8DurationEEE\00", comdat, align 1
@_ZTIN9grpc_core11json_detail12LoadDurationE = external constant ptr
@_ZTIN9grpc_core11json_detail10AutoLoaderINS_8DurationEEE = linkonce_odr constant { ptr, ptr, ptr } { ptr getelementptr inbounds (ptr, ptr @_ZTVN10__cxxabiv120__si_class_type_infoE, i64 2), ptr @_ZTSN9grpc_core11json_detail10AutoLoaderINS_8DurationEEE, ptr @_ZTIN9grpc_core11json_detail12LoadDurationE }, comdat, align 8
@_ZTVN9grpc_core11json_detail12LoadDurationE = external unnamed_addr constant { [5 x ptr] }, align 8
@_ZTVN9grpc_core11json_detail10AutoLoaderIbEE = linkonce_odr unnamed_addr constant { [3 x ptr] } { [3 x ptr] [ptr null, ptr @_ZTIN9grpc_core11json_detail10AutoLoaderIbEE, ptr @_ZNK9grpc_core11json_detail8LoadBool8LoadIntoERKNS_12experimental4JsonERKNS_8JsonArgsEPvPNS_16ValidationErrorsE] }, comdat, align 8
@_ZTSN9grpc_core11json_detail10AutoLoaderIbEE = linkonce_odr constant [41 x i8] c"N9grpc_core11json_detail10AutoLoaderIbEE\00", comdat, align 1
@_ZTIN9grpc_core11json_detail8LoadBoolE = external constant ptr
@_ZTIN9grpc_core11json_detail10AutoLoaderIbEE = linkonce_odr constant { ptr, ptr, ptr } { ptr getelementptr inbounds (ptr, ptr @_ZTVN10__cxxabiv120__si_class_type_infoE, i64 2), ptr @_ZTSN9grpc_core11json_detail10AutoLoaderIbEE, ptr @_ZTIN9grpc_core11json_detail8LoadBoolE }, comdat, align 8
@_ZTVN9grpc_core11json_detail8LoadBoolE = external unnamed_addr constant { [3 x ptr] }, align 8
@_ZTVN9grpc_core11json_detail10AutoLoaderISt8optionalIbEEE = linkonce_odr unnamed_addr constant { [6 x ptr] } { [6 x ptr] [ptr null, ptr @_ZTIN9grpc_core11json_detail10AutoLoaderISt8optionalIbEEE, ptr @_ZNK9grpc_core11json_detail11LoadWrapped8LoadIntoERKNS_12experimental4JsonERKNS_8JsonArgsEPvPNS_16ValidationErrorsE, ptr @_ZNK9grpc_core11json_detail10AutoLoaderISt8optionalIbEE7EmplaceEPv, ptr @_ZNK9grpc_core11json_detail10AutoLoaderISt8optionalIbEE5ResetEPv, ptr @_ZNK9grpc_core11json_detail10AutoLoaderISt8optionalIbEE13ElementLoaderEv] }, comdat, align 8
@_ZTSN9grpc_core11json_detail10AutoLoaderISt8optionalIbEEE = linkonce_odr constant [54 x i8] c"N9grpc_core11json_detail10AutoLoaderISt8optionalIbEEE\00", comdat, align 1
@_ZTIN9grpc_core11json_detail10AutoLoaderISt8optionalIbEEE = linkonce_odr constant { ptr, ptr, ptr } { ptr getelementptr inbounds (ptr, ptr @_ZTVN10__cxxabiv120__si_class_type_infoE, i64 2), ptr @_ZTSN9grpc_core11json_detail10AutoLoaderISt8optionalIbEEE, ptr @_ZTIN9grpc_core11json_detail11LoadWrappedE }, comdat, align 8
@_ZTVN9grpc_core11json_detail24FinishedJsonObjectLoaderINS_8internal31ClientChannelMethodParsedConfigELm2EvEE = linkonce_odr unnamed_addr constant { [3 x ptr] } { [3 x ptr] [ptr null, ptr @_ZTIN9grpc_core11json_detail24FinishedJsonObjectLoaderINS_8internal31ClientChannelMethodParsedConfigELm2EvEE, ptr @_ZNK9grpc_core11json_detail24FinishedJsonObjectLoaderINS_8internal31ClientChannelMethodParsedConfigELm2EvE8LoadIntoERKNS_12experimental4JsonERKNS_8JsonArgsEPvPNS_16ValidationErrorsE] }, comdat, align 8
@_ZTSN9grpc_core11json_detail24FinishedJsonObjectLoaderINS_8internal31ClientChannelMethodParsedConfigELm2EvEE = linkonce_odr constant [105 x i8] c"N9grpc_core11json_detail24FinishedJsonObjectLoaderINS_8internal31ClientChannelMethodParsedConfigELm2EvEE\00", comdat, align 1
@_ZTIN9grpc_core11json_detail24FinishedJsonObjectLoaderINS_8internal31ClientChannelMethodParsedConfigELm2EvEE = linkonce_odr constant { ptr, ptr, ptr } { ptr getelementptr inbounds (ptr, ptr @_ZTVN10__cxxabiv120__si_class_type_infoE, i64 2), ptr @_ZTSN9grpc_core11json_detail24FinishedJsonObjectLoaderINS_8internal31ClientChannelMethodParsedConfigELm2EvEE, ptr @_ZTIN9grpc_core11json_detail15LoaderInterfaceE }, comdat, align 8
@_ZTVN9grpc_core19ServiceConfigParser6ParserE = linkonce_odr unnamed_addr constant { [7 x ptr] } { [7 x ptr] [ptr null, ptr @_ZTIN9grpc_core19ServiceConfigParser6ParserE, ptr @_ZN9grpc_core19ServiceConfigParser6ParserD2Ev, ptr @_ZN9grpc_core19ServiceConfigParser6ParserD0Ev, ptr @__cxa_pure_virtual, ptr @_ZN9grpc_core19ServiceConfigParser6Parser17ParseGlobalParamsERKNS_11ChannelArgsERKNS_12experimental4JsonEPNS_16ValidationErrorsE, ptr @_ZN9grpc_core19ServiceConfigParser6Parser20ParsePerMethodParamsERKNS_11ChannelArgsERKNS_12experimental4JsonEPNS_16ValidationErrorsE] }, comdat, align 8
@_ZTVN9grpc_core11json_detail10AutoLoaderINS_8internal31ClientChannelGlobalParsedConfigEEE = linkonce_odr unnamed_addr constant { [3 x ptr] } { [3 x ptr] [ptr null, ptr @_ZTIN9grpc_core11json_detail10AutoLoaderINS_8internal31ClientChannelGlobalParsedConfigEEE, ptr @_ZNK9grpc_core11json_detail10AutoLoaderINS_8internal31ClientChannelGlobalParsedConfigEE8LoadIntoERKNS_12experimental4JsonERKNS_8JsonArgsEPvPNS_16ValidationErrorsE] }, comdat, align 8
@_ZTSN9grpc_core11json_detail10AutoLoaderINS_8internal31ClientChannelGlobalParsedConfigEEE = linkonce_odr constant [86 x i8] c"N9grpc_core11json_detail10AutoLoaderINS_8internal31ClientChannelGlobalParsedConfigEEE\00", comdat, align 1
@_ZTIN9grpc_core11json_detail10AutoLoaderINS_8internal31ClientChannelGlobalParsedConfigEEE = linkonce_odr constant { ptr, ptr, ptr } { ptr getelementptr inbounds (ptr, ptr @_ZTVN10__cxxabiv120__si_class_type_infoE, i64 2), ptr @_ZTSN9grpc_core11json_detail10AutoLoaderINS_8internal31ClientChannelGlobalParsedConfigEEE, ptr @_ZTIN9grpc_core11json_detail15LoaderInterfaceE }, comdat, align 8
@_ZTVN9grpc_core11json_detail10AutoLoaderISt10unique_ptrINS_8internal31ClientChannelGlobalParsedConfigESt14default_deleteIS4_EEEE = linkonce_odr unnamed_addr constant { [6 x ptr] } { [6 x ptr] [ptr null, ptr @_ZTIN9grpc_core11json_detail10AutoLoaderISt10unique_ptrINS_8internal31ClientChannelGlobalParsedConfigESt14default_deleteIS4_EEEE, ptr @_ZNK9grpc_core11json_detail11LoadWrapped8LoadIntoERKNS_12experimental4JsonERKNS_8JsonArgsEPvPNS_16ValidationErrorsE, ptr @_ZNK9grpc_core11json_detail10AutoLoaderISt10unique_ptrINS_8internal31ClientChannelGlobalParsedConfigESt14default_deleteIS4_EEE7EmplaceEPv, ptr @_ZNK9grpc_core11json_detail10AutoLoaderISt10unique_ptrINS_8internal31ClientChannelGlobalParsedConfigESt14default_deleteIS4_EEE5ResetEPv, ptr @_ZNK9grpc_core11json_detail10AutoLoaderISt10unique_ptrINS_8internal31ClientChannelGlobalParsedConfigESt14default_deleteIS4_EEE13ElementLoaderEv] }, comdat, align 8
@_ZTSN9grpc_core11json_detail10AutoLoaderISt10unique_ptrINS_8internal31ClientChannelGlobalParsedConfigESt14default_deleteIS4_EEEE = linkonce_odr constant [125 x i8] c"N9grpc_core11json_detail10AutoLoaderISt10unique_ptrINS_8internal31ClientChannelGlobalParsedConfigESt14default_deleteIS4_EEEE\00", comdat, align 1
@_ZTIN9grpc_core11json_detail10AutoLoaderISt10unique_ptrINS_8internal31ClientChannelGlobalParsedConfigESt14default_deleteIS4_EEEE = linkonce_odr constant { ptr, ptr, ptr } { ptr getelementptr inbounds (ptr, ptr @_ZTVN10__cxxabiv120__si_class_type_infoE, i64 2), ptr @_ZTSN9grpc_core11json_detail10AutoLoaderISt10unique_ptrINS_8internal31ClientChannelGlobalParsedConfigESt14default_deleteIS4_EEEE, ptr @_ZTIN9grpc_core11json_detail11LoadWrappedE }, comdat, align 8
@_ZTVN9grpc_core8internal31ClientChannelGlobalParsedConfigE = linkonce_odr unnamed_addr constant { [4 x ptr] } { [4 x ptr] [ptr null, ptr @_ZTIN9grpc_core8internal31ClientChannelGlobalParsedConfigE, ptr @_ZN9grpc_core8internal31ClientChannelGlobalParsedConfigD2Ev, ptr @_ZN9grpc_core8internal31ClientChannelGlobalParsedConfigD0Ev] }, comdat, align 8
@_ZTSN9grpc_core8internal31ClientChannelGlobalParsedConfigE = linkonce_odr constant [55 x i8] c"N9grpc_core8internal31ClientChannelGlobalParsedConfigE\00", comdat, align 1
@_ZTSN9grpc_core19ServiceConfigParser12ParsedConfigE = linkonce_odr constant [48 x i8] c"N9grpc_core19ServiceConfigParser12ParsedConfigE\00", comdat, align 1
@_ZTIN9grpc_core19ServiceConfigParser12ParsedConfigE = linkonce_odr constant { ptr, ptr } { ptr getelementptr inbounds (ptr, ptr @_ZTVN10__cxxabiv117__class_type_infoE, i64 2), ptr @_ZTSN9grpc_core19ServiceConfigParser12ParsedConfigE }, comdat, align 8
@_ZTIN9grpc_core8internal31ClientChannelGlobalParsedConfigE = linkonce_odr constant { ptr, ptr, ptr } { ptr getelementptr inbounds (ptr, ptr @_ZTVN10__cxxabiv120__si_class_type_infoE, i64 2), ptr @_ZTSN9grpc_core8internal31ClientChannelGlobalParsedConfigE, ptr @_ZTIN9grpc_core19ServiceConfigParser12ParsedConfigE }, comdat, align 8
@_ZTVN9grpc_core19ServiceConfigParser12ParsedConfigE = linkonce_odr unnamed_addr constant { [4 x ptr] } { [4 x ptr] [ptr null, ptr @_ZTIN9grpc_core19ServiceConfigParser12ParsedConfigE, ptr @_ZN9grpc_core19ServiceConfigParser12ParsedConfigD2Ev, ptr @_ZN9grpc_core19ServiceConfigParser12ParsedConfigD0Ev] }, comdat, align 8
@_ZTVN9grpc_core11json_detail10AutoLoaderINS_8internal31ClientChannelMethodParsedConfigEEE = linkonce_odr unnamed_addr constant { [3 x ptr] } { [3 x ptr] [ptr null, ptr @_ZTIN9grpc_core11json_detail10AutoLoaderINS_8internal31ClientChannelMethodParsedConfigEEE, ptr @_ZNK9grpc_core11json_detail10AutoLoaderINS_8internal31ClientChannelMethodParsedConfigEE8LoadIntoERKNS_12experimental4JsonERKNS_8JsonArgsEPvPNS_16ValidationErrorsE] }, comdat, align 8
@_ZTSN9grpc_core11json_detail10AutoLoaderINS_8internal31ClientChannelMethodParsedConfigEEE = linkonce_odr constant [86 x i8] c"N9grpc_core11json_detail10AutoLoaderINS_8internal31ClientChannelMethodParsedConfigEEE\00", comdat, align 1
@_ZTIN9grpc_core11json_detail10AutoLoaderINS_8internal31ClientChannelMethodParsedConfigEEE = linkonce_odr constant { ptr, ptr, ptr } { ptr getelementptr inbounds (ptr, ptr @_ZTVN10__cxxabiv120__si_class_type_infoE, i64 2), ptr @_ZTSN9grpc_core11json_detail10AutoLoaderINS_8internal31ClientChannelMethodParsedConfigEEE, ptr @_ZTIN9grpc_core11json_detail15LoaderInterfaceE }, comdat, align 8
@_ZTVN9grpc_core11json_detail10AutoLoaderISt10unique_ptrINS_8internal31ClientChannelMethodParsedConfigESt14default_deleteIS4_EEEE = linkonce_odr unnamed_addr constant { [6 x ptr] } { [6 x ptr] [ptr null, ptr @_ZTIN9grpc_core11json_detail10AutoLoaderISt10unique_ptrINS_8internal31ClientChannelMethodParsedConfigESt14default_deleteIS4_EEEE, ptr @_ZNK9grpc_core11json_detail11LoadWrapped8LoadIntoERKNS_12experimental4JsonERKNS_8JsonArgsEPvPNS_16ValidationErrorsE, ptr @_ZNK9grpc_core11json_detail10AutoLoaderISt10unique_ptrINS_8internal31ClientChannelMethodParsedConfigESt14default_deleteIS4_EEE7EmplaceEPv, ptr @_ZNK9grpc_core11json_detail10AutoLoaderISt10unique_ptrINS_8internal31ClientChannelMethodParsedConfigESt14default_deleteIS4_EEE5ResetEPv, ptr @_ZNK9grpc_core11json_detail10AutoLoaderISt10unique_ptrINS_8internal31ClientChannelMethodParsedConfigESt14default_deleteIS4_EEE13ElementLoaderEv] }, comdat, align 8
@_ZTSN9grpc_core11json_detail10AutoLoaderISt10unique_ptrINS_8internal31ClientChannelMethodParsedConfigESt14default_deleteIS4_EEEE = linkonce_odr constant [125 x i8] c"N9grpc_core11json_detail10AutoLoaderISt10unique_ptrINS_8internal31ClientChannelMethodParsedConfigESt14default_deleteIS4_EEEE\00", comdat, align 1
@_ZTIN9grpc_core11json_detail10AutoLoaderISt10unique_ptrINS_8internal31ClientChannelMethodParsedConfigESt14default_deleteIS4_EEEE = linkonce_odr constant { ptr, ptr, ptr } { ptr getelementptr inbounds (ptr, ptr @_ZTVN10__cxxabiv120__si_class_type_infoE, i64 2), ptr @_ZTSN9grpc_core11json_detail10AutoLoaderISt10unique_ptrINS_8internal31ClientChannelMethodParsedConfigESt14default_deleteIS4_EEEE, ptr @_ZTIN9grpc_core11json_detail11LoadWrappedE }, comdat, align 8
@_ZTVN9grpc_core8internal31ClientChannelMethodParsedConfigE = linkonce_odr unnamed_addr constant { [4 x ptr] } { [4 x ptr] [ptr null, ptr @_ZTIN9grpc_core8internal31ClientChannelMethodParsedConfigE, ptr @_ZN9grpc_core8internal31ClientChannelMethodParsedConfigD2Ev, ptr @_ZN9grpc_core8internal31ClientChannelMethodParsedConfigD0Ev] }, comdat, align 8
@_ZTSN9grpc_core8internal31ClientChannelMethodParsedConfigE = linkonce_odr constant [55 x i8] c"N9grpc_core8internal31ClientChannelMethodParsedConfigE\00", comdat, align 1
@_ZTIN9grpc_core8internal31ClientChannelMethodParsedConfigE = linkonce_odr constant { ptr, ptr, ptr } { ptr getelementptr inbounds (ptr, ptr @_ZTVN10__cxxabiv120__si_class_type_infoE, i64 2), ptr @_ZTSN9grpc_core8internal31ClientChannelMethodParsedConfigE, ptr @_ZTIN9grpc_core19ServiceConfigParser12ParsedConfigE }, comdat, align 8
@llvm.global_ctors = appending global [11 x { i32, ptr, ptr }] [{ i32, ptr, ptr } { i32 65535, ptr @__cxx_global_var_init.12, ptr @_ZN9grpc_core19NoDestructSingletonINS_11json_detail10AutoLoaderINSt7__cxx1112basic_stringIcSt11char_traitsIcESaIcEEEEEE6value_E }, { i32, ptr, ptr } { i32 65535, ptr @__cxx_global_var_init.13, ptr @_ZN9grpc_core19NoDestructSingletonINS_11json_detail10AutoLoaderISt8optionalINSt7__cxx1112basic_stringIcSt11char_traitsIcESaIcEEEEEEE6value_E }, { i32, ptr, ptr } { i32 65535, ptr @__cxx_global_var_init.14, ptr @_ZN9grpc_core19NoDestructSingletonINS_11json_detail10AutoLoaderINS_8internal31ClientChannelGlobalParsedConfig17HealthCheckConfigEEEE6value_E }, { i32, ptr, ptr } { i32 65535, ptr @__cxx_global_var_init.15, ptr @_ZN9grpc_core19NoDestructSingletonINS_11json_detail10AutoLoaderINS_8DurationEEEE6value_E }, { i32, ptr, ptr } { i32 65535, ptr @__cxx_global_var_init.16, ptr @_ZN9grpc_core19NoDestructSingletonINS_11json_detail10AutoLoaderIbEEE6value_E }, { i32, ptr, ptr } { i32 65535, ptr @__cxx_global_var_init.17, ptr @_ZN9grpc_core19NoDestructSingletonINS_11json_detail10AutoLoaderISt8optionalIbEEEE6value_E }, { i32, ptr, ptr } { i32 65535, ptr @__cxx_global_var_init.18, ptr @_ZN9grpc_core19NoDestructSingletonINS_11json_detail10AutoLoaderINS_8internal31ClientChannelGlobalParsedConfigEEEE6value_E }, { i32, ptr, ptr } { i32 65535, ptr @__cxx_global_var_init.19, ptr @_ZN9grpc_core19NoDestructSingletonINS_11json_detail10AutoLoaderISt10unique_ptrINS_8internal31ClientChannelGlobalParsedConfigESt14default_deleteIS5_EEEEE6value_E }, { i32, ptr, ptr } { i32 65535, ptr @__cxx_global_var_init.20, ptr @_ZN9grpc_core19NoDestructSingletonINS_11json_detail10AutoLoaderINS_8internal31ClientChannelMethodParsedConfigEEEE6value_E }, { i32, ptr, ptr } { i32 65535, ptr @__cxx_global_var_init.21, ptr @_ZN9grpc_core19NoDestructSingletonINS_11json_detail10AutoLoaderISt10unique_ptrINS_8internal31ClientChannelMethodParsedConfigESt14default_deleteIS5_EEEEE6value_E }, { i32, ptr, ptr } { i32 65535, ptr @_GLOBAL__sub_I_client_channel_service_config.cc, ptr null }]
@llvm.used = appending global [10 x ptr] [ptr @_ZN9grpc_core19NoDestructSingletonINS_11json_detail10AutoLoaderINSt7__cxx1112basic_stringIcSt11char_traitsIcESaIcEEEEEE6value_E, ptr @_ZN9grpc_core19NoDestructSingletonINS_11json_detail10AutoLoaderISt8optionalINSt7__cxx1112basic_stringIcSt11char_traitsIcESaIcEEEEEEE6value_E, ptr @_ZN9grpc_core19NoDestructSingletonINS_11json_detail10AutoLoaderINS_8internal31ClientChannelGlobalParsedConfig17HealthCheckConfigEEEE6value_E, ptr @_ZN9grpc_core19NoDestructSingletonINS_11json_detail10AutoLoaderINS_8DurationEEEE6value_E, ptr @_ZN9grpc_core19NoDestructSingletonINS_11json_detail10AutoLoaderIbEEE6value_E, ptr @_ZN9grpc_core19NoDestructSingletonINS_11json_detail10AutoLoaderISt8optionalIbEEEE6value_E, ptr @_ZN9grpc_core19NoDestructSingletonINS_11json_detail10AutoLoaderINS_8internal31ClientChannelGlobalParsedConfigEEEE6value_E, ptr @_ZN9grpc_core19NoDestructSingletonINS_11json_detail10AutoLoaderISt10unique_ptrINS_8internal31ClientChannelGlobalParsedConfigESt14default_deleteIS5_EEEEE6value_E, ptr @_ZN9grpc_core19NoDestructSingletonINS_11json_detail10AutoLoaderINS_8internal31ClientChannelMethodParsedConfigEEEE6value_E, ptr @_ZN9grpc_core19NoDestructSingletonINS_11json_detail10AutoLoaderISt10unique_ptrINS_8internal31ClientChannelMethodParsedConfigESt14default_deleteIS5_EEEEE6value_E], section "llvm.metadata"

; Function Attrs: uwtable
define internal void @__cxx_global_var_init() #0 section ".text.startup" {
entry:
  call void @_ZNSt8ios_base4InitC1Ev(ptr noundef nonnull align 1 dereferenceable(1) @_ZStL8__ioinit)
  %0 = call i32 @__cxa_atexit(ptr @_ZNSt8ios_base4InitD1Ev, ptr @_ZStL8__ioinit, ptr @__dso_handle) #3
  ret void
}

declare void @_ZNSt8ios_base4InitC1Ev(ptr noundef nonnull align 1 dereferenceable(1)) unnamed_addr #1

; Function Attrs: nounwind
declare void @_ZNSt8ios_base4InitD1Ev(ptr noundef nonnull align 1 dereferenceable(1)) unnamed_addr #2

; Function Attrs: nounwind
declare i32 @__cxa_atexit(ptr, ptr, ptr) #3

; Function Attrs: mustprogress uwtable
define noundef ptr @_ZN9grpc_core8internal31ClientChannelGlobalParsedConfig17HealthCheckConfig10JsonLoaderERKNS_8JsonArgsE(ptr noundef nonnull align 8 dereferenceable(8) %0) #4 align 2 personality ptr @__gxx_personality_v0 {
entry:
  %.addr = alloca ptr, align 8
  %ref.tmp = alloca %"class.grpc_core::json_detail::JsonObjectLoader", align 8
  %ref.tmp1 = alloca %"class.grpc_core::json_detail::JsonObjectLoader.0", align 1
  %exn.slot = alloca ptr, align 8
  %ehselector.slot = alloca i32, align 4
  store ptr %0, ptr %.addr, align 8
  %1 = load atomic i8, ptr @_ZGVZN9grpc_core8internal31ClientChannelGlobalParsedConfig17HealthCheckConfig10JsonLoaderERKNS_8JsonArgsEE6loader acquire, align 8
  %guard.uninitialized = icmp eq i8 %1, 0
  br i1 %guard.uninitialized, label %init.check, label %init.end, !prof !4

init.check:                                       ; preds = %entry
  %2 = call i32 @__cxa_guard_acquire(ptr @_ZGVZN9grpc_core8internal31ClientChannelGlobalParsedConfig17HealthCheckConfig10JsonLoaderERKNS_8JsonArgsEE6loader) #3
  %tobool = icmp ne i32 %2, 0
  br i1 %tobool, label %init, label %init.end

init:                                             ; preds = %init.check
  invoke void @_ZN9grpc_core11json_detail16JsonObjectLoaderINS_8internal31ClientChannelGlobalParsedConfig17HealthCheckConfigELm0EEC2Ev(ptr noundef nonnull align 1 dereferenceable(1) %ref.tmp1)
          to label %invoke.cont unwind label %lpad

invoke.cont:                                      ; preds = %init
  invoke void @_ZNK9grpc_core11json_detail16JsonObjectLoaderINS_8internal31ClientChannelGlobalParsedConfig17HealthCheckConfigELm0EE13OptionalFieldISt8optionalINSt7__cxx1112basic_stringIcSt11char_traitsIcESaIcEEEEEENS1_IS4_Lm1EEEPKcMS4_T_SH_(ptr sret(%"class.grpc_core::json_detail::JsonObjectLoader") align 8 %ref.tmp, ptr noundef nonnull align 1 dereferenceable(1) %ref.tmp1, ptr noundef @.str, i64 0, ptr noundef null)
          to label %invoke.cont2 unwind label %lpad

invoke.cont2:                                     ; preds = %invoke.cont
  %call = invoke noundef ptr @_ZNK9grpc_core11json_detail16JsonObjectLoaderINS_8internal31ClientChannelGlobalParsedConfig17HealthCheckConfigELm1EE6FinishEv(ptr noundef nonnull align 8 dereferenceable(32) %ref.tmp)
          to label %invoke.cont3 unwind label %lpad

invoke.cont3:                                     ; preds = %invoke.cont2
  store ptr %call, ptr @_ZZN9grpc_core8internal31ClientChannelGlobalParsedConfig17HealthCheckConfig10JsonLoaderERKNS_8JsonArgsEE6loader, align 8
  call void @__cxa_guard_release(ptr @_ZGVZN9grpc_core8internal31ClientChannelGlobalParsedConfig17HealthCheckConfig10JsonLoaderERKNS_8JsonArgsEE6loader) #3
  br label %init.end

init.end:                                         ; preds = %invoke.cont3, %init.check, %entry
  %3 = load ptr, ptr @_ZZN9grpc_core8internal31ClientChannelGlobalParsedConfig17HealthCheckConfig10JsonLoaderERKNS_8JsonArgsEE6loader, align 8
  ret ptr %3

lpad:                                             ; preds = %invoke.cont2, %invoke.cont, %init
  %4 = landingpad { ptr, i32 }
          cleanup
  %5 = extractvalue { ptr, i32 } %4, 0
  store ptr %5, ptr %exn.slot, align 8
  %6 = extractvalue { ptr, i32 } %4, 1
  store i32 %6, ptr %ehselector.slot, align 4
  call void @__cxa_guard_abort(ptr @_ZGVZN9grpc_core8internal31ClientChannelGlobalParsedConfig17HealthCheckConfig10JsonLoaderERKNS_8JsonArgsEE6loader) #3
  br label %eh.resume

eh.resume:                                        ; preds = %lpad
  %exn = load ptr, ptr %exn.slot, align 8
  %sel = load i32, ptr %ehselector.slot, align 4
  %lpad.val = insertvalue { ptr, i32 } poison, ptr %exn, 0
  %lpad.val4 = insertvalue { ptr, i32 } %lpad.val, i32 %sel, 1
  resume { ptr, i32 } %lpad.val4
}

; Function Attrs: nounwind
declare i32 @__cxa_guard_acquire(ptr) #3

; Function Attrs: mustprogress nounwind uwtable
define linkonce_odr void @_ZN9grpc_core11json_detail16JsonObjectLoaderINS_8internal31ClientChannelGlobalParsedConfig17HealthCheckConfigELm0EEC2Ev(ptr noundef nonnull align 1 dereferenceable(1) %this) unnamed_addr #5 comdat align 2 {
entry:
  %this.addr = alloca ptr, align 8
  store ptr %this, ptr %this.addr, align 8
  ret void
}

declare i32 @__gxx_personality_v0(...)

; Function Attrs: mustprogress uwtable
define linkonce_odr void @_ZNK9grpc_core11json_detail16JsonObjectLoaderINS_8internal31ClientChannelGlobalParsedConfig17HealthCheckConfigELm0EE13OptionalFieldISt8optionalINSt7__cxx1112basic_stringIcSt11char_traitsIcESaIcEEEEEENS1_IS4_Lm1EEEPKcMS4_T_SH_(ptr noalias sret(%"class.grpc_core::json_detail::JsonObjectLoader") align 8 %agg.result, ptr noundef nonnull align 1 dereferenceable(1) %this, ptr noundef %name, i64 %p, ptr noundef %enable_key) #4 comdat align 2 {
entry:
  %this.addr = alloca ptr, align 8
  %name.addr = alloca ptr, align 8
  %p.addr = alloca i64, align 8
  %enable_key.addr = alloca ptr, align 8
  store ptr %this, ptr %this.addr, align 8
  store ptr %name, ptr %name.addr, align 8
  store i64 %p, ptr %p.addr, align 8
  store ptr %enable_key, ptr %enable_key.addr, align 8
  %this1 = load ptr, ptr %this.addr, align 8
  %0 = load ptr, ptr %name.addr, align 8
  %1 = load i64, ptr %p.addr, align 8
  %2 = load ptr, ptr %enable_key.addr, align 8
  call void @_ZNK9grpc_core11json_detail16JsonObjectLoaderINS_8internal31ClientChannelGlobalParsedConfig17HealthCheckConfigELm0EE5FieldISt8optionalINSt7__cxx1112basic_stringIcSt11char_traitsIcESaIcEEEEEENS1_IS4_Lm1EEEPKcbMS4_T_SH_(ptr sret(%"class.grpc_core::json_detail::JsonObjectLoader") align 8 %agg.result, ptr noundef nonnull align 1 dereferenceable(1) %this1, ptr noundef %0, i1 noundef zeroext true, i64 %1, ptr noundef %2)
  ret void
}

; Function Attrs: mustprogress uwtable
define linkonce_odr noundef ptr @_ZNK9grpc_core11json_detail16JsonObjectLoaderINS_8internal31ClientChannelGlobalParsedConfig17HealthCheckConfigELm1EE6FinishEv(ptr noundef nonnull align 8 dereferenceable(32) %this) #4 comdat align 2 personality ptr @__gxx_personality_v0 {
entry:
  %this.addr = alloca ptr, align 8
  %exn.slot = alloca ptr, align 8
  %ehselector.slot = alloca i32, align 4
  store ptr %this, ptr %this.addr, align 8
  %this1 = load ptr, ptr %this.addr, align 8
  %call = call noalias noundef nonnull ptr @_Znwm(i64 noundef 40) #13
  %elements_ = getelementptr inbounds %"class.grpc_core::json_detail::JsonObjectLoader", ptr %this1, i32 0, i32 0
  invoke void @_ZN9grpc_core11json_detail24FinishedJsonObjectLoaderINS_8internal31ClientChannelGlobalParsedConfig17HealthCheckConfigELm1EvEC2ERKNS0_3VecINS0_7ElementELm1EEE(ptr noundef nonnull align 8 dereferenceable(40) %call, ptr noundef nonnull align 8 dereferenceable(32) %elements_)
          to label %invoke.cont unwind label %lpad

invoke.cont:                                      ; preds = %entry
  ret ptr %call

lpad:                                             ; preds = %entry
  %0 = landingpad { ptr, i32 }
          cleanup
  %1 = extractvalue { ptr, i32 } %0, 0
  store ptr %1, ptr %exn.slot, align 8
  %2 = extractvalue { ptr, i32 } %0, 1
  store i32 %2, ptr %ehselector.slot, align 4
  call void @_ZdlPv(ptr noundef %call) #14
  br label %eh.resume

eh.resume:                                        ; preds = %lpad
  %exn = load ptr, ptr %exn.slot, align 8
  %sel = load i32, ptr %ehselector.slot, align 4
  %lpad.val = insertvalue { ptr, i32 } poison, ptr %exn, 0
  %lpad.val2 = insertvalue { ptr, i32 } %lpad.val, i32 %sel, 1
  resume { ptr, i32 } %lpad.val2
}

; Function Attrs: nounwind
declare void @__cxa_guard_abort(ptr) #3

; Function Attrs: nounwind
declare void @__cxa_guard_release(ptr) #3

; Function Attrs: mustprogress uwtable
define noundef ptr @_ZN9grpc_core8internal31ClientChannelGlobalParsedConfig10JsonLoaderERKNS_8JsonArgsE(ptr noundef nonnull align 8 dereferenceable(8) %0) #4 align 2 personality ptr @__gxx_personality_v0 {
entry:
  %.addr = alloca ptr, align 8
  %ref.tmp = alloca %"class.grpc_core::json_detail::JsonObjectLoader.1", align 8
  %ref.tmp1 = alloca %"class.grpc_core::json_detail::JsonObjectLoader.3", align 8
  %ref.tmp2 = alloca %"class.grpc_core::json_detail::JsonObjectLoader.4", align 1
  %exn.slot = alloca ptr, align 8
  %ehselector.slot = alloca i32, align 4
  store ptr %0, ptr %.addr, align 8
  %1 = load atomic i8, ptr @_ZGVZN9grpc_core8internal31ClientChannelGlobalParsedConfig10JsonLoaderERKNS_8JsonArgsEE6loader acquire, align 8
  %guard.uninitialized = icmp eq i8 %1, 0
  br i1 %guard.uninitialized, label %init.check, label %init.end, !prof !4

init.check:                                       ; preds = %entry
  %2 = call i32 @__cxa_guard_acquire(ptr @_ZGVZN9grpc_core8internal31ClientChannelGlobalParsedConfig10JsonLoaderERKNS_8JsonArgsEE6loader) #3
  %tobool = icmp ne i32 %2, 0
  br i1 %tobool, label %init, label %init.end

init:                                             ; preds = %init.check
  invoke void @_ZN9grpc_core11json_detail16JsonObjectLoaderINS_8internal31ClientChannelGlobalParsedConfigELm0EEC2Ev(ptr noundef nonnull align 1 dereferenceable(1) %ref.tmp2)
          to label %invoke.cont unwind label %lpad

invoke.cont:                                      ; preds = %init
  invoke void @_ZNK9grpc_core11json_detail16JsonObjectLoaderINS_8internal31ClientChannelGlobalParsedConfigELm0EE13OptionalFieldINSt7__cxx1112basic_stringIcSt11char_traitsIcESaIcEEEEENS1_IS3_Lm1EEEPKcMS3_T_SE_(ptr sret(%"class.grpc_core::json_detail::JsonObjectLoader.3") align 8 %ref.tmp1, ptr noundef nonnull align 1 dereferenceable(1) %ref.tmp2, ptr noundef @.str.1, i64 16, ptr noundef null)
          to label %invoke.cont3 unwind label %lpad

invoke.cont3:                                     ; preds = %invoke.cont
  invoke void @_ZNK9grpc_core11json_detail16JsonObjectLoaderINS_8internal31ClientChannelGlobalParsedConfigELm1EE13OptionalFieldINS3_17HealthCheckConfigEEENS1_IS3_Lm2EEEPKcMS3_T_S9_(ptr sret(%"class.grpc_core::json_detail::JsonObjectLoader.1") align 8 %ref.tmp, ptr noundef nonnull align 8 dereferenceable(32) %ref.tmp1, ptr noundef @.str.2, i64 48, ptr noundef null)
          to label %invoke.cont4 unwind label %lpad

invoke.cont4:                                     ; preds = %invoke.cont3
  %call = invoke noundef ptr @_ZNK9grpc_core11json_detail16JsonObjectLoaderINS_8internal31ClientChannelGlobalParsedConfigELm2EE6FinishEv(ptr noundef nonnull align 8 dereferenceable(64) %ref.tmp)
          to label %invoke.cont5 unwind label %lpad

invoke.cont5:                                     ; preds = %invoke.cont4
  store ptr %call, ptr @_ZZN9grpc_core8internal31ClientChannelGlobalParsedConfig10JsonLoaderERKNS_8JsonArgsEE6loader, align 8
  call void @__cxa_guard_release(ptr @_ZGVZN9grpc_core8internal31ClientChannelGlobalParsedConfig10JsonLoaderERKNS_8JsonArgsEE6loader) #3
  br label %init.end

init.end:                                         ; preds = %invoke.cont5, %init.check, %entry
  %3 = load ptr, ptr @_ZZN9grpc_core8internal31ClientChannelGlobalParsedConfig10JsonLoaderERKNS_8JsonArgsEE6loader, align 8
  ret ptr %3

lpad:                                             ; preds = %invoke.cont4, %invoke.cont3, %invoke.cont, %init
  %4 = landingpad { ptr, i32 }
          cleanup
  %5 = extractvalue { ptr, i32 } %4, 0
  store ptr %5, ptr %exn.slot, align 8
  %6 = extractvalue { ptr, i32 } %4, 1
  store i32 %6, ptr %ehselector.slot, align 4
  call void @__cxa_guard_abort(ptr @_ZGVZN9grpc_core8internal31ClientChannelGlobalParsedConfig10JsonLoaderERKNS_8JsonArgsEE6loader) #3
  br label %eh.resume

eh.resume:                                        ; preds = %lpad
  %exn = load ptr, ptr %exn.slot, align 8
  %sel = load i32, ptr %ehselector.slot, align 4
  %lpad.val = insertvalue { ptr, i32 } poison, ptr %exn, 0
  %lpad.val6 = insertvalue { ptr, i32 } %lpad.val, i32 %sel, 1
  resume { ptr, i32 } %lpad.val6
}

; Function Attrs: mustprogress nounwind uwtable
define linkonce_odr void @_ZN9grpc_core11json_detail16JsonObjectLoaderINS_8internal31ClientChannelGlobalParsedConfigELm0EEC2Ev(ptr noundef nonnull align 1 dereferenceable(1) %this) unnamed_addr #5 comdat align 2 {
entry:
  %this.addr = alloca ptr, align 8
  store ptr %this, ptr %this.addr, align 8
  ret void
}

; Function Attrs: mustprogress uwtable
define linkonce_odr void @_ZNK9grpc_core11json_detail16JsonObjectLoaderINS_8internal31ClientChannelGlobalParsedConfigELm0EE13OptionalFieldINSt7__cxx1112basic_stringIcSt11char_traitsIcESaIcEEEEENS1_IS3_Lm1EEEPKcMS3_T_SE_(ptr noalias sret(%"class.grpc_core::json_detail::JsonObjectLoader.3") align 8 %agg.result, ptr noundef nonnull align 1 dereferenceable(1) %this, ptr noundef %name, i64 %p, ptr noundef %enable_key) #4 comdat align 2 {
entry:
  %this.addr = alloca ptr, align 8
  %name.addr = alloca ptr, align 8
  %p.addr = alloca i64, align 8
  %enable_key.addr = alloca ptr, align 8
  store ptr %this, ptr %this.addr, align 8
  store ptr %name, ptr %name.addr, align 8
  store i64 %p, ptr %p.addr, align 8
  store ptr %enable_key, ptr %enable_key.addr, align 8
  %this1 = load ptr, ptr %this.addr, align 8
  %0 = load ptr, ptr %name.addr, align 8
  %1 = load i64, ptr %p.addr, align 8
  %2 = load ptr, ptr %enable_key.addr, align 8
  call void @_ZNK9grpc_core11json_detail16JsonObjectLoaderINS_8internal31ClientChannelGlobalParsedConfigELm0EE5FieldINSt7__cxx1112basic_stringIcSt11char_traitsIcESaIcEEEEENS1_IS3_Lm1EEEPKcbMS3_T_SE_(ptr sret(%"class.grpc_core::json_detail::JsonObjectLoader.3") align 8 %agg.result, ptr noundef nonnull align 1 dereferenceable(1) %this1, ptr noundef %0, i1 noundef zeroext true, i64 %1, ptr noundef %2)
  ret void
}

; Function Attrs: mustprogress uwtable
define linkonce_odr void @_ZNK9grpc_core11json_detail16JsonObjectLoaderINS_8internal31ClientChannelGlobalParsedConfigELm1EE13OptionalFieldINS3_17HealthCheckConfigEEENS1_IS3_Lm2EEEPKcMS3_T_S9_(ptr noalias sret(%"class.grpc_core::json_detail::JsonObjectLoader.1") align 8 %agg.result, ptr noundef nonnull align 8 dereferenceable(32) %this, ptr noundef %name, i64 %p, ptr noundef %enable_key) #4 comdat align 2 {
entry:
  %this.addr = alloca ptr, align 8
  %name.addr = alloca ptr, align 8
  %p.addr = alloca i64, align 8
  %enable_key.addr = alloca ptr, align 8
  store ptr %this, ptr %this.addr, align 8
  store ptr %name, ptr %name.addr, align 8
  store i64 %p, ptr %p.addr, align 8
  store ptr %enable_key, ptr %enable_key.addr, align 8
  %this1 = load ptr, ptr %this.addr, align 8
  %0 = load ptr, ptr %name.addr, align 8
  %1 = load i64, ptr %p.addr, align 8
  %2 = load ptr, ptr %enable_key.addr, align 8
  call void @_ZNK9grpc_core11json_detail16JsonObjectLoaderINS_8internal31ClientChannelGlobalParsedConfigELm1EE5FieldINS3_17HealthCheckConfigEEENS1_IS3_Lm2EEEPKcbMS3_T_S9_(ptr sret(%"class.grpc_core::json_detail::JsonObjectLoader.1") align 8 %agg.result, ptr noundef nonnull align 8 dereferenceable(32) %this1, ptr noundef %0, i1 noundef zeroext true, i64 %1, ptr noundef %2)
  ret void
}

; Function Attrs: mustprogress uwtable
define linkonce_odr noundef ptr @_ZNK9grpc_core11json_detail16JsonObjectLoaderINS_8internal31ClientChannelGlobalParsedConfigELm2EE6FinishEv(ptr noundef nonnull align 8 dereferenceable(64) %this) #4 comdat align 2 personality ptr @__gxx_personality_v0 {
entry:
  %this.addr = alloca ptr, align 8
  %exn.slot = alloca ptr, align 8
  %ehselector.slot = alloca i32, align 4
  store ptr %this, ptr %this.addr, align 8
  %this1 = load ptr, ptr %this.addr, align 8
  %call = call noalias noundef nonnull ptr @_Znwm(i64 noundef 72) #13
  %elements_ = getelementptr inbounds %"class.grpc_core::json_detail::JsonObjectLoader.1", ptr %this1, i32 0, i32 0
  invoke void @_ZN9grpc_core11json_detail24FinishedJsonObjectLoaderINS_8internal31ClientChannelGlobalParsedConfigELm2EvEC2ERKNS0_3VecINS0_7ElementELm2EEE(ptr noundef nonnull align 8 dereferenceable(72) %call, ptr noundef nonnull align 8 dereferenceable(64) %elements_)
          to label %invoke.cont unwind label %lpad

invoke.cont:                                      ; preds = %entry
  ret ptr %call

lpad:                                             ; preds = %entry
  %0 = landingpad { ptr, i32 }
          cleanup
  %1 = extractvalue { ptr, i32 } %0, 0
  store ptr %1, ptr %exn.slot, align 8
  %2 = extractvalue { ptr, i32 } %0, 1
  store i32 %2, ptr %ehselector.slot, align 4
  call void @_ZdlPv(ptr noundef %call) #14
  br label %eh.resume

eh.resume:                                        ; preds = %lpad
  %exn = load ptr, ptr %exn.slot, align 8
  %sel = load i32, ptr %ehselector.slot, align 4
  %lpad.val = insertvalue { ptr, i32 } poison, ptr %exn, 0
  %lpad.val2 = insertvalue { ptr, i32 } %lpad.val, i32 %sel, 1
  resume { ptr, i32 } %lpad.val2
}

; Function Attrs: mustprogress uwtable
define void @_ZN9grpc_core8internal31ClientChannelGlobalParsedConfig12JsonPostLoadERKNS_12experimental4JsonERKNS_8JsonArgsEPNS_16ValidationErrorsE(ptr noundef nonnull align 8 dereferenceable(88) %this, ptr noundef nonnull align 8 dereferenceable(56) %json, ptr noundef nonnull align 8 dereferenceable(8) %0, ptr noundef %errors) #4 align 2 personality ptr @__gxx_personality_v0 {
entry:
  %this.addr = alloca ptr, align 8
  %json.addr = alloca ptr, align 8
  %.addr = alloca ptr, align 8
  %errors.addr = alloca ptr, align 8
  %lb_policy_registry = alloca ptr, align 8
  %field = alloca %"class.grpc_core::ValidationErrors::ScopedField", align 8
  %agg.tmp = alloca %"class.std::basic_string_view", align 8
  %it = alloca %"struct.std::_Rb_tree_const_iterator", align 8
  %exn.slot = alloca ptr, align 8
  %ehselector.slot = alloca i32, align 4
  %ref.tmp = alloca %"class.std::__cxx11::basic_string", align 8
  %ref.tmp4 = alloca %"class.std::allocator.34", align 1
  %ref.tmp10 = alloca %"struct.std::_Rb_tree_const_iterator", align 8
  %config = alloca %"class.absl::lts_20230802::StatusOr", align 8
  %agg.tmp22 = alloca %"class.std::basic_string_view", align 8
  %field36 = alloca %"class.grpc_core::ValidationErrors::ScopedField", align 8
  %agg.tmp37 = alloca %"class.std::basic_string_view", align 8
  %requires_config = alloca i8, align 1
  %agg.tmp41 = alloca %"class.std::basic_string_view", align 8
  %agg.tmp47 = alloca %"class.std::basic_string_view", align 8
  %ref.tmp48 = alloca %"class.std::__cxx11::basic_string", align 8
  %ref.tmp49 = alloca %"class.absl::lts_20230802::AlphaNum", align 8
  %ref.tmp51 = alloca %"class.absl::lts_20230802::AlphaNum", align 8
  %ref.tmp54 = alloca %"class.absl::lts_20230802::AlphaNum", align 8
  %agg.tmp63 = alloca %"class.std::basic_string_view", align 8
  %ref.tmp64 = alloca %"class.std::__cxx11::basic_string", align 8
  %ref.tmp65 = alloca %"class.absl::lts_20230802::AlphaNum", align 8
  %ref.tmp67 = alloca %"class.absl::lts_20230802::AlphaNum", align 8
  %ref.tmp70 = alloca %"class.absl::lts_20230802::AlphaNum", align 8
  store ptr %this, ptr %this.addr, align 8
  store ptr %json, ptr %json.addr, align 8
  store ptr %0, ptr %.addr, align 8
  store ptr %errors, ptr %errors.addr, align 8
  %this1 = load ptr, ptr %this.addr, align 8
  %call = call noundef nonnull align 8 dereferenceable(776) ptr @_ZN9grpc_core17CoreConfiguration3GetEv()
  %call2 = call noundef nonnull align 8 dereferenceable(48) ptr @_ZNK9grpc_core17CoreConfiguration18lb_policy_registryEv(ptr noundef nonnull align 8 dereferenceable(776) %call)
  store ptr %call2, ptr %lb_policy_registry, align 8
  %1 = load ptr, ptr %errors.addr, align 8
  call void @_ZNSt17basic_string_viewIcSt11char_traitsIcEEC2EPKc(ptr noundef nonnull align 8 dereferenceable(16) %agg.tmp, ptr noundef @.str.3) #3
  %2 = getelementptr inbounds { i64, ptr }, ptr %agg.tmp, i32 0, i32 0
  %3 = load i64, ptr %2, align 8
  %4 = getelementptr inbounds { i64, ptr }, ptr %agg.tmp, i32 0, i32 1
  %5 = load ptr, ptr %4, align 8
  call void @_ZN9grpc_core16ValidationErrors11ScopedFieldC2EPS0_St17basic_string_viewIcSt11char_traitsIcEE(ptr noundef nonnull align 8 dereferenceable(8) %field, ptr noundef %1, i64 %3, ptr %5)
  %6 = load ptr, ptr %json.addr, align 8
  %call3 = invoke noundef nonnull align 8 dereferenceable(48) ptr @_ZNK9grpc_core12experimental4Json6objectB5cxx11Ev(ptr noundef nonnull align 8 dereferenceable(56) %6)
          to label %invoke.cont unwind label %lpad

invoke.cont:                                      ; preds = %entry
  call void @_ZNSaIcEC1Ev(ptr noundef nonnull align 1 dereferenceable(1) %ref.tmp4) #3
  invoke void @_ZNSt7__cxx1112basic_stringIcSt11char_traitsIcESaIcEEC2IS3_EEPKcRKS3_(ptr noundef nonnull align 8 dereferenceable(32) %ref.tmp, ptr noundef @.str.4, ptr noundef nonnull align 1 dereferenceable(1) %ref.tmp4)
          to label %invoke.cont6 unwind label %lpad5

invoke.cont6:                                     ; preds = %invoke.cont
  %call9 = invoke ptr @_ZNKSt3mapINSt7__cxx1112basic_stringIcSt11char_traitsIcESaIcEEEN9grpc_core12experimental4JsonESt4lessIS5_ESaISt4pairIKS5_S8_EEE4findERSC_(ptr noundef nonnull align 8 dereferenceable(48) %call3, ptr noundef nonnull align 8 dereferenceable(32) %ref.tmp)
          to label %invoke.cont8 unwind label %lpad7

invoke.cont8:                                     ; preds = %invoke.cont6
  %coerce.dive = getelementptr inbounds %"struct.std::_Rb_tree_const_iterator", ptr %it, i32 0, i32 0
  store ptr %call9, ptr %coerce.dive, align 8
  call void @_ZNSt7__cxx1112basic_stringIcSt11char_traitsIcESaIcEED1Ev(ptr noundef nonnull align 8 dereferenceable(32) %ref.tmp) #3
  call void @_ZNSaIcED1Ev(ptr noundef nonnull align 1 dereferenceable(1) %ref.tmp4) #3
  %7 = load ptr, ptr %json.addr, align 8
  %call12 = invoke noundef nonnull align 8 dereferenceable(48) ptr @_ZNK9grpc_core12experimental4Json6objectB5cxx11Ev(ptr noundef nonnull align 8 dereferenceable(56) %7)
          to label %invoke.cont11 unwind label %lpad

invoke.cont11:                                    ; preds = %invoke.cont8
  %call13 = call ptr @_ZNKSt3mapINSt7__cxx1112basic_stringIcSt11char_traitsIcESaIcEEEN9grpc_core12experimental4JsonESt4lessIS5_ESaISt4pairIKS5_S8_EEE3endEv(ptr noundef nonnull align 8 dereferenceable(48) %call12) #3
  %coerce.dive14 = getelementptr inbounds %"struct.std::_Rb_tree_const_iterator", ptr %ref.tmp10, i32 0, i32 0
  store ptr %call13, ptr %coerce.dive14, align 8
  %call15 = call noundef zeroext i1 @_ZStneRKSt23_Rb_tree_const_iteratorISt4pairIKNSt7__cxx1112basic_stringIcSt11char_traitsIcESaIcEEEN9grpc_core12experimental4JsonEEESE_(ptr noundef nonnull align 8 dereferenceable(8) %it, ptr noundef nonnull align 8 dereferenceable(8) %ref.tmp10) #3
  br i1 %call15, label %if.then, label %if.end32

if.then:                                          ; preds = %invoke.cont11
  %8 = load ptr, ptr %lb_policy_registry, align 8
  %call16 = call noundef ptr @_ZNKSt23_Rb_tree_const_iteratorISt4pairIKNSt7__cxx1112basic_stringIcSt11char_traitsIcESaIcEEEN9grpc_core12experimental4JsonEEEptEv(ptr noundef nonnull align 8 dereferenceable(8) %it) #3
  %second = getelementptr inbounds %"struct.std::pair", ptr %call16, i32 0, i32 1
  invoke void @_ZNK9grpc_core27LoadBalancingPolicyRegistry24ParseLoadBalancingConfigERKNS_12experimental4JsonE(ptr sret(%"class.absl::lts_20230802::StatusOr") align 8 %config, ptr noundef nonnull align 8 dereferenceable(48) %8, ptr noundef nonnull align 8 dereferenceable(56) %second)
          to label %invoke.cont17 unwind label %lpad

invoke.cont17:                                    ; preds = %if.then
  %call20 = invoke noundef zeroext i1 @_ZNK4absl12lts_202308028StatusOrIN9grpc_core13RefCountedPtrINS2_19LoadBalancingPolicy6ConfigEEEE2okEv(ptr noundef nonnull align 8 dereferenceable(16) %config)
          to label %invoke.cont19 unwind label %lpad18

invoke.cont19:                                    ; preds = %invoke.cont17
  br i1 %call20, label %if.else, label %if.then21

if.then21:                                        ; preds = %invoke.cont19
  %9 = load ptr, ptr %errors.addr, align 8
  %call24 = invoke noundef nonnull align 8 dereferenceable(8) ptr @_ZNKR4absl12lts_202308028StatusOrIN9grpc_core13RefCountedPtrINS2_19LoadBalancingPolicy6ConfigEEEE6statusEv(ptr noundef nonnull align 8 dereferenceable(16) %config)
          to label %invoke.cont23 unwind label %lpad18

invoke.cont23:                                    ; preds = %if.then21
  %call26 = invoke { i64, ptr } @_ZNK4absl12lts_202308026Status7messageEv(ptr noundef nonnull align 8 dereferenceable(8) %call24)
          to label %invoke.cont25 unwind label %lpad18

invoke.cont25:                                    ; preds = %invoke.cont23
  %10 = getelementptr inbounds { i64, ptr }, ptr %agg.tmp22, i32 0, i32 0
  %11 = extractvalue { i64, ptr } %call26, 0
  store i64 %11, ptr %10, align 8
  %12 = getelementptr inbounds { i64, ptr }, ptr %agg.tmp22, i32 0, i32 1
  %13 = extractvalue { i64, ptr } %call26, 1
  store ptr %13, ptr %12, align 8
  %14 = getelementptr inbounds { i64, ptr }, ptr %agg.tmp22, i32 0, i32 0
  %15 = load i64, ptr %14, align 8
  %16 = getelementptr inbounds { i64, ptr }, ptr %agg.tmp22, i32 0, i32 1
  %17 = load ptr, ptr %16, align 8
  invoke void @_ZN9grpc_core16ValidationErrors8AddErrorESt17basic_string_viewIcSt11char_traitsIcEE(ptr noundef nonnull align 8 dereferenceable(72) %9, i64 %15, ptr %17)
          to label %invoke.cont27 unwind label %lpad18

invoke.cont27:                                    ; preds = %invoke.cont25
  br label %if.end

lpad:                                             ; preds = %if.then, %invoke.cont8, %entry
  %18 = landingpad { ptr, i32 }
          cleanup
  %19 = extractvalue { ptr, i32 } %18, 0
  store ptr %19, ptr %exn.slot, align 8
  %20 = extractvalue { ptr, i32 } %18, 1
  store i32 %20, ptr %ehselector.slot, align 4
  br label %ehcleanup33

lpad5:                                            ; preds = %invoke.cont
  %21 = landingpad { ptr, i32 }
          cleanup
  %22 = extractvalue { ptr, i32 } %21, 0
  store ptr %22, ptr %exn.slot, align 8
  %23 = extractvalue { ptr, i32 } %21, 1
  store i32 %23, ptr %ehselector.slot, align 4
  br label %ehcleanup

lpad7:                                            ; preds = %invoke.cont6
  %24 = landingpad { ptr, i32 }
          cleanup
  %25 = extractvalue { ptr, i32 } %24, 0
  store ptr %25, ptr %exn.slot, align 8
  %26 = extractvalue { ptr, i32 } %24, 1
  store i32 %26, ptr %ehselector.slot, align 4
  call void @_ZNSt7__cxx1112basic_stringIcSt11char_traitsIcESaIcEED1Ev(ptr noundef nonnull align 8 dereferenceable(32) %ref.tmp) #3
  br label %ehcleanup

ehcleanup:                                        ; preds = %lpad7, %lpad5
  call void @_ZNSaIcED1Ev(ptr noundef nonnull align 1 dereferenceable(1) %ref.tmp4) #3
  br label %ehcleanup33

lpad18:                                           ; preds = %if.else, %invoke.cont25, %invoke.cont23, %if.then21, %invoke.cont17
  %27 = landingpad { ptr, i32 }
          cleanup
  %28 = extractvalue { ptr, i32 } %27, 0
  store ptr %28, ptr %exn.slot, align 8
  %29 = extractvalue { ptr, i32 } %27, 1
  store i32 %29, ptr %ehselector.slot, align 4
  call void @_ZN4absl12lts_202308028StatusOrIN9grpc_core13RefCountedPtrINS2_19LoadBalancingPolicy6ConfigEEEED2Ev(ptr noundef nonnull align 8 dereferenceable(16) %config) #3
  br label %ehcleanup33

if.else:                                          ; preds = %invoke.cont19
  %call29 = invoke noundef nonnull align 8 dereferenceable(8) ptr @_ZNR4absl12lts_202308028StatusOrIN9grpc_core13RefCountedPtrINS2_19LoadBalancingPolicy6ConfigEEEEdeEv(ptr noundef nonnull align 8 dereferenceable(16) %config)
          to label %invoke.cont28 unwind label %lpad18

invoke.cont28:                                    ; preds = %if.else
  %parsed_lb_config_ = getelementptr inbounds %"class.grpc_core::internal::ClientChannelGlobalParsedConfig", ptr %this1, i32 0, i32 1
  %call30 = call noundef nonnull align 8 dereferenceable(8) ptr @_ZN9grpc_core13RefCountedPtrINS_19LoadBalancingPolicy6ConfigEEaSEOS3_(ptr noundef nonnull align 8 dereferenceable(8) %parsed_lb_config_, ptr noundef nonnull align 8 dereferenceable(8) %call29) #3
  br label %if.end

if.end:                                           ; preds = %invoke.cont28, %invoke.cont27
  call void @_ZN4absl12lts_202308028StatusOrIN9grpc_core13RefCountedPtrINS2_19LoadBalancingPolicy6ConfigEEEED2Ev(ptr noundef nonnull align 8 dereferenceable(16) %config) #3
  br label %if.end32

if.end32:                                         ; preds = %if.end, %invoke.cont11
  call void @_ZN9grpc_core16ValidationErrors11ScopedFieldD2Ev(ptr noundef nonnull align 8 dereferenceable(8) %field) #3
  %parsed_deprecated_lb_policy_ = getelementptr inbounds %"class.grpc_core::internal::ClientChannelGlobalParsedConfig", ptr %this1, i32 0, i32 2
  %call34 = call noundef zeroext i1 @_ZNKSt7__cxx1112basic_stringIcSt11char_traitsIcESaIcEE5emptyEv(ptr noundef nonnull align 8 dereferenceable(32) %parsed_deprecated_lb_policy_) #3
  br i1 %call34, label %if.end80, label %if.then35

if.then35:                                        ; preds = %if.end32
  %30 = load ptr, ptr %errors.addr, align 8
  call void @_ZNSt17basic_string_viewIcSt11char_traitsIcEEC2EPKc(ptr noundef nonnull align 8 dereferenceable(16) %agg.tmp37, ptr noundef @.str.5) #3
  %31 = getelementptr inbounds { i64, ptr }, ptr %agg.tmp37, i32 0, i32 0
  %32 = load i64, ptr %31, align 8
  %33 = getelementptr inbounds { i64, ptr }, ptr %agg.tmp37, i32 0, i32 1
  %34 = load ptr, ptr %33, align 8
  call void @_ZN9grpc_core16ValidationErrors11ScopedFieldC2EPS0_St17basic_string_viewIcSt11char_traitsIcEE(ptr noundef nonnull align 8 dereferenceable(8) %field36, ptr noundef %30, i64 %32, ptr %34)
  %parsed_deprecated_lb_policy_38 = getelementptr inbounds %"class.grpc_core::internal::ClientChannelGlobalParsedConfig", ptr %this1, i32 0, i32 2
  invoke void @_ZN4absl12lts_2023080215AsciiStrToLowerEPNSt7__cxx1112basic_stringIcSt11char_traitsIcESaIcEEE(ptr noundef %parsed_deprecated_lb_policy_38)
          to label %invoke.cont40 unwind label %lpad39

invoke.cont40:                                    ; preds = %if.then35
  store i8 0, ptr %requires_config, align 1
  %35 = load ptr, ptr %lb_policy_registry, align 8
  %parsed_deprecated_lb_policy_42 = getelementptr inbounds %"class.grpc_core::internal::ClientChannelGlobalParsedConfig", ptr %this1, i32 0, i32 2
  %call43 = call { i64, ptr } @_ZNKSt7__cxx1112basic_stringIcSt11char_traitsIcESaIcEEcvSt17basic_string_viewIcS2_EEv(ptr noundef nonnull align 8 dereferenceable(32) %parsed_deprecated_lb_policy_42) #3
  %36 = getelementptr inbounds { i64, ptr }, ptr %agg.tmp41, i32 0, i32 0
  %37 = extractvalue { i64, ptr } %call43, 0
  store i64 %37, ptr %36, align 8
  %38 = getelementptr inbounds { i64, ptr }, ptr %agg.tmp41, i32 0, i32 1
  %39 = extractvalue { i64, ptr } %call43, 1
  store ptr %39, ptr %38, align 8
  %40 = getelementptr inbounds { i64, ptr }, ptr %agg.tmp41, i32 0, i32 0
  %41 = load i64, ptr %40, align 8
  %42 = getelementptr inbounds { i64, ptr }, ptr %agg.tmp41, i32 0, i32 1
  %43 = load ptr, ptr %42, align 8
  %call45 = invoke noundef zeroext i1 @_ZNK9grpc_core27LoadBalancingPolicyRegistry25LoadBalancingPolicyExistsESt17basic_string_viewIcSt11char_traitsIcEEPb(ptr noundef nonnull align 8 dereferenceable(48) %35, i64 %41, ptr %43, ptr noundef %requires_config)
          to label %invoke.cont44 unwind label %lpad39

invoke.cont44:                                    ; preds = %invoke.cont40
  br i1 %call45, label %if.else61, label %if.then46

if.then46:                                        ; preds = %invoke.cont44
  %44 = load ptr, ptr %errors.addr, align 8
  invoke void @_ZN4absl12lts_202308028AlphaNumC2EPKc(ptr noundef nonnull align 8 dereferenceable(48) %ref.tmp49, ptr noundef @.str.6)
          to label %invoke.cont50 unwind label %lpad39

invoke.cont50:                                    ; preds = %if.then46
  %parsed_deprecated_lb_policy_52 = getelementptr inbounds %"class.grpc_core::internal::ClientChannelGlobalParsedConfig", ptr %this1, i32 0, i32 2
  invoke void @_ZN4absl12lts_202308028AlphaNumC2ISaIcEEERKNSt7__cxx1112basic_stringIcSt11char_traitsIcET_EE(ptr noundef nonnull align 8 dereferenceable(48) %ref.tmp51, ptr noundef nonnull align 8 dereferenceable(32) %parsed_deprecated_lb_policy_52)
          to label %invoke.cont53 unwind label %lpad39

invoke.cont53:                                    ; preds = %invoke.cont50
  invoke void @_ZN4absl12lts_202308028AlphaNumC2EPKc(ptr noundef nonnull align 8 dereferenceable(48) %ref.tmp54, ptr noundef @.str.7)
          to label %invoke.cont55 unwind label %lpad39

invoke.cont55:                                    ; preds = %invoke.cont53
  invoke void @_ZN4absl12lts_202308026StrCatB5cxx11ERKNS0_8AlphaNumES3_S3_(ptr sret(%"class.std::__cxx11::basic_string") align 8 %ref.tmp48, ptr noundef nonnull align 8 dereferenceable(48) %ref.tmp49, ptr noundef nonnull align 8 dereferenceable(48) %ref.tmp51, ptr noundef nonnull align 8 dereferenceable(48) %ref.tmp54)
          to label %invoke.cont56 unwind label %lpad39

invoke.cont56:                                    ; preds = %invoke.cont55
  %call57 = call { i64, ptr } @_ZNKSt7__cxx1112basic_stringIcSt11char_traitsIcESaIcEEcvSt17basic_string_viewIcS2_EEv(ptr noundef nonnull align 8 dereferenceable(32) %ref.tmp48) #3
  %45 = getelementptr inbounds { i64, ptr }, ptr %agg.tmp47, i32 0, i32 0
  %46 = extractvalue { i64, ptr } %call57, 0
  store i64 %46, ptr %45, align 8
  %47 = getelementptr inbounds { i64, ptr }, ptr %agg.tmp47, i32 0, i32 1
  %48 = extractvalue { i64, ptr } %call57, 1
  store ptr %48, ptr %47, align 8
  %49 = getelementptr inbounds { i64, ptr }, ptr %agg.tmp47, i32 0, i32 0
  %50 = load i64, ptr %49, align 8
  %51 = getelementptr inbounds { i64, ptr }, ptr %agg.tmp47, i32 0, i32 1
  %52 = load ptr, ptr %51, align 8
  invoke void @_ZN9grpc_core16ValidationErrors8AddErrorESt17basic_string_viewIcSt11char_traitsIcEE(ptr noundef nonnull align 8 dereferenceable(72) %44, i64 %50, ptr %52)
          to label %invoke.cont59 unwind label %lpad58

invoke.cont59:                                    ; preds = %invoke.cont56
  call void @_ZNSt7__cxx1112basic_stringIcSt11char_traitsIcESaIcEED1Ev(ptr noundef nonnull align 8 dereferenceable(32) %ref.tmp48) #3
  br label %if.end78

ehcleanup33:                                      ; preds = %lpad18, %ehcleanup, %lpad
  call void @_ZN9grpc_core16ValidationErrors11ScopedFieldD2Ev(ptr noundef nonnull align 8 dereferenceable(8) %field) #3
  br label %eh.resume

lpad39:                                           ; preds = %invoke.cont71, %invoke.cont69, %invoke.cont66, %if.then62, %invoke.cont55, %invoke.cont53, %invoke.cont50, %if.then46, %invoke.cont40, %if.then35
  %53 = landingpad { ptr, i32 }
          cleanup
  %54 = extractvalue { ptr, i32 } %53, 0
  store ptr %54, ptr %exn.slot, align 8
  %55 = extractvalue { ptr, i32 } %53, 1
  store i32 %55, ptr %ehselector.slot, align 4
  br label %ehcleanup79

lpad58:                                           ; preds = %invoke.cont56
  %56 = landingpad { ptr, i32 }
          cleanup
  %57 = extractvalue { ptr, i32 } %56, 0
  store ptr %57, ptr %exn.slot, align 8
  %58 = extractvalue { ptr, i32 } %56, 1
  store i32 %58, ptr %ehselector.slot, align 4
  call void @_ZNSt7__cxx1112basic_stringIcSt11char_traitsIcESaIcEED1Ev(ptr noundef nonnull align 8 dereferenceable(32) %ref.tmp48) #3
  br label %ehcleanup79

if.else61:                                        ; preds = %invoke.cont44
  %59 = load i8, ptr %requires_config, align 1
  %tobool = trunc i8 %59 to i1
  br i1 %tobool, label %if.then62, label %if.end77

if.then62:                                        ; preds = %if.else61
  %60 = load ptr, ptr %errors.addr, align 8
  invoke void @_ZN4absl12lts_202308028AlphaNumC2EPKc(ptr noundef nonnull align 8 dereferenceable(48) %ref.tmp65, ptr noundef @.str.8)
          to label %invoke.cont66 unwind label %lpad39

invoke.cont66:                                    ; preds = %if.then62
  %parsed_deprecated_lb_policy_68 = getelementptr inbounds %"class.grpc_core::internal::ClientChannelGlobalParsedConfig", ptr %this1, i32 0, i32 2
  invoke void @_ZN4absl12lts_202308028AlphaNumC2ISaIcEEERKNSt7__cxx1112basic_stringIcSt11char_traitsIcET_EE(ptr noundef nonnull align 8 dereferenceable(48) %ref.tmp67, ptr noundef nonnull align 8 dereferenceable(32) %parsed_deprecated_lb_policy_68)
          to label %invoke.cont69 unwind label %lpad39

invoke.cont69:                                    ; preds = %invoke.cont66
  invoke void @_ZN4absl12lts_202308028AlphaNumC2EPKc(ptr noundef nonnull align 8 dereferenceable(48) %ref.tmp70, ptr noundef @.str.9)
          to label %invoke.cont71 unwind label %lpad39

invoke.cont71:                                    ; preds = %invoke.cont69
  invoke void @_ZN4absl12lts_202308026StrCatB5cxx11ERKNS0_8AlphaNumES3_S3_(ptr sret(%"class.std::__cxx11::basic_string") align 8 %ref.tmp64, ptr noundef nonnull align 8 dereferenceable(48) %ref.tmp65, ptr noundef nonnull align 8 dereferenceable(48) %ref.tmp67, ptr noundef nonnull align 8 dereferenceable(48) %ref.tmp70)
          to label %invoke.cont72 unwind label %lpad39

invoke.cont72:                                    ; preds = %invoke.cont71
  %call73 = call { i64, ptr } @_ZNKSt7__cxx1112basic_stringIcSt11char_traitsIcESaIcEEcvSt17basic_string_viewIcS2_EEv(ptr noundef nonnull align 8 dereferenceable(32) %ref.tmp64) #3
  %61 = getelementptr inbounds { i64, ptr }, ptr %agg.tmp63, i32 0, i32 0
  %62 = extractvalue { i64, ptr } %call73, 0
  store i64 %62, ptr %61, align 8
  %63 = getelementptr inbounds { i64, ptr }, ptr %agg.tmp63, i32 0, i32 1
  %64 = extractvalue { i64, ptr } %call73, 1
  store ptr %64, ptr %63, align 8
  %65 = getelementptr inbounds { i64, ptr }, ptr %agg.tmp63, i32 0, i32 0
  %66 = load i64, ptr %65, align 8
  %67 = getelementptr inbounds { i64, ptr }, ptr %agg.tmp63, i32 0, i32 1
  %68 = load ptr, ptr %67, align 8
  invoke void @_ZN9grpc_core16ValidationErrors8AddErrorESt17basic_string_viewIcSt11char_traitsIcEE(ptr noundef nonnull align 8 dereferenceable(72) %60, i64 %66, ptr %68)
          to label %invoke.cont75 unwind label %lpad74

invoke.cont75:                                    ; preds = %invoke.cont72
  call void @_ZNSt7__cxx1112basic_stringIcSt11char_traitsIcESaIcEED1Ev(ptr noundef nonnull align 8 dereferenceable(32) %ref.tmp64) #3
  br label %if.end77

lpad74:                                           ; preds = %invoke.cont72
  %69 = landingpad { ptr, i32 }
          cleanup
  %70 = extractvalue { ptr, i32 } %69, 0
  store ptr %70, ptr %exn.slot, align 8
  %71 = extractvalue { ptr, i32 } %69, 1
  store i32 %71, ptr %ehselector.slot, align 4
  call void @_ZNSt7__cxx1112basic_stringIcSt11char_traitsIcESaIcEED1Ev(ptr noundef nonnull align 8 dereferenceable(32) %ref.tmp64) #3
  br label %ehcleanup79

if.end77:                                         ; preds = %invoke.cont75, %if.else61
  br label %if.end78

if.end78:                                         ; preds = %if.end77, %invoke.cont59
  call void @_ZN9grpc_core16ValidationErrors11ScopedFieldD2Ev(ptr noundef nonnull align 8 dereferenceable(8) %field36) #3
  br label %if.end80

ehcleanup79:                                      ; preds = %lpad74, %lpad58, %lpad39
  call void @_ZN9grpc_core16ValidationErrors11ScopedFieldD2Ev(ptr noundef nonnull align 8 dereferenceable(8) %field36) #3
  br label %eh.resume

if.end80:                                         ; preds = %if.end78, %if.end32
  ret void

eh.resume:                                        ; preds = %ehcleanup79, %ehcleanup33
  %exn = load ptr, ptr %exn.slot, align 8
  %sel = load i32, ptr %ehselector.slot, align 4
  %lpad.val = insertvalue { ptr, i32 } poison, ptr %exn, 0
  %lpad.val81 = insertvalue { ptr, i32 } %lpad.val, i32 %sel, 1
  resume { ptr, i32 } %lpad.val81
}

; Function Attrs: mustprogress uwtable
define linkonce_odr noundef nonnull align 8 dereferenceable(776) ptr @_ZN9grpc_core17CoreConfiguration3GetEv() #4 comdat align 2 {
entry:
  %retval = alloca ptr, align 8
  %p = alloca ptr, align 8
  %call = call noundef ptr @_ZNKSt6atomicIPN9grpc_core17CoreConfigurationEE4loadESt12memory_order(ptr noundef nonnull align 8 dereferenceable(8) @_ZN9grpc_core17CoreConfiguration7config_E, i32 noundef 2) #3
  store ptr %call, ptr %p, align 8
  %0 = load ptr, ptr %p, align 8
  %cmp = icmp ne ptr %0, null
  br i1 %cmp, label %if.then, label %if.end

if.then:                                          ; preds = %entry
  %1 = load ptr, ptr %p, align 8
  store ptr %1, ptr %retval, align 8
  br label %return

if.end:                                           ; preds = %entry
  %call1 = call noundef nonnull align 8 dereferenceable(776) ptr @_ZN9grpc_core17CoreConfiguration19BuildNewAndMaybeSetEv()
  store ptr %call1, ptr %retval, align 8
  br label %return

return:                                           ; preds = %if.end, %if.then
  %2 = load ptr, ptr %retval, align 8
  ret ptr %2
}

; Function Attrs: mustprogress nounwind uwtable
define linkonce_odr noundef nonnull align 8 dereferenceable(48) ptr @_ZNK9grpc_core17CoreConfiguration18lb_policy_registryEv(ptr noundef nonnull align 8 dereferenceable(776) %this) #5 comdat align 2 {
entry:
  %this.addr = alloca ptr, align 8
  store ptr %this, ptr %this.addr, align 8
  %this1 = load ptr, ptr %this.addr, align 8
  %lb_policy_registry_ = getelementptr inbounds %"class.grpc_core::CoreConfiguration", ptr %this1, i32 0, i32 6
  ret ptr %lb_policy_registry_
}

; Function Attrs: mustprogress nounwind uwtable
define linkonce_odr void @_ZNSt17basic_string_viewIcSt11char_traitsIcEEC2EPKc(ptr noundef nonnull align 8 dereferenceable(16) %this, ptr noundef nonnull %__str) unnamed_addr #5 comdat align 2 personality ptr @__gxx_personality_v0 {
entry:
  %this.addr = alloca ptr, align 8
  %__str.addr = alloca ptr, align 8
  store ptr %this, ptr %this.addr, align 8
  store ptr %__str, ptr %__str.addr, align 8
  %this1 = load ptr, ptr %this.addr, align 8
  %_M_len = getelementptr inbounds %"class.std::basic_string_view", ptr %this1, i32 0, i32 0
  %0 = load ptr, ptr %__str.addr, align 8
  %call = invoke noundef i64 @_ZNSt11char_traitsIcE6lengthEPKc(ptr noundef %0)
          to label %invoke.cont unwind label %terminate.lpad

invoke.cont:                                      ; preds = %entry
  store i64 %call, ptr %_M_len, align 8
  %_M_str = getelementptr inbounds %"class.std::basic_string_view", ptr %this1, i32 0, i32 1
  %1 = load ptr, ptr %__str.addr, align 8
  store ptr %1, ptr %_M_str, align 8
  ret void

terminate.lpad:                                   ; preds = %entry
  %2 = landingpad { ptr, i32 }
          catch ptr null
  %3 = extractvalue { ptr, i32 } %2, 0
  call void @__clang_call_terminate(ptr %3) #15
  unreachable
}

; Function Attrs: mustprogress uwtable
define linkonce_odr void @_ZN9grpc_core16ValidationErrors11ScopedFieldC2EPS0_St17basic_string_viewIcSt11char_traitsIcEE(ptr noundef nonnull align 8 dereferenceable(8) %this, ptr noundef %errors, i64 %field_name.coerce0, ptr %field_name.coerce1) unnamed_addr #4 comdat align 2 {
entry:
  %field_name = alloca %"class.std::basic_string_view", align 8
  %this.addr = alloca ptr, align 8
  %errors.addr = alloca ptr, align 8
  %agg.tmp = alloca %"class.std::basic_string_view", align 8
  %0 = getelementptr inbounds { i64, ptr }, ptr %field_name, i32 0, i32 0
  store i64 %field_name.coerce0, ptr %0, align 8
  %1 = getelementptr inbounds { i64, ptr }, ptr %field_name, i32 0, i32 1
  store ptr %field_name.coerce1, ptr %1, align 8
  store ptr %this, ptr %this.addr, align 8
  store ptr %errors, ptr %errors.addr, align 8
  %this1 = load ptr, ptr %this.addr, align 8
  %errors_ = getelementptr inbounds %"class.grpc_core::ValidationErrors::ScopedField", ptr %this1, i32 0, i32 0
  %2 = load ptr, ptr %errors.addr, align 8
  store ptr %2, ptr %errors_, align 8
  %errors_2 = getelementptr inbounds %"class.grpc_core::ValidationErrors::ScopedField", ptr %this1, i32 0, i32 0
  %3 = load ptr, ptr %errors_2, align 8
  call void @llvm.memcpy.p0.p0.i64(ptr align 8 %agg.tmp, ptr align 8 %field_name, i64 16, i1 false)
  %4 = getelementptr inbounds { i64, ptr }, ptr %agg.tmp, i32 0, i32 0
  %5 = load i64, ptr %4, align 8
  %6 = getelementptr inbounds { i64, ptr }, ptr %agg.tmp, i32 0, i32 1
  %7 = load ptr, ptr %6, align 8
  call void @_ZN9grpc_core16ValidationErrors9PushFieldESt17basic_string_viewIcSt11char_traitsIcEE(ptr noundef nonnull align 8 dereferenceable(72) %3, i64 %5, ptr %7)
  ret void
}

; Function Attrs: mustprogress uwtable
define linkonce_odr noundef nonnull align 8 dereferenceable(48) ptr @_ZNK9grpc_core12experimental4Json6objectB5cxx11Ev(ptr noundef nonnull align 8 dereferenceable(56) %this) #4 comdat align 2 {
entry:
  %this.addr = alloca ptr, align 8
  store ptr %this, ptr %this.addr, align 8
  %this1 = load ptr, ptr %this.addr, align 8
  %value_ = getelementptr inbounds %"class.grpc_core::experimental::Json", ptr %this1, i32 0, i32 0
  %call = call noundef nonnull align 8 dereferenceable(48) ptr @_ZSt3getISt3mapINSt7__cxx1112basic_stringIcSt11char_traitsIcESaIcEEEN9grpc_core12experimental4JsonESt4lessIS6_ESaISt4pairIKS6_S9_EEEJSt9monostatebNS9_11NumberValueES6_SG_St6vectorIS9_SaIS9_EEEERKT_RKSt7variantIJDpT0_EE(ptr noundef nonnull align 8 dereferenceable(49) %value_)
  ret ptr %call
}

; Function Attrs: mustprogress uwtable
define linkonce_odr ptr @_ZNKSt3mapINSt7__cxx1112basic_stringIcSt11char_traitsIcESaIcEEEN9grpc_core12experimental4JsonESt4lessIS5_ESaISt4pairIKS5_S8_EEE4findERSC_(ptr noundef nonnull align 8 dereferenceable(48) %this, ptr noundef nonnull align 8 dereferenceable(32) %__x) #4 comdat align 2 {
entry:
  %retval = alloca %"struct.std::_Rb_tree_const_iterator", align 8
  %this.addr = alloca ptr, align 8
  %__x.addr = alloca ptr, align 8
  store ptr %this, ptr %this.addr, align 8
  store ptr %__x, ptr %__x.addr, align 8
  %this1 = load ptr, ptr %this.addr, align 8
  %_M_t = getelementptr inbounds %"class.std::map.66", ptr %this1, i32 0, i32 0
  %0 = load ptr, ptr %__x.addr, align 8
  %call = call ptr @_ZNKSt8_Rb_treeINSt7__cxx1112basic_stringIcSt11char_traitsIcESaIcEEESt4pairIKS5_N9grpc_core12experimental4JsonEESt10_Select1stISB_ESt4lessIS5_ESaISB_EE4findERS7_(ptr noundef nonnull align 8 dereferenceable(48) %_M_t, ptr noundef nonnull align 8 dereferenceable(32) %0)
  %coerce.dive = getelementptr inbounds %"struct.std::_Rb_tree_const_iterator", ptr %retval, i32 0, i32 0
  store ptr %call, ptr %coerce.dive, align 8
  %coerce.dive2 = getelementptr inbounds %"struct.std::_Rb_tree_const_iterator", ptr %retval, i32 0, i32 0
  %1 = load ptr, ptr %coerce.dive2, align 8
  ret ptr %1
}

; Function Attrs: nounwind
declare void @_ZNSaIcEC1Ev(ptr noundef nonnull align 1 dereferenceable(1)) unnamed_addr #2

; Function Attrs: mustprogress uwtable
define linkonce_odr void @_ZNSt7__cxx1112basic_stringIcSt11char_traitsIcESaIcEEC2IS3_EEPKcRKS3_(ptr noundef nonnull align 8 dereferenceable(32) %this, ptr noundef %__s, ptr noundef nonnull align 1 dereferenceable(1) %__a) unnamed_addr #4 comdat align 2 personality ptr @__gxx_personality_v0 {
entry:
  %this.addr = alloca ptr, align 8
  %__s.addr = alloca ptr, align 8
  %__a.addr = alloca ptr, align 8
  %exn.slot = alloca ptr, align 8
  %ehselector.slot = alloca i32, align 4
  %__end = alloca ptr, align 8
  store ptr %this, ptr %this.addr, align 8
  store ptr %__s, ptr %__s.addr, align 8
  store ptr %__a, ptr %__a.addr, align 8
  %this1 = load ptr, ptr %this.addr, align 8
  %_M_dataplus = getelementptr inbounds %"class.std::__cxx11::basic_string", ptr %this1, i32 0, i32 0
  %call = call noundef ptr @_ZNSt7__cxx1112basic_stringIcSt11char_traitsIcESaIcEE13_M_local_dataEv(ptr noundef nonnull align 8 dereferenceable(32) %this1)
  %0 = load ptr, ptr %__a.addr, align 8
  call void @_ZNSt7__cxx1112basic_stringIcSt11char_traitsIcESaIcEE12_Alloc_hiderC1EPcRKS3_(ptr noundef nonnull align 8 dereferenceable(8) %_M_dataplus, ptr noundef %call, ptr noundef nonnull align 1 dereferenceable(1) %0)
  %1 = load ptr, ptr %__s.addr, align 8
  %cmp = icmp eq ptr %1, null
  br i1 %cmp, label %if.then, label %if.end

if.then:                                          ; preds = %entry
  invoke void @_ZSt19__throw_logic_errorPKc(ptr noundef @.str.25) #16
          to label %invoke.cont unwind label %lpad

invoke.cont:                                      ; preds = %if.then
  unreachable

lpad:                                             ; preds = %if.end, %if.then
  %2 = landingpad { ptr, i32 }
          cleanup
  %3 = extractvalue { ptr, i32 } %2, 0
  store ptr %3, ptr %exn.slot, align 8
  %4 = extractvalue { ptr, i32 } %2, 1
  store i32 %4, ptr %ehselector.slot, align 4
  call void @_ZNSt7__cxx1112basic_stringIcSt11char_traitsIcESaIcEE12_Alloc_hiderD2Ev(ptr noundef nonnull align 8 dereferenceable(8) %_M_dataplus) #3
  br label %eh.resume

if.end:                                           ; preds = %entry
  %5 = load ptr, ptr %__s.addr, align 8
  %6 = load ptr, ptr %__s.addr, align 8
  %call2 = call noundef i64 @_ZNSt11char_traitsIcE6lengthEPKc(ptr noundef %6)
  %add.ptr = getelementptr inbounds i8, ptr %5, i64 %call2
  store ptr %add.ptr, ptr %__end, align 8
  %7 = load ptr, ptr %__s.addr, align 8
  %8 = load ptr, ptr %__end, align 8
  invoke void @_ZNSt7__cxx1112basic_stringIcSt11char_traitsIcESaIcEE12_M_constructIPKcEEvT_S8_St20forward_iterator_tag(ptr noundef nonnull align 8 dereferenceable(32) %this1, ptr noundef %7, ptr noundef %8)
          to label %invoke.cont3 unwind label %lpad

invoke.cont3:                                     ; preds = %if.end
  ret void

eh.resume:                                        ; preds = %lpad
  %exn = load ptr, ptr %exn.slot, align 8
  %sel = load i32, ptr %ehselector.slot, align 4
  %lpad.val = insertvalue { ptr, i32 } poison, ptr %exn, 0
  %lpad.val4 = insertvalue { ptr, i32 } %lpad.val, i32 %sel, 1
  resume { ptr, i32 } %lpad.val4
}

; Function Attrs: nounwind
declare void @_ZNSt7__cxx1112basic_stringIcSt11char_traitsIcESaIcEED1Ev(ptr noundef nonnull align 8 dereferenceable(32)) unnamed_addr #2

; Function Attrs: nounwind
declare void @_ZNSaIcED1Ev(ptr noundef nonnull align 1 dereferenceable(1)) unnamed_addr #2

; Function Attrs: mustprogress nounwind uwtable
define linkonce_odr noundef zeroext i1 @_ZStneRKSt23_Rb_tree_const_iteratorISt4pairIKNSt7__cxx1112basic_stringIcSt11char_traitsIcESaIcEEEN9grpc_core12experimental4JsonEEESE_(ptr noundef nonnull align 8 dereferenceable(8) %__x, ptr noundef nonnull align 8 dereferenceable(8) %__y) #5 comdat {
entry:
  %__x.addr = alloca ptr, align 8
  %__y.addr = alloca ptr, align 8
  store ptr %__x, ptr %__x.addr, align 8
  store ptr %__y, ptr %__y.addr, align 8
  %0 = load ptr, ptr %__x.addr, align 8
  %_M_node = getelementptr inbounds %"struct.std::_Rb_tree_const_iterator", ptr %0, i32 0, i32 0
  %1 = load ptr, ptr %_M_node, align 8
  %2 = load ptr, ptr %__y.addr, align 8
  %_M_node1 = getelementptr inbounds %"struct.std::_Rb_tree_const_iterator", ptr %2, i32 0, i32 0
  %3 = load ptr, ptr %_M_node1, align 8
  %cmp = icmp ne ptr %1, %3
  ret i1 %cmp
}

; Function Attrs: mustprogress nounwind uwtable
define linkonce_odr ptr @_ZNKSt3mapINSt7__cxx1112basic_stringIcSt11char_traitsIcESaIcEEEN9grpc_core12experimental4JsonESt4lessIS5_ESaISt4pairIKS5_S8_EEE3endEv(ptr noundef nonnull align 8 dereferenceable(48) %this) #5 comdat align 2 {
entry:
  %retval = alloca %"struct.std::_Rb_tree_const_iterator", align 8
  %this.addr = alloca ptr, align 8
  store ptr %this, ptr %this.addr, align 8
  %this1 = load ptr, ptr %this.addr, align 8
  %_M_t = getelementptr inbounds %"class.std::map.66", ptr %this1, i32 0, i32 0
  %call = call ptr @_ZNKSt8_Rb_treeINSt7__cxx1112basic_stringIcSt11char_traitsIcESaIcEEESt4pairIKS5_N9grpc_core12experimental4JsonEESt10_Select1stISB_ESt4lessIS5_ESaISB_EE3endEv(ptr noundef nonnull align 8 dereferenceable(48) %_M_t) #3
  %coerce.dive = getelementptr inbounds %"struct.std::_Rb_tree_const_iterator", ptr %retval, i32 0, i32 0
  store ptr %call, ptr %coerce.dive, align 8
  %coerce.dive2 = getelementptr inbounds %"struct.std::_Rb_tree_const_iterator", ptr %retval, i32 0, i32 0
  %0 = load ptr, ptr %coerce.dive2, align 8
  ret ptr %0
}

declare void @_ZNK9grpc_core27LoadBalancingPolicyRegistry24ParseLoadBalancingConfigERKNS_12experimental4JsonE(ptr sret(%"class.absl::lts_20230802::StatusOr") align 8, ptr noundef nonnull align 8 dereferenceable(48), ptr noundef nonnull align 8 dereferenceable(56)) #1

; Function Attrs: mustprogress nounwind uwtable
define linkonce_odr noundef ptr @_ZNKSt23_Rb_tree_const_iteratorISt4pairIKNSt7__cxx1112basic_stringIcSt11char_traitsIcESaIcEEEN9grpc_core12experimental4JsonEEEptEv(ptr noundef nonnull align 8 dereferenceable(8) %this) #5 comdat align 2 {
entry:
  %this.addr = alloca ptr, align 8
  store ptr %this, ptr %this.addr, align 8
  %this1 = load ptr, ptr %this.addr, align 8
  %_M_node = getelementptr inbounds %"struct.std::_Rb_tree_const_iterator", ptr %this1, i32 0, i32 0
  %0 = load ptr, ptr %_M_node, align 8
  %call = call noundef ptr @_ZNKSt13_Rb_tree_nodeISt4pairIKNSt7__cxx1112basic_stringIcSt11char_traitsIcESaIcEEEN9grpc_core12experimental4JsonEEE9_M_valptrEv(ptr noundef nonnull align 8 dereferenceable(120) %0)
  ret ptr %call
}

; Function Attrs: mustprogress uwtable
define linkonce_odr noundef zeroext i1 @_ZNK4absl12lts_202308028StatusOrIN9grpc_core13RefCountedPtrINS2_19LoadBalancingPolicy6ConfigEEEE2okEv(ptr noundef nonnull align 8 dereferenceable(16) %this) #4 comdat align 2 {
entry:
  %this.addr = alloca ptr, align 8
  store ptr %this, ptr %this.addr, align 8
  %this1 = load ptr, ptr %this.addr, align 8
  %0 = getelementptr inbounds %"class.absl::lts_20230802::internal_statusor::StatusOrData", ptr %this1, i32 0, i32 0
  %call = call noundef zeroext i1 @_ZNK4absl12lts_202308026Status2okEv(ptr noundef nonnull align 8 dereferenceable(8) %0)
  ret i1 %call
}

declare void @_ZN9grpc_core16ValidationErrors8AddErrorESt17basic_string_viewIcSt11char_traitsIcEE(ptr noundef nonnull align 8 dereferenceable(72), i64, ptr) #1

; Function Attrs: mustprogress nounwind uwtable
define linkonce_odr noundef nonnull align 8 dereferenceable(8) ptr @_ZNKR4absl12lts_202308028StatusOrIN9grpc_core13RefCountedPtrINS2_19LoadBalancingPolicy6ConfigEEEE6statusEv(ptr noundef nonnull align 8 dereferenceable(16) %this) #5 comdat align 2 {
entry:
  %this.addr = alloca ptr, align 8
  store ptr %this, ptr %this.addr, align 8
  %this1 = load ptr, ptr %this.addr, align 8
  %0 = getelementptr inbounds %"class.absl::lts_20230802::internal_statusor::StatusOrData", ptr %this1, i32 0, i32 0
  ret ptr %0
}

; Function Attrs: mustprogress uwtable
define linkonce_odr { i64, ptr } @_ZNK4absl12lts_202308026Status7messageEv(ptr noundef nonnull align 8 dereferenceable(8) %this) #4 comdat align 2 {
entry:
  %retval = alloca %"class.std::basic_string_view", align 8
  %this.addr = alloca ptr, align 8
  store ptr %this, ptr %this.addr, align 8
  %this1 = load ptr, ptr %this.addr, align 8
  %rep_ = getelementptr inbounds %"class.absl::lts_20230802::Status", ptr %this1, i32 0, i32 0
  %0 = load i64, ptr %rep_, align 8
  %call = call noundef zeroext i1 @_ZN4absl12lts_202308026Status9IsInlinedEm(i64 noundef %0)
  br i1 %call, label %cond.false, label %cond.true

cond.true:                                        ; preds = %entry
  %rep_2 = getelementptr inbounds %"class.absl::lts_20230802::Status", ptr %this1, i32 0, i32 0
  %1 = load i64, ptr %rep_2, align 8
  %call3 = call noundef ptr @_ZN4absl12lts_202308026Status12RepToPointerEm(i64 noundef %1)
  %message = getelementptr inbounds %"struct.absl::lts_20230802::status_internal::StatusRep", ptr %call3, i32 0, i32 2
  %call4 = call { i64, ptr } @_ZNKSt7__cxx1112basic_stringIcSt11char_traitsIcESaIcEEcvSt17basic_string_viewIcS2_EEv(ptr noundef nonnull align 8 dereferenceable(32) %message) #3
  %2 = getelementptr inbounds { i64, ptr }, ptr %retval, i32 0, i32 0
  %3 = extractvalue { i64, ptr } %call4, 0
  store i64 %3, ptr %2, align 8
  %4 = getelementptr inbounds { i64, ptr }, ptr %retval, i32 0, i32 1
  %5 = extractvalue { i64, ptr } %call4, 1
  store ptr %5, ptr %4, align 8
  br label %cond.end9

cond.false:                                       ; preds = %entry
  %rep_5 = getelementptr inbounds %"class.absl::lts_20230802::Status", ptr %this1, i32 0, i32 0
  %6 = load i64, ptr %rep_5, align 8
  %call6 = call noundef zeroext i1 @_ZN4absl12lts_202308026Status11IsMovedFromEm(i64 noundef %6)
  br i1 %call6, label %cond.true7, label %cond.false8

cond.true7:                                       ; preds = %cond.false
  call void @_ZNSt17basic_string_viewIcSt11char_traitsIcEEC2EPKc(ptr noundef nonnull align 8 dereferenceable(16) %retval, ptr noundef @_ZN4absl12lts_202308026Status16kMovedFromStringE) #3
  br label %cond.end

cond.false8:                                      ; preds = %cond.false
  call void @_ZNSt17basic_string_viewIcSt11char_traitsIcEEC2Ev(ptr noundef nonnull align 8 dereferenceable(16) %retval) #3
  br label %cond.end

cond.end:                                         ; preds = %cond.false8, %cond.true7
  br label %cond.end9

cond.end9:                                        ; preds = %cond.end, %cond.true
  %7 = load { i64, ptr }, ptr %retval, align 8
  ret { i64, ptr } %7
}

; Function Attrs: mustprogress uwtable
define linkonce_odr noundef nonnull align 8 dereferenceable(8) ptr @_ZNR4absl12lts_202308028StatusOrIN9grpc_core13RefCountedPtrINS2_19LoadBalancingPolicy6ConfigEEEEdeEv(ptr noundef nonnull align 8 dereferenceable(16) %this) #4 comdat align 2 {
entry:
  %this.addr = alloca ptr, align 8
  store ptr %this, ptr %this.addr, align 8
  %this1 = load ptr, ptr %this.addr, align 8
  call void @_ZNK4absl12lts_2023080217internal_statusor12StatusOrDataIN9grpc_core13RefCountedPtrINS3_19LoadBalancingPolicy6ConfigEEEE8EnsureOkEv(ptr noundef nonnull align 8 dereferenceable(16) %this1)
  %0 = getelementptr inbounds %"class.absl::lts_20230802::internal_statusor::StatusOrData", ptr %this1, i32 0, i32 1
  ret ptr %0
}

; Function Attrs: mustprogress nounwind uwtable
define linkonce_odr noundef nonnull align 8 dereferenceable(8) ptr @_ZN9grpc_core13RefCountedPtrINS_19LoadBalancingPolicy6ConfigEEaSEOS3_(ptr noundef nonnull align 8 dereferenceable(8) %this, ptr noundef nonnull align 8 dereferenceable(8) %other) #5 comdat align 2 personality ptr @__gxx_personality_v0 {
entry:
  %this.addr = alloca ptr, align 8
  %other.addr = alloca ptr, align 8
  %ref.tmp = alloca ptr, align 8
  store ptr %this, ptr %this.addr, align 8
  store ptr %other, ptr %other.addr, align 8
  %this1 = load ptr, ptr %this.addr, align 8
  %0 = load ptr, ptr %other.addr, align 8
  %value_ = getelementptr inbounds %"class.grpc_core::RefCountedPtr", ptr %0, i32 0, i32 0
  store ptr null, ptr %ref.tmp, align 8
  %call = call noundef ptr @_ZSt8exchangeIPN9grpc_core19LoadBalancingPolicy6ConfigEDnET_RS4_OT0_(ptr noundef nonnull align 8 dereferenceable(8) %value_, ptr noundef nonnull align 8 dereferenceable(8) %ref.tmp) #3
  invoke void @_ZN9grpc_core13RefCountedPtrINS_19LoadBalancingPolicy6ConfigEE5resetEPS2_(ptr noundef nonnull align 8 dereferenceable(8) %this1, ptr noundef %call)
          to label %invoke.cont unwind label %terminate.lpad

invoke.cont:                                      ; preds = %entry
  ret ptr %this1

terminate.lpad:                                   ; preds = %entry
  %1 = landingpad { ptr, i32 }
          catch ptr null
  %2 = extractvalue { ptr, i32 } %1, 0
  call void @__clang_call_terminate(ptr %2) #15
  unreachable
}

; Function Attrs: mustprogress nounwind uwtable
define linkonce_odr void @_ZN4absl12lts_202308028StatusOrIN9grpc_core13RefCountedPtrINS2_19LoadBalancingPolicy6ConfigEEEED2Ev(ptr noundef nonnull align 8 dereferenceable(16) %this) unnamed_addr #5 comdat align 2 {
entry:
  %this.addr = alloca ptr, align 8
  store ptr %this, ptr %this.addr, align 8
  %this1 = load ptr, ptr %this.addr, align 8
  call void @_ZN4absl12lts_2023080217internal_statusor12StatusOrDataIN9grpc_core13RefCountedPtrINS3_19LoadBalancingPolicy6ConfigEEEED2Ev(ptr noundef nonnull align 8 dereferenceable(16) %this1) #3
  ret void
}

; Function Attrs: mustprogress nounwind uwtable
define linkonce_odr void @_ZN9grpc_core16ValidationErrors11ScopedFieldD2Ev(ptr noundef nonnull align 8 dereferenceable(8) %this) unnamed_addr #5 comdat align 2 personality ptr @__gxx_personality_v0 {
entry:
  %this.addr = alloca ptr, align 8
  store ptr %this, ptr %this.addr, align 8
  %this1 = load ptr, ptr %this.addr, align 8
  %errors_ = getelementptr inbounds %"class.grpc_core::ValidationErrors::ScopedField", ptr %this1, i32 0, i32 0
  %0 = load ptr, ptr %errors_, align 8
  %cmp = icmp ne ptr %0, null
  br i1 %cmp, label %if.then, label %if.end

if.then:                                          ; preds = %entry
  %errors_2 = getelementptr inbounds %"class.grpc_core::ValidationErrors::ScopedField", ptr %this1, i32 0, i32 0
  %1 = load ptr, ptr %errors_2, align 8
  invoke void @_ZN9grpc_core16ValidationErrors8PopFieldEv(ptr noundef nonnull align 8 dereferenceable(72) %1)
          to label %invoke.cont unwind label %terminate.lpad

invoke.cont:                                      ; preds = %if.then
  br label %if.end

if.end:                                           ; preds = %invoke.cont, %entry
  ret void

terminate.lpad:                                   ; preds = %if.then
  %2 = landingpad { ptr, i32 }
          catch ptr null
  %3 = extractvalue { ptr, i32 } %2, 0
  call void @__clang_call_terminate(ptr %3) #15
  unreachable
}

; Function Attrs: nounwind
declare noundef zeroext i1 @_ZNKSt7__cxx1112basic_stringIcSt11char_traitsIcESaIcEE5emptyEv(ptr noundef nonnull align 8 dereferenceable(32)) #2

declare void @_ZN4absl12lts_2023080215AsciiStrToLowerEPNSt7__cxx1112basic_stringIcSt11char_traitsIcESaIcEEE(ptr noundef) #1

declare noundef zeroext i1 @_ZNK9grpc_core27LoadBalancingPolicyRegistry25LoadBalancingPolicyExistsESt17basic_string_viewIcSt11char_traitsIcEEPb(ptr noundef nonnull align 8 dereferenceable(48), i64, ptr, ptr noundef) #1

; Function Attrs: nounwind
declare { i64, ptr } @_ZNKSt7__cxx1112basic_stringIcSt11char_traitsIcESaIcEEcvSt17basic_string_viewIcS2_EEv(ptr noundef nonnull align 8 dereferenceable(32)) #2

declare void @_ZN4absl12lts_202308026StrCatB5cxx11ERKNS0_8AlphaNumES3_S3_(ptr sret(%"class.std::__cxx11::basic_string") align 8, ptr noundef nonnull align 8 dereferenceable(48), ptr noundef nonnull align 8 dereferenceable(48), ptr noundef nonnull align 8 dereferenceable(48)) #1

; Function Attrs: mustprogress uwtable
define linkonce_odr void @_ZN4absl12lts_202308028AlphaNumC2EPKc(ptr noundef nonnull align 8 dereferenceable(48) %this, ptr noundef %c_str) unnamed_addr #4 comdat align 2 {
entry:
  %this.addr = alloca ptr, align 8
  %c_str.addr = alloca ptr, align 8
  store ptr %this, ptr %this.addr, align 8
  store ptr %c_str, ptr %c_str.addr, align 8
  %this1 = load ptr, ptr %this.addr, align 8
  %piece_ = getelementptr inbounds %"class.absl::lts_20230802::AlphaNum", ptr %this1, i32 0, i32 0
  %0 = load ptr, ptr %c_str.addr, align 8
  %call = call { i64, ptr } @_ZN4absl12lts_2023080218NullSafeStringViewEPKc(ptr noundef %0)
  %1 = getelementptr inbounds { i64, ptr }, ptr %piece_, i32 0, i32 0
  %2 = extractvalue { i64, ptr } %call, 0
  store i64 %2, ptr %1, align 8
  %3 = getelementptr inbounds { i64, ptr }, ptr %piece_, i32 0, i32 1
  %4 = extractvalue { i64, ptr } %call, 1
  store ptr %4, ptr %3, align 8
  ret void
}

; Function Attrs: mustprogress nounwind uwtable
define linkonce_odr void @_ZN4absl12lts_202308028AlphaNumC2ISaIcEEERKNSt7__cxx1112basic_stringIcSt11char_traitsIcET_EE(ptr noundef nonnull align 8 dereferenceable(48) %this, ptr noundef nonnull align 8 dereferenceable(32) %str) unnamed_addr #5 comdat align 2 {
entry:
  %this.addr = alloca ptr, align 8
  %str.addr = alloca ptr, align 8
  store ptr %this, ptr %this.addr, align 8
  store ptr %str, ptr %str.addr, align 8
  %this1 = load ptr, ptr %this.addr, align 8
  %piece_ = getelementptr inbounds %"class.absl::lts_20230802::AlphaNum", ptr %this1, i32 0, i32 0
  %0 = load ptr, ptr %str.addr, align 8
  %call = call { i64, ptr } @_ZNKSt7__cxx1112basic_stringIcSt11char_traitsIcESaIcEEcvSt17basic_string_viewIcS2_EEv(ptr noundef nonnull align 8 dereferenceable(32) %0) #3
  %1 = getelementptr inbounds { i64, ptr }, ptr %piece_, i32 0, i32 0
  %2 = extractvalue { i64, ptr } %call, 0
  store i64 %2, ptr %1, align 8
  %3 = getelementptr inbounds { i64, ptr }, ptr %piece_, i32 0, i32 1
  %4 = extractvalue { i64, ptr } %call, 1
  store ptr %4, ptr %3, align 8
  ret void
}

; Function Attrs: mustprogress uwtable
define noundef ptr @_ZN9grpc_core8internal31ClientChannelMethodParsedConfig10JsonLoaderERKNS_8JsonArgsE(ptr noundef nonnull align 8 dereferenceable(8) %0) #4 align 2 personality ptr @__gxx_personality_v0 {
entry:
  %.addr = alloca ptr, align 8
  %ref.tmp = alloca %"class.grpc_core::json_detail::JsonObjectLoader.89", align 8
  %ref.tmp1 = alloca %"class.grpc_core::json_detail::JsonObjectLoader.90", align 8
  %ref.tmp2 = alloca %"class.grpc_core::json_detail::JsonObjectLoader.91", align 1
  %exn.slot = alloca ptr, align 8
  %ehselector.slot = alloca i32, align 4
  store ptr %0, ptr %.addr, align 8
  %1 = load atomic i8, ptr @_ZGVZN9grpc_core8internal31ClientChannelMethodParsedConfig10JsonLoaderERKNS_8JsonArgsEE6loader acquire, align 8
  %guard.uninitialized = icmp eq i8 %1, 0
  br i1 %guard.uninitialized, label %init.check, label %init.end, !prof !4

init.check:                                       ; preds = %entry
  %2 = call i32 @__cxa_guard_acquire(ptr @_ZGVZN9grpc_core8internal31ClientChannelMethodParsedConfig10JsonLoaderERKNS_8JsonArgsEE6loader) #3
  %tobool = icmp ne i32 %2, 0
  br i1 %tobool, label %init, label %init.end

init:                                             ; preds = %init.check
  invoke void @_ZN9grpc_core11json_detail16JsonObjectLoaderINS_8internal31ClientChannelMethodParsedConfigELm0EEC2Ev(ptr noundef nonnull align 1 dereferenceable(1) %ref.tmp2)
          to label %invoke.cont unwind label %lpad

invoke.cont:                                      ; preds = %init
  invoke void @_ZNK9grpc_core11json_detail16JsonObjectLoaderINS_8internal31ClientChannelMethodParsedConfigELm0EE13OptionalFieldINS_8DurationEEENS1_IS3_Lm1EEEPKcMS3_T_S9_(ptr sret(%"class.grpc_core::json_detail::JsonObjectLoader.90") align 8 %ref.tmp1, ptr noundef nonnull align 1 dereferenceable(1) %ref.tmp2, ptr noundef @.str.10, i64 8, ptr noundef null)
          to label %invoke.cont3 unwind label %lpad

invoke.cont3:                                     ; preds = %invoke.cont
  invoke void @_ZNK9grpc_core11json_detail16JsonObjectLoaderINS_8internal31ClientChannelMethodParsedConfigELm1EE13OptionalFieldISt8optionalIbEEENS1_IS3_Lm2EEEPKcMS3_T_SA_(ptr sret(%"class.grpc_core::json_detail::JsonObjectLoader.89") align 8 %ref.tmp, ptr noundef nonnull align 8 dereferenceable(32) %ref.tmp1, ptr noundef @.str.11, i64 16, ptr noundef null)
          to label %invoke.cont4 unwind label %lpad

invoke.cont4:                                     ; preds = %invoke.cont3
  %call = invoke noundef ptr @_ZNK9grpc_core11json_detail16JsonObjectLoaderINS_8internal31ClientChannelMethodParsedConfigELm2EE6FinishEv(ptr noundef nonnull align 8 dereferenceable(64) %ref.tmp)
          to label %invoke.cont5 unwind label %lpad

invoke.cont5:                                     ; preds = %invoke.cont4
  store ptr %call, ptr @_ZZN9grpc_core8internal31ClientChannelMethodParsedConfig10JsonLoaderERKNS_8JsonArgsEE6loader, align 8
  call void @__cxa_guard_release(ptr @_ZGVZN9grpc_core8internal31ClientChannelMethodParsedConfig10JsonLoaderERKNS_8JsonArgsEE6loader) #3
  br label %init.end

init.end:                                         ; preds = %invoke.cont5, %init.check, %entry
  %3 = load ptr, ptr @_ZZN9grpc_core8internal31ClientChannelMethodParsedConfig10JsonLoaderERKNS_8JsonArgsEE6loader, align 8
  ret ptr %3

lpad:                                             ; preds = %invoke.cont4, %invoke.cont3, %invoke.cont, %init
  %4 = landingpad { ptr, i32 }
          cleanup
  %5 = extractvalue { ptr, i32 } %4, 0
  store ptr %5, ptr %exn.slot, align 8
  %6 = extractvalue { ptr, i32 } %4, 1
  store i32 %6, ptr %ehselector.slot, align 4
  call void @__cxa_guard_abort(ptr @_ZGVZN9grpc_core8internal31ClientChannelMethodParsedConfig10JsonLoaderERKNS_8JsonArgsEE6loader) #3
  br label %eh.resume

eh.resume:                                        ; preds = %lpad
  %exn = load ptr, ptr %exn.slot, align 8
  %sel = load i32, ptr %ehselector.slot, align 4
  %lpad.val = insertvalue { ptr, i32 } poison, ptr %exn, 0
  %lpad.val6 = insertvalue { ptr, i32 } %lpad.val, i32 %sel, 1
  resume { ptr, i32 } %lpad.val6
}

; Function Attrs: mustprogress nounwind uwtable
define linkonce_odr void @_ZN9grpc_core11json_detail16JsonObjectLoaderINS_8internal31ClientChannelMethodParsedConfigELm0EEC2Ev(ptr noundef nonnull align 1 dereferenceable(1) %this) unnamed_addr #5 comdat align 2 {
entry:
  %this.addr = alloca ptr, align 8
  store ptr %this, ptr %this.addr, align 8
  ret void
}

; Function Attrs: mustprogress uwtable
define linkonce_odr void @_ZNK9grpc_core11json_detail16JsonObjectLoaderINS_8internal31ClientChannelMethodParsedConfigELm0EE13OptionalFieldINS_8DurationEEENS1_IS3_Lm1EEEPKcMS3_T_S9_(ptr noalias sret(%"class.grpc_core::json_detail::JsonObjectLoader.90") align 8 %agg.result, ptr noundef nonnull align 1 dereferenceable(1) %this, ptr noundef %name, i64 %p, ptr noundef %enable_key) #4 comdat align 2 {
entry:
  %this.addr = alloca ptr, align 8
  %name.addr = alloca ptr, align 8
  %p.addr = alloca i64, align 8
  %enable_key.addr = alloca ptr, align 8
  store ptr %this, ptr %this.addr, align 8
  store ptr %name, ptr %name.addr, align 8
  store i64 %p, ptr %p.addr, align 8
  store ptr %enable_key, ptr %enable_key.addr, align 8
  %this1 = load ptr, ptr %this.addr, align 8
  %0 = load ptr, ptr %name.addr, align 8
  %1 = load i64, ptr %p.addr, align 8
  %2 = load ptr, ptr %enable_key.addr, align 8
  call void @_ZNK9grpc_core11json_detail16JsonObjectLoaderINS_8internal31ClientChannelMethodParsedConfigELm0EE5FieldINS_8DurationEEENS1_IS3_Lm1EEEPKcbMS3_T_S9_(ptr sret(%"class.grpc_core::json_detail::JsonObjectLoader.90") align 8 %agg.result, ptr noundef nonnull align 1 dereferenceable(1) %this1, ptr noundef %0, i1 noundef zeroext true, i64 %1, ptr noundef %2)
  ret void
}

; Function Attrs: mustprogress uwtable
define linkonce_odr void @_ZNK9grpc_core11json_detail16JsonObjectLoaderINS_8internal31ClientChannelMethodParsedConfigELm1EE13OptionalFieldISt8optionalIbEEENS1_IS3_Lm2EEEPKcMS3_T_SA_(ptr noalias sret(%"class.grpc_core::json_detail::JsonObjectLoader.89") align 8 %agg.result, ptr noundef nonnull align 8 dereferenceable(32) %this, ptr noundef %name, i64 %p, ptr noundef %enable_key) #4 comdat align 2 {
entry:
  %this.addr = alloca ptr, align 8
  %name.addr = alloca ptr, align 8
  %p.addr = alloca i64, align 8
  %enable_key.addr = alloca ptr, align 8
  store ptr %this, ptr %this.addr, align 8
  store ptr %name, ptr %name.addr, align 8
  store i64 %p, ptr %p.addr, align 8
  store ptr %enable_key, ptr %enable_key.addr, align 8
  %this1 = load ptr, ptr %this.addr, align 8
  %0 = load ptr, ptr %name.addr, align 8
  %1 = load i64, ptr %p.addr, align 8
  %2 = load ptr, ptr %enable_key.addr, align 8
  call void @_ZNK9grpc_core11json_detail16JsonObjectLoaderINS_8internal31ClientChannelMethodParsedConfigELm1EE5FieldISt8optionalIbEEENS1_IS3_Lm2EEEPKcbMS3_T_SA_(ptr sret(%"class.grpc_core::json_detail::JsonObjectLoader.89") align 8 %agg.result, ptr noundef nonnull align 8 dereferenceable(32) %this1, ptr noundef %0, i1 noundef zeroext true, i64 %1, ptr noundef %2)
  ret void
}

; Function Attrs: mustprogress uwtable
define linkonce_odr noundef ptr @_ZNK9grpc_core11json_detail16JsonObjectLoaderINS_8internal31ClientChannelMethodParsedConfigELm2EE6FinishEv(ptr noundef nonnull align 8 dereferenceable(64) %this) #4 comdat align 2 personality ptr @__gxx_personality_v0 {
entry:
  %this.addr = alloca ptr, align 8
  %exn.slot = alloca ptr, align 8
  %ehselector.slot = alloca i32, align 4
  store ptr %this, ptr %this.addr, align 8
  %this1 = load ptr, ptr %this.addr, align 8
  %call = call noalias noundef nonnull ptr @_Znwm(i64 noundef 72) #13
  %elements_ = getelementptr inbounds %"class.grpc_core::json_detail::JsonObjectLoader.89", ptr %this1, i32 0, i32 0
  invoke void @_ZN9grpc_core11json_detail24FinishedJsonObjectLoaderINS_8internal31ClientChannelMethodParsedConfigELm2EvEC2ERKNS0_3VecINS0_7ElementELm2EEE(ptr noundef nonnull align 8 dereferenceable(72) %call, ptr noundef nonnull align 8 dereferenceable(64) %elements_)
          to label %invoke.cont unwind label %lpad

invoke.cont:                                      ; preds = %entry
  ret ptr %call

lpad:                                             ; preds = %entry
  %0 = landingpad { ptr, i32 }
          cleanup
  %1 = extractvalue { ptr, i32 } %0, 0
  store ptr %1, ptr %exn.slot, align 8
  %2 = extractvalue { ptr, i32 } %0, 1
  store i32 %2, ptr %ehselector.slot, align 4
  call void @_ZdlPv(ptr noundef %call) #14
  br label %eh.resume

eh.resume:                                        ; preds = %lpad
  %exn = load ptr, ptr %exn.slot, align 8
  %sel = load i32, ptr %ehselector.slot, align 4
  %lpad.val = insertvalue { ptr, i32 } poison, ptr %exn, 0
  %lpad.val2 = insertvalue { ptr, i32 } %lpad.val, i32 %sel, 1
  resume { ptr, i32 } %lpad.val2
}

; Function Attrs: mustprogress uwtable
define noundef i64 @_ZN9grpc_core8internal32ClientChannelServiceConfigParser11ParserIndexEv() #4 align 2 {
entry:
  %agg.tmp = alloca %"class.std::basic_string_view", align 8
  %call = call noundef nonnull align 8 dereferenceable(776) ptr @_ZN9grpc_core17CoreConfiguration3GetEv()
  %call1 = call noundef nonnull align 8 dereferenceable(24) ptr @_ZNK9grpc_core17CoreConfiguration21service_config_parserEv(ptr noundef nonnull align 8 dereferenceable(776) %call)
  %call2 = call { i64, ptr } @_ZN9grpc_core8internal32ClientChannelServiceConfigParser11parser_nameEv()
  %0 = getelementptr inbounds { i64, ptr }, ptr %agg.tmp, i32 0, i32 0
  %1 = extractvalue { i64, ptr } %call2, 0
  store i64 %1, ptr %0, align 8
  %2 = getelementptr inbounds { i64, ptr }, ptr %agg.tmp, i32 0, i32 1
  %3 = extractvalue { i64, ptr } %call2, 1
  store ptr %3, ptr %2, align 8
  %4 = getelementptr inbounds { i64, ptr }, ptr %agg.tmp, i32 0, i32 0
  %5 = load i64, ptr %4, align 8
  %6 = getelementptr inbounds { i64, ptr }, ptr %agg.tmp, i32 0, i32 1
  %7 = load ptr, ptr %6, align 8
  %call3 = call noundef i64 @_ZNK9grpc_core19ServiceConfigParser14GetParserIndexESt17basic_string_viewIcSt11char_traitsIcEE(ptr noundef nonnull align 8 dereferenceable(24) %call1, i64 %5, ptr %7)
  ret i64 %call3
}

; Function Attrs: mustprogress nounwind uwtable
define linkonce_odr noundef nonnull align 8 dereferenceable(24) ptr @_ZNK9grpc_core17CoreConfiguration21service_config_parserEv(ptr noundef nonnull align 8 dereferenceable(776) %this) #5 comdat align 2 {
entry:
  %this.addr = alloca ptr, align 8
  store ptr %this, ptr %this.addr, align 8
  %this1 = load ptr, ptr %this.addr, align 8
  %service_config_parser_ = getelementptr inbounds %"class.grpc_core::CoreConfiguration", ptr %this1, i32 0, i32 4
  ret ptr %service_config_parser_
}

declare noundef i64 @_ZNK9grpc_core19ServiceConfigParser14GetParserIndexESt17basic_string_viewIcSt11char_traitsIcEE(ptr noundef nonnull align 8 dereferenceable(24), i64, ptr) #1

; Function Attrs: mustprogress nounwind uwtable
define linkonce_odr { i64, ptr } @_ZN9grpc_core8internal32ClientChannelServiceConfigParser11parser_nameEv() #5 comdat align 2 {
entry:
  %retval = alloca %"class.std::basic_string_view", align 8
  call void @_ZNSt17basic_string_viewIcSt11char_traitsIcEEC2EPKc(ptr noundef nonnull align 8 dereferenceable(16) %retval, ptr noundef @.str.24) #3
  %0 = load { i64, ptr }, ptr %retval, align 8
  ret { i64, ptr } %0
}

; Function Attrs: mustprogress uwtable
define void @_ZN9grpc_core8internal32ClientChannelServiceConfigParser8RegisterEPNS_17CoreConfiguration7BuilderE(ptr noundef %builder) #4 align 2 personality ptr @__gxx_personality_v0 {
entry:
  %builder.addr = alloca ptr, align 8
  %agg.tmp = alloca %"class.std::unique_ptr", align 8
  %ref.tmp = alloca %"class.std::unique_ptr.100", align 8
  %exn.slot = alloca ptr, align 8
  %ehselector.slot = alloca i32, align 4
  store ptr %builder, ptr %builder.addr, align 8
  %0 = load ptr, ptr %builder.addr, align 8
  %call = call noundef ptr @_ZN9grpc_core17CoreConfiguration7Builder21service_config_parserEv(ptr noundef nonnull align 16 dereferenceable(880) %0)
  call void @_ZSt11make_uniqueIN9grpc_core8internal32ClientChannelServiceConfigParserEJEENSt8__detail9_MakeUniqIT_E15__single_objectEDpOT0_(ptr sret(%"class.std::unique_ptr.100") align 8 %ref.tmp)
  call void @_ZNSt10unique_ptrIN9grpc_core19ServiceConfigParser6ParserESt14default_deleteIS2_EEC2INS0_8internal32ClientChannelServiceConfigParserES3_IS8_EvEEOS_IT_T0_E(ptr noundef nonnull align 8 dereferenceable(8) %agg.tmp, ptr noundef nonnull align 8 dereferenceable(8) %ref.tmp) #3
  invoke void @_ZN9grpc_core19ServiceConfigParser7Builder14RegisterParserESt10unique_ptrINS0_6ParserESt14default_deleteIS3_EE(ptr noundef nonnull align 8 dereferenceable(24) %call, ptr noundef %agg.tmp)
          to label %invoke.cont unwind label %lpad

invoke.cont:                                      ; preds = %entry
  call void @_ZNSt10unique_ptrIN9grpc_core19ServiceConfigParser6ParserESt14default_deleteIS2_EED2Ev(ptr noundef nonnull align 8 dereferenceable(8) %agg.tmp) #3
  call void @_ZNSt10unique_ptrIN9grpc_core8internal32ClientChannelServiceConfigParserESt14default_deleteIS2_EED2Ev(ptr noundef nonnull align 8 dereferenceable(8) %ref.tmp) #3
  ret void

lpad:                                             ; preds = %entry
  %1 = landingpad { ptr, i32 }
          cleanup
  %2 = extractvalue { ptr, i32 } %1, 0
  store ptr %2, ptr %exn.slot, align 8
  %3 = extractvalue { ptr, i32 } %1, 1
  store i32 %3, ptr %ehselector.slot, align 4
  call void @_ZNSt10unique_ptrIN9grpc_core19ServiceConfigParser6ParserESt14default_deleteIS2_EED2Ev(ptr noundef nonnull align 8 dereferenceable(8) %agg.tmp) #3
  call void @_ZNSt10unique_ptrIN9grpc_core8internal32ClientChannelServiceConfigParserESt14default_deleteIS2_EED2Ev(ptr noundef nonnull align 8 dereferenceable(8) %ref.tmp) #3
  br label %eh.resume

eh.resume:                                        ; preds = %lpad
  %exn = load ptr, ptr %exn.slot, align 8
  %sel = load i32, ptr %ehselector.slot, align 4
  %lpad.val = insertvalue { ptr, i32 } poison, ptr %exn, 0
  %lpad.val1 = insertvalue { ptr, i32 } %lpad.val, i32 %sel, 1
  resume { ptr, i32 } %lpad.val1
}

; Function Attrs: mustprogress nounwind uwtable
define linkonce_odr noundef ptr @_ZN9grpc_core17CoreConfiguration7Builder21service_config_parserEv(ptr noundef nonnull align 16 dereferenceable(880) %this) #5 comdat align 2 {
entry:
  %this.addr = alloca ptr, align 8
  store ptr %this, ptr %this.addr, align 8
  %this1 = load ptr, ptr %this.addr, align 8
  %service_config_parser_ = getelementptr inbounds %"class.grpc_core::CoreConfiguration::Builder", ptr %this1, i32 0, i32 5
  ret ptr %service_config_parser_
}

declare void @_ZN9grpc_core19ServiceConfigParser7Builder14RegisterParserESt10unique_ptrINS0_6ParserESt14default_deleteIS3_EE(ptr noundef nonnull align 8 dereferenceable(24), ptr noundef) #1

; Function Attrs: mustprogress uwtable
define linkonce_odr void @_ZSt11make_uniqueIN9grpc_core8internal32ClientChannelServiceConfigParserEJEENSt8__detail9_MakeUniqIT_E15__single_objectEDpOT0_(ptr noalias sret(%"class.std::unique_ptr.100") align 8 %agg.result) #4 comdat {
entry:
  %result.ptr = alloca ptr, align 8
  store ptr %agg.result, ptr %result.ptr, align 8
  %call = call noalias noundef nonnull ptr @_Znwm(i64 noundef 8) #13
  call void @llvm.memset.p0.i64(ptr align 8 %call, i8 0, i64 8, i1 false)
  call void @_ZN9grpc_core8internal32ClientChannelServiceConfigParserC2Ev(ptr noundef nonnull align 8 dereferenceable(8) %call) #3
  call void @_ZNSt10unique_ptrIN9grpc_core8internal32ClientChannelServiceConfigParserESt14default_deleteIS2_EEC2IS4_vEEPS2_(ptr noundef nonnull align 8 dereferenceable(8) %agg.result, ptr noundef %call) #3
  ret void
}

; Function Attrs: mustprogress nounwind uwtable
define linkonce_odr void @_ZNSt10unique_ptrIN9grpc_core19ServiceConfigParser6ParserESt14default_deleteIS2_EEC2INS0_8internal32ClientChannelServiceConfigParserES3_IS8_EvEEOS_IT_T0_E(ptr noundef nonnull align 8 dereferenceable(8) %this, ptr noundef nonnull align 8 dereferenceable(8) %__u) unnamed_addr #5 comdat align 2 personality ptr @__gxx_personality_v0 {
entry:
  %this.addr = alloca ptr, align 8
  %__u.addr = alloca ptr, align 8
  store ptr %this, ptr %this.addr, align 8
  store ptr %__u, ptr %__u.addr, align 8
  %this1 = load ptr, ptr %this.addr, align 8
  %_M_t = getelementptr inbounds %"class.std::unique_ptr", ptr %this1, i32 0, i32 0
  %0 = load ptr, ptr %__u.addr, align 8
  %call = call noundef ptr @_ZNSt10unique_ptrIN9grpc_core8internal32ClientChannelServiceConfigParserESt14default_deleteIS2_EE7releaseEv(ptr noundef nonnull align 8 dereferenceable(8) %0) #3
  %1 = load ptr, ptr %__u.addr, align 8
  %call2 = call noundef nonnull align 1 dereferenceable(1) ptr @_ZNSt10unique_ptrIN9grpc_core8internal32ClientChannelServiceConfigParserESt14default_deleteIS2_EE11get_deleterEv(ptr noundef nonnull align 8 dereferenceable(8) %1) #3
  invoke void @_ZNSt15__uniq_ptr_dataIN9grpc_core19ServiceConfigParser6ParserESt14default_deleteIS2_ELb1ELb1EECI2St15__uniq_ptr_implIS2_S4_EIS3_INS0_8internal32ClientChannelServiceConfigParserEEEEPS2_OT_(ptr noundef nonnull align 8 dereferenceable(8) %_M_t, ptr noundef %call, ptr noundef nonnull align 1 dereferenceable(1) %call2)
          to label %invoke.cont unwind label %terminate.lpad

invoke.cont:                                      ; preds = %entry
  ret void

terminate.lpad:                                   ; preds = %entry
  %2 = landingpad { ptr, i32 }
          catch ptr null
  %3 = extractvalue { ptr, i32 } %2, 0
  call void @__clang_call_terminate(ptr %3) #15
  unreachable
}

; Function Attrs: mustprogress nounwind uwtable
define linkonce_odr void @_ZNSt10unique_ptrIN9grpc_core19ServiceConfigParser6ParserESt14default_deleteIS2_EED2Ev(ptr noundef nonnull align 8 dereferenceable(8) %this) unnamed_addr #5 comdat align 2 personality ptr @__gxx_personality_v0 {
entry:
  %this.addr = alloca ptr, align 8
  %__ptr = alloca ptr, align 8
  store ptr %this, ptr %this.addr, align 8
  %this1 = load ptr, ptr %this.addr, align 8
  %_M_t = getelementptr inbounds %"class.std::unique_ptr", ptr %this1, i32 0, i32 0
  %call = call noundef nonnull align 8 dereferenceable(8) ptr @_ZNSt15__uniq_ptr_implIN9grpc_core19ServiceConfigParser6ParserESt14default_deleteIS2_EE6_M_ptrEv(ptr noundef nonnull align 8 dereferenceable(8) %_M_t) #3
  store ptr %call, ptr %__ptr, align 8
  %0 = load ptr, ptr %__ptr, align 8
  %1 = load ptr, ptr %0, align 8
  %cmp = icmp ne ptr %1, null
  br i1 %cmp, label %if.then, label %if.end

if.then:                                          ; preds = %entry
  %call2 = call noundef nonnull align 1 dereferenceable(1) ptr @_ZNSt10unique_ptrIN9grpc_core19ServiceConfigParser6ParserESt14default_deleteIS2_EE11get_deleterEv(ptr noundef nonnull align 8 dereferenceable(8) %this1) #3
  %2 = load ptr, ptr %__ptr, align 8
  %3 = load ptr, ptr %2, align 8
  invoke void @_ZNKSt14default_deleteIN9grpc_core19ServiceConfigParser6ParserEEclEPS2_(ptr noundef nonnull align 1 dereferenceable(1) %call2, ptr noundef %3)
          to label %invoke.cont unwind label %terminate.lpad

invoke.cont:                                      ; preds = %if.then
  br label %if.end

if.end:                                           ; preds = %invoke.cont, %entry
  %4 = load ptr, ptr %__ptr, align 8
  store ptr null, ptr %4, align 8
  ret void

terminate.lpad:                                   ; preds = %if.then
  %5 = landingpad { ptr, i32 }
          catch ptr null
  %6 = extractvalue { ptr, i32 } %5, 0
  call void @__clang_call_terminate(ptr %6) #15
  unreachable
}

; Function Attrs: mustprogress nounwind uwtable
define linkonce_odr void @_ZNSt10unique_ptrIN9grpc_core8internal32ClientChannelServiceConfigParserESt14default_deleteIS2_EED2Ev(ptr noundef nonnull align 8 dereferenceable(8) %this) unnamed_addr #5 comdat align 2 personality ptr @__gxx_personality_v0 {
entry:
  %this.addr = alloca ptr, align 8
  %__ptr = alloca ptr, align 8
  store ptr %this, ptr %this.addr, align 8
  %this1 = load ptr, ptr %this.addr, align 8
  %_M_t = getelementptr inbounds %"class.std::unique_ptr.100", ptr %this1, i32 0, i32 0
  %call = call noundef nonnull align 8 dereferenceable(8) ptr @_ZNSt15__uniq_ptr_implIN9grpc_core8internal32ClientChannelServiceConfigParserESt14default_deleteIS2_EE6_M_ptrEv(ptr noundef nonnull align 8 dereferenceable(8) %_M_t) #3
  store ptr %call, ptr %__ptr, align 8
  %0 = load ptr, ptr %__ptr, align 8
  %1 = load ptr, ptr %0, align 8
  %cmp = icmp ne ptr %1, null
  br i1 %cmp, label %if.then, label %if.end

if.then:                                          ; preds = %entry
  %call2 = call noundef nonnull align 1 dereferenceable(1) ptr @_ZNSt10unique_ptrIN9grpc_core8internal32ClientChannelServiceConfigParserESt14default_deleteIS2_EE11get_deleterEv(ptr noundef nonnull align 8 dereferenceable(8) %this1) #3
  %2 = load ptr, ptr %__ptr, align 8
  %3 = load ptr, ptr %2, align 8
  invoke void @_ZNKSt14default_deleteIN9grpc_core8internal32ClientChannelServiceConfigParserEEclEPS2_(ptr noundef nonnull align 1 dereferenceable(1) %call2, ptr noundef %3)
          to label %invoke.cont unwind label %terminate.lpad

invoke.cont:                                      ; preds = %if.then
  br label %if.end

if.end:                                           ; preds = %invoke.cont, %entry
  %4 = load ptr, ptr %__ptr, align 8
  store ptr null, ptr %4, align 8
  ret void

terminate.lpad:                                   ; preds = %if.then
  %5 = landingpad { ptr, i32 }
          catch ptr null
  %6 = extractvalue { ptr, i32 } %5, 0
  call void @__clang_call_terminate(ptr %6) #15
  unreachable
}

; Function Attrs: mustprogress uwtable
define void @_ZN9grpc_core8internal32ClientChannelServiceConfigParser17ParseGlobalParamsERKNS_11ChannelArgsERKNS_12experimental4JsonEPNS_16ValidationErrorsE(ptr noalias sret(%"class.std::unique_ptr.108") align 8 %agg.result, ptr noundef nonnull align 8 dereferenceable(8) %this, ptr noundef nonnull align 8 dereferenceable(8) %0, ptr noundef nonnull align 8 dereferenceable(56) %json, ptr noundef %errors) unnamed_addr #4 align 2 personality ptr @__gxx_personality_v0 {
entry:
  %result.ptr = alloca ptr, align 8
  %this.addr = alloca ptr, align 8
  %.addr = alloca ptr, align 8
  %json.addr = alloca ptr, align 8
  %errors.addr = alloca ptr, align 8
  %ref.tmp = alloca %"class.std::unique_ptr.116", align 8
  %ref.tmp2 = alloca %"class.grpc_core::JsonArgs", align 8
  %exn.slot = alloca ptr, align 8
  %ehselector.slot = alloca i32, align 4
  store ptr %agg.result, ptr %result.ptr, align 8
  store ptr %this, ptr %this.addr, align 8
  store ptr %0, ptr %.addr, align 8
  store ptr %json, ptr %json.addr, align 8
  store ptr %errors, ptr %errors.addr, align 8
  %1 = load ptr, ptr %json.addr, align 8
  call void @llvm.memset.p0.i64(ptr align 8 %ref.tmp2, i8 0, i64 8, i1 false)
  call void @_ZN9grpc_core8JsonArgsC2Ev(ptr noundef nonnull align 8 dereferenceable(8) %ref.tmp2) #3
  %2 = load ptr, ptr %errors.addr, align 8
  invoke void @_ZN9grpc_core12LoadFromJsonISt10unique_ptrINS_8internal31ClientChannelGlobalParsedConfigESt14default_deleteIS3_EEEET_RKNS_12experimental4JsonERKNS_8JsonArgsEPNS_16ValidationErrorsE(ptr sret(%"class.std::unique_ptr.116") align 8 %ref.tmp, ptr noundef nonnull align 8 dereferenceable(56) %1, ptr noundef nonnull align 8 dereferenceable(8) %ref.tmp2, ptr noundef %2)
          to label %invoke.cont unwind label %lpad

invoke.cont:                                      ; preds = %entry
  call void @_ZNSt10unique_ptrIN9grpc_core19ServiceConfigParser12ParsedConfigESt14default_deleteIS2_EEC2INS0_8internal31ClientChannelGlobalParsedConfigES3_IS8_EvEEOS_IT_T0_E(ptr noundef nonnull align 8 dereferenceable(8) %agg.result, ptr noundef nonnull align 8 dereferenceable(8) %ref.tmp) #3
  call void @_ZNSt10unique_ptrIN9grpc_core8internal31ClientChannelGlobalParsedConfigESt14default_deleteIS2_EED2Ev(ptr noundef nonnull align 8 dereferenceable(8) %ref.tmp) #3
  call void @_ZN9grpc_core8JsonArgsD2Ev(ptr noundef nonnull align 8 dereferenceable(8) %ref.tmp2) #3
  ret void

lpad:                                             ; preds = %entry
  %3 = landingpad { ptr, i32 }
          cleanup
  %4 = extractvalue { ptr, i32 } %3, 0
  store ptr %4, ptr %exn.slot, align 8
  %5 = extractvalue { ptr, i32 } %3, 1
  store i32 %5, ptr %ehselector.slot, align 4
  call void @_ZN9grpc_core8JsonArgsD2Ev(ptr noundef nonnull align 8 dereferenceable(8) %ref.tmp2) #3
  br label %eh.resume

eh.resume:                                        ; preds = %lpad
  %exn = load ptr, ptr %exn.slot, align 8
  %sel = load i32, ptr %ehselector.slot, align 4
  %lpad.val = insertvalue { ptr, i32 } poison, ptr %exn, 0
  %lpad.val3 = insertvalue { ptr, i32 } %lpad.val, i32 %sel, 1
  resume { ptr, i32 } %lpad.val3
}

; Function Attrs: mustprogress uwtable
define linkonce_odr void @_ZN9grpc_core12LoadFromJsonISt10unique_ptrINS_8internal31ClientChannelGlobalParsedConfigESt14default_deleteIS3_EEEET_RKNS_12experimental4JsonERKNS_8JsonArgsEPNS_16ValidationErrorsE(ptr noalias sret(%"class.std::unique_ptr.116") align 8 %agg.result, ptr noundef nonnull align 8 dereferenceable(56) %json, ptr noundef nonnull align 8 dereferenceable(8) %args, ptr noundef %errors) #4 comdat personality ptr @__gxx_personality_v0 {
entry:
  %result.ptr = alloca ptr, align 8
  %json.addr = alloca ptr, align 8
  %args.addr = alloca ptr, align 8
  %errors.addr = alloca ptr, align 8
  %nrvo = alloca i1, align 1
  %exn.slot = alloca ptr, align 8
  %ehselector.slot = alloca i32, align 4
  store ptr %agg.result, ptr %result.ptr, align 8
  store ptr %json, ptr %json.addr, align 8
  store ptr %args, ptr %args.addr, align 8
  store ptr %errors, ptr %errors.addr, align 8
  store i1 false, ptr %nrvo, align 1
  call void @_ZNSt10unique_ptrIN9grpc_core8internal31ClientChannelGlobalParsedConfigESt14default_deleteIS2_EEC2IS4_vEEv(ptr noundef nonnull align 8 dereferenceable(8) %agg.result) #3
  %call = invoke noundef ptr @_ZN9grpc_core11json_detail13LoaderForTypeISt10unique_ptrINS_8internal31ClientChannelGlobalParsedConfigESt14default_deleteIS4_EEEEPKNS0_15LoaderInterfaceEv()
          to label %invoke.cont unwind label %lpad

invoke.cont:                                      ; preds = %entry
  %0 = load ptr, ptr %json.addr, align 8
  %1 = load ptr, ptr %args.addr, align 8
  %2 = load ptr, ptr %errors.addr, align 8
  %vtable = load ptr, ptr %call, align 8
  %vfn = getelementptr inbounds ptr, ptr %vtable, i64 0
  %3 = load ptr, ptr %vfn, align 8
  invoke void %3(ptr noundef nonnull align 8 dereferenceable(8) %call, ptr noundef nonnull align 8 dereferenceable(56) %0, ptr noundef nonnull align 8 dereferenceable(8) %1, ptr noundef %agg.result, ptr noundef %2)
          to label %invoke.cont1 unwind label %lpad

invoke.cont1:                                     ; preds = %invoke.cont
  store i1 true, ptr %nrvo, align 1
  %nrvo.val = load i1, ptr %nrvo, align 1
  br i1 %nrvo.val, label %nrvo.skipdtor, label %nrvo.unused

lpad:                                             ; preds = %invoke.cont, %entry
  %4 = landingpad { ptr, i32 }
          cleanup
  %5 = extractvalue { ptr, i32 } %4, 0
  store ptr %5, ptr %exn.slot, align 8
  %6 = extractvalue { ptr, i32 } %4, 1
  store i32 %6, ptr %ehselector.slot, align 4
  call void @_ZNSt10unique_ptrIN9grpc_core8internal31ClientChannelGlobalParsedConfigESt14default_deleteIS2_EED2Ev(ptr noundef nonnull align 8 dereferenceable(8) %agg.result) #3
  br label %eh.resume

nrvo.unused:                                      ; preds = %invoke.cont1
  call void @_ZNSt10unique_ptrIN9grpc_core8internal31ClientChannelGlobalParsedConfigESt14default_deleteIS2_EED2Ev(ptr noundef nonnull align 8 dereferenceable(8) %agg.result) #3
  br label %nrvo.skipdtor

nrvo.skipdtor:                                    ; preds = %nrvo.unused, %invoke.cont1
  ret void

eh.resume:                                        ; preds = %lpad
  %exn = load ptr, ptr %exn.slot, align 8
  %sel = load i32, ptr %ehselector.slot, align 4
  %lpad.val = insertvalue { ptr, i32 } poison, ptr %exn, 0
  %lpad.val2 = insertvalue { ptr, i32 } %lpad.val, i32 %sel, 1
  resume { ptr, i32 } %lpad.val2
}

; Function Attrs: nocallback nofree nounwind willreturn memory(argmem: write)
declare void @llvm.memset.p0.i64(ptr nocapture writeonly, i8, i64, i1 immarg) #6

; Function Attrs: mustprogress nounwind uwtable
define linkonce_odr void @_ZN9grpc_core8JsonArgsC2Ev(ptr noundef nonnull align 8 dereferenceable(8) %this) unnamed_addr #5 comdat align 2 {
entry:
  %this.addr = alloca ptr, align 8
  store ptr %this, ptr %this.addr, align 8
  %this1 = load ptr, ptr %this.addr, align 8
  store ptr getelementptr inbounds ({ [5 x ptr] }, ptr @_ZTVN9grpc_core8JsonArgsE, i32 0, inrange i32 0, i32 2), ptr %this1, align 8
  ret void
}

; Function Attrs: mustprogress nounwind uwtable
define linkonce_odr void @_ZNSt10unique_ptrIN9grpc_core19ServiceConfigParser12ParsedConfigESt14default_deleteIS2_EEC2INS0_8internal31ClientChannelGlobalParsedConfigES3_IS8_EvEEOS_IT_T0_E(ptr noundef nonnull align 8 dereferenceable(8) %this, ptr noundef nonnull align 8 dereferenceable(8) %__u) unnamed_addr #5 comdat align 2 personality ptr @__gxx_personality_v0 {
entry:
  %this.addr = alloca ptr, align 8
  %__u.addr = alloca ptr, align 8
  store ptr %this, ptr %this.addr, align 8
  store ptr %__u, ptr %__u.addr, align 8
  %this1 = load ptr, ptr %this.addr, align 8
  %_M_t = getelementptr inbounds %"class.std::unique_ptr.108", ptr %this1, i32 0, i32 0
  %0 = load ptr, ptr %__u.addr, align 8
  %call = call noundef ptr @_ZNSt10unique_ptrIN9grpc_core8internal31ClientChannelGlobalParsedConfigESt14default_deleteIS2_EE7releaseEv(ptr noundef nonnull align 8 dereferenceable(8) %0) #3
  %1 = load ptr, ptr %__u.addr, align 8
  %call2 = call noundef nonnull align 1 dereferenceable(1) ptr @_ZNSt10unique_ptrIN9grpc_core8internal31ClientChannelGlobalParsedConfigESt14default_deleteIS2_EE11get_deleterEv(ptr noundef nonnull align 8 dereferenceable(8) %1) #3
  invoke void @_ZNSt15__uniq_ptr_dataIN9grpc_core19ServiceConfigParser12ParsedConfigESt14default_deleteIS2_ELb1ELb1EECI2St15__uniq_ptr_implIS2_S4_EIS3_INS0_8internal31ClientChannelGlobalParsedConfigEEEEPS2_OT_(ptr noundef nonnull align 8 dereferenceable(8) %_M_t, ptr noundef %call, ptr noundef nonnull align 1 dereferenceable(1) %call2)
          to label %invoke.cont unwind label %terminate.lpad

invoke.cont:                                      ; preds = %entry
  ret void

terminate.lpad:                                   ; preds = %entry
  %2 = landingpad { ptr, i32 }
          catch ptr null
  %3 = extractvalue { ptr, i32 } %2, 0
  call void @__clang_call_terminate(ptr %3) #15
  unreachable
}

; Function Attrs: mustprogress nounwind uwtable
define linkonce_odr void @_ZNSt10unique_ptrIN9grpc_core8internal31ClientChannelGlobalParsedConfigESt14default_deleteIS2_EED2Ev(ptr noundef nonnull align 8 dereferenceable(8) %this) unnamed_addr #5 comdat align 2 {
entry:
  %this.addr = alloca ptr, align 8
  %__ptr = alloca ptr, align 8
  store ptr %this, ptr %this.addr, align 8
  %this1 = load ptr, ptr %this.addr, align 8
  %_M_t = getelementptr inbounds %"class.std::unique_ptr.116", ptr %this1, i32 0, i32 0
  %call = call noundef nonnull align 8 dereferenceable(8) ptr @_ZNSt15__uniq_ptr_implIN9grpc_core8internal31ClientChannelGlobalParsedConfigESt14default_deleteIS2_EE6_M_ptrEv(ptr noundef nonnull align 8 dereferenceable(8) %_M_t) #3
  store ptr %call, ptr %__ptr, align 8
  %0 = load ptr, ptr %__ptr, align 8
  %1 = load ptr, ptr %0, align 8
  %cmp = icmp ne ptr %1, null
  br i1 %cmp, label %if.then, label %if.end

if.then:                                          ; preds = %entry
  %call2 = call noundef nonnull align 1 dereferenceable(1) ptr @_ZNSt10unique_ptrIN9grpc_core8internal31ClientChannelGlobalParsedConfigESt14default_deleteIS2_EE11get_deleterEv(ptr noundef nonnull align 8 dereferenceable(8) %this1) #3
  %2 = load ptr, ptr %__ptr, align 8
  %3 = load ptr, ptr %2, align 8
  call void @_ZNKSt14default_deleteIN9grpc_core8internal31ClientChannelGlobalParsedConfigEEclEPS2_(ptr noundef nonnull align 1 dereferenceable(1) %call2, ptr noundef %3)
  br label %if.end

if.end:                                           ; preds = %if.then, %entry
  %4 = load ptr, ptr %__ptr, align 8
  store ptr null, ptr %4, align 8
  ret void
}

; Function Attrs: mustprogress nounwind uwtable
define linkonce_odr void @_ZN9grpc_core8JsonArgsD2Ev(ptr noundef nonnull align 8 dereferenceable(8) %this) unnamed_addr #5 comdat align 2 {
entry:
  %this.addr = alloca ptr, align 8
  store ptr %this, ptr %this.addr, align 8
  ret void
}

; Function Attrs: mustprogress uwtable
define void @_ZN9grpc_core8internal32ClientChannelServiceConfigParser20ParsePerMethodParamsERKNS_11ChannelArgsERKNS_12experimental4JsonEPNS_16ValidationErrorsE(ptr noalias sret(%"class.std::unique_ptr.108") align 8 %agg.result, ptr noundef nonnull align 8 dereferenceable(8) %this, ptr noundef nonnull align 8 dereferenceable(8) %0, ptr noundef nonnull align 8 dereferenceable(56) %json, ptr noundef %errors) unnamed_addr #4 align 2 personality ptr @__gxx_personality_v0 {
entry:
  %result.ptr = alloca ptr, align 8
  %this.addr = alloca ptr, align 8
  %.addr = alloca ptr, align 8
  %json.addr = alloca ptr, align 8
  %errors.addr = alloca ptr, align 8
  %ref.tmp = alloca %"class.std::unique_ptr.124", align 8
  %ref.tmp2 = alloca %"class.grpc_core::JsonArgs", align 8
  %exn.slot = alloca ptr, align 8
  %ehselector.slot = alloca i32, align 4
  store ptr %agg.result, ptr %result.ptr, align 8
  store ptr %this, ptr %this.addr, align 8
  store ptr %0, ptr %.addr, align 8
  store ptr %json, ptr %json.addr, align 8
  store ptr %errors, ptr %errors.addr, align 8
  %1 = load ptr, ptr %json.addr, align 8
  call void @llvm.memset.p0.i64(ptr align 8 %ref.tmp2, i8 0, i64 8, i1 false)
  call void @_ZN9grpc_core8JsonArgsC2Ev(ptr noundef nonnull align 8 dereferenceable(8) %ref.tmp2) #3
  %2 = load ptr, ptr %errors.addr, align 8
  invoke void @_ZN9grpc_core12LoadFromJsonISt10unique_ptrINS_8internal31ClientChannelMethodParsedConfigESt14default_deleteIS3_EEEET_RKNS_12experimental4JsonERKNS_8JsonArgsEPNS_16ValidationErrorsE(ptr sret(%"class.std::unique_ptr.124") align 8 %ref.tmp, ptr noundef nonnull align 8 dereferenceable(56) %1, ptr noundef nonnull align 8 dereferenceable(8) %ref.tmp2, ptr noundef %2)
          to label %invoke.cont unwind label %lpad

invoke.cont:                                      ; preds = %entry
  call void @_ZNSt10unique_ptrIN9grpc_core19ServiceConfigParser12ParsedConfigESt14default_deleteIS2_EEC2INS0_8internal31ClientChannelMethodParsedConfigES3_IS8_EvEEOS_IT_T0_E(ptr noundef nonnull align 8 dereferenceable(8) %agg.result, ptr noundef nonnull align 8 dereferenceable(8) %ref.tmp) #3
  call void @_ZNSt10unique_ptrIN9grpc_core8internal31ClientChannelMethodParsedConfigESt14default_deleteIS2_EED2Ev(ptr noundef nonnull align 8 dereferenceable(8) %ref.tmp) #3
  call void @_ZN9grpc_core8JsonArgsD2Ev(ptr noundef nonnull align 8 dereferenceable(8) %ref.tmp2) #3
  ret void

lpad:                                             ; preds = %entry
  %3 = landingpad { ptr, i32 }
          cleanup
  %4 = extractvalue { ptr, i32 } %3, 0
  store ptr %4, ptr %exn.slot, align 8
  %5 = extractvalue { ptr, i32 } %3, 1
  store i32 %5, ptr %ehselector.slot, align 4
  call void @_ZN9grpc_core8JsonArgsD2Ev(ptr noundef nonnull align 8 dereferenceable(8) %ref.tmp2) #3
  br label %eh.resume

eh.resume:                                        ; preds = %lpad
  %exn = load ptr, ptr %exn.slot, align 8
  %sel = load i32, ptr %ehselector.slot, align 4
  %lpad.val = insertvalue { ptr, i32 } poison, ptr %exn, 0
  %lpad.val3 = insertvalue { ptr, i32 } %lpad.val, i32 %sel, 1
  resume { ptr, i32 } %lpad.val3
}

; Function Attrs: mustprogress uwtable
define linkonce_odr void @_ZN9grpc_core12LoadFromJsonISt10unique_ptrINS_8internal31ClientChannelMethodParsedConfigESt14default_deleteIS3_EEEET_RKNS_12experimental4JsonERKNS_8JsonArgsEPNS_16ValidationErrorsE(ptr noalias sret(%"class.std::unique_ptr.124") align 8 %agg.result, ptr noundef nonnull align 8 dereferenceable(56) %json, ptr noundef nonnull align 8 dereferenceable(8) %args, ptr noundef %errors) #4 comdat personality ptr @__gxx_personality_v0 {
entry:
  %result.ptr = alloca ptr, align 8
  %json.addr = alloca ptr, align 8
  %args.addr = alloca ptr, align 8
  %errors.addr = alloca ptr, align 8
  %nrvo = alloca i1, align 1
  %exn.slot = alloca ptr, align 8
  %ehselector.slot = alloca i32, align 4
  store ptr %agg.result, ptr %result.ptr, align 8
  store ptr %json, ptr %json.addr, align 8
  store ptr %args, ptr %args.addr, align 8
  store ptr %errors, ptr %errors.addr, align 8
  store i1 false, ptr %nrvo, align 1
  call void @_ZNSt10unique_ptrIN9grpc_core8internal31ClientChannelMethodParsedConfigESt14default_deleteIS2_EEC2IS4_vEEv(ptr noundef nonnull align 8 dereferenceable(8) %agg.result) #3
  %call = invoke noundef ptr @_ZN9grpc_core11json_detail13LoaderForTypeISt10unique_ptrINS_8internal31ClientChannelMethodParsedConfigESt14default_deleteIS4_EEEEPKNS0_15LoaderInterfaceEv()
          to label %invoke.cont unwind label %lpad

invoke.cont:                                      ; preds = %entry
  %0 = load ptr, ptr %json.addr, align 8
  %1 = load ptr, ptr %args.addr, align 8
  %2 = load ptr, ptr %errors.addr, align 8
  %vtable = load ptr, ptr %call, align 8
  %vfn = getelementptr inbounds ptr, ptr %vtable, i64 0
  %3 = load ptr, ptr %vfn, align 8
  invoke void %3(ptr noundef nonnull align 8 dereferenceable(8) %call, ptr noundef nonnull align 8 dereferenceable(56) %0, ptr noundef nonnull align 8 dereferenceable(8) %1, ptr noundef %agg.result, ptr noundef %2)
          to label %invoke.cont1 unwind label %lpad

invoke.cont1:                                     ; preds = %invoke.cont
  store i1 true, ptr %nrvo, align 1
  %nrvo.val = load i1, ptr %nrvo, align 1
  br i1 %nrvo.val, label %nrvo.skipdtor, label %nrvo.unused

lpad:                                             ; preds = %invoke.cont, %entry
  %4 = landingpad { ptr, i32 }
          cleanup
  %5 = extractvalue { ptr, i32 } %4, 0
  store ptr %5, ptr %exn.slot, align 8
  %6 = extractvalue { ptr, i32 } %4, 1
  store i32 %6, ptr %ehselector.slot, align 4
  call void @_ZNSt10unique_ptrIN9grpc_core8internal31ClientChannelMethodParsedConfigESt14default_deleteIS2_EED2Ev(ptr noundef nonnull align 8 dereferenceable(8) %agg.result) #3
  br label %eh.resume

nrvo.unused:                                      ; preds = %invoke.cont1
  call void @_ZNSt10unique_ptrIN9grpc_core8internal31ClientChannelMethodParsedConfigESt14default_deleteIS2_EED2Ev(ptr noundef nonnull align 8 dereferenceable(8) %agg.result) #3
  br label %nrvo.skipdtor

nrvo.skipdtor:                                    ; preds = %nrvo.unused, %invoke.cont1
  ret void

eh.resume:                                        ; preds = %lpad
  %exn = load ptr, ptr %exn.slot, align 8
  %sel = load i32, ptr %ehselector.slot, align 4
  %lpad.val = insertvalue { ptr, i32 } poison, ptr %exn, 0
  %lpad.val2 = insertvalue { ptr, i32 } %lpad.val, i32 %sel, 1
  resume { ptr, i32 } %lpad.val2
}

; Function Attrs: mustprogress nounwind uwtable
define linkonce_odr void @_ZNSt10unique_ptrIN9grpc_core19ServiceConfigParser12ParsedConfigESt14default_deleteIS2_EEC2INS0_8internal31ClientChannelMethodParsedConfigES3_IS8_EvEEOS_IT_T0_E(ptr noundef nonnull align 8 dereferenceable(8) %this, ptr noundef nonnull align 8 dereferenceable(8) %__u) unnamed_addr #5 comdat align 2 personality ptr @__gxx_personality_v0 {
entry:
  %this.addr = alloca ptr, align 8
  %__u.addr = alloca ptr, align 8
  store ptr %this, ptr %this.addr, align 8
  store ptr %__u, ptr %__u.addr, align 8
  %this1 = load ptr, ptr %this.addr, align 8
  %_M_t = getelementptr inbounds %"class.std::unique_ptr.108", ptr %this1, i32 0, i32 0
  %0 = load ptr, ptr %__u.addr, align 8
  %call = call noundef ptr @_ZNSt10unique_ptrIN9grpc_core8internal31ClientChannelMethodParsedConfigESt14default_deleteIS2_EE7releaseEv(ptr noundef nonnull align 8 dereferenceable(8) %0) #3
  %1 = load ptr, ptr %__u.addr, align 8
  %call2 = call noundef nonnull align 1 dereferenceable(1) ptr @_ZNSt10unique_ptrIN9grpc_core8internal31ClientChannelMethodParsedConfigESt14default_deleteIS2_EE11get_deleterEv(ptr noundef nonnull align 8 dereferenceable(8) %1) #3
  invoke void @_ZNSt15__uniq_ptr_dataIN9grpc_core19ServiceConfigParser12ParsedConfigESt14default_deleteIS2_ELb1ELb1EECI2St15__uniq_ptr_implIS2_S4_EIS3_INS0_8internal31ClientChannelMethodParsedConfigEEEEPS2_OT_(ptr noundef nonnull align 8 dereferenceable(8) %_M_t, ptr noundef %call, ptr noundef nonnull align 1 dereferenceable(1) %call2)
          to label %invoke.cont unwind label %terminate.lpad

invoke.cont:                                      ; preds = %entry
  ret void

terminate.lpad:                                   ; preds = %entry
  %2 = landingpad { ptr, i32 }
          catch ptr null
  %3 = extractvalue { ptr, i32 } %2, 0
  call void @__clang_call_terminate(ptr %3) #15
  unreachable
}

; Function Attrs: mustprogress nounwind uwtable
define linkonce_odr void @_ZNSt10unique_ptrIN9grpc_core8internal31ClientChannelMethodParsedConfigESt14default_deleteIS2_EED2Ev(ptr noundef nonnull align 8 dereferenceable(8) %this) unnamed_addr #5 comdat align 2 {
entry:
  %this.addr = alloca ptr, align 8
  %__ptr = alloca ptr, align 8
  store ptr %this, ptr %this.addr, align 8
  %this1 = load ptr, ptr %this.addr, align 8
  %_M_t = getelementptr inbounds %"class.std::unique_ptr.124", ptr %this1, i32 0, i32 0
  %call = call noundef nonnull align 8 dereferenceable(8) ptr @_ZNSt15__uniq_ptr_implIN9grpc_core8internal31ClientChannelMethodParsedConfigESt14default_deleteIS2_EE6_M_ptrEv(ptr noundef nonnull align 8 dereferenceable(8) %_M_t) #3
  store ptr %call, ptr %__ptr, align 8
  %0 = load ptr, ptr %__ptr, align 8
  %1 = load ptr, ptr %0, align 8
  %cmp = icmp ne ptr %1, null
  br i1 %cmp, label %if.then, label %if.end

if.then:                                          ; preds = %entry
  %call2 = call noundef nonnull align 1 dereferenceable(1) ptr @_ZNSt10unique_ptrIN9grpc_core8internal31ClientChannelMethodParsedConfigESt14default_deleteIS2_EE11get_deleterEv(ptr noundef nonnull align 8 dereferenceable(8) %this1) #3
  %2 = load ptr, ptr %__ptr, align 8
  %3 = load ptr, ptr %2, align 8
  call void @_ZNKSt14default_deleteIN9grpc_core8internal31ClientChannelMethodParsedConfigEEclEPS2_(ptr noundef nonnull align 1 dereferenceable(1) %call2, ptr noundef %3)
  br label %if.end

if.end:                                           ; preds = %if.then, %entry
  %4 = load ptr, ptr %__ptr, align 8
  store ptr null, ptr %4, align 8
  ret void
}

; Function Attrs: mustprogress nounwind uwtable
define linkonce_odr void @_ZN9grpc_core8internal32ClientChannelServiceConfigParserD2Ev(ptr noundef nonnull align 8 dereferenceable(8) %this) unnamed_addr #5 comdat align 2 {
entry:
  %this.addr = alloca ptr, align 8
  store ptr %this, ptr %this.addr, align 8
  %this1 = load ptr, ptr %this.addr, align 8
  call void @_ZN9grpc_core19ServiceConfigParser6ParserD2Ev(ptr noundef nonnull align 8 dereferenceable(8) %this1) #3
  ret void
}

; Function Attrs: mustprogress nounwind uwtable
define linkonce_odr void @_ZN9grpc_core8internal32ClientChannelServiceConfigParserD0Ev(ptr noundef nonnull align 8 dereferenceable(8) %this) unnamed_addr #5 comdat align 2 {
entry:
  %this.addr = alloca ptr, align 8
  store ptr %this, ptr %this.addr, align 8
  %this1 = load ptr, ptr %this.addr, align 8
  call void @_ZN9grpc_core8internal32ClientChannelServiceConfigParserD2Ev(ptr noundef nonnull align 8 dereferenceable(8) %this1) #3
  call void @_ZdlPv(ptr noundef %this1) #14
  ret void
}

; Function Attrs: mustprogress nounwind uwtable
define linkonce_odr { i64, ptr } @_ZNK9grpc_core8internal32ClientChannelServiceConfigParser4nameEv(ptr noundef nonnull align 8 dereferenceable(8) %this) unnamed_addr #5 comdat align 2 {
entry:
  %retval = alloca %"class.std::basic_string_view", align 8
  %this.addr = alloca ptr, align 8
  store ptr %this, ptr %this.addr, align 8
  %call = call { i64, ptr } @_ZN9grpc_core8internal32ClientChannelServiceConfigParser11parser_nameEv()
  %0 = getelementptr inbounds { i64, ptr }, ptr %retval, i32 0, i32 0
  %1 = extractvalue { i64, ptr } %call, 0
  store i64 %1, ptr %0, align 8
  %2 = getelementptr inbounds { i64, ptr }, ptr %retval, i32 0, i32 1
  %3 = extractvalue { i64, ptr } %call, 1
  store ptr %3, ptr %2, align 8
  %4 = load { i64, ptr }, ptr %retval, align 8
  ret { i64, ptr } %4
}

; Function Attrs: uwtable
define internal void @__cxx_global_var_init.12() #0 section ".text.startup" comdat($_ZN9grpc_core19NoDestructSingletonINS_11json_detail10AutoLoaderINSt7__cxx1112basic_stringIcSt11char_traitsIcESaIcEEEEEE6value_E) {
entry:
  %0 = load i8, ptr @_ZGVN9grpc_core19NoDestructSingletonINS_11json_detail10AutoLoaderINSt7__cxx1112basic_stringIcSt11char_traitsIcESaIcEEEEEE6value_E, align 8
  %guard.uninitialized = icmp eq i8 %0, 0
  br i1 %guard.uninitialized, label %init.check, label %init.end

init.check:                                       ; preds = %entry
  store i8 1, ptr @_ZGVN9grpc_core19NoDestructSingletonINS_11json_detail10AutoLoaderINSt7__cxx1112basic_stringIcSt11char_traitsIcESaIcEEEEEE6value_E, align 8
  call void @_ZN9grpc_core10NoDestructINS_11json_detail10AutoLoaderINSt7__cxx1112basic_stringIcSt11char_traitsIcESaIcEEEEEEC2IJEEEDpOT_(ptr noundef nonnull align 8 dereferenceable(8) @_ZN9grpc_core19NoDestructSingletonINS_11json_detail10AutoLoaderINSt7__cxx1112basic_stringIcSt11char_traitsIcESaIcEEEEEE6value_E)
  br label %init.end

init.end:                                         ; preds = %init.check, %entry
  ret void
}

; Function Attrs: mustprogress uwtable
define linkonce_odr void @_ZN9grpc_core10NoDestructINS_11json_detail10AutoLoaderINSt7__cxx1112basic_stringIcSt11char_traitsIcESaIcEEEEEEC2IJEEEDpOT_(ptr noundef nonnull align 8 dereferenceable(8) %this) unnamed_addr #4 comdat align 2 {
entry:
  %this.addr = alloca ptr, align 8
  store ptr %this, ptr %this.addr, align 8
  %this1 = load ptr, ptr %this.addr, align 8
  %space_ = getelementptr inbounds %"class.grpc_core::NoDestruct", ptr %this1, i32 0, i32 0
  call void @_ZN9grpc_core9ConstructINS_11json_detail10AutoLoaderINSt7__cxx1112basic_stringIcSt11char_traitsIcESaIcEEEEEJEEEvPT_DpOT0_(ptr noundef %space_)
  ret void
}

; Function Attrs: uwtable
define internal void @__cxx_global_var_init.13() #0 section ".text.startup" comdat($_ZN9grpc_core19NoDestructSingletonINS_11json_detail10AutoLoaderISt8optionalINSt7__cxx1112basic_stringIcSt11char_traitsIcESaIcEEEEEEE6value_E) {
entry:
  %0 = load i8, ptr @_ZGVN9grpc_core19NoDestructSingletonINS_11json_detail10AutoLoaderISt8optionalINSt7__cxx1112basic_stringIcSt11char_traitsIcESaIcEEEEEEE6value_E, align 8
  %guard.uninitialized = icmp eq i8 %0, 0
  br i1 %guard.uninitialized, label %init.check, label %init.end

init.check:                                       ; preds = %entry
  store i8 1, ptr @_ZGVN9grpc_core19NoDestructSingletonINS_11json_detail10AutoLoaderISt8optionalINSt7__cxx1112basic_stringIcSt11char_traitsIcESaIcEEEEEEE6value_E, align 8
  call void @_ZN9grpc_core10NoDestructINS_11json_detail10AutoLoaderISt8optionalINSt7__cxx1112basic_stringIcSt11char_traitsIcESaIcEEEEEEEC2IJEEEDpOT_(ptr noundef nonnull align 8 dereferenceable(8) @_ZN9grpc_core19NoDestructSingletonINS_11json_detail10AutoLoaderISt8optionalINSt7__cxx1112basic_stringIcSt11char_traitsIcESaIcEEEEEEE6value_E)
  br label %init.end

init.end:                                         ; preds = %init.check, %entry
  ret void
}

; Function Attrs: mustprogress uwtable
define linkonce_odr void @_ZN9grpc_core10NoDestructINS_11json_detail10AutoLoaderISt8optionalINSt7__cxx1112basic_stringIcSt11char_traitsIcESaIcEEEEEEEC2IJEEEDpOT_(ptr noundef nonnull align 8 dereferenceable(8) %this) unnamed_addr #4 comdat align 2 {
entry:
  %this.addr = alloca ptr, align 8
  store ptr %this, ptr %this.addr, align 8
  %this1 = load ptr, ptr %this.addr, align 8
  %space_ = getelementptr inbounds %"class.grpc_core::NoDestruct.132", ptr %this1, i32 0, i32 0
  call void @_ZN9grpc_core9ConstructINS_11json_detail10AutoLoaderISt8optionalINSt7__cxx1112basic_stringIcSt11char_traitsIcESaIcEEEEEEJEEEvPT_DpOT0_(ptr noundef %space_)
  ret void
}

; Function Attrs: uwtable
define internal void @__cxx_global_var_init.14() #0 section ".text.startup" comdat($_ZN9grpc_core19NoDestructSingletonINS_11json_detail10AutoLoaderINS_8internal31ClientChannelGlobalParsedConfig17HealthCheckConfigEEEE6value_E) {
entry:
  %0 = load i8, ptr @_ZGVN9grpc_core19NoDestructSingletonINS_11json_detail10AutoLoaderINS_8internal31ClientChannelGlobalParsedConfig17HealthCheckConfigEEEE6value_E, align 8
  %guard.uninitialized = icmp eq i8 %0, 0
  br i1 %guard.uninitialized, label %init.check, label %init.end

init.check:                                       ; preds = %entry
  store i8 1, ptr @_ZGVN9grpc_core19NoDestructSingletonINS_11json_detail10AutoLoaderINS_8internal31ClientChannelGlobalParsedConfig17HealthCheckConfigEEEE6value_E, align 8
  call void @_ZN9grpc_core10NoDestructINS_11json_detail10AutoLoaderINS_8internal31ClientChannelGlobalParsedConfig17HealthCheckConfigEEEEC2IJEEEDpOT_(ptr noundef nonnull align 8 dereferenceable(8) @_ZN9grpc_core19NoDestructSingletonINS_11json_detail10AutoLoaderINS_8internal31ClientChannelGlobalParsedConfig17HealthCheckConfigEEEE6value_E)
  br label %init.end

init.end:                                         ; preds = %init.check, %entry
  ret void
}

; Function Attrs: mustprogress uwtable
define linkonce_odr void @_ZN9grpc_core10NoDestructINS_11json_detail10AutoLoaderINS_8internal31ClientChannelGlobalParsedConfig17HealthCheckConfigEEEEC2IJEEEDpOT_(ptr noundef nonnull align 8 dereferenceable(8) %this) unnamed_addr #4 comdat align 2 {
entry:
  %this.addr = alloca ptr, align 8
  store ptr %this, ptr %this.addr, align 8
  %this1 = load ptr, ptr %this.addr, align 8
  %space_ = getelementptr inbounds %"class.grpc_core::NoDestruct.133", ptr %this1, i32 0, i32 0
  call void @_ZN9grpc_core9ConstructINS_11json_detail10AutoLoaderINS_8internal31ClientChannelGlobalParsedConfig17HealthCheckConfigEEEJEEEvPT_DpOT0_(ptr noundef %space_)
  ret void
}

; Function Attrs: uwtable
define internal void @__cxx_global_var_init.15() #0 section ".text.startup" comdat($_ZN9grpc_core19NoDestructSingletonINS_11json_detail10AutoLoaderINS_8DurationEEEE6value_E) {
entry:
  %0 = load i8, ptr @_ZGVN9grpc_core19NoDestructSingletonINS_11json_detail10AutoLoaderINS_8DurationEEEE6value_E, align 8
  %guard.uninitialized = icmp eq i8 %0, 0
  br i1 %guard.uninitialized, label %init.check, label %init.end

init.check:                                       ; preds = %entry
  store i8 1, ptr @_ZGVN9grpc_core19NoDestructSingletonINS_11json_detail10AutoLoaderINS_8DurationEEEE6value_E, align 8
  call void @_ZN9grpc_core10NoDestructINS_11json_detail10AutoLoaderINS_8DurationEEEEC2IJEEEDpOT_(ptr noundef nonnull align 8 dereferenceable(8) @_ZN9grpc_core19NoDestructSingletonINS_11json_detail10AutoLoaderINS_8DurationEEEE6value_E)
  br label %init.end

init.end:                                         ; preds = %init.check, %entry
  ret void
}

; Function Attrs: mustprogress uwtable
define linkonce_odr void @_ZN9grpc_core10NoDestructINS_11json_detail10AutoLoaderINS_8DurationEEEEC2IJEEEDpOT_(ptr noundef nonnull align 8 dereferenceable(8) %this) unnamed_addr #4 comdat align 2 {
entry:
  %this.addr = alloca ptr, align 8
  store ptr %this, ptr %this.addr, align 8
  %this1 = load ptr, ptr %this.addr, align 8
  %space_ = getelementptr inbounds %"class.grpc_core::NoDestruct.134", ptr %this1, i32 0, i32 0
  call void @_ZN9grpc_core9ConstructINS_11json_detail10AutoLoaderINS_8DurationEEEJEEEvPT_DpOT0_(ptr noundef %space_)
  ret void
}

; Function Attrs: uwtable
define internal void @__cxx_global_var_init.16() #0 section ".text.startup" comdat($_ZN9grpc_core19NoDestructSingletonINS_11json_detail10AutoLoaderIbEEE6value_E) {
entry:
  %0 = load i8, ptr @_ZGVN9grpc_core19NoDestructSingletonINS_11json_detail10AutoLoaderIbEEE6value_E, align 8
  %guard.uninitialized = icmp eq i8 %0, 0
  br i1 %guard.uninitialized, label %init.check, label %init.end

init.check:                                       ; preds = %entry
  store i8 1, ptr @_ZGVN9grpc_core19NoDestructSingletonINS_11json_detail10AutoLoaderIbEEE6value_E, align 8
  call void @_ZN9grpc_core10NoDestructINS_11json_detail10AutoLoaderIbEEEC2IJEEEDpOT_(ptr noundef nonnull align 8 dereferenceable(8) @_ZN9grpc_core19NoDestructSingletonINS_11json_detail10AutoLoaderIbEEE6value_E)
  br label %init.end

init.end:                                         ; preds = %init.check, %entry
  ret void
}

; Function Attrs: mustprogress uwtable
define linkonce_odr void @_ZN9grpc_core10NoDestructINS_11json_detail10AutoLoaderIbEEEC2IJEEEDpOT_(ptr noundef nonnull align 8 dereferenceable(8) %this) unnamed_addr #4 comdat align 2 {
entry:
  %this.addr = alloca ptr, align 8
  store ptr %this, ptr %this.addr, align 8
  %this1 = load ptr, ptr %this.addr, align 8
  %space_ = getelementptr inbounds %"class.grpc_core::NoDestruct.135", ptr %this1, i32 0, i32 0
  call void @_ZN9grpc_core9ConstructINS_11json_detail10AutoLoaderIbEEJEEEvPT_DpOT0_(ptr noundef %space_)
  ret void
}

; Function Attrs: uwtable
define internal void @__cxx_global_var_init.17() #0 section ".text.startup" comdat($_ZN9grpc_core19NoDestructSingletonINS_11json_detail10AutoLoaderISt8optionalIbEEEE6value_E) {
entry:
  %0 = load i8, ptr @_ZGVN9grpc_core19NoDestructSingletonINS_11json_detail10AutoLoaderISt8optionalIbEEEE6value_E, align 8
  %guard.uninitialized = icmp eq i8 %0, 0
  br i1 %guard.uninitialized, label %init.check, label %init.end

init.check:                                       ; preds = %entry
  store i8 1, ptr @_ZGVN9grpc_core19NoDestructSingletonINS_11json_detail10AutoLoaderISt8optionalIbEEEE6value_E, align 8
  call void @_ZN9grpc_core10NoDestructINS_11json_detail10AutoLoaderISt8optionalIbEEEEC2IJEEEDpOT_(ptr noundef nonnull align 8 dereferenceable(8) @_ZN9grpc_core19NoDestructSingletonINS_11json_detail10AutoLoaderISt8optionalIbEEEE6value_E)
  br label %init.end

init.end:                                         ; preds = %init.check, %entry
  ret void
}

; Function Attrs: mustprogress uwtable
define linkonce_odr void @_ZN9grpc_core10NoDestructINS_11json_detail10AutoLoaderISt8optionalIbEEEEC2IJEEEDpOT_(ptr noundef nonnull align 8 dereferenceable(8) %this) unnamed_addr #4 comdat align 2 {
entry:
  %this.addr = alloca ptr, align 8
  store ptr %this, ptr %this.addr, align 8
  %this1 = load ptr, ptr %this.addr, align 8
  %space_ = getelementptr inbounds %"class.grpc_core::NoDestruct.136", ptr %this1, i32 0, i32 0
  call void @_ZN9grpc_core9ConstructINS_11json_detail10AutoLoaderISt8optionalIbEEEJEEEvPT_DpOT0_(ptr noundef %space_)
  ret void
}

; Function Attrs: uwtable
define internal void @__cxx_global_var_init.18() #0 section ".text.startup" comdat($_ZN9grpc_core19NoDestructSingletonINS_11json_detail10AutoLoaderINS_8internal31ClientChannelGlobalParsedConfigEEEE6value_E) {
entry:
  %0 = load i8, ptr @_ZGVN9grpc_core19NoDestructSingletonINS_11json_detail10AutoLoaderINS_8internal31ClientChannelGlobalParsedConfigEEEE6value_E, align 8
  %guard.uninitialized = icmp eq i8 %0, 0
  br i1 %guard.uninitialized, label %init.check, label %init.end

init.check:                                       ; preds = %entry
  store i8 1, ptr @_ZGVN9grpc_core19NoDestructSingletonINS_11json_detail10AutoLoaderINS_8internal31ClientChannelGlobalParsedConfigEEEE6value_E, align 8
  call void @_ZN9grpc_core10NoDestructINS_11json_detail10AutoLoaderINS_8internal31ClientChannelGlobalParsedConfigEEEEC2IJEEEDpOT_(ptr noundef nonnull align 8 dereferenceable(8) @_ZN9grpc_core19NoDestructSingletonINS_11json_detail10AutoLoaderINS_8internal31ClientChannelGlobalParsedConfigEEEE6value_E)
  br label %init.end

init.end:                                         ; preds = %init.check, %entry
  ret void
}

; Function Attrs: mustprogress uwtable
define linkonce_odr void @_ZN9grpc_core10NoDestructINS_11json_detail10AutoLoaderINS_8internal31ClientChannelGlobalParsedConfigEEEEC2IJEEEDpOT_(ptr noundef nonnull align 8 dereferenceable(8) %this) unnamed_addr #4 comdat align 2 {
entry:
  %this.addr = alloca ptr, align 8
  store ptr %this, ptr %this.addr, align 8
  %this1 = load ptr, ptr %this.addr, align 8
  %space_ = getelementptr inbounds %"class.grpc_core::NoDestruct.137", ptr %this1, i32 0, i32 0
  call void @_ZN9grpc_core9ConstructINS_11json_detail10AutoLoaderINS_8internal31ClientChannelGlobalParsedConfigEEEJEEEvPT_DpOT0_(ptr noundef %space_)
  ret void
}

; Function Attrs: uwtable
define internal void @__cxx_global_var_init.19() #0 section ".text.startup" comdat($_ZN9grpc_core19NoDestructSingletonINS_11json_detail10AutoLoaderISt10unique_ptrINS_8internal31ClientChannelGlobalParsedConfigESt14default_deleteIS5_EEEEE6value_E) {
entry:
  %0 = load i8, ptr @_ZGVN9grpc_core19NoDestructSingletonINS_11json_detail10AutoLoaderISt10unique_ptrINS_8internal31ClientChannelGlobalParsedConfigESt14default_deleteIS5_EEEEE6value_E, align 8
  %guard.uninitialized = icmp eq i8 %0, 0
  br i1 %guard.uninitialized, label %init.check, label %init.end

init.check:                                       ; preds = %entry
  store i8 1, ptr @_ZGVN9grpc_core19NoDestructSingletonINS_11json_detail10AutoLoaderISt10unique_ptrINS_8internal31ClientChannelGlobalParsedConfigESt14default_deleteIS5_EEEEE6value_E, align 8
  call void @_ZN9grpc_core10NoDestructINS_11json_detail10AutoLoaderISt10unique_ptrINS_8internal31ClientChannelGlobalParsedConfigESt14default_deleteIS5_EEEEEC2IJEEEDpOT_(ptr noundef nonnull align 8 dereferenceable(8) @_ZN9grpc_core19NoDestructSingletonINS_11json_detail10AutoLoaderISt10unique_ptrINS_8internal31ClientChannelGlobalParsedConfigESt14default_deleteIS5_EEEEE6value_E)
  br label %init.end

init.end:                                         ; preds = %init.check, %entry
  ret void
}

; Function Attrs: mustprogress uwtable
define linkonce_odr void @_ZN9grpc_core10NoDestructINS_11json_detail10AutoLoaderISt10unique_ptrINS_8internal31ClientChannelGlobalParsedConfigESt14default_deleteIS5_EEEEEC2IJEEEDpOT_(ptr noundef nonnull align 8 dereferenceable(8) %this) unnamed_addr #4 comdat align 2 {
entry:
  %this.addr = alloca ptr, align 8
  store ptr %this, ptr %this.addr, align 8
  %this1 = load ptr, ptr %this.addr, align 8
  %space_ = getelementptr inbounds %"class.grpc_core::NoDestruct.138", ptr %this1, i32 0, i32 0
  call void @_ZN9grpc_core9ConstructINS_11json_detail10AutoLoaderISt10unique_ptrINS_8internal31ClientChannelGlobalParsedConfigESt14default_deleteIS5_EEEEJEEEvPT_DpOT0_(ptr noundef %space_)
  ret void
}

; Function Attrs: uwtable
define internal void @__cxx_global_var_init.20() #0 section ".text.startup" comdat($_ZN9grpc_core19NoDestructSingletonINS_11json_detail10AutoLoaderINS_8internal31ClientChannelMethodParsedConfigEEEE6value_E) {
entry:
  %0 = load i8, ptr @_ZGVN9grpc_core19NoDestructSingletonINS_11json_detail10AutoLoaderINS_8internal31ClientChannelMethodParsedConfigEEEE6value_E, align 8
  %guard.uninitialized = icmp eq i8 %0, 0
  br i1 %guard.uninitialized, label %init.check, label %init.end

init.check:                                       ; preds = %entry
  store i8 1, ptr @_ZGVN9grpc_core19NoDestructSingletonINS_11json_detail10AutoLoaderINS_8internal31ClientChannelMethodParsedConfigEEEE6value_E, align 8
  call void @_ZN9grpc_core10NoDestructINS_11json_detail10AutoLoaderINS_8internal31ClientChannelMethodParsedConfigEEEEC2IJEEEDpOT_(ptr noundef nonnull align 8 dereferenceable(8) @_ZN9grpc_core19NoDestructSingletonINS_11json_detail10AutoLoaderINS_8internal31ClientChannelMethodParsedConfigEEEE6value_E)
  br label %init.end

init.end:                                         ; preds = %init.check, %entry
  ret void
}

; Function Attrs: mustprogress uwtable
define linkonce_odr void @_ZN9grpc_core10NoDestructINS_11json_detail10AutoLoaderINS_8internal31ClientChannelMethodParsedConfigEEEEC2IJEEEDpOT_(ptr noundef nonnull align 8 dereferenceable(8) %this) unnamed_addr #4 comdat align 2 {
entry:
  %this.addr = alloca ptr, align 8
  store ptr %this, ptr %this.addr, align 8
  %this1 = load ptr, ptr %this.addr, align 8
  %space_ = getelementptr inbounds %"class.grpc_core::NoDestruct.139", ptr %this1, i32 0, i32 0
  call void @_ZN9grpc_core9ConstructINS_11json_detail10AutoLoaderINS_8internal31ClientChannelMethodParsedConfigEEEJEEEvPT_DpOT0_(ptr noundef %space_)
  ret void
}

; Function Attrs: uwtable
define internal void @__cxx_global_var_init.21() #0 section ".text.startup" comdat($_ZN9grpc_core19NoDestructSingletonINS_11json_detail10AutoLoaderISt10unique_ptrINS_8internal31ClientChannelMethodParsedConfigESt14default_deleteIS5_EEEEE6value_E) {
entry:
  %0 = load i8, ptr @_ZGVN9grpc_core19NoDestructSingletonINS_11json_detail10AutoLoaderISt10unique_ptrINS_8internal31ClientChannelMethodParsedConfigESt14default_deleteIS5_EEEEE6value_E, align 8
  %guard.uninitialized = icmp eq i8 %0, 0
  br i1 %guard.uninitialized, label %init.check, label %init.end

init.check:                                       ; preds = %entry
  store i8 1, ptr @_ZGVN9grpc_core19NoDestructSingletonINS_11json_detail10AutoLoaderISt10unique_ptrINS_8internal31ClientChannelMethodParsedConfigESt14default_deleteIS5_EEEEE6value_E, align 8
  call void @_ZN9grpc_core10NoDestructINS_11json_detail10AutoLoaderISt10unique_ptrINS_8internal31ClientChannelMethodParsedConfigESt14default_deleteIS5_EEEEEC2IJEEEDpOT_(ptr noundef nonnull align 8 dereferenceable(8) @_ZN9grpc_core19NoDestructSingletonINS_11json_detail10AutoLoaderISt10unique_ptrINS_8internal31ClientChannelMethodParsedConfigESt14default_deleteIS5_EEEEE6value_E)
  br label %init.end

init.end:                                         ; preds = %init.check, %entry
  ret void
}

; Function Attrs: mustprogress uwtable
define linkonce_odr void @_ZN9grpc_core10NoDestructINS_11json_detail10AutoLoaderISt10unique_ptrINS_8internal31ClientChannelMethodParsedConfigESt14default_deleteIS5_EEEEEC2IJEEEDpOT_(ptr noundef nonnull align 8 dereferenceable(8) %this) unnamed_addr #4 comdat align 2 {
entry:
  %this.addr = alloca ptr, align 8
  store ptr %this, ptr %this.addr, align 8
  %this1 = load ptr, ptr %this.addr, align 8
  %space_ = getelementptr inbounds %"class.grpc_core::NoDestruct.140", ptr %this1, i32 0, i32 0
  call void @_ZN9grpc_core9ConstructINS_11json_detail10AutoLoaderISt10unique_ptrINS_8internal31ClientChannelMethodParsedConfigESt14default_deleteIS5_EEEEJEEEvPT_DpOT0_(ptr noundef %space_)
  ret void
}

; Function Attrs: mustprogress nounwind uwtable
define linkonce_odr noundef ptr @_ZNKSt6atomicIPN9grpc_core17CoreConfigurationEE4loadESt12memory_order(ptr noundef nonnull align 8 dereferenceable(8) %this, i32 noundef %__m) #5 comdat align 2 personality ptr @__gxx_personality_v0 {
entry:
  %this.addr.i = alloca ptr, align 8
  %__m.addr.i = alloca i32, align 4
  %__b.i = alloca i32, align 4
  %atomic-temp.i = alloca ptr, align 8
  %this.addr = alloca ptr, align 8
  %__m.addr = alloca i32, align 4
  store ptr %this, ptr %this.addr, align 8
  store i32 %__m, ptr %__m.addr, align 4
  %this1 = load ptr, ptr %this.addr, align 8
  %_M_b = getelementptr inbounds %"struct.std::atomic", ptr %this1, i32 0, i32 0
  %0 = load i32, ptr %__m.addr, align 4
  store ptr %_M_b, ptr %this.addr.i, align 8
  store i32 %0, ptr %__m.addr.i, align 4
  %this1.i = load ptr, ptr %this.addr.i, align 8
  %1 = load i32, ptr %__m.addr.i, align 4
  %call.i = invoke noundef i32 @_ZStanSt12memory_orderSt23__memory_order_modifier(i32 noundef %1, i32 noundef 65535)
          to label %invoke.cont.i unwind label %terminate.lpad.i

invoke.cont.i:                                    ; preds = %entry
  store i32 %call.i, ptr %__b.i, align 4
  %2 = load i32, ptr %__m.addr.i, align 4
  switch i32 %2, label %monotonic.i [
    i32 1, label %acquire.i
    i32 2, label %acquire.i
    i32 5, label %seqcst.i
  ]

monotonic.i:                                      ; preds = %invoke.cont.i
  %3 = load atomic i64, ptr %this1.i monotonic, align 8
  store i64 %3, ptr %atomic-temp.i, align 8
  br label %_ZNKSt13__atomic_baseIPN9grpc_core17CoreConfigurationEE4loadESt12memory_order.exit

acquire.i:                                        ; preds = %invoke.cont.i, %invoke.cont.i
  %4 = load atomic i64, ptr %this1.i acquire, align 8
  store i64 %4, ptr %atomic-temp.i, align 8
  br label %_ZNKSt13__atomic_baseIPN9grpc_core17CoreConfigurationEE4loadESt12memory_order.exit

seqcst.i:                                         ; preds = %invoke.cont.i
  %5 = load atomic i64, ptr %this1.i seq_cst, align 8
  store i64 %5, ptr %atomic-temp.i, align 8
  br label %_ZNKSt13__atomic_baseIPN9grpc_core17CoreConfigurationEE4loadESt12memory_order.exit

terminate.lpad.i:                                 ; preds = %entry
  %6 = landingpad { ptr, i32 }
          catch ptr null
  %7 = extractvalue { ptr, i32 } %6, 0
  call void @__clang_call_terminate(ptr %7) #15
  unreachable

_ZNKSt13__atomic_baseIPN9grpc_core17CoreConfigurationEE4loadESt12memory_order.exit: ; preds = %seqcst.i, %acquire.i, %monotonic.i
  %8 = load ptr, ptr %atomic-temp.i, align 8
  ret ptr %8
}

declare noundef nonnull align 8 dereferenceable(776) ptr @_ZN9grpc_core17CoreConfiguration19BuildNewAndMaybeSetEv() #1

; Function Attrs: mustprogress nounwind uwtable
define linkonce_odr noundef i32 @_ZStanSt12memory_orderSt23__memory_order_modifier(i32 noundef %__m, i32 noundef %__mod) #5 comdat {
entry:
  %__m.addr = alloca i32, align 4
  %__mod.addr = alloca i32, align 4
  store i32 %__m, ptr %__m.addr, align 4
  store i32 %__mod, ptr %__mod.addr, align 4
  %0 = load i32, ptr %__m.addr, align 4
  %1 = load i32, ptr %__mod.addr, align 4
  %and = and i32 %0, %1
  ret i32 %and
}

; Function Attrs: noreturn nounwind uwtable
define linkonce_odr hidden void @__clang_call_terminate(ptr noundef %0) #7 comdat {
  %2 = call ptr @__cxa_begin_catch(ptr %0) #3
  call void @_ZSt9terminatev() #15
  unreachable
}

declare ptr @__cxa_begin_catch(ptr)

declare void @_ZSt9terminatev()

; Function Attrs: mustprogress nounwind uwtable
define linkonce_odr noundef i64 @_ZNSt11char_traitsIcE6lengthEPKc(ptr noundef %__s) #5 comdat align 2 {
entry:
  %__s.addr = alloca ptr, align 8
  store ptr %__s, ptr %__s.addr, align 8
  %0 = load ptr, ptr %__s.addr, align 8
  %call = call i64 @strlen(ptr noundef %0) #3
  ret i64 %call
}

; Function Attrs: nounwind
declare i64 @strlen(ptr noundef) #2

declare void @_ZN9grpc_core16ValidationErrors9PushFieldESt17basic_string_viewIcSt11char_traitsIcEE(ptr noundef nonnull align 8 dereferenceable(72), i64, ptr) #1

; Function Attrs: nocallback nofree nounwind willreturn memory(argmem: readwrite)
declare void @llvm.memcpy.p0.p0.i64(ptr noalias nocapture writeonly, ptr noalias nocapture readonly, i64, i1 immarg) #8

; Function Attrs: mustprogress uwtable
define linkonce_odr noundef nonnull align 8 dereferenceable(48) ptr @_ZSt3getISt3mapINSt7__cxx1112basic_stringIcSt11char_traitsIcESaIcEEEN9grpc_core12experimental4JsonESt4lessIS6_ESaISt4pairIKS6_S9_EEEJSt9monostatebNS9_11NumberValueES6_SG_St6vectorIS9_SaIS9_EEEERKT_RKSt7variantIJDpT0_EE(ptr noundef nonnull align 8 dereferenceable(49) %__v) #4 comdat {
entry:
  %__v.addr = alloca ptr, align 8
  %__n = alloca i64, align 8
  store ptr %__v, ptr %__v.addr, align 8
  store i64 4, ptr %__n, align 8
  %0 = load ptr, ptr %__v.addr, align 8
  %call = call noundef nonnull align 8 dereferenceable(48) ptr @_ZSt3getILm4EJSt9monostatebN9grpc_core12experimental4Json11NumberValueENSt7__cxx1112basic_stringIcSt11char_traitsIcESaIcEEESt3mapISA_S3_St4lessISA_ESaISt4pairIKSA_S3_EEESt6vectorIS3_SaIS3_EEEERKNSt19variant_alternativeIXT_ESt7variantIJDpT0_EEE4typeERKSQ_(ptr noundef nonnull align 8 dereferenceable(49) %0)
  ret ptr %call
}

; Function Attrs: mustprogress uwtable
define linkonce_odr noundef nonnull align 8 dereferenceable(48) ptr @_ZSt3getILm4EJSt9monostatebN9grpc_core12experimental4Json11NumberValueENSt7__cxx1112basic_stringIcSt11char_traitsIcESaIcEEESt3mapISA_S3_St4lessISA_ESaISt4pairIKSA_S3_EEESt6vectorIS3_SaIS3_EEEERKNSt19variant_alternativeIXT_ESt7variantIJDpT0_EEE4typeERKSQ_(ptr noundef nonnull align 8 dereferenceable(49) %__v) #4 comdat {
entry:
  %__v.addr = alloca ptr, align 8
  store ptr %__v, ptr %__v.addr, align 8
  %0 = load ptr, ptr %__v.addr, align 8
  %call = call noundef i64 @_ZNKSt7variantIJSt9monostatebN9grpc_core12experimental4Json11NumberValueENSt7__cxx1112basic_stringIcSt11char_traitsIcESaIcEEESt3mapISA_S3_St4lessISA_ESaISt4pairIKSA_S3_EEESt6vectorIS3_SaIS3_EEEE5indexEv(ptr noundef nonnull align 8 dereferenceable(49) %0) #3
  %cmp = icmp ne i64 %call, 4
  br i1 %cmp, label %if.then, label %if.end

if.then:                                          ; preds = %entry
  %1 = load ptr, ptr %__v.addr, align 8
  %call1 = call noundef zeroext i1 @_ZNKSt7variantIJSt9monostatebN9grpc_core12experimental4Json11NumberValueENSt7__cxx1112basic_stringIcSt11char_traitsIcESaIcEEESt3mapISA_S3_St4lessISA_ESaISt4pairIKSA_S3_EEESt6vectorIS3_SaIS3_EEEE22valueless_by_exceptionEv(ptr noundef nonnull align 8 dereferenceable(49) %1) #3
  call void @_ZSt26__throw_bad_variant_accessb(i1 noundef zeroext %call1)
  br label %if.end

if.end:                                           ; preds = %if.then, %entry
  %2 = load ptr, ptr %__v.addr, align 8
  %call2 = call noundef nonnull align 8 dereferenceable(48) ptr @_ZNSt8__detail9__variant5__getILm4ERKSt7variantIJSt9monostatebN9grpc_core12experimental4Json11NumberValueENSt7__cxx1112basic_stringIcSt11char_traitsIcESaIcEEESt3mapISD_S6_St4lessISD_ESaISt4pairIKSD_S6_EEESt6vectorIS6_SaIS6_EEEEEEDcOT0_(ptr noundef nonnull align 8 dereferenceable(49) %2) #3
  ret ptr %call2
}

; Function Attrs: mustprogress nounwind uwtable
define linkonce_odr noundef i64 @_ZNKSt7variantIJSt9monostatebN9grpc_core12experimental4Json11NumberValueENSt7__cxx1112basic_stringIcSt11char_traitsIcESaIcEEESt3mapISA_S3_St4lessISA_ESaISt4pairIKSA_S3_EEESt6vectorIS3_SaIS3_EEEE5indexEv(ptr noundef nonnull align 8 dereferenceable(49) %this) #5 comdat align 2 {
entry:
  %this.addr = alloca ptr, align 8
  store ptr %this, ptr %this.addr, align 8
  %this1 = load ptr, ptr %this.addr, align 8
  %_M_index = getelementptr inbounds %"struct.std::__detail::__variant::_Variant_storage", ptr %this1, i32 0, i32 1
  %0 = load i8, ptr %_M_index, align 8
  %conv = sext i8 %0 to i64
  ret i64 %conv
}

; Function Attrs: mustprogress uwtable
define linkonce_odr void @_ZSt26__throw_bad_variant_accessb(i1 noundef zeroext %__valueless) #4 comdat {
entry:
  %__valueless.addr = alloca i8, align 1
  %frombool = zext i1 %__valueless to i8
  store i8 %frombool, ptr %__valueless.addr, align 1
  %0 = load i8, ptr %__valueless.addr, align 1
  %tobool = trunc i8 %0 to i1
  br i1 %tobool, label %if.then, label %if.else

if.then:                                          ; preds = %entry
  call void @_ZSt26__throw_bad_variant_accessPKc(ptr noundef @.str.22)
  br label %if.end

if.else:                                          ; preds = %entry
  call void @_ZSt26__throw_bad_variant_accessPKc(ptr noundef @.str.23)
  br label %if.end

if.end:                                           ; preds = %if.else, %if.then
  ret void
}

; Function Attrs: mustprogress nounwind uwtable
define linkonce_odr noundef zeroext i1 @_ZNKSt7variantIJSt9monostatebN9grpc_core12experimental4Json11NumberValueENSt7__cxx1112basic_stringIcSt11char_traitsIcESaIcEEESt3mapISA_S3_St4lessISA_ESaISt4pairIKSA_S3_EEESt6vectorIS3_SaIS3_EEEE22valueless_by_exceptionEv(ptr noundef nonnull align 8 dereferenceable(49) %this) #5 comdat align 2 {
entry:
  %this.addr = alloca ptr, align 8
  store ptr %this, ptr %this.addr, align 8
  %this1 = load ptr, ptr %this.addr, align 8
  %call = call noundef zeroext i1 @_ZNKSt8__detail9__variant16_Variant_storageILb0EJSt9monostatebN9grpc_core12experimental4Json11NumberValueENSt7__cxx1112basic_stringIcSt11char_traitsIcESaIcEEESt3mapISC_S5_St4lessISC_ESaISt4pairIKSC_S5_EEESt6vectorIS5_SaIS5_EEEE8_M_validEv(ptr noundef nonnull align 8 dereferenceable(49) %this1) #3
  %lnot = xor i1 %call, true
  ret i1 %lnot
}

; Function Attrs: mustprogress nounwind uwtable
define linkonce_odr noundef nonnull align 8 dereferenceable(48) ptr @_ZNSt8__detail9__variant5__getILm4ERKSt7variantIJSt9monostatebN9grpc_core12experimental4Json11NumberValueENSt7__cxx1112basic_stringIcSt11char_traitsIcESaIcEEESt3mapISD_S6_St4lessISD_ESaISt4pairIKSD_S6_EEESt6vectorIS6_SaIS6_EEEEEEDcOT0_(ptr noundef nonnull align 8 dereferenceable(49) %__v) #5 comdat {
entry:
  %__v.addr = alloca ptr, align 8
  store ptr %__v, ptr %__v.addr, align 8
  %0 = load ptr, ptr %__v.addr, align 8
  %_M_u = getelementptr inbounds %"struct.std::__detail::__variant::_Variant_storage", ptr %0, i32 0, i32 0
  %call = call noundef nonnull align 8 dereferenceable(48) ptr @_ZNSt8__detail9__variant7__get_nILm4ERKNS0_15_Variadic_unionIJSt9monostatebN9grpc_core12experimental4Json11NumberValueENSt7__cxx1112basic_stringIcSt11char_traitsIcESaIcEEESt3mapISD_S6_St4lessISD_ESaISt4pairIKSD_S6_EEESt6vectorIS6_SaIS6_EEEEEEEDcOT0_(ptr noundef nonnull align 8 dereferenceable(48) %_M_u) #3
  ret ptr %call
}

; Function Attrs: mustprogress uwtable
define linkonce_odr void @_ZSt26__throw_bad_variant_accessPKc(ptr noundef %__what) #4 comdat {
entry:
  %__what.addr = alloca ptr, align 8
  store ptr %__what, ptr %__what.addr, align 8
  %exception = call ptr @__cxa_allocate_exception(i64 16) #3
  %0 = load ptr, ptr %__what.addr, align 8
  call void @_ZNSt18bad_variant_accessC2EPKc(ptr noundef nonnull align 8 dereferenceable(16) %exception, ptr noundef %0) #3
  call void @__cxa_throw(ptr %exception, ptr @_ZTISt18bad_variant_access, ptr @_ZNSt18bad_variant_accessD2Ev) #16
  unreachable
}

declare ptr @__cxa_allocate_exception(i64)

; Function Attrs: mustprogress nounwind uwtable
define linkonce_odr void @_ZNSt18bad_variant_accessC2EPKc(ptr noundef nonnull align 8 dereferenceable(16) %this, ptr noundef %__reason) unnamed_addr #5 comdat align 2 {
entry:
  %this.addr = alloca ptr, align 8
  %__reason.addr = alloca ptr, align 8
  store ptr %this, ptr %this.addr, align 8
  store ptr %__reason, ptr %__reason.addr, align 8
  %this1 = load ptr, ptr %this.addr, align 8
  call void @_ZNSt9exceptionC2Ev(ptr noundef nonnull align 8 dereferenceable(8) %this1) #3
  store ptr getelementptr inbounds ({ [5 x ptr] }, ptr @_ZTVSt18bad_variant_access, i32 0, inrange i32 0, i32 2), ptr %this1, align 8
  %_M_reason = getelementptr inbounds %"class.std::bad_variant_access", ptr %this1, i32 0, i32 1
  %0 = load ptr, ptr %__reason.addr, align 8
  store ptr %0, ptr %_M_reason, align 8
  ret void
}

; Function Attrs: mustprogress nounwind uwtable
define linkonce_odr void @_ZNSt18bad_variant_accessD2Ev(ptr noundef nonnull align 8 dereferenceable(16) %this) unnamed_addr #5 comdat align 2 {
entry:
  %this.addr = alloca ptr, align 8
  store ptr %this, ptr %this.addr, align 8
  %this1 = load ptr, ptr %this.addr, align 8
  call void @_ZNSt9exceptionD2Ev(ptr noundef nonnull align 8 dereferenceable(8) %this1) #3
  ret void
}

declare void @__cxa_throw(ptr, ptr, ptr)

; Function Attrs: mustprogress nounwind uwtable
define linkonce_odr void @_ZNSt9exceptionC2Ev(ptr noundef nonnull align 8 dereferenceable(8) %this) unnamed_addr #5 comdat align 2 {
entry:
  %this.addr = alloca ptr, align 8
  store ptr %this, ptr %this.addr, align 8
  %this1 = load ptr, ptr %this.addr, align 8
  store ptr getelementptr inbounds ({ [5 x ptr] }, ptr @_ZTVSt9exception, i32 0, inrange i32 0, i32 2), ptr %this1, align 8
  ret void
}

; Function Attrs: mustprogress nounwind uwtable
define linkonce_odr void @_ZNSt18bad_variant_accessD0Ev(ptr noundef nonnull align 8 dereferenceable(16) %this) unnamed_addr #5 comdat align 2 {
entry:
  %this.addr = alloca ptr, align 8
  store ptr %this, ptr %this.addr, align 8
  %this1 = load ptr, ptr %this.addr, align 8
  call void @_ZNSt18bad_variant_accessD2Ev(ptr noundef nonnull align 8 dereferenceable(16) %this1) #3
  call void @_ZdlPv(ptr noundef %this1) #14
  ret void
}

; Function Attrs: mustprogress nounwind uwtable
define linkonce_odr noundef ptr @_ZNKSt18bad_variant_access4whatEv(ptr noundef nonnull align 8 dereferenceable(16) %this) unnamed_addr #5 comdat align 2 {
entry:
  %this.addr = alloca ptr, align 8
  store ptr %this, ptr %this.addr, align 8
  %this1 = load ptr, ptr %this.addr, align 8
  %_M_reason = getelementptr inbounds %"class.std::bad_variant_access", ptr %this1, i32 0, i32 1
  %0 = load ptr, ptr %_M_reason, align 8
  ret ptr %0
}

; Function Attrs: nobuiltin nounwind
declare void @_ZdlPv(ptr noundef) #9

; Function Attrs: nounwind
declare void @_ZNSt9exceptionD2Ev(ptr noundef nonnull align 8 dereferenceable(8)) unnamed_addr #2

; Function Attrs: mustprogress nounwind uwtable
define linkonce_odr noundef zeroext i1 @_ZNKSt8__detail9__variant16_Variant_storageILb0EJSt9monostatebN9grpc_core12experimental4Json11NumberValueENSt7__cxx1112basic_stringIcSt11char_traitsIcESaIcEEESt3mapISC_S5_St4lessISC_ESaISt4pairIKSC_S5_EEESt6vectorIS5_SaIS5_EEEE8_M_validEv(ptr noundef nonnull align 8 dereferenceable(49) %this) #5 comdat align 2 {
entry:
  %this.addr = alloca ptr, align 8
  store ptr %this, ptr %this.addr, align 8
  %this1 = load ptr, ptr %this.addr, align 8
  %_M_index = getelementptr inbounds %"struct.std::__detail::__variant::_Variant_storage", ptr %this1, i32 0, i32 1
  %0 = load i8, ptr %_M_index, align 8
  %conv = zext i8 %0 to i32
  %cmp = icmp ne i32 %conv, 255
  ret i1 %cmp
}

; Function Attrs: mustprogress nounwind uwtable
define linkonce_odr noundef nonnull align 8 dereferenceable(48) ptr @_ZNSt8__detail9__variant7__get_nILm4ERKNS0_15_Variadic_unionIJSt9monostatebN9grpc_core12experimental4Json11NumberValueENSt7__cxx1112basic_stringIcSt11char_traitsIcESaIcEEESt3mapISD_S6_St4lessISD_ESaISt4pairIKSD_S6_EEESt6vectorIS6_SaIS6_EEEEEEEDcOT0_(ptr noundef nonnull align 8 dereferenceable(48) %__u) #5 comdat {
entry:
  %__u.addr = alloca ptr, align 8
  store ptr %__u, ptr %__u.addr, align 8
  %0 = load ptr, ptr %__u.addr, align 8
  %call = call noundef nonnull align 8 dereferenceable(48) ptr @_ZNSt8__detail9__variant7__get_nILm1ERKNS0_15_Variadic_unionIJNSt7__cxx1112basic_stringIcSt11char_traitsIcESaIcEEESt3mapIS8_N9grpc_core12experimental4JsonESt4lessIS8_ESaISt4pairIKS8_SC_EEESt6vectorISC_SaISC_EEEEEEEDcOT0_(ptr noundef nonnull align 8 dereferenceable(48) %0) #3
  ret ptr %call
}

; Function Attrs: mustprogress nounwind uwtable
define linkonce_odr noundef nonnull align 8 dereferenceable(48) ptr @_ZNSt8__detail9__variant7__get_nILm1ERKNS0_15_Variadic_unionIJNSt7__cxx1112basic_stringIcSt11char_traitsIcESaIcEEESt3mapIS8_N9grpc_core12experimental4JsonESt4lessIS8_ESaISt4pairIKS8_SC_EEESt6vectorISC_SaISC_EEEEEEEDcOT0_(ptr noundef nonnull align 8 dereferenceable(48) %__u) #5 comdat {
entry:
  %__u.addr = alloca ptr, align 8
  store ptr %__u, ptr %__u.addr, align 8
  %0 = load ptr, ptr %__u.addr, align 8
  %call = call noundef nonnull align 8 dereferenceable(48) ptr @_ZNKRSt8__detail9__variant14_UninitializedISt3mapINSt7__cxx1112basic_stringIcSt11char_traitsIcESaIcEEEN9grpc_core12experimental4JsonESt4lessIS8_ESaISt4pairIKS8_SB_EEELb0EE6_M_getEv(ptr noundef nonnull align 8 dereferenceable(48) %0) #3
  ret ptr %call
}

; Function Attrs: mustprogress nounwind uwtable
define linkonce_odr noundef nonnull align 8 dereferenceable(48) ptr @_ZNKRSt8__detail9__variant14_UninitializedISt3mapINSt7__cxx1112basic_stringIcSt11char_traitsIcESaIcEEEN9grpc_core12experimental4JsonESt4lessIS8_ESaISt4pairIKS8_SB_EEELb0EE6_M_getEv(ptr noundef nonnull align 8 dereferenceable(48) %this) #5 comdat align 2 {
entry:
  %this.addr = alloca ptr, align 8
  store ptr %this, ptr %this.addr, align 8
  %this1 = load ptr, ptr %this.addr, align 8
  %_M_storage = getelementptr inbounds %"struct.std::__detail::__variant::_Uninitialized.60", ptr %this1, i32 0, i32 0
  %call = call noundef ptr @_ZNK9__gnu_cxx16__aligned_membufISt3mapINSt7__cxx1112basic_stringIcSt11char_traitsIcESaIcEEEN9grpc_core12experimental4JsonESt4lessIS7_ESaISt4pairIKS7_SA_EEEE6_M_ptrEv(ptr noundef nonnull align 8 dereferenceable(48) %_M_storage) #3
  ret ptr %call
}

; Function Attrs: mustprogress nounwind uwtable
define linkonce_odr noundef ptr @_ZNK9__gnu_cxx16__aligned_membufISt3mapINSt7__cxx1112basic_stringIcSt11char_traitsIcESaIcEEEN9grpc_core12experimental4JsonESt4lessIS7_ESaISt4pairIKS7_SA_EEEE6_M_ptrEv(ptr noundef nonnull align 8 dereferenceable(48) %this) #5 comdat align 2 {
entry:
  %this.addr = alloca ptr, align 8
  store ptr %this, ptr %this.addr, align 8
  %this1 = load ptr, ptr %this.addr, align 8
  %call = call noundef ptr @_ZNK9__gnu_cxx16__aligned_membufISt3mapINSt7__cxx1112basic_stringIcSt11char_traitsIcESaIcEEEN9grpc_core12experimental4JsonESt4lessIS7_ESaISt4pairIKS7_SA_EEEE7_M_addrEv(ptr noundef nonnull align 8 dereferenceable(48) %this1) #3
  ret ptr %call
}

; Function Attrs: mustprogress nounwind uwtable
define linkonce_odr noundef ptr @_ZNK9__gnu_cxx16__aligned_membufISt3mapINSt7__cxx1112basic_stringIcSt11char_traitsIcESaIcEEEN9grpc_core12experimental4JsonESt4lessIS7_ESaISt4pairIKS7_SA_EEEE7_M_addrEv(ptr noundef nonnull align 8 dereferenceable(48) %this) #5 comdat align 2 {
entry:
  %this.addr = alloca ptr, align 8
  store ptr %this, ptr %this.addr, align 8
  %this1 = load ptr, ptr %this.addr, align 8
  %_M_storage = getelementptr inbounds %"struct.__gnu_cxx::__aligned_membuf.61", ptr %this1, i32 0, i32 0
  ret ptr %_M_storage
}

; Function Attrs: mustprogress nounwind uwtable
define linkonce_odr noundef zeroext i1 @_ZN4absl12lts_202308026Status9IsInlinedEm(i64 noundef %rep) #5 comdat align 2 {
entry:
  %rep.addr = alloca i64, align 8
  store i64 %rep, ptr %rep.addr, align 8
  %0 = load i64, ptr %rep.addr, align 8
  %and = and i64 %0, 1
  %cmp = icmp eq i64 %and, 0
  ret i1 %cmp
}

; Function Attrs: mustprogress nounwind uwtable
define linkonce_odr noundef ptr @_ZN4absl12lts_202308026Status12RepToPointerEm(i64 noundef %rep) #5 comdat align 2 {
entry:
  %rep.addr = alloca i64, align 8
  store i64 %rep, ptr %rep.addr, align 8
  %0 = load i64, ptr %rep.addr, align 8
  %sub = sub i64 %0, 1
  %1 = inttoptr i64 %sub to ptr
  ret ptr %1
}

; Function Attrs: mustprogress nounwind uwtable
define linkonce_odr noundef zeroext i1 @_ZN4absl12lts_202308026Status11IsMovedFromEm(i64 noundef %rep) #5 comdat align 2 {
entry:
  %rep.addr = alloca i64, align 8
  store i64 %rep, ptr %rep.addr, align 8
  %0 = load i64, ptr %rep.addr, align 8
  %call = call noundef zeroext i1 @_ZN4absl12lts_202308026Status9IsInlinedEm(i64 noundef %0)
  br i1 %call, label %land.rhs, label %land.end

land.rhs:                                         ; preds = %entry
  %1 = load i64, ptr %rep.addr, align 8
  %and = and i64 %1, 2
  %cmp = icmp ne i64 %and, 0
  br label %land.end

land.end:                                         ; preds = %land.rhs, %entry
  %2 = phi i1 [ false, %entry ], [ %cmp, %land.rhs ]
  ret i1 %2
}

; Function Attrs: mustprogress nounwind uwtable
define linkonce_odr void @_ZNSt17basic_string_viewIcSt11char_traitsIcEEC2Ev(ptr noundef nonnull align 8 dereferenceable(16) %this) unnamed_addr #5 comdat align 2 {
entry:
  %this.addr = alloca ptr, align 8
  store ptr %this, ptr %this.addr, align 8
  %this1 = load ptr, ptr %this.addr, align 8
  %_M_len = getelementptr inbounds %"class.std::basic_string_view", ptr %this1, i32 0, i32 0
  store i64 0, ptr %_M_len, align 8
  %_M_str = getelementptr inbounds %"class.std::basic_string_view", ptr %this1, i32 0, i32 1
  store ptr null, ptr %_M_str, align 8
  ret void
}

; Function Attrs: mustprogress nounwind uwtable
define linkonce_odr void @_ZN4absl12lts_2023080217internal_statusor12StatusOrDataIN9grpc_core13RefCountedPtrINS3_19LoadBalancingPolicy6ConfigEEEED2Ev(ptr noundef nonnull align 8 dereferenceable(16) %this) unnamed_addr #5 comdat align 2 personality ptr @__gxx_personality_v0 {
entry:
  %this.addr = alloca ptr, align 8
  store ptr %this, ptr %this.addr, align 8
  %this1 = load ptr, ptr %this.addr, align 8
  %call = invoke noundef zeroext i1 @_ZNK4absl12lts_2023080217internal_statusor12StatusOrDataIN9grpc_core13RefCountedPtrINS3_19LoadBalancingPolicy6ConfigEEEE2okEv(ptr noundef nonnull align 8 dereferenceable(16) %this1)
          to label %invoke.cont unwind label %terminate.lpad

invoke.cont:                                      ; preds = %entry
  br i1 %call, label %if.then, label %if.else

if.then:                                          ; preds = %invoke.cont
  %0 = getelementptr inbounds %"class.absl::lts_20230802::internal_statusor::StatusOrData", ptr %this1, i32 0, i32 0
  call void @_ZN4absl12lts_202308026StatusD2Ev(ptr noundef nonnull align 8 dereferenceable(8) %0) #3
  %1 = getelementptr inbounds %"class.absl::lts_20230802::internal_statusor::StatusOrData", ptr %this1, i32 0, i32 1
  call void @_ZN9grpc_core13RefCountedPtrINS_19LoadBalancingPolicy6ConfigEED2Ev(ptr noundef nonnull align 8 dereferenceable(8) %1) #3
  br label %if.end

if.else:                                          ; preds = %invoke.cont
  %2 = getelementptr inbounds %"class.absl::lts_20230802::internal_statusor::StatusOrData", ptr %this1, i32 0, i32 0
  call void @_ZN4absl12lts_202308026StatusD2Ev(ptr noundef nonnull align 8 dereferenceable(8) %2) #3
  br label %if.end

if.end:                                           ; preds = %if.else, %if.then
  ret void

terminate.lpad:                                   ; preds = %entry
  %3 = landingpad { ptr, i32 }
          catch ptr null
  %4 = extractvalue { ptr, i32 } %3, 0
  call void @__clang_call_terminate(ptr %4) #15
  unreachable
}

; Function Attrs: mustprogress uwtable
define linkonce_odr noundef zeroext i1 @_ZNK4absl12lts_2023080217internal_statusor12StatusOrDataIN9grpc_core13RefCountedPtrINS3_19LoadBalancingPolicy6ConfigEEEE2okEv(ptr noundef nonnull align 8 dereferenceable(16) %this) #4 comdat align 2 {
entry:
  %this.addr = alloca ptr, align 8
  store ptr %this, ptr %this.addr, align 8
  %this1 = load ptr, ptr %this.addr, align 8
  %0 = getelementptr inbounds %"class.absl::lts_20230802::internal_statusor::StatusOrData", ptr %this1, i32 0, i32 0
  %call = call noundef zeroext i1 @_ZNK4absl12lts_202308026Status2okEv(ptr noundef nonnull align 8 dereferenceable(8) %0)
  ret i1 %call
}

; Function Attrs: mustprogress nounwind uwtable
define linkonce_odr void @_ZN4absl12lts_202308026StatusD2Ev(ptr noundef nonnull align 8 dereferenceable(8) %this) unnamed_addr #5 comdat align 2 personality ptr @__gxx_personality_v0 {
entry:
  %this.addr = alloca ptr, align 8
  store ptr %this, ptr %this.addr, align 8
  %this1 = load ptr, ptr %this.addr, align 8
  %rep_ = getelementptr inbounds %"class.absl::lts_20230802::Status", ptr %this1, i32 0, i32 0
  %0 = load i64, ptr %rep_, align 8
  invoke void @_ZN4absl12lts_202308026Status5UnrefEm(i64 noundef %0)
          to label %invoke.cont unwind label %terminate.lpad

invoke.cont:                                      ; preds = %entry
  ret void

terminate.lpad:                                   ; preds = %entry
  %1 = landingpad { ptr, i32 }
          catch ptr null
  %2 = extractvalue { ptr, i32 } %1, 0
  call void @__clang_call_terminate(ptr %2) #15
  unreachable
}

; Function Attrs: mustprogress nounwind uwtable
define linkonce_odr void @_ZN9grpc_core13RefCountedPtrINS_19LoadBalancingPolicy6ConfigEED2Ev(ptr noundef nonnull align 8 dereferenceable(8) %this) unnamed_addr #5 comdat align 2 personality ptr @__gxx_personality_v0 {
entry:
  %this.addr = alloca ptr, align 8
  store ptr %this, ptr %this.addr, align 8
  %this1 = load ptr, ptr %this.addr, align 8
  %value_ = getelementptr inbounds %"class.grpc_core::RefCountedPtr", ptr %this1, i32 0, i32 0
  %0 = load ptr, ptr %value_, align 8
  %cmp = icmp ne ptr %0, null
  br i1 %cmp, label %if.then, label %if.end

if.then:                                          ; preds = %entry
  %value_2 = getelementptr inbounds %"class.grpc_core::RefCountedPtr", ptr %this1, i32 0, i32 0
  %1 = load ptr, ptr %value_2, align 8
  invoke void @_ZNK9grpc_core10RefCountedINS_19LoadBalancingPolicy6ConfigENS_19PolymorphicRefCountENS_11UnrefDeleteEE5UnrefEv(ptr noundef nonnull align 8 dereferenceable(16) %1)
          to label %invoke.cont unwind label %terminate.lpad

invoke.cont:                                      ; preds = %if.then
  br label %if.end

if.end:                                           ; preds = %invoke.cont, %entry
  ret void

terminate.lpad:                                   ; preds = %if.then
  %2 = landingpad { ptr, i32 }
          catch ptr null
  %3 = extractvalue { ptr, i32 } %2, 0
  call void @__clang_call_terminate(ptr %3) #15
  unreachable
}

; Function Attrs: mustprogress uwtable
define linkonce_odr noundef zeroext i1 @_ZNK4absl12lts_202308026Status2okEv(ptr noundef nonnull align 8 dereferenceable(8) %this) #4 comdat align 2 {
entry:
  %this.addr = alloca ptr, align 8
  store ptr %this, ptr %this.addr, align 8
  %this1 = load ptr, ptr %this.addr, align 8
  %rep_ = getelementptr inbounds %"class.absl::lts_20230802::Status", ptr %this1, i32 0, i32 0
  %0 = load i64, ptr %rep_, align 8
  %call = call noundef i64 @_ZN4absl12lts_202308026Status16CodeToInlinedRepENS0_10StatusCodeE(i32 noundef 0)
  %cmp = icmp eq i64 %0, %call
  ret i1 %cmp
}

; Function Attrs: mustprogress nounwind uwtable
define linkonce_odr noundef i64 @_ZN4absl12lts_202308026Status16CodeToInlinedRepENS0_10StatusCodeE(i32 noundef %code) #5 comdat align 2 {
entry:
  %code.addr = alloca i32, align 4
  store i32 %code, ptr %code.addr, align 4
  %0 = load i32, ptr %code.addr, align 4
  %conv = sext i32 %0 to i64
  %shl = shl i64 %conv, 2
  ret i64 %shl
}

; Function Attrs: mustprogress uwtable
define linkonce_odr void @_ZN4absl12lts_202308026Status5UnrefEm(i64 noundef %rep) #4 comdat align 2 {
entry:
  %rep.addr = alloca i64, align 8
  store i64 %rep, ptr %rep.addr, align 8
  %0 = load i64, ptr %rep.addr, align 8
  %call = call noundef zeroext i1 @_ZN4absl12lts_202308026Status9IsInlinedEm(i64 noundef %0)
  br i1 %call, label %if.end, label %if.then

if.then:                                          ; preds = %entry
  %1 = load i64, ptr %rep.addr, align 8
  call void @_ZN4absl12lts_202308026Status15UnrefNonInlinedEm(i64 noundef %1)
  br label %if.end

if.end:                                           ; preds = %if.then, %entry
  ret void
}

declare void @_ZN4absl12lts_202308026Status15UnrefNonInlinedEm(i64 noundef) #1

; Function Attrs: mustprogress uwtable
define linkonce_odr void @_ZNK9grpc_core10RefCountedINS_19LoadBalancingPolicy6ConfigENS_19PolymorphicRefCountENS_11UnrefDeleteEE5UnrefEv(ptr noundef nonnull align 8 dereferenceable(16) %this) #4 comdat align 2 {
entry:
  %this.addr = alloca ptr, align 8
  store ptr %this, ptr %this.addr, align 8
  %this1 = load ptr, ptr %this.addr, align 8
  %refs_ = getelementptr inbounds %"class.grpc_core::RefCounted", ptr %this1, i32 0, i32 1
  %call = call noundef zeroext i1 @_ZN9grpc_core8RefCount5UnrefEv(ptr noundef nonnull align 8 dereferenceable(8) %refs_)
  br i1 %call, label %if.then, label %if.end

if.then:                                          ; preds = %entry
  call void @_ZNK9grpc_core11UnrefDeleteclIKNS_19LoadBalancingPolicy6ConfigEEEvPT_(ptr noundef nonnull align 1 dereferenceable(1) %this1, ptr noundef %this1)
  br label %if.end

if.end:                                           ; preds = %if.then, %entry
  ret void
}

; Function Attrs: mustprogress nounwind uwtable
define linkonce_odr noundef zeroext i1 @_ZN9grpc_core8RefCount5UnrefEv(ptr noundef nonnull align 8 dereferenceable(8) %this) #5 comdat align 2 {
entry:
  %this.addr.i = alloca ptr, align 8
  %__i.addr.i = alloca i64, align 8
  %__m.addr.i = alloca i32, align 4
  %.atomictmp.i = alloca i64, align 8
  %atomic-temp.i = alloca i64, align 8
  %this.addr = alloca ptr, align 8
  %prior = alloca i64, align 8
  store ptr %this, ptr %this.addr, align 8
  %this1 = load ptr, ptr %this.addr, align 8
  %value_ = getelementptr inbounds %"class.grpc_core::RefCount", ptr %this1, i32 0, i32 0
  store ptr %value_, ptr %this.addr.i, align 8
  store i64 1, ptr %__i.addr.i, align 8
  store i32 4, ptr %__m.addr.i, align 4
  %this1.i = load ptr, ptr %this.addr.i, align 8
  %0 = load i32, ptr %__m.addr.i, align 4
  %1 = load i64, ptr %__i.addr.i, align 8
  store i64 %1, ptr %.atomictmp.i, align 8
  switch i32 %0, label %monotonic.i [
    i32 1, label %acquire.i
    i32 2, label %acquire.i
    i32 3, label %release.i
    i32 4, label %acqrel.i
    i32 5, label %seqcst.i
  ]

monotonic.i:                                      ; preds = %entry
  %2 = load i64, ptr %.atomictmp.i, align 8
  %3 = atomicrmw sub ptr %this1.i, i64 %2 monotonic, align 8
  store i64 %3, ptr %atomic-temp.i, align 8
  br label %_ZNSt13__atomic_baseIlE9fetch_subElSt12memory_order.exit

acquire.i:                                        ; preds = %entry, %entry
  %4 = load i64, ptr %.atomictmp.i, align 8
  %5 = atomicrmw sub ptr %this1.i, i64 %4 acquire, align 8
  store i64 %5, ptr %atomic-temp.i, align 8
  br label %_ZNSt13__atomic_baseIlE9fetch_subElSt12memory_order.exit

release.i:                                        ; preds = %entry
  %6 = load i64, ptr %.atomictmp.i, align 8
  %7 = atomicrmw sub ptr %this1.i, i64 %6 release, align 8
  store i64 %7, ptr %atomic-temp.i, align 8
  br label %_ZNSt13__atomic_baseIlE9fetch_subElSt12memory_order.exit

acqrel.i:                                         ; preds = %entry
  %8 = load i64, ptr %.atomictmp.i, align 8
  %9 = atomicrmw sub ptr %this1.i, i64 %8 acq_rel, align 8
  store i64 %9, ptr %atomic-temp.i, align 8
  br label %_ZNSt13__atomic_baseIlE9fetch_subElSt12memory_order.exit

seqcst.i:                                         ; preds = %entry
  %10 = load i64, ptr %.atomictmp.i, align 8
  %11 = atomicrmw sub ptr %this1.i, i64 %10 seq_cst, align 8
  store i64 %11, ptr %atomic-temp.i, align 8
  br label %_ZNSt13__atomic_baseIlE9fetch_subElSt12memory_order.exit

_ZNSt13__atomic_baseIlE9fetch_subElSt12memory_order.exit: ; preds = %seqcst.i, %acqrel.i, %release.i, %acquire.i, %monotonic.i
  %12 = load i64, ptr %atomic-temp.i, align 8
  store i64 %12, ptr %prior, align 8
  %13 = load i64, ptr %prior, align 8
  %cmp = icmp eq i64 %13, 1
  ret i1 %cmp
}

; Function Attrs: mustprogress nounwind uwtable
define linkonce_odr void @_ZNK9grpc_core11UnrefDeleteclIKNS_19LoadBalancingPolicy6ConfigEEEvPT_(ptr noundef nonnull align 1 dereferenceable(1) %this, ptr noundef %p) #5 comdat align 2 {
entry:
  %this.addr = alloca ptr, align 8
  %p.addr = alloca ptr, align 8
  store ptr %this, ptr %this.addr, align 8
  store ptr %p, ptr %p.addr, align 8
  %0 = load ptr, ptr %p.addr, align 8
  %isnull = icmp eq ptr %0, null
  br i1 %isnull, label %delete.end, label %delete.notnull

delete.notnull:                                   ; preds = %entry
  %vtable = load ptr, ptr %0, align 8
  %vfn = getelementptr inbounds ptr, ptr %vtable, i64 1
  %1 = load ptr, ptr %vfn, align 8
  call void %1(ptr noundef nonnull align 8 dereferenceable(16) %0) #3
  br label %delete.end

delete.end:                                       ; preds = %delete.notnull, %entry
  ret void
}

declare void @_ZN9grpc_core16ValidationErrors8PopFieldEv(ptr noundef nonnull align 8 dereferenceable(72)) #1

; Function Attrs: mustprogress nounwind uwtable
define linkonce_odr { i64, ptr } @_ZN4absl12lts_2023080218NullSafeStringViewEPKc(ptr noundef %p) #5 comdat {
entry:
  %retval = alloca %"class.std::basic_string_view", align 8
  %p.addr = alloca ptr, align 8
  store ptr %p, ptr %p.addr, align 8
  %0 = load ptr, ptr %p.addr, align 8
  %tobool = icmp ne ptr %0, null
  br i1 %tobool, label %cond.true, label %cond.false

cond.true:                                        ; preds = %entry
  %1 = load ptr, ptr %p.addr, align 8
  call void @_ZNSt17basic_string_viewIcSt11char_traitsIcEEC2EPKc(ptr noundef nonnull align 8 dereferenceable(16) %retval, ptr noundef %1) #3
  br label %cond.end

cond.false:                                       ; preds = %entry
  call void @_ZNSt17basic_string_viewIcSt11char_traitsIcEEC2Ev(ptr noundef nonnull align 8 dereferenceable(16) %retval) #3
  br label %cond.end

cond.end:                                         ; preds = %cond.false, %cond.true
  %2 = load { i64, ptr }, ptr %retval, align 8
  ret { i64, ptr } %2
}

; Function Attrs: mustprogress nounwind uwtable
define linkonce_odr void @_ZN9grpc_core8JsonArgsD0Ev(ptr noundef nonnull align 8 dereferenceable(8) %this) unnamed_addr #5 comdat align 2 {
entry:
  %this.addr = alloca ptr, align 8
  store ptr %this, ptr %this.addr, align 8
  %this1 = load ptr, ptr %this.addr, align 8
  call void @_ZN9grpc_core8JsonArgsD2Ev(ptr noundef nonnull align 8 dereferenceable(8) %this1) #3
  call void @_ZdlPv(ptr noundef %this1) #14
  ret void
}

; Function Attrs: mustprogress nounwind uwtable
define linkonce_odr noundef zeroext i1 @_ZNK9grpc_core8JsonArgs9IsEnabledESt17basic_string_viewIcSt11char_traitsIcEE(ptr noundef nonnull align 8 dereferenceable(8) %this, i64 %.coerce0, ptr %.coerce1) unnamed_addr #5 comdat align 2 {
entry:
  %0 = alloca %"class.std::basic_string_view", align 8
  %this.addr = alloca ptr, align 8
  %1 = getelementptr inbounds { i64, ptr }, ptr %0, i32 0, i32 0
  store i64 %.coerce0, ptr %1, align 8
  %2 = getelementptr inbounds { i64, ptr }, ptr %0, i32 0, i32 1
  store ptr %.coerce1, ptr %2, align 8
  store ptr %this, ptr %this.addr, align 8
  ret i1 true
}

declare noundef ptr @_ZNSt7__cxx1112basic_stringIcSt11char_traitsIcESaIcEE13_M_local_dataEv(ptr noundef nonnull align 8 dereferenceable(32)) #1

declare void @_ZNSt7__cxx1112basic_stringIcSt11char_traitsIcESaIcEE12_Alloc_hiderC1EPcRKS3_(ptr noundef nonnull align 8 dereferenceable(8), ptr noundef, ptr noundef nonnull align 1 dereferenceable(1)) unnamed_addr #1

; Function Attrs: noreturn
declare void @_ZSt19__throw_logic_errorPKc(ptr noundef) #10

; Function Attrs: mustprogress uwtable
define linkonce_odr void @_ZNSt7__cxx1112basic_stringIcSt11char_traitsIcESaIcEE12_M_constructIPKcEEvT_S8_St20forward_iterator_tag(ptr noundef nonnull align 8 dereferenceable(32) %this, ptr noundef %__beg, ptr noundef %__end) #4 comdat align 2 personality ptr @__gxx_personality_v0 {
entry:
  %this.addr.i = alloca ptr, align 8
  %this.addr = alloca ptr, align 8
  %__beg.addr = alloca ptr, align 8
  %__end.addr = alloca ptr, align 8
  %__dnew = alloca i64, align 8
  %__guard = alloca %struct._Guard, align 8
  %exn.slot = alloca ptr, align 8
  %ehselector.slot = alloca i32, align 4
  store ptr %this, ptr %this.addr, align 8
  store ptr %__beg, ptr %__beg.addr, align 8
  store ptr %__end, ptr %__end.addr, align 8
  %this1 = load ptr, ptr %this.addr, align 8
  %0 = load ptr, ptr %__beg.addr, align 8
  %1 = load ptr, ptr %__end.addr, align 8
  %call = call noundef i64 @_ZSt8distanceIPKcENSt15iterator_traitsIT_E15difference_typeES3_S3_(ptr noundef %0, ptr noundef %1)
  store i64 %call, ptr %__dnew, align 8
  %2 = load i64, ptr %__dnew, align 8
  %cmp = icmp ugt i64 %2, 15
  br i1 %cmp, label %if.then, label %if.else

if.then:                                          ; preds = %entry
  %call2 = call noundef ptr @_ZNSt7__cxx1112basic_stringIcSt11char_traitsIcESaIcEE9_M_createERmm(ptr noundef nonnull align 8 dereferenceable(32) %this1, ptr noundef nonnull align 8 dereferenceable(8) %__dnew, i64 noundef 0)
  call void @_ZNSt7__cxx1112basic_stringIcSt11char_traitsIcESaIcEE7_M_dataEPc(ptr noundef nonnull align 8 dereferenceable(32) %this1, ptr noundef %call2)
  %3 = load i64, ptr %__dnew, align 8
  call void @_ZNSt7__cxx1112basic_stringIcSt11char_traitsIcESaIcEE11_M_capacityEm(ptr noundef nonnull align 8 dereferenceable(32) %this1, i64 noundef %3)
  br label %if.end

if.else:                                          ; preds = %entry
  store ptr %this1, ptr %this.addr.i, align 8
  %this1.i = load ptr, ptr %this.addr.i, align 8
  %call.i = invoke noundef ptr @_ZNSt7__cxx1112basic_stringIcSt11char_traitsIcESaIcEE13_M_local_dataEv(ptr noundef nonnull align 8 dereferenceable(32) %this1.i)
          to label %_ZNSt7__cxx1112basic_stringIcSt11char_traitsIcESaIcEE17_M_use_local_dataEv.exit unwind label %terminate.lpad.i

terminate.lpad.i:                                 ; preds = %if.else
  %4 = landingpad { ptr, i32 }
          catch ptr null
  %5 = extractvalue { ptr, i32 } %4, 0
  call void @__clang_call_terminate(ptr %5) #15
  unreachable

_ZNSt7__cxx1112basic_stringIcSt11char_traitsIcESaIcEE17_M_use_local_dataEv.exit: ; preds = %if.else
  br label %if.end

if.end:                                           ; preds = %_ZNSt7__cxx1112basic_stringIcSt11char_traitsIcESaIcEE17_M_use_local_dataEv.exit, %if.then
  call void @_ZZNSt7__cxx1112basic_stringIcSt11char_traitsIcESaIcEE12_M_constructIPKcEEvT_S8_St20forward_iterator_tagEN6_GuardC2EPS4_(ptr noundef nonnull align 8 dereferenceable(8) %__guard, ptr noundef %this1)
  %call4 = invoke noundef ptr @_ZNKSt7__cxx1112basic_stringIcSt11char_traitsIcESaIcEE7_M_dataEv(ptr noundef nonnull align 8 dereferenceable(32) %this1)
          to label %invoke.cont unwind label %lpad

invoke.cont:                                      ; preds = %if.end
  %6 = load ptr, ptr %__beg.addr, align 8
  %7 = load ptr, ptr %__end.addr, align 8
  call void @_ZNSt7__cxx1112basic_stringIcSt11char_traitsIcESaIcEE13_S_copy_charsEPcPKcS7_(ptr noundef %call4, ptr noundef %6, ptr noundef %7) #3
  %_M_guarded = getelementptr inbounds %struct._Guard, ptr %__guard, i32 0, i32 0
  store ptr null, ptr %_M_guarded, align 8
  %8 = load i64, ptr %__dnew, align 8
  invoke void @_ZNSt7__cxx1112basic_stringIcSt11char_traitsIcESaIcEE13_M_set_lengthEm(ptr noundef nonnull align 8 dereferenceable(32) %this1, i64 noundef %8)
          to label %invoke.cont5 unwind label %lpad

invoke.cont5:                                     ; preds = %invoke.cont
  call void @_ZZNSt7__cxx1112basic_stringIcSt11char_traitsIcESaIcEE12_M_constructIPKcEEvT_S8_St20forward_iterator_tagEN6_GuardD2Ev(ptr noundef nonnull align 8 dereferenceable(8) %__guard) #3
  ret void

lpad:                                             ; preds = %invoke.cont, %if.end
  %9 = landingpad { ptr, i32 }
          cleanup
  %10 = extractvalue { ptr, i32 } %9, 0
  store ptr %10, ptr %exn.slot, align 8
  %11 = extractvalue { ptr, i32 } %9, 1
  store i32 %11, ptr %ehselector.slot, align 4
  call void @_ZZNSt7__cxx1112basic_stringIcSt11char_traitsIcESaIcEE12_M_constructIPKcEEvT_S8_St20forward_iterator_tagEN6_GuardD2Ev(ptr noundef nonnull align 8 dereferenceable(8) %__guard) #3
  br label %eh.resume

eh.resume:                                        ; preds = %lpad
  %exn = load ptr, ptr %exn.slot, align 8
  %sel = load i32, ptr %ehselector.slot, align 4
  %lpad.val = insertvalue { ptr, i32 } poison, ptr %exn, 0
  %lpad.val6 = insertvalue { ptr, i32 } %lpad.val, i32 %sel, 1
  resume { ptr, i32 } %lpad.val6
}

; Function Attrs: mustprogress nounwind uwtable
define linkonce_odr void @_ZNSt7__cxx1112basic_stringIcSt11char_traitsIcESaIcEE12_Alloc_hiderD2Ev(ptr noundef nonnull align 8 dereferenceable(8) %this) unnamed_addr #5 comdat align 2 {
entry:
  %this.addr = alloca ptr, align 8
  store ptr %this, ptr %this.addr, align 8
  %this1 = load ptr, ptr %this.addr, align 8
  call void @_ZNSaIcED2Ev(ptr noundef nonnull align 1 dereferenceable(1) %this1) #3
  ret void
}

; Function Attrs: mustprogress uwtable
define linkonce_odr noundef i64 @_ZSt8distanceIPKcENSt15iterator_traitsIT_E15difference_typeES3_S3_(ptr noundef %__first, ptr noundef %__last) #4 comdat {
entry:
  %__first.addr = alloca ptr, align 8
  %__last.addr = alloca ptr, align 8
  store ptr %__first, ptr %__first.addr, align 8
  store ptr %__last, ptr %__last.addr, align 8
  %0 = load ptr, ptr %__first.addr, align 8
  %1 = load ptr, ptr %__last.addr, align 8
  call void @_ZSt19__iterator_categoryIPKcENSt15iterator_traitsIT_E17iterator_categoryERKS3_(ptr noundef nonnull align 8 dereferenceable(8) %__first.addr)
  %call = call noundef i64 @_ZSt10__distanceIPKcENSt15iterator_traitsIT_E15difference_typeES3_S3_St26random_access_iterator_tag(ptr noundef %0, ptr noundef %1)
  ret i64 %call
}

declare void @_ZNSt7__cxx1112basic_stringIcSt11char_traitsIcESaIcEE7_M_dataEPc(ptr noundef nonnull align 8 dereferenceable(32), ptr noundef) #1

declare noundef ptr @_ZNSt7__cxx1112basic_stringIcSt11char_traitsIcESaIcEE9_M_createERmm(ptr noundef nonnull align 8 dereferenceable(32), ptr noundef nonnull align 8 dereferenceable(8), i64 noundef) #1

declare void @_ZNSt7__cxx1112basic_stringIcSt11char_traitsIcESaIcEE11_M_capacityEm(ptr noundef nonnull align 8 dereferenceable(32), i64 noundef) #1

; Function Attrs: mustprogress nounwind uwtable
define linkonce_odr void @_ZZNSt7__cxx1112basic_stringIcSt11char_traitsIcESaIcEE12_M_constructIPKcEEvT_S8_St20forward_iterator_tagEN6_GuardC2EPS4_(ptr noundef nonnull align 8 dereferenceable(8) %this, ptr noundef %__s) unnamed_addr #5 comdat align 2 {
entry:
  %this.addr = alloca ptr, align 8
  %__s.addr = alloca ptr, align 8
  store ptr %this, ptr %this.addr, align 8
  store ptr %__s, ptr %__s.addr, align 8
  %this1 = load ptr, ptr %this.addr, align 8
  %_M_guarded = getelementptr inbounds %struct._Guard, ptr %this1, i32 0, i32 0
  %0 = load ptr, ptr %__s.addr, align 8
  store ptr %0, ptr %_M_guarded, align 8
  ret void
}

; Function Attrs: nounwind
declare void @_ZNSt7__cxx1112basic_stringIcSt11char_traitsIcESaIcEE13_S_copy_charsEPcPKcS7_(ptr noundef, ptr noundef, ptr noundef) #2

declare noundef ptr @_ZNKSt7__cxx1112basic_stringIcSt11char_traitsIcESaIcEE7_M_dataEv(ptr noundef nonnull align 8 dereferenceable(32)) #1

declare void @_ZNSt7__cxx1112basic_stringIcSt11char_traitsIcESaIcEE13_M_set_lengthEm(ptr noundef nonnull align 8 dereferenceable(32), i64 noundef) #1

; Function Attrs: mustprogress nounwind uwtable
define linkonce_odr void @_ZZNSt7__cxx1112basic_stringIcSt11char_traitsIcESaIcEE12_M_constructIPKcEEvT_S8_St20forward_iterator_tagEN6_GuardD2Ev(ptr noundef nonnull align 8 dereferenceable(8) %this) unnamed_addr #5 comdat align 2 personality ptr @__gxx_personality_v0 {
entry:
  %this.addr = alloca ptr, align 8
  store ptr %this, ptr %this.addr, align 8
  %this1 = load ptr, ptr %this.addr, align 8
  %_M_guarded = getelementptr inbounds %struct._Guard, ptr %this1, i32 0, i32 0
  %0 = load ptr, ptr %_M_guarded, align 8
  %tobool = icmp ne ptr %0, null
  br i1 %tobool, label %if.then, label %if.end

if.then:                                          ; preds = %entry
  %_M_guarded2 = getelementptr inbounds %struct._Guard, ptr %this1, i32 0, i32 0
  %1 = load ptr, ptr %_M_guarded2, align 8
  invoke void @_ZNSt7__cxx1112basic_stringIcSt11char_traitsIcESaIcEE10_M_disposeEv(ptr noundef nonnull align 8 dereferenceable(32) %1)
          to label %invoke.cont unwind label %terminate.lpad

invoke.cont:                                      ; preds = %if.then
  br label %if.end

if.end:                                           ; preds = %invoke.cont, %entry
  ret void

terminate.lpad:                                   ; preds = %if.then
  %2 = landingpad { ptr, i32 }
          catch ptr null
  %3 = extractvalue { ptr, i32 } %2, 0
  call void @__clang_call_terminate(ptr %3) #15
  unreachable
}

; Function Attrs: mustprogress nounwind uwtable
define linkonce_odr noundef i64 @_ZSt10__distanceIPKcENSt15iterator_traitsIT_E15difference_typeES3_S3_St26random_access_iterator_tag(ptr noundef %__first, ptr noundef %__last) #5 comdat {
entry:
  %__first.addr = alloca ptr, align 8
  %__last.addr = alloca ptr, align 8
  store ptr %__first, ptr %__first.addr, align 8
  store ptr %__last, ptr %__last.addr, align 8
  %0 = load ptr, ptr %__last.addr, align 8
  %1 = load ptr, ptr %__first.addr, align 8
  %sub.ptr.lhs.cast = ptrtoint ptr %0 to i64
  %sub.ptr.rhs.cast = ptrtoint ptr %1 to i64
  %sub.ptr.sub = sub i64 %sub.ptr.lhs.cast, %sub.ptr.rhs.cast
  ret i64 %sub.ptr.sub
}

; Function Attrs: mustprogress nounwind uwtable
define linkonce_odr void @_ZSt19__iterator_categoryIPKcENSt15iterator_traitsIT_E17iterator_categoryERKS3_(ptr noundef nonnull align 8 dereferenceable(8) %0) #5 comdat {
entry:
  %.addr = alloca ptr, align 8
  store ptr %0, ptr %.addr, align 8
  ret void
}

declare void @_ZNSt7__cxx1112basic_stringIcSt11char_traitsIcESaIcEE10_M_disposeEv(ptr noundef nonnull align 8 dereferenceable(32)) #1

; Function Attrs: nounwind
declare void @_ZNSaIcED2Ev(ptr noundef nonnull align 1 dereferenceable(1)) unnamed_addr #2

; Function Attrs: mustprogress uwtable
define linkonce_odr void @_ZNK9grpc_core11json_detail16JsonObjectLoaderINS_8internal31ClientChannelGlobalParsedConfig17HealthCheckConfigELm0EE5FieldISt8optionalINSt7__cxx1112basic_stringIcSt11char_traitsIcESaIcEEEEEENS1_IS4_Lm1EEEPKcbMS4_T_SH_(ptr noalias sret(%"class.grpc_core::json_detail::JsonObjectLoader") align 8 %agg.result, ptr noundef nonnull align 1 dereferenceable(1) %this, ptr noundef %name, i1 noundef zeroext %optional, i64 %p, ptr noundef %enable_key) #4 comdat align 2 {
entry:
  %this.addr = alloca ptr, align 8
  %name.addr = alloca ptr, align 8
  %optional.addr = alloca i8, align 1
  %p.addr = alloca i64, align 8
  %enable_key.addr = alloca ptr, align 8
  %agg.tmp = alloca %"struct.grpc_core::json_detail::Element", align 8
  store ptr %this, ptr %this.addr, align 8
  store ptr %name, ptr %name.addr, align 8
  %frombool = zext i1 %optional to i8
  store i8 %frombool, ptr %optional.addr, align 1
  store i64 %p, ptr %p.addr, align 8
  store ptr %enable_key, ptr %enable_key.addr, align 8
  %this1 = load ptr, ptr %this.addr, align 8
  %0 = load ptr, ptr %name.addr, align 8
  %1 = load i8, ptr %optional.addr, align 1
  %tobool = trunc i8 %1 to i1
  %2 = load i64, ptr %p.addr, align 8
  %call = call noundef ptr @_ZN9grpc_core11json_detail13LoaderForTypeISt8optionalINSt7__cxx1112basic_stringIcSt11char_traitsIcESaIcEEEEEEPKNS0_15LoaderInterfaceEv()
  %3 = load ptr, ptr %enable_key.addr, align 8
  call void @_ZN9grpc_core11json_detail7ElementC2INS_8internal31ClientChannelGlobalParsedConfig17HealthCheckConfigESt8optionalINSt7__cxx1112basic_stringIcSt11char_traitsIcESaIcEEEEEEPKcbMT_T0_PKNS0_15LoaderInterfaceESF_(ptr noundef nonnull align 8 dereferenceable(32) %agg.tmp, ptr noundef %0, i1 noundef zeroext %tobool, i64 %2, ptr noundef %call, ptr noundef %3)
  call void @_ZN9grpc_core11json_detail16JsonObjectLoaderINS_8internal31ClientChannelGlobalParsedConfig17HealthCheckConfigELm1EEC2ERKNS0_3VecINS0_7ElementELm0EEES7_(ptr noundef nonnull align 8 dereferenceable(32) %agg.result, ptr noundef nonnull align 1 dereferenceable(1) %this1, ptr noundef byval(%"struct.grpc_core::json_detail::Element") align 8 %agg.tmp)
  ret void
}

; Function Attrs: mustprogress uwtable
define linkonce_odr noundef ptr @_ZN9grpc_core11json_detail13LoaderForTypeISt8optionalINSt7__cxx1112basic_stringIcSt11char_traitsIcESaIcEEEEEEPKNS0_15LoaderInterfaceEv() #4 comdat {
entry:
  %call = call noundef ptr @_ZN9grpc_core19NoDestructSingletonINS_11json_detail10AutoLoaderISt8optionalINSt7__cxx1112basic_stringIcSt11char_traitsIcESaIcEEEEEEE3GetEv()
  ret ptr %call
}

; Function Attrs: mustprogress nounwind uwtable
define linkonce_odr void @_ZN9grpc_core11json_detail7ElementC2INS_8internal31ClientChannelGlobalParsedConfig17HealthCheckConfigESt8optionalINSt7__cxx1112basic_stringIcSt11char_traitsIcESaIcEEEEEEPKcbMT_T0_PKNS0_15LoaderInterfaceESF_(ptr noundef nonnull align 8 dereferenceable(32) %this, ptr noundef %name, i1 noundef zeroext %optional, i64 %p, ptr noundef %loader, ptr noundef %enable_key) unnamed_addr #5 comdat align 2 {
entry:
  %this.addr = alloca ptr, align 8
  %name.addr = alloca ptr, align 8
  %optional.addr = alloca i8, align 1
  %p.addr = alloca i64, align 8
  %loader.addr = alloca ptr, align 8
  %enable_key.addr = alloca ptr, align 8
  store ptr %this, ptr %this.addr, align 8
  store ptr %name, ptr %name.addr, align 8
  %frombool = zext i1 %optional to i8
  store i8 %frombool, ptr %optional.addr, align 1
  store i64 %p, ptr %p.addr, align 8
  store ptr %loader, ptr %loader.addr, align 8
  store ptr %enable_key, ptr %enable_key.addr, align 8
  %this1 = load ptr, ptr %this.addr, align 8
  %loader2 = getelementptr inbounds %"struct.grpc_core::json_detail::Element", ptr %this1, i32 0, i32 0
  %0 = load ptr, ptr %loader.addr, align 8
  store ptr %0, ptr %loader2, align 8
  %member_offset = getelementptr inbounds %"struct.grpc_core::json_detail::Element", ptr %this1, i32 0, i32 1
  %1 = load i64, ptr %p.addr, align 8
  %memptr.offset = getelementptr inbounds i8, ptr null, i64 %1
  %2 = ptrtoint ptr %memptr.offset to i64
  %conv = trunc i64 %2 to i16
  store i16 %conv, ptr %member_offset, align 8
  %optional3 = getelementptr inbounds %"struct.grpc_core::json_detail::Element", ptr %this1, i32 0, i32 2
  %3 = load i8, ptr %optional.addr, align 1
  %tobool = trunc i8 %3 to i1
  %frombool4 = zext i1 %tobool to i8
  store i8 %frombool4, ptr %optional3, align 2
  %name5 = getelementptr inbounds %"struct.grpc_core::json_detail::Element", ptr %this1, i32 0, i32 3
  %4 = load ptr, ptr %name.addr, align 8
  store ptr %4, ptr %name5, align 8
  %enable_key6 = getelementptr inbounds %"struct.grpc_core::json_detail::Element", ptr %this1, i32 0, i32 4
  %5 = load ptr, ptr %enable_key.addr, align 8
  store ptr %5, ptr %enable_key6, align 8
  ret void
}

; Function Attrs: mustprogress uwtable
define linkonce_odr void @_ZN9grpc_core11json_detail16JsonObjectLoaderINS_8internal31ClientChannelGlobalParsedConfig17HealthCheckConfigELm1EEC2ERKNS0_3VecINS0_7ElementELm0EEES7_(ptr noundef nonnull align 8 dereferenceable(32) %this, ptr noundef nonnull align 1 dereferenceable(1) %elements, ptr noundef byval(%"struct.grpc_core::json_detail::Element") align 8 %new_element) unnamed_addr #4 comdat align 2 {
entry:
  %this.addr = alloca ptr, align 8
  %elements.addr = alloca ptr, align 8
  store ptr %this, ptr %this.addr, align 8
  store ptr %elements, ptr %elements.addr, align 8
  %this1 = load ptr, ptr %this.addr, align 8
  %elements_ = getelementptr inbounds %"class.grpc_core::json_detail::JsonObjectLoader", ptr %this1, i32 0, i32 0
  %0 = load ptr, ptr %elements.addr, align 8
  call void @_ZN9grpc_core11json_detail3VecINS0_7ElementELm1EEC2ERKNS1_IS2_Lm0EEERKS2_(ptr noundef nonnull align 8 dereferenceable(32) %elements_, ptr noundef nonnull align 1 dereferenceable(1) %0, ptr noundef nonnull align 8 dereferenceable(32) %new_element)
  ret void
}

; Function Attrs: mustprogress uwtable
define linkonce_odr noundef ptr @_ZN9grpc_core19NoDestructSingletonINS_11json_detail10AutoLoaderISt8optionalINSt7__cxx1112basic_stringIcSt11char_traitsIcESaIcEEEEEEE3GetEv() #4 comdat align 2 {
entry:
  %call = call noundef nonnull align 8 dereferenceable(8) ptr @_ZN9grpc_core10NoDestructINS_11json_detail10AutoLoaderISt8optionalINSt7__cxx1112basic_stringIcSt11char_traitsIcESaIcEEEEEEEdeEv(ptr noundef nonnull align 8 dereferenceable(8) @_ZN9grpc_core19NoDestructSingletonINS_11json_detail10AutoLoaderISt8optionalINSt7__cxx1112basic_stringIcSt11char_traitsIcESaIcEEEEEEE6value_E)
  ret ptr %call
}

; Function Attrs: mustprogress uwtable
define linkonce_odr noundef nonnull align 8 dereferenceable(8) ptr @_ZN9grpc_core10NoDestructINS_11json_detail10AutoLoaderISt8optionalINSt7__cxx1112basic_stringIcSt11char_traitsIcESaIcEEEEEEEdeEv(ptr noundef nonnull align 8 dereferenceable(8) %this) #4 comdat align 2 {
entry:
  %this.addr = alloca ptr, align 8
  store ptr %this, ptr %this.addr, align 8
  %this1 = load ptr, ptr %this.addr, align 8
  %call = call noundef ptr @_ZN9grpc_core10NoDestructINS_11json_detail10AutoLoaderISt8optionalINSt7__cxx1112basic_stringIcSt11char_traitsIcESaIcEEEEEEE3getEv(ptr noundef nonnull align 8 dereferenceable(8) %this1)
  ret ptr %call
}

; Function Attrs: mustprogress nounwind uwtable
define linkonce_odr noundef ptr @_ZN9grpc_core10NoDestructINS_11json_detail10AutoLoaderISt8optionalINSt7__cxx1112basic_stringIcSt11char_traitsIcESaIcEEEEEEE3getEv(ptr noundef nonnull align 8 dereferenceable(8) %this) #5 comdat align 2 {
entry:
  %this.addr = alloca ptr, align 8
  store ptr %this, ptr %this.addr, align 8
  %this1 = load ptr, ptr %this.addr, align 8
  %space_ = getelementptr inbounds %"class.grpc_core::NoDestruct.132", ptr %this1, i32 0, i32 0
  ret ptr %space_
}

; Function Attrs: mustprogress uwtable
define linkonce_odr void @_ZN9grpc_core11json_detail3VecINS0_7ElementELm1EEC2ERKNS1_IS2_Lm0EEERKS2_(ptr noundef nonnull align 8 dereferenceable(32) %this, ptr noundef nonnull align 1 dereferenceable(1) %other, ptr noundef nonnull align 8 dereferenceable(32) %new_value) unnamed_addr #4 comdat align 2 {
entry:
  %this.addr = alloca ptr, align 8
  %other.addr = alloca ptr, align 8
  %new_value.addr = alloca ptr, align 8
  %i = alloca i64, align 8
  store ptr %this, ptr %this.addr, align 8
  store ptr %other, ptr %other.addr, align 8
  store ptr %new_value, ptr %new_value.addr, align 8
  %this1 = load ptr, ptr %this.addr, align 8
  store i64 0, ptr %i, align 8
  br label %for.cond

for.cond:                                         ; preds = %for.inc, %entry
  %0 = load i64, ptr %i, align 8
  %1 = load ptr, ptr %other.addr, align 8
  %call = call noundef i64 @_ZNK9grpc_core11json_detail3VecINS0_7ElementELm0EE4sizeEv(ptr noundef nonnull align 1 dereferenceable(1) %1)
  %cmp = icmp ult i64 %0, %call
  br i1 %cmp, label %for.body, label %for.end

for.body:                                         ; preds = %for.cond
  %2 = load ptr, ptr %other.addr, align 8
  %call2 = call noundef ptr @_ZNK9grpc_core11json_detail3VecINS0_7ElementELm0EE4dataEv(ptr noundef nonnull align 1 dereferenceable(1) %2)
  %3 = load i64, ptr %i, align 8
  %arrayidx = getelementptr inbounds %"struct.grpc_core::json_detail::Element", ptr %call2, i64 %3
  %values_3 = getelementptr inbounds %"class.grpc_core::json_detail::Vec", ptr %this1, i32 0, i32 0
  %4 = load i64, ptr %i, align 8
  %arrayidx4 = getelementptr inbounds [1 x %"struct.grpc_core::json_detail::Element"], ptr %values_3, i64 0, i64 %4
  call void @llvm.memcpy.p0.p0.i64(ptr align 8 %arrayidx4, ptr align 8 %arrayidx, i64 32, i1 false)
  br label %for.inc

for.inc:                                          ; preds = %for.body
  %5 = load i64, ptr %i, align 8
  %inc = add i64 %5, 1
  store i64 %inc, ptr %i, align 8
  br label %for.cond, !llvm.loop !5

for.end:                                          ; preds = %for.cond
  %6 = load ptr, ptr %new_value.addr, align 8
  %values_5 = getelementptr inbounds %"class.grpc_core::json_detail::Vec", ptr %this1, i32 0, i32 0
  %arrayidx6 = getelementptr inbounds [1 x %"struct.grpc_core::json_detail::Element"], ptr %values_5, i64 0, i64 0
  call void @llvm.memcpy.p0.p0.i64(ptr align 8 %arrayidx6, ptr align 8 %6, i64 32, i1 false)
  ret void
}

; Function Attrs: mustprogress nounwind uwtable
define linkonce_odr noundef i64 @_ZNK9grpc_core11json_detail3VecINS0_7ElementELm0EE4sizeEv(ptr noundef nonnull align 1 dereferenceable(1) %this) #5 comdat align 2 {
entry:
  %this.addr = alloca ptr, align 8
  store ptr %this, ptr %this.addr, align 8
  ret i64 0
}

; Function Attrs: mustprogress nounwind uwtable
define linkonce_odr noundef ptr @_ZNK9grpc_core11json_detail3VecINS0_7ElementELm0EE4dataEv(ptr noundef nonnull align 1 dereferenceable(1) %this) #5 comdat align 2 {
entry:
  %this.addr = alloca ptr, align 8
  store ptr %this, ptr %this.addr, align 8
  ret ptr null
}

; Function Attrs: mustprogress nounwind uwtable
define linkonce_odr void @_ZN9grpc_core9ConstructINS_11json_detail10AutoLoaderINSt7__cxx1112basic_stringIcSt11char_traitsIcESaIcEEEEEJEEEvPT_DpOT0_(ptr noundef %p) #5 comdat {
entry:
  %p.addr = alloca ptr, align 8
  store ptr %p, ptr %p.addr, align 8
  %0 = load ptr, ptr %p.addr, align 8
  call void @llvm.memset.p0.i64(ptr align 8 %0, i8 0, i64 8, i1 false)
  call void @_ZN9grpc_core11json_detail10AutoLoaderINSt7__cxx1112basic_stringIcSt11char_traitsIcESaIcEEEEC2Ev(ptr noundef nonnull align 8 dereferenceable(8) %0) #3
  ret void
}

; Function Attrs: mustprogress nounwind uwtable
define linkonce_odr void @_ZN9grpc_core11json_detail10AutoLoaderINSt7__cxx1112basic_stringIcSt11char_traitsIcESaIcEEEEC2Ev(ptr noundef nonnull align 8 dereferenceable(8) %this) unnamed_addr #5 comdat align 2 {
entry:
  %this.addr = alloca ptr, align 8
  store ptr %this, ptr %this.addr, align 8
  %this1 = load ptr, ptr %this.addr, align 8
  call void @_ZN9grpc_core11json_detail10LoadStringC2Ev(ptr noundef nonnull align 8 dereferenceable(8) %this1) #3
  store ptr getelementptr inbounds ({ [5 x ptr] }, ptr @_ZTVN9grpc_core11json_detail10AutoLoaderINSt7__cxx1112basic_stringIcSt11char_traitsIcESaIcEEEEE, i32 0, inrange i32 0, i32 2), ptr %this1, align 8
  ret void
}

; Function Attrs: mustprogress nounwind uwtable
define linkonce_odr void @_ZN9grpc_core11json_detail10LoadStringC2Ev(ptr noundef nonnull align 8 dereferenceable(8) %this) unnamed_addr #5 comdat align 2 {
entry:
  %this.addr = alloca ptr, align 8
  store ptr %this, ptr %this.addr, align 8
  %this1 = load ptr, ptr %this.addr, align 8
  call void @_ZN9grpc_core11json_detail10LoadScalarC2Ev(ptr noundef nonnull align 8 dereferenceable(8) %this1) #3
  store ptr getelementptr inbounds ({ [5 x ptr] }, ptr @_ZTVN9grpc_core11json_detail10LoadStringE, i32 0, inrange i32 0, i32 2), ptr %this1, align 8
  ret void
}

declare void @_ZNK9grpc_core11json_detail10LoadScalar8LoadIntoERKNS_12experimental4JsonERKNS_8JsonArgsEPvPNS_16ValidationErrorsE(ptr noundef nonnull align 8 dereferenceable(8), ptr noundef nonnull align 8 dereferenceable(56), ptr noundef nonnull align 8 dereferenceable(8), ptr noundef, ptr noundef) unnamed_addr #1

declare noundef zeroext i1 @_ZNK9grpc_core11json_detail10LoadString8IsNumberEv(ptr noundef nonnull align 8 dereferenceable(8)) unnamed_addr #1

declare void @_ZNK9grpc_core11json_detail10LoadString8LoadIntoERKNSt7__cxx1112basic_stringIcSt11char_traitsIcESaIcEEEPvPNS_16ValidationErrorsE(ptr noundef nonnull align 8 dereferenceable(8), ptr noundef nonnull align 8 dereferenceable(32), ptr noundef, ptr noundef) unnamed_addr #1

; Function Attrs: mustprogress nounwind uwtable
define linkonce_odr void @_ZN9grpc_core11json_detail10LoadScalarC2Ev(ptr noundef nonnull align 8 dereferenceable(8) %this) unnamed_addr #5 comdat align 2 {
entry:
  %this.addr = alloca ptr, align 8
  store ptr %this, ptr %this.addr, align 8
  %this1 = load ptr, ptr %this.addr, align 8
  call void @_ZN9grpc_core11json_detail15LoaderInterfaceC2Ev(ptr noundef nonnull align 8 dereferenceable(8) %this1) #3
  store ptr getelementptr inbounds ({ [5 x ptr] }, ptr @_ZTVN9grpc_core11json_detail10LoadScalarE, i32 0, inrange i32 0, i32 2), ptr %this1, align 8
  ret void
}

; Function Attrs: mustprogress nounwind uwtable
define linkonce_odr void @_ZN9grpc_core11json_detail15LoaderInterfaceC2Ev(ptr noundef nonnull align 8 dereferenceable(8) %this) unnamed_addr #5 comdat align 2 {
entry:
  %this.addr = alloca ptr, align 8
  store ptr %this, ptr %this.addr, align 8
  %this1 = load ptr, ptr %this.addr, align 8
  store ptr getelementptr inbounds ({ [3 x ptr] }, ptr @_ZTVN9grpc_core11json_detail15LoaderInterfaceE, i32 0, inrange i32 0, i32 2), ptr %this1, align 8
  ret void
}

declare void @__cxa_pure_virtual() unnamed_addr

; Function Attrs: mustprogress nounwind uwtable
define linkonce_odr void @_ZN9grpc_core9ConstructINS_11json_detail10AutoLoaderISt8optionalINSt7__cxx1112basic_stringIcSt11char_traitsIcESaIcEEEEEEJEEEvPT_DpOT0_(ptr noundef %p) #5 comdat {
entry:
  %p.addr = alloca ptr, align 8
  store ptr %p, ptr %p.addr, align 8
  %0 = load ptr, ptr %p.addr, align 8
  call void @llvm.memset.p0.i64(ptr align 8 %0, i8 0, i64 8, i1 false)
  call void @_ZN9grpc_core11json_detail10AutoLoaderISt8optionalINSt7__cxx1112basic_stringIcSt11char_traitsIcESaIcEEEEEC2Ev(ptr noundef nonnull align 8 dereferenceable(8) %0) #3
  ret void
}

; Function Attrs: mustprogress nounwind uwtable
define linkonce_odr void @_ZN9grpc_core11json_detail10AutoLoaderISt8optionalINSt7__cxx1112basic_stringIcSt11char_traitsIcESaIcEEEEEC2Ev(ptr noundef nonnull align 8 dereferenceable(8) %this) unnamed_addr #5 comdat align 2 {
entry:
  %this.addr = alloca ptr, align 8
  store ptr %this, ptr %this.addr, align 8
  %this1 = load ptr, ptr %this.addr, align 8
  call void @_ZN9grpc_core11json_detail11LoadWrappedC2Ev(ptr noundef nonnull align 8 dereferenceable(8) %this1) #3
  store ptr getelementptr inbounds ({ [6 x ptr] }, ptr @_ZTVN9grpc_core11json_detail10AutoLoaderISt8optionalINSt7__cxx1112basic_stringIcSt11char_traitsIcESaIcEEEEEE, i32 0, inrange i32 0, i32 2), ptr %this1, align 8
  ret void
}

; Function Attrs: mustprogress nounwind uwtable
define linkonce_odr void @_ZN9grpc_core11json_detail11LoadWrappedC2Ev(ptr noundef nonnull align 8 dereferenceable(8) %this) unnamed_addr #5 comdat align 2 {
entry:
  %this.addr = alloca ptr, align 8
  store ptr %this, ptr %this.addr, align 8
  %this1 = load ptr, ptr %this.addr, align 8
  call void @_ZN9grpc_core11json_detail15LoaderInterfaceC2Ev(ptr noundef nonnull align 8 dereferenceable(8) %this1) #3
  store ptr getelementptr inbounds ({ [6 x ptr] }, ptr @_ZTVN9grpc_core11json_detail11LoadWrappedE, i32 0, inrange i32 0, i32 2), ptr %this1, align 8
  ret void
}

declare void @_ZNK9grpc_core11json_detail11LoadWrapped8LoadIntoERKNS_12experimental4JsonERKNS_8JsonArgsEPvPNS_16ValidationErrorsE(ptr noundef nonnull align 8 dereferenceable(8), ptr noundef nonnull align 8 dereferenceable(56), ptr noundef nonnull align 8 dereferenceable(8), ptr noundef, ptr noundef) unnamed_addr #1

; Function Attrs: mustprogress nounwind uwtable
define linkonce_odr noundef ptr @_ZNK9grpc_core11json_detail10AutoLoaderISt8optionalINSt7__cxx1112basic_stringIcSt11char_traitsIcESaIcEEEEE7EmplaceEPv(ptr noundef nonnull align 8 dereferenceable(8) %this, ptr noundef %dst) unnamed_addr #5 comdat align 2 {
entry:
  %this.addr = alloca ptr, align 8
  %dst.addr = alloca ptr, align 8
  store ptr %this, ptr %this.addr, align 8
  store ptr %dst, ptr %dst.addr, align 8
  %0 = load ptr, ptr %dst.addr, align 8
  %call = call noundef nonnull align 8 dereferenceable(32) ptr @_ZNSt8optionalINSt7__cxx1112basic_stringIcSt11char_traitsIcESaIcEEEE7emplaceIJEEENSt9enable_ifIX18is_constructible_vIS5_DpT_EERS5_E4typeEDpOS9_(ptr noundef nonnull align 8 dereferenceable(40) %0) #3
  ret ptr %call
}

; Function Attrs: mustprogress nounwind uwtable
define linkonce_odr void @_ZNK9grpc_core11json_detail10AutoLoaderISt8optionalINSt7__cxx1112basic_stringIcSt11char_traitsIcESaIcEEEEE5ResetEPv(ptr noundef nonnull align 8 dereferenceable(8) %this, ptr noundef %dst) unnamed_addr #5 comdat align 2 {
entry:
  %this.addr = alloca ptr, align 8
  %dst.addr = alloca ptr, align 8
  store ptr %this, ptr %this.addr, align 8
  store ptr %dst, ptr %dst.addr, align 8
  %0 = load ptr, ptr %dst.addr, align 8
  call void @_ZNSt8optionalINSt7__cxx1112basic_stringIcSt11char_traitsIcESaIcEEEE5resetEv(ptr noundef nonnull align 8 dereferenceable(40) %0) #3
  ret void
}

; Function Attrs: mustprogress uwtable
define linkonce_odr noundef ptr @_ZNK9grpc_core11json_detail10AutoLoaderISt8optionalINSt7__cxx1112basic_stringIcSt11char_traitsIcESaIcEEEEE13ElementLoaderEv(ptr noundef nonnull align 8 dereferenceable(8) %this) unnamed_addr #4 comdat align 2 {
entry:
  %this.addr = alloca ptr, align 8
  store ptr %this, ptr %this.addr, align 8
  %call = call noundef ptr @_ZN9grpc_core11json_detail13LoaderForTypeINSt7__cxx1112basic_stringIcSt11char_traitsIcESaIcEEEEEPKNS0_15LoaderInterfaceEv()
  ret ptr %call
}

; Function Attrs: mustprogress nounwind uwtable
define linkonce_odr noundef nonnull align 8 dereferenceable(32) ptr @_ZNSt8optionalINSt7__cxx1112basic_stringIcSt11char_traitsIcESaIcEEEE7emplaceIJEEENSt9enable_ifIX18is_constructible_vIS5_DpT_EERS5_E4typeEDpOS9_(ptr noundef nonnull align 8 dereferenceable(40) %this) #5 comdat align 2 {
entry:
  %this.addr = alloca ptr, align 8
  store ptr %this, ptr %this.addr, align 8
  %this1 = load ptr, ptr %this.addr, align 8
  call void @_ZNSt19_Optional_base_implINSt7__cxx1112basic_stringIcSt11char_traitsIcESaIcEEESt14_Optional_baseIS5_Lb0ELb0EEE8_M_resetEv(ptr noundef nonnull align 1 dereferenceable(1) %this1) #3
  call void @_ZNSt19_Optional_base_implINSt7__cxx1112basic_stringIcSt11char_traitsIcESaIcEEESt14_Optional_baseIS5_Lb0ELb0EEE12_M_constructIJEEEvDpOT_(ptr noundef nonnull align 1 dereferenceable(1) %this1) #3
  %call = call noundef nonnull align 8 dereferenceable(32) ptr @_ZNSt19_Optional_base_implINSt7__cxx1112basic_stringIcSt11char_traitsIcESaIcEEESt14_Optional_baseIS5_Lb0ELb0EEE6_M_getEv(ptr noundef nonnull align 1 dereferenceable(1) %this1) #3
  ret ptr %call
}

; Function Attrs: mustprogress nounwind uwtable
define linkonce_odr void @_ZNSt19_Optional_base_implINSt7__cxx1112basic_stringIcSt11char_traitsIcESaIcEEESt14_Optional_baseIS5_Lb0ELb0EEE8_M_resetEv(ptr noundef nonnull align 1 dereferenceable(1) %this) #5 comdat align 2 {
entry:
  %this.addr = alloca ptr, align 8
  store ptr %this, ptr %this.addr, align 8
  %this1 = load ptr, ptr %this.addr, align 8
  %_M_payload = getelementptr inbounds %"struct.std::_Optional_base", ptr %this1, i32 0, i32 0
  call void @_ZNSt22_Optional_payload_baseINSt7__cxx1112basic_stringIcSt11char_traitsIcESaIcEEEE8_M_resetEv(ptr noundef nonnull align 8 dereferenceable(33) %_M_payload) #3
  ret void
}

; Function Attrs: mustprogress nounwind uwtable
define linkonce_odr void @_ZNSt19_Optional_base_implINSt7__cxx1112basic_stringIcSt11char_traitsIcESaIcEEESt14_Optional_baseIS5_Lb0ELb0EEE12_M_constructIJEEEvDpOT_(ptr noundef nonnull align 1 dereferenceable(1) %this) #5 comdat align 2 {
entry:
  %this.addr = alloca ptr, align 8
  store ptr %this, ptr %this.addr, align 8
  %this1 = load ptr, ptr %this.addr, align 8
  %_M_payload = getelementptr inbounds %"struct.std::_Optional_base", ptr %this1, i32 0, i32 0
  call void @_ZNSt22_Optional_payload_baseINSt7__cxx1112basic_stringIcSt11char_traitsIcESaIcEEEE12_M_constructIJEEEvDpOT_(ptr noundef nonnull align 8 dereferenceable(33) %_M_payload) #3
  ret void
}

; Function Attrs: mustprogress nounwind uwtable
define linkonce_odr noundef nonnull align 8 dereferenceable(32) ptr @_ZNSt19_Optional_base_implINSt7__cxx1112basic_stringIcSt11char_traitsIcESaIcEEESt14_Optional_baseIS5_Lb0ELb0EEE6_M_getEv(ptr noundef nonnull align 1 dereferenceable(1) %this) #5 comdat align 2 {
entry:
  %this.addr = alloca ptr, align 8
  store ptr %this, ptr %this.addr, align 8
  %this1 = load ptr, ptr %this.addr, align 8
  br label %do.body

do.body:                                          ; preds = %entry
  br label %do.cond

do.cond:                                          ; preds = %do.body
  br label %do.end

do.end:                                           ; preds = %do.cond
  %_M_payload = getelementptr inbounds %"struct.std::_Optional_base", ptr %this1, i32 0, i32 0
  %call = call noundef nonnull align 8 dereferenceable(32) ptr @_ZNSt22_Optional_payload_baseINSt7__cxx1112basic_stringIcSt11char_traitsIcESaIcEEEE6_M_getEv(ptr noundef nonnull align 8 dereferenceable(33) %_M_payload) #3
  ret ptr %call
}

; Function Attrs: mustprogress nounwind uwtable
define linkonce_odr void @_ZNSt22_Optional_payload_baseINSt7__cxx1112basic_stringIcSt11char_traitsIcESaIcEEEE8_M_resetEv(ptr noundef nonnull align 8 dereferenceable(33) %this) #5 comdat align 2 {
entry:
  %this.addr = alloca ptr, align 8
  store ptr %this, ptr %this.addr, align 8
  %this1 = load ptr, ptr %this.addr, align 8
  %_M_engaged = getelementptr inbounds %"struct.std::_Optional_payload_base", ptr %this1, i32 0, i32 1
  %0 = load i8, ptr %_M_engaged, align 8
  %tobool = trunc i8 %0 to i1
  br i1 %tobool, label %if.then, label %if.end

if.then:                                          ; preds = %entry
  call void @_ZNSt22_Optional_payload_baseINSt7__cxx1112basic_stringIcSt11char_traitsIcESaIcEEEE10_M_destroyEv(ptr noundef nonnull align 8 dereferenceable(33) %this1) #3
  br label %if.end

if.end:                                           ; preds = %if.then, %entry
  ret void
}

; Function Attrs: mustprogress nounwind uwtable
define linkonce_odr void @_ZNSt22_Optional_payload_baseINSt7__cxx1112basic_stringIcSt11char_traitsIcESaIcEEEE10_M_destroyEv(ptr noundef nonnull align 8 dereferenceable(33) %this) #5 comdat align 2 {
entry:
  %this.addr = alloca ptr, align 8
  store ptr %this, ptr %this.addr, align 8
  %this1 = load ptr, ptr %this.addr, align 8
  %_M_engaged = getelementptr inbounds %"struct.std::_Optional_payload_base", ptr %this1, i32 0, i32 1
  store i8 0, ptr %_M_engaged, align 8
  %_M_payload = getelementptr inbounds %"struct.std::_Optional_payload_base", ptr %this1, i32 0, i32 0
  call void @_ZNSt7__cxx1112basic_stringIcSt11char_traitsIcESaIcEED1Ev(ptr noundef nonnull align 8 dereferenceable(32) %_M_payload) #3
  ret void
}

; Function Attrs: mustprogress nounwind uwtable
define linkonce_odr void @_ZNSt22_Optional_payload_baseINSt7__cxx1112basic_stringIcSt11char_traitsIcESaIcEEEE12_M_constructIJEEEvDpOT_(ptr noundef nonnull align 8 dereferenceable(33) %this) #5 comdat align 2 personality ptr @__gxx_personality_v0 {
entry:
  %this.addr = alloca ptr, align 8
  store ptr %this, ptr %this.addr, align 8
  %this1 = load ptr, ptr %this.addr, align 8
  %_M_payload = getelementptr inbounds %"struct.std::_Optional_payload_base", ptr %this1, i32 0, i32 0
  invoke void @_ZSt10_ConstructINSt7__cxx1112basic_stringIcSt11char_traitsIcESaIcEEEJEEvPT_DpOT0_(ptr noundef %_M_payload)
          to label %invoke.cont unwind label %terminate.lpad

invoke.cont:                                      ; preds = %entry
  %_M_engaged = getelementptr inbounds %"struct.std::_Optional_payload_base", ptr %this1, i32 0, i32 1
  store i8 1, ptr %_M_engaged, align 8
  ret void

terminate.lpad:                                   ; preds = %entry
  %0 = landingpad { ptr, i32 }
          catch ptr null
  %1 = extractvalue { ptr, i32 } %0, 0
  call void @__clang_call_terminate(ptr %1) #15
  unreachable
}

; Function Attrs: mustprogress nounwind uwtable
define linkonce_odr void @_ZSt10_ConstructINSt7__cxx1112basic_stringIcSt11char_traitsIcESaIcEEEJEEvPT_DpOT0_(ptr noundef %__p) #5 comdat {
entry:
  %__p.addr = alloca ptr, align 8
  store ptr %__p, ptr %__p.addr, align 8
  %0 = load ptr, ptr %__p.addr, align 8
  call void @_ZNSt7__cxx1112basic_stringIcSt11char_traitsIcESaIcEEC1Ev(ptr noundef nonnull align 8 dereferenceable(32) %0) #3
  ret void
}

; Function Attrs: nounwind
declare void @_ZNSt7__cxx1112basic_stringIcSt11char_traitsIcESaIcEEC1Ev(ptr noundef nonnull align 8 dereferenceable(32)) unnamed_addr #2

; Function Attrs: mustprogress nounwind uwtable
define linkonce_odr noundef nonnull align 8 dereferenceable(32) ptr @_ZNSt22_Optional_payload_baseINSt7__cxx1112basic_stringIcSt11char_traitsIcESaIcEEEE6_M_getEv(ptr noundef nonnull align 8 dereferenceable(33) %this) #5 comdat align 2 {
entry:
  %this.addr = alloca ptr, align 8
  store ptr %this, ptr %this.addr, align 8
  %this1 = load ptr, ptr %this.addr, align 8
  %_M_payload = getelementptr inbounds %"struct.std::_Optional_payload_base", ptr %this1, i32 0, i32 0
  ret ptr %_M_payload
}

; Function Attrs: mustprogress nounwind uwtable
define linkonce_odr void @_ZNSt8optionalINSt7__cxx1112basic_stringIcSt11char_traitsIcESaIcEEEE5resetEv(ptr noundef nonnull align 8 dereferenceable(40) %this) #5 comdat align 2 {
entry:
  %this.addr = alloca ptr, align 8
  store ptr %this, ptr %this.addr, align 8
  %this1 = load ptr, ptr %this.addr, align 8
  call void @_ZNSt19_Optional_base_implINSt7__cxx1112basic_stringIcSt11char_traitsIcESaIcEEESt14_Optional_baseIS5_Lb0ELb0EEE8_M_resetEv(ptr noundef nonnull align 1 dereferenceable(1) %this1) #3
  ret void
}

; Function Attrs: mustprogress uwtable
define linkonce_odr noundef ptr @_ZN9grpc_core11json_detail13LoaderForTypeINSt7__cxx1112basic_stringIcSt11char_traitsIcESaIcEEEEEPKNS0_15LoaderInterfaceEv() #4 comdat {
entry:
  %call = call noundef ptr @_ZN9grpc_core19NoDestructSingletonINS_11json_detail10AutoLoaderINSt7__cxx1112basic_stringIcSt11char_traitsIcESaIcEEEEEE3GetEv()
  ret ptr %call
}

; Function Attrs: mustprogress uwtable
define linkonce_odr noundef ptr @_ZN9grpc_core19NoDestructSingletonINS_11json_detail10AutoLoaderINSt7__cxx1112basic_stringIcSt11char_traitsIcESaIcEEEEEE3GetEv() #4 comdat align 2 {
entry:
  %call = call noundef nonnull align 8 dereferenceable(8) ptr @_ZN9grpc_core10NoDestructINS_11json_detail10AutoLoaderINSt7__cxx1112basic_stringIcSt11char_traitsIcESaIcEEEEEEdeEv(ptr noundef nonnull align 8 dereferenceable(8) @_ZN9grpc_core19NoDestructSingletonINS_11json_detail10AutoLoaderINSt7__cxx1112basic_stringIcSt11char_traitsIcESaIcEEEEEE6value_E)
  ret ptr %call
}

; Function Attrs: mustprogress uwtable
define linkonce_odr noundef nonnull align 8 dereferenceable(8) ptr @_ZN9grpc_core10NoDestructINS_11json_detail10AutoLoaderINSt7__cxx1112basic_stringIcSt11char_traitsIcESaIcEEEEEEdeEv(ptr noundef nonnull align 8 dereferenceable(8) %this) #4 comdat align 2 {
entry:
  %this.addr = alloca ptr, align 8
  store ptr %this, ptr %this.addr, align 8
  %this1 = load ptr, ptr %this.addr, align 8
  %call = call noundef ptr @_ZN9grpc_core10NoDestructINS_11json_detail10AutoLoaderINSt7__cxx1112basic_stringIcSt11char_traitsIcESaIcEEEEEE3getEv(ptr noundef nonnull align 8 dereferenceable(8) %this1)
  ret ptr %call
}

; Function Attrs: mustprogress nounwind uwtable
define linkonce_odr noundef ptr @_ZN9grpc_core10NoDestructINS_11json_detail10AutoLoaderINSt7__cxx1112basic_stringIcSt11char_traitsIcESaIcEEEEEE3getEv(ptr noundef nonnull align 8 dereferenceable(8) %this) #5 comdat align 2 {
entry:
  %this.addr = alloca ptr, align 8
  store ptr %this, ptr %this.addr, align 8
  %this1 = load ptr, ptr %this.addr, align 8
  %space_ = getelementptr inbounds %"class.grpc_core::NoDestruct", ptr %this1, i32 0, i32 0
  ret ptr %space_
}

; Function Attrs: nobuiltin allocsize(0)
declare noundef nonnull ptr @_Znwm(i64 noundef) #11

; Function Attrs: mustprogress nounwind uwtable
define linkonce_odr void @_ZN9grpc_core11json_detail24FinishedJsonObjectLoaderINS_8internal31ClientChannelGlobalParsedConfig17HealthCheckConfigELm1EvEC2ERKNS0_3VecINS0_7ElementELm1EEE(ptr noundef nonnull align 8 dereferenceable(40) %this, ptr noundef nonnull align 8 dereferenceable(32) %elements) unnamed_addr #5 comdat align 2 {
entry:
  %this.addr = alloca ptr, align 8
  %elements.addr = alloca ptr, align 8
  store ptr %this, ptr %this.addr, align 8
  store ptr %elements, ptr %elements.addr, align 8
  %this1 = load ptr, ptr %this.addr, align 8
  call void @_ZN9grpc_core11json_detail15LoaderInterfaceC2Ev(ptr noundef nonnull align 8 dereferenceable(8) %this1) #3
  store ptr getelementptr inbounds ({ [3 x ptr] }, ptr @_ZTVN9grpc_core11json_detail24FinishedJsonObjectLoaderINS_8internal31ClientChannelGlobalParsedConfig17HealthCheckConfigELm1EvEE, i32 0, inrange i32 0, i32 2), ptr %this1, align 8
  %elements_ = getelementptr inbounds %"class.grpc_core::json_detail::FinishedJsonObjectLoader", ptr %this1, i32 0, i32 1
  %0 = load ptr, ptr %elements.addr, align 8
  call void @llvm.memcpy.p0.p0.i64(ptr align 8 %elements_, ptr align 8 %0, i64 32, i1 false)
  ret void
}

; Function Attrs: mustprogress uwtable
define linkonce_odr void @_ZNK9grpc_core11json_detail24FinishedJsonObjectLoaderINS_8internal31ClientChannelGlobalParsedConfig17HealthCheckConfigELm1EvE8LoadIntoERKNS_12experimental4JsonERKNS_8JsonArgsEPvPNS_16ValidationErrorsE(ptr noundef nonnull align 8 dereferenceable(40) %this, ptr noundef nonnull align 8 dereferenceable(56) %json, ptr noundef nonnull align 8 dereferenceable(8) %args, ptr noundef %dst, ptr noundef %errors) unnamed_addr #4 comdat align 2 {
entry:
  %this.addr = alloca ptr, align 8
  %json.addr = alloca ptr, align 8
  %args.addr = alloca ptr, align 8
  %dst.addr = alloca ptr, align 8
  %errors.addr = alloca ptr, align 8
  store ptr %this, ptr %this.addr, align 8
  store ptr %json, ptr %json.addr, align 8
  store ptr %args, ptr %args.addr, align 8
  store ptr %dst, ptr %dst.addr, align 8
  store ptr %errors, ptr %errors.addr, align 8
  %this1 = load ptr, ptr %this.addr, align 8
  %0 = load ptr, ptr %json.addr, align 8
  %1 = load ptr, ptr %args.addr, align 8
  %elements_ = getelementptr inbounds %"class.grpc_core::json_detail::FinishedJsonObjectLoader", ptr %this1, i32 0, i32 1
  %call = call noundef ptr @_ZNK9grpc_core11json_detail3VecINS0_7ElementELm1EE4dataEv(ptr noundef nonnull align 8 dereferenceable(32) %elements_)
  %elements_2 = getelementptr inbounds %"class.grpc_core::json_detail::FinishedJsonObjectLoader", ptr %this1, i32 0, i32 1
  %call3 = call noundef i64 @_ZNK9grpc_core11json_detail3VecINS0_7ElementELm1EE4sizeEv(ptr noundef nonnull align 8 dereferenceable(32) %elements_2)
  %2 = load ptr, ptr %dst.addr, align 8
  %3 = load ptr, ptr %errors.addr, align 8
  %call4 = call noundef zeroext i1 @_ZN9grpc_core11json_detail10LoadObjectERKNS_12experimental4JsonERKNS_8JsonArgsEPKNS0_7ElementEmPvPNS_16ValidationErrorsE(ptr noundef nonnull align 8 dereferenceable(56) %0, ptr noundef nonnull align 8 dereferenceable(8) %1, ptr noundef %call, i64 noundef %call3, ptr noundef %2, ptr noundef %3)
  ret void
}

declare noundef zeroext i1 @_ZN9grpc_core11json_detail10LoadObjectERKNS_12experimental4JsonERKNS_8JsonArgsEPKNS0_7ElementEmPvPNS_16ValidationErrorsE(ptr noundef nonnull align 8 dereferenceable(56), ptr noundef nonnull align 8 dereferenceable(8), ptr noundef, i64 noundef, ptr noundef, ptr noundef) #1

; Function Attrs: mustprogress nounwind uwtable
define linkonce_odr noundef ptr @_ZNK9grpc_core11json_detail3VecINS0_7ElementELm1EE4dataEv(ptr noundef nonnull align 8 dereferenceable(32) %this) #5 comdat align 2 {
entry:
  %this.addr = alloca ptr, align 8
  store ptr %this, ptr %this.addr, align 8
  %this1 = load ptr, ptr %this.addr, align 8
  %values_ = getelementptr inbounds %"class.grpc_core::json_detail::Vec", ptr %this1, i32 0, i32 0
  %arraydecay = getelementptr inbounds [1 x %"struct.grpc_core::json_detail::Element"], ptr %values_, i64 0, i64 0
  ret ptr %arraydecay
}

; Function Attrs: mustprogress nounwind uwtable
define linkonce_odr noundef i64 @_ZNK9grpc_core11json_detail3VecINS0_7ElementELm1EE4sizeEv(ptr noundef nonnull align 8 dereferenceable(32) %this) #5 comdat align 2 {
entry:
  %this.addr = alloca ptr, align 8
  store ptr %this, ptr %this.addr, align 8
  ret i64 1
}

; Function Attrs: mustprogress uwtable
define linkonce_odr void @_ZNK9grpc_core11json_detail16JsonObjectLoaderINS_8internal31ClientChannelGlobalParsedConfigELm0EE5FieldINSt7__cxx1112basic_stringIcSt11char_traitsIcESaIcEEEEENS1_IS3_Lm1EEEPKcbMS3_T_SE_(ptr noalias sret(%"class.grpc_core::json_detail::JsonObjectLoader.3") align 8 %agg.result, ptr noundef nonnull align 1 dereferenceable(1) %this, ptr noundef %name, i1 noundef zeroext %optional, i64 %p, ptr noundef %enable_key) #4 comdat align 2 {
entry:
  %this.addr = alloca ptr, align 8
  %name.addr = alloca ptr, align 8
  %optional.addr = alloca i8, align 1
  %p.addr = alloca i64, align 8
  %enable_key.addr = alloca ptr, align 8
  %agg.tmp = alloca %"struct.grpc_core::json_detail::Element", align 8
  store ptr %this, ptr %this.addr, align 8
  store ptr %name, ptr %name.addr, align 8
  %frombool = zext i1 %optional to i8
  store i8 %frombool, ptr %optional.addr, align 1
  store i64 %p, ptr %p.addr, align 8
  store ptr %enable_key, ptr %enable_key.addr, align 8
  %this1 = load ptr, ptr %this.addr, align 8
  %0 = load ptr, ptr %name.addr, align 8
  %1 = load i8, ptr %optional.addr, align 1
  %tobool = trunc i8 %1 to i1
  %2 = load i64, ptr %p.addr, align 8
  %call = call noundef ptr @_ZN9grpc_core11json_detail13LoaderForTypeINSt7__cxx1112basic_stringIcSt11char_traitsIcESaIcEEEEEPKNS0_15LoaderInterfaceEv()
  %3 = load ptr, ptr %enable_key.addr, align 8
  call void @_ZN9grpc_core11json_detail7ElementC2INS_8internal31ClientChannelGlobalParsedConfigENSt7__cxx1112basic_stringIcSt11char_traitsIcESaIcEEEEEPKcbMT_T0_PKNS0_15LoaderInterfaceESC_(ptr noundef nonnull align 8 dereferenceable(32) %agg.tmp, ptr noundef %0, i1 noundef zeroext %tobool, i64 %2, ptr noundef %call, ptr noundef %3)
  call void @_ZN9grpc_core11json_detail16JsonObjectLoaderINS_8internal31ClientChannelGlobalParsedConfigELm1EEC2ERKNS0_3VecINS0_7ElementELm0EEES6_(ptr noundef nonnull align 8 dereferenceable(32) %agg.result, ptr noundef nonnull align 1 dereferenceable(1) %this1, ptr noundef byval(%"struct.grpc_core::json_detail::Element") align 8 %agg.tmp)
  ret void
}

; Function Attrs: mustprogress nounwind uwtable
define linkonce_odr void @_ZN9grpc_core11json_detail7ElementC2INS_8internal31ClientChannelGlobalParsedConfigENSt7__cxx1112basic_stringIcSt11char_traitsIcESaIcEEEEEPKcbMT_T0_PKNS0_15LoaderInterfaceESC_(ptr noundef nonnull align 8 dereferenceable(32) %this, ptr noundef %name, i1 noundef zeroext %optional, i64 %p, ptr noundef %loader, ptr noundef %enable_key) unnamed_addr #5 comdat align 2 {
entry:
  %this.addr = alloca ptr, align 8
  %name.addr = alloca ptr, align 8
  %optional.addr = alloca i8, align 1
  %p.addr = alloca i64, align 8
  %loader.addr = alloca ptr, align 8
  %enable_key.addr = alloca ptr, align 8
  store ptr %this, ptr %this.addr, align 8
  store ptr %name, ptr %name.addr, align 8
  %frombool = zext i1 %optional to i8
  store i8 %frombool, ptr %optional.addr, align 1
  store i64 %p, ptr %p.addr, align 8
  store ptr %loader, ptr %loader.addr, align 8
  store ptr %enable_key, ptr %enable_key.addr, align 8
  %this1 = load ptr, ptr %this.addr, align 8
  %loader2 = getelementptr inbounds %"struct.grpc_core::json_detail::Element", ptr %this1, i32 0, i32 0
  %0 = load ptr, ptr %loader.addr, align 8
  store ptr %0, ptr %loader2, align 8
  %member_offset = getelementptr inbounds %"struct.grpc_core::json_detail::Element", ptr %this1, i32 0, i32 1
  %1 = load i64, ptr %p.addr, align 8
  %memptr.offset = getelementptr inbounds i8, ptr null, i64 %1
  %2 = ptrtoint ptr %memptr.offset to i64
  %conv = trunc i64 %2 to i16
  store i16 %conv, ptr %member_offset, align 8
  %optional3 = getelementptr inbounds %"struct.grpc_core::json_detail::Element", ptr %this1, i32 0, i32 2
  %3 = load i8, ptr %optional.addr, align 1
  %tobool = trunc i8 %3 to i1
  %frombool4 = zext i1 %tobool to i8
  store i8 %frombool4, ptr %optional3, align 2
  %name5 = getelementptr inbounds %"struct.grpc_core::json_detail::Element", ptr %this1, i32 0, i32 3
  %4 = load ptr, ptr %name.addr, align 8
  store ptr %4, ptr %name5, align 8
  %enable_key6 = getelementptr inbounds %"struct.grpc_core::json_detail::Element", ptr %this1, i32 0, i32 4
  %5 = load ptr, ptr %enable_key.addr, align 8
  store ptr %5, ptr %enable_key6, align 8
  ret void
}

; Function Attrs: mustprogress uwtable
define linkonce_odr void @_ZN9grpc_core11json_detail16JsonObjectLoaderINS_8internal31ClientChannelGlobalParsedConfigELm1EEC2ERKNS0_3VecINS0_7ElementELm0EEES6_(ptr noundef nonnull align 8 dereferenceable(32) %this, ptr noundef nonnull align 1 dereferenceable(1) %elements, ptr noundef byval(%"struct.grpc_core::json_detail::Element") align 8 %new_element) unnamed_addr #4 comdat align 2 {
entry:
  %this.addr = alloca ptr, align 8
  %elements.addr = alloca ptr, align 8
  store ptr %this, ptr %this.addr, align 8
  store ptr %elements, ptr %elements.addr, align 8
  %this1 = load ptr, ptr %this.addr, align 8
  %elements_ = getelementptr inbounds %"class.grpc_core::json_detail::JsonObjectLoader.3", ptr %this1, i32 0, i32 0
  %0 = load ptr, ptr %elements.addr, align 8
  call void @_ZN9grpc_core11json_detail3VecINS0_7ElementELm1EEC2ERKNS1_IS2_Lm0EEERKS2_(ptr noundef nonnull align 8 dereferenceable(32) %elements_, ptr noundef nonnull align 1 dereferenceable(1) %0, ptr noundef nonnull align 8 dereferenceable(32) %new_element)
  ret void
}

; Function Attrs: mustprogress uwtable
define linkonce_odr void @_ZNK9grpc_core11json_detail16JsonObjectLoaderINS_8internal31ClientChannelGlobalParsedConfigELm1EE5FieldINS3_17HealthCheckConfigEEENS1_IS3_Lm2EEEPKcbMS3_T_S9_(ptr noalias sret(%"class.grpc_core::json_detail::JsonObjectLoader.1") align 8 %agg.result, ptr noundef nonnull align 8 dereferenceable(32) %this, ptr noundef %name, i1 noundef zeroext %optional, i64 %p, ptr noundef %enable_key) #4 comdat align 2 {
entry:
  %this.addr = alloca ptr, align 8
  %name.addr = alloca ptr, align 8
  %optional.addr = alloca i8, align 1
  %p.addr = alloca i64, align 8
  %enable_key.addr = alloca ptr, align 8
  %agg.tmp = alloca %"struct.grpc_core::json_detail::Element", align 8
  store ptr %this, ptr %this.addr, align 8
  store ptr %name, ptr %name.addr, align 8
  %frombool = zext i1 %optional to i8
  store i8 %frombool, ptr %optional.addr, align 1
  store i64 %p, ptr %p.addr, align 8
  store ptr %enable_key, ptr %enable_key.addr, align 8
  %this1 = load ptr, ptr %this.addr, align 8
  %elements_ = getelementptr inbounds %"class.grpc_core::json_detail::JsonObjectLoader.3", ptr %this1, i32 0, i32 0
  %0 = load ptr, ptr %name.addr, align 8
  %1 = load i8, ptr %optional.addr, align 1
  %tobool = trunc i8 %1 to i1
  %2 = load i64, ptr %p.addr, align 8
  %call = call noundef ptr @_ZN9grpc_core11json_detail13LoaderForTypeINS_8internal31ClientChannelGlobalParsedConfig17HealthCheckConfigEEEPKNS0_15LoaderInterfaceEv()
  %3 = load ptr, ptr %enable_key.addr, align 8
  call void @_ZN9grpc_core11json_detail7ElementC2INS_8internal31ClientChannelGlobalParsedConfigENS4_17HealthCheckConfigEEEPKcbMT_T0_PKNS0_15LoaderInterfaceES7_(ptr noundef nonnull align 8 dereferenceable(32) %agg.tmp, ptr noundef %0, i1 noundef zeroext %tobool, i64 %2, ptr noundef %call, ptr noundef %3)
  call void @_ZN9grpc_core11json_detail16JsonObjectLoaderINS_8internal31ClientChannelGlobalParsedConfigELm2EEC2ERKNS0_3VecINS0_7ElementELm1EEES6_(ptr noundef nonnull align 8 dereferenceable(64) %agg.result, ptr noundef nonnull align 8 dereferenceable(32) %elements_, ptr noundef byval(%"struct.grpc_core::json_detail::Element") align 8 %agg.tmp)
  ret void
}

; Function Attrs: mustprogress uwtable
define linkonce_odr noundef ptr @_ZN9grpc_core11json_detail13LoaderForTypeINS_8internal31ClientChannelGlobalParsedConfig17HealthCheckConfigEEEPKNS0_15LoaderInterfaceEv() #4 comdat {
entry:
  %call = call noundef ptr @_ZN9grpc_core19NoDestructSingletonINS_11json_detail10AutoLoaderINS_8internal31ClientChannelGlobalParsedConfig17HealthCheckConfigEEEE3GetEv()
  ret ptr %call
}

; Function Attrs: mustprogress nounwind uwtable
define linkonce_odr void @_ZN9grpc_core11json_detail7ElementC2INS_8internal31ClientChannelGlobalParsedConfigENS4_17HealthCheckConfigEEEPKcbMT_T0_PKNS0_15LoaderInterfaceES7_(ptr noundef nonnull align 8 dereferenceable(32) %this, ptr noundef %name, i1 noundef zeroext %optional, i64 %p, ptr noundef %loader, ptr noundef %enable_key) unnamed_addr #5 comdat align 2 {
entry:
  %this.addr = alloca ptr, align 8
  %name.addr = alloca ptr, align 8
  %optional.addr = alloca i8, align 1
  %p.addr = alloca i64, align 8
  %loader.addr = alloca ptr, align 8
  %enable_key.addr = alloca ptr, align 8
  store ptr %this, ptr %this.addr, align 8
  store ptr %name, ptr %name.addr, align 8
  %frombool = zext i1 %optional to i8
  store i8 %frombool, ptr %optional.addr, align 1
  store i64 %p, ptr %p.addr, align 8
  store ptr %loader, ptr %loader.addr, align 8
  store ptr %enable_key, ptr %enable_key.addr, align 8
  %this1 = load ptr, ptr %this.addr, align 8
  %loader2 = getelementptr inbounds %"struct.grpc_core::json_detail::Element", ptr %this1, i32 0, i32 0
  %0 = load ptr, ptr %loader.addr, align 8
  store ptr %0, ptr %loader2, align 8
  %member_offset = getelementptr inbounds %"struct.grpc_core::json_detail::Element", ptr %this1, i32 0, i32 1
  %1 = load i64, ptr %p.addr, align 8
  %memptr.offset = getelementptr inbounds i8, ptr null, i64 %1
  %2 = ptrtoint ptr %memptr.offset to i64
  %conv = trunc i64 %2 to i16
  store i16 %conv, ptr %member_offset, align 8
  %optional3 = getelementptr inbounds %"struct.grpc_core::json_detail::Element", ptr %this1, i32 0, i32 2
  %3 = load i8, ptr %optional.addr, align 1
  %tobool = trunc i8 %3 to i1
  %frombool4 = zext i1 %tobool to i8
  store i8 %frombool4, ptr %optional3, align 2
  %name5 = getelementptr inbounds %"struct.grpc_core::json_detail::Element", ptr %this1, i32 0, i32 3
  %4 = load ptr, ptr %name.addr, align 8
  store ptr %4, ptr %name5, align 8
  %enable_key6 = getelementptr inbounds %"struct.grpc_core::json_detail::Element", ptr %this1, i32 0, i32 4
  %5 = load ptr, ptr %enable_key.addr, align 8
  store ptr %5, ptr %enable_key6, align 8
  ret void
}

; Function Attrs: mustprogress uwtable
define linkonce_odr void @_ZN9grpc_core11json_detail16JsonObjectLoaderINS_8internal31ClientChannelGlobalParsedConfigELm2EEC2ERKNS0_3VecINS0_7ElementELm1EEES6_(ptr noundef nonnull align 8 dereferenceable(64) %this, ptr noundef nonnull align 8 dereferenceable(32) %elements, ptr noundef byval(%"struct.grpc_core::json_detail::Element") align 8 %new_element) unnamed_addr #4 comdat align 2 {
entry:
  %this.addr = alloca ptr, align 8
  %elements.addr = alloca ptr, align 8
  store ptr %this, ptr %this.addr, align 8
  store ptr %elements, ptr %elements.addr, align 8
  %this1 = load ptr, ptr %this.addr, align 8
  %elements_ = getelementptr inbounds %"class.grpc_core::json_detail::JsonObjectLoader.1", ptr %this1, i32 0, i32 0
  %0 = load ptr, ptr %elements.addr, align 8
  call void @_ZN9grpc_core11json_detail3VecINS0_7ElementELm2EEC2ERKNS1_IS2_Lm1EEERKS2_(ptr noundef nonnull align 8 dereferenceable(64) %elements_, ptr noundef nonnull align 8 dereferenceable(32) %0, ptr noundef nonnull align 8 dereferenceable(32) %new_element)
  ret void
}

; Function Attrs: mustprogress uwtable
define linkonce_odr noundef ptr @_ZN9grpc_core19NoDestructSingletonINS_11json_detail10AutoLoaderINS_8internal31ClientChannelGlobalParsedConfig17HealthCheckConfigEEEE3GetEv() #4 comdat align 2 {
entry:
  %call = call noundef nonnull align 8 dereferenceable(8) ptr @_ZN9grpc_core10NoDestructINS_11json_detail10AutoLoaderINS_8internal31ClientChannelGlobalParsedConfig17HealthCheckConfigEEEEdeEv(ptr noundef nonnull align 8 dereferenceable(8) @_ZN9grpc_core19NoDestructSingletonINS_11json_detail10AutoLoaderINS_8internal31ClientChannelGlobalParsedConfig17HealthCheckConfigEEEE6value_E)
  ret ptr %call
}

; Function Attrs: mustprogress uwtable
define linkonce_odr noundef nonnull align 8 dereferenceable(8) ptr @_ZN9grpc_core10NoDestructINS_11json_detail10AutoLoaderINS_8internal31ClientChannelGlobalParsedConfig17HealthCheckConfigEEEEdeEv(ptr noundef nonnull align 8 dereferenceable(8) %this) #4 comdat align 2 {
entry:
  %this.addr = alloca ptr, align 8
  store ptr %this, ptr %this.addr, align 8
  %this1 = load ptr, ptr %this.addr, align 8
  %call = call noundef ptr @_ZN9grpc_core10NoDestructINS_11json_detail10AutoLoaderINS_8internal31ClientChannelGlobalParsedConfig17HealthCheckConfigEEEE3getEv(ptr noundef nonnull align 8 dereferenceable(8) %this1)
  ret ptr %call
}

; Function Attrs: mustprogress nounwind uwtable
define linkonce_odr noundef ptr @_ZN9grpc_core10NoDestructINS_11json_detail10AutoLoaderINS_8internal31ClientChannelGlobalParsedConfig17HealthCheckConfigEEEE3getEv(ptr noundef nonnull align 8 dereferenceable(8) %this) #5 comdat align 2 {
entry:
  %this.addr = alloca ptr, align 8
  store ptr %this, ptr %this.addr, align 8
  %this1 = load ptr, ptr %this.addr, align 8
  %space_ = getelementptr inbounds %"class.grpc_core::NoDestruct.133", ptr %this1, i32 0, i32 0
  ret ptr %space_
}

; Function Attrs: mustprogress nounwind uwtable
define linkonce_odr void @_ZN9grpc_core11json_detail3VecINS0_7ElementELm2EEC2ERKNS1_IS2_Lm1EEERKS2_(ptr noundef nonnull align 8 dereferenceable(64) %this, ptr noundef nonnull align 8 dereferenceable(32) %other, ptr noundef nonnull align 8 dereferenceable(32) %new_value) unnamed_addr #5 comdat align 2 {
entry:
  %this.addr = alloca ptr, align 8
  %other.addr = alloca ptr, align 8
  %new_value.addr = alloca ptr, align 8
  %i = alloca i64, align 8
  store ptr %this, ptr %this.addr, align 8
  store ptr %other, ptr %other.addr, align 8
  store ptr %new_value, ptr %new_value.addr, align 8
  %this1 = load ptr, ptr %this.addr, align 8
  store i64 0, ptr %i, align 8
  br label %for.cond

for.cond:                                         ; preds = %for.inc, %entry
  %0 = load i64, ptr %i, align 8
  %1 = load ptr, ptr %other.addr, align 8
  %call = call noundef i64 @_ZNK9grpc_core11json_detail3VecINS0_7ElementELm1EE4sizeEv(ptr noundef nonnull align 8 dereferenceable(32) %1)
  %cmp = icmp ult i64 %0, %call
  br i1 %cmp, label %for.body, label %for.end

for.body:                                         ; preds = %for.cond
  %2 = load ptr, ptr %other.addr, align 8
  %call2 = call noundef ptr @_ZNK9grpc_core11json_detail3VecINS0_7ElementELm1EE4dataEv(ptr noundef nonnull align 8 dereferenceable(32) %2)
  %3 = load i64, ptr %i, align 8
  %arrayidx = getelementptr inbounds %"struct.grpc_core::json_detail::Element", ptr %call2, i64 %3
  %values_3 = getelementptr inbounds %"class.grpc_core::json_detail::Vec.2", ptr %this1, i32 0, i32 0
  %4 = load i64, ptr %i, align 8
  %arrayidx4 = getelementptr inbounds [2 x %"struct.grpc_core::json_detail::Element"], ptr %values_3, i64 0, i64 %4
  call void @llvm.memcpy.p0.p0.i64(ptr align 8 %arrayidx4, ptr align 8 %arrayidx, i64 32, i1 false)
  br label %for.inc

for.inc:                                          ; preds = %for.body
  %5 = load i64, ptr %i, align 8
  %inc = add i64 %5, 1
  store i64 %inc, ptr %i, align 8
  br label %for.cond, !llvm.loop !7

for.end:                                          ; preds = %for.cond
  %6 = load ptr, ptr %new_value.addr, align 8
  %values_5 = getelementptr inbounds %"class.grpc_core::json_detail::Vec.2", ptr %this1, i32 0, i32 0
  %arrayidx6 = getelementptr inbounds [2 x %"struct.grpc_core::json_detail::Element"], ptr %values_5, i64 0, i64 1
  call void @llvm.memcpy.p0.p0.i64(ptr align 8 %arrayidx6, ptr align 8 %6, i64 32, i1 false)
  ret void
}

; Function Attrs: mustprogress nounwind uwtable
define linkonce_odr void @_ZN9grpc_core9ConstructINS_11json_detail10AutoLoaderINS_8internal31ClientChannelGlobalParsedConfig17HealthCheckConfigEEEJEEEvPT_DpOT0_(ptr noundef %p) #5 comdat {
entry:
  %p.addr = alloca ptr, align 8
  store ptr %p, ptr %p.addr, align 8
  %0 = load ptr, ptr %p.addr, align 8
  call void @llvm.memset.p0.i64(ptr align 8 %0, i8 0, i64 8, i1 false)
  call void @_ZN9grpc_core11json_detail10AutoLoaderINS_8internal31ClientChannelGlobalParsedConfig17HealthCheckConfigEEC2Ev(ptr noundef nonnull align 8 dereferenceable(8) %0) #3
  ret void
}

; Function Attrs: mustprogress nounwind uwtable
define linkonce_odr void @_ZN9grpc_core11json_detail10AutoLoaderINS_8internal31ClientChannelGlobalParsedConfig17HealthCheckConfigEEC2Ev(ptr noundef nonnull align 8 dereferenceable(8) %this) unnamed_addr #5 comdat align 2 {
entry:
  %this.addr = alloca ptr, align 8
  store ptr %this, ptr %this.addr, align 8
  %this1 = load ptr, ptr %this.addr, align 8
  call void @_ZN9grpc_core11json_detail15LoaderInterfaceC2Ev(ptr noundef nonnull align 8 dereferenceable(8) %this1) #3
  store ptr getelementptr inbounds ({ [3 x ptr] }, ptr @_ZTVN9grpc_core11json_detail10AutoLoaderINS_8internal31ClientChannelGlobalParsedConfig17HealthCheckConfigEEE, i32 0, inrange i32 0, i32 2), ptr %this1, align 8
  ret void
}

; Function Attrs: mustprogress uwtable
define linkonce_odr void @_ZNK9grpc_core11json_detail10AutoLoaderINS_8internal31ClientChannelGlobalParsedConfig17HealthCheckConfigEE8LoadIntoERKNS_12experimental4JsonERKNS_8JsonArgsEPvPNS_16ValidationErrorsE(ptr noundef nonnull align 8 dereferenceable(8) %this, ptr noundef nonnull align 8 dereferenceable(56) %json, ptr noundef nonnull align 8 dereferenceable(8) %args, ptr noundef %dst, ptr noundef %errors) unnamed_addr #4 comdat align 2 {
entry:
  %this.addr = alloca ptr, align 8
  %json.addr = alloca ptr, align 8
  %args.addr = alloca ptr, align 8
  %dst.addr = alloca ptr, align 8
  %errors.addr = alloca ptr, align 8
  store ptr %this, ptr %this.addr, align 8
  store ptr %json, ptr %json.addr, align 8
  store ptr %args, ptr %args.addr, align 8
  store ptr %dst, ptr %dst.addr, align 8
  store ptr %errors, ptr %errors.addr, align 8
  %0 = load ptr, ptr %args.addr, align 8
  %call = call noundef ptr @_ZN9grpc_core8internal31ClientChannelGlobalParsedConfig17HealthCheckConfig10JsonLoaderERKNS_8JsonArgsE(ptr noundef nonnull align 8 dereferenceable(8) %0)
  %1 = load ptr, ptr %json.addr, align 8
  %2 = load ptr, ptr %args.addr, align 8
  %3 = load ptr, ptr %dst.addr, align 8
  %4 = load ptr, ptr %errors.addr, align 8
  %vtable = load ptr, ptr %call, align 8
  %vfn = getelementptr inbounds ptr, ptr %vtable, i64 0
  %5 = load ptr, ptr %vfn, align 8
  call void %5(ptr noundef nonnull align 8 dereferenceable(8) %call, ptr noundef nonnull align 8 dereferenceable(56) %1, ptr noundef nonnull align 8 dereferenceable(8) %2, ptr noundef %3, ptr noundef %4)
  ret void
}

; Function Attrs: mustprogress nounwind uwtable
define linkonce_odr void @_ZN9grpc_core11json_detail24FinishedJsonObjectLoaderINS_8internal31ClientChannelGlobalParsedConfigELm2EvEC2ERKNS0_3VecINS0_7ElementELm2EEE(ptr noundef nonnull align 8 dereferenceable(72) %this, ptr noundef nonnull align 8 dereferenceable(64) %elements) unnamed_addr #5 comdat align 2 {
entry:
  %this.addr = alloca ptr, align 8
  %elements.addr = alloca ptr, align 8
  store ptr %this, ptr %this.addr, align 8
  store ptr %elements, ptr %elements.addr, align 8
  %this1 = load ptr, ptr %this.addr, align 8
  call void @_ZN9grpc_core11json_detail15LoaderInterfaceC2Ev(ptr noundef nonnull align 8 dereferenceable(8) %this1) #3
  store ptr getelementptr inbounds ({ [3 x ptr] }, ptr @_ZTVN9grpc_core11json_detail24FinishedJsonObjectLoaderINS_8internal31ClientChannelGlobalParsedConfigELm2EvEE, i32 0, inrange i32 0, i32 2), ptr %this1, align 8
  %elements_ = getelementptr inbounds %"class.grpc_core::json_detail::FinishedJsonObjectLoader.5", ptr %this1, i32 0, i32 1
  %0 = load ptr, ptr %elements.addr, align 8
  call void @llvm.memcpy.p0.p0.i64(ptr align 8 %elements_, ptr align 8 %0, i64 64, i1 false)
  ret void
}

; Function Attrs: mustprogress uwtable
define linkonce_odr void @_ZNK9grpc_core11json_detail24FinishedJsonObjectLoaderINS_8internal31ClientChannelGlobalParsedConfigELm2EvE8LoadIntoERKNS_12experimental4JsonERKNS_8JsonArgsEPvPNS_16ValidationErrorsE(ptr noundef nonnull align 8 dereferenceable(72) %this, ptr noundef nonnull align 8 dereferenceable(56) %json, ptr noundef nonnull align 8 dereferenceable(8) %args, ptr noundef %dst, ptr noundef %errors) unnamed_addr #4 comdat align 2 {
entry:
  %this.addr = alloca ptr, align 8
  %json.addr = alloca ptr, align 8
  %args.addr = alloca ptr, align 8
  %dst.addr = alloca ptr, align 8
  %errors.addr = alloca ptr, align 8
  store ptr %this, ptr %this.addr, align 8
  store ptr %json, ptr %json.addr, align 8
  store ptr %args, ptr %args.addr, align 8
  store ptr %dst, ptr %dst.addr, align 8
  store ptr %errors, ptr %errors.addr, align 8
  %this1 = load ptr, ptr %this.addr, align 8
  %0 = load ptr, ptr %json.addr, align 8
  %1 = load ptr, ptr %args.addr, align 8
  %elements_ = getelementptr inbounds %"class.grpc_core::json_detail::FinishedJsonObjectLoader.5", ptr %this1, i32 0, i32 1
  %call = call noundef ptr @_ZNK9grpc_core11json_detail3VecINS0_7ElementELm2EE4dataEv(ptr noundef nonnull align 8 dereferenceable(64) %elements_)
  %elements_2 = getelementptr inbounds %"class.grpc_core::json_detail::FinishedJsonObjectLoader.5", ptr %this1, i32 0, i32 1
  %call3 = call noundef i64 @_ZNK9grpc_core11json_detail3VecINS0_7ElementELm2EE4sizeEv(ptr noundef nonnull align 8 dereferenceable(64) %elements_2)
  %2 = load ptr, ptr %dst.addr, align 8
  %3 = load ptr, ptr %errors.addr, align 8
  %call4 = call noundef zeroext i1 @_ZN9grpc_core11json_detail10LoadObjectERKNS_12experimental4JsonERKNS_8JsonArgsEPKNS0_7ElementEmPvPNS_16ValidationErrorsE(ptr noundef nonnull align 8 dereferenceable(56) %0, ptr noundef nonnull align 8 dereferenceable(8) %1, ptr noundef %call, i64 noundef %call3, ptr noundef %2, ptr noundef %3)
  br i1 %call4, label %if.then, label %if.end

if.then:                                          ; preds = %entry
  %4 = load ptr, ptr %dst.addr, align 8
  %5 = load ptr, ptr %json.addr, align 8
  %6 = load ptr, ptr %args.addr, align 8
  %7 = load ptr, ptr %errors.addr, align 8
  call void @_ZN9grpc_core8internal31ClientChannelGlobalParsedConfig12JsonPostLoadERKNS_12experimental4JsonERKNS_8JsonArgsEPNS_16ValidationErrorsE(ptr noundef nonnull align 8 dereferenceable(88) %4, ptr noundef nonnull align 8 dereferenceable(56) %5, ptr noundef nonnull align 8 dereferenceable(8) %6, ptr noundef %7)
  br label %if.end

if.end:                                           ; preds = %if.then, %entry
  ret void
}

; Function Attrs: mustprogress nounwind uwtable
define linkonce_odr noundef ptr @_ZNK9grpc_core11json_detail3VecINS0_7ElementELm2EE4dataEv(ptr noundef nonnull align 8 dereferenceable(64) %this) #5 comdat align 2 {
entry:
  %this.addr = alloca ptr, align 8
  store ptr %this, ptr %this.addr, align 8
  %this1 = load ptr, ptr %this.addr, align 8
  %values_ = getelementptr inbounds %"class.grpc_core::json_detail::Vec.2", ptr %this1, i32 0, i32 0
  %arraydecay = getelementptr inbounds [2 x %"struct.grpc_core::json_detail::Element"], ptr %values_, i64 0, i64 0
  ret ptr %arraydecay
}

; Function Attrs: mustprogress nounwind uwtable
define linkonce_odr noundef i64 @_ZNK9grpc_core11json_detail3VecINS0_7ElementELm2EE4sizeEv(ptr noundef nonnull align 8 dereferenceable(64) %this) #5 comdat align 2 {
entry:
  %this.addr = alloca ptr, align 8
  store ptr %this, ptr %this.addr, align 8
  ret i64 2
}

; Function Attrs: mustprogress uwtable
define linkonce_odr ptr @_ZNKSt8_Rb_treeINSt7__cxx1112basic_stringIcSt11char_traitsIcESaIcEEESt4pairIKS5_N9grpc_core12experimental4JsonEESt10_Select1stISB_ESt4lessIS5_ESaISB_EE4findERS7_(ptr noundef nonnull align 8 dereferenceable(48) %this, ptr noundef nonnull align 8 dereferenceable(32) %__k) #4 comdat align 2 {
entry:
  %retval = alloca %"struct.std::_Rb_tree_const_iterator", align 8
  %this.addr = alloca ptr, align 8
  %__k.addr = alloca ptr, align 8
  %__j = alloca %"struct.std::_Rb_tree_const_iterator", align 8
  %ref.tmp = alloca %"struct.std::_Rb_tree_const_iterator", align 8
  store ptr %this, ptr %this.addr, align 8
  store ptr %__k, ptr %__k.addr, align 8
  %this1 = load ptr, ptr %this.addr, align 8
  %call = call noundef ptr @_ZNKSt8_Rb_treeINSt7__cxx1112basic_stringIcSt11char_traitsIcESaIcEEESt4pairIKS5_N9grpc_core12experimental4JsonEESt10_Select1stISB_ESt4lessIS5_ESaISB_EE8_M_beginEv(ptr noundef nonnull align 8 dereferenceable(48) %this1) #3
  %call2 = call noundef ptr @_ZNKSt8_Rb_treeINSt7__cxx1112basic_stringIcSt11char_traitsIcESaIcEEESt4pairIKS5_N9grpc_core12experimental4JsonEESt10_Select1stISB_ESt4lessIS5_ESaISB_EE6_M_endEv(ptr noundef nonnull align 8 dereferenceable(48) %this1) #3
  %0 = load ptr, ptr %__k.addr, align 8
  %call3 = call ptr @_ZNKSt8_Rb_treeINSt7__cxx1112basic_stringIcSt11char_traitsIcESaIcEEESt4pairIKS5_N9grpc_core12experimental4JsonEESt10_Select1stISB_ESt4lessIS5_ESaISB_EE14_M_lower_boundEPKSt13_Rb_tree_nodeISB_EPKSt18_Rb_tree_node_baseRS7_(ptr noundef nonnull align 8 dereferenceable(48) %this1, ptr noundef %call, ptr noundef %call2, ptr noundef nonnull align 8 dereferenceable(32) %0)
  %coerce.dive = getelementptr inbounds %"struct.std::_Rb_tree_const_iterator", ptr %__j, i32 0, i32 0
  store ptr %call3, ptr %coerce.dive, align 8
  %call4 = call ptr @_ZNKSt8_Rb_treeINSt7__cxx1112basic_stringIcSt11char_traitsIcESaIcEEESt4pairIKS5_N9grpc_core12experimental4JsonEESt10_Select1stISB_ESt4lessIS5_ESaISB_EE3endEv(ptr noundef nonnull align 8 dereferenceable(48) %this1) #3
  %coerce.dive5 = getelementptr inbounds %"struct.std::_Rb_tree_const_iterator", ptr %ref.tmp, i32 0, i32 0
  store ptr %call4, ptr %coerce.dive5, align 8
  %call6 = call noundef zeroext i1 @_ZSteqRKSt23_Rb_tree_const_iteratorISt4pairIKNSt7__cxx1112basic_stringIcSt11char_traitsIcESaIcEEEN9grpc_core12experimental4JsonEEESE_(ptr noundef nonnull align 8 dereferenceable(8) %__j, ptr noundef nonnull align 8 dereferenceable(8) %ref.tmp) #3
  br i1 %call6, label %cond.true, label %lor.lhs.false

lor.lhs.false:                                    ; preds = %entry
  %_M_impl = getelementptr inbounds %"class.std::_Rb_tree.67", ptr %this1, i32 0, i32 0
  %_M_key_compare = getelementptr inbounds %"struct.std::_Rb_tree_key_compare.71", ptr %_M_impl, i32 0, i32 0
  %1 = load ptr, ptr %__k.addr, align 8
  %_M_node = getelementptr inbounds %"struct.std::_Rb_tree_const_iterator", ptr %__j, i32 0, i32 0
  %2 = load ptr, ptr %_M_node, align 8
  %call7 = call noundef nonnull align 8 dereferenceable(32) ptr @_ZNSt8_Rb_treeINSt7__cxx1112basic_stringIcSt11char_traitsIcESaIcEEESt4pairIKS5_N9grpc_core12experimental4JsonEESt10_Select1stISB_ESt4lessIS5_ESaISB_EE6_S_keyEPKSt18_Rb_tree_node_base(ptr noundef %2)
  %call8 = call noundef zeroext i1 @_ZNKSt4lessINSt7__cxx1112basic_stringIcSt11char_traitsIcESaIcEEEEclERKS5_S8_(ptr noundef nonnull align 1 dereferenceable(1) %_M_key_compare, ptr noundef nonnull align 8 dereferenceable(32) %1, ptr noundef nonnull align 8 dereferenceable(32) %call7)
  br i1 %call8, label %cond.true, label %cond.false

cond.true:                                        ; preds = %lor.lhs.false, %entry
  %call9 = call ptr @_ZNKSt8_Rb_treeINSt7__cxx1112basic_stringIcSt11char_traitsIcESaIcEEESt4pairIKS5_N9grpc_core12experimental4JsonEESt10_Select1stISB_ESt4lessIS5_ESaISB_EE3endEv(ptr noundef nonnull align 8 dereferenceable(48) %this1) #3
  %coerce.dive10 = getelementptr inbounds %"struct.std::_Rb_tree_const_iterator", ptr %retval, i32 0, i32 0
  store ptr %call9, ptr %coerce.dive10, align 8
  br label %cond.end

cond.false:                                       ; preds = %lor.lhs.false
  call void @llvm.memcpy.p0.p0.i64(ptr align 8 %retval, ptr align 8 %__j, i64 8, i1 false)
  br label %cond.end

cond.end:                                         ; preds = %cond.false, %cond.true
  %coerce.dive11 = getelementptr inbounds %"struct.std::_Rb_tree_const_iterator", ptr %retval, i32 0, i32 0
  %3 = load ptr, ptr %coerce.dive11, align 8
  ret ptr %3
}

; Function Attrs: mustprogress uwtable
define linkonce_odr ptr @_ZNKSt8_Rb_treeINSt7__cxx1112basic_stringIcSt11char_traitsIcESaIcEEESt4pairIKS5_N9grpc_core12experimental4JsonEESt10_Select1stISB_ESt4lessIS5_ESaISB_EE14_M_lower_boundEPKSt13_Rb_tree_nodeISB_EPKSt18_Rb_tree_node_baseRS7_(ptr noundef nonnull align 8 dereferenceable(48) %this, ptr noundef %__x, ptr noundef %__y, ptr noundef nonnull align 8 dereferenceable(32) %__k) #4 comdat align 2 {
entry:
  %retval = alloca %"struct.std::_Rb_tree_const_iterator", align 8
  %this.addr = alloca ptr, align 8
  %__x.addr = alloca ptr, align 8
  %__y.addr = alloca ptr, align 8
  %__k.addr = alloca ptr, align 8
  store ptr %this, ptr %this.addr, align 8
  store ptr %__x, ptr %__x.addr, align 8
  store ptr %__y, ptr %__y.addr, align 8
  store ptr %__k, ptr %__k.addr, align 8
  %this1 = load ptr, ptr %this.addr, align 8
  br label %while.cond

while.cond:                                       ; preds = %if.end, %entry
  %0 = load ptr, ptr %__x.addr, align 8
  %cmp = icmp ne ptr %0, null
  br i1 %cmp, label %while.body, label %while.end

while.body:                                       ; preds = %while.cond
  %_M_impl = getelementptr inbounds %"class.std::_Rb_tree.67", ptr %this1, i32 0, i32 0
  %_M_key_compare = getelementptr inbounds %"struct.std::_Rb_tree_key_compare.71", ptr %_M_impl, i32 0, i32 0
  %1 = load ptr, ptr %__x.addr, align 8
  %call = call noundef nonnull align 8 dereferenceable(32) ptr @_ZNSt8_Rb_treeINSt7__cxx1112basic_stringIcSt11char_traitsIcESaIcEEESt4pairIKS5_N9grpc_core12experimental4JsonEESt10_Select1stISB_ESt4lessIS5_ESaISB_EE6_S_keyEPKSt13_Rb_tree_nodeISB_E(ptr noundef %1)
  %2 = load ptr, ptr %__k.addr, align 8
  %call2 = call noundef zeroext i1 @_ZNKSt4lessINSt7__cxx1112basic_stringIcSt11char_traitsIcESaIcEEEEclERKS5_S8_(ptr noundef nonnull align 1 dereferenceable(1) %_M_key_compare, ptr noundef nonnull align 8 dereferenceable(32) %call, ptr noundef nonnull align 8 dereferenceable(32) %2)
  br i1 %call2, label %if.else, label %if.then

if.then:                                          ; preds = %while.body
  %3 = load ptr, ptr %__x.addr, align 8
  store ptr %3, ptr %__y.addr, align 8
  %4 = load ptr, ptr %__x.addr, align 8
  %call3 = call noundef ptr @_ZNSt8_Rb_treeINSt7__cxx1112basic_stringIcSt11char_traitsIcESaIcEEESt4pairIKS5_N9grpc_core12experimental4JsonEESt10_Select1stISB_ESt4lessIS5_ESaISB_EE7_S_leftEPKSt18_Rb_tree_node_base(ptr noundef %4) #3
  store ptr %call3, ptr %__x.addr, align 8
  br label %if.end

if.else:                                          ; preds = %while.body
  %5 = load ptr, ptr %__x.addr, align 8
  %call4 = call noundef ptr @_ZNSt8_Rb_treeINSt7__cxx1112basic_stringIcSt11char_traitsIcESaIcEEESt4pairIKS5_N9grpc_core12experimental4JsonEESt10_Select1stISB_ESt4lessIS5_ESaISB_EE8_S_rightEPKSt18_Rb_tree_node_base(ptr noundef %5) #3
  store ptr %call4, ptr %__x.addr, align 8
  br label %if.end

if.end:                                           ; preds = %if.else, %if.then
  br label %while.cond, !llvm.loop !8

while.end:                                        ; preds = %while.cond
  %6 = load ptr, ptr %__y.addr, align 8
  call void @_ZNSt23_Rb_tree_const_iteratorISt4pairIKNSt7__cxx1112basic_stringIcSt11char_traitsIcESaIcEEEN9grpc_core12experimental4JsonEEEC2EPKSt18_Rb_tree_node_base(ptr noundef nonnull align 8 dereferenceable(8) %retval, ptr noundef %6) #3
  %coerce.dive = getelementptr inbounds %"struct.std::_Rb_tree_const_iterator", ptr %retval, i32 0, i32 0
  %7 = load ptr, ptr %coerce.dive, align 8
  ret ptr %7
}

; Function Attrs: mustprogress nounwind uwtable
define linkonce_odr noundef ptr @_ZNKSt8_Rb_treeINSt7__cxx1112basic_stringIcSt11char_traitsIcESaIcEEESt4pairIKS5_N9grpc_core12experimental4JsonEESt10_Select1stISB_ESt4lessIS5_ESaISB_EE8_M_beginEv(ptr noundef nonnull align 8 dereferenceable(48) %this) #5 comdat align 2 {
entry:
  %this.addr = alloca ptr, align 8
  store ptr %this, ptr %this.addr, align 8
  %this1 = load ptr, ptr %this.addr, align 8
  %_M_impl = getelementptr inbounds %"class.std::_Rb_tree.67", ptr %this1, i32 0, i32 0
  %add.ptr = getelementptr inbounds i8, ptr %_M_impl, i64 8
  %_M_header = getelementptr inbounds %"struct.std::_Rb_tree_header", ptr %add.ptr, i32 0, i32 0
  %_M_parent = getelementptr inbounds %"struct.std::_Rb_tree_node_base", ptr %_M_header, i32 0, i32 1
  %0 = load ptr, ptr %_M_parent, align 8
  ret ptr %0
}

; Function Attrs: mustprogress nounwind uwtable
define linkonce_odr noundef ptr @_ZNKSt8_Rb_treeINSt7__cxx1112basic_stringIcSt11char_traitsIcESaIcEEESt4pairIKS5_N9grpc_core12experimental4JsonEESt10_Select1stISB_ESt4lessIS5_ESaISB_EE6_M_endEv(ptr noundef nonnull align 8 dereferenceable(48) %this) #5 comdat align 2 {
entry:
  %this.addr = alloca ptr, align 8
  store ptr %this, ptr %this.addr, align 8
  %this1 = load ptr, ptr %this.addr, align 8
  %_M_impl = getelementptr inbounds %"class.std::_Rb_tree.67", ptr %this1, i32 0, i32 0
  %add.ptr = getelementptr inbounds i8, ptr %_M_impl, i64 8
  %_M_header = getelementptr inbounds %"struct.std::_Rb_tree_header", ptr %add.ptr, i32 0, i32 0
  ret ptr %_M_header
}

; Function Attrs: mustprogress nounwind uwtable
define linkonce_odr noundef zeroext i1 @_ZSteqRKSt23_Rb_tree_const_iteratorISt4pairIKNSt7__cxx1112basic_stringIcSt11char_traitsIcESaIcEEEN9grpc_core12experimental4JsonEEESE_(ptr noundef nonnull align 8 dereferenceable(8) %__x, ptr noundef nonnull align 8 dereferenceable(8) %__y) #5 comdat {
entry:
  %__x.addr = alloca ptr, align 8
  %__y.addr = alloca ptr, align 8
  store ptr %__x, ptr %__x.addr, align 8
  store ptr %__y, ptr %__y.addr, align 8
  %0 = load ptr, ptr %__x.addr, align 8
  %_M_node = getelementptr inbounds %"struct.std::_Rb_tree_const_iterator", ptr %0, i32 0, i32 0
  %1 = load ptr, ptr %_M_node, align 8
  %2 = load ptr, ptr %__y.addr, align 8
  %_M_node1 = getelementptr inbounds %"struct.std::_Rb_tree_const_iterator", ptr %2, i32 0, i32 0
  %3 = load ptr, ptr %_M_node1, align 8
  %cmp = icmp eq ptr %1, %3
  ret i1 %cmp
}

; Function Attrs: mustprogress nounwind uwtable
define linkonce_odr ptr @_ZNKSt8_Rb_treeINSt7__cxx1112basic_stringIcSt11char_traitsIcESaIcEEESt4pairIKS5_N9grpc_core12experimental4JsonEESt10_Select1stISB_ESt4lessIS5_ESaISB_EE3endEv(ptr noundef nonnull align 8 dereferenceable(48) %this) #5 comdat align 2 {
entry:
  %retval = alloca %"struct.std::_Rb_tree_const_iterator", align 8
  %this.addr = alloca ptr, align 8
  store ptr %this, ptr %this.addr, align 8
  %this1 = load ptr, ptr %this.addr, align 8
  %_M_impl = getelementptr inbounds %"class.std::_Rb_tree.67", ptr %this1, i32 0, i32 0
  %add.ptr = getelementptr inbounds i8, ptr %_M_impl, i64 8
  %_M_header = getelementptr inbounds %"struct.std::_Rb_tree_header", ptr %add.ptr, i32 0, i32 0
  call void @_ZNSt23_Rb_tree_const_iteratorISt4pairIKNSt7__cxx1112basic_stringIcSt11char_traitsIcESaIcEEEN9grpc_core12experimental4JsonEEEC2EPKSt18_Rb_tree_node_base(ptr noundef nonnull align 8 dereferenceable(8) %retval, ptr noundef %_M_header) #3
  %coerce.dive = getelementptr inbounds %"struct.std::_Rb_tree_const_iterator", ptr %retval, i32 0, i32 0
  %0 = load ptr, ptr %coerce.dive, align 8
  ret ptr %0
}

; Function Attrs: mustprogress nounwind uwtable
define linkonce_odr noundef zeroext i1 @_ZNKSt4lessINSt7__cxx1112basic_stringIcSt11char_traitsIcESaIcEEEEclERKS5_S8_(ptr noundef nonnull align 1 dereferenceable(1) %this, ptr noundef nonnull align 8 dereferenceable(32) %__x, ptr noundef nonnull align 8 dereferenceable(32) %__y) #5 comdat align 2 {
entry:
  %this.addr = alloca ptr, align 8
  %__x.addr = alloca ptr, align 8
  %__y.addr = alloca ptr, align 8
  store ptr %this, ptr %this.addr, align 8
  store ptr %__x, ptr %__x.addr, align 8
  store ptr %__y, ptr %__y.addr, align 8
  %0 = load ptr, ptr %__x.addr, align 8
  %1 = load ptr, ptr %__y.addr, align 8
  %call = call noundef zeroext i1 @_ZStltIcSt11char_traitsIcESaIcEEbRKNSt7__cxx1112basic_stringIT_T0_T1_EESA_(ptr noundef nonnull align 8 dereferenceable(32) %0, ptr noundef nonnull align 8 dereferenceable(32) %1) #3
  ret i1 %call
}

; Function Attrs: mustprogress uwtable
define linkonce_odr noundef nonnull align 8 dereferenceable(32) ptr @_ZNSt8_Rb_treeINSt7__cxx1112basic_stringIcSt11char_traitsIcESaIcEEESt4pairIKS5_N9grpc_core12experimental4JsonEESt10_Select1stISB_ESt4lessIS5_ESaISB_EE6_S_keyEPKSt18_Rb_tree_node_base(ptr noundef %__x) #4 comdat align 2 {
entry:
  %__x.addr = alloca ptr, align 8
  store ptr %__x, ptr %__x.addr, align 8
  %0 = load ptr, ptr %__x.addr, align 8
  %call = call noundef nonnull align 8 dereferenceable(32) ptr @_ZNSt8_Rb_treeINSt7__cxx1112basic_stringIcSt11char_traitsIcESaIcEEESt4pairIKS5_N9grpc_core12experimental4JsonEESt10_Select1stISB_ESt4lessIS5_ESaISB_EE6_S_keyEPKSt13_Rb_tree_nodeISB_E(ptr noundef %0)
  ret ptr %call
}

; Function Attrs: mustprogress uwtable
define linkonce_odr noundef nonnull align 8 dereferenceable(32) ptr @_ZNSt8_Rb_treeINSt7__cxx1112basic_stringIcSt11char_traitsIcESaIcEEESt4pairIKS5_N9grpc_core12experimental4JsonEESt10_Select1stISB_ESt4lessIS5_ESaISB_EE6_S_keyEPKSt13_Rb_tree_nodeISB_E(ptr noundef %__x) #4 comdat align 2 {
entry:
  %__x.addr = alloca ptr, align 8
  %ref.tmp = alloca %"struct.std::_Select1st", align 1
  store ptr %__x, ptr %__x.addr, align 8
  %0 = load ptr, ptr %__x.addr, align 8
  %call = call noundef ptr @_ZNKSt13_Rb_tree_nodeISt4pairIKNSt7__cxx1112basic_stringIcSt11char_traitsIcESaIcEEEN9grpc_core12experimental4JsonEEE9_M_valptrEv(ptr noundef nonnull align 8 dereferenceable(120) %0)
  %call1 = call noundef nonnull align 8 dereferenceable(32) ptr @_ZNKSt10_Select1stISt4pairIKNSt7__cxx1112basic_stringIcSt11char_traitsIcESaIcEEEN9grpc_core12experimental4JsonEEEclERKSB_(ptr noundef nonnull align 1 dereferenceable(1) %ref.tmp, ptr noundef nonnull align 8 dereferenceable(88) %call)
  ret ptr %call1
}

; Function Attrs: mustprogress nounwind uwtable
define linkonce_odr noundef ptr @_ZNSt8_Rb_treeINSt7__cxx1112basic_stringIcSt11char_traitsIcESaIcEEESt4pairIKS5_N9grpc_core12experimental4JsonEESt10_Select1stISB_ESt4lessIS5_ESaISB_EE7_S_leftEPKSt18_Rb_tree_node_base(ptr noundef %__x) #5 comdat align 2 {
entry:
  %__x.addr = alloca ptr, align 8
  store ptr %__x, ptr %__x.addr, align 8
  %0 = load ptr, ptr %__x.addr, align 8
  %_M_left = getelementptr inbounds %"struct.std::_Rb_tree_node_base", ptr %0, i32 0, i32 2
  %1 = load ptr, ptr %_M_left, align 8
  ret ptr %1
}

; Function Attrs: mustprogress nounwind uwtable
define linkonce_odr noundef ptr @_ZNSt8_Rb_treeINSt7__cxx1112basic_stringIcSt11char_traitsIcESaIcEEESt4pairIKS5_N9grpc_core12experimental4JsonEESt10_Select1stISB_ESt4lessIS5_ESaISB_EE8_S_rightEPKSt18_Rb_tree_node_base(ptr noundef %__x) #5 comdat align 2 {
entry:
  %__x.addr = alloca ptr, align 8
  store ptr %__x, ptr %__x.addr, align 8
  %0 = load ptr, ptr %__x.addr, align 8
  %_M_right = getelementptr inbounds %"struct.std::_Rb_tree_node_base", ptr %0, i32 0, i32 3
  %1 = load ptr, ptr %_M_right, align 8
  ret ptr %1
}

; Function Attrs: mustprogress nounwind uwtable
define linkonce_odr void @_ZNSt23_Rb_tree_const_iteratorISt4pairIKNSt7__cxx1112basic_stringIcSt11char_traitsIcESaIcEEEN9grpc_core12experimental4JsonEEEC2EPKSt18_Rb_tree_node_base(ptr noundef nonnull align 8 dereferenceable(8) %this, ptr noundef %__x) unnamed_addr #5 comdat align 2 {
entry:
  %this.addr = alloca ptr, align 8
  %__x.addr = alloca ptr, align 8
  store ptr %this, ptr %this.addr, align 8
  store ptr %__x, ptr %__x.addr, align 8
  %this1 = load ptr, ptr %this.addr, align 8
  %_M_node = getelementptr inbounds %"struct.std::_Rb_tree_const_iterator", ptr %this1, i32 0, i32 0
  %0 = load ptr, ptr %__x.addr, align 8
  store ptr %0, ptr %_M_node, align 8
  ret void
}

; Function Attrs: mustprogress nounwind uwtable
define linkonce_odr noundef nonnull align 8 dereferenceable(32) ptr @_ZNKSt10_Select1stISt4pairIKNSt7__cxx1112basic_stringIcSt11char_traitsIcESaIcEEEN9grpc_core12experimental4JsonEEEclERKSB_(ptr noundef nonnull align 1 dereferenceable(1) %this, ptr noundef nonnull align 8 dereferenceable(88) %__x) #5 comdat align 2 {
entry:
  %this.addr = alloca ptr, align 8
  %__x.addr = alloca ptr, align 8
  store ptr %this, ptr %this.addr, align 8
  store ptr %__x, ptr %__x.addr, align 8
  %0 = load ptr, ptr %__x.addr, align 8
  %first = getelementptr inbounds %"struct.std::pair", ptr %0, i32 0, i32 0
  ret ptr %first
}

; Function Attrs: mustprogress nounwind uwtable
define linkonce_odr noundef ptr @_ZNKSt13_Rb_tree_nodeISt4pairIKNSt7__cxx1112basic_stringIcSt11char_traitsIcESaIcEEEN9grpc_core12experimental4JsonEEE9_M_valptrEv(ptr noundef nonnull align 8 dereferenceable(120) %this) #5 comdat align 2 {
entry:
  %this.addr = alloca ptr, align 8
  store ptr %this, ptr %this.addr, align 8
  %this1 = load ptr, ptr %this.addr, align 8
  %_M_storage = getelementptr inbounds %"struct.std::_Rb_tree_node", ptr %this1, i32 0, i32 1
  %call = call noundef ptr @_ZNK9__gnu_cxx16__aligned_membufISt4pairIKNSt7__cxx1112basic_stringIcSt11char_traitsIcESaIcEEEN9grpc_core12experimental4JsonEEE6_M_ptrEv(ptr noundef nonnull align 8 dereferenceable(88) %_M_storage) #3
  ret ptr %call
}

; Function Attrs: mustprogress nounwind uwtable
define linkonce_odr noundef ptr @_ZNK9__gnu_cxx16__aligned_membufISt4pairIKNSt7__cxx1112basic_stringIcSt11char_traitsIcESaIcEEEN9grpc_core12experimental4JsonEEE6_M_ptrEv(ptr noundef nonnull align 8 dereferenceable(88) %this) #5 comdat align 2 {
entry:
  %this.addr = alloca ptr, align 8
  store ptr %this, ptr %this.addr, align 8
  %this1 = load ptr, ptr %this.addr, align 8
  %call = call noundef ptr @_ZNK9__gnu_cxx16__aligned_membufISt4pairIKNSt7__cxx1112basic_stringIcSt11char_traitsIcESaIcEEEN9grpc_core12experimental4JsonEEE7_M_addrEv(ptr noundef nonnull align 8 dereferenceable(88) %this1) #3
  ret ptr %call
}

; Function Attrs: mustprogress nounwind uwtable
define linkonce_odr noundef ptr @_ZNK9__gnu_cxx16__aligned_membufISt4pairIKNSt7__cxx1112basic_stringIcSt11char_traitsIcESaIcEEEN9grpc_core12experimental4JsonEEE7_M_addrEv(ptr noundef nonnull align 8 dereferenceable(88) %this) #5 comdat align 2 {
entry:
  %this.addr = alloca ptr, align 8
  store ptr %this, ptr %this.addr, align 8
  %this1 = load ptr, ptr %this.addr, align 8
  %_M_storage = getelementptr inbounds %"struct.__gnu_cxx::__aligned_membuf.156", ptr %this1, i32 0, i32 0
  ret ptr %_M_storage
}

; Function Attrs: mustprogress nounwind uwtable
define linkonce_odr noundef zeroext i1 @_ZStltIcSt11char_traitsIcESaIcEEbRKNSt7__cxx1112basic_stringIT_T0_T1_EESA_(ptr noundef nonnull align 8 dereferenceable(32) %__lhs, ptr noundef nonnull align 8 dereferenceable(32) %__rhs) #5 comdat personality ptr @__gxx_personality_v0 {
entry:
  %__lhs.addr = alloca ptr, align 8
  %__rhs.addr = alloca ptr, align 8
  store ptr %__lhs, ptr %__lhs.addr, align 8
  store ptr %__rhs, ptr %__rhs.addr, align 8
  %0 = load ptr, ptr %__lhs.addr, align 8
  %1 = load ptr, ptr %__rhs.addr, align 8
  %call = invoke noundef i32 @_ZNKSt7__cxx1112basic_stringIcSt11char_traitsIcESaIcEE7compareERKS4_(ptr noundef nonnull align 8 dereferenceable(32) %0, ptr noundef nonnull align 8 dereferenceable(32) %1)
          to label %invoke.cont unwind label %terminate.lpad

invoke.cont:                                      ; preds = %entry
  %cmp = icmp slt i32 %call, 0
  ret i1 %cmp

terminate.lpad:                                   ; preds = %entry
  %2 = landingpad { ptr, i32 }
          catch ptr null
  %3 = extractvalue { ptr, i32 } %2, 0
  call void @__clang_call_terminate(ptr %3) #15
  unreachable
}

declare noundef i32 @_ZNKSt7__cxx1112basic_stringIcSt11char_traitsIcESaIcEE7compareERKS4_(ptr noundef nonnull align 8 dereferenceable(32), ptr noundef nonnull align 8 dereferenceable(32)) #1

; Function Attrs: mustprogress uwtable
define linkonce_odr void @_ZNK4absl12lts_2023080217internal_statusor12StatusOrDataIN9grpc_core13RefCountedPtrINS3_19LoadBalancingPolicy6ConfigEEEE8EnsureOkEv(ptr noundef nonnull align 8 dereferenceable(16) %this) #4 comdat align 2 {
entry:
  %this.addr = alloca ptr, align 8
  store ptr %this, ptr %this.addr, align 8
  %this1 = load ptr, ptr %this.addr, align 8
  %call = call noundef zeroext i1 @_ZNK4absl12lts_2023080217internal_statusor12StatusOrDataIN9grpc_core13RefCountedPtrINS3_19LoadBalancingPolicy6ConfigEEEE2okEv(ptr noundef nonnull align 8 dereferenceable(16) %this1)
  %lnot = xor i1 %call, true
  br i1 %lnot, label %if.then, label %if.end

if.then:                                          ; preds = %entry
  %0 = getelementptr inbounds %"class.absl::lts_20230802::internal_statusor::StatusOrData", ptr %this1, i32 0, i32 0
  call void @_ZN4absl12lts_2023080217internal_statusor6Helper5CrashERKNS0_6StatusE(ptr noundef nonnull align 8 dereferenceable(8) %0) #16
  unreachable

if.end:                                           ; preds = %entry
  ret void
}

; Function Attrs: noreturn
declare void @_ZN4absl12lts_2023080217internal_statusor6Helper5CrashERKNS0_6StatusE(ptr noundef nonnull align 8 dereferenceable(8)) #10

; Function Attrs: mustprogress uwtable
define linkonce_odr void @_ZN9grpc_core13RefCountedPtrINS_19LoadBalancingPolicy6ConfigEE5resetEPS2_(ptr noundef nonnull align 8 dereferenceable(8) %this, ptr noundef %value) #4 comdat align 2 {
entry:
  %this.addr = alloca ptr, align 8
  %value.addr = alloca ptr, align 8
  %old_value = alloca ptr, align 8
  store ptr %this, ptr %this.addr, align 8
  store ptr %value, ptr %value.addr, align 8
  %this1 = load ptr, ptr %this.addr, align 8
  %value_ = getelementptr inbounds %"class.grpc_core::RefCountedPtr", ptr %this1, i32 0, i32 0
  %call = call noundef ptr @_ZSt8exchangeIPN9grpc_core19LoadBalancingPolicy6ConfigERS3_ET_RS5_OT0_(ptr noundef nonnull align 8 dereferenceable(8) %value_, ptr noundef nonnull align 8 dereferenceable(8) %value.addr) #3
  store ptr %call, ptr %old_value, align 8
  %0 = load ptr, ptr %old_value, align 8
  %cmp = icmp ne ptr %0, null
  br i1 %cmp, label %if.then, label %if.end

if.then:                                          ; preds = %entry
  %1 = load ptr, ptr %old_value, align 8
  call void @_ZNK9grpc_core10RefCountedINS_19LoadBalancingPolicy6ConfigENS_19PolymorphicRefCountENS_11UnrefDeleteEE5UnrefEv(ptr noundef nonnull align 8 dereferenceable(16) %1)
  br label %if.end

if.end:                                           ; preds = %if.then, %entry
  ret void
}

; Function Attrs: mustprogress nounwind uwtable
define linkonce_odr noundef ptr @_ZSt8exchangeIPN9grpc_core19LoadBalancingPolicy6ConfigEDnET_RS4_OT0_(ptr noundef nonnull align 8 dereferenceable(8) %__obj, ptr noundef nonnull align 8 dereferenceable(8) %__new_val) #5 comdat personality ptr @__gxx_personality_v0 {
entry:
  %__obj.addr = alloca ptr, align 8
  %__new_val.addr = alloca ptr, align 8
  store ptr %__obj, ptr %__obj.addr, align 8
  store ptr %__new_val, ptr %__new_val.addr, align 8
  %0 = load ptr, ptr %__obj.addr, align 8
  %1 = load ptr, ptr %__new_val.addr, align 8
  %call = invoke noundef ptr @_ZSt10__exchangeIPN9grpc_core19LoadBalancingPolicy6ConfigEDnET_RS4_OT0_(ptr noundef nonnull align 8 dereferenceable(8) %0, ptr noundef nonnull align 8 dereferenceable(8) %1)
          to label %invoke.cont unwind label %terminate.lpad

invoke.cont:                                      ; preds = %entry
  ret ptr %call

terminate.lpad:                                   ; preds = %entry
  %2 = landingpad { ptr, i32 }
          catch ptr null
  %3 = extractvalue { ptr, i32 } %2, 0
  call void @__clang_call_terminate(ptr %3) #15
  unreachable
}

; Function Attrs: mustprogress nounwind uwtable
define linkonce_odr noundef ptr @_ZSt8exchangeIPN9grpc_core19LoadBalancingPolicy6ConfigERS3_ET_RS5_OT0_(ptr noundef nonnull align 8 dereferenceable(8) %__obj, ptr noundef nonnull align 8 dereferenceable(8) %__new_val) #5 comdat personality ptr @__gxx_personality_v0 {
entry:
  %__obj.addr = alloca ptr, align 8
  %__new_val.addr = alloca ptr, align 8
  store ptr %__obj, ptr %__obj.addr, align 8
  store ptr %__new_val, ptr %__new_val.addr, align 8
  %0 = load ptr, ptr %__obj.addr, align 8
  %1 = load ptr, ptr %__new_val.addr, align 8
  %call = invoke noundef ptr @_ZSt10__exchangeIPN9grpc_core19LoadBalancingPolicy6ConfigERS3_ET_RS5_OT0_(ptr noundef nonnull align 8 dereferenceable(8) %0, ptr noundef nonnull align 8 dereferenceable(8) %1)
          to label %invoke.cont unwind label %terminate.lpad

invoke.cont:                                      ; preds = %entry
  ret ptr %call

terminate.lpad:                                   ; preds = %entry
  %2 = landingpad { ptr, i32 }
          catch ptr null
  %3 = extractvalue { ptr, i32 } %2, 0
  call void @__clang_call_terminate(ptr %3) #15
  unreachable
}

; Function Attrs: mustprogress nounwind uwtable
define linkonce_odr noundef ptr @_ZSt10__exchangeIPN9grpc_core19LoadBalancingPolicy6ConfigERS3_ET_RS5_OT0_(ptr noundef nonnull align 8 dereferenceable(8) %__obj, ptr noundef nonnull align 8 dereferenceable(8) %__new_val) #5 comdat {
entry:
  %__obj.addr = alloca ptr, align 8
  %__new_val.addr = alloca ptr, align 8
  %__old_val = alloca ptr, align 8
  store ptr %__obj, ptr %__obj.addr, align 8
  store ptr %__new_val, ptr %__new_val.addr, align 8
  %0 = load ptr, ptr %__obj.addr, align 8
  %1 = load ptr, ptr %0, align 8
  store ptr %1, ptr %__old_val, align 8
  %2 = load ptr, ptr %__new_val.addr, align 8
  %3 = load ptr, ptr %2, align 8
  %4 = load ptr, ptr %__obj.addr, align 8
  store ptr %3, ptr %4, align 8
  %5 = load ptr, ptr %__old_val, align 8
  ret ptr %5
}

; Function Attrs: mustprogress nounwind uwtable
define linkonce_odr noundef ptr @_ZSt10__exchangeIPN9grpc_core19LoadBalancingPolicy6ConfigEDnET_RS4_OT0_(ptr noundef nonnull align 8 dereferenceable(8) %__obj, ptr noundef nonnull align 8 dereferenceable(8) %__new_val) #5 comdat {
entry:
  %__obj.addr = alloca ptr, align 8
  %__new_val.addr = alloca ptr, align 8
  %__old_val = alloca ptr, align 8
  store ptr %__obj, ptr %__obj.addr, align 8
  store ptr %__new_val, ptr %__new_val.addr, align 8
  %0 = load ptr, ptr %__obj.addr, align 8
  %1 = load ptr, ptr %0, align 8
  store ptr %1, ptr %__old_val, align 8
  %2 = load ptr, ptr %__obj.addr, align 8
  store ptr null, ptr %2, align 8
  %3 = load ptr, ptr %__old_val, align 8
  ret ptr %3
}

; Function Attrs: mustprogress uwtable
define linkonce_odr void @_ZNK9grpc_core11json_detail16JsonObjectLoaderINS_8internal31ClientChannelMethodParsedConfigELm0EE5FieldINS_8DurationEEENS1_IS3_Lm1EEEPKcbMS3_T_S9_(ptr noalias sret(%"class.grpc_core::json_detail::JsonObjectLoader.90") align 8 %agg.result, ptr noundef nonnull align 1 dereferenceable(1) %this, ptr noundef %name, i1 noundef zeroext %optional, i64 %p, ptr noundef %enable_key) #4 comdat align 2 {
entry:
  %this.addr = alloca ptr, align 8
  %name.addr = alloca ptr, align 8
  %optional.addr = alloca i8, align 1
  %p.addr = alloca i64, align 8
  %enable_key.addr = alloca ptr, align 8
  %agg.tmp = alloca %"struct.grpc_core::json_detail::Element", align 8
  store ptr %this, ptr %this.addr, align 8
  store ptr %name, ptr %name.addr, align 8
  %frombool = zext i1 %optional to i8
  store i8 %frombool, ptr %optional.addr, align 1
  store i64 %p, ptr %p.addr, align 8
  store ptr %enable_key, ptr %enable_key.addr, align 8
  %this1 = load ptr, ptr %this.addr, align 8
  %0 = load ptr, ptr %name.addr, align 8
  %1 = load i8, ptr %optional.addr, align 1
  %tobool = trunc i8 %1 to i1
  %2 = load i64, ptr %p.addr, align 8
  %call = call noundef ptr @_ZN9grpc_core11json_detail13LoaderForTypeINS_8DurationEEEPKNS0_15LoaderInterfaceEv()
  %3 = load ptr, ptr %enable_key.addr, align 8
  call void @_ZN9grpc_core11json_detail7ElementC2INS_8internal31ClientChannelMethodParsedConfigENS_8DurationEEEPKcbMT_T0_PKNS0_15LoaderInterfaceES7_(ptr noundef nonnull align 8 dereferenceable(32) %agg.tmp, ptr noundef %0, i1 noundef zeroext %tobool, i64 %2, ptr noundef %call, ptr noundef %3)
  call void @_ZN9grpc_core11json_detail16JsonObjectLoaderINS_8internal31ClientChannelMethodParsedConfigELm1EEC2ERKNS0_3VecINS0_7ElementELm0EEES6_(ptr noundef nonnull align 8 dereferenceable(32) %agg.result, ptr noundef nonnull align 1 dereferenceable(1) %this1, ptr noundef byval(%"struct.grpc_core::json_detail::Element") align 8 %agg.tmp)
  ret void
}

; Function Attrs: mustprogress uwtable
define linkonce_odr noundef ptr @_ZN9grpc_core11json_detail13LoaderForTypeINS_8DurationEEEPKNS0_15LoaderInterfaceEv() #4 comdat {
entry:
  %call = call noundef ptr @_ZN9grpc_core19NoDestructSingletonINS_11json_detail10AutoLoaderINS_8DurationEEEE3GetEv()
  ret ptr %call
}

; Function Attrs: mustprogress nounwind uwtable
define linkonce_odr void @_ZN9grpc_core11json_detail7ElementC2INS_8internal31ClientChannelMethodParsedConfigENS_8DurationEEEPKcbMT_T0_PKNS0_15LoaderInterfaceES7_(ptr noundef nonnull align 8 dereferenceable(32) %this, ptr noundef %name, i1 noundef zeroext %optional, i64 %p, ptr noundef %loader, ptr noundef %enable_key) unnamed_addr #5 comdat align 2 {
entry:
  %this.addr = alloca ptr, align 8
  %name.addr = alloca ptr, align 8
  %optional.addr = alloca i8, align 1
  %p.addr = alloca i64, align 8
  %loader.addr = alloca ptr, align 8
  %enable_key.addr = alloca ptr, align 8
  store ptr %this, ptr %this.addr, align 8
  store ptr %name, ptr %name.addr, align 8
  %frombool = zext i1 %optional to i8
  store i8 %frombool, ptr %optional.addr, align 1
  store i64 %p, ptr %p.addr, align 8
  store ptr %loader, ptr %loader.addr, align 8
  store ptr %enable_key, ptr %enable_key.addr, align 8
  %this1 = load ptr, ptr %this.addr, align 8
  %loader2 = getelementptr inbounds %"struct.grpc_core::json_detail::Element", ptr %this1, i32 0, i32 0
  %0 = load ptr, ptr %loader.addr, align 8
  store ptr %0, ptr %loader2, align 8
  %member_offset = getelementptr inbounds %"struct.grpc_core::json_detail::Element", ptr %this1, i32 0, i32 1
  %1 = load i64, ptr %p.addr, align 8
  %memptr.offset = getelementptr inbounds i8, ptr null, i64 %1
  %2 = ptrtoint ptr %memptr.offset to i64
  %conv = trunc i64 %2 to i16
  store i16 %conv, ptr %member_offset, align 8
  %optional3 = getelementptr inbounds %"struct.grpc_core::json_detail::Element", ptr %this1, i32 0, i32 2
  %3 = load i8, ptr %optional.addr, align 1
  %tobool = trunc i8 %3 to i1
  %frombool4 = zext i1 %tobool to i8
  store i8 %frombool4, ptr %optional3, align 2
  %name5 = getelementptr inbounds %"struct.grpc_core::json_detail::Element", ptr %this1, i32 0, i32 3
  %4 = load ptr, ptr %name.addr, align 8
  store ptr %4, ptr %name5, align 8
  %enable_key6 = getelementptr inbounds %"struct.grpc_core::json_detail::Element", ptr %this1, i32 0, i32 4
  %5 = load ptr, ptr %enable_key.addr, align 8
  store ptr %5, ptr %enable_key6, align 8
  ret void
}

; Function Attrs: mustprogress uwtable
define linkonce_odr void @_ZN9grpc_core11json_detail16JsonObjectLoaderINS_8internal31ClientChannelMethodParsedConfigELm1EEC2ERKNS0_3VecINS0_7ElementELm0EEES6_(ptr noundef nonnull align 8 dereferenceable(32) %this, ptr noundef nonnull align 1 dereferenceable(1) %elements, ptr noundef byval(%"struct.grpc_core::json_detail::Element") align 8 %new_element) unnamed_addr #4 comdat align 2 {
entry:
  %this.addr = alloca ptr, align 8
  %elements.addr = alloca ptr, align 8
  store ptr %this, ptr %this.addr, align 8
  store ptr %elements, ptr %elements.addr, align 8
  %this1 = load ptr, ptr %this.addr, align 8
  %elements_ = getelementptr inbounds %"class.grpc_core::json_detail::JsonObjectLoader.90", ptr %this1, i32 0, i32 0
  %0 = load ptr, ptr %elements.addr, align 8
  call void @_ZN9grpc_core11json_detail3VecINS0_7ElementELm1EEC2ERKNS1_IS2_Lm0EEERKS2_(ptr noundef nonnull align 8 dereferenceable(32) %elements_, ptr noundef nonnull align 1 dereferenceable(1) %0, ptr noundef nonnull align 8 dereferenceable(32) %new_element)
  ret void
}

; Function Attrs: mustprogress uwtable
define linkonce_odr noundef ptr @_ZN9grpc_core19NoDestructSingletonINS_11json_detail10AutoLoaderINS_8DurationEEEE3GetEv() #4 comdat align 2 {
entry:
  %call = call noundef nonnull align 8 dereferenceable(8) ptr @_ZN9grpc_core10NoDestructINS_11json_detail10AutoLoaderINS_8DurationEEEEdeEv(ptr noundef nonnull align 8 dereferenceable(8) @_ZN9grpc_core19NoDestructSingletonINS_11json_detail10AutoLoaderINS_8DurationEEEE6value_E)
  ret ptr %call
}

; Function Attrs: mustprogress uwtable
define linkonce_odr noundef nonnull align 8 dereferenceable(8) ptr @_ZN9grpc_core10NoDestructINS_11json_detail10AutoLoaderINS_8DurationEEEEdeEv(ptr noundef nonnull align 8 dereferenceable(8) %this) #4 comdat align 2 {
entry:
  %this.addr = alloca ptr, align 8
  store ptr %this, ptr %this.addr, align 8
  %this1 = load ptr, ptr %this.addr, align 8
  %call = call noundef ptr @_ZN9grpc_core10NoDestructINS_11json_detail10AutoLoaderINS_8DurationEEEE3getEv(ptr noundef nonnull align 8 dereferenceable(8) %this1)
  ret ptr %call
}

; Function Attrs: mustprogress nounwind uwtable
define linkonce_odr noundef ptr @_ZN9grpc_core10NoDestructINS_11json_detail10AutoLoaderINS_8DurationEEEE3getEv(ptr noundef nonnull align 8 dereferenceable(8) %this) #5 comdat align 2 {
entry:
  %this.addr = alloca ptr, align 8
  store ptr %this, ptr %this.addr, align 8
  %this1 = load ptr, ptr %this.addr, align 8
  %space_ = getelementptr inbounds %"class.grpc_core::NoDestruct.134", ptr %this1, i32 0, i32 0
  ret ptr %space_
}

; Function Attrs: mustprogress nounwind uwtable
define linkonce_odr void @_ZN9grpc_core9ConstructINS_11json_detail10AutoLoaderINS_8DurationEEEJEEEvPT_DpOT0_(ptr noundef %p) #5 comdat {
entry:
  %p.addr = alloca ptr, align 8
  store ptr %p, ptr %p.addr, align 8
  %0 = load ptr, ptr %p.addr, align 8
  call void @llvm.memset.p0.i64(ptr align 8 %0, i8 0, i64 8, i1 false)
  call void @_ZN9grpc_core11json_detail10AutoLoaderINS_8DurationEEC2Ev(ptr noundef nonnull align 8 dereferenceable(8) %0) #3
  ret void
}

; Function Attrs: mustprogress nounwind uwtable
define linkonce_odr void @_ZN9grpc_core11json_detail10AutoLoaderINS_8DurationEEC2Ev(ptr noundef nonnull align 8 dereferenceable(8) %this) unnamed_addr #5 comdat align 2 {
entry:
  %this.addr = alloca ptr, align 8
  store ptr %this, ptr %this.addr, align 8
  %this1 = load ptr, ptr %this.addr, align 8
  call void @_ZN9grpc_core11json_detail12LoadDurationC2Ev(ptr noundef nonnull align 8 dereferenceable(8) %this1) #3
  store ptr getelementptr inbounds ({ [5 x ptr] }, ptr @_ZTVN9grpc_core11json_detail10AutoLoaderINS_8DurationEEE, i32 0, inrange i32 0, i32 2), ptr %this1, align 8
  ret void
}

; Function Attrs: mustprogress nounwind uwtable
define linkonce_odr void @_ZN9grpc_core11json_detail12LoadDurationC2Ev(ptr noundef nonnull align 8 dereferenceable(8) %this) unnamed_addr #5 comdat align 2 {
entry:
  %this.addr = alloca ptr, align 8
  store ptr %this, ptr %this.addr, align 8
  %this1 = load ptr, ptr %this.addr, align 8
  call void @_ZN9grpc_core11json_detail10LoadScalarC2Ev(ptr noundef nonnull align 8 dereferenceable(8) %this1) #3
  store ptr getelementptr inbounds ({ [5 x ptr] }, ptr @_ZTVN9grpc_core11json_detail12LoadDurationE, i32 0, inrange i32 0, i32 2), ptr %this1, align 8
  ret void
}

declare noundef zeroext i1 @_ZNK9grpc_core11json_detail12LoadDuration8IsNumberEv(ptr noundef nonnull align 8 dereferenceable(8)) unnamed_addr #1

declare void @_ZNK9grpc_core11json_detail12LoadDuration8LoadIntoERKNSt7__cxx1112basic_stringIcSt11char_traitsIcESaIcEEEPvPNS_16ValidationErrorsE(ptr noundef nonnull align 8 dereferenceable(8), ptr noundef nonnull align 8 dereferenceable(32), ptr noundef, ptr noundef) unnamed_addr #1

; Function Attrs: mustprogress uwtable
define linkonce_odr void @_ZNK9grpc_core11json_detail16JsonObjectLoaderINS_8internal31ClientChannelMethodParsedConfigELm1EE5FieldISt8optionalIbEEENS1_IS3_Lm2EEEPKcbMS3_T_SA_(ptr noalias sret(%"class.grpc_core::json_detail::JsonObjectLoader.89") align 8 %agg.result, ptr noundef nonnull align 8 dereferenceable(32) %this, ptr noundef %name, i1 noundef zeroext %optional, i64 %p, ptr noundef %enable_key) #4 comdat align 2 {
entry:
  %this.addr = alloca ptr, align 8
  %name.addr = alloca ptr, align 8
  %optional.addr = alloca i8, align 1
  %p.addr = alloca i64, align 8
  %enable_key.addr = alloca ptr, align 8
  %agg.tmp = alloca %"struct.grpc_core::json_detail::Element", align 8
  store ptr %this, ptr %this.addr, align 8
  store ptr %name, ptr %name.addr, align 8
  %frombool = zext i1 %optional to i8
  store i8 %frombool, ptr %optional.addr, align 1
  store i64 %p, ptr %p.addr, align 8
  store ptr %enable_key, ptr %enable_key.addr, align 8
  %this1 = load ptr, ptr %this.addr, align 8
  %elements_ = getelementptr inbounds %"class.grpc_core::json_detail::JsonObjectLoader.90", ptr %this1, i32 0, i32 0
  %0 = load ptr, ptr %name.addr, align 8
  %1 = load i8, ptr %optional.addr, align 1
  %tobool = trunc i8 %1 to i1
  %2 = load i64, ptr %p.addr, align 8
  %call = call noundef ptr @_ZN9grpc_core11json_detail13LoaderForTypeISt8optionalIbEEEPKNS0_15LoaderInterfaceEv()
  %3 = load ptr, ptr %enable_key.addr, align 8
  call void @_ZN9grpc_core11json_detail7ElementC2INS_8internal31ClientChannelMethodParsedConfigESt8optionalIbEEEPKcbMT_T0_PKNS0_15LoaderInterfaceES8_(ptr noundef nonnull align 8 dereferenceable(32) %agg.tmp, ptr noundef %0, i1 noundef zeroext %tobool, i64 %2, ptr noundef %call, ptr noundef %3)
  call void @_ZN9grpc_core11json_detail16JsonObjectLoaderINS_8internal31ClientChannelMethodParsedConfigELm2EEC2ERKNS0_3VecINS0_7ElementELm1EEES6_(ptr noundef nonnull align 8 dereferenceable(64) %agg.result, ptr noundef nonnull align 8 dereferenceable(32) %elements_, ptr noundef byval(%"struct.grpc_core::json_detail::Element") align 8 %agg.tmp)
  ret void
}

; Function Attrs: mustprogress uwtable
define linkonce_odr noundef ptr @_ZN9grpc_core11json_detail13LoaderForTypeISt8optionalIbEEEPKNS0_15LoaderInterfaceEv() #4 comdat {
entry:
  %call = call noundef ptr @_ZN9grpc_core19NoDestructSingletonINS_11json_detail10AutoLoaderISt8optionalIbEEEE3GetEv()
  ret ptr %call
}

; Function Attrs: mustprogress nounwind uwtable
define linkonce_odr void @_ZN9grpc_core11json_detail7ElementC2INS_8internal31ClientChannelMethodParsedConfigESt8optionalIbEEEPKcbMT_T0_PKNS0_15LoaderInterfaceES8_(ptr noundef nonnull align 8 dereferenceable(32) %this, ptr noundef %name, i1 noundef zeroext %optional, i64 %p, ptr noundef %loader, ptr noundef %enable_key) unnamed_addr #5 comdat align 2 {
entry:
  %this.addr = alloca ptr, align 8
  %name.addr = alloca ptr, align 8
  %optional.addr = alloca i8, align 1
  %p.addr = alloca i64, align 8
  %loader.addr = alloca ptr, align 8
  %enable_key.addr = alloca ptr, align 8
  store ptr %this, ptr %this.addr, align 8
  store ptr %name, ptr %name.addr, align 8
  %frombool = zext i1 %optional to i8
  store i8 %frombool, ptr %optional.addr, align 1
  store i64 %p, ptr %p.addr, align 8
  store ptr %loader, ptr %loader.addr, align 8
  store ptr %enable_key, ptr %enable_key.addr, align 8
  %this1 = load ptr, ptr %this.addr, align 8
  %loader2 = getelementptr inbounds %"struct.grpc_core::json_detail::Element", ptr %this1, i32 0, i32 0
  %0 = load ptr, ptr %loader.addr, align 8
  store ptr %0, ptr %loader2, align 8
  %member_offset = getelementptr inbounds %"struct.grpc_core::json_detail::Element", ptr %this1, i32 0, i32 1
  %1 = load i64, ptr %p.addr, align 8
  %memptr.offset = getelementptr inbounds i8, ptr null, i64 %1
  %2 = ptrtoint ptr %memptr.offset to i64
  %conv = trunc i64 %2 to i16
  store i16 %conv, ptr %member_offset, align 8
  %optional3 = getelementptr inbounds %"struct.grpc_core::json_detail::Element", ptr %this1, i32 0, i32 2
  %3 = load i8, ptr %optional.addr, align 1
  %tobool = trunc i8 %3 to i1
  %frombool4 = zext i1 %tobool to i8
  store i8 %frombool4, ptr %optional3, align 2
  %name5 = getelementptr inbounds %"struct.grpc_core::json_detail::Element", ptr %this1, i32 0, i32 3
  %4 = load ptr, ptr %name.addr, align 8
  store ptr %4, ptr %name5, align 8
  %enable_key6 = getelementptr inbounds %"struct.grpc_core::json_detail::Element", ptr %this1, i32 0, i32 4
  %5 = load ptr, ptr %enable_key.addr, align 8
  store ptr %5, ptr %enable_key6, align 8
  ret void
}

; Function Attrs: mustprogress uwtable
define linkonce_odr void @_ZN9grpc_core11json_detail16JsonObjectLoaderINS_8internal31ClientChannelMethodParsedConfigELm2EEC2ERKNS0_3VecINS0_7ElementELm1EEES6_(ptr noundef nonnull align 8 dereferenceable(64) %this, ptr noundef nonnull align 8 dereferenceable(32) %elements, ptr noundef byval(%"struct.grpc_core::json_detail::Element") align 8 %new_element) unnamed_addr #4 comdat align 2 {
entry:
  %this.addr = alloca ptr, align 8
  %elements.addr = alloca ptr, align 8
  store ptr %this, ptr %this.addr, align 8
  store ptr %elements, ptr %elements.addr, align 8
  %this1 = load ptr, ptr %this.addr, align 8
  %elements_ = getelementptr inbounds %"class.grpc_core::json_detail::JsonObjectLoader.89", ptr %this1, i32 0, i32 0
  %0 = load ptr, ptr %elements.addr, align 8
  call void @_ZN9grpc_core11json_detail3VecINS0_7ElementELm2EEC2ERKNS1_IS2_Lm1EEERKS2_(ptr noundef nonnull align 8 dereferenceable(64) %elements_, ptr noundef nonnull align 8 dereferenceable(32) %0, ptr noundef nonnull align 8 dereferenceable(32) %new_element)
  ret void
}

; Function Attrs: mustprogress uwtable
define linkonce_odr noundef ptr @_ZN9grpc_core19NoDestructSingletonINS_11json_detail10AutoLoaderISt8optionalIbEEEE3GetEv() #4 comdat align 2 {
entry:
  %call = call noundef nonnull align 8 dereferenceable(8) ptr @_ZN9grpc_core10NoDestructINS_11json_detail10AutoLoaderISt8optionalIbEEEEdeEv(ptr noundef nonnull align 8 dereferenceable(8) @_ZN9grpc_core19NoDestructSingletonINS_11json_detail10AutoLoaderISt8optionalIbEEEE6value_E)
  ret ptr %call
}

; Function Attrs: mustprogress uwtable
define linkonce_odr noundef nonnull align 8 dereferenceable(8) ptr @_ZN9grpc_core10NoDestructINS_11json_detail10AutoLoaderISt8optionalIbEEEEdeEv(ptr noundef nonnull align 8 dereferenceable(8) %this) #4 comdat align 2 {
entry:
  %this.addr = alloca ptr, align 8
  store ptr %this, ptr %this.addr, align 8
  %this1 = load ptr, ptr %this.addr, align 8
  %call = call noundef ptr @_ZN9grpc_core10NoDestructINS_11json_detail10AutoLoaderISt8optionalIbEEEE3getEv(ptr noundef nonnull align 8 dereferenceable(8) %this1)
  ret ptr %call
}

; Function Attrs: mustprogress nounwind uwtable
define linkonce_odr noundef ptr @_ZN9grpc_core10NoDestructINS_11json_detail10AutoLoaderISt8optionalIbEEEE3getEv(ptr noundef nonnull align 8 dereferenceable(8) %this) #5 comdat align 2 {
entry:
  %this.addr = alloca ptr, align 8
  store ptr %this, ptr %this.addr, align 8
  %this1 = load ptr, ptr %this.addr, align 8
  %space_ = getelementptr inbounds %"class.grpc_core::NoDestruct.136", ptr %this1, i32 0, i32 0
  ret ptr %space_
}

; Function Attrs: mustprogress nounwind uwtable
define linkonce_odr void @_ZN9grpc_core9ConstructINS_11json_detail10AutoLoaderIbEEJEEEvPT_DpOT0_(ptr noundef %p) #5 comdat {
entry:
  %p.addr = alloca ptr, align 8
  store ptr %p, ptr %p.addr, align 8
  %0 = load ptr, ptr %p.addr, align 8
  call void @llvm.memset.p0.i64(ptr align 8 %0, i8 0, i64 8, i1 false)
  call void @_ZN9grpc_core11json_detail10AutoLoaderIbEC2Ev(ptr noundef nonnull align 8 dereferenceable(8) %0) #3
  ret void
}

; Function Attrs: mustprogress nounwind uwtable
define linkonce_odr void @_ZN9grpc_core11json_detail10AutoLoaderIbEC2Ev(ptr noundef nonnull align 8 dereferenceable(8) %this) unnamed_addr #5 comdat align 2 {
entry:
  %this.addr = alloca ptr, align 8
  store ptr %this, ptr %this.addr, align 8
  %this1 = load ptr, ptr %this.addr, align 8
  call void @_ZN9grpc_core11json_detail8LoadBoolC2Ev(ptr noundef nonnull align 8 dereferenceable(8) %this1) #3
  store ptr getelementptr inbounds ({ [3 x ptr] }, ptr @_ZTVN9grpc_core11json_detail10AutoLoaderIbEE, i32 0, inrange i32 0, i32 2), ptr %this1, align 8
  ret void
}

; Function Attrs: mustprogress nounwind uwtable
define linkonce_odr void @_ZN9grpc_core11json_detail8LoadBoolC2Ev(ptr noundef nonnull align 8 dereferenceable(8) %this) unnamed_addr #5 comdat align 2 {
entry:
  %this.addr = alloca ptr, align 8
  store ptr %this, ptr %this.addr, align 8
  %this1 = load ptr, ptr %this.addr, align 8
  call void @_ZN9grpc_core11json_detail15LoaderInterfaceC2Ev(ptr noundef nonnull align 8 dereferenceable(8) %this1) #3
  store ptr getelementptr inbounds ({ [3 x ptr] }, ptr @_ZTVN9grpc_core11json_detail8LoadBoolE, i32 0, inrange i32 0, i32 2), ptr %this1, align 8
  ret void
}

declare void @_ZNK9grpc_core11json_detail8LoadBool8LoadIntoERKNS_12experimental4JsonERKNS_8JsonArgsEPvPNS_16ValidationErrorsE(ptr noundef nonnull align 8 dereferenceable(8), ptr noundef nonnull align 8 dereferenceable(56), ptr noundef nonnull align 8 dereferenceable(8), ptr noundef, ptr noundef) unnamed_addr #1

; Function Attrs: mustprogress nounwind uwtable
define linkonce_odr void @_ZN9grpc_core9ConstructINS_11json_detail10AutoLoaderISt8optionalIbEEEJEEEvPT_DpOT0_(ptr noundef %p) #5 comdat {
entry:
  %p.addr = alloca ptr, align 8
  store ptr %p, ptr %p.addr, align 8
  %0 = load ptr, ptr %p.addr, align 8
  call void @llvm.memset.p0.i64(ptr align 8 %0, i8 0, i64 8, i1 false)
  call void @_ZN9grpc_core11json_detail10AutoLoaderISt8optionalIbEEC2Ev(ptr noundef nonnull align 8 dereferenceable(8) %0) #3
  ret void
}

; Function Attrs: mustprogress nounwind uwtable
define linkonce_odr void @_ZN9grpc_core11json_detail10AutoLoaderISt8optionalIbEEC2Ev(ptr noundef nonnull align 8 dereferenceable(8) %this) unnamed_addr #5 comdat align 2 {
entry:
  %this.addr = alloca ptr, align 8
  store ptr %this, ptr %this.addr, align 8
  %this1 = load ptr, ptr %this.addr, align 8
  call void @_ZN9grpc_core11json_detail11LoadWrappedC2Ev(ptr noundef nonnull align 8 dereferenceable(8) %this1) #3
  store ptr getelementptr inbounds ({ [6 x ptr] }, ptr @_ZTVN9grpc_core11json_detail10AutoLoaderISt8optionalIbEEE, i32 0, inrange i32 0, i32 2), ptr %this1, align 8
  ret void
}

; Function Attrs: mustprogress nounwind uwtable
define linkonce_odr noundef ptr @_ZNK9grpc_core11json_detail10AutoLoaderISt8optionalIbEE7EmplaceEPv(ptr noundef nonnull align 8 dereferenceable(8) %this, ptr noundef %dst) unnamed_addr #5 comdat align 2 {
entry:
  %this.addr = alloca ptr, align 8
  %dst.addr = alloca ptr, align 8
  store ptr %this, ptr %this.addr, align 8
  store ptr %dst, ptr %dst.addr, align 8
  %0 = load ptr, ptr %dst.addr, align 8
  %call = call noundef nonnull align 1 dereferenceable(1) ptr @_ZNSt8optionalIbE7emplaceIJEEENSt9enable_ifIX18is_constructible_vIbDpT_EERbE4typeEDpOS3_(ptr noundef nonnull align 1 dereferenceable(2) %0) #3
  ret ptr %call
}

; Function Attrs: mustprogress nounwind uwtable
define linkonce_odr void @_ZNK9grpc_core11json_detail10AutoLoaderISt8optionalIbEE5ResetEPv(ptr noundef nonnull align 8 dereferenceable(8) %this, ptr noundef %dst) unnamed_addr #5 comdat align 2 {
entry:
  %this.addr = alloca ptr, align 8
  %dst.addr = alloca ptr, align 8
  store ptr %this, ptr %this.addr, align 8
  store ptr %dst, ptr %dst.addr, align 8
  %0 = load ptr, ptr %dst.addr, align 8
  call void @_ZNSt8optionalIbE5resetEv(ptr noundef nonnull align 1 dereferenceable(2) %0) #3
  ret void
}

; Function Attrs: mustprogress uwtable
define linkonce_odr noundef ptr @_ZNK9grpc_core11json_detail10AutoLoaderISt8optionalIbEE13ElementLoaderEv(ptr noundef nonnull align 8 dereferenceable(8) %this) unnamed_addr #4 comdat align 2 {
entry:
  %this.addr = alloca ptr, align 8
  store ptr %this, ptr %this.addr, align 8
  %call = call noundef ptr @_ZN9grpc_core11json_detail13LoaderForTypeIbEEPKNS0_15LoaderInterfaceEv()
  ret ptr %call
}

; Function Attrs: mustprogress nounwind uwtable
define linkonce_odr noundef nonnull align 1 dereferenceable(1) ptr @_ZNSt8optionalIbE7emplaceIJEEENSt9enable_ifIX18is_constructible_vIbDpT_EERbE4typeEDpOS3_(ptr noundef nonnull align 1 dereferenceable(2) %this) #5 comdat align 2 {
entry:
  %this.addr = alloca ptr, align 8
  store ptr %this, ptr %this.addr, align 8
  %this1 = load ptr, ptr %this.addr, align 8
  call void @_ZNSt19_Optional_base_implIbSt14_Optional_baseIbLb1ELb1EEE8_M_resetEv(ptr noundef nonnull align 1 dereferenceable(1) %this1) #3
  call void @_ZNSt19_Optional_base_implIbSt14_Optional_baseIbLb1ELb1EEE12_M_constructIJEEEvDpOT_(ptr noundef nonnull align 1 dereferenceable(1) %this1) #3
  %call = call noundef nonnull align 1 dereferenceable(1) ptr @_ZNSt19_Optional_base_implIbSt14_Optional_baseIbLb1ELb1EEE6_M_getEv(ptr noundef nonnull align 1 dereferenceable(1) %this1) #3
  ret ptr %call
}

; Function Attrs: mustprogress nounwind uwtable
define linkonce_odr void @_ZNSt19_Optional_base_implIbSt14_Optional_baseIbLb1ELb1EEE8_M_resetEv(ptr noundef nonnull align 1 dereferenceable(1) %this) #5 comdat align 2 {
entry:
  %this.addr = alloca ptr, align 8
  store ptr %this, ptr %this.addr, align 8
  %this1 = load ptr, ptr %this.addr, align 8
  %_M_payload = getelementptr inbounds %"struct.std::_Optional_base.159", ptr %this1, i32 0, i32 0
  call void @_ZNSt22_Optional_payload_baseIbE8_M_resetEv(ptr noundef nonnull align 1 dereferenceable(2) %_M_payload) #3
  ret void
}

; Function Attrs: mustprogress nounwind uwtable
define linkonce_odr void @_ZNSt19_Optional_base_implIbSt14_Optional_baseIbLb1ELb1EEE12_M_constructIJEEEvDpOT_(ptr noundef nonnull align 1 dereferenceable(1) %this) #5 comdat align 2 {
entry:
  %this.addr = alloca ptr, align 8
  store ptr %this, ptr %this.addr, align 8
  %this1 = load ptr, ptr %this.addr, align 8
  %_M_payload = getelementptr inbounds %"struct.std::_Optional_base.159", ptr %this1, i32 0, i32 0
  call void @_ZNSt22_Optional_payload_baseIbE12_M_constructIJEEEvDpOT_(ptr noundef nonnull align 1 dereferenceable(2) %_M_payload) #3
  ret void
}

; Function Attrs: mustprogress nounwind uwtable
define linkonce_odr noundef nonnull align 1 dereferenceable(1) ptr @_ZNSt19_Optional_base_implIbSt14_Optional_baseIbLb1ELb1EEE6_M_getEv(ptr noundef nonnull align 1 dereferenceable(1) %this) #5 comdat align 2 {
entry:
  %this.addr = alloca ptr, align 8
  store ptr %this, ptr %this.addr, align 8
  %this1 = load ptr, ptr %this.addr, align 8
  br label %do.body

do.body:                                          ; preds = %entry
  br label %do.cond

do.cond:                                          ; preds = %do.body
  br label %do.end

do.end:                                           ; preds = %do.cond
  %_M_payload = getelementptr inbounds %"struct.std::_Optional_base.159", ptr %this1, i32 0, i32 0
  %call = call noundef nonnull align 1 dereferenceable(1) ptr @_ZNSt22_Optional_payload_baseIbE6_M_getEv(ptr noundef nonnull align 1 dereferenceable(2) %_M_payload) #3
  ret ptr %call
}

; Function Attrs: mustprogress nounwind uwtable
define linkonce_odr void @_ZNSt22_Optional_payload_baseIbE8_M_resetEv(ptr noundef nonnull align 1 dereferenceable(2) %this) #5 comdat align 2 {
entry:
  %this.addr = alloca ptr, align 8
  store ptr %this, ptr %this.addr, align 8
  %this1 = load ptr, ptr %this.addr, align 8
  %_M_engaged = getelementptr inbounds %"struct.std::_Optional_payload_base.162", ptr %this1, i32 0, i32 1
  %0 = load i8, ptr %_M_engaged, align 1
  %tobool = trunc i8 %0 to i1
  br i1 %tobool, label %if.then, label %if.end

if.then:                                          ; preds = %entry
  call void @_ZNSt22_Optional_payload_baseIbE10_M_destroyEv(ptr noundef nonnull align 1 dereferenceable(2) %this1) #3
  br label %if.end

if.end:                                           ; preds = %if.then, %entry
  ret void
}

; Function Attrs: mustprogress nounwind uwtable
define linkonce_odr void @_ZNSt22_Optional_payload_baseIbE10_M_destroyEv(ptr noundef nonnull align 1 dereferenceable(2) %this) #5 comdat align 2 {
entry:
  %this.addr = alloca ptr, align 8
  store ptr %this, ptr %this.addr, align 8
  %this1 = load ptr, ptr %this.addr, align 8
  %_M_engaged = getelementptr inbounds %"struct.std::_Optional_payload_base.162", ptr %this1, i32 0, i32 1
  store i8 0, ptr %_M_engaged, align 1
  ret void
}

; Function Attrs: mustprogress nounwind uwtable
define linkonce_odr void @_ZNSt22_Optional_payload_baseIbE12_M_constructIJEEEvDpOT_(ptr noundef nonnull align 1 dereferenceable(2) %this) #5 comdat align 2 personality ptr @__gxx_personality_v0 {
entry:
  %this.addr = alloca ptr, align 8
  store ptr %this, ptr %this.addr, align 8
  %this1 = load ptr, ptr %this.addr, align 8
  %_M_payload = getelementptr inbounds %"struct.std::_Optional_payload_base.162", ptr %this1, i32 0, i32 0
  invoke void @_ZSt10_ConstructIbJEEvPT_DpOT0_(ptr noundef %_M_payload)
          to label %invoke.cont unwind label %terminate.lpad

invoke.cont:                                      ; preds = %entry
  %_M_engaged = getelementptr inbounds %"struct.std::_Optional_payload_base.162", ptr %this1, i32 0, i32 1
  store i8 1, ptr %_M_engaged, align 1
  ret void

terminate.lpad:                                   ; preds = %entry
  %0 = landingpad { ptr, i32 }
          catch ptr null
  %1 = extractvalue { ptr, i32 } %0, 0
  call void @__clang_call_terminate(ptr %1) #15
  unreachable
}

; Function Attrs: mustprogress nounwind uwtable
define linkonce_odr void @_ZSt10_ConstructIbJEEvPT_DpOT0_(ptr noundef %__p) #5 comdat {
entry:
  %__p.addr = alloca ptr, align 8
  store ptr %__p, ptr %__p.addr, align 8
  %0 = load ptr, ptr %__p.addr, align 8
  store i8 0, ptr %0, align 1
  ret void
}

; Function Attrs: mustprogress nounwind uwtable
define linkonce_odr noundef nonnull align 1 dereferenceable(1) ptr @_ZNSt22_Optional_payload_baseIbE6_M_getEv(ptr noundef nonnull align 1 dereferenceable(2) %this) #5 comdat align 2 {
entry:
  %this.addr = alloca ptr, align 8
  store ptr %this, ptr %this.addr, align 8
  %this1 = load ptr, ptr %this.addr, align 8
  %_M_payload = getelementptr inbounds %"struct.std::_Optional_payload_base.162", ptr %this1, i32 0, i32 0
  ret ptr %_M_payload
}

; Function Attrs: mustprogress nounwind uwtable
define linkonce_odr void @_ZNSt8optionalIbE5resetEv(ptr noundef nonnull align 1 dereferenceable(2) %this) #5 comdat align 2 {
entry:
  %this.addr = alloca ptr, align 8
  store ptr %this, ptr %this.addr, align 8
  %this1 = load ptr, ptr %this.addr, align 8
  call void @_ZNSt19_Optional_base_implIbSt14_Optional_baseIbLb1ELb1EEE8_M_resetEv(ptr noundef nonnull align 1 dereferenceable(1) %this1) #3
  ret void
}

; Function Attrs: mustprogress uwtable
define linkonce_odr noundef ptr @_ZN9grpc_core11json_detail13LoaderForTypeIbEEPKNS0_15LoaderInterfaceEv() #4 comdat {
entry:
  %call = call noundef ptr @_ZN9grpc_core19NoDestructSingletonINS_11json_detail10AutoLoaderIbEEE3GetEv()
  ret ptr %call
}

; Function Attrs: mustprogress uwtable
define linkonce_odr noundef ptr @_ZN9grpc_core19NoDestructSingletonINS_11json_detail10AutoLoaderIbEEE3GetEv() #4 comdat align 2 {
entry:
  %call = call noundef nonnull align 8 dereferenceable(8) ptr @_ZN9grpc_core10NoDestructINS_11json_detail10AutoLoaderIbEEEdeEv(ptr noundef nonnull align 8 dereferenceable(8) @_ZN9grpc_core19NoDestructSingletonINS_11json_detail10AutoLoaderIbEEE6value_E)
  ret ptr %call
}

; Function Attrs: mustprogress uwtable
define linkonce_odr noundef nonnull align 8 dereferenceable(8) ptr @_ZN9grpc_core10NoDestructINS_11json_detail10AutoLoaderIbEEEdeEv(ptr noundef nonnull align 8 dereferenceable(8) %this) #4 comdat align 2 {
entry:
  %this.addr = alloca ptr, align 8
  store ptr %this, ptr %this.addr, align 8
  %this1 = load ptr, ptr %this.addr, align 8
  %call = call noundef ptr @_ZN9grpc_core10NoDestructINS_11json_detail10AutoLoaderIbEEE3getEv(ptr noundef nonnull align 8 dereferenceable(8) %this1)
  ret ptr %call
}

; Function Attrs: mustprogress nounwind uwtable
define linkonce_odr noundef ptr @_ZN9grpc_core10NoDestructINS_11json_detail10AutoLoaderIbEEE3getEv(ptr noundef nonnull align 8 dereferenceable(8) %this) #5 comdat align 2 {
entry:
  %this.addr = alloca ptr, align 8
  store ptr %this, ptr %this.addr, align 8
  %this1 = load ptr, ptr %this.addr, align 8
  %space_ = getelementptr inbounds %"class.grpc_core::NoDestruct.135", ptr %this1, i32 0, i32 0
  ret ptr %space_
}

; Function Attrs: mustprogress nounwind uwtable
define linkonce_odr void @_ZN9grpc_core11json_detail24FinishedJsonObjectLoaderINS_8internal31ClientChannelMethodParsedConfigELm2EvEC2ERKNS0_3VecINS0_7ElementELm2EEE(ptr noundef nonnull align 8 dereferenceable(72) %this, ptr noundef nonnull align 8 dereferenceable(64) %elements) unnamed_addr #5 comdat align 2 {
entry:
  %this.addr = alloca ptr, align 8
  %elements.addr = alloca ptr, align 8
  store ptr %this, ptr %this.addr, align 8
  store ptr %elements, ptr %elements.addr, align 8
  %this1 = load ptr, ptr %this.addr, align 8
  call void @_ZN9grpc_core11json_detail15LoaderInterfaceC2Ev(ptr noundef nonnull align 8 dereferenceable(8) %this1) #3
  store ptr getelementptr inbounds ({ [3 x ptr] }, ptr @_ZTVN9grpc_core11json_detail24FinishedJsonObjectLoaderINS_8internal31ClientChannelMethodParsedConfigELm2EvEE, i32 0, inrange i32 0, i32 2), ptr %this1, align 8
  %elements_ = getelementptr inbounds %"class.grpc_core::json_detail::FinishedJsonObjectLoader.92", ptr %this1, i32 0, i32 1
  %0 = load ptr, ptr %elements.addr, align 8
  call void @llvm.memcpy.p0.p0.i64(ptr align 8 %elements_, ptr align 8 %0, i64 64, i1 false)
  ret void
}

; Function Attrs: mustprogress uwtable
define linkonce_odr void @_ZNK9grpc_core11json_detail24FinishedJsonObjectLoaderINS_8internal31ClientChannelMethodParsedConfigELm2EvE8LoadIntoERKNS_12experimental4JsonERKNS_8JsonArgsEPvPNS_16ValidationErrorsE(ptr noundef nonnull align 8 dereferenceable(72) %this, ptr noundef nonnull align 8 dereferenceable(56) %json, ptr noundef nonnull align 8 dereferenceable(8) %args, ptr noundef %dst, ptr noundef %errors) unnamed_addr #4 comdat align 2 {
entry:
  %this.addr = alloca ptr, align 8
  %json.addr = alloca ptr, align 8
  %args.addr = alloca ptr, align 8
  %dst.addr = alloca ptr, align 8
  %errors.addr = alloca ptr, align 8
  store ptr %this, ptr %this.addr, align 8
  store ptr %json, ptr %json.addr, align 8
  store ptr %args, ptr %args.addr, align 8
  store ptr %dst, ptr %dst.addr, align 8
  store ptr %errors, ptr %errors.addr, align 8
  %this1 = load ptr, ptr %this.addr, align 8
  %0 = load ptr, ptr %json.addr, align 8
  %1 = load ptr, ptr %args.addr, align 8
  %elements_ = getelementptr inbounds %"class.grpc_core::json_detail::FinishedJsonObjectLoader.92", ptr %this1, i32 0, i32 1
  %call = call noundef ptr @_ZNK9grpc_core11json_detail3VecINS0_7ElementELm2EE4dataEv(ptr noundef nonnull align 8 dereferenceable(64) %elements_)
  %elements_2 = getelementptr inbounds %"class.grpc_core::json_detail::FinishedJsonObjectLoader.92", ptr %this1, i32 0, i32 1
  %call3 = call noundef i64 @_ZNK9grpc_core11json_detail3VecINS0_7ElementELm2EE4sizeEv(ptr noundef nonnull align 8 dereferenceable(64) %elements_2)
  %2 = load ptr, ptr %dst.addr, align 8
  %3 = load ptr, ptr %errors.addr, align 8
  %call4 = call noundef zeroext i1 @_ZN9grpc_core11json_detail10LoadObjectERKNS_12experimental4JsonERKNS_8JsonArgsEPKNS0_7ElementEmPvPNS_16ValidationErrorsE(ptr noundef nonnull align 8 dereferenceable(56) %0, ptr noundef nonnull align 8 dereferenceable(8) %1, ptr noundef %call, i64 noundef %call3, ptr noundef %2, ptr noundef %3)
  ret void
}

; Function Attrs: mustprogress nounwind uwtable
define linkonce_odr void @_ZN9grpc_core8internal32ClientChannelServiceConfigParserC2Ev(ptr noundef nonnull align 8 dereferenceable(8) %this) unnamed_addr #5 comdat align 2 {
entry:
  %this.addr = alloca ptr, align 8
  store ptr %this, ptr %this.addr, align 8
  %this1 = load ptr, ptr %this.addr, align 8
  call void @_ZN9grpc_core19ServiceConfigParser6ParserC2Ev(ptr noundef nonnull align 8 dereferenceable(8) %this1) #3
  store ptr getelementptr inbounds ({ [7 x ptr] }, ptr @_ZTVN9grpc_core8internal32ClientChannelServiceConfigParserE, i32 0, inrange i32 0, i32 2), ptr %this1, align 8
  ret void
}

; Function Attrs: mustprogress nounwind uwtable
define linkonce_odr void @_ZNSt10unique_ptrIN9grpc_core8internal32ClientChannelServiceConfigParserESt14default_deleteIS2_EEC2IS4_vEEPS2_(ptr noundef nonnull align 8 dereferenceable(8) %this, ptr noundef %__p) unnamed_addr #5 comdat align 2 personality ptr @__gxx_personality_v0 {
entry:
  %this.addr = alloca ptr, align 8
  %__p.addr = alloca ptr, align 8
  store ptr %this, ptr %this.addr, align 8
  store ptr %__p, ptr %__p.addr, align 8
  %this1 = load ptr, ptr %this.addr, align 8
  %_M_t = getelementptr inbounds %"class.std::unique_ptr.100", ptr %this1, i32 0, i32 0
  %0 = load ptr, ptr %__p.addr, align 8
  invoke void @_ZNSt15__uniq_ptr_dataIN9grpc_core8internal32ClientChannelServiceConfigParserESt14default_deleteIS2_ELb1ELb1EECI2St15__uniq_ptr_implIS2_S4_EEPS2_(ptr noundef nonnull align 8 dereferenceable(8) %_M_t, ptr noundef %0)
          to label %invoke.cont unwind label %terminate.lpad

invoke.cont:                                      ; preds = %entry
  ret void

terminate.lpad:                                   ; preds = %entry
  %1 = landingpad { ptr, i32 }
          catch ptr null
  %2 = extractvalue { ptr, i32 } %1, 0
  call void @__clang_call_terminate(ptr %2) #15
  unreachable
}

; Function Attrs: mustprogress nounwind uwtable
define linkonce_odr void @_ZN9grpc_core19ServiceConfigParser6ParserC2Ev(ptr noundef nonnull align 8 dereferenceable(8) %this) unnamed_addr #5 comdat align 2 {
entry:
  %this.addr = alloca ptr, align 8
  store ptr %this, ptr %this.addr, align 8
  %this1 = load ptr, ptr %this.addr, align 8
  store ptr getelementptr inbounds ({ [7 x ptr] }, ptr @_ZTVN9grpc_core19ServiceConfigParser6ParserE, i32 0, inrange i32 0, i32 2), ptr %this1, align 8
  ret void
}

; Function Attrs: mustprogress nounwind uwtable
define linkonce_odr void @_ZN9grpc_core19ServiceConfigParser6ParserD2Ev(ptr noundef nonnull align 8 dereferenceable(8) %this) unnamed_addr #5 comdat align 2 {
entry:
  %this.addr = alloca ptr, align 8
  store ptr %this, ptr %this.addr, align 8
  ret void
}

; Function Attrs: mustprogress nounwind uwtable
define linkonce_odr void @_ZN9grpc_core19ServiceConfigParser6ParserD0Ev(ptr noundef nonnull align 8 dereferenceable(8) %this) unnamed_addr #5 comdat align 2 {
entry:
  %this.addr = alloca ptr, align 8
  store ptr %this, ptr %this.addr, align 8
  call void @llvm.trap() #15
  unreachable
}

; Function Attrs: mustprogress nounwind uwtable
define linkonce_odr void @_ZN9grpc_core19ServiceConfigParser6Parser17ParseGlobalParamsERKNS_11ChannelArgsERKNS_12experimental4JsonEPNS_16ValidationErrorsE(ptr noalias sret(%"class.std::unique_ptr.108") align 8 %agg.result, ptr noundef nonnull align 8 dereferenceable(8) %this, ptr noundef nonnull align 8 dereferenceable(8) %0, ptr noundef nonnull align 8 dereferenceable(56) %1, ptr noundef %2) unnamed_addr #5 comdat align 2 {
entry:
  %result.ptr = alloca ptr, align 8
  %this.addr = alloca ptr, align 8
  %.addr = alloca ptr, align 8
  %.addr1 = alloca ptr, align 8
  %.addr2 = alloca ptr, align 8
  store ptr %agg.result, ptr %result.ptr, align 8
  store ptr %this, ptr %this.addr, align 8
  store ptr %0, ptr %.addr, align 8
  store ptr %1, ptr %.addr1, align 8
  store ptr %2, ptr %.addr2, align 8
  call void @_ZNSt10unique_ptrIN9grpc_core19ServiceConfigParser12ParsedConfigESt14default_deleteIS2_EEC2IS4_vEEDn(ptr noundef nonnull align 8 dereferenceable(8) %agg.result, ptr null) #3
  ret void
}

; Function Attrs: mustprogress nounwind uwtable
define linkonce_odr void @_ZN9grpc_core19ServiceConfigParser6Parser20ParsePerMethodParamsERKNS_11ChannelArgsERKNS_12experimental4JsonEPNS_16ValidationErrorsE(ptr noalias sret(%"class.std::unique_ptr.108") align 8 %agg.result, ptr noundef nonnull align 8 dereferenceable(8) %this, ptr noundef nonnull align 8 dereferenceable(8) %0, ptr noundef nonnull align 8 dereferenceable(56) %1, ptr noundef %2) unnamed_addr #5 comdat align 2 {
entry:
  %result.ptr = alloca ptr, align 8
  %this.addr = alloca ptr, align 8
  %.addr = alloca ptr, align 8
  %.addr1 = alloca ptr, align 8
  %.addr2 = alloca ptr, align 8
  store ptr %agg.result, ptr %result.ptr, align 8
  store ptr %this, ptr %this.addr, align 8
  store ptr %0, ptr %.addr, align 8
  store ptr %1, ptr %.addr1, align 8
  store ptr %2, ptr %.addr2, align 8
  call void @_ZNSt10unique_ptrIN9grpc_core19ServiceConfigParser12ParsedConfigESt14default_deleteIS2_EEC2IS4_vEEDn(ptr noundef nonnull align 8 dereferenceable(8) %agg.result, ptr null) #3
  ret void
}

; Function Attrs: cold noreturn nounwind memory(inaccessiblemem: write)
declare void @llvm.trap() #12

; Function Attrs: mustprogress nounwind uwtable
define linkonce_odr void @_ZNSt10unique_ptrIN9grpc_core19ServiceConfigParser12ParsedConfigESt14default_deleteIS2_EEC2IS4_vEEDn(ptr noundef nonnull align 8 dereferenceable(8) %this, ptr %0) unnamed_addr #5 comdat align 2 {
entry:
  %this.addr = alloca ptr, align 8
  %.addr = alloca ptr, align 8
  store ptr %this, ptr %this.addr, align 8
  store ptr %0, ptr %.addr, align 8
  %this1 = load ptr, ptr %this.addr, align 8
  %_M_t = getelementptr inbounds %"class.std::unique_ptr.108", ptr %this1, i32 0, i32 0
  call void @llvm.memset.p0.i64(ptr align 8 %_M_t, i8 0, i64 8, i1 false)
  call void @_ZNSt15__uniq_ptr_dataIN9grpc_core19ServiceConfigParser12ParsedConfigESt14default_deleteIS2_ELb1ELb1EEC2Ev(ptr noundef nonnull align 8 dereferenceable(8) %_M_t) #3
  ret void
}

; Function Attrs: mustprogress nounwind uwtable
define linkonce_odr void @_ZNSt15__uniq_ptr_dataIN9grpc_core19ServiceConfigParser12ParsedConfigESt14default_deleteIS2_ELb1ELb1EEC2Ev(ptr noundef nonnull align 8 dereferenceable(8) %this) unnamed_addr #5 comdat align 2 {
entry:
  %this.addr = alloca ptr, align 8
  store ptr %this, ptr %this.addr, align 8
  %this1 = load ptr, ptr %this.addr, align 8
  call void @_ZNSt15__uniq_ptr_implIN9grpc_core19ServiceConfigParser12ParsedConfigESt14default_deleteIS2_EEC2Ev(ptr noundef nonnull align 8 dereferenceable(8) %this1) #3
  ret void
}

; Function Attrs: mustprogress nounwind uwtable
define linkonce_odr void @_ZNSt15__uniq_ptr_implIN9grpc_core19ServiceConfigParser12ParsedConfigESt14default_deleteIS2_EEC2Ev(ptr noundef nonnull align 8 dereferenceable(8) %this) unnamed_addr #5 comdat align 2 {
entry:
  %this.addr = alloca ptr, align 8
  store ptr %this, ptr %this.addr, align 8
  %this1 = load ptr, ptr %this.addr, align 8
  %_M_t = getelementptr inbounds %"class.std::__uniq_ptr_impl.110", ptr %this1, i32 0, i32 0
  call void @_ZNSt5tupleIJPN9grpc_core19ServiceConfigParser12ParsedConfigESt14default_deleteIS2_EEEC2ILb1ETnNSt9enable_ifIXclsr17_TupleConstraintsIXT_ES3_S5_EE37__is_implicitly_default_constructibleEEbE4typeELb1EEEv(ptr noundef nonnull align 8 dereferenceable(8) %_M_t) #3
  ret void
}

; Function Attrs: mustprogress nounwind uwtable
define linkonce_odr void @_ZNSt5tupleIJPN9grpc_core19ServiceConfigParser12ParsedConfigESt14default_deleteIS2_EEEC2ILb1ETnNSt9enable_ifIXclsr17_TupleConstraintsIXT_ES3_S5_EE37__is_implicitly_default_constructibleEEbE4typeELb1EEEv(ptr noundef nonnull align 8 dereferenceable(8) %this) unnamed_addr #5 comdat align 2 personality ptr @__gxx_personality_v0 {
entry:
  %this.addr = alloca ptr, align 8
  store ptr %this, ptr %this.addr, align 8
  %this1 = load ptr, ptr %this.addr, align 8
  invoke void @_ZNSt11_Tuple_implILm0EJPN9grpc_core19ServiceConfigParser12ParsedConfigESt14default_deleteIS2_EEEC2Ev(ptr noundef nonnull align 8 dereferenceable(8) %this1)
          to label %invoke.cont unwind label %terminate.lpad

invoke.cont:                                      ; preds = %entry
  ret void

terminate.lpad:                                   ; preds = %entry
  %0 = landingpad { ptr, i32 }
          catch ptr null
  %1 = extractvalue { ptr, i32 } %0, 0
  call void @__clang_call_terminate(ptr %1) #15
  unreachable
}

; Function Attrs: mustprogress uwtable
define linkonce_odr void @_ZNSt11_Tuple_implILm0EJPN9grpc_core19ServiceConfigParser12ParsedConfigESt14default_deleteIS2_EEEC2Ev(ptr noundef nonnull align 8 dereferenceable(8) %this) unnamed_addr #4 comdat align 2 {
entry:
  %this.addr = alloca ptr, align 8
  store ptr %this, ptr %this.addr, align 8
  %this1 = load ptr, ptr %this.addr, align 8
  call void @_ZNSt11_Tuple_implILm1EJSt14default_deleteIN9grpc_core19ServiceConfigParser12ParsedConfigEEEEC2Ev(ptr noundef nonnull align 1 dereferenceable(1) %this1)
  call void @_ZNSt10_Head_baseILm0EPN9grpc_core19ServiceConfigParser12ParsedConfigELb0EEC2Ev(ptr noundef nonnull align 8 dereferenceable(8) %this1)
  ret void
}

; Function Attrs: mustprogress uwtable
define linkonce_odr void @_ZNSt11_Tuple_implILm1EJSt14default_deleteIN9grpc_core19ServiceConfigParser12ParsedConfigEEEEC2Ev(ptr noundef nonnull align 1 dereferenceable(1) %this) unnamed_addr #4 comdat align 2 {
entry:
  %this.addr = alloca ptr, align 8
  store ptr %this, ptr %this.addr, align 8
  %this1 = load ptr, ptr %this.addr, align 8
  call void @_ZNSt10_Head_baseILm1ESt14default_deleteIN9grpc_core19ServiceConfigParser12ParsedConfigEELb1EEC2Ev(ptr noundef nonnull align 1 dereferenceable(1) %this1)
  ret void
}

; Function Attrs: mustprogress nounwind uwtable
define linkonce_odr void @_ZNSt10_Head_baseILm0EPN9grpc_core19ServiceConfigParser12ParsedConfigELb0EEC2Ev(ptr noundef nonnull align 8 dereferenceable(8) %this) unnamed_addr #5 comdat align 2 {
entry:
  %this.addr = alloca ptr, align 8
  store ptr %this, ptr %this.addr, align 8
  %this1 = load ptr, ptr %this.addr, align 8
  %_M_head_impl = getelementptr inbounds %"struct.std::_Head_base.115", ptr %this1, i32 0, i32 0
  store ptr null, ptr %_M_head_impl, align 8
  ret void
}

; Function Attrs: mustprogress nounwind uwtable
define linkonce_odr void @_ZNSt10_Head_baseILm1ESt14default_deleteIN9grpc_core19ServiceConfigParser12ParsedConfigEELb1EEC2Ev(ptr noundef nonnull align 1 dereferenceable(1) %this) unnamed_addr #5 comdat align 2 {
entry:
  %this.addr = alloca ptr, align 8
  store ptr %this, ptr %this.addr, align 8
  ret void
}

; Function Attrs: mustprogress uwtable
define linkonce_odr void @_ZNSt15__uniq_ptr_dataIN9grpc_core8internal32ClientChannelServiceConfigParserESt14default_deleteIS2_ELb1ELb1EECI2St15__uniq_ptr_implIS2_S4_EEPS2_(ptr noundef nonnull align 8 dereferenceable(8) %this, ptr noundef %0) unnamed_addr #4 comdat align 2 {
entry:
  %this.addr = alloca ptr, align 8
  %.addr = alloca ptr, align 8
  store ptr %this, ptr %this.addr, align 8
  store ptr %0, ptr %.addr, align 8
  %this1 = load ptr, ptr %this.addr, align 8
  %1 = load ptr, ptr %.addr, align 8
  call void @_ZNSt15__uniq_ptr_implIN9grpc_core8internal32ClientChannelServiceConfigParserESt14default_deleteIS2_EEC2EPS2_(ptr noundef nonnull align 8 dereferenceable(8) %this1, ptr noundef %1)
  ret void
}

; Function Attrs: mustprogress nounwind uwtable
define linkonce_odr void @_ZNSt15__uniq_ptr_implIN9grpc_core8internal32ClientChannelServiceConfigParserESt14default_deleteIS2_EEC2EPS2_(ptr noundef nonnull align 8 dereferenceable(8) %this, ptr noundef %__p) unnamed_addr #5 comdat align 2 {
entry:
  %this.addr = alloca ptr, align 8
  %__p.addr = alloca ptr, align 8
  store ptr %this, ptr %this.addr, align 8
  store ptr %__p, ptr %__p.addr, align 8
  %this1 = load ptr, ptr %this.addr, align 8
  %_M_t = getelementptr inbounds %"class.std::__uniq_ptr_impl.102", ptr %this1, i32 0, i32 0
  call void @_ZNSt5tupleIJPN9grpc_core8internal32ClientChannelServiceConfigParserESt14default_deleteIS2_EEEC2ILb1ETnNSt9enable_ifIXclsr17_TupleConstraintsIXT_ES3_S5_EE37__is_implicitly_default_constructibleEEbE4typeELb1EEEv(ptr noundef nonnull align 8 dereferenceable(8) %_M_t) #3
  %0 = load ptr, ptr %__p.addr, align 8
  %call = call noundef nonnull align 8 dereferenceable(8) ptr @_ZNSt15__uniq_ptr_implIN9grpc_core8internal32ClientChannelServiceConfigParserESt14default_deleteIS2_EE6_M_ptrEv(ptr noundef nonnull align 8 dereferenceable(8) %this1) #3
  store ptr %0, ptr %call, align 8
  ret void
}

; Function Attrs: mustprogress nounwind uwtable
define linkonce_odr void @_ZNSt5tupleIJPN9grpc_core8internal32ClientChannelServiceConfigParserESt14default_deleteIS2_EEEC2ILb1ETnNSt9enable_ifIXclsr17_TupleConstraintsIXT_ES3_S5_EE37__is_implicitly_default_constructibleEEbE4typeELb1EEEv(ptr noundef nonnull align 8 dereferenceable(8) %this) unnamed_addr #5 comdat align 2 personality ptr @__gxx_personality_v0 {
entry:
  %this.addr = alloca ptr, align 8
  store ptr %this, ptr %this.addr, align 8
  %this1 = load ptr, ptr %this.addr, align 8
  invoke void @_ZNSt11_Tuple_implILm0EJPN9grpc_core8internal32ClientChannelServiceConfigParserESt14default_deleteIS2_EEEC2Ev(ptr noundef nonnull align 8 dereferenceable(8) %this1)
          to label %invoke.cont unwind label %terminate.lpad

invoke.cont:                                      ; preds = %entry
  ret void

terminate.lpad:                                   ; preds = %entry
  %0 = landingpad { ptr, i32 }
          catch ptr null
  %1 = extractvalue { ptr, i32 } %0, 0
  call void @__clang_call_terminate(ptr %1) #15
  unreachable
}

; Function Attrs: mustprogress nounwind uwtable
define linkonce_odr noundef nonnull align 8 dereferenceable(8) ptr @_ZNSt15__uniq_ptr_implIN9grpc_core8internal32ClientChannelServiceConfigParserESt14default_deleteIS2_EE6_M_ptrEv(ptr noundef nonnull align 8 dereferenceable(8) %this) #5 comdat align 2 {
entry:
  %this.addr = alloca ptr, align 8
  store ptr %this, ptr %this.addr, align 8
  %this1 = load ptr, ptr %this.addr, align 8
  %_M_t = getelementptr inbounds %"class.std::__uniq_ptr_impl.102", ptr %this1, i32 0, i32 0
  %call = call noundef nonnull align 8 dereferenceable(8) ptr @_ZSt3getILm0EJPN9grpc_core8internal32ClientChannelServiceConfigParserESt14default_deleteIS2_EEERNSt13tuple_elementIXT_ESt5tupleIJDpT0_EEE4typeERSA_(ptr noundef nonnull align 8 dereferenceable(8) %_M_t) #3
  ret ptr %call
}

; Function Attrs: mustprogress uwtable
define linkonce_odr void @_ZNSt11_Tuple_implILm0EJPN9grpc_core8internal32ClientChannelServiceConfigParserESt14default_deleteIS2_EEEC2Ev(ptr noundef nonnull align 8 dereferenceable(8) %this) unnamed_addr #4 comdat align 2 {
entry:
  %this.addr = alloca ptr, align 8
  store ptr %this, ptr %this.addr, align 8
  %this1 = load ptr, ptr %this.addr, align 8
  call void @_ZNSt11_Tuple_implILm1EJSt14default_deleteIN9grpc_core8internal32ClientChannelServiceConfigParserEEEEC2Ev(ptr noundef nonnull align 1 dereferenceable(1) %this1)
  call void @_ZNSt10_Head_baseILm0EPN9grpc_core8internal32ClientChannelServiceConfigParserELb0EEC2Ev(ptr noundef nonnull align 8 dereferenceable(8) %this1)
  ret void
}

; Function Attrs: mustprogress uwtable
define linkonce_odr void @_ZNSt11_Tuple_implILm1EJSt14default_deleteIN9grpc_core8internal32ClientChannelServiceConfigParserEEEEC2Ev(ptr noundef nonnull align 1 dereferenceable(1) %this) unnamed_addr #4 comdat align 2 {
entry:
  %this.addr = alloca ptr, align 8
  store ptr %this, ptr %this.addr, align 8
  %this1 = load ptr, ptr %this.addr, align 8
  call void @_ZNSt10_Head_baseILm1ESt14default_deleteIN9grpc_core8internal32ClientChannelServiceConfigParserEELb1EEC2Ev(ptr noundef nonnull align 1 dereferenceable(1) %this1)
  ret void
}

; Function Attrs: mustprogress nounwind uwtable
define linkonce_odr void @_ZNSt10_Head_baseILm0EPN9grpc_core8internal32ClientChannelServiceConfigParserELb0EEC2Ev(ptr noundef nonnull align 8 dereferenceable(8) %this) unnamed_addr #5 comdat align 2 {
entry:
  %this.addr = alloca ptr, align 8
  store ptr %this, ptr %this.addr, align 8
  %this1 = load ptr, ptr %this.addr, align 8
  %_M_head_impl = getelementptr inbounds %"struct.std::_Head_base.107", ptr %this1, i32 0, i32 0
  store ptr null, ptr %_M_head_impl, align 8
  ret void
}

; Function Attrs: mustprogress nounwind uwtable
define linkonce_odr void @_ZNSt10_Head_baseILm1ESt14default_deleteIN9grpc_core8internal32ClientChannelServiceConfigParserEELb1EEC2Ev(ptr noundef nonnull align 1 dereferenceable(1) %this) unnamed_addr #5 comdat align 2 {
entry:
  %this.addr = alloca ptr, align 8
  store ptr %this, ptr %this.addr, align 8
  ret void
}

; Function Attrs: mustprogress nounwind uwtable
define linkonce_odr noundef nonnull align 8 dereferenceable(8) ptr @_ZSt3getILm0EJPN9grpc_core8internal32ClientChannelServiceConfigParserESt14default_deleteIS2_EEERNSt13tuple_elementIXT_ESt5tupleIJDpT0_EEE4typeERSA_(ptr noundef nonnull align 8 dereferenceable(8) %__t) #5 comdat {
entry:
  %__t.addr = alloca ptr, align 8
  store ptr %__t, ptr %__t.addr, align 8
  %0 = load ptr, ptr %__t.addr, align 8
  %call = call noundef nonnull align 8 dereferenceable(8) ptr @_ZSt12__get_helperILm0EPN9grpc_core8internal32ClientChannelServiceConfigParserEJSt14default_deleteIS2_EEERT0_RSt11_Tuple_implIXT_EJS6_DpT1_EE(ptr noundef nonnull align 8 dereferenceable(8) %0) #3
  ret ptr %call
}

; Function Attrs: mustprogress nounwind uwtable
define linkonce_odr noundef nonnull align 8 dereferenceable(8) ptr @_ZSt12__get_helperILm0EPN9grpc_core8internal32ClientChannelServiceConfigParserEJSt14default_deleteIS2_EEERT0_RSt11_Tuple_implIXT_EJS6_DpT1_EE(ptr noundef nonnull align 8 dereferenceable(8) %__t) #5 comdat {
entry:
  %__t.addr = alloca ptr, align 8
  store ptr %__t, ptr %__t.addr, align 8
  %0 = load ptr, ptr %__t.addr, align 8
  %call = call noundef nonnull align 8 dereferenceable(8) ptr @_ZNSt11_Tuple_implILm0EJPN9grpc_core8internal32ClientChannelServiceConfigParserESt14default_deleteIS2_EEE7_M_headERS6_(ptr noundef nonnull align 8 dereferenceable(8) %0) #3
  ret ptr %call
}

; Function Attrs: mustprogress nounwind uwtable
define linkonce_odr noundef nonnull align 8 dereferenceable(8) ptr @_ZNSt11_Tuple_implILm0EJPN9grpc_core8internal32ClientChannelServiceConfigParserESt14default_deleteIS2_EEE7_M_headERS6_(ptr noundef nonnull align 8 dereferenceable(8) %__t) #5 comdat align 2 {
entry:
  %__t.addr = alloca ptr, align 8
  store ptr %__t, ptr %__t.addr, align 8
  %0 = load ptr, ptr %__t.addr, align 8
  %call = call noundef nonnull align 8 dereferenceable(8) ptr @_ZNSt10_Head_baseILm0EPN9grpc_core8internal32ClientChannelServiceConfigParserELb0EE7_M_headERS4_(ptr noundef nonnull align 8 dereferenceable(8) %0) #3
  ret ptr %call
}

; Function Attrs: mustprogress nounwind uwtable
define linkonce_odr noundef nonnull align 8 dereferenceable(8) ptr @_ZNSt10_Head_baseILm0EPN9grpc_core8internal32ClientChannelServiceConfigParserELb0EE7_M_headERS4_(ptr noundef nonnull align 8 dereferenceable(8) %__b) #5 comdat align 2 {
entry:
  %__b.addr = alloca ptr, align 8
  store ptr %__b, ptr %__b.addr, align 8
  %0 = load ptr, ptr %__b.addr, align 8
  %_M_head_impl = getelementptr inbounds %"struct.std::_Head_base.107", ptr %0, i32 0, i32 0
  ret ptr %_M_head_impl
}

; Function Attrs: mustprogress nounwind uwtable
define linkonce_odr noundef nonnull align 1 dereferenceable(1) ptr @_ZNSt10unique_ptrIN9grpc_core8internal32ClientChannelServiceConfigParserESt14default_deleteIS2_EE11get_deleterEv(ptr noundef nonnull align 8 dereferenceable(8) %this) #5 comdat align 2 {
entry:
  %this.addr = alloca ptr, align 8
  store ptr %this, ptr %this.addr, align 8
  %this1 = load ptr, ptr %this.addr, align 8
  %_M_t = getelementptr inbounds %"class.std::unique_ptr.100", ptr %this1, i32 0, i32 0
  %call = call noundef nonnull align 1 dereferenceable(1) ptr @_ZNSt15__uniq_ptr_implIN9grpc_core8internal32ClientChannelServiceConfigParserESt14default_deleteIS2_EE10_M_deleterEv(ptr noundef nonnull align 8 dereferenceable(8) %_M_t) #3
  ret ptr %call
}

; Function Attrs: mustprogress nounwind uwtable
define linkonce_odr void @_ZNKSt14default_deleteIN9grpc_core8internal32ClientChannelServiceConfigParserEEclEPS2_(ptr noundef nonnull align 1 dereferenceable(1) %this, ptr noundef %__ptr) #5 comdat align 2 {
entry:
  %this.addr = alloca ptr, align 8
  %__ptr.addr = alloca ptr, align 8
  store ptr %this, ptr %this.addr, align 8
  store ptr %__ptr, ptr %__ptr.addr, align 8
  %0 = load ptr, ptr %__ptr.addr, align 8
  %isnull = icmp eq ptr %0, null
  br i1 %isnull, label %delete.end, label %delete.notnull

delete.notnull:                                   ; preds = %entry
  %vtable = load ptr, ptr %0, align 8
  %vfn = getelementptr inbounds ptr, ptr %vtable, i64 1
  %1 = load ptr, ptr %vfn, align 8
  call void %1(ptr noundef nonnull align 8 dereferenceable(8) %0) #3
  br label %delete.end

delete.end:                                       ; preds = %delete.notnull, %entry
  ret void
}

; Function Attrs: mustprogress nounwind uwtable
define linkonce_odr noundef nonnull align 1 dereferenceable(1) ptr @_ZNSt15__uniq_ptr_implIN9grpc_core8internal32ClientChannelServiceConfigParserESt14default_deleteIS2_EE10_M_deleterEv(ptr noundef nonnull align 8 dereferenceable(8) %this) #5 comdat align 2 {
entry:
  %this.addr = alloca ptr, align 8
  store ptr %this, ptr %this.addr, align 8
  %this1 = load ptr, ptr %this.addr, align 8
  %_M_t = getelementptr inbounds %"class.std::__uniq_ptr_impl.102", ptr %this1, i32 0, i32 0
  %call = call noundef nonnull align 1 dereferenceable(1) ptr @_ZSt3getILm1EJPN9grpc_core8internal32ClientChannelServiceConfigParserESt14default_deleteIS2_EEERNSt13tuple_elementIXT_ESt5tupleIJDpT0_EEE4typeERSA_(ptr noundef nonnull align 8 dereferenceable(8) %_M_t) #3
  ret ptr %call
}

; Function Attrs: mustprogress nounwind uwtable
define linkonce_odr noundef nonnull align 1 dereferenceable(1) ptr @_ZSt3getILm1EJPN9grpc_core8internal32ClientChannelServiceConfigParserESt14default_deleteIS2_EEERNSt13tuple_elementIXT_ESt5tupleIJDpT0_EEE4typeERSA_(ptr noundef nonnull align 8 dereferenceable(8) %__t) #5 comdat {
entry:
  %__t.addr = alloca ptr, align 8
  store ptr %__t, ptr %__t.addr, align 8
  %0 = load ptr, ptr %__t.addr, align 8
  %call = call noundef nonnull align 1 dereferenceable(1) ptr @_ZSt12__get_helperILm1ESt14default_deleteIN9grpc_core8internal32ClientChannelServiceConfigParserEEJEERT0_RSt11_Tuple_implIXT_EJS5_DpT1_EE(ptr noundef nonnull align 1 dereferenceable(1) %0) #3
  ret ptr %call
}

; Function Attrs: mustprogress nounwind uwtable
define linkonce_odr noundef nonnull align 1 dereferenceable(1) ptr @_ZSt12__get_helperILm1ESt14default_deleteIN9grpc_core8internal32ClientChannelServiceConfigParserEEJEERT0_RSt11_Tuple_implIXT_EJS5_DpT1_EE(ptr noundef nonnull align 1 dereferenceable(1) %__t) #5 comdat {
entry:
  %__t.addr = alloca ptr, align 8
  store ptr %__t, ptr %__t.addr, align 8
  %0 = load ptr, ptr %__t.addr, align 8
  %call = call noundef nonnull align 1 dereferenceable(1) ptr @_ZNSt11_Tuple_implILm1EJSt14default_deleteIN9grpc_core8internal32ClientChannelServiceConfigParserEEEE7_M_headERS5_(ptr noundef nonnull align 1 dereferenceable(1) %0) #3
  ret ptr %call
}

; Function Attrs: mustprogress nounwind uwtable
define linkonce_odr noundef nonnull align 1 dereferenceable(1) ptr @_ZNSt11_Tuple_implILm1EJSt14default_deleteIN9grpc_core8internal32ClientChannelServiceConfigParserEEEE7_M_headERS5_(ptr noundef nonnull align 1 dereferenceable(1) %__t) #5 comdat align 2 {
entry:
  %__t.addr = alloca ptr, align 8
  store ptr %__t, ptr %__t.addr, align 8
  %0 = load ptr, ptr %__t.addr, align 8
  %call = call noundef nonnull align 1 dereferenceable(1) ptr @_ZNSt10_Head_baseILm1ESt14default_deleteIN9grpc_core8internal32ClientChannelServiceConfigParserEELb1EE7_M_headERS5_(ptr noundef nonnull align 1 dereferenceable(1) %0) #3
  ret ptr %call
}

; Function Attrs: mustprogress nounwind uwtable
define linkonce_odr noundef nonnull align 1 dereferenceable(1) ptr @_ZNSt10_Head_baseILm1ESt14default_deleteIN9grpc_core8internal32ClientChannelServiceConfigParserEELb1EE7_M_headERS5_(ptr noundef nonnull align 1 dereferenceable(1) %__b) #5 comdat align 2 {
entry:
  %__b.addr = alloca ptr, align 8
  store ptr %__b, ptr %__b.addr, align 8
  %0 = load ptr, ptr %__b.addr, align 8
  ret ptr %0
}

; Function Attrs: mustprogress nounwind uwtable
define linkonce_odr noundef ptr @_ZNSt10unique_ptrIN9grpc_core8internal32ClientChannelServiceConfigParserESt14default_deleteIS2_EE7releaseEv(ptr noundef nonnull align 8 dereferenceable(8) %this) #5 comdat align 2 {
entry:
  %this.addr = alloca ptr, align 8
  store ptr %this, ptr %this.addr, align 8
  %this1 = load ptr, ptr %this.addr, align 8
  %_M_t = getelementptr inbounds %"class.std::unique_ptr.100", ptr %this1, i32 0, i32 0
  %call = call noundef ptr @_ZNSt15__uniq_ptr_implIN9grpc_core8internal32ClientChannelServiceConfigParserESt14default_deleteIS2_EE7releaseEv(ptr noundef nonnull align 8 dereferenceable(8) %_M_t) #3
  ret ptr %call
}

; Function Attrs: mustprogress uwtable
define linkonce_odr void @_ZNSt15__uniq_ptr_dataIN9grpc_core19ServiceConfigParser6ParserESt14default_deleteIS2_ELb1ELb1EECI2St15__uniq_ptr_implIS2_S4_EIS3_INS0_8internal32ClientChannelServiceConfigParserEEEEPS2_OT_(ptr noundef nonnull align 8 dereferenceable(8) %this, ptr noundef %0, ptr noundef nonnull align 1 dereferenceable(1) %1) unnamed_addr #4 comdat align 2 {
entry:
  %this.addr = alloca ptr, align 8
  %.addr = alloca ptr, align 8
  %.addr1 = alloca ptr, align 8
  store ptr %this, ptr %this.addr, align 8
  store ptr %0, ptr %.addr, align 8
  store ptr %1, ptr %.addr1, align 8
  %this2 = load ptr, ptr %this.addr, align 8
  %2 = load ptr, ptr %.addr, align 8
  %3 = load ptr, ptr %.addr1, align 8
  call void @_ZNSt15__uniq_ptr_implIN9grpc_core19ServiceConfigParser6ParserESt14default_deleteIS2_EEC2IS3_INS0_8internal32ClientChannelServiceConfigParserEEEEPS2_OT_(ptr noundef nonnull align 8 dereferenceable(8) %this2, ptr noundef %2, ptr noundef nonnull align 1 dereferenceable(1) %3)
  ret void
}

; Function Attrs: mustprogress nounwind uwtable
define linkonce_odr noundef ptr @_ZNSt15__uniq_ptr_implIN9grpc_core8internal32ClientChannelServiceConfigParserESt14default_deleteIS2_EE7releaseEv(ptr noundef nonnull align 8 dereferenceable(8) %this) #5 comdat align 2 {
entry:
  %this.addr = alloca ptr, align 8
  %__p = alloca ptr, align 8
  store ptr %this, ptr %this.addr, align 8
  %this1 = load ptr, ptr %this.addr, align 8
  %call = call noundef nonnull align 8 dereferenceable(8) ptr @_ZNSt15__uniq_ptr_implIN9grpc_core8internal32ClientChannelServiceConfigParserESt14default_deleteIS2_EE6_M_ptrEv(ptr noundef nonnull align 8 dereferenceable(8) %this1) #3
  %0 = load ptr, ptr %call, align 8
  store ptr %0, ptr %__p, align 8
  %call2 = call noundef nonnull align 8 dereferenceable(8) ptr @_ZNSt15__uniq_ptr_implIN9grpc_core8internal32ClientChannelServiceConfigParserESt14default_deleteIS2_EE6_M_ptrEv(ptr noundef nonnull align 8 dereferenceable(8) %this1) #3
  store ptr null, ptr %call2, align 8
  %1 = load ptr, ptr %__p, align 8
  ret ptr %1
}

; Function Attrs: mustprogress nounwind uwtable
define linkonce_odr void @_ZNSt15__uniq_ptr_implIN9grpc_core19ServiceConfigParser6ParserESt14default_deleteIS2_EEC2IS3_INS0_8internal32ClientChannelServiceConfigParserEEEEPS2_OT_(ptr noundef nonnull align 8 dereferenceable(8) %this, ptr noundef %__p, ptr noundef nonnull align 1 dereferenceable(1) %__d) unnamed_addr #5 comdat align 2 {
entry:
  %this.addr = alloca ptr, align 8
  %__p.addr = alloca ptr, align 8
  %__d.addr = alloca ptr, align 8
  store ptr %this, ptr %this.addr, align 8
  store ptr %__p, ptr %__p.addr, align 8
  store ptr %__d, ptr %__d.addr, align 8
  %this1 = load ptr, ptr %this.addr, align 8
  %_M_t = getelementptr inbounds %"class.std::__uniq_ptr_impl", ptr %this1, i32 0, i32 0
  %0 = load ptr, ptr %__d.addr, align 8
  call void @_ZNSt5tupleIJPN9grpc_core19ServiceConfigParser6ParserESt14default_deleteIS2_EEEC2IRS3_S4_INS0_8internal32ClientChannelServiceConfigParserEETnNSt9enable_ifIXclsr4_TCCIXntcl14__is_alloc_argIT_EEEEE29__is_implicitly_constructibleISD_T0_EEEbE4typeELb1EEEOSD_OSE_(ptr noundef nonnull align 8 dereferenceable(8) %_M_t, ptr noundef nonnull align 8 dereferenceable(8) %__p.addr, ptr noundef nonnull align 1 dereferenceable(1) %0) #3
  ret void
}

; Function Attrs: mustprogress nounwind uwtable
define linkonce_odr void @_ZNSt5tupleIJPN9grpc_core19ServiceConfigParser6ParserESt14default_deleteIS2_EEEC2IRS3_S4_INS0_8internal32ClientChannelServiceConfigParserEETnNSt9enable_ifIXclsr4_TCCIXntcl14__is_alloc_argIT_EEEEE29__is_implicitly_constructibleISD_T0_EEEbE4typeELb1EEEOSD_OSE_(ptr noundef nonnull align 8 dereferenceable(8) %this, ptr noundef nonnull align 8 dereferenceable(8) %__a1, ptr noundef nonnull align 1 dereferenceable(1) %__a2) unnamed_addr #5 comdat align 2 personality ptr @__gxx_personality_v0 {
entry:
  %this.addr = alloca ptr, align 8
  %__a1.addr = alloca ptr, align 8
  %__a2.addr = alloca ptr, align 8
  store ptr %this, ptr %this.addr, align 8
  store ptr %__a1, ptr %__a1.addr, align 8
  store ptr %__a2, ptr %__a2.addr, align 8
  %this1 = load ptr, ptr %this.addr, align 8
  %0 = load ptr, ptr %__a1.addr, align 8
  %1 = load ptr, ptr %__a2.addr, align 8
  invoke void @_ZNSt11_Tuple_implILm0EJPN9grpc_core19ServiceConfigParser6ParserESt14default_deleteIS2_EEEC2IRS3_JS4_INS0_8internal32ClientChannelServiceConfigParserEEEvEEOT_DpOT0_(ptr noundef nonnull align 8 dereferenceable(8) %this1, ptr noundef nonnull align 8 dereferenceable(8) %0, ptr noundef nonnull align 1 dereferenceable(1) %1)
          to label %invoke.cont unwind label %terminate.lpad

invoke.cont:                                      ; preds = %entry
  ret void

terminate.lpad:                                   ; preds = %entry
  %2 = landingpad { ptr, i32 }
          catch ptr null
  %3 = extractvalue { ptr, i32 } %2, 0
  call void @__clang_call_terminate(ptr %3) #15
  unreachable
}

; Function Attrs: mustprogress uwtable
define linkonce_odr void @_ZNSt11_Tuple_implILm0EJPN9grpc_core19ServiceConfigParser6ParserESt14default_deleteIS2_EEEC2IRS3_JS4_INS0_8internal32ClientChannelServiceConfigParserEEEvEEOT_DpOT0_(ptr noundef nonnull align 8 dereferenceable(8) %this, ptr noundef nonnull align 8 dereferenceable(8) %__head, ptr noundef nonnull align 1 dereferenceable(1) %__tail) unnamed_addr #4 comdat align 2 {
entry:
  %this.addr = alloca ptr, align 8
  %__head.addr = alloca ptr, align 8
  %__tail.addr = alloca ptr, align 8
  store ptr %this, ptr %this.addr, align 8
  store ptr %__head, ptr %__head.addr, align 8
  store ptr %__tail, ptr %__tail.addr, align 8
  %this1 = load ptr, ptr %this.addr, align 8
  %0 = load ptr, ptr %__tail.addr, align 8
  call void @_ZNSt11_Tuple_implILm1EJSt14default_deleteIN9grpc_core19ServiceConfigParser6ParserEEEEC2IS0_INS1_8internal32ClientChannelServiceConfigParserEEEEOT_(ptr noundef nonnull align 1 dereferenceable(1) %this1, ptr noundef nonnull align 1 dereferenceable(1) %0)
  %1 = load ptr, ptr %__head.addr, align 8
  call void @_ZNSt10_Head_baseILm0EPN9grpc_core19ServiceConfigParser6ParserELb0EEC2IRS3_EEOT_(ptr noundef nonnull align 8 dereferenceable(8) %this1, ptr noundef nonnull align 8 dereferenceable(8) %1)
  ret void
}

; Function Attrs: mustprogress uwtable
define linkonce_odr void @_ZNSt11_Tuple_implILm1EJSt14default_deleteIN9grpc_core19ServiceConfigParser6ParserEEEEC2IS0_INS1_8internal32ClientChannelServiceConfigParserEEEEOT_(ptr noundef nonnull align 1 dereferenceable(1) %this, ptr noundef nonnull align 1 dereferenceable(1) %__head) unnamed_addr #4 comdat align 2 {
entry:
  %this.addr = alloca ptr, align 8
  %__head.addr = alloca ptr, align 8
  store ptr %this, ptr %this.addr, align 8
  store ptr %__head, ptr %__head.addr, align 8
  %this1 = load ptr, ptr %this.addr, align 8
  %0 = load ptr, ptr %__head.addr, align 8
  call void @_ZNSt10_Head_baseILm1ESt14default_deleteIN9grpc_core19ServiceConfigParser6ParserEELb1EEC2IS0_INS1_8internal32ClientChannelServiceConfigParserEEEEOT_(ptr noundef nonnull align 1 dereferenceable(1) %this1, ptr noundef nonnull align 1 dereferenceable(1) %0)
  ret void
}

; Function Attrs: mustprogress nounwind uwtable
define linkonce_odr void @_ZNSt10_Head_baseILm0EPN9grpc_core19ServiceConfigParser6ParserELb0EEC2IRS3_EEOT_(ptr noundef nonnull align 8 dereferenceable(8) %this, ptr noundef nonnull align 8 dereferenceable(8) %__h) unnamed_addr #5 comdat align 2 {
entry:
  %this.addr = alloca ptr, align 8
  %__h.addr = alloca ptr, align 8
  store ptr %this, ptr %this.addr, align 8
  store ptr %__h, ptr %__h.addr, align 8
  %this1 = load ptr, ptr %this.addr, align 8
  %_M_head_impl = getelementptr inbounds %"struct.std::_Head_base.99", ptr %this1, i32 0, i32 0
  %0 = load ptr, ptr %__h.addr, align 8
  %1 = load ptr, ptr %0, align 8
  store ptr %1, ptr %_M_head_impl, align 8
  ret void
}

; Function Attrs: mustprogress nounwind uwtable
define linkonce_odr void @_ZNSt10_Head_baseILm1ESt14default_deleteIN9grpc_core19ServiceConfigParser6ParserEELb1EEC2IS0_INS1_8internal32ClientChannelServiceConfigParserEEEEOT_(ptr noundef nonnull align 1 dereferenceable(1) %this, ptr noundef nonnull align 1 dereferenceable(1) %__h) unnamed_addr #5 comdat align 2 {
entry:
  %this.addr = alloca ptr, align 8
  %__h.addr = alloca ptr, align 8
  store ptr %this, ptr %this.addr, align 8
  store ptr %__h, ptr %__h.addr, align 8
  %this1 = load ptr, ptr %this.addr, align 8
  %0 = load ptr, ptr %__h.addr, align 8
  call void @_ZNSt14default_deleteIN9grpc_core19ServiceConfigParser6ParserEEC2INS0_8internal32ClientChannelServiceConfigParserEvEERKS_IT_E(ptr noundef nonnull align 1 dereferenceable(1) %this1, ptr noundef nonnull align 1 dereferenceable(1) %0) #3
  ret void
}

; Function Attrs: mustprogress nounwind uwtable
define linkonce_odr void @_ZNSt14default_deleteIN9grpc_core19ServiceConfigParser6ParserEEC2INS0_8internal32ClientChannelServiceConfigParserEvEERKS_IT_E(ptr noundef nonnull align 1 dereferenceable(1) %this, ptr noundef nonnull align 1 dereferenceable(1) %0) unnamed_addr #5 comdat align 2 {
entry:
  %this.addr = alloca ptr, align 8
  %.addr = alloca ptr, align 8
  store ptr %this, ptr %this.addr, align 8
  store ptr %0, ptr %.addr, align 8
  ret void
}

; Function Attrs: mustprogress nounwind uwtable
define linkonce_odr noundef nonnull align 8 dereferenceable(8) ptr @_ZNSt15__uniq_ptr_implIN9grpc_core19ServiceConfigParser6ParserESt14default_deleteIS2_EE6_M_ptrEv(ptr noundef nonnull align 8 dereferenceable(8) %this) #5 comdat align 2 {
entry:
  %this.addr = alloca ptr, align 8
  store ptr %this, ptr %this.addr, align 8
  %this1 = load ptr, ptr %this.addr, align 8
  %_M_t = getelementptr inbounds %"class.std::__uniq_ptr_impl", ptr %this1, i32 0, i32 0
  %call = call noundef nonnull align 8 dereferenceable(8) ptr @_ZSt3getILm0EJPN9grpc_core19ServiceConfigParser6ParserESt14default_deleteIS2_EEERNSt13tuple_elementIXT_ESt5tupleIJDpT0_EEE4typeERSA_(ptr noundef nonnull align 8 dereferenceable(8) %_M_t) #3
  ret ptr %call
}

; Function Attrs: mustprogress nounwind uwtable
define linkonce_odr noundef nonnull align 1 dereferenceable(1) ptr @_ZNSt10unique_ptrIN9grpc_core19ServiceConfigParser6ParserESt14default_deleteIS2_EE11get_deleterEv(ptr noundef nonnull align 8 dereferenceable(8) %this) #5 comdat align 2 {
entry:
  %this.addr = alloca ptr, align 8
  store ptr %this, ptr %this.addr, align 8
  %this1 = load ptr, ptr %this.addr, align 8
  %_M_t = getelementptr inbounds %"class.std::unique_ptr", ptr %this1, i32 0, i32 0
  %call = call noundef nonnull align 1 dereferenceable(1) ptr @_ZNSt15__uniq_ptr_implIN9grpc_core19ServiceConfigParser6ParserESt14default_deleteIS2_EE10_M_deleterEv(ptr noundef nonnull align 8 dereferenceable(8) %_M_t) #3
  ret ptr %call
}

; Function Attrs: mustprogress nounwind uwtable
define linkonce_odr void @_ZNKSt14default_deleteIN9grpc_core19ServiceConfigParser6ParserEEclEPS2_(ptr noundef nonnull align 1 dereferenceable(1) %this, ptr noundef %__ptr) #5 comdat align 2 {
entry:
  %this.addr = alloca ptr, align 8
  %__ptr.addr = alloca ptr, align 8
  store ptr %this, ptr %this.addr, align 8
  store ptr %__ptr, ptr %__ptr.addr, align 8
  %0 = load ptr, ptr %__ptr.addr, align 8
  %isnull = icmp eq ptr %0, null
  br i1 %isnull, label %delete.end, label %delete.notnull

delete.notnull:                                   ; preds = %entry
  %vtable = load ptr, ptr %0, align 8
  %vfn = getelementptr inbounds ptr, ptr %vtable, i64 1
  %1 = load ptr, ptr %vfn, align 8
  call void %1(ptr noundef nonnull align 8 dereferenceable(8) %0) #3
  br label %delete.end

delete.end:                                       ; preds = %delete.notnull, %entry
  ret void
}

; Function Attrs: mustprogress nounwind uwtable
define linkonce_odr noundef nonnull align 8 dereferenceable(8) ptr @_ZSt3getILm0EJPN9grpc_core19ServiceConfigParser6ParserESt14default_deleteIS2_EEERNSt13tuple_elementIXT_ESt5tupleIJDpT0_EEE4typeERSA_(ptr noundef nonnull align 8 dereferenceable(8) %__t) #5 comdat {
entry:
  %__t.addr = alloca ptr, align 8
  store ptr %__t, ptr %__t.addr, align 8
  %0 = load ptr, ptr %__t.addr, align 8
  %call = call noundef nonnull align 8 dereferenceable(8) ptr @_ZSt12__get_helperILm0EPN9grpc_core19ServiceConfigParser6ParserEJSt14default_deleteIS2_EEERT0_RSt11_Tuple_implIXT_EJS6_DpT1_EE(ptr noundef nonnull align 8 dereferenceable(8) %0) #3
  ret ptr %call
}

; Function Attrs: mustprogress nounwind uwtable
define linkonce_odr noundef nonnull align 8 dereferenceable(8) ptr @_ZSt12__get_helperILm0EPN9grpc_core19ServiceConfigParser6ParserEJSt14default_deleteIS2_EEERT0_RSt11_Tuple_implIXT_EJS6_DpT1_EE(ptr noundef nonnull align 8 dereferenceable(8) %__t) #5 comdat {
entry:
  %__t.addr = alloca ptr, align 8
  store ptr %__t, ptr %__t.addr, align 8
  %0 = load ptr, ptr %__t.addr, align 8
  %call = call noundef nonnull align 8 dereferenceable(8) ptr @_ZNSt11_Tuple_implILm0EJPN9grpc_core19ServiceConfigParser6ParserESt14default_deleteIS2_EEE7_M_headERS6_(ptr noundef nonnull align 8 dereferenceable(8) %0) #3
  ret ptr %call
}

; Function Attrs: mustprogress nounwind uwtable
define linkonce_odr noundef nonnull align 8 dereferenceable(8) ptr @_ZNSt11_Tuple_implILm0EJPN9grpc_core19ServiceConfigParser6ParserESt14default_deleteIS2_EEE7_M_headERS6_(ptr noundef nonnull align 8 dereferenceable(8) %__t) #5 comdat align 2 {
entry:
  %__t.addr = alloca ptr, align 8
  store ptr %__t, ptr %__t.addr, align 8
  %0 = load ptr, ptr %__t.addr, align 8
  %call = call noundef nonnull align 8 dereferenceable(8) ptr @_ZNSt10_Head_baseILm0EPN9grpc_core19ServiceConfigParser6ParserELb0EE7_M_headERS4_(ptr noundef nonnull align 8 dereferenceable(8) %0) #3
  ret ptr %call
}

; Function Attrs: mustprogress nounwind uwtable
define linkonce_odr noundef nonnull align 8 dereferenceable(8) ptr @_ZNSt10_Head_baseILm0EPN9grpc_core19ServiceConfigParser6ParserELb0EE7_M_headERS4_(ptr noundef nonnull align 8 dereferenceable(8) %__b) #5 comdat align 2 {
entry:
  %__b.addr = alloca ptr, align 8
  store ptr %__b, ptr %__b.addr, align 8
  %0 = load ptr, ptr %__b.addr, align 8
  %_M_head_impl = getelementptr inbounds %"struct.std::_Head_base.99", ptr %0, i32 0, i32 0
  ret ptr %_M_head_impl
}

; Function Attrs: mustprogress nounwind uwtable
define linkonce_odr noundef nonnull align 1 dereferenceable(1) ptr @_ZNSt15__uniq_ptr_implIN9grpc_core19ServiceConfigParser6ParserESt14default_deleteIS2_EE10_M_deleterEv(ptr noundef nonnull align 8 dereferenceable(8) %this) #5 comdat align 2 {
entry:
  %this.addr = alloca ptr, align 8
  store ptr %this, ptr %this.addr, align 8
  %this1 = load ptr, ptr %this.addr, align 8
  %_M_t = getelementptr inbounds %"class.std::__uniq_ptr_impl", ptr %this1, i32 0, i32 0
  %call = call noundef nonnull align 1 dereferenceable(1) ptr @_ZSt3getILm1EJPN9grpc_core19ServiceConfigParser6ParserESt14default_deleteIS2_EEERNSt13tuple_elementIXT_ESt5tupleIJDpT0_EEE4typeERSA_(ptr noundef nonnull align 8 dereferenceable(8) %_M_t) #3
  ret ptr %call
}

; Function Attrs: mustprogress nounwind uwtable
define linkonce_odr noundef nonnull align 1 dereferenceable(1) ptr @_ZSt3getILm1EJPN9grpc_core19ServiceConfigParser6ParserESt14default_deleteIS2_EEERNSt13tuple_elementIXT_ESt5tupleIJDpT0_EEE4typeERSA_(ptr noundef nonnull align 8 dereferenceable(8) %__t) #5 comdat {
entry:
  %__t.addr = alloca ptr, align 8
  store ptr %__t, ptr %__t.addr, align 8
  %0 = load ptr, ptr %__t.addr, align 8
  %call = call noundef nonnull align 1 dereferenceable(1) ptr @_ZSt12__get_helperILm1ESt14default_deleteIN9grpc_core19ServiceConfigParser6ParserEEJEERT0_RSt11_Tuple_implIXT_EJS5_DpT1_EE(ptr noundef nonnull align 1 dereferenceable(1) %0) #3
  ret ptr %call
}

; Function Attrs: mustprogress nounwind uwtable
define linkonce_odr noundef nonnull align 1 dereferenceable(1) ptr @_ZSt12__get_helperILm1ESt14default_deleteIN9grpc_core19ServiceConfigParser6ParserEEJEERT0_RSt11_Tuple_implIXT_EJS5_DpT1_EE(ptr noundef nonnull align 1 dereferenceable(1) %__t) #5 comdat {
entry:
  %__t.addr = alloca ptr, align 8
  store ptr %__t, ptr %__t.addr, align 8
  %0 = load ptr, ptr %__t.addr, align 8
  %call = call noundef nonnull align 1 dereferenceable(1) ptr @_ZNSt11_Tuple_implILm1EJSt14default_deleteIN9grpc_core19ServiceConfigParser6ParserEEEE7_M_headERS5_(ptr noundef nonnull align 1 dereferenceable(1) %0) #3
  ret ptr %call
}

; Function Attrs: mustprogress nounwind uwtable
define linkonce_odr noundef nonnull align 1 dereferenceable(1) ptr @_ZNSt11_Tuple_implILm1EJSt14default_deleteIN9grpc_core19ServiceConfigParser6ParserEEEE7_M_headERS5_(ptr noundef nonnull align 1 dereferenceable(1) %__t) #5 comdat align 2 {
entry:
  %__t.addr = alloca ptr, align 8
  store ptr %__t, ptr %__t.addr, align 8
  %0 = load ptr, ptr %__t.addr, align 8
  %call = call noundef nonnull align 1 dereferenceable(1) ptr @_ZNSt10_Head_baseILm1ESt14default_deleteIN9grpc_core19ServiceConfigParser6ParserEELb1EE7_M_headERS5_(ptr noundef nonnull align 1 dereferenceable(1) %0) #3
  ret ptr %call
}

; Function Attrs: mustprogress nounwind uwtable
define linkonce_odr noundef nonnull align 1 dereferenceable(1) ptr @_ZNSt10_Head_baseILm1ESt14default_deleteIN9grpc_core19ServiceConfigParser6ParserEELb1EE7_M_headERS5_(ptr noundef nonnull align 1 dereferenceable(1) %__b) #5 comdat align 2 {
entry:
  %__b.addr = alloca ptr, align 8
  store ptr %__b, ptr %__b.addr, align 8
  %0 = load ptr, ptr %__b.addr, align 8
  ret ptr %0
}

; Function Attrs: mustprogress nounwind uwtable
define linkonce_odr void @_ZNSt10unique_ptrIN9grpc_core8internal31ClientChannelGlobalParsedConfigESt14default_deleteIS2_EEC2IS4_vEEv(ptr noundef nonnull align 8 dereferenceable(8) %this) unnamed_addr #5 comdat align 2 {
entry:
  %this.addr = alloca ptr, align 8
  store ptr %this, ptr %this.addr, align 8
  %this1 = load ptr, ptr %this.addr, align 8
  %_M_t = getelementptr inbounds %"class.std::unique_ptr.116", ptr %this1, i32 0, i32 0
  call void @llvm.memset.p0.i64(ptr align 8 %_M_t, i8 0, i64 8, i1 false)
  call void @_ZNSt15__uniq_ptr_dataIN9grpc_core8internal31ClientChannelGlobalParsedConfigESt14default_deleteIS2_ELb1ELb1EEC2Ev(ptr noundef nonnull align 8 dereferenceable(8) %_M_t) #3
  ret void
}

; Function Attrs: mustprogress uwtable
define linkonce_odr noundef ptr @_ZN9grpc_core11json_detail13LoaderForTypeISt10unique_ptrINS_8internal31ClientChannelGlobalParsedConfigESt14default_deleteIS4_EEEEPKNS0_15LoaderInterfaceEv() #4 comdat {
entry:
  %call = call noundef ptr @_ZN9grpc_core19NoDestructSingletonINS_11json_detail10AutoLoaderISt10unique_ptrINS_8internal31ClientChannelGlobalParsedConfigESt14default_deleteIS5_EEEEE3GetEv()
  ret ptr %call
}

; Function Attrs: mustprogress nounwind uwtable
define linkonce_odr void @_ZNSt15__uniq_ptr_dataIN9grpc_core8internal31ClientChannelGlobalParsedConfigESt14default_deleteIS2_ELb1ELb1EEC2Ev(ptr noundef nonnull align 8 dereferenceable(8) %this) unnamed_addr #5 comdat align 2 {
entry:
  %this.addr = alloca ptr, align 8
  store ptr %this, ptr %this.addr, align 8
  %this1 = load ptr, ptr %this.addr, align 8
  call void @_ZNSt15__uniq_ptr_implIN9grpc_core8internal31ClientChannelGlobalParsedConfigESt14default_deleteIS2_EEC2Ev(ptr noundef nonnull align 8 dereferenceable(8) %this1) #3
  ret void
}

; Function Attrs: mustprogress nounwind uwtable
define linkonce_odr void @_ZNSt15__uniq_ptr_implIN9grpc_core8internal31ClientChannelGlobalParsedConfigESt14default_deleteIS2_EEC2Ev(ptr noundef nonnull align 8 dereferenceable(8) %this) unnamed_addr #5 comdat align 2 {
entry:
  %this.addr = alloca ptr, align 8
  store ptr %this, ptr %this.addr, align 8
  %this1 = load ptr, ptr %this.addr, align 8
  %_M_t = getelementptr inbounds %"class.std::__uniq_ptr_impl.118", ptr %this1, i32 0, i32 0
  call void @_ZNSt5tupleIJPN9grpc_core8internal31ClientChannelGlobalParsedConfigESt14default_deleteIS2_EEEC2ILb1ETnNSt9enable_ifIXclsr17_TupleConstraintsIXT_ES3_S5_EE37__is_implicitly_default_constructibleEEbE4typeELb1EEEv(ptr noundef nonnull align 8 dereferenceable(8) %_M_t) #3
  ret void
}

; Function Attrs: mustprogress nounwind uwtable
define linkonce_odr void @_ZNSt5tupleIJPN9grpc_core8internal31ClientChannelGlobalParsedConfigESt14default_deleteIS2_EEEC2ILb1ETnNSt9enable_ifIXclsr17_TupleConstraintsIXT_ES3_S5_EE37__is_implicitly_default_constructibleEEbE4typeELb1EEEv(ptr noundef nonnull align 8 dereferenceable(8) %this) unnamed_addr #5 comdat align 2 personality ptr @__gxx_personality_v0 {
entry:
  %this.addr = alloca ptr, align 8
  store ptr %this, ptr %this.addr, align 8
  %this1 = load ptr, ptr %this.addr, align 8
  invoke void @_ZNSt11_Tuple_implILm0EJPN9grpc_core8internal31ClientChannelGlobalParsedConfigESt14default_deleteIS2_EEEC2Ev(ptr noundef nonnull align 8 dereferenceable(8) %this1)
          to label %invoke.cont unwind label %terminate.lpad

invoke.cont:                                      ; preds = %entry
  ret void

terminate.lpad:                                   ; preds = %entry
  %0 = landingpad { ptr, i32 }
          catch ptr null
  %1 = extractvalue { ptr, i32 } %0, 0
  call void @__clang_call_terminate(ptr %1) #15
  unreachable
}

; Function Attrs: mustprogress uwtable
define linkonce_odr void @_ZNSt11_Tuple_implILm0EJPN9grpc_core8internal31ClientChannelGlobalParsedConfigESt14default_deleteIS2_EEEC2Ev(ptr noundef nonnull align 8 dereferenceable(8) %this) unnamed_addr #4 comdat align 2 {
entry:
  %this.addr = alloca ptr, align 8
  store ptr %this, ptr %this.addr, align 8
  %this1 = load ptr, ptr %this.addr, align 8
  call void @_ZNSt11_Tuple_implILm1EJSt14default_deleteIN9grpc_core8internal31ClientChannelGlobalParsedConfigEEEEC2Ev(ptr noundef nonnull align 1 dereferenceable(1) %this1)
  call void @_ZNSt10_Head_baseILm0EPN9grpc_core8internal31ClientChannelGlobalParsedConfigELb0EEC2Ev(ptr noundef nonnull align 8 dereferenceable(8) %this1)
  ret void
}

; Function Attrs: mustprogress uwtable
define linkonce_odr void @_ZNSt11_Tuple_implILm1EJSt14default_deleteIN9grpc_core8internal31ClientChannelGlobalParsedConfigEEEEC2Ev(ptr noundef nonnull align 1 dereferenceable(1) %this) unnamed_addr #4 comdat align 2 {
entry:
  %this.addr = alloca ptr, align 8
  store ptr %this, ptr %this.addr, align 8
  %this1 = load ptr, ptr %this.addr, align 8
  call void @_ZNSt10_Head_baseILm1ESt14default_deleteIN9grpc_core8internal31ClientChannelGlobalParsedConfigEELb1EEC2Ev(ptr noundef nonnull align 1 dereferenceable(1) %this1)
  ret void
}

; Function Attrs: mustprogress nounwind uwtable
define linkonce_odr void @_ZNSt10_Head_baseILm0EPN9grpc_core8internal31ClientChannelGlobalParsedConfigELb0EEC2Ev(ptr noundef nonnull align 8 dereferenceable(8) %this) unnamed_addr #5 comdat align 2 {
entry:
  %this.addr = alloca ptr, align 8
  store ptr %this, ptr %this.addr, align 8
  %this1 = load ptr, ptr %this.addr, align 8
  %_M_head_impl = getelementptr inbounds %"struct.std::_Head_base.123", ptr %this1, i32 0, i32 0
  store ptr null, ptr %_M_head_impl, align 8
  ret void
}

; Function Attrs: mustprogress nounwind uwtable
define linkonce_odr void @_ZNSt10_Head_baseILm1ESt14default_deleteIN9grpc_core8internal31ClientChannelGlobalParsedConfigEELb1EEC2Ev(ptr noundef nonnull align 1 dereferenceable(1) %this) unnamed_addr #5 comdat align 2 {
entry:
  %this.addr = alloca ptr, align 8
  store ptr %this, ptr %this.addr, align 8
  ret void
}

; Function Attrs: mustprogress uwtable
define linkonce_odr noundef ptr @_ZN9grpc_core19NoDestructSingletonINS_11json_detail10AutoLoaderISt10unique_ptrINS_8internal31ClientChannelGlobalParsedConfigESt14default_deleteIS5_EEEEE3GetEv() #4 comdat align 2 {
entry:
  %call = call noundef nonnull align 8 dereferenceable(8) ptr @_ZN9grpc_core10NoDestructINS_11json_detail10AutoLoaderISt10unique_ptrINS_8internal31ClientChannelGlobalParsedConfigESt14default_deleteIS5_EEEEEdeEv(ptr noundef nonnull align 8 dereferenceable(8) @_ZN9grpc_core19NoDestructSingletonINS_11json_detail10AutoLoaderISt10unique_ptrINS_8internal31ClientChannelGlobalParsedConfigESt14default_deleteIS5_EEEEE6value_E)
  ret ptr %call
}

; Function Attrs: mustprogress uwtable
define linkonce_odr noundef nonnull align 8 dereferenceable(8) ptr @_ZN9grpc_core10NoDestructINS_11json_detail10AutoLoaderISt10unique_ptrINS_8internal31ClientChannelGlobalParsedConfigESt14default_deleteIS5_EEEEEdeEv(ptr noundef nonnull align 8 dereferenceable(8) %this) #4 comdat align 2 {
entry:
  %this.addr = alloca ptr, align 8
  store ptr %this, ptr %this.addr, align 8
  %this1 = load ptr, ptr %this.addr, align 8
  %call = call noundef ptr @_ZN9grpc_core10NoDestructINS_11json_detail10AutoLoaderISt10unique_ptrINS_8internal31ClientChannelGlobalParsedConfigESt14default_deleteIS5_EEEEE3getEv(ptr noundef nonnull align 8 dereferenceable(8) %this1)
  ret ptr %call
}

; Function Attrs: mustprogress nounwind uwtable
define linkonce_odr noundef ptr @_ZN9grpc_core10NoDestructINS_11json_detail10AutoLoaderISt10unique_ptrINS_8internal31ClientChannelGlobalParsedConfigESt14default_deleteIS5_EEEEE3getEv(ptr noundef nonnull align 8 dereferenceable(8) %this) #5 comdat align 2 {
entry:
  %this.addr = alloca ptr, align 8
  store ptr %this, ptr %this.addr, align 8
  %this1 = load ptr, ptr %this.addr, align 8
  %space_ = getelementptr inbounds %"class.grpc_core::NoDestruct.138", ptr %this1, i32 0, i32 0
  ret ptr %space_
}

; Function Attrs: mustprogress nounwind uwtable
define linkonce_odr void @_ZN9grpc_core9ConstructINS_11json_detail10AutoLoaderINS_8internal31ClientChannelGlobalParsedConfigEEEJEEEvPT_DpOT0_(ptr noundef %p) #5 comdat {
entry:
  %p.addr = alloca ptr, align 8
  store ptr %p, ptr %p.addr, align 8
  %0 = load ptr, ptr %p.addr, align 8
  call void @llvm.memset.p0.i64(ptr align 8 %0, i8 0, i64 8, i1 false)
  call void @_ZN9grpc_core11json_detail10AutoLoaderINS_8internal31ClientChannelGlobalParsedConfigEEC2Ev(ptr noundef nonnull align 8 dereferenceable(8) %0) #3
  ret void
}

; Function Attrs: mustprogress nounwind uwtable
define linkonce_odr void @_ZN9grpc_core11json_detail10AutoLoaderINS_8internal31ClientChannelGlobalParsedConfigEEC2Ev(ptr noundef nonnull align 8 dereferenceable(8) %this) unnamed_addr #5 comdat align 2 {
entry:
  %this.addr = alloca ptr, align 8
  store ptr %this, ptr %this.addr, align 8
  %this1 = load ptr, ptr %this.addr, align 8
  call void @_ZN9grpc_core11json_detail15LoaderInterfaceC2Ev(ptr noundef nonnull align 8 dereferenceable(8) %this1) #3
  store ptr getelementptr inbounds ({ [3 x ptr] }, ptr @_ZTVN9grpc_core11json_detail10AutoLoaderINS_8internal31ClientChannelGlobalParsedConfigEEE, i32 0, inrange i32 0, i32 2), ptr %this1, align 8
  ret void
}

; Function Attrs: mustprogress uwtable
define linkonce_odr void @_ZNK9grpc_core11json_detail10AutoLoaderINS_8internal31ClientChannelGlobalParsedConfigEE8LoadIntoERKNS_12experimental4JsonERKNS_8JsonArgsEPvPNS_16ValidationErrorsE(ptr noundef nonnull align 8 dereferenceable(8) %this, ptr noundef nonnull align 8 dereferenceable(56) %json, ptr noundef nonnull align 8 dereferenceable(8) %args, ptr noundef %dst, ptr noundef %errors) unnamed_addr #4 comdat align 2 {
entry:
  %this.addr = alloca ptr, align 8
  %json.addr = alloca ptr, align 8
  %args.addr = alloca ptr, align 8
  %dst.addr = alloca ptr, align 8
  %errors.addr = alloca ptr, align 8
  store ptr %this, ptr %this.addr, align 8
  store ptr %json, ptr %json.addr, align 8
  store ptr %args, ptr %args.addr, align 8
  store ptr %dst, ptr %dst.addr, align 8
  store ptr %errors, ptr %errors.addr, align 8
  %0 = load ptr, ptr %args.addr, align 8
  %call = call noundef ptr @_ZN9grpc_core8internal31ClientChannelGlobalParsedConfig10JsonLoaderERKNS_8JsonArgsE(ptr noundef nonnull align 8 dereferenceable(8) %0)
  %1 = load ptr, ptr %json.addr, align 8
  %2 = load ptr, ptr %args.addr, align 8
  %3 = load ptr, ptr %dst.addr, align 8
  %4 = load ptr, ptr %errors.addr, align 8
  %vtable = load ptr, ptr %call, align 8
  %vfn = getelementptr inbounds ptr, ptr %vtable, i64 0
  %5 = load ptr, ptr %vfn, align 8
  call void %5(ptr noundef nonnull align 8 dereferenceable(8) %call, ptr noundef nonnull align 8 dereferenceable(56) %1, ptr noundef nonnull align 8 dereferenceable(8) %2, ptr noundef %3, ptr noundef %4)
  ret void
}

; Function Attrs: mustprogress nounwind uwtable
define linkonce_odr void @_ZN9grpc_core9ConstructINS_11json_detail10AutoLoaderISt10unique_ptrINS_8internal31ClientChannelGlobalParsedConfigESt14default_deleteIS5_EEEEJEEEvPT_DpOT0_(ptr noundef %p) #5 comdat {
entry:
  %p.addr = alloca ptr, align 8
  store ptr %p, ptr %p.addr, align 8
  %0 = load ptr, ptr %p.addr, align 8
  call void @llvm.memset.p0.i64(ptr align 8 %0, i8 0, i64 8, i1 false)
  call void @_ZN9grpc_core11json_detail10AutoLoaderISt10unique_ptrINS_8internal31ClientChannelGlobalParsedConfigESt14default_deleteIS4_EEEC2Ev(ptr noundef nonnull align 8 dereferenceable(8) %0) #3
  ret void
}

; Function Attrs: mustprogress nounwind uwtable
define linkonce_odr void @_ZN9grpc_core11json_detail10AutoLoaderISt10unique_ptrINS_8internal31ClientChannelGlobalParsedConfigESt14default_deleteIS4_EEEC2Ev(ptr noundef nonnull align 8 dereferenceable(8) %this) unnamed_addr #5 comdat align 2 {
entry:
  %this.addr = alloca ptr, align 8
  store ptr %this, ptr %this.addr, align 8
  %this1 = load ptr, ptr %this.addr, align 8
  call void @_ZN9grpc_core11json_detail11LoadWrappedC2Ev(ptr noundef nonnull align 8 dereferenceable(8) %this1) #3
  store ptr getelementptr inbounds ({ [6 x ptr] }, ptr @_ZTVN9grpc_core11json_detail10AutoLoaderISt10unique_ptrINS_8internal31ClientChannelGlobalParsedConfigESt14default_deleteIS4_EEEE, i32 0, inrange i32 0, i32 2), ptr %this1, align 8
  ret void
}

; Function Attrs: mustprogress uwtable
define linkonce_odr noundef ptr @_ZNK9grpc_core11json_detail10AutoLoaderISt10unique_ptrINS_8internal31ClientChannelGlobalParsedConfigESt14default_deleteIS4_EEE7EmplaceEPv(ptr noundef nonnull align 8 dereferenceable(8) %this, ptr noundef %dst) unnamed_addr #4 comdat align 2 {
entry:
  %this.addr = alloca ptr, align 8
  %dst.addr = alloca ptr, align 8
  %p = alloca ptr, align 8
  %ref.tmp = alloca %"class.std::unique_ptr.116", align 8
  store ptr %this, ptr %this.addr, align 8
  store ptr %dst, ptr %dst.addr, align 8
  %0 = load ptr, ptr %dst.addr, align 8
  store ptr %0, ptr %p, align 8
  call void @_ZSt11make_uniqueIN9grpc_core8internal31ClientChannelGlobalParsedConfigEJEENSt8__detail9_MakeUniqIT_E15__single_objectEDpOT0_(ptr sret(%"class.std::unique_ptr.116") align 8 %ref.tmp)
  %1 = load ptr, ptr %p, align 8
  %call = call noundef nonnull align 8 dereferenceable(8) ptr @_ZNSt10unique_ptrIN9grpc_core8internal31ClientChannelGlobalParsedConfigESt14default_deleteIS2_EEaSEOS5_(ptr noundef nonnull align 8 dereferenceable(8) %1, ptr noundef nonnull align 8 dereferenceable(8) %ref.tmp) #3
  call void @_ZNSt10unique_ptrIN9grpc_core8internal31ClientChannelGlobalParsedConfigESt14default_deleteIS2_EED2Ev(ptr noundef nonnull align 8 dereferenceable(8) %ref.tmp) #3
  %2 = load ptr, ptr %p, align 8
  %call2 = call noundef ptr @_ZNKSt10unique_ptrIN9grpc_core8internal31ClientChannelGlobalParsedConfigESt14default_deleteIS2_EE3getEv(ptr noundef nonnull align 8 dereferenceable(8) %2) #3
  ret ptr %call2
}

; Function Attrs: mustprogress nounwind uwtable
define linkonce_odr void @_ZNK9grpc_core11json_detail10AutoLoaderISt10unique_ptrINS_8internal31ClientChannelGlobalParsedConfigESt14default_deleteIS4_EEE5ResetEPv(ptr noundef nonnull align 8 dereferenceable(8) %this, ptr noundef %dst) unnamed_addr #5 comdat align 2 {
entry:
  %this.addr = alloca ptr, align 8
  %dst.addr = alloca ptr, align 8
  store ptr %this, ptr %this.addr, align 8
  store ptr %dst, ptr %dst.addr, align 8
  %0 = load ptr, ptr %dst.addr, align 8
  call void @_ZNSt10unique_ptrIN9grpc_core8internal31ClientChannelGlobalParsedConfigESt14default_deleteIS2_EE5resetEPS2_(ptr noundef nonnull align 8 dereferenceable(8) %0, ptr noundef null) #3
  ret void
}

; Function Attrs: mustprogress uwtable
define linkonce_odr noundef ptr @_ZNK9grpc_core11json_detail10AutoLoaderISt10unique_ptrINS_8internal31ClientChannelGlobalParsedConfigESt14default_deleteIS4_EEE13ElementLoaderEv(ptr noundef nonnull align 8 dereferenceable(8) %this) unnamed_addr #4 comdat align 2 {
entry:
  %this.addr = alloca ptr, align 8
  store ptr %this, ptr %this.addr, align 8
  %call = call noundef ptr @_ZN9grpc_core11json_detail13LoaderForTypeINS_8internal31ClientChannelGlobalParsedConfigEEEPKNS0_15LoaderInterfaceEv()
  ret ptr %call
}

; Function Attrs: mustprogress uwtable
define linkonce_odr void @_ZSt11make_uniqueIN9grpc_core8internal31ClientChannelGlobalParsedConfigEJEENSt8__detail9_MakeUniqIT_E15__single_objectEDpOT0_(ptr noalias sret(%"class.std::unique_ptr.116") align 8 %agg.result) #4 comdat personality ptr @__gxx_personality_v0 {
entry:
  %result.ptr = alloca ptr, align 8
  %exn.slot = alloca ptr, align 8
  %ehselector.slot = alloca i32, align 4
  store ptr %agg.result, ptr %result.ptr, align 8
  %call = call noalias noundef nonnull ptr @_Znwm(i64 noundef 88) #13
  call void @llvm.memset.p0.i64(ptr align 16 %call, i8 0, i64 88, i1 false)
  invoke void @_ZN9grpc_core8internal31ClientChannelGlobalParsedConfigC2Ev(ptr noundef nonnull align 8 dereferenceable(88) %call)
          to label %invoke.cont unwind label %lpad

invoke.cont:                                      ; preds = %entry
  call void @_ZNSt10unique_ptrIN9grpc_core8internal31ClientChannelGlobalParsedConfigESt14default_deleteIS2_EEC2IS4_vEEPS2_(ptr noundef nonnull align 8 dereferenceable(8) %agg.result, ptr noundef %call) #3
  ret void

lpad:                                             ; preds = %entry
  %0 = landingpad { ptr, i32 }
          cleanup
  %1 = extractvalue { ptr, i32 } %0, 0
  store ptr %1, ptr %exn.slot, align 8
  %2 = extractvalue { ptr, i32 } %0, 1
  store i32 %2, ptr %ehselector.slot, align 4
  call void @_ZdlPv(ptr noundef %call) #14
  br label %eh.resume

eh.resume:                                        ; preds = %lpad
  %exn = load ptr, ptr %exn.slot, align 8
  %sel = load i32, ptr %ehselector.slot, align 4
  %lpad.val = insertvalue { ptr, i32 } poison, ptr %exn, 0
  %lpad.val1 = insertvalue { ptr, i32 } %lpad.val, i32 %sel, 1
  resume { ptr, i32 } %lpad.val1
}

; Function Attrs: mustprogress nounwind uwtable
define linkonce_odr noundef nonnull align 8 dereferenceable(8) ptr @_ZNSt10unique_ptrIN9grpc_core8internal31ClientChannelGlobalParsedConfigESt14default_deleteIS2_EEaSEOS5_(ptr noundef nonnull align 8 dereferenceable(8) %this, ptr noundef nonnull align 8 dereferenceable(8) %0) #5 comdat align 2 {
entry:
  %this.addr = alloca ptr, align 8
  %.addr = alloca ptr, align 8
  store ptr %this, ptr %this.addr, align 8
  store ptr %0, ptr %.addr, align 8
  %this1 = load ptr, ptr %this.addr, align 8
  %_M_t = getelementptr inbounds %"class.std::unique_ptr.116", ptr %this1, i32 0, i32 0
  %1 = load ptr, ptr %.addr, align 8
  %_M_t2 = getelementptr inbounds %"class.std::unique_ptr.116", ptr %1, i32 0, i32 0
  %call = call noundef nonnull align 8 dereferenceable(8) ptr @_ZNSt15__uniq_ptr_dataIN9grpc_core8internal31ClientChannelGlobalParsedConfigESt14default_deleteIS2_ELb1ELb1EEaSEOS5_(ptr noundef nonnull align 8 dereferenceable(8) %_M_t, ptr noundef nonnull align 8 dereferenceable(8) %_M_t2) #3
  ret ptr %this1
}

; Function Attrs: mustprogress nounwind uwtable
define linkonce_odr noundef ptr @_ZNKSt10unique_ptrIN9grpc_core8internal31ClientChannelGlobalParsedConfigESt14default_deleteIS2_EE3getEv(ptr noundef nonnull align 8 dereferenceable(8) %this) #5 comdat align 2 {
entry:
  %this.addr = alloca ptr, align 8
  store ptr %this, ptr %this.addr, align 8
  %this1 = load ptr, ptr %this.addr, align 8
  %_M_t = getelementptr inbounds %"class.std::unique_ptr.116", ptr %this1, i32 0, i32 0
  %call = call noundef ptr @_ZNKSt15__uniq_ptr_implIN9grpc_core8internal31ClientChannelGlobalParsedConfigESt14default_deleteIS2_EE6_M_ptrEv(ptr noundef nonnull align 8 dereferenceable(8) %_M_t) #3
  ret ptr %call
}

; Function Attrs: mustprogress uwtable
define linkonce_odr void @_ZN9grpc_core8internal31ClientChannelGlobalParsedConfigC2Ev(ptr noundef nonnull align 8 dereferenceable(88) %this) unnamed_addr #4 comdat align 2 personality ptr @__gxx_personality_v0 {
entry:
  %this.addr = alloca ptr, align 8
  %exn.slot = alloca ptr, align 8
  %ehselector.slot = alloca i32, align 4
  store ptr %this, ptr %this.addr, align 8
  %this1 = load ptr, ptr %this.addr, align 8
  call void @_ZN9grpc_core19ServiceConfigParser12ParsedConfigC2Ev(ptr noundef nonnull align 8 dereferenceable(8) %this1) #3
  store ptr getelementptr inbounds ({ [4 x ptr] }, ptr @_ZTVN9grpc_core8internal31ClientChannelGlobalParsedConfigE, i32 0, inrange i32 0, i32 2), ptr %this1, align 8
  %parsed_lb_config_ = getelementptr inbounds %"class.grpc_core::internal::ClientChannelGlobalParsedConfig", ptr %this1, i32 0, i32 1
  invoke void @_ZN9grpc_core13RefCountedPtrINS_19LoadBalancingPolicy6ConfigEEC2Ev(ptr noundef nonnull align 8 dereferenceable(8) %parsed_lb_config_)
          to label %invoke.cont unwind label %lpad

invoke.cont:                                      ; preds = %entry
  %parsed_deprecated_lb_policy_ = getelementptr inbounds %"class.grpc_core::internal::ClientChannelGlobalParsedConfig", ptr %this1, i32 0, i32 2
  call void @_ZNSt7__cxx1112basic_stringIcSt11char_traitsIcESaIcEEC1Ev(ptr noundef nonnull align 8 dereferenceable(32) %parsed_deprecated_lb_policy_) #3
  %health_check_config_ = getelementptr inbounds %"class.grpc_core::internal::ClientChannelGlobalParsedConfig", ptr %this1, i32 0, i32 3
  call void @_ZN9grpc_core8internal31ClientChannelGlobalParsedConfig17HealthCheckConfigC2Ev(ptr noundef nonnull align 8 dereferenceable(40) %health_check_config_) #3
  ret void

lpad:                                             ; preds = %entry
  %0 = landingpad { ptr, i32 }
          cleanup
  %1 = extractvalue { ptr, i32 } %0, 0
  store ptr %1, ptr %exn.slot, align 8
  %2 = extractvalue { ptr, i32 } %0, 1
  store i32 %2, ptr %ehselector.slot, align 4
  call void @_ZN9grpc_core19ServiceConfigParser12ParsedConfigD2Ev(ptr noundef nonnull align 8 dereferenceable(8) %this1) #3
  br label %eh.resume

eh.resume:                                        ; preds = %lpad
  %exn = load ptr, ptr %exn.slot, align 8
  %sel = load i32, ptr %ehselector.slot, align 4
  %lpad.val = insertvalue { ptr, i32 } poison, ptr %exn, 0
  %lpad.val2 = insertvalue { ptr, i32 } %lpad.val, i32 %sel, 1
  resume { ptr, i32 } %lpad.val2
}

; Function Attrs: mustprogress nounwind uwtable
define linkonce_odr void @_ZNSt10unique_ptrIN9grpc_core8internal31ClientChannelGlobalParsedConfigESt14default_deleteIS2_EEC2IS4_vEEPS2_(ptr noundef nonnull align 8 dereferenceable(8) %this, ptr noundef %__p) unnamed_addr #5 comdat align 2 personality ptr @__gxx_personality_v0 {
entry:
  %this.addr = alloca ptr, align 8
  %__p.addr = alloca ptr, align 8
  store ptr %this, ptr %this.addr, align 8
  store ptr %__p, ptr %__p.addr, align 8
  %this1 = load ptr, ptr %this.addr, align 8
  %_M_t = getelementptr inbounds %"class.std::unique_ptr.116", ptr %this1, i32 0, i32 0
  %0 = load ptr, ptr %__p.addr, align 8
  invoke void @_ZNSt15__uniq_ptr_dataIN9grpc_core8internal31ClientChannelGlobalParsedConfigESt14default_deleteIS2_ELb1ELb1EECI2St15__uniq_ptr_implIS2_S4_EEPS2_(ptr noundef nonnull align 8 dereferenceable(8) %_M_t, ptr noundef %0)
          to label %invoke.cont unwind label %terminate.lpad

invoke.cont:                                      ; preds = %entry
  ret void

terminate.lpad:                                   ; preds = %entry
  %1 = landingpad { ptr, i32 }
          catch ptr null
  %2 = extractvalue { ptr, i32 } %1, 0
  call void @__clang_call_terminate(ptr %2) #15
  unreachable
}

; Function Attrs: mustprogress nounwind uwtable
define linkonce_odr void @_ZN9grpc_core19ServiceConfigParser12ParsedConfigC2Ev(ptr noundef nonnull align 8 dereferenceable(8) %this) unnamed_addr #5 comdat align 2 {
entry:
  %this.addr = alloca ptr, align 8
  store ptr %this, ptr %this.addr, align 8
  %this1 = load ptr, ptr %this.addr, align 8
  store ptr getelementptr inbounds ({ [4 x ptr] }, ptr @_ZTVN9grpc_core19ServiceConfigParser12ParsedConfigE, i32 0, inrange i32 0, i32 2), ptr %this1, align 8
  ret void
}

; Function Attrs: mustprogress nounwind uwtable
define linkonce_odr void @_ZN9grpc_core13RefCountedPtrINS_19LoadBalancingPolicy6ConfigEEC2Ev(ptr noundef nonnull align 8 dereferenceable(8) %this) unnamed_addr #5 comdat align 2 {
entry:
  %this.addr = alloca ptr, align 8
  store ptr %this, ptr %this.addr, align 8
  %this1 = load ptr, ptr %this.addr, align 8
  %value_ = getelementptr inbounds %"class.grpc_core::RefCountedPtr", ptr %this1, i32 0, i32 0
  store ptr null, ptr %value_, align 8
  ret void
}

; Function Attrs: mustprogress nounwind uwtable
define linkonce_odr void @_ZN9grpc_core8internal31ClientChannelGlobalParsedConfig17HealthCheckConfigC2Ev(ptr noundef nonnull align 8 dereferenceable(40) %this) unnamed_addr #5 comdat align 2 {
entry:
  %this.addr = alloca ptr, align 8
  store ptr %this, ptr %this.addr, align 8
  %this1 = load ptr, ptr %this.addr, align 8
  %service_name = getelementptr inbounds %"struct.grpc_core::internal::ClientChannelGlobalParsedConfig::HealthCheckConfig", ptr %this1, i32 0, i32 0
  call void @_ZNSt8optionalINSt7__cxx1112basic_stringIcSt11char_traitsIcESaIcEEEEC2Ev(ptr noundef nonnull align 8 dereferenceable(40) %service_name) #3
  ret void
}

; Function Attrs: mustprogress nounwind uwtable
define linkonce_odr void @_ZN9grpc_core8internal31ClientChannelGlobalParsedConfigD2Ev(ptr noundef nonnull align 8 dereferenceable(88) %this) unnamed_addr #5 comdat align 2 {
entry:
  %this.addr = alloca ptr, align 8
  store ptr %this, ptr %this.addr, align 8
  %this1 = load ptr, ptr %this.addr, align 8
  store ptr getelementptr inbounds ({ [4 x ptr] }, ptr @_ZTVN9grpc_core8internal31ClientChannelGlobalParsedConfigE, i32 0, inrange i32 0, i32 2), ptr %this1, align 8
  %health_check_config_ = getelementptr inbounds %"class.grpc_core::internal::ClientChannelGlobalParsedConfig", ptr %this1, i32 0, i32 3
  call void @_ZN9grpc_core8internal31ClientChannelGlobalParsedConfig17HealthCheckConfigD2Ev(ptr noundef nonnull align 8 dereferenceable(40) %health_check_config_) #3
  %parsed_deprecated_lb_policy_ = getelementptr inbounds %"class.grpc_core::internal::ClientChannelGlobalParsedConfig", ptr %this1, i32 0, i32 2
  call void @_ZNSt7__cxx1112basic_stringIcSt11char_traitsIcESaIcEED1Ev(ptr noundef nonnull align 8 dereferenceable(32) %parsed_deprecated_lb_policy_) #3
  %parsed_lb_config_ = getelementptr inbounds %"class.grpc_core::internal::ClientChannelGlobalParsedConfig", ptr %this1, i32 0, i32 1
  call void @_ZN9grpc_core13RefCountedPtrINS_19LoadBalancingPolicy6ConfigEED2Ev(ptr noundef nonnull align 8 dereferenceable(8) %parsed_lb_config_) #3
  call void @_ZN9grpc_core19ServiceConfigParser12ParsedConfigD2Ev(ptr noundef nonnull align 8 dereferenceable(8) %this1) #3
  ret void
}

; Function Attrs: mustprogress nounwind uwtable
define linkonce_odr void @_ZN9grpc_core8internal31ClientChannelGlobalParsedConfigD0Ev(ptr noundef nonnull align 8 dereferenceable(88) %this) unnamed_addr #5 comdat align 2 {
entry:
  %this.addr = alloca ptr, align 8
  store ptr %this, ptr %this.addr, align 8
  %this1 = load ptr, ptr %this.addr, align 8
  call void @_ZN9grpc_core8internal31ClientChannelGlobalParsedConfigD2Ev(ptr noundef nonnull align 8 dereferenceable(88) %this1) #3
  call void @_ZdlPv(ptr noundef %this1) #14
  ret void
}

; Function Attrs: mustprogress nounwind uwtable
define linkonce_odr void @_ZN9grpc_core19ServiceConfigParser12ParsedConfigD2Ev(ptr noundef nonnull align 8 dereferenceable(8) %this) unnamed_addr #5 comdat align 2 {
entry:
  %this.addr = alloca ptr, align 8
  store ptr %this, ptr %this.addr, align 8
  ret void
}

; Function Attrs: mustprogress nounwind uwtable
define linkonce_odr void @_ZN9grpc_core19ServiceConfigParser12ParsedConfigD0Ev(ptr noundef nonnull align 8 dereferenceable(8) %this) unnamed_addr #5 comdat align 2 {
entry:
  %this.addr = alloca ptr, align 8
  store ptr %this, ptr %this.addr, align 8
  %this1 = load ptr, ptr %this.addr, align 8
  call void @_ZN9grpc_core19ServiceConfigParser12ParsedConfigD2Ev(ptr noundef nonnull align 8 dereferenceable(8) %this1) #3
  call void @_ZdlPv(ptr noundef %this1) #14
  ret void
}

; Function Attrs: mustprogress nounwind uwtable
define linkonce_odr void @_ZNSt8optionalINSt7__cxx1112basic_stringIcSt11char_traitsIcESaIcEEEEC2Ev(ptr noundef nonnull align 8 dereferenceable(40) %this) unnamed_addr #5 comdat align 2 {
entry:
  %this.addr = alloca ptr, align 8
  store ptr %this, ptr %this.addr, align 8
  %this1 = load ptr, ptr %this.addr, align 8
  call void @_ZNSt14_Optional_baseINSt7__cxx1112basic_stringIcSt11char_traitsIcESaIcEEELb0ELb0EEC2Ev(ptr noundef nonnull align 8 dereferenceable(40) %this1) #3
  ret void
}

; Function Attrs: mustprogress nounwind uwtable
define linkonce_odr void @_ZNSt14_Optional_baseINSt7__cxx1112basic_stringIcSt11char_traitsIcESaIcEEELb0ELb0EEC2Ev(ptr noundef nonnull align 8 dereferenceable(40) %this) unnamed_addr #5 comdat align 2 {
entry:
  %this.addr = alloca ptr, align 8
  store ptr %this, ptr %this.addr, align 8
  %this1 = load ptr, ptr %this.addr, align 8
  %_M_payload = getelementptr inbounds %"struct.std::_Optional_base", ptr %this1, i32 0, i32 0
  call void @_ZNSt17_Optional_payloadINSt7__cxx1112basic_stringIcSt11char_traitsIcESaIcEEELb0ELb0ELb0EEC2Ev(ptr noundef nonnull align 8 dereferenceable(33) %_M_payload) #3
  ret void
}

; Function Attrs: mustprogress nounwind uwtable
define linkonce_odr void @_ZNSt17_Optional_payloadINSt7__cxx1112basic_stringIcSt11char_traitsIcESaIcEEELb0ELb0ELb0EEC2Ev(ptr noundef nonnull align 8 dereferenceable(33) %this) unnamed_addr #5 comdat align 2 {
entry:
  %this.addr = alloca ptr, align 8
  store ptr %this, ptr %this.addr, align 8
  %this1 = load ptr, ptr %this.addr, align 8
  call void @_ZNSt17_Optional_payloadINSt7__cxx1112basic_stringIcSt11char_traitsIcESaIcEEELb1ELb0ELb0EEC2Ev(ptr noundef nonnull align 8 dereferenceable(33) %this1) #3
  ret void
}

; Function Attrs: mustprogress nounwind uwtable
define linkonce_odr void @_ZNSt17_Optional_payloadINSt7__cxx1112basic_stringIcSt11char_traitsIcESaIcEEELb1ELb0ELb0EEC2Ev(ptr noundef nonnull align 8 dereferenceable(33) %this) unnamed_addr #5 comdat align 2 {
entry:
  %this.addr = alloca ptr, align 8
  store ptr %this, ptr %this.addr, align 8
  %this1 = load ptr, ptr %this.addr, align 8
  call void @_ZNSt22_Optional_payload_baseINSt7__cxx1112basic_stringIcSt11char_traitsIcESaIcEEEEC2Ev(ptr noundef nonnull align 8 dereferenceable(33) %this1) #3
  ret void
}

; Function Attrs: mustprogress nounwind uwtable
define linkonce_odr void @_ZNSt22_Optional_payload_baseINSt7__cxx1112basic_stringIcSt11char_traitsIcESaIcEEEEC2Ev(ptr noundef nonnull align 8 dereferenceable(33) %this) unnamed_addr #5 comdat align 2 {
entry:
  %this.addr = alloca ptr, align 8
  store ptr %this, ptr %this.addr, align 8
  %this1 = load ptr, ptr %this.addr, align 8
  %_M_payload = getelementptr inbounds %"struct.std::_Optional_payload_base", ptr %this1, i32 0, i32 0
  call void @_ZNSt22_Optional_payload_baseINSt7__cxx1112basic_stringIcSt11char_traitsIcESaIcEEEE8_StorageIS5_Lb0EEC2Ev(ptr noundef nonnull align 8 dereferenceable(32) %_M_payload) #3
  %_M_engaged = getelementptr inbounds %"struct.std::_Optional_payload_base", ptr %this1, i32 0, i32 1
  store i8 0, ptr %_M_engaged, align 8
  ret void
}

; Function Attrs: mustprogress nounwind uwtable
define linkonce_odr void @_ZNSt22_Optional_payload_baseINSt7__cxx1112basic_stringIcSt11char_traitsIcESaIcEEEE8_StorageIS5_Lb0EEC2Ev(ptr noundef nonnull align 8 dereferenceable(32) %this) unnamed_addr #5 comdat align 2 {
entry:
  %this.addr = alloca ptr, align 8
  store ptr %this, ptr %this.addr, align 8
  ret void
}

; Function Attrs: mustprogress nounwind uwtable
define linkonce_odr void @_ZN9grpc_core8internal31ClientChannelGlobalParsedConfig17HealthCheckConfigD2Ev(ptr noundef nonnull align 8 dereferenceable(40) %this) unnamed_addr #5 comdat align 2 {
entry:
  %this.addr = alloca ptr, align 8
  store ptr %this, ptr %this.addr, align 8
  %this1 = load ptr, ptr %this.addr, align 8
  %service_name = getelementptr inbounds %"struct.grpc_core::internal::ClientChannelGlobalParsedConfig::HealthCheckConfig", ptr %this1, i32 0, i32 0
  call void @_ZNSt8optionalINSt7__cxx1112basic_stringIcSt11char_traitsIcESaIcEEEED2Ev(ptr noundef nonnull align 8 dereferenceable(40) %service_name) #3
  ret void
}

; Function Attrs: mustprogress nounwind uwtable
define linkonce_odr void @_ZNSt8optionalINSt7__cxx1112basic_stringIcSt11char_traitsIcESaIcEEEED2Ev(ptr noundef nonnull align 8 dereferenceable(40) %this) unnamed_addr #5 comdat align 2 {
entry:
  %this.addr = alloca ptr, align 8
  store ptr %this, ptr %this.addr, align 8
  %this1 = load ptr, ptr %this.addr, align 8
  call void @_ZNSt14_Optional_baseINSt7__cxx1112basic_stringIcSt11char_traitsIcESaIcEEELb0ELb0EED2Ev(ptr noundef nonnull align 8 dereferenceable(40) %this1) #3
  ret void
}

; Function Attrs: mustprogress nounwind uwtable
define linkonce_odr void @_ZNSt14_Optional_baseINSt7__cxx1112basic_stringIcSt11char_traitsIcESaIcEEELb0ELb0EED2Ev(ptr noundef nonnull align 8 dereferenceable(40) %this) unnamed_addr #5 comdat align 2 {
entry:
  %this.addr = alloca ptr, align 8
  store ptr %this, ptr %this.addr, align 8
  %this1 = load ptr, ptr %this.addr, align 8
  %_M_payload = getelementptr inbounds %"struct.std::_Optional_base", ptr %this1, i32 0, i32 0
  call void @_ZNSt17_Optional_payloadINSt7__cxx1112basic_stringIcSt11char_traitsIcESaIcEEELb0ELb0ELb0EED2Ev(ptr noundef nonnull align 8 dereferenceable(33) %_M_payload) #3
  ret void
}

; Function Attrs: mustprogress nounwind uwtable
define linkonce_odr void @_ZNSt17_Optional_payloadINSt7__cxx1112basic_stringIcSt11char_traitsIcESaIcEEELb0ELb0ELb0EED2Ev(ptr noundef nonnull align 8 dereferenceable(33) %this) unnamed_addr #5 comdat align 2 {
entry:
  %this.addr = alloca ptr, align 8
  store ptr %this, ptr %this.addr, align 8
  %this1 = load ptr, ptr %this.addr, align 8
  call void @_ZNSt22_Optional_payload_baseINSt7__cxx1112basic_stringIcSt11char_traitsIcESaIcEEEE8_M_resetEv(ptr noundef nonnull align 8 dereferenceable(33) %this1) #3
  call void @_ZNSt17_Optional_payloadINSt7__cxx1112basic_stringIcSt11char_traitsIcESaIcEEELb1ELb0ELb0EED2Ev(ptr noundef nonnull align 8 dereferenceable(33) %this1) #3
  ret void
}

; Function Attrs: mustprogress nounwind uwtable
define linkonce_odr void @_ZNSt17_Optional_payloadINSt7__cxx1112basic_stringIcSt11char_traitsIcESaIcEEELb1ELb0ELb0EED2Ev(ptr noundef nonnull align 8 dereferenceable(33) %this) unnamed_addr #5 comdat align 2 {
entry:
  %this.addr = alloca ptr, align 8
  store ptr %this, ptr %this.addr, align 8
  %this1 = load ptr, ptr %this.addr, align 8
  call void @_ZNSt22_Optional_payload_baseINSt7__cxx1112basic_stringIcSt11char_traitsIcESaIcEEEED2Ev(ptr noundef nonnull align 8 dereferenceable(33) %this1) #3
  ret void
}

; Function Attrs: mustprogress nounwind uwtable
define linkonce_odr void @_ZNSt22_Optional_payload_baseINSt7__cxx1112basic_stringIcSt11char_traitsIcESaIcEEEED2Ev(ptr noundef nonnull align 8 dereferenceable(33) %this) unnamed_addr #5 comdat align 2 {
entry:
  %this.addr = alloca ptr, align 8
  store ptr %this, ptr %this.addr, align 8
  %this1 = load ptr, ptr %this.addr, align 8
  %_M_payload = getelementptr inbounds %"struct.std::_Optional_payload_base", ptr %this1, i32 0, i32 0
  call void @_ZNSt22_Optional_payload_baseINSt7__cxx1112basic_stringIcSt11char_traitsIcESaIcEEEE8_StorageIS5_Lb0EED2Ev(ptr noundef nonnull align 8 dereferenceable(32) %_M_payload) #3
  ret void
}

; Function Attrs: mustprogress nounwind uwtable
define linkonce_odr void @_ZNSt22_Optional_payload_baseINSt7__cxx1112basic_stringIcSt11char_traitsIcESaIcEEEE8_StorageIS5_Lb0EED2Ev(ptr noundef nonnull align 8 dereferenceable(32) %this) unnamed_addr #5 comdat align 2 {
entry:
  %this.addr = alloca ptr, align 8
  store ptr %this, ptr %this.addr, align 8
  ret void
}

; Function Attrs: mustprogress uwtable
define linkonce_odr void @_ZNSt15__uniq_ptr_dataIN9grpc_core8internal31ClientChannelGlobalParsedConfigESt14default_deleteIS2_ELb1ELb1EECI2St15__uniq_ptr_implIS2_S4_EEPS2_(ptr noundef nonnull align 8 dereferenceable(8) %this, ptr noundef %0) unnamed_addr #4 comdat align 2 {
entry:
  %this.addr = alloca ptr, align 8
  %.addr = alloca ptr, align 8
  store ptr %this, ptr %this.addr, align 8
  store ptr %0, ptr %.addr, align 8
  %this1 = load ptr, ptr %this.addr, align 8
  %1 = load ptr, ptr %.addr, align 8
  call void @_ZNSt15__uniq_ptr_implIN9grpc_core8internal31ClientChannelGlobalParsedConfigESt14default_deleteIS2_EEC2EPS2_(ptr noundef nonnull align 8 dereferenceable(8) %this1, ptr noundef %1)
  ret void
}

; Function Attrs: mustprogress nounwind uwtable
define linkonce_odr void @_ZNSt15__uniq_ptr_implIN9grpc_core8internal31ClientChannelGlobalParsedConfigESt14default_deleteIS2_EEC2EPS2_(ptr noundef nonnull align 8 dereferenceable(8) %this, ptr noundef %__p) unnamed_addr #5 comdat align 2 {
entry:
  %this.addr = alloca ptr, align 8
  %__p.addr = alloca ptr, align 8
  store ptr %this, ptr %this.addr, align 8
  store ptr %__p, ptr %__p.addr, align 8
  %this1 = load ptr, ptr %this.addr, align 8
  %_M_t = getelementptr inbounds %"class.std::__uniq_ptr_impl.118", ptr %this1, i32 0, i32 0
  call void @_ZNSt5tupleIJPN9grpc_core8internal31ClientChannelGlobalParsedConfigESt14default_deleteIS2_EEEC2ILb1ETnNSt9enable_ifIXclsr17_TupleConstraintsIXT_ES3_S5_EE37__is_implicitly_default_constructibleEEbE4typeELb1EEEv(ptr noundef nonnull align 8 dereferenceable(8) %_M_t) #3
  %0 = load ptr, ptr %__p.addr, align 8
  %call = call noundef nonnull align 8 dereferenceable(8) ptr @_ZNSt15__uniq_ptr_implIN9grpc_core8internal31ClientChannelGlobalParsedConfigESt14default_deleteIS2_EE6_M_ptrEv(ptr noundef nonnull align 8 dereferenceable(8) %this1) #3
  store ptr %0, ptr %call, align 8
  ret void
}

; Function Attrs: mustprogress nounwind uwtable
define linkonce_odr noundef nonnull align 8 dereferenceable(8) ptr @_ZNSt15__uniq_ptr_implIN9grpc_core8internal31ClientChannelGlobalParsedConfigESt14default_deleteIS2_EE6_M_ptrEv(ptr noundef nonnull align 8 dereferenceable(8) %this) #5 comdat align 2 {
entry:
  %this.addr = alloca ptr, align 8
  store ptr %this, ptr %this.addr, align 8
  %this1 = load ptr, ptr %this.addr, align 8
  %_M_t = getelementptr inbounds %"class.std::__uniq_ptr_impl.118", ptr %this1, i32 0, i32 0
  %call = call noundef nonnull align 8 dereferenceable(8) ptr @_ZSt3getILm0EJPN9grpc_core8internal31ClientChannelGlobalParsedConfigESt14default_deleteIS2_EEERNSt13tuple_elementIXT_ESt5tupleIJDpT0_EEE4typeERSA_(ptr noundef nonnull align 8 dereferenceable(8) %_M_t) #3
  ret ptr %call
}

; Function Attrs: mustprogress nounwind uwtable
define linkonce_odr noundef nonnull align 8 dereferenceable(8) ptr @_ZSt3getILm0EJPN9grpc_core8internal31ClientChannelGlobalParsedConfigESt14default_deleteIS2_EEERNSt13tuple_elementIXT_ESt5tupleIJDpT0_EEE4typeERSA_(ptr noundef nonnull align 8 dereferenceable(8) %__t) #5 comdat {
entry:
  %__t.addr = alloca ptr, align 8
  store ptr %__t, ptr %__t.addr, align 8
  %0 = load ptr, ptr %__t.addr, align 8
  %call = call noundef nonnull align 8 dereferenceable(8) ptr @_ZSt12__get_helperILm0EPN9grpc_core8internal31ClientChannelGlobalParsedConfigEJSt14default_deleteIS2_EEERT0_RSt11_Tuple_implIXT_EJS6_DpT1_EE(ptr noundef nonnull align 8 dereferenceable(8) %0) #3
  ret ptr %call
}

; Function Attrs: mustprogress nounwind uwtable
define linkonce_odr noundef nonnull align 8 dereferenceable(8) ptr @_ZSt12__get_helperILm0EPN9grpc_core8internal31ClientChannelGlobalParsedConfigEJSt14default_deleteIS2_EEERT0_RSt11_Tuple_implIXT_EJS6_DpT1_EE(ptr noundef nonnull align 8 dereferenceable(8) %__t) #5 comdat {
entry:
  %__t.addr = alloca ptr, align 8
  store ptr %__t, ptr %__t.addr, align 8
  %0 = load ptr, ptr %__t.addr, align 8
  %call = call noundef nonnull align 8 dereferenceable(8) ptr @_ZNSt11_Tuple_implILm0EJPN9grpc_core8internal31ClientChannelGlobalParsedConfigESt14default_deleteIS2_EEE7_M_headERS6_(ptr noundef nonnull align 8 dereferenceable(8) %0) #3
  ret ptr %call
}

; Function Attrs: mustprogress nounwind uwtable
define linkonce_odr noundef nonnull align 8 dereferenceable(8) ptr @_ZNSt11_Tuple_implILm0EJPN9grpc_core8internal31ClientChannelGlobalParsedConfigESt14default_deleteIS2_EEE7_M_headERS6_(ptr noundef nonnull align 8 dereferenceable(8) %__t) #5 comdat align 2 {
entry:
  %__t.addr = alloca ptr, align 8
  store ptr %__t, ptr %__t.addr, align 8
  %0 = load ptr, ptr %__t.addr, align 8
  %call = call noundef nonnull align 8 dereferenceable(8) ptr @_ZNSt10_Head_baseILm0EPN9grpc_core8internal31ClientChannelGlobalParsedConfigELb0EE7_M_headERS4_(ptr noundef nonnull align 8 dereferenceable(8) %0) #3
  ret ptr %call
}

; Function Attrs: mustprogress nounwind uwtable
define linkonce_odr noundef nonnull align 8 dereferenceable(8) ptr @_ZNSt10_Head_baseILm0EPN9grpc_core8internal31ClientChannelGlobalParsedConfigELb0EE7_M_headERS4_(ptr noundef nonnull align 8 dereferenceable(8) %__b) #5 comdat align 2 {
entry:
  %__b.addr = alloca ptr, align 8
  store ptr %__b, ptr %__b.addr, align 8
  %0 = load ptr, ptr %__b.addr, align 8
  %_M_head_impl = getelementptr inbounds %"struct.std::_Head_base.123", ptr %0, i32 0, i32 0
  ret ptr %_M_head_impl
}

; Function Attrs: mustprogress nounwind uwtable
define linkonce_odr noundef nonnull align 8 dereferenceable(8) ptr @_ZNSt15__uniq_ptr_dataIN9grpc_core8internal31ClientChannelGlobalParsedConfigESt14default_deleteIS2_ELb1ELb1EEaSEOS5_(ptr noundef nonnull align 8 dereferenceable(8) %this, ptr noundef nonnull align 8 dereferenceable(8) %0) #5 comdat align 2 {
entry:
  %this.addr = alloca ptr, align 8
  %.addr = alloca ptr, align 8
  store ptr %this, ptr %this.addr, align 8
  store ptr %0, ptr %.addr, align 8
  %this1 = load ptr, ptr %this.addr, align 8
  %1 = load ptr, ptr %.addr, align 8
  %call = call noundef nonnull align 8 dereferenceable(8) ptr @_ZNSt15__uniq_ptr_implIN9grpc_core8internal31ClientChannelGlobalParsedConfigESt14default_deleteIS2_EEaSEOS5_(ptr noundef nonnull align 8 dereferenceable(8) %this1, ptr noundef nonnull align 8 dereferenceable(8) %1) #3
  ret ptr %this1
}

; Function Attrs: mustprogress nounwind uwtable
define linkonce_odr noundef nonnull align 8 dereferenceable(8) ptr @_ZNSt15__uniq_ptr_implIN9grpc_core8internal31ClientChannelGlobalParsedConfigESt14default_deleteIS2_EEaSEOS5_(ptr noundef nonnull align 8 dereferenceable(8) %this, ptr noundef nonnull align 8 dereferenceable(8) %__u) #5 comdat align 2 {
entry:
  %this.addr = alloca ptr, align 8
  %__u.addr = alloca ptr, align 8
  store ptr %this, ptr %this.addr, align 8
  store ptr %__u, ptr %__u.addr, align 8
  %this1 = load ptr, ptr %this.addr, align 8
  %0 = load ptr, ptr %__u.addr, align 8
  %call = call noundef ptr @_ZNSt15__uniq_ptr_implIN9grpc_core8internal31ClientChannelGlobalParsedConfigESt14default_deleteIS2_EE7releaseEv(ptr noundef nonnull align 8 dereferenceable(8) %0) #3
  call void @_ZNSt15__uniq_ptr_implIN9grpc_core8internal31ClientChannelGlobalParsedConfigESt14default_deleteIS2_EE5resetEPS2_(ptr noundef nonnull align 8 dereferenceable(8) %this1, ptr noundef %call) #3
  %1 = load ptr, ptr %__u.addr, align 8
  %call2 = call noundef nonnull align 1 dereferenceable(1) ptr @_ZNSt15__uniq_ptr_implIN9grpc_core8internal31ClientChannelGlobalParsedConfigESt14default_deleteIS2_EE10_M_deleterEv(ptr noundef nonnull align 8 dereferenceable(8) %1) #3
  %call3 = call noundef nonnull align 1 dereferenceable(1) ptr @_ZNSt15__uniq_ptr_implIN9grpc_core8internal31ClientChannelGlobalParsedConfigESt14default_deleteIS2_EE10_M_deleterEv(ptr noundef nonnull align 8 dereferenceable(8) %this1) #3
  ret ptr %this1
}

; Function Attrs: mustprogress nounwind uwtable
define linkonce_odr void @_ZNSt15__uniq_ptr_implIN9grpc_core8internal31ClientChannelGlobalParsedConfigESt14default_deleteIS2_EE5resetEPS2_(ptr noundef nonnull align 8 dereferenceable(8) %this, ptr noundef %__p) #5 comdat align 2 personality ptr @__gxx_personality_v0 {
entry:
  %this.addr = alloca ptr, align 8
  %__p.addr = alloca ptr, align 8
  %__old_p = alloca ptr, align 8
  store ptr %this, ptr %this.addr, align 8
  store ptr %__p, ptr %__p.addr, align 8
  %this1 = load ptr, ptr %this.addr, align 8
  %call = call noundef nonnull align 8 dereferenceable(8) ptr @_ZNSt15__uniq_ptr_implIN9grpc_core8internal31ClientChannelGlobalParsedConfigESt14default_deleteIS2_EE6_M_ptrEv(ptr noundef nonnull align 8 dereferenceable(8) %this1) #3
  %0 = load ptr, ptr %call, align 8
  store ptr %0, ptr %__old_p, align 8
  %1 = load ptr, ptr %__p.addr, align 8
  %call2 = call noundef nonnull align 8 dereferenceable(8) ptr @_ZNSt15__uniq_ptr_implIN9grpc_core8internal31ClientChannelGlobalParsedConfigESt14default_deleteIS2_EE6_M_ptrEv(ptr noundef nonnull align 8 dereferenceable(8) %this1) #3
  store ptr %1, ptr %call2, align 8
  %2 = load ptr, ptr %__old_p, align 8
  %tobool = icmp ne ptr %2, null
  br i1 %tobool, label %if.then, label %if.end

if.then:                                          ; preds = %entry
  %call3 = call noundef nonnull align 1 dereferenceable(1) ptr @_ZNSt15__uniq_ptr_implIN9grpc_core8internal31ClientChannelGlobalParsedConfigESt14default_deleteIS2_EE10_M_deleterEv(ptr noundef nonnull align 8 dereferenceable(8) %this1) #3
  %3 = load ptr, ptr %__old_p, align 8
  invoke void @_ZNKSt14default_deleteIN9grpc_core8internal31ClientChannelGlobalParsedConfigEEclEPS2_(ptr noundef nonnull align 1 dereferenceable(1) %call3, ptr noundef %3)
          to label %invoke.cont unwind label %terminate.lpad

invoke.cont:                                      ; preds = %if.then
  br label %if.end

if.end:                                           ; preds = %invoke.cont, %entry
  ret void

terminate.lpad:                                   ; preds = %if.then
  %4 = landingpad { ptr, i32 }
          catch ptr null
  %5 = extractvalue { ptr, i32 } %4, 0
  call void @__clang_call_terminate(ptr %5) #15
  unreachable
}

; Function Attrs: mustprogress nounwind uwtable
define linkonce_odr noundef ptr @_ZNSt15__uniq_ptr_implIN9grpc_core8internal31ClientChannelGlobalParsedConfigESt14default_deleteIS2_EE7releaseEv(ptr noundef nonnull align 8 dereferenceable(8) %this) #5 comdat align 2 {
entry:
  %this.addr = alloca ptr, align 8
  %__p = alloca ptr, align 8
  store ptr %this, ptr %this.addr, align 8
  %this1 = load ptr, ptr %this.addr, align 8
  %call = call noundef nonnull align 8 dereferenceable(8) ptr @_ZNSt15__uniq_ptr_implIN9grpc_core8internal31ClientChannelGlobalParsedConfigESt14default_deleteIS2_EE6_M_ptrEv(ptr noundef nonnull align 8 dereferenceable(8) %this1) #3
  %0 = load ptr, ptr %call, align 8
  store ptr %0, ptr %__p, align 8
  %call2 = call noundef nonnull align 8 dereferenceable(8) ptr @_ZNSt15__uniq_ptr_implIN9grpc_core8internal31ClientChannelGlobalParsedConfigESt14default_deleteIS2_EE6_M_ptrEv(ptr noundef nonnull align 8 dereferenceable(8) %this1) #3
  store ptr null, ptr %call2, align 8
  %1 = load ptr, ptr %__p, align 8
  ret ptr %1
}

; Function Attrs: mustprogress nounwind uwtable
define linkonce_odr noundef nonnull align 1 dereferenceable(1) ptr @_ZNSt15__uniq_ptr_implIN9grpc_core8internal31ClientChannelGlobalParsedConfigESt14default_deleteIS2_EE10_M_deleterEv(ptr noundef nonnull align 8 dereferenceable(8) %this) #5 comdat align 2 {
entry:
  %this.addr = alloca ptr, align 8
  store ptr %this, ptr %this.addr, align 8
  %this1 = load ptr, ptr %this.addr, align 8
  %_M_t = getelementptr inbounds %"class.std::__uniq_ptr_impl.118", ptr %this1, i32 0, i32 0
