target datalayout = "e-m:e-p270:32:32-p271:32:32-p272:64:64-i64:64-i128:128-f80:128-n8:16:32:64-S128"
target triple = "x86_64-unknown-linux-gnu"

%"class.std::ios_base::Init" = type { i8 }
%"struct.std::atomic" = type { %"struct.std::__atomic_base" }
%"struct.std::__atomic_base" = type { i8 }
%"class.grpc_core::ApplicationCallbackExecCtx" = type { i64, ptr, ptr }
%"class.grpc_core::ExecCtx" = type { ptr, %struct.grpc_closure_list, %"struct.grpc_core::ExecCtx::CombinerData", i64, %"class.grpc_core::ScopedTimeCache", ptr }
%struct.grpc_closure_list = type { ptr, ptr }
%"struct.grpc_core::ExecCtx::CombinerData" = type { ptr, ptr }
%"class.grpc_core::ScopedTimeCache" = type { %"class.grpc_core::Timestamp::ScopedSource", %"class.std::optional" }
%"class.grpc_core::Timestamp::ScopedSource" = type { %"class.grpc_core::Timestamp::Source", ptr }
%"class.grpc_core::Timestamp::Source" = type { ptr }
%"class.std::optional" = type { %"struct.std::_Optional_base" }
%"struct.std::_Optional_base" = type { %"struct.std::_Optional_payload" }
%"struct.std::_Optional_payload" = type { %"struct.std::_Optional_payload_base.base", [7 x i8] }
%"struct.std::_Optional_payload_base.base" = type <{ %"union.std::_Optional_payload_base<grpc_core::Timestamp>::_Storage", i8 }>
%"union.std::_Optional_payload_base<grpc_core::Timestamp>::_Storage" = type { %"class.grpc_core::Timestamp" }
%"class.grpc_core::Timestamp" = type { i64 }
%"class.absl::lts_20230802::Status" = type { i64 }
%struct.grpc_closure = type { %union.anon, ptr, ptr, %union.anon.0 }
%union.anon = type { ptr }
%union.anon.0 = type { i64 }
%struct.grpc_completion_queue_functor = type { ptr, i32, i32, ptr }
%"class.absl::lts_20230802::AnyInvocable" = type { %"class.absl::lts_20230802::internal_any_invocable::Impl" }
%"class.absl::lts_20230802::internal_any_invocable::Impl" = type { %"class.absl::lts_20230802::internal_any_invocable::CoreImpl" }
%"class.absl::lts_20230802::internal_any_invocable::CoreImpl" = type { %"union.absl::lts_20230802::internal_any_invocable::TypeErasedState", ptr, ptr }
%"union.absl::lts_20230802::internal_any_invocable::TypeErasedState" = type { %struct.anon }
%struct.anon = type { ptr, i64 }
%class.anon = type { ptr }
%"struct.std::_Optional_payload_base" = type <{ %"union.std::_Optional_payload_base<grpc_core::Timestamp>::_Storage", i8, [7 x i8] }>
%"struct.absl::lts_20230802::status_internal::StatusRep" = type { %"struct.std::atomic.1", i32, %"class.std::__cxx11::basic_string", %"class.std::unique_ptr" }
%"struct.std::atomic.1" = type { %"struct.std::__atomic_base.2" }
%"struct.std::__atomic_base.2" = type { i32 }
%"class.std::__cxx11::basic_string" = type { %"struct.std::__cxx11::basic_string<char>::_Alloc_hider", i64, %union.anon.3 }
%"struct.std::__cxx11::basic_string<char>::_Alloc_hider" = type { ptr }
%union.anon.3 = type { i64, [8 x i8] }
%"class.std::unique_ptr" = type { %"struct.std::__uniq_ptr_data" }
%"struct.std::__uniq_ptr_data" = type { %"class.std::__uniq_ptr_impl" }
%"class.std::__uniq_ptr_impl" = type { %"class.std::tuple" }
%"class.std::tuple" = type { %"struct.std::_Tuple_impl" }
%"struct.std::_Tuple_impl" = type { %"struct.std::_Head_base.5" }
%"struct.std::_Head_base.5" = type { ptr }

$_ZN9grpc_core26ApplicationCallbackExecCtxC2Ev = comdat any

$_ZN9grpc_core7ExecCtxC2Ev = comdat any

$_ZN4absl12lts_202308026StatusC2ERKS1_ = comdat any

$_ZN4absl12lts_202308026StatusD2Ev = comdat any

$_ZN9grpc_core7ExecCtxD2Ev = comdat any

$_ZN9grpc_core26ApplicationCallbackExecCtxD2Ev = comdat any

$_ZN9grpc_core26ApplicationCallbackExecCtx3SetEPS0_m = comdat any

$_ZN9grpc_core26ApplicationCallbackExecCtx3GetEv = comdat any

$_ZN9grpc_core4Fork15IncExecCtxCountEv = comdat any

$_ZTWN9grpc_core26ApplicationCallbackExecCtx18callback_exec_ctx_E = comdat any

$_ZNKSt6atomicIbE4loadESt12memory_order = comdat any

$_ZStanSt12memory_orderSt23__memory_order_modifier = comdat any

$__clang_call_terminate = comdat any

$_ZN9grpc_core15ScopedTimeCacheC2Ev = comdat any

$_ZN9grpc_core7ExecCtx3GetEv = comdat any

$_ZN9grpc_core7ExecCtx3SetEPS0_ = comdat any

$_ZN9grpc_core15ScopedTimeCacheD2Ev = comdat any

$_ZN9grpc_core7ExecCtxD0Ev = comdat any

$_ZN9grpc_core7ExecCtx18CheckReadyToFinishEv = comdat any

$_ZN9grpc_core9Timestamp12ScopedSourceC2Ev = comdat any

$_ZNSt8optionalIN9grpc_core9TimestampEEC2Ev = comdat any

$_ZN9grpc_core9Timestamp6SourceC2Ev = comdat any

$_ZTWN9grpc_core9Timestamp25thread_local_time_source_E = comdat any

$_ZN9grpc_core9Timestamp12ScopedSource15InvalidateCacheEv = comdat any

$_ZN9grpc_core9Timestamp6Source15InvalidateCacheEv = comdat any

$_ZNSt14_Optional_baseIN9grpc_core9TimestampELb1ELb1EEC2Ev = comdat any

$_ZNSt17_Optional_payloadIN9grpc_core9TimestampELb1ELb1ELb1EEC2Ev = comdat any

$_ZNSt22_Optional_payload_baseIN9grpc_core9TimestampEEC2Ev = comdat any

$_ZNSt22_Optional_payload_baseIN9grpc_core9TimestampEE8_StorageIS1_Lb1EEC2Ev = comdat any

$_ZTWN9grpc_core7ExecCtx9exec_ctx_E = comdat any

$_ZN9grpc_core9Timestamp12ScopedSourceD2Ev = comdat any

$_ZN9grpc_core7ExecCtxdlEPv = comdat any

$_ZN4absl12lts_202308026Status3RefEm = comdat any

$_ZN4absl12lts_202308026Status9IsInlinedEm = comdat any

$_ZN4absl12lts_202308026Status12RepToPointerEm = comdat any

$_ZN4absl12lts_202308026Status5UnrefEm = comdat any

$_ZN9grpc_core4Fork15DecExecCtxCountEv = comdat any

$_ZN4absl12lts_202308026StatusC2EOS1_ = comdat any

$_ZN4absl12lts_202308026Status12MovedFromRepEv = comdat any

$_ZN4absl12lts_202308026Status16CodeToInlinedRepENS0_10StatusCodeE = comdat any

$_ZN4absl12lts_2023080222internal_any_invocable19LocalManagerTrivialENS1_14FunctionToCallEPNS1_15TypeErasedStateES4_ = comdat any

$_ZTVN9grpc_core7ExecCtxE = comdat any

$_ZTSN9grpc_core7ExecCtxE = comdat any

$_ZTIN9grpc_core7ExecCtxE = comdat any

$_ZTVN9grpc_core9Timestamp12ScopedSourceE = comdat any

$_ZTSN9grpc_core9Timestamp12ScopedSourceE = comdat any

$_ZTSN9grpc_core9Timestamp6SourceE = comdat any

$_ZTIN9grpc_core9Timestamp6SourceE = comdat any

$_ZTIN9grpc_core9Timestamp12ScopedSourceE = comdat any

$_ZTVN9grpc_core9Timestamp6SourceE = comdat any

@_ZStL8__ioinit = internal global %"class.std::ios_base::Init" zeroinitializer, align 1
@__dso_handle = external hidden global i8
@_ZN9grpc_core26ApplicationCallbackExecCtx18callback_exec_ctx_E = external thread_local global ptr, align 8
@_ZN9grpc_core4Fork16support_enabled_E = external global %"struct.std::atomic", align 1
@_ZTVN9grpc_core7ExecCtxE = linkonce_odr unnamed_addr constant { [5 x ptr] } { [5 x ptr] [ptr null, ptr @_ZTIN9grpc_core7ExecCtxE, ptr @_ZN9grpc_core7ExecCtxD2Ev, ptr @_ZN9grpc_core7ExecCtxD0Ev, ptr @_ZN9grpc_core7ExecCtx18CheckReadyToFinishEv] }, comdat, align 8
@_ZTVN10__cxxabiv117__class_type_infoE = external global [0 x ptr]
@_ZTSN9grpc_core7ExecCtxE = linkonce_odr constant [21 x i8] c"N9grpc_core7ExecCtxE\00", comdat, align 1
@_ZTIN9grpc_core7ExecCtxE = linkonce_odr constant { ptr, ptr } { ptr getelementptr inbounds (ptr, ptr @_ZTVN10__cxxabiv117__class_type_infoE, i64 2), ptr @_ZTSN9grpc_core7ExecCtxE }, comdat, align 8
@_ZTVN9grpc_core15ScopedTimeCacheE = external unnamed_addr constant { [4 x ptr] }, align 8
@_ZTVN9grpc_core9Timestamp12ScopedSourceE = linkonce_odr unnamed_addr constant { [4 x ptr] } { [4 x ptr] [ptr null, ptr @_ZTIN9grpc_core9Timestamp12ScopedSourceE, ptr @__cxa_pure_virtual, ptr @_ZN9grpc_core9Timestamp12ScopedSource15InvalidateCacheEv] }, comdat, align 8
@_ZN9grpc_core9Timestamp25thread_local_time_source_E = external thread_local global ptr, align 8
@_ZTVN10__cxxabiv120__si_class_type_infoE = external global [0 x ptr]
@_ZTSN9grpc_core9Timestamp12ScopedSourceE = linkonce_odr constant [37 x i8] c"N9grpc_core9Timestamp12ScopedSourceE\00", comdat, align 1
@_ZTSN9grpc_core9Timestamp6SourceE = linkonce_odr constant [30 x i8] c"N9grpc_core9Timestamp6SourceE\00", comdat, align 1
@_ZTIN9grpc_core9Timestamp6SourceE = linkonce_odr constant { ptr, ptr } { ptr getelementptr inbounds (ptr, ptr @_ZTVN10__cxxabiv117__class_type_infoE, i64 2), ptr @_ZTSN9grpc_core9Timestamp6SourceE }, comdat, align 8
@_ZTIN9grpc_core9Timestamp12ScopedSourceE = linkonce_odr constant { ptr, ptr, ptr } { ptr getelementptr inbounds (ptr, ptr @_ZTVN10__cxxabiv120__si_class_type_infoE, i64 2), ptr @_ZTSN9grpc_core9Timestamp12ScopedSourceE, ptr @_ZTIN9grpc_core9Timestamp6SourceE }, comdat, align 8
@_ZTVN9grpc_core9Timestamp6SourceE = linkonce_odr unnamed_addr constant { [4 x ptr] } { [4 x ptr] [ptr null, ptr @_ZTIN9grpc_core9Timestamp6SourceE, ptr @__cxa_pure_virtual, ptr @_ZN9grpc_core9Timestamp6Source15InvalidateCacheEv] }, comdat, align 8
@_ZN9grpc_core7ExecCtx9exec_ctx_E = external thread_local global ptr, align 8
@llvm.global_ctors = appending global [1 x { i32, ptr, ptr }] [{ i32, ptr, ptr } { i32 65535, ptr @_GLOBAL__sub_I_closure.cc, ptr null }]

; Function Attrs: uwtable
define internal void @__cxx_global_var_init() #0 section ".text.startup" {
entry:
  call void @_ZNSt8ios_base4InitC1Ev(ptr noundef nonnull align 1 dereferenceable(1) @_ZStL8__ioinit)
  %0 = call i32 @__cxa_atexit(ptr @_ZNSt8ios_base4InitD1Ev, ptr @_ZStL8__ioinit, ptr @__dso_handle) #3
  ret void
}

declare void @_ZNSt8ios_base4InitC1Ev(ptr noundef nonnull align 1 dereferenceable(1)) unnamed_addr #1

; Function Attrs: nounwind
declare void @_ZNSt8ios_base4InitD1Ev(ptr noundef nonnull align 1 dereferenceable(1)) unnamed_addr #2

; Function Attrs: nounwind
declare i32 @__cxa_atexit(ptr, ptr, ptr) #3

; Function Attrs: mustprogress uwtable
define void @_ZN17grpc_event_engine12experimental21RunEventEngineClosureEP12grpc_closureN4absl12lts_202308026StatusE(ptr noundef %closure, ptr noundef %error) #4 personality ptr @__gxx_personality_v0 {
entry:
  %closure.addr = alloca ptr, align 8
  %error.indirect_addr = alloca ptr, align 8
  %app_ctx = alloca %"class.grpc_core::ApplicationCallbackExecCtx", align 8
  %exec_ctx = alloca %"class.grpc_core::ExecCtx", align 8
  %exn.slot = alloca ptr, align 8
  %ehselector.slot = alloca i32, align 4
  %agg.tmp = alloca %"class.absl::lts_20230802::Status", align 8
  store ptr %closure, ptr %closure.addr, align 8
  store ptr %error, ptr %error.indirect_addr, align 8
  %0 = load ptr, ptr %closure.addr, align 8
  %cmp = icmp eq ptr %0, null
  br i1 %cmp, label %if.then, label %if.end

if.then:                                          ; preds = %entry
  br label %return

if.end:                                           ; preds = %entry
  call void @_ZN9grpc_core26ApplicationCallbackExecCtxC2Ev(ptr noundef nonnull align 8 dereferenceable(24) %app_ctx)
  invoke void @_ZN9grpc_core7ExecCtxC2Ev(ptr noundef nonnull align 8 dereferenceable(88) %exec_ctx)
          to label %invoke.cont unwind label %lpad

invoke.cont:                                      ; preds = %if.end
  %1 = load ptr, ptr %closure.addr, align 8
  %cb = getelementptr inbounds %struct.grpc_closure, ptr %1, i32 0, i32 1
  %2 = load ptr, ptr %cb, align 8
  %3 = load ptr, ptr %closure.addr, align 8
  %cb_arg = getelementptr inbounds %struct.grpc_closure, ptr %3, i32 0, i32 2
  %4 = load ptr, ptr %cb_arg, align 8
  invoke void @_ZN4absl12lts_202308026StatusC2ERKS1_(ptr noundef nonnull align 8 dereferenceable(8) %agg.tmp, ptr noundef nonnull align 8 dereferenceable(8) %error)
          to label %invoke.cont2 unwind label %lpad1

invoke.cont2:                                     ; preds = %invoke.cont
  invoke void %2(ptr noundef %4, ptr noundef %agg.tmp)
          to label %invoke.cont4 unwind label %lpad3

invoke.cont4:                                     ; preds = %invoke.cont2
  call void @_ZN4absl12lts_202308026StatusD2Ev(ptr noundef nonnull align 8 dereferenceable(8) %agg.tmp) #3
  call void @_ZN9grpc_core7ExecCtxD2Ev(ptr noundef nonnull align 8 dereferenceable(88) %exec_ctx) #3
  call void @_ZN9grpc_core26ApplicationCallbackExecCtxD2Ev(ptr noundef nonnull align 8 dereferenceable(24) %app_ctx) #3
  br label %return

return:                                           ; preds = %invoke.cont4, %if.then
  ret void

lpad:                                             ; preds = %if.end
  %5 = landingpad { ptr, i32 }
          cleanup
  %6 = extractvalue { ptr, i32 } %5, 0
  store ptr %6, ptr %exn.slot, align 8
  %7 = extractvalue { ptr, i32 } %5, 1
  store i32 %7, ptr %ehselector.slot, align 4
  br label %ehcleanup5

lpad1:                                            ; preds = %invoke.cont
  %8 = landingpad { ptr, i32 }
          cleanup
  %9 = extractvalue { ptr, i32 } %8, 0
  store ptr %9, ptr %exn.slot, align 8
  %10 = extractvalue { ptr, i32 } %8, 1
  store i32 %10, ptr %ehselector.slot, align 4
  br label %ehcleanup

lpad3:                                            ; preds = %invoke.cont2
  %11 = landingpad { ptr, i32 }
          cleanup
  %12 = extractvalue { ptr, i32 } %11, 0
  store ptr %12, ptr %exn.slot, align 8
  %13 = extractvalue { ptr, i32 } %11, 1
  store i32 %13, ptr %ehselector.slot, align 4
  call void @_ZN4absl12lts_202308026StatusD2Ev(ptr noundef nonnull align 8 dereferenceable(8) %agg.tmp) #3
  br label %ehcleanup

ehcleanup:                                        ; preds = %lpad3, %lpad1
  call void @_ZN9grpc_core7ExecCtxD2Ev(ptr noundef nonnull align 8 dereferenceable(88) %exec_ctx) #3
  br label %ehcleanup5

ehcleanup5:                                       ; preds = %ehcleanup, %lpad
  call void @_ZN9grpc_core26ApplicationCallbackExecCtxD2Ev(ptr noundef nonnull align 8 dereferenceable(24) %app_ctx) #3
  br label %eh.resume

eh.resume:                                        ; preds = %ehcleanup5
  %exn = load ptr, ptr %exn.slot, align 8
  %sel = load i32, ptr %ehselector.slot, align 4
  %lpad.val = insertvalue { ptr, i32 } poison, ptr %exn, 0
  %lpad.val6 = insertvalue { ptr, i32 } %lpad.val, i32 %sel, 1
  resume { ptr, i32 } %lpad.val6
}

; Function Attrs: mustprogress uwtable
define linkonce_odr void @_ZN9grpc_core26ApplicationCallbackExecCtxC2Ev(ptr noundef nonnull align 8 dereferenceable(24) %this) unnamed_addr #4 comdat align 2 {
entry:
  %this.addr = alloca ptr, align 8
  store ptr %this, ptr %this.addr, align 8
  %this1 = load ptr, ptr %this.addr, align 8
  %flags_ = getelementptr inbounds %"class.grpc_core::ApplicationCallbackExecCtx", ptr %this1, i32 0, i32 0
  store i64 0, ptr %flags_, align 8
  %head_ = getelementptr inbounds %"class.grpc_core::ApplicationCallbackExecCtx", ptr %this1, i32 0, i32 1
  store ptr null, ptr %head_, align 8
  %tail_ = getelementptr inbounds %"class.grpc_core::ApplicationCallbackExecCtx", ptr %this1, i32 0, i32 2
  store ptr null, ptr %tail_, align 8
  %flags_2 = getelementptr inbounds %"class.grpc_core::ApplicationCallbackExecCtx", ptr %this1, i32 0, i32 0
  %0 = load i64, ptr %flags_2, align 8
  call void @_ZN9grpc_core26ApplicationCallbackExecCtx3SetEPS0_m(ptr noundef %this1, i64 noundef %0)
  ret void
}

; Function Attrs: mustprogress uwtable
define linkonce_odr void @_ZN9grpc_core7ExecCtxC2Ev(ptr noundef nonnull align 8 dereferenceable(88) %this) unnamed_addr #4 comdat align 2 personality ptr @__gxx_personality_v0 {
entry:
  %this.addr = alloca ptr, align 8
  %exn.slot = alloca ptr, align 8
  %ehselector.slot = alloca i32, align 4
  store ptr %this, ptr %this.addr, align 8
  %this1 = load ptr, ptr %this.addr, align 8
  store ptr getelementptr inbounds ({ [5 x ptr] }, ptr @_ZTVN9grpc_core7ExecCtxE, i32 0, inrange i32 0, i32 2), ptr %this1, align 8
  %closure_list_ = getelementptr inbounds %"class.grpc_core::ExecCtx", ptr %this1, i32 0, i32 1
  %head = getelementptr inbounds %struct.grpc_closure_list, ptr %closure_list_, i32 0, i32 0
  store ptr null, ptr %head, align 8
  %tail = getelementptr inbounds %struct.grpc_closure_list, ptr %closure_list_, i32 0, i32 1
  store ptr null, ptr %tail, align 8
  %combiner_data_ = getelementptr inbounds %"class.grpc_core::ExecCtx", ptr %this1, i32 0, i32 2
  %active_combiner = getelementptr inbounds %"struct.grpc_core::ExecCtx::CombinerData", ptr %combiner_data_, i32 0, i32 0
  store ptr null, ptr %active_combiner, align 8
  %last_combiner = getelementptr inbounds %"struct.grpc_core::ExecCtx::CombinerData", ptr %combiner_data_, i32 0, i32 1
  store ptr null, ptr %last_combiner, align 8
  %flags_ = getelementptr inbounds %"class.grpc_core::ExecCtx", ptr %this1, i32 0, i32 3
  store i64 1, ptr %flags_, align 8
  %time_cache_ = getelementptr inbounds %"class.grpc_core::ExecCtx", ptr %this1, i32 0, i32 4
  call void @_ZN9grpc_core15ScopedTimeCacheC2Ev(ptr noundef nonnull align 8 dereferenceable(32) %time_cache_)
  %last_exec_ctx_ = getelementptr inbounds %"class.grpc_core::ExecCtx", ptr %this1, i32 0, i32 5
  %call = invoke noundef ptr @_ZN9grpc_core7ExecCtx3GetEv()
          to label %invoke.cont unwind label %lpad

invoke.cont:                                      ; preds = %entry
  store ptr %call, ptr %last_exec_ctx_, align 8
  invoke void @_ZN9grpc_core4Fork15IncExecCtxCountEv()
          to label %invoke.cont2 unwind label %lpad

invoke.cont2:                                     ; preds = %invoke.cont
  invoke void @_ZN9grpc_core7ExecCtx3SetEPS0_(ptr noundef %this1)
          to label %invoke.cont3 unwind label %lpad

invoke.cont3:                                     ; preds = %invoke.cont2
  ret void

lpad:                                             ; preds = %invoke.cont2, %invoke.cont, %entry
  %0 = landingpad { ptr, i32 }
          cleanup
  %1 = extractvalue { ptr, i32 } %0, 0
  store ptr %1, ptr %exn.slot, align 8
  %2 = extractvalue { ptr, i32 } %0, 1
  store i32 %2, ptr %ehselector.slot, align 4
  call void @_ZN9grpc_core15ScopedTimeCacheD2Ev(ptr noundef nonnull align 8 dereferenceable(32) %time_cache_) #3
  br label %eh.resume

eh.resume:                                        ; preds = %lpad
  %exn = load ptr, ptr %exn.slot, align 8
  %sel = load i32, ptr %ehselector.slot, align 4
  %lpad.val = insertvalue { ptr, i32 } poison, ptr %exn, 0
  %lpad.val4 = insertvalue { ptr, i32 } %lpad.val, i32 %sel, 1
  resume { ptr, i32 } %lpad.val4
}

declare i32 @__gxx_personality_v0(...)

; Function Attrs: mustprogress uwtable
define linkonce_odr void @_ZN4absl12lts_202308026StatusC2ERKS1_(ptr noundef nonnull align 8 dereferenceable(8) %this, ptr noundef nonnull align 8 dereferenceable(8) %x) unnamed_addr #4 comdat align 2 {
entry:
  %this.addr = alloca ptr, align 8
  %x.addr = alloca ptr, align 8
  store ptr %this, ptr %this.addr, align 8
  store ptr %x, ptr %x.addr, align 8
  %this1 = load ptr, ptr %this.addr, align 8
  %rep_ = getelementptr inbounds %"class.absl::lts_20230802::Status", ptr %this1, i32 0, i32 0
  %0 = load ptr, ptr %x.addr, align 8
  %rep_2 = getelementptr inbounds %"class.absl::lts_20230802::Status", ptr %0, i32 0, i32 0
  %1 = load i64, ptr %rep_2, align 8
  store i64 %1, ptr %rep_, align 8
  %rep_3 = getelementptr inbounds %"class.absl::lts_20230802::Status", ptr %this1, i32 0, i32 0
  %2 = load i64, ptr %rep_3, align 8
  call void @_ZN4absl12lts_202308026Status3RefEm(i64 noundef %2)
  ret void
}

; Function Attrs: mustprogress nounwind uwtable
define linkonce_odr void @_ZN4absl12lts_202308026StatusD2Ev(ptr noundef nonnull align 8 dereferenceable(8) %this) unnamed_addr #5 comdat align 2 personality ptr @__gxx_personality_v0 {
entry:
  %this.addr = alloca ptr, align 8
  store ptr %this, ptr %this.addr, align 8
  %this1 = load ptr, ptr %this.addr, align 8
  %rep_ = getelementptr inbounds %"class.absl::lts_20230802::Status", ptr %this1, i32 0, i32 0
  %0 = load i64, ptr %rep_, align 8
  invoke void @_ZN4absl12lts_202308026Status5UnrefEm(i64 noundef %0)
          to label %invoke.cont unwind label %terminate.lpad

invoke.cont:                                      ; preds = %entry
  ret void

terminate.lpad:                                   ; preds = %entry
  %1 = landingpad { ptr, i32 }
          catch ptr null
  %2 = extractvalue { ptr, i32 } %1, 0
  call void @__clang_call_terminate(ptr %2) #11
  unreachable
}

; Function Attrs: mustprogress nounwind uwtable
define linkonce_odr void @_ZN9grpc_core7ExecCtxD2Ev(ptr noundef nonnull align 8 dereferenceable(88) %this) unnamed_addr #5 comdat align 2 personality ptr @__gxx_personality_v0 {
entry:
  %this.addr = alloca ptr, align 8
  store ptr %this, ptr %this.addr, align 8
  %this1 = load ptr, ptr %this.addr, align 8
  store ptr getelementptr inbounds ({ [5 x ptr] }, ptr @_ZTVN9grpc_core7ExecCtxE, i32 0, inrange i32 0, i32 2), ptr %this1, align 8
  %flags_ = getelementptr inbounds %"class.grpc_core::ExecCtx", ptr %this1, i32 0, i32 3
  %0 = load i64, ptr %flags_, align 8
  %or = or i64 %0, 1
  store i64 %or, ptr %flags_, align 8
  %call = invoke noundef zeroext i1 @_ZN9grpc_core7ExecCtx5FlushEv(ptr noundef nonnull align 8 dereferenceable(88) %this1)
          to label %invoke.cont unwind label %terminate.lpad

invoke.cont:                                      ; preds = %entry
  %last_exec_ctx_ = getelementptr inbounds %"class.grpc_core::ExecCtx", ptr %this1, i32 0, i32 5
  %1 = load ptr, ptr %last_exec_ctx_, align 8
  invoke void @_ZN9grpc_core7ExecCtx3SetEPS0_(ptr noundef %1)
          to label %invoke.cont2 unwind label %terminate.lpad

invoke.cont2:                                     ; preds = %invoke.cont
  %flags_3 = getelementptr inbounds %"class.grpc_core::ExecCtx", ptr %this1, i32 0, i32 3
  %2 = load i64, ptr %flags_3, align 8
  %and = and i64 4, %2
  %tobool = icmp ne i64 %and, 0
  br i1 %tobool, label %if.end, label %if.then

if.then:                                          ; preds = %invoke.cont2
  invoke void @_ZN9grpc_core4Fork15DecExecCtxCountEv()
          to label %invoke.cont4 unwind label %terminate.lpad

invoke.cont4:                                     ; preds = %if.then
  br label %if.end

if.end:                                           ; preds = %invoke.cont4, %invoke.cont2
  %time_cache_ = getelementptr inbounds %"class.grpc_core::ExecCtx", ptr %this1, i32 0, i32 4
  call void @_ZN9grpc_core15ScopedTimeCacheD2Ev(ptr noundef nonnull align 8 dereferenceable(32) %time_cache_) #3
  ret void

terminate.lpad:                                   ; preds = %if.then, %invoke.cont, %entry
  %3 = landingpad { ptr, i32 }
          catch ptr null
  %4 = extractvalue { ptr, i32 } %3, 0
  call void @__clang_call_terminate(ptr %4) #11
  unreachable
}

; Function Attrs: mustprogress nounwind uwtable
define linkonce_odr void @_ZN9grpc_core26ApplicationCallbackExecCtxD2Ev(ptr noundef nonnull align 8 dereferenceable(24) %this) unnamed_addr #5 comdat align 2 personality ptr @__gxx_personality_v0 {
entry:
  %this.addr = alloca ptr, align 8
  %f = alloca ptr, align 8
  store ptr %this, ptr %this.addr, align 8
  %this1 = load ptr, ptr %this.addr, align 8
  %call = invoke noundef ptr @_ZN9grpc_core26ApplicationCallbackExecCtx3GetEv()
          to label %invoke.cont unwind label %terminate.lpad

invoke.cont:                                      ; preds = %entry
  %cmp = icmp eq ptr %call, %this1
  br i1 %cmp, label %if.then, label %if.else

if.then:                                          ; preds = %invoke.cont
  br label %while.cond

while.cond:                                       ; preds = %invoke.cont8, %if.then
  %head_ = getelementptr inbounds %"class.grpc_core::ApplicationCallbackExecCtx", ptr %this1, i32 0, i32 1
  %0 = load ptr, ptr %head_, align 8
  %cmp2 = icmp ne ptr %0, null
  br i1 %cmp2, label %while.body, label %while.end

while.body:                                       ; preds = %while.cond
  %head_3 = getelementptr inbounds %"class.grpc_core::ApplicationCallbackExecCtx", ptr %this1, i32 0, i32 1
  %1 = load ptr, ptr %head_3, align 8
  store ptr %1, ptr %f, align 8
  %2 = load ptr, ptr %f, align 8
  %internal_next = getelementptr inbounds %struct.grpc_completion_queue_functor, ptr %2, i32 0, i32 3
  %3 = load ptr, ptr %internal_next, align 8
  %head_4 = getelementptr inbounds %"class.grpc_core::ApplicationCallbackExecCtx", ptr %this1, i32 0, i32 1
  store ptr %3, ptr %head_4, align 8
  %4 = load ptr, ptr %f, align 8
  %internal_next5 = getelementptr inbounds %struct.grpc_completion_queue_functor, ptr %4, i32 0, i32 3
  %5 = load ptr, ptr %internal_next5, align 8
  %cmp6 = icmp eq ptr %5, null
  br i1 %cmp6, label %if.then7, label %if.end

if.then7:                                         ; preds = %while.body
  %tail_ = getelementptr inbounds %"class.grpc_core::ApplicationCallbackExecCtx", ptr %this1, i32 0, i32 2
  store ptr null, ptr %tail_, align 8
  br label %if.end

if.end:                                           ; preds = %if.then7, %while.body
  %6 = load ptr, ptr %f, align 8
  %functor_run = getelementptr inbounds %struct.grpc_completion_queue_functor, ptr %6, i32 0, i32 0
  %7 = load ptr, ptr %functor_run, align 8
  %8 = load ptr, ptr %f, align 8
  %9 = load ptr, ptr %f, align 8
  %internal_success = getelementptr inbounds %struct.grpc_completion_queue_functor, ptr %9, i32 0, i32 2
  %10 = load i32, ptr %internal_success, align 4
  invoke void %7(ptr noundef %8, i32 noundef %10)
          to label %invoke.cont8 unwind label %terminate.lpad

invoke.cont8:                                     ; preds = %if.end
  br label %while.cond, !llvm.loop !4

while.end:                                        ; preds = %while.cond
  %11 = call ptr @_ZTWN9grpc_core26ApplicationCallbackExecCtx18callback_exec_ctx_E()
  store ptr null, ptr %11, align 8
  %flags_ = getelementptr inbounds %"class.grpc_core::ApplicationCallbackExecCtx", ptr %this1, i32 0, i32 0
  %12 = load i64, ptr %flags_, align 8
  %and = and i64 1, %12
  %tobool = icmp ne i64 %and, 0
  br i1 %tobool, label %if.end11, label %if.then9

if.then9:                                         ; preds = %while.end
  invoke void @_ZN9grpc_core4Fork15DecExecCtxCountEv()
          to label %invoke.cont10 unwind label %terminate.lpad

invoke.cont10:                                    ; preds = %if.then9
  br label %if.end11

if.end11:                                         ; preds = %invoke.cont10, %while.end
  br label %if.end12

if.else:                                          ; preds = %invoke.cont
  br label %if.end12

if.end12:                                         ; preds = %if.else, %if.end11
  ret void

terminate.lpad:                                   ; preds = %if.then9, %if.end, %entry
  %13 = landingpad { ptr, i32 }
          catch ptr null
  %14 = extractvalue { ptr, i32 } %13, 0
  call void @__clang_call_terminate(ptr %14) #11
  unreachable
}

; Function Attrs: mustprogress uwtable
define void @_ZN17grpc_event_engine12experimental27GrpcClosureToStatusCallbackEP12grpc_closure(ptr noalias sret(%"class.absl::lts_20230802::AnyInvocable") align 16 %agg.result, ptr noundef %closure) #4 {
entry:
  %result.ptr = alloca ptr, align 8
  %closure.addr = alloca ptr, align 8
  %ref.tmp = alloca %class.anon, align 8
  store ptr %agg.result, ptr %result.ptr, align 8
  store ptr %closure, ptr %closure.addr, align 8
  %0 = getelementptr inbounds %class.anon, ptr %ref.tmp, i32 0, i32 0
  %1 = load ptr, ptr %closure.addr, align 8
  store ptr %1, ptr %0, align 8
  call void @"_ZN4absl12lts_2023080212AnyInvocableIFvNS0_6StatusEEEC2IZN17grpc_event_engine12experimental27GrpcClosureToStatusCallbackEP12grpc_closureE3$_0vEEOT_"(ptr noundef nonnull align 16 dereferenceable(32) %agg.result, ptr noundef nonnull align 8 dereferenceable(8) %ref.tmp)
  ret void
}

; Function Attrs: mustprogress uwtable
define internal void @"_ZN4absl12lts_2023080212AnyInvocableIFvNS0_6StatusEEEC2IZN17grpc_event_engine12experimental27GrpcClosureToStatusCallbackEP12grpc_closureE3$_0vEEOT_"(ptr noundef nonnull align 16 dereferenceable(32) %this, ptr noundef nonnull align 8 dereferenceable(8) %f) unnamed_addr #4 align 2 {
entry:
  %this.addr = alloca ptr, align 8
  %f.addr = alloca ptr, align 8
  store ptr %this, ptr %this.addr, align 8
  store ptr %f, ptr %f.addr, align 8
  %this1 = load ptr, ptr %this.addr, align 8
  %0 = load ptr, ptr %f.addr, align 8
  call void @"_ZN4absl12lts_2023080222internal_any_invocable4ImplIFvNS0_6StatusEEEC2IZN17grpc_event_engine12experimental27GrpcClosureToStatusCallbackEP12grpc_closureE3$_0EENS1_19ConversionConstructEOT_"(ptr noundef nonnull align 16 dereferenceable(32) %this1, ptr noundef nonnull align 8 dereferenceable(8) %0)
  ret void
}

; Function Attrs: mustprogress uwtable
define linkonce_odr void @_ZN9grpc_core26ApplicationCallbackExecCtx3SetEPS0_m(ptr noundef %exec_ctx, i64 noundef %flags) #4 comdat align 2 {
entry:
  %exec_ctx.addr = alloca ptr, align 8
  %flags.addr = alloca i64, align 8
  store ptr %exec_ctx, ptr %exec_ctx.addr, align 8
  store i64 %flags, ptr %flags.addr, align 8
  %call = call noundef ptr @_ZN9grpc_core26ApplicationCallbackExecCtx3GetEv()
  %cmp = icmp eq ptr %call, null
  br i1 %cmp, label %if.then, label %if.end2

if.then:                                          ; preds = %entry
  %0 = load i64, ptr %flags.addr, align 8
  %and = and i64 1, %0
  %tobool = icmp ne i64 %and, 0
  br i1 %tobool, label %if.end, label %if.then1

if.then1:                                         ; preds = %if.then
  call void @_ZN9grpc_core4Fork15IncExecCtxCountEv()
  br label %if.end

if.end:                                           ; preds = %if.then1, %if.then
  %1 = load ptr, ptr %exec_ctx.addr, align 8
  %2 = call ptr @_ZTWN9grpc_core26ApplicationCallbackExecCtx18callback_exec_ctx_E()
  store ptr %1, ptr %2, align 8
  br label %if.end2

if.end2:                                          ; preds = %if.end, %entry
  ret void
}

; Function Attrs: mustprogress uwtable
define linkonce_odr noundef ptr @_ZN9grpc_core26ApplicationCallbackExecCtx3GetEv() #4 comdat align 2 {
entry:
  %0 = call ptr @_ZTWN9grpc_core26ApplicationCallbackExecCtx18callback_exec_ctx_E()
  %1 = load ptr, ptr %0, align 8
  ret ptr %1
}

; Function Attrs: mustprogress uwtable
define linkonce_odr void @_ZN9grpc_core4Fork15IncExecCtxCountEv() #4 comdat align 2 {
entry:
  %call = call noundef zeroext i1 @_ZNKSt6atomicIbE4loadESt12memory_order(ptr noundef nonnull align 1 dereferenceable(1) @_ZN9grpc_core4Fork16support_enabled_E, i32 noundef 0) #3
  br i1 %call, label %if.then, label %if.end

if.then:                                          ; preds = %entry
  call void @_ZN9grpc_core4Fork17DoIncExecCtxCountEv()
  br label %if.end

if.end:                                           ; preds = %if.then, %entry
  ret void
}

; Function Attrs: uwtable
define linkonce_odr hidden noundef ptr @_ZTWN9grpc_core26ApplicationCallbackExecCtx18callback_exec_ctx_E() #6 comdat {
  br i1 icmp ne (ptr @_ZTHN9grpc_core26ApplicationCallbackExecCtx18callback_exec_ctx_E, ptr null), label %1, label %2

1:                                                ; preds = %0
  call void @_ZTHN9grpc_core26ApplicationCallbackExecCtx18callback_exec_ctx_E()
  br label %2

2:                                                ; preds = %1, %0
  %3 = call align 8 ptr @llvm.threadlocal.address.p0(ptr align 8 @_ZN9grpc_core26ApplicationCallbackExecCtx18callback_exec_ctx_E)
  ret ptr %3
}

; Function Attrs: mustprogress nounwind uwtable
define linkonce_odr noundef zeroext i1 @_ZNKSt6atomicIbE4loadESt12memory_order(ptr noundef nonnull align 1 dereferenceable(1) %this, i32 noundef %__m) #5 comdat align 2 personality ptr @__gxx_personality_v0 {
entry:
  %this.addr.i = alloca ptr, align 8
  %__m.addr.i = alloca i32, align 4
  %__b.i = alloca i32, align 4
  %atomic-temp.i = alloca i8, align 1
  %this.addr = alloca ptr, align 8
  %__m.addr = alloca i32, align 4
  store ptr %this, ptr %this.addr, align 8
  store i32 %__m, ptr %__m.addr, align 4
  %this1 = load ptr, ptr %this.addr, align 8
  %_M_base = getelementptr inbounds %"struct.std::atomic", ptr %this1, i32 0, i32 0
  %0 = load i32, ptr %__m.addr, align 4
  store ptr %_M_base, ptr %this.addr.i, align 8
  store i32 %0, ptr %__m.addr.i, align 4
  %this1.i = load ptr, ptr %this.addr.i, align 8
  %1 = load i32, ptr %__m.addr.i, align 4
  %call.i = invoke noundef i32 @_ZStanSt12memory_orderSt23__memory_order_modifier(i32 noundef %1, i32 noundef 65535)
          to label %invoke.cont.i unwind label %terminate.lpad.i

invoke.cont.i:                                    ; preds = %entry
  store i32 %call.i, ptr %__b.i, align 4
  %2 = load i32, ptr %__m.addr.i, align 4
  switch i32 %2, label %monotonic.i [
    i32 1, label %acquire.i
    i32 2, label %acquire.i
    i32 5, label %seqcst.i
  ]

monotonic.i:                                      ; preds = %invoke.cont.i
  %3 = load atomic i8, ptr %this1.i monotonic, align 1
  store i8 %3, ptr %atomic-temp.i, align 1
  br label %_ZNKSt13__atomic_baseIbE4loadESt12memory_order.exit

acquire.i:                                        ; preds = %invoke.cont.i, %invoke.cont.i
  %4 = load atomic i8, ptr %this1.i acquire, align 1
  store i8 %4, ptr %atomic-temp.i, align 1
  br label %_ZNKSt13__atomic_baseIbE4loadESt12memory_order.exit

seqcst.i:                                         ; preds = %invoke.cont.i
  %5 = load atomic i8, ptr %this1.i seq_cst, align 1
  store i8 %5, ptr %atomic-temp.i, align 1
  br label %_ZNKSt13__atomic_baseIbE4loadESt12memory_order.exit

terminate.lpad.i:                                 ; preds = %entry
  %6 = landingpad { ptr, i32 }
          catch ptr null
  %7 = extractvalue { ptr, i32 } %6, 0
  call void @__clang_call_terminate(ptr %7) #11
  unreachable

_ZNKSt13__atomic_baseIbE4loadESt12memory_order.exit: ; preds = %seqcst.i, %acquire.i, %monotonic.i
  %8 = load i8, ptr %atomic-temp.i, align 1
  %tobool.i = trunc i8 %8 to i1
  ret i1 %tobool.i
}

declare void @_ZN9grpc_core4Fork17DoIncExecCtxCountEv() #1

; Function Attrs: mustprogress nounwind uwtable
define linkonce_odr noundef i32 @_ZStanSt12memory_orderSt23__memory_order_modifier(i32 noundef %__m, i32 noundef %__mod) #5 comdat {
entry:
  %__m.addr = alloca i32, align 4
  %__mod.addr = alloca i32, align 4
  store i32 %__m, ptr %__m.addr, align 4
  store i32 %__mod, ptr %__mod.addr, align 4
  %0 = load i32, ptr %__m.addr, align 4
  %1 = load i32, ptr %__mod.addr, align 4
  %and = and i32 %0, %1
  ret i32 %and
}

; Function Attrs: noreturn nounwind uwtable
define linkonce_odr hidden void @__clang_call_terminate(ptr noundef %0) #7 comdat {
  %2 = call ptr @__cxa_begin_catch(ptr %0) #3
  call void @_ZSt9terminatev() #11
  unreachable
}

declare ptr @__cxa_begin_catch(ptr)

declare void @_ZSt9terminatev()

; Function Attrs: mustprogress uwtable
define linkonce_odr void @_ZN9grpc_core15ScopedTimeCacheC2Ev(ptr noundef nonnull align 8 dereferenceable(32) %this) unnamed_addr #4 comdat align 2 {
entry:
  %this.addr = alloca ptr, align 8
  store ptr %this, ptr %this.addr, align 8
  %this1 = load ptr, ptr %this.addr, align 8
  call void @_ZN9grpc_core9Timestamp12ScopedSourceC2Ev(ptr noundef nonnull align 8 dereferenceable(16) %this1)
  store ptr getelementptr inbounds ({ [4 x ptr] }, ptr @_ZTVN9grpc_core15ScopedTimeCacheE, i32 0, inrange i32 0, i32 2), ptr %this1, align 8
  %cached_time_ = getelementptr inbounds %"class.grpc_core::ScopedTimeCache", ptr %this1, i32 0, i32 1
  call void @_ZNSt8optionalIN9grpc_core9TimestampEEC2Ev(ptr noundef nonnull align 8 dereferenceable(16) %cached_time_) #3
  ret void
}

; Function Attrs: mustprogress uwtable
define linkonce_odr noundef ptr @_ZN9grpc_core7ExecCtx3GetEv() #4 comdat align 2 {
entry:
  %0 = call ptr @_ZTWN9grpc_core7ExecCtx9exec_ctx_E()
  %1 = load ptr, ptr %0, align 8
  ret ptr %1
}

; Function Attrs: mustprogress uwtable
define linkonce_odr void @_ZN9grpc_core7ExecCtx3SetEPS0_(ptr noundef %ctx) #4 comdat align 2 {
entry:
  %ctx.addr = alloca ptr, align 8
  store ptr %ctx, ptr %ctx.addr, align 8
  %0 = load ptr, ptr %ctx.addr, align 8
  %1 = call ptr @_ZTWN9grpc_core7ExecCtx9exec_ctx_E()
  store ptr %0, ptr %1, align 8
  ret void
}

; Function Attrs: mustprogress nounwind uwtable
define linkonce_odr void @_ZN9grpc_core15ScopedTimeCacheD2Ev(ptr noundef nonnull align 8 dereferenceable(32) %this) unnamed_addr #5 comdat align 2 {
entry:
  %this.addr = alloca ptr, align 8
  store ptr %this, ptr %this.addr, align 8
  %this1 = load ptr, ptr %this.addr, align 8
  call void @_ZN9grpc_core9Timestamp12ScopedSourceD2Ev(ptr noundef nonnull align 8 dereferenceable(16) %this1) #3
  ret void
}

; Function Attrs: mustprogress nounwind uwtable
define linkonce_odr void @_ZN9grpc_core7ExecCtxD0Ev(ptr noundef nonnull align 8 dereferenceable(88) %this) unnamed_addr #5 comdat align 2 {
entry:
  %this.addr = alloca ptr, align 8
  store ptr %this, ptr %this.addr, align 8
  %this1 = load ptr, ptr %this.addr, align 8
  call void @_ZN9grpc_core7ExecCtxD2Ev(ptr noundef nonnull align 8 dereferenceable(88) %this1) #3
  call void @_ZN9grpc_core7ExecCtxdlEPv(ptr noundef %this1) #3
  ret void
}

; Function Attrs: mustprogress nounwind uwtable
define linkonce_odr noundef zeroext i1 @_ZN9grpc_core7ExecCtx18CheckReadyToFinishEv(ptr noundef nonnull align 8 dereferenceable(88) %this) unnamed_addr #5 comdat align 2 {
entry:
  %this.addr = alloca ptr, align 8
  store ptr %this, ptr %this.addr, align 8
  ret i1 false
}

; Function Attrs: mustprogress uwtable
define linkonce_odr void @_ZN9grpc_core9Timestamp12ScopedSourceC2Ev(ptr noundef nonnull align 8 dereferenceable(16) %this) unnamed_addr #4 comdat align 2 {
entry:
  %this.addr = alloca ptr, align 8
  store ptr %this, ptr %this.addr, align 8
  %this1 = load ptr, ptr %this.addr, align 8
  call void @_ZN9grpc_core9Timestamp6SourceC2Ev(ptr noundef nonnull align 8 dereferenceable(8) %this1) #3
  store ptr getelementptr inbounds ({ [4 x ptr] }, ptr @_ZTVN9grpc_core9Timestamp12ScopedSourceE, i32 0, inrange i32 0, i32 2), ptr %this1, align 8
  %previous_ = getelementptr inbounds %"class.grpc_core::Timestamp::ScopedSource", ptr %this1, i32 0, i32 1
  %0 = call ptr @_ZTWN9grpc_core9Timestamp25thread_local_time_source_E()
  %1 = load ptr, ptr %0, align 8
  store ptr %1, ptr %previous_, align 8
  %2 = call ptr @_ZTWN9grpc_core9Timestamp25thread_local_time_source_E()
  store ptr %this1, ptr %2, align 8
  ret void
}

; Function Attrs: mustprogress nounwind uwtable
define linkonce_odr void @_ZNSt8optionalIN9grpc_core9TimestampEEC2Ev(ptr noundef nonnull align 8 dereferenceable(16) %this) unnamed_addr #5 comdat align 2 {
entry:
  %this.addr = alloca ptr, align 8
  store ptr %this, ptr %this.addr, align 8
  %this1 = load ptr, ptr %this.addr, align 8
  call void @_ZNSt14_Optional_baseIN9grpc_core9TimestampELb1ELb1EEC2Ev(ptr noundef nonnull align 8 dereferenceable(16) %this1) #3
  ret void
}

; Function Attrs: mustprogress nounwind uwtable
define linkonce_odr void @_ZN9grpc_core9Timestamp6SourceC2Ev(ptr noundef nonnull align 8 dereferenceable(8) %this) unnamed_addr #5 comdat align 2 {
entry:
  %this.addr = alloca ptr, align 8
  store ptr %this, ptr %this.addr, align 8
  %this1 = load ptr, ptr %this.addr, align 8
  store ptr getelementptr inbounds ({ [4 x ptr] }, ptr @_ZTVN9grpc_core9Timestamp6SourceE, i32 0, inrange i32 0, i32 2), ptr %this1, align 8
  ret void
}

; Function Attrs: uwtable
define linkonce_odr hidden noundef ptr @_ZTWN9grpc_core9Timestamp25thread_local_time_source_E() #6 comdat {
  br i1 icmp ne (ptr @_ZTHN9grpc_core9Timestamp25thread_local_time_source_E, ptr null), label %1, label %2

1:                                                ; preds = %0
  call void @_ZTHN9grpc_core9Timestamp25thread_local_time_source_E()
  br label %2

2:                                                ; preds = %1, %0
  %3 = call align 8 ptr @llvm.threadlocal.address.p0(ptr align 8 @_ZN9grpc_core9Timestamp25thread_local_time_source_E)
  ret ptr %3
}

declare void @__cxa_pure_virtual() unnamed_addr

; Function Attrs: mustprogress uwtable
define linkonce_odr void @_ZN9grpc_core9Timestamp12ScopedSource15InvalidateCacheEv(ptr noundef nonnull align 8 dereferenceable(16) %this) unnamed_addr #4 comdat align 2 {
entry:
  %this.addr = alloca ptr, align 8
  store ptr %this, ptr %this.addr, align 8
  %this1 = load ptr, ptr %this.addr, align 8
  %previous_ = getelementptr inbounds %"class.grpc_core::Timestamp::ScopedSource", ptr %this1, i32 0, i32 1
  %0 = load ptr, ptr %previous_, align 8
  %vtable = load ptr, ptr %0, align 8
  %vfn = getelementptr inbounds ptr, ptr %vtable, i64 1
  %1 = load ptr, ptr %vfn, align 8
  call void %1(ptr noundef nonnull align 8 dereferenceable(8) %0)
  ret void
}

; Function Attrs: mustprogress nounwind uwtable
define linkonce_odr void @_ZN9grpc_core9Timestamp6Source15InvalidateCacheEv(ptr noundef nonnull align 8 dereferenceable(8) %this) unnamed_addr #5 comdat align 2 {
entry:
  %this.addr = alloca ptr, align 8
  store ptr %this, ptr %this.addr, align 8
  ret void
}

; Function Attrs: mustprogress nounwind uwtable
define linkonce_odr void @_ZNSt14_Optional_baseIN9grpc_core9TimestampELb1ELb1EEC2Ev(ptr noundef nonnull align 8 dereferenceable(16) %this) unnamed_addr #5 comdat align 2 {
entry:
  %this.addr = alloca ptr, align 8
  store ptr %this, ptr %this.addr, align 8
  %this1 = load ptr, ptr %this.addr, align 8
  %_M_payload = getelementptr inbounds %"struct.std::_Optional_base", ptr %this1, i32 0, i32 0
  call void @_ZNSt17_Optional_payloadIN9grpc_core9TimestampELb1ELb1ELb1EEC2Ev(ptr noundef nonnull align 8 dereferenceable(9) %_M_payload) #3
  ret void
}

; Function Attrs: mustprogress nounwind uwtable
define linkonce_odr void @_ZNSt17_Optional_payloadIN9grpc_core9TimestampELb1ELb1ELb1EEC2Ev(ptr noundef nonnull align 8 dereferenceable(9) %this) unnamed_addr #5 comdat align 2 {
entry:
  %this.addr = alloca ptr, align 8
  store ptr %this, ptr %this.addr, align 8
  %this1 = load ptr, ptr %this.addr, align 8
  call void @_ZNSt22_Optional_payload_baseIN9grpc_core9TimestampEEC2Ev(ptr noundef nonnull align 8 dereferenceable(9) %this1) #3
  ret void
}

; Function Attrs: mustprogress nounwind uwtable
define linkonce_odr void @_ZNSt22_Optional_payload_baseIN9grpc_core9TimestampEEC2Ev(ptr noundef nonnull align 8 dereferenceable(9) %this) unnamed_addr #5 comdat align 2 {
entry:
  %this.addr = alloca ptr, align 8
  store ptr %this, ptr %this.addr, align 8
  %this1 = load ptr, ptr %this.addr, align 8
  %_M_payload = getelementptr inbounds %"struct.std::_Optional_payload_base", ptr %this1, i32 0, i32 0
  call void @_ZNSt22_Optional_payload_baseIN9grpc_core9TimestampEE8_StorageIS1_Lb1EEC2Ev(ptr noundef nonnull align 8 dereferenceable(8) %_M_payload) #3
  %_M_engaged = getelementptr inbounds %"struct.std::_Optional_payload_base", ptr %this1, i32 0, i32 1
  store i8 0, ptr %_M_engaged, align 8
  ret void
}

; Function Attrs: mustprogress nounwind uwtable
define linkonce_odr void @_ZNSt22_Optional_payload_baseIN9grpc_core9TimestampEE8_StorageIS1_Lb1EEC2Ev(ptr noundef nonnull align 8 dereferenceable(8) %this) unnamed_addr #5 comdat align 2 {
entry:
  %this.addr = alloca ptr, align 8
  store ptr %this, ptr %this.addr, align 8
  ret void
}

; Function Attrs: uwtable
define linkonce_odr hidden noundef ptr @_ZTWN9grpc_core7ExecCtx9exec_ctx_E() #6 comdat {
  br i1 icmp ne (ptr @_ZTHN9grpc_core7ExecCtx9exec_ctx_E, ptr null), label %1, label %2

1:                                                ; preds = %0
  call void @_ZTHN9grpc_core7ExecCtx9exec_ctx_E()
  br label %2

2:                                                ; preds = %1, %0
  %3 = call align 8 ptr @llvm.threadlocal.address.p0(ptr align 8 @_ZN9grpc_core7ExecCtx9exec_ctx_E)
  ret ptr %3
}

; Function Attrs: mustprogress nounwind uwtable
define linkonce_odr void @_ZN9grpc_core9Timestamp12ScopedSourceD2Ev(ptr noundef nonnull align 8 dereferenceable(16) %this) unnamed_addr #5 comdat align 2 {
entry:
  %this.addr = alloca ptr, align 8
  store ptr %this, ptr %this.addr, align 8
  %this1 = load ptr, ptr %this.addr, align 8
  store ptr getelementptr inbounds ({ [4 x ptr] }, ptr @_ZTVN9grpc_core9Timestamp12ScopedSourceE, i32 0, inrange i32 0, i32 2), ptr %this1, align 8
  %previous_ = getelementptr inbounds %"class.grpc_core::Timestamp::ScopedSource", ptr %this1, i32 0, i32 1
  %0 = load ptr, ptr %previous_, align 8
  %1 = call ptr @_ZTWN9grpc_core9Timestamp25thread_local_time_source_E()
  store ptr %0, ptr %1, align 8
  ret void
}

; Function Attrs: mustprogress nounwind uwtable
define linkonce_odr void @_ZN9grpc_core7ExecCtxdlEPv(ptr noundef %0) #5 comdat align 2 {
entry:
  %.addr = alloca ptr, align 8
  store ptr %0, ptr %.addr, align 8
  call void @abort() #11
  unreachable
}

; Function Attrs: noreturn nounwind
declare void @abort() #8

; Function Attrs: mustprogress uwtable
define linkonce_odr void @_ZN4absl12lts_202308026Status3RefEm(i64 noundef %rep) #4 comdat align 2 {
entry:
  %this.addr.i = alloca ptr, align 8
  %__i.addr.i = alloca i32, align 4
  %__m.addr.i = alloca i32, align 4
  %.atomictmp.i = alloca i32, align 4
  %atomic-temp.i = alloca i32, align 4
  %rep.addr = alloca i64, align 8
  store i64 %rep, ptr %rep.addr, align 8
  %0 = load i64, ptr %rep.addr, align 8
  %call = call noundef zeroext i1 @_ZN4absl12lts_202308026Status9IsInlinedEm(i64 noundef %0)
  br i1 %call, label %if.end, label %if.then

if.then:                                          ; preds = %entry
  %1 = load i64, ptr %rep.addr, align 8
  %call1 = call noundef ptr @_ZN4absl12lts_202308026Status12RepToPointerEm(i64 noundef %1)
  %ref = getelementptr inbounds %"struct.absl::lts_20230802::status_internal::StatusRep", ptr %call1, i32 0, i32 0
  store ptr %ref, ptr %this.addr.i, align 8
  store i32 1, ptr %__i.addr.i, align 4
  store i32 0, ptr %__m.addr.i, align 4
  %this1.i = load ptr, ptr %this.addr.i, align 8
  %2 = load i32, ptr %__m.addr.i, align 4
  %3 = load i32, ptr %__i.addr.i, align 4
  store i32 %3, ptr %.atomictmp.i, align 4
  switch i32 %2, label %monotonic.i [
    i32 1, label %acquire.i
    i32 2, label %acquire.i
    i32 3, label %release.i
    i32 4, label %acqrel.i
    i32 5, label %seqcst.i
  ]

monotonic.i:                                      ; preds = %if.then
  %4 = load i32, ptr %.atomictmp.i, align 4
  %5 = atomicrmw add ptr %this1.i, i32 %4 monotonic, align 4
  store i32 %5, ptr %atomic-temp.i, align 4
  br label %_ZNSt13__atomic_baseIiE9fetch_addEiSt12memory_order.exit

acquire.i:                                        ; preds = %if.then, %if.then
  %6 = load i32, ptr %.atomictmp.i, align 4
  %7 = atomicrmw add ptr %this1.i, i32 %6 acquire, align 4
  store i32 %7, ptr %atomic-temp.i, align 4
  br label %_ZNSt13__atomic_baseIiE9fetch_addEiSt12memory_order.exit

release.i:                                        ; preds = %if.then
  %8 = load i32, ptr %.atomictmp.i, align 4
  %9 = atomicrmw add ptr %this1.i, i32 %8 release, align 4
  store i32 %9, ptr %atomic-temp.i, align 4
  br label %_ZNSt13__atomic_baseIiE9fetch_addEiSt12memory_order.exit

acqrel.i:                                         ; preds = %if.then
  %10 = load i32, ptr %.atomictmp.i, align 4
  %11 = atomicrmw add ptr %this1.i, i32 %10 acq_rel, align 4
  store i32 %11, ptr %atomic-temp.i, align 4
  br label %_ZNSt13__atomic_baseIiE9fetch_addEiSt12memory_order.exit

seqcst.i:                                         ; preds = %if.then
  %12 = load i32, ptr %.atomictmp.i, align 4
  %13 = atomicrmw add ptr %this1.i, i32 %12 seq_cst, align 4
  store i32 %13, ptr %atomic-temp.i, align 4
  br label %_ZNSt13__atomic_baseIiE9fetch_addEiSt12memory_order.exit

_ZNSt13__atomic_baseIiE9fetch_addEiSt12memory_order.exit: ; preds = %seqcst.i, %acqrel.i, %release.i, %acquire.i, %monotonic.i
  br label %if.end

if.end:                                           ; preds = %_ZNSt13__atomic_baseIiE9fetch_addEiSt12memory_order.exit, %entry
  ret void
}

; Function Attrs: mustprogress nounwind uwtable
define linkonce_odr noundef zeroext i1 @_ZN4absl12lts_202308026Status9IsInlinedEm(i64 noundef %rep) #5 comdat align 2 {
entry:
  %rep.addr = alloca i64, align 8
  store i64 %rep, ptr %rep.addr, align 8
  %0 = load i64, ptr %rep.addr, align 8
  %and = and i64 %0, 1
  %cmp = icmp eq i64 %and, 0
  ret i1 %cmp
}

; Function Attrs: mustprogress nounwind uwtable
define linkonce_odr noundef ptr @_ZN4absl12lts_202308026Status12RepToPointerEm(i64 noundef %rep) #5 comdat align 2 {
entry:
  %rep.addr = alloca i64, align 8
  store i64 %rep, ptr %rep.addr, align 8
  %0 = load i64, ptr %rep.addr, align 8
  %sub = sub i64 %0, 1
  %1 = inttoptr i64 %sub to ptr
  ret ptr %1
}

; Function Attrs: mustprogress uwtable
define linkonce_odr void @_ZN4absl12lts_202308026Status5UnrefEm(i64 noundef %rep) #4 comdat align 2 {
entry:
  %rep.addr = alloca i64, align 8
  store i64 %rep, ptr %rep.addr, align 8
  %0 = load i64, ptr %rep.addr, align 8
  %call = call noundef zeroext i1 @_ZN4absl12lts_202308026Status9IsInlinedEm(i64 noundef %0)
  br i1 %call, label %if.end, label %if.then

if.then:                                          ; preds = %entry
  %1 = load i64, ptr %rep.addr, align 8
  call void @_ZN4absl12lts_202308026Status15UnrefNonInlinedEm(i64 noundef %1)
  br label %if.end

if.end:                                           ; preds = %if.then, %entry
  ret void
}

declare void @_ZN4absl12lts_202308026Status15UnrefNonInlinedEm(i64 noundef) #1

declare noundef zeroext i1 @_ZN9grpc_core7ExecCtx5FlushEv(ptr noundef nonnull align 8 dereferenceable(88)) #1

; Function Attrs: mustprogress uwtable
define linkonce_odr void @_ZN9grpc_core4Fork15DecExecCtxCountEv() #4 comdat align 2 {
entry:
  %call = call noundef zeroext i1 @_ZNKSt6atomicIbE4loadESt12memory_order(ptr noundef nonnull align 1 dereferenceable(1) @_ZN9grpc_core4Fork16support_enabled_E, i32 noundef 0) #3
  br i1 %call, label %if.then, label %if.end

if.then:                                          ; preds = %entry
  call void @_ZN9grpc_core4Fork17DoDecExecCtxCountEv()
  br label %if.end

if.end:                                           ; preds = %if.then, %entry
  ret void
}

declare void @_ZN9grpc_core4Fork17DoDecExecCtxCountEv() #1

; Function Attrs: mustprogress uwtable
define internal void @"_ZN4absl12lts_2023080222internal_any_invocable4ImplIFvNS0_6StatusEEEC2IZN17grpc_event_engine12experimental27GrpcClosureToStatusCallbackEP12grpc_closureE3$_0EENS1_19ConversionConstructEOT_"(ptr noundef nonnull align 16 dereferenceable(32) %this, ptr noundef nonnull align 8 dereferenceable(8) %f) unnamed_addr #4 align 2 {
entry:
  %this.addr = alloca ptr, align 8
  %f.addr = alloca ptr, align 8
  store ptr %this, ptr %this.addr, align 8
  store ptr %f, ptr %f.addr, align 8
  %this1 = load ptr, ptr %this.addr, align 8
  %0 = load ptr, ptr %f.addr, align 8
  call void @"_ZN4absl12lts_2023080222internal_any_invocable8CoreImplILb0EvJNS0_6StatusEEEC2IRZN17grpc_event_engine12experimental27GrpcClosureToStatusCallbackEP12grpc_closureE3$_0SA_EENS1_24TypedConversionConstructIT_EEOT0_"(ptr noundef nonnull align 16 dereferenceable(32) %this1, ptr noundef nonnull align 8 dereferenceable(8) %0)
  ret void
}

; Function Attrs: mustprogress uwtable
define internal void @"_ZN4absl12lts_2023080222internal_any_invocable8CoreImplILb0EvJNS0_6StatusEEEC2IRZN17grpc_event_engine12experimental27GrpcClosureToStatusCallbackEP12grpc_closureE3$_0SA_EENS1_24TypedConversionConstructIT_EEOT0_"(ptr noundef nonnull align 16 dereferenceable(32) %this, ptr noundef nonnull align 8 dereferenceable(8) %f) unnamed_addr #4 align 2 {
entry:
  %this.addr = alloca ptr, align 8
  %f.addr = alloca ptr, align 8
  %kTargetType = alloca i32, align 4
  store ptr %this, ptr %this.addr, align 8
  store ptr %f, ptr %f.addr, align 8
  %this1 = load ptr, ptr %this.addr, align 8
  store i32 3, ptr %kTargetType, align 4
  %0 = load ptr, ptr %f.addr, align 8
  call void @"_ZN4absl12lts_2023080222internal_any_invocable8CoreImplILb0EvJNS0_6StatusEEE10InitializeILNS4_10TargetTypeE3ERZN17grpc_event_engine12experimental27GrpcClosureToStatusCallbackEP12grpc_closureE3$_0SB_vEEvOT1_"(ptr noundef nonnull align 16 dereferenceable(32) %this1, ptr noundef nonnull align 8 dereferenceable(8) %0)
  ret void
}

; Function Attrs: mustprogress uwtable
define internal void @"_ZN4absl12lts_2023080222internal_any_invocable8CoreImplILb0EvJNS0_6StatusEEE10InitializeILNS4_10TargetTypeE3ERZN17grpc_event_engine12experimental27GrpcClosureToStatusCallbackEP12grpc_closureE3$_0SB_vEEvOT1_"(ptr noundef nonnull align 16 dereferenceable(32) %this, ptr noundef nonnull align 8 dereferenceable(8) %f) #4 align 2 {
entry:
  %this.addr = alloca ptr, align 8
  %f.addr = alloca ptr, align 8
  store ptr %this, ptr %this.addr, align 8
  store ptr %f, ptr %f.addr, align 8
  %this1 = load ptr, ptr %this.addr, align 8
  %0 = load ptr, ptr %f.addr, align 8
  call void @"_ZN4absl12lts_2023080222internal_any_invocable8CoreImplILb0EvJNS0_6StatusEEE17InitializeStorageIRZN17grpc_event_engine12experimental27GrpcClosureToStatusCallbackEP12grpc_closureE3$_0JSA_EvEEvDpOT0_"(ptr noundef nonnull align 16 dereferenceable(32) %this1, ptr noundef nonnull align 8 dereferenceable(8) %0)
  ret void
}

; Function Attrs: mustprogress uwtable
define internal void @"_ZN4absl12lts_2023080222internal_any_invocable8CoreImplILb0EvJNS0_6StatusEEE17InitializeStorageIRZN17grpc_event_engine12experimental27GrpcClosureToStatusCallbackEP12grpc_closureE3$_0JSA_EvEEvDpOT0_"(ptr noundef nonnull align 16 dereferenceable(32) %this, ptr noundef nonnull align 8 dereferenceable(8) %args) #4 align 2 {
entry:
  %this.addr = alloca ptr, align 8
  %args.addr = alloca ptr, align 8
  store ptr %this, ptr %this.addr, align 8
  store ptr %args, ptr %args.addr, align 8
  %this1 = load ptr, ptr %this.addr, align 8
  %state_ = getelementptr inbounds %"class.absl::lts_20230802::internal_any_invocable::CoreImpl", ptr %this1, i32 0, i32 0
  %0 = load ptr, ptr %args.addr, align 8
  call void @llvm.memcpy.p0.p0.i64(ptr align 8 %state_, ptr align 8 %0, i64 8, i1 false)
  %invoker_ = getelementptr inbounds %"class.absl::lts_20230802::internal_any_invocable::CoreImpl", ptr %this1, i32 0, i32 2
  store ptr @"_ZN4absl12lts_2023080222internal_any_invocable12LocalInvokerILb0EvRZN17grpc_event_engine12experimental27GrpcClosureToStatusCallbackEP12grpc_closureE3$_0JNS0_6StatusEEEET0_PNS1_15TypeErasedStateEDpNS1_18ForwardedParameterIT2_E4typeE", ptr %invoker_, align 8
  call void @"_ZN4absl12lts_2023080222internal_any_invocable8CoreImplILb0EvJNS0_6StatusEEE22InitializeLocalManagerIZN17grpc_event_engine12experimental27GrpcClosureToStatusCallbackEP12grpc_closureE3$_0vEEvv"(ptr noundef nonnull align 16 dereferenceable(32) %this1)
  ret void
}

; Function Attrs: nocallback nofree nounwind willreturn memory(argmem: readwrite)
declare void @llvm.memcpy.p0.p0.i64(ptr noalias nocapture writeonly, ptr noalias nocapture readonly, i64, i1 immarg) #9

; Function Attrs: mustprogress uwtable
define internal void @"_ZN4absl12lts_2023080222internal_any_invocable12LocalInvokerILb0EvRZN17grpc_event_engine12experimental27GrpcClosureToStatusCallbackEP12grpc_closureE3$_0JNS0_6StatusEEEET0_PNS1_15TypeErasedStateEDpNS1_18ForwardedParameterIT2_E4typeE"(ptr noundef %state, ptr noundef nonnull align 8 dereferenceable(8) %args) #4 {
entry:
  %state.addr = alloca ptr, align 8
  %args.addr = alloca ptr, align 8
  %f = alloca ptr, align 8
  store ptr %state, ptr %state.addr, align 8
  store ptr %args, ptr %args.addr, align 8
  %0 = load ptr, ptr %state.addr, align 8
  %call = call noundef nonnull align 8 dereferenceable(8) ptr @"_ZN4absl12lts_2023080222internal_any_invocable20ObjectInLocalStorageIZN17grpc_event_engine12experimental27GrpcClosureToStatusCallbackEP12grpc_closureE3$_0EERT_PNS1_15TypeErasedStateE"(ptr noundef %0)
  store ptr %call, ptr %f, align 8
  %1 = load ptr, ptr %f, align 8
  %2 = load ptr, ptr %args.addr, align 8
  call void @"_ZN4absl12lts_2023080222internal_any_invocable7InvokeRIvRZN17grpc_event_engine12experimental27GrpcClosureToStatusCallbackEP12grpc_closureE3$_0JNS0_6StatusEEvEEvOT0_DpOT1_"(ptr noundef nonnull align 8 dereferenceable(8) %1, ptr noundef nonnull align 8 dereferenceable(8) %2)
  ret void
}

; Function Attrs: mustprogress nounwind uwtable
define internal void @"_ZN4absl12lts_2023080222internal_any_invocable8CoreImplILb0EvJNS0_6StatusEEE22InitializeLocalManagerIZN17grpc_event_engine12experimental27GrpcClosureToStatusCallbackEP12grpc_closureE3$_0vEEvv"(ptr noundef nonnull align 16 dereferenceable(32) %this) #5 align 2 {
entry:
  %this.addr = alloca ptr, align 8
  store ptr %this, ptr %this.addr, align 8
  %this1 = load ptr, ptr %this.addr, align 8
  %manager_ = getelementptr inbounds %"class.absl::lts_20230802::internal_any_invocable::CoreImpl", ptr %this1, i32 0, i32 1
  store ptr @_ZN4absl12lts_2023080222internal_any_invocable19LocalManagerTrivialENS1_14FunctionToCallEPNS1_15TypeErasedStateES4_, ptr %manager_, align 16
  ret void
}

; Function Attrs: mustprogress nounwind uwtable
define internal noundef nonnull align 8 dereferenceable(8) ptr @"_ZN4absl12lts_2023080222internal_any_invocable20ObjectInLocalStorageIZN17grpc_event_engine12experimental27GrpcClosureToStatusCallbackEP12grpc_closureE3$_0EERT_PNS1_15TypeErasedStateE"(ptr noundef %state) #5 {
entry:
  %state.addr = alloca ptr, align 8
  store ptr %state, ptr %state.addr, align 8
  %0 = load ptr, ptr %state.addr, align 8
  %call = call noundef ptr @"_ZSt7launderIZN17grpc_event_engine12experimental27GrpcClosureToStatusCallbackEP12grpc_closureE3$_0EPT_S6_"(ptr noundef %0) #3
  ret ptr %call
}

; Function Attrs: mustprogress uwtable
define internal void @"_ZN4absl12lts_2023080222internal_any_invocable7InvokeRIvRZN17grpc_event_engine12experimental27GrpcClosureToStatusCallbackEP12grpc_closureE3$_0JNS0_6StatusEEvEEvOT0_DpOT1_"(ptr noundef nonnull align 8 dereferenceable(8) %f, ptr noundef nonnull align 8 dereferenceable(8) %args) #4 {
entry:
  %f.addr = alloca ptr, align 8
  %args.addr = alloca ptr, align 8
  store ptr %f, ptr %f.addr, align 8
  store ptr %args, ptr %args.addr, align 8
  %0 = load ptr, ptr %f.addr, align 8
  %1 = load ptr, ptr %args.addr, align 8
  call void @"_ZSt6invokeIRZN17grpc_event_engine12experimental27GrpcClosureToStatusCallbackEP12grpc_closureE3$_0JN4absl12lts_202308026StatusEEENSt13invoke_resultIT_JDpT0_EE4typeEOSA_DpOSB_"(ptr noundef nonnull align 8 dereferenceable(8) %0, ptr noundef nonnull align 8 dereferenceable(8) %1)
  ret void
}

; Function Attrs: mustprogress nounwind uwtable
define internal noundef ptr @"_ZSt7launderIZN17grpc_event_engine12experimental27GrpcClosureToStatusCallbackEP12grpc_closureE3$_0EPT_S6_"(ptr noundef %__p) #5 {
entry:
  %__p.addr = alloca ptr, align 8
  store ptr %__p, ptr %__p.addr, align 8
  %0 = load ptr, ptr %__p.addr, align 8
  ret ptr %0
}

; Function Attrs: mustprogress uwtable
define internal void @"_ZSt6invokeIRZN17grpc_event_engine12experimental27GrpcClosureToStatusCallbackEP12grpc_closureE3$_0JN4absl12lts_202308026StatusEEENSt13invoke_resultIT_JDpT0_EE4typeEOSA_DpOSB_"(ptr noundef nonnull align 8 dereferenceable(8) %__fn, ptr noundef nonnull align 8 dereferenceable(8) %__args) #4 {
entry:
  %__fn.addr = alloca ptr, align 8
  %__args.addr = alloca ptr, align 8
  store ptr %__fn, ptr %__fn.addr, align 8
  store ptr %__args, ptr %__args.addr, align 8
  %0 = load ptr, ptr %__fn.addr, align 8
  %1 = load ptr, ptr %__args.addr, align 8
  call void @"_ZSt8__invokeIRZN17grpc_event_engine12experimental27GrpcClosureToStatusCallbackEP12grpc_closureE3$_0JN4absl12lts_202308026StatusEEENSt15__invoke_resultIT_JDpT0_EE4typeEOSA_DpOSB_"(ptr noundef nonnull align 8 dereferenceable(8) %0, ptr noundef nonnull align 8 dereferenceable(8) %1)
  ret void
}

; Function Attrs: mustprogress uwtable
define internal void @"_ZSt8__invokeIRZN17grpc_event_engine12experimental27GrpcClosureToStatusCallbackEP12grpc_closureE3$_0JN4absl12lts_202308026StatusEEENSt15__invoke_resultIT_JDpT0_EE4typeEOSA_DpOSB_"(ptr noundef nonnull align 8 dereferenceable(8) %__fn, ptr noundef nonnull align 8 dereferenceable(8) %__args) #4 {
entry:
  %__fn.addr = alloca ptr, align 8
  %__args.addr = alloca ptr, align 8
  store ptr %__fn, ptr %__fn.addr, align 8
  store ptr %__args, ptr %__args.addr, align 8
  %0 = load ptr, ptr %__fn.addr, align 8
  %1 = load ptr, ptr %__args.addr, align 8
  call void @"_ZSt13__invoke_implIvRZN17grpc_event_engine12experimental27GrpcClosureToStatusCallbackEP12grpc_closureE3$_0JN4absl12lts_202308026StatusEEET_St14__invoke_otherOT0_DpOT1_"(ptr noundef nonnull align 8 dereferenceable(8) %0, ptr noundef nonnull align 8 dereferenceable(8) %1)
  ret void
}

; Function Attrs: mustprogress uwtable
define internal void @"_ZSt13__invoke_implIvRZN17grpc_event_engine12experimental27GrpcClosureToStatusCallbackEP12grpc_closureE3$_0JN4absl12lts_202308026StatusEEET_St14__invoke_otherOT0_DpOT1_"(ptr noundef nonnull align 8 dereferenceable(8) %__f, ptr noundef nonnull align 8 dereferenceable(8) %__args) #4 personality ptr @__gxx_personality_v0 {
entry:
  %__f.addr = alloca ptr, align 8
  %__args.addr = alloca ptr, align 8
  %agg.tmp = alloca %"class.absl::lts_20230802::Status", align 8
  %exn.slot = alloca ptr, align 8
  %ehselector.slot = alloca i32, align 4
  store ptr %__f, ptr %__f.addr, align 8
  store ptr %__args, ptr %__args.addr, align 8
  %0 = load ptr, ptr %__f.addr, align 8
  %1 = load ptr, ptr %__args.addr, align 8
  call void @_ZN4absl12lts_202308026StatusC2EOS1_(ptr noundef nonnull align 8 dereferenceable(8) %agg.tmp, ptr noundef nonnull align 8 dereferenceable(8) %1) #3
  invoke void @"_ZZN17grpc_event_engine12experimental27GrpcClosureToStatusCallbackEP12grpc_closureENK3$_0clEN4absl12lts_202308026StatusE"(ptr noundef nonnull align 8 dereferenceable(8) %0, ptr noundef %agg.tmp)
          to label %invoke.cont unwind label %lpad

invoke.cont:                                      ; preds = %entry
  call void @_ZN4absl12lts_202308026StatusD2Ev(ptr noundef nonnull align 8 dereferenceable(8) %agg.tmp) #3
  ret void

lpad:                                             ; preds = %entry
  %2 = landingpad { ptr, i32 }
          cleanup
  %3 = extractvalue { ptr, i32 } %2, 0
  store ptr %3, ptr %exn.slot, align 8
  %4 = extractvalue { ptr, i32 } %2, 1
  store i32 %4, ptr %ehselector.slot, align 4
  call void @_ZN4absl12lts_202308026StatusD2Ev(ptr noundef nonnull align 8 dereferenceable(8) %agg.tmp) #3
  br label %eh.resume

eh.resume:                                        ; preds = %lpad
  %exn = load ptr, ptr %exn.slot, align 8
  %sel = load i32, ptr %ehselector.slot, align 4
  %lpad.val = insertvalue { ptr, i32 } poison, ptr %exn, 0
  %lpad.val1 = insertvalue { ptr, i32 } %lpad.val, i32 %sel, 1
  resume { ptr, i32 } %lpad.val1
}

; Function Attrs: mustprogress uwtable
define internal void @"_ZZN17grpc_event_engine12experimental27GrpcClosureToStatusCallbackEP12grpc_closureENK3$_0clEN4absl12lts_202308026StatusE"(ptr noundef nonnull align 8 dereferenceable(8) %this, ptr noundef %status) #4 align 2 personality ptr @__gxx_personality_v0 {
entry:
  %this.addr = alloca ptr, align 8
  %status.indirect_addr = alloca ptr, align 8
  %agg.tmp = alloca %"class.absl::lts_20230802::Status", align 8
  %agg.tmp2 = alloca %"class.absl::lts_20230802::Status", align 8
  %exn.slot = alloca ptr, align 8
  %ehselector.slot = alloca i32, align 4
  store ptr %this, ptr %this.addr, align 8
  store ptr %status, ptr %status.indirect_addr, align 8
  %this1 = load ptr, ptr %this.addr, align 8
  %0 = getelementptr inbounds %class.anon, ptr %this1, i32 0, i32 0
  %1 = load ptr, ptr %0, align 8
  call void @_ZN4absl12lts_202308026StatusC2ERKS1_(ptr noundef nonnull align 8 dereferenceable(8) %agg.tmp2, ptr noundef nonnull align 8 dereferenceable(8) %status)
  invoke void @_Z25absl_status_to_grpc_errorN4absl12lts_202308026StatusE(ptr sret(%"class.absl::lts_20230802::Status") align 8 %agg.tmp, ptr noundef %agg.tmp2)
          to label %invoke.cont unwind label %lpad

invoke.cont:                                      ; preds = %entry
  invoke void @_ZN17grpc_event_engine12experimental21RunEventEngineClosureEP12grpc_closureN4absl12lts_202308026StatusE(ptr noundef %1, ptr noundef %agg.tmp)
          to label %invoke.cont4 unwind label %lpad3

invoke.cont4:                                     ; preds = %invoke.cont
  call void @_ZN4absl12lts_202308026StatusD2Ev(ptr noundef nonnull align 8 dereferenceable(8) %agg.tmp) #3
  call void @_ZN4absl12lts_202308026StatusD2Ev(ptr noundef nonnull align 8 dereferenceable(8) %agg.tmp2) #3
  ret void

lpad:                                             ; preds = %entry
  %2 = landingpad { ptr, i32 }
          cleanup
  %3 = extractvalue { ptr, i32 } %2, 0
  store ptr %3, ptr %exn.slot, align 8
  %4 = extractvalue { ptr, i32 } %2, 1
  store i32 %4, ptr %ehselector.slot, align 4
  br label %ehcleanup

lpad3:                                            ; preds = %invoke.cont
  %5 = landingpad { ptr, i32 }
          cleanup
  %6 = extractvalue { ptr, i32 } %5, 0
  store ptr %6, ptr %exn.slot, align 8
  %7 = extractvalue { ptr, i32 } %5, 1
  store i32 %7, ptr %ehselector.slot, align 4
  call void @_ZN4absl12lts_202308026StatusD2Ev(ptr noundef nonnull align 8 dereferenceable(8) %agg.tmp) #3
  br label %ehcleanup

ehcleanup:                                        ; preds = %lpad3, %lpad
  call void @_ZN4absl12lts_202308026StatusD2Ev(ptr noundef nonnull align 8 dereferenceable(8) %agg.tmp2) #3
  br label %eh.resume

eh.resume:                                        ; preds = %ehcleanup
  %exn = load ptr, ptr %exn.slot, align 8
  %sel = load i32, ptr %ehselector.slot, align 4
  %lpad.val = insertvalue { ptr, i32 } poison, ptr %exn, 0
  %lpad.val5 = insertvalue { ptr, i32 } %lpad.val, i32 %sel, 1
  resume { ptr, i32 } %lpad.val5
}

; Function Attrs: mustprogress nounwind uwtable
define linkonce_odr void @_ZN4absl12lts_202308026StatusC2EOS1_(ptr noundef nonnull align 8 dereferenceable(8) %this, ptr noundef nonnull align 8 dereferenceable(8) %x) unnamed_addr #5 comdat align 2 personality ptr @__gxx_personality_v0 {
entry:
  %this.addr = alloca ptr, align 8
  %x.addr = alloca ptr, align 8
  store ptr %this, ptr %this.addr, align 8
  store ptr %x, ptr %x.addr, align 8
  %this1 = load ptr, ptr %this.addr, align 8
  %rep_ = getelementptr inbounds %"class.absl::lts_20230802::Status", ptr %this1, i32 0, i32 0
  %0 = load ptr, ptr %x.addr, align 8
  %rep_2 = getelementptr inbounds %"class.absl::lts_20230802::Status", ptr %0, i32 0, i32 0
  %1 = load i64, ptr %rep_2, align 8
  store i64 %1, ptr %rep_, align 8
  %call = invoke noundef i64 @_ZN4absl12lts_202308026Status12MovedFromRepEv()
          to label %invoke.cont unwind label %terminate.lpad

invoke.cont:                                      ; preds = %entry
  %2 = load ptr, ptr %x.addr, align 8
  %rep_3 = getelementptr inbounds %"class.absl::lts_20230802::Status", ptr %2, i32 0, i32 0
  store i64 %call, ptr %rep_3, align 8
  ret void

terminate.lpad:                                   ; preds = %entry
  %3 = landingpad { ptr, i32 }
          catch ptr null
  %4 = extractvalue { ptr, i32 } %3, 0
  call void @__clang_call_terminate(ptr %4) #11
  unreachable
}

declare void @_Z25absl_status_to_grpc_errorN4absl12lts_202308026StatusE(ptr sret(%"class.absl::lts_20230802::Status") align 8, ptr noundef) #1

; Function Attrs: mustprogress uwtable
define linkonce_odr noundef i64 @_ZN4absl12lts_202308026Status12MovedFromRepEv() #4 comdat align 2 {
entry:
  %call = call noundef i64 @_ZN4absl12lts_202308026Status16CodeToInlinedRepENS0_10StatusCodeE(i32 noundef 13)
  %or = or i64 %call, 2
  ret i64 %or
}

; Function Attrs: mustprogress nounwind uwtable
define linkonce_odr noundef i64 @_ZN4absl12lts_202308026Status16CodeToInlinedRepENS0_10StatusCodeE(i32 noundef %code) #5 comdat align 2 {
entry:
  %code.addr = alloca i32, align 4
  store i32 %code, ptr %code.addr, align 4
  %0 = load i32, ptr %code.addr, align 4
  %conv = sext i32 %0 to i64
  %shl = shl i64 %conv, 2
  ret i64 %shl
}

; Function Attrs: mustprogress nounwind uwtable
define linkonce_odr void @_ZN4absl12lts_2023080222internal_any_invocable19LocalManagerTrivialENS1_14FunctionToCallEPNS1_15TypeErasedStateES4_(i1 noundef zeroext %0, ptr noundef %from, ptr noundef %to) #5 comdat {
entry:
  %.addr = alloca i8, align 1
  %from.addr = alloca ptr, align 8
  %to.addr = alloca ptr, align 8
  %frombool = zext i1 %0 to i8
  store i8 %frombool, ptr %.addr, align 1
  store ptr %from, ptr %from.addr, align 8
  store ptr %to, ptr %to.addr, align 8
  %1 = load ptr, ptr %from.addr, align 8
  %2 = load ptr, ptr %to.addr, align 8
  call void @llvm.memcpy.p0.p0.i64(ptr align 16 %2, ptr align 16 %1, i64 16, i1 false)
  ret void
}

; Function Attrs: uwtable
define internal void @_GLOBAL__sub_I_closure.cc() #0 section ".text.startup" {
entry:
  call void @__cxx_global_var_init()
  ret void
}

declare extern_weak void @_ZTHN9grpc_core26ApplicationCallbackExecCtx18callback_exec_ctx_E() #1

; Function Attrs: nocallback nofree nosync nounwind speculatable willreturn memory(none)
declare nonnull ptr @llvm.threadlocal.address.p0(ptr nonnull) #10

declare extern_weak void @_ZTHN9grpc_core9Timestamp25thread_local_time_source_E() #1

declare extern_weak void @_ZTHN9grpc_core7ExecCtx9exec_ctx_E() #1

attributes #0 = { uwtable "frame-pointer"="all" "min-legal-vector-width"="0" "no-trapping-math"="true" "stack-protector-buffer-size"="8" "target-cpu"="x86-64" "target-features"="+cmov,+cx8,+fxsr,+mmx,+sse,+sse2,+x87" "tune-cpu"="generic" }
attributes #1 = { "frame-pointer"="all" "no-trapping-math"="true" "stack-protector-buffer-size"="8" "target-cpu"="x86-64" "target-features"="+cmov,+cx8,+fxsr,+mmx,+sse,+sse2,+x87" "tune-cpu"="generic" }
attributes #2 = { nounwind "frame-pointer"="all" "no-trapping-math"="true" "stack-protector-buffer-size"="8" "target-cpu"="x86-64" "target-features"="+cmov,+cx8,+fxsr,+mmx,+sse,+sse2,+x87" "tune-cpu"="generic" }
attributes #3 = { nounwind }
attributes #4 = { mustprogress uwtable "frame-pointer"="all" "min-legal-vector-width"="0" "no-trapping-math"="true" "stack-protector-buffer-size"="8" "target-cpu"="x86-64" "target-features"="+cmov,+cx8,+fxsr,+mmx,+sse,+sse2,+x87" "tune-cpu"="generic" }
attributes #5 = { mustprogress nounwind uwtable "frame-pointer"="all" "min-legal-vector-width"="0" "no-trapping-math"="true" "stack-protector-buffer-size"="8" "target-cpu"="x86-64" "target-features"="+cmov,+cx8,+fxsr,+mmx,+sse,+sse2,+x87" "tune-cpu"="generic" }
attributes #6 = { uwtable "frame-pointer"="all" "no-trapping-math"="true" "stack-protector-buffer-size"="8" "target-cpu"="x86-64" "target-features"="+cmov,+cx8,+fxsr,+mmx,+sse,+sse2,+x87" "tune-cpu"="generic" }
attributes #7 = { noreturn nounwind uwtable "frame-pointer"="all" "no-trapping-math"="true" "stack-protector-buffer-size"="8" "target-cpu"="x86-64" "target-features"="+cmov,+cx8,+fxsr,+mmx,+sse,+sse2,+x87" "tune-cpu"="generic" }
attributes #8 = { noreturn nounwind "frame-pointer"="all" "no-trapping-math"="true" "stack-protector-buffer-size"="8" "target-cpu"="x86-64" "target-features"="+cmov,+cx8,+fxsr,+mmx,+sse,+sse2,+x87" "tune-cpu"="generic" }
attributes #9 = { nocallback nofree nounwind willreturn memory(argmem: readwrite) }
attributes #10 = { nocallback nofree nosync nounwind speculatable willreturn memory(none) }
attributes #11 = { noreturn nounwind }

!llvm.module.flags = !{!0, !1, !2, !3}

!0 = !{i32 1, !"wchar_size", i32 4}
!1 = !{i32 8, !"PIC Level", i32 2}
!2 = !{i32 7, !"uwtable", i32 2}
!3 = !{i32 7, !"frame-pointer", i32 2}
!4 = distinct !{!4, !5}
!5 = !{!"llvm.loop.mustprogress"}
