target datalayout = "e-m:e-p270:32:32-p271:32:32-p272:64:64-i64:64-i128:128-f80:128-n8:16:32:64-S128"
target triple = "x86_64-unknown-linux-gnu"

%"class.std::ios_base::Init" = type { i8 }
%"struct.std::in_place_index_t" = type { i8 }
%"struct.std::piecewise_construct_t" = type { i8 }
%"struct.std::in_place_index_t.62" = type { i8 }
%"struct.std::in_place_index_t.64" = type { i8 }
%"struct.std::in_place_index_t.66" = type { i8 }
%"struct.std::in_place_index_t.68" = type { i8 }
%"struct.std::in_place_index_t.70" = type { i8 }
%"struct.std::in_place_t" = type { i8 }
%"class.absl::lts_20230802::StatusOr" = type { %"class.absl::lts_20230802::internal_statusor::StatusOrData" }
%"class.absl::lts_20230802::internal_statusor::StatusOrData" = type { %union.anon, %union.anon.0 }
%union.anon = type { %"class.absl::lts_20230802::Status" }
%"class.absl::lts_20230802::Status" = type { i64 }
%union.anon.0 = type { %"class.grpc_core::experimental::Json" }
%"class.grpc_core::experimental::Json" = type { %"class.std::variant" }
%"class.std::variant" = type { %"struct.std::__detail::__variant::_Variant_base.base", [7 x i8] }
%"struct.std::__detail::__variant::_Variant_base.base" = type { %"struct.std::__detail::__variant::_Move_assign_base.base" }
%"struct.std::__detail::__variant::_Move_assign_base.base" = type { %"struct.std::__detail::__variant::_Copy_assign_base.base" }
%"struct.std::__detail::__variant::_Copy_assign_base.base" = type { %"struct.std::__detail::__variant::_Move_ctor_base.base" }
%"struct.std::__detail::__variant::_Move_ctor_base.base" = type { %"struct.std::__detail::__variant::_Copy_ctor_base.base" }
%"struct.std::__detail::__variant::_Copy_ctor_base.base" = type { %"struct.std::__detail::__variant::_Variant_storage.base" }
%"struct.std::__detail::__variant::_Variant_storage.base" = type { %"union.std::__detail::__variant::_Variadic_union", i8 }
%"union.std::__detail::__variant::_Variadic_union" = type { %"union.std::__detail::__variant::_Variadic_union.1" }
%"union.std::__detail::__variant::_Variadic_union.1" = type { %"union.std::__detail::__variant::_Variadic_union.3" }
%"union.std::__detail::__variant::_Variadic_union.3" = type { %"union.std::__detail::__variant::_Variadic_union.5" }
%"union.std::__detail::__variant::_Variadic_union.5" = type { %"union.std::__detail::__variant::_Variadic_union.8" }
%"union.std::__detail::__variant::_Variadic_union.8" = type { %"struct.std::__detail::__variant::_Uninitialized.9" }
%"struct.std::__detail::__variant::_Uninitialized.9" = type { %"struct.__gnu_cxx::__aligned_membuf.10" }
%"struct.__gnu_cxx::__aligned_membuf.10" = type { [48 x i8] }
%"class.std::basic_string_view" = type { i64, ptr }
%"class.grpc_core::(anonymous namespace)::JsonReader" = type { ptr, ptr, i64, i32, i8, i8, i16, i16, %"class.std::vector", i8, i8, i8, [5 x i8], %"class.grpc_core::experimental::Json", %"class.std::vector.15", %"class.std::__cxx11::basic_string", %"class.std::__cxx11::basic_string" }
%"class.std::vector" = type { %"struct.std::_Vector_base" }
%"struct.std::_Vector_base" = type { %"struct.std::_Vector_base<std::__cxx11::basic_string<char>, std::allocator<std::__cxx11::basic_string<char>>>::_Vector_impl" }
%"struct.std::_Vector_base<std::__cxx11::basic_string<char>, std::allocator<std::__cxx11::basic_string<char>>>::_Vector_impl" = type { %"struct.std::_Vector_base<std::__cxx11::basic_string<char>, std::allocator<std::__cxx11::basic_string<char>>>::_Vector_impl_data" }
%"struct.std::_Vector_base<std::__cxx11::basic_string<char>, std::allocator<std::__cxx11::basic_string<char>>>::_Vector_impl_data" = type { ptr, ptr, ptr }
%"class.std::vector.15" = type { %"struct.std::_Vector_base.16" }
%"struct.std::_Vector_base.16" = type { %"struct.std::_Vector_base<grpc_core::(anonymous namespace)::JsonReader::Scope, std::allocator<grpc_core::(anonymous namespace)::JsonReader::Scope>>::_Vector_impl" }
%"struct.std::_Vector_base<grpc_core::(anonymous namespace)::JsonReader::Scope, std::allocator<grpc_core::(anonymous namespace)::JsonReader::Scope>>::_Vector_impl" = type { %"struct.std::_Vector_base<grpc_core::(anonymous namespace)::JsonReader::Scope, std::allocator<grpc_core::(anonymous namespace)::JsonReader::Scope>>::_Vector_impl_data" }
%"struct.std::_Vector_base<grpc_core::(anonymous namespace)::JsonReader::Scope, std::allocator<grpc_core::(anonymous namespace)::JsonReader::Scope>>::_Vector_impl_data" = type { ptr, ptr, ptr }
%"class.std::__cxx11::basic_string" = type { %"struct.std::__cxx11::basic_string<char>::_Alloc_hider", i64, %union.anon.23 }
%"struct.std::__cxx11::basic_string<char>::_Alloc_hider" = type { ptr }
%union.anon.23 = type { i64, [8 x i8] }
%"class.std::allocator.20" = type { i8 }
%"class.absl::lts_20230802::AlphaNum" = type { %"class.std::basic_string_view", [32 x i8] }
%"class.__gnu_cxx::__normal_iterator.108" = type { ptr }
%"struct.std::__detail::__variant::_Variant_storage" = type { %"union.std::__detail::__variant::_Variadic_union", i8, [7 x i8] }
%"class.__gnu_cxx::__normal_iterator.80" = type { ptr }
%"class.__gnu_cxx::__normal_iterator.81" = type { ptr }
%"struct.grpc_core::(anonymous namespace)::JsonReader::Scope" = type { %"class.std::__cxx11::basic_string", %"class.std::variant.24" }
%"class.std::variant.24" = type { %"struct.std::__detail::__variant::_Variant_base.base.36", [7 x i8] }
%"struct.std::__detail::__variant::_Variant_base.base.36" = type { %"struct.std::__detail::__variant::_Move_assign_base.base.35" }
%"struct.std::__detail::__variant::_Move_assign_base.base.35" = type { %"struct.std::__detail::__variant::_Copy_assign_base.base.34" }
%"struct.std::__detail::__variant::_Copy_assign_base.base.34" = type { %"struct.std::__detail::__variant::_Move_ctor_base.base.33" }
%"struct.std::__detail::__variant::_Move_ctor_base.base.33" = type { %"struct.std::__detail::__variant::_Copy_ctor_base.base.32" }
%"struct.std::__detail::__variant::_Copy_ctor_base.base.32" = type { %"struct.std::__detail::__variant::_Variant_storage.base.31" }
%"struct.std::__detail::__variant::_Variant_storage.base.31" = type { %"union.std::__detail::__variant::_Variadic_union.8", i8 }
%"struct.std::_Rb_tree_const_iterator" = type { ptr }
%"class.absl::lts_20230802::str_format_internal::FormatSpecTemplate" = type { %"class.absl::lts_20230802::UntypedFormatSpec" }
%"class.absl::lts_20230802::UntypedFormatSpec" = type { %"class.absl::lts_20230802::str_format_internal::UntypedFormatSpecImpl" }
%"class.absl::lts_20230802::str_format_internal::UntypedFormatSpecImpl" = type { ptr, i64 }
%"class.absl::lts_20230802::str_format_internal::FormatSpecTemplate.106" = type { %"class.absl::lts_20230802::UntypedFormatSpec" }
%"class.std::map" = type { %"class.std::_Rb_tree" }
%"class.std::_Rb_tree" = type { %"struct.std::_Rb_tree<std::__cxx11::basic_string<char>, std::pair<const std::__cxx11::basic_string<char>, grpc_core::experimental::Json>, std::_Select1st<std::pair<const std::__cxx11::basic_string<char>, grpc_core::experimental::Json>>, std::less<std::__cxx11::basic_string<char>>>::_Rb_tree_impl" }
%"struct.std::_Rb_tree<std::__cxx11::basic_string<char>, std::pair<const std::__cxx11::basic_string<char>, grpc_core::experimental::Json>, std::_Select1st<std::pair<const std::__cxx11::basic_string<char>, grpc_core::experimental::Json>>, std::less<std::__cxx11::basic_string<char>>>::_Rb_tree_impl" = type { %"struct.std::_Rb_tree_key_compare", %"struct.std::_Rb_tree_header" }
%"struct.std::_Rb_tree_key_compare" = type { %"struct.std::less" }
%"struct.std::less" = type { i8 }
%"struct.std::_Rb_tree_header" = type { %"struct.std::_Rb_tree_node_base", i64 }
%"struct.std::_Rb_tree_node_base" = type { i32, ptr, ptr, ptr }
%"class.std::vector.53" = type { %"struct.std::_Vector_base.54" }
%"struct.std::_Vector_base.54" = type { %"struct.std::_Vector_base<grpc_core::experimental::Json, std::allocator<grpc_core::experimental::Json>>::_Vector_impl" }
%"struct.std::_Vector_base<grpc_core::experimental::Json, std::allocator<grpc_core::experimental::Json>>::_Vector_impl" = type { %"struct.std::_Vector_base<grpc_core::experimental::Json, std::allocator<grpc_core::experimental::Json>>::_Vector_impl_data" }
%"struct.std::_Vector_base<grpc_core::experimental::Json, std::allocator<grpc_core::experimental::Json>>::_Vector_impl_data" = type { ptr, ptr, ptr }
%class.anon = type { ptr }
%"struct.grpc_core::experimental::Json::NumberValue" = type { %"class.std::__cxx11::basic_string" }
%"struct.std::monostate" = type { i8 }
%class.anon.41 = type { i8 }
%"struct.grpc_core::detail::MatchPointerExtractor" = type { %"struct.grpc_core::OverloadType" }
%"struct.grpc_core::OverloadType" = type { %class.anon }
%class.anon.43 = type { i8 }
%"struct.std::__detail::__variant::_Variant_storage.30" = type { %"union.std::__detail::__variant::_Variadic_union.8", i8, [7 x i8] }
%"class.std::bad_variant_access" = type { %"class.std::exception", ptr }
%"class.std::exception" = type { ptr }
%"struct.std::_Rb_tree_iterator" = type { ptr }
%"class.std::tuple" = type { %"struct.std::_Tuple_impl" }
%"struct.std::_Tuple_impl" = type { %"struct.std::_Head_base" }
%"struct.std::_Head_base" = type { ptr }
%"class.std::tuple.48" = type { i8 }
%"struct.std::pair" = type { %"class.std::__cxx11::basic_string", %"class.grpc_core::experimental::Json" }
%"struct.std::_Rb_tree<std::__cxx11::basic_string<char>, std::pair<const std::__cxx11::basic_string<char>, grpc_core::experimental::Json>, std::_Select1st<std::pair<const std::__cxx11::basic_string<char>, grpc_core::experimental::Json>>, std::less<std::__cxx11::basic_string<char>>>::_Auto_node" = type { ptr, ptr }
%"struct.std::pair.50" = type { ptr, ptr }
%"struct.std::_Select1st" = type { i8 }
%"struct.std::_Rb_tree_node" = type { %"struct.std::_Rb_tree_node_base", %"struct.__gnu_cxx::__aligned_membuf.49" }
%"struct.__gnu_cxx::__aligned_membuf.49" = type { [88 x i8] }
%"class.__gnu_cxx::__normal_iterator" = type { ptr }
%class.anon.58 = type { ptr }
%class.anon.59 = type { i8 }
%"struct.std::integral_constant" = type { i8 }
%"struct.std::integral_constant.61" = type { i8 }
%"struct.std::integral_constant.63" = type { i8 }
%"struct.std::integral_constant.65" = type { i8 }
%"struct.std::integral_constant.67" = type { i8 }
%"struct.std::integral_constant.69" = type { i8 }
%"struct.std::__detail::__variant::__variant_cookie" = type { i8 }
%"struct.std::integral_constant.71" = type { i8 }
%"struct.std::__detail::__variant::_Uninitialized" = type { %"struct.std::monostate" }
%"struct.std::__detail::__variant::_Uninitialized.2" = type { i8 }
%"struct.std::__detail::__variant::_Uninitialized.4" = type { %"struct.__gnu_cxx::__aligned_membuf" }
%"struct.__gnu_cxx::__aligned_membuf" = type { [32 x i8] }
%"struct.std::__detail::__variant::_Uninitialized.6" = type { %"struct.__gnu_cxx::__aligned_membuf.7" }
%"struct.__gnu_cxx::__aligned_membuf.7" = type { [32 x i8] }
%"struct.std::__detail::__variant::_Uninitialized.12" = type { %"struct.__gnu_cxx::__aligned_membuf.13" }
%"struct.__gnu_cxx::__aligned_membuf.13" = type { [24 x i8] }
%class.anon.72 = type { i8 }
%class.anon.74 = type { i8 }
%class.anon.76 = type { ptr }
%class.anon.77 = type { i8 }
%"class.std::allocator.55" = type { i8 }
%"struct.grpc_core::OverloadType.86" = type { i8 }
%class.anon.82 = type { i8 }
%class.anon.84 = type { i8 }
%class.anon.88 = type { i8 }
%class.anon.90 = type { ptr }
%class.anon.91 = type { i8 }
%class.anon.93 = type { i8 }
%class.anon.95 = type { i8 }
%"struct.grpc_core::detail::MatchPointerExtractor.97" = type { %"struct.grpc_core::OverloadType.98" }
%"struct.grpc_core::OverloadType.98" = type { i8 }
%class.anon.100 = type { i8 }
%class.anon.102 = type { i8 }
%class.anon.104 = type { i8 }
%"class.absl::lts_20230802::Span" = type { ptr, i64 }
%"class.std::initializer_list" = type { ptr, i64 }
%"class.absl::lts_20230802::str_format_internal::FormatArgImpl" = type { %"union.absl::lts_20230802::str_format_internal::FormatArgImpl::Data", ptr }
%"union.absl::lts_20230802::str_format_internal::FormatArgImpl::Data" = type { ptr }
%"class.__gnu_cxx::__normal_iterator.107" = type { ptr }
%struct._Guard = type { ptr }
%"class.__gnu_cxx::__normal_iterator.109" = type { ptr }

$_ZNSt6vectorINSt7__cxx1112basic_stringIcSt11char_traitsIcESaIcEEESaIS5_EE9push_backEOS5_ = comdat any

$_ZNSt7__cxx1112basic_stringIcSt11char_traitsIcESaIcEEC2IS3_EEPKcRKS3_ = comdat any

$_ZN4absl12lts_202308028AlphaNumC2EPKc = comdat any

$_ZN4absl12lts_202308028AlphaNumC2Em = comdat any

$_ZNKSt6vectorINSt7__cxx1112basic_stringIcSt11char_traitsIcESaIcEEESaIS5_EE5emptyEv = comdat any

$_ZN4absl12lts_202308027StrJoinISt6vectorINSt7__cxx1112basic_stringIcSt11char_traitsIcESaIcEEESaIS8_EEEES8_RKT_St17basic_string_viewIcS6_E = comdat any

$_ZNSt17basic_string_viewIcSt11char_traitsIcEEC2EPKc = comdat any

$_ZN4absl12lts_202308028AlphaNumC2ISaIcEEERKNSt7__cxx1112basic_stringIcSt11char_traitsIcET_EE = comdat any

$_ZN4absl12lts_202308028StatusOrIN9grpc_core12experimental4JsonEEC2INS0_6StatusETnNSt9enable_ifIXsr4absl11conjunctionISt14is_convertibleIOT_S7_ESt16is_constructibleIS7_JSB_EENS0_8negationISt7is_sameINSt5decayISA_E4typeES5_EEENSF_ISG_ISJ_S4_EEENSF_ISG_ISJ_St10in_place_tEEENSF_INS0_17internal_statusor31HasConversionOperatorToStatusOrIS4_SB_vEEEEEE5valueEiE4typeELi0EEESB_ = comdat any

$_ZN4absl12lts_202308026StatusD2Ev = comdat any

$_ZN4absl12lts_202308028StatusOrIN9grpc_core12experimental4JsonEEC2IS4_TnNSt9enable_ifIXsr4absl11conjunctionINS0_11disjunctionIJSt7is_sameIS4_NS0_12remove_cvrefIOT_E4typeEENS0_8negationINS8_IJS9_IS5_SE_ES9_INS0_6StatusESE_ES9_ISt10in_place_tSE_ENS0_17internal_statusor31IsDirectInitializationAmbiguousIS4_SC_EEEEEEEEEESt16is_constructibleIS4_JSC_EESt14is_convertibleISC_S4_ENS8_IJS9_INSA_ISB_E4typeES4_ENS0_11conjunctionIJNSG_ISU_ISC_SI_EEENSG_INSM_31HasConversionOperatorToStatusOrIS4_SC_vEEEEEEEEEEEE5valueEiE4typeELi0EEESC_ = comdat any

$_ZNKSt17basic_string_viewIcSt11char_traitsIcEE4dataEv = comdat any

$_ZNKSt17basic_string_viewIcSt11char_traitsIcEE4sizeEv = comdat any

$_ZNSt6vectorINSt7__cxx1112basic_stringIcSt11char_traitsIcESaIcEEESaIS5_EEC2Ev = comdat any

$_ZN9grpc_core12experimental4JsonC2Ev = comdat any

$_ZNSt12_Vector_baseINSt7__cxx1112basic_stringIcSt11char_traitsIcESaIcEEESaIS5_EEC2Ev = comdat any

$_ZNSt12_Vector_baseINSt7__cxx1112basic_stringIcSt11char_traitsIcESaIcEEESaIS5_EE12_Vector_implC2Ev = comdat any

$_ZNSaINSt7__cxx1112basic_stringIcSt11char_traitsIcESaIcEEEEC2Ev = comdat any

$_ZNSt12_Vector_baseINSt7__cxx1112basic_stringIcSt11char_traitsIcESaIcEEESaIS5_EE17_Vector_impl_dataC2Ev = comdat any

$_ZNSt15__new_allocatorINSt7__cxx1112basic_stringIcSt11char_traitsIcESaIcEEEEC2Ev = comdat any

$_ZNSt7variantIJSt9monostatebN9grpc_core12experimental4Json11NumberValueENSt7__cxx1112basic_stringIcSt11char_traitsIcESaIcEEESt3mapISA_S3_St4lessISA_ESaISt4pairIKSA_S3_EEESt6vectorIS3_SaIS3_EEEEC2Ev = comdat any

$_ZNSt8__detail9__variant13_Variant_baseIJSt9monostatebN9grpc_core12experimental4Json11NumberValueENSt7__cxx1112basic_stringIcSt11char_traitsIcESaIcEEESt3mapISC_S5_St4lessISC_ESaISt4pairIKSC_S5_EEESt6vectorIS5_SaIS5_EEEEC2Ev = comdat any

$_ZNSt8__detail9__variant13_Variant_baseIJSt9monostatebN9grpc_core12experimental4Json11NumberValueENSt7__cxx1112basic_stringIcSt11char_traitsIcESaIcEEESt3mapISC_S5_St4lessISC_ESaISt4pairIKSC_S5_EEESt6vectorIS5_SaIS5_EEEEC2ILm0EJEEESt16in_place_index_tIXT_EEDpOT0_ = comdat any

$__clang_call_terminate = comdat any

$_ZNSt8__detail9__variant17_Move_assign_baseILb0EJSt9monostatebN9grpc_core12experimental4Json11NumberValueENSt7__cxx1112basic_stringIcSt11char_traitsIcESaIcEEESt3mapISC_S5_St4lessISC_ESaISt4pairIKSC_S5_EEESt6vectorIS5_SaIS5_EEEECI2NS0_16_Variant_storageILb0EJS2_bS6_SC_SK_SN_EEEILm0EJEEESt16in_place_index_tIXT_EEDpOT0_ = comdat any

$_ZNSt8__detail9__variant17_Copy_assign_baseILb0EJSt9monostatebN9grpc_core12experimental4Json11NumberValueENSt7__cxx1112basic_stringIcSt11char_traitsIcESaIcEEESt3mapISC_S5_St4lessISC_ESaISt4pairIKSC_S5_EEESt6vectorIS5_SaIS5_EEEECI2NS0_16_Variant_storageILb0EJS2_bS6_SC_SK_SN_EEEILm0EJEEESt16in_place_index_tIXT_EEDpOT0_ = comdat any

$_ZNSt8__detail9__variant15_Move_ctor_baseILb0EJSt9monostatebN9grpc_core12experimental4Json11NumberValueENSt7__cxx1112basic_stringIcSt11char_traitsIcESaIcEEESt3mapISC_S5_St4lessISC_ESaISt4pairIKSC_S5_EEESt6vectorIS5_SaIS5_EEEECI2NS0_16_Variant_storageILb0EJS2_bS6_SC_SK_SN_EEEILm0EJEEESt16in_place_index_tIXT_EEDpOT0_ = comdat any

$_ZNSt8__detail9__variant15_Copy_ctor_baseILb0EJSt9monostatebN9grpc_core12experimental4Json11NumberValueENSt7__cxx1112basic_stringIcSt11char_traitsIcESaIcEEESt3mapISC_S5_St4lessISC_ESaISt4pairIKSC_S5_EEESt6vectorIS5_SaIS5_EEEECI2NS0_16_Variant_storageILb0EJS2_bS6_SC_SK_SN_EEEILm0EJEEESt16in_place_index_tIXT_EEDpOT0_ = comdat any

$_ZNSt8__detail9__variant16_Variant_storageILb0EJSt9monostatebN9grpc_core12experimental4Json11NumberValueENSt7__cxx1112basic_stringIcSt11char_traitsIcESaIcEEESt3mapISC_S5_St4lessISC_ESaISt4pairIKSC_S5_EEESt6vectorIS5_SaIS5_EEEEC2ILm0EJEEESt16in_place_index_tIXT_EEDpOT0_ = comdat any

$_ZNSt8__detail9__variant15_Variadic_unionIJSt9monostatebN9grpc_core12experimental4Json11NumberValueENSt7__cxx1112basic_stringIcSt11char_traitsIcESaIcEEESt3mapISC_S5_St4lessISC_ESaISt4pairIKSC_S5_EEESt6vectorIS5_SaIS5_EEEEC2IJEEESt16in_place_index_tILm0EEDpOT_ = comdat any

$_ZNSt8__detail9__variant14_UninitializedISt9monostateLb1EEC2IJEEESt16in_place_index_tILm0EEDpOT_ = comdat any

$_ZN9grpc_core12experimental4Json10FromNumberEONSt7__cxx1112basic_stringIcSt11char_traitsIcESaIcEEE = comdat any

$_ZN9grpc_core12experimental4JsonaSEOS1_ = comdat any

$_ZN9grpc_core12experimental4JsonD2Ev = comdat any

$_ZNSt8__detail9__variant4__asIJSt3mapINSt7__cxx1112basic_stringIcSt11char_traitsIcESaIcEEEN9grpc_core12experimental4JsonESt4lessIS8_ESaISt4pairIKS8_SB_EEESt6vectorISB_SaISB_EEEEERSt7variantIJDpT_EESQ_ = comdat any

$_ZNKSt7variantIJSt3mapINSt7__cxx1112basic_stringIcSt11char_traitsIcESaIcEEEN9grpc_core12experimental4JsonESt4lessIS6_ESaISt4pairIKS6_S9_EEESt6vectorIS9_SaIS9_EEEE22valueless_by_exceptionEv = comdat any

$_ZSt26__throw_bad_variant_accessPKc = comdat any

$_ZNKSt8__detail9__variant16_Variant_storageILb0EJSt3mapINSt7__cxx1112basic_stringIcSt11char_traitsIcESaIcEEEN9grpc_core12experimental4JsonESt4lessIS8_ESaISt4pairIKS8_SB_EEESt6vectorISB_SaISB_EEEE8_M_validEv = comdat any

$_ZNSt18bad_variant_accessC2EPKc = comdat any

$_ZNSt18bad_variant_accessD2Ev = comdat any

$_ZNSt9exceptionC2Ev = comdat any

$_ZNSt18bad_variant_accessD0Ev = comdat any

$_ZNKSt18bad_variant_access4whatEv = comdat any

$_ZNKSt7variantIJSt3mapINSt7__cxx1112basic_stringIcSt11char_traitsIcESaIcEEEN9grpc_core12experimental4JsonESt4lessIS6_ESaISt4pairIKS6_S9_EEESt6vectorIS9_SaIS9_EEEE5indexEv = comdat any

$_ZNSt3mapINSt7__cxx1112basic_stringIcSt11char_traitsIcESaIcEEEN9grpc_core12experimental4JsonESt4lessIS5_ESaISt4pairIKS5_S8_EEEixEOS5_ = comdat any

$_ZNSt3mapINSt7__cxx1112basic_stringIcSt11char_traitsIcESaIcEEEN9grpc_core12experimental4JsonESt4lessIS5_ESaISt4pairIKS5_S8_EEE11lower_boundERSC_ = comdat any

$_ZSteqRKSt17_Rb_tree_iteratorISt4pairIKNSt7__cxx1112basic_stringIcSt11char_traitsIcESaIcEEEN9grpc_core12experimental4JsonEEESE_ = comdat any

$_ZNSt3mapINSt7__cxx1112basic_stringIcSt11char_traitsIcESaIcEEEN9grpc_core12experimental4JsonESt4lessIS5_ESaISt4pairIKS5_S8_EEE3endEv = comdat any

$_ZNKSt3mapINSt7__cxx1112basic_stringIcSt11char_traitsIcESaIcEEEN9grpc_core12experimental4JsonESt4lessIS5_ESaISt4pairIKS5_S8_EEE8key_compEv = comdat any

$_ZNKSt4lessINSt7__cxx1112basic_stringIcSt11char_traitsIcESaIcEEEEclERKS5_S8_ = comdat any

$_ZNKSt17_Rb_tree_iteratorISt4pairIKNSt7__cxx1112basic_stringIcSt11char_traitsIcESaIcEEEN9grpc_core12experimental4JsonEEEdeEv = comdat any

$_ZNSt8_Rb_treeINSt7__cxx1112basic_stringIcSt11char_traitsIcESaIcEEESt4pairIKS5_N9grpc_core12experimental4JsonEESt10_Select1stISB_ESt4lessIS5_ESaISB_EE22_M_emplace_hint_uniqueIJRKSt21piecewise_construct_tSt5tupleIJOS5_EESM_IJEEEEESt17_Rb_tree_iteratorISB_ESt23_Rb_tree_const_iteratorISB_EDpOT_ = comdat any

$_ZNSt23_Rb_tree_const_iteratorISt4pairIKNSt7__cxx1112basic_stringIcSt11char_traitsIcESaIcEEEN9grpc_core12experimental4JsonEEEC2ERKSt17_Rb_tree_iteratorISB_E = comdat any

$_ZSt16forward_as_tupleIJNSt7__cxx1112basic_stringIcSt11char_traitsIcESaIcEEEEESt5tupleIJDpOT_EES9_ = comdat any

$_ZNSt8_Rb_treeINSt7__cxx1112basic_stringIcSt11char_traitsIcESaIcEEESt4pairIKS5_N9grpc_core12experimental4JsonEESt10_Select1stISB_ESt4lessIS5_ESaISB_EE11lower_boundERS7_ = comdat any

$_ZNSt8_Rb_treeINSt7__cxx1112basic_stringIcSt11char_traitsIcESaIcEEESt4pairIKS5_N9grpc_core12experimental4JsonEESt10_Select1stISB_ESt4lessIS5_ESaISB_EE14_M_lower_boundEPSt13_Rb_tree_nodeISB_EPSt18_Rb_tree_node_baseRS7_ = comdat any

$_ZNSt8_Rb_treeINSt7__cxx1112basic_stringIcSt11char_traitsIcESaIcEEESt4pairIKS5_N9grpc_core12experimental4JsonEESt10_Select1stISB_ESt4lessIS5_ESaISB_EE8_M_beginEv = comdat any

$_ZNSt8_Rb_treeINSt7__cxx1112basic_stringIcSt11char_traitsIcESaIcEEESt4pairIKS5_N9grpc_core12experimental4JsonEESt10_Select1stISB_ESt4lessIS5_ESaISB_EE6_M_endEv = comdat any

$_ZNSt8_Rb_treeINSt7__cxx1112basic_stringIcSt11char_traitsIcESaIcEEESt4pairIKS5_N9grpc_core12experimental4JsonEESt10_Select1stISB_ESt4lessIS5_ESaISB_EE6_S_keyEPKSt13_Rb_tree_nodeISB_E = comdat any

$_ZNSt8_Rb_treeINSt7__cxx1112basic_stringIcSt11char_traitsIcESaIcEEESt4pairIKS5_N9grpc_core12experimental4JsonEESt10_Select1stISB_ESt4lessIS5_ESaISB_EE7_S_leftEPSt18_Rb_tree_node_base = comdat any

$_ZNSt8_Rb_treeINSt7__cxx1112basic_stringIcSt11char_traitsIcESaIcEEESt4pairIKS5_N9grpc_core12experimental4JsonEESt10_Select1stISB_ESt4lessIS5_ESaISB_EE8_S_rightEPSt18_Rb_tree_node_base = comdat any

$_ZNSt17_Rb_tree_iteratorISt4pairIKNSt7__cxx1112basic_stringIcSt11char_traitsIcESaIcEEEN9grpc_core12experimental4JsonEEEC2EPSt18_Rb_tree_node_base = comdat any

$_ZNKSt10_Select1stISt4pairIKNSt7__cxx1112basic_stringIcSt11char_traitsIcESaIcEEEN9grpc_core12experimental4JsonEEEclERKSB_ = comdat any

$_ZNKSt13_Rb_tree_nodeISt4pairIKNSt7__cxx1112basic_stringIcSt11char_traitsIcESaIcEEEN9grpc_core12experimental4JsonEEE9_M_valptrEv = comdat any

$_ZNK9__gnu_cxx16__aligned_membufISt4pairIKNSt7__cxx1112basic_stringIcSt11char_traitsIcESaIcEEEN9grpc_core12experimental4JsonEEE6_M_ptrEv = comdat any

$_ZNK9__gnu_cxx16__aligned_membufISt4pairIKNSt7__cxx1112basic_stringIcSt11char_traitsIcESaIcEEEN9grpc_core12experimental4JsonEEE7_M_addrEv = comdat any

$_ZNKSt8_Rb_treeINSt7__cxx1112basic_stringIcSt11char_traitsIcESaIcEEESt4pairIKS5_N9grpc_core12experimental4JsonEESt10_Select1stISB_ESt4lessIS5_ESaISB_EE9_M_mbeginEv = comdat any

$_ZNSt8_Rb_treeINSt7__cxx1112basic_stringIcSt11char_traitsIcESaIcEEESt4pairIKS5_N9grpc_core12experimental4JsonEESt10_Select1stISB_ESt4lessIS5_ESaISB_EE3endEv = comdat any

$_ZNKSt8_Rb_treeINSt7__cxx1112basic_stringIcSt11char_traitsIcESaIcEEESt4pairIKS5_N9grpc_core12experimental4JsonEESt10_Select1stISB_ESt4lessIS5_ESaISB_EE8key_compEv = comdat any

$_ZStltIcSt11char_traitsIcESaIcEEbRKNSt7__cxx1112basic_stringIT_T0_T1_EESA_ = comdat any

$_ZNSt13_Rb_tree_nodeISt4pairIKNSt7__cxx1112basic_stringIcSt11char_traitsIcESaIcEEEN9grpc_core12experimental4JsonEEE9_M_valptrEv = comdat any

$_ZN9__gnu_cxx16__aligned_membufISt4pairIKNSt7__cxx1112basic_stringIcSt11char_traitsIcESaIcEEEN9grpc_core12experimental4JsonEEE6_M_ptrEv = comdat any

$_ZN9__gnu_cxx16__aligned_membufISt4pairIKNSt7__cxx1112basic_stringIcSt11char_traitsIcESaIcEEEN9grpc_core12experimental4JsonEEE7_M_addrEv = comdat any

$_ZNSt8_Rb_treeINSt7__cxx1112basic_stringIcSt11char_traitsIcESaIcEEESt4pairIKS5_N9grpc_core12experimental4JsonEESt10_Select1stISB_ESt4lessIS5_ESaISB_EE10_Auto_nodeC2IJRKSt21piecewise_construct_tSt5tupleIJOS5_EESN_IJEEEEERSH_DpOT_ = comdat any

$_ZNSt8_Rb_treeINSt7__cxx1112basic_stringIcSt11char_traitsIcESaIcEEESt4pairIKS5_N9grpc_core12experimental4JsonEESt10_Select1stISB_ESt4lessIS5_ESaISB_EE29_M_get_insert_hint_unique_posESt23_Rb_tree_const_iteratorISB_ERS7_ = comdat any

$_ZNKSt8_Rb_treeINSt7__cxx1112basic_stringIcSt11char_traitsIcESaIcEEESt4pairIKS5_N9grpc_core12experimental4JsonEESt10_Select1stISB_ESt4lessIS5_ESaISB_EE10_Auto_node6_M_keyEv = comdat any

$_ZNSt8_Rb_treeINSt7__cxx1112basic_stringIcSt11char_traitsIcESaIcEEESt4pairIKS5_N9grpc_core12experimental4JsonEESt10_Select1stISB_ESt4lessIS5_ESaISB_EE10_Auto_node9_M_insertES6_IPSt18_Rb_tree_node_baseSK_E = comdat any

$_ZNSt8_Rb_treeINSt7__cxx1112basic_stringIcSt11char_traitsIcESaIcEEESt4pairIKS5_N9grpc_core12experimental4JsonEESt10_Select1stISB_ESt4lessIS5_ESaISB_EE10_Auto_nodeD2Ev = comdat any

$_ZNSt8_Rb_treeINSt7__cxx1112basic_stringIcSt11char_traitsIcESaIcEEESt4pairIKS5_N9grpc_core12experimental4JsonEESt10_Select1stISB_ESt4lessIS5_ESaISB_EE14_M_create_nodeIJRKSt21piecewise_construct_tSt5tupleIJOS5_EESM_IJEEEEEPSt13_Rb_tree_nodeISB_EDpOT_ = comdat any

$_ZNSt8_Rb_treeINSt7__cxx1112basic_stringIcSt11char_traitsIcESaIcEEESt4pairIKS5_N9grpc_core12experimental4JsonEESt10_Select1stISB_ESt4lessIS5_ESaISB_EE11_M_get_nodeEv = comdat any

$_ZNSt8_Rb_treeINSt7__cxx1112basic_stringIcSt11char_traitsIcESaIcEEESt4pairIKS5_N9grpc_core12experimental4JsonEESt10_Select1stISB_ESt4lessIS5_ESaISB_EE17_M_construct_nodeIJRKSt21piecewise_construct_tSt5tupleIJOS5_EESM_IJEEEEEvPSt13_Rb_tree_nodeISB_EDpOT_ = comdat any

$_ZNSt16allocator_traitsISaISt13_Rb_tree_nodeISt4pairIKNSt7__cxx1112basic_stringIcSt11char_traitsIcESaIcEEEN9grpc_core12experimental4JsonEEEEE8allocateERSE_m = comdat any

$_ZNSt8_Rb_treeINSt7__cxx1112basic_stringIcSt11char_traitsIcESaIcEEESt4pairIKS5_N9grpc_core12experimental4JsonEESt10_Select1stISB_ESt4lessIS5_ESaISB_EE21_M_get_Node_allocatorEv = comdat any

$_ZNSt15__new_allocatorISt13_Rb_tree_nodeISt4pairIKNSt7__cxx1112basic_stringIcSt11char_traitsIcESaIcEEEN9grpc_core12experimental4JsonEEEE8allocateEmPKv = comdat any

$_ZNKSt15__new_allocatorISt13_Rb_tree_nodeISt4pairIKNSt7__cxx1112basic_stringIcSt11char_traitsIcESaIcEEEN9grpc_core12experimental4JsonEEEE11_M_max_sizeEv = comdat any

$_ZNSt16allocator_traitsISaISt13_Rb_tree_nodeISt4pairIKNSt7__cxx1112basic_stringIcSt11char_traitsIcESaIcEEEN9grpc_core12experimental4JsonEEEEE9constructISC_JRKSt21piecewise_construct_tSt5tupleIJOS7_EESK_IJEEEEEvRSE_PT_DpOT0_ = comdat any

$_ZNSt8_Rb_treeINSt7__cxx1112basic_stringIcSt11char_traitsIcESaIcEEESt4pairIKS5_N9grpc_core12experimental4JsonEESt10_Select1stISB_ESt4lessIS5_ESaISB_EE11_M_put_nodeEPSt13_Rb_tree_nodeISB_E = comdat any

$_ZNSt15__new_allocatorISt13_Rb_tree_nodeISt4pairIKNSt7__cxx1112basic_stringIcSt11char_traitsIcESaIcEEEN9grpc_core12experimental4JsonEEEE9constructISC_JRKSt21piecewise_construct_tSt5tupleIJOS7_EESJ_IJEEEEEvPT_DpOT0_ = comdat any

$_ZNSt5tupleIJONSt7__cxx1112basic_stringIcSt11char_traitsIcESaIcEEEEEC2EOS7_ = comdat any

$_ZNSt4pairIKNSt7__cxx1112basic_stringIcSt11char_traitsIcESaIcEEEN9grpc_core12experimental4JsonEEC2IJOS5_EJEEESt21piecewise_construct_tSt5tupleIJDpT_EESE_IJDpT0_EE = comdat any

$_ZNSt11_Tuple_implILm0EJONSt7__cxx1112basic_stringIcSt11char_traitsIcESaIcEEEEEC2EOS7_ = comdat any

$_ZNSt4pairIKNSt7__cxx1112basic_stringIcSt11char_traitsIcESaIcEEEN9grpc_core12experimental4JsonEEC2IJOS5_EJLm0EEJETpTnmJEEERSt5tupleIJDpT_EERSD_IJDpT1_EESt12_Index_tupleIJXspT0_EEESM_IJXspT2_EEE = comdat any

$_ZSt3getILm0EJONSt7__cxx1112basic_stringIcSt11char_traitsIcESaIcEEEEERNSt13tuple_elementIXT_ESt5tupleIJDpT0_EEE4typeERSB_ = comdat any

$_ZSt12__get_helperILm0EONSt7__cxx1112basic_stringIcSt11char_traitsIcESaIcEEEJEERT0_RSt11_Tuple_implIXT_EJS7_DpT1_EE = comdat any

$_ZNSt11_Tuple_implILm0EJONSt7__cxx1112basic_stringIcSt11char_traitsIcESaIcEEEEE7_M_headERS7_ = comdat any

$_ZNSt10_Head_baseILm0EONSt7__cxx1112basic_stringIcSt11char_traitsIcESaIcEEELb0EE7_M_headERS7_ = comdat any

$_ZNSt16allocator_traitsISaISt13_Rb_tree_nodeISt4pairIKNSt7__cxx1112basic_stringIcSt11char_traitsIcESaIcEEEN9grpc_core12experimental4JsonEEEEE10deallocateERSE_PSD_m = comdat any

$_ZNSt15__new_allocatorISt13_Rb_tree_nodeISt4pairIKNSt7__cxx1112basic_stringIcSt11char_traitsIcESaIcEEEN9grpc_core12experimental4JsonEEEE10deallocateEPSD_m = comdat any

$_ZNKSt23_Rb_tree_const_iteratorISt4pairIKNSt7__cxx1112basic_stringIcSt11char_traitsIcESaIcEEEN9grpc_core12experimental4JsonEEE13_M_const_castEv = comdat any

$_ZNKSt8_Rb_treeINSt7__cxx1112basic_stringIcSt11char_traitsIcESaIcEEESt4pairIKS5_N9grpc_core12experimental4JsonEESt10_Select1stISB_ESt4lessIS5_ESaISB_EE4sizeEv = comdat any

$_ZNSt8_Rb_treeINSt7__cxx1112basic_stringIcSt11char_traitsIcESaIcEEESt4pairIKS5_N9grpc_core12experimental4JsonEESt10_Select1stISB_ESt4lessIS5_ESaISB_EE6_S_keyEPKSt18_Rb_tree_node_base = comdat any

$_ZNSt8_Rb_treeINSt7__cxx1112basic_stringIcSt11char_traitsIcESaIcEEESt4pairIKS5_N9grpc_core12experimental4JsonEESt10_Select1stISB_ESt4lessIS5_ESaISB_EE12_M_rightmostEv = comdat any

$_ZNSt4pairIPSt18_Rb_tree_node_baseS1_EC2IS1_S1_TnNSt9enable_ifIXaaclsr5_PCCPE18_ConstructiblePairIT_T0_EEclsr5_PCCPE26_ImplicitlyConvertiblePairIS5_S6_EEEbE4typeELb1EEERKS1_SA_ = comdat any

$_ZNSt8_Rb_treeINSt7__cxx1112basic_stringIcSt11char_traitsIcESaIcEEESt4pairIKS5_N9grpc_core12experimental4JsonEESt10_Select1stISB_ESt4lessIS5_ESaISB_EE24_M_get_insert_unique_posERS7_ = comdat any

$_ZNSt8_Rb_treeINSt7__cxx1112basic_stringIcSt11char_traitsIcESaIcEEESt4pairIKS5_N9grpc_core12experimental4JsonEESt10_Select1stISB_ESt4lessIS5_ESaISB_EE11_M_leftmostEv = comdat any

$_ZNSt4pairIPSt18_Rb_tree_node_baseS1_EC2IRS1_S4_TnNSt9enable_ifIXaaclsr5_PCCPE22_MoveConstructiblePairIT_T0_EEclsr5_PCCPE30_ImplicitlyMoveConvertiblePairIS6_S7_EEEbE4typeELb1EEEOS6_OS7_ = comdat any

$_ZNSt17_Rb_tree_iteratorISt4pairIKNSt7__cxx1112basic_stringIcSt11char_traitsIcESaIcEEEN9grpc_core12experimental4JsonEEEmmEv = comdat any

$_ZNSt17_Rb_tree_iteratorISt4pairIKNSt7__cxx1112basic_stringIcSt11char_traitsIcESaIcEEEN9grpc_core12experimental4JsonEEEppEv = comdat any

$_ZNSt8_Rb_treeINSt7__cxx1112basic_stringIcSt11char_traitsIcESaIcEEESt4pairIKS5_N9grpc_core12experimental4JsonEESt10_Select1stISB_ESt4lessIS5_ESaISB_EE5beginEv = comdat any

$_ZNSt4pairIPSt18_Rb_tree_node_baseS1_EC2IRPSt13_Rb_tree_nodeIS_IKNSt7__cxx1112basic_stringIcSt11char_traitsIcESaIcEEEN9grpc_core12experimental4JsonEEERS1_TnNSt9enable_ifIXaaclsr5_PCCPE22_MoveConstructiblePairIT_T0_EEclsr5_PCCPE30_ImplicitlyMoveConvertiblePairISL_SM_EEEbE4typeELb1EEEOSL_OSM_ = comdat any

$_ZNSt8_Rb_treeINSt7__cxx1112basic_stringIcSt11char_traitsIcESaIcEEESt4pairIKS5_N9grpc_core12experimental4JsonEESt10_Select1stISB_ESt4lessIS5_ESaISB_EE14_M_insert_nodeEPSt18_Rb_tree_node_baseSJ_PSt13_Rb_tree_nodeISB_E = comdat any

$_ZNSt8_Rb_treeINSt7__cxx1112basic_stringIcSt11char_traitsIcESaIcEEESt4pairIKS5_N9grpc_core12experimental4JsonEESt10_Select1stISB_ESt4lessIS5_ESaISB_EE12_M_drop_nodeEPSt13_Rb_tree_nodeISB_E = comdat any

$_ZNSt8_Rb_treeINSt7__cxx1112basic_stringIcSt11char_traitsIcESaIcEEESt4pairIKS5_N9grpc_core12experimental4JsonEESt10_Select1stISB_ESt4lessIS5_ESaISB_EE15_M_destroy_nodeEPSt13_Rb_tree_nodeISB_E = comdat any

$_ZNSt16allocator_traitsISaISt13_Rb_tree_nodeISt4pairIKNSt7__cxx1112basic_stringIcSt11char_traitsIcESaIcEEEN9grpc_core12experimental4JsonEEEEE7destroyISC_EEvRSE_PT_ = comdat any

$_ZNSt15__new_allocatorISt13_Rb_tree_nodeISt4pairIKNSt7__cxx1112basic_stringIcSt11char_traitsIcESaIcEEEN9grpc_core12experimental4JsonEEEE7destroyISC_EEvPT_ = comdat any

$_ZNSt4pairIKNSt7__cxx1112basic_stringIcSt11char_traitsIcESaIcEEEN9grpc_core12experimental4JsonEED2Ev = comdat any

$_ZNSt5tupleIJONSt7__cxx1112basic_stringIcSt11char_traitsIcESaIcEEEEEC2IJS5_ELb1ETnNSt9enable_ifIXclsr4_TCCIXT0_EEE29__is_implicitly_constructibleIDpT_EEEbE4typeELb1EEEDpOSA_ = comdat any

$_ZNSt11_Tuple_implILm0EJONSt7__cxx1112basic_stringIcSt11char_traitsIcESaIcEEEEEC2IS5_EEOT_ = comdat any

$_ZNSt10_Head_baseILm0EONSt7__cxx1112basic_stringIcSt11char_traitsIcESaIcEEELb0EEC2IS5_EEOT_ = comdat any

$_ZNSt8__detail9__variant5__getILm0ERSt7variantIJSt3mapINSt7__cxx1112basic_stringIcSt11char_traitsIcESaIcEEEN9grpc_core12experimental4JsonESt4lessIS9_ESaISt4pairIKS9_SC_EEESt6vectorISC_SaISC_EEEEEEDcOT0_ = comdat any

$_ZNSt8__detail9__variant7__get_nILm0ERNS0_15_Variadic_unionIJSt3mapINSt7__cxx1112basic_stringIcSt11char_traitsIcESaIcEEEN9grpc_core12experimental4JsonESt4lessIS9_ESaISt4pairIKS9_SC_EEESt6vectorISC_SaISC_EEEEEEEDcOT0_ = comdat any

$_ZNRSt8__detail9__variant14_UninitializedISt3mapINSt7__cxx1112basic_stringIcSt11char_traitsIcESaIcEEEN9grpc_core12experimental4JsonESt4lessIS8_ESaISt4pairIKS8_SB_EEELb0EE6_M_getEv = comdat any

$_ZN9__gnu_cxx16__aligned_membufISt3mapINSt7__cxx1112basic_stringIcSt11char_traitsIcESaIcEEEN9grpc_core12experimental4JsonESt4lessIS7_ESaISt4pairIKS7_SA_EEEE6_M_ptrEv = comdat any

$_ZN9__gnu_cxx16__aligned_membufISt3mapINSt7__cxx1112basic_stringIcSt11char_traitsIcESaIcEEEN9grpc_core12experimental4JsonESt4lessIS7_ESaISt4pairIKS7_SA_EEEE7_M_addrEv = comdat any

$_ZNSt6vectorIN9grpc_core12experimental4JsonESaIS2_EE12emplace_backIJEEERS2_DpOT_ = comdat any

$_ZNSt6vectorIN9grpc_core12experimental4JsonESaIS2_EE4backEv = comdat any

$_ZNSt16allocator_traitsISaIN9grpc_core12experimental4JsonEEE9constructIS2_JEEEvRS3_PT_DpOT0_ = comdat any

$_ZNSt6vectorIN9grpc_core12experimental4JsonESaIS2_EE17_M_realloc_insertIJEEEvN9__gnu_cxx17__normal_iteratorIPS2_S4_EEDpOT_ = comdat any

$_ZNSt6vectorIN9grpc_core12experimental4JsonESaIS2_EE3endEv = comdat any

$_ZNSt15__new_allocatorIN9grpc_core12experimental4JsonEE9constructIS2_JEEEvPT_DpOT0_ = comdat any

$_ZNKSt6vectorIN9grpc_core12experimental4JsonESaIS2_EE12_M_check_lenEmPKc = comdat any

$_ZN9__gnu_cxxmiIPN9grpc_core12experimental4JsonESt6vectorIS3_SaIS3_EEEENS_17__normal_iteratorIT_T0_E15difference_typeERKSB_SE_ = comdat any

$_ZNSt6vectorIN9grpc_core12experimental4JsonESaIS2_EE5beginEv = comdat any

$_ZNSt12_Vector_baseIN9grpc_core12experimental4JsonESaIS2_EE11_M_allocateEm = comdat any

$_ZNSt6vectorIN9grpc_core12experimental4JsonESaIS2_EE11_S_relocateEPS2_S5_S5_RS3_ = comdat any

$_ZNK9__gnu_cxx17__normal_iteratorIPN9grpc_core12experimental4JsonESt6vectorIS3_SaIS3_EEE4baseEv = comdat any

$_ZNSt12_Vector_baseIN9grpc_core12experimental4JsonESaIS2_EE19_M_get_Tp_allocatorEv = comdat any

$_ZNSt12_Vector_baseIN9grpc_core12experimental4JsonESaIS2_EE13_M_deallocateEPS2_m = comdat any

$_ZNKSt6vectorIN9grpc_core12experimental4JsonESaIS2_EE8max_sizeEv = comdat any

$_ZNKSt6vectorIN9grpc_core12experimental4JsonESaIS2_EE4sizeEv = comdat any

$_ZSt3maxImERKT_S2_S2_ = comdat any

$_ZNSt6vectorIN9grpc_core12experimental4JsonESaIS2_EE11_S_max_sizeERKS3_ = comdat any

$_ZNKSt12_Vector_baseIN9grpc_core12experimental4JsonESaIS2_EE19_M_get_Tp_allocatorEv = comdat any

$_ZNSt16allocator_traitsISaIN9grpc_core12experimental4JsonEEE8max_sizeERKS3_ = comdat any

$_ZSt3minImERKT_S2_S2_ = comdat any

$_ZNKSt15__new_allocatorIN9grpc_core12experimental4JsonEE8max_sizeEv = comdat any

$_ZNKSt15__new_allocatorIN9grpc_core12experimental4JsonEE11_M_max_sizeEv = comdat any

$_ZN9__gnu_cxx17__normal_iteratorIPN9grpc_core12experimental4JsonESt6vectorIS3_SaIS3_EEEC2ERKS4_ = comdat any

$_ZNSt16allocator_traitsISaIN9grpc_core12experimental4JsonEEE8allocateERS3_m = comdat any

$_ZNSt15__new_allocatorIN9grpc_core12experimental4JsonEE8allocateEmPKv = comdat any

$_ZSt12__relocate_aIPN9grpc_core12experimental4JsonES3_SaIS2_EET0_T_S6_S5_RT1_ = comdat any

$_ZSt14__relocate_a_1IPN9grpc_core12experimental4JsonES3_SaIS2_EET0_T_S6_S5_RT1_ = comdat any

$_ZSt12__niter_baseIPN9grpc_core12experimental4JsonEET_S4_ = comdat any

$_ZSt19__relocate_object_aIN9grpc_core12experimental4JsonES2_SaIS2_EEvPT_PT0_RT1_ = comdat any

$_ZNSt16allocator_traitsISaIN9grpc_core12experimental4JsonEEE9constructIS2_JS2_EEEvRS3_PT_DpOT0_ = comdat any

$_ZNSt16allocator_traitsISaIN9grpc_core12experimental4JsonEEE7destroyIS2_EEvRS3_PT_ = comdat any

$_ZNSt15__new_allocatorIN9grpc_core12experimental4JsonEE9constructIS2_JS2_EEEvPT_DpOT0_ = comdat any

$_ZN9grpc_core12experimental4JsonC2EOS1_ = comdat any

$_ZNSt7variantIJSt9monostatebN9grpc_core12experimental4Json11NumberValueENSt7__cxx1112basic_stringIcSt11char_traitsIcESaIcEEESt3mapISA_S3_St4lessISA_ESaISt4pairIKSA_S3_EEESt6vectorIS3_SaIS3_EEEEC2EOSM_ = comdat any

$_ZNSt7variantIJSt9monostatebN9grpc_core12experimental4Json11NumberValueENSt7__cxx1112basic_stringIcSt11char_traitsIcESaIcEEESt3mapISA_S3_St4lessISA_ESaISt4pairIKSA_S3_EEESt6vectorIS3_SaIS3_EEEEaSIS0_EENSt9enable_ifIXaaaa14__exactly_onceINSt9_Nth_typeIX16__accepted_indexIOT_EEJS0_bS4_SA_SI_SL_EE4typeEE18is_constructible_vIST_SQ_E15is_assignable_vIRST_SQ_EERSM_E4typeESR_ = comdat any

$_ZNSt8__detail9__variant13_Variant_baseIJSt9monostatebN9grpc_core12experimental4Json11NumberValueENSt7__cxx1112basic_stringIcSt11char_traitsIcESaIcEEESt3mapISC_S5_St4lessISC_ESaISt4pairIKSC_S5_EEESt6vectorIS5_SaIS5_EEEEC2EOSO_ = comdat any

$_ZNSt8__detail9__variant17_Move_assign_baseILb0EJSt9monostatebN9grpc_core12experimental4Json11NumberValueENSt7__cxx1112basic_stringIcSt11char_traitsIcESaIcEEESt3mapISC_S5_St4lessISC_ESaISt4pairIKSC_S5_EEESt6vectorIS5_SaIS5_EEEEC2EOSO_ = comdat any

$_ZNSt8__detail9__variant17_Copy_assign_baseILb0EJSt9monostatebN9grpc_core12experimental4Json11NumberValueENSt7__cxx1112basic_stringIcSt11char_traitsIcESaIcEEESt3mapISC_S5_St4lessISC_ESaISt4pairIKSC_S5_EEESt6vectorIS5_SaIS5_EEEEC2EOSO_ = comdat any

$_ZNSt8__detail9__variant15_Move_ctor_baseILb0EJSt9monostatebN9grpc_core12experimental4Json11NumberValueENSt7__cxx1112basic_stringIcSt11char_traitsIcESaIcEEESt3mapISC_S5_St4lessISC_ESaISt4pairIKSC_S5_EEESt6vectorIS5_SaIS5_EEEEC2EOSO_ = comdat any

$_ZNSt8__detail9__variant15_Copy_ctor_baseILb0EJSt9monostatebN9grpc_core12experimental4Json11NumberValueENSt7__cxx1112basic_stringIcSt11char_traitsIcESaIcEEESt3mapISC_S5_St4lessISC_ESaISt4pairIKSC_S5_EEESt6vectorIS5_SaIS5_EEEEC2Ev = comdat any

$_ZNSt8__detail9__variant15__raw_idx_visitIZNS0_15_Move_ctor_baseILb0EJSt9monostatebN9grpc_core12experimental4Json11NumberValueENSt7__cxx1112basic_stringIcSt11char_traitsIcESaIcEEESt3mapISD_S6_St4lessISD_ESaISt4pairIKSD_S6_EEESt6vectorIS6_SaIS6_EEEEC1EOSP_EUlOT_T0_E_JSt7variantIJS3_bS7_SD_SL_SO_EEEEEvSS_DpOT0_ = comdat any

$_ZSt14__variant_castIJSt9monostatebN9grpc_core12experimental4Json11NumberValueENSt7__cxx1112basic_stringIcSt11char_traitsIcESaIcEEESt3mapISA_S3_St4lessISA_ESaISt4pairIKSA_S3_EEESt6vectorIS3_SaIS3_EEENSt8__detail9__variant15_Move_ctor_baseILb0EJS0_bS4_SA_SI_SL_EEEEDcOT0_ = comdat any

$_ZNSt8__detail9__variant16_Variant_storageILb0EJSt9monostatebN9grpc_core12experimental4Json11NumberValueENSt7__cxx1112basic_stringIcSt11char_traitsIcESaIcEEESt3mapISC_S5_St4lessISC_ESaISt4pairIKSC_S5_EEESt6vectorIS5_SaIS5_EEEEC2Ev = comdat any

$_ZNSt8__detail9__variant15_Variadic_unionIJSt9monostatebN9grpc_core12experimental4Json11NumberValueENSt7__cxx1112basic_stringIcSt11char_traitsIcESaIcEEESt3mapISC_S5_St4lessISC_ESaISt4pairIKSC_S5_EEESt6vectorIS5_SaIS5_EEEEC2Ev = comdat any

$_ZNSt8__detail9__variant15_Variadic_unionIJbN9grpc_core12experimental4Json11NumberValueENSt7__cxx1112basic_stringIcSt11char_traitsIcESaIcEEESt3mapISB_S4_St4lessISB_ESaISt4pairIKSB_S4_EEESt6vectorIS4_SaIS4_EEEEC2Ev = comdat any

$_ZNSt8__detail9__variant15_Variadic_unionIJN9grpc_core12experimental4Json11NumberValueENSt7__cxx1112basic_stringIcSt11char_traitsIcESaIcEEESt3mapISB_S4_St4lessISB_ESaISt4pairIKSB_S4_EEESt6vectorIS4_SaIS4_EEEEC2Ev = comdat any

$_ZNSt8__detail9__variant15_Variadic_unionIJNSt7__cxx1112basic_stringIcSt11char_traitsIcESaIcEEESt3mapIS7_N9grpc_core12experimental4JsonESt4lessIS7_ESaISt4pairIKS7_SB_EEESt6vectorISB_SaISB_EEEEC2Ev = comdat any

$_ZNSt8__detail9__variant15_Variadic_unionIJSt3mapINSt7__cxx1112basic_stringIcSt11char_traitsIcESaIcEEEN9grpc_core12experimental4JsonESt4lessIS8_ESaISt4pairIKS8_SB_EEESt6vectorISB_SaISB_EEEEC2Ev = comdat any

$_ZNSt8__detail9__variant15_Variadic_unionIJSt6vectorIN9grpc_core12experimental4JsonESaIS5_EEEEC2Ev = comdat any

$_ZSt10__do_visitINSt8__detail9__variant20__variant_idx_cookieEZNS1_15_Move_ctor_baseILb0EJSt9monostatebN9grpc_core12experimental4Json11NumberValueENSt7__cxx1112basic_stringIcSt11char_traitsIcESaIcEEESt3mapISE_S7_St4lessISE_ESaISt4pairIKSE_S7_EEESt6vectorIS7_SaIS7_EEEEC1EOSQ_EUlOT_T0_E_JSt7variantIJS4_bS8_SE_SM_SP_EEEEDcOSU_DpOT1_ = comdat any

$_ZZSt10__do_visitINSt8__detail9__variant20__variant_idx_cookieEZNS1_15_Move_ctor_baseILb0EJSt9monostatebN9grpc_core12experimental4Json11NumberValueENSt7__cxx1112basic_stringIcSt11char_traitsIcESaIcEEESt3mapISE_S7_St4lessISE_ESaISt4pairIKSE_S7_EEESt6vectorIS7_SaIS7_EEEEC1EOSQ_EUlOT_T0_E_JSt7variantIJS4_bS8_SE_SM_SP_EEEEDcOSU_DpOT1_ENKUlRSX_zE_clB5cxx11ES12_z = comdat any

$_ZNKSt7variantIJSt9monostatebN9grpc_core12experimental4Json11NumberValueENSt7__cxx1112basic_stringIcSt11char_traitsIcESaIcEEESt3mapISA_S3_St4lessISA_ESaISt4pairIKSA_S3_EEESt6vectorIS3_SaIS3_EEEE5indexEv = comdat any

$_ZNSt8__detail9__variant17__gen_vtable_implINS0_12_Multi_arrayIPFNS0_20__variant_idx_cookieEOZNS0_15_Move_ctor_baseILb0EJSt9monostatebN9grpc_core12experimental4Json11NumberValueENSt7__cxx1112basic_stringIcSt11char_traitsIcESaIcEEESt3mapISF_S8_St4lessISF_ESaISt4pairIKSF_S8_EEESt6vectorIS8_SaIS8_EEEEC1EOSR_EUlOT_T0_E_OSt7variantIJS5_bS9_SF_SN_SQ_EEEJEEESt16integer_sequenceImJLm0EEEE14__visit_invokeESX_S10_ = comdat any

$_ZNSt8__detail9__variant17__gen_vtable_implINS0_12_Multi_arrayIPFNS0_20__variant_idx_cookieEOZNS0_15_Move_ctor_baseILb0EJSt9monostatebN9grpc_core12experimental4Json11NumberValueENSt7__cxx1112basic_stringIcSt11char_traitsIcESaIcEEESt3mapISF_S8_St4lessISF_ESaISt4pairIKSF_S8_EEESt6vectorIS8_SaIS8_EEEEC1EOSR_EUlOT_T0_E_OSt7variantIJS5_bS9_SF_SN_SQ_EEEJEEESt16integer_sequenceImJLm1EEEE14__visit_invokeESX_S10_ = comdat any

$_ZNSt8__detail9__variant17__gen_vtable_implINS0_12_Multi_arrayIPFNS0_20__variant_idx_cookieEOZNS0_15_Move_ctor_baseILb0EJSt9monostatebN9grpc_core12experimental4Json11NumberValueENSt7__cxx1112basic_stringIcSt11char_traitsIcESaIcEEESt3mapISF_S8_St4lessISF_ESaISt4pairIKSF_S8_EEESt6vectorIS8_SaIS8_EEEEC1EOSR_EUlOT_T0_E_OSt7variantIJS5_bS9_SF_SN_SQ_EEEJEEESt16integer_sequenceImJLm2EEEE14__visit_invokeESX_S10_ = comdat any

$_ZNSt8__detail9__variant17__gen_vtable_implINS0_12_Multi_arrayIPFNS0_20__variant_idx_cookieEOZNS0_15_Move_ctor_baseILb0EJSt9monostatebN9grpc_core12experimental4Json11NumberValueENSt7__cxx1112basic_stringIcSt11char_traitsIcESaIcEEESt3mapISF_S8_St4lessISF_ESaISt4pairIKSF_S8_EEESt6vectorIS8_SaIS8_EEEEC1EOSR_EUlOT_T0_E_OSt7variantIJS5_bS9_SF_SN_SQ_EEEJEEESt16integer_sequenceImJLm3EEEE14__visit_invokeESX_S10_ = comdat any

$_ZNSt8__detail9__variant17__gen_vtable_implINS0_12_Multi_arrayIPFNS0_20__variant_idx_cookieEOZNS0_15_Move_ctor_baseILb0EJSt9monostatebN9grpc_core12experimental4Json11NumberValueENSt7__cxx1112basic_stringIcSt11char_traitsIcESaIcEEESt3mapISF_S8_St4lessISF_ESaISt4pairIKSF_S8_EEESt6vectorIS8_SaIS8_EEEEC1EOSR_EUlOT_T0_E_OSt7variantIJS5_bS9_SF_SN_SQ_EEEJEEESt16integer_sequenceImJLm4EEEE14__visit_invokeESX_S10_ = comdat any

$_ZNSt8__detail9__variant17__gen_vtable_implINS0_12_Multi_arrayIPFNS0_20__variant_idx_cookieEOZNS0_15_Move_ctor_baseILb0EJSt9monostatebN9grpc_core12experimental4Json11NumberValueENSt7__cxx1112basic_stringIcSt11char_traitsIcESaIcEEESt3mapISF_S8_St4lessISF_ESaISt4pairIKSF_S8_EEESt6vectorIS8_SaIS8_EEEEC1EOSR_EUlOT_T0_E_OSt7variantIJS5_bS9_SF_SN_SQ_EEEJEEESt16integer_sequenceImJLm5EEEE14__visit_invokeESX_S10_ = comdat any

$_ZNSt8__detail9__variant17__gen_vtable_implINS0_12_Multi_arrayIPFNS0_20__variant_idx_cookieEOZNS0_15_Move_ctor_baseILb0EJSt9monostatebN9grpc_core12experimental4Json11NumberValueENSt7__cxx1112basic_stringIcSt11char_traitsIcESaIcEEESt3mapISF_S8_St4lessISF_ESaISt4pairIKSF_S8_EEESt6vectorIS8_SaIS8_EEEEC1EOSR_EUlOT_T0_E_OSt7variantIJS5_bS9_SF_SN_SQ_EEEJEEESt16integer_sequenceImJLm18446744073709551615EEEE14__visit_invokeESX_S10_ = comdat any

$_ZSt8__invokeIZNSt8__detail9__variant15_Move_ctor_baseILb0EJSt9monostatebN9grpc_core12experimental4Json11NumberValueENSt7__cxx1112basic_stringIcSt11char_traitsIcESaIcEEESt3mapISD_S6_St4lessISD_ESaISt4pairIKSD_S6_EEESt6vectorIS6_SaIS6_EEEEC1EOSP_EUlOT_T0_E_JS3_St17integral_constantImLm0EEEENSt15__invoke_resultISR_JDpT0_EE4typeESS_DpOSY_ = comdat any

$_ZNSt8__detail9__variant17__gen_vtable_implINS0_12_Multi_arrayIPFNS0_20__variant_idx_cookieEOZNS0_15_Move_ctor_baseILb0EJSt9monostatebN9grpc_core12experimental4Json11NumberValueENSt7__cxx1112basic_stringIcSt11char_traitsIcESaIcEEESt3mapISF_S8_St4lessISF_ESaISt4pairIKSF_S8_EEESt6vectorIS8_SaIS8_EEEEC1EOSR_EUlOT_T0_E_OSt7variantIJS5_bS9_SF_SN_SQ_EEEJEEESt16integer_sequenceImJLm0EEEE28__element_by_index_or_cookieILm0ESZ_EEDcOSV_ = comdat any

$_ZSt13__invoke_implIvZNSt8__detail9__variant15_Move_ctor_baseILb0EJSt9monostatebN9grpc_core12experimental4Json11NumberValueENSt7__cxx1112basic_stringIcSt11char_traitsIcESaIcEEESt3mapISD_S6_St4lessISD_ESaISt4pairIKSD_S6_EEESt6vectorIS6_SaIS6_EEEEC1EOSP_EUlOT_T0_E_JS3_St17integral_constantImLm0EEEESR_St14__invoke_otherOST_DpOT1_ = comdat any

$_ZZNSt8__detail9__variant15_Move_ctor_baseILb0EJSt9monostatebN9grpc_core12experimental4Json11NumberValueENSt7__cxx1112basic_stringIcSt11char_traitsIcESaIcEEESt3mapISC_S5_St4lessISC_ESaISt4pairIKSC_S5_EEESt6vectorIS5_SaIS5_EEEEC1EOSO_ENUlOT_T0_E_clIS2_St17integral_constantImLm0EEEEDaSR_SS_ = comdat any

$_ZSt10_ConstructINSt8__detail9__variant15_Variadic_unionIJSt9monostatebN9grpc_core12experimental4Json11NumberValueENSt7__cxx1112basic_stringIcSt11char_traitsIcESaIcEEESt3mapISD_S6_St4lessISD_ESaISt4pairIKSD_S6_EEESt6vectorIS6_SaIS6_EEEEEJRKSt16in_place_index_tILm0EES3_EEvPT_DpOT0_ = comdat any

$_ZNSt8__detail9__variant15_Variadic_unionIJSt9monostatebN9grpc_core12experimental4Json11NumberValueENSt7__cxx1112basic_stringIcSt11char_traitsIcESaIcEEESt3mapISC_S5_St4lessISC_ESaISt4pairIKSC_S5_EEESt6vectorIS5_SaIS5_EEEEC2IJS2_EEESt16in_place_index_tILm0EEDpOT_ = comdat any

$_ZNSt8__detail9__variant14_UninitializedISt9monostateLb1EEC2IJS2_EEESt16in_place_index_tILm0EEDpOT_ = comdat any

$_ZNSt8__detail9__variant5__getILm0ESt7variantIJSt9monostatebN9grpc_core12experimental4Json11NumberValueENSt7__cxx1112basic_stringIcSt11char_traitsIcESaIcEEESt3mapISD_S6_St4lessISD_ESaISt4pairIKSD_S6_EEESt6vectorIS6_SaIS6_EEEEEEDcOT0_ = comdat any

$_ZNSt8__detail9__variant7__get_nILm0ENS0_15_Variadic_unionIJSt9monostatebN9grpc_core12experimental4Json11NumberValueENSt7__cxx1112basic_stringIcSt11char_traitsIcESaIcEEESt3mapISD_S6_St4lessISD_ESaISt4pairIKSD_S6_EEESt6vectorIS6_SaIS6_EEEEEEEDcOT0_ = comdat any

$_ZNOSt8__detail9__variant14_UninitializedISt9monostateLb1EE6_M_getEv = comdat any

$_ZSt8__invokeIZNSt8__detail9__variant15_Move_ctor_baseILb0EJSt9monostatebN9grpc_core12experimental4Json11NumberValueENSt7__cxx1112basic_stringIcSt11char_traitsIcESaIcEEESt3mapISD_S6_St4lessISD_ESaISt4pairIKSD_S6_EEESt6vectorIS6_SaIS6_EEEEC1EOSP_EUlOT_T0_E_JbSt17integral_constantImLm1EEEENSt15__invoke_resultISR_JDpT0_EE4typeESS_DpOSY_ = comdat any

$_ZNSt8__detail9__variant17__gen_vtable_implINS0_12_Multi_arrayIPFNS0_20__variant_idx_cookieEOZNS0_15_Move_ctor_baseILb0EJSt9monostatebN9grpc_core12experimental4Json11NumberValueENSt7__cxx1112basic_stringIcSt11char_traitsIcESaIcEEESt3mapISF_S8_St4lessISF_ESaISt4pairIKSF_S8_EEESt6vectorIS8_SaIS8_EEEEC1EOSR_EUlOT_T0_E_OSt7variantIJS5_bS9_SF_SN_SQ_EEEJEEESt16integer_sequenceImJLm1EEEE28__element_by_index_or_cookieILm1ESZ_EEDcOSV_ = comdat any

$_ZSt13__invoke_implIvZNSt8__detail9__variant15_Move_ctor_baseILb0EJSt9monostatebN9grpc_core12experimental4Json11NumberValueENSt7__cxx1112basic_stringIcSt11char_traitsIcESaIcEEESt3mapISD_S6_St4lessISD_ESaISt4pairIKSD_S6_EEESt6vectorIS6_SaIS6_EEEEC1EOSP_EUlOT_T0_E_JbSt17integral_constantImLm1EEEESR_St14__invoke_otherOST_DpOT1_ = comdat any

$_ZZNSt8__detail9__variant15_Move_ctor_baseILb0EJSt9monostatebN9grpc_core12experimental4Json11NumberValueENSt7__cxx1112basic_stringIcSt11char_traitsIcESaIcEEESt3mapISC_S5_St4lessISC_ESaISt4pairIKSC_S5_EEESt6vectorIS5_SaIS5_EEEEC1EOSO_ENUlOT_T0_E_clIbSt17integral_constantImLm1EEEEDaSR_SS_ = comdat any

$_ZSt10_ConstructINSt8__detail9__variant15_Variadic_unionIJSt9monostatebN9grpc_core12experimental4Json11NumberValueENSt7__cxx1112basic_stringIcSt11char_traitsIcESaIcEEESt3mapISD_S6_St4lessISD_ESaISt4pairIKSD_S6_EEESt6vectorIS6_SaIS6_EEEEEJRKSt16in_place_index_tILm1EEbEEvPT_DpOT0_ = comdat any

$_ZNSt8__detail9__variant15_Variadic_unionIJSt9monostatebN9grpc_core12experimental4Json11NumberValueENSt7__cxx1112basic_stringIcSt11char_traitsIcESaIcEEESt3mapISC_S5_St4lessISC_ESaISt4pairIKSC_S5_EEESt6vectorIS5_SaIS5_EEEEC2ILm1EJbEEESt16in_place_index_tIXT_EEDpOT0_ = comdat any

$_ZNSt8__detail9__variant15_Variadic_unionIJbN9grpc_core12experimental4Json11NumberValueENSt7__cxx1112basic_stringIcSt11char_traitsIcESaIcEEESt3mapISB_S4_St4lessISB_ESaISt4pairIKSB_S4_EEESt6vectorIS4_SaIS4_EEEEC2IJbEEESt16in_place_index_tILm0EEDpOT_ = comdat any

$_ZNSt8__detail9__variant14_UninitializedIbLb1EEC2IJbEEESt16in_place_index_tILm0EEDpOT_ = comdat any

$_ZNSt8__detail9__variant5__getILm1ESt7variantIJSt9monostatebN9grpc_core12experimental4Json11NumberValueENSt7__cxx1112basic_stringIcSt11char_traitsIcESaIcEEESt3mapISD_S6_St4lessISD_ESaISt4pairIKSD_S6_EEESt6vectorIS6_SaIS6_EEEEEEDcOT0_ = comdat any

$_ZNSt8__detail9__variant7__get_nILm1ENS0_15_Variadic_unionIJSt9monostatebN9grpc_core12experimental4Json11NumberValueENSt7__cxx1112basic_stringIcSt11char_traitsIcESaIcEEESt3mapISD_S6_St4lessISD_ESaISt4pairIKSD_S6_EEESt6vectorIS6_SaIS6_EEEEEEEDcOT0_ = comdat any

$_ZNOSt8__detail9__variant14_UninitializedIbLb1EE6_M_getEv = comdat any

$_ZSt8__invokeIZNSt8__detail9__variant15_Move_ctor_baseILb0EJSt9monostatebN9grpc_core12experimental4Json11NumberValueENSt7__cxx1112basic_stringIcSt11char_traitsIcESaIcEEESt3mapISD_S6_St4lessISD_ESaISt4pairIKSD_S6_EEESt6vectorIS6_SaIS6_EEEEC1EOSP_EUlOT_T0_E_JS7_St17integral_constantImLm2EEEENSt15__invoke_resultISR_JDpT0_EE4typeESS_DpOSY_ = comdat any

$_ZNSt8__detail9__variant17__gen_vtable_implINS0_12_Multi_arrayIPFNS0_20__variant_idx_cookieEOZNS0_15_Move_ctor_baseILb0EJSt9monostatebN9grpc_core12experimental4Json11NumberValueENSt7__cxx1112basic_stringIcSt11char_traitsIcESaIcEEESt3mapISF_S8_St4lessISF_ESaISt4pairIKSF_S8_EEESt6vectorIS8_SaIS8_EEEEC1EOSR_EUlOT_T0_E_OSt7variantIJS5_bS9_SF_SN_SQ_EEEJEEESt16integer_sequenceImJLm2EEEE28__element_by_index_or_cookieILm2ESZ_EEDcOSV_ = comdat any

$_ZSt13__invoke_implIvZNSt8__detail9__variant15_Move_ctor_baseILb0EJSt9monostatebN9grpc_core12experimental4Json11NumberValueENSt7__cxx1112basic_stringIcSt11char_traitsIcESaIcEEESt3mapISD_S6_St4lessISD_ESaISt4pairIKSD_S6_EEESt6vectorIS6_SaIS6_EEEEC1EOSP_EUlOT_T0_E_JS7_St17integral_constantImLm2EEEESR_St14__invoke_otherOST_DpOT1_ = comdat any

$_ZZNSt8__detail9__variant15_Move_ctor_baseILb0EJSt9monostatebN9grpc_core12experimental4Json11NumberValueENSt7__cxx1112basic_stringIcSt11char_traitsIcESaIcEEESt3mapISC_S5_St4lessISC_ESaISt4pairIKSC_S5_EEESt6vectorIS5_SaIS5_EEEEC1EOSO_ENUlOT_T0_E_clIS6_St17integral_constantImLm2EEEEDaSR_SS_ = comdat any

$_ZSt10_ConstructINSt8__detail9__variant15_Variadic_unionIJSt9monostatebN9grpc_core12experimental4Json11NumberValueENSt7__cxx1112basic_stringIcSt11char_traitsIcESaIcEEESt3mapISD_S6_St4lessISD_ESaISt4pairIKSD_S6_EEESt6vectorIS6_SaIS6_EEEEEJRKSt16in_place_index_tILm2EES7_EEvPT_DpOT0_ = comdat any

$_ZNSt8__detail9__variant15_Variadic_unionIJSt9monostatebN9grpc_core12experimental4Json11NumberValueENSt7__cxx1112basic_stringIcSt11char_traitsIcESaIcEEESt3mapISC_S5_St4lessISC_ESaISt4pairIKSC_S5_EEESt6vectorIS5_SaIS5_EEEEC2ILm2EJS6_EEESt16in_place_index_tIXT_EEDpOT0_ = comdat any

$_ZNSt8__detail9__variant15_Variadic_unionIJbN9grpc_core12experimental4Json11NumberValueENSt7__cxx1112basic_stringIcSt11char_traitsIcESaIcEEESt3mapISB_S4_St4lessISB_ESaISt4pairIKSB_S4_EEESt6vectorIS4_SaIS4_EEEEC2ILm1EJS5_EEESt16in_place_index_tIXT_EEDpOT0_ = comdat any

$_ZNSt8__detail9__variant15_Variadic_unionIJN9grpc_core12experimental4Json11NumberValueENSt7__cxx1112basic_stringIcSt11char_traitsIcESaIcEEESt3mapISB_S4_St4lessISB_ESaISt4pairIKSB_S4_EEESt6vectorIS4_SaIS4_EEEEC2IJS5_EEESt16in_place_index_tILm0EEDpOT_ = comdat any

$_ZNSt8__detail9__variant14_UninitializedIN9grpc_core12experimental4Json11NumberValueELb0EEC2IJS5_EEESt16in_place_index_tILm0EEDpOT_ = comdat any

$_ZN9grpc_core12experimental4Json11NumberValueC2EOS2_ = comdat any

$_ZNSt8__detail9__variant5__getILm2ESt7variantIJSt9monostatebN9grpc_core12experimental4Json11NumberValueENSt7__cxx1112basic_stringIcSt11char_traitsIcESaIcEEESt3mapISD_S6_St4lessISD_ESaISt4pairIKSD_S6_EEESt6vectorIS6_SaIS6_EEEEEEDcOT0_ = comdat any

$_ZNSt8__detail9__variant7__get_nILm2ENS0_15_Variadic_unionIJSt9monostatebN9grpc_core12experimental4Json11NumberValueENSt7__cxx1112basic_stringIcSt11char_traitsIcESaIcEEESt3mapISD_S6_St4lessISD_ESaISt4pairIKSD_S6_EEESt6vectorIS6_SaIS6_EEEEEEEDcOT0_ = comdat any

$_ZNOSt8__detail9__variant14_UninitializedIN9grpc_core12experimental4Json11NumberValueELb0EE6_M_getEv = comdat any

$_ZN9__gnu_cxx16__aligned_membufIN9grpc_core12experimental4Json11NumberValueEE6_M_ptrEv = comdat any

$_ZN9__gnu_cxx16__aligned_membufIN9grpc_core12experimental4Json11NumberValueEE7_M_addrEv = comdat any

$_ZSt8__invokeIZNSt8__detail9__variant15_Move_ctor_baseILb0EJSt9monostatebN9grpc_core12experimental4Json11NumberValueENSt7__cxx1112basic_stringIcSt11char_traitsIcESaIcEEESt3mapISD_S6_St4lessISD_ESaISt4pairIKSD_S6_EEESt6vectorIS6_SaIS6_EEEEC1EOSP_EUlOT_T0_E_JSD_St17integral_constantImLm3EEEENSt15__invoke_resultISR_JDpT0_EE4typeESS_DpOSY_ = comdat any

$_ZNSt8__detail9__variant17__gen_vtable_implINS0_12_Multi_arrayIPFNS0_20__variant_idx_cookieEOZNS0_15_Move_ctor_baseILb0EJSt9monostatebN9grpc_core12experimental4Json11NumberValueENSt7__cxx1112basic_stringIcSt11char_traitsIcESaIcEEESt3mapISF_S8_St4lessISF_ESaISt4pairIKSF_S8_EEESt6vectorIS8_SaIS8_EEEEC1EOSR_EUlOT_T0_E_OSt7variantIJS5_bS9_SF_SN_SQ_EEEJEEESt16integer_sequenceImJLm3EEEE28__element_by_index_or_cookieILm3ESZ_EEDcOSV_ = comdat any

$_ZSt13__invoke_implIvZNSt8__detail9__variant15_Move_ctor_baseILb0EJSt9monostatebN9grpc_core12experimental4Json11NumberValueENSt7__cxx1112basic_stringIcSt11char_traitsIcESaIcEEESt3mapISD_S6_St4lessISD_ESaISt4pairIKSD_S6_EEESt6vectorIS6_SaIS6_EEEEC1EOSP_EUlOT_T0_E_JSD_St17integral_constantImLm3EEEESR_St14__invoke_otherOST_DpOT1_ = comdat any

$_ZZNSt8__detail9__variant15_Move_ctor_baseILb0EJSt9monostatebN9grpc_core12experimental4Json11NumberValueENSt7__cxx1112basic_stringIcSt11char_traitsIcESaIcEEESt3mapISC_S5_St4lessISC_ESaISt4pairIKSC_S5_EEESt6vectorIS5_SaIS5_EEEEC1EOSO_ENUlOT_T0_E_clISC_St17integral_constantImLm3EEEEDaSR_SS_ = comdat any

$_ZSt10_ConstructINSt8__detail9__variant15_Variadic_unionIJSt9monostatebN9grpc_core12experimental4Json11NumberValueENSt7__cxx1112basic_stringIcSt11char_traitsIcESaIcEEESt3mapISD_S6_St4lessISD_ESaISt4pairIKSD_S6_EEESt6vectorIS6_SaIS6_EEEEEJRKSt16in_place_index_tILm3EESD_EEvPT_DpOT0_ = comdat any

$_ZNSt8__detail9__variant15_Variadic_unionIJSt9monostatebN9grpc_core12experimental4Json11NumberValueENSt7__cxx1112basic_stringIcSt11char_traitsIcESaIcEEESt3mapISC_S5_St4lessISC_ESaISt4pairIKSC_S5_EEESt6vectorIS5_SaIS5_EEEEC2ILm3EJSC_EEESt16in_place_index_tIXT_EEDpOT0_ = comdat any

$_ZNSt8__detail9__variant15_Variadic_unionIJbN9grpc_core12experimental4Json11NumberValueENSt7__cxx1112basic_stringIcSt11char_traitsIcESaIcEEESt3mapISB_S4_St4lessISB_ESaISt4pairIKSB_S4_EEESt6vectorIS4_SaIS4_EEEEC2ILm2EJSB_EEESt16in_place_index_tIXT_EEDpOT0_ = comdat any

$_ZNSt8__detail9__variant15_Variadic_unionIJN9grpc_core12experimental4Json11NumberValueENSt7__cxx1112basic_stringIcSt11char_traitsIcESaIcEEESt3mapISB_S4_St4lessISB_ESaISt4pairIKSB_S4_EEESt6vectorIS4_SaIS4_EEEEC2ILm1EJSB_EEESt16in_place_index_tIXT_EEDpOT0_ = comdat any

$_ZNSt8__detail9__variant15_Variadic_unionIJNSt7__cxx1112basic_stringIcSt11char_traitsIcESaIcEEESt3mapIS7_N9grpc_core12experimental4JsonESt4lessIS7_ESaISt4pairIKS7_SB_EEESt6vectorISB_SaISB_EEEEC2IJS7_EEESt16in_place_index_tILm0EEDpOT_ = comdat any

$_ZNSt8__detail9__variant14_UninitializedINSt7__cxx1112basic_stringIcSt11char_traitsIcESaIcEEELb0EEC2IJS7_EEESt16in_place_index_tILm0EEDpOT_ = comdat any

$_ZNSt8__detail9__variant5__getILm3ESt7variantIJSt9monostatebN9grpc_core12experimental4Json11NumberValueENSt7__cxx1112basic_stringIcSt11char_traitsIcESaIcEEESt3mapISD_S6_St4lessISD_ESaISt4pairIKSD_S6_EEESt6vectorIS6_SaIS6_EEEEEEDcOT0_ = comdat any

$_ZNSt8__detail9__variant7__get_nILm3ENS0_15_Variadic_unionIJSt9monostatebN9grpc_core12experimental4Json11NumberValueENSt7__cxx1112basic_stringIcSt11char_traitsIcESaIcEEESt3mapISD_S6_St4lessISD_ESaISt4pairIKSD_S6_EEESt6vectorIS6_SaIS6_EEEEEEEDcOT0_ = comdat any

$_ZNSt8__detail9__variant7__get_nILm0ENS0_15_Variadic_unionIJNSt7__cxx1112basic_stringIcSt11char_traitsIcESaIcEEESt3mapIS8_N9grpc_core12experimental4JsonESt4lessIS8_ESaISt4pairIKS8_SC_EEESt6vectorISC_SaISC_EEEEEEEDcOT0_ = comdat any

$_ZNOSt8__detail9__variant14_UninitializedINSt7__cxx1112basic_stringIcSt11char_traitsIcESaIcEEELb0EE6_M_getEv = comdat any

$_ZN9__gnu_cxx16__aligned_membufINSt7__cxx1112basic_stringIcSt11char_traitsIcESaIcEEEE6_M_ptrEv = comdat any

$_ZN9__gnu_cxx16__aligned_membufINSt7__cxx1112basic_stringIcSt11char_traitsIcESaIcEEEE7_M_addrEv = comdat any

$_ZSt8__invokeIZNSt8__detail9__variant15_Move_ctor_baseILb0EJSt9monostatebN9grpc_core12experimental4Json11NumberValueENSt7__cxx1112basic_stringIcSt11char_traitsIcESaIcEEESt3mapISD_S6_St4lessISD_ESaISt4pairIKSD_S6_EEESt6vectorIS6_SaIS6_EEEEC1EOSP_EUlOT_T0_E_JSL_St17integral_constantImLm4EEEENSt15__invoke_resultISR_JDpT0_EE4typeESS_DpOSY_ = comdat any

$_ZNSt8__detail9__variant17__gen_vtable_implINS0_12_Multi_arrayIPFNS0_20__variant_idx_cookieEOZNS0_15_Move_ctor_baseILb0EJSt9monostatebN9grpc_core12experimental4Json11NumberValueENSt7__cxx1112basic_stringIcSt11char_traitsIcESaIcEEESt3mapISF_S8_St4lessISF_ESaISt4pairIKSF_S8_EEESt6vectorIS8_SaIS8_EEEEC1EOSR_EUlOT_T0_E_OSt7variantIJS5_bS9_SF_SN_SQ_EEEJEEESt16integer_sequenceImJLm4EEEE28__element_by_index_or_cookieILm4ESZ_EEDcOSV_ = comdat any

$_ZSt13__invoke_implIvZNSt8__detail9__variant15_Move_ctor_baseILb0EJSt9monostatebN9grpc_core12experimental4Json11NumberValueENSt7__cxx1112basic_stringIcSt11char_traitsIcESaIcEEESt3mapISD_S6_St4lessISD_ESaISt4pairIKSD_S6_EEESt6vectorIS6_SaIS6_EEEEC1EOSP_EUlOT_T0_E_JSL_St17integral_constantImLm4EEEESR_St14__invoke_otherOST_DpOT1_ = comdat any

$_ZZNSt8__detail9__variant15_Move_ctor_baseILb0EJSt9monostatebN9grpc_core12experimental4Json11NumberValueENSt7__cxx1112basic_stringIcSt11char_traitsIcESaIcEEESt3mapISC_S5_St4lessISC_ESaISt4pairIKSC_S5_EEESt6vectorIS5_SaIS5_EEEEC1EOSO_ENUlOT_T0_E_clISK_St17integral_constantImLm4EEEEDaSR_SS_ = comdat any

$_ZSt10_ConstructINSt8__detail9__variant15_Variadic_unionIJSt9monostatebN9grpc_core12experimental4Json11NumberValueENSt7__cxx1112basic_stringIcSt11char_traitsIcESaIcEEESt3mapISD_S6_St4lessISD_ESaISt4pairIKSD_S6_EEESt6vectorIS6_SaIS6_EEEEEJRKSt16in_place_index_tILm4EESL_EEvPT_DpOT0_ = comdat any

$_ZNSt8__detail9__variant15_Variadic_unionIJSt9monostatebN9grpc_core12experimental4Json11NumberValueENSt7__cxx1112basic_stringIcSt11char_traitsIcESaIcEEESt3mapISC_S5_St4lessISC_ESaISt4pairIKSC_S5_EEESt6vectorIS5_SaIS5_EEEEC2ILm4EJSK_EEESt16in_place_index_tIXT_EEDpOT0_ = comdat any

$_ZNSt8__detail9__variant15_Variadic_unionIJbN9grpc_core12experimental4Json11NumberValueENSt7__cxx1112basic_stringIcSt11char_traitsIcESaIcEEESt3mapISB_S4_St4lessISB_ESaISt4pairIKSB_S4_EEESt6vectorIS4_SaIS4_EEEEC2ILm3EJSJ_EEESt16in_place_index_tIXT_EEDpOT0_ = comdat any

$_ZNSt8__detail9__variant15_Variadic_unionIJN9grpc_core12experimental4Json11NumberValueENSt7__cxx1112basic_stringIcSt11char_traitsIcESaIcEEESt3mapISB_S4_St4lessISB_ESaISt4pairIKSB_S4_EEESt6vectorIS4_SaIS4_EEEEC2ILm2EJSJ_EEESt16in_place_index_tIXT_EEDpOT0_ = comdat any

$_ZNSt8__detail9__variant15_Variadic_unionIJNSt7__cxx1112basic_stringIcSt11char_traitsIcESaIcEEESt3mapIS7_N9grpc_core12experimental4JsonESt4lessIS7_ESaISt4pairIKS7_SB_EEESt6vectorISB_SaISB_EEEEC2ILm1EJSI_EEESt16in_place_index_tIXT_EEDpOT0_ = comdat any

$_ZNSt8__detail9__variant15_Variadic_unionIJSt3mapINSt7__cxx1112basic_stringIcSt11char_traitsIcESaIcEEEN9grpc_core12experimental4JsonESt4lessIS8_ESaISt4pairIKS8_SB_EEESt6vectorISB_SaISB_EEEEC2IJSI_EEESt16in_place_index_tILm0EEDpOT_ = comdat any

$_ZNSt8__detail9__variant14_UninitializedISt3mapINSt7__cxx1112basic_stringIcSt11char_traitsIcESaIcEEEN9grpc_core12experimental4JsonESt4lessIS8_ESaISt4pairIKS8_SB_EEELb0EEC2IJSI_EEESt16in_place_index_tILm0EEDpOT_ = comdat any

$_ZNSt3mapINSt7__cxx1112basic_stringIcSt11char_traitsIcESaIcEEEN9grpc_core12experimental4JsonESt4lessIS5_ESaISt4pairIKS5_S8_EEEC2EOSF_ = comdat any

$_ZNSt8_Rb_treeINSt7__cxx1112basic_stringIcSt11char_traitsIcESaIcEEESt4pairIKS5_N9grpc_core12experimental4JsonEESt10_Select1stISB_ESt4lessIS5_ESaISB_EEC2EOSH_ = comdat any

$_ZNSt8_Rb_treeINSt7__cxx1112basic_stringIcSt11char_traitsIcESaIcEEESt4pairIKS5_N9grpc_core12experimental4JsonEESt10_Select1stISB_ESt4lessIS5_ESaISB_EE13_Rb_tree_implISF_Lb1EEC2EOSJ_ = comdat any

$_ZNSaISt13_Rb_tree_nodeISt4pairIKNSt7__cxx1112basic_stringIcSt11char_traitsIcESaIcEEEN9grpc_core12experimental4JsonEEEEC2ERKSD_ = comdat any

$_ZNSt20_Rb_tree_key_compareISt4lessINSt7__cxx1112basic_stringIcSt11char_traitsIcESaIcEEEEEC2EOS8_ = comdat any

$_ZNSt15_Rb_tree_headerC2EOS_ = comdat any

$_ZNSt15__new_allocatorISt13_Rb_tree_nodeISt4pairIKNSt7__cxx1112basic_stringIcSt11char_traitsIcESaIcEEEN9grpc_core12experimental4JsonEEEEC2ERKSE_ = comdat any

$_ZNSt15_Rb_tree_header12_M_move_dataERS_ = comdat any

$_ZNSt15_Rb_tree_header8_M_resetEv = comdat any

$_ZNSt8__detail9__variant5__getILm4ESt7variantIJSt9monostatebN9grpc_core12experimental4Json11NumberValueENSt7__cxx1112basic_stringIcSt11char_traitsIcESaIcEEESt3mapISD_S6_St4lessISD_ESaISt4pairIKSD_S6_EEESt6vectorIS6_SaIS6_EEEEEEDcOT0_ = comdat any

$_ZNSt8__detail9__variant7__get_nILm4ENS0_15_Variadic_unionIJSt9monostatebN9grpc_core12experimental4Json11NumberValueENSt7__cxx1112basic_stringIcSt11char_traitsIcESaIcEEESt3mapISD_S6_St4lessISD_ESaISt4pairIKSD_S6_EEESt6vectorIS6_SaIS6_EEEEEEEDcOT0_ = comdat any

$_ZNSt8__detail9__variant7__get_nILm1ENS0_15_Variadic_unionIJNSt7__cxx1112basic_stringIcSt11char_traitsIcESaIcEEESt3mapIS8_N9grpc_core12experimental4JsonESt4lessIS8_ESaISt4pairIKS8_SC_EEESt6vectorISC_SaISC_EEEEEEEDcOT0_ = comdat any

$_ZNOSt8__detail9__variant14_UninitializedISt3mapINSt7__cxx1112basic_stringIcSt11char_traitsIcESaIcEEEN9grpc_core12experimental4JsonESt4lessIS8_ESaISt4pairIKS8_SB_EEELb0EE6_M_getEv = comdat any

$_ZSt8__invokeIZNSt8__detail9__variant15_Move_ctor_baseILb0EJSt9monostatebN9grpc_core12experimental4Json11NumberValueENSt7__cxx1112basic_stringIcSt11char_traitsIcESaIcEEESt3mapISD_S6_St4lessISD_ESaISt4pairIKSD_S6_EEESt6vectorIS6_SaIS6_EEEEC1EOSP_EUlOT_T0_E_JSO_St17integral_constantImLm5EEEENSt15__invoke_resultISR_JDpT0_EE4typeESS_DpOSY_ = comdat any

$_ZNSt8__detail9__variant17__gen_vtable_implINS0_12_Multi_arrayIPFNS0_20__variant_idx_cookieEOZNS0_15_Move_ctor_baseILb0EJSt9monostatebN9grpc_core12experimental4Json11NumberValueENSt7__cxx1112basic_stringIcSt11char_traitsIcESaIcEEESt3mapISF_S8_St4lessISF_ESaISt4pairIKSF_S8_EEESt6vectorIS8_SaIS8_EEEEC1EOSR_EUlOT_T0_E_OSt7variantIJS5_bS9_SF_SN_SQ_EEEJEEESt16integer_sequenceImJLm5EEEE28__element_by_index_or_cookieILm5ESZ_EEDcOSV_ = comdat any

$_ZSt13__invoke_implIvZNSt8__detail9__variant15_Move_ctor_baseILb0EJSt9monostatebN9grpc_core12experimental4Json11NumberValueENSt7__cxx1112basic_stringIcSt11char_traitsIcESaIcEEESt3mapISD_S6_St4lessISD_ESaISt4pairIKSD_S6_EEESt6vectorIS6_SaIS6_EEEEC1EOSP_EUlOT_T0_E_JSO_St17integral_constantImLm5EEEESR_St14__invoke_otherOST_DpOT1_ = comdat any

$_ZZNSt8__detail9__variant15_Move_ctor_baseILb0EJSt9monostatebN9grpc_core12experimental4Json11NumberValueENSt7__cxx1112basic_stringIcSt11char_traitsIcESaIcEEESt3mapISC_S5_St4lessISC_ESaISt4pairIKSC_S5_EEESt6vectorIS5_SaIS5_EEEEC1EOSO_ENUlOT_T0_E_clISN_St17integral_constantImLm5EEEEDaSR_SS_ = comdat any

$_ZSt10_ConstructINSt8__detail9__variant15_Variadic_unionIJSt9monostatebN9grpc_core12experimental4Json11NumberValueENSt7__cxx1112basic_stringIcSt11char_traitsIcESaIcEEESt3mapISD_S6_St4lessISD_ESaISt4pairIKSD_S6_EEESt6vectorIS6_SaIS6_EEEEEJRKSt16in_place_index_tILm5EESO_EEvPT_DpOT0_ = comdat any

$_ZNSt8__detail9__variant15_Variadic_unionIJSt9monostatebN9grpc_core12experimental4Json11NumberValueENSt7__cxx1112basic_stringIcSt11char_traitsIcESaIcEEESt3mapISC_S5_St4lessISC_ESaISt4pairIKSC_S5_EEESt6vectorIS5_SaIS5_EEEEC2ILm5EJSN_EEESt16in_place_index_tIXT_EEDpOT0_ = comdat any

$_ZNSt8__detail9__variant15_Variadic_unionIJbN9grpc_core12experimental4Json11NumberValueENSt7__cxx1112basic_stringIcSt11char_traitsIcESaIcEEESt3mapISB_S4_St4lessISB_ESaISt4pairIKSB_S4_EEESt6vectorIS4_SaIS4_EEEEC2ILm4EJSM_EEESt16in_place_index_tIXT_EEDpOT0_ = comdat any

$_ZNSt8__detail9__variant15_Variadic_unionIJN9grpc_core12experimental4Json11NumberValueENSt7__cxx1112basic_stringIcSt11char_traitsIcESaIcEEESt3mapISB_S4_St4lessISB_ESaISt4pairIKSB_S4_EEESt6vectorIS4_SaIS4_EEEEC2ILm3EJSM_EEESt16in_place_index_tIXT_EEDpOT0_ = comdat any

$_ZNSt8__detail9__variant15_Variadic_unionIJNSt7__cxx1112basic_stringIcSt11char_traitsIcESaIcEEESt3mapIS7_N9grpc_core12experimental4JsonESt4lessIS7_ESaISt4pairIKS7_SB_EEESt6vectorISB_SaISB_EEEEC2ILm2EJSL_EEESt16in_place_index_tIXT_EEDpOT0_ = comdat any

$_ZNSt8__detail9__variant15_Variadic_unionIJSt3mapINSt7__cxx1112basic_stringIcSt11char_traitsIcESaIcEEEN9grpc_core12experimental4JsonESt4lessIS8_ESaISt4pairIKS8_SB_EEESt6vectorISB_SaISB_EEEEC2ILm1EJSL_EEESt16in_place_index_tIXT_EEDpOT0_ = comdat any

$_ZNSt8__detail9__variant15_Variadic_unionIJSt6vectorIN9grpc_core12experimental4JsonESaIS5_EEEEC2IJS7_EEESt16in_place_index_tILm0EEDpOT_ = comdat any

$_ZNSt8__detail9__variant14_UninitializedISt6vectorIN9grpc_core12experimental4JsonESaIS5_EELb0EEC2IJS7_EEESt16in_place_index_tILm0EEDpOT_ = comdat any

$_ZNSt6vectorIN9grpc_core12experimental4JsonESaIS2_EEC2EOS4_ = comdat any

$_ZNSt12_Vector_baseIN9grpc_core12experimental4JsonESaIS2_EEC2EOS4_ = comdat any

$_ZNSt12_Vector_baseIN9grpc_core12experimental4JsonESaIS2_EE12_Vector_implC2EOS5_ = comdat any

$_ZNSt12_Vector_baseIN9grpc_core12experimental4JsonESaIS2_EE17_Vector_impl_dataC2EOS5_ = comdat any

$_ZNSt15__new_allocatorIN9grpc_core12experimental4JsonEEC2ERKS3_ = comdat any

$_ZNSt8__detail9__variant5__getILm5ESt7variantIJSt9monostatebN9grpc_core12experimental4Json11NumberValueENSt7__cxx1112basic_stringIcSt11char_traitsIcESaIcEEESt3mapISD_S6_St4lessISD_ESaISt4pairIKSD_S6_EEESt6vectorIS6_SaIS6_EEEEEEDcOT0_ = comdat any

$_ZNSt8__detail9__variant7__get_nILm5ENS0_15_Variadic_unionIJSt9monostatebN9grpc_core12experimental4Json11NumberValueENSt7__cxx1112basic_stringIcSt11char_traitsIcESaIcEEESt3mapISD_S6_St4lessISD_ESaISt4pairIKSD_S6_EEESt6vectorIS6_SaIS6_EEEEEEEDcOT0_ = comdat any

$_ZNSt8__detail9__variant7__get_nILm2ENS0_15_Variadic_unionIJNSt7__cxx1112basic_stringIcSt11char_traitsIcESaIcEEESt3mapIS8_N9grpc_core12experimental4JsonESt4lessIS8_ESaISt4pairIKS8_SC_EEESt6vectorISC_SaISC_EEEEEEEDcOT0_ = comdat any

$_ZNOSt8__detail9__variant14_UninitializedISt6vectorIN9grpc_core12experimental4JsonESaIS5_EELb0EE6_M_getEv = comdat any

$_ZN9__gnu_cxx16__aligned_membufISt6vectorIN9grpc_core12experimental4JsonESaIS4_EEE6_M_ptrEv = comdat any

$_ZN9__gnu_cxx16__aligned_membufISt6vectorIN9grpc_core12experimental4JsonESaIS4_EEE7_M_addrEv = comdat any

$_ZSt8__invokeIZNSt8__detail9__variant15_Move_ctor_baseILb0EJSt9monostatebN9grpc_core12experimental4Json11NumberValueENSt7__cxx1112basic_stringIcSt11char_traitsIcESaIcEEESt3mapISD_S6_St4lessISD_ESaISt4pairIKSD_S6_EEESt6vectorIS6_SaIS6_EEEEC1EOSP_EUlOT_T0_E_JNS1_16__variant_cookieESt17integral_constantImLm18446744073709551615EEEENSt15__invoke_resultISR_JDpT0_EE4typeESS_DpOSZ_ = comdat any

$_ZNSt8__detail9__variant17__gen_vtable_implINS0_12_Multi_arrayIPFNS0_20__variant_idx_cookieEOZNS0_15_Move_ctor_baseILb0EJSt9monostatebN9grpc_core12experimental4Json11NumberValueENSt7__cxx1112basic_stringIcSt11char_traitsIcESaIcEEESt3mapISF_S8_St4lessISF_ESaISt4pairIKSF_S8_EEESt6vectorIS8_SaIS8_EEEEC1EOSR_EUlOT_T0_E_OSt7variantIJS5_bS9_SF_SN_SQ_EEEJEEESt16integer_sequenceImJLm18446744073709551615EEEE28__element_by_index_or_cookieILm18446744073709551615ESZ_EEDcOSV_ = comdat any

$_ZSt13__invoke_implIvZNSt8__detail9__variant15_Move_ctor_baseILb0EJSt9monostatebN9grpc_core12experimental4Json11NumberValueENSt7__cxx1112basic_stringIcSt11char_traitsIcESaIcEEESt3mapISD_S6_St4lessISD_ESaISt4pairIKSD_S6_EEESt6vectorIS6_SaIS6_EEEEC1EOSP_EUlOT_T0_E_JNS1_16__variant_cookieESt17integral_constantImLm18446744073709551615EEEESR_St14__invoke_otherOST_DpOT1_ = comdat any

$_ZZNSt8__detail9__variant15_Move_ctor_baseILb0EJSt9monostatebN9grpc_core12experimental4Json11NumberValueENSt7__cxx1112basic_stringIcSt11char_traitsIcESaIcEEESt3mapISC_S5_St4lessISC_ESaISt4pairIKSC_S5_EEESt6vectorIS5_SaIS5_EEEEC1EOSO_ENUlOT_T0_E_clINS0_16__variant_cookieESt17integral_constantImLm18446744073709551615EEEEDaSR_SS_ = comdat any

$_ZSt3getILm0EJSt9monostatebN9grpc_core12experimental4Json11NumberValueENSt7__cxx1112basic_stringIcSt11char_traitsIcESaIcEEESt3mapISA_S3_St4lessISA_ESaISt4pairIKSA_S3_EEESt6vectorIS3_SaIS3_EEEERNSt19variant_alternativeIXT_ESt7variantIJDpT0_EEE4typeERSQ_ = comdat any

$_ZNSt7variantIJSt9monostatebN9grpc_core12experimental4Json11NumberValueENSt7__cxx1112basic_stringIcSt11char_traitsIcESaIcEEESt3mapISA_S3_St4lessISA_ESaISt4pairIKSA_S3_EEESt6vectorIS3_SaIS3_EEEE7emplaceILm0EJS0_EEENSt9enable_ifIX18is_constructible_vINSt9_Nth_typeIXT_EJS0_bS4_SA_SI_SL_EE4typeEDpT0_EERSR_E4typeEDpOSS_ = comdat any

$_ZSt26__throw_bad_variant_accessb = comdat any

$_ZNKSt7variantIJSt9monostatebN9grpc_core12experimental4Json11NumberValueENSt7__cxx1112basic_stringIcSt11char_traitsIcESaIcEEESt3mapISA_S3_St4lessISA_ESaISt4pairIKSA_S3_EEESt6vectorIS3_SaIS3_EEEE22valueless_by_exceptionEv = comdat any

$_ZNSt8__detail9__variant5__getILm0ERSt7variantIJSt9monostatebN9grpc_core12experimental4Json11NumberValueENSt7__cxx1112basic_stringIcSt11char_traitsIcESaIcEEESt3mapISD_S6_St4lessISD_ESaISt4pairIKSD_S6_EEESt6vectorIS6_SaIS6_EEEEEEDcOT0_ = comdat any

$_ZNKSt8__detail9__variant16_Variant_storageILb0EJSt9monostatebN9grpc_core12experimental4Json11NumberValueENSt7__cxx1112basic_stringIcSt11char_traitsIcESaIcEEESt3mapISC_S5_St4lessISC_ESaISt4pairIKSC_S5_EEESt6vectorIS5_SaIS5_EEEE8_M_validEv = comdat any

$_ZNSt8__detail9__variant7__get_nILm0ERNS0_15_Variadic_unionIJSt9monostatebN9grpc_core12experimental4Json11NumberValueENSt7__cxx1112basic_stringIcSt11char_traitsIcESaIcEEESt3mapISD_S6_St4lessISD_ESaISt4pairIKSD_S6_EEESt6vectorIS6_SaIS6_EEEEEEEDcOT0_ = comdat any

$_ZNRSt8__detail9__variant14_UninitializedISt9monostateLb1EE6_M_getEv = comdat any

$_ZNSt8__detail9__variant9__emplaceILm0ELb0EJSt9monostatebN9grpc_core12experimental4Json11NumberValueENSt7__cxx1112basic_stringIcSt11char_traitsIcESaIcEEESt3mapISC_S5_St4lessISC_ESaISt4pairIKSC_S5_EEESt6vectorIS5_SaIS5_EEEJS2_EEEvRNS0_16_Variant_storageIXT0_EJDpT1_EEEDpOT2_ = comdat any

$_ZNSt8__detail9__variant16_Variant_storageILb0EJSt9monostatebN9grpc_core12experimental4Json11NumberValueENSt7__cxx1112basic_stringIcSt11char_traitsIcESaIcEEESt3mapISC_S5_St4lessISC_ESaISt4pairIKSC_S5_EEESt6vectorIS5_SaIS5_EEEE8_M_resetEv = comdat any

$_ZSt10_ConstructISt9monostateJS0_EEvPT_DpOT0_ = comdat any

$_ZSt10__do_visitIvZNSt8__detail9__variant16_Variant_storageILb0EJSt9monostatebN9grpc_core12experimental4Json11NumberValueENSt7__cxx1112basic_stringIcSt11char_traitsIcESaIcEEESt3mapISD_S6_St4lessISD_ESaISt4pairIKSD_S6_EEESt6vectorIS6_SaIS6_EEEE8_M_resetEvEUlOT_E_JRSt7variantIJS3_bS7_SD_SL_SO_EEEEDcOT0_DpOT1_ = comdat any

$_ZSt14__variant_castIJSt9monostatebN9grpc_core12experimental4Json11NumberValueENSt7__cxx1112basic_stringIcSt11char_traitsIcESaIcEEESt3mapISA_S3_St4lessISA_ESaISt4pairIKSA_S3_EEESt6vectorIS3_SaIS3_EEERNSt8__detail9__variant16_Variant_storageILb0EJS0_bS4_SA_SI_SL_EEEEDcOT0_ = comdat any

$_ZZSt10__do_visitIvZNSt8__detail9__variant16_Variant_storageILb0EJSt9monostatebN9grpc_core12experimental4Json11NumberValueENSt7__cxx1112basic_stringIcSt11char_traitsIcESaIcEEESt3mapISD_S6_St4lessISD_ESaISt4pairIKSD_S6_EEESt6vectorIS6_SaIS6_EEEE8_M_resetEvEUlOT_E_JRSt7variantIJS3_bS7_SD_SL_SO_EEEEDcOT0_DpOT1_ENKUlSV_zE_clB5cxx11ESV_z = comdat any

$_ZNSt8__detail9__variant17__gen_vtable_implINS0_12_Multi_arrayIPFvOZNS0_16_Variant_storageILb0EJSt9monostatebN9grpc_core12experimental4Json11NumberValueENSt7__cxx1112basic_stringIcSt11char_traitsIcESaIcEEESt3mapISE_S7_St4lessISE_ESaISt4pairIKSE_S7_EEESt6vectorIS7_SaIS7_EEEE8_M_resetEvEUlOT_E_RSt7variantIJS4_bS8_SE_SM_SP_EEEJEEESt16integer_sequenceImJLm0EEEE14__visit_invokeESU_SX_ = comdat any

$_ZNSt8__detail9__variant17__gen_vtable_implINS0_12_Multi_arrayIPFvOZNS0_16_Variant_storageILb0EJSt9monostatebN9grpc_core12experimental4Json11NumberValueENSt7__cxx1112basic_stringIcSt11char_traitsIcESaIcEEESt3mapISE_S7_St4lessISE_ESaISt4pairIKSE_S7_EEESt6vectorIS7_SaIS7_EEEE8_M_resetEvEUlOT_E_RSt7variantIJS4_bS8_SE_SM_SP_EEEJEEESt16integer_sequenceImJLm1EEEE14__visit_invokeESU_SX_ = comdat any

$_ZNSt8__detail9__variant17__gen_vtable_implINS0_12_Multi_arrayIPFvOZNS0_16_Variant_storageILb0EJSt9monostatebN9grpc_core12experimental4Json11NumberValueENSt7__cxx1112basic_stringIcSt11char_traitsIcESaIcEEESt3mapISE_S7_St4lessISE_ESaISt4pairIKSE_S7_EEESt6vectorIS7_SaIS7_EEEE8_M_resetEvEUlOT_E_RSt7variantIJS4_bS8_SE_SM_SP_EEEJEEESt16integer_sequenceImJLm2EEEE14__visit_invokeESU_SX_ = comdat any

$_ZNSt8__detail9__variant17__gen_vtable_implINS0_12_Multi_arrayIPFvOZNS0_16_Variant_storageILb0EJSt9monostatebN9grpc_core12experimental4Json11NumberValueENSt7__cxx1112basic_stringIcSt11char_traitsIcESaIcEEESt3mapISE_S7_St4lessISE_ESaISt4pairIKSE_S7_EEESt6vectorIS7_SaIS7_EEEE8_M_resetEvEUlOT_E_RSt7variantIJS4_bS8_SE_SM_SP_EEEJEEESt16integer_sequenceImJLm3EEEE14__visit_invokeESU_SX_ = comdat any

$_ZNSt8__detail9__variant17__gen_vtable_implINS0_12_Multi_arrayIPFvOZNS0_16_Variant_storageILb0EJSt9monostatebN9grpc_core12experimental4Json11NumberValueENSt7__cxx1112basic_stringIcSt11char_traitsIcESaIcEEESt3mapISE_S7_St4lessISE_ESaISt4pairIKSE_S7_EEESt6vectorIS7_SaIS7_EEEE8_M_resetEvEUlOT_E_RSt7variantIJS4_bS8_SE_SM_SP_EEEJEEESt16integer_sequenceImJLm4EEEE14__visit_invokeESU_SX_ = comdat any

$_ZNSt8__detail9__variant17__gen_vtable_implINS0_12_Multi_arrayIPFvOZNS0_16_Variant_storageILb0EJSt9monostatebN9grpc_core12experimental4Json11NumberValueENSt7__cxx1112basic_stringIcSt11char_traitsIcESaIcEEESt3mapISE_S7_St4lessISE_ESaISt4pairIKSE_S7_EEESt6vectorIS7_SaIS7_EEEE8_M_resetEvEUlOT_E_RSt7variantIJS4_bS8_SE_SM_SP_EEEJEEESt16integer_sequenceImJLm5EEEE14__visit_invokeESU_SX_ = comdat any

$_ZSt10__invoke_rIvZNSt8__detail9__variant16_Variant_storageILb0EJSt9monostatebN9grpc_core12experimental4Json11NumberValueENSt7__cxx1112basic_stringIcSt11char_traitsIcESaIcEEESt3mapISD_S6_St4lessISD_ESaISt4pairIKSD_S6_EEESt6vectorIS6_SaIS6_EEEE8_M_resetEvEUlOT_E_JRS3_EENSt9enable_ifIX16is_invocable_r_vISQ_T0_DpT1_EESQ_E4typeEOSV_DpOSW_ = comdat any

$_ZSt13__invoke_implIvZNSt8__detail9__variant16_Variant_storageILb0EJSt9monostatebN9grpc_core12experimental4Json11NumberValueENSt7__cxx1112basic_stringIcSt11char_traitsIcESaIcEEESt3mapISD_S6_St4lessISD_ESaISt4pairIKSD_S6_EEESt6vectorIS6_SaIS6_EEEE8_M_resetEvEUlOT_E_JRS3_EESQ_St14__invoke_otherOT0_DpOT1_ = comdat any

$_ZZNSt8__detail9__variant16_Variant_storageILb0EJSt9monostatebN9grpc_core12experimental4Json11NumberValueENSt7__cxx1112basic_stringIcSt11char_traitsIcESaIcEEESt3mapISC_S5_St4lessISC_ESaISt4pairIKSC_S5_EEESt6vectorIS5_SaIS5_EEEE8_M_resetEvENUlOT_E_clIRS2_EEDaSQ_ = comdat any

$_ZSt8_DestroyISt9monostateEvPT_ = comdat any

$_ZSt10__invoke_rIvZNSt8__detail9__variant16_Variant_storageILb0EJSt9monostatebN9grpc_core12experimental4Json11NumberValueENSt7__cxx1112basic_stringIcSt11char_traitsIcESaIcEEESt3mapISD_S6_St4lessISD_ESaISt4pairIKSD_S6_EEESt6vectorIS6_SaIS6_EEEE8_M_resetEvEUlOT_E_JRbEENSt9enable_ifIX16is_invocable_r_vISQ_T0_DpT1_EESQ_E4typeEOSV_DpOSW_ = comdat any

$_ZNSt8__detail9__variant5__getILm1ERSt7variantIJSt9monostatebN9grpc_core12experimental4Json11NumberValueENSt7__cxx1112basic_stringIcSt11char_traitsIcESaIcEEESt3mapISD_S6_St4lessISD_ESaISt4pairIKSD_S6_EEESt6vectorIS6_SaIS6_EEEEEEDcOT0_ = comdat any

$_ZSt13__invoke_implIvZNSt8__detail9__variant16_Variant_storageILb0EJSt9monostatebN9grpc_core12experimental4Json11NumberValueENSt7__cxx1112basic_stringIcSt11char_traitsIcESaIcEEESt3mapISD_S6_St4lessISD_ESaISt4pairIKSD_S6_EEESt6vectorIS6_SaIS6_EEEE8_M_resetEvEUlOT_E_JRbEESQ_St14__invoke_otherOT0_DpOT1_ = comdat any

$_ZZNSt8__detail9__variant16_Variant_storageILb0EJSt9monostatebN9grpc_core12experimental4Json11NumberValueENSt7__cxx1112basic_stringIcSt11char_traitsIcESaIcEEESt3mapISC_S5_St4lessISC_ESaISt4pairIKSC_S5_EEESt6vectorIS5_SaIS5_EEEE8_M_resetEvENUlOT_E_clIRbEEDaSQ_ = comdat any

$_ZSt8_DestroyIbEvPT_ = comdat any

$_ZNSt8__detail9__variant7__get_nILm1ERNS0_15_Variadic_unionIJSt9monostatebN9grpc_core12experimental4Json11NumberValueENSt7__cxx1112basic_stringIcSt11char_traitsIcESaIcEEESt3mapISD_S6_St4lessISD_ESaISt4pairIKSD_S6_EEESt6vectorIS6_SaIS6_EEEEEEEDcOT0_ = comdat any

$_ZNRSt8__detail9__variant14_UninitializedIbLb1EE6_M_getEv = comdat any

$_ZSt10__invoke_rIvZNSt8__detail9__variant16_Variant_storageILb0EJSt9monostatebN9grpc_core12experimental4Json11NumberValueENSt7__cxx1112basic_stringIcSt11char_traitsIcESaIcEEESt3mapISD_S6_St4lessISD_ESaISt4pairIKSD_S6_EEESt6vectorIS6_SaIS6_EEEE8_M_resetEvEUlOT_E_JRS7_EENSt9enable_ifIX16is_invocable_r_vISQ_T0_DpT1_EESQ_E4typeEOSV_DpOSW_ = comdat any

$_ZNSt8__detail9__variant5__getILm2ERSt7variantIJSt9monostatebN9grpc_core12experimental4Json11NumberValueENSt7__cxx1112basic_stringIcSt11char_traitsIcESaIcEEESt3mapISD_S6_St4lessISD_ESaISt4pairIKSD_S6_EEESt6vectorIS6_SaIS6_EEEEEEDcOT0_ = comdat any

$_ZSt13__invoke_implIvZNSt8__detail9__variant16_Variant_storageILb0EJSt9monostatebN9grpc_core12experimental4Json11NumberValueENSt7__cxx1112basic_stringIcSt11char_traitsIcESaIcEEESt3mapISD_S6_St4lessISD_ESaISt4pairIKSD_S6_EEESt6vectorIS6_SaIS6_EEEE8_M_resetEvEUlOT_E_JRS7_EESQ_St14__invoke_otherOT0_DpOT1_ = comdat any

$_ZZNSt8__detail9__variant16_Variant_storageILb0EJSt9monostatebN9grpc_core12experimental4Json11NumberValueENSt7__cxx1112basic_stringIcSt11char_traitsIcESaIcEEESt3mapISC_S5_St4lessISC_ESaISt4pairIKSC_S5_EEESt6vectorIS5_SaIS5_EEEE8_M_resetEvENUlOT_E_clIRS6_EEDaSQ_ = comdat any

$_ZSt8_DestroyIN9grpc_core12experimental4Json11NumberValueEEvPT_ = comdat any

$_ZN9grpc_core12experimental4Json11NumberValueD2Ev = comdat any

$_ZNSt8__detail9__variant7__get_nILm2ERNS0_15_Variadic_unionIJSt9monostatebN9grpc_core12experimental4Json11NumberValueENSt7__cxx1112basic_stringIcSt11char_traitsIcESaIcEEESt3mapISD_S6_St4lessISD_ESaISt4pairIKSD_S6_EEESt6vectorIS6_SaIS6_EEEEEEEDcOT0_ = comdat any

$_ZNRSt8__detail9__variant14_UninitializedIN9grpc_core12experimental4Json11NumberValueELb0EE6_M_getEv = comdat any

$_ZSt10__invoke_rIvZNSt8__detail9__variant16_Variant_storageILb0EJSt9monostatebN9grpc_core12experimental4Json11NumberValueENSt7__cxx1112basic_stringIcSt11char_traitsIcESaIcEEESt3mapISD_S6_St4lessISD_ESaISt4pairIKSD_S6_EEESt6vectorIS6_SaIS6_EEEE8_M_resetEvEUlOT_E_JRSD_EENSt9enable_ifIX16is_invocable_r_vISQ_T0_DpT1_EESQ_E4typeEOSV_DpOSW_ = comdat any

$_ZNSt8__detail9__variant5__getILm3ERSt7variantIJSt9monostatebN9grpc_core12experimental4Json11NumberValueENSt7__cxx1112basic_stringIcSt11char_traitsIcESaIcEEESt3mapISD_S6_St4lessISD_ESaISt4pairIKSD_S6_EEESt6vectorIS6_SaIS6_EEEEEEDcOT0_ = comdat any

$_ZSt13__invoke_implIvZNSt8__detail9__variant16_Variant_storageILb0EJSt9monostatebN9grpc_core12experimental4Json11NumberValueENSt7__cxx1112basic_stringIcSt11char_traitsIcESaIcEEESt3mapISD_S6_St4lessISD_ESaISt4pairIKSD_S6_EEESt6vectorIS6_SaIS6_EEEE8_M_resetEvEUlOT_E_JRSD_EESQ_St14__invoke_otherOT0_DpOT1_ = comdat any

$_ZZNSt8__detail9__variant16_Variant_storageILb0EJSt9monostatebN9grpc_core12experimental4Json11NumberValueENSt7__cxx1112basic_stringIcSt11char_traitsIcESaIcEEESt3mapISC_S5_St4lessISC_ESaISt4pairIKSC_S5_EEESt6vectorIS5_SaIS5_EEEE8_M_resetEvENUlOT_E_clIRSC_EEDaSQ_ = comdat any

$_ZSt8_DestroyINSt7__cxx1112basic_stringIcSt11char_traitsIcESaIcEEEEvPT_ = comdat any

$_ZNSt8__detail9__variant7__get_nILm3ERNS0_15_Variadic_unionIJSt9monostatebN9grpc_core12experimental4Json11NumberValueENSt7__cxx1112basic_stringIcSt11char_traitsIcESaIcEEESt3mapISD_S6_St4lessISD_ESaISt4pairIKSD_S6_EEESt6vectorIS6_SaIS6_EEEEEEEDcOT0_ = comdat any

$_ZNSt8__detail9__variant7__get_nILm0ERNS0_15_Variadic_unionIJNSt7__cxx1112basic_stringIcSt11char_traitsIcESaIcEEESt3mapIS8_N9grpc_core12experimental4JsonESt4lessIS8_ESaISt4pairIKS8_SC_EEESt6vectorISC_SaISC_EEEEEEEDcOT0_ = comdat any

$_ZNRSt8__detail9__variant14_UninitializedINSt7__cxx1112basic_stringIcSt11char_traitsIcESaIcEEELb0EE6_M_getEv = comdat any

$_ZSt10__invoke_rIvZNSt8__detail9__variant16_Variant_storageILb0EJSt9monostatebN9grpc_core12experimental4Json11NumberValueENSt7__cxx1112basic_stringIcSt11char_traitsIcESaIcEEESt3mapISD_S6_St4lessISD_ESaISt4pairIKSD_S6_EEESt6vectorIS6_SaIS6_EEEE8_M_resetEvEUlOT_E_JRSL_EENSt9enable_ifIX16is_invocable_r_vISQ_T0_DpT1_EESQ_E4typeEOSV_DpOSW_ = comdat any

$_ZNSt8__detail9__variant5__getILm4ERSt7variantIJSt9monostatebN9grpc_core12experimental4Json11NumberValueENSt7__cxx1112basic_stringIcSt11char_traitsIcESaIcEEESt3mapISD_S6_St4lessISD_ESaISt4pairIKSD_S6_EEESt6vectorIS6_SaIS6_EEEEEEDcOT0_ = comdat any

$_ZSt13__invoke_implIvZNSt8__detail9__variant16_Variant_storageILb0EJSt9monostatebN9grpc_core12experimental4Json11NumberValueENSt7__cxx1112basic_stringIcSt11char_traitsIcESaIcEEESt3mapISD_S6_St4lessISD_ESaISt4pairIKSD_S6_EEESt6vectorIS6_SaIS6_EEEE8_M_resetEvEUlOT_E_JRSL_EESQ_St14__invoke_otherOT0_DpOT1_ = comdat any

$_ZZNSt8__detail9__variant16_Variant_storageILb0EJSt9monostatebN9grpc_core12experimental4Json11NumberValueENSt7__cxx1112basic_stringIcSt11char_traitsIcESaIcEEESt3mapISC_S5_St4lessISC_ESaISt4pairIKSC_S5_EEESt6vectorIS5_SaIS5_EEEE8_M_resetEvENUlOT_E_clIRSK_EEDaSQ_ = comdat any

$_ZSt8_DestroyISt3mapINSt7__cxx1112basic_stringIcSt11char_traitsIcESaIcEEEN9grpc_core12experimental4JsonESt4lessIS6_ESaISt4pairIKS6_S9_EEEEvPT_ = comdat any

$_ZNSt3mapINSt7__cxx1112basic_stringIcSt11char_traitsIcESaIcEEEN9grpc_core12experimental4JsonESt4lessIS5_ESaISt4pairIKS5_S8_EEED2Ev = comdat any

$_ZNSt8_Rb_treeINSt7__cxx1112basic_stringIcSt11char_traitsIcESaIcEEESt4pairIKS5_N9grpc_core12experimental4JsonEESt10_Select1stISB_ESt4lessIS5_ESaISB_EED2Ev = comdat any

$_ZNSt8_Rb_treeINSt7__cxx1112basic_stringIcSt11char_traitsIcESaIcEEESt4pairIKS5_N9grpc_core12experimental4JsonEESt10_Select1stISB_ESt4lessIS5_ESaISB_EE8_M_eraseEPSt13_Rb_tree_nodeISB_E = comdat any

$_ZNSt8_Rb_treeINSt7__cxx1112basic_stringIcSt11char_traitsIcESaIcEEESt4pairIKS5_N9grpc_core12experimental4JsonEESt10_Select1stISB_ESt4lessIS5_ESaISB_EE13_Rb_tree_implISF_Lb1EED2Ev = comdat any

$_ZNSaISt13_Rb_tree_nodeISt4pairIKNSt7__cxx1112basic_stringIcSt11char_traitsIcESaIcEEEN9grpc_core12experimental4JsonEEEED2Ev = comdat any

$_ZNSt15__new_allocatorISt13_Rb_tree_nodeISt4pairIKNSt7__cxx1112basic_stringIcSt11char_traitsIcESaIcEEEN9grpc_core12experimental4JsonEEEED2Ev = comdat any

$_ZNSt8__detail9__variant7__get_nILm4ERNS0_15_Variadic_unionIJSt9monostatebN9grpc_core12experimental4Json11NumberValueENSt7__cxx1112basic_stringIcSt11char_traitsIcESaIcEEESt3mapISD_S6_St4lessISD_ESaISt4pairIKSD_S6_EEESt6vectorIS6_SaIS6_EEEEEEEDcOT0_ = comdat any

$_ZNSt8__detail9__variant7__get_nILm1ERNS0_15_Variadic_unionIJNSt7__cxx1112basic_stringIcSt11char_traitsIcESaIcEEESt3mapIS8_N9grpc_core12experimental4JsonESt4lessIS8_ESaISt4pairIKS8_SC_EEESt6vectorISC_SaISC_EEEEEEEDcOT0_ = comdat any

$_ZSt10__invoke_rIvZNSt8__detail9__variant16_Variant_storageILb0EJSt9monostatebN9grpc_core12experimental4Json11NumberValueENSt7__cxx1112basic_stringIcSt11char_traitsIcESaIcEEESt3mapISD_S6_St4lessISD_ESaISt4pairIKSD_S6_EEESt6vectorIS6_SaIS6_EEEE8_M_resetEvEUlOT_E_JRSO_EENSt9enable_ifIX16is_invocable_r_vISQ_T0_DpT1_EESQ_E4typeEOSV_DpOSW_ = comdat any

$_ZNSt8__detail9__variant5__getILm5ERSt7variantIJSt9monostatebN9grpc_core12experimental4Json11NumberValueENSt7__cxx1112basic_stringIcSt11char_traitsIcESaIcEEESt3mapISD_S6_St4lessISD_ESaISt4pairIKSD_S6_EEESt6vectorIS6_SaIS6_EEEEEEDcOT0_ = comdat any

$_ZSt13__invoke_implIvZNSt8__detail9__variant16_Variant_storageILb0EJSt9monostatebN9grpc_core12experimental4Json11NumberValueENSt7__cxx1112basic_stringIcSt11char_traitsIcESaIcEEESt3mapISD_S6_St4lessISD_ESaISt4pairIKSD_S6_EEESt6vectorIS6_SaIS6_EEEE8_M_resetEvEUlOT_E_JRSO_EESQ_St14__invoke_otherOT0_DpOT1_ = comdat any

$_ZZNSt8__detail9__variant16_Variant_storageILb0EJSt9monostatebN9grpc_core12experimental4Json11NumberValueENSt7__cxx1112basic_stringIcSt11char_traitsIcESaIcEEESt3mapISC_S5_St4lessISC_ESaISt4pairIKSC_S5_EEESt6vectorIS5_SaIS5_EEEE8_M_resetEvENUlOT_E_clIRSN_EEDaSQ_ = comdat any

$_ZSt8_DestroyISt6vectorIN9grpc_core12experimental4JsonESaIS3_EEEvPT_ = comdat any

$_ZNSt6vectorIN9grpc_core12experimental4JsonESaIS2_EED2Ev = comdat any

$_ZSt8_DestroyIPN9grpc_core12experimental4JsonES2_EvT_S4_RSaIT0_E = comdat any

$_ZNSt12_Vector_baseIN9grpc_core12experimental4JsonESaIS2_EED2Ev = comdat any

$_ZSt8_DestroyIPN9grpc_core12experimental4JsonEEvT_S4_ = comdat any

$_ZNSt12_Destroy_auxILb0EE9__destroyIPN9grpc_core12experimental4JsonEEEvT_S6_ = comdat any

$_ZSt8_DestroyIN9grpc_core12experimental4JsonEEvPT_ = comdat any

$_ZNSt12_Vector_baseIN9grpc_core12experimental4JsonESaIS2_EE12_Vector_implD2Ev = comdat any

$_ZNSt15__new_allocatorIN9grpc_core12experimental4JsonEED2Ev = comdat any

$_ZNSt8__detail9__variant7__get_nILm5ERNS0_15_Variadic_unionIJSt9monostatebN9grpc_core12experimental4Json11NumberValueENSt7__cxx1112basic_stringIcSt11char_traitsIcESaIcEEESt3mapISD_S6_St4lessISD_ESaISt4pairIKSD_S6_EEESt6vectorIS6_SaIS6_EEEEEEEDcOT0_ = comdat any

$_ZNSt8__detail9__variant7__get_nILm2ERNS0_15_Variadic_unionIJNSt7__cxx1112basic_stringIcSt11char_traitsIcESaIcEEESt3mapIS8_N9grpc_core12experimental4JsonESt4lessIS8_ESaISt4pairIKS8_SC_EEESt6vectorISC_SaISC_EEEEEEEDcOT0_ = comdat any

$_ZNRSt8__detail9__variant14_UninitializedISt6vectorIN9grpc_core12experimental4JsonESaIS5_EELb0EE6_M_getEv = comdat any

$_ZNSt15__new_allocatorIN9grpc_core12experimental4JsonEE7destroyIS2_EEvPT_ = comdat any

$_ZNSt16allocator_traitsISaIN9grpc_core12experimental4JsonEEE10deallocateERS3_PS2_m = comdat any

$_ZNSt15__new_allocatorIN9grpc_core12experimental4JsonEE10deallocateEPS2_m = comdat any

$_ZNK9__gnu_cxx17__normal_iteratorIPN9grpc_core12experimental4JsonESt6vectorIS3_SaIS3_EEEmiEl = comdat any

$_ZNK9__gnu_cxx17__normal_iteratorIPN9grpc_core12experimental4JsonESt6vectorIS3_SaIS3_EEEdeEv = comdat any

$_ZNSt8__detail9__variant5__getILm1ERSt7variantIJSt3mapINSt7__cxx1112basic_stringIcSt11char_traitsIcESaIcEEEN9grpc_core12experimental4JsonESt4lessIS9_ESaISt4pairIKS9_SC_EEESt6vectorISC_SaISC_EEEEEEDcOT0_ = comdat any

$_ZNSt8__detail9__variant7__get_nILm1ERNS0_15_Variadic_unionIJSt3mapINSt7__cxx1112basic_stringIcSt11char_traitsIcESaIcEEEN9grpc_core12experimental4JsonESt4lessIS9_ESaISt4pairIKS9_SC_EEESt6vectorISC_SaISC_EEEEEEEDcOT0_ = comdat any

$_ZNSt7variantIJSt9monostatebN9grpc_core12experimental4Json11NumberValueENSt7__cxx1112basic_stringIcSt11char_traitsIcESaIcEEESt3mapISA_S3_St4lessISA_ESaISt4pairIKSA_S3_EEESt6vectorIS3_SaIS3_EEEEaSIS4_EENSt9enable_ifIXaaaa14__exactly_onceINSt9_Nth_typeIX16__accepted_indexIOT_EEJS0_bS4_SA_SI_SL_EE4typeEE18is_constructible_vIST_SQ_E15is_assignable_vIRST_SQ_EERSM_E4typeESR_ = comdat any

$_ZSt3getILm2EJSt9monostatebN9grpc_core12experimental4Json11NumberValueENSt7__cxx1112basic_stringIcSt11char_traitsIcESaIcEEESt3mapISA_S3_St4lessISA_ESaISt4pairIKSA_S3_EEESt6vectorIS3_SaIS3_EEEERNSt19variant_alternativeIXT_ESt7variantIJDpT0_EEE4typeERSQ_ = comdat any

$_ZN9grpc_core12experimental4Json11NumberValueaSEOS2_ = comdat any

$_ZNSt7variantIJSt9monostatebN9grpc_core12experimental4Json11NumberValueENSt7__cxx1112basic_stringIcSt11char_traitsIcESaIcEEESt3mapISA_S3_St4lessISA_ESaISt4pairIKSA_S3_EEESt6vectorIS3_SaIS3_EEEE7emplaceILm2EJS4_EEENSt9enable_ifIX18is_constructible_vINSt9_Nth_typeIXT_EJS0_bS4_SA_SI_SL_EE4typeEDpT0_EERSR_E4typeEDpOSS_ = comdat any

$_ZNSt8__detail9__variant9__emplaceILm2ELb0EJSt9monostatebN9grpc_core12experimental4Json11NumberValueENSt7__cxx1112basic_stringIcSt11char_traitsIcESaIcEEESt3mapISC_S5_St4lessISC_ESaISt4pairIKSC_S5_EEESt6vectorIS5_SaIS5_EEEJS6_EEEvRNS0_16_Variant_storageIXT0_EJDpT1_EEEDpOT2_ = comdat any

$_ZSt10_ConstructIN9grpc_core12experimental4Json11NumberValueEJS3_EEvPT_DpOT0_ = comdat any

$_ZNSt7variantIJSt9monostatebN9grpc_core12experimental4Json11NumberValueENSt7__cxx1112basic_stringIcSt11char_traitsIcESaIcEEESt3mapISA_S3_St4lessISA_ESaISt4pairIKSA_S3_EEESt6vectorIS3_SaIS3_EEEEaSEOSM_ = comdat any

$_ZNSt8__detail9__variant13_Variant_baseIJSt9monostatebN9grpc_core12experimental4Json11NumberValueENSt7__cxx1112basic_stringIcSt11char_traitsIcESaIcEEESt3mapISC_S5_St4lessISC_ESaISt4pairIKSC_S5_EEESt6vectorIS5_SaIS5_EEEEaSEOSO_ = comdat any

$_ZNSt8__detail9__variant17_Move_assign_baseILb0EJSt9monostatebN9grpc_core12experimental4Json11NumberValueENSt7__cxx1112basic_stringIcSt11char_traitsIcESaIcEEESt3mapISC_S5_St4lessISC_ESaISt4pairIKSC_S5_EEESt6vectorIS5_SaIS5_EEEEaSEOSO_ = comdat any

$_ZNSt8__detail9__variant15__raw_idx_visitIZNS0_17_Move_assign_baseILb0EJSt9monostatebN9grpc_core12experimental4Json11NumberValueENSt7__cxx1112basic_stringIcSt11char_traitsIcESaIcEEESt3mapISD_S6_St4lessISD_ESaISt4pairIKSD_S6_EEESt6vectorIS6_SaIS6_EEEEaSEOSP_EUlOT_T0_E_JRSt7variantIJS3_bS7_SD_SL_SO_EEEEEvSS_DpOT0_ = comdat any

$_ZSt14__variant_castIJSt9monostatebN9grpc_core12experimental4Json11NumberValueENSt7__cxx1112basic_stringIcSt11char_traitsIcESaIcEEESt3mapISA_S3_St4lessISA_ESaISt4pairIKSA_S3_EEESt6vectorIS3_SaIS3_EEERNSt8__detail9__variant17_Move_assign_baseILb0EJS0_bS4_SA_SI_SL_EEEEDcOT0_ = comdat any

$_ZSt10__do_visitINSt8__detail9__variant20__variant_idx_cookieEZNS1_17_Move_assign_baseILb0EJSt9monostatebN9grpc_core12experimental4Json11NumberValueENSt7__cxx1112basic_stringIcSt11char_traitsIcESaIcEEESt3mapISE_S7_St4lessISE_ESaISt4pairIKSE_S7_EEESt6vectorIS7_SaIS7_EEEEaSEOSQ_EUlOT_T0_E_JRSt7variantIJS4_bS8_SE_SM_SP_EEEEDcOSU_DpOT1_ = comdat any

$_ZZSt10__do_visitINSt8__detail9__variant20__variant_idx_cookieEZNS1_17_Move_assign_baseILb0EJSt9monostatebN9grpc_core12experimental4Json11NumberValueENSt7__cxx1112basic_stringIcSt11char_traitsIcESaIcEEESt3mapISE_S7_St4lessISE_ESaISt4pairIKSE_S7_EEESt6vectorIS7_SaIS7_EEEEaSEOSQ_EUlOT_T0_E_JRSt7variantIJS4_bS8_SE_SM_SP_EEEEDcOSU_DpOT1_ENKUlSY_zE_clB5cxx11ESY_z = comdat any

$_ZNSt8__detail9__variant17__gen_vtable_implINS0_12_Multi_arrayIPFNS0_20__variant_idx_cookieEOZNS0_17_Move_assign_baseILb0EJSt9monostatebN9grpc_core12experimental4Json11NumberValueENSt7__cxx1112basic_stringIcSt11char_traitsIcESaIcEEESt3mapISF_S8_St4lessISF_ESaISt4pairIKSF_S8_EEESt6vectorIS8_SaIS8_EEEEaSEOSR_EUlOT_T0_E_RSt7variantIJS5_bS9_SF_SN_SQ_EEEJEEESt16integer_sequenceImJLm0EEEE14__visit_invokeESX_S10_ = comdat any

$_ZNSt8__detail9__variant17__gen_vtable_implINS0_12_Multi_arrayIPFNS0_20__variant_idx_cookieEOZNS0_17_Move_assign_baseILb0EJSt9monostatebN9grpc_core12experimental4Json11NumberValueENSt7__cxx1112basic_stringIcSt11char_traitsIcESaIcEEESt3mapISF_S8_St4lessISF_ESaISt4pairIKSF_S8_EEESt6vectorIS8_SaIS8_EEEEaSEOSR_EUlOT_T0_E_RSt7variantIJS5_bS9_SF_SN_SQ_EEEJEEESt16integer_sequenceImJLm1EEEE14__visit_invokeESX_S10_ = comdat any

$_ZNSt8__detail9__variant17__gen_vtable_implINS0_12_Multi_arrayIPFNS0_20__variant_idx_cookieEOZNS0_17_Move_assign_baseILb0EJSt9monostatebN9grpc_core12experimental4Json11NumberValueENSt7__cxx1112basic_stringIcSt11char_traitsIcESaIcEEESt3mapISF_S8_St4lessISF_ESaISt4pairIKSF_S8_EEESt6vectorIS8_SaIS8_EEEEaSEOSR_EUlOT_T0_E_RSt7variantIJS5_bS9_SF_SN_SQ_EEEJEEESt16integer_sequenceImJLm2EEEE14__visit_invokeESX_S10_ = comdat any

$_ZNSt8__detail9__variant17__gen_vtable_implINS0_12_Multi_arrayIPFNS0_20__variant_idx_cookieEOZNS0_17_Move_assign_baseILb0EJSt9monostatebN9grpc_core12experimental4Json11NumberValueENSt7__cxx1112basic_stringIcSt11char_traitsIcESaIcEEESt3mapISF_S8_St4lessISF_ESaISt4pairIKSF_S8_EEESt6vectorIS8_SaIS8_EEEEaSEOSR_EUlOT_T0_E_RSt7variantIJS5_bS9_SF_SN_SQ_EEEJEEESt16integer_sequenceImJLm3EEEE14__visit_invokeESX_S10_ = comdat any

$_ZNSt8__detail9__variant17__gen_vtable_implINS0_12_Multi_arrayIPFNS0_20__variant_idx_cookieEOZNS0_17_Move_assign_baseILb0EJSt9monostatebN9grpc_core12experimental4Json11NumberValueENSt7__cxx1112basic_stringIcSt11char_traitsIcESaIcEEESt3mapISF_S8_St4lessISF_ESaISt4pairIKSF_S8_EEESt6vectorIS8_SaIS8_EEEEaSEOSR_EUlOT_T0_E_RSt7variantIJS5_bS9_SF_SN_SQ_EEEJEEESt16integer_sequenceImJLm4EEEE14__visit_invokeESX_S10_ = comdat any

$_ZNSt8__detail9__variant17__gen_vtable_implINS0_12_Multi_arrayIPFNS0_20__variant_idx_cookieEOZNS0_17_Move_assign_baseILb0EJSt9monostatebN9grpc_core12experimental4Json11NumberValueENSt7__cxx1112basic_stringIcSt11char_traitsIcESaIcEEESt3mapISF_S8_St4lessISF_ESaISt4pairIKSF_S8_EEESt6vectorIS8_SaIS8_EEEEaSEOSR_EUlOT_T0_E_RSt7variantIJS5_bS9_SF_SN_SQ_EEEJEEESt16integer_sequenceImJLm5EEEE14__visit_invokeESX_S10_ = comdat any

$_ZNSt8__detail9__variant17__gen_vtable_implINS0_12_Multi_arrayIPFNS0_20__variant_idx_cookieEOZNS0_17_Move_assign_baseILb0EJSt9monostatebN9grpc_core12experimental4Json11NumberValueENSt7__cxx1112basic_stringIcSt11char_traitsIcESaIcEEESt3mapISF_S8_St4lessISF_ESaISt4pairIKSF_S8_EEESt6vectorIS8_SaIS8_EEEEaSEOSR_EUlOT_T0_E_RSt7variantIJS5_bS9_SF_SN_SQ_EEEJEEESt16integer_sequenceImJLm18446744073709551615EEEE14__visit_invokeESX_S10_ = comdat any

$_ZSt8__invokeIZNSt8__detail9__variant17_Move_assign_baseILb0EJSt9monostatebN9grpc_core12experimental4Json11NumberValueENSt7__cxx1112basic_stringIcSt11char_traitsIcESaIcEEESt3mapISD_S6_St4lessISD_ESaISt4pairIKSD_S6_EEESt6vectorIS6_SaIS6_EEEEaSEOSP_EUlOT_T0_E_JRS3_St17integral_constantImLm0EEEENSt15__invoke_resultISR_JDpT0_EE4typeESS_DpOSZ_ = comdat any

$_ZNSt8__detail9__variant17__gen_vtable_implINS0_12_Multi_arrayIPFNS0_20__variant_idx_cookieEOZNS0_17_Move_assign_baseILb0EJSt9monostatebN9grpc_core12experimental4Json11NumberValueENSt7__cxx1112basic_stringIcSt11char_traitsIcESaIcEEESt3mapISF_S8_St4lessISF_ESaISt4pairIKSF_S8_EEESt6vectorIS8_SaIS8_EEEEaSEOSR_EUlOT_T0_E_RSt7variantIJS5_bS9_SF_SN_SQ_EEEJEEESt16integer_sequenceImJLm0EEEE28__element_by_index_or_cookieILm0ES10_EEDcOSV_ = comdat any

$_ZSt13__invoke_implIvZNSt8__detail9__variant17_Move_assign_baseILb0EJSt9monostatebN9grpc_core12experimental4Json11NumberValueENSt7__cxx1112basic_stringIcSt11char_traitsIcESaIcEEESt3mapISD_S6_St4lessISD_ESaISt4pairIKSD_S6_EEESt6vectorIS6_SaIS6_EEEEaSEOSP_EUlOT_T0_E_JRS3_St17integral_constantImLm0EEEESR_St14__invoke_otherOST_DpOT1_ = comdat any

$_ZZNSt8__detail9__variant17_Move_assign_baseILb0EJSt9monostatebN9grpc_core12experimental4Json11NumberValueENSt7__cxx1112basic_stringIcSt11char_traitsIcESaIcEEESt3mapISC_S5_St4lessISC_ESaISt4pairIKSC_S5_EEESt6vectorIS5_SaIS5_EEEEaSEOSO_ENUlOT_T0_E_clIRS2_St17integral_constantImLm0EEEEDaSR_SS_ = comdat any

$_ZNSt8__detail9__variant5__getILm0ERNS0_17_Move_assign_baseILb0EJSt9monostatebN9grpc_core12experimental4Json11NumberValueENSt7__cxx1112basic_stringIcSt11char_traitsIcESaIcEEESt3mapISD_S6_St4lessISD_ESaISt4pairIKSD_S6_EEESt6vectorIS6_SaIS6_EEEEEEEDcOT0_ = comdat any

$_ZSt8__invokeIZNSt8__detail9__variant17_Move_assign_baseILb0EJSt9monostatebN9grpc_core12experimental4Json11NumberValueENSt7__cxx1112basic_stringIcSt11char_traitsIcESaIcEEESt3mapISD_S6_St4lessISD_ESaISt4pairIKSD_S6_EEESt6vectorIS6_SaIS6_EEEEaSEOSP_EUlOT_T0_E_JRbSt17integral_constantImLm1EEEENSt15__invoke_resultISR_JDpT0_EE4typeESS_DpOSZ_ = comdat any

$_ZNSt8__detail9__variant17__gen_vtable_implINS0_12_Multi_arrayIPFNS0_20__variant_idx_cookieEOZNS0_17_Move_assign_baseILb0EJSt9monostatebN9grpc_core12experimental4Json11NumberValueENSt7__cxx1112basic_stringIcSt11char_traitsIcESaIcEEESt3mapISF_S8_St4lessISF_ESaISt4pairIKSF_S8_EEESt6vectorIS8_SaIS8_EEEEaSEOSR_EUlOT_T0_E_RSt7variantIJS5_bS9_SF_SN_SQ_EEEJEEESt16integer_sequenceImJLm1EEEE28__element_by_index_or_cookieILm1ES10_EEDcOSV_ = comdat any

$_ZSt13__invoke_implIvZNSt8__detail9__variant17_Move_assign_baseILb0EJSt9monostatebN9grpc_core12experimental4Json11NumberValueENSt7__cxx1112basic_stringIcSt11char_traitsIcESaIcEEESt3mapISD_S6_St4lessISD_ESaISt4pairIKSD_S6_EEESt6vectorIS6_SaIS6_EEEEaSEOSP_EUlOT_T0_E_JRbSt17integral_constantImLm1EEEESR_St14__invoke_otherOST_DpOT1_ = comdat any

$_ZZNSt8__detail9__variant17_Move_assign_baseILb0EJSt9monostatebN9grpc_core12experimental4Json11NumberValueENSt7__cxx1112basic_stringIcSt11char_traitsIcESaIcEEESt3mapISC_S5_St4lessISC_ESaISt4pairIKSC_S5_EEESt6vectorIS5_SaIS5_EEEEaSEOSO_ENUlOT_T0_E_clIRbSt17integral_constantImLm1EEEEDaSR_SS_ = comdat any

$_ZNSt8__detail9__variant5__getILm1ERNS0_17_Move_assign_baseILb0EJSt9monostatebN9grpc_core12experimental4Json11NumberValueENSt7__cxx1112basic_stringIcSt11char_traitsIcESaIcEEESt3mapISD_S6_St4lessISD_ESaISt4pairIKSD_S6_EEESt6vectorIS6_SaIS6_EEEEEEEDcOT0_ = comdat any

$_ZNSt8__detail9__variant9__emplaceILm1ELb0EJSt9monostatebN9grpc_core12experimental4Json11NumberValueENSt7__cxx1112basic_stringIcSt11char_traitsIcESaIcEEESt3mapISC_S5_St4lessISC_ESaISt4pairIKSC_S5_EEESt6vectorIS5_SaIS5_EEEJbEEEvRNS0_16_Variant_storageIXT0_EJDpT1_EEEDpOT2_ = comdat any

$_ZSt10_ConstructIbJbEEvPT_DpOT0_ = comdat any

$_ZSt8__invokeIZNSt8__detail9__variant17_Move_assign_baseILb0EJSt9monostatebN9grpc_core12experimental4Json11NumberValueENSt7__cxx1112basic_stringIcSt11char_traitsIcESaIcEEESt3mapISD_S6_St4lessISD_ESaISt4pairIKSD_S6_EEESt6vectorIS6_SaIS6_EEEEaSEOSP_EUlOT_T0_E_JRS7_St17integral_constantImLm2EEEENSt15__invoke_resultISR_JDpT0_EE4typeESS_DpOSZ_ = comdat any

$_ZNSt8__detail9__variant17__gen_vtable_implINS0_12_Multi_arrayIPFNS0_20__variant_idx_cookieEOZNS0_17_Move_assign_baseILb0EJSt9monostatebN9grpc_core12experimental4Json11NumberValueENSt7__cxx1112basic_stringIcSt11char_traitsIcESaIcEEESt3mapISF_S8_St4lessISF_ESaISt4pairIKSF_S8_EEESt6vectorIS8_SaIS8_EEEEaSEOSR_EUlOT_T0_E_RSt7variantIJS5_bS9_SF_SN_SQ_EEEJEEESt16integer_sequenceImJLm2EEEE28__element_by_index_or_cookieILm2ES10_EEDcOSV_ = comdat any

$_ZSt13__invoke_implIvZNSt8__detail9__variant17_Move_assign_baseILb0EJSt9monostatebN9grpc_core12experimental4Json11NumberValueENSt7__cxx1112basic_stringIcSt11char_traitsIcESaIcEEESt3mapISD_S6_St4lessISD_ESaISt4pairIKSD_S6_EEESt6vectorIS6_SaIS6_EEEEaSEOSP_EUlOT_T0_E_JRS7_St17integral_constantImLm2EEEESR_St14__invoke_otherOST_DpOT1_ = comdat any

$_ZZNSt8__detail9__variant17_Move_assign_baseILb0EJSt9monostatebN9grpc_core12experimental4Json11NumberValueENSt7__cxx1112basic_stringIcSt11char_traitsIcESaIcEEESt3mapISC_S5_St4lessISC_ESaISt4pairIKSC_S5_EEESt6vectorIS5_SaIS5_EEEEaSEOSO_ENUlOT_T0_E_clIRS6_St17integral_constantImLm2EEEEDaSR_SS_ = comdat any

$_ZNSt8__detail9__variant5__getILm2ERNS0_17_Move_assign_baseILb0EJSt9monostatebN9grpc_core12experimental4Json11NumberValueENSt7__cxx1112basic_stringIcSt11char_traitsIcESaIcEEESt3mapISD_S6_St4lessISD_ESaISt4pairIKSD_S6_EEESt6vectorIS6_SaIS6_EEEEEEEDcOT0_ = comdat any

$_ZSt8__invokeIZNSt8__detail9__variant17_Move_assign_baseILb0EJSt9monostatebN9grpc_core12experimental4Json11NumberValueENSt7__cxx1112basic_stringIcSt11char_traitsIcESaIcEEESt3mapISD_S6_St4lessISD_ESaISt4pairIKSD_S6_EEESt6vectorIS6_SaIS6_EEEEaSEOSP_EUlOT_T0_E_JRSD_St17integral_constantImLm3EEEENSt15__invoke_resultISR_JDpT0_EE4typeESS_DpOSZ_ = comdat any

$_ZNSt8__detail9__variant17__gen_vtable_implINS0_12_Multi_arrayIPFNS0_20__variant_idx_cookieEOZNS0_17_Move_assign_baseILb0EJSt9monostatebN9grpc_core12experimental4Json11NumberValueENSt7__cxx1112basic_stringIcSt11char_traitsIcESaIcEEESt3mapISF_S8_St4lessISF_ESaISt4pairIKSF_S8_EEESt6vectorIS8_SaIS8_EEEEaSEOSR_EUlOT_T0_E_RSt7variantIJS5_bS9_SF_SN_SQ_EEEJEEESt16integer_sequenceImJLm3EEEE28__element_by_index_or_cookieILm3ES10_EEDcOSV_ = comdat any

$_ZSt13__invoke_implIvZNSt8__detail9__variant17_Move_assign_baseILb0EJSt9monostatebN9grpc_core12experimental4Json11NumberValueENSt7__cxx1112basic_stringIcSt11char_traitsIcESaIcEEESt3mapISD_S6_St4lessISD_ESaISt4pairIKSD_S6_EEESt6vectorIS6_SaIS6_EEEEaSEOSP_EUlOT_T0_E_JRSD_St17integral_constantImLm3EEEESR_St14__invoke_otherOST_DpOT1_ = comdat any

$_ZZNSt8__detail9__variant17_Move_assign_baseILb0EJSt9monostatebN9grpc_core12experimental4Json11NumberValueENSt7__cxx1112basic_stringIcSt11char_traitsIcESaIcEEESt3mapISC_S5_St4lessISC_ESaISt4pairIKSC_S5_EEESt6vectorIS5_SaIS5_EEEEaSEOSO_ENUlOT_T0_E_clIRSC_St17integral_constantImLm3EEEEDaSR_SS_ = comdat any

$_ZNSt8__detail9__variant5__getILm3ERNS0_17_Move_assign_baseILb0EJSt9monostatebN9grpc_core12experimental4Json11NumberValueENSt7__cxx1112basic_stringIcSt11char_traitsIcESaIcEEESt3mapISD_S6_St4lessISD_ESaISt4pairIKSD_S6_EEESt6vectorIS6_SaIS6_EEEEEEEDcOT0_ = comdat any

$_ZNSt8__detail9__variant9__emplaceILm3ELb0EJSt9monostatebN9grpc_core12experimental4Json11NumberValueENSt7__cxx1112basic_stringIcSt11char_traitsIcESaIcEEESt3mapISC_S5_St4lessISC_ESaISt4pairIKSC_S5_EEESt6vectorIS5_SaIS5_EEEJSC_EEEvRNS0_16_Variant_storageIXT0_EJDpT1_EEEDpOT2_ = comdat any

$_ZSt10_ConstructINSt7__cxx1112basic_stringIcSt11char_traitsIcESaIcEEEJS5_EEvPT_DpOT0_ = comdat any

$_ZSt8__invokeIZNSt8__detail9__variant17_Move_assign_baseILb0EJSt9monostatebN9grpc_core12experimental4Json11NumberValueENSt7__cxx1112basic_stringIcSt11char_traitsIcESaIcEEESt3mapISD_S6_St4lessISD_ESaISt4pairIKSD_S6_EEESt6vectorIS6_SaIS6_EEEEaSEOSP_EUlOT_T0_E_JRSL_St17integral_constantImLm4EEEENSt15__invoke_resultISR_JDpT0_EE4typeESS_DpOSZ_ = comdat any

$_ZNSt8__detail9__variant17__gen_vtable_implINS0_12_Multi_arrayIPFNS0_20__variant_idx_cookieEOZNS0_17_Move_assign_baseILb0EJSt9monostatebN9grpc_core12experimental4Json11NumberValueENSt7__cxx1112basic_stringIcSt11char_traitsIcESaIcEEESt3mapISF_S8_St4lessISF_ESaISt4pairIKSF_S8_EEESt6vectorIS8_SaIS8_EEEEaSEOSR_EUlOT_T0_E_RSt7variantIJS5_bS9_SF_SN_SQ_EEEJEEESt16integer_sequenceImJLm4EEEE28__element_by_index_or_cookieILm4ES10_EEDcOSV_ = comdat any

$_ZSt13__invoke_implIvZNSt8__detail9__variant17_Move_assign_baseILb0EJSt9monostatebN9grpc_core12experimental4Json11NumberValueENSt7__cxx1112basic_stringIcSt11char_traitsIcESaIcEEESt3mapISD_S6_St4lessISD_ESaISt4pairIKSD_S6_EEESt6vectorIS6_SaIS6_EEEEaSEOSP_EUlOT_T0_E_JRSL_St17integral_constantImLm4EEEESR_St14__invoke_otherOST_DpOT1_ = comdat any

$_ZZNSt8__detail9__variant17_Move_assign_baseILb0EJSt9monostatebN9grpc_core12experimental4Json11NumberValueENSt7__cxx1112basic_stringIcSt11char_traitsIcESaIcEEESt3mapISC_S5_St4lessISC_ESaISt4pairIKSC_S5_EEESt6vectorIS5_SaIS5_EEEEaSEOSO_ENUlOT_T0_E_clIRSK_St17integral_constantImLm4EEEEDaSR_SS_ = comdat any

$_ZNSt8__detail9__variant5__getILm4ERNS0_17_Move_assign_baseILb0EJSt9monostatebN9grpc_core12experimental4Json11NumberValueENSt7__cxx1112basic_stringIcSt11char_traitsIcESaIcEEESt3mapISD_S6_St4lessISD_ESaISt4pairIKSD_S6_EEESt6vectorIS6_SaIS6_EEEEEEEDcOT0_ = comdat any

$_ZNSt3mapINSt7__cxx1112basic_stringIcSt11char_traitsIcESaIcEEEN9grpc_core12experimental4JsonESt4lessIS5_ESaISt4pairIKS5_S8_EEEaSEOSF_ = comdat any

$_ZNSt8__detail9__variant9__emplaceILm4ELb0EJSt9monostatebN9grpc_core12experimental4Json11NumberValueENSt7__cxx1112basic_stringIcSt11char_traitsIcESaIcEEESt3mapISC_S5_St4lessISC_ESaISt4pairIKSC_S5_EEESt6vectorIS5_SaIS5_EEEJSK_EEEvRNS0_16_Variant_storageIXT0_EJDpT1_EEEDpOT2_ = comdat any

$_ZNSt8_Rb_treeINSt7__cxx1112basic_stringIcSt11char_traitsIcESaIcEEESt4pairIKS5_N9grpc_core12experimental4JsonEESt10_Select1stISB_ESt4lessIS5_ESaISB_EEaSEOSH_ = comdat any

$_ZNSt8_Rb_treeINSt7__cxx1112basic_stringIcSt11char_traitsIcESaIcEEESt4pairIKS5_N9grpc_core12experimental4JsonEESt10_Select1stISB_ESt4lessIS5_ESaISB_EE14_M_move_assignERSH_St17integral_constantIbLb1EE = comdat any

$_ZNSt8_Rb_treeINSt7__cxx1112basic_stringIcSt11char_traitsIcESaIcEEESt4pairIKS5_N9grpc_core12experimental4JsonEESt10_Select1stISB_ESt4lessIS5_ESaISB_EE5clearEv = comdat any

$_ZNSt8_Rb_treeINSt7__cxx1112basic_stringIcSt11char_traitsIcESaIcEEESt4pairIKS5_N9grpc_core12experimental4JsonEESt10_Select1stISB_ESt4lessIS5_ESaISB_EE7_M_rootEv = comdat any

$_ZNSt8_Rb_treeINSt7__cxx1112basic_stringIcSt11char_traitsIcESaIcEEESt4pairIKS5_N9grpc_core12experimental4JsonEESt10_Select1stISB_ESt4lessIS5_ESaISB_EE12_M_move_dataERSH_St17integral_constantIbLb1EE = comdat any

$_ZSt15__alloc_on_moveISaISt13_Rb_tree_nodeISt4pairIKNSt7__cxx1112basic_stringIcSt11char_traitsIcESaIcEEEN9grpc_core12experimental4JsonEEEEEvRT_SG_ = comdat any

$_ZSt10_ConstructISt3mapINSt7__cxx1112basic_stringIcSt11char_traitsIcESaIcEEEN9grpc_core12experimental4JsonESt4lessIS6_ESaISt4pairIKS6_S9_EEEJSG_EEvPT_DpOT0_ = comdat any

$_ZSt8__invokeIZNSt8__detail9__variant17_Move_assign_baseILb0EJSt9monostatebN9grpc_core12experimental4Json11NumberValueENSt7__cxx1112basic_stringIcSt11char_traitsIcESaIcEEESt3mapISD_S6_St4lessISD_ESaISt4pairIKSD_S6_EEESt6vectorIS6_SaIS6_EEEEaSEOSP_EUlOT_T0_E_JRSO_St17integral_constantImLm5EEEENSt15__invoke_resultISR_JDpT0_EE4typeESS_DpOSZ_ = comdat any

$_ZNSt8__detail9__variant17__gen_vtable_implINS0_12_Multi_arrayIPFNS0_20__variant_idx_cookieEOZNS0_17_Move_assign_baseILb0EJSt9monostatebN9grpc_core12experimental4Json11NumberValueENSt7__cxx1112basic_stringIcSt11char_traitsIcESaIcEEESt3mapISF_S8_St4lessISF_ESaISt4pairIKSF_S8_EEESt6vectorIS8_SaIS8_EEEEaSEOSR_EUlOT_T0_E_RSt7variantIJS5_bS9_SF_SN_SQ_EEEJEEESt16integer_sequenceImJLm5EEEE28__element_by_index_or_cookieILm5ES10_EEDcOSV_ = comdat any

$_ZSt13__invoke_implIvZNSt8__detail9__variant17_Move_assign_baseILb0EJSt9monostatebN9grpc_core12experimental4Json11NumberValueENSt7__cxx1112basic_stringIcSt11char_traitsIcESaIcEEESt3mapISD_S6_St4lessISD_ESaISt4pairIKSD_S6_EEESt6vectorIS6_SaIS6_EEEEaSEOSP_EUlOT_T0_E_JRSO_St17integral_constantImLm5EEEESR_St14__invoke_otherOST_DpOT1_ = comdat any

$_ZZNSt8__detail9__variant17_Move_assign_baseILb0EJSt9monostatebN9grpc_core12experimental4Json11NumberValueENSt7__cxx1112basic_stringIcSt11char_traitsIcESaIcEEESt3mapISC_S5_St4lessISC_ESaISt4pairIKSC_S5_EEESt6vectorIS5_SaIS5_EEEEaSEOSO_ENUlOT_T0_E_clIRSN_St17integral_constantImLm5EEEEDaSR_SS_ = comdat any

$_ZNSt8__detail9__variant5__getILm5ERNS0_17_Move_assign_baseILb0EJSt9monostatebN9grpc_core12experimental4Json11NumberValueENSt7__cxx1112basic_stringIcSt11char_traitsIcESaIcEEESt3mapISD_S6_St4lessISD_ESaISt4pairIKSD_S6_EEESt6vectorIS6_SaIS6_EEEEEEEDcOT0_ = comdat any

$_ZNSt6vectorIN9grpc_core12experimental4JsonESaIS2_EEaSEOS4_ = comdat any

$_ZNSt8__detail9__variant9__emplaceILm5ELb0EJSt9monostatebN9grpc_core12experimental4Json11NumberValueENSt7__cxx1112basic_stringIcSt11char_traitsIcESaIcEEESt3mapISC_S5_St4lessISC_ESaISt4pairIKSC_S5_EEESt6vectorIS5_SaIS5_EEEJSN_EEEvRNS0_16_Variant_storageIXT0_EJDpT1_EEEDpOT2_ = comdat any

$_ZNSt6vectorIN9grpc_core12experimental4JsonESaIS2_EE14_M_move_assignEOS4_St17integral_constantIbLb1EE = comdat any

$_ZNKSt12_Vector_baseIN9grpc_core12experimental4JsonESaIS2_EE13get_allocatorEv = comdat any

$_ZNSt6vectorIN9grpc_core12experimental4JsonESaIS2_EEC2ERKS3_ = comdat any

$_ZNSaIN9grpc_core12experimental4JsonEED2Ev = comdat any

$_ZNSt12_Vector_baseIN9grpc_core12experimental4JsonESaIS2_EE17_Vector_impl_data12_M_swap_dataERS5_ = comdat any

$_ZSt15__alloc_on_moveISaIN9grpc_core12experimental4JsonEEEvRT_S5_ = comdat any

$_ZNSaIN9grpc_core12experimental4JsonEEC2ERKS2_ = comdat any

$_ZNSt12_Vector_baseIN9grpc_core12experimental4JsonESaIS2_EEC2ERKS3_ = comdat any

$_ZNSt12_Vector_baseIN9grpc_core12experimental4JsonESaIS2_EE12_Vector_implC2ERKS3_ = comdat any

$_ZNSt12_Vector_baseIN9grpc_core12experimental4JsonESaIS2_EE17_Vector_impl_dataC2Ev = comdat any

$_ZNSt12_Vector_baseIN9grpc_core12experimental4JsonESaIS2_EE17_Vector_impl_data12_M_copy_dataERKS5_ = comdat any

$_ZSt10_ConstructISt6vectorIN9grpc_core12experimental4JsonESaIS3_EEJS5_EEvPT_DpOT0_ = comdat any

$_ZSt8__invokeIZNSt8__detail9__variant17_Move_assign_baseILb0EJSt9monostatebN9grpc_core12experimental4Json11NumberValueENSt7__cxx1112basic_stringIcSt11char_traitsIcESaIcEEESt3mapISD_S6_St4lessISD_ESaISt4pairIKSD_S6_EEESt6vectorIS6_SaIS6_EEEEaSEOSP_EUlOT_T0_E_JNS1_16__variant_cookieESt17integral_constantImLm18446744073709551615EEEENSt15__invoke_resultISR_JDpT0_EE4typeESS_DpOSZ_ = comdat any

$_ZNSt8__detail9__variant17__gen_vtable_implINS0_12_Multi_arrayIPFNS0_20__variant_idx_cookieEOZNS0_17_Move_assign_baseILb0EJSt9monostatebN9grpc_core12experimental4Json11NumberValueENSt7__cxx1112basic_stringIcSt11char_traitsIcESaIcEEESt3mapISF_S8_St4lessISF_ESaISt4pairIKSF_S8_EEESt6vectorIS8_SaIS8_EEEEaSEOSR_EUlOT_T0_E_RSt7variantIJS5_bS9_SF_SN_SQ_EEEJEEESt16integer_sequenceImJLm18446744073709551615EEEE28__element_by_index_or_cookieILm18446744073709551615ES10_EEDcOSV_ = comdat any

$_ZSt13__invoke_implIvZNSt8__detail9__variant17_Move_assign_baseILb0EJSt9monostatebN9grpc_core12experimental4Json11NumberValueENSt7__cxx1112basic_stringIcSt11char_traitsIcESaIcEEESt3mapISD_S6_St4lessISD_ESaISt4pairIKSD_S6_EEESt6vectorIS6_SaIS6_EEEEaSEOSP_EUlOT_T0_E_JNS1_16__variant_cookieESt17integral_constantImLm18446744073709551615EEEESR_St14__invoke_otherOST_DpOT1_ = comdat any

$_ZZNSt8__detail9__variant17_Move_assign_baseILb0EJSt9monostatebN9grpc_core12experimental4Json11NumberValueENSt7__cxx1112basic_stringIcSt11char_traitsIcESaIcEEESt3mapISC_S5_St4lessISC_ESaISt4pairIKSC_S5_EEESt6vectorIS5_SaIS5_EEEEaSEOSO_ENUlOT_T0_E_clINS0_16__variant_cookieESt17integral_constantImLm18446744073709551615EEEEDaSR_SS_ = comdat any

$_ZNSt7variantIJSt9monostatebN9grpc_core12experimental4Json11NumberValueENSt7__cxx1112basic_stringIcSt11char_traitsIcESaIcEEESt3mapISA_S3_St4lessISA_ESaISt4pairIKSA_S3_EEESt6vectorIS3_SaIS3_EEEED2Ev = comdat any

$_ZNSt8__detail9__variant13_Variant_baseIJSt9monostatebN9grpc_core12experimental4Json11NumberValueENSt7__cxx1112basic_stringIcSt11char_traitsIcESaIcEEESt3mapISC_S5_St4lessISC_ESaISt4pairIKSC_S5_EEESt6vectorIS5_SaIS5_EEEED2Ev = comdat any

$_ZNSt8__detail9__variant17_Move_assign_baseILb0EJSt9monostatebN9grpc_core12experimental4Json11NumberValueENSt7__cxx1112basic_stringIcSt11char_traitsIcESaIcEEESt3mapISC_S5_St4lessISC_ESaISt4pairIKSC_S5_EEESt6vectorIS5_SaIS5_EEEED2Ev = comdat any

$_ZNSt8__detail9__variant17_Copy_assign_baseILb0EJSt9monostatebN9grpc_core12experimental4Json11NumberValueENSt7__cxx1112basic_stringIcSt11char_traitsIcESaIcEEESt3mapISC_S5_St4lessISC_ESaISt4pairIKSC_S5_EEESt6vectorIS5_SaIS5_EEEED2Ev = comdat any

$_ZNSt8__detail9__variant15_Move_ctor_baseILb0EJSt9monostatebN9grpc_core12experimental4Json11NumberValueENSt7__cxx1112basic_stringIcSt11char_traitsIcESaIcEEESt3mapISC_S5_St4lessISC_ESaISt4pairIKSC_S5_EEESt6vectorIS5_SaIS5_EEEED2Ev = comdat any

$_ZNSt8__detail9__variant15_Copy_ctor_baseILb0EJSt9monostatebN9grpc_core12experimental4Json11NumberValueENSt7__cxx1112basic_stringIcSt11char_traitsIcESaIcEEESt3mapISC_S5_St4lessISC_ESaISt4pairIKSC_S5_EEESt6vectorIS5_SaIS5_EEEED2Ev = comdat any

$_ZNSt8__detail9__variant16_Variant_storageILb0EJSt9monostatebN9grpc_core12experimental4Json11NumberValueENSt7__cxx1112basic_stringIcSt11char_traitsIcESaIcEEESt3mapISC_S5_St4lessISC_ESaISt4pairIKSC_S5_EEESt6vectorIS5_SaIS5_EEEED2Ev = comdat any

$_ZNSt8__detail9__variant4__asIJSt3mapINSt7__cxx1112basic_stringIcSt11char_traitsIcESaIcEEEN9grpc_core12experimental4JsonESt4lessIS8_ESaISt4pairIKS8_SB_EEESt6vectorISB_SaISB_EEEEERKSt7variantIJDpT_EESR_ = comdat any

$_ZNSt8__detail9__variant5__getILm0ERKSt7variantIJSt3mapINSt7__cxx1112basic_stringIcSt11char_traitsIcESaIcEEEN9grpc_core12experimental4JsonESt4lessIS9_ESaISt4pairIKS9_SC_EEESt6vectorISC_SaISC_EEEEEEDcOT0_ = comdat any

$_ZNSt8__detail9__variant7__get_nILm0ERKNS0_15_Variadic_unionIJSt3mapINSt7__cxx1112basic_stringIcSt11char_traitsIcESaIcEEEN9grpc_core12experimental4JsonESt4lessIS9_ESaISt4pairIKS9_SC_EEESt6vectorISC_SaISC_EEEEEEEDcOT0_ = comdat any

$_ZNKRSt8__detail9__variant14_UninitializedISt3mapINSt7__cxx1112basic_stringIcSt11char_traitsIcESaIcEEEN9grpc_core12experimental4JsonESt4lessIS8_ESaISt4pairIKS8_SB_EEELb0EE6_M_getEv = comdat any

$_ZNK9__gnu_cxx16__aligned_membufISt3mapINSt7__cxx1112basic_stringIcSt11char_traitsIcESaIcEEEN9grpc_core12experimental4JsonESt4lessIS7_ESaISt4pairIKS7_SA_EEEE6_M_ptrEv = comdat any

$_ZNK9__gnu_cxx16__aligned_membufISt3mapINSt7__cxx1112basic_stringIcSt11char_traitsIcESaIcEEEN9grpc_core12experimental4JsonESt4lessIS7_ESaISt4pairIKS7_SA_EEEE7_M_addrEv = comdat any

$_ZNSt8__detail9__variant5__getILm1ERKSt7variantIJSt3mapINSt7__cxx1112basic_stringIcSt11char_traitsIcESaIcEEEN9grpc_core12experimental4JsonESt4lessIS9_ESaISt4pairIKS9_SC_EEESt6vectorISC_SaISC_EEEEEEDcOT0_ = comdat any

$_ZNSt8__detail9__variant7__get_nILm1ERKNS0_15_Variadic_unionIJSt3mapINSt7__cxx1112basic_stringIcSt11char_traitsIcESaIcEEEN9grpc_core12experimental4JsonESt4lessIS9_ESaISt4pairIKS9_SC_EEESt6vectorISC_SaISC_EEEEEEEDcOT0_ = comdat any

$_ZNKRSt8__detail9__variant14_UninitializedISt6vectorIN9grpc_core12experimental4JsonESaIS5_EELb0EE6_M_getEv = comdat any

$_ZNK9__gnu_cxx16__aligned_membufISt6vectorIN9grpc_core12experimental4JsonESaIS4_EEE6_M_ptrEv = comdat any

$_ZNK9__gnu_cxx16__aligned_membufISt6vectorIN9grpc_core12experimental4JsonESaIS4_EEE7_M_addrEv = comdat any

$_ZNSt7variantIJSt3mapINSt7__cxx1112basic_stringIcSt11char_traitsIcESaIcEEEN9grpc_core12experimental4JsonESt4lessIS6_ESaISt4pairIKS6_S9_EEESt6vectorIS9_SaIS9_EEEEC2EOSK_ = comdat any

$_ZNSt8__detail9__variant13_Variant_baseIJSt3mapINSt7__cxx1112basic_stringIcSt11char_traitsIcESaIcEEEN9grpc_core12experimental4JsonESt4lessIS8_ESaISt4pairIKS8_SB_EEESt6vectorISB_SaISB_EEEEC2EOSM_ = comdat any

$_ZNSt8__detail9__variant17_Move_assign_baseILb0EJSt3mapINSt7__cxx1112basic_stringIcSt11char_traitsIcESaIcEEEN9grpc_core12experimental4JsonESt4lessIS8_ESaISt4pairIKS8_SB_EEESt6vectorISB_SaISB_EEEEC2EOSM_ = comdat any

$_ZNSt8__detail9__variant17_Copy_assign_baseILb0EJSt3mapINSt7__cxx1112basic_stringIcSt11char_traitsIcESaIcEEEN9grpc_core12experimental4JsonESt4lessIS8_ESaISt4pairIKS8_SB_EEESt6vectorISB_SaISB_EEEEC2EOSM_ = comdat any

$_ZNSt8__detail9__variant15_Move_ctor_baseILb0EJSt3mapINSt7__cxx1112basic_stringIcSt11char_traitsIcESaIcEEEN9grpc_core12experimental4JsonESt4lessIS8_ESaISt4pairIKS8_SB_EEESt6vectorISB_SaISB_EEEEC2EOSM_ = comdat any

$_ZNSt8__detail9__variant15_Copy_ctor_baseILb0EJSt3mapINSt7__cxx1112basic_stringIcSt11char_traitsIcESaIcEEEN9grpc_core12experimental4JsonESt4lessIS8_ESaISt4pairIKS8_SB_EEESt6vectorISB_SaISB_EEEEC2Ev = comdat any

$_ZNSt8__detail9__variant15__raw_idx_visitIZNS0_15_Move_ctor_baseILb0EJSt3mapINSt7__cxx1112basic_stringIcSt11char_traitsIcESaIcEEEN9grpc_core12experimental4JsonESt4lessIS9_ESaISt4pairIKS9_SC_EEESt6vectorISC_SaISC_EEEEC1EOSN_EUlOT_T0_E_JSt7variantIJSJ_SM_EEEEEvSQ_DpOT0_ = comdat any

$_ZSt14__variant_castIJSt3mapINSt7__cxx1112basic_stringIcSt11char_traitsIcESaIcEEEN9grpc_core12experimental4JsonESt4lessIS6_ESaISt4pairIKS6_S9_EEESt6vectorIS9_SaIS9_EEENSt8__detail9__variant15_Move_ctor_baseILb0EJSG_SJ_EEEEDcOT0_ = comdat any

$_ZNSt8__detail9__variant16_Variant_storageILb0EJSt3mapINSt7__cxx1112basic_stringIcSt11char_traitsIcESaIcEEEN9grpc_core12experimental4JsonESt4lessIS8_ESaISt4pairIKS8_SB_EEESt6vectorISB_SaISB_EEEEC2Ev = comdat any

$_ZSt10__do_visitINSt8__detail9__variant20__variant_idx_cookieEZNS1_15_Move_ctor_baseILb0EJSt3mapINSt7__cxx1112basic_stringIcSt11char_traitsIcESaIcEEEN9grpc_core12experimental4JsonESt4lessISA_ESaISt4pairIKSA_SD_EEESt6vectorISD_SaISD_EEEEC1EOSO_EUlOT_T0_E_JSt7variantIJSK_SN_EEEEDcOSS_DpOT1_ = comdat any

$_ZZSt10__do_visitINSt8__detail9__variant20__variant_idx_cookieEZNS1_15_Move_ctor_baseILb0EJSt3mapINSt7__cxx1112basic_stringIcSt11char_traitsIcESaIcEEEN9grpc_core12experimental4JsonESt4lessISA_ESaISt4pairIKSA_SD_EEESt6vectorISD_SaISD_EEEEC1EOSO_EUlOT_T0_E_JSt7variantIJSK_SN_EEEEDcOSS_DpOT1_ENKUlRSV_zE_clB5cxx11ES10_z = comdat any

$_ZNSt8__detail9__variant17__gen_vtable_implINS0_12_Multi_arrayIPFNS0_20__variant_idx_cookieEOZNS0_15_Move_ctor_baseILb0EJSt3mapINSt7__cxx1112basic_stringIcSt11char_traitsIcESaIcEEEN9grpc_core12experimental4JsonESt4lessISB_ESaISt4pairIKSB_SE_EEESt6vectorISE_SaISE_EEEEC1EOSP_EUlOT_T0_E_OSt7variantIJSL_SO_EEEJEEESt16integer_sequenceImJLm0EEEE14__visit_invokeESV_SY_ = comdat any

$_ZNSt8__detail9__variant17__gen_vtable_implINS0_12_Multi_arrayIPFNS0_20__variant_idx_cookieEOZNS0_15_Move_ctor_baseILb0EJSt3mapINSt7__cxx1112basic_stringIcSt11char_traitsIcESaIcEEEN9grpc_core12experimental4JsonESt4lessISB_ESaISt4pairIKSB_SE_EEESt6vectorISE_SaISE_EEEEC1EOSP_EUlOT_T0_E_OSt7variantIJSL_SO_EEEJEEESt16integer_sequenceImJLm1EEEE14__visit_invokeESV_SY_ = comdat any

$_ZNSt8__detail9__variant17__gen_vtable_implINS0_12_Multi_arrayIPFNS0_20__variant_idx_cookieEOZNS0_15_Move_ctor_baseILb0EJSt3mapINSt7__cxx1112basic_stringIcSt11char_traitsIcESaIcEEEN9grpc_core12experimental4JsonESt4lessISB_ESaISt4pairIKSB_SE_EEESt6vectorISE_SaISE_EEEEC1EOSP_EUlOT_T0_E_OSt7variantIJSL_SO_EEEJEEESt16integer_sequenceImJLm18446744073709551615EEEE14__visit_invokeESV_SY_ = comdat any

$_ZSt8__invokeIZNSt8__detail9__variant15_Move_ctor_baseILb0EJSt3mapINSt7__cxx1112basic_stringIcSt11char_traitsIcESaIcEEEN9grpc_core12experimental4JsonESt4lessIS9_ESaISt4pairIKS9_SC_EEESt6vectorISC_SaISC_EEEEC1EOSN_EUlOT_T0_E_JSJ_St17integral_constantImLm0EEEENSt15__invoke_resultISP_JDpT0_EE4typeESQ_DpOSW_ = comdat any

$_ZNSt8__detail9__variant17__gen_vtable_implINS0_12_Multi_arrayIPFNS0_20__variant_idx_cookieEOZNS0_15_Move_ctor_baseILb0EJSt3mapINSt7__cxx1112basic_stringIcSt11char_traitsIcESaIcEEEN9grpc_core12experimental4JsonESt4lessISB_ESaISt4pairIKSB_SE_EEESt6vectorISE_SaISE_EEEEC1EOSP_EUlOT_T0_E_OSt7variantIJSL_SO_EEEJEEESt16integer_sequenceImJLm0EEEE28__element_by_index_or_cookieILm0ESX_EEDcOST_ = comdat any

$_ZSt13__invoke_implIvZNSt8__detail9__variant15_Move_ctor_baseILb0EJSt3mapINSt7__cxx1112basic_stringIcSt11char_traitsIcESaIcEEEN9grpc_core12experimental4JsonESt4lessIS9_ESaISt4pairIKS9_SC_EEESt6vectorISC_SaISC_EEEEC1EOSN_EUlOT_T0_E_JSJ_St17integral_constantImLm0EEEESP_St14__invoke_otherOSR_DpOT1_ = comdat any

$_ZZNSt8__detail9__variant15_Move_ctor_baseILb0EJSt3mapINSt7__cxx1112basic_stringIcSt11char_traitsIcESaIcEEEN9grpc_core12experimental4JsonESt4lessIS8_ESaISt4pairIKS8_SB_EEESt6vectorISB_SaISB_EEEEC1EOSM_ENUlOT_T0_E_clISI_St17integral_constantImLm0EEEEDaSP_SQ_ = comdat any

$_ZSt10_ConstructINSt8__detail9__variant15_Variadic_unionIJSt3mapINSt7__cxx1112basic_stringIcSt11char_traitsIcESaIcEEEN9grpc_core12experimental4JsonESt4lessIS9_ESaISt4pairIKS9_SC_EEESt6vectorISC_SaISC_EEEEEJRKSt16in_place_index_tILm0EESJ_EEvPT_DpOT0_ = comdat any

$_ZNSt8__detail9__variant5__getILm0ESt7variantIJSt3mapINSt7__cxx1112basic_stringIcSt11char_traitsIcESaIcEEEN9grpc_core12experimental4JsonESt4lessIS9_ESaISt4pairIKS9_SC_EEESt6vectorISC_SaISC_EEEEEEDcOT0_ = comdat any

$_ZNSt8__detail9__variant7__get_nILm0ENS0_15_Variadic_unionIJSt3mapINSt7__cxx1112basic_stringIcSt11char_traitsIcESaIcEEEN9grpc_core12experimental4JsonESt4lessIS9_ESaISt4pairIKS9_SC_EEESt6vectorISC_SaISC_EEEEEEEDcOT0_ = comdat any

$_ZSt8__invokeIZNSt8__detail9__variant15_Move_ctor_baseILb0EJSt3mapINSt7__cxx1112basic_stringIcSt11char_traitsIcESaIcEEEN9grpc_core12experimental4JsonESt4lessIS9_ESaISt4pairIKS9_SC_EEESt6vectorISC_SaISC_EEEEC1EOSN_EUlOT_T0_E_JSM_St17integral_constantImLm1EEEENSt15__invoke_resultISP_JDpT0_EE4typeESQ_DpOSW_ = comdat any

$_ZNSt8__detail9__variant17__gen_vtable_implINS0_12_Multi_arrayIPFNS0_20__variant_idx_cookieEOZNS0_15_Move_ctor_baseILb0EJSt3mapINSt7__cxx1112basic_stringIcSt11char_traitsIcESaIcEEEN9grpc_core12experimental4JsonESt4lessISB_ESaISt4pairIKSB_SE_EEESt6vectorISE_SaISE_EEEEC1EOSP_EUlOT_T0_E_OSt7variantIJSL_SO_EEEJEEESt16integer_sequenceImJLm1EEEE28__element_by_index_or_cookieILm1ESX_EEDcOST_ = comdat any

$_ZSt13__invoke_implIvZNSt8__detail9__variant15_Move_ctor_baseILb0EJSt3mapINSt7__cxx1112basic_stringIcSt11char_traitsIcESaIcEEEN9grpc_core12experimental4JsonESt4lessIS9_ESaISt4pairIKS9_SC_EEESt6vectorISC_SaISC_EEEEC1EOSN_EUlOT_T0_E_JSM_St17integral_constantImLm1EEEESP_St14__invoke_otherOSR_DpOT1_ = comdat any

$_ZZNSt8__detail9__variant15_Move_ctor_baseILb0EJSt3mapINSt7__cxx1112basic_stringIcSt11char_traitsIcESaIcEEEN9grpc_core12experimental4JsonESt4lessIS8_ESaISt4pairIKS8_SB_EEESt6vectorISB_SaISB_EEEEC1EOSM_ENUlOT_T0_E_clISL_St17integral_constantImLm1EEEEDaSP_SQ_ = comdat any

$_ZSt10_ConstructINSt8__detail9__variant15_Variadic_unionIJSt3mapINSt7__cxx1112basic_stringIcSt11char_traitsIcESaIcEEEN9grpc_core12experimental4JsonESt4lessIS9_ESaISt4pairIKS9_SC_EEESt6vectorISC_SaISC_EEEEEJRKSt16in_place_index_tILm1EESM_EEvPT_DpOT0_ = comdat any

$_ZNSt8__detail9__variant5__getILm1ESt7variantIJSt3mapINSt7__cxx1112basic_stringIcSt11char_traitsIcESaIcEEEN9grpc_core12experimental4JsonESt4lessIS9_ESaISt4pairIKS9_SC_EEESt6vectorISC_SaISC_EEEEEEDcOT0_ = comdat any

$_ZNSt8__detail9__variant7__get_nILm1ENS0_15_Variadic_unionIJSt3mapINSt7__cxx1112basic_stringIcSt11char_traitsIcESaIcEEEN9grpc_core12experimental4JsonESt4lessIS9_ESaISt4pairIKS9_SC_EEESt6vectorISC_SaISC_EEEEEEEDcOT0_ = comdat any

$_ZSt8__invokeIZNSt8__detail9__variant15_Move_ctor_baseILb0EJSt3mapINSt7__cxx1112basic_stringIcSt11char_traitsIcESaIcEEEN9grpc_core12experimental4JsonESt4lessIS9_ESaISt4pairIKS9_SC_EEESt6vectorISC_SaISC_EEEEC1EOSN_EUlOT_T0_E_JNS1_16__variant_cookieESt17integral_constantImLm18446744073709551615EEEENSt15__invoke_resultISP_JDpT0_EE4typeESQ_DpOSX_ = comdat any

$_ZNSt8__detail9__variant17__gen_vtable_implINS0_12_Multi_arrayIPFNS0_20__variant_idx_cookieEOZNS0_15_Move_ctor_baseILb0EJSt3mapINSt7__cxx1112basic_stringIcSt11char_traitsIcESaIcEEEN9grpc_core12experimental4JsonESt4lessISB_ESaISt4pairIKSB_SE_EEESt6vectorISE_SaISE_EEEEC1EOSP_EUlOT_T0_E_OSt7variantIJSL_SO_EEEJEEESt16integer_sequenceImJLm18446744073709551615EEEE28__element_by_index_or_cookieILm18446744073709551615ESX_EEDcOST_ = comdat any

$_ZSt13__invoke_implIvZNSt8__detail9__variant15_Move_ctor_baseILb0EJSt3mapINSt7__cxx1112basic_stringIcSt11char_traitsIcESaIcEEEN9grpc_core12experimental4JsonESt4lessIS9_ESaISt4pairIKS9_SC_EEESt6vectorISC_SaISC_EEEEC1EOSN_EUlOT_T0_E_JNS1_16__variant_cookieESt17integral_constantImLm18446744073709551615EEEESP_St14__invoke_otherOSR_DpOT1_ = comdat any

$_ZZNSt8__detail9__variant15_Move_ctor_baseILb0EJSt3mapINSt7__cxx1112basic_stringIcSt11char_traitsIcESaIcEEEN9grpc_core12experimental4JsonESt4lessIS8_ESaISt4pairIKS8_SB_EEESt6vectorISB_SaISB_EEEEC1EOSM_ENUlOT_T0_E_clINS0_16__variant_cookieESt17integral_constantImLm18446744073709551615EEEEDaSP_SQ_ = comdat any

$_ZN9grpc_core12experimental4Json10FromObjectEOSt3mapINSt7__cxx1112basic_stringIcSt11char_traitsIcESaIcEEES1_St4lessIS8_ESaISt4pairIKS8_S1_EEE = comdat any

$_ZNSt7variantIJSt9monostatebN9grpc_core12experimental4Json11NumberValueENSt7__cxx1112basic_stringIcSt11char_traitsIcESaIcEEESt3mapISA_S3_St4lessISA_ESaISt4pairIKSA_S3_EEESt6vectorIS3_SaIS3_EEEEaSISI_EENSt9enable_ifIXaaaa14__exactly_onceINSt9_Nth_typeIX16__accepted_indexIOT_EEJS0_bS4_SA_SI_SL_EE4typeEE18is_constructible_vIST_SQ_E15is_assignable_vIRST_SQ_EERSM_E4typeESR_ = comdat any

$_ZSt3getILm4EJSt9monostatebN9grpc_core12experimental4Json11NumberValueENSt7__cxx1112basic_stringIcSt11char_traitsIcESaIcEEESt3mapISA_S3_St4lessISA_ESaISt4pairIKSA_S3_EEESt6vectorIS3_SaIS3_EEEERNSt19variant_alternativeIXT_ESt7variantIJDpT0_EEE4typeERSQ_ = comdat any

$_ZNSt7variantIJSt9monostatebN9grpc_core12experimental4Json11NumberValueENSt7__cxx1112basic_stringIcSt11char_traitsIcESaIcEEESt3mapISA_S3_St4lessISA_ESaISt4pairIKSA_S3_EEESt6vectorIS3_SaIS3_EEEE7emplaceILm4EJSI_EEENSt9enable_ifIX18is_constructible_vINSt9_Nth_typeIXT_EJS0_bS4_SA_SI_SL_EE4typeEDpT0_EERSR_E4typeEDpOSS_ = comdat any

$_ZN9grpc_core12experimental4Json9FromArrayEOSt6vectorIS1_SaIS1_EE = comdat any

$_ZNSt7variantIJSt9monostatebN9grpc_core12experimental4Json11NumberValueENSt7__cxx1112basic_stringIcSt11char_traitsIcESaIcEEESt3mapISA_S3_St4lessISA_ESaISt4pairIKSA_S3_EEESt6vectorIS3_SaIS3_EEEEaSISL_EENSt9enable_ifIXaaaa14__exactly_onceINSt9_Nth_typeIX16__accepted_indexIOT_EEJS0_bS4_SA_SI_SL_EE4typeEE18is_constructible_vIST_SQ_E15is_assignable_vIRST_SQ_EERSM_E4typeESR_ = comdat any

$_ZSt3getILm5EJSt9monostatebN9grpc_core12experimental4Json11NumberValueENSt7__cxx1112basic_stringIcSt11char_traitsIcESaIcEEESt3mapISA_S3_St4lessISA_ESaISt4pairIKSA_S3_EEESt6vectorIS3_SaIS3_EEEERNSt19variant_alternativeIXT_ESt7variantIJDpT0_EEE4typeERSQ_ = comdat any

$_ZNSt7variantIJSt9monostatebN9grpc_core12experimental4Json11NumberValueENSt7__cxx1112basic_stringIcSt11char_traitsIcESaIcEEESt3mapISA_S3_St4lessISA_ESaISt4pairIKSA_S3_EEESt6vectorIS3_SaIS3_EEEE7emplaceILm5EJSL_EEENSt9enable_ifIX18is_constructible_vINSt9_Nth_typeIXT_EJS0_bS4_SA_SI_SL_EE4typeEDpT0_EERSR_E4typeEDpOSS_ = comdat any

$_ZNSt7variantIJSt3mapINSt7__cxx1112basic_stringIcSt11char_traitsIcESaIcEEEN9grpc_core12experimental4JsonESt4lessIS6_ESaISt4pairIKS6_S9_EEESt6vectorIS9_SaIS9_EEEED2Ev = comdat any

$_ZNSt8__detail9__variant13_Variant_baseIJSt3mapINSt7__cxx1112basic_stringIcSt11char_traitsIcESaIcEEEN9grpc_core12experimental4JsonESt4lessIS8_ESaISt4pairIKS8_SB_EEESt6vectorISB_SaISB_EEEED2Ev = comdat any

$_ZNSt8__detail9__variant17_Move_assign_baseILb0EJSt3mapINSt7__cxx1112basic_stringIcSt11char_traitsIcESaIcEEEN9grpc_core12experimental4JsonESt4lessIS8_ESaISt4pairIKS8_SB_EEESt6vectorISB_SaISB_EEEED2Ev = comdat any

$_ZNSt8__detail9__variant17_Copy_assign_baseILb0EJSt3mapINSt7__cxx1112basic_stringIcSt11char_traitsIcESaIcEEEN9grpc_core12experimental4JsonESt4lessIS8_ESaISt4pairIKS8_SB_EEESt6vectorISB_SaISB_EEEED2Ev = comdat any

$_ZNSt8__detail9__variant15_Move_ctor_baseILb0EJSt3mapINSt7__cxx1112basic_stringIcSt11char_traitsIcESaIcEEEN9grpc_core12experimental4JsonESt4lessIS8_ESaISt4pairIKS8_SB_EEESt6vectorISB_SaISB_EEEED2Ev = comdat any

$_ZNSt8__detail9__variant15_Copy_ctor_baseILb0EJSt3mapINSt7__cxx1112basic_stringIcSt11char_traitsIcESaIcEEEN9grpc_core12experimental4JsonESt4lessIS8_ESaISt4pairIKS8_SB_EEESt6vectorISB_SaISB_EEEED2Ev = comdat any

$_ZNSt8__detail9__variant16_Variant_storageILb0EJSt3mapINSt7__cxx1112basic_stringIcSt11char_traitsIcESaIcEEEN9grpc_core12experimental4JsonESt4lessIS8_ESaISt4pairIKS8_SB_EEESt6vectorISB_SaISB_EEEED2Ev = comdat any

$_ZNSt8__detail9__variant16_Variant_storageILb0EJSt3mapINSt7__cxx1112basic_stringIcSt11char_traitsIcESaIcEEEN9grpc_core12experimental4JsonESt4lessIS8_ESaISt4pairIKS8_SB_EEESt6vectorISB_SaISB_EEEE8_M_resetEv = comdat any

$_ZSt10__do_visitIvZNSt8__detail9__variant16_Variant_storageILb0EJSt3mapINSt7__cxx1112basic_stringIcSt11char_traitsIcESaIcEEEN9grpc_core12experimental4JsonESt4lessIS9_ESaISt4pairIKS9_SC_EEESt6vectorISC_SaISC_EEEE8_M_resetEvEUlOT_E_JRSt7variantIJSJ_SM_EEEEDcOT0_DpOT1_ = comdat any

$_ZSt14__variant_castIJSt3mapINSt7__cxx1112basic_stringIcSt11char_traitsIcESaIcEEEN9grpc_core12experimental4JsonESt4lessIS6_ESaISt4pairIKS6_S9_EEESt6vectorIS9_SaIS9_EEERNSt8__detail9__variant16_Variant_storageILb0EJSG_SJ_EEEEDcOT0_ = comdat any

$_ZZSt10__do_visitIvZNSt8__detail9__variant16_Variant_storageILb0EJSt3mapINSt7__cxx1112basic_stringIcSt11char_traitsIcESaIcEEEN9grpc_core12experimental4JsonESt4lessIS9_ESaISt4pairIKS9_SC_EEESt6vectorISC_SaISC_EEEE8_M_resetEvEUlOT_E_JRSt7variantIJSJ_SM_EEEEDcOT0_DpOT1_ENKUlST_zE_clB5cxx11EST_z = comdat any

$_ZNSt8__detail9__variant17__gen_vtable_implINS0_12_Multi_arrayIPFvOZNS0_16_Variant_storageILb0EJSt3mapINSt7__cxx1112basic_stringIcSt11char_traitsIcESaIcEEEN9grpc_core12experimental4JsonESt4lessISA_ESaISt4pairIKSA_SD_EEESt6vectorISD_SaISD_EEEE8_M_resetEvEUlOT_E_RSt7variantIJSK_SN_EEEJEEESt16integer_sequenceImJLm0EEEE14__visit_invokeESS_SV_ = comdat any

$_ZNSt8__detail9__variant17__gen_vtable_implINS0_12_Multi_arrayIPFvOZNS0_16_Variant_storageILb0EJSt3mapINSt7__cxx1112basic_stringIcSt11char_traitsIcESaIcEEEN9grpc_core12experimental4JsonESt4lessISA_ESaISt4pairIKSA_SD_EEESt6vectorISD_SaISD_EEEE8_M_resetEvEUlOT_E_RSt7variantIJSK_SN_EEEJEEESt16integer_sequenceImJLm1EEEE14__visit_invokeESS_SV_ = comdat any

$_ZSt10__invoke_rIvZNSt8__detail9__variant16_Variant_storageILb0EJSt3mapINSt7__cxx1112basic_stringIcSt11char_traitsIcESaIcEEEN9grpc_core12experimental4JsonESt4lessIS9_ESaISt4pairIKS9_SC_EEESt6vectorISC_SaISC_EEEE8_M_resetEvEUlOT_E_JRSJ_EENSt9enable_ifIX16is_invocable_r_vISO_T0_DpT1_EESO_E4typeEOST_DpOSU_ = comdat any

$_ZSt13__invoke_implIvZNSt8__detail9__variant16_Variant_storageILb0EJSt3mapINSt7__cxx1112basic_stringIcSt11char_traitsIcESaIcEEEN9grpc_core12experimental4JsonESt4lessIS9_ESaISt4pairIKS9_SC_EEESt6vectorISC_SaISC_EEEE8_M_resetEvEUlOT_E_JRSJ_EESO_St14__invoke_otherOT0_DpOT1_ = comdat any

$_ZZNSt8__detail9__variant16_Variant_storageILb0EJSt3mapINSt7__cxx1112basic_stringIcSt11char_traitsIcESaIcEEEN9grpc_core12experimental4JsonESt4lessIS8_ESaISt4pairIKS8_SB_EEESt6vectorISB_SaISB_EEEE8_M_resetEvENUlOT_E_clIRSI_EEDaSO_ = comdat any

$_ZSt10__invoke_rIvZNSt8__detail9__variant16_Variant_storageILb0EJSt3mapINSt7__cxx1112basic_stringIcSt11char_traitsIcESaIcEEEN9grpc_core12experimental4JsonESt4lessIS9_ESaISt4pairIKS9_SC_EEESt6vectorISC_SaISC_EEEE8_M_resetEvEUlOT_E_JRSM_EENSt9enable_ifIX16is_invocable_r_vISO_T0_DpT1_EESO_E4typeEOST_DpOSU_ = comdat any

$_ZSt13__invoke_implIvZNSt8__detail9__variant16_Variant_storageILb0EJSt3mapINSt7__cxx1112basic_stringIcSt11char_traitsIcESaIcEEEN9grpc_core12experimental4JsonESt4lessIS9_ESaISt4pairIKS9_SC_EEESt6vectorISC_SaISC_EEEE8_M_resetEvEUlOT_E_JRSM_EESO_St14__invoke_otherOT0_DpOT1_ = comdat any

$_ZZNSt8__detail9__variant16_Variant_storageILb0EJSt3mapINSt7__cxx1112basic_stringIcSt11char_traitsIcESaIcEEEN9grpc_core12experimental4JsonESt4lessIS8_ESaISt4pairIKS8_SB_EEESt6vectorISB_SaISB_EEEE8_M_resetEvENUlOT_E_clIRSL_EEDaSO_ = comdat any

$_ZSt3getISt3mapINSt7__cxx1112basic_stringIcSt11char_traitsIcESaIcEEEN9grpc_core12experimental4JsonESt4lessIS6_ESaISt4pairIKS6_S9_EEEJSG_St6vectorIS9_SaIS9_EEEERT_RSt7variantIJDpT0_EE = comdat any

$_ZStneRKSt23_Rb_tree_const_iteratorISt4pairIKNSt7__cxx1112basic_stringIcSt11char_traitsIcESaIcEEEN9grpc_core12experimental4JsonEEESE_ = comdat any

$_ZNKSt3mapINSt7__cxx1112basic_stringIcSt11char_traitsIcESaIcEEEN9grpc_core12experimental4JsonESt4lessIS5_ESaISt4pairIKS5_S8_EEE4findERSC_ = comdat any

$_ZNKSt3mapINSt7__cxx1112basic_stringIcSt11char_traitsIcESaIcEEEN9grpc_core12experimental4JsonESt4lessIS5_ESaISt4pairIKS5_S8_EEE3endEv = comdat any

$_ZNKSt6vectorINSt7__cxx1112basic_stringIcSt11char_traitsIcESaIcEEESaIS5_EE4sizeEv = comdat any

$_ZN4absl12lts_202308029StrFormatIJNSt7__cxx1112basic_stringIcSt11char_traitsIcESaIcEEEmEEES7_RKNS0_19str_format_internal18FormatSpecTemplateIJXspclsr19str_format_internalE14ArgumentToConvIT_EEEEEEDpRKSA_ = comdat any

$_ZN4absl12lts_2023080219str_format_internal18FormatSpecTemplateIJLNS0_23FormatConversionCharSetE524292ELS3_655355EEEC2EUa9enable_ifIXclL_ZNS1_15ValidFormatImplIJLS3_524292ELS3_655355EEEEbSt17basic_string_viewIcSt11char_traitsIcEEEfL0p_EEEPKc = comdat any

$_ZSt3getILm0EJSt3mapINSt7__cxx1112basic_stringIcSt11char_traitsIcESaIcEEEN9grpc_core12experimental4JsonESt4lessIS6_ESaISt4pairIKS6_S9_EEESt6vectorIS9_SaIS9_EEEERNSt19variant_alternativeIXT_ESt7variantIJDpT0_EEE4typeERSO_ = comdat any

$_ZNKSt8_Rb_treeINSt7__cxx1112basic_stringIcSt11char_traitsIcESaIcEEESt4pairIKS5_N9grpc_core12experimental4JsonEESt10_Select1stISB_ESt4lessIS5_ESaISB_EE4findERS7_ = comdat any

$_ZNKSt8_Rb_treeINSt7__cxx1112basic_stringIcSt11char_traitsIcESaIcEEESt4pairIKS5_N9grpc_core12experimental4JsonEESt10_Select1stISB_ESt4lessIS5_ESaISB_EE14_M_lower_boundEPKSt13_Rb_tree_nodeISB_EPKSt18_Rb_tree_node_baseRS7_ = comdat any

$_ZNKSt8_Rb_treeINSt7__cxx1112basic_stringIcSt11char_traitsIcESaIcEEESt4pairIKS5_N9grpc_core12experimental4JsonEESt10_Select1stISB_ESt4lessIS5_ESaISB_EE8_M_beginEv = comdat any

$_ZNKSt8_Rb_treeINSt7__cxx1112basic_stringIcSt11char_traitsIcESaIcEEESt4pairIKS5_N9grpc_core12experimental4JsonEESt10_Select1stISB_ESt4lessIS5_ESaISB_EE6_M_endEv = comdat any

$_ZSteqRKSt23_Rb_tree_const_iteratorISt4pairIKNSt7__cxx1112basic_stringIcSt11char_traitsIcESaIcEEEN9grpc_core12experimental4JsonEEESE_ = comdat any

$_ZNKSt8_Rb_treeINSt7__cxx1112basic_stringIcSt11char_traitsIcESaIcEEESt4pairIKS5_N9grpc_core12experimental4JsonEESt10_Select1stISB_ESt4lessIS5_ESaISB_EE3endEv = comdat any

$_ZNSt8_Rb_treeINSt7__cxx1112basic_stringIcSt11char_traitsIcESaIcEEESt4pairIKS5_N9grpc_core12experimental4JsonEESt10_Select1stISB_ESt4lessIS5_ESaISB_EE7_S_leftEPKSt18_Rb_tree_node_base = comdat any

$_ZNSt8_Rb_treeINSt7__cxx1112basic_stringIcSt11char_traitsIcESaIcEEESt4pairIKS5_N9grpc_core12experimental4JsonEESt10_Select1stISB_ESt4lessIS5_ESaISB_EE8_S_rightEPKSt18_Rb_tree_node_base = comdat any

$_ZNSt23_Rb_tree_const_iteratorISt4pairIKNSt7__cxx1112basic_stringIcSt11char_traitsIcESaIcEEEN9grpc_core12experimental4JsonEEEC2EPKSt18_Rb_tree_node_base = comdat any

$_ZN4absl12lts_2023080219str_format_internal21UntypedFormatSpecImpl7ExtractINS1_18FormatSpecTemplateIJLNS0_23FormatConversionCharSetE524292ELS5_655355EEEEEERKS2_RKT_ = comdat any

$_ZN4absl12lts_2023080219str_format_internal13FormatArgImplC2INSt7__cxx1112basic_stringIcSt11char_traitsIcESaIcEEEEERKT_ = comdat any

$_ZN4absl12lts_2023080219str_format_internal13FormatArgImplC2ImEERKT_ = comdat any

$_ZN4absl12lts_202308024SpanIKNS0_19str_format_internal13FormatArgImplEEC2IS4_S4_EESt16initializer_listIS3_E = comdat any

$_ZN4absl12lts_2023080219str_format_internal13FormatArgImpl4InitINSt7__cxx1112basic_stringIcSt11char_traitsIcESaIcEEEEEvRKT_ = comdat any

$_ZN4absl12lts_2023080219str_format_internal13FormatArgImpl7ManagerINSt7__cxx1112basic_stringIcSt11char_traitsIcESaIcEEELNS2_13StoragePolicyE0EE8SetValueERKS9_ = comdat any

$_ZN4absl12lts_2023080219str_format_internal13FormatArgImpl4InitImEEvRKT_ = comdat any

$_ZN4absl12lts_2023080219str_format_internal13FormatArgImpl7ManagerImLNS2_13StoragePolicyE2EE8SetValueERKm = comdat any

$_ZNKSt16initializer_listIN4absl12lts_2023080219str_format_internal13FormatArgImplEE5beginEv = comdat any

$_ZNKSt16initializer_listIN4absl12lts_2023080219str_format_internal13FormatArgImplEE4sizeEv = comdat any

$_ZN4absl12lts_202308024SpanIKNS0_19str_format_internal13FormatArgImplEEC2EPS4_m = comdat any

$_ZN4absl12lts_2023080217UntypedFormatSpecC2ESt17basic_string_viewIcSt11char_traitsIcEE = comdat any

$_ZN4absl12lts_2023080219str_format_internal21UntypedFormatSpecImplC2ESt17basic_string_viewIcSt11char_traitsIcEE = comdat any

$_ZN9grpc_core12experimental4Json10FromStringEONSt7__cxx1112basic_stringIcSt11char_traitsIcESaIcEEE = comdat any

$_ZNSt7variantIJSt9monostatebN9grpc_core12experimental4Json11NumberValueENSt7__cxx1112basic_stringIcSt11char_traitsIcESaIcEEESt3mapISA_S3_St4lessISA_ESaISt4pairIKSA_S3_EEESt6vectorIS3_SaIS3_EEEEaSISA_EENSt9enable_ifIXaaaa14__exactly_onceINSt9_Nth_typeIX16__accepted_indexIOT_EEJS0_bS4_SA_SI_SL_EE4typeEE18is_constructible_vIST_SQ_E15is_assignable_vIRST_SQ_EERSM_E4typeESR_ = comdat any

$_ZSt3getILm3EJSt9monostatebN9grpc_core12experimental4Json11NumberValueENSt7__cxx1112basic_stringIcSt11char_traitsIcESaIcEEESt3mapISA_S3_St4lessISA_ESaISt4pairIKSA_S3_EEESt6vectorIS3_SaIS3_EEEERNSt19variant_alternativeIXT_ESt7variantIJDpT0_EEE4typeERSQ_ = comdat any

$_ZNSt7variantIJSt9monostatebN9grpc_core12experimental4Json11NumberValueENSt7__cxx1112basic_stringIcSt11char_traitsIcESaIcEEESt3mapISA_S3_St4lessISA_ESaISt4pairIKSA_S3_EEESt6vectorIS3_SaIS3_EEEE7emplaceILm3EJSA_EEENSt9enable_ifIX18is_constructible_vINSt9_Nth_typeIXT_EJS0_bS4_SA_SI_SL_EE4typeEDpT0_EERSR_E4typeEDpOSS_ = comdat any

$_ZN4absl12lts_202308029StrFormatIJimEEENSt7__cxx1112basic_stringIcSt11char_traitsIcESaIcEEERKNS0_19str_format_internal18FormatSpecTemplateIJXspclsr19str_format_internalE14ArgumentToConvIT_EEEEEEDpRKSA_ = comdat any

$_ZN4absl12lts_2023080219str_format_internal18FormatSpecTemplateIJLNS0_23FormatConversionCharSetE655355ELS3_655355EEEC2EUa9enable_ifIXclL_ZNS1_15ValidFormatImplIJLS3_655355ELS3_655355EEEEbSt17basic_string_viewIcSt11char_traitsIcEEEfL0p_EEEPKc = comdat any

$_ZNSt3mapINSt7__cxx1112basic_stringIcSt11char_traitsIcESaIcEEEN9grpc_core12experimental4JsonESt4lessIS5_ESaISt4pairIKS5_S8_EEEC2Ev = comdat any

$_ZNSt7variantIJSt3mapINSt7__cxx1112basic_stringIcSt11char_traitsIcESaIcEEEN9grpc_core12experimental4JsonESt4lessIS6_ESaISt4pairIKS6_S9_EEESt6vectorIS9_SaIS9_EEEEaSISG_EENSt9enable_ifIXaaaa14__exactly_onceINSt9_Nth_typeIX16__accepted_indexIOT_EEJSG_SJ_EE4typeEE18is_constructible_vISR_SO_E15is_assignable_vIRSR_SO_EERSK_E4typeESP_ = comdat any

$_ZNSt6vectorIN9grpc_core12experimental4JsonESaIS2_EEC2Ev = comdat any

$_ZNSt7variantIJSt3mapINSt7__cxx1112basic_stringIcSt11char_traitsIcESaIcEEEN9grpc_core12experimental4JsonESt4lessIS6_ESaISt4pairIKS6_S9_EEESt6vectorIS9_SaIS9_EEEEaSISJ_EENSt9enable_ifIXaaaa14__exactly_onceINSt9_Nth_typeIX16__accepted_indexIOT_EEJSG_SJ_EE4typeEE18is_constructible_vISR_SO_E15is_assignable_vIRSR_SO_EERSK_E4typeESP_ = comdat any

$_ZN4absl12lts_2023080219str_format_internal21UntypedFormatSpecImpl7ExtractINS1_18FormatSpecTemplateIJLNS0_23FormatConversionCharSetE655355ELS5_655355EEEEEERKS2_RKT_ = comdat any

$_ZN4absl12lts_2023080219str_format_internal13FormatArgImplC2IiEERKT_ = comdat any

$_ZN4absl12lts_2023080219str_format_internal13FormatArgImpl4InitIiEEvRKT_ = comdat any

$_ZN4absl12lts_2023080219str_format_internal13FormatArgImpl7ManagerIiLNS2_13StoragePolicyE2EE8SetValueERKi = comdat any

$_ZNSt7variantIJSt3mapINSt7__cxx1112basic_stringIcSt11char_traitsIcESaIcEEEN9grpc_core12experimental4JsonESt4lessIS6_ESaISt4pairIKS6_S9_EEESt6vectorIS9_SaIS9_EEEEC2Ev = comdat any

$_ZNSt8__detail9__variant13_Variant_baseIJSt3mapINSt7__cxx1112basic_stringIcSt11char_traitsIcESaIcEEEN9grpc_core12experimental4JsonESt4lessIS8_ESaISt4pairIKS8_SB_EEESt6vectorISB_SaISB_EEEEC2Ev = comdat any

$_ZNSt8__detail9__variant13_Variant_baseIJSt3mapINSt7__cxx1112basic_stringIcSt11char_traitsIcESaIcEEEN9grpc_core12experimental4JsonESt4lessIS8_ESaISt4pairIKS8_SB_EEESt6vectorISB_SaISB_EEEEC2ILm0EJEEESt16in_place_index_tIXT_EEDpOT0_ = comdat any

$_ZNSt8__detail9__variant17_Move_assign_baseILb0EJSt3mapINSt7__cxx1112basic_stringIcSt11char_traitsIcESaIcEEEN9grpc_core12experimental4JsonESt4lessIS8_ESaISt4pairIKS8_SB_EEESt6vectorISB_SaISB_EEEECI2NS0_16_Variant_storageILb0EJSI_SL_EEEILm0EJEEESt16in_place_index_tIXT_EEDpOT0_ = comdat any

$_ZNSt8__detail9__variant17_Copy_assign_baseILb0EJSt3mapINSt7__cxx1112basic_stringIcSt11char_traitsIcESaIcEEEN9grpc_core12experimental4JsonESt4lessIS8_ESaISt4pairIKS8_SB_EEESt6vectorISB_SaISB_EEEECI2NS0_16_Variant_storageILb0EJSI_SL_EEEILm0EJEEESt16in_place_index_tIXT_EEDpOT0_ = comdat any

$_ZNSt8__detail9__variant15_Move_ctor_baseILb0EJSt3mapINSt7__cxx1112basic_stringIcSt11char_traitsIcESaIcEEEN9grpc_core12experimental4JsonESt4lessIS8_ESaISt4pairIKS8_SB_EEESt6vectorISB_SaISB_EEEECI2NS0_16_Variant_storageILb0EJSI_SL_EEEILm0EJEEESt16in_place_index_tIXT_EEDpOT0_ = comdat any

$_ZNSt8__detail9__variant15_Copy_ctor_baseILb0EJSt3mapINSt7__cxx1112basic_stringIcSt11char_traitsIcESaIcEEEN9grpc_core12experimental4JsonESt4lessIS8_ESaISt4pairIKS8_SB_EEESt6vectorISB_SaISB_EEEECI2NS0_16_Variant_storageILb0EJSI_SL_EEEILm0EJEEESt16in_place_index_tIXT_EEDpOT0_ = comdat any

$_ZNSt8__detail9__variant16_Variant_storageILb0EJSt3mapINSt7__cxx1112basic_stringIcSt11char_traitsIcESaIcEEEN9grpc_core12experimental4JsonESt4lessIS8_ESaISt4pairIKS8_SB_EEESt6vectorISB_SaISB_EEEEC2ILm0EJEEESt16in_place_index_tIXT_EEDpOT0_ = comdat any

$_ZNSt8__detail9__variant15_Variadic_unionIJSt3mapINSt7__cxx1112basic_stringIcSt11char_traitsIcESaIcEEEN9grpc_core12experimental4JsonESt4lessIS8_ESaISt4pairIKS8_SB_EEESt6vectorISB_SaISB_EEEEC2IJEEESt16in_place_index_tILm0EEDpOT_ = comdat any

$_ZNSt8__detail9__variant14_UninitializedISt3mapINSt7__cxx1112basic_stringIcSt11char_traitsIcESaIcEEEN9grpc_core12experimental4JsonESt4lessIS8_ESaISt4pairIKS8_SB_EEELb0EEC2IJEEESt16in_place_index_tILm0EEDpOT_ = comdat any

$_ZNSt8_Rb_treeINSt7__cxx1112basic_stringIcSt11char_traitsIcESaIcEEESt4pairIKS5_N9grpc_core12experimental4JsonEESt10_Select1stISB_ESt4lessIS5_ESaISB_EEC2Ev = comdat any

$_ZNSt8_Rb_treeINSt7__cxx1112basic_stringIcSt11char_traitsIcESaIcEEESt4pairIKS5_N9grpc_core12experimental4JsonEESt10_Select1stISB_ESt4lessIS5_ESaISB_EE13_Rb_tree_implISF_Lb1EEC2Ev = comdat any

$_ZNSaISt13_Rb_tree_nodeISt4pairIKNSt7__cxx1112basic_stringIcSt11char_traitsIcESaIcEEEN9grpc_core12experimental4JsonEEEEC2Ev = comdat any

$_ZNSt20_Rb_tree_key_compareISt4lessINSt7__cxx1112basic_stringIcSt11char_traitsIcESaIcEEEEEC2Ev = comdat any

$_ZNSt15_Rb_tree_headerC2Ev = comdat any

$_ZNSt15__new_allocatorISt13_Rb_tree_nodeISt4pairIKNSt7__cxx1112basic_stringIcSt11char_traitsIcESaIcEEEN9grpc_core12experimental4JsonEEEEC2Ev = comdat any

$_ZNSt7variantIJSt3mapINSt7__cxx1112basic_stringIcSt11char_traitsIcESaIcEEEN9grpc_core12experimental4JsonESt4lessIS6_ESaISt4pairIKS6_S9_EEESt6vectorIS9_SaIS9_EEEE7emplaceILm0EJSG_EEENSt9enable_ifIX18is_constructible_vINSt9_Nth_typeIXT_EJSG_SJ_EE4typeEDpT0_EERSP_E4typeEDpOSQ_ = comdat any

$_ZNSt8__detail9__variant9__emplaceILm0ELb0EJSt3mapINSt7__cxx1112basic_stringIcSt11char_traitsIcESaIcEEEN9grpc_core12experimental4JsonESt4lessIS8_ESaISt4pairIKS8_SB_EEESt6vectorISB_SaISB_EEEJSI_EEEvRNS0_16_Variant_storageIXT0_EJDpT1_EEEDpOT2_ = comdat any

$_ZNSt12_Vector_baseIN9grpc_core12experimental4JsonESaIS2_EEC2Ev = comdat any

$_ZNSt12_Vector_baseIN9grpc_core12experimental4JsonESaIS2_EE12_Vector_implC2Ev = comdat any

$_ZNSaIN9grpc_core12experimental4JsonEEC2Ev = comdat any

$_ZNSt15__new_allocatorIN9grpc_core12experimental4JsonEEC2Ev = comdat any

$_ZSt3getILm1EJSt3mapINSt7__cxx1112basic_stringIcSt11char_traitsIcESaIcEEEN9grpc_core12experimental4JsonESt4lessIS6_ESaISt4pairIKS6_S9_EEESt6vectorIS9_SaIS9_EEEERNSt19variant_alternativeIXT_ESt7variantIJDpT0_EEE4typeERSO_ = comdat any

$_ZNSt7variantIJSt3mapINSt7__cxx1112basic_stringIcSt11char_traitsIcESaIcEEEN9grpc_core12experimental4JsonESt4lessIS6_ESaISt4pairIKS6_S9_EEESt6vectorIS9_SaIS9_EEEE7emplaceILm1EJSJ_EEENSt9enable_ifIX18is_constructible_vINSt9_Nth_typeIXT_EJSG_SJ_EE4typeEDpT0_EERSP_E4typeEDpOSQ_ = comdat any

$_ZNSt8__detail9__variant9__emplaceILm1ELb0EJSt3mapINSt7__cxx1112basic_stringIcSt11char_traitsIcESaIcEEEN9grpc_core12experimental4JsonESt4lessIS8_ESaISt4pairIKS8_SB_EEESt6vectorISB_SaISB_EEEJSL_EEEvRNS0_16_Variant_storageIXT0_EJDpT1_EEEDpOT2_ = comdat any

$_ZN9grpc_core12experimental4Json8FromBoolEb = comdat any

$_ZNSt7variantIJSt9monostatebN9grpc_core12experimental4Json11NumberValueENSt7__cxx1112basic_stringIcSt11char_traitsIcESaIcEEESt3mapISA_S3_St4lessISA_ESaISt4pairIKSA_S3_EEESt6vectorIS3_SaIS3_EEEEaSIRbEENSt9enable_ifIXaaaa14__exactly_onceINSt9_Nth_typeIX16__accepted_indexIOT_EEJS0_bS4_SA_SI_SL_EE4typeEE18is_constructible_vISU_SR_E15is_assignable_vIRSU_SR_EERSM_E4typeESS_ = comdat any

$_ZSt3getILm1EJSt9monostatebN9grpc_core12experimental4Json11NumberValueENSt7__cxx1112basic_stringIcSt11char_traitsIcESaIcEEESt3mapISA_S3_St4lessISA_ESaISt4pairIKSA_S3_EEESt6vectorIS3_SaIS3_EEEERNSt19variant_alternativeIXT_ESt7variantIJDpT0_EEE4typeERSQ_ = comdat any

$_ZNSt7variantIJSt9monostatebN9grpc_core12experimental4Json11NumberValueENSt7__cxx1112basic_stringIcSt11char_traitsIcESaIcEEESt3mapISA_S3_St4lessISA_ESaISt4pairIKSA_S3_EEESt6vectorIS3_SaIS3_EEEE7emplaceILm1EJRbEEENSt9enable_ifIX18is_constructible_vINSt9_Nth_typeIXT_EJS0_bS4_SA_SI_SL_EE4typeEDpT0_EERSS_E4typeEDpOST_ = comdat any

$_ZNSt8__detail9__variant9__emplaceILm1ELb0EJSt9monostatebN9grpc_core12experimental4Json11NumberValueENSt7__cxx1112basic_stringIcSt11char_traitsIcESaIcEEESt3mapISC_S5_St4lessISC_ESaISt4pairIKSC_S5_EEESt6vectorIS5_SaIS5_EEEJRbEEEvRNS0_16_Variant_storageIXT0_EJDpT1_EEEDpOT2_ = comdat any

$_ZSt10_ConstructIbJRbEEvPT_DpOT0_ = comdat any

$_ZNSt6vectorINSt7__cxx1112basic_stringIcSt11char_traitsIcESaIcEEESaIS5_EE12emplace_backIJS5_EEERS5_DpOT_ = comdat any

$_ZNSt16allocator_traitsISaINSt7__cxx1112basic_stringIcSt11char_traitsIcESaIcEEEEE9constructIS5_JS5_EEEvRS6_PT_DpOT0_ = comdat any

$_ZNSt6vectorINSt7__cxx1112basic_stringIcSt11char_traitsIcESaIcEEESaIS5_EE17_M_realloc_insertIJS5_EEEvN9__gnu_cxx17__normal_iteratorIPS5_S7_EEDpOT_ = comdat any

$_ZNSt6vectorINSt7__cxx1112basic_stringIcSt11char_traitsIcESaIcEEESaIS5_EE3endEv = comdat any

$_ZNSt6vectorINSt7__cxx1112basic_stringIcSt11char_traitsIcESaIcEEESaIS5_EE4backEv = comdat any

$_ZNSt15__new_allocatorINSt7__cxx1112basic_stringIcSt11char_traitsIcESaIcEEEE9constructIS5_JS5_EEEvPT_DpOT0_ = comdat any

$_ZNKSt6vectorINSt7__cxx1112basic_stringIcSt11char_traitsIcESaIcEEESaIS5_EE12_M_check_lenEmPKc = comdat any

$_ZN9__gnu_cxxmiIPNSt7__cxx1112basic_stringIcSt11char_traitsIcESaIcEEESt6vectorIS6_SaIS6_EEEENS_17__normal_iteratorIT_T0_E15difference_typeERKSE_SH_ = comdat any

$_ZNSt6vectorINSt7__cxx1112basic_stringIcSt11char_traitsIcESaIcEEESaIS5_EE5beginEv = comdat any

$_ZNSt12_Vector_baseINSt7__cxx1112basic_stringIcSt11char_traitsIcESaIcEEESaIS5_EE11_M_allocateEm = comdat any

$_ZNSt6vectorINSt7__cxx1112basic_stringIcSt11char_traitsIcESaIcEEESaIS5_EE11_S_relocateEPS5_S8_S8_RS6_ = comdat any

$_ZNK9__gnu_cxx17__normal_iteratorIPNSt7__cxx1112basic_stringIcSt11char_traitsIcESaIcEEESt6vectorIS6_SaIS6_EEE4baseEv = comdat any

$_ZNSt12_Vector_baseINSt7__cxx1112basic_stringIcSt11char_traitsIcESaIcEEESaIS5_EE19_M_get_Tp_allocatorEv = comdat any

$_ZNSt12_Vector_baseINSt7__cxx1112basic_stringIcSt11char_traitsIcESaIcEEESaIS5_EE13_M_deallocateEPS5_m = comdat any

$_ZNKSt6vectorINSt7__cxx1112basic_stringIcSt11char_traitsIcESaIcEEESaIS5_EE8max_sizeEv = comdat any

$_ZNSt6vectorINSt7__cxx1112basic_stringIcSt11char_traitsIcESaIcEEESaIS5_EE11_S_max_sizeERKS6_ = comdat any

$_ZNKSt12_Vector_baseINSt7__cxx1112basic_stringIcSt11char_traitsIcESaIcEEESaIS5_EE19_M_get_Tp_allocatorEv = comdat any

$_ZNSt16allocator_traitsISaINSt7__cxx1112basic_stringIcSt11char_traitsIcESaIcEEEEE8max_sizeERKS6_ = comdat any

$_ZNKSt15__new_allocatorINSt7__cxx1112basic_stringIcSt11char_traitsIcESaIcEEEE8max_sizeEv = comdat any

$_ZNKSt15__new_allocatorINSt7__cxx1112basic_stringIcSt11char_traitsIcESaIcEEEE11_M_max_sizeEv = comdat any

$_ZN9__gnu_cxx17__normal_iteratorIPNSt7__cxx1112basic_stringIcSt11char_traitsIcESaIcEEESt6vectorIS6_SaIS6_EEEC2ERKS7_ = comdat any

$_ZNSt16allocator_traitsISaINSt7__cxx1112basic_stringIcSt11char_traitsIcESaIcEEEEE8allocateERS6_m = comdat any

$_ZNSt15__new_allocatorINSt7__cxx1112basic_stringIcSt11char_traitsIcESaIcEEEE8allocateEmPKv = comdat any

$_ZSt12__relocate_aIPNSt7__cxx1112basic_stringIcSt11char_traitsIcESaIcEEES6_SaIS5_EET0_T_S9_S8_RT1_ = comdat any

$_ZSt14__relocate_a_1IPNSt7__cxx1112basic_stringIcSt11char_traitsIcESaIcEEES6_SaIS5_EET0_T_S9_S8_RT1_ = comdat any

$_ZSt12__niter_baseIPNSt7__cxx1112basic_stringIcSt11char_traitsIcESaIcEEEET_S7_ = comdat any

$_ZSt19__relocate_object_aINSt7__cxx1112basic_stringIcSt11char_traitsIcESaIcEEES5_SaIS5_EEvPT_PT0_RT1_ = comdat any

$_ZNSt16allocator_traitsISaINSt7__cxx1112basic_stringIcSt11char_traitsIcESaIcEEEEE7destroyIS5_EEvRS6_PT_ = comdat any

$_ZNSt15__new_allocatorINSt7__cxx1112basic_stringIcSt11char_traitsIcESaIcEEEE7destroyIS5_EEvPT_ = comdat any

$_ZNSt16allocator_traitsISaINSt7__cxx1112basic_stringIcSt11char_traitsIcESaIcEEEEE10deallocateERS6_PS5_m = comdat any

$_ZNSt15__new_allocatorINSt7__cxx1112basic_stringIcSt11char_traitsIcESaIcEEEE10deallocateEPS5_m = comdat any

$_ZNK9__gnu_cxx17__normal_iteratorIPNSt7__cxx1112basic_stringIcSt11char_traitsIcESaIcEEESt6vectorIS6_SaIS6_EEEmiEl = comdat any

$_ZNK9__gnu_cxx17__normal_iteratorIPNSt7__cxx1112basic_stringIcSt11char_traitsIcESaIcEEESt6vectorIS6_SaIS6_EEEdeEv = comdat any

$_ZNSt11char_traitsIcE6lengthEPKc = comdat any

$_ZNSt7__cxx1112basic_stringIcSt11char_traitsIcESaIcEE12_M_constructIPKcEEvT_S8_St20forward_iterator_tag = comdat any

$_ZNSt7__cxx1112basic_stringIcSt11char_traitsIcESaIcEE12_Alloc_hiderD2Ev = comdat any

$_ZSt8distanceIPKcENSt15iterator_traitsIT_E15difference_typeES3_S3_ = comdat any

$_ZZNSt7__cxx1112basic_stringIcSt11char_traitsIcESaIcEE12_M_constructIPKcEEvT_S8_St20forward_iterator_tagEN6_GuardC2EPS4_ = comdat any

$_ZZNSt7__cxx1112basic_stringIcSt11char_traitsIcESaIcEE12_M_constructIPKcEEvT_S8_St20forward_iterator_tagEN6_GuardD2Ev = comdat any

$_ZSt10__distanceIPKcENSt15iterator_traitsIT_E15difference_typeES3_S3_St26random_access_iterator_tag = comdat any

$_ZSt19__iterator_categoryIPKcENSt15iterator_traitsIT_E17iterator_categoryERKS3_ = comdat any

$_ZN4absl12lts_2023080218NullSafeStringViewEPKc = comdat any

$_ZNSt17basic_string_viewIcSt11char_traitsIcEEC2Ev = comdat any

$_ZNSt17basic_string_viewIcSt11char_traitsIcEEC2EPKcm = comdat any

$_ZN9__gnu_cxxeqIPKNSt7__cxx1112basic_stringIcSt11char_traitsIcESaIcEEESt6vectorIS6_SaIS6_EEEEbRKNS_17__normal_iteratorIT_T0_EESH_ = comdat any

$_ZNKSt6vectorINSt7__cxx1112basic_stringIcSt11char_traitsIcESaIcEEESaIS5_EE5beginEv = comdat any

$_ZNKSt6vectorINSt7__cxx1112basic_stringIcSt11char_traitsIcESaIcEEESaIS5_EE3endEv = comdat any

$_ZNK9__gnu_cxx17__normal_iteratorIPKNSt7__cxx1112basic_stringIcSt11char_traitsIcESaIcEEESt6vectorIS6_SaIS6_EEE4baseEv = comdat any

$_ZN9__gnu_cxx17__normal_iteratorIPKNSt7__cxx1112basic_stringIcSt11char_traitsIcESaIcEEESt6vectorIS6_SaIS6_EEEC2ERKS8_ = comdat any

$_ZN4absl12lts_2023080216strings_internal9JoinRangeISt6vectorINSt7__cxx1112basic_stringIcSt11char_traitsIcESaIcEEESaIS9_EEEES9_RKT_St17basic_string_viewIcS7_E = comdat any

$_ZN4absl12lts_2023080216strings_internal9JoinRangeIN9__gnu_cxx17__normal_iteratorIPKNSt7__cxx1112basic_stringIcSt11char_traitsIcESaIcEEESt6vectorISA_SaISA_EEEEEESA_T_SH_St17basic_string_viewIcS8_E = comdat any

$_ZSt5beginISt6vectorINSt7__cxx1112basic_stringIcSt11char_traitsIcESaIcEEESaIS6_EEEDTcldtfp_5beginEERKT_ = comdat any

$_ZSt3endISt6vectorINSt7__cxx1112basic_stringIcSt11char_traitsIcESaIcEEESaIS6_EEEDTcldtfp_3endEERKT_ = comdat any

$_ZN4absl12lts_2023080216strings_internal13JoinAlgorithmIN9__gnu_cxx17__normal_iteratorIPKNSt7__cxx1112basic_stringIcSt11char_traitsIcESaIcEEESt6vectorISA_SaISA_EEEEvEESA_T_SH_St17basic_string_viewIcS8_ENS1_11NoFormatterE = comdat any

$_ZN9__gnu_cxxneIPKNSt7__cxx1112basic_stringIcSt11char_traitsIcESaIcEEESt6vectorIS6_SaIS6_EEEEbRKNS_17__normal_iteratorIT_T0_EESH_ = comdat any

$_ZNK9__gnu_cxx17__normal_iteratorIPKNSt7__cxx1112basic_stringIcSt11char_traitsIcESaIcEEESt6vectorIS6_SaIS6_EEEdeEv = comdat any

$_ZN9__gnu_cxx17__normal_iteratorIPKNSt7__cxx1112basic_stringIcSt11char_traitsIcESaIcEEESt6vectorIS6_SaIS6_EEEppEv = comdat any

$_ZN4absl12lts_2023080216strings_internal28STLStringResizeUninitializedINSt7__cxx1112basic_stringIcSt11char_traitsIcESaIcEEEvEEvPT_m = comdat any

$_ZNK9__gnu_cxx17__normal_iteratorIPcNSt7__cxx1112basic_stringIcSt11char_traitsIcESaIcEEEEdeEv = comdat any

$_ZN4absl12lts_2023080216strings_internal25ResizeUninitializedTraitsINSt7__cxx1112basic_stringIcSt11char_traitsIcESaIcEEEvE6ResizeEPS8_m = comdat any

$_ZN4absl12lts_2023080217internal_statusor12StatusOrDataIN9grpc_core12experimental4JsonEEC2INS0_6StatusETnNSt9enable_ifIXsr3std16is_constructibleIS8_OT_EE5valueEiE4typeELi0EEESB_ = comdat any

$_ZN4absl12lts_202308026StatusC2EOS1_ = comdat any

$_ZN4absl12lts_2023080217internal_statusor12StatusOrDataIN9grpc_core12experimental4JsonEE11EnsureNotOkEv = comdat any

$_ZN4absl12lts_202308026Status12MovedFromRepEv = comdat any

$_ZN4absl12lts_202308026Status16CodeToInlinedRepENS0_10StatusCodeE = comdat any

$_ZNK4absl12lts_2023080217internal_statusor12StatusOrDataIN9grpc_core12experimental4JsonEE2okEv = comdat any

$_ZNK4absl12lts_202308026Status2okEv = comdat any

$_ZN4absl12lts_202308026Status5UnrefEm = comdat any

$_ZN4absl12lts_202308026Status9IsInlinedEm = comdat any

$_ZN4absl12lts_202308028StatusOrIN9grpc_core12experimental4JsonEEC2IJS4_EEESt10in_place_tDpOT_ = comdat any

$_ZN4absl12lts_2023080217internal_statusor12StatusOrDataIN9grpc_core12experimental4JsonEEC2IJS5_EEESt10in_place_tDpOT_ = comdat any

$_ZN4absl12lts_2023080217internal_statusor12StatusOrDataIN9grpc_core12experimental4JsonEE10MakeStatusIJEEEvDpOT_ = comdat any

$_ZN4absl12lts_2023080217internal_statusor12PlacementNewINS0_6StatusEJEEEvPvDpOT0_ = comdat any

$_ZN4absl12lts_202308026StatusC2Ev = comdat any

$_ZNSt6vectorINSt7__cxx1112basic_stringIcSt11char_traitsIcESaIcEEESaIS5_EED2Ev = comdat any

$_ZSt8_DestroyIPNSt7__cxx1112basic_stringIcSt11char_traitsIcESaIcEEES5_EvT_S7_RSaIT0_E = comdat any

$_ZNSt12_Vector_baseINSt7__cxx1112basic_stringIcSt11char_traitsIcESaIcEEESaIS5_EED2Ev = comdat any

$_ZSt8_DestroyIPNSt7__cxx1112basic_stringIcSt11char_traitsIcESaIcEEEEvT_S7_ = comdat any

$_ZNSt12_Destroy_auxILb0EE9__destroyIPNSt7__cxx1112basic_stringIcSt11char_traitsIcESaIcEEEEEvT_S9_ = comdat any

$_ZNSt12_Vector_baseINSt7__cxx1112basic_stringIcSt11char_traitsIcESaIcEEESaIS5_EE12_Vector_implD2Ev = comdat any

$_ZNSaINSt7__cxx1112basic_stringIcSt11char_traitsIcESaIcEEEED2Ev = comdat any

$_ZNSt15__new_allocatorINSt7__cxx1112basic_stringIcSt11char_traitsIcESaIcEEEED2Ev = comdat any

$_ZSt14in_place_indexILm0EE = comdat any

$_ZTSSt18bad_variant_access = comdat any

$_ZTISt18bad_variant_access = comdat any

$_ZTVSt18bad_variant_access = comdat any

$_ZSt19piecewise_construct = comdat any

$_ZSt14in_place_indexILm1EE = comdat any

$_ZSt14in_place_indexILm2EE = comdat any

$_ZSt14in_place_indexILm3EE = comdat any

$_ZSt14in_place_indexILm4EE = comdat any

$_ZSt14in_place_indexILm5EE = comdat any

$_ZSt8in_place = comdat any

@_ZStL8__ioinit = internal global %"class.std::ios_base::Init" zeroinitializer, align 1
@__dso_handle = external hidden global i8
@.str = private unnamed_addr constant [110 x i8] c"too many errors encountered during JSON parsing -- fix reported errors and try again to see additional errors\00", align 1
@.str.1 = private unnamed_addr constant [40 x i8] c"internal error in JSON parser at index \00", align 1
@.str.2 = private unnamed_addr constant [27 x i8] c"JSON parse error at index \00", align 1
@.str.3 = private unnamed_addr constant [23 x i8] c"JSON parsing failed: [\00", align 1
@.str.4 = private unnamed_addr constant [3 x i8] c"; \00", align 1
@.str.5 = private unnamed_addr constant [2 x i8] c"]\00", align 1
@_ZSt14in_place_indexILm0EE = linkonce_odr constant %"struct.std::in_place_index_t" zeroinitializer, comdat, align 1
@.str.6 = private unnamed_addr constant [40 x i8] c"return Status::GRPC_JSON_INTERNAL_ERROR\00", align 1
@.str.7 = private unnamed_addr constant [120 x i8] c"generated/home/dtcxzyw/WorkSpace/Projects/compilers/llvm-opt-benchmark/bench/grpc/grpc/src/core/lib/json/json_reader.cc\00", align 1
@.str.8 = private unnamed_addr constant [33 x i8] c"std::visit: variant is valueless\00", align 1
@_ZTVN10__cxxabiv120__si_class_type_infoE = external global [0 x ptr]
@_ZTSSt18bad_variant_access = linkonce_odr constant [23 x i8] c"St18bad_variant_access\00", comdat, align 1
@_ZTISt9exception = external constant ptr
@_ZTISt18bad_variant_access = linkonce_odr constant { ptr, ptr, ptr } { ptr getelementptr inbounds (ptr, ptr @_ZTVN10__cxxabiv120__si_class_type_infoE, i64 2), ptr @_ZTSSt18bad_variant_access, ptr @_ZTISt9exception }, comdat, align 8
@_ZTVSt18bad_variant_access = linkonce_odr unnamed_addr constant { [5 x ptr] } { [5 x ptr] [ptr null, ptr @_ZTISt18bad_variant_access, ptr @_ZNSt18bad_variant_accessD2Ev, ptr @_ZNSt18bad_variant_accessD0Ev, ptr @_ZNKSt18bad_variant_access4whatEv] }, comdat, align 8
@_ZTVSt9exception = external unnamed_addr constant { [5 x ptr] }, align 8
@_ZSt19piecewise_construct = linkonce_odr constant %"struct.std::piecewise_construct_t" zeroinitializer, comdat, align 1
@.str.9 = private unnamed_addr constant [26 x i8] c"vector::_M_realloc_insert\00", align 1
@_ZSt14in_place_indexILm1EE = linkonce_odr constant %"struct.std::in_place_index_t.62" zeroinitializer, comdat, align 1
@_ZSt14in_place_indexILm2EE = linkonce_odr constant %"struct.std::in_place_index_t.64" zeroinitializer, comdat, align 1
@_ZSt14in_place_indexILm3EE = linkonce_odr constant %"struct.std::in_place_index_t.66" zeroinitializer, comdat, align 1
@_ZSt14in_place_indexILm4EE = linkonce_odr constant %"struct.std::in_place_index_t.68" zeroinitializer, comdat, align 1
@_ZSt14in_place_indexILm5EE = linkonce_odr constant %"struct.std::in_place_index_t.70" zeroinitializer, comdat, align 1
@.str.10 = private unnamed_addr constant [31 x i8] c"std::get: variant is valueless\00", align 1
@.str.11 = private unnamed_addr constant [34 x i8] c"std::get: wrong index for variant\00", align 1
@.str.12 = private unnamed_addr constant [16 x i8] c"!stack_.empty()\00", align 1
@.str.13 = private unnamed_addr constant [32 x i8] c"duplicate key \22%s\22 at index %lu\00", align 1
@.str.14 = private unnamed_addr constant [43 x i8] c"exceeded max stack depth (%d) at index %lu\00", align 1
@.str.15 = private unnamed_addr constant [27 x i8] c"type == Json::Type::kArray\00", align 1
@.str.16 = private unnamed_addr constant [50 x i8] c"basic_string: construction from null is not valid\00", align 1
@_ZSt8in_place = linkonce_odr constant %"struct.std::in_place_t" zeroinitializer, comdat, align 1
@llvm.global_ctors = appending global [1 x { i32, ptr, ptr }] [{ i32, ptr, ptr } { i32 65535, ptr @_GLOBAL__sub_I_json_reader.cc, ptr null }]

; Function Attrs: uwtable
define internal void @__cxx_global_var_init() #0 section ".text.startup" {
entry:
  call void @_ZNSt8ios_base4InitC1Ev(ptr noundef nonnull align 1 dereferenceable(1) @_ZStL8__ioinit)
  %0 = call i32 @__cxa_atexit(ptr @_ZNSt8ios_base4InitD1Ev, ptr @_ZStL8__ioinit, ptr @__dso_handle) #3
  ret void
}

declare void @_ZNSt8ios_base4InitC1Ev(ptr noundef nonnull align 1 dereferenceable(1)) unnamed_addr #1

; Function Attrs: nounwind
declare void @_ZNSt8ios_base4InitD1Ev(ptr noundef nonnull align 1 dereferenceable(1)) unnamed_addr #2

; Function Attrs: nounwind
declare i32 @__cxa_atexit(ptr, ptr, ptr) #3

; Function Attrs: mustprogress uwtable
define void @_ZN9grpc_core9JsonParseESt17basic_string_viewIcSt11char_traitsIcEE(ptr noalias sret(%"class.absl::lts_20230802::StatusOr") align 8 %agg.result, i64 %json_str.coerce0, ptr %json_str.coerce1) #4 {
entry:
  %result.ptr = alloca ptr, align 8
  %json_str = alloca %"class.std::basic_string_view", align 8
  %agg.tmp = alloca %"class.std::basic_string_view", align 8
  store ptr %agg.result, ptr %result.ptr, align 8
  %0 = getelementptr inbounds { i64, ptr }, ptr %json_str, i32 0, i32 0
  store i64 %json_str.coerce0, ptr %0, align 8
  %1 = getelementptr inbounds { i64, ptr }, ptr %json_str, i32 0, i32 1
  store ptr %json_str.coerce1, ptr %1, align 8
  call void @llvm.memcpy.p0.p0.i64(ptr align 8 %agg.tmp, ptr align 8 %json_str, i64 16, i1 false)
  %2 = getelementptr inbounds { i64, ptr }, ptr %agg.tmp, i32 0, i32 0
  %3 = load i64, ptr %2, align 8
  %4 = getelementptr inbounds { i64, ptr }, ptr %agg.tmp, i32 0, i32 1
  %5 = load ptr, ptr %4, align 8
  call void @_ZN9grpc_core12_GLOBAL__N_110JsonReader5ParseESt17basic_string_viewIcSt11char_traitsIcEE(ptr sret(%"class.absl::lts_20230802::StatusOr") align 8 %agg.result, i64 %3, ptr %5)
  ret void
}

; Function Attrs: mustprogress uwtable
define internal void @_ZN9grpc_core12_GLOBAL__N_110JsonReader5ParseESt17basic_string_viewIcSt11char_traitsIcEE(ptr noalias sret(%"class.absl::lts_20230802::StatusOr") align 8 %agg.result, i64 %input.coerce0, ptr %input.coerce1) #4 align 2 personality ptr @__gxx_personality_v0 {
entry:
  %result.ptr = alloca ptr, align 8
  %input = alloca %"class.std::basic_string_view", align 8
  %reader = alloca %"class.grpc_core::(anonymous namespace)::JsonReader", align 8
  %agg.tmp = alloca %"class.std::basic_string_view", align 8
  %status = alloca i32, align 4
  %exn.slot = alloca ptr, align 8
  %ehselector.slot = alloca i32, align 4
  %ref.tmp = alloca %"class.std::__cxx11::basic_string", align 8
  %ref.tmp1 = alloca %"class.std::allocator.20", align 1
  %ref.tmp8 = alloca %"class.std::__cxx11::basic_string", align 8
  %ref.tmp9 = alloca %"class.absl::lts_20230802::AlphaNum", align 8
  %ref.tmp11 = alloca %"class.absl::lts_20230802::AlphaNum", align 8
  %ref.tmp22 = alloca %"class.std::__cxx11::basic_string", align 8
  %ref.tmp23 = alloca %"class.absl::lts_20230802::AlphaNum", align 8
  %ref.tmp25 = alloca %"class.absl::lts_20230802::AlphaNum", align 8
  %ref.tmp38 = alloca %"class.absl::lts_20230802::Status", align 8
  %agg.tmp39 = alloca %"class.std::basic_string_view", align 8
  %ref.tmp40 = alloca %"class.std::__cxx11::basic_string", align 8
  %ref.tmp41 = alloca %"class.absl::lts_20230802::AlphaNum", align 8
  %ref.tmp43 = alloca %"class.absl::lts_20230802::AlphaNum", align 8
  %ref.tmp44 = alloca %"class.std::__cxx11::basic_string", align 8
  %agg.tmp46 = alloca %"class.std::basic_string_view", align 8
  %ref.tmp50 = alloca %"class.absl::lts_20230802::AlphaNum", align 8
  %cleanup.dest.slot = alloca i32, align 4
  store ptr %agg.result, ptr %result.ptr, align 8
  %0 = getelementptr inbounds { i64, ptr }, ptr %input, i32 0, i32 0
  store i64 %input.coerce0, ptr %0, align 8
  %1 = getelementptr inbounds { i64, ptr }, ptr %input, i32 0, i32 1
  store ptr %input.coerce1, ptr %1, align 8
  call void @llvm.memcpy.p0.p0.i64(ptr align 8 %agg.tmp, ptr align 8 %input, i64 16, i1 false)
  %2 = getelementptr inbounds { i64, ptr }, ptr %agg.tmp, i32 0, i32 0
  %3 = load i64, ptr %2, align 8
  %4 = getelementptr inbounds { i64, ptr }, ptr %agg.tmp, i32 0, i32 1
  %5 = load ptr, ptr %4, align 8
  call void @_ZN9grpc_core12_GLOBAL__N_110JsonReaderC2ESt17basic_string_viewIcSt11char_traitsIcEE(ptr noundef nonnull align 8 dereferenceable(216) %reader, i64 %3, ptr %5)
  %call = invoke noundef i32 @_ZN9grpc_core12_GLOBAL__N_110JsonReader3RunEv(ptr noundef nonnull align 8 dereferenceable(216) %reader)
          to label %invoke.cont unwind label %lpad

invoke.cont:                                      ; preds = %entry
  store i32 %call, ptr %status, align 4
  %truncated_errors_ = getelementptr inbounds %"class.grpc_core::(anonymous namespace)::JsonReader", ptr %reader, i32 0, i32 9
  %6 = load i8, ptr %truncated_errors_, align 8
  %tobool = trunc i8 %6 to i1
  br i1 %tobool, label %if.then, label %if.end

if.then:                                          ; preds = %invoke.cont
  %errors_ = getelementptr inbounds %"class.grpc_core::(anonymous namespace)::JsonReader", ptr %reader, i32 0, i32 8
  call void @_ZNSaIcEC1Ev(ptr noundef nonnull align 1 dereferenceable(1) %ref.tmp1) #3
  invoke void @_ZNSt7__cxx1112basic_stringIcSt11char_traitsIcESaIcEEC2IS3_EEPKcRKS3_(ptr noundef nonnull align 8 dereferenceable(32) %ref.tmp, ptr noundef @.str, ptr noundef nonnull align 1 dereferenceable(1) %ref.tmp1)
          to label %invoke.cont3 unwind label %lpad2

invoke.cont3:                                     ; preds = %if.then
  invoke void @_ZNSt6vectorINSt7__cxx1112basic_stringIcSt11char_traitsIcESaIcEEESaIS5_EE9push_backEOS5_(ptr noundef nonnull align 8 dereferenceable(24) %errors_, ptr noundef nonnull align 8 dereferenceable(32) %ref.tmp)
          to label %invoke.cont5 unwind label %lpad4

invoke.cont5:                                     ; preds = %invoke.cont3
  call void @_ZNSt7__cxx1112basic_stringIcSt11char_traitsIcESaIcEED1Ev(ptr noundef nonnull align 8 dereferenceable(32) %ref.tmp) #3
  call void @_ZNSaIcED1Ev(ptr noundef nonnull align 1 dereferenceable(1) %ref.tmp1) #3
  br label %if.end

lpad:                                             ; preds = %if.end61, %invoke.cont42, %if.then37, %invoke.cont28, %invoke.cont26, %invoke.cont24, %if.then20, %invoke.cont14, %invoke.cont12, %invoke.cont10, %if.then6, %entry
  %7 = landingpad { ptr, i32 }
          cleanup
  %8 = extractvalue { ptr, i32 } %7, 0
  store ptr %8, ptr %exn.slot, align 8
  %9 = extractvalue { ptr, i32 } %7, 1
  store i32 %9, ptr %ehselector.slot, align 4
  br label %ehcleanup63

lpad2:                                            ; preds = %if.then
  %10 = landingpad { ptr, i32 }
          cleanup
  %11 = extractvalue { ptr, i32 } %10, 0
  store ptr %11, ptr %exn.slot, align 8
  %12 = extractvalue { ptr, i32 } %10, 1
  store i32 %12, ptr %ehselector.slot, align 4
  br label %ehcleanup

lpad4:                                            ; preds = %invoke.cont3
  %13 = landingpad { ptr, i32 }
          cleanup
  %14 = extractvalue { ptr, i32 } %13, 0
  store ptr %14, ptr %exn.slot, align 8
  %15 = extractvalue { ptr, i32 } %13, 1
  store i32 %15, ptr %ehselector.slot, align 4
  call void @_ZNSt7__cxx1112basic_stringIcSt11char_traitsIcESaIcEED1Ev(ptr noundef nonnull align 8 dereferenceable(32) %ref.tmp) #3
  br label %ehcleanup

ehcleanup:                                        ; preds = %lpad4, %lpad2
  call void @_ZNSaIcED1Ev(ptr noundef nonnull align 1 dereferenceable(1) %ref.tmp1) #3
  br label %ehcleanup63

if.end:                                           ; preds = %invoke.cont5, %invoke.cont
  %16 = load i32, ptr %status, align 4
  %cmp = icmp eq i32 %16, 2
  br i1 %cmp, label %if.then6, label %if.else

if.then6:                                         ; preds = %if.end
  %errors_7 = getelementptr inbounds %"class.grpc_core::(anonymous namespace)::JsonReader", ptr %reader, i32 0, i32 8
  invoke void @_ZN4absl12lts_202308028AlphaNumC2EPKc(ptr noundef nonnull align 8 dereferenceable(48) %ref.tmp9, ptr noundef @.str.1)
          to label %invoke.cont10 unwind label %lpad

invoke.cont10:                                    ; preds = %if.then6
  %call13 = invoke noundef i64 @_ZNK9grpc_core12_GLOBAL__N_110JsonReader12CurrentIndexEv(ptr noundef nonnull align 8 dereferenceable(216) %reader)
          to label %invoke.cont12 unwind label %lpad

invoke.cont12:                                    ; preds = %invoke.cont10
  invoke void @_ZN4absl12lts_202308028AlphaNumC2Em(ptr noundef nonnull align 8 dereferenceable(48) %ref.tmp11, i64 noundef %call13)
          to label %invoke.cont14 unwind label %lpad

invoke.cont14:                                    ; preds = %invoke.cont12
  invoke void @_ZN4absl12lts_202308026StrCatB5cxx11ERKNS0_8AlphaNumES3_(ptr sret(%"class.std::__cxx11::basic_string") align 8 %ref.tmp8, ptr noundef nonnull align 8 dereferenceable(48) %ref.tmp9, ptr noundef nonnull align 8 dereferenceable(48) %ref.tmp11)
          to label %invoke.cont15 unwind label %lpad

invoke.cont15:                                    ; preds = %invoke.cont14
  invoke void @_ZNSt6vectorINSt7__cxx1112basic_stringIcSt11char_traitsIcESaIcEEESaIS5_EE9push_backEOS5_(ptr noundef nonnull align 8 dereferenceable(24) %errors_7, ptr noundef nonnull align 8 dereferenceable(32) %ref.tmp8)
          to label %invoke.cont17 unwind label %lpad16

invoke.cont17:                                    ; preds = %invoke.cont15
  call void @_ZNSt7__cxx1112basic_stringIcSt11char_traitsIcESaIcEED1Ev(ptr noundef nonnull align 8 dereferenceable(32) %ref.tmp8) #3
  br label %if.end34

lpad16:                                           ; preds = %invoke.cont15
  %17 = landingpad { ptr, i32 }
          cleanup
  %18 = extractvalue { ptr, i32 } %17, 0
  store ptr %18, ptr %exn.slot, align 8
  %19 = extractvalue { ptr, i32 } %17, 1
  store i32 %19, ptr %ehselector.slot, align 4
  call void @_ZNSt7__cxx1112basic_stringIcSt11char_traitsIcESaIcEED1Ev(ptr noundef nonnull align 8 dereferenceable(32) %ref.tmp8) #3
  br label %ehcleanup63

if.else:                                          ; preds = %if.end
  %20 = load i32, ptr %status, align 4
  %cmp19 = icmp eq i32 %20, 1
  br i1 %cmp19, label %if.then20, label %if.end33

if.then20:                                        ; preds = %if.else
  %errors_21 = getelementptr inbounds %"class.grpc_core::(anonymous namespace)::JsonReader", ptr %reader, i32 0, i32 8
  invoke void @_ZN4absl12lts_202308028AlphaNumC2EPKc(ptr noundef nonnull align 8 dereferenceable(48) %ref.tmp23, ptr noundef @.str.2)
          to label %invoke.cont24 unwind label %lpad

invoke.cont24:                                    ; preds = %if.then20
  %call27 = invoke noundef i64 @_ZNK9grpc_core12_GLOBAL__N_110JsonReader12CurrentIndexEv(ptr noundef nonnull align 8 dereferenceable(216) %reader)
          to label %invoke.cont26 unwind label %lpad

invoke.cont26:                                    ; preds = %invoke.cont24
  invoke void @_ZN4absl12lts_202308028AlphaNumC2Em(ptr noundef nonnull align 8 dereferenceable(48) %ref.tmp25, i64 noundef %call27)
          to label %invoke.cont28 unwind label %lpad

invoke.cont28:                                    ; preds = %invoke.cont26
  invoke void @_ZN4absl12lts_202308026StrCatB5cxx11ERKNS0_8AlphaNumES3_(ptr sret(%"class.std::__cxx11::basic_string") align 8 %ref.tmp22, ptr noundef nonnull align 8 dereferenceable(48) %ref.tmp23, ptr noundef nonnull align 8 dereferenceable(48) %ref.tmp25)
          to label %invoke.cont29 unwind label %lpad

invoke.cont29:                                    ; preds = %invoke.cont28
  invoke void @_ZNSt6vectorINSt7__cxx1112basic_stringIcSt11char_traitsIcESaIcEEESaIS5_EE9push_backEOS5_(ptr noundef nonnull align 8 dereferenceable(24) %errors_21, ptr noundef nonnull align 8 dereferenceable(32) %ref.tmp22)
          to label %invoke.cont31 unwind label %lpad30

invoke.cont31:                                    ; preds = %invoke.cont29
  call void @_ZNSt7__cxx1112basic_stringIcSt11char_traitsIcESaIcEED1Ev(ptr noundef nonnull align 8 dereferenceable(32) %ref.tmp22) #3
  br label %if.end33

lpad30:                                           ; preds = %invoke.cont29
  %21 = landingpad { ptr, i32 }
          cleanup
  %22 = extractvalue { ptr, i32 } %21, 0
  store ptr %22, ptr %exn.slot, align 8
  %23 = extractvalue { ptr, i32 } %21, 1
  store i32 %23, ptr %ehselector.slot, align 4
  call void @_ZNSt7__cxx1112basic_stringIcSt11char_traitsIcESaIcEED1Ev(ptr noundef nonnull align 8 dereferenceable(32) %ref.tmp22) #3
  br label %ehcleanup63

if.end33:                                         ; preds = %invoke.cont31, %if.else
  br label %if.end34

if.end34:                                         ; preds = %if.end33, %invoke.cont17
  %errors_35 = getelementptr inbounds %"class.grpc_core::(anonymous namespace)::JsonReader", ptr %reader, i32 0, i32 8
  %call36 = call noundef zeroext i1 @_ZNKSt6vectorINSt7__cxx1112basic_stringIcSt11char_traitsIcESaIcEEESaIS5_EE5emptyEv(ptr noundef nonnull align 8 dereferenceable(24) %errors_35) #3
  br i1 %call36, label %if.end61, label %if.then37

if.then37:                                        ; preds = %if.end34
  invoke void @_ZN4absl12lts_202308028AlphaNumC2EPKc(ptr noundef nonnull align 8 dereferenceable(48) %ref.tmp41, ptr noundef @.str.3)
          to label %invoke.cont42 unwind label %lpad

invoke.cont42:                                    ; preds = %if.then37
  %errors_45 = getelementptr inbounds %"class.grpc_core::(anonymous namespace)::JsonReader", ptr %reader, i32 0, i32 8
  call void @_ZNSt17basic_string_viewIcSt11char_traitsIcEEC2EPKc(ptr noundef nonnull align 8 dereferenceable(16) %agg.tmp46, ptr noundef @.str.4) #3
  %24 = getelementptr inbounds { i64, ptr }, ptr %agg.tmp46, i32 0, i32 0
  %25 = load i64, ptr %24, align 8
  %26 = getelementptr inbounds { i64, ptr }, ptr %agg.tmp46, i32 0, i32 1
  %27 = load ptr, ptr %26, align 8
  invoke void @_ZN4absl12lts_202308027StrJoinISt6vectorINSt7__cxx1112basic_stringIcSt11char_traitsIcESaIcEEESaIS8_EEEES8_RKT_St17basic_string_viewIcS6_E(ptr sret(%"class.std::__cxx11::basic_string") align 8 %ref.tmp44, ptr noundef nonnull align 8 dereferenceable(24) %errors_45, i64 %25, ptr %27)
          to label %invoke.cont47 unwind label %lpad

invoke.cont47:                                    ; preds = %invoke.cont42
  invoke void @_ZN4absl12lts_202308028AlphaNumC2ISaIcEEERKNSt7__cxx1112basic_stringIcSt11char_traitsIcET_EE(ptr noundef nonnull align 8 dereferenceable(48) %ref.tmp43, ptr noundef nonnull align 8 dereferenceable(32) %ref.tmp44)
          to label %invoke.cont49 unwind label %lpad48

invoke.cont49:                                    ; preds = %invoke.cont47
  invoke void @_ZN4absl12lts_202308028AlphaNumC2EPKc(ptr noundef nonnull align 8 dereferenceable(48) %ref.tmp50, ptr noundef @.str.5)
          to label %invoke.cont51 unwind label %lpad48

invoke.cont51:                                    ; preds = %invoke.cont49
  invoke void @_ZN4absl12lts_202308026StrCatB5cxx11ERKNS0_8AlphaNumES3_S3_(ptr sret(%"class.std::__cxx11::basic_string") align 8 %ref.tmp40, ptr noundef nonnull align 8 dereferenceable(48) %ref.tmp41, ptr noundef nonnull align 8 dereferenceable(48) %ref.tmp43, ptr noundef nonnull align 8 dereferenceable(48) %ref.tmp50)
          to label %invoke.cont52 unwind label %lpad48

invoke.cont52:                                    ; preds = %invoke.cont51
  %call53 = call { i64, ptr } @_ZNKSt7__cxx1112basic_stringIcSt11char_traitsIcESaIcEEcvSt17basic_string_viewIcS2_EEv(ptr noundef nonnull align 8 dereferenceable(32) %ref.tmp40) #3
  %28 = getelementptr inbounds { i64, ptr }, ptr %agg.tmp39, i32 0, i32 0
  %29 = extractvalue { i64, ptr } %call53, 0
  store i64 %29, ptr %28, align 8
  %30 = getelementptr inbounds { i64, ptr }, ptr %agg.tmp39, i32 0, i32 1
  %31 = extractvalue { i64, ptr } %call53, 1
  store ptr %31, ptr %30, align 8
  %32 = getelementptr inbounds { i64, ptr }, ptr %agg.tmp39, i32 0, i32 0
  %33 = load i64, ptr %32, align 8
  %34 = getelementptr inbounds { i64, ptr }, ptr %agg.tmp39, i32 0, i32 1
  %35 = load ptr, ptr %34, align 8
  invoke void @_ZN4absl12lts_2023080220InvalidArgumentErrorESt17basic_string_viewIcSt11char_traitsIcEE(ptr sret(%"class.absl::lts_20230802::Status") align 8 %ref.tmp38, i64 %33, ptr %35)
          to label %invoke.cont55 unwind label %lpad54

invoke.cont55:                                    ; preds = %invoke.cont52
  invoke void @_ZN4absl12lts_202308028StatusOrIN9grpc_core12experimental4JsonEEC2INS0_6StatusETnNSt9enable_ifIXsr4absl11conjunctionISt14is_convertibleIOT_S7_ESt16is_constructibleIS7_JSB_EENS0_8negationISt7is_sameINSt5decayISA_E4typeES5_EEENSF_ISG_ISJ_S4_EEENSF_ISG_ISJ_St10in_place_tEEENSF_INS0_17internal_statusor31HasConversionOperatorToStatusOrIS4_SB_vEEEEEE5valueEiE4typeELi0EEESB_(ptr noundef nonnull align 8 dereferenceable(64) %agg.result, ptr noundef nonnull align 8 dereferenceable(8) %ref.tmp38)
          to label %invoke.cont57 unwind label %lpad56

invoke.cont57:                                    ; preds = %invoke.cont55
  call void @_ZN4absl12lts_202308026StatusD2Ev(ptr noundef nonnull align 8 dereferenceable(8) %ref.tmp38) #3
  call void @_ZNSt7__cxx1112basic_stringIcSt11char_traitsIcESaIcEED1Ev(ptr noundef nonnull align 8 dereferenceable(32) %ref.tmp40) #3
  call void @_ZNSt7__cxx1112basic_stringIcSt11char_traitsIcESaIcEED1Ev(ptr noundef nonnull align 8 dereferenceable(32) %ref.tmp44) #3
  store i32 1, ptr %cleanup.dest.slot, align 4
  br label %cleanup

lpad48:                                           ; preds = %invoke.cont51, %invoke.cont49, %invoke.cont47
  %36 = landingpad { ptr, i32 }
          cleanup
  %37 = extractvalue { ptr, i32 } %36, 0
  store ptr %37, ptr %exn.slot, align 8
  %38 = extractvalue { ptr, i32 } %36, 1
  store i32 %38, ptr %ehselector.slot, align 4
  br label %ehcleanup60

lpad54:                                           ; preds = %invoke.cont52
  %39 = landingpad { ptr, i32 }
          cleanup
  %40 = extractvalue { ptr, i32 } %39, 0
  store ptr %40, ptr %exn.slot, align 8
  %41 = extractvalue { ptr, i32 } %39, 1
  store i32 %41, ptr %ehselector.slot, align 4
  br label %ehcleanup59

lpad56:                                           ; preds = %invoke.cont55
  %42 = landingpad { ptr, i32 }
          cleanup
  %43 = extractvalue { ptr, i32 } %42, 0
  store ptr %43, ptr %exn.slot, align 8
  %44 = extractvalue { ptr, i32 } %42, 1
  store i32 %44, ptr %ehselector.slot, align 4
  call void @_ZN4absl12lts_202308026StatusD2Ev(ptr noundef nonnull align 8 dereferenceable(8) %ref.tmp38) #3
  br label %ehcleanup59

ehcleanup59:                                      ; preds = %lpad56, %lpad54
  call void @_ZNSt7__cxx1112basic_stringIcSt11char_traitsIcESaIcEED1Ev(ptr noundef nonnull align 8 dereferenceable(32) %ref.tmp40) #3
  br label %ehcleanup60

ehcleanup60:                                      ; preds = %ehcleanup59, %lpad48
  call void @_ZNSt7__cxx1112basic_stringIcSt11char_traitsIcESaIcEED1Ev(ptr noundef nonnull align 8 dereferenceable(32) %ref.tmp44) #3
  br label %ehcleanup63

if.end61:                                         ; preds = %if.end34
  %root_value_ = getelementptr inbounds %"class.grpc_core::(anonymous namespace)::JsonReader", ptr %reader, i32 0, i32 13
  invoke void @_ZN4absl12lts_202308028StatusOrIN9grpc_core12experimental4JsonEEC2IS4_TnNSt9enable_ifIXsr4absl11conjunctionINS0_11disjunctionIJSt7is_sameIS4_NS0_12remove_cvrefIOT_E4typeEENS0_8negationINS8_IJS9_IS5_SE_ES9_INS0_6StatusESE_ES9_ISt10in_place_tSE_ENS0_17internal_statusor31IsDirectInitializationAmbiguousIS4_SC_EEEEEEEEEESt16is_constructibleIS4_JSC_EESt14is_convertibleISC_S4_ENS8_IJS9_INSA_ISB_E4typeES4_ENS0_11conjunctionIJNSG_ISU_ISC_SI_EEENSG_INSM_31HasConversionOperatorToStatusOrIS4_SC_vEEEEEEEEEEEE5valueEiE4typeELi0EEESC_(ptr noundef nonnull align 8 dereferenceable(64) %agg.result, ptr noundef nonnull align 8 dereferenceable(56) %root_value_)
          to label %invoke.cont62 unwind label %lpad

invoke.cont62:                                    ; preds = %if.end61
  store i32 1, ptr %cleanup.dest.slot, align 4
  br label %cleanup

cleanup:                                          ; preds = %invoke.cont62, %invoke.cont57
  call void @_ZN9grpc_core12_GLOBAL__N_110JsonReaderD2Ev(ptr noundef nonnull align 8 dereferenceable(216) %reader) #3
  ret void

ehcleanup63:                                      ; preds = %ehcleanup60, %lpad30, %lpad16, %ehcleanup, %lpad
  call void @_ZN9grpc_core12_GLOBAL__N_110JsonReaderD2Ev(ptr noundef nonnull align 8 dereferenceable(216) %reader) #3
  br label %eh.resume

eh.resume:                                        ; preds = %ehcleanup63
  %exn = load ptr, ptr %exn.slot, align 8
  %sel = load i32, ptr %ehselector.slot, align 4
  %lpad.val = insertvalue { ptr, i32 } poison, ptr %exn, 0
  %lpad.val64 = insertvalue { ptr, i32 } %lpad.val, i32 %sel, 1
  resume { ptr, i32 } %lpad.val64
}

; Function Attrs: nocallback nofree nounwind willreturn memory(argmem: readwrite)
declare void @llvm.memcpy.p0.p0.i64(ptr noalias nocapture writeonly, ptr noalias nocapture readonly, i64, i1 immarg) #5

; Function Attrs: mustprogress nounwind uwtable
define internal void @_ZN9grpc_core12_GLOBAL__N_110JsonReaderC2ESt17basic_string_viewIcSt11char_traitsIcEE(ptr noundef nonnull align 8 dereferenceable(216) %this, i64 %input.coerce0, ptr %input.coerce1) unnamed_addr #6 align 2 {
entry:
  %input = alloca %"class.std::basic_string_view", align 8
  %this.addr = alloca ptr, align 8
  %0 = getelementptr inbounds { i64, ptr }, ptr %input, i32 0, i32 0
  store i64 %input.coerce0, ptr %0, align 8
  %1 = getelementptr inbounds { i64, ptr }, ptr %input, i32 0, i32 1
  store ptr %input.coerce1, ptr %1, align 8
  store ptr %this, ptr %this.addr, align 8
  %this1 = load ptr, ptr %this.addr, align 8
  %original_input_ = getelementptr inbounds %"class.grpc_core::(anonymous namespace)::JsonReader", ptr %this1, i32 0, i32 0
  %call = call noundef ptr @_ZNKSt17basic_string_viewIcSt11char_traitsIcEE4dataEv(ptr noundef nonnull align 8 dereferenceable(16) %input) #3
  store ptr %call, ptr %original_input_, align 8
  %input_ = getelementptr inbounds %"class.grpc_core::(anonymous namespace)::JsonReader", ptr %this1, i32 0, i32 1
  %original_input_2 = getelementptr inbounds %"class.grpc_core::(anonymous namespace)::JsonReader", ptr %this1, i32 0, i32 0
  %2 = load ptr, ptr %original_input_2, align 8
  store ptr %2, ptr %input_, align 8
  %remaining_input_ = getelementptr inbounds %"class.grpc_core::(anonymous namespace)::JsonReader", ptr %this1, i32 0, i32 2
  %call3 = call noundef i64 @_ZNKSt17basic_string_viewIcSt11char_traitsIcEE4sizeEv(ptr noundef nonnull align 8 dereferenceable(16) %input) #3
  store i64 %call3, ptr %remaining_input_, align 8
  %state_ = getelementptr inbounds %"class.grpc_core::(anonymous namespace)::JsonReader", ptr %this1, i32 0, i32 3
  store i32 3, ptr %state_, align 8
  %escaped_string_was_key_ = getelementptr inbounds %"class.grpc_core::(anonymous namespace)::JsonReader", ptr %this1, i32 0, i32 4
  store i8 0, ptr %escaped_string_was_key_, align 4
  %container_just_begun_ = getelementptr inbounds %"class.grpc_core::(anonymous namespace)::JsonReader", ptr %this1, i32 0, i32 5
  store i8 0, ptr %container_just_begun_, align 1
  %unicode_char_ = getelementptr inbounds %"class.grpc_core::(anonymous namespace)::JsonReader", ptr %this1, i32 0, i32 6
  store i16 0, ptr %unicode_char_, align 2
  %unicode_high_surrogate_ = getelementptr inbounds %"class.grpc_core::(anonymous namespace)::JsonReader", ptr %this1, i32 0, i32 7
  store i16 0, ptr %unicode_high_surrogate_, align 8
  %errors_ = getelementptr inbounds %"class.grpc_core::(anonymous namespace)::JsonReader", ptr %this1, i32 0, i32 8
  call void @_ZNSt6vectorINSt7__cxx1112basic_stringIcSt11char_traitsIcESaIcEEESaIS5_EEC2Ev(ptr noundef nonnull align 8 dereferenceable(24) %errors_) #3
  %truncated_errors_ = getelementptr inbounds %"class.grpc_core::(anonymous namespace)::JsonReader", ptr %this1, i32 0, i32 9
  store i8 0, ptr %truncated_errors_, align 8
  %utf8_bytes_remaining_ = getelementptr inbounds %"class.grpc_core::(anonymous namespace)::JsonReader", ptr %this1, i32 0, i32 10
  store i8 0, ptr %utf8_bytes_remaining_, align 1
  %utf8_first_byte_ = getelementptr inbounds %"class.grpc_core::(anonymous namespace)::JsonReader", ptr %this1, i32 0, i32 11
  store i8 0, ptr %utf8_first_byte_, align 2
  %root_value_ = getelementptr inbounds %"class.grpc_core::(anonymous namespace)::JsonReader", ptr %this1, i32 0, i32 13
  call void @_ZN9grpc_core12experimental4JsonC2Ev(ptr noundef nonnull align 8 dereferenceable(56) %root_value_) #3
  %stack_ = getelementptr inbounds %"class.grpc_core::(anonymous namespace)::JsonReader", ptr %this1, i32 0, i32 14
  call void @_ZNSt6vectorIN9grpc_core12_GLOBAL__N_110JsonReader5ScopeESaIS3_EEC2Ev(ptr noundef nonnull align 8 dereferenceable(24) %stack_) #3
  %key_ = getelementptr inbounds %"class.grpc_core::(anonymous namespace)::JsonReader", ptr %this1, i32 0, i32 15
  call void @_ZNSt7__cxx1112basic_stringIcSt11char_traitsIcESaIcEEC1Ev(ptr noundef nonnull align 8 dereferenceable(32) %key_) #3
  %string_ = getelementptr inbounds %"class.grpc_core::(anonymous namespace)::JsonReader", ptr %this1, i32 0, i32 16
  call void @_ZNSt7__cxx1112basic_stringIcSt11char_traitsIcESaIcEEC1Ev(ptr noundef nonnull align 8 dereferenceable(32) %string_) #3
  ret void
}

; Function Attrs: mustprogress uwtable
define internal noundef i32 @_ZN9grpc_core12_GLOBAL__N_110JsonReader3RunEv(ptr noundef nonnull align 8 dereferenceable(216) %this) #4 align 2 {
entry:
  %retval = alloca i32, align 4
  %this.addr = alloca ptr, align 8
  %c = alloca i32, align 4
  %utf32 = alloca i32, align 4
  store ptr %this, ptr %this.addr, align 8
  %this1 = load ptr, ptr %this.addr, align 8
  br label %while.body

while.body:                                       ; preds = %sw.epilog494, %entry
  %call = call noundef i32 @_ZN9grpc_core12_GLOBAL__N_110JsonReader8ReadCharEv(ptr noundef nonnull align 8 dereferenceable(216) %this1)
  store i32 %call, ptr %c, align 4
  %0 = load i32, ptr %c, align 4
  switch i32 %0, label %sw.default163 [
    i32 2147483632, label %sw.bb
    i32 32, label %sw.bb8
    i32 9, label %sw.bb8
    i32 10, label %sw.bb8
    i32 13, label %sw.bb8
    i32 44, label %sw.bb27
    i32 125, label %sw.bb27
    i32 93, label %sw.bb27
    i32 92, label %sw.bb138
  ]

sw.bb:                                            ; preds = %while.body
  %state_ = getelementptr inbounds %"class.grpc_core::(anonymous namespace)::JsonReader", ptr %this1, i32 0, i32 3
  %1 = load i32, ptr %state_, align 8
  switch i32 %1, label %sw.default [
    i32 10, label %sw.bb2
    i32 11, label %sw.bb2
    i32 12, label %sw.bb2
    i32 15, label %sw.bb2
  ]

sw.bb2:                                           ; preds = %sw.bb, %sw.bb, %sw.bb, %sw.bb
  %call3 = call noundef zeroext i1 @_ZN9grpc_core12_GLOBAL__N_110JsonReader9SetNumberEv(ptr noundef nonnull align 8 dereferenceable(216) %this1)
  br i1 %call3, label %if.end, label %if.then

if.then:                                          ; preds = %sw.bb2
  store i32 1, ptr %retval, align 4
  br label %return

if.end:                                           ; preds = %sw.bb2
  %state_4 = getelementptr inbounds %"class.grpc_core::(anonymous namespace)::JsonReader", ptr %this1, i32 0, i32 3
  store i32 26, ptr %state_4, align 8
  br label %sw.epilog

sw.default:                                       ; preds = %sw.bb
  br label %sw.epilog

sw.epilog:                                        ; preds = %sw.default, %if.end
  %call5 = call noundef zeroext i1 @_ZN9grpc_core12_GLOBAL__N_110JsonReader10IsCompleteEv(ptr noundef nonnull align 8 dereferenceable(216) %this1)
  br i1 %call5, label %if.then6, label %if.end7

if.then6:                                         ; preds = %sw.epilog
  store i32 0, ptr %retval, align 4
  br label %return

if.end7:                                          ; preds = %sw.epilog
  store i32 1, ptr %retval, align 4
  br label %return

sw.bb8:                                           ; preds = %while.body, %while.body, %while.body, %while.body
  %state_9 = getelementptr inbounds %"class.grpc_core::(anonymous namespace)::JsonReader", ptr %this1, i32 0, i32 3
  %2 = load i32, ptr %state_9, align 8
  switch i32 %2, label %sw.default25 [
    i32 0, label %sw.bb10
    i32 2, label %sw.bb10
    i32 3, label %sw.bb10
    i32 26, label %sw.bb10
    i32 27, label %sw.bb10
    i32 1, label %sw.bb11
    i32 4, label %sw.bb11
    i32 10, label %sw.bb20
    i32 11, label %sw.bb20
    i32 12, label %sw.bb20
    i32 15, label %sw.bb20
  ]

sw.bb10:                                          ; preds = %sw.bb8, %sw.bb8, %sw.bb8, %sw.bb8, %sw.bb8
  br label %sw.epilog26

sw.bb11:                                          ; preds = %sw.bb8, %sw.bb8
  %3 = load i32, ptr %c, align 4
  %cmp = icmp ne i32 %3, 32
  br i1 %cmp, label %if.then12, label %if.end13

if.then12:                                        ; preds = %sw.bb11
  store i32 1, ptr %retval, align 4
  br label %return

if.end13:                                         ; preds = %sw.bb11
  %unicode_high_surrogate_ = getelementptr inbounds %"class.grpc_core::(anonymous namespace)::JsonReader", ptr %this1, i32 0, i32 7
  %4 = load i16, ptr %unicode_high_surrogate_, align 8
  %conv = zext i16 %4 to i32
  %cmp14 = icmp ne i32 %conv, 0
  br i1 %cmp14, label %if.then15, label %if.end16

if.then15:                                        ; preds = %if.end13
  store i32 1, ptr %retval, align 4
  br label %return

if.end16:                                         ; preds = %if.end13
  %5 = load i32, ptr %c, align 4
  %call17 = call noundef zeroext i1 @_ZN9grpc_core12_GLOBAL__N_110JsonReader13StringAddCharEj(ptr noundef nonnull align 8 dereferenceable(216) %this1, i32 noundef %5)
  br i1 %call17, label %if.end19, label %if.then18

if.then18:                                        ; preds = %if.end16
  store i32 1, ptr %retval, align 4
  br label %return

if.end19:                                         ; preds = %if.end16
  br label %sw.epilog26

sw.bb20:                                          ; preds = %sw.bb8, %sw.bb8, %sw.bb8, %sw.bb8
  %call21 = call noundef zeroext i1 @_ZN9grpc_core12_GLOBAL__N_110JsonReader9SetNumberEv(ptr noundef nonnull align 8 dereferenceable(216) %this1)
  br i1 %call21, label %if.end23, label %if.then22

if.then22:                                        ; preds = %sw.bb20
  store i32 1, ptr %retval, align 4
  br label %return

if.end23:                                         ; preds = %sw.bb20
  %state_24 = getelementptr inbounds %"class.grpc_core::(anonymous namespace)::JsonReader", ptr %this1, i32 0, i32 3
  store i32 26, ptr %state_24, align 8
  br label %sw.epilog26

sw.default25:                                     ; preds = %sw.bb8
  store i32 1, ptr %retval, align 4
  br label %return

sw.epilog26:                                      ; preds = %if.end23, %if.end19, %sw.bb10
  br label %sw.epilog494

sw.bb27:                                          ; preds = %while.body, %while.body, %while.body
  %state_28 = getelementptr inbounds %"class.grpc_core::(anonymous namespace)::JsonReader", ptr %this1, i32 0, i32 3
  %6 = load i32, ptr %state_28, align 8
  switch i32 %6, label %sw.default136 [
    i32 1, label %sw.bb29
    i32 4, label %sw.bb29
    i32 10, label %sw.bb38
    i32 11, label %sw.bb38
    i32 12, label %sw.bb38
    i32 15, label %sw.bb38
    i32 26, label %sw.bb62
    i32 0, label %sw.bb62
    i32 3, label %sw.bb62
  ]

sw.bb29:                                          ; preds = %sw.bb27, %sw.bb27
  %unicode_high_surrogate_30 = getelementptr inbounds %"class.grpc_core::(anonymous namespace)::JsonReader", ptr %this1, i32 0, i32 7
  %7 = load i16, ptr %unicode_high_surrogate_30, align 8
  %conv31 = zext i16 %7 to i32
  %cmp32 = icmp ne i32 %conv31, 0
  br i1 %cmp32, label %if.then33, label %if.end34

if.then33:                                        ; preds = %sw.bb29
  store i32 1, ptr %retval, align 4
  br label %return

if.end34:                                         ; preds = %sw.bb29
  %8 = load i32, ptr %c, align 4
  %call35 = call noundef zeroext i1 @_ZN9grpc_core12_GLOBAL__N_110JsonReader13StringAddCharEj(ptr noundef nonnull align 8 dereferenceable(216) %this1, i32 noundef %8)
  br i1 %call35, label %if.end37, label %if.then36

if.then36:                                        ; preds = %if.end34
  store i32 1, ptr %retval, align 4
  br label %return

if.end37:                                         ; preds = %if.end34
  br label %sw.epilog137

sw.bb38:                                          ; preds = %sw.bb27, %sw.bb27, %sw.bb27, %sw.bb27
  %stack_ = getelementptr inbounds %"class.grpc_core::(anonymous namespace)::JsonReader", ptr %this1, i32 0, i32 14
  %call39 = call noundef zeroext i1 @_ZNKSt6vectorIN9grpc_core12_GLOBAL__N_110JsonReader5ScopeESaIS3_EE5emptyEv(ptr noundef nonnull align 8 dereferenceable(24) %stack_) #3
  br i1 %call39, label %if.then40, label %if.else

if.then40:                                        ; preds = %sw.bb38
  store i32 1, ptr %retval, align 4
  br label %return

if.else:                                          ; preds = %sw.bb38
  %9 = load i32, ptr %c, align 4
  %cmp41 = icmp eq i32 %9, 125
  br i1 %cmp41, label %land.lhs.true, label %if.else47

land.lhs.true:                                    ; preds = %if.else
  %stack_42 = getelementptr inbounds %"class.grpc_core::(anonymous namespace)::JsonReader", ptr %this1, i32 0, i32 14
  %call43 = call noundef nonnull align 8 dereferenceable(88) ptr @_ZNSt6vectorIN9grpc_core12_GLOBAL__N_110JsonReader5ScopeESaIS3_EE4backEv(ptr noundef nonnull align 8 dereferenceable(24) %stack_42) #3
  %call44 = call noundef i32 @_ZNK9grpc_core12_GLOBAL__N_110JsonReader5Scope4typeEv(ptr noundef nonnull align 8 dereferenceable(88) %call43)
  %cmp45 = icmp ne i32 %call44, 4
  br i1 %cmp45, label %if.then46, label %if.else47

if.then46:                                        ; preds = %land.lhs.true
  store i32 1, ptr %retval, align 4
  br label %return

if.else47:                                        ; preds = %land.lhs.true, %if.else
  %10 = load i32, ptr %c, align 4
  %cmp48 = icmp eq i32 %10, 93
  br i1 %cmp48, label %land.lhs.true49, label %if.end55

land.lhs.true49:                                  ; preds = %if.else47
  %stack_50 = getelementptr inbounds %"class.grpc_core::(anonymous namespace)::JsonReader", ptr %this1, i32 0, i32 14
  %call51 = call noundef nonnull align 8 dereferenceable(88) ptr @_ZNSt6vectorIN9grpc_core12_GLOBAL__N_110JsonReader5ScopeESaIS3_EE4backEv(ptr noundef nonnull align 8 dereferenceable(24) %stack_50) #3
  %call52 = call noundef i32 @_ZNK9grpc_core12_GLOBAL__N_110JsonReader5Scope4typeEv(ptr noundef nonnull align 8 dereferenceable(88) %call51)
  %cmp53 = icmp ne i32 %call52, 5
  br i1 %cmp53, label %if.then54, label %if.end55

if.then54:                                        ; preds = %land.lhs.true49
  store i32 1, ptr %retval, align 4
  br label %return

if.end55:                                         ; preds = %land.lhs.true49, %if.else47
  br label %if.end56

if.end56:                                         ; preds = %if.end55
  br label %if.end57

if.end57:                                         ; preds = %if.end56
  %call58 = call noundef zeroext i1 @_ZN9grpc_core12_GLOBAL__N_110JsonReader9SetNumberEv(ptr noundef nonnull align 8 dereferenceable(216) %this1)
  br i1 %call58, label %if.end60, label %if.then59

if.then59:                                        ; preds = %if.end57
  store i32 1, ptr %retval, align 4
  br label %return

if.end60:                                         ; preds = %if.end57
  %state_61 = getelementptr inbounds %"class.grpc_core::(anonymous namespace)::JsonReader", ptr %this1, i32 0, i32 3
  store i32 26, ptr %state_61, align 8
  br label %sw.bb62

sw.bb62:                                          ; preds = %if.end60, %sw.bb27, %sw.bb27, %sw.bb27
  %11 = load i32, ptr %c, align 4
  %cmp63 = icmp eq i32 %11, 44
  br i1 %cmp63, label %if.then64, label %if.else91

if.then64:                                        ; preds = %sw.bb62
  %state_65 = getelementptr inbounds %"class.grpc_core::(anonymous namespace)::JsonReader", ptr %this1, i32 0, i32 3
  %12 = load i32, ptr %state_65, align 8
  %cmp66 = icmp ne i32 %12, 26
  br i1 %cmp66, label %if.then67, label %if.end68

if.then67:                                        ; preds = %if.then64
  store i32 1, ptr %retval, align 4
  br label %return

if.end68:                                         ; preds = %if.then64
  %stack_69 = getelementptr inbounds %"class.grpc_core::(anonymous namespace)::JsonReader", ptr %this1, i32 0, i32 14
  %call70 = call noundef zeroext i1 @_ZNKSt6vectorIN9grpc_core12_GLOBAL__N_110JsonReader5ScopeESaIS3_EE5emptyEv(ptr noundef nonnull align 8 dereferenceable(24) %stack_69) #3
  br i1 %call70, label %if.else78, label %land.lhs.true71

land.lhs.true71:                                  ; preds = %if.end68
  %stack_72 = getelementptr inbounds %"class.grpc_core::(anonymous namespace)::JsonReader", ptr %this1, i32 0, i32 14
  %call73 = call noundef nonnull align 8 dereferenceable(88) ptr @_ZNSt6vectorIN9grpc_core12_GLOBAL__N_110JsonReader5ScopeESaIS3_EE4backEv(ptr noundef nonnull align 8 dereferenceable(24) %stack_72) #3
  %call74 = call noundef i32 @_ZNK9grpc_core12_GLOBAL__N_110JsonReader5Scope4typeEv(ptr noundef nonnull align 8 dereferenceable(88) %call73)
  %cmp75 = icmp eq i32 %call74, 4
  br i1 %cmp75, label %if.then76, label %if.else78

if.then76:                                        ; preds = %land.lhs.true71
  %state_77 = getelementptr inbounds %"class.grpc_core::(anonymous namespace)::JsonReader", ptr %this1, i32 0, i32 3
  store i32 0, ptr %state_77, align 8
  br label %if.end90

if.else78:                                        ; preds = %land.lhs.true71, %if.end68
  %stack_79 = getelementptr inbounds %"class.grpc_core::(anonymous namespace)::JsonReader", ptr %this1, i32 0, i32 14
  %call80 = call noundef zeroext i1 @_ZNKSt6vectorIN9grpc_core12_GLOBAL__N_110JsonReader5ScopeESaIS3_EE5emptyEv(ptr noundef nonnull align 8 dereferenceable(24) %stack_79) #3
  br i1 %call80, label %if.else88, label %land.lhs.true81

land.lhs.true81:                                  ; preds = %if.else78
  %stack_82 = getelementptr inbounds %"class.grpc_core::(anonymous namespace)::JsonReader", ptr %this1, i32 0, i32 14
  %call83 = call noundef nonnull align 8 dereferenceable(88) ptr @_ZNSt6vectorIN9grpc_core12_GLOBAL__N_110JsonReader5ScopeESaIS3_EE4backEv(ptr noundef nonnull align 8 dereferenceable(24) %stack_82) #3
  %call84 = call noundef i32 @_ZNK9grpc_core12_GLOBAL__N_110JsonReader5Scope4typeEv(ptr noundef nonnull align 8 dereferenceable(88) %call83)
  %cmp85 = icmp eq i32 %call84, 5
  br i1 %cmp85, label %if.then86, label %if.else88

if.then86:                                        ; preds = %land.lhs.true81
  %state_87 = getelementptr inbounds %"class.grpc_core::(anonymous namespace)::JsonReader", ptr %this1, i32 0, i32 3
  store i32 3, ptr %state_87, align 8
  br label %if.end89

if.else88:                                        ; preds = %land.lhs.true81, %if.else78
  store i32 1, ptr %retval, align 4
  br label %return

if.end89:                                         ; preds = %if.then86
  br label %if.end90

if.end90:                                         ; preds = %if.end89, %if.then76
  br label %if.end135

if.else91:                                        ; preds = %sw.bb62
  %stack_92 = getelementptr inbounds %"class.grpc_core::(anonymous namespace)::JsonReader", ptr %this1, i32 0, i32 14
  %call93 = call noundef zeroext i1 @_ZNKSt6vectorIN9grpc_core12_GLOBAL__N_110JsonReader5ScopeESaIS3_EE5emptyEv(ptr noundef nonnull align 8 dereferenceable(24) %stack_92) #3
  br i1 %call93, label %if.then94, label %if.end95

if.then94:                                        ; preds = %if.else91
  store i32 1, ptr %retval, align 4
  br label %return

if.end95:                                         ; preds = %if.else91
  %13 = load i32, ptr %c, align 4
  %cmp96 = icmp eq i32 %13, 125
  br i1 %cmp96, label %land.lhs.true97, label %if.end103

land.lhs.true97:                                  ; preds = %if.end95
  %stack_98 = getelementptr inbounds %"class.grpc_core::(anonymous namespace)::JsonReader", ptr %this1, i32 0, i32 14
  %call99 = call noundef nonnull align 8 dereferenceable(88) ptr @_ZNSt6vectorIN9grpc_core12_GLOBAL__N_110JsonReader5ScopeESaIS3_EE4backEv(ptr noundef nonnull align 8 dereferenceable(24) %stack_98) #3
  %call100 = call noundef i32 @_ZNK9grpc_core12_GLOBAL__N_110JsonReader5Scope4typeEv(ptr noundef nonnull align 8 dereferenceable(88) %call99)
  %cmp101 = icmp ne i32 %call100, 4
  br i1 %cmp101, label %if.then102, label %if.end103

if.then102:                                       ; preds = %land.lhs.true97
  store i32 1, ptr %retval, align 4
  br label %return

if.end103:                                        ; preds = %land.lhs.true97, %if.end95
  %14 = load i32, ptr %c, align 4
  %cmp104 = icmp eq i32 %14, 125
  br i1 %cmp104, label %land.lhs.true105, label %if.end110

land.lhs.true105:                                 ; preds = %if.end103
  %state_106 = getelementptr inbounds %"class.grpc_core::(anonymous namespace)::JsonReader", ptr %this1, i32 0, i32 3
  %15 = load i32, ptr %state_106, align 8
  %cmp107 = icmp eq i32 %15, 0
  br i1 %cmp107, label %land.lhs.true108, label %if.end110

land.lhs.true108:                                 ; preds = %land.lhs.true105
  %container_just_begun_ = getelementptr inbounds %"class.grpc_core::(anonymous namespace)::JsonReader", ptr %this1, i32 0, i32 5
  %16 = load i8, ptr %container_just_begun_, align 1
  %tobool = trunc i8 %16 to i1
  br i1 %tobool, label %if.end110, label %if.then109

if.then109:                                       ; preds = %land.lhs.true108
  store i32 1, ptr %retval, align 4
  br label %return

if.end110:                                        ; preds = %land.lhs.true108, %land.lhs.true105, %if.end103
  %17 = load i32, ptr %c, align 4
  %cmp111 = icmp eq i32 %17, 93
  br i1 %cmp111, label %land.lhs.true112, label %if.end118

land.lhs.true112:                                 ; preds = %if.end110
  %stack_113 = getelementptr inbounds %"class.grpc_core::(anonymous namespace)::JsonReader", ptr %this1, i32 0, i32 14
  %call114 = call noundef nonnull align 8 dereferenceable(88) ptr @_ZNSt6vectorIN9grpc_core12_GLOBAL__N_110JsonReader5ScopeESaIS3_EE4backEv(ptr noundef nonnull align 8 dereferenceable(24) %stack_113) #3
  %call115 = call noundef i32 @_ZNK9grpc_core12_GLOBAL__N_110JsonReader5Scope4typeEv(ptr noundef nonnull align 8 dereferenceable(88) %call114)
  %cmp116 = icmp ne i32 %call115, 5
  br i1 %cmp116, label %if.then117, label %if.end118

if.then117:                                       ; preds = %land.lhs.true112
  store i32 1, ptr %retval, align 4
  br label %return

if.end118:                                        ; preds = %land.lhs.true112, %if.end110
  %18 = load i32, ptr %c, align 4
  %cmp119 = icmp eq i32 %18, 93
  br i1 %cmp119, label %land.lhs.true120, label %if.end127

land.lhs.true120:                                 ; preds = %if.end118
  %state_121 = getelementptr inbounds %"class.grpc_core::(anonymous namespace)::JsonReader", ptr %this1, i32 0, i32 3
  %19 = load i32, ptr %state_121, align 8
  %cmp122 = icmp eq i32 %19, 3
  br i1 %cmp122, label %land.lhs.true123, label %if.end127

land.lhs.true123:                                 ; preds = %land.lhs.true120
  %container_just_begun_124 = getelementptr inbounds %"class.grpc_core::(anonymous namespace)::JsonReader", ptr %this1, i32 0, i32 5
  %20 = load i8, ptr %container_just_begun_124, align 1
  %tobool125 = trunc i8 %20 to i1
  br i1 %tobool125, label %if.end127, label %if.then126

if.then126:                                       ; preds = %land.lhs.true123
  store i32 1, ptr %retval, align 4
  br label %return

if.end127:                                        ; preds = %land.lhs.true123, %land.lhs.true120, %if.end118
  %state_128 = getelementptr inbounds %"class.grpc_core::(anonymous namespace)::JsonReader", ptr %this1, i32 0, i32 3
  store i32 26, ptr %state_128, align 8
  %container_just_begun_129 = getelementptr inbounds %"class.grpc_core::(anonymous namespace)::JsonReader", ptr %this1, i32 0, i32 5
  store i8 0, ptr %container_just_begun_129, align 1
  call void @_ZN9grpc_core12_GLOBAL__N_110JsonReader12EndContainerEv(ptr noundef nonnull align 8 dereferenceable(216) %this1)
  %stack_130 = getelementptr inbounds %"class.grpc_core::(anonymous namespace)::JsonReader", ptr %this1, i32 0, i32 14
  %call131 = call noundef zeroext i1 @_ZNKSt6vectorIN9grpc_core12_GLOBAL__N_110JsonReader5ScopeESaIS3_EE5emptyEv(ptr noundef nonnull align 8 dereferenceable(24) %stack_130) #3
  br i1 %call131, label %if.then132, label %if.end134

if.then132:                                       ; preds = %if.end127
  %state_133 = getelementptr inbounds %"class.grpc_core::(anonymous namespace)::JsonReader", ptr %this1, i32 0, i32 3
  store i32 27, ptr %state_133, align 8
  br label %if.end134

if.end134:                                        ; preds = %if.then132, %if.end127
  br label %if.end135

if.end135:                                        ; preds = %if.end134, %if.end90
  br label %sw.epilog137

sw.default136:                                    ; preds = %sw.bb27
  store i32 1, ptr %retval, align 4
  br label %return

sw.epilog137:                                     ; preds = %if.end135, %if.end37
  br label %sw.epilog494

sw.bb138:                                         ; preds = %while.body
  %state_139 = getelementptr inbounds %"class.grpc_core::(anonymous namespace)::JsonReader", ptr %this1, i32 0, i32 3
  %21 = load i32, ptr %state_139, align 8
  switch i32 %21, label %sw.default161 [
    i32 1, label %sw.bb140
    i32 4, label %sw.bb142
    i32 5, label %sw.bb145
  ]

sw.bb140:                                         ; preds = %sw.bb138
  %escaped_string_was_key_ = getelementptr inbounds %"class.grpc_core::(anonymous namespace)::JsonReader", ptr %this1, i32 0, i32 4
  store i8 1, ptr %escaped_string_was_key_, align 4
  %state_141 = getelementptr inbounds %"class.grpc_core::(anonymous namespace)::JsonReader", ptr %this1, i32 0, i32 3
  store i32 5, ptr %state_141, align 8
  br label %sw.epilog162

sw.bb142:                                         ; preds = %sw.bb138
  %escaped_string_was_key_143 = getelementptr inbounds %"class.grpc_core::(anonymous namespace)::JsonReader", ptr %this1, i32 0, i32 4
  store i8 0, ptr %escaped_string_was_key_143, align 4
  %state_144 = getelementptr inbounds %"class.grpc_core::(anonymous namespace)::JsonReader", ptr %this1, i32 0, i32 3
  store i32 5, ptr %state_144, align 8
  br label %sw.epilog162

sw.bb145:                                         ; preds = %sw.bb138
  %unicode_high_surrogate_146 = getelementptr inbounds %"class.grpc_core::(anonymous namespace)::JsonReader", ptr %this1, i32 0, i32 7
  %22 = load i16, ptr %unicode_high_surrogate_146, align 8
  %conv147 = zext i16 %22 to i32
  %cmp148 = icmp ne i32 %conv147, 0
  br i1 %cmp148, label %if.then149, label %if.end150

if.then149:                                       ; preds = %sw.bb145
  store i32 1, ptr %retval, align 4
  br label %return

if.end150:                                        ; preds = %sw.bb145
  %call151 = call noundef zeroext i1 @_ZN9grpc_core12_GLOBAL__N_110JsonReader13StringAddCharEj(ptr noundef nonnull align 8 dereferenceable(216) %this1, i32 noundef 92)
  br i1 %call151, label %if.end153, label %if.then152

if.then152:                                       ; preds = %if.end150
  store i32 1, ptr %retval, align 4
  br label %return

if.end153:                                        ; preds = %if.end150
  %escaped_string_was_key_154 = getelementptr inbounds %"class.grpc_core::(anonymous namespace)::JsonReader", ptr %this1, i32 0, i32 4
  %23 = load i8, ptr %escaped_string_was_key_154, align 4
  %tobool155 = trunc i8 %23 to i1
  br i1 %tobool155, label %if.then156, label %if.else158

if.then156:                                       ; preds = %if.end153
  %state_157 = getelementptr inbounds %"class.grpc_core::(anonymous namespace)::JsonReader", ptr %this1, i32 0, i32 3
  store i32 1, ptr %state_157, align 8
  br label %if.end160

if.else158:                                       ; preds = %if.end153
  %state_159 = getelementptr inbounds %"class.grpc_core::(anonymous namespace)::JsonReader", ptr %this1, i32 0, i32 3
  store i32 4, ptr %state_159, align 8
  br label %if.end160

if.end160:                                        ; preds = %if.else158, %if.then156
  br label %sw.epilog162

sw.default161:                                    ; preds = %sw.bb138
  store i32 1, ptr %retval, align 4
  br label %return

sw.epilog162:                                     ; preds = %if.end160, %sw.bb142, %sw.bb140
  br label %sw.epilog494

sw.default163:                                    ; preds = %while.body
  %container_just_begun_164 = getelementptr inbounds %"class.grpc_core::(anonymous namespace)::JsonReader", ptr %this1, i32 0, i32 5
  store i8 0, ptr %container_just_begun_164, align 1
  %state_165 = getelementptr inbounds %"class.grpc_core::(anonymous namespace)::JsonReader", ptr %this1, i32 0, i32 3
  %24 = load i32, ptr %state_165, align 8
  switch i32 %24, label %sw.epilog493 [
    i32 0, label %sw.bb166
    i32 1, label %sw.bb171
    i32 4, label %sw.bb192
    i32 2, label %sw.bb214
    i32 3, label %sw.bb219
    i32 5, label %sw.bb251
    i32 6, label %sw.bb293
    i32 7, label %sw.bb293
    i32 8, label %sw.bb293
    i32 9, label %sw.bb293
    i32 10, label %sw.bb385
    i32 11, label %sw.bb396
    i32 12, label %sw.bb405
    i32 13, label %sw.bb413
    i32 14, label %sw.bb421
    i32 15, label %sw.bb429
    i32 16, label %sw.bb436
    i32 17, label %sw.bb441
    i32 18, label %sw.bb446
    i32 19, label %sw.bb451
    i32 20, label %sw.bb456
    i32 21, label %sw.bb461
    i32 22, label %sw.bb466
    i32 23, label %sw.bb471
    i32 24, label %sw.bb476
    i32 25, label %sw.bb481
    i32 26, label %sw.bb486
    i32 27, label %sw.bb492
  ]

sw.bb166:                                         ; preds = %sw.default163
  %25 = load i32, ptr %c, align 4
  %cmp167 = icmp ne i32 %25, 34
  br i1 %cmp167, label %if.then168, label %if.end169

if.then168:                                       ; preds = %sw.bb166
  store i32 1, ptr %retval, align 4
  br label %return

if.end169:                                        ; preds = %sw.bb166
  %state_170 = getelementptr inbounds %"class.grpc_core::(anonymous namespace)::JsonReader", ptr %this1, i32 0, i32 3
  store i32 1, ptr %state_170, align 8
  br label %sw.epilog493

sw.bb171:                                         ; preds = %sw.default163
  %unicode_high_surrogate_172 = getelementptr inbounds %"class.grpc_core::(anonymous namespace)::JsonReader", ptr %this1, i32 0, i32 7
  %26 = load i16, ptr %unicode_high_surrogate_172, align 8
  %conv173 = zext i16 %26 to i32
  %cmp174 = icmp ne i32 %conv173, 0
  br i1 %cmp174, label %if.then175, label %if.end176

if.then175:                                       ; preds = %sw.bb171
  store i32 1, ptr %retval, align 4
  br label %return

if.end176:                                        ; preds = %sw.bb171
  %27 = load i32, ptr %c, align 4
  %cmp177 = icmp eq i32 %27, 34
  br i1 %cmp177, label %if.then178, label %if.else184

if.then178:                                       ; preds = %if.end176
  %state_179 = getelementptr inbounds %"class.grpc_core::(anonymous namespace)::JsonReader", ptr %this1, i32 0, i32 3
  store i32 2, ptr %state_179, align 8
  %utf8_bytes_remaining_ = getelementptr inbounds %"class.grpc_core::(anonymous namespace)::JsonReader", ptr %this1, i32 0, i32 10
  %28 = load i8, ptr %utf8_bytes_remaining_, align 1
  %conv180 = zext i8 %28 to i32
  %cmp181 = icmp ne i32 %conv180, 0
  br i1 %cmp181, label %if.then182, label %if.end183

if.then182:                                       ; preds = %if.then178
  store i32 1, ptr %retval, align 4
  br label %return

if.end183:                                        ; preds = %if.then178
  call void @_ZN9grpc_core12_GLOBAL__N_110JsonReader6SetKeyEv(ptr noundef nonnull align 8 dereferenceable(216) %this1)
  br label %if.end191

if.else184:                                       ; preds = %if.end176
  %29 = load i32, ptr %c, align 4
  %cmp185 = icmp ult i32 %29, 32
  br i1 %cmp185, label %if.then186, label %if.end187

if.then186:                                       ; preds = %if.else184
  store i32 1, ptr %retval, align 4
  br label %return

if.end187:                                        ; preds = %if.else184
  %30 = load i32, ptr %c, align 4
  %call188 = call noundef zeroext i1 @_ZN9grpc_core12_GLOBAL__N_110JsonReader13StringAddCharEj(ptr noundef nonnull align 8 dereferenceable(216) %this1, i32 noundef %30)
  br i1 %call188, label %if.end190, label %if.then189

if.then189:                                       ; preds = %if.end187
  store i32 1, ptr %retval, align 4
  br label %return

if.end190:                                        ; preds = %if.end187
  br label %if.end191

if.end191:                                        ; preds = %if.end190, %if.end183
  br label %sw.epilog493

sw.bb192:                                         ; preds = %sw.default163
  %unicode_high_surrogate_193 = getelementptr inbounds %"class.grpc_core::(anonymous namespace)::JsonReader", ptr %this1, i32 0, i32 7
  %31 = load i16, ptr %unicode_high_surrogate_193, align 8
  %conv194 = zext i16 %31 to i32
  %cmp195 = icmp ne i32 %conv194, 0
  br i1 %cmp195, label %if.then196, label %if.end197

if.then196:                                       ; preds = %sw.bb192
  store i32 1, ptr %retval, align 4
  br label %return

if.end197:                                        ; preds = %sw.bb192
  %32 = load i32, ptr %c, align 4
  %cmp198 = icmp eq i32 %32, 34
  br i1 %cmp198, label %if.then199, label %if.else206

if.then199:                                       ; preds = %if.end197
  %state_200 = getelementptr inbounds %"class.grpc_core::(anonymous namespace)::JsonReader", ptr %this1, i32 0, i32 3
  store i32 26, ptr %state_200, align 8
  %utf8_bytes_remaining_201 = getelementptr inbounds %"class.grpc_core::(anonymous namespace)::JsonReader", ptr %this1, i32 0, i32 10
  %33 = load i8, ptr %utf8_bytes_remaining_201, align 1
  %conv202 = zext i8 %33 to i32
  %cmp203 = icmp ne i32 %conv202, 0
  br i1 %cmp203, label %if.then204, label %if.end205

if.then204:                                       ; preds = %if.then199
  store i32 1, ptr %retval, align 4
  br label %return

if.end205:                                        ; preds = %if.then199
  call void @_ZN9grpc_core12_GLOBAL__N_110JsonReader9SetStringEv(ptr noundef nonnull align 8 dereferenceable(216) %this1)
  br label %if.end213

if.else206:                                       ; preds = %if.end197
  %34 = load i32, ptr %c, align 4
  %cmp207 = icmp ult i32 %34, 32
  br i1 %cmp207, label %if.then208, label %if.end209

if.then208:                                       ; preds = %if.else206
  store i32 1, ptr %retval, align 4
  br label %return

if.end209:                                        ; preds = %if.else206
  %35 = load i32, ptr %c, align 4
  %call210 = call noundef zeroext i1 @_ZN9grpc_core12_GLOBAL__N_110JsonReader13StringAddCharEj(ptr noundef nonnull align 8 dereferenceable(216) %this1, i32 noundef %35)
  br i1 %call210, label %if.end212, label %if.then211

if.then211:                                       ; preds = %if.end209
  store i32 1, ptr %retval, align 4
  br label %return

if.end212:                                        ; preds = %if.end209
  br label %if.end213

if.end213:                                        ; preds = %if.end212, %if.end205
  br label %sw.epilog493

sw.bb214:                                         ; preds = %sw.default163
  %36 = load i32, ptr %c, align 4
  %cmp215 = icmp ne i32 %36, 58
  br i1 %cmp215, label %if.then216, label %if.end217

if.then216:                                       ; preds = %sw.bb214
  store i32 1, ptr %retval, align 4
  br label %return

if.end217:                                        ; preds = %sw.bb214
  %state_218 = getelementptr inbounds %"class.grpc_core::(anonymous namespace)::JsonReader", ptr %this1, i32 0, i32 3
  store i32 3, ptr %state_218, align 8
  br label %sw.epilog493

sw.bb219:                                         ; preds = %sw.default163
  %37 = load i32, ptr %c, align 4
  switch i32 %37, label %sw.default249 [
    i32 116, label %sw.bb220
    i32 102, label %sw.bb222
    i32 110, label %sw.bb224
    i32 34, label %sw.bb226
    i32 48, label %sw.bb228
    i32 49, label %sw.bb233
    i32 50, label %sw.bb233
    i32 51, label %sw.bb233
    i32 52, label %sw.bb233
    i32 53, label %sw.bb233
    i32 54, label %sw.bb233
    i32 55, label %sw.bb233
    i32 56, label %sw.bb233
    i32 57, label %sw.bb233
    i32 45, label %sw.bb233
    i32 123, label %sw.bb238
    i32 91, label %sw.bb244
  ]

sw.bb220:                                         ; preds = %sw.bb219
  %state_221 = getelementptr inbounds %"class.grpc_core::(anonymous namespace)::JsonReader", ptr %this1, i32 0, i32 3
  store i32 16, ptr %state_221, align 8
  br label %sw.epilog250

sw.bb222:                                         ; preds = %sw.bb219
  %state_223 = getelementptr inbounds %"class.grpc_core::(anonymous namespace)::JsonReader", ptr %this1, i32 0, i32 3
  store i32 19, ptr %state_223, align 8
  br label %sw.epilog250

sw.bb224:                                         ; preds = %sw.bb219
  %state_225 = getelementptr inbounds %"class.grpc_core::(anonymous namespace)::JsonReader", ptr %this1, i32 0, i32 3
  store i32 23, ptr %state_225, align 8
  br label %sw.epilog250

sw.bb226:                                         ; preds = %sw.bb219
  %state_227 = getelementptr inbounds %"class.grpc_core::(anonymous namespace)::JsonReader", ptr %this1, i32 0, i32 3
  store i32 4, ptr %state_227, align 8
  br label %sw.epilog250

sw.bb228:                                         ; preds = %sw.bb219
  %38 = load i32, ptr %c, align 4
  %call229 = call noundef zeroext i1 @_ZN9grpc_core12_GLOBAL__N_110JsonReader13StringAddCharEj(ptr noundef nonnull align 8 dereferenceable(216) %this1, i32 noundef %38)
  br i1 %call229, label %if.end231, label %if.then230

if.then230:                                       ; preds = %sw.bb228
  store i32 1, ptr %retval, align 4
  br label %return

if.end231:                                        ; preds = %sw.bb228
  %state_232 = getelementptr inbounds %"class.grpc_core::(anonymous namespace)::JsonReader", ptr %this1, i32 0, i32 3
  store i32 12, ptr %state_232, align 8
  br label %sw.epilog250

sw.bb233:                                         ; preds = %sw.bb219, %sw.bb219, %sw.bb219, %sw.bb219, %sw.bb219, %sw.bb219, %sw.bb219, %sw.bb219, %sw.bb219, %sw.bb219
  %39 = load i32, ptr %c, align 4
  %call234 = call noundef zeroext i1 @_ZN9grpc_core12_GLOBAL__N_110JsonReader13StringAddCharEj(ptr noundef nonnull align 8 dereferenceable(216) %this1, i32 noundef %39)
  br i1 %call234, label %if.end236, label %if.then235

if.then235:                                       ; preds = %sw.bb233
  store i32 1, ptr %retval, align 4
  br label %return

if.end236:                                        ; preds = %sw.bb233
  %state_237 = getelementptr inbounds %"class.grpc_core::(anonymous namespace)::JsonReader", ptr %this1, i32 0, i32 3
  store i32 10, ptr %state_237, align 8
  br label %sw.epilog250

sw.bb238:                                         ; preds = %sw.bb219
  %container_just_begun_239 = getelementptr inbounds %"class.grpc_core::(anonymous namespace)::JsonReader", ptr %this1, i32 0, i32 5
  store i8 1, ptr %container_just_begun_239, align 1
  %call240 = call noundef zeroext i1 @_ZN9grpc_core12_GLOBAL__N_110JsonReader14StartContainerENS_12experimental4Json4TypeE(ptr noundef nonnull align 8 dereferenceable(216) %this1, i32 noundef 4)
  br i1 %call240, label %if.end242, label %if.then241

if.then241:                                       ; preds = %sw.bb238
  store i32 1, ptr %retval, align 4
  br label %return

if.end242:                                        ; preds = %sw.bb238
  %state_243 = getelementptr inbounds %"class.grpc_core::(anonymous namespace)::JsonReader", ptr %this1, i32 0, i32 3
  store i32 0, ptr %state_243, align 8
  br label %sw.epilog250

sw.bb244:                                         ; preds = %sw.bb219
  %container_just_begun_245 = getelementptr inbounds %"class.grpc_core::(anonymous namespace)::JsonReader", ptr %this1, i32 0, i32 5
  store i8 1, ptr %container_just_begun_245, align 1
  %call246 = call noundef zeroext i1 @_ZN9grpc_core12_GLOBAL__N_110JsonReader14StartContainerENS_12experimental4Json4TypeE(ptr noundef nonnull align 8 dereferenceable(216) %this1, i32 noundef 5)
  br i1 %call246, label %if.end248, label %if.then247

if.then247:                                       ; preds = %sw.bb244
  store i32 1, ptr %retval, align 4
  br label %return

if.end248:                                        ; preds = %sw.bb244
  br label %sw.epilog250

sw.default249:                                    ; preds = %sw.bb219
  store i32 1, ptr %retval, align 4
  br label %return

sw.epilog250:                                     ; preds = %if.end248, %if.end242, %if.end236, %if.end231, %sw.bb226, %sw.bb224, %sw.bb222, %sw.bb220
  br label %sw.epilog493

sw.bb251:                                         ; preds = %sw.default163
  %escaped_string_was_key_252 = getelementptr inbounds %"class.grpc_core::(anonymous namespace)::JsonReader", ptr %this1, i32 0, i32 4
  %40 = load i8, ptr %escaped_string_was_key_252, align 4
  %tobool253 = trunc i8 %40 to i1
  br i1 %tobool253, label %if.then254, label %if.else256

if.then254:                                       ; preds = %sw.bb251
  %state_255 = getelementptr inbounds %"class.grpc_core::(anonymous namespace)::JsonReader", ptr %this1, i32 0, i32 3
  store i32 1, ptr %state_255, align 8
  br label %if.end258

if.else256:                                       ; preds = %sw.bb251
  %state_257 = getelementptr inbounds %"class.grpc_core::(anonymous namespace)::JsonReader", ptr %this1, i32 0, i32 3
  store i32 4, ptr %state_257, align 8
  br label %if.end258

if.end258:                                        ; preds = %if.else256, %if.then254
  %unicode_high_surrogate_259 = getelementptr inbounds %"class.grpc_core::(anonymous namespace)::JsonReader", ptr %this1, i32 0, i32 7
  %41 = load i16, ptr %unicode_high_surrogate_259, align 8
  %tobool260 = icmp ne i16 %41, 0
  br i1 %tobool260, label %land.lhs.true261, label %if.end264

land.lhs.true261:                                 ; preds = %if.end258
  %42 = load i32, ptr %c, align 4
  %cmp262 = icmp ne i32 %42, 117
  br i1 %cmp262, label %if.then263, label %if.end264

if.then263:                                       ; preds = %land.lhs.true261
  store i32 1, ptr %retval, align 4
  br label %return

if.end264:                                        ; preds = %land.lhs.true261, %if.end258
  %43 = load i32, ptr %c, align 4
  switch i32 %43, label %sw.default291 [
    i32 34, label %sw.bb265
    i32 47, label %sw.bb265
    i32 98, label %sw.bb269
    i32 102, label %sw.bb273
    i32 110, label %sw.bb277
    i32 114, label %sw.bb281
    i32 116, label %sw.bb285
    i32 117, label %sw.bb289
  ]

sw.bb265:                                         ; preds = %if.end264, %if.end264
  %44 = load i32, ptr %c, align 4
  %call266 = call noundef zeroext i1 @_ZN9grpc_core12_GLOBAL__N_110JsonReader13StringAddCharEj(ptr noundef nonnull align 8 dereferenceable(216) %this1, i32 noundef %44)
  br i1 %call266, label %if.end268, label %if.then267

if.then267:                                       ; preds = %sw.bb265
  store i32 1, ptr %retval, align 4
  br label %return

if.end268:                                        ; preds = %sw.bb265
  br label %sw.epilog292

sw.bb269:                                         ; preds = %if.end264
  %call270 = call noundef zeroext i1 @_ZN9grpc_core12_GLOBAL__N_110JsonReader13StringAddCharEj(ptr noundef nonnull align 8 dereferenceable(216) %this1, i32 noundef 8)
  br i1 %call270, label %if.end272, label %if.then271

if.then271:                                       ; preds = %sw.bb269
  store i32 1, ptr %retval, align 4
  br label %return

if.end272:                                        ; preds = %sw.bb269
  br label %sw.epilog292

sw.bb273:                                         ; preds = %if.end264
  %call274 = call noundef zeroext i1 @_ZN9grpc_core12_GLOBAL__N_110JsonReader13StringAddCharEj(ptr noundef nonnull align 8 dereferenceable(216) %this1, i32 noundef 12)
  br i1 %call274, label %if.end276, label %if.then275

if.then275:                                       ; preds = %sw.bb273
  store i32 1, ptr %retval, align 4
  br label %return

if.end276:                                        ; preds = %sw.bb273
  br label %sw.epilog292

sw.bb277:                                         ; preds = %if.end264
  %call278 = call noundef zeroext i1 @_ZN9grpc_core12_GLOBAL__N_110JsonReader13StringAddCharEj(ptr noundef nonnull align 8 dereferenceable(216) %this1, i32 noundef 10)
  br i1 %call278, label %if.end280, label %if.then279

if.then279:                                       ; preds = %sw.bb277
  store i32 1, ptr %retval, align 4
  br label %return

if.end280:                                        ; preds = %sw.bb277
  br label %sw.epilog292

sw.bb281:                                         ; preds = %if.end264
  %call282 = call noundef zeroext i1 @_ZN9grpc_core12_GLOBAL__N_110JsonReader13StringAddCharEj(ptr noundef nonnull align 8 dereferenceable(216) %this1, i32 noundef 13)
  br i1 %call282, label %if.end284, label %if.then283

if.then283:                                       ; preds = %sw.bb281
  store i32 1, ptr %retval, align 4
  br label %return

if.end284:                                        ; preds = %sw.bb281
  br label %sw.epilog292

sw.bb285:                                         ; preds = %if.end264
  %call286 = call noundef zeroext i1 @_ZN9grpc_core12_GLOBAL__N_110JsonReader13StringAddCharEj(ptr noundef nonnull align 8 dereferenceable(216) %this1, i32 noundef 9)
  br i1 %call286, label %if.end288, label %if.then287

if.then287:                                       ; preds = %sw.bb285
  store i32 1, ptr %retval, align 4
  br label %return

if.end288:                                        ; preds = %sw.bb285
  br label %sw.epilog292

sw.bb289:                                         ; preds = %if.end264
  %state_290 = getelementptr inbounds %"class.grpc_core::(anonymous namespace)::JsonReader", ptr %this1, i32 0, i32 3
  store i32 6, ptr %state_290, align 8
  %unicode_char_ = getelementptr inbounds %"class.grpc_core::(anonymous namespace)::JsonReader", ptr %this1, i32 0, i32 6
  store i16 0, ptr %unicode_char_, align 2
  br label %sw.epilog292

sw.default291:                                    ; preds = %if.end264
  store i32 1, ptr %retval, align 4
  br label %return

sw.epilog292:                                     ; preds = %sw.bb289, %if.end288, %if.end284, %if.end280, %if.end276, %if.end272, %if.end268
  br label %sw.epilog493

sw.bb293:                                         ; preds = %sw.default163, %sw.default163, %sw.default163, %sw.default163
  %45 = load i32, ptr %c, align 4
  %cmp294 = icmp uge i32 %45, 48
  br i1 %cmp294, label %land.lhs.true295, label %if.else298

land.lhs.true295:                                 ; preds = %sw.bb293
  %46 = load i32, ptr %c, align 4
  %cmp296 = icmp ule i32 %46, 57
  br i1 %cmp296, label %if.then297, label %if.else298

if.then297:                                       ; preds = %land.lhs.true295
  %47 = load i32, ptr %c, align 4
  %sub = sub i32 %47, 48
  store i32 %sub, ptr %c, align 4
  br label %if.end313

if.else298:                                       ; preds = %land.lhs.true295, %sw.bb293
  %48 = load i32, ptr %c, align 4
  %cmp299 = icmp uge i32 %48, 65
  br i1 %cmp299, label %land.lhs.true300, label %if.else304

land.lhs.true300:                                 ; preds = %if.else298
  %49 = load i32, ptr %c, align 4
  %cmp301 = icmp ule i32 %49, 70
  br i1 %cmp301, label %if.then302, label %if.else304

if.then302:                                       ; preds = %land.lhs.true300
  %50 = load i32, ptr %c, align 4
  %sub303 = sub i32 %50, 55
  store i32 %sub303, ptr %c, align 4
  br label %if.end312

if.else304:                                       ; preds = %land.lhs.true300, %if.else298
  %51 = load i32, ptr %c, align 4
  %cmp305 = icmp uge i32 %51, 97
  br i1 %cmp305, label %land.lhs.true306, label %if.else310

land.lhs.true306:                                 ; preds = %if.else304
  %52 = load i32, ptr %c, align 4
  %cmp307 = icmp ule i32 %52, 102
  br i1 %cmp307, label %if.then308, label %if.else310

if.then308:                                       ; preds = %land.lhs.true306
  %53 = load i32, ptr %c, align 4
  %sub309 = sub i32 %53, 87
  store i32 %sub309, ptr %c, align 4
  br label %if.end311

if.else310:                                       ; preds = %land.lhs.true306, %if.else304
  store i32 1, ptr %retval, align 4
  br label %return

if.end311:                                        ; preds = %if.then308
  br label %if.end312

if.end312:                                        ; preds = %if.end311, %if.then302
  br label %if.end313

if.end313:                                        ; preds = %if.end312, %if.then297
  %unicode_char_314 = getelementptr inbounds %"class.grpc_core::(anonymous namespace)::JsonReader", ptr %this1, i32 0, i32 6
  %54 = load i16, ptr %unicode_char_314, align 2
  %conv315 = zext i16 %54 to i32
  %shl = shl i32 %conv315, 4
  %conv316 = trunc i32 %shl to i16
  %unicode_char_317 = getelementptr inbounds %"class.grpc_core::(anonymous namespace)::JsonReader", ptr %this1, i32 0, i32 6
  store i16 %conv316, ptr %unicode_char_317, align 2
  %unicode_char_318 = getelementptr inbounds %"class.grpc_core::(anonymous namespace)::JsonReader", ptr %this1, i32 0, i32 6
  %55 = load i16, ptr %unicode_char_318, align 2
  %conv319 = zext i16 %55 to i32
  %56 = load i32, ptr %c, align 4
  %or = or i32 %conv319, %56
  %conv320 = trunc i32 %or to i16
  %unicode_char_321 = getelementptr inbounds %"class.grpc_core::(anonymous namespace)::JsonReader", ptr %this1, i32 0, i32 6
  store i16 %conv320, ptr %unicode_char_321, align 2
  %state_322 = getelementptr inbounds %"class.grpc_core::(anonymous namespace)::JsonReader", ptr %this1, i32 0, i32 3
  %57 = load i32, ptr %state_322, align 8
  switch i32 %57, label %sw.default383 [
    i32 6, label %sw.bb323
    i32 7, label %sw.bb325
    i32 8, label %sw.bb327
    i32 9, label %sw.bb329
  ]

sw.bb323:                                         ; preds = %if.end313
  %state_324 = getelementptr inbounds %"class.grpc_core::(anonymous namespace)::JsonReader", ptr %this1, i32 0, i32 3
  store i32 7, ptr %state_324, align 8
  br label %sw.epilog384

sw.bb325:                                         ; preds = %if.end313
  %state_326 = getelementptr inbounds %"class.grpc_core::(anonymous namespace)::JsonReader", ptr %this1, i32 0, i32 3
  store i32 8, ptr %state_326, align 8
  br label %sw.epilog384

sw.bb327:                                         ; preds = %if.end313
  %state_328 = getelementptr inbounds %"class.grpc_core::(anonymous namespace)::JsonReader", ptr %this1, i32 0, i32 3
  store i32 9, ptr %state_328, align 8
  br label %sw.epilog384

sw.bb329:                                         ; preds = %if.end313
  %unicode_char_330 = getelementptr inbounds %"class.grpc_core::(anonymous namespace)::JsonReader", ptr %this1, i32 0, i32 6
  %58 = load i16, ptr %unicode_char_330, align 2
  %conv331 = zext i16 %58 to i32
  %and = and i32 %conv331, 64512
  %cmp332 = icmp eq i32 %and, 55296
  br i1 %cmp332, label %if.then333, label %if.else341

if.then333:                                       ; preds = %sw.bb329
  %unicode_high_surrogate_334 = getelementptr inbounds %"class.grpc_core::(anonymous namespace)::JsonReader", ptr %this1, i32 0, i32 7
  %59 = load i16, ptr %unicode_high_surrogate_334, align 8
  %conv335 = zext i16 %59 to i32
  %cmp336 = icmp ne i32 %conv335, 0
  br i1 %cmp336, label %if.then337, label %if.end338

if.then337:                                       ; preds = %if.then333
  store i32 1, ptr %retval, align 4
  br label %return

if.end338:                                        ; preds = %if.then333
  %unicode_char_339 = getelementptr inbounds %"class.grpc_core::(anonymous namespace)::JsonReader", ptr %this1, i32 0, i32 6
  %60 = load i16, ptr %unicode_char_339, align 2
  %unicode_high_surrogate_340 = getelementptr inbounds %"class.grpc_core::(anonymous namespace)::JsonReader", ptr %this1, i32 0, i32 7
  store i16 %60, ptr %unicode_high_surrogate_340, align 8
  br label %if.end375

if.else341:                                       ; preds = %sw.bb329
  %unicode_char_342 = getelementptr inbounds %"class.grpc_core::(anonymous namespace)::JsonReader", ptr %this1, i32 0, i32 6
  %61 = load i16, ptr %unicode_char_342, align 2
  %conv343 = zext i16 %61 to i32
  %and344 = and i32 %conv343, 64512
  %cmp345 = icmp eq i32 %and344, 56320
  br i1 %cmp345, label %if.then346, label %if.else363

if.then346:                                       ; preds = %if.else341
  %unicode_high_surrogate_347 = getelementptr inbounds %"class.grpc_core::(anonymous namespace)::JsonReader", ptr %this1, i32 0, i32 7
  %62 = load i16, ptr %unicode_high_surrogate_347, align 8
  %conv348 = zext i16 %62 to i32
  %cmp349 = icmp eq i32 %conv348, 0
  br i1 %cmp349, label %if.then350, label %if.end351

if.then350:                                       ; preds = %if.then346
  store i32 1, ptr %retval, align 4
  br label %return

if.end351:                                        ; preds = %if.then346
  store i32 65536, ptr %utf32, align 4
  %unicode_high_surrogate_352 = getelementptr inbounds %"class.grpc_core::(anonymous namespace)::JsonReader", ptr %this1, i32 0, i32 7
  %63 = load i16, ptr %unicode_high_surrogate_352, align 8
  %conv353 = zext i16 %63 to i32
  %sub354 = sub nsw i32 %conv353, 55296
  %mul = mul nsw i32 %sub354, 1024
  %64 = load i32, ptr %utf32, align 4
  %add = add i32 %64, %mul
  store i32 %add, ptr %utf32, align 4
  %unicode_char_355 = getelementptr inbounds %"class.grpc_core::(anonymous namespace)::JsonReader", ptr %this1, i32 0, i32 6
  %65 = load i16, ptr %unicode_char_355, align 2
  %conv356 = zext i16 %65 to i32
  %sub357 = sub nsw i32 %conv356, 56320
  %66 = load i32, ptr %utf32, align 4
  %add358 = add i32 %66, %sub357
  store i32 %add358, ptr %utf32, align 4
  %67 = load i32, ptr %utf32, align 4
  %call359 = call noundef zeroext i1 @_ZN9grpc_core12_GLOBAL__N_110JsonReader14StringAddUtf32Ej(ptr noundef nonnull align 8 dereferenceable(216) %this1, i32 noundef %67)
  br i1 %call359, label %if.end361, label %if.then360

if.then360:                                       ; preds = %if.end351
  store i32 1, ptr %retval, align 4
  br label %return

if.end361:                                        ; preds = %if.end351
  %unicode_high_surrogate_362 = getelementptr inbounds %"class.grpc_core::(anonymous namespace)::JsonReader", ptr %this1, i32 0, i32 7
  store i16 0, ptr %unicode_high_surrogate_362, align 8
  br label %if.end374

if.else363:                                       ; preds = %if.else341
  %unicode_high_surrogate_364 = getelementptr inbounds %"class.grpc_core::(anonymous namespace)::JsonReader", ptr %this1, i32 0, i32 7
  %68 = load i16, ptr %unicode_high_surrogate_364, align 8
  %conv365 = zext i16 %68 to i32
  %cmp366 = icmp ne i32 %conv365, 0
  br i1 %cmp366, label %if.then367, label %if.end368

if.then367:                                       ; preds = %if.else363
  store i32 1, ptr %retval, align 4
  br label %return

if.end368:                                        ; preds = %if.else363
  %unicode_char_369 = getelementptr inbounds %"class.grpc_core::(anonymous namespace)::JsonReader", ptr %this1, i32 0, i32 6
  %69 = load i16, ptr %unicode_char_369, align 2
  %conv370 = zext i16 %69 to i32
  %call371 = call noundef zeroext i1 @_ZN9grpc_core12_GLOBAL__N_110JsonReader14StringAddUtf32Ej(ptr noundef nonnull align 8 dereferenceable(216) %this1, i32 noundef %conv370)
  br i1 %call371, label %if.end373, label %if.then372

if.then372:                                       ; preds = %if.end368
  store i32 1, ptr %retval, align 4
  br label %return

if.end373:                                        ; preds = %if.end368
  br label %if.end374

if.end374:                                        ; preds = %if.end373, %if.end361
  br label %if.end375

if.end375:                                        ; preds = %if.end374, %if.end338
  %escaped_string_was_key_376 = getelementptr inbounds %"class.grpc_core::(anonymous namespace)::JsonReader", ptr %this1, i32 0, i32 4
  %70 = load i8, ptr %escaped_string_was_key_376, align 4
  %tobool377 = trunc i8 %70 to i1
  br i1 %tobool377, label %if.then378, label %if.else380

if.then378:                                       ; preds = %if.end375
  %state_379 = getelementptr inbounds %"class.grpc_core::(anonymous namespace)::JsonReader", ptr %this1, i32 0, i32 3
  store i32 1, ptr %state_379, align 8
  br label %if.end382

if.else380:                                       ; preds = %if.end375
  %state_381 = getelementptr inbounds %"class.grpc_core::(anonymous namespace)::JsonReader", ptr %this1, i32 0, i32 3
  store i32 4, ptr %state_381, align 8
  br label %if.end382

if.end382:                                        ; preds = %if.else380, %if.then378
  br label %sw.epilog384

sw.default383:                                    ; preds = %if.end313
  br label %do.body

do.body:                                          ; preds = %sw.default383
  call void @gpr_unreachable_code(ptr noundef @.str.6, ptr noundef @.str.7, i32 noundef 731) #14
  unreachable

do.end:                                           ; No predecessors!
  br label %sw.epilog384

sw.epilog384:                                     ; preds = %do.end, %if.end382, %sw.bb327, %sw.bb325, %sw.bb323
  br label %sw.epilog493

sw.bb385:                                         ; preds = %sw.default163
  %71 = load i32, ptr %c, align 4
  %call386 = call noundef zeroext i1 @_ZN9grpc_core12_GLOBAL__N_110JsonReader13StringAddCharEj(ptr noundef nonnull align 8 dereferenceable(216) %this1, i32 noundef %71)
  br i1 %call386, label %if.end388, label %if.then387

if.then387:                                       ; preds = %sw.bb385
  store i32 1, ptr %retval, align 4
  br label %return

if.end388:                                        ; preds = %sw.bb385
  %72 = load i32, ptr %c, align 4
  switch i32 %72, label %sw.default394 [
    i32 48, label %sw.bb389
    i32 49, label %sw.bb389
    i32 50, label %sw.bb389
    i32 51, label %sw.bb389
    i32 52, label %sw.bb389
    i32 53, label %sw.bb389
    i32 54, label %sw.bb389
    i32 55, label %sw.bb389
    i32 56, label %sw.bb389
    i32 57, label %sw.bb389
    i32 101, label %sw.bb390
    i32 69, label %sw.bb390
    i32 46, label %sw.bb392
  ]

sw.bb389:                                         ; preds = %if.end388, %if.end388, %if.end388, %if.end388, %if.end388, %if.end388, %if.end388, %if.end388, %if.end388, %if.end388
  br label %sw.epilog395

sw.bb390:                                         ; preds = %if.end388, %if.end388
  %state_391 = getelementptr inbounds %"class.grpc_core::(anonymous namespace)::JsonReader", ptr %this1, i32 0, i32 3
  store i32 14, ptr %state_391, align 8
  br label %sw.epilog395

sw.bb392:                                         ; preds = %if.end388
  %state_393 = getelementptr inbounds %"class.grpc_core::(anonymous namespace)::JsonReader", ptr %this1, i32 0, i32 3
  store i32 13, ptr %state_393, align 8
  br label %sw.epilog395

sw.default394:                                    ; preds = %if.end388
  store i32 1, ptr %retval, align 4
  br label %return

sw.epilog395:                                     ; preds = %sw.bb392, %sw.bb390, %sw.bb389
  br label %sw.epilog493

sw.bb396:                                         ; preds = %sw.default163
  %73 = load i32, ptr %c, align 4
  %call397 = call noundef zeroext i1 @_ZN9grpc_core12_GLOBAL__N_110JsonReader13StringAddCharEj(ptr noundef nonnull align 8 dereferenceable(216) %this1, i32 noundef %73)
  br i1 %call397, label %if.end399, label %if.then398

if.then398:                                       ; preds = %sw.bb396
  store i32 1, ptr %retval, align 4
  br label %return

if.end399:                                        ; preds = %sw.bb396
  %74 = load i32, ptr %c, align 4
  switch i32 %74, label %sw.default403 [
    i32 48, label %sw.bb400
    i32 49, label %sw.bb400
    i32 50, label %sw.bb400
    i32 51, label %sw.bb400
    i32 52, label %sw.bb400
    i32 53, label %sw.bb400
    i32 54, label %sw.bb400
    i32 55, label %sw.bb400
    i32 56, label %sw.bb400
    i32 57, label %sw.bb400
    i32 101, label %sw.bb401
    i32 69, label %sw.bb401
  ]

sw.bb400:                                         ; preds = %if.end399, %if.end399, %if.end399, %if.end399, %if.end399, %if.end399, %if.end399, %if.end399, %if.end399, %if.end399
  br label %sw.epilog404

sw.bb401:                                         ; preds = %if.end399, %if.end399
  %state_402 = getelementptr inbounds %"class.grpc_core::(anonymous namespace)::JsonReader", ptr %this1, i32 0, i32 3
  store i32 14, ptr %state_402, align 8
  br label %sw.epilog404

sw.default403:                                    ; preds = %if.end399
  store i32 1, ptr %retval, align 4
  br label %return

sw.epilog404:                                     ; preds = %sw.bb401, %sw.bb400
  br label %sw.epilog493

sw.bb405:                                         ; preds = %sw.default163
  %75 = load i32, ptr %c, align 4
  %cmp406 = icmp ne i32 %75, 46
  br i1 %cmp406, label %if.then407, label %if.end408

if.then407:                                       ; preds = %sw.bb405
  store i32 1, ptr %retval, align 4
  br label %return

if.end408:                                        ; preds = %sw.bb405
  %76 = load i32, ptr %c, align 4
  %call409 = call noundef zeroext i1 @_ZN9grpc_core12_GLOBAL__N_110JsonReader13StringAddCharEj(ptr noundef nonnull align 8 dereferenceable(216) %this1, i32 noundef %76)
  br i1 %call409, label %if.end411, label %if.then410

if.then410:                                       ; preds = %if.end408
  store i32 1, ptr %retval, align 4
  br label %return

if.end411:                                        ; preds = %if.end408
  %state_412 = getelementptr inbounds %"class.grpc_core::(anonymous namespace)::JsonReader", ptr %this1, i32 0, i32 3
  store i32 13, ptr %state_412, align 8
  br label %sw.epilog493

sw.bb413:                                         ; preds = %sw.default163
  %77 = load i32, ptr %c, align 4
  %call414 = call noundef zeroext i1 @_ZN9grpc_core12_GLOBAL__N_110JsonReader13StringAddCharEj(ptr noundef nonnull align 8 dereferenceable(216) %this1, i32 noundef %77)
  br i1 %call414, label %if.end416, label %if.then415

if.then415:                                       ; preds = %sw.bb413
  store i32 1, ptr %retval, align 4
  br label %return

if.end416:                                        ; preds = %sw.bb413
  %78 = load i32, ptr %c, align 4
  switch i32 %78, label %sw.default419 [
    i32 48, label %sw.bb417
    i32 49, label %sw.bb417
    i32 50, label %sw.bb417
    i32 51, label %sw.bb417
    i32 52, label %sw.bb417
    i32 53, label %sw.bb417
    i32 54, label %sw.bb417
    i32 55, label %sw.bb417
    i32 56, label %sw.bb417
    i32 57, label %sw.bb417
  ]

sw.bb417:                                         ; preds = %if.end416, %if.end416, %if.end416, %if.end416, %if.end416, %if.end416, %if.end416, %if.end416, %if.end416, %if.end416
  %state_418 = getelementptr inbounds %"class.grpc_core::(anonymous namespace)::JsonReader", ptr %this1, i32 0, i32 3
  store i32 11, ptr %state_418, align 8
  br label %sw.epilog420

sw.default419:                                    ; preds = %if.end416
  store i32 1, ptr %retval, align 4
  br label %return

sw.epilog420:                                     ; preds = %sw.bb417
  br label %sw.epilog493

sw.bb421:                                         ; preds = %sw.default163
  %79 = load i32, ptr %c, align 4
  %call422 = call noundef zeroext i1 @_ZN9grpc_core12_GLOBAL__N_110JsonReader13StringAddCharEj(ptr noundef nonnull align 8 dereferenceable(216) %this1, i32 noundef %79)
  br i1 %call422, label %if.end424, label %if.then423

if.then423:                                       ; preds = %sw.bb421
  store i32 1, ptr %retval, align 4
  br label %return

if.end424:                                        ; preds = %sw.bb421
  %80 = load i32, ptr %c, align 4
  switch i32 %80, label %sw.default427 [
    i32 48, label %sw.bb425
    i32 49, label %sw.bb425
    i32 50, label %sw.bb425
    i32 51, label %sw.bb425
    i32 52, label %sw.bb425
    i32 53, label %sw.bb425
    i32 54, label %sw.bb425
    i32 55, label %sw.bb425
    i32 56, label %sw.bb425
    i32 57, label %sw.bb425
    i32 43, label %sw.bb425
    i32 45, label %sw.bb425
  ]

sw.bb425:                                         ; preds = %if.end424, %if.end424, %if.end424, %if.end424, %if.end424, %if.end424, %if.end424, %if.end424, %if.end424, %if.end424, %if.end424, %if.end424
  %state_426 = getelementptr inbounds %"class.grpc_core::(anonymous namespace)::JsonReader", ptr %this1, i32 0, i32 3
  store i32 15, ptr %state_426, align 8
  br label %sw.epilog428

sw.default427:                                    ; preds = %if.end424
  store i32 1, ptr %retval, align 4
  br label %return

sw.epilog428:                                     ; preds = %sw.bb425
  br label %sw.epilog493

sw.bb429:                                         ; preds = %sw.default163
  %81 = load i32, ptr %c, align 4
  %call430 = call noundef zeroext i1 @_ZN9grpc_core12_GLOBAL__N_110JsonReader13StringAddCharEj(ptr noundef nonnull align 8 dereferenceable(216) %this1, i32 noundef %81)
  br i1 %call430, label %if.end432, label %if.then431

if.then431:                                       ; preds = %sw.bb429
  store i32 1, ptr %retval, align 4
  br label %return

if.end432:                                        ; preds = %sw.bb429
  %82 = load i32, ptr %c, align 4
  switch i32 %82, label %sw.default434 [
    i32 48, label %sw.bb433
    i32 49, label %sw.bb433
    i32 50, label %sw.bb433
    i32 51, label %sw.bb433
    i32 52, label %sw.bb433
    i32 53, label %sw.bb433
    i32 54, label %sw.bb433
    i32 55, label %sw.bb433
    i32 56, label %sw.bb433
    i32 57, label %sw.bb433
  ]

sw.bb433:                                         ; preds = %if.end432, %if.end432, %if.end432, %if.end432, %if.end432, %if.end432, %if.end432, %if.end432, %if.end432, %if.end432
  br label %sw.epilog435

sw.default434:                                    ; preds = %if.end432
  store i32 1, ptr %retval, align 4
  br label %return

sw.epilog435:                                     ; preds = %sw.bb433
  br label %sw.epilog493

sw.bb436:                                         ; preds = %sw.default163
  %83 = load i32, ptr %c, align 4
  %cmp437 = icmp ne i32 %83, 114
  br i1 %cmp437, label %if.then438, label %if.end439

if.then438:                                       ; preds = %sw.bb436
  store i32 1, ptr %retval, align 4
  br label %return

if.end439:                                        ; preds = %sw.bb436
  %state_440 = getelementptr inbounds %"class.grpc_core::(anonymous namespace)::JsonReader", ptr %this1, i32 0, i32 3
  store i32 17, ptr %state_440, align 8
  br label %sw.epilog493

sw.bb441:                                         ; preds = %sw.default163
  %84 = load i32, ptr %c, align 4
  %cmp442 = icmp ne i32 %84, 117
  br i1 %cmp442, label %if.then443, label %if.end444

if.then443:                                       ; preds = %sw.bb441
  store i32 1, ptr %retval, align 4
  br label %return

if.end444:                                        ; preds = %sw.bb441
  %state_445 = getelementptr inbounds %"class.grpc_core::(anonymous namespace)::JsonReader", ptr %this1, i32 0, i32 3
  store i32 18, ptr %state_445, align 8
  br label %sw.epilog493

sw.bb446:                                         ; preds = %sw.default163
  %85 = load i32, ptr %c, align 4
  %cmp447 = icmp ne i32 %85, 101
  br i1 %cmp447, label %if.then448, label %if.end449

if.then448:                                       ; preds = %sw.bb446
  store i32 1, ptr %retval, align 4
  br label %return

if.end449:                                        ; preds = %sw.bb446
  call void @_ZN9grpc_core12_GLOBAL__N_110JsonReader7SetTrueEv(ptr noundef nonnull align 8 dereferenceable(216) %this1)
  %state_450 = getelementptr inbounds %"class.grpc_core::(anonymous namespace)::JsonReader", ptr %this1, i32 0, i32 3
  store i32 26, ptr %state_450, align 8
  br label %sw.epilog493

sw.bb451:                                         ; preds = %sw.default163
  %86 = load i32, ptr %c, align 4
  %cmp452 = icmp ne i32 %86, 97
  br i1 %cmp452, label %if.then453, label %if.end454

if.then453:                                       ; preds = %sw.bb451
  store i32 1, ptr %retval, align 4
  br label %return

if.end454:                                        ; preds = %sw.bb451
  %state_455 = getelementptr inbounds %"class.grpc_core::(anonymous namespace)::JsonReader", ptr %this1, i32 0, i32 3
  store i32 20, ptr %state_455, align 8
  br label %sw.epilog493

sw.bb456:                                         ; preds = %sw.default163
  %87 = load i32, ptr %c, align 4
  %cmp457 = icmp ne i32 %87, 108
  br i1 %cmp457, label %if.then458, label %if.end459

if.then458:                                       ; preds = %sw.bb456
  store i32 1, ptr %retval, align 4
  br label %return

if.end459:                                        ; preds = %sw.bb456
  %state_460 = getelementptr inbounds %"class.grpc_core::(anonymous namespace)::JsonReader", ptr %this1, i32 0, i32 3
  store i32 21, ptr %state_460, align 8
  br label %sw.epilog493

sw.bb461:                                         ; preds = %sw.default163
  %88 = load i32, ptr %c, align 4
  %cmp462 = icmp ne i32 %88, 115
  br i1 %cmp462, label %if.then463, label %if.end464

if.then463:                                       ; preds = %sw.bb461
  store i32 1, ptr %retval, align 4
  br label %return

if.end464:                                        ; preds = %sw.bb461
  %state_465 = getelementptr inbounds %"class.grpc_core::(anonymous namespace)::JsonReader", ptr %this1, i32 0, i32 3
  store i32 22, ptr %state_465, align 8
  br label %sw.epilog493

sw.bb466:                                         ; preds = %sw.default163
  %89 = load i32, ptr %c, align 4
  %cmp467 = icmp ne i32 %89, 101
  br i1 %cmp467, label %if.then468, label %if.end469

if.then468:                                       ; preds = %sw.bb466
  store i32 1, ptr %retval, align 4
  br label %return

if.end469:                                        ; preds = %sw.bb466
  call void @_ZN9grpc_core12_GLOBAL__N_110JsonReader8SetFalseEv(ptr noundef nonnull align 8 dereferenceable(216) %this1)
  %state_470 = getelementptr inbounds %"class.grpc_core::(anonymous namespace)::JsonReader", ptr %this1, i32 0, i32 3
  store i32 26, ptr %state_470, align 8
  br label %sw.epilog493

sw.bb471:                                         ; preds = %sw.default163
  %90 = load i32, ptr %c, align 4
  %cmp472 = icmp ne i32 %90, 117
  br i1 %cmp472, label %if.then473, label %if.end474

if.then473:                                       ; preds = %sw.bb471
  store i32 1, ptr %retval, align 4
  br label %return

if.end474:                                        ; preds = %sw.bb471
  %state_475 = getelementptr inbounds %"class.grpc_core::(anonymous namespace)::JsonReader", ptr %this1, i32 0, i32 3
  store i32 24, ptr %state_475, align 8
  br label %sw.epilog493

sw.bb476:                                         ; preds = %sw.default163
  %91 = load i32, ptr %c, align 4
  %cmp477 = icmp ne i32 %91, 108
  br i1 %cmp477, label %if.then478, label %if.end479

if.then478:                                       ; preds = %sw.bb476
  store i32 1, ptr %retval, align 4
  br label %return

if.end479:                                        ; preds = %sw.bb476
  %state_480 = getelementptr inbounds %"class.grpc_core::(anonymous namespace)::JsonReader", ptr %this1, i32 0, i32 3
  store i32 25, ptr %state_480, align 8
  br label %sw.epilog493

sw.bb481:                                         ; preds = %sw.default163
  %92 = load i32, ptr %c, align 4
  %cmp482 = icmp ne i32 %92, 108
  br i1 %cmp482, label %if.then483, label %if.end484

if.then483:                                       ; preds = %sw.bb481
  store i32 1, ptr %retval, align 4
  br label %return

if.end484:                                        ; preds = %sw.bb481
  call void @_ZN9grpc_core12_GLOBAL__N_110JsonReader7SetNullEv(ptr noundef nonnull align 8 dereferenceable(216) %this1)
  %state_485 = getelementptr inbounds %"class.grpc_core::(anonymous namespace)::JsonReader", ptr %this1, i32 0, i32 3
  store i32 26, ptr %state_485, align 8
  br label %sw.epilog493

sw.bb486:                                         ; preds = %sw.default163
  %93 = load i32, ptr %c, align 4
  switch i32 %93, label %sw.default490 [
    i32 44, label %sw.bb487
    i32 125, label %sw.bb487
    i32 93, label %sw.bb487
  ]

sw.bb487:                                         ; preds = %sw.bb486, %sw.bb486, %sw.bb486
  br label %do.body488

do.body488:                                       ; preds = %sw.bb487
  call void @gpr_unreachable_code(ptr noundef @.str.6, ptr noundef @.str.7, i32 noundef 911) #14
  unreachable

do.end489:                                        ; No predecessors!
  br label %sw.epilog491

sw.default490:                                    ; preds = %sw.bb486
  store i32 1, ptr %retval, align 4
  br label %return

sw.epilog491:                                     ; preds = %do.end489
  br label %sw.epilog493

sw.bb492:                                         ; preds = %sw.default163
  store i32 1, ptr %retval, align 4
  br label %return

sw.epilog493:                                     ; preds = %sw.epilog491, %if.end484, %if.end479, %if.end474, %if.end469, %if.end464, %if.end459, %if.end454, %if.end449, %if.end444, %if.end439, %sw.epilog435, %sw.epilog428, %sw.epilog420, %if.end411, %sw.epilog404, %sw.epilog395, %sw.epilog384, %sw.epilog292, %sw.epilog250, %if.end217, %if.end213, %if.end191, %if.end169, %sw.default163
  br label %sw.epilog494

sw.epilog494:                                     ; preds = %sw.epilog493, %sw.epilog162, %sw.epilog137, %sw.epilog26
  br label %while.body, !llvm.loop !4

return:                                           ; preds = %sw.bb492, %sw.default490, %if.then483, %if.then478, %if.then473, %if.then468, %if.then463, %if.then458, %if.then453, %if.then448, %if.then443, %if.then438, %sw.default434, %if.then431, %sw.default427, %if.then423, %sw.default419, %if.then415, %if.then410, %if.then407, %sw.default403, %if.then398, %sw.default394, %if.then387, %if.then372, %if.then367, %if.then360, %if.then350, %if.then337, %if.else310, %sw.default291, %if.then287, %if.then283, %if.then279, %if.then275, %if.then271, %if.then267, %if.then263, %sw.default249, %if.then247, %if.then241, %if.then235, %if.then230, %if.then216, %if.then211, %if.then208, %if.then204, %if.then196, %if.then189, %if.then186, %if.then182, %if.then175, %if.then168, %sw.default161, %if.then152, %if.then149, %sw.default136, %if.then126, %if.then117, %if.then109, %if.then102, %if.then94, %if.else88, %if.then67, %if.then59, %if.then54, %if.then46, %if.then40, %if.then36, %if.then33, %sw.default25, %if.then22, %if.then18, %if.then15, %if.then12, %if.end7, %if.then6, %if.then
  %94 = load i32, ptr %retval, align 4
  ret i32 %94
}

declare i32 @__gxx_personality_v0(...)

; Function Attrs: mustprogress uwtable
define linkonce_odr void @_ZNSt6vectorINSt7__cxx1112basic_stringIcSt11char_traitsIcESaIcEEESaIS5_EE9push_backEOS5_(ptr noundef nonnull align 8 dereferenceable(24) %this, ptr noundef nonnull align 8 dereferenceable(32) %__x) #4 comdat align 2 {
entry:
  %this.addr = alloca ptr, align 8
  %__x.addr = alloca ptr, align 8
  store ptr %this, ptr %this.addr, align 8
  store ptr %__x, ptr %__x.addr, align 8
  %this1 = load ptr, ptr %this.addr, align 8
  %0 = load ptr, ptr %__x.addr, align 8
  %call = call noundef nonnull align 8 dereferenceable(32) ptr @_ZNSt6vectorINSt7__cxx1112basic_stringIcSt11char_traitsIcESaIcEEESaIS5_EE12emplace_backIJS5_EEERS5_DpOT_(ptr noundef nonnull align 8 dereferenceable(24) %this1, ptr noundef nonnull align 8 dereferenceable(32) %0)
  ret void
}

; Function Attrs: nounwind
declare void @_ZNSaIcEC1Ev(ptr noundef nonnull align 1 dereferenceable(1)) unnamed_addr #2

; Function Attrs: mustprogress uwtable
define linkonce_odr void @_ZNSt7__cxx1112basic_stringIcSt11char_traitsIcESaIcEEC2IS3_EEPKcRKS3_(ptr noundef nonnull align 8 dereferenceable(32) %this, ptr noundef %__s, ptr noundef nonnull align 1 dereferenceable(1) %__a) unnamed_addr #4 comdat align 2 personality ptr @__gxx_personality_v0 {
entry:
  %this.addr = alloca ptr, align 8
  %__s.addr = alloca ptr, align 8
  %__a.addr = alloca ptr, align 8
  %exn.slot = alloca ptr, align 8
  %ehselector.slot = alloca i32, align 4
  %__end = alloca ptr, align 8
  store ptr %this, ptr %this.addr, align 8
  store ptr %__s, ptr %__s.addr, align 8
  store ptr %__a, ptr %__a.addr, align 8
  %this1 = load ptr, ptr %this.addr, align 8
  %_M_dataplus = getelementptr inbounds %"class.std::__cxx11::basic_string", ptr %this1, i32 0, i32 0
  %call = call noundef ptr @_ZNSt7__cxx1112basic_stringIcSt11char_traitsIcESaIcEE13_M_local_dataEv(ptr noundef nonnull align 8 dereferenceable(32) %this1)
  %0 = load ptr, ptr %__a.addr, align 8
  call void @_ZNSt7__cxx1112basic_stringIcSt11char_traitsIcESaIcEE12_Alloc_hiderC1EPcRKS3_(ptr noundef nonnull align 8 dereferenceable(8) %_M_dataplus, ptr noundef %call, ptr noundef nonnull align 1 dereferenceable(1) %0)
  %1 = load ptr, ptr %__s.addr, align 8
  %cmp = icmp eq ptr %1, null
  br i1 %cmp, label %if.then, label %if.end

if.then:                                          ; preds = %entry
  invoke void @_ZSt19__throw_logic_errorPKc(ptr noundef @.str.16) #14
          to label %invoke.cont unwind label %lpad

invoke.cont:                                      ; preds = %if.then
  unreachable

lpad:                                             ; preds = %invoke.cont2, %if.end, %if.then
  %2 = landingpad { ptr, i32 }
          cleanup
  %3 = extractvalue { ptr, i32 } %2, 0
  store ptr %3, ptr %exn.slot, align 8
  %4 = extractvalue { ptr, i32 } %2, 1
  store i32 %4, ptr %ehselector.slot, align 4
  call void @_ZNSt7__cxx1112basic_stringIcSt11char_traitsIcESaIcEE12_Alloc_hiderD2Ev(ptr noundef nonnull align 8 dereferenceable(8) %_M_dataplus) #3
  br label %eh.resume

if.end:                                           ; preds = %entry
  %5 = load ptr, ptr %__s.addr, align 8
  %6 = load ptr, ptr %__s.addr, align 8
  %call3 = invoke noundef i64 @_ZNSt11char_traitsIcE6lengthEPKc(ptr noundef %6)
          to label %invoke.cont2 unwind label %lpad

invoke.cont2:                                     ; preds = %if.end
  %add.ptr = getelementptr inbounds i8, ptr %5, i64 %call3
  store ptr %add.ptr, ptr %__end, align 8
  %7 = load ptr, ptr %__s.addr, align 8
  %8 = load ptr, ptr %__end, align 8
  invoke void @_ZNSt7__cxx1112basic_stringIcSt11char_traitsIcESaIcEE12_M_constructIPKcEEvT_S8_St20forward_iterator_tag(ptr noundef nonnull align 8 dereferenceable(32) %this1, ptr noundef %7, ptr noundef %8)
          to label %invoke.cont4 unwind label %lpad

invoke.cont4:                                     ; preds = %invoke.cont2
  ret void

eh.resume:                                        ; preds = %lpad
  %exn = load ptr, ptr %exn.slot, align 8
  %sel = load i32, ptr %ehselector.slot, align 4
  %lpad.val = insertvalue { ptr, i32 } poison, ptr %exn, 0
  %lpad.val5 = insertvalue { ptr, i32 } %lpad.val, i32 %sel, 1
  resume { ptr, i32 } %lpad.val5
}

; Function Attrs: nounwind
declare void @_ZNSt7__cxx1112basic_stringIcSt11char_traitsIcESaIcEED1Ev(ptr noundef nonnull align 8 dereferenceable(32)) unnamed_addr #2

; Function Attrs: nounwind
declare void @_ZNSaIcED1Ev(ptr noundef nonnull align 1 dereferenceable(1)) unnamed_addr #2

declare void @_ZN4absl12lts_202308026StrCatB5cxx11ERKNS0_8AlphaNumES3_(ptr sret(%"class.std::__cxx11::basic_string") align 8, ptr noundef nonnull align 8 dereferenceable(48), ptr noundef nonnull align 8 dereferenceable(48)) #1

; Function Attrs: mustprogress uwtable
define linkonce_odr void @_ZN4absl12lts_202308028AlphaNumC2EPKc(ptr noundef nonnull align 8 dereferenceable(48) %this, ptr noundef %c_str) unnamed_addr #4 comdat align 2 {
entry:
  %this.addr = alloca ptr, align 8
  %c_str.addr = alloca ptr, align 8
  store ptr %this, ptr %this.addr, align 8
  store ptr %c_str, ptr %c_str.addr, align 8
  %this1 = load ptr, ptr %this.addr, align 8
  %piece_ = getelementptr inbounds %"class.absl::lts_20230802::AlphaNum", ptr %this1, i32 0, i32 0
  %0 = load ptr, ptr %c_str.addr, align 8
  %call = call { i64, ptr } @_ZN4absl12lts_2023080218NullSafeStringViewEPKc(ptr noundef %0)
  %1 = getelementptr inbounds { i64, ptr }, ptr %piece_, i32 0, i32 0
  %2 = extractvalue { i64, ptr } %call, 0
  store i64 %2, ptr %1, align 8
  %3 = getelementptr inbounds { i64, ptr }, ptr %piece_, i32 0, i32 1
  %4 = extractvalue { i64, ptr } %call, 1
  store ptr %4, ptr %3, align 8
  ret void
}

; Function Attrs: mustprogress nounwind uwtable
define internal noundef i64 @_ZNK9grpc_core12_GLOBAL__N_110JsonReader12CurrentIndexEv(ptr noundef nonnull align 8 dereferenceable(216) %this) #6 align 2 {
entry:
  %this.addr = alloca ptr, align 8
  store ptr %this, ptr %this.addr, align 8
  %this1 = load ptr, ptr %this.addr, align 8
  %input_ = getelementptr inbounds %"class.grpc_core::(anonymous namespace)::JsonReader", ptr %this1, i32 0, i32 1
  %0 = load ptr, ptr %input_, align 8
  %original_input_ = getelementptr inbounds %"class.grpc_core::(anonymous namespace)::JsonReader", ptr %this1, i32 0, i32 0
  %1 = load ptr, ptr %original_input_, align 8
  %sub.ptr.lhs.cast = ptrtoint ptr %0 to i64
  %sub.ptr.rhs.cast = ptrtoint ptr %1 to i64
  %sub.ptr.sub = sub i64 %sub.ptr.lhs.cast, %sub.ptr.rhs.cast
  %sub = sub nsw i64 %sub.ptr.sub, 1
  ret i64 %sub
}

; Function Attrs: mustprogress uwtable
define linkonce_odr void @_ZN4absl12lts_202308028AlphaNumC2Em(ptr noundef nonnull align 8 dereferenceable(48) %this, i64 noundef %x) unnamed_addr #4 comdat align 2 {
entry:
  %this.addr = alloca ptr, align 8
  %x.addr = alloca i64, align 8
  store ptr %this, ptr %this.addr, align 8
  store i64 %x, ptr %x.addr, align 8
  %this1 = load ptr, ptr %this.addr, align 8
  %piece_ = getelementptr inbounds %"class.absl::lts_20230802::AlphaNum", ptr %this1, i32 0, i32 0
  %digits_ = getelementptr inbounds %"class.absl::lts_20230802::AlphaNum", ptr %this1, i32 0, i32 1
  %arraydecay = getelementptr inbounds [32 x i8], ptr %digits_, i64 0, i64 0
  %0 = load i64, ptr %x.addr, align 8
  %digits_2 = getelementptr inbounds %"class.absl::lts_20230802::AlphaNum", ptr %this1, i32 0, i32 1
  %arraydecay3 = getelementptr inbounds [32 x i8], ptr %digits_2, i64 0, i64 0
  %call = call noundef ptr @_ZN4absl12lts_2023080216numbers_internal15FastIntToBufferEmPc(i64 noundef %0, ptr noundef %arraydecay3)
  %digits_4 = getelementptr inbounds %"class.absl::lts_20230802::AlphaNum", ptr %this1, i32 0, i32 1
  %arrayidx = getelementptr inbounds [32 x i8], ptr %digits_4, i64 0, i64 0
  %sub.ptr.lhs.cast = ptrtoint ptr %call to i64
  %sub.ptr.rhs.cast = ptrtoint ptr %arrayidx to i64
  %sub.ptr.sub = sub i64 %sub.ptr.lhs.cast, %sub.ptr.rhs.cast
  call void @_ZNSt17basic_string_viewIcSt11char_traitsIcEEC2EPKcm(ptr noundef nonnull align 8 dereferenceable(16) %piece_, ptr noundef %arraydecay, i64 noundef %sub.ptr.sub) #3
  ret void
}

; Function Attrs: mustprogress nounwind uwtable
define linkonce_odr noundef zeroext i1 @_ZNKSt6vectorINSt7__cxx1112basic_stringIcSt11char_traitsIcESaIcEEESaIS5_EE5emptyEv(ptr noundef nonnull align 8 dereferenceable(24) %this) #6 comdat align 2 {
entry:
  %this.addr = alloca ptr, align 8
  %ref.tmp = alloca %"class.__gnu_cxx::__normal_iterator.108", align 8
  %ref.tmp2 = alloca %"class.__gnu_cxx::__normal_iterator.108", align 8
  store ptr %this, ptr %this.addr, align 8
  %this1 = load ptr, ptr %this.addr, align 8
  %call = call ptr @_ZNKSt6vectorINSt7__cxx1112basic_stringIcSt11char_traitsIcESaIcEEESaIS5_EE5beginEv(ptr noundef nonnull align 8 dereferenceable(24) %this1) #3
  %coerce.dive = getelementptr inbounds %"class.__gnu_cxx::__normal_iterator.108", ptr %ref.tmp, i32 0, i32 0
  store ptr %call, ptr %coerce.dive, align 8
  %call3 = call ptr @_ZNKSt6vectorINSt7__cxx1112basic_stringIcSt11char_traitsIcESaIcEEESaIS5_EE3endEv(ptr noundef nonnull align 8 dereferenceable(24) %this1) #3
  %coerce.dive4 = getelementptr inbounds %"class.__gnu_cxx::__normal_iterator.108", ptr %ref.tmp2, i32 0, i32 0
  store ptr %call3, ptr %coerce.dive4, align 8
  %call5 = call noundef zeroext i1 @_ZN9__gnu_cxxeqIPKNSt7__cxx1112basic_stringIcSt11char_traitsIcESaIcEEESt6vectorIS6_SaIS6_EEEEbRKNS_17__normal_iteratorIT_T0_EESH_(ptr noundef nonnull align 8 dereferenceable(8) %ref.tmp, ptr noundef nonnull align 8 dereferenceable(8) %ref.tmp2) #3
  ret i1 %call5
}

declare void @_ZN4absl12lts_2023080220InvalidArgumentErrorESt17basic_string_viewIcSt11char_traitsIcEE(ptr sret(%"class.absl::lts_20230802::Status") align 8, i64, ptr) #1

declare void @_ZN4absl12lts_202308026StrCatB5cxx11ERKNS0_8AlphaNumES3_S3_(ptr sret(%"class.std::__cxx11::basic_string") align 8, ptr noundef nonnull align 8 dereferenceable(48), ptr noundef nonnull align 8 dereferenceable(48), ptr noundef nonnull align 8 dereferenceable(48)) #1

; Function Attrs: mustprogress uwtable
define linkonce_odr void @_ZN4absl12lts_202308027StrJoinISt6vectorINSt7__cxx1112basic_stringIcSt11char_traitsIcESaIcEEESaIS8_EEEES8_RKT_St17basic_string_viewIcS6_E(ptr noalias sret(%"class.std::__cxx11::basic_string") align 8 %agg.result, ptr noundef nonnull align 8 dereferenceable(24) %range, i64 %separator.coerce0, ptr %separator.coerce1) #4 comdat {
entry:
  %result.ptr = alloca ptr, align 8
  %separator = alloca %"class.std::basic_string_view", align 8
  %range.addr = alloca ptr, align 8
  %agg.tmp = alloca %"class.std::basic_string_view", align 8
  store ptr %agg.result, ptr %result.ptr, align 8
  %0 = getelementptr inbounds { i64, ptr }, ptr %separator, i32 0, i32 0
  store i64 %separator.coerce0, ptr %0, align 8
  %1 = getelementptr inbounds { i64, ptr }, ptr %separator, i32 0, i32 1
  store ptr %separator.coerce1, ptr %1, align 8
  store ptr %range, ptr %range.addr, align 8
  %2 = load ptr, ptr %range.addr, align 8
  call void @llvm.memcpy.p0.p0.i64(ptr align 8 %agg.tmp, ptr align 8 %separator, i64 16, i1 false)
  %3 = getelementptr inbounds { i64, ptr }, ptr %agg.tmp, i32 0, i32 0
  %4 = load i64, ptr %3, align 8
  %5 = getelementptr inbounds { i64, ptr }, ptr %agg.tmp, i32 0, i32 1
  %6 = load ptr, ptr %5, align 8
  call void @_ZN4absl12lts_2023080216strings_internal9JoinRangeISt6vectorINSt7__cxx1112basic_stringIcSt11char_traitsIcESaIcEEESaIS9_EEEES9_RKT_St17basic_string_viewIcS7_E(ptr sret(%"class.std::__cxx11::basic_string") align 8 %agg.result, ptr noundef nonnull align 8 dereferenceable(24) %2, i64 %4, ptr %6)
  ret void
}

; Function Attrs: mustprogress nounwind uwtable
define linkonce_odr void @_ZNSt17basic_string_viewIcSt11char_traitsIcEEC2EPKc(ptr noundef nonnull align 8 dereferenceable(16) %this, ptr noundef nonnull %__str) unnamed_addr #6 comdat align 2 {
entry:
  %this.addr = alloca ptr, align 8
  %__str.addr = alloca ptr, align 8
  store ptr %this, ptr %this.addr, align 8
  store ptr %__str, ptr %__str.addr, align 8
  %this1 = load ptr, ptr %this.addr, align 8
  %_M_len = getelementptr inbounds %"class.std::basic_string_view", ptr %this1, i32 0, i32 0
  %0 = load ptr, ptr %__str.addr, align 8
  %call = call noundef i64 @_ZNSt11char_traitsIcE6lengthEPKc(ptr noundef %0)
  store i64 %call, ptr %_M_len, align 8
  %_M_str = getelementptr inbounds %"class.std::basic_string_view", ptr %this1, i32 0, i32 1
  %1 = load ptr, ptr %__str.addr, align 8
  store ptr %1, ptr %_M_str, align 8
  ret void
}

; Function Attrs: mustprogress nounwind uwtable
define linkonce_odr void @_ZN4absl12lts_202308028AlphaNumC2ISaIcEEERKNSt7__cxx1112basic_stringIcSt11char_traitsIcET_EE(ptr noundef nonnull align 8 dereferenceable(48) %this, ptr noundef nonnull align 8 dereferenceable(32) %str) unnamed_addr #6 comdat align 2 {
entry:
  %this.addr = alloca ptr, align 8
  %str.addr = alloca ptr, align 8
  store ptr %this, ptr %this.addr, align 8
  store ptr %str, ptr %str.addr, align 8
  %this1 = load ptr, ptr %this.addr, align 8
  %piece_ = getelementptr inbounds %"class.absl::lts_20230802::AlphaNum", ptr %this1, i32 0, i32 0
  %0 = load ptr, ptr %str.addr, align 8
  %call = call { i64, ptr } @_ZNKSt7__cxx1112basic_stringIcSt11char_traitsIcESaIcEEcvSt17basic_string_viewIcS2_EEv(ptr noundef nonnull align 8 dereferenceable(32) %0) #3
  %1 = getelementptr inbounds { i64, ptr }, ptr %piece_, i32 0, i32 0
  %2 = extractvalue { i64, ptr } %call, 0
  store i64 %2, ptr %1, align 8
  %3 = getelementptr inbounds { i64, ptr }, ptr %piece_, i32 0, i32 1
  %4 = extractvalue { i64, ptr } %call, 1
  store ptr %4, ptr %3, align 8
  ret void
}

; Function Attrs: nounwind
declare { i64, ptr } @_ZNKSt7__cxx1112basic_stringIcSt11char_traitsIcESaIcEEcvSt17basic_string_viewIcS2_EEv(ptr noundef nonnull align 8 dereferenceable(32)) #2

; Function Attrs: mustprogress uwtable
define linkonce_odr void @_ZN4absl12lts_202308028StatusOrIN9grpc_core12experimental4JsonEEC2INS0_6StatusETnNSt9enable_ifIXsr4absl11conjunctionISt14is_convertibleIOT_S7_ESt16is_constructibleIS7_JSB_EENS0_8negationISt7is_sameINSt5decayISA_E4typeES5_EEENSF_ISG_ISJ_S4_EEENSF_ISG_ISJ_St10in_place_tEEENSF_INS0_17internal_statusor31HasConversionOperatorToStatusOrIS4_SB_vEEEEEE5valueEiE4typeELi0EEESB_(ptr noundef nonnull align 8 dereferenceable(64) %this, ptr noundef nonnull align 8 dereferenceable(8) %v) unnamed_addr #4 comdat align 2 {
entry:
  %this.addr = alloca ptr, align 8
  %v.addr = alloca ptr, align 8
  store ptr %this, ptr %this.addr, align 8
  store ptr %v, ptr %v.addr, align 8
  %this1 = load ptr, ptr %this.addr, align 8
  %0 = load ptr, ptr %v.addr, align 8
  call void @_ZN4absl12lts_2023080217internal_statusor12StatusOrDataIN9grpc_core12experimental4JsonEEC2INS0_6StatusETnNSt9enable_ifIXsr3std16is_constructibleIS8_OT_EE5valueEiE4typeELi0EEESB_(ptr noundef nonnull align 8 dereferenceable(64) %this1, ptr noundef nonnull align 8 dereferenceable(8) %0)
  ret void
}

; Function Attrs: mustprogress nounwind uwtable
define linkonce_odr void @_ZN4absl12lts_202308026StatusD2Ev(ptr noundef nonnull align 8 dereferenceable(8) %this) unnamed_addr #6 comdat align 2 personality ptr @__gxx_personality_v0 {
entry:
  %this.addr = alloca ptr, align 8
  store ptr %this, ptr %this.addr, align 8
  %this1 = load ptr, ptr %this.addr, align 8
  %rep_ = getelementptr inbounds %"class.absl::lts_20230802::Status", ptr %this1, i32 0, i32 0
  %0 = load i64, ptr %rep_, align 8
  invoke void @_ZN4absl12lts_202308026Status5UnrefEm(i64 noundef %0)
          to label %invoke.cont unwind label %terminate.lpad

invoke.cont:                                      ; preds = %entry
  ret void

terminate.lpad:                                   ; preds = %entry
  %1 = landingpad { ptr, i32 }
          catch ptr null
  %2 = extractvalue { ptr, i32 } %1, 0
  call void @__clang_call_terminate(ptr %2) #15
  unreachable
}

; Function Attrs: mustprogress uwtable
define linkonce_odr void @_ZN4absl12lts_202308028StatusOrIN9grpc_core12experimental4JsonEEC2IS4_TnNSt9enable_ifIXsr4absl11conjunctionINS0_11disjunctionIJSt7is_sameIS4_NS0_12remove_cvrefIOT_E4typeEENS0_8negationINS8_IJS9_IS5_SE_ES9_INS0_6StatusESE_ES9_ISt10in_place_tSE_ENS0_17internal_statusor31IsDirectInitializationAmbiguousIS4_SC_EEEEEEEEEESt16is_constructibleIS4_JSC_EESt14is_convertibleISC_S4_ENS8_IJS9_INSA_ISB_E4typeES4_ENS0_11conjunctionIJNSG_ISU_ISC_SI_EEENSG_INSM_31HasConversionOperatorToStatusOrIS4_SC_vEEEEEEEEEEEE5valueEiE4typeELi0EEESC_(ptr noundef nonnull align 8 dereferenceable(64) %this, ptr noundef nonnull align 8 dereferenceable(56) %u) unnamed_addr #4 comdat align 2 {
entry:
  %this.addr = alloca ptr, align 8
  %u.addr = alloca ptr, align 8
  store ptr %this, ptr %this.addr, align 8
  store ptr %u, ptr %u.addr, align 8
  %this1 = load ptr, ptr %this.addr, align 8
  %0 = load ptr, ptr %u.addr, align 8
  call void @_ZN4absl12lts_202308028StatusOrIN9grpc_core12experimental4JsonEEC2IJS4_EEESt10in_place_tDpOT_(ptr noundef nonnull align 8 dereferenceable(64) %this1, ptr noundef nonnull align 8 dereferenceable(56) %0)
  ret void
}

; Function Attrs: mustprogress nounwind uwtable
define internal void @_ZN9grpc_core12_GLOBAL__N_110JsonReaderD2Ev(ptr noundef nonnull align 8 dereferenceable(216) %this) unnamed_addr #6 align 2 {
entry:
  %this.addr = alloca ptr, align 8
  store ptr %this, ptr %this.addr, align 8
  %this1 = load ptr, ptr %this.addr, align 8
  %string_ = getelementptr inbounds %"class.grpc_core::(anonymous namespace)::JsonReader", ptr %this1, i32 0, i32 16
  call void @_ZNSt7__cxx1112basic_stringIcSt11char_traitsIcESaIcEED1Ev(ptr noundef nonnull align 8 dereferenceable(32) %string_) #3
  %key_ = getelementptr inbounds %"class.grpc_core::(anonymous namespace)::JsonReader", ptr %this1, i32 0, i32 15
  call void @_ZNSt7__cxx1112basic_stringIcSt11char_traitsIcESaIcEED1Ev(ptr noundef nonnull align 8 dereferenceable(32) %key_) #3
  %stack_ = getelementptr inbounds %"class.grpc_core::(anonymous namespace)::JsonReader", ptr %this1, i32 0, i32 14
  call void @_ZNSt6vectorIN9grpc_core12_GLOBAL__N_110JsonReader5ScopeESaIS3_EED2Ev(ptr noundef nonnull align 8 dereferenceable(24) %stack_) #3
  %root_value_ = getelementptr inbounds %"class.grpc_core::(anonymous namespace)::JsonReader", ptr %this1, i32 0, i32 13
  call void @_ZN9grpc_core12experimental4JsonD2Ev(ptr noundef nonnull align 8 dereferenceable(56) %root_value_) #3
  %errors_ = getelementptr inbounds %"class.grpc_core::(anonymous namespace)::JsonReader", ptr %this1, i32 0, i32 8
  call void @_ZNSt6vectorINSt7__cxx1112basic_stringIcSt11char_traitsIcESaIcEEESaIS5_EED2Ev(ptr noundef nonnull align 8 dereferenceable(24) %errors_) #3
  ret void
}

; Function Attrs: mustprogress nounwind uwtable
define linkonce_odr noundef ptr @_ZNKSt17basic_string_viewIcSt11char_traitsIcEE4dataEv(ptr noundef nonnull align 8 dereferenceable(16) %this) #6 comdat align 2 {
entry:
  %this.addr = alloca ptr, align 8
  store ptr %this, ptr %this.addr, align 8
  %this1 = load ptr, ptr %this.addr, align 8
  %_M_str = getelementptr inbounds %"class.std::basic_string_view", ptr %this1, i32 0, i32 1
  %0 = load ptr, ptr %_M_str, align 8
  ret ptr %0
}

; Function Attrs: mustprogress nounwind uwtable
define linkonce_odr noundef i64 @_ZNKSt17basic_string_viewIcSt11char_traitsIcEE4sizeEv(ptr noundef nonnull align 8 dereferenceable(16) %this) #6 comdat align 2 {
entry:
  %this.addr = alloca ptr, align 8
  store ptr %this, ptr %this.addr, align 8
  %this1 = load ptr, ptr %this.addr, align 8
  %_M_len = getelementptr inbounds %"class.std::basic_string_view", ptr %this1, i32 0, i32 0
  %0 = load i64, ptr %_M_len, align 8
  ret i64 %0
}

; Function Attrs: mustprogress nounwind uwtable
define linkonce_odr void @_ZNSt6vectorINSt7__cxx1112basic_stringIcSt11char_traitsIcESaIcEEESaIS5_EEC2Ev(ptr noundef nonnull align 8 dereferenceable(24) %this) unnamed_addr #6 comdat align 2 {
entry:
  %this.addr = alloca ptr, align 8
  store ptr %this, ptr %this.addr, align 8
  %this1 = load ptr, ptr %this.addr, align 8
  call void @_ZNSt12_Vector_baseINSt7__cxx1112basic_stringIcSt11char_traitsIcESaIcEEESaIS5_EEC2Ev(ptr noundef nonnull align 8 dereferenceable(24) %this1) #3
  ret void
}

; Function Attrs: mustprogress nounwind uwtable
define linkonce_odr void @_ZN9grpc_core12experimental4JsonC2Ev(ptr noundef nonnull align 8 dereferenceable(56) %this) unnamed_addr #6 comdat align 2 {
entry:
  %this.addr = alloca ptr, align 8
  store ptr %this, ptr %this.addr, align 8
  %this1 = load ptr, ptr %this.addr, align 8
  %value_ = getelementptr inbounds %"class.grpc_core::experimental::Json", ptr %this1, i32 0, i32 0
  call void @_ZNSt7variantIJSt9monostatebN9grpc_core12experimental4Json11NumberValueENSt7__cxx1112basic_stringIcSt11char_traitsIcESaIcEEESt3mapISA_S3_St4lessISA_ESaISt4pairIKSA_S3_EEESt6vectorIS3_SaIS3_EEEEC2Ev(ptr noundef nonnull align 8 dereferenceable(49) %value_) #3
  ret void
}

; Function Attrs: mustprogress nounwind uwtable
define internal void @_ZNSt6vectorIN9grpc_core12_GLOBAL__N_110JsonReader5ScopeESaIS3_EEC2Ev(ptr noundef nonnull align 8 dereferenceable(24) %this) unnamed_addr #6 align 2 {
entry:
  %this.addr = alloca ptr, align 8
  store ptr %this, ptr %this.addr, align 8
  %this1 = load ptr, ptr %this.addr, align 8
  call void @_ZNSt12_Vector_baseIN9grpc_core12_GLOBAL__N_110JsonReader5ScopeESaIS3_EEC2Ev(ptr noundef nonnull align 8 dereferenceable(24) %this1) #3
  ret void
}

; Function Attrs: nounwind
declare void @_ZNSt7__cxx1112basic_stringIcSt11char_traitsIcESaIcEEC1Ev(ptr noundef nonnull align 8 dereferenceable(32)) unnamed_addr #2

; Function Attrs: mustprogress nounwind uwtable
define linkonce_odr void @_ZNSt12_Vector_baseINSt7__cxx1112basic_stringIcSt11char_traitsIcESaIcEEESaIS5_EEC2Ev(ptr noundef nonnull align 8 dereferenceable(24) %this) unnamed_addr #6 comdat align 2 {
entry:
  %this.addr = alloca ptr, align 8
  store ptr %this, ptr %this.addr, align 8
  %this1 = load ptr, ptr %this.addr, align 8
  %_M_impl = getelementptr inbounds %"struct.std::_Vector_base", ptr %this1, i32 0, i32 0
  call void @_ZNSt12_Vector_baseINSt7__cxx1112basic_stringIcSt11char_traitsIcESaIcEEESaIS5_EE12_Vector_implC2Ev(ptr noundef nonnull align 8 dereferenceable(24) %_M_impl) #3
  ret void
}

; Function Attrs: mustprogress nounwind uwtable
define linkonce_odr void @_ZNSt12_Vector_baseINSt7__cxx1112basic_stringIcSt11char_traitsIcESaIcEEESaIS5_EE12_Vector_implC2Ev(ptr noundef nonnull align 8 dereferenceable(24) %this) unnamed_addr #6 comdat align 2 {
entry:
  %this.addr = alloca ptr, align 8
  store ptr %this, ptr %this.addr, align 8
  %this1 = load ptr, ptr %this.addr, align 8
  call void @_ZNSaINSt7__cxx1112basic_stringIcSt11char_traitsIcESaIcEEEEC2Ev(ptr noundef nonnull align 1 dereferenceable(1) %this1) #3
  call void @_ZNSt12_Vector_baseINSt7__cxx1112basic_stringIcSt11char_traitsIcESaIcEEESaIS5_EE17_Vector_impl_dataC2Ev(ptr noundef nonnull align 8 dereferenceable(24) %this1) #3
  ret void
}

; Function Attrs: mustprogress nounwind uwtable
define linkonce_odr void @_ZNSaINSt7__cxx1112basic_stringIcSt11char_traitsIcESaIcEEEEC2Ev(ptr noundef nonnull align 1 dereferenceable(1) %this) unnamed_addr #6 comdat align 2 {
entry:
  %this.addr = alloca ptr, align 8
  store ptr %this, ptr %this.addr, align 8
  %this1 = load ptr, ptr %this.addr, align 8
  call void @_ZNSt15__new_allocatorINSt7__cxx1112basic_stringIcSt11char_traitsIcESaIcEEEEC2Ev(ptr noundef nonnull align 1 dereferenceable(1) %this1) #3
  ret void
}

; Function Attrs: mustprogress nounwind uwtable
define linkonce_odr void @_ZNSt12_Vector_baseINSt7__cxx1112basic_stringIcSt11char_traitsIcESaIcEEESaIS5_EE17_Vector_impl_dataC2Ev(ptr noundef nonnull align 8 dereferenceable(24) %this) unnamed_addr #6 comdat align 2 {
entry:
  %this.addr = alloca ptr, align 8
  store ptr %this, ptr %this.addr, align 8
  %this1 = load ptr, ptr %this.addr, align 8
  %_M_start = getelementptr inbounds %"struct.std::_Vector_base<std::__cxx11::basic_string<char>, std::allocator<std::__cxx11::basic_string<char>>>::_Vector_impl_data", ptr %this1, i32 0, i32 0
  store ptr null, ptr %_M_start, align 8
  %_M_finish = getelementptr inbounds %"struct.std::_Vector_base<std::__cxx11::basic_string<char>, std::allocator<std::__cxx11::basic_string<char>>>::_Vector_impl_data", ptr %this1, i32 0, i32 1
  store ptr null, ptr %_M_finish, align 8
  %_M_end_of_storage = getelementptr inbounds %"struct.std::_Vector_base<std::__cxx11::basic_string<char>, std::allocator<std::__cxx11::basic_string<char>>>::_Vector_impl_data", ptr %this1, i32 0, i32 2
  store ptr null, ptr %_M_end_of_storage, align 8
  ret void
}

; Function Attrs: mustprogress nounwind uwtable
define linkonce_odr void @_ZNSt15__new_allocatorINSt7__cxx1112basic_stringIcSt11char_traitsIcESaIcEEEEC2Ev(ptr noundef nonnull align 1 dereferenceable(1) %this) unnamed_addr #6 comdat align 2 {
entry:
  %this.addr = alloca ptr, align 8
  store ptr %this, ptr %this.addr, align 8
  ret void
}

; Function Attrs: mustprogress nounwind uwtable
define linkonce_odr void @_ZNSt7variantIJSt9monostatebN9grpc_core12experimental4Json11NumberValueENSt7__cxx1112basic_stringIcSt11char_traitsIcESaIcEEESt3mapISA_S3_St4lessISA_ESaISt4pairIKSA_S3_EEESt6vectorIS3_SaIS3_EEEEC2Ev(ptr noundef nonnull align 8 dereferenceable(49) %this) unnamed_addr #6 comdat align 2 {
entry:
  %this.addr = alloca ptr, align 8
  store ptr %this, ptr %this.addr, align 8
  %this1 = load ptr, ptr %this.addr, align 8
  call void @_ZNSt8__detail9__variant13_Variant_baseIJSt9monostatebN9grpc_core12experimental4Json11NumberValueENSt7__cxx1112basic_stringIcSt11char_traitsIcESaIcEEESt3mapISC_S5_St4lessISC_ESaISt4pairIKSC_S5_EEESt6vectorIS5_SaIS5_EEEEC2Ev(ptr noundef nonnull align 8 dereferenceable(49) %this1) #3
  ret void
}

; Function Attrs: mustprogress nounwind uwtable
define linkonce_odr void @_ZNSt8__detail9__variant13_Variant_baseIJSt9monostatebN9grpc_core12experimental4Json11NumberValueENSt7__cxx1112basic_stringIcSt11char_traitsIcESaIcEEESt3mapISC_S5_St4lessISC_ESaISt4pairIKSC_S5_EEESt6vectorIS5_SaIS5_EEEEC2Ev(ptr noundef nonnull align 8 dereferenceable(49) %this) unnamed_addr #6 comdat align 2 personality ptr @__gxx_personality_v0 {
entry:
  %this.addr = alloca ptr, align 8
  store ptr %this, ptr %this.addr, align 8
  %this1 = load ptr, ptr %this.addr, align 8
  invoke void @_ZNSt8__detail9__variant13_Variant_baseIJSt9monostatebN9grpc_core12experimental4Json11NumberValueENSt7__cxx1112basic_stringIcSt11char_traitsIcESaIcEEESt3mapISC_S5_St4lessISC_ESaISt4pairIKSC_S5_EEESt6vectorIS5_SaIS5_EEEEC2ILm0EJEEESt16in_place_index_tIXT_EEDpOT0_(ptr noundef nonnull align 8 dereferenceable(49) %this1)
          to label %invoke.cont unwind label %terminate.lpad

invoke.cont:                                      ; preds = %entry
  ret void

terminate.lpad:                                   ; preds = %entry
  %0 = landingpad { ptr, i32 }
          catch ptr null
  %1 = extractvalue { ptr, i32 } %0, 0
  call void @__clang_call_terminate(ptr %1) #15
  unreachable
}

; Function Attrs: mustprogress uwtable
define linkonce_odr void @_ZNSt8__detail9__variant13_Variant_baseIJSt9monostatebN9grpc_core12experimental4Json11NumberValueENSt7__cxx1112basic_stringIcSt11char_traitsIcESaIcEEESt3mapISC_S5_St4lessISC_ESaISt4pairIKSC_S5_EEESt6vectorIS5_SaIS5_EEEEC2ILm0EJEEESt16in_place_index_tIXT_EEDpOT0_(ptr noundef nonnull align 8 dereferenceable(49) %this) unnamed_addr #4 comdat align 2 {
entry:
  %this.addr = alloca ptr, align 8
  store ptr %this, ptr %this.addr, align 8
  %this1 = load ptr, ptr %this.addr, align 8
  call void @_ZNSt8__detail9__variant17_Move_assign_baseILb0EJSt9monostatebN9grpc_core12experimental4Json11NumberValueENSt7__cxx1112basic_stringIcSt11char_traitsIcESaIcEEESt3mapISC_S5_St4lessISC_ESaISt4pairIKSC_S5_EEESt6vectorIS5_SaIS5_EEEECI2NS0_16_Variant_storageILb0EJS2_bS6_SC_SK_SN_EEEILm0EJEEESt16in_place_index_tIXT_EEDpOT0_(ptr noundef nonnull align 8 dereferenceable(49) %this1)
  ret void
}

; Function Attrs: noreturn nounwind uwtable
define linkonce_odr hidden void @__clang_call_terminate(ptr noundef %0) #7 comdat {
  %2 = call ptr @__cxa_begin_catch(ptr %0) #3
  call void @_ZSt9terminatev() #15
  unreachable
}

declare ptr @__cxa_begin_catch(ptr)

declare void @_ZSt9terminatev()

; Function Attrs: mustprogress uwtable
define linkonce_odr void @_ZNSt8__detail9__variant17_Move_assign_baseILb0EJSt9monostatebN9grpc_core12experimental4Json11NumberValueENSt7__cxx1112basic_stringIcSt11char_traitsIcESaIcEEESt3mapISC_S5_St4lessISC_ESaISt4pairIKSC_S5_EEESt6vectorIS5_SaIS5_EEEECI2NS0_16_Variant_storageILb0EJS2_bS6_SC_SK_SN_EEEILm0EJEEESt16in_place_index_tIXT_EEDpOT0_(ptr noundef nonnull align 8 dereferenceable(49) %this) unnamed_addr #4 comdat align 2 {
entry:
  %this.addr = alloca ptr, align 8
  store ptr %this, ptr %this.addr, align 8
  %this1 = load ptr, ptr %this.addr, align 8
  call void @_ZNSt8__detail9__variant17_Copy_assign_baseILb0EJSt9monostatebN9grpc_core12experimental4Json11NumberValueENSt7__cxx1112basic_stringIcSt11char_traitsIcESaIcEEESt3mapISC_S5_St4lessISC_ESaISt4pairIKSC_S5_EEESt6vectorIS5_SaIS5_EEEECI2NS0_16_Variant_storageILb0EJS2_bS6_SC_SK_SN_EEEILm0EJEEESt16in_place_index_tIXT_EEDpOT0_(ptr noundef nonnull align 8 dereferenceable(49) %this1)
  ret void
}

; Function Attrs: mustprogress uwtable
define linkonce_odr void @_ZNSt8__detail9__variant17_Copy_assign_baseILb0EJSt9monostatebN9grpc_core12experimental4Json11NumberValueENSt7__cxx1112basic_stringIcSt11char_traitsIcESaIcEEESt3mapISC_S5_St4lessISC_ESaISt4pairIKSC_S5_EEESt6vectorIS5_SaIS5_EEEECI2NS0_16_Variant_storageILb0EJS2_bS6_SC_SK_SN_EEEILm0EJEEESt16in_place_index_tIXT_EEDpOT0_(ptr noundef nonnull align 8 dereferenceable(49) %this) unnamed_addr #4 comdat align 2 {
entry:
  %this.addr = alloca ptr, align 8
  store ptr %this, ptr %this.addr, align 8
  %this1 = load ptr, ptr %this.addr, align 8
  call void @_ZNSt8__detail9__variant15_Move_ctor_baseILb0EJSt9monostatebN9grpc_core12experimental4Json11NumberValueENSt7__cxx1112basic_stringIcSt11char_traitsIcESaIcEEESt3mapISC_S5_St4lessISC_ESaISt4pairIKSC_S5_EEESt6vectorIS5_SaIS5_EEEECI2NS0_16_Variant_storageILb0EJS2_bS6_SC_SK_SN_EEEILm0EJEEESt16in_place_index_tIXT_EEDpOT0_(ptr noundef nonnull align 8 dereferenceable(49) %this1)
  ret void
}

; Function Attrs: mustprogress uwtable
define linkonce_odr void @_ZNSt8__detail9__variant15_Move_ctor_baseILb0EJSt9monostatebN9grpc_core12experimental4Json11NumberValueENSt7__cxx1112basic_stringIcSt11char_traitsIcESaIcEEESt3mapISC_S5_St4lessISC_ESaISt4pairIKSC_S5_EEESt6vectorIS5_SaIS5_EEEECI2NS0_16_Variant_storageILb0EJS2_bS6_SC_SK_SN_EEEILm0EJEEESt16in_place_index_tIXT_EEDpOT0_(ptr noundef nonnull align 8 dereferenceable(49) %this) unnamed_addr #4 comdat align 2 {
entry:
  %this.addr = alloca ptr, align 8
  store ptr %this, ptr %this.addr, align 8
  %this1 = load ptr, ptr %this.addr, align 8
  call void @_ZNSt8__detail9__variant15_Copy_ctor_baseILb0EJSt9monostatebN9grpc_core12experimental4Json11NumberValueENSt7__cxx1112basic_stringIcSt11char_traitsIcESaIcEEESt3mapISC_S5_St4lessISC_ESaISt4pairIKSC_S5_EEESt6vectorIS5_SaIS5_EEEECI2NS0_16_Variant_storageILb0EJS2_bS6_SC_SK_SN_EEEILm0EJEEESt16in_place_index_tIXT_EEDpOT0_(ptr noundef nonnull align 8 dereferenceable(49) %this1)
  ret void
}

; Function Attrs: mustprogress uwtable
define linkonce_odr void @_ZNSt8__detail9__variant15_Copy_ctor_baseILb0EJSt9monostatebN9grpc_core12experimental4Json11NumberValueENSt7__cxx1112basic_stringIcSt11char_traitsIcESaIcEEESt3mapISC_S5_St4lessISC_ESaISt4pairIKSC_S5_EEESt6vectorIS5_SaIS5_EEEECI2NS0_16_Variant_storageILb0EJS2_bS6_SC_SK_SN_EEEILm0EJEEESt16in_place_index_tIXT_EEDpOT0_(ptr noundef nonnull align 8 dereferenceable(49) %this) unnamed_addr #4 comdat align 2 {
entry:
  %this.addr = alloca ptr, align 8
  store ptr %this, ptr %this.addr, align 8
  %this1 = load ptr, ptr %this.addr, align 8
  call void @_ZNSt8__detail9__variant16_Variant_storageILb0EJSt9monostatebN9grpc_core12experimental4Json11NumberValueENSt7__cxx1112basic_stringIcSt11char_traitsIcESaIcEEESt3mapISC_S5_St4lessISC_ESaISt4pairIKSC_S5_EEESt6vectorIS5_SaIS5_EEEEC2ILm0EJEEESt16in_place_index_tIXT_EEDpOT0_(ptr noundef nonnull align 8 dereferenceable(49) %this1)
  ret void
}

; Function Attrs: mustprogress uwtable
define linkonce_odr void @_ZNSt8__detail9__variant16_Variant_storageILb0EJSt9monostatebN9grpc_core12experimental4Json11NumberValueENSt7__cxx1112basic_stringIcSt11char_traitsIcESaIcEEESt3mapISC_S5_St4lessISC_ESaISt4pairIKSC_S5_EEESt6vectorIS5_SaIS5_EEEEC2ILm0EJEEESt16in_place_index_tIXT_EEDpOT0_(ptr noundef nonnull align 8 dereferenceable(49) %this) unnamed_addr #4 comdat align 2 {
entry:
  %this.addr = alloca ptr, align 8
  store ptr %this, ptr %this.addr, align 8
  %this1 = load ptr, ptr %this.addr, align 8
  %_M_u = getelementptr inbounds %"struct.std::__detail::__variant::_Variant_storage", ptr %this1, i32 0, i32 0
  call void @_ZNSt8__detail9__variant15_Variadic_unionIJSt9monostatebN9grpc_core12experimental4Json11NumberValueENSt7__cxx1112basic_stringIcSt11char_traitsIcESaIcEEESt3mapISC_S5_St4lessISC_ESaISt4pairIKSC_S5_EEESt6vectorIS5_SaIS5_EEEEC2IJEEESt16in_place_index_tILm0EEDpOT_(ptr noundef nonnull align 8 dereferenceable(48) %_M_u)
  %_M_index = getelementptr inbounds %"struct.std::__detail::__variant::_Variant_storage", ptr %this1, i32 0, i32 1
  store i8 0, ptr %_M_index, align 8
  ret void
}

; Function Attrs: mustprogress uwtable
define linkonce_odr void @_ZNSt8__detail9__variant15_Variadic_unionIJSt9monostatebN9grpc_core12experimental4Json11NumberValueENSt7__cxx1112basic_stringIcSt11char_traitsIcESaIcEEESt3mapISC_S5_St4lessISC_ESaISt4pairIKSC_S5_EEESt6vectorIS5_SaIS5_EEEEC2IJEEESt16in_place_index_tILm0EEDpOT_(ptr noundef nonnull align 8 dereferenceable(48) %this) unnamed_addr #4 comdat align 2 {
entry:
  %this.addr = alloca ptr, align 8
  store ptr %this, ptr %this.addr, align 8
  %this1 = load ptr, ptr %this.addr, align 8
  call void @_ZNSt8__detail9__variant14_UninitializedISt9monostateLb1EEC2IJEEESt16in_place_index_tILm0EEDpOT_(ptr noundef nonnull align 1 dereferenceable(1) %this1)
  ret void
}

; Function Attrs: mustprogress nounwind uwtable
define linkonce_odr void @_ZNSt8__detail9__variant14_UninitializedISt9monostateLb1EEC2IJEEESt16in_place_index_tILm0EEDpOT_(ptr noundef nonnull align 1 dereferenceable(1) %this) unnamed_addr #6 comdat align 2 {
entry:
  %this.addr = alloca ptr, align 8
  store ptr %this, ptr %this.addr, align 8
  ret void
}

; Function Attrs: mustprogress nounwind uwtable
define internal void @_ZNSt12_Vector_baseIN9grpc_core12_GLOBAL__N_110JsonReader5ScopeESaIS3_EEC2Ev(ptr noundef nonnull align 8 dereferenceable(24) %this) unnamed_addr #6 align 2 {
entry:
  %this.addr = alloca ptr, align 8
  store ptr %this, ptr %this.addr, align 8
  %this1 = load ptr, ptr %this.addr, align 8
  %_M_impl = getelementptr inbounds %"struct.std::_Vector_base.16", ptr %this1, i32 0, i32 0
  call void @_ZNSt12_Vector_baseIN9grpc_core12_GLOBAL__N_110JsonReader5ScopeESaIS3_EE12_Vector_implC2Ev(ptr noundef nonnull align 8 dereferenceable(24) %_M_impl) #3
  ret void
}

; Function Attrs: mustprogress nounwind uwtable
define internal void @_ZNSt12_Vector_baseIN9grpc_core12_GLOBAL__N_110JsonReader5ScopeESaIS3_EE12_Vector_implC2Ev(ptr noundef nonnull align 8 dereferenceable(24) %this) unnamed_addr #6 align 2 {
entry:
  %this.addr = alloca ptr, align 8
  store ptr %this, ptr %this.addr, align 8
  %this1 = load ptr, ptr %this.addr, align 8
  call void @_ZNSaIN9grpc_core12_GLOBAL__N_110JsonReader5ScopeEEC2Ev(ptr noundef nonnull align 1 dereferenceable(1) %this1) #3
  call void @_ZNSt12_Vector_baseIN9grpc_core12_GLOBAL__N_110JsonReader5ScopeESaIS3_EE17_Vector_impl_dataC2Ev(ptr noundef nonnull align 8 dereferenceable(24) %this1) #3
  ret void
}

; Function Attrs: mustprogress nounwind uwtable
define internal void @_ZNSaIN9grpc_core12_GLOBAL__N_110JsonReader5ScopeEEC2Ev(ptr noundef nonnull align 1 dereferenceable(1) %this) unnamed_addr #6 align 2 {
entry:
  %this.addr = alloca ptr, align 8
  store ptr %this, ptr %this.addr, align 8
  %this1 = load ptr, ptr %this.addr, align 8
  call void @_ZNSt15__new_allocatorIN9grpc_core12_GLOBAL__N_110JsonReader5ScopeEEC2Ev(ptr noundef nonnull align 1 dereferenceable(1) %this1) #3
  ret void
}

; Function Attrs: mustprogress nounwind uwtable
define internal void @_ZNSt12_Vector_baseIN9grpc_core12_GLOBAL__N_110JsonReader5ScopeESaIS3_EE17_Vector_impl_dataC2Ev(ptr noundef nonnull align 8 dereferenceable(24) %this) unnamed_addr #6 align 2 {
entry:
  %this.addr = alloca ptr, align 8
  store ptr %this, ptr %this.addr, align 8
  %this1 = load ptr, ptr %this.addr, align 8
  %_M_start = getelementptr inbounds %"struct.std::_Vector_base<grpc_core::(anonymous namespace)::JsonReader::Scope, std::allocator<grpc_core::(anonymous namespace)::JsonReader::Scope>>::_Vector_impl_data", ptr %this1, i32 0, i32 0
  store ptr null, ptr %_M_start, align 8
  %_M_finish = getelementptr inbounds %"struct.std::_Vector_base<grpc_core::(anonymous namespace)::JsonReader::Scope, std::allocator<grpc_core::(anonymous namespace)::JsonReader::Scope>>::_Vector_impl_data", ptr %this1, i32 0, i32 1
  store ptr null, ptr %_M_finish, align 8
  %_M_end_of_storage = getelementptr inbounds %"struct.std::_Vector_base<grpc_core::(anonymous namespace)::JsonReader::Scope, std::allocator<grpc_core::(anonymous namespace)::JsonReader::Scope>>::_Vector_impl_data", ptr %this1, i32 0, i32 2
  store ptr null, ptr %_M_end_of_storage, align 8
  ret void
}

; Function Attrs: mustprogress nounwind uwtable
define internal void @_ZNSt15__new_allocatorIN9grpc_core12_GLOBAL__N_110JsonReader5ScopeEEC2Ev(ptr noundef nonnull align 1 dereferenceable(1) %this) unnamed_addr #6 align 2 {
entry:
  %this.addr = alloca ptr, align 8
  store ptr %this, ptr %this.addr, align 8
  ret void
}

; Function Attrs: mustprogress nounwind uwtable
define internal noundef i32 @_ZN9grpc_core12_GLOBAL__N_110JsonReader8ReadCharEv(ptr noundef nonnull align 8 dereferenceable(216) %this) #6 align 2 {
entry:
  %retval = alloca i32, align 4
  %this.addr = alloca ptr, align 8
  %r = alloca i32, align 4
  store ptr %this, ptr %this.addr, align 8
  %this1 = load ptr, ptr %this.addr, align 8
  %remaining_input_ = getelementptr inbounds %"class.grpc_core::(anonymous namespace)::JsonReader", ptr %this1, i32 0, i32 2
  %0 = load i64, ptr %remaining_input_, align 8
  %cmp = icmp eq i64 %0, 0
  br i1 %cmp, label %if.then, label %if.end

if.then:                                          ; preds = %entry
  store i32 2147483632, ptr %retval, align 4
  br label %return

if.end:                                           ; preds = %entry
  %input_ = getelementptr inbounds %"class.grpc_core::(anonymous namespace)::JsonReader", ptr %this1, i32 0, i32 1
  %1 = load ptr, ptr %input_, align 8
  %incdec.ptr = getelementptr inbounds i8, ptr %1, i32 1
  store ptr %incdec.ptr, ptr %input_, align 8
  %2 = load i8, ptr %1, align 1
  %conv = zext i8 %2 to i32
  store i32 %conv, ptr %r, align 4
  %remaining_input_2 = getelementptr inbounds %"class.grpc_core::(anonymous namespace)::JsonReader", ptr %this1, i32 0, i32 2
  %3 = load i64, ptr %remaining_input_2, align 8
  %dec = add i64 %3, -1
  store i64 %dec, ptr %remaining_input_2, align 8
  %4 = load i32, ptr %r, align 4
  %cmp3 = icmp eq i32 %4, 0
  br i1 %cmp3, label %if.then4, label %if.end6

if.then4:                                         ; preds = %if.end
  %remaining_input_5 = getelementptr inbounds %"class.grpc_core::(anonymous namespace)::JsonReader", ptr %this1, i32 0, i32 2
  store i64 0, ptr %remaining_input_5, align 8
  store i32 2147483632, ptr %retval, align 4
  br label %return

if.end6:                                          ; preds = %if.end
  %5 = load i32, ptr %r, align 4
  store i32 %5, ptr %retval, align 4
  br label %return

return:                                           ; preds = %if.end6, %if.then4, %if.then
  %6 = load i32, ptr %retval, align 4
  ret i32 %6
}

; Function Attrs: mustprogress uwtable
define internal noundef zeroext i1 @_ZN9grpc_core12_GLOBAL__N_110JsonReader9SetNumberEv(ptr noundef nonnull align 8 dereferenceable(216) %this) #4 align 2 {
entry:
  %this.addr = alloca ptr, align 8
  %value = alloca ptr, align 8
  %ref.tmp = alloca %"class.grpc_core::experimental::Json", align 8
  store ptr %this, ptr %this.addr, align 8
  %this1 = load ptr, ptr %this.addr, align 8
  %call = call noundef ptr @_ZN9grpc_core12_GLOBAL__N_110JsonReader18CreateAndLinkValueEv(ptr noundef nonnull align 8 dereferenceable(216) %this1)
  store ptr %call, ptr %value, align 8
  %string_ = getelementptr inbounds %"class.grpc_core::(anonymous namespace)::JsonReader", ptr %this1, i32 0, i32 16
  call void @_ZN9grpc_core12experimental4Json10FromNumberEONSt7__cxx1112basic_stringIcSt11char_traitsIcESaIcEEE(ptr sret(%"class.grpc_core::experimental::Json") align 8 %ref.tmp, ptr noundef nonnull align 8 dereferenceable(32) %string_)
  %0 = load ptr, ptr %value, align 8
  %call2 = call noundef nonnull align 8 dereferenceable(56) ptr @_ZN9grpc_core12experimental4JsonaSEOS1_(ptr noundef nonnull align 8 dereferenceable(56) %0, ptr noundef nonnull align 8 dereferenceable(56) %ref.tmp) #3
  call void @_ZN9grpc_core12experimental4JsonD2Ev(ptr noundef nonnull align 8 dereferenceable(56) %ref.tmp) #3
  %string_3 = getelementptr inbounds %"class.grpc_core::(anonymous namespace)::JsonReader", ptr %this1, i32 0, i32 16
  call void @_ZNSt7__cxx1112basic_stringIcSt11char_traitsIcESaIcEE5clearEv(ptr noundef nonnull align 8 dereferenceable(32) %string_3) #3
  ret i1 true
}

; Function Attrs: mustprogress nounwind uwtable
define internal noundef zeroext i1 @_ZN9grpc_core12_GLOBAL__N_110JsonReader10IsCompleteEv(ptr noundef nonnull align 8 dereferenceable(216) %this) #6 align 2 {
entry:
  %this.addr = alloca ptr, align 8
  store ptr %this, ptr %this.addr, align 8
  %this1 = load ptr, ptr %this.addr, align 8
  %stack_ = getelementptr inbounds %"class.grpc_core::(anonymous namespace)::JsonReader", ptr %this1, i32 0, i32 14
  %call = call noundef zeroext i1 @_ZNKSt6vectorIN9grpc_core12_GLOBAL__N_110JsonReader5ScopeESaIS3_EE5emptyEv(ptr noundef nonnull align 8 dereferenceable(24) %stack_) #3
  br i1 %call, label %land.rhs, label %land.end

land.rhs:                                         ; preds = %entry
  %state_ = getelementptr inbounds %"class.grpc_core::(anonymous namespace)::JsonReader", ptr %this1, i32 0, i32 3
  %0 = load i32, ptr %state_, align 8
  %cmp = icmp eq i32 %0, 27
  br i1 %cmp, label %lor.end, label %lor.rhs

lor.rhs:                                          ; preds = %land.rhs
  %state_2 = getelementptr inbounds %"class.grpc_core::(anonymous namespace)::JsonReader", ptr %this1, i32 0, i32 3
  %1 = load i32, ptr %state_2, align 8
  %cmp3 = icmp eq i32 %1, 26
  br label %lor.end

lor.end:                                          ; preds = %lor.rhs, %land.rhs
  %2 = phi i1 [ true, %land.rhs ], [ %cmp3, %lor.rhs ]
  br label %land.end

land.end:                                         ; preds = %lor.end, %entry
  %3 = phi i1 [ false, %entry ], [ %2, %lor.end ]
  ret i1 %3
}

; Function Attrs: mustprogress uwtable
define internal noundef zeroext i1 @_ZN9grpc_core12_GLOBAL__N_110JsonReader13StringAddCharEj(ptr noundef nonnull align 8 dereferenceable(216) %this, i32 noundef %c) #4 align 2 {
entry:
  %retval = alloca i1, align 1
  %this.addr = alloca ptr, align 8
  %c.addr = alloca i32, align 4
  store ptr %this, ptr %this.addr, align 8
  store i32 %c, ptr %c.addr, align 4
  %this1 = load ptr, ptr %this.addr, align 8
  %utf8_bytes_remaining_ = getelementptr inbounds %"class.grpc_core::(anonymous namespace)::JsonReader", ptr %this1, i32 0, i32 10
  %0 = load i8, ptr %utf8_bytes_remaining_, align 1
  %conv = zext i8 %0 to i32
  %cmp = icmp eq i32 %conv, 0
  br i1 %cmp, label %if.then, label %if.else27

if.then:                                          ; preds = %entry
  %1 = load i32, ptr %c.addr, align 4
  %and = and i32 %1, 128
  %cmp2 = icmp eq i32 %and, 0
  br i1 %cmp2, label %if.then3, label %if.else

if.then3:                                         ; preds = %if.then
  %utf8_bytes_remaining_4 = getelementptr inbounds %"class.grpc_core::(anonymous namespace)::JsonReader", ptr %this1, i32 0, i32 10
  store i8 0, ptr %utf8_bytes_remaining_4, align 1
  br label %if.end25

if.else:                                          ; preds = %if.then
  %2 = load i32, ptr %c.addr, align 4
  %and5 = and i32 %2, 224
  %cmp6 = icmp eq i32 %and5, 192
  br i1 %cmp6, label %land.lhs.true, label %if.else10

land.lhs.true:                                    ; preds = %if.else
  %3 = load i32, ptr %c.addr, align 4
  %cmp7 = icmp uge i32 %3, 194
  br i1 %cmp7, label %if.then8, label %if.else10

if.then8:                                         ; preds = %land.lhs.true
  %utf8_bytes_remaining_9 = getelementptr inbounds %"class.grpc_core::(anonymous namespace)::JsonReader", ptr %this1, i32 0, i32 10
  store i8 1, ptr %utf8_bytes_remaining_9, align 1
  br label %if.end24

if.else10:                                        ; preds = %land.lhs.true, %if.else
  %4 = load i32, ptr %c.addr, align 4
  %and11 = and i32 %4, 240
  %cmp12 = icmp eq i32 %and11, 224
  br i1 %cmp12, label %if.then13, label %if.else15

if.then13:                                        ; preds = %if.else10
  %utf8_bytes_remaining_14 = getelementptr inbounds %"class.grpc_core::(anonymous namespace)::JsonReader", ptr %this1, i32 0, i32 10
  store i8 2, ptr %utf8_bytes_remaining_14, align 1
  br label %if.end23

if.else15:                                        ; preds = %if.else10
  %5 = load i32, ptr %c.addr, align 4
  %and16 = and i32 %5, 248
  %cmp17 = icmp eq i32 %and16, 240
  br i1 %cmp17, label %land.lhs.true18, label %if.else22

land.lhs.true18:                                  ; preds = %if.else15
  %6 = load i32, ptr %c.addr, align 4
  %cmp19 = icmp ule i32 %6, 244
  br i1 %cmp19, label %if.then20, label %if.else22

if.then20:                                        ; preds = %land.lhs.true18
  %utf8_bytes_remaining_21 = getelementptr inbounds %"class.grpc_core::(anonymous namespace)::JsonReader", ptr %this1, i32 0, i32 10
  store i8 3, ptr %utf8_bytes_remaining_21, align 1
  br label %if.end

if.else22:                                        ; preds = %land.lhs.true18, %if.else15
  store i1 false, ptr %retval, align 1
  br label %return

if.end:                                           ; preds = %if.then20
  br label %if.end23

if.end23:                                         ; preds = %if.end, %if.then13
  br label %if.end24

if.end24:                                         ; preds = %if.end23, %if.then8
  br label %if.end25

if.end25:                                         ; preds = %if.end24, %if.then3
  %7 = load i32, ptr %c.addr, align 4
  %conv26 = trunc i32 %7 to i8
  %utf8_first_byte_ = getelementptr inbounds %"class.grpc_core::(anonymous namespace)::JsonReader", ptr %this1, i32 0, i32 11
  store i8 %conv26, ptr %utf8_first_byte_, align 2
  br label %if.end86

if.else27:                                        ; preds = %entry
  %utf8_bytes_remaining_28 = getelementptr inbounds %"class.grpc_core::(anonymous namespace)::JsonReader", ptr %this1, i32 0, i32 10
  %8 = load i8, ptr %utf8_bytes_remaining_28, align 1
  %conv29 = zext i8 %8 to i32
  %cmp30 = icmp eq i32 %conv29, 1
  br i1 %cmp30, label %if.then31, label %if.else37

if.then31:                                        ; preds = %if.else27
  %9 = load i32, ptr %c.addr, align 4
  %and32 = and i32 %9, 192
  %cmp33 = icmp ne i32 %and32, 128
  br i1 %cmp33, label %if.then34, label %if.end35

if.then34:                                        ; preds = %if.then31
  store i1 false, ptr %retval, align 1
  br label %return

if.end35:                                         ; preds = %if.then31
  %utf8_bytes_remaining_36 = getelementptr inbounds %"class.grpc_core::(anonymous namespace)::JsonReader", ptr %this1, i32 0, i32 10
  %10 = load i8, ptr %utf8_bytes_remaining_36, align 1
  %dec = add i8 %10, -1
  store i8 %dec, ptr %utf8_bytes_remaining_36, align 1
  br label %if.end85

if.else37:                                        ; preds = %if.else27
  %utf8_bytes_remaining_38 = getelementptr inbounds %"class.grpc_core::(anonymous namespace)::JsonReader", ptr %this1, i32 0, i32 10
  %11 = load i8, ptr %utf8_bytes_remaining_38, align 1
  %conv39 = zext i8 %11 to i32
  %cmp40 = icmp eq i32 %conv39, 2
  br i1 %cmp40, label %if.then41, label %if.else59

if.then41:                                        ; preds = %if.else37
  %12 = load i32, ptr %c.addr, align 4
  %and42 = and i32 %12, 192
  %cmp43 = icmp ne i32 %and42, 128
  br i1 %cmp43, label %if.then55, label %lor.lhs.false

lor.lhs.false:                                    ; preds = %if.then41
  %utf8_first_byte_44 = getelementptr inbounds %"class.grpc_core::(anonymous namespace)::JsonReader", ptr %this1, i32 0, i32 11
  %13 = load i8, ptr %utf8_first_byte_44, align 2
  %conv45 = zext i8 %13 to i32
  %cmp46 = icmp eq i32 %conv45, 224
  br i1 %cmp46, label %land.lhs.true47, label %lor.lhs.false49

land.lhs.true47:                                  ; preds = %lor.lhs.false
  %14 = load i32, ptr %c.addr, align 4
  %cmp48 = icmp ult i32 %14, 160
  br i1 %cmp48, label %if.then55, label %lor.lhs.false49

lor.lhs.false49:                                  ; preds = %land.lhs.true47, %lor.lhs.false
  %utf8_first_byte_50 = getelementptr inbounds %"class.grpc_core::(anonymous namespace)::JsonReader", ptr %this1, i32 0, i32 11
  %15 = load i8, ptr %utf8_first_byte_50, align 2
  %conv51 = zext i8 %15 to i32
  %cmp52 = icmp eq i32 %conv51, 237
  br i1 %cmp52, label %land.lhs.true53, label %if.end56

land.lhs.true53:                                  ; preds = %lor.lhs.false49
  %16 = load i32, ptr %c.addr, align 4
  %cmp54 = icmp ugt i32 %16, 159
  br i1 %cmp54, label %if.then55, label %if.end56

if.then55:                                        ; preds = %land.lhs.true53, %land.lhs.true47, %if.then41
  store i1 false, ptr %retval, align 1
  br label %return

if.end56:                                         ; preds = %land.lhs.true53, %lor.lhs.false49
  %utf8_bytes_remaining_57 = getelementptr inbounds %"class.grpc_core::(anonymous namespace)::JsonReader", ptr %this1, i32 0, i32 10
  %17 = load i8, ptr %utf8_bytes_remaining_57, align 1
  %dec58 = add i8 %17, -1
  store i8 %dec58, ptr %utf8_bytes_remaining_57, align 1
  br label %if.end84

if.else59:                                        ; preds = %if.else37
  %utf8_bytes_remaining_60 = getelementptr inbounds %"class.grpc_core::(anonymous namespace)::JsonReader", ptr %this1, i32 0, i32 10
  %18 = load i8, ptr %utf8_bytes_remaining_60, align 1
  %conv61 = zext i8 %18 to i32
  %cmp62 = icmp eq i32 %conv61, 3
  br i1 %cmp62, label %if.then63, label %if.else82

if.then63:                                        ; preds = %if.else59
  %19 = load i32, ptr %c.addr, align 4
  %and64 = and i32 %19, 192
  %cmp65 = icmp ne i32 %and64, 128
  br i1 %cmp65, label %if.then78, label %lor.lhs.false66

lor.lhs.false66:                                  ; preds = %if.then63
  %utf8_first_byte_67 = getelementptr inbounds %"class.grpc_core::(anonymous namespace)::JsonReader", ptr %this1, i32 0, i32 11
  %20 = load i8, ptr %utf8_first_byte_67, align 2
  %conv68 = zext i8 %20 to i32
  %cmp69 = icmp eq i32 %conv68, 240
  br i1 %cmp69, label %land.lhs.true70, label %lor.lhs.false72

land.lhs.true70:                                  ; preds = %lor.lhs.false66
  %21 = load i32, ptr %c.addr, align 4
  %cmp71 = icmp ult i32 %21, 144
  br i1 %cmp71, label %if.then78, label %lor.lhs.false72

lor.lhs.false72:                                  ; preds = %land.lhs.true70, %lor.lhs.false66
  %utf8_first_byte_73 = getelementptr inbounds %"class.grpc_core::(anonymous namespace)::JsonReader", ptr %this1, i32 0, i32 11
  %22 = load i8, ptr %utf8_first_byte_73, align 2
  %conv74 = zext i8 %22 to i32
  %cmp75 = icmp eq i32 %conv74, 244
  br i1 %cmp75, label %land.lhs.true76, label %if.end79

land.lhs.true76:                                  ; preds = %lor.lhs.false72
  %23 = load i32, ptr %c.addr, align 4
  %cmp77 = icmp ugt i32 %23, 143
  br i1 %cmp77, label %if.then78, label %if.end79

if.then78:                                        ; preds = %land.lhs.true76, %land.lhs.true70, %if.then63
  store i1 false, ptr %retval, align 1
  br label %return

if.end79:                                         ; preds = %land.lhs.true76, %lor.lhs.false72
  %utf8_bytes_remaining_80 = getelementptr inbounds %"class.grpc_core::(anonymous namespace)::JsonReader", ptr %this1, i32 0, i32 10
  %24 = load i8, ptr %utf8_bytes_remaining_80, align 1
  %dec81 = add i8 %24, -1
  store i8 %dec81, ptr %utf8_bytes_remaining_80, align 1
  br label %if.end83

if.else82:                                        ; preds = %if.else59
  call void @abort() #15
  unreachable

if.end83:                                         ; preds = %if.end79
  br label %if.end84

if.end84:                                         ; preds = %if.end83, %if.end56
  br label %if.end85

if.end85:                                         ; preds = %if.end84, %if.end35
  br label %if.end86

if.end86:                                         ; preds = %if.end85, %if.end25
  %string_ = getelementptr inbounds %"class.grpc_core::(anonymous namespace)::JsonReader", ptr %this1, i32 0, i32 16
  %25 = load i32, ptr %c.addr, align 4
  %conv87 = trunc i32 %25 to i8
  call void @_ZNSt7__cxx1112basic_stringIcSt11char_traitsIcESaIcEE9push_backEc(ptr noundef nonnull align 8 dereferenceable(32) %string_, i8 noundef signext %conv87)
  store i1 true, ptr %retval, align 1
  br label %return

return:                                           ; preds = %if.end86, %if.then78, %if.then55, %if.then34, %if.else22
  %26 = load i1, ptr %retval, align 1
  ret i1 %26
}

; Function Attrs: mustprogress nounwind uwtable
define internal noundef zeroext i1 @_ZNKSt6vectorIN9grpc_core12_GLOBAL__N_110JsonReader5ScopeESaIS3_EE5emptyEv(ptr noundef nonnull align 8 dereferenceable(24) %this) #6 align 2 {
entry:
  %this.addr = alloca ptr, align 8
  %ref.tmp = alloca %"class.__gnu_cxx::__normal_iterator.80", align 8
  %ref.tmp2 = alloca %"class.__gnu_cxx::__normal_iterator.80", align 8
  store ptr %this, ptr %this.addr, align 8
  %this1 = load ptr, ptr %this.addr, align 8
  %call = call ptr @_ZNKSt6vectorIN9grpc_core12_GLOBAL__N_110JsonReader5ScopeESaIS3_EE5beginEv(ptr noundef nonnull align 8 dereferenceable(24) %this1) #3
  %coerce.dive = getelementptr inbounds %"class.__gnu_cxx::__normal_iterator.80", ptr %ref.tmp, i32 0, i32 0
  store ptr %call, ptr %coerce.dive, align 8
  %call3 = call ptr @_ZNKSt6vectorIN9grpc_core12_GLOBAL__N_110JsonReader5ScopeESaIS3_EE3endEv(ptr noundef nonnull align 8 dereferenceable(24) %this1) #3
  %coerce.dive4 = getelementptr inbounds %"class.__gnu_cxx::__normal_iterator.80", ptr %ref.tmp2, i32 0, i32 0
  store ptr %call3, ptr %coerce.dive4, align 8
  %call5 = call noundef zeroext i1 @_ZN9__gnu_cxxeqIPKN9grpc_core12_GLOBAL__N_110JsonReader5ScopeESt6vectorIS4_SaIS4_EEEEbRKNS_17__normal_iteratorIT_T0_EESF_(ptr noundef nonnull align 8 dereferenceable(8) %ref.tmp, ptr noundef nonnull align 8 dereferenceable(8) %ref.tmp2) #3
  ret i1 %call5
}

; Function Attrs: mustprogress nounwind uwtable
define internal noundef nonnull align 8 dereferenceable(88) ptr @_ZNSt6vectorIN9grpc_core12_GLOBAL__N_110JsonReader5ScopeESaIS3_EE4backEv(ptr noundef nonnull align 8 dereferenceable(24) %this) #6 align 2 {
entry:
  %this.addr = alloca ptr, align 8
  %ref.tmp = alloca %"class.__gnu_cxx::__normal_iterator.81", align 8
  %ref.tmp2 = alloca %"class.__gnu_cxx::__normal_iterator.81", align 8
  store ptr %this, ptr %this.addr, align 8
  %this1 = load ptr, ptr %this.addr, align 8
  %call = call ptr @_ZNSt6vectorIN9grpc_core12_GLOBAL__N_110JsonReader5ScopeESaIS3_EE3endEv(ptr noundef nonnull align 8 dereferenceable(24) %this1) #3
  %coerce.dive = getelementptr inbounds %"class.__gnu_cxx::__normal_iterator.81", ptr %ref.tmp2, i32 0, i32 0
  store ptr %call, ptr %coerce.dive, align 8
  %call3 = call ptr @_ZNK9__gnu_cxx17__normal_iteratorIPN9grpc_core12_GLOBAL__N_110JsonReader5ScopeESt6vectorIS4_SaIS4_EEEmiEl(ptr noundef nonnull align 8 dereferenceable(8) %ref.tmp2, i64 noundef 1) #3
  %coerce.dive4 = getelementptr inbounds %"class.__gnu_cxx::__normal_iterator.81", ptr %ref.tmp, i32 0, i32 0
  store ptr %call3, ptr %coerce.dive4, align 8
  %call5 = call noundef nonnull align 8 dereferenceable(88) ptr @_ZNK9__gnu_cxx17__normal_iteratorIPN9grpc_core12_GLOBAL__N_110JsonReader5ScopeESt6vectorIS4_SaIS4_EEEdeEv(ptr noundef nonnull align 8 dereferenceable(8) %ref.tmp) #3
  ret ptr %call5
}

; Function Attrs: mustprogress uwtable
define internal noundef i32 @_ZNK9grpc_core12_GLOBAL__N_110JsonReader5Scope4typeEv(ptr noundef nonnull align 8 dereferenceable(88) %this) #4 align 2 {
entry:
  %this.addr = alloca ptr, align 8
  store ptr %this, ptr %this.addr, align 8
  %this1 = load ptr, ptr %this.addr, align 8
  %data = getelementptr inbounds %"struct.grpc_core::(anonymous namespace)::JsonReader::Scope", ptr %this1, i32 0, i32 1
  %call = call noundef i32 @_ZN9grpc_core5MatchIJZNKS_12_GLOBAL__N_110JsonReader5Scope4typeEvEUlRKSt3mapINSt7__cxx1112basic_stringIcSt11char_traitsIcESaIcEEENS_12experimental4JsonESt4lessISA_ESaISt4pairIKSA_SC_EEEE_ZNKS3_4typeEvEUlRKSt6vectorISC_SaISC_EEE_ESJ_JSP_EEEDTclclsr3stdE7declvalINS_12OverloadTypeIJDpT_EEEEEclsr3stdE7declvalIT0_EEEERKSt7variantIJSX_DpT1_EESV_(ptr noundef nonnull align 8 dereferenceable(49) %data)
  ret i32 %call
}

; Function Attrs: mustprogress uwtable
define internal void @_ZN9grpc_core12_GLOBAL__N_110JsonReader12EndContainerEv(ptr noundef nonnull align 8 dereferenceable(216) %this) #4 align 2 personality ptr @__gxx_personality_v0 {
entry:
  %this.addr = alloca ptr, align 8
  %scope = alloca %"struct.grpc_core::(anonymous namespace)::JsonReader::Scope", align 8
  %value = alloca ptr, align 8
  %exn.slot = alloca ptr, align 8
  %ehselector.slot = alloca i32, align 4
  %ref.tmp = alloca %"class.grpc_core::experimental::Json", align 8
  store ptr %this, ptr %this.addr, align 8
  %this1 = load ptr, ptr %this.addr, align 8
  br label %do.body

do.body:                                          ; preds = %entry
  %stack_ = getelementptr inbounds %"class.grpc_core::(anonymous namespace)::JsonReader", ptr %this1, i32 0, i32 14
  %call = call noundef zeroext i1 @_ZNKSt6vectorIN9grpc_core12_GLOBAL__N_110JsonReader5ScopeESaIS3_EE5emptyEv(ptr noundef nonnull align 8 dereferenceable(24) %stack_) #3
  %lnot = xor i1 %call, true
  %lnot2 = xor i1 %lnot, true
  br i1 %lnot2, label %if.then, label %if.end

if.then:                                          ; preds = %do.body
  call void @gpr_assertion_failed(ptr noundef @.str.7, i32 noundef 290, ptr noundef @.str.12) #14
  unreachable

if.end:                                           ; preds = %do.body
  br label %do.end

do.end:                                           ; preds = %if.end
  %stack_3 = getelementptr inbounds %"class.grpc_core::(anonymous namespace)::JsonReader", ptr %this1, i32 0, i32 14
  %call4 = call noundef nonnull align 8 dereferenceable(88) ptr @_ZNSt6vectorIN9grpc_core12_GLOBAL__N_110JsonReader5ScopeESaIS3_EE4backEv(ptr noundef nonnull align 8 dereferenceable(24) %stack_3) #3
  call void @_ZN9grpc_core12_GLOBAL__N_110JsonReader5ScopeC2EOS2_(ptr noundef nonnull align 8 dereferenceable(88) %scope, ptr noundef nonnull align 8 dereferenceable(88) %call4) #3
  %stack_5 = getelementptr inbounds %"class.grpc_core::(anonymous namespace)::JsonReader", ptr %this1, i32 0, i32 14
  call void @_ZNSt6vectorIN9grpc_core12_GLOBAL__N_110JsonReader5ScopeESaIS3_EE8pop_backEv(ptr noundef nonnull align 8 dereferenceable(24) %stack_5) #3
  %parent_object_key = getelementptr inbounds %"struct.grpc_core::(anonymous namespace)::JsonReader::Scope", ptr %scope, i32 0, i32 0
  %key_ = getelementptr inbounds %"class.grpc_core::(anonymous namespace)::JsonReader", ptr %this1, i32 0, i32 15
  %call6 = call noundef nonnull align 8 dereferenceable(32) ptr @_ZNSt7__cxx1112basic_stringIcSt11char_traitsIcESaIcEEaSEOS4_(ptr noundef nonnull align 8 dereferenceable(32) %key_, ptr noundef nonnull align 8 dereferenceable(32) %parent_object_key) #3
  %call7 = invoke noundef ptr @_ZN9grpc_core12_GLOBAL__N_110JsonReader18CreateAndLinkValueEv(ptr noundef nonnull align 8 dereferenceable(216) %this1)
          to label %invoke.cont unwind label %lpad

invoke.cont:                                      ; preds = %do.end
  store ptr %call7, ptr %value, align 8
  invoke void @_ZN9grpc_core12_GLOBAL__N_110JsonReader5Scope10TakeAsJsonEv(ptr sret(%"class.grpc_core::experimental::Json") align 8 %ref.tmp, ptr noundef nonnull align 8 dereferenceable(88) %scope)
          to label %invoke.cont8 unwind label %lpad

invoke.cont8:                                     ; preds = %invoke.cont
  %0 = load ptr, ptr %value, align 8
  %call9 = call noundef nonnull align 8 dereferenceable(56) ptr @_ZN9grpc_core12experimental4JsonaSEOS1_(ptr noundef nonnull align 8 dereferenceable(56) %0, ptr noundef nonnull align 8 dereferenceable(56) %ref.tmp) #3
  call void @_ZN9grpc_core12experimental4JsonD2Ev(ptr noundef nonnull align 8 dereferenceable(56) %ref.tmp) #3
  call void @_ZN9grpc_core12_GLOBAL__N_110JsonReader5ScopeD2Ev(ptr noundef nonnull align 8 dereferenceable(88) %scope) #3
  ret void

lpad:                                             ; preds = %invoke.cont, %do.end
  %1 = landingpad { ptr, i32 }
          cleanup
  %2 = extractvalue { ptr, i32 } %1, 0
  store ptr %2, ptr %exn.slot, align 8
  %3 = extractvalue { ptr, i32 } %1, 1
  store i32 %3, ptr %ehselector.slot, align 4
  call void @_ZN9grpc_core12_GLOBAL__N_110JsonReader5ScopeD2Ev(ptr noundef nonnull align 8 dereferenceable(88) %scope) #3
  br label %eh.resume

eh.resume:                                        ; preds = %lpad
  %exn = load ptr, ptr %exn.slot, align 8
  %sel = load i32, ptr %ehselector.slot, align 4
  %lpad.val = insertvalue { ptr, i32 } poison, ptr %exn, 0
  %lpad.val10 = insertvalue { ptr, i32 } %lpad.val, i32 %sel, 1
  resume { ptr, i32 } %lpad.val10
}

; Function Attrs: mustprogress uwtable
define internal void @_ZN9grpc_core12_GLOBAL__N_110JsonReader6SetKeyEv(ptr noundef nonnull align 8 dereferenceable(216) %this) #4 align 2 personality ptr @__gxx_personality_v0 {
entry:
  %this.addr = alloca ptr, align 8
  %object = alloca ptr, align 8
  %ref.tmp = alloca %"struct.std::_Rb_tree_const_iterator", align 8
  %ref.tmp7 = alloca %"struct.std::_Rb_tree_const_iterator", align 8
  %ref.tmp14 = alloca %"class.std::__cxx11::basic_string", align 8
  %ref.tmp15 = alloca %"class.absl::lts_20230802::str_format_internal::FormatSpecTemplate", align 8
  %ref.tmp17 = alloca i64, align 8
  %exn.slot = alloca ptr, align 8
  %ehselector.slot = alloca i32, align 4
  store ptr %this, ptr %this.addr, align 8
  %this1 = load ptr, ptr %this.addr, align 8
  %string_ = getelementptr inbounds %"class.grpc_core::(anonymous namespace)::JsonReader", ptr %this1, i32 0, i32 16
  %key_ = getelementptr inbounds %"class.grpc_core::(anonymous namespace)::JsonReader", ptr %this1, i32 0, i32 15
  %call = call noundef nonnull align 8 dereferenceable(32) ptr @_ZNSt7__cxx1112basic_stringIcSt11char_traitsIcESaIcEEaSEOS4_(ptr noundef nonnull align 8 dereferenceable(32) %key_, ptr noundef nonnull align 8 dereferenceable(32) %string_) #3
  %string_2 = getelementptr inbounds %"class.grpc_core::(anonymous namespace)::JsonReader", ptr %this1, i32 0, i32 16
  call void @_ZNSt7__cxx1112basic_stringIcSt11char_traitsIcESaIcEE5clearEv(ptr noundef nonnull align 8 dereferenceable(32) %string_2) #3
  %stack_ = getelementptr inbounds %"class.grpc_core::(anonymous namespace)::JsonReader", ptr %this1, i32 0, i32 14
  %call3 = call noundef nonnull align 8 dereferenceable(88) ptr @_ZNSt6vectorIN9grpc_core12_GLOBAL__N_110JsonReader5ScopeESaIS3_EE4backEv(ptr noundef nonnull align 8 dereferenceable(24) %stack_) #3
  %data = getelementptr inbounds %"struct.grpc_core::(anonymous namespace)::JsonReader::Scope", ptr %call3, i32 0, i32 1
  %call4 = call noundef nonnull align 8 dereferenceable(48) ptr @_ZSt3getISt3mapINSt7__cxx1112basic_stringIcSt11char_traitsIcESaIcEEEN9grpc_core12experimental4JsonESt4lessIS6_ESaISt4pairIKS6_S9_EEEJSG_St6vectorIS9_SaIS9_EEEERT_RSt7variantIJDpT0_EE(ptr noundef nonnull align 8 dereferenceable(49) %data)
  store ptr %call4, ptr %object, align 8
  %0 = load ptr, ptr %object, align 8
  %key_5 = getelementptr inbounds %"class.grpc_core::(anonymous namespace)::JsonReader", ptr %this1, i32 0, i32 15
  %call6 = call ptr @_ZNKSt3mapINSt7__cxx1112basic_stringIcSt11char_traitsIcESaIcEEEN9grpc_core12experimental4JsonESt4lessIS5_ESaISt4pairIKS5_S8_EEE4findERSC_(ptr noundef nonnull align 8 dereferenceable(48) %0, ptr noundef nonnull align 8 dereferenceable(32) %key_5)
  %coerce.dive = getelementptr inbounds %"struct.std::_Rb_tree_const_iterator", ptr %ref.tmp, i32 0, i32 0
  store ptr %call6, ptr %coerce.dive, align 8
  %1 = load ptr, ptr %object, align 8
  %call8 = call ptr @_ZNKSt3mapINSt7__cxx1112basic_stringIcSt11char_traitsIcESaIcEEEN9grpc_core12experimental4JsonESt4lessIS5_ESaISt4pairIKS5_S8_EEE3endEv(ptr noundef nonnull align 8 dereferenceable(48) %1) #3
  %coerce.dive9 = getelementptr inbounds %"struct.std::_Rb_tree_const_iterator", ptr %ref.tmp7, i32 0, i32 0
  store ptr %call8, ptr %coerce.dive9, align 8
  %call10 = call noundef zeroext i1 @_ZStneRKSt23_Rb_tree_const_iteratorISt4pairIKNSt7__cxx1112basic_stringIcSt11char_traitsIcESaIcEEEN9grpc_core12experimental4JsonEEESE_(ptr noundef nonnull align 8 dereferenceable(8) %ref.tmp, ptr noundef nonnull align 8 dereferenceable(8) %ref.tmp7) #3
  br i1 %call10, label %if.then, label %if.end22

if.then:                                          ; preds = %entry
  %errors_ = getelementptr inbounds %"class.grpc_core::(anonymous namespace)::JsonReader", ptr %this1, i32 0, i32 8
  %call11 = call noundef i64 @_ZNKSt6vectorINSt7__cxx1112basic_stringIcSt11char_traitsIcESaIcEEESaIS5_EE4sizeEv(ptr noundef nonnull align 8 dereferenceable(24) %errors_) #3
  %cmp = icmp eq i64 %call11, 16
  br i1 %cmp, label %if.then12, label %if.else

if.then12:                                        ; preds = %if.then
  %truncated_errors_ = getelementptr inbounds %"class.grpc_core::(anonymous namespace)::JsonReader", ptr %this1, i32 0, i32 9
  store i8 1, ptr %truncated_errors_, align 8
  br label %if.end

if.else:                                          ; preds = %if.then
  %errors_13 = getelementptr inbounds %"class.grpc_core::(anonymous namespace)::JsonReader", ptr %this1, i32 0, i32 8
  call void @_ZN4absl12lts_2023080219str_format_internal18FormatSpecTemplateIJLNS0_23FormatConversionCharSetE524292ELS3_655355EEEC2EUa9enable_ifIXclL_ZNS1_15ValidFormatImplIJLS3_524292ELS3_655355EEEEbSt17basic_string_viewIcSt11char_traitsIcEEEfL0p_EEEPKc(ptr noundef nonnull align 8 dereferenceable(16) %ref.tmp15, ptr noundef @.str.13)
  %key_16 = getelementptr inbounds %"class.grpc_core::(anonymous namespace)::JsonReader", ptr %this1, i32 0, i32 15
  %call18 = call noundef i64 @_ZNK9grpc_core12_GLOBAL__N_110JsonReader12CurrentIndexEv(ptr noundef nonnull align 8 dereferenceable(216) %this1)
  %key_19 = getelementptr inbounds %"class.grpc_core::(anonymous namespace)::JsonReader", ptr %this1, i32 0, i32 15
  %call20 = call noundef i64 @_ZNKSt7__cxx1112basic_stringIcSt11char_traitsIcESaIcEE4sizeEv(ptr noundef nonnull align 8 dereferenceable(32) %key_19) #3
  %sub = sub i64 %call18, %call20
  %sub21 = sub i64 %sub, 2
  store i64 %sub21, ptr %ref.tmp17, align 8
  call void @_ZN4absl12lts_202308029StrFormatIJNSt7__cxx1112basic_stringIcSt11char_traitsIcESaIcEEEmEEES7_RKNS0_19str_format_internal18FormatSpecTemplateIJXspclsr19str_format_internalE14ArgumentToConvIT_EEEEEEDpRKSA_(ptr sret(%"class.std::__cxx11::basic_string") align 8 %ref.tmp14, ptr noundef nonnull align 8 dereferenceable(16) %ref.tmp15, ptr noundef nonnull align 8 dereferenceable(32) %key_16, ptr noundef nonnull align 8 dereferenceable(8) %ref.tmp17)
  invoke void @_ZNSt6vectorINSt7__cxx1112basic_stringIcSt11char_traitsIcESaIcEEESaIS5_EE9push_backEOS5_(ptr noundef nonnull align 8 dereferenceable(24) %errors_13, ptr noundef nonnull align 8 dereferenceable(32) %ref.tmp14)
          to label %invoke.cont unwind label %lpad

invoke.cont:                                      ; preds = %if.else
  call void @_ZNSt7__cxx1112basic_stringIcSt11char_traitsIcESaIcEED1Ev(ptr noundef nonnull align 8 dereferenceable(32) %ref.tmp14) #3
  br label %if.end

lpad:                                             ; preds = %if.else
  %2 = landingpad { ptr, i32 }
          cleanup
  %3 = extractvalue { ptr, i32 } %2, 0
  store ptr %3, ptr %exn.slot, align 8
  %4 = extractvalue { ptr, i32 } %2, 1
  store i32 %4, ptr %ehselector.slot, align 4
  call void @_ZNSt7__cxx1112basic_stringIcSt11char_traitsIcESaIcEED1Ev(ptr noundef nonnull align 8 dereferenceable(32) %ref.tmp14) #3
  br label %eh.resume

if.end:                                           ; preds = %invoke.cont, %if.then12
  br label %if.end22

if.end22:                                         ; preds = %if.end, %entry
  ret void

eh.resume:                                        ; preds = %lpad
  %exn = load ptr, ptr %exn.slot, align 8
  %sel = load i32, ptr %ehselector.slot, align 4
  %lpad.val = insertvalue { ptr, i32 } poison, ptr %exn, 0
  %lpad.val23 = insertvalue { ptr, i32 } %lpad.val, i32 %sel, 1
  resume { ptr, i32 } %lpad.val23
}

; Function Attrs: mustprogress uwtable
define internal void @_ZN9grpc_core12_GLOBAL__N_110JsonReader9SetStringEv(ptr noundef nonnull align 8 dereferenceable(216) %this) #4 align 2 {
entry:
  %this.addr = alloca ptr, align 8
  %value = alloca ptr, align 8
  %ref.tmp = alloca %"class.grpc_core::experimental::Json", align 8
  store ptr %this, ptr %this.addr, align 8
  %this1 = load ptr, ptr %this.addr, align 8
  %call = call noundef ptr @_ZN9grpc_core12_GLOBAL__N_110JsonReader18CreateAndLinkValueEv(ptr noundef nonnull align 8 dereferenceable(216) %this1)
  store ptr %call, ptr %value, align 8
  %string_ = getelementptr inbounds %"class.grpc_core::(anonymous namespace)::JsonReader", ptr %this1, i32 0, i32 16
  call void @_ZN9grpc_core12experimental4Json10FromStringEONSt7__cxx1112basic_stringIcSt11char_traitsIcESaIcEEE(ptr sret(%"class.grpc_core::experimental::Json") align 8 %ref.tmp, ptr noundef nonnull align 8 dereferenceable(32) %string_)
  %0 = load ptr, ptr %value, align 8
  %call2 = call noundef nonnull align 8 dereferenceable(56) ptr @_ZN9grpc_core12experimental4JsonaSEOS1_(ptr noundef nonnull align 8 dereferenceable(56) %0, ptr noundef nonnull align 8 dereferenceable(56) %ref.tmp) #3
  call void @_ZN9grpc_core12experimental4JsonD2Ev(ptr noundef nonnull align 8 dereferenceable(56) %ref.tmp) #3
  %string_3 = getelementptr inbounds %"class.grpc_core::(anonymous namespace)::JsonReader", ptr %this1, i32 0, i32 16
  call void @_ZNSt7__cxx1112basic_stringIcSt11char_traitsIcESaIcEE5clearEv(ptr noundef nonnull align 8 dereferenceable(32) %string_3) #3
  ret void
}

; Function Attrs: mustprogress uwtable
define internal noundef zeroext i1 @_ZN9grpc_core12_GLOBAL__N_110JsonReader14StartContainerENS_12experimental4Json4TypeE(ptr noundef nonnull align 8 dereferenceable(216) %this, i32 noundef %type) #4 align 2 personality ptr @__gxx_personality_v0 {
entry:
  %retval = alloca i1, align 1
  %this.addr = alloca ptr, align 8
  %type.addr = alloca i32, align 4
  %ref.tmp = alloca %"class.std::__cxx11::basic_string", align 8
  %ref.tmp6 = alloca %"class.absl::lts_20230802::str_format_internal::FormatSpecTemplate.106", align 8
  %ref.tmp7 = alloca i32, align 4
  %ref.tmp8 = alloca i64, align 8
  %exn.slot = alloca ptr, align 8
  %ehselector.slot = alloca i32, align 4
  %scope = alloca ptr, align 8
  %ref.tmp18 = alloca %"class.std::map", align 8
  %ref.tmp24 = alloca %"class.std::vector.53", align 8
  store ptr %this, ptr %this.addr, align 8
  store i32 %type, ptr %type.addr, align 4
  %this1 = load ptr, ptr %this.addr, align 8
  %stack_ = getelementptr inbounds %"class.grpc_core::(anonymous namespace)::JsonReader", ptr %this1, i32 0, i32 14
  %call = call noundef i64 @_ZNKSt6vectorIN9grpc_core12_GLOBAL__N_110JsonReader5ScopeESaIS3_EE4sizeEv(ptr noundef nonnull align 8 dereferenceable(24) %stack_) #3
  %cmp = icmp eq i64 %call, 255
  br i1 %cmp, label %if.then, label %if.end10

if.then:                                          ; preds = %entry
  %errors_ = getelementptr inbounds %"class.grpc_core::(anonymous namespace)::JsonReader", ptr %this1, i32 0, i32 8
  %call2 = call noundef i64 @_ZNKSt6vectorINSt7__cxx1112basic_stringIcSt11char_traitsIcESaIcEEESaIS5_EE4sizeEv(ptr noundef nonnull align 8 dereferenceable(24) %errors_) #3
  %cmp3 = icmp eq i64 %call2, 16
  br i1 %cmp3, label %if.then4, label %if.else

if.then4:                                         ; preds = %if.then
  %truncated_errors_ = getelementptr inbounds %"class.grpc_core::(anonymous namespace)::JsonReader", ptr %this1, i32 0, i32 9
  store i8 1, ptr %truncated_errors_, align 8
  br label %if.end

if.else:                                          ; preds = %if.then
  %errors_5 = getelementptr inbounds %"class.grpc_core::(anonymous namespace)::JsonReader", ptr %this1, i32 0, i32 8
  call void @_ZN4absl12lts_2023080219str_format_internal18FormatSpecTemplateIJLNS0_23FormatConversionCharSetE655355ELS3_655355EEEC2EUa9enable_ifIXclL_ZNS1_15ValidFormatImplIJLS3_655355ELS3_655355EEEEbSt17basic_string_viewIcSt11char_traitsIcEEEfL0p_EEEPKc(ptr noundef nonnull align 8 dereferenceable(16) %ref.tmp6, ptr noundef @.str.14)
  store i32 255, ptr %ref.tmp7, align 4
  %call9 = call noundef i64 @_ZNK9grpc_core12_GLOBAL__N_110JsonReader12CurrentIndexEv(ptr noundef nonnull align 8 dereferenceable(216) %this1)
  store i64 %call9, ptr %ref.tmp8, align 8
  call void @_ZN4absl12lts_202308029StrFormatIJimEEENSt7__cxx1112basic_stringIcSt11char_traitsIcESaIcEEERKNS0_19str_format_internal18FormatSpecTemplateIJXspclsr19str_format_internalE14ArgumentToConvIT_EEEEEEDpRKSA_(ptr sret(%"class.std::__cxx11::basic_string") align 8 %ref.tmp, ptr noundef nonnull align 8 dereferenceable(16) %ref.tmp6, ptr noundef nonnull align 4 dereferenceable(4) %ref.tmp7, ptr noundef nonnull align 8 dereferenceable(8) %ref.tmp8)
  invoke void @_ZNSt6vectorINSt7__cxx1112basic_stringIcSt11char_traitsIcESaIcEEESaIS5_EE9push_backEOS5_(ptr noundef nonnull align 8 dereferenceable(24) %errors_5, ptr noundef nonnull align 8 dereferenceable(32) %ref.tmp)
          to label %invoke.cont unwind label %lpad

invoke.cont:                                      ; preds = %if.else
  call void @_ZNSt7__cxx1112basic_stringIcSt11char_traitsIcESaIcEED1Ev(ptr noundef nonnull align 8 dereferenceable(32) %ref.tmp) #3
  br label %if.end

lpad:                                             ; preds = %if.else
  %0 = landingpad { ptr, i32 }
          cleanup
  %1 = extractvalue { ptr, i32 } %0, 0
  store ptr %1, ptr %exn.slot, align 8
  %2 = extractvalue { ptr, i32 } %0, 1
  store i32 %2, ptr %ehselector.slot, align 4
  call void @_ZNSt7__cxx1112basic_stringIcSt11char_traitsIcESaIcEED1Ev(ptr noundef nonnull align 8 dereferenceable(32) %ref.tmp) #3
  br label %eh.resume

if.end:                                           ; preds = %invoke.cont, %if.then4
  store i1 false, ptr %retval, align 1
  br label %return

if.end10:                                         ; preds = %entry
  %stack_11 = getelementptr inbounds %"class.grpc_core::(anonymous namespace)::JsonReader", ptr %this1, i32 0, i32 14
  %call12 = call noundef nonnull align 8 dereferenceable(88) ptr @_ZNSt6vectorIN9grpc_core12_GLOBAL__N_110JsonReader5ScopeESaIS3_EE12emplace_backIJEEERS3_DpOT_(ptr noundef nonnull align 8 dereferenceable(24) %stack_11)
  %stack_13 = getelementptr inbounds %"class.grpc_core::(anonymous namespace)::JsonReader", ptr %this1, i32 0, i32 14
  %call14 = call noundef nonnull align 8 dereferenceable(88) ptr @_ZNSt6vectorIN9grpc_core12_GLOBAL__N_110JsonReader5ScopeESaIS3_EE4backEv(ptr noundef nonnull align 8 dereferenceable(24) %stack_13) #3
  store ptr %call14, ptr %scope, align 8
  %key_ = getelementptr inbounds %"class.grpc_core::(anonymous namespace)::JsonReader", ptr %this1, i32 0, i32 15
  %3 = load ptr, ptr %scope, align 8
  %parent_object_key = getelementptr inbounds %"struct.grpc_core::(anonymous namespace)::JsonReader::Scope", ptr %3, i32 0, i32 0
  %call15 = call noundef nonnull align 8 dereferenceable(32) ptr @_ZNSt7__cxx1112basic_stringIcSt11char_traitsIcESaIcEEaSEOS4_(ptr noundef nonnull align 8 dereferenceable(32) %parent_object_key, ptr noundef nonnull align 8 dereferenceable(32) %key_) #3
  %4 = load i32, ptr %type.addr, align 4
  %cmp16 = icmp eq i32 %4, 4
  br i1 %cmp16, label %if.then17, label %if.else20

if.then17:                                        ; preds = %if.end10
  call void @llvm.memset.p0.i64(ptr align 8 %ref.tmp18, i8 0, i64 48, i1 false)
  call void @_ZNSt3mapINSt7__cxx1112basic_stringIcSt11char_traitsIcESaIcEEEN9grpc_core12experimental4JsonESt4lessIS5_ESaISt4pairIKS5_S8_EEEC2Ev(ptr noundef nonnull align 8 dereferenceable(48) %ref.tmp18) #3
  %5 = load ptr, ptr %scope, align 8
  %data = getelementptr inbounds %"struct.grpc_core::(anonymous namespace)::JsonReader::Scope", ptr %5, i32 0, i32 1
  %call19 = call noundef nonnull align 8 dereferenceable(49) ptr @_ZNSt7variantIJSt3mapINSt7__cxx1112basic_stringIcSt11char_traitsIcESaIcEEEN9grpc_core12experimental4JsonESt4lessIS6_ESaISt4pairIKS6_S9_EEESt6vectorIS9_SaIS9_EEEEaSISG_EENSt9enable_ifIXaaaa14__exactly_onceINSt9_Nth_typeIX16__accepted_indexIOT_EEJSG_SJ_EE4typeEE18is_constructible_vISR_SO_E15is_assignable_vIRSR_SO_EERSK_E4typeESP_(ptr noundef nonnull align 8 dereferenceable(49) %data, ptr noundef nonnull align 8 dereferenceable(48) %ref.tmp18) #3
  call void @_ZNSt3mapINSt7__cxx1112basic_stringIcSt11char_traitsIcESaIcEEEN9grpc_core12experimental4JsonESt4lessIS5_ESaISt4pairIKS5_S8_EEED2Ev(ptr noundef nonnull align 8 dereferenceable(48) %ref.tmp18) #3
  br label %if.end27

if.else20:                                        ; preds = %if.end10
  br label %do.body

do.body:                                          ; preds = %if.else20
  %6 = load i32, ptr %type.addr, align 4
  %cmp21 = icmp eq i32 %6, 5
  %lnot = xor i1 %cmp21, true
  br i1 %lnot, label %if.then22, label %if.end23

if.then22:                                        ; preds = %do.body
  call void @gpr_assertion_failed(ptr noundef @.str.7, i32 noundef 283, ptr noundef @.str.15) #14
  unreachable

if.end23:                                         ; preds = %do.body
  br label %do.end

do.end:                                           ; preds = %if.end23
  call void @llvm.memset.p0.i64(ptr align 8 %ref.tmp24, i8 0, i64 24, i1 false)
  call void @_ZNSt6vectorIN9grpc_core12experimental4JsonESaIS2_EEC2Ev(ptr noundef nonnull align 8 dereferenceable(24) %ref.tmp24) #3
  %7 = load ptr, ptr %scope, align 8
  %data25 = getelementptr inbounds %"struct.grpc_core::(anonymous namespace)::JsonReader::Scope", ptr %7, i32 0, i32 1
  %call26 = call noundef nonnull align 8 dereferenceable(49) ptr @_ZNSt7variantIJSt3mapINSt7__cxx1112basic_stringIcSt11char_traitsIcESaIcEEEN9grpc_core12experimental4JsonESt4lessIS6_ESaISt4pairIKS6_S9_EEESt6vectorIS9_SaIS9_EEEEaSISJ_EENSt9enable_ifIXaaaa14__exactly_onceINSt9_Nth_typeIX16__accepted_indexIOT_EEJSG_SJ_EE4typeEE18is_constructible_vISR_SO_E15is_assignable_vIRSR_SO_EERSK_E4typeESP_(ptr noundef nonnull align 8 dereferenceable(49) %data25, ptr noundef nonnull align 8 dereferenceable(24) %ref.tmp24) #3
  call void @_ZNSt6vectorIN9grpc_core12experimental4JsonESaIS2_EED2Ev(ptr noundef nonnull align 8 dereferenceable(24) %ref.tmp24) #3
  br label %if.end27

if.end27:                                         ; preds = %do.end, %if.then17
  store i1 true, ptr %retval, align 1
  br label %return

return:                                           ; preds = %if.end27, %if.end
  %8 = load i1, ptr %retval, align 1
  ret i1 %8

eh.resume:                                        ; preds = %lpad
  %exn = load ptr, ptr %exn.slot, align 8
  %sel = load i32, ptr %ehselector.slot, align 4
  %lpad.val = insertvalue { ptr, i32 } poison, ptr %exn, 0
  %lpad.val28 = insertvalue { ptr, i32 } %lpad.val, i32 %sel, 1
  resume { ptr, i32 } %lpad.val28
}

; Function Attrs: mustprogress uwtable
define internal noundef zeroext i1 @_ZN9grpc_core12_GLOBAL__N_110JsonReader14StringAddUtf32Ej(ptr noundef nonnull align 8 dereferenceable(216) %this, i32 noundef %c) #4 align 2 {
entry:
  %retval = alloca i1, align 1
  %this.addr = alloca ptr, align 8
  %c.addr = alloca i32, align 4
  %b1 = alloca i32, align 4
  %b2 = alloca i32, align 4
  %b111 = alloca i32, align 4
  %b215 = alloca i32, align 4
  %b3 = alloca i32, align 4
  %b129 = alloca i32, align 4
  %b233 = alloca i32, align 4
  %b337 = alloca i32, align 4
  %b4 = alloca i32, align 4
  store ptr %this, ptr %this.addr, align 8
  store i32 %c, ptr %c.addr, align 4
  %this1 = load ptr, ptr %this.addr, align 8
  %0 = load i32, ptr %c.addr, align 4
  %cmp = icmp ule i32 %0, 127
  br i1 %cmp, label %if.then, label %if.else

if.then:                                          ; preds = %entry
  %1 = load i32, ptr %c.addr, align 4
  %call = call noundef zeroext i1 @_ZN9grpc_core12_GLOBAL__N_110JsonReader13StringAddCharEj(ptr noundef nonnull align 8 dereferenceable(216) %this1, i32 noundef %1)
  store i1 %call, ptr %retval, align 1
  br label %return

if.else:                                          ; preds = %entry
  %2 = load i32, ptr %c.addr, align 4
  %cmp2 = icmp ule i32 %2, 2047
  br i1 %cmp2, label %if.then3, label %if.else8

if.then3:                                         ; preds = %if.else
  %3 = load i32, ptr %c.addr, align 4
  %shr = lshr i32 %3, 6
  %and = and i32 %shr, 31
  %or = or i32 192, %and
  store i32 %or, ptr %b1, align 4
  %4 = load i32, ptr %c.addr, align 4
  %and4 = and i32 %4, 63
  %or5 = or i32 128, %and4
  store i32 %or5, ptr %b2, align 4
  %5 = load i32, ptr %b1, align 4
  %call6 = call noundef zeroext i1 @_ZN9grpc_core12_GLOBAL__N_110JsonReader13StringAddCharEj(ptr noundef nonnull align 8 dereferenceable(216) %this1, i32 noundef %5)
  br i1 %call6, label %land.rhs, label %land.end

land.rhs:                                         ; preds = %if.then3
  %6 = load i32, ptr %b2, align 4
  %call7 = call noundef zeroext i1 @_ZN9grpc_core12_GLOBAL__N_110JsonReader13StringAddCharEj(ptr noundef nonnull align 8 dereferenceable(216) %this1, i32 noundef %6)
  br label %land.end

land.end:                                         ; preds = %land.rhs, %if.then3
  %7 = phi i1 [ false, %if.then3 ], [ %call7, %land.rhs ]
  store i1 %7, ptr %retval, align 1
  br label %return

if.else8:                                         ; preds = %if.else
  %8 = load i32, ptr %c.addr, align 4
  %cmp9 = icmp ule i32 %8, 65535
  br i1 %cmp9, label %if.then10, label %if.else26

if.then10:                                        ; preds = %if.else8
  %9 = load i32, ptr %c.addr, align 4
  %shr12 = lshr i32 %9, 12
  %and13 = and i32 %shr12, 15
  %or14 = or i32 224, %and13
  store i32 %or14, ptr %b111, align 4
  %10 = load i32, ptr %c.addr, align 4
  %shr16 = lshr i32 %10, 6
  %and17 = and i32 %shr16, 63
  %or18 = or i32 128, %and17
  store i32 %or18, ptr %b215, align 4
  %11 = load i32, ptr %c.addr, align 4
  %and19 = and i32 %11, 63
  %or20 = or i32 128, %and19
  store i32 %or20, ptr %b3, align 4
  %12 = load i32, ptr %b111, align 4
  %call21 = call noundef zeroext i1 @_ZN9grpc_core12_GLOBAL__N_110JsonReader13StringAddCharEj(ptr noundef nonnull align 8 dereferenceable(216) %this1, i32 noundef %12)
  br i1 %call21, label %land.lhs.true, label %land.end25

land.lhs.true:                                    ; preds = %if.then10
  %13 = load i32, ptr %b215, align 4
  %call22 = call noundef zeroext i1 @_ZN9grpc_core12_GLOBAL__N_110JsonReader13StringAddCharEj(ptr noundef nonnull align 8 dereferenceable(216) %this1, i32 noundef %13)
  br i1 %call22, label %land.rhs23, label %land.end25

land.rhs23:                                       ; preds = %land.lhs.true
  %14 = load i32, ptr %b3, align 4
  %call24 = call noundef zeroext i1 @_ZN9grpc_core12_GLOBAL__N_110JsonReader13StringAddCharEj(ptr noundef nonnull align 8 dereferenceable(216) %this1, i32 noundef %14)
  br label %land.end25

land.end25:                                       ; preds = %land.rhs23, %land.lhs.true, %if.then10
  %15 = phi i1 [ false, %land.lhs.true ], [ false, %if.then10 ], [ %call24, %land.rhs23 ]
  store i1 %15, ptr %retval, align 1
  br label %return

if.else26:                                        ; preds = %if.else8
  %16 = load i32, ptr %c.addr, align 4
  %cmp27 = icmp ule i32 %16, 2097151
  br i1 %cmp27, label %if.then28, label %if.else51

if.then28:                                        ; preds = %if.else26
  %17 = load i32, ptr %c.addr, align 4
  %shr30 = lshr i32 %17, 18
  %and31 = and i32 %shr30, 7
  %or32 = or i32 240, %and31
  store i32 %or32, ptr %b129, align 4
  %18 = load i32, ptr %c.addr, align 4
  %shr34 = lshr i32 %18, 12
  %and35 = and i32 %shr34, 63
  %or36 = or i32 128, %and35
  store i32 %or36, ptr %b233, align 4
  %19 = load i32, ptr %c.addr, align 4
  %shr38 = lshr i32 %19, 6
  %and39 = and i32 %shr38, 63
  %or40 = or i32 128, %and39
  store i32 %or40, ptr %b337, align 4
  %20 = load i32, ptr %c.addr, align 4
  %and41 = and i32 %20, 63
  %or42 = or i32 128, %and41
  store i32 %or42, ptr %b4, align 4
  %21 = load i32, ptr %b129, align 4
  %call43 = call noundef zeroext i1 @_ZN9grpc_core12_GLOBAL__N_110JsonReader13StringAddCharEj(ptr noundef nonnull align 8 dereferenceable(216) %this1, i32 noundef %21)
  br i1 %call43, label %land.lhs.true44, label %land.end50

land.lhs.true44:                                  ; preds = %if.then28
  %22 = load i32, ptr %b233, align 4
  %call45 = call noundef zeroext i1 @_ZN9grpc_core12_GLOBAL__N_110JsonReader13StringAddCharEj(ptr noundef nonnull align 8 dereferenceable(216) %this1, i32 noundef %22)
  br i1 %call45, label %land.lhs.true46, label %land.end50

land.lhs.true46:                                  ; preds = %land.lhs.true44
  %23 = load i32, ptr %b337, align 4
  %call47 = call noundef zeroext i1 @_ZN9grpc_core12_GLOBAL__N_110JsonReader13StringAddCharEj(ptr noundef nonnull align 8 dereferenceable(216) %this1, i32 noundef %23)
  br i1 %call47, label %land.rhs48, label %land.end50

land.rhs48:                                       ; preds = %land.lhs.true46
  %24 = load i32, ptr %b4, align 4
  %call49 = call noundef zeroext i1 @_ZN9grpc_core12_GLOBAL__N_110JsonReader13StringAddCharEj(ptr noundef nonnull align 8 dereferenceable(216) %this1, i32 noundef %24)
  br label %land.end50

land.end50:                                       ; preds = %land.rhs48, %land.lhs.true46, %land.lhs.true44, %if.then28
  %25 = phi i1 [ false, %land.lhs.true46 ], [ false, %land.lhs.true44 ], [ false, %if.then28 ], [ %call49, %land.rhs48 ]
  store i1 %25, ptr %retval, align 1
  br label %return

if.else51:                                        ; preds = %if.else26
  store i1 false, ptr %retval, align 1
  br label %return

return:                                           ; preds = %if.else51, %land.end50, %land.end25, %land.end, %if.then
  %26 = load i1, ptr %retval, align 1
  ret i1 %26
}

; Function Attrs: noreturn
declare void @gpr_unreachable_code(ptr noundef, ptr noundef, i32 noundef) #8

; Function Attrs: mustprogress uwtable
define internal void @_ZN9grpc_core12_GLOBAL__N_110JsonReader7SetTrueEv(ptr noundef nonnull align 8 dereferenceable(216) %this) #4 align 2 {
entry:
  %this.addr = alloca ptr, align 8
  %value = alloca ptr, align 8
  %ref.tmp = alloca %"class.grpc_core::experimental::Json", align 8
  store ptr %this, ptr %this.addr, align 8
  %this1 = load ptr, ptr %this.addr, align 8
  %call = call noundef ptr @_ZN9grpc_core12_GLOBAL__N_110JsonReader18CreateAndLinkValueEv(ptr noundef nonnull align 8 dereferenceable(216) %this1)
  store ptr %call, ptr %value, align 8
  call void @_ZN9grpc_core12experimental4Json8FromBoolEb(ptr sret(%"class.grpc_core::experimental::Json") align 8 %ref.tmp, i1 noundef zeroext true)
  %0 = load ptr, ptr %value, align 8
  %call2 = call noundef nonnull align 8 dereferenceable(56) ptr @_ZN9grpc_core12experimental4JsonaSEOS1_(ptr noundef nonnull align 8 dereferenceable(56) %0, ptr noundef nonnull align 8 dereferenceable(56) %ref.tmp) #3
  call void @_ZN9grpc_core12experimental4JsonD2Ev(ptr noundef nonnull align 8 dereferenceable(56) %ref.tmp) #3
  %string_ = getelementptr inbounds %"class.grpc_core::(anonymous namespace)::JsonReader", ptr %this1, i32 0, i32 16
  call void @_ZNSt7__cxx1112basic_stringIcSt11char_traitsIcESaIcEE5clearEv(ptr noundef nonnull align 8 dereferenceable(32) %string_) #3
  ret void
}

; Function Attrs: mustprogress uwtable
define internal void @_ZN9grpc_core12_GLOBAL__N_110JsonReader8SetFalseEv(ptr noundef nonnull align 8 dereferenceable(216) %this) #4 align 2 {
entry:
  %this.addr = alloca ptr, align 8
  %value = alloca ptr, align 8
  %ref.tmp = alloca %"class.grpc_core::experimental::Json", align 8
  store ptr %this, ptr %this.addr, align 8
  %this1 = load ptr, ptr %this.addr, align 8
  %call = call noundef ptr @_ZN9grpc_core12_GLOBAL__N_110JsonReader18CreateAndLinkValueEv(ptr noundef nonnull align 8 dereferenceable(216) %this1)
  store ptr %call, ptr %value, align 8
  call void @_ZN9grpc_core12experimental4Json8FromBoolEb(ptr sret(%"class.grpc_core::experimental::Json") align 8 %ref.tmp, i1 noundef zeroext false)
  %0 = load ptr, ptr %value, align 8
  %call2 = call noundef nonnull align 8 dereferenceable(56) ptr @_ZN9grpc_core12experimental4JsonaSEOS1_(ptr noundef nonnull align 8 dereferenceable(56) %0, ptr noundef nonnull align 8 dereferenceable(56) %ref.tmp) #3
  call void @_ZN9grpc_core12experimental4JsonD2Ev(ptr noundef nonnull align 8 dereferenceable(56) %ref.tmp) #3
  %string_ = getelementptr inbounds %"class.grpc_core::(anonymous namespace)::JsonReader", ptr %this1, i32 0, i32 16
  call void @_ZNSt7__cxx1112basic_stringIcSt11char_traitsIcESaIcEE5clearEv(ptr noundef nonnull align 8 dereferenceable(32) %string_) #3
  ret void
}

; Function Attrs: mustprogress uwtable
define internal void @_ZN9grpc_core12_GLOBAL__N_110JsonReader7SetNullEv(ptr noundef nonnull align 8 dereferenceable(216) %this) #4 align 2 {
entry:
  %this.addr = alloca ptr, align 8
  store ptr %this, ptr %this.addr, align 8
  %this1 = load ptr, ptr %this.addr, align 8
  %call = call noundef ptr @_ZN9grpc_core12_GLOBAL__N_110JsonReader18CreateAndLinkValueEv(ptr noundef nonnull align 8 dereferenceable(216) %this1)
  ret void
}

; Function Attrs: mustprogress uwtable
define internal noundef ptr @_ZN9grpc_core12_GLOBAL__N_110JsonReader18CreateAndLinkValueEv(ptr noundef nonnull align 8 dereferenceable(216) %this) #4 align 2 {
entry:
  %retval = alloca ptr, align 8
  %this.addr = alloca ptr, align 8
  %agg.tmp = alloca %class.anon, align 8
  store ptr %this, ptr %this.addr, align 8
  %this1 = load ptr, ptr %this.addr, align 8
  %stack_ = getelementptr inbounds %"class.grpc_core::(anonymous namespace)::JsonReader", ptr %this1, i32 0, i32 14
  %call = call noundef zeroext i1 @_ZNKSt6vectorIN9grpc_core12_GLOBAL__N_110JsonReader5ScopeESaIS3_EE5emptyEv(ptr noundef nonnull align 8 dereferenceable(24) %stack_) #3
  br i1 %call, label %if.then, label %if.end

if.then:                                          ; preds = %entry
  %root_value_ = getelementptr inbounds %"class.grpc_core::(anonymous namespace)::JsonReader", ptr %this1, i32 0, i32 13
  store ptr %root_value_, ptr %retval, align 8
  br label %return

if.end:                                           ; preds = %entry
  %stack_2 = getelementptr inbounds %"class.grpc_core::(anonymous namespace)::JsonReader", ptr %this1, i32 0, i32 14
  %call3 = call noundef nonnull align 8 dereferenceable(88) ptr @_ZNSt6vectorIN9grpc_core12_GLOBAL__N_110JsonReader5ScopeESaIS3_EE4backEv(ptr noundef nonnull align 8 dereferenceable(24) %stack_2) #3
  %data = getelementptr inbounds %"struct.grpc_core::(anonymous namespace)::JsonReader::Scope", ptr %call3, i32 0, i32 1
  %0 = getelementptr inbounds %class.anon, ptr %agg.tmp, i32 0, i32 0
  store ptr %this1, ptr %0, align 8
  %coerce.dive = getelementptr inbounds %class.anon, ptr %agg.tmp, i32 0, i32 0
  %1 = load ptr, ptr %coerce.dive, align 8
  %call5 = call noundef ptr @"_ZN9grpc_core12MatchMutableIJZNS_12_GLOBAL__N_110JsonReader18CreateAndLinkValueEvE3$_0ZNS2_18CreateAndLinkValueEvE3$_1ESt3mapINSt7__cxx1112basic_stringIcSt11char_traitsIcESaIcEEENS_12experimental4JsonESt4lessISB_ESaISt4pairIKSB_SD_EEEJSt6vectorISD_SaISD_EEEEEDTclclsr3stdE7declvalINS_12OverloadTypeIJDpT_EEEEEclsr3stdE7declvalIPT0_EEEEPSt7variantIJSS_DpT1_EESQ_"(ptr noundef %data, ptr %1)
  store ptr %call5, ptr %retval, align 8
  br label %return

return:                                           ; preds = %if.end, %if.then
  %2 = load ptr, ptr %retval, align 8
  ret ptr %2
}

; Function Attrs: mustprogress nounwind uwtable
define linkonce_odr void @_ZN9grpc_core12experimental4Json10FromNumberEONSt7__cxx1112basic_stringIcSt11char_traitsIcESaIcEEE(ptr noalias sret(%"class.grpc_core::experimental::Json") align 8 %agg.result, ptr noundef nonnull align 8 dereferenceable(32) %str) #6 comdat align 2 {
entry:
  %result.ptr = alloca ptr, align 8
  %str.addr = alloca ptr, align 8
  %nrvo = alloca i1, align 1
  %ref.tmp = alloca %"struct.grpc_core::experimental::Json::NumberValue", align 8
  store ptr %agg.result, ptr %result.ptr, align 8
  store ptr %str, ptr %str.addr, align 8
  store i1 false, ptr %nrvo, align 1
  call void @_ZN9grpc_core12experimental4JsonC2Ev(ptr noundef nonnull align 8 dereferenceable(56) %agg.result) #3
  %value = getelementptr inbounds %"struct.grpc_core::experimental::Json::NumberValue", ptr %ref.tmp, i32 0, i32 0
  %0 = load ptr, ptr %str.addr, align 8
  call void @_ZNSt7__cxx1112basic_stringIcSt11char_traitsIcESaIcEEC1EOS4_(ptr noundef nonnull align 8 dereferenceable(32) %value, ptr noundef nonnull align 8 dereferenceable(32) %0) #3
  %value_ = getelementptr inbounds %"class.grpc_core::experimental::Json", ptr %agg.result, i32 0, i32 0
  %call = call noundef nonnull align 8 dereferenceable(49) ptr @_ZNSt7variantIJSt9monostatebN9grpc_core12experimental4Json11NumberValueENSt7__cxx1112basic_stringIcSt11char_traitsIcESaIcEEESt3mapISA_S3_St4lessISA_ESaISt4pairIKSA_S3_EEESt6vectorIS3_SaIS3_EEEEaSIS4_EENSt9enable_ifIXaaaa14__exactly_onceINSt9_Nth_typeIX16__accepted_indexIOT_EEJS0_bS4_SA_SI_SL_EE4typeEE18is_constructible_vIST_SQ_E15is_assignable_vIRST_SQ_EERSM_E4typeESR_(ptr noundef nonnull align 8 dereferenceable(49) %value_, ptr noundef nonnull align 8 dereferenceable(32) %ref.tmp) #3
  call void @_ZN9grpc_core12experimental4Json11NumberValueD2Ev(ptr noundef nonnull align 8 dereferenceable(32) %ref.tmp) #3
  store i1 true, ptr %nrvo, align 1
  %nrvo.val = load i1, ptr %nrvo, align 1
  br i1 %nrvo.val, label %nrvo.skipdtor, label %nrvo.unused

nrvo.unused:                                      ; preds = %entry
  call void @_ZN9grpc_core12experimental4JsonD2Ev(ptr noundef nonnull align 8 dereferenceable(56) %agg.result) #3
  br label %nrvo.skipdtor

nrvo.skipdtor:                                    ; preds = %nrvo.unused, %entry
  ret void
}

; Function Attrs: mustprogress nounwind uwtable
define linkonce_odr noundef nonnull align 8 dereferenceable(56) ptr @_ZN9grpc_core12experimental4JsonaSEOS1_(ptr noundef nonnull align 8 dereferenceable(56) %this, ptr noundef nonnull align 8 dereferenceable(56) %other) #6 comdat align 2 {
entry:
  %this.addr = alloca ptr, align 8
  %other.addr = alloca ptr, align 8
  %ref.tmp = alloca %"struct.std::monostate", align 1
  store ptr %this, ptr %this.addr, align 8
  store ptr %other, ptr %other.addr, align 8
  %this1 = load ptr, ptr %this.addr, align 8
  %0 = load ptr, ptr %other.addr, align 8
  %value_ = getelementptr inbounds %"class.grpc_core::experimental::Json", ptr %0, i32 0, i32 0
  %value_2 = getelementptr inbounds %"class.grpc_core::experimental::Json", ptr %this1, i32 0, i32 0
  %call = call noundef nonnull align 8 dereferenceable(49) ptr @_ZNSt7variantIJSt9monostatebN9grpc_core12experimental4Json11NumberValueENSt7__cxx1112basic_stringIcSt11char_traitsIcESaIcEEESt3mapISA_S3_St4lessISA_ESaISt4pairIKSA_S3_EEESt6vectorIS3_SaIS3_EEEEaSEOSM_(ptr noundef nonnull align 8 dereferenceable(49) %value_2, ptr noundef nonnull align 8 dereferenceable(49) %value_) #3
  %1 = load ptr, ptr %other.addr, align 8
  %value_3 = getelementptr inbounds %"class.grpc_core::experimental::Json", ptr %1, i32 0, i32 0
  %call4 = call noundef nonnull align 8 dereferenceable(49) ptr @_ZNSt7variantIJSt9monostatebN9grpc_core12experimental4Json11NumberValueENSt7__cxx1112basic_stringIcSt11char_traitsIcESaIcEEESt3mapISA_S3_St4lessISA_ESaISt4pairIKSA_S3_EEESt6vectorIS3_SaIS3_EEEEaSIS0_EENSt9enable_ifIXaaaa14__exactly_onceINSt9_Nth_typeIX16__accepted_indexIOT_EEJS0_bS4_SA_SI_SL_EE4typeEE18is_constructible_vIST_SQ_E15is_assignable_vIRST_SQ_EERSM_E4typeESR_(ptr noundef nonnull align 8 dereferenceable(49) %value_3, ptr noundef nonnull align 1 dereferenceable(1) %ref.tmp) #3
  ret ptr %this1
}

; Function Attrs: mustprogress nounwind uwtable
define linkonce_odr void @_ZN9grpc_core12experimental4JsonD2Ev(ptr noundef nonnull align 8 dereferenceable(56) %this) unnamed_addr #6 comdat align 2 {
entry:
  %this.addr = alloca ptr, align 8
  store ptr %this, ptr %this.addr, align 8
  %this1 = load ptr, ptr %this.addr, align 8
  %value_ = getelementptr inbounds %"class.grpc_core::experimental::Json", ptr %this1, i32 0, i32 0
  call void @_ZNSt7variantIJSt9monostatebN9grpc_core12experimental4Json11NumberValueENSt7__cxx1112basic_stringIcSt11char_traitsIcESaIcEEESt3mapISA_S3_St4lessISA_ESaISt4pairIKSA_S3_EEESt6vectorIS3_SaIS3_EEEED2Ev(ptr noundef nonnull align 8 dereferenceable(49) %value_) #3
  ret void
}

; Function Attrs: nounwind
declare void @_ZNSt7__cxx1112basic_stringIcSt11char_traitsIcESaIcEE5clearEv(ptr noundef nonnull align 8 dereferenceable(32)) #2

; Function Attrs: mustprogress uwtable
define internal noundef ptr @"_ZN9grpc_core12MatchMutableIJZNS_12_GLOBAL__N_110JsonReader18CreateAndLinkValueEvE3$_0ZNS2_18CreateAndLinkValueEvE3$_1ESt3mapINSt7__cxx1112basic_stringIcSt11char_traitsIcESaIcEEENS_12experimental4JsonESt4lessISB_ESaISt4pairIKSB_SD_EEEJSt6vectorISD_SaISD_EEEEEDTclclsr3stdE7declvalINS_12OverloadTypeIJDpT_EEEEEclsr3stdE7declvalIPT0_EEEEPSt7variantIJSS_DpT1_EESQ_"(ptr noundef %value, ptr %fs.coerce) #4 {
entry:
  %fs = alloca %class.anon, align 8
  %fs1 = alloca %class.anon.41, align 1
  %value.addr = alloca ptr, align 8
  %ref.tmp = alloca %"struct.grpc_core::detail::MatchPointerExtractor", align 8
  %coerce.dive = getelementptr inbounds %class.anon, ptr %fs, i32 0, i32 0
  store ptr %fs.coerce, ptr %coerce.dive, align 8
  store ptr %value, ptr %value.addr, align 8
  %cases = getelementptr inbounds %"struct.grpc_core::detail::MatchPointerExtractor", ptr %ref.tmp, i32 0, i32 0
  call void @"_ZN9grpc_core12OverloadTypeIJZNS_12_GLOBAL__N_110JsonReader18CreateAndLinkValueEvE3$_0ZNS2_18CreateAndLinkValueEvE3$_1EEC2EOS3_OS4_"(ptr noundef nonnull align 8 dereferenceable(8) %cases, ptr noundef nonnull align 8 dereferenceable(8) %fs, ptr noundef nonnull align 1 dereferenceable(1) %fs1)
  %0 = load ptr, ptr %value.addr, align 8
  %call = call noundef ptr @"_ZSt5visitIN9grpc_core6detail21MatchPointerExtractorIJZNS0_12_GLOBAL__N_110JsonReader18CreateAndLinkValueEvE3$_0ZNS4_18CreateAndLinkValueEvE3$_1EEEJRSt7variantIJSt3mapINSt7__cxx1112basic_stringIcSt11char_traitsIcESaIcEEENS0_12experimental4JsonESt4lessISF_ESaISt4pairIKSF_SH_EEESt6vectorISH_SaISH_EEEEEENSt13invoke_resultIT_JDpNSt13__conditionalIX21is_lvalue_reference_vIT0_EEE4typeIRNSt19variant_alternativeILm0ENSt16remove_referenceIDTclsr9__variantE4__asclsr3stdE7declvalISX_EEEEE4typeEE4typeEOS16_EEEE4typeEOSV_DpOSX_"(ptr noundef nonnull align 8 dereferenceable(8) %ref.tmp, ptr noundef nonnull align 8 dereferenceable(49) %0)
  ret ptr %call
}

; Function Attrs: mustprogress uwtable
define internal noundef ptr @"_ZSt5visitIN9grpc_core6detail21MatchPointerExtractorIJZNS0_12_GLOBAL__N_110JsonReader18CreateAndLinkValueEvE3$_0ZNS4_18CreateAndLinkValueEvE3$_1EEEJRSt7variantIJSt3mapINSt7__cxx1112basic_stringIcSt11char_traitsIcESaIcEEENS0_12experimental4JsonESt4lessISF_ESaISt4pairIKSF_SH_EEESt6vectorISH_SaISH_EEEEEENSt13invoke_resultIT_JDpNSt13__conditionalIX21is_lvalue_reference_vIT0_EEE4typeIRNSt19variant_alternativeILm0ENSt16remove_referenceIDTclsr9__variantE4__asclsr3stdE7declvalISX_EEEEE4typeEE4typeEOS16_EEEE4typeEOSV_DpOSX_"(ptr noundef nonnull align 8 dereferenceable(8) %__visitor, ptr noundef nonnull align 8 dereferenceable(49) %__variants) #4 {
entry:
  %__visitor.addr = alloca ptr, align 8
  %__variants.addr = alloca ptr, align 8
  %__visit_rettypes_match = alloca i8, align 1
  store ptr %__visitor, ptr %__visitor.addr, align 8
  store ptr %__variants, ptr %__variants.addr, align 8
  %0 = load ptr, ptr %__variants.addr, align 8
  %call = call noundef nonnull align 8 dereferenceable(49) ptr @_ZNSt8__detail9__variant4__asIJSt3mapINSt7__cxx1112basic_stringIcSt11char_traitsIcESaIcEEEN9grpc_core12experimental4JsonESt4lessIS8_ESaISt4pairIKS8_SB_EEESt6vectorISB_SaISB_EEEEERSt7variantIJDpT_EESQ_(ptr noundef nonnull align 8 dereferenceable(49) %0) #3
  %call1 = call noundef zeroext i1 @_ZNKSt7variantIJSt3mapINSt7__cxx1112basic_stringIcSt11char_traitsIcESaIcEEEN9grpc_core12experimental4JsonESt4lessIS6_ESaISt4pairIKS6_S9_EEESt6vectorIS9_SaIS9_EEEE22valueless_by_exceptionEv(ptr noundef nonnull align 8 dereferenceable(49) %call) #3
  br i1 %call1, label %if.then, label %if.end

if.then:                                          ; preds = %entry
  call void @_ZSt26__throw_bad_variant_accessPKc(ptr noundef @.str.8)
  br label %if.end

if.end:                                           ; preds = %if.then, %entry
  store i8 1, ptr %__visit_rettypes_match, align 1
  %1 = load ptr, ptr %__visitor.addr, align 8
  %2 = load ptr, ptr %__variants.addr, align 8
  %call2 = call noundef ptr @"_ZSt10__do_visitINSt8__detail9__variant21__deduce_visit_resultIPN9grpc_core12experimental4JsonEEENS3_6detail21MatchPointerExtractorIJZNS3_12_GLOBAL__N_110JsonReader18CreateAndLinkValueEvE3$_0ZNSB_18CreateAndLinkValueEvE3$_1EEEJRSt7variantIJSt3mapINSt7__cxx1112basic_stringIcSt11char_traitsIcESaIcEEES5_St4lessISM_ESaISt4pairIKSM_S5_EEESt6vectorIS5_SaIS5_EEEEEEDcOT0_DpOT1_"(ptr noundef nonnull align 8 dereferenceable(8) %1, ptr noundef nonnull align 8 dereferenceable(49) %2)
  ret ptr %call2
}

; Function Attrs: mustprogress uwtable
define internal void @"_ZN9grpc_core12OverloadTypeIJZNS_12_GLOBAL__N_110JsonReader18CreateAndLinkValueEvE3$_0ZNS2_18CreateAndLinkValueEvE3$_1EEC2EOS3_OS4_"(ptr noundef nonnull align 8 dereferenceable(8) %this, ptr noundef nonnull align 8 dereferenceable(8) %c, ptr noundef nonnull align 1 dereferenceable(1) %cases) unnamed_addr #4 align 2 {
entry:
  %this.addr = alloca ptr, align 8
  %c.addr = alloca ptr, align 8
  %cases.addr = alloca ptr, align 8
  store ptr %this, ptr %this.addr, align 8
  store ptr %c, ptr %c.addr, align 8
  store ptr %cases, ptr %cases.addr, align 8
  %this1 = load ptr, ptr %this.addr, align 8
  %0 = load ptr, ptr %c.addr, align 8
  call void @llvm.memcpy.p0.p0.i64(ptr align 8 %this1, ptr align 8 %0, i64 8, i1 false)
  %1 = load ptr, ptr %cases.addr, align 8
  call void @"_ZN9grpc_core12OverloadTypeIJZNS_12_GLOBAL__N_110JsonReader18CreateAndLinkValueEvE3$_1EEC2EOS3_"(ptr noundef nonnull align 1 dereferenceable(1) %this1, ptr noundef nonnull align 1 dereferenceable(1) %1)
  ret void
}

; Function Attrs: mustprogress nounwind uwtable
define linkonce_odr noundef nonnull align 8 dereferenceable(49) ptr @_ZNSt8__detail9__variant4__asIJSt3mapINSt7__cxx1112basic_stringIcSt11char_traitsIcESaIcEEEN9grpc_core12experimental4JsonESt4lessIS8_ESaISt4pairIKS8_SB_EEESt6vectorISB_SaISB_EEEEERSt7variantIJDpT_EESQ_(ptr noundef nonnull align 8 dereferenceable(49) %__v) #6 comdat {
entry:
  %__v.addr = alloca ptr, align 8
  store ptr %__v, ptr %__v.addr, align 8
  %0 = load ptr, ptr %__v.addr, align 8
  ret ptr %0
}

; Function Attrs: mustprogress nounwind uwtable
define linkonce_odr noundef zeroext i1 @_ZNKSt7variantIJSt3mapINSt7__cxx1112basic_stringIcSt11char_traitsIcESaIcEEEN9grpc_core12experimental4JsonESt4lessIS6_ESaISt4pairIKS6_S9_EEESt6vectorIS9_SaIS9_EEEE22valueless_by_exceptionEv(ptr noundef nonnull align 8 dereferenceable(49) %this) #6 comdat align 2 {
entry:
  %this.addr = alloca ptr, align 8
  store ptr %this, ptr %this.addr, align 8
  %this1 = load ptr, ptr %this.addr, align 8
  %call = call noundef zeroext i1 @_ZNKSt8__detail9__variant16_Variant_storageILb0EJSt3mapINSt7__cxx1112basic_stringIcSt11char_traitsIcESaIcEEEN9grpc_core12experimental4JsonESt4lessIS8_ESaISt4pairIKS8_SB_EEESt6vectorISB_SaISB_EEEE8_M_validEv(ptr noundef nonnull align 8 dereferenceable(49) %this1) #3
  %lnot = xor i1 %call, true
  ret i1 %lnot
}

; Function Attrs: mustprogress uwtable
define linkonce_odr void @_ZSt26__throw_bad_variant_accessPKc(ptr noundef %__what) #4 comdat {
entry:
  %__what.addr = alloca ptr, align 8
  store ptr %__what, ptr %__what.addr, align 8
  %exception = call ptr @__cxa_allocate_exception(i64 16) #3
  %0 = load ptr, ptr %__what.addr, align 8
  call void @_ZNSt18bad_variant_accessC2EPKc(ptr noundef nonnull align 8 dereferenceable(16) %exception, ptr noundef %0) #3
  call void @__cxa_throw(ptr %exception, ptr @_ZTISt18bad_variant_access, ptr @_ZNSt18bad_variant_accessD2Ev) #14
  unreachable
}

; Function Attrs: mustprogress uwtable
define internal noundef ptr @"_ZSt10__do_visitINSt8__detail9__variant21__deduce_visit_resultIPN9grpc_core12experimental4JsonEEENS3_6detail21MatchPointerExtractorIJZNS3_12_GLOBAL__N_110JsonReader18CreateAndLinkValueEvE3$_0ZNSB_18CreateAndLinkValueEvE3$_1EEEJRSt7variantIJSt3mapINSt7__cxx1112basic_stringIcSt11char_traitsIcESaIcEEES5_St4lessISM_ESaISt4pairIKSM_S5_EEESt6vectorIS5_SaIS5_EEEEEEDcOT0_DpOT1_"(ptr noundef nonnull align 8 dereferenceable(8) %__visitor, ptr noundef nonnull align 8 dereferenceable(49) %__variants) #4 {
entry:
  %retval = alloca ptr, align 8
  %__visitor.addr = alloca ptr, align 8
  %__variants.addr = alloca ptr, align 8
  %__max = alloca i64, align 8
  %__n = alloca i64, align 8
  %__v0 = alloca ptr, align 8
  %ref.tmp = alloca %class.anon.43, align 1
  store ptr %__visitor, ptr %__visitor.addr, align 8
  store ptr %__variants, ptr %__variants.addr, align 8
  store i64 11, ptr %__max, align 8
  store i64 2, ptr %__n, align 8
  %0 = load ptr, ptr %__variants.addr, align 8
  %call = call noundef nonnull align 8 dereferenceable(49) ptr (ptr, ptr, ...) @"_ZZSt10__do_visitINSt8__detail9__variant21__deduce_visit_resultIPN9grpc_core12experimental4JsonEEENS3_6detail21MatchPointerExtractorIJZNS3_12_GLOBAL__N_110JsonReader18CreateAndLinkValueEvE3$_0ZNSB_18CreateAndLinkValueEvE3$_1EEEJRSt7variantIJSt3mapINSt7__cxx1112basic_stringIcSt11char_traitsIcESaIcEEES5_St4lessISM_ESaISt4pairIKSM_S5_EEESt6vectorIS5_SaIS5_EEEEEEDcOT0_DpOT1_ENKUlSY_zE_clB5cxx11ESY_z"(ptr noundef nonnull align 1 dereferenceable(1) %ref.tmp, ptr noundef nonnull align 8 dereferenceable(49) %0)
  store ptr %call, ptr %__v0, align 8
  %1 = load ptr, ptr %__v0, align 8
  %call1 = call noundef i64 @_ZNKSt7variantIJSt3mapINSt7__cxx1112basic_stringIcSt11char_traitsIcESaIcEEEN9grpc_core12experimental4JsonESt4lessIS6_ESaISt4pairIKS6_S9_EEESt6vectorIS9_SaIS9_EEEE5indexEv(ptr noundef nonnull align 8 dereferenceable(49) %1) #3
  switch i64 %call1, label %sw.default [
    i64 0, label %sw.bb
    i64 1, label %sw.bb3
    i64 2, label %sw.bb5
    i64 3, label %sw.bb6
    i64 4, label %sw.bb7
    i64 5, label %sw.bb8
    i64 6, label %sw.bb9
    i64 7, label %sw.bb10
    i64 8, label %sw.bb11
    i64 9, label %sw.bb12
    i64 10, label %sw.bb13
    i64 -1, label %sw.bb14
  ]

sw.bb:                                            ; preds = %entry
  %2 = load ptr, ptr %__visitor.addr, align 8
  %3 = load ptr, ptr %__v0, align 8
  %call2 = call noundef ptr @"_ZNSt8__detail9__variant17__gen_vtable_implINS0_12_Multi_arrayIPFNS0_21__deduce_visit_resultIPN9grpc_core12experimental4JsonEEEONS4_6detail21MatchPointerExtractorIJZNS4_12_GLOBAL__N_110JsonReader18CreateAndLinkValueEvE3$_0ZNSC_18CreateAndLinkValueEvE3$_1EEERSt7variantIJSt3mapINSt7__cxx1112basic_stringIcSt11char_traitsIcESaIcEEES6_St4lessISO_ESaISt4pairIKSO_S6_EEESt6vectorIS6_SaIS6_EEEEEJEEESt16integer_sequenceImJLm0EEEE14__visit_invokeESG_S10_"(ptr noundef nonnull align 8 dereferenceable(8) %2, ptr noundef nonnull align 8 dereferenceable(49) %3)
  store ptr %call2, ptr %retval, align 8
  br label %return

sw.bb3:                                           ; preds = %entry
  %4 = load ptr, ptr %__visitor.addr, align 8
  %5 = load ptr, ptr %__v0, align 8
  %call4 = call noundef ptr @"_ZNSt8__detail9__variant17__gen_vtable_implINS0_12_Multi_arrayIPFNS0_21__deduce_visit_resultIPN9grpc_core12experimental4JsonEEEONS4_6detail21MatchPointerExtractorIJZNS4_12_GLOBAL__N_110JsonReader18CreateAndLinkValueEvE3$_0ZNSC_18CreateAndLinkValueEvE3$_1EEERSt7variantIJSt3mapINSt7__cxx1112basic_stringIcSt11char_traitsIcESaIcEEES6_St4lessISO_ESaISt4pairIKSO_S6_EEESt6vectorIS6_SaIS6_EEEEEJEEESt16integer_sequenceImJLm1EEEE14__visit_invokeESG_S10_"(ptr noundef nonnull align 8 dereferenceable(8) %4, ptr noundef nonnull align 8 dereferenceable(49) %5)
  store ptr %call4, ptr %retval, align 8
  br label %return

sw.bb5:                                           ; preds = %entry
  unreachable

sw.bb6:                                           ; preds = %entry
  unreachable

sw.bb7:                                           ; preds = %entry
  unreachable

sw.bb8:                                           ; preds = %entry
  unreachable

sw.bb9:                                           ; preds = %entry
  unreachable

sw.bb10:                                          ; preds = %entry
  unreachable

sw.bb11:                                          ; preds = %entry
  unreachable

sw.bb12:                                          ; preds = %entry
  unreachable

sw.bb13:                                          ; preds = %entry
  unreachable

sw.bb14:                                          ; preds = %entry
  unreachable

sw.default:                                       ; preds = %entry
  unreachable

return:                                           ; preds = %sw.bb3, %sw.bb
  %6 = load ptr, ptr %retval, align 8
  ret ptr %6
}

; Function Attrs: mustprogress nounwind uwtable
define linkonce_odr noundef zeroext i1 @_ZNKSt8__detail9__variant16_Variant_storageILb0EJSt3mapINSt7__cxx1112basic_stringIcSt11char_traitsIcESaIcEEEN9grpc_core12experimental4JsonESt4lessIS8_ESaISt4pairIKS8_SB_EEESt6vectorISB_SaISB_EEEE8_M_validEv(ptr noundef nonnull align 8 dereferenceable(49) %this) #6 comdat align 2 {
entry:
  %this.addr = alloca ptr, align 8
  store ptr %this, ptr %this.addr, align 8
  %this1 = load ptr, ptr %this.addr, align 8
  %_M_index = getelementptr inbounds %"struct.std::__detail::__variant::_Variant_storage.30", ptr %this1, i32 0, i32 1
  %0 = load i8, ptr %_M_index, align 8
  %conv = zext i8 %0 to i32
  %cmp = icmp ne i32 %conv, 255
  ret i1 %cmp
}

declare ptr @__cxa_allocate_exception(i64)

; Function Attrs: mustprogress nounwind uwtable
define linkonce_odr void @_ZNSt18bad_variant_accessC2EPKc(ptr noundef nonnull align 8 dereferenceable(16) %this, ptr noundef %__reason) unnamed_addr #6 comdat align 2 {
entry:
  %this.addr = alloca ptr, align 8
  %__reason.addr = alloca ptr, align 8
  store ptr %this, ptr %this.addr, align 8
  store ptr %__reason, ptr %__reason.addr, align 8
  %this1 = load ptr, ptr %this.addr, align 8
  call void @_ZNSt9exceptionC2Ev(ptr noundef nonnull align 8 dereferenceable(8) %this1) #3
  store ptr getelementptr inbounds ({ [5 x ptr] }, ptr @_ZTVSt18bad_variant_access, i32 0, inrange i32 0, i32 2), ptr %this1, align 8
  %_M_reason = getelementptr inbounds %"class.std::bad_variant_access", ptr %this1, i32 0, i32 1
  %0 = load ptr, ptr %__reason.addr, align 8
  store ptr %0, ptr %_M_reason, align 8
  ret void
}

; Function Attrs: mustprogress nounwind uwtable
define linkonce_odr void @_ZNSt18bad_variant_accessD2Ev(ptr noundef nonnull align 8 dereferenceable(16) %this) unnamed_addr #6 comdat align 2 {
entry:
  %this.addr = alloca ptr, align 8
  store ptr %this, ptr %this.addr, align 8
  %this1 = load ptr, ptr %this.addr, align 8
  call void @_ZNSt9exceptionD2Ev(ptr noundef nonnull align 8 dereferenceable(8) %this1) #3
  ret void
}

declare void @__cxa_throw(ptr, ptr, ptr)

; Function Attrs: mustprogress nounwind uwtable
define linkonce_odr void @_ZNSt9exceptionC2Ev(ptr noundef nonnull align 8 dereferenceable(8) %this) unnamed_addr #6 comdat align 2 {
entry:
  %this.addr = alloca ptr, align 8
  store ptr %this, ptr %this.addr, align 8
  %this1 = load ptr, ptr %this.addr, align 8
  store ptr getelementptr inbounds ({ [5 x ptr] }, ptr @_ZTVSt9exception, i32 0, inrange i32 0, i32 2), ptr %this1, align 8
  ret void
}

; Function Attrs: mustprogress nounwind uwtable
define linkonce_odr void @_ZNSt18bad_variant_accessD0Ev(ptr noundef nonnull align 8 dereferenceable(16) %this) unnamed_addr #6 comdat align 2 {
entry:
  %this.addr = alloca ptr, align 8
  store ptr %this, ptr %this.addr, align 8
  %this1 = load ptr, ptr %this.addr, align 8
  call void @_ZNSt18bad_variant_accessD2Ev(ptr noundef nonnull align 8 dereferenceable(16) %this1) #3
  call void @_ZdlPv(ptr noundef %this1) #16
  ret void
}

; Function Attrs: mustprogress nounwind uwtable
define linkonce_odr noundef ptr @_ZNKSt18bad_variant_access4whatEv(ptr noundef nonnull align 8 dereferenceable(16) %this) unnamed_addr #6 comdat align 2 {
entry:
  %this.addr = alloca ptr, align 8
  store ptr %this, ptr %this.addr, align 8
  %this1 = load ptr, ptr %this.addr, align 8
  %_M_reason = getelementptr inbounds %"class.std::bad_variant_access", ptr %this1, i32 0, i32 1
  %0 = load ptr, ptr %_M_reason, align 8
  ret ptr %0
}

; Function Attrs: nobuiltin nounwind
declare void @_ZdlPv(ptr noundef) #9

; Function Attrs: nounwind
declare void @_ZNSt9exceptionD2Ev(ptr noundef nonnull align 8 dereferenceable(8)) unnamed_addr #2

; Function Attrs: mustprogress nounwind uwtable
define internal noundef nonnull align 8 dereferenceable(49) ptr @"_ZZSt10__do_visitINSt8__detail9__variant21__deduce_visit_resultIPN9grpc_core12experimental4JsonEEENS3_6detail21MatchPointerExtractorIJZNS3_12_GLOBAL__N_110JsonReader18CreateAndLinkValueEvE3$_0ZNSB_18CreateAndLinkValueEvE3$_1EEEJRSt7variantIJSt3mapINSt7__cxx1112basic_stringIcSt11char_traitsIcESaIcEEES5_St4lessISM_ESaISt4pairIKSM_S5_EEESt6vectorIS5_SaIS5_EEEEEEDcOT0_DpOT1_ENKUlSY_zE_clB5cxx11ESY_z"(ptr noundef nonnull align 1 dereferenceable(1) %this, ptr noundef nonnull align 8 dereferenceable(49) %__v, ...) #6 align 2 {
entry:
  %this.addr = alloca ptr, align 8
  %__v.addr = alloca ptr, align 8
  store ptr %this, ptr %this.addr, align 8
  store ptr %__v, ptr %__v.addr, align 8
  %0 = load ptr, ptr %__v.addr, align 8
  ret ptr %0
}

; Function Attrs: mustprogress nounwind uwtable
define linkonce_odr noundef i64 @_ZNKSt7variantIJSt3mapINSt7__cxx1112basic_stringIcSt11char_traitsIcESaIcEEEN9grpc_core12experimental4JsonESt4lessIS6_ESaISt4pairIKS6_S9_EEESt6vectorIS9_SaIS9_EEEE5indexEv(ptr noundef nonnull align 8 dereferenceable(49) %this) #6 comdat align 2 {
entry:
  %this.addr = alloca ptr, align 8
  store ptr %this, ptr %this.addr, align 8
  %this1 = load ptr, ptr %this.addr, align 8
  %_M_index = getelementptr inbounds %"struct.std::__detail::__variant::_Variant_storage.30", ptr %this1, i32 0, i32 1
  %0 = load i8, ptr %_M_index, align 8
  %conv = sext i8 %0 to i64
  ret i64 %conv
}

; Function Attrs: mustprogress uwtable
define internal noundef ptr @"_ZNSt8__detail9__variant17__gen_vtable_implINS0_12_Multi_arrayIPFNS0_21__deduce_visit_resultIPN9grpc_core12experimental4JsonEEEONS4_6detail21MatchPointerExtractorIJZNS4_12_GLOBAL__N_110JsonReader18CreateAndLinkValueEvE3$_0ZNSC_18CreateAndLinkValueEvE3$_1EEERSt7variantIJSt3mapINSt7__cxx1112basic_stringIcSt11char_traitsIcESaIcEEES6_St4lessISO_ESaISt4pairIKSO_S6_EEESt6vectorIS6_SaIS6_EEEEEJEEESt16integer_sequenceImJLm0EEEE14__visit_invokeESG_S10_"(ptr noundef nonnull align 8 dereferenceable(8) %__visitor, ptr noundef nonnull align 8 dereferenceable(49) %__vars) #4 align 2 {
entry:
  %__visitor.addr = alloca ptr, align 8
  %__vars.addr = alloca ptr, align 8
  store ptr %__visitor, ptr %__visitor.addr, align 8
  store ptr %__vars, ptr %__vars.addr, align 8
  %0 = load ptr, ptr %__visitor.addr, align 8
  %1 = load ptr, ptr %__vars.addr, align 8
  %call = call noundef nonnull align 8 dereferenceable(48) ptr @"_ZNSt8__detail9__variant17__gen_vtable_implINS0_12_Multi_arrayIPFNS0_21__deduce_visit_resultIPN9grpc_core12experimental4JsonEEEONS4_6detail21MatchPointerExtractorIJZNS4_12_GLOBAL__N_110JsonReader18CreateAndLinkValueEvE3$_0ZNSC_18CreateAndLinkValueEvE3$_1EEERSt7variantIJSt3mapINSt7__cxx1112basic_stringIcSt11char_traitsIcESaIcEEES6_St4lessISO_ESaISt4pairIKSO_S6_EEESt6vectorIS6_SaIS6_EEEEEJEEESt16integer_sequenceImJLm0EEEE28__element_by_index_or_cookieILm0ES10_EEDcOT0_"(ptr noundef nonnull align 8 dereferenceable(49) %1) #3
  %call1 = call noundef ptr @"_ZSt8__invokeIN9grpc_core6detail21MatchPointerExtractorIJZNS0_12_GLOBAL__N_110JsonReader18CreateAndLinkValueEvE3$_0ZNS4_18CreateAndLinkValueEvE3$_1EEEJRSt3mapINSt7__cxx1112basic_stringIcSt11char_traitsIcESaIcEEENS0_12experimental4JsonESt4lessISE_ESaISt4pairIKSE_SG_EEEEENSt15__invoke_resultIT_JDpT0_EE4typeEOSQ_DpOSR_"(ptr noundef nonnull align 8 dereferenceable(8) %0, ptr noundef nonnull align 8 dereferenceable(48) %call)
  ret ptr %call1
}

; Function Attrs: mustprogress uwtable
define internal noundef ptr @"_ZNSt8__detail9__variant17__gen_vtable_implINS0_12_Multi_arrayIPFNS0_21__deduce_visit_resultIPN9grpc_core12experimental4JsonEEEONS4_6detail21MatchPointerExtractorIJZNS4_12_GLOBAL__N_110JsonReader18CreateAndLinkValueEvE3$_0ZNSC_18CreateAndLinkValueEvE3$_1EEERSt7variantIJSt3mapINSt7__cxx1112basic_stringIcSt11char_traitsIcESaIcEEES6_St4lessISO_ESaISt4pairIKSO_S6_EEESt6vectorIS6_SaIS6_EEEEEJEEESt16integer_sequenceImJLm1EEEE14__visit_invokeESG_S10_"(ptr noundef nonnull align 8 dereferenceable(8) %__visitor, ptr noundef nonnull align 8 dereferenceable(49) %__vars) #4 align 2 {
entry:
  %__visitor.addr = alloca ptr, align 8
  %__vars.addr = alloca ptr, align 8
  store ptr %__visitor, ptr %__visitor.addr, align 8
  store ptr %__vars, ptr %__vars.addr, align 8
  %0 = load ptr, ptr %__visitor.addr, align 8
  %1 = load ptr, ptr %__vars.addr, align 8
  %call = call noundef nonnull align 8 dereferenceable(24) ptr @"_ZNSt8__detail9__variant17__gen_vtable_implINS0_12_Multi_arrayIPFNS0_21__deduce_visit_resultIPN9grpc_core12experimental4JsonEEEONS4_6detail21MatchPointerExtractorIJZNS4_12_GLOBAL__N_110JsonReader18CreateAndLinkValueEvE3$_0ZNSC_18CreateAndLinkValueEvE3$_1EEERSt7variantIJSt3mapINSt7__cxx1112basic_stringIcSt11char_traitsIcESaIcEEES6_St4lessISO_ESaISt4pairIKSO_S6_EEESt6vectorIS6_SaIS6_EEEEEJEEESt16integer_sequenceImJLm1EEEE28__element_by_index_or_cookieILm1ES10_EEDcOT0_"(ptr noundef nonnull align 8 dereferenceable(49) %1) #3
  %call1 = call noundef ptr @"_ZSt8__invokeIN9grpc_core6detail21MatchPointerExtractorIJZNS0_12_GLOBAL__N_110JsonReader18CreateAndLinkValueEvE3$_0ZNS4_18CreateAndLinkValueEvE3$_1EEEJRSt6vectorINS0_12experimental4JsonESaISA_EEEENSt15__invoke_resultIT_JDpT0_EE4typeEOSF_DpOSG_"(ptr noundef nonnull align 8 dereferenceable(8) %0, ptr noundef nonnull align 8 dereferenceable(24) %call)
  ret ptr %call1
}

; Function Attrs: mustprogress uwtable
define internal noundef ptr @"_ZSt8__invokeIN9grpc_core6detail21MatchPointerExtractorIJZNS0_12_GLOBAL__N_110JsonReader18CreateAndLinkValueEvE3$_0ZNS4_18CreateAndLinkValueEvE3$_1EEEJRSt3mapINSt7__cxx1112basic_stringIcSt11char_traitsIcESaIcEEENS0_12experimental4JsonESt4lessISE_ESaISt4pairIKSE_SG_EEEEENSt15__invoke_resultIT_JDpT0_EE4typeEOSQ_DpOSR_"(ptr noundef nonnull align 8 dereferenceable(8) %__fn, ptr noundef nonnull align 8 dereferenceable(48) %__args) #4 {
entry:
  %__fn.addr = alloca ptr, align 8
  %__args.addr = alloca ptr, align 8
  store ptr %__fn, ptr %__fn.addr, align 8
  store ptr %__args, ptr %__args.addr, align 8
  %0 = load ptr, ptr %__fn.addr, align 8
  %1 = load ptr, ptr %__args.addr, align 8
  %call = call noundef ptr @"_ZSt13__invoke_implIPN9grpc_core12experimental4JsonENS0_6detail21MatchPointerExtractorIJZNS0_12_GLOBAL__N_110JsonReader18CreateAndLinkValueEvE3$_0ZNS7_18CreateAndLinkValueEvE3$_1EEEJRSt3mapINSt7__cxx1112basic_stringIcSt11char_traitsIcESaIcEEES2_St4lessISH_ESaISt4pairIKSH_S2_EEEEET_St14__invoke_otherOT0_DpOT1_"(ptr noundef nonnull align 8 dereferenceable(8) %0, ptr noundef nonnull align 8 dereferenceable(48) %1)
  ret ptr %call
}

; Function Attrs: mustprogress nounwind uwtable
define internal noundef nonnull align 8 dereferenceable(48) ptr @"_ZNSt8__detail9__variant17__gen_vtable_implINS0_12_Multi_arrayIPFNS0_21__deduce_visit_resultIPN9grpc_core12experimental4JsonEEEONS4_6detail21MatchPointerExtractorIJZNS4_12_GLOBAL__N_110JsonReader18CreateAndLinkValueEvE3$_0ZNSC_18CreateAndLinkValueEvE3$_1EEERSt7variantIJSt3mapINSt7__cxx1112basic_stringIcSt11char_traitsIcESaIcEEES6_St4lessISO_ESaISt4pairIKSO_S6_EEESt6vectorIS6_SaIS6_EEEEEJEEESt16integer_sequenceImJLm0EEEE28__element_by_index_or_cookieILm0ES10_EEDcOT0_"(ptr noundef nonnull align 8 dereferenceable(49) %__var) #6 align 2 {
entry:
  %__var.addr = alloca ptr, align 8
  store ptr %__var, ptr %__var.addr, align 8
  %0 = load ptr, ptr %__var.addr, align 8
  %call = call noundef nonnull align 8 dereferenceable(48) ptr @_ZNSt8__detail9__variant5__getILm0ERSt7variantIJSt3mapINSt7__cxx1112basic_stringIcSt11char_traitsIcESaIcEEEN9grpc_core12experimental4JsonESt4lessIS9_ESaISt4pairIKS9_SC_EEESt6vectorISC_SaISC_EEEEEEDcOT0_(ptr noundef nonnull align 8 dereferenceable(49) %0) #3
  ret ptr %call
}

; Function Attrs: mustprogress uwtable
define internal noundef ptr @"_ZSt13__invoke_implIPN9grpc_core12experimental4JsonENS0_6detail21MatchPointerExtractorIJZNS0_12_GLOBAL__N_110JsonReader18CreateAndLinkValueEvE3$_0ZNS7_18CreateAndLinkValueEvE3$_1EEEJRSt3mapINSt7__cxx1112basic_stringIcSt11char_traitsIcESaIcEEES2_St4lessISH_ESaISt4pairIKSH_S2_EEEEET_St14__invoke_otherOT0_DpOT1_"(ptr noundef nonnull align 8 dereferenceable(8) %__f, ptr noundef nonnull align 8 dereferenceable(48) %__args) #4 {
entry:
  %__f.addr = alloca ptr, align 8
  %__args.addr = alloca ptr, align 8
  store ptr %__f, ptr %__f.addr, align 8
  store ptr %__args, ptr %__args.addr, align 8
  %0 = load ptr, ptr %__f.addr, align 8
  %1 = load ptr, ptr %__args.addr, align 8
  %call = call noundef ptr @"_ZN9grpc_core6detail21MatchPointerExtractorIJZNS_12_GLOBAL__N_110JsonReader18CreateAndLinkValueEvE3$_0ZNS3_18CreateAndLinkValueEvE3$_1EEclISt3mapINSt7__cxx1112basic_stringIcSt11char_traitsIcESaIcEEENS_12experimental4JsonESt4lessISE_ESaISt4pairIKSE_SG_EEEEEDTcldtdefpT5casesadfp_EERT_"(ptr noundef nonnull align 8 dereferenceable(8) %0, ptr noundef nonnull align 8 dereferenceable(48) %1)
  ret ptr %call
}

; Function Attrs: mustprogress uwtable
define internal noundef ptr @"_ZN9grpc_core6detail21MatchPointerExtractorIJZNS_12_GLOBAL__N_110JsonReader18CreateAndLinkValueEvE3$_0ZNS3_18CreateAndLinkValueEvE3$_1EEclISt3mapINSt7__cxx1112basic_stringIcSt11char_traitsIcESaIcEEENS_12experimental4JsonESt4lessISE_ESaISt4pairIKSE_SG_EEEEEDTcldtdefpT5casesadfp_EERT_"(ptr noundef nonnull align 8 dereferenceable(8) %this, ptr noundef nonnull align 8 dereferenceable(48) %value) #4 align 2 {
entry:
  %this.addr = alloca ptr, align 8
  %value.addr = alloca ptr, align 8
  store ptr %this, ptr %this.addr, align 8
  store ptr %value, ptr %value.addr, align 8
  %this1 = load ptr, ptr %this.addr, align 8
  %cases = getelementptr inbounds %"struct.grpc_core::detail::MatchPointerExtractor", ptr %this1, i32 0, i32 0
  %0 = load ptr, ptr %value.addr, align 8
  %call = call noundef ptr @"_ZZN9grpc_core12_GLOBAL__N_110JsonReader18CreateAndLinkValueEvENK3$_0clEPSt3mapINSt7__cxx1112basic_stringIcSt11char_traitsIcESaIcEEENS_12experimental4JsonESt4lessIS9_ESaISt4pairIKS9_SB_EEE"(ptr noundef nonnull align 8 dereferenceable(8) %cases, ptr noundef %0)
  ret ptr %call
}

; Function Attrs: mustprogress uwtable
define internal noundef ptr @"_ZZN9grpc_core12_GLOBAL__N_110JsonReader18CreateAndLinkValueEvENK3$_0clEPSt3mapINSt7__cxx1112basic_stringIcSt11char_traitsIcESaIcEEENS_12experimental4JsonESt4lessIS9_ESaISt4pairIKS9_SB_EEE"(ptr noundef nonnull align 8 dereferenceable(8) %this, ptr noundef %object) #4 align 2 {
entry:
  %this.addr = alloca ptr, align 8
  %object.addr = alloca ptr, align 8
  store ptr %this, ptr %this.addr, align 8
  store ptr %object, ptr %object.addr, align 8
  %this1 = load ptr, ptr %this.addr, align 8
  %0 = getelementptr inbounds %class.anon, ptr %this1, i32 0, i32 0
  %1 = load ptr, ptr %0, align 8
  %2 = load ptr, ptr %object.addr, align 8
  %key_ = getelementptr inbounds %"class.grpc_core::(anonymous namespace)::JsonReader", ptr %1, i32 0, i32 15
  %call = call noundef nonnull align 8 dereferenceable(56) ptr @_ZNSt3mapINSt7__cxx1112basic_stringIcSt11char_traitsIcESaIcEEEN9grpc_core12experimental4JsonESt4lessIS5_ESaISt4pairIKS5_S8_EEEixEOS5_(ptr noundef nonnull align 8 dereferenceable(48) %2, ptr noundef nonnull align 8 dereferenceable(32) %key_)
  ret ptr %call
}

; Function Attrs: mustprogress uwtable
define linkonce_odr noundef nonnull align 8 dereferenceable(56) ptr @_ZNSt3mapINSt7__cxx1112basic_stringIcSt11char_traitsIcESaIcEEEN9grpc_core12experimental4JsonESt4lessIS5_ESaISt4pairIKS5_S8_EEEixEOS5_(ptr noundef nonnull align 8 dereferenceable(48) %this, ptr noundef nonnull align 8 dereferenceable(32) %__k) #4 comdat align 2 {
entry:
  %this.addr = alloca ptr, align 8
  %__k.addr = alloca ptr, align 8
  %__i = alloca %"struct.std::_Rb_tree_iterator", align 8
  %ref.tmp = alloca %"struct.std::_Rb_tree_iterator", align 8
  %ref.tmp5 = alloca %"struct.std::less", align 1
  %ref.tmp8 = alloca %"struct.std::_Rb_tree_iterator", align 8
  %agg.tmp = alloca %"struct.std::_Rb_tree_const_iterator", align 8
  %ref.tmp9 = alloca %"class.std::tuple", align 8
  %ref.tmp10 = alloca %"class.std::tuple.48", align 1
  store ptr %this, ptr %this.addr, align 8
  store ptr %__k, ptr %__k.addr, align 8
  %this1 = load ptr, ptr %this.addr, align 8
  %0 = load ptr, ptr %__k.addr, align 8
  %call = call ptr @_ZNSt3mapINSt7__cxx1112basic_stringIcSt11char_traitsIcESaIcEEEN9grpc_core12experimental4JsonESt4lessIS5_ESaISt4pairIKS5_S8_EEE11lower_boundERSC_(ptr noundef nonnull align 8 dereferenceable(48) %this1, ptr noundef nonnull align 8 dereferenceable(32) %0)
  %coerce.dive = getelementptr inbounds %"struct.std::_Rb_tree_iterator", ptr %__i, i32 0, i32 0
  store ptr %call, ptr %coerce.dive, align 8
  %call2 = call ptr @_ZNSt3mapINSt7__cxx1112basic_stringIcSt11char_traitsIcESaIcEEEN9grpc_core12experimental4JsonESt4lessIS5_ESaISt4pairIKS5_S8_EEE3endEv(ptr noundef nonnull align 8 dereferenceable(48) %this1) #3
  %coerce.dive3 = getelementptr inbounds %"struct.std::_Rb_tree_iterator", ptr %ref.tmp, i32 0, i32 0
  store ptr %call2, ptr %coerce.dive3, align 8
  %call4 = call noundef zeroext i1 @_ZSteqRKSt17_Rb_tree_iteratorISt4pairIKNSt7__cxx1112basic_stringIcSt11char_traitsIcESaIcEEEN9grpc_core12experimental4JsonEEESE_(ptr noundef nonnull align 8 dereferenceable(8) %__i, ptr noundef nonnull align 8 dereferenceable(8) %ref.tmp) #3
  br i1 %call4, label %lor.end, label %lor.rhs

lor.rhs:                                          ; preds = %entry
  call void @_ZNKSt3mapINSt7__cxx1112basic_stringIcSt11char_traitsIcESaIcEEEN9grpc_core12experimental4JsonESt4lessIS5_ESaISt4pairIKS5_S8_EEE8key_compEv(ptr noundef nonnull align 8 dereferenceable(48) %this1)
  %1 = load ptr, ptr %__k.addr, align 8
  %call6 = call noundef nonnull align 8 dereferenceable(88) ptr @_ZNKSt17_Rb_tree_iteratorISt4pairIKNSt7__cxx1112basic_stringIcSt11char_traitsIcESaIcEEEN9grpc_core12experimental4JsonEEEdeEv(ptr noundef nonnull align 8 dereferenceable(8) %__i) #3
  %first = getelementptr inbounds %"struct.std::pair", ptr %call6, i32 0, i32 0
  %call7 = call noundef zeroext i1 @_ZNKSt4lessINSt7__cxx1112basic_stringIcSt11char_traitsIcESaIcEEEEclERKS5_S8_(ptr noundef nonnull align 1 dereferenceable(1) %ref.tmp5, ptr noundef nonnull align 8 dereferenceable(32) %1, ptr noundef nonnull align 8 dereferenceable(32) %first)
  br label %lor.end

lor.end:                                          ; preds = %lor.rhs, %entry
  %2 = phi i1 [ true, %entry ], [ %call7, %lor.rhs ]
  br i1 %2, label %if.then, label %if.end

if.then:                                          ; preds = %lor.end
  %_M_t = getelementptr inbounds %"class.std::map", ptr %this1, i32 0, i32 0
  call void @_ZNSt23_Rb_tree_const_iteratorISt4pairIKNSt7__cxx1112basic_stringIcSt11char_traitsIcESaIcEEEN9grpc_core12experimental4JsonEEEC2ERKSt17_Rb_tree_iteratorISB_E(ptr noundef nonnull align 8 dereferenceable(8) %agg.tmp, ptr noundef nonnull align 8 dereferenceable(8) %__i) #3
  %3 = load ptr, ptr %__k.addr, align 8
  call void @_ZSt16forward_as_tupleIJNSt7__cxx1112basic_stringIcSt11char_traitsIcESaIcEEEEESt5tupleIJDpOT_EES9_(ptr sret(%"class.std::tuple") align 8 %ref.tmp9, ptr noundef nonnull align 8 dereferenceable(32) %3) #3
  %coerce.dive11 = getelementptr inbounds %"struct.std::_Rb_tree_const_iterator", ptr %agg.tmp, i32 0, i32 0
  %4 = load ptr, ptr %coerce.dive11, align 8
  %call12 = call ptr @_ZNSt8_Rb_treeINSt7__cxx1112basic_stringIcSt11char_traitsIcESaIcEEESt4pairIKS5_N9grpc_core12experimental4JsonEESt10_Select1stISB_ESt4lessIS5_ESaISB_EE22_M_emplace_hint_uniqueIJRKSt21piecewise_construct_tSt5tupleIJOS5_EESM_IJEEEEESt17_Rb_tree_iteratorISB_ESt23_Rb_tree_const_iteratorISB_EDpOT_(ptr noundef nonnull align 8 dereferenceable(48) %_M_t, ptr %4, ptr noundef nonnull align 1 dereferenceable(1) @_ZSt19piecewise_construct, ptr noundef nonnull align 8 dereferenceable(8) %ref.tmp9, ptr noundef nonnull align 1 dereferenceable(1) %ref.tmp10)
  %coerce.dive13 = getelementptr inbounds %"struct.std::_Rb_tree_iterator", ptr %ref.tmp8, i32 0, i32 0
  store ptr %call12, ptr %coerce.dive13, align 8
  call void @llvm.memcpy.p0.p0.i64(ptr align 8 %__i, ptr align 8 %ref.tmp8, i64 8, i1 false)
  br label %if.end

if.end:                                           ; preds = %if.then, %lor.end
  %call14 = call noundef nonnull align 8 dereferenceable(88) ptr @_ZNKSt17_Rb_tree_iteratorISt4pairIKNSt7__cxx1112basic_stringIcSt11char_traitsIcESaIcEEEN9grpc_core12experimental4JsonEEEdeEv(ptr noundef nonnull align 8 dereferenceable(8) %__i) #3
  %second = getelementptr inbounds %"struct.std::pair", ptr %call14, i32 0, i32 1
  ret ptr %second
}

; Function Attrs: mustprogress uwtable
define linkonce_odr ptr @_ZNSt3mapINSt7__cxx1112basic_stringIcSt11char_traitsIcESaIcEEEN9grpc_core12experimental4JsonESt4lessIS5_ESaISt4pairIKS5_S8_EEE11lower_boundERSC_(ptr noundef nonnull align 8 dereferenceable(48) %this, ptr noundef nonnull align 8 dereferenceable(32) %__x) #4 comdat align 2 {
entry:
  %retval = alloca %"struct.std::_Rb_tree_iterator", align 8
  %this.addr = alloca ptr, align 8
  %__x.addr = alloca ptr, align 8
  store ptr %this, ptr %this.addr, align 8
  store ptr %__x, ptr %__x.addr, align 8
  %this1 = load ptr, ptr %this.addr, align 8
  %_M_t = getelementptr inbounds %"class.std::map", ptr %this1, i32 0, i32 0
  %0 = load ptr, ptr %__x.addr, align 8
  %call = call ptr @_ZNSt8_Rb_treeINSt7__cxx1112basic_stringIcSt11char_traitsIcESaIcEEESt4pairIKS5_N9grpc_core12experimental4JsonEESt10_Select1stISB_ESt4lessIS5_ESaISB_EE11lower_boundERS7_(ptr noundef nonnull align 8 dereferenceable(48) %_M_t, ptr noundef nonnull align 8 dereferenceable(32) %0)
  %coerce.dive = getelementptr inbounds %"struct.std::_Rb_tree_iterator", ptr %retval, i32 0, i32 0
  store ptr %call, ptr %coerce.dive, align 8
  %coerce.dive2 = getelementptr inbounds %"struct.std::_Rb_tree_iterator", ptr %retval, i32 0, i32 0
  %1 = load ptr, ptr %coerce.dive2, align 8
  ret ptr %1
}

; Function Attrs: mustprogress nounwind uwtable
define linkonce_odr noundef zeroext i1 @_ZSteqRKSt17_Rb_tree_iteratorISt4pairIKNSt7__cxx1112basic_stringIcSt11char_traitsIcESaIcEEEN9grpc_core12experimental4JsonEEESE_(ptr noundef nonnull align 8 dereferenceable(8) %__x, ptr noundef nonnull align 8 dereferenceable(8) %__y) #6 comdat {
entry:
  %__x.addr = alloca ptr, align 8
  %__y.addr = alloca ptr, align 8
  store ptr %__x, ptr %__x.addr, align 8
  store ptr %__y, ptr %__y.addr, align 8
  %0 = load ptr, ptr %__x.addr, align 8
  %_M_node = getelementptr inbounds %"struct.std::_Rb_tree_iterator", ptr %0, i32 0, i32 0
  %1 = load ptr, ptr %_M_node, align 8
  %2 = load ptr, ptr %__y.addr, align 8
  %_M_node1 = getelementptr inbounds %"struct.std::_Rb_tree_iterator", ptr %2, i32 0, i32 0
  %3 = load ptr, ptr %_M_node1, align 8
  %cmp = icmp eq ptr %1, %3
  ret i1 %cmp
}

; Function Attrs: mustprogress nounwind uwtable
define linkonce_odr ptr @_ZNSt3mapINSt7__cxx1112basic_stringIcSt11char_traitsIcESaIcEEEN9grpc_core12experimental4JsonESt4lessIS5_ESaISt4pairIKS5_S8_EEE3endEv(ptr noundef nonnull align 8 dereferenceable(48) %this) #6 comdat align 2 {
entry:
  %retval = alloca %"struct.std::_Rb_tree_iterator", align 8
  %this.addr = alloca ptr, align 8
  store ptr %this, ptr %this.addr, align 8
  %this1 = load ptr, ptr %this.addr, align 8
  %_M_t = getelementptr inbounds %"class.std::map", ptr %this1, i32 0, i32 0
  %call = call ptr @_ZNSt8_Rb_treeINSt7__cxx1112basic_stringIcSt11char_traitsIcESaIcEEESt4pairIKS5_N9grpc_core12experimental4JsonEESt10_Select1stISB_ESt4lessIS5_ESaISB_EE3endEv(ptr noundef nonnull align 8 dereferenceable(48) %_M_t) #3
  %coerce.dive = getelementptr inbounds %"struct.std::_Rb_tree_iterator", ptr %retval, i32 0, i32 0
  store ptr %call, ptr %coerce.dive, align 8
  %coerce.dive2 = getelementptr inbounds %"struct.std::_Rb_tree_iterator", ptr %retval, i32 0, i32 0
  %0 = load ptr, ptr %coerce.dive2, align 8
  ret ptr %0
}

; Function Attrs: mustprogress uwtable
define linkonce_odr void @_ZNKSt3mapINSt7__cxx1112basic_stringIcSt11char_traitsIcESaIcEEEN9grpc_core12experimental4JsonESt4lessIS5_ESaISt4pairIKS5_S8_EEE8key_compEv(ptr noundef nonnull align 8 dereferenceable(48) %this) #4 comdat align 2 {
entry:
  %this.addr = alloca ptr, align 8
  store ptr %this, ptr %this.addr, align 8
  %this1 = load ptr, ptr %this.addr, align 8
  %_M_t = getelementptr inbounds %"class.std::map", ptr %this1, i32 0, i32 0
  call void @_ZNKSt8_Rb_treeINSt7__cxx1112basic_stringIcSt11char_traitsIcESaIcEEESt4pairIKS5_N9grpc_core12experimental4JsonEESt10_Select1stISB_ESt4lessIS5_ESaISB_EE8key_compEv(ptr noundef nonnull align 8 dereferenceable(48) %_M_t)
  ret void
}

; Function Attrs: mustprogress nounwind uwtable
define linkonce_odr noundef zeroext i1 @_ZNKSt4lessINSt7__cxx1112basic_stringIcSt11char_traitsIcESaIcEEEEclERKS5_S8_(ptr noundef nonnull align 1 dereferenceable(1) %this, ptr noundef nonnull align 8 dereferenceable(32) %__x, ptr noundef nonnull align 8 dereferenceable(32) %__y) #6 comdat align 2 {
entry:
  %this.addr = alloca ptr, align 8
  %__x.addr = alloca ptr, align 8
  %__y.addr = alloca ptr, align 8
  store ptr %this, ptr %this.addr, align 8
  store ptr %__x, ptr %__x.addr, align 8
  store ptr %__y, ptr %__y.addr, align 8
  %0 = load ptr, ptr %__x.addr, align 8
  %1 = load ptr, ptr %__y.addr, align 8
  %call = call noundef zeroext i1 @_ZStltIcSt11char_traitsIcESaIcEEbRKNSt7__cxx1112basic_stringIT_T0_T1_EESA_(ptr noundef nonnull align 8 dereferenceable(32) %0, ptr noundef nonnull align 8 dereferenceable(32) %1) #3
  ret i1 %call
}

; Function Attrs: mustprogress nounwind uwtable
define linkonce_odr noundef nonnull align 8 dereferenceable(88) ptr @_ZNKSt17_Rb_tree_iteratorISt4pairIKNSt7__cxx1112basic_stringIcSt11char_traitsIcESaIcEEEN9grpc_core12experimental4JsonEEEdeEv(ptr noundef nonnull align 8 dereferenceable(8) %this) #6 comdat align 2 personality ptr @__gxx_personality_v0 {
entry:
  %this.addr = alloca ptr, align 8
  store ptr %this, ptr %this.addr, align 8
  %this1 = load ptr, ptr %this.addr, align 8
  %_M_node = getelementptr inbounds %"struct.std::_Rb_tree_iterator", ptr %this1, i32 0, i32 0
  %0 = load ptr, ptr %_M_node, align 8
  %call = invoke noundef ptr @_ZNSt13_Rb_tree_nodeISt4pairIKNSt7__cxx1112basic_stringIcSt11char_traitsIcESaIcEEEN9grpc_core12experimental4JsonEEE9_M_valptrEv(ptr noundef nonnull align 8 dereferenceable(120) %0)
          to label %invoke.cont unwind label %terminate.lpad

invoke.cont:                                      ; preds = %entry
  ret ptr %call

terminate.lpad:                                   ; preds = %entry
  %1 = landingpad { ptr, i32 }
          catch ptr null
  %2 = extractvalue { ptr, i32 } %1, 0
  call void @__clang_call_terminate(ptr %2) #15
  unreachable
}

; Function Attrs: mustprogress uwtable
define linkonce_odr ptr @_ZNSt8_Rb_treeINSt7__cxx1112basic_stringIcSt11char_traitsIcESaIcEEESt4pairIKS5_N9grpc_core12experimental4JsonEESt10_Select1stISB_ESt4lessIS5_ESaISB_EE22_M_emplace_hint_uniqueIJRKSt21piecewise_construct_tSt5tupleIJOS5_EESM_IJEEEEESt17_Rb_tree_iteratorISB_ESt23_Rb_tree_const_iteratorISB_EDpOT_(ptr noundef nonnull align 8 dereferenceable(48) %this, ptr %__pos.coerce, ptr noundef nonnull align 1 dereferenceable(1) %__args, ptr noundef nonnull align 8 dereferenceable(8) %__args1, ptr noundef nonnull align 1 dereferenceable(1) %__args3) #4 comdat align 2 personality ptr @__gxx_personality_v0 {
entry:
  %retval = alloca %"struct.std::_Rb_tree_iterator", align 8
  %__pos = alloca %"struct.std::_Rb_tree_const_iterator", align 8
  %this.addr = alloca ptr, align 8
  %__args.addr = alloca ptr, align 8
  %__args.addr2 = alloca ptr, align 8
  %__args.addr4 = alloca ptr, align 8
  %__z = alloca %"struct.std::_Rb_tree<std::__cxx11::basic_string<char>, std::pair<const std::__cxx11::basic_string<char>, grpc_core::experimental::Json>, std::_Select1st<std::pair<const std::__cxx11::basic_string<char>, grpc_core::experimental::Json>>, std::less<std::__cxx11::basic_string<char>>>::_Auto_node", align 8
  %__res = alloca %"struct.std::pair.50", align 8
  %agg.tmp = alloca %"struct.std::_Rb_tree_const_iterator", align 8
  %exn.slot = alloca ptr, align 8
  %ehselector.slot = alloca i32, align 4
  %agg.tmp9 = alloca %"struct.std::pair.50", align 8
  %cleanup.dest.slot = alloca i32, align 4
  %coerce.dive = getelementptr inbounds %"struct.std::_Rb_tree_const_iterator", ptr %__pos, i32 0, i32 0
  store ptr %__pos.coerce, ptr %coerce.dive, align 8
  store ptr %this, ptr %this.addr, align 8
  store ptr %__args, ptr %__args.addr, align 8
  store ptr %__args1, ptr %__args.addr2, align 8
  store ptr %__args3, ptr %__args.addr4, align 8
  %this5 = load ptr, ptr %this.addr, align 8
  %0 = load ptr, ptr %__args.addr, align 8
  %1 = load ptr, ptr %__args.addr2, align 8
  %2 = load ptr, ptr %__args.addr4, align 8
  call void @_ZNSt8_Rb_treeINSt7__cxx1112basic_stringIcSt11char_traitsIcESaIcEEESt4pairIKS5_N9grpc_core12experimental4JsonEESt10_Select1stISB_ESt4lessIS5_ESaISB_EE10_Auto_nodeC2IJRKSt21piecewise_construct_tSt5tupleIJOS5_EESN_IJEEEEERSH_DpOT_(ptr noundef nonnull align 8 dereferenceable(16) %__z, ptr noundef nonnull align 8 dereferenceable(48) %this5, ptr noundef nonnull align 1 dereferenceable(1) %0, ptr noundef nonnull align 8 dereferenceable(8) %1, ptr noundef nonnull align 1 dereferenceable(1) %2)
  call void @llvm.memcpy.p0.p0.i64(ptr align 8 %agg.tmp, ptr align 8 %__pos, i64 8, i1 false)
  %call = invoke noundef nonnull align 8 dereferenceable(32) ptr @_ZNKSt8_Rb_treeINSt7__cxx1112basic_stringIcSt11char_traitsIcESaIcEEESt4pairIKS5_N9grpc_core12experimental4JsonEESt10_Select1stISB_ESt4lessIS5_ESaISB_EE10_Auto_node6_M_keyEv(ptr noundef nonnull align 8 dereferenceable(16) %__z)
          to label %invoke.cont unwind label %lpad

invoke.cont:                                      ; preds = %entry
  %coerce.dive6 = getelementptr inbounds %"struct.std::_Rb_tree_const_iterator", ptr %agg.tmp, i32 0, i32 0
  %3 = load ptr, ptr %coerce.dive6, align 8
  %call8 = invoke { ptr, ptr } @_ZNSt8_Rb_treeINSt7__cxx1112basic_stringIcSt11char_traitsIcESaIcEEESt4pairIKS5_N9grpc_core12experimental4JsonEESt10_Select1stISB_ESt4lessIS5_ESaISB_EE29_M_get_insert_hint_unique_posESt23_Rb_tree_const_iteratorISB_ERS7_(ptr noundef nonnull align 8 dereferenceable(48) %this5, ptr %3, ptr noundef nonnull align 8 dereferenceable(32) %call)
          to label %invoke.cont7 unwind label %lpad

invoke.cont7:                                     ; preds = %invoke.cont
  %4 = getelementptr inbounds { ptr, ptr }, ptr %__res, i32 0, i32 0
  %5 = extractvalue { ptr, ptr } %call8, 0
  store ptr %5, ptr %4, align 8
  %6 = getelementptr inbounds { ptr, ptr }, ptr %__res, i32 0, i32 1
  %7 = extractvalue { ptr, ptr } %call8, 1
  store ptr %7, ptr %6, align 8
  %second = getelementptr inbounds %"struct.std::pair.50", ptr %__res, i32 0, i32 1
  %8 = load ptr, ptr %second, align 8
  %tobool = icmp ne ptr %8, null
  br i1 %tobool, label %if.then, label %if.end

if.then:                                          ; preds = %invoke.cont7
  call void @llvm.memcpy.p0.p0.i64(ptr align 8 %agg.tmp9, ptr align 8 %__res, i64 16, i1 false)
  %9 = getelementptr inbounds { ptr, ptr }, ptr %agg.tmp9, i32 0, i32 0
  %10 = load ptr, ptr %9, align 8
  %11 = getelementptr inbounds { ptr, ptr }, ptr %agg.tmp9, i32 0, i32 1
  %12 = load ptr, ptr %11, align 8
  %call11 = invoke ptr @_ZNSt8_Rb_treeINSt7__cxx1112basic_stringIcSt11char_traitsIcESaIcEEESt4pairIKS5_N9grpc_core12experimental4JsonEESt10_Select1stISB_ESt4lessIS5_ESaISB_EE10_Auto_node9_M_insertES6_IPSt18_Rb_tree_node_baseSK_E(ptr noundef nonnull align 8 dereferenceable(16) %__z, ptr %10, ptr %12)
          to label %invoke.cont10 unwind label %lpad

invoke.cont10:                                    ; preds = %if.then
  %coerce.dive12 = getelementptr inbounds %"struct.std::_Rb_tree_iterator", ptr %retval, i32 0, i32 0
  store ptr %call11, ptr %coerce.dive12, align 8
  store i32 1, ptr %cleanup.dest.slot, align 4
  br label %cleanup

lpad:                                             ; preds = %if.then, %invoke.cont, %entry
  %13 = landingpad { ptr, i32 }
          cleanup
  %14 = extractvalue { ptr, i32 } %13, 0
  store ptr %14, ptr %exn.slot, align 8
  %15 = extractvalue { ptr, i32 } %13, 1
  store i32 %15, ptr %ehselector.slot, align 4
  call void @_ZNSt8_Rb_treeINSt7__cxx1112basic_stringIcSt11char_traitsIcESaIcEEESt4pairIKS5_N9grpc_core12experimental4JsonEESt10_Select1stISB_ESt4lessIS5_ESaISB_EE10_Auto_nodeD2Ev(ptr noundef nonnull align 8 dereferenceable(16) %__z) #3
  br label %eh.resume

if.end:                                           ; preds = %invoke.cont7
  %first = getelementptr inbounds %"struct.std::pair.50", ptr %__res, i32 0, i32 0
  %16 = load ptr, ptr %first, align 8
  call void @_ZNSt17_Rb_tree_iteratorISt4pairIKNSt7__cxx1112basic_stringIcSt11char_traitsIcESaIcEEEN9grpc_core12experimental4JsonEEEC2EPSt18_Rb_tree_node_base(ptr noundef nonnull align 8 dereferenceable(8) %retval, ptr noundef %16) #3
  store i32 1, ptr %cleanup.dest.slot, align 4
  br label %cleanup

cleanup:                                          ; preds = %if.end, %invoke.cont10
  call void @_ZNSt8_Rb_treeINSt7__cxx1112basic_stringIcSt11char_traitsIcESaIcEEESt4pairIKS5_N9grpc_core12experimental4JsonEESt10_Select1stISB_ESt4lessIS5_ESaISB_EE10_Auto_nodeD2Ev(ptr noundef nonnull align 8 dereferenceable(16) %__z) #3
  %coerce.dive13 = getelementptr inbounds %"struct.std::_Rb_tree_iterator", ptr %retval, i32 0, i32 0
  %17 = load ptr, ptr %coerce.dive13, align 8
  ret ptr %17

eh.resume:                                        ; preds = %lpad
  %exn = load ptr, ptr %exn.slot, align 8
  %sel = load i32, ptr %ehselector.slot, align 4
  %lpad.val = insertvalue { ptr, i32 } poison, ptr %exn, 0
  %lpad.val14 = insertvalue { ptr, i32 } %lpad.val, i32 %sel, 1
  resume { ptr, i32 } %lpad.val14
}

; Function Attrs: mustprogress nounwind uwtable
define linkonce_odr void @_ZNSt23_Rb_tree_const_iteratorISt4pairIKNSt7__cxx1112basic_stringIcSt11char_traitsIcESaIcEEEN9grpc_core12experimental4JsonEEEC2ERKSt17_Rb_tree_iteratorISB_E(ptr noundef nonnull align 8 dereferenceable(8) %this, ptr noundef nonnull align 8 dereferenceable(8) %__it) unnamed_addr #6 comdat align 2 {
entry:
  %this.addr = alloca ptr, align 8
  %__it.addr = alloca ptr, align 8
  store ptr %this, ptr %this.addr, align 8
  store ptr %__it, ptr %__it.addr, align 8
  %this1 = load ptr, ptr %this.addr, align 8
  %_M_node = getelementptr inbounds %"struct.std::_Rb_tree_const_iterator", ptr %this1, i32 0, i32 0
  %0 = load ptr, ptr %__it.addr, align 8
  %_M_node2 = getelementptr inbounds %"struct.std::_Rb_tree_iterator", ptr %0, i32 0, i32 0
  %1 = load ptr, ptr %_M_node2, align 8
  store ptr %1, ptr %_M_node, align 8
  ret void
}

; Function Attrs: mustprogress nounwind uwtable
define linkonce_odr void @_ZSt16forward_as_tupleIJNSt7__cxx1112basic_stringIcSt11char_traitsIcESaIcEEEEESt5tupleIJDpOT_EES9_(ptr noalias sret(%"class.std::tuple") align 8 %agg.result, ptr noundef nonnull align 8 dereferenceable(32) %__args) #6 comdat {
entry:
  %result.ptr = alloca ptr, align 8
  %__args.addr = alloca ptr, align 8
  store ptr %agg.result, ptr %result.ptr, align 8
  store ptr %__args, ptr %__args.addr, align 8
  %0 = load ptr, ptr %__args.addr, align 8
  call void @_ZNSt5tupleIJONSt7__cxx1112basic_stringIcSt11char_traitsIcESaIcEEEEEC2IJS5_ELb1ETnNSt9enable_ifIXclsr4_TCCIXT0_EEE29__is_implicitly_constructibleIDpT_EEEbE4typeELb1EEEDpOSA_(ptr noundef nonnull align 8 dereferenceable(8) %agg.result, ptr noundef nonnull align 8 dereferenceable(32) %0) #3
  ret void
}

; Function Attrs: mustprogress uwtable
define linkonce_odr ptr @_ZNSt8_Rb_treeINSt7__cxx1112basic_stringIcSt11char_traitsIcESaIcEEESt4pairIKS5_N9grpc_core12experimental4JsonEESt10_Select1stISB_ESt4lessIS5_ESaISB_EE11lower_boundERS7_(ptr noundef nonnull align 8 dereferenceable(48) %this, ptr noundef nonnull align 8 dereferenceable(32) %__k) #4 comdat align 2 {
entry:
  %retval = alloca %"struct.std::_Rb_tree_iterator", align 8
  %this.addr = alloca ptr, align 8
  %__k.addr = alloca ptr, align 8
  store ptr %this, ptr %this.addr, align 8
  store ptr %__k, ptr %__k.addr, align 8
  %this1 = load ptr, ptr %this.addr, align 8
  %call = call noundef ptr @_ZNSt8_Rb_treeINSt7__cxx1112basic_stringIcSt11char_traitsIcESaIcEEESt4pairIKS5_N9grpc_core12experimental4JsonEESt10_Select1stISB_ESt4lessIS5_ESaISB_EE8_M_beginEv(ptr noundef nonnull align 8 dereferenceable(48) %this1) #3
  %call2 = call noundef ptr @_ZNSt8_Rb_treeINSt7__cxx1112basic_stringIcSt11char_traitsIcESaIcEEESt4pairIKS5_N9grpc_core12experimental4JsonEESt10_Select1stISB_ESt4lessIS5_ESaISB_EE6_M_endEv(ptr noundef nonnull align 8 dereferenceable(48) %this1) #3
  %0 = load ptr, ptr %__k.addr, align 8
  %call3 = call ptr @_ZNSt8_Rb_treeINSt7__cxx1112basic_stringIcSt11char_traitsIcESaIcEEESt4pairIKS5_N9grpc_core12experimental4JsonEESt10_Select1stISB_ESt4lessIS5_ESaISB_EE14_M_lower_boundEPSt13_Rb_tree_nodeISB_EPSt18_Rb_tree_node_baseRS7_(ptr noundef nonnull align 8 dereferenceable(48) %this1, ptr noundef %call, ptr noundef %call2, ptr noundef nonnull align 8 dereferenceable(32) %0)
  %coerce.dive = getelementptr inbounds %"struct.std::_Rb_tree_iterator", ptr %retval, i32 0, i32 0
  store ptr %call3, ptr %coerce.dive, align 8
  %coerce.dive4 = getelementptr inbounds %"struct.std::_Rb_tree_iterator", ptr %retval, i32 0, i32 0
  %1 = load ptr, ptr %coerce.dive4, align 8
  ret ptr %1
}

; Function Attrs: mustprogress uwtable
define linkonce_odr ptr @_ZNSt8_Rb_treeINSt7__cxx1112basic_stringIcSt11char_traitsIcESaIcEEESt4pairIKS5_N9grpc_core12experimental4JsonEESt10_Select1stISB_ESt4lessIS5_ESaISB_EE14_M_lower_boundEPSt13_Rb_tree_nodeISB_EPSt18_Rb_tree_node_baseRS7_(ptr noundef nonnull align 8 dereferenceable(48) %this, ptr noundef %__x, ptr noundef %__y, ptr noundef nonnull align 8 dereferenceable(32) %__k) #4 comdat align 2 {
entry:
  %retval = alloca %"struct.std::_Rb_tree_iterator", align 8
  %this.addr = alloca ptr, align 8
  %__x.addr = alloca ptr, align 8
  %__y.addr = alloca ptr, align 8
  %__k.addr = alloca ptr, align 8
  store ptr %this, ptr %this.addr, align 8
  store ptr %__x, ptr %__x.addr, align 8
  store ptr %__y, ptr %__y.addr, align 8
  store ptr %__k, ptr %__k.addr, align 8
  %this1 = load ptr, ptr %this.addr, align 8
  br label %while.cond

while.cond:                                       ; preds = %if.end, %entry
  %0 = load ptr, ptr %__x.addr, align 8
  %cmp = icmp ne ptr %0, null
  br i1 %cmp, label %while.body, label %while.end

while.body:                                       ; preds = %while.cond
  %_M_impl = getelementptr inbounds %"class.std::_Rb_tree", ptr %this1, i32 0, i32 0
  %_M_key_compare = getelementptr inbounds %"struct.std::_Rb_tree_key_compare", ptr %_M_impl, i32 0, i32 0
  %1 = load ptr, ptr %__x.addr, align 8
  %call = call noundef nonnull align 8 dereferenceable(32) ptr @_ZNSt8_Rb_treeINSt7__cxx1112basic_stringIcSt11char_traitsIcESaIcEEESt4pairIKS5_N9grpc_core12experimental4JsonEESt10_Select1stISB_ESt4lessIS5_ESaISB_EE6_S_keyEPKSt13_Rb_tree_nodeISB_E(ptr noundef %1)
  %2 = load ptr, ptr %__k.addr, align 8
  %call2 = call noundef zeroext i1 @_ZNKSt4lessINSt7__cxx1112basic_stringIcSt11char_traitsIcESaIcEEEEclERKS5_S8_(ptr noundef nonnull align 1 dereferenceable(1) %_M_key_compare, ptr noundef nonnull align 8 dereferenceable(32) %call, ptr noundef nonnull align 8 dereferenceable(32) %2)
  br i1 %call2, label %if.else, label %if.then

if.then:                                          ; preds = %while.body
  %3 = load ptr, ptr %__x.addr, align 8
  store ptr %3, ptr %__y.addr, align 8
  %4 = load ptr, ptr %__x.addr, align 8
  %call3 = call noundef ptr @_ZNSt8_Rb_treeINSt7__cxx1112basic_stringIcSt11char_traitsIcESaIcEEESt4pairIKS5_N9grpc_core12experimental4JsonEESt10_Select1stISB_ESt4lessIS5_ESaISB_EE7_S_leftEPSt18_Rb_tree_node_base(ptr noundef %4) #3
  store ptr %call3, ptr %__x.addr, align 8
  br label %if.end

if.else:                                          ; preds = %while.body
  %5 = load ptr, ptr %__x.addr, align 8
  %call4 = call noundef ptr @_ZNSt8_Rb_treeINSt7__cxx1112basic_stringIcSt11char_traitsIcESaIcEEESt4pairIKS5_N9grpc_core12experimental4JsonEESt10_Select1stISB_ESt4lessIS5_ESaISB_EE8_S_rightEPSt18_Rb_tree_node_base(ptr noundef %5) #3
  store ptr %call4, ptr %__x.addr, align 8
  br label %if.end

if.end:                                           ; preds = %if.else, %if.then
  br label %while.cond, !llvm.loop !6

while.end:                                        ; preds = %while.cond
  %6 = load ptr, ptr %__y.addr, align 8
  call void @_ZNSt17_Rb_tree_iteratorISt4pairIKNSt7__cxx1112basic_stringIcSt11char_traitsIcESaIcEEEN9grpc_core12experimental4JsonEEEC2EPSt18_Rb_tree_node_base(ptr noundef nonnull align 8 dereferenceable(8) %retval, ptr noundef %6) #3
  %coerce.dive = getelementptr inbounds %"struct.std::_Rb_tree_iterator", ptr %retval, i32 0, i32 0
  %7 = load ptr, ptr %coerce.dive, align 8
  ret ptr %7
}

; Function Attrs: mustprogress nounwind uwtable
define linkonce_odr noundef ptr @_ZNSt8_Rb_treeINSt7__cxx1112basic_stringIcSt11char_traitsIcESaIcEEESt4pairIKS5_N9grpc_core12experimental4JsonEESt10_Select1stISB_ESt4lessIS5_ESaISB_EE8_M_beginEv(ptr noundef nonnull align 8 dereferenceable(48) %this) #6 comdat align 2 {
entry:
  %this.addr = alloca ptr, align 8
  store ptr %this, ptr %this.addr, align 8
  %this1 = load ptr, ptr %this.addr, align 8
  %call = call noundef ptr @_ZNKSt8_Rb_treeINSt7__cxx1112basic_stringIcSt11char_traitsIcESaIcEEESt4pairIKS5_N9grpc_core12experimental4JsonEESt10_Select1stISB_ESt4lessIS5_ESaISB_EE9_M_mbeginEv(ptr noundef nonnull align 8 dereferenceable(48) %this1) #3
  ret ptr %call
}

; Function Attrs: mustprogress nounwind uwtable
define linkonce_odr noundef ptr @_ZNSt8_Rb_treeINSt7__cxx1112basic_stringIcSt11char_traitsIcESaIcEEESt4pairIKS5_N9grpc_core12experimental4JsonEESt10_Select1stISB_ESt4lessIS5_ESaISB_EE6_M_endEv(ptr noundef nonnull align 8 dereferenceable(48) %this) #6 comdat align 2 {
entry:
  %this.addr = alloca ptr, align 8
  store ptr %this, ptr %this.addr, align 8
  %this1 = load ptr, ptr %this.addr, align 8
  %_M_impl = getelementptr inbounds %"class.std::_Rb_tree", ptr %this1, i32 0, i32 0
  %add.ptr = getelementptr inbounds i8, ptr %_M_impl, i64 8
  %_M_header = getelementptr inbounds %"struct.std::_Rb_tree_header", ptr %add.ptr, i32 0, i32 0
  ret ptr %_M_header
}

; Function Attrs: mustprogress uwtable
define linkonce_odr noundef nonnull align 8 dereferenceable(32) ptr @_ZNSt8_Rb_treeINSt7__cxx1112basic_stringIcSt11char_traitsIcESaIcEEESt4pairIKS5_N9grpc_core12experimental4JsonEESt10_Select1stISB_ESt4lessIS5_ESaISB_EE6_S_keyEPKSt13_Rb_tree_nodeISB_E(ptr noundef %__x) #4 comdat align 2 {
entry:
  %__x.addr = alloca ptr, align 8
  %ref.tmp = alloca %"struct.std::_Select1st", align 1
  store ptr %__x, ptr %__x.addr, align 8
  %0 = load ptr, ptr %__x.addr, align 8
  %call = call noundef ptr @_ZNKSt13_Rb_tree_nodeISt4pairIKNSt7__cxx1112basic_stringIcSt11char_traitsIcESaIcEEEN9grpc_core12experimental4JsonEEE9_M_valptrEv(ptr noundef nonnull align 8 dereferenceable(120) %0)
  %call1 = call noundef nonnull align 8 dereferenceable(32) ptr @_ZNKSt10_Select1stISt4pairIKNSt7__cxx1112basic_stringIcSt11char_traitsIcESaIcEEEN9grpc_core12experimental4JsonEEEclERKSB_(ptr noundef nonnull align 1 dereferenceable(1) %ref.tmp, ptr noundef nonnull align 8 dereferenceable(88) %call)
  ret ptr %call1
}

; Function Attrs: mustprogress nounwind uwtable
define linkonce_odr noundef ptr @_ZNSt8_Rb_treeINSt7__cxx1112basic_stringIcSt11char_traitsIcESaIcEEESt4pairIKS5_N9grpc_core12experimental4JsonEESt10_Select1stISB_ESt4lessIS5_ESaISB_EE7_S_leftEPSt18_Rb_tree_node_base(ptr noundef %__x) #6 comdat align 2 {
entry:
  %__x.addr = alloca ptr, align 8
  store ptr %__x, ptr %__x.addr, align 8
  %0 = load ptr, ptr %__x.addr, align 8
  %_M_left = getelementptr inbounds %"struct.std::_Rb_tree_node_base", ptr %0, i32 0, i32 2
  %1 = load ptr, ptr %_M_left, align 8
  ret ptr %1
}

; Function Attrs: mustprogress nounwind uwtable
define linkonce_odr noundef ptr @_ZNSt8_Rb_treeINSt7__cxx1112basic_stringIcSt11char_traitsIcESaIcEEESt4pairIKS5_N9grpc_core12experimental4JsonEESt10_Select1stISB_ESt4lessIS5_ESaISB_EE8_S_rightEPSt18_Rb_tree_node_base(ptr noundef %__x) #6 comdat align 2 {
entry:
  %__x.addr = alloca ptr, align 8
  store ptr %__x, ptr %__x.addr, align 8
  %0 = load ptr, ptr %__x.addr, align 8
  %_M_right = getelementptr inbounds %"struct.std::_Rb_tree_node_base", ptr %0, i32 0, i32 3
  %1 = load ptr, ptr %_M_right, align 8
  ret ptr %1
}

; Function Attrs: mustprogress nounwind uwtable
define linkonce_odr void @_ZNSt17_Rb_tree_iteratorISt4pairIKNSt7__cxx1112basic_stringIcSt11char_traitsIcESaIcEEEN9grpc_core12experimental4JsonEEEC2EPSt18_Rb_tree_node_base(ptr noundef nonnull align 8 dereferenceable(8) %this, ptr noundef %__x) unnamed_addr #6 comdat align 2 {
entry:
  %this.addr = alloca ptr, align 8
  %__x.addr = alloca ptr, align 8
  store ptr %this, ptr %this.addr, align 8
  store ptr %__x, ptr %__x.addr, align 8
  %this1 = load ptr, ptr %this.addr, align 8
  %_M_node = getelementptr inbounds %"struct.std::_Rb_tree_iterator", ptr %this1, i32 0, i32 0
  %0 = load ptr, ptr %__x.addr, align 8
  store ptr %0, ptr %_M_node, align 8
  ret void
}

; Function Attrs: mustprogress nounwind uwtable
define linkonce_odr noundef nonnull align 8 dereferenceable(32) ptr @_ZNKSt10_Select1stISt4pairIKNSt7__cxx1112basic_stringIcSt11char_traitsIcESaIcEEEN9grpc_core12experimental4JsonEEEclERKSB_(ptr noundef nonnull align 1 dereferenceable(1) %this, ptr noundef nonnull align 8 dereferenceable(88) %__x) #6 comdat align 2 {
entry:
  %this.addr = alloca ptr, align 8
  %__x.addr = alloca ptr, align 8
  store ptr %this, ptr %this.addr, align 8
  store ptr %__x, ptr %__x.addr, align 8
  %0 = load ptr, ptr %__x.addr, align 8
  %first = getelementptr inbounds %"struct.std::pair", ptr %0, i32 0, i32 0
  ret ptr %first
}

; Function Attrs: mustprogress nounwind uwtable
define linkonce_odr noundef ptr @_ZNKSt13_Rb_tree_nodeISt4pairIKNSt7__cxx1112basic_stringIcSt11char_traitsIcESaIcEEEN9grpc_core12experimental4JsonEEE9_M_valptrEv(ptr noundef nonnull align 8 dereferenceable(120) %this) #6 comdat align 2 {
entry:
  %this.addr = alloca ptr, align 8
  store ptr %this, ptr %this.addr, align 8
  %this1 = load ptr, ptr %this.addr, align 8
  %_M_storage = getelementptr inbounds %"struct.std::_Rb_tree_node", ptr %this1, i32 0, i32 1
  %call = call noundef ptr @_ZNK9__gnu_cxx16__aligned_membufISt4pairIKNSt7__cxx1112basic_stringIcSt11char_traitsIcESaIcEEEN9grpc_core12experimental4JsonEEE6_M_ptrEv(ptr noundef nonnull align 8 dereferenceable(88) %_M_storage) #3
  ret ptr %call
}

; Function Attrs: mustprogress nounwind uwtable
define linkonce_odr noundef ptr @_ZNK9__gnu_cxx16__aligned_membufISt4pairIKNSt7__cxx1112basic_stringIcSt11char_traitsIcESaIcEEEN9grpc_core12experimental4JsonEEE6_M_ptrEv(ptr noundef nonnull align 8 dereferenceable(88) %this) #6 comdat align 2 {
entry:
  %this.addr = alloca ptr, align 8
  store ptr %this, ptr %this.addr, align 8
  %this1 = load ptr, ptr %this.addr, align 8
  %call = call noundef ptr @_ZNK9__gnu_cxx16__aligned_membufISt4pairIKNSt7__cxx1112basic_stringIcSt11char_traitsIcESaIcEEEN9grpc_core12experimental4JsonEEE7_M_addrEv(ptr noundef nonnull align 8 dereferenceable(88) %this1) #3
  ret ptr %call
}

; Function Attrs: mustprogress nounwind uwtable
define linkonce_odr noundef ptr @_ZNK9__gnu_cxx16__aligned_membufISt4pairIKNSt7__cxx1112basic_stringIcSt11char_traitsIcESaIcEEEN9grpc_core12experimental4JsonEEE7_M_addrEv(ptr noundef nonnull align 8 dereferenceable(88) %this) #6 comdat align 2 {
entry:
  %this.addr = alloca ptr, align 8
  store ptr %this, ptr %this.addr, align 8
  %this1 = load ptr, ptr %this.addr, align 8
  %_M_storage = getelementptr inbounds %"struct.__gnu_cxx::__aligned_membuf.49", ptr %this1, i32 0, i32 0
  ret ptr %_M_storage
}

; Function Attrs: mustprogress nounwind uwtable
define linkonce_odr noundef ptr @_ZNKSt8_Rb_treeINSt7__cxx1112basic_stringIcSt11char_traitsIcESaIcEEESt4pairIKS5_N9grpc_core12experimental4JsonEESt10_Select1stISB_ESt4lessIS5_ESaISB_EE9_M_mbeginEv(ptr noundef nonnull align 8 dereferenceable(48) %this) #6 comdat align 2 {
entry:
  %this.addr = alloca ptr, align 8
  store ptr %this, ptr %this.addr, align 8
  %this1 = load ptr, ptr %this.addr, align 8
  %_M_impl = getelementptr inbounds %"class.std::_Rb_tree", ptr %this1, i32 0, i32 0
  %add.ptr = getelementptr inbounds i8, ptr %_M_impl, i64 8
  %_M_header = getelementptr inbounds %"struct.std::_Rb_tree_header", ptr %add.ptr, i32 0, i32 0
  %_M_parent = getelementptr inbounds %"struct.std::_Rb_tree_node_base", ptr %_M_header, i32 0, i32 1
  %0 = load ptr, ptr %_M_parent, align 8
  ret ptr %0
}

; Function Attrs: mustprogress nounwind uwtable
define linkonce_odr ptr @_ZNSt8_Rb_treeINSt7__cxx1112basic_stringIcSt11char_traitsIcESaIcEEESt4pairIKS5_N9grpc_core12experimental4JsonEESt10_Select1stISB_ESt4lessIS5_ESaISB_EE3endEv(ptr noundef nonnull align 8 dereferenceable(48) %this) #6 comdat align 2 {
entry:
  %retval = alloca %"struct.std::_Rb_tree_iterator", align 8
  %this.addr = alloca ptr, align 8
  store ptr %this, ptr %this.addr, align 8
  %this1 = load ptr, ptr %this.addr, align 8
  %_M_impl = getelementptr inbounds %"class.std::_Rb_tree", ptr %this1, i32 0, i32 0
  %add.ptr = getelementptr inbounds i8, ptr %_M_impl, i64 8
  %_M_header = getelementptr inbounds %"struct.std::_Rb_tree_header", ptr %add.ptr, i32 0, i32 0
  call void @_ZNSt17_Rb_tree_iteratorISt4pairIKNSt7__cxx1112basic_stringIcSt11char_traitsIcESaIcEEEN9grpc_core12experimental4JsonEEEC2EPSt18_Rb_tree_node_base(ptr noundef nonnull align 8 dereferenceable(8) %retval, ptr noundef %_M_header) #3
  %coerce.dive = getelementptr inbounds %"struct.std::_Rb_tree_iterator", ptr %retval, i32 0, i32 0
  %0 = load ptr, ptr %coerce.dive, align 8
  ret ptr %0
}

; Function Attrs: mustprogress nounwind uwtable
define linkonce_odr void @_ZNKSt8_Rb_treeINSt7__cxx1112basic_stringIcSt11char_traitsIcESaIcEEESt4pairIKS5_N9grpc_core12experimental4JsonEESt10_Select1stISB_ESt4lessIS5_ESaISB_EE8key_compEv(ptr noundef nonnull align 8 dereferenceable(48) %this) #6 comdat align 2 {
entry:
  %this.addr = alloca ptr, align 8
  store ptr %this, ptr %this.addr, align 8
  ret void
}

; Function Attrs: mustprogress nounwind uwtable
define linkonce_odr noundef zeroext i1 @_ZStltIcSt11char_traitsIcESaIcEEbRKNSt7__cxx1112basic_stringIT_T0_T1_EESA_(ptr noundef nonnull align 8 dereferenceable(32) %__lhs, ptr noundef nonnull align 8 dereferenceable(32) %__rhs) #6 comdat personality ptr @__gxx_personality_v0 {
entry:
  %__lhs.addr = alloca ptr, align 8
  %__rhs.addr = alloca ptr, align 8
  store ptr %__lhs, ptr %__lhs.addr, align 8
  store ptr %__rhs, ptr %__rhs.addr, align 8
  %0 = load ptr, ptr %__lhs.addr, align 8
  %1 = load ptr, ptr %__rhs.addr, align 8
  %call = invoke noundef i32 @_ZNKSt7__cxx1112basic_stringIcSt11char_traitsIcESaIcEE7compareERKS4_(ptr noundef nonnull align 8 dereferenceable(32) %0, ptr noundef nonnull align 8 dereferenceable(32) %1)
          to label %invoke.cont unwind label %terminate.lpad

invoke.cont:                                      ; preds = %entry
  %cmp = icmp slt i32 %call, 0
  ret i1 %cmp

terminate.lpad:                                   ; preds = %entry
  %2 = landingpad { ptr, i32 }
          catch ptr null
  %3 = extractvalue { ptr, i32 } %2, 0
  call void @__clang_call_terminate(ptr %3) #15
  unreachable
}

declare noundef i32 @_ZNKSt7__cxx1112basic_stringIcSt11char_traitsIcESaIcEE7compareERKS4_(ptr noundef nonnull align 8 dereferenceable(32), ptr noundef nonnull align 8 dereferenceable(32)) #1

; Function Attrs: mustprogress nounwind uwtable
define linkonce_odr noundef ptr @_ZNSt13_Rb_tree_nodeISt4pairIKNSt7__cxx1112basic_stringIcSt11char_traitsIcESaIcEEEN9grpc_core12experimental4JsonEEE9_M_valptrEv(ptr noundef nonnull align 8 dereferenceable(120) %this) #6 comdat align 2 {
entry:
  %this.addr = alloca ptr, align 8
  store ptr %this, ptr %this.addr, align 8
  %this1 = load ptr, ptr %this.addr, align 8
  %_M_storage = getelementptr inbounds %"struct.std::_Rb_tree_node", ptr %this1, i32 0, i32 1
  %call = call noundef ptr @_ZN9__gnu_cxx16__aligned_membufISt4pairIKNSt7__cxx1112basic_stringIcSt11char_traitsIcESaIcEEEN9grpc_core12experimental4JsonEEE6_M_ptrEv(ptr noundef nonnull align 8 dereferenceable(88) %_M_storage) #3
  ret ptr %call
}

; Function Attrs: mustprogress nounwind uwtable
define linkonce_odr noundef ptr @_ZN9__gnu_cxx16__aligned_membufISt4pairIKNSt7__cxx1112basic_stringIcSt11char_traitsIcESaIcEEEN9grpc_core12experimental4JsonEEE6_M_ptrEv(ptr noundef nonnull align 8 dereferenceable(88) %this) #6 comdat align 2 {
entry:
  %this.addr = alloca ptr, align 8
  store ptr %this, ptr %this.addr, align 8
  %this1 = load ptr, ptr %this.addr, align 8
  %call = call noundef ptr @_ZN9__gnu_cxx16__aligned_membufISt4pairIKNSt7__cxx1112basic_stringIcSt11char_traitsIcESaIcEEEN9grpc_core12experimental4JsonEEE7_M_addrEv(ptr noundef nonnull align 8 dereferenceable(88) %this1) #3
  ret ptr %call
}

; Function Attrs: mustprogress nounwind uwtable
define linkonce_odr noundef ptr @_ZN9__gnu_cxx16__aligned_membufISt4pairIKNSt7__cxx1112basic_stringIcSt11char_traitsIcESaIcEEEN9grpc_core12experimental4JsonEEE7_M_addrEv(ptr noundef nonnull align 8 dereferenceable(88) %this) #6 comdat align 2 {
entry:
  %this.addr = alloca ptr, align 8
  store ptr %this, ptr %this.addr, align 8
  %this1 = load ptr, ptr %this.addr, align 8
  %_M_storage = getelementptr inbounds %"struct.__gnu_cxx::__aligned_membuf.49", ptr %this1, i32 0, i32 0
  ret ptr %_M_storage
}

; Function Attrs: mustprogress uwtable
define linkonce_odr void @_ZNSt8_Rb_treeINSt7__cxx1112basic_stringIcSt11char_traitsIcESaIcEEESt4pairIKS5_N9grpc_core12experimental4JsonEESt10_Select1stISB_ESt4lessIS5_ESaISB_EE10_Auto_nodeC2IJRKSt21piecewise_construct_tSt5tupleIJOS5_EESN_IJEEEEERSH_DpOT_(ptr noundef nonnull align 8 dereferenceable(16) %this, ptr noundef nonnull align 8 dereferenceable(48) %__t, ptr noundef nonnull align 1 dereferenceable(1) %__args, ptr noundef nonnull align 8 dereferenceable(8) %__args1, ptr noundef nonnull align 1 dereferenceable(1) %__args3) unnamed_addr #4 comdat align 2 {
entry:
  %this.addr = alloca ptr, align 8
  %__t.addr = alloca ptr, align 8
  %__args.addr = alloca ptr, align 8
  %__args.addr2 = alloca ptr, align 8
  %__args.addr4 = alloca ptr, align 8
  store ptr %this, ptr %this.addr, align 8
  store ptr %__t, ptr %__t.addr, align 8
  store ptr %__args, ptr %__args.addr, align 8
  store ptr %__args1, ptr %__args.addr2, align 8
  store ptr %__args3, ptr %__args.addr4, align 8
  %this5 = load ptr, ptr %this.addr, align 8
  %_M_t = getelementptr inbounds %"struct.std::_Rb_tree<std::__cxx11::basic_string<char>, std::pair<const std::__cxx11::basic_string<char>, grpc_core::experimental::Json>, std::_Select1st<std::pair<const std::__cxx11::basic_string<char>, grpc_core::experimental::Json>>, std::less<std::__cxx11::basic_string<char>>>::_Auto_node", ptr %this5, i32 0, i32 0
  %0 = load ptr, ptr %__t.addr, align 8
  store ptr %0, ptr %_M_t, align 8
  %_M_node = getelementptr inbounds %"struct.std::_Rb_tree<std::__cxx11::basic_string<char>, std::pair<const std::__cxx11::basic_string<char>, grpc_core::experimental::Json>, std::_Select1st<std::pair<const std::__cxx11::basic_string<char>, grpc_core::experimental::Json>>, std::less<std::__cxx11::basic_string<char>>>::_Auto_node", ptr %this5, i32 0, i32 1
  %1 = load ptr, ptr %__t.addr, align 8
  %2 = load ptr, ptr %__args.addr, align 8
  %3 = load ptr, ptr %__args.addr2, align 8
  %4 = load ptr, ptr %__args.addr4, align 8
  %call = call noundef ptr @_ZNSt8_Rb_treeINSt7__cxx1112basic_stringIcSt11char_traitsIcESaIcEEESt4pairIKS5_N9grpc_core12experimental4JsonEESt10_Select1stISB_ESt4lessIS5_ESaISB_EE14_M_create_nodeIJRKSt21piecewise_construct_tSt5tupleIJOS5_EESM_IJEEEEEPSt13_Rb_tree_nodeISB_EDpOT_(ptr noundef nonnull align 8 dereferenceable(48) %1, ptr noundef nonnull align 1 dereferenceable(1) %2, ptr noundef nonnull align 8 dereferenceable(8) %3, ptr noundef nonnull align 1 dereferenceable(1) %4)
  store ptr %call, ptr %_M_node, align 8
  ret void
}

; Function Attrs: mustprogress uwtable
define linkonce_odr { ptr, ptr } @_ZNSt8_Rb_treeINSt7__cxx1112basic_stringIcSt11char_traitsIcESaIcEEESt4pairIKS5_N9grpc_core12experimental4JsonEESt10_Select1stISB_ESt4lessIS5_ESaISB_EE29_M_get_insert_hint_unique_posESt23_Rb_tree_const_iteratorISB_ERS7_(ptr noundef nonnull align 8 dereferenceable(48) %this, ptr %__position.coerce, ptr noundef nonnull align 8 dereferenceable(32) %__k) #4 comdat align 2 {
entry:
  %retval = alloca %"struct.std::pair.50", align 8
  %__position = alloca %"struct.std::_Rb_tree_const_iterator", align 8
  %this.addr = alloca ptr, align 8
  %__k.addr = alloca ptr, align 8
  %__pos = alloca %"struct.std::_Rb_tree_iterator", align 8
  %ref.tmp = alloca ptr, align 8
  %__before = alloca %"struct.std::_Rb_tree_iterator", align 8
  %ref.tmp37 = alloca ptr, align 8
  %__after = alloca %"struct.std::_Rb_tree_iterator", align 8
  %ref.tmp55 = alloca ptr, align 8
  %ref.tmp69 = alloca ptr, align 8
  %ref.tmp78 = alloca ptr, align 8
  %coerce.dive = getelementptr inbounds %"struct.std::_Rb_tree_const_iterator", ptr %__position, i32 0, i32 0
  store ptr %__position.coerce, ptr %coerce.dive, align 8
  store ptr %this, ptr %this.addr, align 8
  store ptr %__k, ptr %__k.addr, align 8
  %this1 = load ptr, ptr %this.addr, align 8
  %call = call ptr @_ZNKSt23_Rb_tree_const_iteratorISt4pairIKNSt7__cxx1112basic_stringIcSt11char_traitsIcESaIcEEEN9grpc_core12experimental4JsonEEE13_M_const_castEv(ptr noundef nonnull align 8 dereferenceable(8) %__position) #3
  %coerce.dive2 = getelementptr inbounds %"struct.std::_Rb_tree_iterator", ptr %__pos, i32 0, i32 0
  store ptr %call, ptr %coerce.dive2, align 8
  %_M_node = getelementptr inbounds %"struct.std::_Rb_tree_iterator", ptr %__pos, i32 0, i32 0
  %0 = load ptr, ptr %_M_node, align 8
  %call3 = call noundef ptr @_ZNSt8_Rb_treeINSt7__cxx1112basic_stringIcSt11char_traitsIcESaIcEEESt4pairIKS5_N9grpc_core12experimental4JsonEESt10_Select1stISB_ESt4lessIS5_ESaISB_EE6_M_endEv(ptr noundef nonnull align 8 dereferenceable(48) %this1) #3
  %cmp = icmp eq ptr %0, %call3
  br i1 %cmp, label %if.then, label %if.else12

if.then:                                          ; preds = %entry
  %call4 = call noundef i64 @_ZNKSt8_Rb_treeINSt7__cxx1112basic_stringIcSt11char_traitsIcESaIcEEESt4pairIKS5_N9grpc_core12experimental4JsonEESt10_Select1stISB_ESt4lessIS5_ESaISB_EE4sizeEv(ptr noundef nonnull align 8 dereferenceable(48) %this1) #3
  %cmp5 = icmp ugt i64 %call4, 0
  br i1 %cmp5, label %land.lhs.true, label %if.else

land.lhs.true:                                    ; preds = %if.then
  %_M_impl = getelementptr inbounds %"class.std::_Rb_tree", ptr %this1, i32 0, i32 0
  %_M_key_compare = getelementptr inbounds %"struct.std::_Rb_tree_key_compare", ptr %_M_impl, i32 0, i32 0
  %call6 = call noundef nonnull align 8 dereferenceable(8) ptr @_ZNSt8_Rb_treeINSt7__cxx1112basic_stringIcSt11char_traitsIcESaIcEEESt4pairIKS5_N9grpc_core12experimental4JsonEESt10_Select1stISB_ESt4lessIS5_ESaISB_EE12_M_rightmostEv(ptr noundef nonnull align 8 dereferenceable(48) %this1) #3
  %1 = load ptr, ptr %call6, align 8
  %call7 = call noundef nonnull align 8 dereferenceable(32) ptr @_ZNSt8_Rb_treeINSt7__cxx1112basic_stringIcSt11char_traitsIcESaIcEEESt4pairIKS5_N9grpc_core12experimental4JsonEESt10_Select1stISB_ESt4lessIS5_ESaISB_EE6_S_keyEPKSt18_Rb_tree_node_base(ptr noundef %1)
  %2 = load ptr, ptr %__k.addr, align 8
  %call8 = call noundef zeroext i1 @_ZNKSt4lessINSt7__cxx1112basic_stringIcSt11char_traitsIcESaIcEEEEclERKS5_S8_(ptr noundef nonnull align 1 dereferenceable(1) %_M_key_compare, ptr noundef nonnull align 8 dereferenceable(32) %call7, ptr noundef nonnull align 8 dereferenceable(32) %2)
  br i1 %call8, label %if.then9, label %if.else

if.then9:                                         ; preds = %land.lhs.true
  store ptr null, ptr %ref.tmp, align 8
  %call10 = call noundef nonnull align 8 dereferenceable(8) ptr @_ZNSt8_Rb_treeINSt7__cxx1112basic_stringIcSt11char_traitsIcESaIcEEESt4pairIKS5_N9grpc_core12experimental4JsonEESt10_Select1stISB_ESt4lessIS5_ESaISB_EE12_M_rightmostEv(ptr noundef nonnull align 8 dereferenceable(48) %this1) #3
  call void @_ZNSt4pairIPSt18_Rb_tree_node_baseS1_EC2IS1_S1_TnNSt9enable_ifIXaaclsr5_PCCPE18_ConstructiblePairIT_T0_EEclsr5_PCCPE26_ImplicitlyConvertiblePairIS5_S6_EEEbE4typeELb1EEERKS1_SA_(ptr noundef nonnull align 8 dereferenceable(16) %retval, ptr noundef nonnull align 8 dereferenceable(8) %ref.tmp, ptr noundef nonnull align 8 dereferenceable(8) %call10)
  br label %return

if.else:                                          ; preds = %land.lhs.true, %if.then
  %3 = load ptr, ptr %__k.addr, align 8
  %call11 = call { ptr, ptr } @_ZNSt8_Rb_treeINSt7__cxx1112basic_stringIcSt11char_traitsIcESaIcEEESt4pairIKS5_N9grpc_core12experimental4JsonEESt10_Select1stISB_ESt4lessIS5_ESaISB_EE24_M_get_insert_unique_posERS7_(ptr noundef nonnull align 8 dereferenceable(48) %this1, ptr noundef nonnull align 8 dereferenceable(32) %3)
  %4 = getelementptr inbounds { ptr, ptr }, ptr %retval, i32 0, i32 0
  %5 = extractvalue { ptr, ptr } %call11, 0
  store ptr %5, ptr %4, align 8
  %6 = getelementptr inbounds { ptr, ptr }, ptr %retval, i32 0, i32 1
  %7 = extractvalue { ptr, ptr } %call11, 1
  store ptr %7, ptr %6, align 8
  br label %return

if.else12:                                        ; preds = %entry
  %_M_impl13 = getelementptr inbounds %"class.std::_Rb_tree", ptr %this1, i32 0, i32 0
  %_M_key_compare14 = getelementptr inbounds %"struct.std::_Rb_tree_key_compare", ptr %_M_impl13, i32 0, i32 0
  %8 = load ptr, ptr %__k.addr, align 8
  %_M_node15 = getelementptr inbounds %"struct.std::_Rb_tree_iterator", ptr %__pos, i32 0, i32 0
  %9 = load ptr, ptr %_M_node15, align 8
  %call16 = call noundef nonnull align 8 dereferenceable(32) ptr @_ZNSt8_Rb_treeINSt7__cxx1112basic_stringIcSt11char_traitsIcESaIcEEESt4pairIKS5_N9grpc_core12experimental4JsonEESt10_Select1stISB_ESt4lessIS5_ESaISB_EE6_S_keyEPKSt18_Rb_tree_node_base(ptr noundef %9)
  %call17 = call noundef zeroext i1 @_ZNKSt4lessINSt7__cxx1112basic_stringIcSt11char_traitsIcESaIcEEEEclERKS5_S8_(ptr noundef nonnull align 1 dereferenceable(1) %_M_key_compare14, ptr noundef nonnull align 8 dereferenceable(32) %8, ptr noundef nonnull align 8 dereferenceable(32) %call16)
  br i1 %call17, label %if.then18, label %if.else44

if.then18:                                        ; preds = %if.else12
  call void @llvm.memcpy.p0.p0.i64(ptr align 8 %__before, ptr align 8 %__pos, i64 8, i1 false)
  %_M_node19 = getelementptr inbounds %"struct.std::_Rb_tree_iterator", ptr %__pos, i32 0, i32 0
  %10 = load ptr, ptr %_M_node19, align 8
  %call20 = call noundef nonnull align 8 dereferenceable(8) ptr @_ZNSt8_Rb_treeINSt7__cxx1112basic_stringIcSt11char_traitsIcESaIcEEESt4pairIKS5_N9grpc_core12experimental4JsonEESt10_Select1stISB_ESt4lessIS5_ESaISB_EE11_M_leftmostEv(ptr noundef nonnull align 8 dereferenceable(48) %this1) #3
  %11 = load ptr, ptr %call20, align 8
  %cmp21 = icmp eq ptr %10, %11
  br i1 %cmp21, label %if.then22, label %if.else25

if.then22:                                        ; preds = %if.then18
  %call23 = call noundef nonnull align 8 dereferenceable(8) ptr @_ZNSt8_Rb_treeINSt7__cxx1112basic_stringIcSt11char_traitsIcESaIcEEESt4pairIKS5_N9grpc_core12experimental4JsonEESt10_Select1stISB_ESt4lessIS5_ESaISB_EE11_M_leftmostEv(ptr noundef nonnull align 8 dereferenceable(48) %this1) #3
  %call24 = call noundef nonnull align 8 dereferenceable(8) ptr @_ZNSt8_Rb_treeINSt7__cxx1112basic_stringIcSt11char_traitsIcESaIcEEESt4pairIKS5_N9grpc_core12experimental4JsonEESt10_Select1stISB_ESt4lessIS5_ESaISB_EE11_M_leftmostEv(ptr noundef nonnull align 8 dereferenceable(48) %this1) #3
  call void @_ZNSt4pairIPSt18_Rb_tree_node_baseS1_EC2IRS1_S4_TnNSt9enable_ifIXaaclsr5_PCCPE22_MoveConstructiblePairIT_T0_EEclsr5_PCCPE30_ImplicitlyMoveConvertiblePairIS6_S7_EEEbE4typeELb1EEEOS6_OS7_(ptr noundef nonnull align 8 dereferenceable(16) %retval, ptr noundef nonnull align 8 dereferenceable(8) %call23, ptr noundef nonnull align 8 dereferenceable(8) %call24)
  br label %return

if.else25:                                        ; preds = %if.then18
  %_M_impl26 = getelementptr inbounds %"class.std::_Rb_tree", ptr %this1, i32 0, i32 0
  %_M_key_compare27 = getelementptr inbounds %"struct.std::_Rb_tree_key_compare", ptr %_M_impl26, i32 0, i32 0
  %call28 = call noundef nonnull align 8 dereferenceable(8) ptr @_ZNSt17_Rb_tree_iteratorISt4pairIKNSt7__cxx1112basic_stringIcSt11char_traitsIcESaIcEEEN9grpc_core12experimental4JsonEEEmmEv(ptr noundef nonnull align 8 dereferenceable(8) %__before) #3
  %_M_node29 = getelementptr inbounds %"struct.std::_Rb_tree_iterator", ptr %call28, i32 0, i32 0
  %12 = load ptr, ptr %_M_node29, align 8
  %call30 = call noundef nonnull align 8 dereferenceable(32) ptr @_ZNSt8_Rb_treeINSt7__cxx1112basic_stringIcSt11char_traitsIcESaIcEEESt4pairIKS5_N9grpc_core12experimental4JsonEESt10_Select1stISB_ESt4lessIS5_ESaISB_EE6_S_keyEPKSt18_Rb_tree_node_base(ptr noundef %12)
  %13 = load ptr, ptr %__k.addr, align 8
  %call31 = call noundef zeroext i1 @_ZNKSt4lessINSt7__cxx1112basic_stringIcSt11char_traitsIcESaIcEEEEclERKS5_S8_(ptr noundef nonnull align 1 dereferenceable(1) %_M_key_compare27, ptr noundef nonnull align 8 dereferenceable(32) %call30, ptr noundef nonnull align 8 dereferenceable(32) %13)
  br i1 %call31, label %if.then32, label %if.else42

if.then32:                                        ; preds = %if.else25
  %_M_node33 = getelementptr inbounds %"struct.std::_Rb_tree_iterator", ptr %__before, i32 0, i32 0
  %14 = load ptr, ptr %_M_node33, align 8
  %call34 = call noundef ptr @_ZNSt8_Rb_treeINSt7__cxx1112basic_stringIcSt11char_traitsIcESaIcEEESt4pairIKS5_N9grpc_core12experimental4JsonEESt10_Select1stISB_ESt4lessIS5_ESaISB_EE8_S_rightEPSt18_Rb_tree_node_base(ptr noundef %14) #3
  %cmp35 = icmp eq ptr %call34, null
  br i1 %cmp35, label %if.then36, label %if.else39

if.then36:                                        ; preds = %if.then32
  store ptr null, ptr %ref.tmp37, align 8
  %_M_node38 = getelementptr inbounds %"struct.std::_Rb_tree_iterator", ptr %__before, i32 0, i32 0
  call void @_ZNSt4pairIPSt18_Rb_tree_node_baseS1_EC2IS1_S1_TnNSt9enable_ifIXaaclsr5_PCCPE18_ConstructiblePairIT_T0_EEclsr5_PCCPE26_ImplicitlyConvertiblePairIS5_S6_EEEbE4typeELb1EEERKS1_SA_(ptr noundef nonnull align 8 dereferenceable(16) %retval, ptr noundef nonnull align 8 dereferenceable(8) %ref.tmp37, ptr noundef nonnull align 8 dereferenceable(8) %_M_node38)
  br label %return

if.else39:                                        ; preds = %if.then32
  %_M_node40 = getelementptr inbounds %"struct.std::_Rb_tree_iterator", ptr %__pos, i32 0, i32 0
  %_M_node41 = getelementptr inbounds %"struct.std::_Rb_tree_iterator", ptr %__pos, i32 0, i32 0
  call void @_ZNSt4pairIPSt18_Rb_tree_node_baseS1_EC2IRS1_S4_TnNSt9enable_ifIXaaclsr5_PCCPE22_MoveConstructiblePairIT_T0_EEclsr5_PCCPE30_ImplicitlyMoveConvertiblePairIS6_S7_EEEbE4typeELb1EEEOS6_OS7_(ptr noundef nonnull align 8 dereferenceable(16) %retval, ptr noundef nonnull align 8 dereferenceable(8) %_M_node40, ptr noundef nonnull align 8 dereferenceable(8) %_M_node41)
  br label %return

if.else42:                                        ; preds = %if.else25
  %15 = load ptr, ptr %__k.addr, align 8
  %call43 = call { ptr, ptr } @_ZNSt8_Rb_treeINSt7__cxx1112basic_stringIcSt11char_traitsIcESaIcEEESt4pairIKS5_N9grpc_core12experimental4JsonEESt10_Select1stISB_ESt4lessIS5_ESaISB_EE24_M_get_insert_unique_posERS7_(ptr noundef nonnull align 8 dereferenceable(48) %this1, ptr noundef nonnull align 8 dereferenceable(32) %15)
  %16 = getelementptr inbounds { ptr, ptr }, ptr %retval, i32 0, i32 0
  %17 = extractvalue { ptr, ptr } %call43, 0
  store ptr %17, ptr %16, align 8
  %18 = getelementptr inbounds { ptr, ptr }, ptr %retval, i32 0, i32 1
  %19 = extractvalue { ptr, ptr } %call43, 1
  store ptr %19, ptr %18, align 8
  br label %return

if.else44:                                        ; preds = %if.else12
  %_M_impl45 = getelementptr inbounds %"class.std::_Rb_tree", ptr %this1, i32 0, i32 0
  %_M_key_compare46 = getelementptr inbounds %"struct.std::_Rb_tree_key_compare", ptr %_M_impl45, i32 0, i32 0
  %_M_node47 = getelementptr inbounds %"struct.std::_Rb_tree_iterator", ptr %__pos, i32 0, i32 0
  %20 = load ptr, ptr %_M_node47, align 8
  %call48 = call noundef nonnull align 8 dereferenceable(32) ptr @_ZNSt8_Rb_treeINSt7__cxx1112basic_stringIcSt11char_traitsIcESaIcEEESt4pairIKS5_N9grpc_core12experimental4JsonEESt10_Select1stISB_ESt4lessIS5_ESaISB_EE6_S_keyEPKSt18_Rb_tree_node_base(ptr noundef %20)
  %21 = load ptr, ptr %__k.addr, align 8
  %call49 = call noundef zeroext i1 @_ZNKSt4lessINSt7__cxx1112basic_stringIcSt11char_traitsIcESaIcEEEEclERKS5_S8_(ptr noundef nonnull align 1 dereferenceable(1) %_M_key_compare46, ptr noundef nonnull align 8 dereferenceable(32) %call48, ptr noundef nonnull align 8 dereferenceable(32) %21)
  br i1 %call49, label %if.then50, label %if.else76

if.then50:                                        ; preds = %if.else44
  call void @llvm.memcpy.p0.p0.i64(ptr align 8 %__after, ptr align 8 %__pos, i64 8, i1 false)
  %_M_node51 = getelementptr inbounds %"struct.std::_Rb_tree_iterator", ptr %__pos, i32 0, i32 0
  %22 = load ptr, ptr %_M_node51, align 8
  %call52 = call noundef nonnull align 8 dereferenceable(8) ptr @_ZNSt8_Rb_treeINSt7__cxx1112basic_stringIcSt11char_traitsIcESaIcEEESt4pairIKS5_N9grpc_core12experimental4JsonEESt10_Select1stISB_ESt4lessIS5_ESaISB_EE12_M_rightmostEv(ptr noundef nonnull align 8 dereferenceable(48) %this1) #3
  %23 = load ptr, ptr %call52, align 8
  %cmp53 = icmp eq ptr %22, %23
  br i1 %cmp53, label %if.then54, label %if.else57

if.then54:                                        ; preds = %if.then50
  store ptr null, ptr %ref.tmp55, align 8
  %call56 = call noundef nonnull align 8 dereferenceable(8) ptr @_ZNSt8_Rb_treeINSt7__cxx1112basic_stringIcSt11char_traitsIcESaIcEEESt4pairIKS5_N9grpc_core12experimental4JsonEESt10_Select1stISB_ESt4lessIS5_ESaISB_EE12_M_rightmostEv(ptr noundef nonnull align 8 dereferenceable(48) %this1) #3
  call void @_ZNSt4pairIPSt18_Rb_tree_node_baseS1_EC2IS1_S1_TnNSt9enable_ifIXaaclsr5_PCCPE18_ConstructiblePairIT_T0_EEclsr5_PCCPE26_ImplicitlyConvertiblePairIS5_S6_EEEbE4typeELb1EEERKS1_SA_(ptr noundef nonnull align 8 dereferenceable(16) %retval, ptr noundef nonnull align 8 dereferenceable(8) %ref.tmp55, ptr noundef nonnull align 8 dereferenceable(8) %call56)
  br label %return

if.else57:                                        ; preds = %if.then50
  %_M_impl58 = getelementptr inbounds %"class.std::_Rb_tree", ptr %this1, i32 0, i32 0
  %_M_key_compare59 = getelementptr inbounds %"struct.std::_Rb_tree_key_compare", ptr %_M_impl58, i32 0, i32 0
  %24 = load ptr, ptr %__k.addr, align 8
  %call60 = call noundef nonnull align 8 dereferenceable(8) ptr @_ZNSt17_Rb_tree_iteratorISt4pairIKNSt7__cxx1112basic_stringIcSt11char_traitsIcESaIcEEEN9grpc_core12experimental4JsonEEEppEv(ptr noundef nonnull align 8 dereferenceable(8) %__after) #3
  %_M_node61 = getelementptr inbounds %"struct.std::_Rb_tree_iterator", ptr %call60, i32 0, i32 0
  %25 = load ptr, ptr %_M_node61, align 8
  %call62 = call noundef nonnull align 8 dereferenceable(32) ptr @_ZNSt8_Rb_treeINSt7__cxx1112basic_stringIcSt11char_traitsIcESaIcEEESt4pairIKS5_N9grpc_core12experimental4JsonEESt10_Select1stISB_ESt4lessIS5_ESaISB_EE6_S_keyEPKSt18_Rb_tree_node_base(ptr noundef %25)
  %call63 = call noundef zeroext i1 @_ZNKSt4lessINSt7__cxx1112basic_stringIcSt11char_traitsIcESaIcEEEEclERKS5_S8_(ptr noundef nonnull align 1 dereferenceable(1) %_M_key_compare59, ptr noundef nonnull align 8 dereferenceable(32) %24, ptr noundef nonnull align 8 dereferenceable(32) %call62)
  br i1 %call63, label %if.then64, label %if.else74

if.then64:                                        ; preds = %if.else57
  %_M_node65 = getelementptr inbounds %"struct.std::_Rb_tree_iterator", ptr %__pos, i32 0, i32 0
  %26 = load ptr, ptr %_M_node65, align 8
  %call66 = call noundef ptr @_ZNSt8_Rb_treeINSt7__cxx1112basic_stringIcSt11char_traitsIcESaIcEEESt4pairIKS5_N9grpc_core12experimental4JsonEESt10_Select1stISB_ESt4lessIS5_ESaISB_EE8_S_rightEPSt18_Rb_tree_node_base(ptr noundef %26) #3
  %cmp67 = icmp eq ptr %call66, null
  br i1 %cmp67, label %if.then68, label %if.else71

if.then68:                                        ; preds = %if.then64
  store ptr null, ptr %ref.tmp69, align 8
  %_M_node70 = getelementptr inbounds %"struct.std::_Rb_tree_iterator", ptr %__pos, i32 0, i32 0
  call void @_ZNSt4pairIPSt18_Rb_tree_node_baseS1_EC2IS1_S1_TnNSt9enable_ifIXaaclsr5_PCCPE18_ConstructiblePairIT_T0_EEclsr5_PCCPE26_ImplicitlyConvertiblePairIS5_S6_EEEbE4typeELb1EEERKS1_SA_(ptr noundef nonnull align 8 dereferenceable(16) %retval, ptr noundef nonnull align 8 dereferenceable(8) %ref.tmp69, ptr noundef nonnull align 8 dereferenceable(8) %_M_node70)
  br label %return

if.else71:                                        ; preds = %if.then64
  %_M_node72 = getelementptr inbounds %"struct.std::_Rb_tree_iterator", ptr %__after, i32 0, i32 0
  %_M_node73 = getelementptr inbounds %"struct.std::_Rb_tree_iterator", ptr %__after, i32 0, i32 0
  call void @_ZNSt4pairIPSt18_Rb_tree_node_baseS1_EC2IRS1_S4_TnNSt9enable_ifIXaaclsr5_PCCPE22_MoveConstructiblePairIT_T0_EEclsr5_PCCPE30_ImplicitlyMoveConvertiblePairIS6_S7_EEEbE4typeELb1EEEOS6_OS7_(ptr noundef nonnull align 8 dereferenceable(16) %retval, ptr noundef nonnull align 8 dereferenceable(8) %_M_node72, ptr noundef nonnull align 8 dereferenceable(8) %_M_node73)
  br label %return

if.else74:                                        ; preds = %if.else57
  %27 = load ptr, ptr %__k.addr, align 8
  %call75 = call { ptr, ptr } @_ZNSt8_Rb_treeINSt7__cxx1112basic_stringIcSt11char_traitsIcESaIcEEESt4pairIKS5_N9grpc_core12experimental4JsonEESt10_Select1stISB_ESt4lessIS5_ESaISB_EE24_M_get_insert_unique_posERS7_(ptr noundef nonnull align 8 dereferenceable(48) %this1, ptr noundef nonnull align 8 dereferenceable(32) %27)
  %28 = getelementptr inbounds { ptr, ptr }, ptr %retval, i32 0, i32 0
  %29 = extractvalue { ptr, ptr } %call75, 0
  store ptr %29, ptr %28, align 8
  %30 = getelementptr inbounds { ptr, ptr }, ptr %retval, i32 0, i32 1
  %31 = extractvalue { ptr, ptr } %call75, 1
  store ptr %31, ptr %30, align 8
  br label %return

if.else76:                                        ; preds = %if.else44
  %_M_node77 = getelementptr inbounds %"struct.std::_Rb_tree_iterator", ptr %__pos, i32 0, i32 0
  store ptr null, ptr %ref.tmp78, align 8
  call void @_ZNSt4pairIPSt18_Rb_tree_node_baseS1_EC2IS1_S1_TnNSt9enable_ifIXaaclsr5_PCCPE18_ConstructiblePairIT_T0_EEclsr5_PCCPE26_ImplicitlyConvertiblePairIS5_S6_EEEbE4typeELb1EEERKS1_SA_(ptr noundef nonnull align 8 dereferenceable(16) %retval, ptr noundef nonnull align 8 dereferenceable(8) %_M_node77, ptr noundef nonnull align 8 dereferenceable(8) %ref.tmp78)
  br label %return

return:                                           ; preds = %if.else76, %if.else74, %if.else71, %if.then68, %if.then54, %if.else42, %if.else39, %if.then36, %if.then22, %if.else, %if.then9
  %32 = load { ptr, ptr }, ptr %retval, align 8
  ret { ptr, ptr } %32
}

; Function Attrs: mustprogress uwtable
define linkonce_odr noundef nonnull align 8 dereferenceable(32) ptr @_ZNKSt8_Rb_treeINSt7__cxx1112basic_stringIcSt11char_traitsIcESaIcEEESt4pairIKS5_N9grpc_core12experimental4JsonEESt10_Select1stISB_ESt4lessIS5_ESaISB_EE10_Auto_node6_M_keyEv(ptr noundef nonnull align 8 dereferenceable(16) %this) #4 comdat align 2 {
entry:
  %this.addr = alloca ptr, align 8
  store ptr %this, ptr %this.addr, align 8
  %this1 = load ptr, ptr %this.addr, align 8
  %_M_node = getelementptr inbounds %"struct.std::_Rb_tree<std::__cxx11::basic_string<char>, std::pair<const std::__cxx11::basic_string<char>, grpc_core::experimental::Json>, std::_Select1st<std::pair<const std::__cxx11::basic_string<char>, grpc_core::experimental::Json>>, std::less<std::__cxx11::basic_string<char>>>::_Auto_node", ptr %this1, i32 0, i32 1
  %0 = load ptr, ptr %_M_node, align 8
  %call = call noundef nonnull align 8 dereferenceable(32) ptr @_ZNSt8_Rb_treeINSt7__cxx1112basic_stringIcSt11char_traitsIcESaIcEEESt4pairIKS5_N9grpc_core12experimental4JsonEESt10_Select1stISB_ESt4lessIS5_ESaISB_EE6_S_keyEPKSt13_Rb_tree_nodeISB_E(ptr noundef %0)
  ret ptr %call
}

; Function Attrs: mustprogress uwtable
define linkonce_odr ptr @_ZNSt8_Rb_treeINSt7__cxx1112basic_stringIcSt11char_traitsIcESaIcEEESt4pairIKS5_N9grpc_core12experimental4JsonEESt10_Select1stISB_ESt4lessIS5_ESaISB_EE10_Auto_node9_M_insertES6_IPSt18_Rb_tree_node_baseSK_E(ptr noundef nonnull align 8 dereferenceable(16) %this, ptr %__p.coerce0, ptr %__p.coerce1) #4 comdat align 2 {
entry:
  %retval = alloca %"struct.std::_Rb_tree_iterator", align 8
  %__p = alloca %"struct.std::pair.50", align 8
  %this.addr = alloca ptr, align 8
  %0 = getelementptr inbounds { ptr, ptr }, ptr %__p, i32 0, i32 0
  store ptr %__p.coerce0, ptr %0, align 8
  %1 = getelementptr inbounds { ptr, ptr }, ptr %__p, i32 0, i32 1
  store ptr %__p.coerce1, ptr %1, align 8
  store ptr %this, ptr %this.addr, align 8
  %this1 = load ptr, ptr %this.addr, align 8
  %_M_t = getelementptr inbounds %"struct.std::_Rb_tree<std::__cxx11::basic_string<char>, std::pair<const std::__cxx11::basic_string<char>, grpc_core::experimental::Json>, std::_Select1st<std::pair<const std::__cxx11::basic_string<char>, grpc_core::experimental::Json>>, std::less<std::__cxx11::basic_string<char>>>::_Auto_node", ptr %this1, i32 0, i32 0
  %2 = load ptr, ptr %_M_t, align 8
  %first = getelementptr inbounds %"struct.std::pair.50", ptr %__p, i32 0, i32 0
  %3 = load ptr, ptr %first, align 8
  %second = getelementptr inbounds %"struct.std::pair.50", ptr %__p, i32 0, i32 1
  %4 = load ptr, ptr %second, align 8
  %_M_node = getelementptr inbounds %"struct.std::_Rb_tree<std::__cxx11::basic_string<char>, std::pair<const std::__cxx11::basic_string<char>, grpc_core::experimental::Json>, std::_Select1st<std::pair<const std::__cxx11::basic_string<char>, grpc_core::experimental::Json>>, std::less<std::__cxx11::basic_string<char>>>::_Auto_node", ptr %this1, i32 0, i32 1
  %5 = load ptr, ptr %_M_node, align 8
  %call = call ptr @_ZNSt8_Rb_treeINSt7__cxx1112basic_stringIcSt11char_traitsIcESaIcEEESt4pairIKS5_N9grpc_core12experimental4JsonEESt10_Select1stISB_ESt4lessIS5_ESaISB_EE14_M_insert_nodeEPSt18_Rb_tree_node_baseSJ_PSt13_Rb_tree_nodeISB_E(ptr noundef nonnull align 8 dereferenceable(48) %2, ptr noundef %3, ptr noundef %4, ptr noundef %5)
  %coerce.dive = getelementptr inbounds %"struct.std::_Rb_tree_iterator", ptr %retval, i32 0, i32 0
  store ptr %call, ptr %coerce.dive, align 8
  %_M_node2 = getelementptr inbounds %"struct.std::_Rb_tree<std::__cxx11::basic_string<char>, std::pair<const std::__cxx11::basic_string<char>, grpc_core::experimental::Json>, std::_Select1st<std::pair<const std::__cxx11::basic_string<char>, grpc_core::experimental::Json>>, std::less<std::__cxx11::basic_string<char>>>::_Auto_node", ptr %this1, i32 0, i32 1
  store ptr null, ptr %_M_node2, align 8
  %coerce.dive3 = getelementptr inbounds %"struct.std::_Rb_tree_iterator", ptr %retval, i32 0, i32 0
  %6 = load ptr, ptr %coerce.dive3, align 8
  ret ptr %6
}

; Function Attrs: mustprogress nounwind uwtable
define linkonce_odr void @_ZNSt8_Rb_treeINSt7__cxx1112basic_stringIcSt11char_traitsIcESaIcEEESt4pairIKS5_N9grpc_core12experimental4JsonEESt10_Select1stISB_ESt4lessIS5_ESaISB_EE10_Auto_nodeD2Ev(ptr noundef nonnull align 8 dereferenceable(16) %this) unnamed_addr #6 comdat align 2 {
entry:
  %this.addr = alloca ptr, align 8
  store ptr %this, ptr %this.addr, align 8
  %this1 = load ptr, ptr %this.addr, align 8
  %_M_node = getelementptr inbounds %"struct.std::_Rb_tree<std::__cxx11::basic_string<char>, std::pair<const std::__cxx11::basic_string<char>, grpc_core::experimental::Json>, std::_Select1st<std::pair<const std::__cxx11::basic_string<char>, grpc_core::experimental::Json>>, std::less<std::__cxx11::basic_string<char>>>::_Auto_node", ptr %this1, i32 0, i32 1
  %0 = load ptr, ptr %_M_node, align 8
  %tobool = icmp ne ptr %0, null
  br i1 %tobool, label %if.then, label %if.end

if.then:                                          ; preds = %entry
  %_M_t = getelementptr inbounds %"struct.std::_Rb_tree<std::__cxx11::basic_string<char>, std::pair<const std::__cxx11::basic_string<char>, grpc_core::experimental::Json>, std::_Select1st<std::pair<const std::__cxx11::basic_string<char>, grpc_core::experimental::Json>>, std::less<std::__cxx11::basic_string<char>>>::_Auto_node", ptr %this1, i32 0, i32 0
  %1 = load ptr, ptr %_M_t, align 8
  %_M_node2 = getelementptr inbounds %"struct.std::_Rb_tree<std::__cxx11::basic_string<char>, std::pair<const std::__cxx11::basic_string<char>, grpc_core::experimental::Json>, std::_Select1st<std::pair<const std::__cxx11::basic_string<char>, grpc_core::experimental::Json>>, std::less<std::__cxx11::basic_string<char>>>::_Auto_node", ptr %this1, i32 0, i32 1
  %2 = load ptr, ptr %_M_node2, align 8
  call void @_ZNSt8_Rb_treeINSt7__cxx1112basic_stringIcSt11char_traitsIcESaIcEEESt4pairIKS5_N9grpc_core12experimental4JsonEESt10_Select1stISB_ESt4lessIS5_ESaISB_EE12_M_drop_nodeEPSt13_Rb_tree_nodeISB_E(ptr noundef nonnull align 8 dereferenceable(48) %1, ptr noundef %2) #3
  br label %if.end

if.end:                                           ; preds = %if.then, %entry
  ret void
}

; Function Attrs: mustprogress uwtable
define linkonce_odr noundef ptr @_ZNSt8_Rb_treeINSt7__cxx1112basic_stringIcSt11char_traitsIcESaIcEEESt4pairIKS5_N9grpc_core12experimental4JsonEESt10_Select1stISB_ESt4lessIS5_ESaISB_EE14_M_create_nodeIJRKSt21piecewise_construct_tSt5tupleIJOS5_EESM_IJEEEEEPSt13_Rb_tree_nodeISB_EDpOT_(ptr noundef nonnull align 8 dereferenceable(48) %this, ptr noundef nonnull align 1 dereferenceable(1) %__args, ptr noundef nonnull align 8 dereferenceable(8) %__args1, ptr noundef nonnull align 1 dereferenceable(1) %__args3) #4 comdat align 2 {
entry:
  %this.addr = alloca ptr, align 8
  %__args.addr = alloca ptr, align 8
  %__args.addr2 = alloca ptr, align 8
  %__args.addr4 = alloca ptr, align 8
  %__tmp = alloca ptr, align 8
  store ptr %this, ptr %this.addr, align 8
  store ptr %__args, ptr %__args.addr, align 8
  store ptr %__args1, ptr %__args.addr2, align 8
  store ptr %__args3, ptr %__args.addr4, align 8
  %this5 = load ptr, ptr %this.addr, align 8
  %call = call noundef ptr @_ZNSt8_Rb_treeINSt7__cxx1112basic_stringIcSt11char_traitsIcESaIcEEESt4pairIKS5_N9grpc_core12experimental4JsonEESt10_Select1stISB_ESt4lessIS5_ESaISB_EE11_M_get_nodeEv(ptr noundef nonnull align 8 dereferenceable(48) %this5)
  store ptr %call, ptr %__tmp, align 8
  %0 = load ptr, ptr %__tmp, align 8
  %1 = load ptr, ptr %__args.addr, align 8
  %2 = load ptr, ptr %__args.addr2, align 8
  %3 = load ptr, ptr %__args.addr4, align 8
  call void @_ZNSt8_Rb_treeINSt7__cxx1112basic_stringIcSt11char_traitsIcESaIcEEESt4pairIKS5_N9grpc_core12experimental4JsonEESt10_Select1stISB_ESt4lessIS5_ESaISB_EE17_M_construct_nodeIJRKSt21piecewise_construct_tSt5tupleIJOS5_EESM_IJEEEEEvPSt13_Rb_tree_nodeISB_EDpOT_(ptr noundef nonnull align 8 dereferenceable(48) %this5, ptr noundef %0, ptr noundef nonnull align 1 dereferenceable(1) %1, ptr noundef nonnull align 8 dereferenceable(8) %2, ptr noundef nonnull align 1 dereferenceable(1) %3)
  %4 = load ptr, ptr %__tmp, align 8
  ret ptr %4
}

; Function Attrs: mustprogress uwtable
define linkonce_odr noundef ptr @_ZNSt8_Rb_treeINSt7__cxx1112basic_stringIcSt11char_traitsIcESaIcEEESt4pairIKS5_N9grpc_core12experimental4JsonEESt10_Select1stISB_ESt4lessIS5_ESaISB_EE11_M_get_nodeEv(ptr noundef nonnull align 8 dereferenceable(48) %this) #4 comdat align 2 {
entry:
  %this.addr = alloca ptr, align 8
  store ptr %this, ptr %this.addr, align 8
  %this1 = load ptr, ptr %this.addr, align 8
  %call = call noundef nonnull align 1 dereferenceable(1) ptr @_ZNSt8_Rb_treeINSt7__cxx1112basic_stringIcSt11char_traitsIcESaIcEEESt4pairIKS5_N9grpc_core12experimental4JsonEESt10_Select1stISB_ESt4lessIS5_ESaISB_EE21_M_get_Node_allocatorEv(ptr noundef nonnull align 8 dereferenceable(48) %this1) #3
  %call2 = call noundef ptr @_ZNSt16allocator_traitsISaISt13_Rb_tree_nodeISt4pairIKNSt7__cxx1112basic_stringIcSt11char_traitsIcESaIcEEEN9grpc_core12experimental4JsonEEEEE8allocateERSE_m(ptr noundef nonnull align 1 dereferenceable(1) %call, i64 noundef 1)
  ret ptr %call2
}

; Function Attrs: mustprogress uwtable
define linkonce_odr void @_ZNSt8_Rb_treeINSt7__cxx1112basic_stringIcSt11char_traitsIcESaIcEEESt4pairIKS5_N9grpc_core12experimental4JsonEESt10_Select1stISB_ESt4lessIS5_ESaISB_EE17_M_construct_nodeIJRKSt21piecewise_construct_tSt5tupleIJOS5_EESM_IJEEEEEvPSt13_Rb_tree_nodeISB_EDpOT_(ptr noundef nonnull align 8 dereferenceable(48) %this, ptr noundef %__node, ptr noundef nonnull align 1 dereferenceable(1) %__args, ptr noundef nonnull align 8 dereferenceable(8) %__args1, ptr noundef nonnull align 1 dereferenceable(1) %__args3) #4 comdat align 2 personality ptr @__gxx_personality_v0 {
entry:
  %this.addr = alloca ptr, align 8
  %__node.addr = alloca ptr, align 8
  %__args.addr = alloca ptr, align 8
  %__args.addr2 = alloca ptr, align 8
  %__args.addr4 = alloca ptr, align 8
  %exn.slot = alloca ptr, align 8
  %ehselector.slot = alloca i32, align 4
  store ptr %this, ptr %this.addr, align 8
  store ptr %__node, ptr %__node.addr, align 8
  store ptr %__args, ptr %__args.addr, align 8
  store ptr %__args1, ptr %__args.addr2, align 8
  store ptr %__args3, ptr %__args.addr4, align 8
  %this5 = load ptr, ptr %this.addr, align 8
  %call = call noundef nonnull align 1 dereferenceable(1) ptr @_ZNSt8_Rb_treeINSt7__cxx1112basic_stringIcSt11char_traitsIcESaIcEEESt4pairIKS5_N9grpc_core12experimental4JsonEESt10_Select1stISB_ESt4lessIS5_ESaISB_EE21_M_get_Node_allocatorEv(ptr noundef nonnull align 8 dereferenceable(48) %this5) #3
  %0 = load ptr, ptr %__node.addr, align 8
  %call6 = call noundef ptr @_ZNSt13_Rb_tree_nodeISt4pairIKNSt7__cxx1112basic_stringIcSt11char_traitsIcESaIcEEEN9grpc_core12experimental4JsonEEE9_M_valptrEv(ptr noundef nonnull align 8 dereferenceable(120) %0)
  %1 = load ptr, ptr %__args.addr, align 8
  %2 = load ptr, ptr %__args.addr2, align 8
  %3 = load ptr, ptr %__args.addr4, align 8
  invoke void @_ZNSt16allocator_traitsISaISt13_Rb_tree_nodeISt4pairIKNSt7__cxx1112basic_stringIcSt11char_traitsIcESaIcEEEN9grpc_core12experimental4JsonEEEEE9constructISC_JRKSt21piecewise_construct_tSt5tupleIJOS7_EESK_IJEEEEEvRSE_PT_DpOT0_(ptr noundef nonnull align 1 dereferenceable(1) %call, ptr noundef %call6, ptr noundef nonnull align 1 dereferenceable(1) %1, ptr noundef nonnull align 8 dereferenceable(8) %2, ptr noundef nonnull align 1 dereferenceable(1) %3)
          to label %invoke.cont unwind label %lpad

invoke.cont:                                      ; preds = %entry
  br label %try.cont

lpad:                                             ; preds = %entry
  %4 = landingpad { ptr, i32 }
          catch ptr null
  %5 = extractvalue { ptr, i32 } %4, 0
  store ptr %5, ptr %exn.slot, align 8
  %6 = extractvalue { ptr, i32 } %4, 1
  store i32 %6, ptr %ehselector.slot, align 4
  br label %catch

catch:                                            ; preds = %lpad
  %exn = load ptr, ptr %exn.slot, align 8
  %7 = call ptr @__cxa_begin_catch(ptr %exn) #3
  %8 = load ptr, ptr %__node.addr, align 8
  call void @_ZNSt8_Rb_treeINSt7__cxx1112basic_stringIcSt11char_traitsIcESaIcEEESt4pairIKS5_N9grpc_core12experimental4JsonEESt10_Select1stISB_ESt4lessIS5_ESaISB_EE11_M_put_nodeEPSt13_Rb_tree_nodeISB_E(ptr noundef nonnull align 8 dereferenceable(48) %this5, ptr noundef %8) #3
  invoke void @__cxa_rethrow() #14
          to label %unreachable unwind label %lpad7

lpad7:                                            ; preds = %catch
  %9 = landingpad { ptr, i32 }
          cleanup
  %10 = extractvalue { ptr, i32 } %9, 0
  store ptr %10, ptr %exn.slot, align 8
  %11 = extractvalue { ptr, i32 } %9, 1
  store i32 %11, ptr %ehselector.slot, align 4
  invoke void @__cxa_end_catch()
          to label %invoke.cont8 unwind label %terminate.lpad

invoke.cont8:                                     ; preds = %lpad7
  br label %eh.resume

try.cont:                                         ; preds = %invoke.cont
  ret void

eh.resume:                                        ; preds = %invoke.cont8
  %exn9 = load ptr, ptr %exn.slot, align 8
  %sel = load i32, ptr %ehselector.slot, align 4
  %lpad.val = insertvalue { ptr, i32 } poison, ptr %exn9, 0
  %lpad.val10 = insertvalue { ptr, i32 } %lpad.val, i32 %sel, 1
  resume { ptr, i32 } %lpad.val10

terminate.lpad:                                   ; preds = %lpad7
  %12 = landingpad { ptr, i32 }
          catch ptr null
  %13 = extractvalue { ptr, i32 } %12, 0
  call void @__clang_call_terminate(ptr %13) #15
  unreachable

unreachable:                                      ; preds = %catch
  unreachable
}

; Function Attrs: mustprogress uwtable
define linkonce_odr noundef ptr @_ZNSt16allocator_traitsISaISt13_Rb_tree_nodeISt4pairIKNSt7__cxx1112basic_stringIcSt11char_traitsIcESaIcEEEN9grpc_core12experimental4JsonEEEEE8allocateERSE_m(ptr noundef nonnull align 1 dereferenceable(1) %__a, i64 noundef %__n) #4 comdat align 2 {
entry:
  %__a.addr = alloca ptr, align 8
  %__n.addr = alloca i64, align 8
  store ptr %__a, ptr %__a.addr, align 8
  store i64 %__n, ptr %__n.addr, align 8
  %0 = load ptr, ptr %__a.addr, align 8
  %1 = load i64, ptr %__n.addr, align 8
  %call = call noundef ptr @_ZNSt15__new_allocatorISt13_Rb_tree_nodeISt4pairIKNSt7__cxx1112basic_stringIcSt11char_traitsIcESaIcEEEN9grpc_core12experimental4JsonEEEE8allocateEmPKv(ptr noundef nonnull align 1 dereferenceable(1) %0, i64 noundef %1, ptr noundef null)
  ret ptr %call
}

; Function Attrs: mustprogress nounwind uwtable
define linkonce_odr noundef nonnull align 1 dereferenceable(1) ptr @_ZNSt8_Rb_treeINSt7__cxx1112basic_stringIcSt11char_traitsIcESaIcEEESt4pairIKS5_N9grpc_core12experimental4JsonEESt10_Select1stISB_ESt4lessIS5_ESaISB_EE21_M_get_Node_allocatorEv(ptr noundef nonnull align 8 dereferenceable(48) %this) #6 comdat align 2 {
entry:
  %this.addr = alloca ptr, align 8
  store ptr %this, ptr %this.addr, align 8
  %this1 = load ptr, ptr %this.addr, align 8
  %_M_impl = getelementptr inbounds %"class.std::_Rb_tree", ptr %this1, i32 0, i32 0
  ret ptr %_M_impl
}

; Function Attrs: mustprogress uwtable
define linkonce_odr noundef ptr @_ZNSt15__new_allocatorISt13_Rb_tree_nodeISt4pairIKNSt7__cxx1112basic_stringIcSt11char_traitsIcESaIcEEEN9grpc_core12experimental4JsonEEEE8allocateEmPKv(ptr noundef nonnull align 1 dereferenceable(1) %this, i64 noundef %__n, ptr noundef %0) #4 comdat align 2 {
entry:
  %this.addr = alloca ptr, align 8
  %__n.addr = alloca i64, align 8
  %.addr = alloca ptr, align 8
  store ptr %this, ptr %this.addr, align 8
  store i64 %__n, ptr %__n.addr, align 8
  store ptr %0, ptr %.addr, align 8
  %this1 = load ptr, ptr %this.addr, align 8
  %1 = load i64, ptr %__n.addr, align 8
  %call = call noundef i64 @_ZNKSt15__new_allocatorISt13_Rb_tree_nodeISt4pairIKNSt7__cxx1112basic_stringIcSt11char_traitsIcESaIcEEEN9grpc_core12experimental4JsonEEEE11_M_max_sizeEv(ptr noundef nonnull align 1 dereferenceable(1) %this1) #3
  %cmp = icmp ugt i64 %1, %call
  br i1 %cmp, label %if.then, label %if.end4

if.then:                                          ; preds = %entry
  %2 = load i64, ptr %__n.addr, align 8
  %cmp2 = icmp ugt i64 %2, 153722867280912930
  br i1 %cmp2, label %if.then3, label %if.end

if.then3:                                         ; preds = %if.then
  call void @_ZSt28__throw_bad_array_new_lengthv() #14
  unreachable

if.end:                                           ; preds = %if.then
  call void @_ZSt17__throw_bad_allocv() #14
  unreachable

if.end4:                                          ; preds = %entry
  %3 = load i64, ptr %__n.addr, align 8
  %mul = mul i64 %3, 120
  %call5 = call noalias noundef nonnull ptr @_Znwm(i64 noundef %mul) #17
  ret ptr %call5
}

; Function Attrs: mustprogress nounwind uwtable
define linkonce_odr noundef i64 @_ZNKSt15__new_allocatorISt13_Rb_tree_nodeISt4pairIKNSt7__cxx1112basic_stringIcSt11char_traitsIcESaIcEEEN9grpc_core12experimental4JsonEEEE11_M_max_sizeEv(ptr noundef nonnull align 1 dereferenceable(1) %this) #6 comdat align 2 {
entry:
  %this.addr = alloca ptr, align 8
  store ptr %this, ptr %this.addr, align 8
  ret i64 76861433640456465
}

; Function Attrs: noreturn
declare void @_ZSt28__throw_bad_array_new_lengthv() #8

; Function Attrs: noreturn
declare void @_ZSt17__throw_bad_allocv() #8

; Function Attrs: nobuiltin allocsize(0)
declare noundef nonnull ptr @_Znwm(i64 noundef) #10

; Function Attrs: mustprogress uwtable
define linkonce_odr void @_ZNSt16allocator_traitsISaISt13_Rb_tree_nodeISt4pairIKNSt7__cxx1112basic_stringIcSt11char_traitsIcESaIcEEEN9grpc_core12experimental4JsonEEEEE9constructISC_JRKSt21piecewise_construct_tSt5tupleIJOS7_EESK_IJEEEEEvRSE_PT_DpOT0_(ptr noundef nonnull align 1 dereferenceable(1) %__a, ptr noundef %__p, ptr noundef nonnull align 1 dereferenceable(1) %__args, ptr noundef nonnull align 8 dereferenceable(8) %__args1, ptr noundef nonnull align 1 dereferenceable(1) %__args3) #4 comdat align 2 {
entry:
  %__a.addr = alloca ptr, align 8
  %__p.addr = alloca ptr, align 8
  %__args.addr = alloca ptr, align 8
  %__args.addr2 = alloca ptr, align 8
  %__args.addr4 = alloca ptr, align 8
  store ptr %__a, ptr %__a.addr, align 8
  store ptr %__p, ptr %__p.addr, align 8
  store ptr %__args, ptr %__args.addr, align 8
  store ptr %__args1, ptr %__args.addr2, align 8
  store ptr %__args3, ptr %__args.addr4, align 8
  %0 = load ptr, ptr %__a.addr, align 8
  %1 = load ptr, ptr %__p.addr, align 8
  %2 = load ptr, ptr %__args.addr, align 8
  %3 = load ptr, ptr %__args.addr2, align 8
  %4 = load ptr, ptr %__args.addr4, align 8
  call void @_ZNSt15__new_allocatorISt13_Rb_tree_nodeISt4pairIKNSt7__cxx1112basic_stringIcSt11char_traitsIcESaIcEEEN9grpc_core12experimental4JsonEEEE9constructISC_JRKSt21piecewise_construct_tSt5tupleIJOS7_EESJ_IJEEEEEvPT_DpOT0_(ptr noundef nonnull align 1 dereferenceable(1) %0, ptr noundef %1, ptr noundef nonnull align 1 dereferenceable(1) %2, ptr noundef nonnull align 8 dereferenceable(8) %3, ptr noundef nonnull align 1 dereferenceable(1) %4)
  ret void
}

; Function Attrs: mustprogress nounwind uwtable
define linkonce_odr void @_ZNSt8_Rb_treeINSt7__cxx1112basic_stringIcSt11char_traitsIcESaIcEEESt4pairIKS5_N9grpc_core12experimental4JsonEESt10_Select1stISB_ESt4lessIS5_ESaISB_EE11_M_put_nodeEPSt13_Rb_tree_nodeISB_E(ptr noundef nonnull align 8 dereferenceable(48) %this, ptr noundef %__p) #6 comdat align 2 personality ptr @__gxx_personality_v0 {
entry:
  %this.addr = alloca ptr, align 8
  %__p.addr = alloca ptr, align 8
  store ptr %this, ptr %this.addr, align 8
  store ptr %__p, ptr %__p.addr, align 8
  %this1 = load ptr, ptr %this.addr, align 8
  %call = call noundef nonnull align 1 dereferenceable(1) ptr @_ZNSt8_Rb_treeINSt7__cxx1112basic_stringIcSt11char_traitsIcESaIcEEESt4pairIKS5_N9grpc_core12experimental4JsonEESt10_Select1stISB_ESt4lessIS5_ESaISB_EE21_M_get_Node_allocatorEv(ptr noundef nonnull align 8 dereferenceable(48) %this1) #3
  %0 = load ptr, ptr %__p.addr, align 8
  invoke void @_ZNSt16allocator_traitsISaISt13_Rb_tree_nodeISt4pairIKNSt7__cxx1112basic_stringIcSt11char_traitsIcESaIcEEEN9grpc_core12experimental4JsonEEEEE10deallocateERSE_PSD_m(ptr noundef nonnull align 1 dereferenceable(1) %call, ptr noundef %0, i64 noundef 1)
          to label %invoke.cont unwind label %terminate.lpad

invoke.cont:                                      ; preds = %entry
  ret void

terminate.lpad:                                   ; preds = %entry
  %1 = landingpad { ptr, i32 }
          catch ptr null
  %2 = extractvalue { ptr, i32 } %1, 0
  call void @__clang_call_terminate(ptr %2) #15
  unreachable
}

declare void @__cxa_rethrow()

declare void @__cxa_end_catch()

; Function Attrs: mustprogress uwtable
define linkonce_odr void @_ZNSt15__new_allocatorISt13_Rb_tree_nodeISt4pairIKNSt7__cxx1112basic_stringIcSt11char_traitsIcESaIcEEEN9grpc_core12experimental4JsonEEEE9constructISC_JRKSt21piecewise_construct_tSt5tupleIJOS7_EESJ_IJEEEEEvPT_DpOT0_(ptr noundef nonnull align 1 dereferenceable(1) %this, ptr noundef %__p, ptr noundef nonnull align 1 dereferenceable(1) %__args, ptr noundef nonnull align 8 dereferenceable(8) %__args1, ptr noundef nonnull align 1 dereferenceable(1) %__args3) #4 comdat align 2 {
entry:
  %this.addr = alloca ptr, align 8
  %__p.addr = alloca ptr, align 8
  %__args.addr = alloca ptr, align 8
  %__args.addr2 = alloca ptr, align 8
  %__args.addr4 = alloca ptr, align 8
  %agg.tmp6 = alloca %"class.std::tuple", align 8
  store ptr %this, ptr %this.addr, align 8
  store ptr %__p, ptr %__p.addr, align 8
  store ptr %__args, ptr %__args.addr, align 8
  store ptr %__args1, ptr %__args.addr2, align 8
  store ptr %__args3, ptr %__args.addr4, align 8
  %0 = load ptr, ptr %__p.addr, align 8
  %1 = load ptr, ptr %__args.addr2, align 8
  call void @_ZNSt5tupleIJONSt7__cxx1112basic_stringIcSt11char_traitsIcESaIcEEEEEC2EOS7_(ptr noundef nonnull align 8 dereferenceable(8) %agg.tmp6, ptr noundef nonnull align 8 dereferenceable(8) %1) #3
  call void @_ZNSt4pairIKNSt7__cxx1112basic_stringIcSt11char_traitsIcESaIcEEEN9grpc_core12experimental4JsonEEC2IJOS5_EJEEESt21piecewise_construct_tSt5tupleIJDpT_EESE_IJDpT0_EE(ptr noundef nonnull align 8 dereferenceable(88) %0, ptr noundef %agg.tmp6)
  ret void
}

; Function Attrs: mustprogress nounwind uwtable
define linkonce_odr void @_ZNSt5tupleIJONSt7__cxx1112basic_stringIcSt11char_traitsIcESaIcEEEEEC2EOS7_(ptr noundef nonnull align 8 dereferenceable(8) %this, ptr noundef nonnull align 8 dereferenceable(8) %0) unnamed_addr #6 comdat align 2 {
entry:
  %this.addr = alloca ptr, align 8
  %.addr = alloca ptr, align 8
  store ptr %this, ptr %this.addr, align 8
  store ptr %0, ptr %.addr, align 8
  %this1 = load ptr, ptr %this.addr, align 8
  %1 = load ptr, ptr %.addr, align 8
  call void @_ZNSt11_Tuple_implILm0EJONSt7__cxx1112basic_stringIcSt11char_traitsIcESaIcEEEEEC2EOS7_(ptr noundef nonnull align 8 dereferenceable(8) %this1, ptr noundef nonnull align 8 dereferenceable(8) %1) #3
  ret void
}

; Function Attrs: mustprogress uwtable
define linkonce_odr void @_ZNSt4pairIKNSt7__cxx1112basic_stringIcSt11char_traitsIcESaIcEEEN9grpc_core12experimental4JsonEEC2IJOS5_EJEEESt21piecewise_construct_tSt5tupleIJDpT_EESE_IJDpT0_EE(ptr noundef nonnull align 8 dereferenceable(88) %this, ptr noundef %__first) unnamed_addr #4 comdat align 2 {
entry:
  %__second = alloca %"class.std::tuple.48", align 1
  %this.addr = alloca ptr, align 8
  %__first.indirect_addr = alloca ptr, align 8
  store ptr %this, ptr %this.addr, align 8
  store ptr %__first, ptr %__first.indirect_addr, align 8
  %this2 = load ptr, ptr %this.addr, align 8
  call void @_ZNSt4pairIKNSt7__cxx1112basic_stringIcSt11char_traitsIcESaIcEEEN9grpc_core12experimental4JsonEEC2IJOS5_EJLm0EEJETpTnmJEEERSt5tupleIJDpT_EERSD_IJDpT1_EESt12_Index_tupleIJXspT0_EEESM_IJXspT2_EEE(ptr noundef nonnull align 8 dereferenceable(88) %this2, ptr noundef nonnull align 8 dereferenceable(8) %__first, ptr noundef nonnull align 1 dereferenceable(1) %__second)
  ret void
}

; Function Attrs: mustprogress nounwind uwtable
define linkonce_odr void @_ZNSt11_Tuple_implILm0EJONSt7__cxx1112basic_stringIcSt11char_traitsIcESaIcEEEEEC2EOS7_(ptr noundef nonnull align 8 dereferenceable(8) %this, ptr noundef nonnull align 8 dereferenceable(8) %__in) unnamed_addr #6 comdat align 2 {
entry:
  %this.addr = alloca ptr, align 8
  %__in.addr = alloca ptr, align 8
  store ptr %this, ptr %this.addr, align 8
  store ptr %__in, ptr %__in.addr, align 8
  %this1 = load ptr, ptr %this.addr, align 8
  %0 = load ptr, ptr %__in.addr, align 8
  call void @llvm.memcpy.p0.p0.i64(ptr align 8 %this1, ptr align 8 %0, i64 8, i1 false)
  ret void
}

; Function Attrs: mustprogress nounwind uwtable
define linkonce_odr void @_ZNSt4pairIKNSt7__cxx1112basic_stringIcSt11char_traitsIcESaIcEEEN9grpc_core12experimental4JsonEEC2IJOS5_EJLm0EEJETpTnmJEEERSt5tupleIJDpT_EERSD_IJDpT1_EESt12_Index_tupleIJXspT0_EEESM_IJXspT2_EEE(ptr noundef nonnull align 8 dereferenceable(88) %this, ptr noundef nonnull align 8 dereferenceable(8) %__tuple1, ptr noundef nonnull align 1 dereferenceable(1) %__tuple2) unnamed_addr #6 comdat align 2 {
entry:
  %this.addr = alloca ptr, align 8
  %__tuple1.addr = alloca ptr, align 8
  %__tuple2.addr = alloca ptr, align 8
  store ptr %this, ptr %this.addr, align 8
  store ptr %__tuple1, ptr %__tuple1.addr, align 8
  store ptr %__tuple2, ptr %__tuple2.addr, align 8
  %this2 = load ptr, ptr %this.addr, align 8
  %first = getelementptr inbounds %"struct.std::pair", ptr %this2, i32 0, i32 0
  %0 = load ptr, ptr %__tuple1.addr, align 8
  %call = call noundef nonnull align 8 dereferenceable(32) ptr @_ZSt3getILm0EJONSt7__cxx1112basic_stringIcSt11char_traitsIcESaIcEEEEERNSt13tuple_elementIXT_ESt5tupleIJDpT0_EEE4typeERSB_(ptr noundef nonnull align 8 dereferenceable(8) %0) #3
  call void @_ZNSt7__cxx1112basic_stringIcSt11char_traitsIcESaIcEEC1EOS4_(ptr noundef nonnull align 8 dereferenceable(32) %first, ptr noundef nonnull align 8 dereferenceable(32) %call) #3
  %second = getelementptr inbounds %"struct.std::pair", ptr %this2, i32 0, i32 1
  call void @llvm.memset.p0.i64(ptr align 8 %second, i8 0, i64 56, i1 false)
  call void @_ZN9grpc_core12experimental4JsonC2Ev(ptr noundef nonnull align 8 dereferenceable(56) %second) #3
  ret void
}

; Function Attrs: mustprogress nounwind uwtable
define linkonce_odr noundef nonnull align 8 dereferenceable(32) ptr @_ZSt3getILm0EJONSt7__cxx1112basic_stringIcSt11char_traitsIcESaIcEEEEERNSt13tuple_elementIXT_ESt5tupleIJDpT0_EEE4typeERSB_(ptr noundef nonnull align 8 dereferenceable(8) %__t) #6 comdat {
entry:
  %__t.addr = alloca ptr, align 8
  store ptr %__t, ptr %__t.addr, align 8
  %0 = load ptr, ptr %__t.addr, align 8
  %call = call noundef nonnull align 8 dereferenceable(32) ptr @_ZSt12__get_helperILm0EONSt7__cxx1112basic_stringIcSt11char_traitsIcESaIcEEEJEERT0_RSt11_Tuple_implIXT_EJS7_DpT1_EE(ptr noundef nonnull align 8 dereferenceable(8) %0) #3
  ret ptr %call
}

; Function Attrs: nounwind
declare void @_ZNSt7__cxx1112basic_stringIcSt11char_traitsIcESaIcEEC1EOS4_(ptr noundef nonnull align 8 dereferenceable(32), ptr noundef nonnull align 8 dereferenceable(32)) unnamed_addr #2

; Function Attrs: nocallback nofree nounwind willreturn memory(argmem: write)
declare void @llvm.memset.p0.i64(ptr nocapture writeonly, i8, i64, i1 immarg) #11

; Function Attrs: mustprogress nounwind uwtable
define linkonce_odr noundef nonnull align 8 dereferenceable(32) ptr @_ZSt12__get_helperILm0EONSt7__cxx1112basic_stringIcSt11char_traitsIcESaIcEEEJEERT0_RSt11_Tuple_implIXT_EJS7_DpT1_EE(ptr noundef nonnull align 8 dereferenceable(8) %__t) #6 comdat {
entry:
  %__t.addr = alloca ptr, align 8
  store ptr %__t, ptr %__t.addr, align 8
  %0 = load ptr, ptr %__t.addr, align 8
  %call = call noundef nonnull align 8 dereferenceable(32) ptr @_ZNSt11_Tuple_implILm0EJONSt7__cxx1112basic_stringIcSt11char_traitsIcESaIcEEEEE7_M_headERS7_(ptr noundef nonnull align 8 dereferenceable(8) %0) #3
  ret ptr %call
}

; Function Attrs: mustprogress nounwind uwtable
define linkonce_odr noundef nonnull align 8 dereferenceable(32) ptr @_ZNSt11_Tuple_implILm0EJONSt7__cxx1112basic_stringIcSt11char_traitsIcESaIcEEEEE7_M_headERS7_(ptr noundef nonnull align 8 dereferenceable(8) %__t) #6 comdat align 2 {
entry:
  %__t.addr = alloca ptr, align 8
  store ptr %__t, ptr %__t.addr, align 8
  %0 = load ptr, ptr %__t.addr, align 8
  %call = call noundef nonnull align 8 dereferenceable(32) ptr @_ZNSt10_Head_baseILm0EONSt7__cxx1112basic_stringIcSt11char_traitsIcESaIcEEELb0EE7_M_headERS7_(ptr noundef nonnull align 8 dereferenceable(8) %0) #3
  ret ptr %call
}

; Function Attrs: mustprogress nounwind uwtable
define linkonce_odr noundef nonnull align 8 dereferenceable(32) ptr @_ZNSt10_Head_baseILm0EONSt7__cxx1112basic_stringIcSt11char_traitsIcESaIcEEELb0EE7_M_headERS7_(ptr noundef nonnull align 8 dereferenceable(8) %__b) #6 comdat align 2 {
entry:
  %__b.addr = alloca ptr, align 8
  store ptr %__b, ptr %__b.addr, align 8
  %0 = load ptr, ptr %__b.addr, align 8
  %_M_head_impl = getelementptr inbounds %"struct.std::_Head_base", ptr %0, i32 0, i32 0
  %1 = load ptr, ptr %_M_head_impl, align 8
  ret ptr %1
}

; Function Attrs: mustprogress uwtable
define linkonce_odr void @_ZNSt16allocator_traitsISaISt13_Rb_tree_nodeISt4pairIKNSt7__cxx1112basic_stringIcSt11char_traitsIcESaIcEEEN9grpc_core12experimental4JsonEEEEE10deallocateERSE_PSD_m(ptr noundef nonnull align 1 dereferenceable(1) %__a, ptr noundef %__p, i64 noundef %__n) #4 comdat align 2 {
entry:
  %__a.addr = alloca ptr, align 8
  %__p.addr = alloca ptr, align 8
  %__n.addr = alloca i64, align 8
  store ptr %__a, ptr %__a.addr, align 8
  store ptr %__p, ptr %__p.addr, align 8
  store i64 %__n, ptr %__n.addr, align 8
  %0 = load ptr, ptr %__a.addr, align 8
  %1 = load ptr, ptr %__p.addr, align 8
  %2 = load i64, ptr %__n.addr, align 8
  call void @_ZNSt15__new_allocatorISt13_Rb_tree_nodeISt4pairIKNSt7__cxx1112basic_stringIcSt11char_traitsIcESaIcEEEN9grpc_core12experimental4JsonEEEE10deallocateEPSD_m(ptr noundef nonnull align 1 dereferenceable(1) %0, ptr noundef %1, i64 noundef %2)
  ret void
}

; Function Attrs: mustprogress nounwind uwtable
define linkonce_odr void @_ZNSt15__new_allocatorISt13_Rb_tree_nodeISt4pairIKNSt7__cxx1112basic_stringIcSt11char_traitsIcESaIcEEEN9grpc_core12experimental4JsonEEEE10deallocateEPSD_m(ptr noundef nonnull align 1 dereferenceable(1) %this, ptr noundef %__p, i64 noundef %__n) #6 comdat align 2 {
entry:
  %this.addr = alloca ptr, align 8
  %__p.addr = alloca ptr, align 8
  %__n.addr = alloca i64, align 8
  store ptr %this, ptr %this.addr, align 8
  store ptr %__p, ptr %__p.addr, align 8
  store i64 %__n, ptr %__n.addr, align 8
  %0 = load ptr, ptr %__p.addr, align 8
  call void @_ZdlPv(ptr noundef %0) #16
  ret void
}

; Function Attrs: mustprogress nounwind uwtable
define linkonce_odr ptr @_ZNKSt23_Rb_tree_const_iteratorISt4pairIKNSt7__cxx1112basic_stringIcSt11char_traitsIcESaIcEEEN9grpc_core12experimental4JsonEEE13_M_const_castEv(ptr noundef nonnull align 8 dereferenceable(8) %this) #6 comdat align 2 {
entry:
  %retval = alloca %"struct.std::_Rb_tree_iterator", align 8
  %this.addr = alloca ptr, align 8
  store ptr %this, ptr %this.addr, align 8
  %this1 = load ptr, ptr %this.addr, align 8
  %_M_node = getelementptr inbounds %"struct.std::_Rb_tree_const_iterator", ptr %this1, i32 0, i32 0
  %0 = load ptr, ptr %_M_node, align 8
  call void @_ZNSt17_Rb_tree_iteratorISt4pairIKNSt7__cxx1112basic_stringIcSt11char_traitsIcESaIcEEEN9grpc_core12experimental4JsonEEEC2EPSt18_Rb_tree_node_base(ptr noundef nonnull align 8 dereferenceable(8) %retval, ptr noundef %0) #3
  %coerce.dive = getelementptr inbounds %"struct.std::_Rb_tree_iterator", ptr %retval, i32 0, i32 0
  %1 = load ptr, ptr %coerce.dive, align 8
  ret ptr %1
}

; Function Attrs: mustprogress nounwind uwtable
define linkonce_odr noundef i64 @_ZNKSt8_Rb_treeINSt7__cxx1112basic_stringIcSt11char_traitsIcESaIcEEESt4pairIKS5_N9grpc_core12experimental4JsonEESt10_Select1stISB_ESt4lessIS5_ESaISB_EE4sizeEv(ptr noundef nonnull align 8 dereferenceable(48) %this) #6 comdat align 2 {
entry:
  %this.addr = alloca ptr, align 8
  store ptr %this, ptr %this.addr, align 8
  %this1 = load ptr, ptr %this.addr, align 8
  %_M_impl = getelementptr inbounds %"class.std::_Rb_tree", ptr %this1, i32 0, i32 0
  %add.ptr = getelementptr inbounds i8, ptr %_M_impl, i64 8
  %_M_node_count = getelementptr inbounds %"struct.std::_Rb_tree_header", ptr %add.ptr, i32 0, i32 1
  %0 = load i64, ptr %_M_node_count, align 8
  ret i64 %0
}

; Function Attrs: mustprogress uwtable
define linkonce_odr noundef nonnull align 8 dereferenceable(32) ptr @_ZNSt8_Rb_treeINSt7__cxx1112basic_stringIcSt11char_traitsIcESaIcEEESt4pairIKS5_N9grpc_core12experimental4JsonEESt10_Select1stISB_ESt4lessIS5_ESaISB_EE6_S_keyEPKSt18_Rb_tree_node_base(ptr noundef %__x) #4 comdat align 2 {
entry:
  %__x.addr = alloca ptr, align 8
  store ptr %__x, ptr %__x.addr, align 8
  %0 = load ptr, ptr %__x.addr, align 8
  %call = call noundef nonnull align 8 dereferenceable(32) ptr @_ZNSt8_Rb_treeINSt7__cxx1112basic_stringIcSt11char_traitsIcESaIcEEESt4pairIKS5_N9grpc_core12experimental4JsonEESt10_Select1stISB_ESt4lessIS5_ESaISB_EE6_S_keyEPKSt13_Rb_tree_nodeISB_E(ptr noundef %0)
  ret ptr %call
}

; Function Attrs: mustprogress nounwind uwtable
define linkonce_odr noundef nonnull align 8 dereferenceable(8) ptr @_ZNSt8_Rb_treeINSt7__cxx1112basic_stringIcSt11char_traitsIcESaIcEEESt4pairIKS5_N9grpc_core12experimental4JsonEESt10_Select1stISB_ESt4lessIS5_ESaISB_EE12_M_rightmostEv(ptr noundef nonnull align 8 dereferenceable(48) %this) #6 comdat align 2 {
entry:
  %this.addr = alloca ptr, align 8
  store ptr %this, ptr %this.addr, align 8
  %this1 = load ptr, ptr %this.addr, align 8
  %_M_impl = getelementptr inbounds %"class.std::_Rb_tree", ptr %this1, i32 0, i32 0
  %add.ptr = getelementptr inbounds i8, ptr %_M_impl, i64 8
  %_M_header = getelementptr inbounds %"struct.std::_Rb_tree_header", ptr %add.ptr, i32 0, i32 0
  %_M_right = getelementptr inbounds %"struct.std::_Rb_tree_node_base", ptr %_M_header, i32 0, i32 3
  ret ptr %_M_right
}

; Function Attrs: mustprogress nounwind uwtable
define linkonce_odr void @_ZNSt4pairIPSt18_Rb_tree_node_baseS1_EC2IS1_S1_TnNSt9enable_ifIXaaclsr5_PCCPE18_ConstructiblePairIT_T0_EEclsr5_PCCPE26_ImplicitlyConvertiblePairIS5_S6_EEEbE4typeELb1EEERKS1_SA_(ptr noundef nonnull align 8 dereferenceable(16) %this, ptr noundef nonnull align 8 dereferenceable(8) %__a, ptr noundef nonnull align 8 dereferenceable(8) %__b) unnamed_addr #6 comdat align 2 {
entry:
  %this.addr = alloca ptr, align 8
  %__a.addr = alloca ptr, align 8
  %__b.addr = alloca ptr, align 8
  store ptr %this, ptr %this.addr, align 8
  store ptr %__a, ptr %__a.addr, align 8
  store ptr %__b, ptr %__b.addr, align 8
  %this1 = load ptr, ptr %this.addr, align 8
  %first = getelementptr inbounds %"struct.std::pair.50", ptr %this1, i32 0, i32 0
  %0 = load ptr, ptr %__a.addr, align 8
  %1 = load ptr, ptr %0, align 8
  store ptr %1, ptr %first, align 8
  %second = getelementptr inbounds %"struct.std::pair.50", ptr %this1, i32 0, i32 1
  %2 = load ptr, ptr %__b.addr, align 8
  %3 = load ptr, ptr %2, align 8
  store ptr %3, ptr %second, align 8
  ret void
}

; Function Attrs: mustprogress uwtable
define linkonce_odr { ptr, ptr } @_ZNSt8_Rb_treeINSt7__cxx1112basic_stringIcSt11char_traitsIcESaIcEEESt4pairIKS5_N9grpc_core12experimental4JsonEESt10_Select1stISB_ESt4lessIS5_ESaISB_EE24_M_get_insert_unique_posERS7_(ptr noundef nonnull align 8 dereferenceable(48) %this, ptr noundef nonnull align 8 dereferenceable(32) %__k) #4 comdat align 2 {
entry:
  %retval = alloca %"struct.std::pair.50", align 8
  %this.addr = alloca ptr, align 8
  %__k.addr = alloca ptr, align 8
  %__x = alloca ptr, align 8
  %__y = alloca ptr, align 8
  %__comp = alloca i8, align 1
  %__j = alloca %"struct.std::_Rb_tree_iterator", align 8
  %ref.tmp = alloca %"struct.std::_Rb_tree_iterator", align 8
  %ref.tmp20 = alloca ptr, align 8
  store ptr %this, ptr %this.addr, align 8
  store ptr %__k, ptr %__k.addr, align 8
  %this1 = load ptr, ptr %this.addr, align 8
  %call = call noundef ptr @_ZNSt8_Rb_treeINSt7__cxx1112basic_stringIcSt11char_traitsIcESaIcEEESt4pairIKS5_N9grpc_core12experimental4JsonEESt10_Select1stISB_ESt4lessIS5_ESaISB_EE8_M_beginEv(ptr noundef nonnull align 8 dereferenceable(48) %this1) #3
  store ptr %call, ptr %__x, align 8
  %call2 = call noundef ptr @_ZNSt8_Rb_treeINSt7__cxx1112basic_stringIcSt11char_traitsIcESaIcEEESt4pairIKS5_N9grpc_core12experimental4JsonEESt10_Select1stISB_ESt4lessIS5_ESaISB_EE6_M_endEv(ptr noundef nonnull align 8 dereferenceable(48) %this1) #3
  store ptr %call2, ptr %__y, align 8
  store i8 1, ptr %__comp, align 1
  br label %while.cond

while.cond:                                       ; preds = %cond.end, %entry
  %0 = load ptr, ptr %__x, align 8
  %cmp = icmp ne ptr %0, null
  br i1 %cmp, label %while.body, label %while.end

while.body:                                       ; preds = %while.cond
  %1 = load ptr, ptr %__x, align 8
  store ptr %1, ptr %__y, align 8
  %_M_impl = getelementptr inbounds %"class.std::_Rb_tree", ptr %this1, i32 0, i32 0
  %_M_key_compare = getelementptr inbounds %"struct.std::_Rb_tree_key_compare", ptr %_M_impl, i32 0, i32 0
  %2 = load ptr, ptr %__k.addr, align 8
  %3 = load ptr, ptr %__x, align 8
  %call3 = call noundef nonnull align 8 dereferenceable(32) ptr @_ZNSt8_Rb_treeINSt7__cxx1112basic_stringIcSt11char_traitsIcESaIcEEESt4pairIKS5_N9grpc_core12experimental4JsonEESt10_Select1stISB_ESt4lessIS5_ESaISB_EE6_S_keyEPKSt13_Rb_tree_nodeISB_E(ptr noundef %3)
  %call4 = call noundef zeroext i1 @_ZNKSt4lessINSt7__cxx1112basic_stringIcSt11char_traitsIcESaIcEEEEclERKS5_S8_(ptr noundef nonnull align 1 dereferenceable(1) %_M_key_compare, ptr noundef nonnull align 8 dereferenceable(32) %2, ptr noundef nonnull align 8 dereferenceable(32) %call3)
  %frombool = zext i1 %call4 to i8
  store i8 %frombool, ptr %__comp, align 1
  %4 = load i8, ptr %__comp, align 1
  %tobool = trunc i8 %4 to i1
  br i1 %tobool, label %cond.true, label %cond.false

cond.true:                                        ; preds = %while.body
  %5 = load ptr, ptr %__x, align 8
  %call5 = call noundef ptr @_ZNSt8_Rb_treeINSt7__cxx1112basic_stringIcSt11char_traitsIcESaIcEEESt4pairIKS5_N9grpc_core12experimental4JsonEESt10_Select1stISB_ESt4lessIS5_ESaISB_EE7_S_leftEPSt18_Rb_tree_node_base(ptr noundef %5) #3
  br label %cond.end

cond.false:                                       ; preds = %while.body
  %6 = load ptr, ptr %__x, align 8
  %call6 = call noundef ptr @_ZNSt8_Rb_treeINSt7__cxx1112basic_stringIcSt11char_traitsIcESaIcEEESt4pairIKS5_N9grpc_core12experimental4JsonEESt10_Select1stISB_ESt4lessIS5_ESaISB_EE8_S_rightEPSt18_Rb_tree_node_base(ptr noundef %6) #3
  br label %cond.end

cond.end:                                         ; preds = %cond.false, %cond.true
  %cond = phi ptr [ %call5, %cond.true ], [ %call6, %cond.false ]
  store ptr %cond, ptr %__x, align 8
  br label %while.cond, !llvm.loop !7

while.end:                                        ; preds = %while.cond
  %7 = load ptr, ptr %__y, align 8
  call void @_ZNSt17_Rb_tree_iteratorISt4pairIKNSt7__cxx1112basic_stringIcSt11char_traitsIcESaIcEEEN9grpc_core12experimental4JsonEEEC2EPSt18_Rb_tree_node_base(ptr noundef nonnull align 8 dereferenceable(8) %__j, ptr noundef %7) #3
  %8 = load i8, ptr %__comp, align 1
  %tobool7 = trunc i8 %8 to i1
  br i1 %tobool7, label %if.then, label %if.end12

if.then:                                          ; preds = %while.end
  %call8 = call ptr @_ZNSt8_Rb_treeINSt7__cxx1112basic_stringIcSt11char_traitsIcESaIcEEESt4pairIKS5_N9grpc_core12experimental4JsonEESt10_Select1stISB_ESt4lessIS5_ESaISB_EE5beginEv(ptr noundef nonnull align 8 dereferenceable(48) %this1) #3
  %coerce.dive = getelementptr inbounds %"struct.std::_Rb_tree_iterator", ptr %ref.tmp, i32 0, i32 0
  store ptr %call8, ptr %coerce.dive, align 8
  %call9 = call noundef zeroext i1 @_ZSteqRKSt17_Rb_tree_iteratorISt4pairIKNSt7__cxx1112basic_stringIcSt11char_traitsIcESaIcEEEN9grpc_core12experimental4JsonEEESE_(ptr noundef nonnull align 8 dereferenceable(8) %__j, ptr noundef nonnull align 8 dereferenceable(8) %ref.tmp) #3
  br i1 %call9, label %if.then10, label %if.else

if.then10:                                        ; preds = %if.then
  call void @_ZNSt4pairIPSt18_Rb_tree_node_baseS1_EC2IRPSt13_Rb_tree_nodeIS_IKNSt7__cxx1112basic_stringIcSt11char_traitsIcESaIcEEEN9grpc_core12experimental4JsonEEERS1_TnNSt9enable_ifIXaaclsr5_PCCPE22_MoveConstructiblePairIT_T0_EEclsr5_PCCPE30_ImplicitlyMoveConvertiblePairISL_SM_EEEbE4typeELb1EEEOSL_OSM_(ptr noundef nonnull align 8 dereferenceable(16) %retval, ptr noundef nonnull align 8 dereferenceable(8) %__x, ptr noundef nonnull align 8 dereferenceable(8) %__y)
  br label %return

if.else:                                          ; preds = %if.then
  %call11 = call noundef nonnull align 8 dereferenceable(8) ptr @_ZNSt17_Rb_tree_iteratorISt4pairIKNSt7__cxx1112basic_stringIcSt11char_traitsIcESaIcEEEN9grpc_core12experimental4JsonEEEmmEv(ptr noundef nonnull align 8 dereferenceable(8) %__j) #3
  br label %if.end

if.end:                                           ; preds = %if.else
  br label %if.end12

if.end12:                                         ; preds = %if.end, %while.end
  %_M_impl13 = getelementptr inbounds %"class.std::_Rb_tree", ptr %this1, i32 0, i32 0
  %_M_key_compare14 = getelementptr inbounds %"struct.std::_Rb_tree_key_compare", ptr %_M_impl13, i32 0, i32 0
  %_M_node = getelementptr inbounds %"struct.std::_Rb_tree_iterator", ptr %__j, i32 0, i32 0
  %9 = load ptr, ptr %_M_node, align 8
  %call15 = call noundef nonnull align 8 dereferenceable(32) ptr @_ZNSt8_Rb_treeINSt7__cxx1112basic_stringIcSt11char_traitsIcESaIcEEESt4pairIKS5_N9grpc_core12experimental4JsonEESt10_Select1stISB_ESt4lessIS5_ESaISB_EE6_S_keyEPKSt18_Rb_tree_node_base(ptr noundef %9)
  %10 = load ptr, ptr %__k.addr, align 8
  %call16 = call noundef zeroext i1 @_ZNKSt4lessINSt7__cxx1112basic_stringIcSt11char_traitsIcESaIcEEEEclERKS5_S8_(ptr noundef nonnull align 1 dereferenceable(1) %_M_key_compare14, ptr noundef nonnull align 8 dereferenceable(32) %call15, ptr noundef nonnull align 8 dereferenceable(32) %10)
  br i1 %call16, label %if.then17, label %if.end18

if.then17:                                        ; preds = %if.end12
  call void @_ZNSt4pairIPSt18_Rb_tree_node_baseS1_EC2IRPSt13_Rb_tree_nodeIS_IKNSt7__cxx1112basic_stringIcSt11char_traitsIcESaIcEEEN9grpc_core12experimental4JsonEEERS1_TnNSt9enable_ifIXaaclsr5_PCCPE22_MoveConstructiblePairIT_T0_EEclsr5_PCCPE30_ImplicitlyMoveConvertiblePairISL_SM_EEEbE4typeELb1EEEOSL_OSM_(ptr noundef nonnull align 8 dereferenceable(16) %retval, ptr noundef nonnull align 8 dereferenceable(8) %__x, ptr noundef nonnull align 8 dereferenceable(8) %__y)
  br label %return

if.end18:                                         ; preds = %if.end12
  %_M_node19 = getelementptr inbounds %"struct.std::_Rb_tree_iterator", ptr %__j, i32 0, i32 0
  store ptr null, ptr %ref.tmp20, align 8
  call void @_ZNSt4pairIPSt18_Rb_tree_node_baseS1_EC2IS1_S1_TnNSt9enable_ifIXaaclsr5_PCCPE18_ConstructiblePairIT_T0_EEclsr5_PCCPE26_ImplicitlyConvertiblePairIS5_S6_EEEbE4typeELb1EEERKS1_SA_(ptr noundef nonnull align 8 dereferenceable(16) %retval, ptr noundef nonnull align 8 dereferenceable(8) %_M_node19, ptr noundef nonnull align 8 dereferenceable(8) %ref.tmp20)
  br label %return

return:                                           ; preds = %if.end18, %if.then17, %if.then10
  %11 = load { ptr, ptr }, ptr %retval, align 8
  ret { ptr, ptr } %11
}

; Function Attrs: mustprogress nounwind uwtable
define linkonce_odr noundef nonnull align 8 dereferenceable(8) ptr @_ZNSt8_Rb_treeINSt7__cxx1112basic_stringIcSt11char_traitsIcESaIcEEESt4pairIKS5_N9grpc_core12experimental4JsonEESt10_Select1stISB_ESt4lessIS5_ESaISB_EE11_M_leftmostEv(ptr noundef nonnull align 8 dereferenceable(48) %this) #6 comdat align 2 {
entry:
  %this.addr = alloca ptr, align 8
  store ptr %this, ptr %this.addr, align 8
  %this1 = load ptr, ptr %this.addr, align 8
  %_M_impl = getelementptr inbounds %"class.std::_Rb_tree", ptr %this1, i32 0, i32 0
  %add.ptr = getelementptr inbounds i8, ptr %_M_impl, i64 8
  %_M_header = getelementptr inbounds %"struct.std::_Rb_tree_header", ptr %add.ptr, i32 0, i32 0
  %_M_left = getelementptr inbounds %"struct.std::_Rb_tree_node_base", ptr %_M_header, i32 0, i32 2
  ret ptr %_M_left
}

; Function Attrs: mustprogress nounwind uwtable
define linkonce_odr void @_ZNSt4pairIPSt18_Rb_tree_node_baseS1_EC2IRS1_S4_TnNSt9enable_ifIXaaclsr5_PCCPE22_MoveConstructiblePairIT_T0_EEclsr5_PCCPE30_ImplicitlyMoveConvertiblePairIS6_S7_EEEbE4typeELb1EEEOS6_OS7_(ptr noundef nonnull align 8 dereferenceable(16) %this, ptr noundef nonnull align 8 dereferenceable(8) %__x, ptr noundef nonnull align 8 dereferenceable(8) %__y) unnamed_addr #6 comdat align 2 {
entry:
  %this.addr = alloca ptr, align 8
  %__x.addr = alloca ptr, align 8
  %__y.addr = alloca ptr, align 8
  store ptr %this, ptr %this.addr, align 8
  store ptr %__x, ptr %__x.addr, align 8
  store ptr %__y, ptr %__y.addr, align 8
  %this1 = load ptr, ptr %this.addr, align 8
  %first = getelementptr inbounds %"struct.std::pair.50", ptr %this1, i32 0, i32 0
  %0 = load ptr, ptr %__x.addr, align 8
  %1 = load ptr, ptr %0, align 8
  store ptr %1, ptr %first, align 8
  %second = getelementptr inbounds %"struct.std::pair.50", ptr %this1, i32 0, i32 1
  %2 = load ptr, ptr %__y.addr, align 8
  %3 = load ptr, ptr %2, align 8
  store ptr %3, ptr %second, align 8
  ret void
}

; Function Attrs: mustprogress nounwind uwtable
define linkonce_odr noundef nonnull align 8 dereferenceable(8) ptr @_ZNSt17_Rb_tree_iteratorISt4pairIKNSt7__cxx1112basic_stringIcSt11char_traitsIcESaIcEEEN9grpc_core12experimental4JsonEEEmmEv(ptr noundef nonnull align 8 dereferenceable(8) %this) #6 comdat align 2 {
entry:
  %this.addr = alloca ptr, align 8
  store ptr %this, ptr %this.addr, align 8
  %this1 = load ptr, ptr %this.addr, align 8
  %_M_node = getelementptr inbounds %"struct.std::_Rb_tree_iterator", ptr %this1, i32 0, i32 0
  %0 = load ptr, ptr %_M_node, align 8
  %call = call noundef ptr @_ZSt18_Rb_tree_decrementPSt18_Rb_tree_node_base(ptr noundef %0) #18
  %_M_node2 = getelementptr inbounds %"struct.std::_Rb_tree_iterator", ptr %this1, i32 0, i32 0
  store ptr %call, ptr %_M_node2, align 8
  ret ptr %this1
}

; Function Attrs: mustprogress nounwind uwtable
define linkonce_odr noundef nonnull align 8 dereferenceable(8) ptr @_ZNSt17_Rb_tree_iteratorISt4pairIKNSt7__cxx1112basic_stringIcSt11char_traitsIcESaIcEEEN9grpc_core12experimental4JsonEEEppEv(ptr noundef nonnull align 8 dereferenceable(8) %this) #6 comdat align 2 {
entry:
  %this.addr = alloca ptr, align 8
  store ptr %this, ptr %this.addr, align 8
  %this1 = load ptr, ptr %this.addr, align 8
  %_M_node = getelementptr inbounds %"struct.std::_Rb_tree_iterator", ptr %this1, i32 0, i32 0
  %0 = load ptr, ptr %_M_node, align 8
  %call = call noundef ptr @_ZSt18_Rb_tree_incrementPSt18_Rb_tree_node_base(ptr noundef %0) #18
  %_M_node2 = getelementptr inbounds %"struct.std::_Rb_tree_iterator", ptr %this1, i32 0, i32 0
  store ptr %call, ptr %_M_node2, align 8
  ret ptr %this1
}

; Function Attrs: mustprogress nounwind uwtable
define linkonce_odr ptr @_ZNSt8_Rb_treeINSt7__cxx1112basic_stringIcSt11char_traitsIcESaIcEEESt4pairIKS5_N9grpc_core12experimental4JsonEESt10_Select1stISB_ESt4lessIS5_ESaISB_EE5beginEv(ptr noundef nonnull align 8 dereferenceable(48) %this) #6 comdat align 2 {
entry:
  %retval = alloca %"struct.std::_Rb_tree_iterator", align 8
  %this.addr = alloca ptr, align 8
  store ptr %this, ptr %this.addr, align 8
  %this1 = load ptr, ptr %this.addr, align 8
  %_M_impl = getelementptr inbounds %"class.std::_Rb_tree", ptr %this1, i32 0, i32 0
  %add.ptr = getelementptr inbounds i8, ptr %_M_impl, i64 8
  %_M_header = getelementptr inbounds %"struct.std::_Rb_tree_header", ptr %add.ptr, i32 0, i32 0
  %_M_left = getelementptr inbounds %"struct.std::_Rb_tree_node_base", ptr %_M_header, i32 0, i32 2
  %0 = load ptr, ptr %_M_left, align 8
  call void @_ZNSt17_Rb_tree_iteratorISt4pairIKNSt7__cxx1112basic_stringIcSt11char_traitsIcESaIcEEEN9grpc_core12experimental4JsonEEEC2EPSt18_Rb_tree_node_base(ptr noundef nonnull align 8 dereferenceable(8) %retval, ptr noundef %0) #3
  %coerce.dive = getelementptr inbounds %"struct.std::_Rb_tree_iterator", ptr %retval, i32 0, i32 0
  %1 = load ptr, ptr %coerce.dive, align 8
  ret ptr %1
}

; Function Attrs: mustprogress nounwind uwtable
define linkonce_odr void @_ZNSt4pairIPSt18_Rb_tree_node_baseS1_EC2IRPSt13_Rb_tree_nodeIS_IKNSt7__cxx1112basic_stringIcSt11char_traitsIcESaIcEEEN9grpc_core12experimental4JsonEEERS1_TnNSt9enable_ifIXaaclsr5_PCCPE22_MoveConstructiblePairIT_T0_EEclsr5_PCCPE30_ImplicitlyMoveConvertiblePairISL_SM_EEEbE4typeELb1EEEOSL_OSM_(ptr noundef nonnull align 8 dereferenceable(16) %this, ptr noundef nonnull align 8 dereferenceable(8) %__x, ptr noundef nonnull align 8 dereferenceable(8) %__y) unnamed_addr #6 comdat align 2 {
entry:
  %this.addr = alloca ptr, align 8
  %__x.addr = alloca ptr, align 8
  %__y.addr = alloca ptr, align 8
  store ptr %this, ptr %this.addr, align 8
  store ptr %__x, ptr %__x.addr, align 8
  store ptr %__y, ptr %__y.addr, align 8
  %this1 = load ptr, ptr %this.addr, align 8
  %first = getelementptr inbounds %"struct.std::pair.50", ptr %this1, i32 0, i32 0
  %0 = load ptr, ptr %__x.addr, align 8
  %1 = load ptr, ptr %0, align 8
  store ptr %1, ptr %first, align 8
  %second = getelementptr inbounds %"struct.std::pair.50", ptr %this1, i32 0, i32 1
  %2 = load ptr, ptr %__y.addr, align 8
  %3 = load ptr, ptr %2, align 8
  store ptr %3, ptr %second, align 8
  ret void
}

; Function Attrs: nounwind willreturn memory(read)
declare noundef ptr @_ZSt18_Rb_tree_decrementPSt18_Rb_tree_node_base(ptr noundef) #12

; Function Attrs: nounwind willreturn memory(read)
declare noundef ptr @_ZSt18_Rb_tree_incrementPSt18_Rb_tree_node_base(ptr noundef) #12

; Function Attrs: mustprogress uwtable
define linkonce_odr ptr @_ZNSt8_Rb_treeINSt7__cxx1112basic_stringIcSt11char_traitsIcESaIcEEESt4pairIKS5_N9grpc_core12experimental4JsonEESt10_Select1stISB_ESt4lessIS5_ESaISB_EE14_M_insert_nodeEPSt18_Rb_tree_node_baseSJ_PSt13_Rb_tree_nodeISB_E(ptr noundef nonnull align 8 dereferenceable(48) %this, ptr noundef %__x, ptr noundef %__p, ptr noundef %__z) #4 comdat align 2 {
entry:
  %retval = alloca %"struct.std::_Rb_tree_iterator", align 8
  %this.addr = alloca ptr, align 8
  %__x.addr = alloca ptr, align 8
  %__p.addr = alloca ptr, align 8
  %__z.addr = alloca ptr, align 8
  %__insert_left = alloca i8, align 1
  store ptr %this, ptr %this.addr, align 8
  store ptr %__x, ptr %__x.addr, align 8
  store ptr %__p, ptr %__p.addr, align 8
  store ptr %__z, ptr %__z.addr, align 8
  %this1 = load ptr, ptr %this.addr, align 8
  %0 = load ptr, ptr %__x.addr, align 8
  %cmp = icmp ne ptr %0, null
  br i1 %cmp, label %lor.end, label %lor.lhs.false

lor.lhs.false:                                    ; preds = %entry
  %1 = load ptr, ptr %__p.addr, align 8
  %call = call noundef ptr @_ZNSt8_Rb_treeINSt7__cxx1112basic_stringIcSt11char_traitsIcESaIcEEESt4pairIKS5_N9grpc_core12experimental4JsonEESt10_Select1stISB_ESt4lessIS5_ESaISB_EE6_M_endEv(ptr noundef nonnull align 8 dereferenceable(48) %this1) #3
  %cmp2 = icmp eq ptr %1, %call
  br i1 %cmp2, label %lor.end, label %lor.rhs

lor.rhs:                                          ; preds = %lor.lhs.false
  %_M_impl = getelementptr inbounds %"class.std::_Rb_tree", ptr %this1, i32 0, i32 0
  %_M_key_compare = getelementptr inbounds %"struct.std::_Rb_tree_key_compare", ptr %_M_impl, i32 0, i32 0
  %2 = load ptr, ptr %__z.addr, align 8
  %call3 = call noundef nonnull align 8 dereferenceable(32) ptr @_ZNSt8_Rb_treeINSt7__cxx1112basic_stringIcSt11char_traitsIcESaIcEEESt4pairIKS5_N9grpc_core12experimental4JsonEESt10_Select1stISB_ESt4lessIS5_ESaISB_EE6_S_keyEPKSt13_Rb_tree_nodeISB_E(ptr noundef %2)
  %3 = load ptr, ptr %__p.addr, align 8
  %call4 = call noundef nonnull align 8 dereferenceable(32) ptr @_ZNSt8_Rb_treeINSt7__cxx1112basic_stringIcSt11char_traitsIcESaIcEEESt4pairIKS5_N9grpc_core12experimental4JsonEESt10_Select1stISB_ESt4lessIS5_ESaISB_EE6_S_keyEPKSt18_Rb_tree_node_base(ptr noundef %3)
  %call5 = call noundef zeroext i1 @_ZNKSt4lessINSt7__cxx1112basic_stringIcSt11char_traitsIcESaIcEEEEclERKS5_S8_(ptr noundef nonnull align 1 dereferenceable(1) %_M_key_compare, ptr noundef nonnull align 8 dereferenceable(32) %call3, ptr noundef nonnull align 8 dereferenceable(32) %call4)
  br label %lor.end

lor.end:                                          ; preds = %lor.rhs, %lor.lhs.false, %entry
  %4 = phi i1 [ true, %lor.lhs.false ], [ true, %entry ], [ %call5, %lor.rhs ]
  %frombool = zext i1 %4 to i8
  store i8 %frombool, ptr %__insert_left, align 1
  %5 = load i8, ptr %__insert_left, align 1
  %tobool = trunc i8 %5 to i1
  %6 = load ptr, ptr %__z.addr, align 8
  %7 = load ptr, ptr %__p.addr, align 8
  %_M_impl6 = getelementptr inbounds %"class.std::_Rb_tree", ptr %this1, i32 0, i32 0
  %add.ptr = getelementptr inbounds i8, ptr %_M_impl6, i64 8
  %_M_header = getelementptr inbounds %"struct.std::_Rb_tree_header", ptr %add.ptr, i32 0, i32 0
  call void @_ZSt29_Rb_tree_insert_and_rebalancebPSt18_Rb_tree_node_baseS0_RS_(i1 noundef zeroext %tobool, ptr noundef %6, ptr noundef %7, ptr noundef nonnull align 8 dereferenceable(32) %_M_header) #3
  %_M_impl7 = getelementptr inbounds %"class.std::_Rb_tree", ptr %this1, i32 0, i32 0
  %add.ptr8 = getelementptr inbounds i8, ptr %_M_impl7, i64 8
  %_M_node_count = getelementptr inbounds %"struct.std::_Rb_tree_header", ptr %add.ptr8, i32 0, i32 1
  %8 = load i64, ptr %_M_node_count, align 8
  %inc = add i64 %8, 1
  store i64 %inc, ptr %_M_node_count, align 8
  %9 = load ptr, ptr %__z.addr, align 8
  call void @_ZNSt17_Rb_tree_iteratorISt4pairIKNSt7__cxx1112basic_stringIcSt11char_traitsIcESaIcEEEN9grpc_core12experimental4JsonEEEC2EPSt18_Rb_tree_node_base(ptr noundef nonnull align 8 dereferenceable(8) %retval, ptr noundef %9) #3
  %coerce.dive = getelementptr inbounds %"struct.std::_Rb_tree_iterator", ptr %retval, i32 0, i32 0
  %10 = load ptr, ptr %coerce.dive, align 8
  ret ptr %10
}

; Function Attrs: nounwind
declare void @_ZSt29_Rb_tree_insert_and_rebalancebPSt18_Rb_tree_node_baseS0_RS_(i1 noundef zeroext, ptr noundef, ptr noundef, ptr noundef nonnull align 8 dereferenceable(32)) #2

; Function Attrs: mustprogress nounwind uwtable
define linkonce_odr void @_ZNSt8_Rb_treeINSt7__cxx1112basic_stringIcSt11char_traitsIcESaIcEEESt4pairIKS5_N9grpc_core12experimental4JsonEESt10_Select1stISB_ESt4lessIS5_ESaISB_EE12_M_drop_nodeEPSt13_Rb_tree_nodeISB_E(ptr noundef nonnull align 8 dereferenceable(48) %this, ptr noundef %__p) #6 comdat align 2 {
entry:
  %this.addr = alloca ptr, align 8
  %__p.addr = alloca ptr, align 8
  store ptr %this, ptr %this.addr, align 8
  store ptr %__p, ptr %__p.addr, align 8
  %this1 = load ptr, ptr %this.addr, align 8
  %0 = load ptr, ptr %__p.addr, align 8
  call void @_ZNSt8_Rb_treeINSt7__cxx1112basic_stringIcSt11char_traitsIcESaIcEEESt4pairIKS5_N9grpc_core12experimental4JsonEESt10_Select1stISB_ESt4lessIS5_ESaISB_EE15_M_destroy_nodeEPSt13_Rb_tree_nodeISB_E(ptr noundef nonnull align 8 dereferenceable(48) %this1, ptr noundef %0) #3
  %1 = load ptr, ptr %__p.addr, align 8
  call void @_ZNSt8_Rb_treeINSt7__cxx1112basic_stringIcSt11char_traitsIcESaIcEEESt4pairIKS5_N9grpc_core12experimental4JsonEESt10_Select1stISB_ESt4lessIS5_ESaISB_EE11_M_put_nodeEPSt13_Rb_tree_nodeISB_E(ptr noundef nonnull align 8 dereferenceable(48) %this1, ptr noundef %1) #3
  ret void
}

; Function Attrs: mustprogress nounwind uwtable
define linkonce_odr void @_ZNSt8_Rb_treeINSt7__cxx1112basic_stringIcSt11char_traitsIcESaIcEEESt4pairIKS5_N9grpc_core12experimental4JsonEESt10_Select1stISB_ESt4lessIS5_ESaISB_EE15_M_destroy_nodeEPSt13_Rb_tree_nodeISB_E(ptr noundef nonnull align 8 dereferenceable(48) %this, ptr noundef %__p) #6 comdat align 2 {
entry:
  %this.addr = alloca ptr, align 8
  %__p.addr = alloca ptr, align 8
  store ptr %this, ptr %this.addr, align 8
  store ptr %__p, ptr %__p.addr, align 8
  %this1 = load ptr, ptr %this.addr, align 8
  %call = call noundef nonnull align 1 dereferenceable(1) ptr @_ZNSt8_Rb_treeINSt7__cxx1112basic_stringIcSt11char_traitsIcESaIcEEESt4pairIKS5_N9grpc_core12experimental4JsonEESt10_Select1stISB_ESt4lessIS5_ESaISB_EE21_M_get_Node_allocatorEv(ptr noundef nonnull align 8 dereferenceable(48) %this1) #3
  %0 = load ptr, ptr %__p.addr, align 8
  %call2 = call noundef ptr @_ZNSt13_Rb_tree_nodeISt4pairIKNSt7__cxx1112basic_stringIcSt11char_traitsIcESaIcEEEN9grpc_core12experimental4JsonEEE9_M_valptrEv(ptr noundef nonnull align 8 dereferenceable(120) %0)
  call void @_ZNSt16allocator_traitsISaISt13_Rb_tree_nodeISt4pairIKNSt7__cxx1112basic_stringIcSt11char_traitsIcESaIcEEEN9grpc_core12experimental4JsonEEEEE7destroyISC_EEvRSE_PT_(ptr noundef nonnull align 1 dereferenceable(1) %call, ptr noundef %call2) #3
  ret void
}

; Function Attrs: mustprogress nounwind uwtable
define linkonce_odr void @_ZNSt16allocator_traitsISaISt13_Rb_tree_nodeISt4pairIKNSt7__cxx1112basic_stringIcSt11char_traitsIcESaIcEEEN9grpc_core12experimental4JsonEEEEE7destroyISC_EEvRSE_PT_(ptr noundef nonnull align 1 dereferenceable(1) %__a, ptr noundef %__p) #6 comdat align 2 {
entry:
  %__a.addr = alloca ptr, align 8
  %__p.addr = alloca ptr, align 8
  store ptr %__a, ptr %__a.addr, align 8
  store ptr %__p, ptr %__p.addr, align 8
  %0 = load ptr, ptr %__a.addr, align 8
  %1 = load ptr, ptr %__p.addr, align 8
  call void @_ZNSt15__new_allocatorISt13_Rb_tree_nodeISt4pairIKNSt7__cxx1112basic_stringIcSt11char_traitsIcESaIcEEEN9grpc_core12experimental4JsonEEEE7destroyISC_EEvPT_(ptr noundef nonnull align 1 dereferenceable(1) %0, ptr noundef %1) #3
  ret void
}

; Function Attrs: mustprogress nounwind uwtable
define linkonce_odr void @_ZNSt15__new_allocatorISt13_Rb_tree_nodeISt4pairIKNSt7__cxx1112basic_stringIcSt11char_traitsIcESaIcEEEN9grpc_core12experimental4JsonEEEE7destroyISC_EEvPT_(ptr noundef nonnull align 1 dereferenceable(1) %this, ptr noundef %__p) #6 comdat align 2 {
entry:
  %this.addr = alloca ptr, align 8
  %__p.addr = alloca ptr, align 8
  store ptr %this, ptr %this.addr, align 8
  store ptr %__p, ptr %__p.addr, align 8
  %0 = load ptr, ptr %__p.addr, align 8
  call void @_ZNSt4pairIKNSt7__cxx1112basic_stringIcSt11char_traitsIcESaIcEEEN9grpc_core12experimental4JsonEED2Ev(ptr noundef nonnull align 8 dereferenceable(88) %0) #3
  ret void
}

; Function Attrs: mustprogress nounwind uwtable
define linkonce_odr void @_ZNSt4pairIKNSt7__cxx1112basic_stringIcSt11char_traitsIcESaIcEEEN9grpc_core12experimental4JsonEED2Ev(ptr noundef nonnull align 8 dereferenceable(88) %this) unnamed_addr #6 comdat align 2 {
entry:
  %this.addr = alloca ptr, align 8
  store ptr %this, ptr %this.addr, align 8
  %this1 = load ptr, ptr %this.addr, align 8
  %second = getelementptr inbounds %"struct.std::pair", ptr %this1, i32 0, i32 1
  call void @_ZN9grpc_core12experimental4JsonD2Ev(ptr noundef nonnull align 8 dereferenceable(56) %second) #3
  %first = getelementptr inbounds %"struct.std::pair", ptr %this1, i32 0, i32 0
  call void @_ZNSt7__cxx1112basic_stringIcSt11char_traitsIcESaIcEED1Ev(ptr noundef nonnull align 8 dereferenceable(32) %first) #3
  ret void
}

; Function Attrs: mustprogress nounwind uwtable
define linkonce_odr void @_ZNSt5tupleIJONSt7__cxx1112basic_stringIcSt11char_traitsIcESaIcEEEEEC2IJS5_ELb1ETnNSt9enable_ifIXclsr4_TCCIXT0_EEE29__is_implicitly_constructibleIDpT_EEEbE4typeELb1EEEDpOSA_(ptr noundef nonnull align 8 dereferenceable(8) %this, ptr noundef nonnull align 8 dereferenceable(32) %__elements) unnamed_addr #6 comdat align 2 personality ptr @__gxx_personality_v0 {
entry:
  %this.addr = alloca ptr, align 8
  %__elements.addr = alloca ptr, align 8
  store ptr %this, ptr %this.addr, align 8
  store ptr %__elements, ptr %__elements.addr, align 8
  %this1 = load ptr, ptr %this.addr, align 8
  %0 = load ptr, ptr %__elements.addr, align 8
  invoke void @_ZNSt11_Tuple_implILm0EJONSt7__cxx1112basic_stringIcSt11char_traitsIcESaIcEEEEEC2IS5_EEOT_(ptr noundef nonnull align 8 dereferenceable(8) %this1, ptr noundef nonnull align 8 dereferenceable(32) %0)
          to label %invoke.cont unwind label %terminate.lpad

