target datalayout = "e-m:e-p270:32:32-p271:32:32-p272:64:64-i64:64-i128:128-f80:128-n8:16:32:64-S128"
target triple = "x86_64-unknown-linux-gnu"

%"class.std::ios_base::Init" = type { i8 }
%"class.grpc_core::NoDestruct" = type { [8 x i8] }
%"struct.std::piecewise_construct_t" = type { i8 }
%"struct.absl::lts_20230802::container_internal::PolicyFunctions" = type { i64, ptr, ptr, ptr }
%"class.std::__cxx11::basic_string" = type { %"struct.std::__cxx11::basic_string<char>::_Alloc_hider", i64, %union.anon.17 }
%"struct.std::__cxx11::basic_string<char>::_Alloc_hider" = type { ptr }
%union.anon.17 = type { i64, [8 x i8] }
%"struct.std::atomic.9" = type { %"struct.std::__atomic_base.10" }
%"struct.std::__atomic_base.10" = type { i8 }
%"struct.std::in_place_t" = type { i8 }
%"class.grpc_event_engine::experimental::TcpZerocopySendRecord" = type { %"class.grpc_event_engine::experimental::SliceBuffer", %"struct.std::atomic", %"struct.grpc_event_engine::experimental::TcpZerocopySendRecord::OutgoingOffset" }
%"class.grpc_event_engine::experimental::SliceBuffer" = type { %struct.grpc_slice_buffer }
%struct.grpc_slice_buffer = type { ptr, ptr, i64, i64, i64, [7 x %struct.grpc_slice] }
%struct.grpc_slice = type { ptr, %"union.grpc_slice::grpc_slice_data" }
%"union.grpc_slice::grpc_slice_data" = type { %"struct.grpc_slice::grpc_slice_data::grpc_slice_refcounted", [8 x i8] }
%"struct.grpc_slice::grpc_slice_data::grpc_slice_refcounted" = type { i64, ptr }
%"struct.std::atomic" = type { %"struct.std::__atomic_base" }
%"struct.std::__atomic_base" = type { i64 }
%"struct.grpc_event_engine::experimental::TcpZerocopySendRecord::OutgoingOffset" = type { i64, i64 }
%struct.iovec = type { ptr, i64 }
%"class.grpc_event_engine::experimental::Slice" = type { %"class.grpc_event_engine::experimental::slice_detail::BaseSlice" }
%"class.grpc_event_engine::experimental::slice_detail::BaseSlice" = type { %struct.grpc_slice }
%"class.grpc_event_engine::experimental::PosixEndpointImpl" = type { %"class.grpc_core::RefCounted", %"class.absl::lts_20230802::Mutex", %"class.grpc_event_engine::experimental::PosixSocketWrapper", i32, i8, i8, double, i32, i32, i32, double, %"struct.std::atomic.1", %"class.grpc_event_engine::experimental::SliceBuffer", ptr, i32, i8, ptr, i64, ptr, ptr, ptr, ptr, [8 x i8], %"class.absl::lts_20230802::AnyInvocable", %"class.absl::lts_20230802::AnyInvocable", %"class.grpc_event_engine::experimental::EventEngine::ResolvedAddress", %"class.grpc_event_engine::experimental::EventEngine::ResolvedAddress", %"class.std::shared_ptr", %"class.grpc_core::MemoryOwner", %"class.grpc_event_engine::experimental::MemoryAllocator::Reservation", ptr, [8 x i8], %"class.absl::lts_20230802::AnyInvocable.6", i32, i8, i8, %"struct.std::atomic.9", %"class.std::unique_ptr", ptr, i32, %"class.grpc_event_engine::experimental::TracedBufferList", ptr, ptr, %"class.std::shared_ptr.13", [8 x i8] }
%"class.grpc_core::RefCounted" = type { %"class.grpc_core::PolymorphicRefCount", %"class.grpc_core::RefCount" }
%"class.grpc_core::PolymorphicRefCount" = type { ptr }
%"class.grpc_core::RefCount" = type { %"struct.std::atomic" }
%"class.absl::lts_20230802::Mutex" = type { %"struct.std::atomic" }
%"class.grpc_event_engine::experimental::PosixSocketWrapper" = type { i32 }
%"struct.std::atomic.1" = type { %"struct.std::__atomic_base.2" }
%"struct.std::__atomic_base.2" = type { i32 }
%"class.absl::lts_20230802::AnyInvocable" = type { %"class.absl::lts_20230802::internal_any_invocable::Impl" }
%"class.absl::lts_20230802::internal_any_invocable::Impl" = type { %"class.absl::lts_20230802::internal_any_invocable::CoreImpl" }
%"class.absl::lts_20230802::internal_any_invocable::CoreImpl" = type { %"union.absl::lts_20230802::internal_any_invocable::TypeErasedState", ptr, ptr }
%"union.absl::lts_20230802::internal_any_invocable::TypeErasedState" = type { %struct.anon }
%struct.anon = type { ptr, i64 }
%"class.grpc_event_engine::experimental::EventEngine::ResolvedAddress" = type { [128 x i8], i32 }
%"class.std::shared_ptr" = type { %"class.std::__shared_ptr" }
%"class.std::__shared_ptr" = type { ptr, %"class.std::__shared_count" }
%"class.std::__shared_count" = type { ptr }
%"class.grpc_core::MemoryOwner" = type { %"class.grpc_event_engine::experimental::MemoryAllocator" }
%"class.grpc_event_engine::experimental::MemoryAllocator" = type { %"class.std::shared_ptr.3" }
%"class.std::shared_ptr.3" = type { %"class.std::__shared_ptr.4" }
%"class.std::__shared_ptr.4" = type { ptr, %"class.std::__shared_count" }
%"class.grpc_event_engine::experimental::MemoryAllocator::Reservation" = type { %"class.std::shared_ptr.3", i64 }
%"class.absl::lts_20230802::AnyInvocable.6" = type { %"class.absl::lts_20230802::internal_any_invocable::Impl.7" }
%"class.absl::lts_20230802::internal_any_invocable::Impl.7" = type { %"class.absl::lts_20230802::internal_any_invocable::CoreImpl.8" }
%"class.absl::lts_20230802::internal_any_invocable::CoreImpl.8" = type { %"union.absl::lts_20230802::internal_any_invocable::TypeErasedState", ptr, ptr }
%"class.std::unique_ptr" = type { %"struct.std::__uniq_ptr_data" }
%"struct.std::__uniq_ptr_data" = type { %"class.std::__uniq_ptr_impl" }
%"class.std::__uniq_ptr_impl" = type { %"class.std::tuple" }
%"class.std::tuple" = type { %"struct.std::_Tuple_impl" }
%"struct.std::_Tuple_impl" = type { %"struct.std::_Head_base.12" }
%"struct.std::_Head_base.12" = type { ptr }
%"class.grpc_event_engine::experimental::TracedBufferList" = type { %"class.absl::lts_20230802::Mutex", ptr, ptr }
%"class.std::shared_ptr.13" = type { %"class.std::__shared_ptr.14" }
%"class.std::__shared_ptr.14" = type { ptr, %"class.std::__shared_count" }
%"class.absl::lts_20230802::Status" = type { i64 }
%"class.absl::lts_20230802::StatusOr" = type { %"class.absl::lts_20230802::internal_statusor::StatusOrData" }
%"class.absl::lts_20230802::internal_statusor::StatusOrData" = type { %union.anon, %union.anon.16 }
%union.anon = type { %"class.absl::lts_20230802::Status" }
%union.anon.16 = type { %"class.std::__cxx11::basic_string" }
%"class.std::basic_string_view" = type { i64, ptr }
%"class.std::allocator" = type { i8 }
%struct.msghdr = type { ptr, i32, ptr, i64, ptr, i64, i32 }
%"class.absl::lts_20230802::AlphaNum" = type { %"class.std::basic_string_view", [32 x i8] }
%struct.cmsghdr = type { i64, i32, i32, [0 x i8] }
%class.anon = type { %"class.grpc_core::RefCountedPtr" }
%"class.grpc_core::RefCountedPtr" = type { ptr }
%"class.grpc_core::DebugLocation" = type { i8 }
%"class.std::initializer_list" = type { ptr, i64 }
%"class.absl::lts_20230802::StatusOr.28" = type { %"class.absl::lts_20230802::internal_statusor::StatusOrData.base", [4 x i8] }
%"class.absl::lts_20230802::internal_statusor::StatusOrData.base" = type <{ %union.anon.30, %union.anon.31 }>
%union.anon.30 = type { %"class.absl::lts_20230802::Status" }
%union.anon.31 = type { i32 }
%"class.grpc_event_engine::experimental::TcpZerocopySendCtx" = type <{ ptr, ptr, i32, i32, %"class.absl::lts_20230802::Mutex", i32, %"struct.std::atomic.9", i8, [2 x i8], i64, %"class.absl::lts_20230802::flat_hash_map", i8, i8, i8, [5 x i8] }>
%"class.absl::lts_20230802::flat_hash_map" = type { %"class.absl::lts_20230802::container_internal::raw_hash_map" }
%"class.absl::lts_20230802::container_internal::raw_hash_map" = type { %"class.absl::lts_20230802::container_internal::raw_hash_set" }
%"class.absl::lts_20230802::container_internal::raw_hash_set" = type { %"class.absl::lts_20230802::container_internal::CompressedTuple" }
%"class.absl::lts_20230802::container_internal::CompressedTuple" = type { %"struct.absl::lts_20230802::container_internal::internal_compressed_tuple::CompressedTupleImpl" }
%"struct.absl::lts_20230802::container_internal::internal_compressed_tuple::CompressedTupleImpl" = type { %"struct.absl::lts_20230802::container_internal::internal_compressed_tuple::Storage" }
%"struct.absl::lts_20230802::container_internal::internal_compressed_tuple::Storage" = type { %"class.absl::lts_20230802::container_internal::CommonFields" }
%"class.absl::lts_20230802::container_internal::CommonFields" = type { ptr, ptr, i64, %"class.absl::lts_20230802::container_internal::CompressedTuple.18" }
%"class.absl::lts_20230802::container_internal::CompressedTuple.18" = type { %"struct.absl::lts_20230802::container_internal::internal_compressed_tuple::CompressedTupleImpl.19" }
%"struct.absl::lts_20230802::container_internal::internal_compressed_tuple::CompressedTupleImpl.19" = type { %"struct.absl::lts_20230802::container_internal::internal_compressed_tuple::Storage.20" }
%"struct.absl::lts_20230802::container_internal::internal_compressed_tuple::Storage.20" = type { i64 }
%"class.absl::lts_20230802::internal_statusor::StatusOrData.29" = type <{ %union.anon.30, %union.anon.31, [4 x i8] }>
%"struct.absl::lts_20230802::status_internal::StatusRep" = type { %"struct.std::atomic.1", i32, %"class.std::__cxx11::basic_string", %"class.std::unique_ptr.80" }
%"class.std::unique_ptr.80" = type { %"struct.std::__uniq_ptr_data.81" }
%"struct.std::__uniq_ptr_data.81" = type { %"class.std::__uniq_ptr_impl.82" }
%"class.std::__uniq_ptr_impl.82" = type { %"class.std::tuple.83" }
%"class.std::tuple.83" = type { %"struct.std::_Tuple_impl.84" }
%"struct.std::_Tuple_impl.84" = type { %"struct.std::_Head_base.87" }
%"struct.std::_Head_base.87" = type { ptr }
%"struct.grpc_core::BasicMemoryQuota::PressureInfo" = type { double, double, i64 }
%"class.grpc_event_engine::experimental::MemoryRequest" = type { i64, i64 }
%class.anon.36 = type { ptr, ptr, ptr, ptr }
%"class.grpc_core::ApplicationCallbackExecCtx" = type { i64, ptr, ptr }
%"class.grpc_core::ExecCtx" = type { ptr, %struct.grpc_closure_list, %"struct.grpc_core::ExecCtx::CombinerData", i64, %"class.grpc_core::ScopedTimeCache", ptr }
%struct.grpc_closure_list = type { ptr, ptr }
%"struct.grpc_core::ExecCtx::CombinerData" = type { ptr, ptr }
%"class.grpc_core::ScopedTimeCache" = type { %"class.grpc_core::Timestamp::ScopedSource", %"class.std::optional.168" }
%"class.grpc_core::Timestamp::ScopedSource" = type { %"class.grpc_core::Timestamp::Source", ptr }
%"class.grpc_core::Timestamp::Source" = type { ptr }
%"class.std::optional.168" = type { %"struct.std::_Optional_base.169" }
%"struct.std::_Optional_base.169" = type { %"struct.std::_Optional_payload.171" }
%"struct.std::_Optional_payload.171" = type { %"struct.std::_Optional_payload_base.base.173", [7 x i8] }
%"struct.std::_Optional_payload_base.base.173" = type <{ %"union.std::_Optional_payload_base<grpc_core::Timestamp>::_Storage", i8 }>
%"union.std::_Optional_payload_base<grpc_core::Timestamp>::_Storage" = type { %"class.grpc_core::Timestamp" }
%"class.grpc_core::Timestamp" = type { i64 }
%"class.absl::lts_20230802::ReleasableMutexLock" = type { ptr }
%"class.absl::lts_20230802::AnyInvocable.37" = type { %"class.absl::lts_20230802::internal_any_invocable::Impl.38" }
%"class.absl::lts_20230802::internal_any_invocable::Impl.38" = type { %"class.absl::lts_20230802::internal_any_invocable::CoreImpl.39" }
%"class.absl::lts_20230802::internal_any_invocable::CoreImpl.39" = type { %"union.absl::lts_20230802::internal_any_invocable::TypeErasedState", ptr, ptr }
%class.anon.40 = type { %"class.absl::lts_20230802::AnyInvocable", %"class.absl::lts_20230802::Status", [8 x i8] }
%"struct.grpc_event_engine::experimental::EventEngine::Endpoint::ReadArgs" = type { i64 }
%"class.absl::lts_20230802::MutexLock" = type { ptr }
%union.anon.41 = type { %struct.cmsghdr, [496 x i8] }
%struct.sock_extended_err = type { i32, i8, i8, i8, i8, i32, %union.anon.42 }
%union.anon.42 = type { i32 }
%"class.grpc_core::SourceLocation" = type <{ ptr, i32, [4 x i8] }>
%union.anon.43 = type { %struct.cmsghdr, [8 x i8] }
%struct.gpr_timespec = type { i64, i32, i32 }
%class.anon.148 = type { i8 }
%class.anon.150 = type { i8 }
%class.anon.46 = type { %"class.absl::lts_20230802::AnyInvocable", %"class.absl::lts_20230802::Status", [8 x i8] }
%class.anon.48 = type { %"class.absl::lts_20230802::AnyInvocable", %"class.absl::lts_20230802::Status", [8 x i8] }
%"struct.grpc_event_engine::experimental::EventEngine::Endpoint::WriteArgs" = type { ptr, i64 }
%class.anon.50 = type <{ %"class.absl::lts_20230802::AnyInvocable.6", i32, [12 x i8] }>
%"class.grpc_event_engine::experimental::PosixEngineClosure" = type { %"class.grpc_event_engine::experimental::EventEngine::Closure", [8 x i8], %"class.absl::lts_20230802::AnyInvocable", i8, %"class.absl::lts_20230802::Status" }
%"class.grpc_event_engine::experimental::EventEngine::Closure" = type { ptr }
%"class.absl::lts_20230802::StatusOr.58" = type { %"class.absl::lts_20230802::internal_statusor::StatusOrData.base.62", [4 x i8] }
%"class.absl::lts_20230802::internal_statusor::StatusOrData.base.62" = type <{ %union.anon.60, %union.anon.61 }>
%union.anon.60 = type { %"class.absl::lts_20230802::Status" }
%union.anon.61 = type { %"class.grpc_event_engine::experimental::EventEngine::ResolvedAddress" }
%class.anon.68 = type { ptr }
%class.anon.69 = type { ptr }
%class.anon.70 = type { ptr }
%"struct.grpc_event_engine::experimental::PosixTcpOptions" = type { i32, i32, i32, i32, i32, i32, i8, i32, i32, i8, i8, i32, %"class.grpc_core::RefCountedPtr.52", ptr, ptr }
%"class.grpc_core::RefCountedPtr.52" = type { ptr }
%"class.grpc_core::ResourceQuota" = type { %"class.grpc_core::RefCounted.53", %"class.std::shared_ptr", %"class.grpc_core::RefCountedPtr.54" }
%"class.grpc_core::RefCounted.53" = type { %"class.grpc_core::PolymorphicRefCount", %"class.grpc_core::RefCount" }
%"class.grpc_core::RefCountedPtr.54" = type { ptr }
%"class.absl::lts_20230802::internal_statusor::StatusOrData.59" = type <{ %union.anon.60, %union.anon.61, [4 x i8] }>
%"class.std::unique_ptr.71" = type { %"struct.std::__uniq_ptr_data.72" }
%"struct.std::__uniq_ptr_data.72" = type { %"class.std::__uniq_ptr_impl.73" }
%"class.std::__uniq_ptr_impl.73" = type { %"class.std::tuple.74" }
%"class.std::tuple.74" = type { %"struct.std::_Tuple_impl.75" }
%"struct.std::_Tuple_impl.75" = type { %"struct.std::_Head_base.78" }
%"struct.std::_Head_base.78" = type { ptr }
%"struct.grpc_slice::grpc_slice_data::grpc_slice_inlined" = type { i8, [23 x i8] }
%"struct.__gnu_cxx::__ops::_Iter_less_iter" = type { i8 }
%"class.grpc_core::GrpcMemoryAllocatorImpl" = type { %"class.grpc_event_engine::experimental::internal::MemoryAllocatorImpl", %"class.std::shared_ptr.55", %"struct.std::atomic.44", %"struct.std::atomic.44", %"struct.std::atomic.44", %"class.grpc_core::PeriodicUpdate", %"class.absl::lts_20230802::Mutex", i8, [3 x %"class.std::unique_ptr.91"] }
%"class.grpc_event_engine::experimental::internal::MemoryAllocatorImpl" = type { ptr, %"class.std::enable_shared_from_this.88" }
%"class.std::enable_shared_from_this.88" = type { %"class.std::weak_ptr.89" }
%"class.std::weak_ptr.89" = type { %"class.std::__weak_ptr.90" }
%"class.std::__weak_ptr.90" = type { ptr, %"class.std::__weak_count" }
%"class.std::__weak_count" = type { ptr }
%"class.std::shared_ptr.55" = type { %"class.std::__shared_ptr.56" }
%"class.std::__shared_ptr.56" = type { ptr, %"class.std::__shared_count" }
%"struct.std::atomic.44" = type { %"struct.std::__atomic_base.45" }
%"struct.std::__atomic_base.45" = type { i64 }
%"class.grpc_core::PeriodicUpdate" = type { %"struct.std::atomic", %"class.grpc_core::Duration", %"class.grpc_core::Timestamp", i64 }
%"class.grpc_core::Duration" = type { i64 }
%"class.std::unique_ptr.91" = type { %"struct.std::__uniq_ptr_data.92" }
%"struct.std::__uniq_ptr_data.92" = type { %"class.std::__uniq_ptr_impl.93" }
%"class.std::__uniq_ptr_impl.93" = type { %"class.std::tuple.94" }
%"class.std::tuple.94" = type { %"struct.std::_Tuple_impl.95" }
%"struct.std::_Tuple_impl.95" = type { %"struct.std::_Head_base.98" }
%"struct.std::_Head_base.98" = type { ptr }
%"class.absl::lts_20230802::container_internal::raw_hash_set<absl::lts_20230802::container_internal::FlatHashMapPolicy<unsigned int, grpc_event_engine::experimental::TcpZerocopySendRecord *>, absl::lts_20230802::hash_internal::Hash<unsigned int>, std::equal_to<unsigned int>, std::allocator<std::pair<const unsigned int, grpc_event_engine::experimental::TcpZerocopySendRecord *>>>::iterator" = type { ptr, %union.anon.121 }
%union.anon.121 = type { ptr }
%"struct.std::pair" = type { i32, ptr }
%"class.absl::lts_20230802::container_internal::raw_hash_set<absl::lts_20230802::container_internal::FlatHashMapPolicy<unsigned int, grpc_event_engine::experimental::TcpZerocopySendRecord *>, absl::lts_20230802::hash_internal::Hash<unsigned int>, std::equal_to<unsigned int>, std::allocator<std::pair<const unsigned int, grpc_event_engine::experimental::TcpZerocopySendRecord *>>>::const_iterator" = type { %"class.absl::lts_20230802::container_internal::raw_hash_set<absl::lts_20230802::container_internal::FlatHashMapPolicy<unsigned int, grpc_event_engine::experimental::TcpZerocopySendRecord *>, absl::lts_20230802::hash_internal::Hash<unsigned int>, std::equal_to<unsigned int>, std::allocator<std::pair<const unsigned int, grpc_event_engine::experimental::TcpZerocopySendRecord *>>>::iterator" }
%"class.absl::lts_20230802::container_internal::probe_seq" = type { i64, i64, i64 }
%"struct.absl::lts_20230802::container_internal::GroupSse2Impl" = type { <2 x i64> }
%"class.absl::lts_20230802::container_internal::BitMask" = type { %"class.absl::lts_20230802::container_internal::NonIterableBitMask" }
%"class.absl::lts_20230802::container_internal::NonIterableBitMask" = type { i32 }
%"struct.absl::lts_20230802::container_internal::raw_hash_set<absl::lts_20230802::container_internal::FlatHashMapPolicy<unsigned int, grpc_event_engine::experimental::TcpZerocopySendRecord *>, absl::lts_20230802::hash_internal::Hash<unsigned int>, std::equal_to<unsigned int>, std::allocator<std::pair<const unsigned int, grpc_event_engine::experimental::TcpZerocopySendRecord *>>>::EqualElement" = type { ptr, ptr }
%"union.absl::lts_20230802::container_internal::map_slot_type" = type { %"struct.std::pair" }
%"struct.std::pair.124" = type { %"class.std::tuple.126", %"class.std::tuple.129" }
%"class.std::tuple.126" = type { %"struct.std::_Tuple_impl.127" }
%"struct.std::_Tuple_impl.127" = type { %"struct.std::_Head_base.128" }
%"struct.std::_Head_base.128" = type { ptr }
%"class.std::tuple.129" = type { %"struct.std::_Tuple_impl.130" }
%"struct.std::_Tuple_impl.130" = type { %"struct.std::_Head_base.131" }
%"struct.std::_Head_base.131" = type { ptr }
%"struct.std::pair.132" = type <{ %"class.absl::lts_20230802::container_internal::raw_hash_set<absl::lts_20230802::container_internal::FlatHashMapPolicy<unsigned int, grpc_event_engine::experimental::TcpZerocopySendRecord *>, absl::lts_20230802::hash_internal::Hash<unsigned int>, std::equal_to<unsigned int>, std::allocator<std::pair<const unsigned int, grpc_event_engine::experimental::TcpZerocopySendRecord *>>>::iterator", i8, [7 x i8] }>
%"struct.absl::lts_20230802::container_internal::raw_hash_set<absl::lts_20230802::container_internal::FlatHashMapPolicy<unsigned int, grpc_event_engine::experimental::TcpZerocopySendRecord *>, absl::lts_20230802::hash_internal::Hash<unsigned int>, std::equal_to<unsigned int>, std::allocator<std::pair<const unsigned int, grpc_event_engine::experimental::TcpZerocopySendRecord *>>>::EmplaceDecomposable" = type { ptr }
%"struct.std::pair.134" = type { %"class.std::tuple.136", %"class.std::tuple.139" }
%"class.std::tuple.136" = type { %"struct.std::_Tuple_impl.137" }
%"struct.std::_Tuple_impl.137" = type { %"struct.std::_Head_base.138" }
%"struct.std::_Head_base.138" = type { ptr }
%"class.std::tuple.139" = type { %"struct.std::_Tuple_impl.140" }
%"struct.std::_Tuple_impl.140" = type { %"struct.std::_Head_base.141" }
%"struct.std::_Head_base.141" = type { ptr }
%"struct.std::pair.142" = type <{ i64, i8, [7 x i8] }>
%"struct.absl::lts_20230802::container_internal::FindInfo" = type { i64, i64 }
%"struct.absl::lts_20230802::container_internal::raw_hash_set<absl::lts_20230802::container_internal::FlatHashMapPolicy<unsigned int, grpc_event_engine::experimental::TcpZerocopySendRecord *>, absl::lts_20230802::hash_internal::Hash<unsigned int>, std::equal_to<unsigned int>, std::allocator<std::pair<const unsigned int, grpc_event_engine::experimental::TcpZerocopySendRecord *>>>::HashElement" = type { ptr }
%"class.std::allocator.145" = type { i8 }
%"class.absl::lts_20230802::container_internal::HashtablezInfoHandle" = type { i8 }
%"struct.std::pair.122" = type { i32, ptr }
%struct.rlimit = type { i64, i64 }
%struct.dirent = type { i64, i64, i16, i8, [256 x i8] }
%"class.absl::lts_20230802::StatusOr.152" = type { %"class.absl::lts_20230802::internal_statusor::StatusOrData.153" }
%"class.absl::lts_20230802::internal_statusor::StatusOrData.153" = type { %union.anon.154, %union.anon.155 }
%union.anon.154 = type { %"class.absl::lts_20230802::Status" }
%union.anon.155 = type { %"class.grpc_core::Slice" }
%"class.grpc_core::Slice" = type { %"class.grpc_core::slice_detail::BaseSlice" }
%"class.grpc_core::slice_detail::BaseSlice" = type { %struct.grpc_slice }
%"class.__gnu_cxx::__normal_iterator.160" = type { ptr }
%"class.__gnu_cxx::__normal_iterator" = type { ptr }
%"class.std::reverse_iterator" = type { %"class.__gnu_cxx::__normal_iterator" }
%"struct.__gnu_cxx::__ops::_Iter_pred" = type { %class.anon.161 }
%class.anon.161 = type { i8 }
%struct.grpc_slice_refcount = type { %"struct.std::atomic.44", ptr }
%"class.std::_Sp_counted_base" = type { ptr, i32, i32 }
%struct._Guard = type { ptr }
%"class.grpc_core::BasicMemoryQuota" = type { %"class.std::enable_shared_from_this.99", %"struct.std::atomic", %"struct.std::atomic.44", [3 x %"class.grpc_core::ReclaimerQueue"], %"class.grpc_core::BasicMemoryQuota::AllocatorBucket", %"class.grpc_core::BasicMemoryQuota::AllocatorBucket", %"class.std::unique_ptr.114", %"struct.std::atomic.44", %"class.grpc_core::memory_quota_detail::PressureTracker", %"class.std::__cxx11::basic_string" }
%"class.std::enable_shared_from_this.99" = type { %"class.std::weak_ptr.100" }
%"class.std::weak_ptr.100" = type { %"class.std::__weak_ptr.101" }
%"class.std::__weak_ptr.101" = type { ptr, %"class.std::__weak_count" }
%"class.grpc_core::ReclaimerQueue" = type { %"class.std::shared_ptr.102" }
%"class.std::shared_ptr.102" = type { %"class.std::__shared_ptr.103" }
%"class.std::__shared_ptr.103" = type { ptr, %"class.std::__shared_count" }
%"class.grpc_core::BasicMemoryQuota::AllocatorBucket" = type { %"struct.std::array" }
%"struct.std::array" = type { [16 x %"struct.grpc_core::BasicMemoryQuota::AllocatorBucket::Shard"] }
%"struct.grpc_core::BasicMemoryQuota::AllocatorBucket::Shard" = type { %"class.absl::lts_20230802::flat_hash_set", %"class.absl::lts_20230802::Mutex" }
%"class.absl::lts_20230802::flat_hash_set" = type { %"class.absl::lts_20230802::container_internal::raw_hash_set.105" }
%"class.absl::lts_20230802::container_internal::raw_hash_set.105" = type { %"class.absl::lts_20230802::container_internal::CompressedTuple.106" }
%"class.absl::lts_20230802::container_internal::CompressedTuple.106" = type { %"struct.absl::lts_20230802::container_internal::internal_compressed_tuple::CompressedTupleImpl.107" }
%"struct.absl::lts_20230802::container_internal::internal_compressed_tuple::CompressedTupleImpl.107" = type { %"struct.absl::lts_20230802::container_internal::internal_compressed_tuple::Storage" }
%"class.std::unique_ptr.114" = type { %"struct.std::__uniq_ptr_data.115" }
%"struct.std::__uniq_ptr_data.115" = type { %"class.std::__uniq_ptr_impl.116" }
%"class.std::__uniq_ptr_impl.116" = type { %"class.std::tuple.117" }
%"class.std::tuple.117" = type { %"struct.std::_Tuple_impl.118" }
%"struct.std::_Tuple_impl.118" = type { %"struct.std::_Head_base.119" }
%"struct.std::_Head_base.119" = type { ptr }
%"class.grpc_core::memory_quota_detail::PressureTracker" = type { %"struct.std::atomic.120", %"struct.std::atomic.120", %"class.grpc_core::PeriodicUpdate", %"class.grpc_core::memory_quota_detail::PressureController" }
%"struct.std::atomic.120" = type { double }
%"class.grpc_core::memory_quota_detail::PressureController" = type { i8, i8, i8, i8, double, double, double }
%"class.grpc_core::RefCountedPtr.163" = type { ptr }
%"class.grpc_core::ReclaimerQueue::Handle" = type { %"class.grpc_core::InternallyRefCounted", %"struct.std::atomic.164" }
%"class.grpc_core::InternallyRefCounted" = type { %"class.grpc_core::Orphanable", %"class.grpc_core::RefCount" }
%"class.grpc_core::Orphanable" = type { ptr }
%"struct.std::atomic.164" = type { %"struct.std::__atomic_base.165" }
%"struct.std::__atomic_base.165" = type { ptr }
%"class.grpc_core::ReclaimerQueue::Handle::SweepFn" = type { %"class.grpc_core::ReclaimerQueue::Handle::Sweep", %class.anon }
%"class.grpc_core::ReclaimerQueue::Handle::Sweep" = type { ptr, %"class.std::shared_ptr.102" }
%"class.std::optional" = type { %"struct.std::_Optional_base" }
%"struct.std::_Optional_base" = type { %"struct.std::_Optional_payload" }
%"struct.std::_Optional_payload" = type { %"struct.std::_Optional_payload.base", [7 x i8] }
%"struct.std::_Optional_payload.base" = type { %"struct.std::_Optional_payload_base.base" }
%"struct.std::_Optional_payload_base.base" = type <{ %"union.std::_Optional_payload_base<grpc_core::ReclamationSweep>::_Storage", i8 }>
%"union.std::_Optional_payload_base<grpc_core::ReclamationSweep>::_Storage" = type { %"class.grpc_core::ReclamationSweep" }
%"class.grpc_core::ReclamationSweep" = type { %"class.std::shared_ptr.55", i64, %"class.grpc_core::Waker" }
%"class.grpc_core::Waker" = type { %"struct.grpc_core::Waker::WakeableAndArg" }
%"struct.grpc_core::Waker::WakeableAndArg" = type { ptr, i16 }
%"struct.std::_Optional_payload_base" = type <{ %"union.std::_Optional_payload_base<grpc_core::ReclamationSweep>::_Storage", i8, [7 x i8] }>
%struct.grpc_completion_queue_functor = type { ptr, i32, i32, ptr }
%"struct.std::_Optional_payload_base.172" = type <{ %"union.std::_Optional_payload_base<grpc_core::Timestamp>::_Storage", i8, [7 x i8] }>
%"struct.absl::lts_20230802::hash_internal::Hash" = type { i8 }
%"struct.std::equal_to" = type { i8 }
%"class.std::allocator.25" = type { i8 }
%"class.grpc_event_engine::experimental::PosixEndpoint" = type <{ %"class.grpc_event_engine::experimental::PosixEndpointWithFdSupport", ptr, %"struct.std::atomic.9", [7 x i8] }>
%"class.grpc_event_engine::experimental::PosixEndpointWithFdSupport" = type { %"class.grpc_event_engine::experimental::EventEngine::Endpoint" }
%"class.grpc_event_engine::experimental::EventEngine::Endpoint" = type { ptr }

$_ZN17grpc_event_engine12experimental11SliceBuffer5CountEv = comdat any

$_ZN17grpc_event_engine12experimental8internal9SliceCastINS0_12MutableSliceENS0_5SliceEEERT_RT0_NS1_13SliceCastableIS5_S7_EE = comdat any

$_ZNK17grpc_event_engine12experimental11SliceBuffer14MutableSliceAtEm = comdat any

$_ZN17grpc_event_engine12experimental12MutableSlice5beginEv = comdat any

$_ZNK17grpc_event_engine12experimental12slice_detail9BaseSlice6lengthEv = comdat any

$_ZSt3maxIdERKT_S2_S2_ = comdat any

$_ZNK4absl12lts_202308028StatusOrINSt7__cxx1112basic_stringIcSt11char_traitsIcESaIcEEEE2okEv = comdat any

$_ZNR4absl12lts_202308028StatusOrINSt7__cxx1112basic_stringIcSt11char_traitsIcESaIcEEEEdeEv = comdat any

$_ZNSt7__cxx1112basic_stringIcSt11char_traitsIcESaIcEEC2IS3_EEPKcRKS3_ = comdat any

$_ZN4absl12lts_202308026StatusC2EOS1_ = comdat any

$_ZN4absl12lts_202308028StatusOrINSt7__cxx1112basic_stringIcSt11char_traitsIcESaIcEEEED2Ev = comdat any

$_ZSt3minImERKT_S2_S2_ = comdat any

$_ZNK17grpc_event_engine12experimental11SliceBuffer6LengthEv = comdat any

$_ZN17grpc_event_engine12experimental11SliceBuffer5ClearEv = comdat any

$_ZNSt17basic_string_viewIcSt11char_traitsIcEEC2EPKc = comdat any

$_ZN4absl12lts_202308026StatusaSEOS1_ = comdat any

$_ZN4absl12lts_202308026StatusD2Ev = comdat any

$_ZN4absl12lts_202308028AlphaNumC2EPKc = comdat any

$_ZN4absl12lts_202308028AlphaNumC2ISaIcEEERKNSt7__cxx1112basic_stringIcSt11char_traitsIcET_EE = comdat any

$_ZN4absl12lts_202308028OkStatusEv = comdat any

$_ZN9grpc_core27IsTcpFrameSizeTuningEnabledEv = comdat any

$_ZN17grpc_event_engine12experimental11SliceBuffer30MoveFirstNBytesIntoSliceBufferEmRS1_ = comdat any

$_ZN17grpc_event_engine12experimental11SliceBuffer4SwapERS1_ = comdat any

$_ZN17grpc_event_engine12experimental11SliceBuffer29MoveLastNBytesIntoSliceBufferEmRS1_ = comdat any

$_ZN9grpc_core10RefCountedIN17grpc_event_engine12experimental17PosixEndpointImplENS_19PolymorphicRefCountENS_11UnrefDeleteEE3RefERKNS_13DebugLocationEPKc = comdat any

$_ZN9grpc_core13DebugLocationC2EPKci = comdat any

$_ZN9grpc_core20IsTcpRcvLowatEnabledEv = comdat any

$_ZSt3minIiET_St16initializer_listIS0_E = comdat any

$_ZNKSt10unique_ptrIN17grpc_event_engine12experimental18TcpZerocopySendCtxESt14default_deleteIS2_EEptEv = comdat any

$_ZNK17grpc_event_engine12experimental18TcpZerocopySendCtx7EnabledEv = comdat any

$_ZNK4absl12lts_202308028StatusOrIiE2okEv = comdat any

$_ZNR4absl12lts_202308028StatusOrIiEdeEv = comdat any

$_ZNKR4absl12lts_202308028StatusOrIiE6statusEv = comdat any

$_ZNK4absl12lts_202308026Status7messageEv = comdat any

$_ZN4absl12lts_202308028AlphaNumC2ESt17basic_string_viewIcSt11char_traitsIcEE = comdat any

$_ZN4absl12lts_202308028StatusOrIiED2Ev = comdat any

$_ZSt3maxImERKT_S2_S2_ = comdat any

$_ZNK9grpc_core11MemoryOwner15GetPressureInfoEv = comdat any

$_ZSt3maxIiERKT_S2_S2_ = comdat any

$_ZN17grpc_event_engine12experimental15MemoryAllocator9MakeSliceENS0_13MemoryRequestE = comdat any

$_ZN17grpc_event_engine12experimental13MemoryRequestC2Em = comdat any

$_ZN17grpc_event_engine12experimental5SliceC2ERK10grpc_slice = comdat any

$_ZNK4absl12lts_202308026Status2okEv = comdat any

$_ZNK9grpc_core11MemoryOwner8is_validEv = comdat any

$_ZN4absl12lts_2023080212AnyInvocableIFvNS0_6StatusEEEC2EDn = comdat any

$_ZN4absl12lts_2023080222internal_any_invocable4ImplIFvNS0_6StatusEEEclES3_ = comdat any

$_ZN4absl12lts_202308026StatusC2ERKS1_ = comdat any

$_ZNK9grpc_core10RefCountedIN17grpc_event_engine12experimental17PosixEndpointImplENS_19PolymorphicRefCountENS_11UnrefDeleteEE5UnrefEv = comdat any

$_ZN4absl12lts_2023080212AnyInvocableIFvNS0_6StatusEEED2Ev = comdat any

$_ZN4absl12lts_2023080219ReleasableMutexLockC2EPNS0_5MutexE = comdat any

$_ZN4absl12lts_20230802eqERKNS0_12AnyInvocableIFvNS0_6StatusEEEEDn = comdat any

$_ZN9grpc_core10RefCountedIN17grpc_event_engine12experimental17PosixEndpointImplENS_19PolymorphicRefCountENS_11UnrefDeleteEE3RefEv = comdat any

$_ZN9grpc_core13RefCountedPtrIN17grpc_event_engine12experimental17PosixEndpointImplEE7releaseEv = comdat any

$_ZN9grpc_core13RefCountedPtrIN17grpc_event_engine12experimental17PosixEndpointImplEED2Ev = comdat any

$_ZN4absl12lts_2023080212AnyInvocableIFvNS0_6StatusEEEaSEOS4_ = comdat any

$_ZN4absl12lts_202308026StatusC2Ev = comdat any

$_ZNKSt19__shared_ptr_accessIN17grpc_event_engine12experimental11EventEngineELN9__gnu_cxx12_Lock_policyE2ELb0ELb0EEptEv = comdat any

$_ZN4absl12lts_2023080212AnyInvocableIFvNS0_6StatusEEEC2EOS4_ = comdat any

$_ZN4absl12lts_2023080212AnyInvocableIFvvEED2Ev = comdat any

$_ZN4absl12lts_2023080219ReleasableMutexLockD2Ev = comdat any

$_ZNK17grpc_event_engine12experimental18TcpZerocopySendCtx14ThresholdBytesEv = comdat any

$_ZN17grpc_event_engine12experimental18TcpZerocopySendCtx13GetSendRecordEv = comdat any

$_ZN17grpc_event_engine12experimental21TcpZerocopySendRecord15PrepareForSendsERNS0_11SliceBufferE = comdat any

$_ZN17grpc_event_engine12experimental18TcpZerocopySendCtx8ShutdownEv = comdat any

$_ZN17grpc_event_engine12experimental18TcpZerocopySendCtx19AllSendRecordsEmptyEv = comdat any

$_ZN17grpc_event_engine12experimental18TcpZerocopySendCtx17ReleaseSendRecordEj = comdat any

$_ZN17grpc_event_engine12experimental18TcpZerocopySendCtx34UpdateZeroCopyOptMemStateAfterFreeEv = comdat any

$_ZNKSt6atomicIbE4loadESt12memory_order = comdat any

$_ZN17grpc_event_engine12experimental21TcpZerocopySendRecord5UnrefEv = comdat any

$_ZN17grpc_event_engine12experimental18TcpZerocopySendCtx13PutSendRecordEPNS0_21TcpZerocopySendRecordE = comdat any

$_ZN17grpc_event_engine12experimental18TcpZerocopySendCtx8NoteSendEPNS0_21TcpZerocopySendRecordE = comdat any

$_ZN17grpc_event_engine12experimental18TcpZerocopySendCtx34UpdateZeroCopyOptMemStateAfterSendEbRb = comdat any

$_ZNK9grpc_core9Timestamp32milliseconds_after_process_epochEv = comdat any

$_ZNKSt13__atomic_baseImEcvmEv = comdat any

$_ZNSt13__atomic_baseImEaSEm = comdat any

$_ZN17grpc_event_engine12experimental18TcpZerocopySendCtx8UndoSendEv = comdat any

$_ZN17grpc_event_engine12experimental21TcpZerocopySendRecord17UnwindIfThrottledEmm = comdat any

$_ZN17grpc_event_engine12experimental21TcpZerocopySendRecord13AllSlicesSentEv = comdat any

$_ZN4absl12lts_2023080212AnyInvocableIFvNS0_6StatusEEEaSEDn = comdat any

$_ZNSt6atomicIbE5storeEbSt12memory_order = comdat any

$_ZN4absl12lts_2023080212AnyInvocableIFvNS0_8StatusOrIiEEEEaSEOS5_ = comdat any

$_ZN17grpc_event_engine12experimental15MemoryAllocator5ResetEv = comdat any

$_ZN4absl12lts_20230802eqERKNS0_12AnyInvocableIFvNS0_8StatusOrIiEEEEEDn = comdat any

$__clang_call_terminate = comdat any

$_ZN4absl12lts_20230802neERKNS0_12AnyInvocableIFvNS0_8StatusOrIiEEEEEDn = comdat any

$_ZN4absl12lts_2023080212AnyInvocableIFvNS0_8StatusOrIiEEEEC2EOS5_ = comdat any

$_ZN17grpc_event_engine12experimental18PosixEngineClosureD2Ev = comdat any

$_ZNSt10shared_ptrIN17grpc_event_engine12experimental11EventEngineEED2Ev = comdat any

$_ZN17grpc_event_engine12experimental16TracedBufferListD2Ev = comdat any

$_ZNSt10unique_ptrIN17grpc_event_engine12experimental18TcpZerocopySendCtxESt14default_deleteIS2_EED2Ev = comdat any

$_ZN4absl12lts_2023080212AnyInvocableIFvNS0_8StatusOrIiEEEED2Ev = comdat any

$_ZN17grpc_event_engine12experimental15MemoryAllocator11ReservationD2Ev = comdat any

$_ZN9grpc_core11MemoryOwnerD2Ev = comdat any

$_ZNSt10shared_ptrIN9grpc_core11MemoryQuotaEED2Ev = comdat any

$_ZN17grpc_event_engine12experimental11SliceBufferD2Ev = comdat any

$_ZN9grpc_core10RefCountedIN17grpc_event_engine12experimental17PosixEndpointImplENS_19PolymorphicRefCountENS_11UnrefDeleteEEC2EPKcl = comdat any

$_ZN4absl12lts_202308025MutexC2Ev = comdat any

$_ZN17grpc_event_engine12experimental18PosixSocketWrapperC2Ei = comdat any

$_ZNSt6atomicIiEC2Ei = comdat any

$_ZN17grpc_event_engine12experimental11SliceBufferC2Ev = comdat any

$_ZN4absl12lts_2023080212AnyInvocableIFvNS0_6StatusEEEC2Ev = comdat any

$_ZN17grpc_event_engine12experimental11EventEngine15ResolvedAddressC2Ev = comdat any

$_ZNSt10shared_ptrIN9grpc_core11MemoryQuotaEEC2Ev = comdat any

$_ZN9grpc_core11MemoryOwnerC2Ev = comdat any

$_ZN17grpc_event_engine12experimental15MemoryAllocator11ReservationC2Ev = comdat any

$_ZN4absl12lts_2023080212AnyInvocableIFvNS0_8StatusOrIiEEEEC2EDn = comdat any

$_ZNSt6atomicIbEC2Eb = comdat any

$_ZNSt10unique_ptrIN17grpc_event_engine12experimental18TcpZerocopySendCtxESt14default_deleteIS2_EEC2IS4_vEEv = comdat any

$_ZN17grpc_event_engine12experimental16TracedBufferListC2Ev = comdat any

$_ZNSt10shared_ptrIN17grpc_event_engine12experimental11EventEngineEEC2ERKS3_ = comdat any

$_ZNK9grpc_core13RefCountedPtrINS_13ResourceQuotaEEneEDn = comdat any

$_ZNK9grpc_core13RefCountedPtrINS_13ResourceQuotaEEptEv = comdat any

$_ZN9grpc_core13ResourceQuota12memory_quotaEv = comdat any

$_ZNSt10shared_ptrIN9grpc_core11MemoryQuotaEEaSEOS2_ = comdat any

$_ZNKSt19__shared_ptr_accessIN9grpc_core11MemoryQuotaELN9__gnu_cxx12_Lock_policyE2ELb0ELb0EEptEv = comdat any

$_ZN9grpc_core11MemoryOwneraSEOS0_ = comdat any

$_ZN17grpc_event_engine12experimental15MemoryAllocator15MakeReservationENS0_13MemoryRequestE = comdat any

$_ZN17grpc_event_engine12experimental15MemoryAllocator11ReservationaSEOS2_ = comdat any

$_ZNK4absl12lts_202308028StatusOrIN17grpc_event_engine12experimental11EventEngine15ResolvedAddressEE2okEv = comdat any

$_ZNR4absl12lts_202308028StatusOrIN17grpc_event_engine12experimental11EventEngine15ResolvedAddressEEdeEv = comdat any

$_ZSt11make_uniqueIN17grpc_event_engine12experimental18TcpZerocopySendCtxEJRbRKiS5_EENSt8__detail9_MakeUniqIT_E15__single_objectEDpOT0_ = comdat any

$_ZNSt10unique_ptrIN17grpc_event_engine12experimental18TcpZerocopySendCtxESt14default_deleteIS2_EEaSEOS5_ = comdat any

$_ZN17grpc_event_engine12experimental18PosixEngineClosure18ToPermanentClosureEN4absl12lts_2023080212AnyInvocableIFvNS3_6StatusEEEE = comdat any

$_ZN4absl12lts_202308028StatusOrIN17grpc_event_engine12experimental11EventEngine15ResolvedAddressEED2Ev = comdat any

$_ZSt11make_uniqueIN17grpc_event_engine12experimental13PosixEndpointEJRPNS1_11EventHandleERPNS1_18PosixEngineClosureESt10shared_ptrINS1_11EventEngineEENS1_15MemoryAllocatorERKNS1_15PosixTcpOptionsEEENSt8__detail9_MakeUniqIT_E15__single_objectEDpOT0_ = comdat any

$_ZN9grpc_core19NoDestructSingletonINS_14promise_detail10UnwakeableEE6value_E = comdat any

$_ZN9grpc_core10NoDestructINS_14promise_detail10UnwakeableEEC2IJEEEDpOT_ = comdat any

$_ZN17grpc_event_engine12experimental8internal9SliceCastINS0_5SliceE10grpc_sliceEERT_RT0_NS1_13SliceCastableIS5_S7_EE = comdat any

$_ZN17grpc_event_engine12experimental12slice_detail9BaseSlice12mutable_dataEv = comdat any

$_ZNK17grpc_event_engine12experimental12slice_detail9BaseSlice4sizeEv = comdat any

$_ZNK17grpc_event_engine12experimental12slice_detail9BaseSlice7c_sliceEv = comdat any

$_ZN4absl12lts_202308026Status12MovedFromRepEv = comdat any

$_ZN4absl12lts_202308026Status16CodeToInlinedRepENS0_10StatusCodeE = comdat any

$_ZN4absl12lts_2023080217internal_statusor12StatusOrDataINSt7__cxx1112basic_stringIcSt11char_traitsIcESaIcEEEED2Ev = comdat any

$_ZNK4absl12lts_2023080217internal_statusor12StatusOrDataINSt7__cxx1112basic_stringIcSt11char_traitsIcESaIcEEEE2okEv = comdat any

$_ZNSt11char_traitsIcE6lengthEPKc = comdat any

$_ZN4absl12lts_202308026Status5UnrefEm = comdat any

$_ZN4absl12lts_202308026Status9IsInlinedEm = comdat any

$_ZN4absl12lts_2023080218NullSafeStringViewEPKc = comdat any

$_ZNSt17basic_string_viewIcSt11char_traitsIcEEC2Ev = comdat any

$_ZSt13__min_elementIPKiN9__gnu_cxx5__ops15_Iter_less_iterEET_S5_S5_T0_ = comdat any

$_ZNKSt16initializer_listIiE5beginEv = comdat any

$_ZNKSt16initializer_listIiE3endEv = comdat any

$_ZN9__gnu_cxx5__ops16__iter_less_iterEv = comdat any

$_ZNK9__gnu_cxx5__ops15_Iter_less_iterclIPKiS4_EEbT_T0_ = comdat any

$_ZNKSt16initializer_listIiE4sizeEv = comdat any

$_ZN4absl12lts_202308026Status12RepToPointerEm = comdat any

$_ZN4absl12lts_202308026Status11IsMovedFromEm = comdat any

$_ZN4absl12lts_2023080217internal_statusor12StatusOrDataIiED2Ev = comdat any

$_ZNK4absl12lts_2023080217internal_statusor12StatusOrDataIiE2okEv = comdat any

$_ZNK9grpc_core11MemoryOwner4implEv = comdat any

$_ZNK9grpc_core23GrpcMemoryAllocatorImpl15GetPressureInfoEv = comdat any

$_ZNK17grpc_event_engine12experimental15MemoryAllocator21get_internal_impl_ptrEv = comdat any

$_ZNKSt12__shared_ptrIN17grpc_event_engine12experimental8internal19MemoryAllocatorImplELN9__gnu_cxx12_Lock_policyE2EE3getEv = comdat any

$_ZNKSt19__shared_ptr_accessIN9grpc_core16BasicMemoryQuotaELN9__gnu_cxx12_Lock_policyE2ELb0ELb0EEptEv = comdat any

$_ZNKSt19__shared_ptr_accessIN9grpc_core16BasicMemoryQuotaELN9__gnu_cxx12_Lock_policyE2ELb0ELb0EE6_M_getEv = comdat any

$_ZNKSt12__shared_ptrIN9grpc_core16BasicMemoryQuotaELN9__gnu_cxx12_Lock_policyE2EE3getEv = comdat any

$_ZNKSt19__shared_ptr_accessIN17grpc_event_engine12experimental8internal19MemoryAllocatorImplELN9__gnu_cxx12_Lock_policyE2ELb0ELb0EEptEv = comdat any

$_ZNKSt19__shared_ptr_accessIN17grpc_event_engine12experimental8internal19MemoryAllocatorImplELN9__gnu_cxx12_Lock_policyE2ELb0ELb0EE6_M_getEv = comdat any

$_ZN17grpc_event_engine12experimental12slice_detail9BaseSliceC2ERK10grpc_slice = comdat any

$_ZN4absl12lts_202308026Status3RefEm = comdat any

$_ZN4absl12lts_2023080222internal_any_invocable4ImplIFvNS0_6StatusEEED2Ev = comdat any

$_ZN4absl12lts_2023080222internal_any_invocable8CoreImplILb0EvJNS0_6StatusEEED2Ev = comdat any

$_ZN4absl12lts_2023080222internal_any_invocable4ImplIFvNS0_6StatusEEEaSEOS5_ = comdat any

$_ZN4absl12lts_2023080222internal_any_invocable8CoreImplILb0EvJNS0_6StatusEEEaSEOS4_ = comdat any

$_ZN4absl12lts_2023080222internal_any_invocable8CoreImplILb0EvJNS0_6StatusEEE5ClearEv = comdat any

$_ZN4absl12lts_2023080222internal_any_invocable12EmptyManagerENS1_14FunctionToCallEPNS1_15TypeErasedStateES4_ = comdat any

$_ZN4absl12lts_2023080222internal_any_invocable4ImplIFvNS0_6StatusEEEC2EOS5_ = comdat any

$_ZN4absl12lts_2023080222internal_any_invocable8CoreImplILb0EvJNS0_6StatusEEEC2EOS4_ = comdat any

$_ZN4absl12lts_2023080222internal_any_invocable4ImplIFvvEED2Ev = comdat any

$_ZN4absl12lts_2023080222internal_any_invocable8CoreImplILb0EvJEED2Ev = comdat any

$_ZN4absl12lts_202308029MutexLockC2EPNS0_5MutexE = comdat any

$_ZN17grpc_event_engine12experimental18TcpZerocopySendCtx22TryGetSendRecordLockedEv = comdat any

$_ZN4absl12lts_202308029MutexLockD2Ev = comdat any

$_ZN17grpc_event_engine12experimental21TcpZerocopySendRecord16DebugAssertEmptyEv = comdat any

$_ZN17grpc_event_engine12experimental21TcpZerocopySendRecord3RefEv = comdat any

$_ZN17grpc_event_engine12experimental18TcpZerocopySendCtx23ReleaseSendRecordLockedEj = comdat any

$_ZN4absl12lts_2023080218container_internal12raw_hash_setINS1_17FlatHashMapPolicyIjPN17grpc_event_engine12experimental21TcpZerocopySendRecordEEENS0_13hash_internal4HashIjEESt8equal_toIjESaISt4pairIKjS7_EEE4findIjEENSI_8iteratorERSF_ = comdat any

$_ZNK4absl12lts_2023080218container_internal12raw_hash_setINS1_17FlatHashMapPolicyIjPN17grpc_event_engine12experimental21TcpZerocopySendRecordEEENS0_13hash_internal4HashIjEESt8equal_toIjESaISt4pairIKjS7_EEE8iteratorptEv = comdat any

$_ZN4absl12lts_2023080218container_internal12raw_hash_setINS1_17FlatHashMapPolicyIjPN17grpc_event_engine12experimental21TcpZerocopySendRecordEEENS0_13hash_internal4HashIjEESt8equal_toIjESaISt4pairIKjS7_EEE5eraseENSI_8iteratorE = comdat any

$_ZNK4absl12lts_2023080218container_internal12raw_hash_setINS1_17FlatHashMapPolicyIjPN17grpc_event_engine12experimental21TcpZerocopySendRecordEEENS0_13hash_internal4HashIjEESt8equal_toIjESaISt4pairIKjS7_EEE19prefetch_heap_blockEv = comdat any

$_ZN4absl12lts_2023080218container_internal12raw_hash_setINS1_17FlatHashMapPolicyIjPN17grpc_event_engine12experimental21TcpZerocopySendRecordEEENS0_13hash_internal4HashIjEESt8equal_toIjESaISt4pairIKjS7_EEE4findIjEENSI_8iteratorERSF_m = comdat any

$_ZN4absl12lts_2023080218container_internal12raw_hash_setINS1_17FlatHashMapPolicyIjPN17grpc_event_engine12experimental21TcpZerocopySendRecordEEENS0_13hash_internal4HashIjEESt8equal_toIjESaISt4pairIKjS7_EEE8hash_refEv = comdat any

$_ZNK4absl12lts_2023080213hash_internal8HashImplIjEclERKj = comdat any

$_ZNK4absl12lts_2023080218container_internal12raw_hash_setINS1_17FlatHashMapPolicyIjPN17grpc_event_engine12experimental21TcpZerocopySendRecordEEENS0_13hash_internal4HashIjEESt8equal_toIjESaISt4pairIKjS7_EEE7controlEv = comdat any

$_ZNK4absl12lts_2023080218container_internal12raw_hash_setINS1_17FlatHashMapPolicyIjPN17grpc_event_engine12experimental21TcpZerocopySendRecordEEENS0_13hash_internal4HashIjEESt8equal_toIjESaISt4pairIKjS7_EEE6commonEv = comdat any

$_ZNK4absl12lts_2023080218container_internal12CommonFields7controlEv = comdat any

$_ZNKR4absl12lts_2023080218container_internal15CompressedTupleIJNS1_12CommonFieldsENS0_13hash_internal4HashIjEESt8equal_toIjESaISt4pairIKjPN17grpc_event_engine12experimental21TcpZerocopySendRecordEEEEE3getILi0EEERKNS1_25internal_compressed_tuple4ElemISH_XT_EE4typeEv = comdat any

$_ZNKR4absl12lts_2023080218container_internal25internal_compressed_tuple7StorageINS1_12CommonFieldsELm0ELb0EE3getEv = comdat any

$_ZN4absl12lts_2023080218container_internal5probeERKNS1_12CommonFieldsEm = comdat any

$_ZN4absl12lts_2023080218container_internal12raw_hash_setINS1_17FlatHashMapPolicyIjPN17grpc_event_engine12experimental21TcpZerocopySendRecordEEENS0_13hash_internal4HashIjEESt8equal_toIjESaISt4pairIKjS7_EEE6commonEv = comdat any

$_ZNK4absl12lts_2023080218container_internal12raw_hash_setINS1_17FlatHashMapPolicyIjPN17grpc_event_engine12experimental21TcpZerocopySendRecordEEENS0_13hash_internal4HashIjEESt8equal_toIjESaISt4pairIKjS7_EEE10slot_arrayEv = comdat any

$_ZNK4absl12lts_2023080218container_internal9probe_seqILm16EE6offsetEv = comdat any

$_ZN4absl12lts_2023080218container_internal13GroupSse2ImplC2EPKNS1_6ctrl_tE = comdat any

$_ZNK4absl12lts_2023080218container_internal13GroupSse2Impl5MatchEh = comdat any

$_ZN4absl12lts_2023080218container_internal2H2Em = comdat any

$_ZNK4absl12lts_2023080218container_internal7BitMaskIjLi16ELi0EE5beginEv = comdat any

$_ZNK4absl12lts_2023080218container_internal7BitMaskIjLi16ELi0EE3endEv = comdat any

$_ZN4absl12lts_2023080218container_internalneERKNS1_7BitMaskIjLi16ELi0EEES5_ = comdat any

$_ZNK4absl12lts_2023080218container_internal7BitMaskIjLi16ELi0EEdeEv = comdat any

$_ZN4absl12lts_2023080218container_internal18hash_policy_traitsINS1_17FlatHashMapPolicyIjPN17grpc_event_engine12experimental21TcpZerocopySendRecordEEEvE5applyINS1_12raw_hash_setIS8_NS0_13hash_internal4HashIjEESt8equal_toIjESaISt4pairIKjS7_EEE12EqualElementIjEEJRSJ_ES8_EEDTclsrT1_5applyclsr3stdE7forwardIT_Efp_Espclsr3stdE7forwardIT0_Efp0_EEEOSQ_DpOSR_ = comdat any

$_ZN4absl12lts_2023080218container_internal12raw_hash_setINS1_17FlatHashMapPolicyIjPN17grpc_event_engine12experimental21TcpZerocopySendRecordEEENS0_13hash_internal4HashIjEESt8equal_toIjESaISt4pairIKjS7_EEE6eq_refEv = comdat any

$_ZN4absl12lts_2023080218container_internal20common_policy_traitsINS1_17FlatHashMapPolicyIjPN17grpc_event_engine12experimental21TcpZerocopySendRecordEEEvE7elementIS8_EEDTclsrT_7elementfp_EEPNS1_13map_slot_typeIjS7_EE = comdat any

$_ZNK4absl12lts_2023080218container_internal9probe_seqILm16EE6offsetEm = comdat any

$_ZN4absl12lts_2023080218container_internal12raw_hash_setINS1_17FlatHashMapPolicyIjPN17grpc_event_engine12experimental21TcpZerocopySendRecordEEENS0_13hash_internal4HashIjEESt8equal_toIjESaISt4pairIKjS7_EEE11iterator_atEm = comdat any

$_ZN4absl12lts_2023080218container_internal7BitMaskIjLi16ELi0EEppEv = comdat any

$_ZNK4absl12lts_2023080218container_internal13GroupSse2Impl9MaskEmptyEv = comdat any

$_ZNK4absl12lts_2023080218container_internal18NonIterableBitMaskIjLi16ELi0EEcvbEv = comdat any

$_ZN4absl12lts_2023080218container_internal12raw_hash_setINS1_17FlatHashMapPolicyIjPN17grpc_event_engine12experimental21TcpZerocopySendRecordEEENS0_13hash_internal4HashIjEESt8equal_toIjESaISt4pairIKjS7_EEE3endEv = comdat any

$_ZN4absl12lts_2023080218container_internal9probe_seqILm16EE4nextEv = comdat any

$_ZN4absl12lts_2023080218container_internal5probeEPKNS1_6ctrl_tEmm = comdat any

$_ZNK4absl12lts_2023080218container_internal12CommonFields8capacityEv = comdat any

$_ZN4absl12lts_2023080218container_internal2H1EmPKNS1_6ctrl_tE = comdat any

$_ZN4absl12lts_2023080218container_internal9probe_seqILm16EEC2Emm = comdat any

$_ZN4absl12lts_2023080218container_internal12PerTableSaltEPKNS1_6ctrl_tE = comdat any

$_ZNR4absl12lts_2023080218container_internal15CompressedTupleIJNS1_12CommonFieldsENS0_13hash_internal4HashIjEESt8equal_toIjESaISt4pairIKjPN17grpc_event_engine12experimental21TcpZerocopySendRecordEEEEE3getILi0EEERNS1_25internal_compressed_tuple4ElemISH_XT_EE4typeEv = comdat any

$_ZNR4absl12lts_2023080218container_internal25internal_compressed_tuple7StorageINS1_12CommonFieldsELm0ELb0EE3getEv = comdat any

$_ZNK4absl12lts_2023080218container_internal12CommonFields10slot_arrayEv = comdat any

$_ZN4absl12lts_2023080218container_internal7BitMaskIjLi16ELi0EEC2Ej = comdat any

$_ZNK4absl12lts_2023080218container_internal18NonIterableBitMaskIjLi16ELi0EE12LowestBitSetEv = comdat any

$_ZN4absl12lts_2023080218container_internal13TrailingZerosIjEEjT_ = comdat any

$_ZN4absl12lts_2023080211countr_zeroIjEENSt9enable_ifIXsr3std11is_unsignedIT_EE5valueEiE4typeES3_ = comdat any

$_ZN4absl12lts_2023080218container_internal17FlatHashMapPolicyIjPN17grpc_event_engine12experimental21TcpZerocopySendRecordEE5applyINS1_12raw_hash_setIS7_NS0_13hash_internal4HashIjEESt8equal_toIjESaISt4pairIKjS6_EEE12EqualElementIjEEJRSH_EEEDTclsr4absl18container_internalE13DecomposePairclsr3stdE7declvalIT_EEspclsr3stdE7declvalIT0_EEEEOSN_DpOSO_ = comdat any

$_ZN4absl12lts_2023080218container_internal13DecomposePairINS1_12raw_hash_setINS1_17FlatHashMapPolicyIjPN17grpc_event_engine12experimental21TcpZerocopySendRecordEEENS0_13hash_internal4HashIjEESt8equal_toIjESaISt4pairIKjS8_EEE12EqualElementIjEEJRSH_EEEDTclsr15memory_internalE17DecomposePairImplclsr3stdE7forwardIT_Efp_Ecl8PairArgsspclsr3stdE7forwardIT0_Efp0_EEEEOSN_DpOSO_ = comdat any

$_ZN4absl12lts_2023080218container_internal15memory_internal17DecomposePairImplINS1_12raw_hash_setINS1_17FlatHashMapPolicyIjPN17grpc_event_engine12experimental21TcpZerocopySendRecordEEENS0_13hash_internal4HashIjEESt8equal_toIjESaISt4pairIKjS9_EEE12EqualElementIjEERSH_St5tupleIJRKS9_EEEEDTclclsr3stdE7declvalIT_EEclsr3stdE7declvalIRKT0_EEL_ZSt19piecewise_constructEclsr3stdE7declvalISO_IJST_EEEEclsr3stdE7declvalIT1_EEEEOSS_SG_ISW_SX_E = comdat any

$_ZN4absl12lts_2023080218container_internal8PairArgsIKjPN17grpc_event_engine12experimental21TcpZerocopySendRecordEEESt4pairISt5tupleIJRKT_EES9_IJRKT0_EEERKS8_ISA_SE_E = comdat any

$_ZSt3getILm0EJRKjEERNSt13tuple_elementIXT_ESt5tupleIJDpT0_EEE4typeERS6_ = comdat any

$_ZNK4absl12lts_2023080218container_internal12raw_hash_setINS1_17FlatHashMapPolicyIjPN17grpc_event_engine12experimental21TcpZerocopySendRecordEEENS0_13hash_internal4HashIjEESt8equal_toIjESaISt4pairIKjS7_EEE12EqualElementIjEclIjJRKSt21piecewise_construct_tSt5tupleIJRSF_EESP_IJRKS7_EEEEEbRKT_DpOT0_ = comdat any

$_ZSt12__get_helperILm0ERKjJEERT0_RSt11_Tuple_implIXT_EJS2_DpT1_EE = comdat any

$_ZNSt11_Tuple_implILm0EJRKjEE7_M_headERS2_ = comdat any

$_ZNSt10_Head_baseILm0ERKjLb0EE7_M_headERS2_ = comdat any

$_ZNKSt8equal_toIjEclERKjS2_ = comdat any

$_ZN4absl12lts_2023080218container_internal8PairArgsIRKjRKPN17grpc_event_engine12experimental21TcpZerocopySendRecordEEESt4pairISt5tupleIJOT_EESC_IJOT0_EEESE_SH_ = comdat any

$_ZSt16forward_as_tupleIJRKjEESt5tupleIJDpOT_EES5_ = comdat any

$_ZSt16forward_as_tupleIJRKPN17grpc_event_engine12experimental21TcpZerocopySendRecordEEESt5tupleIJDpOT_EES9_ = comdat any

$_ZNSt4pairISt5tupleIJRKjEES0_IJRKPN17grpc_event_engine12experimental21TcpZerocopySendRecordEEEEC2IJS2_EJS9_EEESt21piecewise_construct_tS0_IJDpT_EES0_IJDpT0_EE = comdat any

$_ZNSt5tupleIJRKjEEC2ILb1ETnNSt9enable_ifIXclsr4_TCCIXT_EEE29__is_implicitly_constructibleIS1_EEEbE4typeELb1EEES1_ = comdat any

$_ZNSt11_Tuple_implILm0EJRKjEEC2ES1_ = comdat any

$_ZNSt10_Head_baseILm0ERKjLb0EEC2ES1_ = comdat any

$_ZNSt5tupleIJRKPN17grpc_event_engine12experimental21TcpZerocopySendRecordEEEC2ILb1ETnNSt9enable_ifIXclsr4_TCCIXT_EEE29__is_implicitly_constructibleIS5_EEEbE4typeELb1EEES5_ = comdat any

$_ZNSt11_Tuple_implILm0EJRKPN17grpc_event_engine12experimental21TcpZerocopySendRecordEEEC2ES5_ = comdat any

$_ZNSt10_Head_baseILm0ERKPN17grpc_event_engine12experimental21TcpZerocopySendRecordELb0EEC2ES5_ = comdat any

$_ZNSt4pairISt5tupleIJRKjEES0_IJRKPN17grpc_event_engine12experimental21TcpZerocopySendRecordEEEEC2IJS2_EJLm0EEJS9_EJLm0EEEERS0_IJDpT_EERS0_IJDpT1_EESt12_Index_tupleIJXspT0_EEESL_IJXspT2_EEE = comdat any

$_ZSt3getILm0EJRKPN17grpc_event_engine12experimental21TcpZerocopySendRecordEEERNSt13tuple_elementIXT_ESt5tupleIJDpT0_EEE4typeERSA_ = comdat any

$_ZSt12__get_helperILm0ERKPN17grpc_event_engine12experimental21TcpZerocopySendRecordEJEERT0_RSt11_Tuple_implIXT_EJS6_DpT1_EE = comdat any

$_ZNSt11_Tuple_implILm0EJRKPN17grpc_event_engine12experimental21TcpZerocopySendRecordEEE7_M_headERS6_ = comdat any

$_ZNSt10_Head_baseILm0ERKPN17grpc_event_engine12experimental21TcpZerocopySendRecordELb0EE7_M_headERS6_ = comdat any

$_ZNR4absl12lts_2023080218container_internal15CompressedTupleIJNS1_12CommonFieldsENS0_13hash_internal4HashIjEESt8equal_toIjESaISt4pairIKjPN17grpc_event_engine12experimental21TcpZerocopySendRecordEEEEE3getILi2EEERNS1_25internal_compressed_tuple4ElemISH_XT_EE4typeEv = comdat any

$_ZNR4absl12lts_2023080218container_internal25internal_compressed_tuple7StorageISt8equal_toIjELm2ELb1EE3getEv = comdat any

$_ZN4absl12lts_2023080218container_internal17FlatHashMapPolicyIjPN17grpc_event_engine12experimental21TcpZerocopySendRecordEE7elementEPNS1_13map_slot_typeIjS6_EE = comdat any

$_ZNK4absl12lts_2023080218container_internal34CommonFieldsGenerationInfoDisabled14generation_ptrEv = comdat any

$_ZN4absl12lts_2023080218container_internal12raw_hash_setINS1_17FlatHashMapPolicyIjPN17grpc_event_engine12experimental21TcpZerocopySendRecordEEENS0_13hash_internal4HashIjEESt8equal_toIjESaISt4pairIKjS7_EEE8iteratorC2EPNS1_6ctrl_tEPNS1_13map_slot_typeIjS7_EEPKh = comdat any

$_ZN4absl12lts_2023080218container_internal37HashSetIteratorGenerationInfoDisabledC2EPKh = comdat any

$_ZN4absl12lts_2023080218container_internal18NonIterableBitMaskIjLi16ELi0EEC2Ej = comdat any

$_ZN4absl12lts_2023080218container_internal12raw_hash_setINS1_17FlatHashMapPolicyIjPN17grpc_event_engine12experimental21TcpZerocopySendRecordEEENS0_13hash_internal4HashIjEESt8equal_toIjESaISt4pairIKjS7_EEE8iteratorC2EPKh = comdat any

$_ZNR4absl12lts_2023080218container_internal15CompressedTupleIJNS1_12CommonFieldsENS0_13hash_internal4HashIjEESt8equal_toIjESaISt4pairIKjPN17grpc_event_engine12experimental21TcpZerocopySendRecordEEEEE3getILi1EEERNS1_25internal_compressed_tuple4ElemISH_XT_EE4typeEv = comdat any

$_ZNR4absl12lts_2023080218container_internal25internal_compressed_tuple7StorageINS0_13hash_internal4HashIjEELm1ELb1EE3getEv = comdat any

$_ZN4absl12lts_2023080213hash_internal15MixingHashState4hashIjTnNSt9enable_ifIXsr16IntegralFastPathIT_EE5valueEiE4typeELi0EEEmS5_ = comdat any

$_ZN4absl12lts_2023080218container_internal12AssertIsFullEPKNS1_6ctrl_tEhPKhPKc = comdat any

$_ZNK4absl12lts_2023080218container_internal37HashSetIteratorGenerationInfoDisabled10generationEv = comdat any

$_ZNK4absl12lts_2023080218container_internal37HashSetIteratorGenerationInfoDisabled14generation_ptrEv = comdat any

$_ZNK4absl12lts_2023080218container_internal12raw_hash_setINS1_17FlatHashMapPolicyIjPN17grpc_event_engine12experimental21TcpZerocopySendRecordEEENS0_13hash_internal4HashIjEESt8equal_toIjESaISt4pairIKjS7_EEE8iteratordeEv = comdat any

$_ZN4absl12lts_2023080218container_internal20common_policy_traitsINS1_17FlatHashMapPolicyIjPN17grpc_event_engine12experimental21TcpZerocopySendRecordEEEvE7destroyISaISt4pairIKjS7_EEEEvPT_PNS1_13map_slot_typeIjS7_EE = comdat any

$_ZN4absl12lts_2023080218container_internal12raw_hash_setINS1_17FlatHashMapPolicyIjPN17grpc_event_engine12experimental21TcpZerocopySendRecordEEENS0_13hash_internal4HashIjEESt8equal_toIjESaISt4pairIKjS7_EEE9alloc_refEv = comdat any

$_ZN4absl12lts_2023080218container_internal12raw_hash_setINS1_17FlatHashMapPolicyIjPN17grpc_event_engine12experimental21TcpZerocopySendRecordEEENS0_13hash_internal4HashIjEESt8equal_toIjESaISt4pairIKjS7_EEE15erase_meta_onlyENSI_14const_iteratorE = comdat any

$_ZN4absl12lts_2023080218container_internal12raw_hash_setINS1_17FlatHashMapPolicyIjPN17grpc_event_engine12experimental21TcpZerocopySendRecordEEENS0_13hash_internal4HashIjEESt8equal_toIjESaISt4pairIKjS7_EEE14const_iteratorC2ENSI_8iteratorE = comdat any

$_ZN4absl12lts_2023080218container_internal17FlatHashMapPolicyIjPN17grpc_event_engine12experimental21TcpZerocopySendRecordEE7destroyISaISt4pairIKjS6_EEEEvPT_PNS1_13map_slot_typeIjS6_EE = comdat any

$_ZN4absl12lts_2023080218container_internal15map_slot_policyIjPN17grpc_event_engine12experimental21TcpZerocopySendRecordEE7destroyISaISt4pairIKjS6_EEEEvPT_PNS1_13map_slot_typeIjS6_EE = comdat any

$_ZNSt16allocator_traitsISaISt4pairIKjPN17grpc_event_engine12experimental21TcpZerocopySendRecordEEEE7destroyIS0_IjS5_EEEvRS7_PT_ = comdat any

$_ZNSt15__new_allocatorISt4pairIKjPN17grpc_event_engine12experimental21TcpZerocopySendRecordEEE7destroyIS0_IjS5_EEEvPT_ = comdat any

$_ZNR4absl12lts_2023080218container_internal15CompressedTupleIJNS1_12CommonFieldsENS0_13hash_internal4HashIjEESt8equal_toIjESaISt4pairIKjPN17grpc_event_engine12experimental21TcpZerocopySendRecordEEEEE3getILi3EEERNS1_25internal_compressed_tuple4ElemISH_XT_EE4typeEv = comdat any

$_ZNR4absl12lts_2023080218container_internal25internal_compressed_tuple7StorageISaISt4pairIKjPN17grpc_event_engine12experimental21TcpZerocopySendRecordEEELm3ELb1EE3getEv = comdat any

$_ZN9grpc_core14SourceLocationC2EPKci = comdat any

$_ZStanSt12memory_orderSt23__memory_order_modifier = comdat any

$_ZN17grpc_event_engine12experimental21TcpZerocopySendRecord16AllSendsCompleteEv = comdat any

$_ZN17grpc_event_engine12experimental18TcpZerocopySendCtx19PutSendRecordLockedEPNS0_21TcpZerocopySendRecordE = comdat any

$_ZN17grpc_event_engine12experimental18TcpZerocopySendCtx32AssociateSeqWithSendRecordLockedEjPNS0_21TcpZerocopySendRecordE = comdat any

$_ZN4absl12lts_2023080218container_internal12raw_hash_setINS1_17FlatHashMapPolicyIjPN17grpc_event_engine12experimental21TcpZerocopySendRecordEEENS0_13hash_internal4HashIjEESt8equal_toIjESaISt4pairIKjS7_EEE7emplaceIJRjRS7_ETnNSt9enable_ifIXsr14IsDecomposableIDpT_EE5valueEiE4typeELi0EEESE_INSI_8iteratorEbEDpOSN_ = comdat any

$_ZN4absl12lts_2023080218container_internal18hash_policy_traitsINS1_17FlatHashMapPolicyIjPN17grpc_event_engine12experimental21TcpZerocopySendRecordEEEvE5applyINS1_12raw_hash_setIS8_NS0_13hash_internal4HashIjEESt8equal_toIjESaISt4pairIKjS7_EEE19EmplaceDecomposableEJRjRS7_ES8_EEDTclsrT1_5applyclsr3stdE7forwardIT_Efp_Espclsr3stdE7forwardIT0_Efp0_EEEOSQ_DpOSR_ = comdat any

$_ZN4absl12lts_2023080218container_internal17FlatHashMapPolicyIjPN17grpc_event_engine12experimental21TcpZerocopySendRecordEE5applyINS1_12raw_hash_setIS7_NS0_13hash_internal4HashIjEESt8equal_toIjESaISt4pairIKjS6_EEE19EmplaceDecomposableEJRjRS6_EEEDTclsr4absl18container_internalE13DecomposePairclsr3stdE7declvalIT_EEspclsr3stdE7declvalIT0_EEEEOSN_DpOSO_ = comdat any

$_ZN4absl12lts_2023080218container_internal13DecomposePairINS1_12raw_hash_setINS1_17FlatHashMapPolicyIjPN17grpc_event_engine12experimental21TcpZerocopySendRecordEEENS0_13hash_internal4HashIjEESt8equal_toIjESaISt4pairIKjS8_EEE19EmplaceDecomposableEJRjRS8_EEEDTclsr15memory_internalE17DecomposePairImplclsr3stdE7forwardIT_Efp_Ecl8PairArgsspclsr3stdE7forwardIT0_Efp0_EEEEOSN_DpOSO_ = comdat any

$_ZN4absl12lts_2023080218container_internal15memory_internal17DecomposePairImplINS1_12raw_hash_setINS1_17FlatHashMapPolicyIjPN17grpc_event_engine12experimental21TcpZerocopySendRecordEEENS0_13hash_internal4HashIjEESt8equal_toIjESaISt4pairIKjS9_EEE19EmplaceDecomposableERjSt5tupleIJRS9_EEEEDTclclsr3stdE7declvalIT_EEclsr3stdE7declvalIRKT0_EEL_ZSt19piecewise_constructEclsr3stdE7declvalISN_IJSR_EEEEclsr3stdE7declvalIT1_EEEEOSQ_SG_ISU_SV_E = comdat any

$_ZN4absl12lts_2023080218container_internal8PairArgsIRjRPN17grpc_event_engine12experimental21TcpZerocopySendRecordEEESt4pairISt5tupleIJOT_EESA_IJOT0_EEESC_SF_ = comdat any

$_ZSt3getILm0EJRjEERNSt13tuple_elementIXT_ESt5tupleIJDpT0_EEE4typeERS5_ = comdat any

$_ZNK4absl12lts_2023080218container_internal12raw_hash_setINS1_17FlatHashMapPolicyIjPN17grpc_event_engine12experimental21TcpZerocopySendRecordEEENS0_13hash_internal4HashIjEESt8equal_toIjESaISt4pairIKjS7_EEE19EmplaceDecomposableclIjJRKSt21piecewise_construct_tSt5tupleIJRjEESO_IJRS7_EEEEESE_INSI_8iteratorEbERKT_DpOT0_ = comdat any

$_ZSt12__get_helperILm0ERjJEERT0_RSt11_Tuple_implIXT_EJS1_DpT1_EE = comdat any

$_ZNSt11_Tuple_implILm0EJRjEE7_M_headERS1_ = comdat any

$_ZNSt10_Head_baseILm0ERjLb0EE7_M_headERS1_ = comdat any

$_ZN4absl12lts_2023080218container_internal12raw_hash_setINS1_17FlatHashMapPolicyIjPN17grpc_event_engine12experimental21TcpZerocopySendRecordEEENS0_13hash_internal4HashIjEESt8equal_toIjESaISt4pairIKjS7_EEE22find_or_prepare_insertIjEESE_ImbERKT_ = comdat any

$_ZN4absl12lts_2023080218container_internal12raw_hash_setINS1_17FlatHashMapPolicyIjPN17grpc_event_engine12experimental21TcpZerocopySendRecordEEENS0_13hash_internal4HashIjEESt8equal_toIjESaISt4pairIKjS7_EEE10emplace_atIJRKSt21piecewise_construct_tSt5tupleIJRjEESN_IJRS7_EEEEEvmDpOT_ = comdat any

$_ZNSt4pairIN4absl12lts_2023080218container_internal12raw_hash_setINS2_17FlatHashMapPolicyIjPN17grpc_event_engine12experimental21TcpZerocopySendRecordEEENS1_13hash_internal4HashIjEESt8equal_toIjESaIS_IKjS8_EEE8iteratorEbEC2ISJ_RbTnNSt9enable_ifIXaaclsr5_PCCPE22_MoveConstructiblePairIT_T0_EEclsr5_PCCPE30_ImplicitlyMoveConvertiblePairISO_SP_EEEbE4typeELb1EEEOSO_OSP_ = comdat any

$_ZNSt4pairImbEC2ImbTnNSt9enable_ifIXaaclsr5_PCCPE22_MoveConstructiblePairIT_T0_EEclsr5_PCCPE30_ImplicitlyMoveConvertiblePairIS3_S4_EEEbE4typeELb1EEEOS3_OS4_ = comdat any

$_ZN4absl12lts_2023080218container_internal12raw_hash_setINS1_17FlatHashMapPolicyIjPN17grpc_event_engine12experimental21TcpZerocopySendRecordEEENS0_13hash_internal4HashIjEESt8equal_toIjESaISt4pairIKjS7_EEE14prepare_insertEm = comdat any

$_ZNK4absl12lts_2023080218container_internal12CommonFields41should_rehash_for_bug_detection_on_insertEv = comdat any

$_ZNK4absl12lts_2023080218container_internal12raw_hash_setINS1_17FlatHashMapPolicyIjPN17grpc_event_engine12experimental21TcpZerocopySendRecordEEENS0_13hash_internal4HashIjEESt8equal_toIjESaISt4pairIKjS7_EEE8capacityEv = comdat any

$_ZN4absl12lts_2023080218container_internal12raw_hash_setINS1_17FlatHashMapPolicyIjPN17grpc_event_engine12experimental21TcpZerocopySendRecordEEENS0_13hash_internal4HashIjEESt8equal_toIjESaISt4pairIKjS7_EEE6resizeEm = comdat any

$_ZNK4absl12lts_2023080218container_internal12raw_hash_setINS1_17FlatHashMapPolicyIjPN17grpc_event_engine12experimental21TcpZerocopySendRecordEEENS0_13hash_internal4HashIjEESt8equal_toIjESaISt4pairIKjS7_EEE11growth_leftEv = comdat any

$_ZN4absl12lts_2023080218container_internal12NextCapacityEm = comdat any

$_ZN4absl12lts_2023080218container_internal9IsDeletedENS1_6ctrl_tE = comdat any

$_ZN4absl12lts_2023080218container_internal12raw_hash_setINS1_17FlatHashMapPolicyIjPN17grpc_event_engine12experimental21TcpZerocopySendRecordEEENS0_13hash_internal4HashIjEESt8equal_toIjESaISt4pairIKjS7_EEE28rehash_and_grow_if_necessaryEv = comdat any

$_ZN4absl12lts_2023080218container_internal12CommonFields8set_sizeEm = comdat any

$_ZNK4absl12lts_2023080218container_internal12CommonFields4sizeEv = comdat any

$_ZN4absl12lts_2023080218container_internal12raw_hash_setINS1_17FlatHashMapPolicyIjPN17grpc_event_engine12experimental21TcpZerocopySendRecordEEENS0_13hash_internal4HashIjEESt8equal_toIjESaISt4pairIKjS7_EEE15set_growth_leftEm = comdat any

$_ZN4absl12lts_2023080218container_internal7IsEmptyENS1_6ctrl_tE = comdat any

$_ZN4absl12lts_2023080218container_internal7SetCtrlERKNS1_12CommonFieldsEmhm = comdat any

$_ZN4absl12lts_2023080218container_internal34CommonFieldsGenerationInfoDisabled36maybe_increment_generation_on_insertEv = comdat any

$_ZN4absl12lts_2023080218container_internal12raw_hash_setINS1_17FlatHashMapPolicyIjPN17grpc_event_engine12experimental21TcpZerocopySendRecordEEENS0_13hash_internal4HashIjEESt8equal_toIjESaISt4pairIKjS7_EEE5infozEv = comdat any

$_ZN4absl12lts_2023080218container_internal20HashtablezInfoHandle12RecordInsertEmm = comdat any

$_ZNK4absl12lts_2023080218container_internal34CommonFieldsGenerationInfoDisabled41should_rehash_for_bug_detection_on_insertEPKNS1_6ctrl_tEm = comdat any

$_ZN4absl12lts_2023080218container_internal12CommonFields12set_capacityEm = comdat any

$_ZN4absl12lts_2023080218container_internal12raw_hash_setINS1_17FlatHashMapPolicyIjPN17grpc_event_engine12experimental21TcpZerocopySendRecordEEENS0_13hash_internal4HashIjEESt8equal_toIjESaISt4pairIKjS7_EEE16initialize_slotsEv = comdat any

$_ZN4absl12lts_2023080218container_internal6IsFullENS1_6ctrl_tE = comdat any

$_ZN4absl12lts_2023080218container_internal18hash_policy_traitsINS1_17FlatHashMapPolicyIjPN17grpc_event_engine12experimental21TcpZerocopySendRecordEEEvE5applyINS1_12raw_hash_setIS8_NS0_13hash_internal4HashIjEESt8equal_toIjESaISt4pairIKjS7_EEE11HashElementEJRSJ_ES8_EEDTclsrT1_5applyclsr3stdE7forwardIT_Efp_Espclsr3stdE7forwardIT0_Efp0_EEEOSP_DpOSQ_ = comdat any

$_ZN4absl12lts_2023080218container_internal20common_policy_traitsINS1_17FlatHashMapPolicyIjPN17grpc_event_engine12experimental21TcpZerocopySendRecordEEEvE8transferISaISt4pairIKjS7_EEEEvPT_PNS1_13map_slot_typeIjS7_EESJ_ = comdat any

$_ZN4absl12lts_2023080218container_internal29SanitizerUnpoisonMemoryRegionEPKvm = comdat any

$_ZN4absl12lts_2023080218container_internal10DeallocateILm8ESaISt4pairIKjPN17grpc_event_engine12experimental21TcpZerocopySendRecordEEEEEvPT0_Pvm = comdat any

$_ZN4absl12lts_2023080218container_internal13ControlOffsetEv = comdat any

$_ZN4absl12lts_2023080218container_internal9AllocSizeEmmm = comdat any

$_ZN4absl12lts_2023080218container_internal20HashtablezInfoHandle12RecordRehashEm = comdat any

$_ZN4absl12lts_2023080218container_internal15InitializeSlotsISaIcELm16ELm8EEEvRNS1_12CommonFieldsET_ = comdat any

$_ZNSaIcEC2ISt4pairIKjPN17grpc_event_engine12experimental21TcpZerocopySendRecordEEEERKSaIT_E = comdat any

$_ZN4absl12lts_2023080218container_internal8AllocateILm8ESaIcEEEPvPT0_m = comdat any

$_ZNK4absl12lts_2023080218container_internal34CommonFieldsGenerationInfoDisabled10generationEv = comdat any

$_ZN4absl12lts_2023080218container_internal34CommonFieldsGenerationInfoDisabled18set_generation_ptrEPh = comdat any

$_ZN4absl12lts_2023080218container_internal16GenerationOffsetEm = comdat any

$_ZN4absl12lts_2023080218container_internal34CommonFieldsGenerationInfoDisabled14set_generationEh = comdat any

$_ZN4absl12lts_2023080218container_internal14NextGenerationEh = comdat any

$_ZN4absl12lts_2023080218container_internal12CommonFields11set_controlEPNS1_6ctrl_tE = comdat any

$_ZN4absl12lts_2023080218container_internal12CommonFields9set_slotsEPv = comdat any

$_ZN4absl12lts_2023080218container_internal10SlotOffsetEmm = comdat any

$_ZN4absl12lts_2023080218container_internal9ResetCtrlERNS1_12CommonFieldsEm = comdat any

$_ZN4absl12lts_2023080218container_internal6SampleEm = comdat any

$_ZN4absl12lts_2023080218container_internal12CommonFields5infozEv = comdat any

$_ZN4absl12lts_2023080218container_internal20HashtablezInfoHandle20RecordStorageChangedEmm = comdat any

$_ZNSaIN4absl12lts_2023080218container_internal11AlignedTypeILm8EEEEC2IcEERKSaIT_E = comdat any

$_ZNSt16allocator_traitsISaIN4absl12lts_2023080218container_internal11AlignedTypeILm8EEEEE8allocateERS5_m = comdat any

$_ZNSaIN4absl12lts_2023080218container_internal11AlignedTypeILm8EEEED2Ev = comdat any

$_ZNSt15__new_allocatorIN4absl12lts_2023080218container_internal11AlignedTypeILm8EEEEC2Ev = comdat any

$_ZNSt15__new_allocatorIN4absl12lts_2023080218container_internal11AlignedTypeILm8EEEE8allocateEmPKv = comdat any

$_ZNKSt15__new_allocatorIN4absl12lts_2023080218container_internal11AlignedTypeILm8EEEE11_M_max_sizeEv = comdat any

$_ZNSt15__new_allocatorIN4absl12lts_2023080218container_internal11AlignedTypeILm8EEEED2Ev = comdat any

$_ZN4absl12lts_2023080218container_internal14NumClonedBytesEv = comdat any

$_ZN4absl12lts_2023080218container_internal23SentinelEmptyGenerationEv = comdat any

$_ZN4absl12lts_2023080218container_internal18NumGenerationBytesEv = comdat any

$_ZN4absl12lts_2023080218container_internal27SanitizerPoisonMemoryRegionEPKvm = comdat any

$_ZN4absl12lts_2023080218container_internal15ResetGrowthLeftERNS1_12CommonFieldsE = comdat any

$_ZN4absl12lts_2023080218container_internal12CommonFields15set_growth_leftEm = comdat any

$_ZN4absl12lts_2023080218container_internal16CapacityToGrowthEm = comdat any

$_ZNK4absl12lts_2023080218container_internal12CommonFields19backing_array_startEv = comdat any

$_ZN4absl12lts_2023080218container_internal20HashtablezInfoHandleC2EDn = comdat any

$_ZNR4absl12lts_2023080218container_internal15CompressedTupleIJmNS1_20HashtablezInfoHandleEEE3getILi1EEERNS1_25internal_compressed_tuple4ElemIS4_XT_EE4typeEv = comdat any

$_ZNR4absl12lts_2023080218container_internal25internal_compressed_tuple7StorageINS1_20HashtablezInfoHandleELm1ELb1EE3getEv = comdat any

$_ZNSt15__new_allocatorIcEC2Ev = comdat any

$_ZN4absl12lts_2023080218container_internal17FlatHashMapPolicyIjPN17grpc_event_engine12experimental21TcpZerocopySendRecordEE5applyINS1_12raw_hash_setIS7_NS0_13hash_internal4HashIjEESt8equal_toIjESaISt4pairIKjS6_EEE11HashElementEJRSH_EEEDTclsr4absl18container_internalE13DecomposePairclsr3stdE7declvalIT_EEspclsr3stdE7declvalIT0_EEEEOSM_DpOSN_ = comdat any

$_ZN4absl12lts_2023080218container_internal13DecomposePairINS1_12raw_hash_setINS1_17FlatHashMapPolicyIjPN17grpc_event_engine12experimental21TcpZerocopySendRecordEEENS0_13hash_internal4HashIjEESt8equal_toIjESaISt4pairIKjS8_EEE11HashElementEJRSH_EEEDTclsr15memory_internalE17DecomposePairImplclsr3stdE7forwardIT_Efp_Ecl8PairArgsspclsr3stdE7forwardIT0_Efp0_EEEEOSM_DpOSN_ = comdat any

$_ZN4absl12lts_2023080218container_internal15memory_internal17DecomposePairImplINS1_12raw_hash_setINS1_17FlatHashMapPolicyIjPN17grpc_event_engine12experimental21TcpZerocopySendRecordEEENS0_13hash_internal4HashIjEESt8equal_toIjESaISt4pairIKjS9_EEE11HashElementERSH_St5tupleIJRKS9_EEEEDTclclsr3stdE7declvalIT_EEclsr3stdE7declvalIRKT0_EEL_ZSt19piecewise_constructEclsr3stdE7declvalISN_IJSS_EEEEclsr3stdE7declvalIT1_EEEEOSR_SG_ISV_SW_E = comdat any

$_ZNK4absl12lts_2023080218container_internal12raw_hash_setINS1_17FlatHashMapPolicyIjPN17grpc_event_engine12experimental21TcpZerocopySendRecordEEENS0_13hash_internal4HashIjEESt8equal_toIjESaISt4pairIKjS7_EEE11HashElementclIjJRKSt21piecewise_construct_tSt5tupleIJRSF_EESO_IJRKS7_EEEEEmRKT_DpOT0_ = comdat any

$_ZN4absl12lts_2023080218container_internal20common_policy_traitsINS1_17FlatHashMapPolicyIjPN17grpc_event_engine12experimental21TcpZerocopySendRecordEEEvE13transfer_implISaISt4pairIKjS7_EES8_EEDTcvvclsrT0_8transferfp_fp0_fp1_EEPT_PNS1_13map_slot_typeIjS7_EESL_NS9_5Rank0E = comdat any

$_ZN4absl12lts_2023080218container_internal17FlatHashMapPolicyIjPN17grpc_event_engine12experimental21TcpZerocopySendRecordEE8transferISaISt4pairIKjS6_EEEEvPT_PNS1_13map_slot_typeIjS6_EESH_ = comdat any

$_ZN4absl12lts_2023080218container_internal15map_slot_policyIjPN17grpc_event_engine12experimental21TcpZerocopySendRecordEE8transferISaISt4pairIKjS6_EEEEvPT_PNS1_13map_slot_typeIjS6_EESH_ = comdat any

$_ZN4absl12lts_2023080218container_internal15map_slot_policyIjPN17grpc_event_engine12experimental21TcpZerocopySendRecordEE7emplaceEPNS1_13map_slot_typeIjS6_EE = comdat any

$_ZSt7launderISt4pairIKjPN17grpc_event_engine12experimental21TcpZerocopySendRecordEEEPT_S8_ = comdat any

$_ZN4absl12lts_2023080218container_internal13map_slot_typeIjPN17grpc_event_engine12experimental21TcpZerocopySendRecordEEC2Ev = comdat any

$_ZNSaIN4absl12lts_2023080218container_internal11AlignedTypeILm8EEEEC2ISt4pairIKjPN17grpc_event_engine12experimental21TcpZerocopySendRecordEEEERKSaIT_E = comdat any

$_ZNSt16allocator_traitsISaIN4absl12lts_2023080218container_internal11AlignedTypeILm8EEEEE10deallocateERS5_PS4_m = comdat any

$_ZNSt15__new_allocatorIN4absl12lts_2023080218container_internal11AlignedTypeILm8EEEE10deallocateEPS4_m = comdat any

$_ZNK4absl12lts_2023080218container_internal12CommonFields11growth_leftEv = comdat any

$_ZNK4absl12lts_2023080218container_internal12raw_hash_setINS1_17FlatHashMapPolicyIjPN17grpc_event_engine12experimental21TcpZerocopySendRecordEEENS0_13hash_internal4HashIjEESt8equal_toIjESaISt4pairIKjS7_EEE4sizeEv = comdat any

$_ZN4absl12lts_2023080218container_internal12raw_hash_setINS1_17FlatHashMapPolicyIjPN17grpc_event_engine12experimental21TcpZerocopySendRecordEEENS0_13hash_internal4HashIjEESt8equal_toIjESaISt4pairIKjS7_EEE27drop_deletes_without_resizeEv = comdat any

$_ZN4absl12lts_2023080218container_internal12raw_hash_setINS1_17FlatHashMapPolicyIjPN17grpc_event_engine12experimental21TcpZerocopySendRecordEEENS0_13hash_internal4HashIjEESt8equal_toIjESaISt4pairIKjS7_EEE18GetPolicyFunctionsEv = comdat any

$_ZN4absl12lts_2023080218container_internal12raw_hash_setINS1_17FlatHashMapPolicyIjPN17grpc_event_engine12experimental21TcpZerocopySendRecordEEENS0_13hash_internal4HashIjEESt8equal_toIjESaISt4pairIKjS7_EEE12hash_slot_fnEPvSJ_ = comdat any

$_ZN4absl12lts_2023080218container_internal12raw_hash_setINS1_17FlatHashMapPolicyIjPN17grpc_event_engine12experimental21TcpZerocopySendRecordEEENS0_13hash_internal4HashIjEESt8equal_toIjESaISt4pairIKjS7_EEE16transfer_slot_fnEPvSJ_SJ_ = comdat any

$_ZN4absl12lts_2023080218container_internal18DeallocateStandardILm8EEEvRNS1_12CommonFieldsERKNS1_15PolicyFunctionsE = comdat any

$_ZN4absl12lts_2023080218container_internal10DeallocateILm8ESaIcEEEvPT0_Pvm = comdat any

$_ZNK4absl12lts_2023080218container_internal12CommonFields10alloc_sizeEmm = comdat any

$_ZNR4absl12lts_2023080218container_internal15CompressedTupleIJmNS1_20HashtablezInfoHandleEEE3getILi0EEERNS1_25internal_compressed_tuple4ElemIS4_XT_EE4typeEv = comdat any

$_ZNR4absl12lts_2023080218container_internal25internal_compressed_tuple7StorageImLm0ELb0EE3getEv = comdat any

$_ZNKR4absl12lts_2023080218container_internal15CompressedTupleIJmNS1_20HashtablezInfoHandleEEE3getILi0EEERKNS1_25internal_compressed_tuple4ElemIS4_XT_EE4typeEv = comdat any

$_ZNKR4absl12lts_2023080218container_internal25internal_compressed_tuple7StorageImLm0ELb0EE3getEv = comdat any

$_ZN4absl12lts_2023080218container_internal7SetCtrlERKNS1_12CommonFieldsEmNS1_6ctrl_tEm = comdat any

$_ZN4absl12lts_2023080218container_internal20common_policy_traitsINS1_17FlatHashMapPolicyIjPN17grpc_event_engine12experimental21TcpZerocopySendRecordEEEvE9constructISaISt4pairIKjS7_EEJRKSt21piecewise_construct_tSt5tupleIJRjEESI_IJRS7_EEEEEvPT_PNS1_13map_slot_typeIjS7_EEDpOT0_ = comdat any

$_ZN4absl12lts_2023080218container_internal17FlatHashMapPolicyIjPN17grpc_event_engine12experimental21TcpZerocopySendRecordEE9constructISaISt4pairIKjS6_EEJRKSt21piecewise_construct_tSt5tupleIJRjEESG_IJRS6_EEEEEvPT_PNS1_13map_slot_typeIjS6_EEDpOT0_ = comdat any

$_ZN4absl12lts_2023080218container_internal15map_slot_policyIjPN17grpc_event_engine12experimental21TcpZerocopySendRecordEE9constructISaISt4pairIKjS6_EEJRKSt21piecewise_construct_tSt5tupleIJRjEESG_IJRS6_EEEEEvPT_PNS1_13map_slot_typeIjS6_EEDpOT0_ = comdat any

$_ZNSt16allocator_traitsISaISt4pairIKjPN17grpc_event_engine12experimental21TcpZerocopySendRecordEEEE9constructIS0_IjS5_EJRKSt21piecewise_construct_tSt5tupleIJRjEESE_IJRS5_EEEEEvRS7_PT_DpOT0_ = comdat any

$_ZNSt15__new_allocatorISt4pairIKjPN17grpc_event_engine12experimental21TcpZerocopySendRecordEEE9constructIS0_IjS5_EJRKSt21piecewise_construct_tSt5tupleIJRjEESD_IJRS5_EEEEEvPT_DpOT0_ = comdat any

$_ZNSt5tupleIJRjEEC2EOS1_ = comdat any

$_ZNSt5tupleIJRPN17grpc_event_engine12experimental21TcpZerocopySendRecordEEEC2EOS5_ = comdat any

$_ZNSt4pairIjPN17grpc_event_engine12experimental21TcpZerocopySendRecordEEC2IJRjEJRS3_EEESt21piecewise_construct_tSt5tupleIJDpT_EES9_IJDpT0_EE = comdat any

$_ZNSt11_Tuple_implILm0EJRjEEC2EOS1_ = comdat any

$_ZNSt11_Tuple_implILm0EJRPN17grpc_event_engine12experimental21TcpZerocopySendRecordEEEC2EOS5_ = comdat any

$_ZNSt4pairIjPN17grpc_event_engine12experimental21TcpZerocopySendRecordEEC2IJRjEJLm0EEJRS3_EJLm0EEEERSt5tupleIJDpT_EERS8_IJDpT1_EESt12_Index_tupleIJXspT0_EEESH_IJXspT2_EEE = comdat any

$_ZSt3getILm0EJRPN17grpc_event_engine12experimental21TcpZerocopySendRecordEEERNSt13tuple_elementIXT_ESt5tupleIJDpT0_EEE4typeERS9_ = comdat any

$_ZSt12__get_helperILm0ERPN17grpc_event_engine12experimental21TcpZerocopySendRecordEJEERT0_RSt11_Tuple_implIXT_EJS5_DpT1_EE = comdat any

$_ZNSt11_Tuple_implILm0EJRPN17grpc_event_engine12experimental21TcpZerocopySendRecordEEE7_M_headERS5_ = comdat any

$_ZNSt10_Head_baseILm0ERPN17grpc_event_engine12experimental21TcpZerocopySendRecordELb0EE7_M_headERS5_ = comdat any

$_ZSt16forward_as_tupleIJRjEESt5tupleIJDpOT_EES4_ = comdat any

$_ZSt16forward_as_tupleIJRPN17grpc_event_engine12experimental21TcpZerocopySendRecordEEESt5tupleIJDpOT_EES8_ = comdat any

$_ZNSt4pairISt5tupleIJRjEES0_IJRPN17grpc_event_engine12experimental21TcpZerocopySendRecordEEEEC2IJS1_EJS7_EEESt21piecewise_construct_tS0_IJDpT_EES0_IJDpT0_EE = comdat any

$_ZNSt5tupleIJRjEEC2ILb1ETnNSt9enable_ifIXclsr4_TCCIXT_EEE29__is_implicitly_constructibleIS0_EEEbE4typeELb1EEES0_ = comdat any

$_ZNSt11_Tuple_implILm0EJRjEEC2ES0_ = comdat any

$_ZNSt10_Head_baseILm0ERjLb0EEC2ES0_ = comdat any

$_ZNSt5tupleIJRPN17grpc_event_engine12experimental21TcpZerocopySendRecordEEEC2ILb1ETnNSt9enable_ifIXclsr4_TCCIXT_EEE29__is_implicitly_constructibleIS4_EEEbE4typeELb1EEES4_ = comdat any

$_ZNSt11_Tuple_implILm0EJRPN17grpc_event_engine12experimental21TcpZerocopySendRecordEEEC2ES4_ = comdat any

$_ZNSt10_Head_baseILm0ERPN17grpc_event_engine12experimental21TcpZerocopySendRecordELb0EEC2ES4_ = comdat any

$_ZNSt4pairISt5tupleIJRjEES0_IJRPN17grpc_event_engine12experimental21TcpZerocopySendRecordEEEEC2IJS1_EJLm0EEJS7_EJLm0EEEERS0_IJDpT_EERS0_IJDpT1_EESt12_Index_tupleIJXspT0_EEESJ_IJXspT2_EEE = comdat any

$_ZNK4absl12lts_202308028StatusOrIN9grpc_core5SliceEE2okEv = comdat any

$_ZNR4absl12lts_202308028StatusOrIN9grpc_core5SliceEEdeEv = comdat any

$_ZNK9grpc_core12slice_detail9BaseSlice5beginEv = comdat any

$_ZNK9grpc_core12slice_detail9BaseSlice6lengthEv = comdat any

$_ZSteqIcSt11char_traitsIcESaIcEEbRKNSt7__cxx1112basic_stringIT_T0_T1_EEPKS5_ = comdat any

$_ZN4absl12lts_202308028StatusOrIN9grpc_core5SliceEED2Ev = comdat any

$_ZNK4absl12lts_2023080217internal_statusor12StatusOrDataIN9grpc_core5SliceEE8EnsureOkEv = comdat any

$_ZNK4absl12lts_2023080217internal_statusor12StatusOrDataIN9grpc_core5SliceEE2okEv = comdat any

$_ZNK9grpc_core12slice_detail9BaseSlice7c_sliceEv = comdat any

$_ZNK9grpc_core12slice_detail9BaseSlice4sizeEv = comdat any

$_ZNKSt16reverse_iteratorIN9__gnu_cxx17__normal_iteratorIPcNSt7__cxx1112basic_stringIcSt11char_traitsIcESaIcEEEEEE4baseEv = comdat any

$_ZN9__gnu_cxx17__normal_iteratorIPKcNSt7__cxx1112basic_stringIcSt11char_traitsIcESaIcEEEEC2IPcvEERKNS0_IT_S8_EE = comdat any

$_ZNSt16reverse_iteratorIN9__gnu_cxx17__normal_iteratorIPcNSt7__cxx1112basic_stringIcSt11char_traitsIcESaIcEEEEEEC2ERKSA_ = comdat any

$_ZSt19__iterator_categoryISt16reverse_iteratorIN9__gnu_cxx17__normal_iteratorIPcNSt7__cxx1112basic_stringIcSt11char_traitsIcESaIcEEEEEEENSt15iterator_traitsIT_E17iterator_categoryERKSD_ = comdat any

$_ZStmiIN9__gnu_cxx17__normal_iteratorIPcNSt7__cxx1112basic_stringIcSt11char_traitsIcESaIcEEEEES9_EDTmicldtfp0_4baseEcldtfp_4baseEERKSt16reverse_iteratorIT_ERKSB_IT0_E = comdat any

$_ZNSt16reverse_iteratorIN9__gnu_cxx17__normal_iteratorIPcNSt7__cxx1112basic_stringIcSt11char_traitsIcESaIcEEEEEEppEv = comdat any

$_ZN9__gnu_cxxmiIPcNSt7__cxx1112basic_stringIcSt11char_traitsIcESaIcEEEEENS_17__normal_iteratorIT_T0_E15difference_typeERKSB_SE_ = comdat any

$_ZNK9__gnu_cxx17__normal_iteratorIPcNSt7__cxx1112basic_stringIcSt11char_traitsIcESaIcEEEE4baseEv = comdat any

$_ZNKSt16reverse_iteratorIN9__gnu_cxx17__normal_iteratorIPcNSt7__cxx1112basic_stringIcSt11char_traitsIcESaIcEEEEEEdeEv = comdat any

$_ZN9__gnu_cxx17__normal_iteratorIPcNSt7__cxx1112basic_stringIcSt11char_traitsIcESaIcEEEEmmEv = comdat any

$_ZNK9__gnu_cxx17__normal_iteratorIPcNSt7__cxx1112basic_stringIcSt11char_traitsIcESaIcEEEEdeEv = comdat any

$_ZN4absl12lts_2023080217internal_statusor12StatusOrDataIN9grpc_core5SliceEED2Ev = comdat any

$_ZN9grpc_core5SliceD2Ev = comdat any

$_ZN9grpc_core11CSliceUnrefERK10grpc_sliceNS_13DebugLocationE = comdat any

$_ZN9grpc_core13DebugLocationC2Ev = comdat any

$_ZN19grpc_slice_refcount5UnrefEN9grpc_core13DebugLocationE = comdat any

$_ZN4absl12lts_2023080222internal_any_invocable4ImplIFvNS0_8StatusOrIiEEEEaSEOS6_ = comdat any

$_ZN4absl12lts_2023080222internal_any_invocable8CoreImplILb0EvJNS0_8StatusOrIiEEEEaSEOS5_ = comdat any

$_ZN4absl12lts_2023080222internal_any_invocable8CoreImplILb0EvJNS0_8StatusOrIiEEEE5ClearEv = comdat any

$_ZNSt10shared_ptrIN17grpc_event_engine12experimental8internal19MemoryAllocatorImplEEC2EOS4_ = comdat any

$_ZStneIN17grpc_event_engine12experimental8internal19MemoryAllocatorImplEEbRKSt10shared_ptrIT_EDn = comdat any

$_ZNSt10shared_ptrIN17grpc_event_engine12experimental8internal19MemoryAllocatorImplEED2Ev = comdat any

$_ZNSt14__shared_countILN9__gnu_cxx12_Lock_policyE2EEC2Ev = comdat any

$_ZNSt14__shared_countILN9__gnu_cxx12_Lock_policyE2EE7_M_swapERS2_ = comdat any

$_ZNKSt12__shared_ptrIN17grpc_event_engine12experimental8internal19MemoryAllocatorImplELN9__gnu_cxx12_Lock_policyE2EEcvbEv = comdat any

$_ZNSt14__shared_countILN9__gnu_cxx12_Lock_policyE2EED2Ev = comdat any

$_ZNSt16_Sp_counted_baseILN9__gnu_cxx12_Lock_policyE2EE10_M_releaseEv = comdat any

$_ZNSt16_Sp_counted_baseILN9__gnu_cxx12_Lock_policyE2EE24_M_release_last_use_coldEv = comdat any

$_ZNSt16_Sp_counted_baseILN9__gnu_cxx12_Lock_policyE2EE19_M_release_last_useEv = comdat any

$_ZN4absl12lts_2023080222internal_any_invocable4ImplIFvNS0_8StatusOrIiEEEEC2EOS6_ = comdat any

$_ZN4absl12lts_2023080222internal_any_invocable8CoreImplILb0EvJNS0_8StatusOrIiEEEEC2EOS5_ = comdat any

$_ZNSt12__shared_ptrIN17grpc_event_engine12experimental11EventEngineELN9__gnu_cxx12_Lock_policyE2EED2Ev = comdat any

$_ZN4absl12lts_2023080222internal_any_invocable4ImplIFvNS0_8StatusOrIiEEEED2Ev = comdat any

$_ZN4absl12lts_2023080222internal_any_invocable8CoreImplILb0EvJNS0_8StatusOrIiEEEED2Ev = comdat any

$_ZN17grpc_event_engine12experimental15MemoryAllocatorD2Ev = comdat any

$_ZNSt6atomicIlEC2El = comdat any

$_ZNSt13__atomic_baseIlEC2El = comdat any

$_ZNSt13__atomic_baseIiEC2Ei = comdat any

$_ZN4absl12lts_2023080222internal_any_invocable4ImplIFvNS0_6StatusEEEC2Ev = comdat any

$_ZN4absl12lts_2023080222internal_any_invocable8CoreImplILb0EvJNS0_6StatusEEEC2Ev = comdat any

$_ZNSt12__shared_ptrIN9grpc_core11MemoryQuotaELN9__gnu_cxx12_Lock_policyE2EEC2Ev = comdat any

$_ZN17grpc_event_engine12experimental15MemoryAllocatorC2Ev = comdat any

$_ZNSt10shared_ptrIN17grpc_event_engine12experimental8internal19MemoryAllocatorImplEEC2EDn = comdat any

$_ZNSt12__shared_ptrIN17grpc_event_engine12experimental8internal19MemoryAllocatorImplELN9__gnu_cxx12_Lock_policyE2EEC2Ev = comdat any

$_ZNSt10shared_ptrIN17grpc_event_engine12experimental8internal19MemoryAllocatorImplEEC2Ev = comdat any

$_ZNSt13__atomic_baseIbEC2Eb = comdat any

$_ZNSt15__uniq_ptr_dataIN17grpc_event_engine12experimental18TcpZerocopySendCtxESt14default_deleteIS2_ELb1ELb1EEC2Ev = comdat any

$_ZNSt15__uniq_ptr_implIN17grpc_event_engine12experimental18TcpZerocopySendCtxESt14default_deleteIS2_EEC2Ev = comdat any

$_ZNSt5tupleIJPN17grpc_event_engine12experimental18TcpZerocopySendCtxESt14default_deleteIS2_EEEC2ILb1ETnNSt9enable_ifIXclsr17_TupleConstraintsIXT_ES3_S5_EE37__is_implicitly_default_constructibleEEbE4typeELb1EEEv = comdat any

$_ZNSt11_Tuple_implILm0EJPN17grpc_event_engine12experimental18TcpZerocopySendCtxESt14default_deleteIS2_EEEC2Ev = comdat any

$_ZNSt11_Tuple_implILm1EJSt14default_deleteIN17grpc_event_engine12experimental18TcpZerocopySendCtxEEEEC2Ev = comdat any

$_ZNSt10_Head_baseILm0EPN17grpc_event_engine12experimental18TcpZerocopySendCtxELb0EEC2Ev = comdat any

$_ZNSt10_Head_baseILm1ESt14default_deleteIN17grpc_event_engine12experimental18TcpZerocopySendCtxEELb1EEC2Ev = comdat any

$_ZNSt12__shared_ptrIN17grpc_event_engine12experimental11EventEngineELN9__gnu_cxx12_Lock_policyE2EEC2ERKS5_ = comdat any

$_ZNSt14__shared_countILN9__gnu_cxx12_Lock_policyE2EEC2ERKS2_ = comdat any

$_ZNSt16_Sp_counted_baseILN9__gnu_cxx12_Lock_policyE2EE15_M_add_ref_copyEv = comdat any

$_ZNSt10shared_ptrIN9grpc_core11MemoryQuotaEEC2ERKS2_ = comdat any

$_ZNSt12__shared_ptrIN9grpc_core11MemoryQuotaELN9__gnu_cxx12_Lock_policyE2EEC2ERKS4_ = comdat any

$_ZN17grpc_event_engine12experimental15MemoryAllocatoraSEOS1_ = comdat any

$_ZNSt10shared_ptrIN17grpc_event_engine12experimental8internal19MemoryAllocatorImplEEaSEOS4_ = comdat any

$_ZNSt12__shared_ptrIN17grpc_event_engine12experimental8internal19MemoryAllocatorImplELN9__gnu_cxx12_Lock_policyE2EEaSEOS6_ = comdat any

$_ZNSt12__shared_ptrIN17grpc_event_engine12experimental8internal19MemoryAllocatorImplELN9__gnu_cxx12_Lock_policyE2EEC2EOS6_ = comdat any

$_ZNSt12__shared_ptrIN17grpc_event_engine12experimental8internal19MemoryAllocatorImplELN9__gnu_cxx12_Lock_policyE2EE4swapERS6_ = comdat any

$_ZNSt12__shared_ptrIN17grpc_event_engine12experimental8internal19MemoryAllocatorImplELN9__gnu_cxx12_Lock_policyE2EED2Ev = comdat any

$_ZSt4swapIPN17grpc_event_engine12experimental8internal19MemoryAllocatorImplEENSt9enable_ifIXsr6__and_ISt6__not_ISt15__is_tuple_likeIT_EESt21is_move_constructibleIS8_ESt18is_move_assignableIS8_EEE5valueEvE4typeERS8_SH_ = comdat any

$_ZNSt10shared_ptrIN17grpc_event_engine12experimental8internal19MemoryAllocatorImplEEC2ERKS4_ = comdat any

$_ZN17grpc_event_engine12experimental15MemoryAllocator7ReserveENS0_13MemoryRequestE = comdat any

$_ZN17grpc_event_engine12experimental15MemoryAllocator11ReservationC2ESt10shared_ptrINS0_8internal19MemoryAllocatorImplEEm = comdat any

$_ZNSt12__shared_ptrIN17grpc_event_engine12experimental8internal19MemoryAllocatorImplELN9__gnu_cxx12_Lock_policyE2EEC2ERKS6_ = comdat any

$_ZNSt15__uniq_ptr_dataIN17grpc_event_engine12experimental18TcpZerocopySendCtxESt14default_deleteIS2_ELb1ELb1EEaSEOS5_ = comdat any

$_ZNSt15__uniq_ptr_implIN17grpc_event_engine12experimental18TcpZerocopySendCtxESt14default_deleteIS2_EEaSEOS5_ = comdat any

$_ZNSt15__uniq_ptr_implIN17grpc_event_engine12experimental18TcpZerocopySendCtxESt14default_deleteIS2_EE5resetEPS2_ = comdat any

$_ZNSt15__uniq_ptr_implIN17grpc_event_engine12experimental18TcpZerocopySendCtxESt14default_deleteIS2_EE7releaseEv = comdat any

$_ZNSt15__uniq_ptr_implIN17grpc_event_engine12experimental18TcpZerocopySendCtxESt14default_deleteIS2_EE10_M_deleterEv = comdat any

$_ZNSt15__uniq_ptr_implIN17grpc_event_engine12experimental18TcpZerocopySendCtxESt14default_deleteIS2_EE6_M_ptrEv = comdat any

$_ZNKSt14default_deleteIN17grpc_event_engine12experimental18TcpZerocopySendCtxEEclEPS2_ = comdat any

$_ZSt3getILm0EJPN17grpc_event_engine12experimental18TcpZerocopySendCtxESt14default_deleteIS2_EEERNSt13tuple_elementIXT_ESt5tupleIJDpT0_EEE4typeERSA_ = comdat any

$_ZSt12__get_helperILm0EPN17grpc_event_engine12experimental18TcpZerocopySendCtxEJSt14default_deleteIS2_EEERT0_RSt11_Tuple_implIXT_EJS6_DpT1_EE = comdat any

$_ZNSt11_Tuple_implILm0EJPN17grpc_event_engine12experimental18TcpZerocopySendCtxESt14default_deleteIS2_EEE7_M_headERS6_ = comdat any

$_ZNSt10_Head_baseILm0EPN17grpc_event_engine12experimental18TcpZerocopySendCtxELb0EE7_M_headERS4_ = comdat any

$_ZN17grpc_event_engine12experimental18TcpZerocopySendCtxD2Ev = comdat any

$_ZN17grpc_event_engine12experimental21TcpZerocopySendRecordD2Ev = comdat any

$_ZN4absl12lts_2023080213flat_hash_mapIjPN17grpc_event_engine12experimental21TcpZerocopySendRecordENS0_13hash_internal4HashIjEESt8equal_toIjESaISt4pairIKjS5_EEED2Ev = comdat any

$_ZN4absl12lts_2023080218container_internal12raw_hash_mapINS1_17FlatHashMapPolicyIjPN17grpc_event_engine12experimental21TcpZerocopySendRecordEEENS0_13hash_internal4HashIjEESt8equal_toIjESaISt4pairIKjS7_EEED2Ev = comdat any

$_ZN4absl12lts_2023080218container_internal12raw_hash_setINS1_17FlatHashMapPolicyIjPN17grpc_event_engine12experimental21TcpZerocopySendRecordEEENS0_13hash_internal4HashIjEESt8equal_toIjESaISt4pairIKjS7_EEED2Ev = comdat any

$_ZN4absl12lts_2023080218container_internal12raw_hash_setINS1_17FlatHashMapPolicyIjPN17grpc_event_engine12experimental21TcpZerocopySendRecordEEENS0_13hash_internal4HashIjEESt8equal_toIjESaISt4pairIKjS7_EEE13destroy_slotsEv = comdat any

$_ZN4absl12lts_2023080218container_internal20HashtablezInfoHandle10UnregisterEv = comdat any

$_ZN4absl12lts_2023080218container_internal15CompressedTupleIJNS1_12CommonFieldsENS0_13hash_internal4HashIjEESt8equal_toIjESaISt4pairIKjPN17grpc_event_engine12experimental21TcpZerocopySendRecordEEEEED2Ev = comdat any

$_ZN4absl12lts_2023080218container_internal25internal_compressed_tuple19CompressedTupleImplINS1_15CompressedTupleIJNS1_12CommonFieldsENS0_13hash_internal4HashIjEESt8equal_toIjESaISt4pairIKjPN17grpc_event_engine12experimental21TcpZerocopySendRecordEEEEEENS0_16integer_sequenceImJLm0ELm1ELm2ELm3EEEELb1EED2Ev = comdat any

$_ZN4absl12lts_2023080218container_internal25internal_compressed_tuple7StorageISaISt4pairIKjPN17grpc_event_engine12experimental21TcpZerocopySendRecordEEELm3ELb1EED2Ev = comdat any

$_ZNSt15__new_allocatorISt4pairIKjPN17grpc_event_engine12experimental21TcpZerocopySendRecordEEED2Ev = comdat any

$_ZSt3getILm1EJPN17grpc_event_engine12experimental18TcpZerocopySendCtxESt14default_deleteIS2_EEERNSt13tuple_elementIXT_ESt5tupleIJDpT0_EEE4typeERSA_ = comdat any

$_ZSt12__get_helperILm1ESt14default_deleteIN17grpc_event_engine12experimental18TcpZerocopySendCtxEEJEERT0_RSt11_Tuple_implIXT_EJS5_DpT1_EE = comdat any

$_ZNSt11_Tuple_implILm1EJSt14default_deleteIN17grpc_event_engine12experimental18TcpZerocopySendCtxEEEE7_M_headERS5_ = comdat any

$_ZNSt10_Head_baseILm1ESt14default_deleteIN17grpc_event_engine12experimental18TcpZerocopySendCtxEELb1EE7_M_headERS5_ = comdat any

$_ZN17grpc_event_engine12experimental18PosixEngineClosureC2EN4absl12lts_2023080212AnyInvocableIFvNS3_6StatusEEEEb = comdat any

$_ZN17grpc_event_engine12experimental11EventEngine7ClosureC2Ev = comdat any

$_ZN17grpc_event_engine12experimental18PosixEngineClosureD0Ev = comdat any

$_ZN17grpc_event_engine12experimental18PosixEngineClosure3RunEv = comdat any

$_ZN17grpc_event_engine12experimental11EventEngine7ClosureD2Ev = comdat any

$_ZN17grpc_event_engine12experimental11EventEngine7ClosureD0Ev = comdat any

$_ZSt8exchangeIN4absl12lts_202308026StatusES2_ET_RS3_OT0_ = comdat any

$_ZSt10__exchangeIN4absl12lts_202308026StatusES2_ET_RS3_OT0_ = comdat any

$_ZN4absl12lts_2023080217internal_statusor12StatusOrDataIN17grpc_event_engine12experimental11EventEngine15ResolvedAddressEED2Ev = comdat any

$_ZNK4absl12lts_2023080217internal_statusor12StatusOrDataIN17grpc_event_engine12experimental11EventEngine15ResolvedAddressEE2okEv = comdat any

$_ZNSt7__cxx1112basic_stringIcSt11char_traitsIcESaIcEE12_M_constructIPKcEEvT_S8_St20forward_iterator_tag = comdat any

$_ZNSt7__cxx1112basic_stringIcSt11char_traitsIcESaIcEE12_Alloc_hiderD2Ev = comdat any

$_ZSt8distanceIPKcENSt15iterator_traitsIT_E15difference_typeES3_S3_ = comdat any

$_ZZNSt7__cxx1112basic_stringIcSt11char_traitsIcESaIcEE12_M_constructIPKcEEvT_S8_St20forward_iterator_tagEN6_GuardC2EPS4_ = comdat any

$_ZZNSt7__cxx1112basic_stringIcSt11char_traitsIcESaIcEE12_M_constructIPKcEEvT_S8_St20forward_iterator_tagEN6_GuardD2Ev = comdat any

$_ZSt10__distanceIPKcENSt15iterator_traitsIT_E15difference_typeES3_S3_St26random_access_iterator_tag = comdat any

$_ZSt19__iterator_categoryIPKcENSt15iterator_traitsIT_E17iterator_categoryERKS3_ = comdat any

$_ZN4absl12lts_2023080222internal_any_invocable4ImplIFvNS0_6StatusEEE14ExtractInvokerEv = comdat any

$_ZN9grpc_core9ConstructINS_14promise_detail10UnwakeableEJEEEvPT_DpOT0_ = comdat any

$_ZN9grpc_core14promise_detail10UnwakeableC2Ev = comdat any

$_ZN9grpc_core8WakeableC2Ev = comdat any

$_ZN4absl12lts_2023080222internal_any_invocable4ImplIFvNS0_8StatusOrIiEEEEC2Ev = comdat any

$_ZN4absl12lts_2023080222internal_any_invocable8CoreImplILb0EvJNS0_8StatusOrIiEEEEC2Ev = comdat any

$_ZNK4absl12lts_2023080217internal_statusor12StatusOrDataINSt7__cxx1112basic_stringIcSt11char_traitsIcESaIcEEEE8EnsureOkEv = comdat any

$_ZNK9grpc_core10RefCountedIN17grpc_event_engine12experimental17PosixEndpointImplENS_19PolymorphicRefCountENS_11UnrefDeleteEE17IncrementRefCountERKNS_13DebugLocationEPKc = comdat any

$_ZN9grpc_core13RefCountedPtrIN17grpc_event_engine12experimental17PosixEndpointImplEEC2IS3_EEPT_ = comdat any

$_ZN9grpc_core8RefCount3RefERKNS_13DebugLocationEPKcl = comdat any

$_ZN9grpc_core11MemoryOwner4implEv = comdat any

$_ZN17grpc_event_engine12experimental15MemoryAllocator21get_internal_impl_ptrEv = comdat any

$_ZN9grpc_core16BasicMemoryQuota15reclaimer_queueEm = comdat any

$_ZNSt10unique_ptrIN9grpc_core14ReclaimerQueue6HandleENS0_16OrphanableDeleteEEaSEOS4_ = comdat any

$_ZNSt10unique_ptrIN9grpc_core14ReclaimerQueue6HandleENS0_16OrphanableDeleteEED2Ev = comdat any

$_ZNKSt10unique_ptrIN9grpc_core14ReclaimerQueue6HandleENS0_16OrphanableDeleteEEptEv = comdat any

$_ZN9grpc_core20InternallyRefCountedINS_14ReclaimerQueue6HandleENS_11UnrefDeleteEE3RefEv = comdat any

$_ZN9grpc_core13RefCountedPtrINS_14ReclaimerQueue6HandleEED2Ev = comdat any

$_ZNSt10shared_ptrIN9grpc_core14ReclaimerQueue5StateEEC2ERKS3_ = comdat any

$_ZNSt10unique_ptrIN9grpc_core14ReclaimerQueue6HandleENS0_16OrphanableDeleteEEC2IS3_vEEPS2_ = comdat any

$_ZNSt10shared_ptrIN9grpc_core14ReclaimerQueue5StateEED2Ev = comdat any

$_ZNSt12__shared_ptrIN9grpc_core14ReclaimerQueue5StateELN9__gnu_cxx12_Lock_policyE2EEC2ERKS5_ = comdat any

$_ZN9grpc_core20InternallyRefCountedINS_14ReclaimerQueue6HandleENS_11UnrefDeleteEEC2EPKcl = comdat any

$_ZNSt10shared_ptrIN9grpc_core14ReclaimerQueue5StateEEC2EOS3_ = comdat any

$_ZNSt6atomicIPN9grpc_core14ReclaimerQueue6Handle5SweepEEC2ES4_ = comdat any

$_ZN9grpc_core10OrphanableC2Ev = comdat any

$_ZN9grpc_core8RefCountC2ElPKc = comdat any

$_ZN9grpc_core20InternallyRefCountedINS_14ReclaimerQueue6HandleENS_11UnrefDeleteEED2Ev = comdat any

$_ZN9grpc_core20InternallyRefCountedINS_14ReclaimerQueue6HandleENS_11UnrefDeleteEED0Ev = comdat any

$_ZN9grpc_core10OrphanableD2Ev = comdat any

$_ZN9grpc_core10OrphanableD0Ev = comdat any

$_ZNSt12__shared_ptrIN9grpc_core14ReclaimerQueue5StateELN9__gnu_cxx12_Lock_policyE2EEC2EOS5_ = comdat any

$_ZN9grpc_core14ReclaimerQueue6Handle5SweepC2ESt10shared_ptrINS0_5StateEE = comdat any

$_ZNKSt8optionalIN9grpc_core16ReclamationSweepEE9has_valueEv = comdat any

$_ZNSt8optionalIN9grpc_core16ReclamationSweepEEC2EOS2_ = comdat any

$_ZNSt8optionalIN9grpc_core16ReclamationSweepEED2Ev = comdat any

$_ZNKSt19_Optional_base_implIN9grpc_core16ReclamationSweepESt14_Optional_baseIS1_Lb0ELb0EEE13_M_is_engagedEv = comdat any

$_ZNK9grpc_core13RefCountedPtrIN17grpc_event_engine12experimental17PosixEndpointImplEEptEv = comdat any

$_ZNSt14_Optional_baseIN9grpc_core16ReclamationSweepELb0ELb0EEC2EOS2_ = comdat any

$_ZNSt17_Optional_payloadIN9grpc_core16ReclamationSweepELb0ELb0ELb0EECI2St22_Optional_payload_baseIS1_EEbOS3_IS1_E = comdat any

$_ZNSt17_Optional_payloadIN9grpc_core16ReclamationSweepELb1ELb0ELb0EECI2St22_Optional_payload_baseIS1_EEbOS3_IS1_E = comdat any

$_ZNSt22_Optional_payload_baseIN9grpc_core16ReclamationSweepEEC2EbOS2_ = comdat any

$_ZNSt22_Optional_payload_baseIN9grpc_core16ReclamationSweepEE8_StorageIS1_Lb0EEC2Ev = comdat any

$_ZNSt22_Optional_payload_baseIN9grpc_core16ReclamationSweepEE12_M_constructIJS1_EEEvDpOT_ = comdat any

$_ZNSt22_Optional_payload_baseIN9grpc_core16ReclamationSweepEE6_M_getEv = comdat any

$_ZSt10_ConstructIN9grpc_core16ReclamationSweepEJS1_EEvPT_DpOT0_ = comdat any

$_ZN9grpc_core16ReclamationSweepC2EOS0_ = comdat any

$_ZNSt10shared_ptrIN9grpc_core16BasicMemoryQuotaEEC2EOS2_ = comdat any

$_ZN9grpc_core5WakerC2EOS0_ = comdat any

$_ZNSt12__shared_ptrIN9grpc_core16BasicMemoryQuotaELN9__gnu_cxx12_Lock_policyE2EEC2EOS4_ = comdat any

$_ZN9grpc_core5Waker4TakeEv = comdat any

$_ZSt8exchangeIN9grpc_core5Waker14WakeableAndArgES2_ET_RS3_OT0_ = comdat any

$_ZSt10__exchangeIN9grpc_core5Waker14WakeableAndArgES2_ET_RS3_OT0_ = comdat any

$_ZN9grpc_core19NoDestructSingletonINS_14promise_detail10UnwakeableEE3GetEv = comdat any

$_ZN9grpc_core10NoDestructINS_14promise_detail10UnwakeableEEdeEv = comdat any

$_ZN9grpc_core10NoDestructINS_14promise_detail10UnwakeableEE3getEv = comdat any

$_ZNSt14_Optional_baseIN9grpc_core16ReclamationSweepELb0ELb0EED2Ev = comdat any

$_ZNSt17_Optional_payloadIN9grpc_core16ReclamationSweepELb0ELb0ELb0EED2Ev = comdat any

$_ZNSt22_Optional_payload_baseIN9grpc_core16ReclamationSweepEE8_M_resetEv = comdat any

$_ZNSt17_Optional_payloadIN9grpc_core16ReclamationSweepELb1ELb0ELb0EED2Ev = comdat any

$_ZNSt22_Optional_payload_baseIN9grpc_core16ReclamationSweepEE10_M_destroyEv = comdat any

$_ZNSt22_Optional_payload_baseIN9grpc_core16ReclamationSweepEED2Ev = comdat any

$_ZNSt22_Optional_payload_baseIN9grpc_core16ReclamationSweepEE8_StorageIS1_Lb0EED2Ev = comdat any

$_ZN9grpc_core14ReclaimerQueue6Handle5SweepD2Ev = comdat any

$_ZNSt13__atomic_baseIPN9grpc_core14ReclaimerQueue6Handle5SweepEEC2ES4_ = comdat any

$_ZNSt15__uniq_ptr_dataIN9grpc_core14ReclaimerQueue6HandleENS0_16OrphanableDeleteELb1ELb1EECI2St15__uniq_ptr_implIS2_S3_EEPS2_ = comdat any

$_ZNSt15__uniq_ptr_implIN9grpc_core14ReclaimerQueue6HandleENS0_16OrphanableDeleteEEC2EPS2_ = comdat any

$_ZNSt5tupleIJPN9grpc_core14ReclaimerQueue6HandleENS0_16OrphanableDeleteEEEC2ILb1ETnNSt9enable_ifIXclsr17_TupleConstraintsIXT_ES3_S4_EE37__is_implicitly_default_constructibleEEbE4typeELb1EEEv = comdat any

$_ZNSt15__uniq_ptr_implIN9grpc_core14ReclaimerQueue6HandleENS0_16OrphanableDeleteEE6_M_ptrEv = comdat any

$_ZNSt11_Tuple_implILm0EJPN9grpc_core14ReclaimerQueue6HandleENS0_16OrphanableDeleteEEEC2Ev = comdat any

$_ZNSt11_Tuple_implILm1EJN9grpc_core16OrphanableDeleteEEEC2Ev = comdat any

$_ZNSt10_Head_baseILm0EPN9grpc_core14ReclaimerQueue6HandleELb0EEC2Ev = comdat any

$_ZNSt10_Head_baseILm1EN9grpc_core16OrphanableDeleteELb1EEC2Ev = comdat any

$_ZSt3getILm0EJPN9grpc_core14ReclaimerQueue6HandleENS0_16OrphanableDeleteEEERNSt13tuple_elementIXT_ESt5tupleIJDpT0_EEE4typeERS9_ = comdat any

$_ZSt12__get_helperILm0EPN9grpc_core14ReclaimerQueue6HandleEJNS0_16OrphanableDeleteEEERT0_RSt11_Tuple_implIXT_EJS5_DpT1_EE = comdat any

$_ZNSt11_Tuple_implILm0EJPN9grpc_core14ReclaimerQueue6HandleENS0_16OrphanableDeleteEEE7_M_headERS5_ = comdat any

$_ZNSt10_Head_baseILm0EPN9grpc_core14ReclaimerQueue6HandleELb0EE7_M_headERS4_ = comdat any

$_ZNSt12__shared_ptrIN9grpc_core14ReclaimerQueue5StateELN9__gnu_cxx12_Lock_policyE2EED2Ev = comdat any

$_ZNKSt10unique_ptrIN9grpc_core14ReclaimerQueue6HandleENS0_16OrphanableDeleteEE3getEv = comdat any

$_ZNKSt15__uniq_ptr_implIN9grpc_core14ReclaimerQueue6HandleENS0_16OrphanableDeleteEE6_M_ptrEv = comdat any

$_ZSt3getILm0EJPN9grpc_core14ReclaimerQueue6HandleENS0_16OrphanableDeleteEEERKNSt13tuple_elementIXT_ESt5tupleIJDpT0_EEE4typeERKS9_ = comdat any

$_ZSt12__get_helperILm0EPN9grpc_core14ReclaimerQueue6HandleEJNS0_16OrphanableDeleteEEERKT0_RKSt11_Tuple_implIXT_EJS5_DpT1_EE = comdat any

$_ZNSt11_Tuple_implILm0EJPN9grpc_core14ReclaimerQueue6HandleENS0_16OrphanableDeleteEEE7_M_headERKS5_ = comdat any

$_ZNSt10_Head_baseILm0EPN9grpc_core14ReclaimerQueue6HandleELb0EE7_M_headERKS4_ = comdat any

$_ZN9grpc_core20InternallyRefCountedINS_14ReclaimerQueue6HandleENS_11UnrefDeleteEE17IncrementRefCountEv = comdat any

$_ZN9grpc_core13RefCountedPtrINS_14ReclaimerQueue6HandleEEC2IS2_EEPT_ = comdat any

$_ZN9grpc_core8RefCount3RefEl = comdat any

$_ZN9grpc_core20InternallyRefCountedINS_14ReclaimerQueue6HandleENS_11UnrefDeleteEE5UnrefEv = comdat any

$_ZN9grpc_core8RefCount5UnrefEv = comdat any

$_ZNK9grpc_core11UnrefDeleteclINS_14ReclaimerQueue6HandleEEEvPT_ = comdat any

$_ZNSt15__uniq_ptr_dataIN9grpc_core14ReclaimerQueue6HandleENS0_16OrphanableDeleteELb1ELb1EEaSEOS4_ = comdat any

$_ZNSt15__uniq_ptr_implIN9grpc_core14ReclaimerQueue6HandleENS0_16OrphanableDeleteEEaSEOS4_ = comdat any

$_ZNSt15__uniq_ptr_implIN9grpc_core14ReclaimerQueue6HandleENS0_16OrphanableDeleteEE5resetEPS2_ = comdat any

$_ZNSt15__uniq_ptr_implIN9grpc_core14ReclaimerQueue6HandleENS0_16OrphanableDeleteEE7releaseEv = comdat any

$_ZNSt15__uniq_ptr_implIN9grpc_core14ReclaimerQueue6HandleENS0_16OrphanableDeleteEE10_M_deleterEv = comdat any

$_ZN9grpc_core16OrphanableDeleteclINS_14ReclaimerQueue6HandleEEEvPT_ = comdat any

$_ZSt3getILm1EJPN9grpc_core14ReclaimerQueue6HandleENS0_16OrphanableDeleteEEERNSt13tuple_elementIXT_ESt5tupleIJDpT0_EEE4typeERS9_ = comdat any

$_ZSt12__get_helperILm1EN9grpc_core16OrphanableDeleteEJEERT0_RSt11_Tuple_implIXT_EJS2_DpT1_EE = comdat any

$_ZNSt11_Tuple_implILm1EJN9grpc_core16OrphanableDeleteEEE7_M_headERS2_ = comdat any

$_ZNSt10_Head_baseILm1EN9grpc_core16OrphanableDeleteELb1EE7_M_headERS2_ = comdat any

$_ZNSt10unique_ptrIN9grpc_core14ReclaimerQueue6HandleENS0_16OrphanableDeleteEE11get_deleterEv = comdat any

$_ZN9grpc_core13RefCountedPtrIN17grpc_event_engine12experimental17PosixEndpointImplEEC2EOS4_ = comdat any

$_ZNKSt10unique_ptrIN17grpc_event_engine12experimental18TcpZerocopySendCtxESt14default_deleteIS2_EE3getEv = comdat any

$_ZNKSt15__uniq_ptr_implIN17grpc_event_engine12experimental18TcpZerocopySendCtxESt14default_deleteIS2_EE6_M_ptrEv = comdat any

$_ZSt3getILm0EJPN17grpc_event_engine12experimental18TcpZerocopySendCtxESt14default_deleteIS2_EEERKNSt13tuple_elementIXT_ESt5tupleIJDpT0_EEE4typeERKSA_ = comdat any

$_ZSt12__get_helperILm0EPN17grpc_event_engine12experimental18TcpZerocopySendCtxEJSt14default_deleteIS2_EEERKT0_RKSt11_Tuple_implIXT_EJS6_DpT1_EE = comdat any

$_ZNSt11_Tuple_implILm0EJPN17grpc_event_engine12experimental18TcpZerocopySendCtxESt14default_deleteIS2_EEE7_M_headERKS6_ = comdat any

$_ZNSt10_Head_baseILm0EPN17grpc_event_engine12experimental18TcpZerocopySendCtxELb0EE7_M_headERKS4_ = comdat any

$_ZNK4absl12lts_2023080217internal_statusor12StatusOrDataIiE8EnsureOkEv = comdat any

$_ZN9grpc_core7ExecCtx3GetEv = comdat any

$_ZN9grpc_core26ApplicationCallbackExecCtxC2Ev = comdat any

$_ZN9grpc_core7ExecCtxC2Ev = comdat any

$_ZN9grpc_core7ExecCtxD2Ev = comdat any

$_ZN9grpc_core26ApplicationCallbackExecCtxD2Ev = comdat any

$_ZTWN9grpc_core7ExecCtx9exec_ctx_E = comdat any

$_ZN9grpc_core26ApplicationCallbackExecCtx3SetEPS0_m = comdat any

$_ZN9grpc_core26ApplicationCallbackExecCtx3GetEv = comdat any

$_ZN9grpc_core4Fork15IncExecCtxCountEv = comdat any

$_ZTWN9grpc_core26ApplicationCallbackExecCtx18callback_exec_ctx_E = comdat any

$_ZN9grpc_core15ScopedTimeCacheC2Ev = comdat any

$_ZN9grpc_core7ExecCtx3SetEPS0_ = comdat any

$_ZN9grpc_core15ScopedTimeCacheD2Ev = comdat any

$_ZN9grpc_core7ExecCtxD0Ev = comdat any

$_ZN9grpc_core7ExecCtx18CheckReadyToFinishEv = comdat any

$_ZN9grpc_core9Timestamp12ScopedSourceC2Ev = comdat any

$_ZNSt8optionalIN9grpc_core9TimestampEEC2Ev = comdat any

$_ZN9grpc_core9Timestamp6SourceC2Ev = comdat any

$_ZTWN9grpc_core9Timestamp25thread_local_time_source_E = comdat any

$_ZN9grpc_core9Timestamp12ScopedSource15InvalidateCacheEv = comdat any

$_ZN9grpc_core9Timestamp6Source15InvalidateCacheEv = comdat any

$_ZNSt14_Optional_baseIN9grpc_core9TimestampELb1ELb1EEC2Ev = comdat any

$_ZNSt17_Optional_payloadIN9grpc_core9TimestampELb1ELb1ELb1EEC2Ev = comdat any

$_ZNSt22_Optional_payload_baseIN9grpc_core9TimestampEEC2Ev = comdat any

$_ZNSt22_Optional_payload_baseIN9grpc_core9TimestampEE8_StorageIS1_Lb1EEC2Ev = comdat any

$_ZN9grpc_core9Timestamp12ScopedSourceD2Ev = comdat any

$_ZN9grpc_core7ExecCtxdlEPv = comdat any

$_ZN9grpc_core4Fork15DecExecCtxCountEv = comdat any

$_ZNK9grpc_core11UnrefDeleteclIKN17grpc_event_engine12experimental17PosixEndpointImplEEEvPT_ = comdat any

$_ZNK4absl12lts_2023080222internal_any_invocable8CoreImplILb0EvJNS0_6StatusEEE8HasValueEv = comdat any

$_ZNK9grpc_core10RefCountedIN17grpc_event_engine12experimental17PosixEndpointImplENS_19PolymorphicRefCountENS_11UnrefDeleteEE17IncrementRefCountEv = comdat any

$_ZSt8exchangeIPN17grpc_event_engine12experimental17PosixEndpointImplEDnET_RS4_OT0_ = comdat any

$_ZSt10__exchangeIPN17grpc_event_engine12experimental17PosixEndpointImplEDnET_RS4_OT0_ = comdat any

$_ZNKSt19__shared_ptr_accessIN17grpc_event_engine12experimental11EventEngineELN9__gnu_cxx12_Lock_policyE2ELb0ELb0EE6_M_getEv = comdat any

$_ZNKSt12__shared_ptrIN17grpc_event_engine12experimental11EventEngineELN9__gnu_cxx12_Lock_policyE2EE3getEv = comdat any

$_ZNK4absl12lts_2023080222internal_any_invocable8CoreImplILb0EvJNS0_8StatusOrIiEEEE8HasValueEv = comdat any

$_ZN4absl12lts_2023080222internal_any_invocable4ImplIFvNS0_8StatusOrIiEEEEclES4_ = comdat any

$_ZN4absl12lts_202308028StatusOrIiEC2IRiTnNSt9enable_ifIXsr4absl11conjunctionINS0_11disjunctionIJSt7is_sameIiNS0_12remove_cvrefIOT_E4typeEENS0_8negationINS6_IJS7_IS2_SC_ES7_INS0_6StatusESC_ES7_ISt10in_place_tSC_ENS0_17internal_statusor31IsDirectInitializationAmbiguousIiSA_EEEEEEEEEESt16is_constructibleIiJSA_EESt14is_convertibleISA_iENS6_IJS7_INS8_IS9_E4typeEiENS0_11conjunctionIJNSE_ISS_ISA_SG_EEENSE_INSK_31HasConversionOperatorToStatusOrIiSA_vEEEEEEEEEEEE5valueEiE4typeELi0EEESA_ = comdat any

$_ZN4absl12lts_2023080222internal_any_invocable4ImplIFvNS0_8StatusOrIiEEEE14ExtractInvokerEv = comdat any

$_ZN4absl12lts_202308028StatusOrIiEC2IJRiEEESt10in_place_tDpOT_ = comdat any

$_ZN4absl12lts_2023080217internal_statusor12StatusOrDataIiEC2IJRiEEESt10in_place_tDpOT_ = comdat any

$_ZN4absl12lts_2023080217internal_statusor12StatusOrDataIiE10MakeStatusIJEEEvDpOT_ = comdat any

$_ZN4absl12lts_2023080217internal_statusor12PlacementNewINS0_6StatusEJEEEvPvDpOT0_ = comdat any

$_ZNSt10unique_ptrIN17grpc_event_engine12experimental18TcpZerocopySendCtxESt14default_deleteIS2_EE11get_deleterEv = comdat any

$_ZN9grpc_core19PolymorphicRefCountC2Ev = comdat any

$_ZN9grpc_core10RefCountedIN17grpc_event_engine12experimental17PosixEndpointImplENS_19PolymorphicRefCountENS_11UnrefDeleteEED2Ev = comdat any

$_ZN9grpc_core10RefCountedIN17grpc_event_engine12experimental17PosixEndpointImplENS_19PolymorphicRefCountENS_11UnrefDeleteEED0Ev = comdat any

$_ZN9grpc_core19PolymorphicRefCountD2Ev = comdat any

$_ZN9grpc_core19PolymorphicRefCountD0Ev = comdat any

$_ZNSt12__shared_ptrIN9grpc_core11MemoryQuotaELN9__gnu_cxx12_Lock_policyE2EEaSEOS4_ = comdat any

$_ZNSt12__shared_ptrIN9grpc_core11MemoryQuotaELN9__gnu_cxx12_Lock_policyE2EEC2EOS4_ = comdat any

$_ZNSt12__shared_ptrIN9grpc_core11MemoryQuotaELN9__gnu_cxx12_Lock_policyE2EE4swapERS4_ = comdat any

$_ZNSt12__shared_ptrIN9grpc_core11MemoryQuotaELN9__gnu_cxx12_Lock_policyE2EED2Ev = comdat any

$_ZSt4swapIPN9grpc_core11MemoryQuotaEENSt9enable_ifIXsr6__and_ISt6__not_ISt15__is_tuple_likeIT_EESt21is_move_constructibleIS6_ESt18is_move_assignableIS6_EEE5valueEvE4typeERS6_SF_ = comdat any

$_ZNKSt19__shared_ptr_accessIN9grpc_core11MemoryQuotaELN9__gnu_cxx12_Lock_policyE2ELb0ELb0EE6_M_getEv = comdat any

$_ZNKSt12__shared_ptrIN9grpc_core11MemoryQuotaELN9__gnu_cxx12_Lock_policyE2EE3getEv = comdat any

$_ZNK4absl12lts_2023080217internal_statusor12StatusOrDataIN17grpc_event_engine12experimental11EventEngine15ResolvedAddressEE8EnsureOkEv = comdat any

$_ZN17grpc_event_engine12experimental18TcpZerocopySendCtxC2Ebim = comdat any

$_ZNSt10unique_ptrIN17grpc_event_engine12experimental18TcpZerocopySendCtxESt14default_deleteIS2_EEC2IS4_vEEPS2_ = comdat any

$_ZN4absl12lts_2023080213flat_hash_mapIjPN17grpc_event_engine12experimental21TcpZerocopySendRecordENS0_13hash_internal4HashIjEESt8equal_toIjESaISt4pairIKjS5_EEEC2Ev = comdat any

$_ZN17grpc_event_engine12experimental21TcpZerocopySendRecordC2Ev = comdat any

$_ZN4absl12lts_2023080218container_internal12raw_hash_mapINS1_17FlatHashMapPolicyIjPN17grpc_event_engine12experimental21TcpZerocopySendRecordEEENS0_13hash_internal4HashIjEESt8equal_toIjESaISt4pairIKjS7_EEEC2Ev = comdat any

$_ZN4absl12lts_2023080218container_internal12raw_hash_setINS1_17FlatHashMapPolicyIjPN17grpc_event_engine12experimental21TcpZerocopySendRecordEEENS0_13hash_internal4HashIjEESt8equal_toIjESaISt4pairIKjS7_EEEC2Ev = comdat any

$_ZN4absl12lts_2023080218container_internal12CommonFieldsC2Ev = comdat any

$_ZNSaISt4pairIKjPN17grpc_event_engine12experimental21TcpZerocopySendRecordEEEC2Ev = comdat any

$_ZN4absl12lts_2023080218container_internal15CompressedTupleIJNS1_12CommonFieldsENS0_13hash_internal4HashIjEESt8equal_toIjESaISt4pairIKjPN17grpc_event_engine12experimental21TcpZerocopySendRecordEEEEEC2IS3_JS6_S8_SG_ETnNSt9enable_ifIXsr4absl11conjunctionINS0_8negationISt7is_sameIFvSH_EFvNSt5decayIT_E4typeEEEEENS1_25internal_compressed_tuple27TupleItemsMoveConstructibleISH_JSO_DpT0_EEEEE5valueEbE4typeELb1EEEOSO_DpOSW_ = comdat any

$_ZNSaISt4pairIKjPN17grpc_event_engine12experimental21TcpZerocopySendRecordEEED2Ev = comdat any

$_ZN4absl12lts_2023080218container_internal10EmptyGroupEv = comdat any

$_ZN4absl12lts_2023080218container_internal15CompressedTupleIJmNS1_20HashtablezInfoHandleEEEC2IjJS3_ETnNSt9enable_ifIXsr4absl11conjunctionINS0_8negationISt7is_sameIFvS4_EFvNSt5decayIT_E4typeEEEEENS1_25internal_compressed_tuple27TupleItemsMoveConstructibleIS4_JSB_DpT0_EEEEE5valueEbE4typeELb1EEEOSB_DpOSJ_ = comdat any

$_ZN4absl12lts_202308027forwardIjEEOT_RNSt16remove_referenceIS2_E4typeE = comdat any

$_ZN4absl12lts_202308027forwardINS0_18container_internal20HashtablezInfoHandleEEEOT_RNSt16remove_referenceIS4_E4typeE = comdat any

$_ZN4absl12lts_2023080218container_internal25internal_compressed_tuple19CompressedTupleImplINS1_15CompressedTupleIJmNS1_20HashtablezInfoHandleEEEENS0_16integer_sequenceImJLm0ELm1EEEELb1EEC2IJjS5_EEESt10in_place_tDpOT_ = comdat any

$_ZN4absl12lts_2023080218container_internal25internal_compressed_tuple7StorageImLm0ELb0EEC2IjEESt10in_place_tOT_ = comdat any

$_ZN4absl12lts_2023080218container_internal25internal_compressed_tuple7StorageINS1_20HashtablezInfoHandleELm1ELb1EEC2IS4_EESt10in_place_tOT_ = comdat any

$_ZNSt15__new_allocatorISt4pairIKjPN17grpc_event_engine12experimental21TcpZerocopySendRecordEEEC2Ev = comdat any

$_ZN4absl12lts_202308027forwardINS0_18container_internal12CommonFieldsEEEOT_RNSt16remove_referenceIS4_E4typeE = comdat any

$_ZN4absl12lts_202308027forwardINS0_13hash_internal4HashIjEEEEOT_RNSt16remove_referenceIS5_E4typeE = comdat any

$_ZN4absl12lts_202308027forwardISt8equal_toIjEEEOT_RNSt16remove_referenceIS4_E4typeE = comdat any

$_ZN4absl12lts_202308027forwardISaISt4pairIKjPN17grpc_event_engine12experimental21TcpZerocopySendRecordEEEEEOT_RNSt16remove_referenceISA_E4typeE = comdat any

$_ZN4absl12lts_2023080218container_internal25internal_compressed_tuple19CompressedTupleImplINS1_15CompressedTupleIJNS1_12CommonFieldsENS0_13hash_internal4HashIjEESt8equal_toIjESaISt4pairIKjPN17grpc_event_engine12experimental21TcpZerocopySendRecordEEEEEENS0_16integer_sequenceImJLm0ELm1ELm2ELm3EEEELb1EEC2IJS5_S8_SA_SI_EEESt10in_place_tDpOT_ = comdat any

$_ZN4absl12lts_2023080218container_internal25internal_compressed_tuple7StorageINS1_12CommonFieldsELm0ELb0EEC2IS4_EESt10in_place_tOT_ = comdat any

$_ZN4absl12lts_2023080218container_internal25internal_compressed_tuple7StorageINS0_13hash_internal4HashIjEELm1ELb1EEC2IS6_EESt10in_place_tOT_ = comdat any

$_ZN4absl12lts_2023080218container_internal25internal_compressed_tuple7StorageISt8equal_toIjELm2ELb1EEC2IS5_EESt10in_place_tOT_ = comdat any

$_ZN4absl12lts_2023080218container_internal25internal_compressed_tuple7StorageISaISt4pairIKjPN17grpc_event_engine12experimental21TcpZerocopySendRecordEEELm3ELb1EEC2ISB_EESt10in_place_tOT_ = comdat any

$_ZN4absl12lts_2023080218container_internal12CommonFieldsC2EOS2_ = comdat any

$_ZN4absl12lts_2023080218container_internal15CompressedTupleIJmNS1_20HashtablezInfoHandleEEEC2ImJS3_ETnNSt9enable_ifIXsr4absl11conjunctionINS0_8negationISt7is_sameIFvS4_EFvNSt5decayIT_E4typeEEEEENS1_25internal_compressed_tuple27TupleItemsMoveConstructibleIS4_JSB_DpT0_EEEEE5valueEbE4typeELb1EEEOSB_DpOSJ_ = comdat any

$_ZN4absl12lts_202308027forwardImEEOT_RNSt16remove_referenceIS2_E4typeE = comdat any

$_ZN4absl12lts_2023080218container_internal25internal_compressed_tuple19CompressedTupleImplINS1_15CompressedTupleIJmNS1_20HashtablezInfoHandleEEEENS0_16integer_sequenceImJLm0ELm1EEEELb1EEC2IJmS5_EEESt10in_place_tDpOT_ = comdat any

$_ZN4absl12lts_2023080218container_internal25internal_compressed_tuple7StorageImLm0ELb0EEC2ImEESt10in_place_tOT_ = comdat any

$_ZNSaISt4pairIKjPN17grpc_event_engine12experimental21TcpZerocopySendRecordEEEC2ERKS6_ = comdat any

$_ZNSt15__new_allocatorISt4pairIKjPN17grpc_event_engine12experimental21TcpZerocopySendRecordEEEC2ERKS7_ = comdat any

$_ZN17grpc_event_engine12experimental21TcpZerocopySendRecord14OutgoingOffsetC2Ev = comdat any

$_ZNSt15__uniq_ptr_dataIN17grpc_event_engine12experimental18TcpZerocopySendCtxESt14default_deleteIS2_ELb1ELb1EECI2St15__uniq_ptr_implIS2_S4_EEPS2_ = comdat any

$_ZNSt15__uniq_ptr_implIN17grpc_event_engine12experimental18TcpZerocopySendCtxESt14default_deleteIS2_EEC2EPS2_ = comdat any

$_ZN4absl12lts_2023080222internal_any_invocable19LocalManagerTrivialENS1_14FunctionToCallEPNS1_15TypeErasedStateES4_ = comdat any

$_ZNSt10shared_ptrIN17grpc_event_engine12experimental11EventEngineEEC2EOS3_ = comdat any

$_ZN17grpc_event_engine12experimental13PosixEndpointC2EPNS0_11EventHandleEPNS0_18PosixEngineClosureESt10shared_ptrINS0_11EventEngineEEONS0_15MemoryAllocatorERKNS0_15PosixTcpOptionsE = comdat any

$_ZNSt10unique_ptrIN17grpc_event_engine12experimental13PosixEndpointESt14default_deleteIS2_EEC2IS4_vEEPS2_ = comdat any

$_ZNSt12__shared_ptrIN17grpc_event_engine12experimental11EventEngineELN9__gnu_cxx12_Lock_policyE2EEC2EOS5_ = comdat any

$_ZN17grpc_event_engine12experimental26PosixEndpointWithFdSupportC2Ev = comdat any

$_ZN17grpc_event_engine12experimental13PosixEndpointD2Ev = comdat any

$_ZN17grpc_event_engine12experimental13PosixEndpointD0Ev = comdat any

$_ZN17grpc_event_engine12experimental13PosixEndpoint4ReadEN4absl12lts_2023080212AnyInvocableIFvNS3_6StatusEEEEPNS0_11SliceBufferEPKNS0_11EventEngine8Endpoint8ReadArgsE = comdat any

$_ZN17grpc_event_engine12experimental13PosixEndpoint5WriteEN4absl12lts_2023080212AnyInvocableIFvNS3_6StatusEEEEPNS0_11SliceBufferEPKNS0_11EventEngine8Endpoint9WriteArgsE = comdat any

$_ZNK17grpc_event_engine12experimental13PosixEndpoint14GetPeerAddressEv = comdat any

$_ZNK17grpc_event_engine12experimental13PosixEndpoint15GetLocalAddressEv = comdat any

$_ZN17grpc_event_engine12experimental11EventEngine8Endpoint14QueryExtensionESt17basic_string_viewIcSt11char_traitsIcEE = comdat any

$_ZN17grpc_event_engine12experimental13PosixEndpoint12GetWrappedFdEv = comdat any

$_ZN17grpc_event_engine12experimental13PosixEndpoint14CanTrackErrorsEv = comdat any

$_ZN17grpc_event_engine12experimental13PosixEndpoint8ShutdownEN4absl12lts_2023080212AnyInvocableIFvNS3_8StatusOrIiEEEEE = comdat any

$_ZN17grpc_event_engine12experimental11EventEngine8EndpointC2Ev = comdat any

$_ZN17grpc_event_engine12experimental26PosixEndpointWithFdSupportD2Ev = comdat any

$_ZN17grpc_event_engine12experimental26PosixEndpointWithFdSupportD0Ev = comdat any

$_ZN17grpc_event_engine12experimental11EventEngine8EndpointD2Ev = comdat any

$_ZN17grpc_event_engine12experimental11EventEngine8EndpointD0Ev = comdat any

$_ZNSt6atomicIbE8exchangeEbSt12memory_order = comdat any

$_ZNK17grpc_event_engine12experimental17PosixEndpointImpl14GetPeerAddressEv = comdat any

$_ZNK17grpc_event_engine12experimental17PosixEndpointImpl15GetLocalAddressEv = comdat any

$_ZN17grpc_event_engine12experimental17PosixEndpointImpl12GetWrappedFdEv = comdat any

$_ZNK17grpc_event_engine12experimental17PosixEndpointImpl14CanTrackErrorsEv = comdat any

$_ZNSt15__uniq_ptr_dataIN17grpc_event_engine12experimental13PosixEndpointESt14default_deleteIS2_ELb1ELb1EECI2St15__uniq_ptr_implIS2_S4_EEPS2_ = comdat any

$_ZNSt15__uniq_ptr_implIN17grpc_event_engine12experimental13PosixEndpointESt14default_deleteIS2_EEC2EPS2_ = comdat any

$_ZNSt5tupleIJPN17grpc_event_engine12experimental13PosixEndpointESt14default_deleteIS2_EEEC2ILb1ETnNSt9enable_ifIXclsr17_TupleConstraintsIXT_ES3_S5_EE37__is_implicitly_default_constructibleEEbE4typeELb1EEEv = comdat any

$_ZNSt15__uniq_ptr_implIN17grpc_event_engine12experimental13PosixEndpointESt14default_deleteIS2_EE6_M_ptrEv = comdat any

$_ZNSt11_Tuple_implILm0EJPN17grpc_event_engine12experimental13PosixEndpointESt14default_deleteIS2_EEEC2Ev = comdat any

$_ZNSt11_Tuple_implILm1EJSt14default_deleteIN17grpc_event_engine12experimental13PosixEndpointEEEEC2Ev = comdat any

$_ZNSt10_Head_baseILm0EPN17grpc_event_engine12experimental13PosixEndpointELb0EEC2Ev = comdat any

$_ZNSt10_Head_baseILm1ESt14default_deleteIN17grpc_event_engine12experimental13PosixEndpointEELb1EEC2Ev = comdat any

$_ZSt3getILm0EJPN17grpc_event_engine12experimental13PosixEndpointESt14default_deleteIS2_EEERNSt13tuple_elementIXT_ESt5tupleIJDpT0_EEE4typeERSA_ = comdat any

$_ZSt12__get_helperILm0EPN17grpc_event_engine12experimental13PosixEndpointEJSt14default_deleteIS2_EEERT0_RSt11_Tuple_implIXT_EJS6_DpT1_EE = comdat any

$_ZNSt11_Tuple_implILm0EJPN17grpc_event_engine12experimental13PosixEndpointESt14default_deleteIS2_EEE7_M_headERS6_ = comdat any

$_ZNSt10_Head_baseILm0EPN17grpc_event_engine12experimental13PosixEndpointELb0EE7_M_headERS4_ = comdat any

$_ZTSN9grpc_core10RefCountedIN17grpc_event_engine12experimental17PosixEndpointImplENS_19PolymorphicRefCountENS_11UnrefDeleteEEE = comdat any

$_ZTSN9grpc_core19PolymorphicRefCountE = comdat any

$_ZTIN9grpc_core19PolymorphicRefCountE = comdat any

$_ZTIN9grpc_core10RefCountedIN17grpc_event_engine12experimental17PosixEndpointImplENS_19PolymorphicRefCountENS_11UnrefDeleteEEE = comdat any

$_ZN4absl12lts_202308026Status16kMovedFromStringE = comdat any

$_ZSt19piecewise_construct = comdat any

$_ZZN4absl12lts_2023080218container_internal12raw_hash_setINS1_17FlatHashMapPolicyIjPN17grpc_event_engine12experimental21TcpZerocopySendRecordEEENS0_13hash_internal4HashIjEESt8equal_toIjESaISt4pairIKjS7_EEE18GetPolicyFunctionsEvE5value = comdat any

$_ZTVN17grpc_event_engine12experimental18PosixEngineClosureE = comdat any

$_ZTSN17grpc_event_engine12experimental18PosixEngineClosureE = comdat any

$_ZTSN17grpc_event_engine12experimental11EventEngine7ClosureE = comdat any

$_ZTIN17grpc_event_engine12experimental11EventEngine7ClosureE = comdat any

$_ZTIN17grpc_event_engine12experimental18PosixEngineClosureE = comdat any

$_ZTVN17grpc_event_engine12experimental11EventEngine7ClosureE = comdat any

$_ZTVN9grpc_core8WakeableE = comdat any

$_ZTSN9grpc_core8WakeableE = comdat any

$_ZTIN9grpc_core8WakeableE = comdat any

$_ZTVN9grpc_core20InternallyRefCountedINS_14ReclaimerQueue6HandleENS_11UnrefDeleteEEE = comdat any

$_ZTSN9grpc_core20InternallyRefCountedINS_14ReclaimerQueue6HandleENS_11UnrefDeleteEEE = comdat any

$_ZTSN9grpc_core10OrphanableE = comdat any

$_ZTIN9grpc_core10OrphanableE = comdat any

$_ZTIN9grpc_core20InternallyRefCountedINS_14ReclaimerQueue6HandleENS_11UnrefDeleteEEE = comdat any

$_ZTVN9grpc_core10OrphanableE = comdat any

$_ZTSN9grpc_core14ReclaimerQueue6Handle5SweepE = comdat any

$_ZTIN9grpc_core14ReclaimerQueue6Handle5SweepE = comdat any

$_ZTVN9grpc_core14ReclaimerQueue6Handle5SweepE = comdat any

$_ZTVN9grpc_core7ExecCtxE = comdat any

$_ZTSN9grpc_core7ExecCtxE = comdat any

$_ZTIN9grpc_core7ExecCtxE = comdat any

$_ZTVN9grpc_core9Timestamp12ScopedSourceE = comdat any

$_ZTSN9grpc_core9Timestamp12ScopedSourceE = comdat any

$_ZTSN9grpc_core9Timestamp6SourceE = comdat any

$_ZTIN9grpc_core9Timestamp6SourceE = comdat any

$_ZTIN9grpc_core9Timestamp12ScopedSourceE = comdat any

$_ZTVN9grpc_core9Timestamp6SourceE = comdat any

$_ZSt8in_place = comdat any

$_ZTVN9grpc_core10RefCountedIN17grpc_event_engine12experimental17PosixEndpointImplENS_19PolymorphicRefCountENS_11UnrefDeleteEEE = comdat any

$_ZTVN9grpc_core19PolymorphicRefCountE = comdat any

$_ZTVN17grpc_event_engine12experimental13PosixEndpointE = comdat any

$_ZTSN17grpc_event_engine12experimental13PosixEndpointE = comdat any

$_ZTSN17grpc_event_engine12experimental26PosixEndpointWithFdSupportE = comdat any

$_ZTSN17grpc_event_engine12experimental11EventEngine8EndpointE = comdat any

$_ZTIN17grpc_event_engine12experimental11EventEngine8EndpointE = comdat any

$_ZTIN17grpc_event_engine12experimental26PosixEndpointWithFdSupportE = comdat any

$_ZTIN17grpc_event_engine12experimental13PosixEndpointE = comdat any

$_ZTVN17grpc_event_engine12experimental26PosixEndpointWithFdSupportE = comdat any

$_ZTVN17grpc_event_engine12experimental11EventEngine8EndpointE = comdat any

@_ZStL8__ioinit = internal global %"class.std::ios_base::Init" zeroinitializer, align 1
@__dso_handle = external hidden global i8
@.str = private unnamed_addr constant [1 x i8] zeroinitializer, align 1
@.str.1 = private unnamed_addr constant [144 x i8] c"generated/home/dtcxzyw/WorkSpace/Projects/compilers/llvm-opt-benchmark/bench/grpc/grpc/src/core/lib/event_engine/posix_engine/posix_endpoint.cc\00", align 1
@.str.2 = private unnamed_addr constant [32 x i8] c"incoming_buffer_->Length() != 0\00", align 1
@.str.3 = private unnamed_addr constant [14 x i8] c"Socket closed\00", align 1
@.str.4 = private unnamed_addr constant [9 x i8] c"recvmsg:\00", align 1
@.str.5 = private unnamed_addr constant [16 x i8] c"Posix Reclaimer\00", align 1
@_ZZN17grpc_event_engine12experimental17PosixEndpointImpl14UpdateRcvLowatEvE12kRcvLowatMax = internal constant i32 16777216, align 4
@_ZZN17grpc_event_engine12experimental17PosixEndpointImpl14UpdateRcvLowatEvE18kRcvLowatThreshold = internal constant i32 16384, align 4
@.str.6 = private unnamed_addr constant [3 x i8] c"%s\00", align 1
@.str.7 = private unnamed_addr constant [23 x i8] c"ERROR in SO_RCVLOWAT: \00", align 1
@_ZZN17grpc_event_engine12experimental17PosixEndpointImpl19MaybeMakeReadSlicesEvE9kBigAlloc = internal constant i32 65536, align 4
@_ZZN17grpc_event_engine12experimental17PosixEndpointImpl19MaybeMakeReadSlicesEvE11kSmallAlloc = internal constant i32 8192, align 4
@.str.8 = private unnamed_addr constant [23 x i8] c"Shutting down endpoint\00", align 1
@.str.9 = private unnamed_addr constant [20 x i8] c"read_cb_ == nullptr\00", align 1
@.str.10 = private unnamed_addr constant [29 x i8] c"Error message was truncated.\00", align 1
@.str.11 = private unnamed_addr constant [27 x i8] c"Unexpected control message\00", align 1
@.str.12 = private unnamed_addr constant [27 x i8] c"TracedBuffer list shutdown\00", align 1
@_ZZN17grpc_event_engine12experimental17PosixEndpointImpl15DoFlushZerocopyEPNS0_21TcpZerocopySendRecordERN4absl12lts_202308026StatusEE4prev = internal global { i64 } zeroinitializer, align 8
@.str.13 = private unnamed_addr constant [296 x i8] c"Tx0cp encountered an ENOBUFS error possibly because one or both of RLIMIT_MEMLOCK or hard memlock ulimit values are too small for the intended user. Current system value of RLIMIT_MEMLOCK is %lu and hard memlock ulimit is %lu.Consider increasing these values appropriately for the intended user.\00", align 1
@.str.14 = private unnamed_addr constant [8 x i8] c"sendmsg\00", align 1
@.str.15 = private unnamed_addr constant [13 x i8] c"iov_size > 0\00", align 1
@.str.16 = private unnamed_addr constant [24 x i8] c"outgoing_byte_idx_ == 0\00", align 1
@.str.17 = private unnamed_addr constant [21 x i8] c"write_cb_ == nullptr\00", align 1
@.str.18 = private unnamed_addr constant [4 x i8] c"EOF\00", align 1
@.str.19 = private unnamed_addr constant [26 x i8] c"poller_->CanTrackErrors()\00", align 1
@_ZTVN17grpc_event_engine12experimental17PosixEndpointImplE = unnamed_addr constant { [4 x ptr] } { [4 x ptr] [ptr null, ptr @_ZTIN17grpc_event_engine12experimental17PosixEndpointImplE, ptr @_ZN17grpc_event_engine12experimental17PosixEndpointImplD1Ev, ptr @_ZN17grpc_event_engine12experimental17PosixEndpointImplD0Ev] }, align 8
@.str.20 = private unnamed_addr constant [34 x i8] c"options.resource_quota != nullptr\00", align 1
@.str.21 = private unnamed_addr constant [122 x i8] c"Tx zero-copy will not be used by gRPC since RLIMIT_MEMLOCK value is not set. Consider raising its value with setrlimit().\00", align 1
@.str.22 = private unnamed_addr constant [122 x i8] c"Tx zero-copy will not be used by gRPC since hard memlock ulimit value is not set. Use ulimit -l <value> to set its value.\00", align 1
@.str.23 = private unnamed_addr constant [46 x i8] c"Failed to set zerocopy options on the socket.\00", align 1
@.str.24 = private unnamed_addr constant [96 x i8] c"Tx-zero copy enabled for gRPC sends. RLIMIT_MEMLOCK value = %lu,ulimit hard memlock value = %lu\00", align 1
@.str.25 = private unnamed_addr constant [30 x i8] c"cannot set inq fd=%d errno=%d\00", align 1
@_ZTVN10__cxxabiv120__si_class_type_infoE = external global [0 x ptr]
@_ZTSN17grpc_event_engine12experimental17PosixEndpointImplE = constant [55 x i8] c"N17grpc_event_engine12experimental17PosixEndpointImplE\00", align 1
@_ZTSN9grpc_core10RefCountedIN17grpc_event_engine12experimental17PosixEndpointImplENS_19PolymorphicRefCountENS_11UnrefDeleteEEE = linkonce_odr constant [123 x i8] c"N9grpc_core10RefCountedIN17grpc_event_engine12experimental17PosixEndpointImplENS_19PolymorphicRefCountENS_11UnrefDeleteEEE\00", comdat, align 1
@_ZTVN10__cxxabiv117__class_type_infoE = external global [0 x ptr]
@_ZTSN9grpc_core19PolymorphicRefCountE = linkonce_odr constant [34 x i8] c"N9grpc_core19PolymorphicRefCountE\00", comdat, align 1
@_ZTIN9grpc_core19PolymorphicRefCountE = linkonce_odr constant { ptr, ptr } { ptr getelementptr inbounds (ptr, ptr @_ZTVN10__cxxabiv117__class_type_infoE, i64 2), ptr @_ZTSN9grpc_core19PolymorphicRefCountE }, comdat, align 8
@_ZTIN9grpc_core10RefCountedIN17grpc_event_engine12experimental17PosixEndpointImplENS_19PolymorphicRefCountENS_11UnrefDeleteEEE = linkonce_odr constant { ptr, ptr, ptr } { ptr getelementptr inbounds (ptr, ptr @_ZTVN10__cxxabiv120__si_class_type_infoE, i64 2), ptr @_ZTSN9grpc_core10RefCountedIN17grpc_event_engine12experimental17PosixEndpointImplENS_19PolymorphicRefCountENS_11UnrefDeleteEEE, ptr @_ZTIN9grpc_core19PolymorphicRefCountE }, comdat, align 8
@_ZTIN17grpc_event_engine12experimental17PosixEndpointImplE = constant { ptr, ptr, ptr } { ptr getelementptr inbounds (ptr, ptr @_ZTVN10__cxxabiv120__si_class_type_infoE, i64 2), ptr @_ZTSN17grpc_event_engine12experimental17PosixEndpointImplE, ptr @_ZTIN9grpc_core10RefCountedIN17grpc_event_engine12experimental17PosixEndpointImplENS_19PolymorphicRefCountENS_11UnrefDeleteEEE }, align 8
@_ZN9grpc_core19NoDestructSingletonINS_14promise_detail10UnwakeableEE6value_E = linkonce_odr global %"class.grpc_core::NoDestruct" zeroinitializer, comdat, align 8
@_ZGVN9grpc_core19NoDestructSingletonINS_14promise_detail10UnwakeableEE6value_E = linkonce_odr global i64 0, comdat($_ZN9grpc_core19NoDestructSingletonINS_14promise_detail10UnwakeableEE6value_E), align 8
@_ZN4absl12lts_202308026Status16kMovedFromStringE = linkonce_odr constant [28 x i8] c"Status accessed after move.\00", comdat, align 16
@_ZSt19piecewise_construct = linkonce_odr constant %"struct.std::piecewise_construct_t" zeroinitializer, comdat, align 1
@_ZN4absl12lts_2023080213hash_internal15MixingHashState5kSeedE = external constant ptr, align 8
@.str.27 = private unnamed_addr constant [11 x i8] c"operator->\00", align 1
@.str.28 = private unnamed_addr constant [12 x i8] c"operator*()\00", align 1
@.str.29 = private unnamed_addr constant [8 x i8] c"erase()\00", align 1
@.str.30 = private unnamed_addr constant [18 x i8] c"OMem state error!\00", align 1
@.str.31 = private unnamed_addr constant [143 x i8] c"generated/home/dtcxzyw/WorkSpace/Projects/compilers/llvm-opt-benchmark/bench/grpc/grpc/src/core/lib/event_engine/posix_engine/posix_endpoint.h\00", align 1
@_ZZN4absl12lts_2023080218container_internal12raw_hash_setINS1_17FlatHashMapPolicyIjPN17grpc_event_engine12experimental21TcpZerocopySendRecordEEENS0_13hash_internal4HashIjEESt8equal_toIjESaISt4pairIKjS7_EEE18GetPolicyFunctionsEvE5value = linkonce_odr constant %"struct.absl::lts_20230802::container_internal::PolicyFunctions" { i64 16, ptr @_ZN4absl12lts_2023080218container_internal12raw_hash_setINS1_17FlatHashMapPolicyIjPN17grpc_event_engine12experimental21TcpZerocopySendRecordEEENS0_13hash_internal4HashIjEESt8equal_toIjESaISt4pairIKjS7_EEE12hash_slot_fnEPvSJ_, ptr @_ZN4absl12lts_2023080218container_internal12raw_hash_setINS1_17FlatHashMapPolicyIjPN17grpc_event_engine12experimental21TcpZerocopySendRecordEEENS0_13hash_internal4HashIjEESt8equal_toIjESaISt4pairIKjS7_EEE16transfer_slot_fnEPvSJ_SJ_, ptr @_ZN4absl12lts_2023080218container_internal18DeallocateStandardILm8EEEvRNS1_12CommonFieldsERKNS1_15PolicyFunctionsE }, comdat, align 8
@_ZZN17grpc_event_engine12experimental12_GLOBAL__N_119GetRLimitMemLockMaxEvE14kRlimitMemLock = internal global i64 0, align 8
@_ZGVZN17grpc_event_engine12experimental12_GLOBAL__N_119GetRLimitMemLockMaxEvE14kRlimitMemLock = internal global i64 0, align 8
@_ZZN17grpc_event_engine12experimental12_GLOBAL__N_120GetUlimitHardMemLockEvE18kUlimitHardMemLock = internal global i64 0, align 8
@_ZGVZN17grpc_event_engine12experimental12_GLOBAL__N_120GetUlimitHardMemLockEvE18kUlimitHardMemLock = internal global i64 0, align 8
@.str.32 = private unnamed_addr constant [23 x i8] c"/etc/security/limits.d\00", align 1
@.str.33 = private unnamed_addr constant [24 x i8] c"/etc/security/limits.d/\00", align 1
@.str.34 = private unnamed_addr constant [26 x i8] c"/etc/security/limits.conf\00", align 1
@_ZZN17grpc_event_engine12experimental12_GLOBAL__N_126ParseUlimitMemLockFromFileENSt7__cxx1112basic_stringIcSt11char_traitsIcESaIcEEEE18kHardMemlockPrefixB5cxx11 = internal global %"class.std::__cxx11::basic_string" zeroinitializer, align 8
@_ZGVZN17grpc_event_engine12experimental12_GLOBAL__N_126ParseUlimitMemLockFromFileENSt7__cxx1112basic_stringIcSt11char_traitsIcESaIcEEEE18kHardMemlockPrefixB5cxx11 = internal global i64 0, align 8
@.str.35 = private unnamed_addr constant [15 x i8] c"* hard memlock\00", align 1
@.str.36 = private unnamed_addr constant [10 x i8] c"unlimited\00", align 1
@.str.37 = private unnamed_addr constant [9 x i8] c"infinity\00", align 1
@__libc_single_threaded = external global i8, align 1
@.str.38 = private unnamed_addr constant [145 x i8] c"generated/home/dtcxzyw/WorkSpace/Projects/compilers/llvm-opt-benchmark/bench/grpc/grpc/src/core/lib/event_engine/posix_engine/tcp_socket_utils.h\00", align 1
@.str.39 = private unnamed_addr constant [8 x i8] c"fd_ > 0\00", align 1
@_ZTVN17grpc_event_engine12experimental18PosixEngineClosureE = linkonce_odr unnamed_addr constant { [5 x ptr] } { [5 x ptr] [ptr null, ptr @_ZTIN17grpc_event_engine12experimental18PosixEngineClosureE, ptr @_ZN17grpc_event_engine12experimental18PosixEngineClosureD2Ev, ptr @_ZN17grpc_event_engine12experimental18PosixEngineClosureD0Ev, ptr @_ZN17grpc_event_engine12experimental18PosixEngineClosure3RunEv] }, comdat, align 8
@_ZTSN17grpc_event_engine12experimental18PosixEngineClosureE = linkonce_odr constant [56 x i8] c"N17grpc_event_engine12experimental18PosixEngineClosureE\00", comdat, align 1
@_ZTSN17grpc_event_engine12experimental11EventEngine7ClosureE = linkonce_odr constant [57 x i8] c"N17grpc_event_engine12experimental11EventEngine7ClosureE\00", comdat, align 1
@_ZTIN17grpc_event_engine12experimental11EventEngine7ClosureE = linkonce_odr constant { ptr, ptr } { ptr getelementptr inbounds (ptr, ptr @_ZTVN10__cxxabiv117__class_type_infoE, i64 2), ptr @_ZTSN17grpc_event_engine12experimental11EventEngine7ClosureE }, comdat, align 8
@_ZTIN17grpc_event_engine12experimental18PosixEngineClosureE = linkonce_odr constant { ptr, ptr, ptr } { ptr getelementptr inbounds (ptr, ptr @_ZTVN10__cxxabiv120__si_class_type_infoE, i64 2), ptr @_ZTSN17grpc_event_engine12experimental18PosixEngineClosureE, ptr @_ZTIN17grpc_event_engine12experimental11EventEngine7ClosureE }, comdat, align 8
@_ZTVN17grpc_event_engine12experimental11EventEngine7ClosureE = linkonce_odr unnamed_addr constant { [5 x ptr] } { [5 x ptr] [ptr null, ptr @_ZTIN17grpc_event_engine12experimental11EventEngine7ClosureE, ptr @_ZN17grpc_event_engine12experimental11EventEngine7ClosureD2Ev, ptr @_ZN17grpc_event_engine12experimental11EventEngine7ClosureD0Ev, ptr @__cxa_pure_virtual] }, comdat, align 8
@.str.40 = private unnamed_addr constant [50 x i8] c"basic_string: construction from null is not valid\00", align 1
@_ZTVN9grpc_core14promise_detail10UnwakeableE = external unnamed_addr constant { [6 x ptr] }, align 8
@_ZTVN9grpc_core8WakeableE = linkonce_odr unnamed_addr constant { [6 x ptr] } { [6 x ptr] [ptr null, ptr @_ZTIN9grpc_core8WakeableE, ptr @__cxa_pure_virtual, ptr @__cxa_pure_virtual, ptr @__cxa_pure_virtual, ptr @__cxa_pure_virtual] }, comdat, align 8
@_ZTSN9grpc_core8WakeableE = linkonce_odr constant [22 x i8] c"N9grpc_core8WakeableE\00", comdat, align 1
@_ZTIN9grpc_core8WakeableE = linkonce_odr constant { ptr, ptr } { ptr getelementptr inbounds (ptr, ptr @_ZTVN10__cxxabiv117__class_type_infoE, i64 2), ptr @_ZTSN9grpc_core8WakeableE }, comdat, align 8
@.str.41 = private unnamed_addr constant [130 x i8] c"generated/home/dtcxzyw/WorkSpace/Projects/compilers/llvm-opt-benchmark/bench/grpc/grpc/src/core/lib/resource_quota/memory_quota.h\00", align 1
@.str.42 = private unnamed_addr constant [11 x i8] c"!shutdown_\00", align 1
@_ZTVN9grpc_core14ReclaimerQueue6HandleE = external unnamed_addr constant { [5 x ptr] }, align 8
@_ZTVN9grpc_core20InternallyRefCountedINS_14ReclaimerQueue6HandleENS_11UnrefDeleteEEE = linkonce_odr unnamed_addr constant { [5 x ptr] } { [5 x ptr] [ptr null, ptr @_ZTIN9grpc_core20InternallyRefCountedINS_14ReclaimerQueue6HandleENS_11UnrefDeleteEEE, ptr @__cxa_pure_virtual, ptr @_ZN9grpc_core20InternallyRefCountedINS_14ReclaimerQueue6HandleENS_11UnrefDeleteEED2Ev, ptr @_ZN9grpc_core20InternallyRefCountedINS_14ReclaimerQueue6HandleENS_11UnrefDeleteEED0Ev] }, comdat, align 8
@_ZTSN9grpc_core20InternallyRefCountedINS_14ReclaimerQueue6HandleENS_11UnrefDeleteEEE = linkonce_odr constant [81 x i8] c"N9grpc_core20InternallyRefCountedINS_14ReclaimerQueue6HandleENS_11UnrefDeleteEEE\00", comdat, align 1
@_ZTSN9grpc_core10OrphanableE = linkonce_odr constant [25 x i8] c"N9grpc_core10OrphanableE\00", comdat, align 1
@_ZTIN9grpc_core10OrphanableE = linkonce_odr constant { ptr, ptr } { ptr getelementptr inbounds (ptr, ptr @_ZTVN10__cxxabiv117__class_type_infoE, i64 2), ptr @_ZTSN9grpc_core10OrphanableE }, comdat, align 8
@_ZTIN9grpc_core20InternallyRefCountedINS_14ReclaimerQueue6HandleENS_11UnrefDeleteEEE = linkonce_odr constant { ptr, ptr, ptr } { ptr getelementptr inbounds (ptr, ptr @_ZTVN10__cxxabiv120__si_class_type_infoE, i64 2), ptr @_ZTSN9grpc_core20InternallyRefCountedINS_14ReclaimerQueue6HandleENS_11UnrefDeleteEEE, ptr @_ZTIN9grpc_core10OrphanableE }, comdat, align 8
@_ZTVN9grpc_core10OrphanableE = linkonce_odr unnamed_addr constant { [5 x ptr] } { [5 x ptr] [ptr null, ptr @_ZTIN9grpc_core10OrphanableE, ptr @__cxa_pure_virtual, ptr @_ZN9grpc_core10OrphanableD2Ev, ptr @_ZN9grpc_core10OrphanableD0Ev] }, comdat, align 8
@"_ZTVN9grpc_core14ReclaimerQueue6Handle7SweepFnIZN17grpc_event_engine12experimental17PosixEndpointImpl18MaybePostReclaimerEvE3$_0EE" = internal unnamed_addr constant { [3 x ptr] } { [3 x ptr] [ptr null, ptr @"_ZTIN9grpc_core14ReclaimerQueue6Handle7SweepFnIZN17grpc_event_engine12experimental17PosixEndpointImpl18MaybePostReclaimerEvE3$_0EE", ptr @"_ZN9grpc_core14ReclaimerQueue6Handle7SweepFnIZN17grpc_event_engine12experimental17PosixEndpointImpl18MaybePostReclaimerEvE3$_0E12RunAndDeleteESt8optionalINS_16ReclamationSweepEE"] }, align 8
@"_ZTSN9grpc_core14ReclaimerQueue6Handle7SweepFnIZN17grpc_event_engine12experimental17PosixEndpointImpl18MaybePostReclaimerEvE3$_0EE" = internal constant [127 x i8] c"N9grpc_core14ReclaimerQueue6Handle7SweepFnIZN17grpc_event_engine12experimental17PosixEndpointImpl18MaybePostReclaimerEvE3$_0EE\00", align 1
@_ZTSN9grpc_core14ReclaimerQueue6Handle5SweepE = linkonce_odr constant [42 x i8] c"N9grpc_core14ReclaimerQueue6Handle5SweepE\00", comdat, align 1
@_ZTIN9grpc_core14ReclaimerQueue6Handle5SweepE = linkonce_odr constant { ptr, ptr } { ptr getelementptr inbounds (ptr, ptr @_ZTVN10__cxxabiv117__class_type_infoE, i64 2), ptr @_ZTSN9grpc_core14ReclaimerQueue6Handle5SweepE }, comdat, align 8
@"_ZTIN9grpc_core14ReclaimerQueue6Handle7SweepFnIZN17grpc_event_engine12experimental17PosixEndpointImpl18MaybePostReclaimerEvE3$_0EE" = internal constant { ptr, ptr, ptr } { ptr getelementptr inbounds (ptr, ptr @_ZTVN10__cxxabiv120__si_class_type_infoE, i64 2), ptr @"_ZTSN9grpc_core14ReclaimerQueue6Handle7SweepFnIZN17grpc_event_engine12experimental17PosixEndpointImpl18MaybePostReclaimerEvE3$_0EE", ptr @_ZTIN9grpc_core14ReclaimerQueue6Handle5SweepE }, align 8
@_ZTVN9grpc_core14ReclaimerQueue6Handle5SweepE = linkonce_odr unnamed_addr constant { [3 x ptr] } { [3 x ptr] [ptr null, ptr @_ZTIN9grpc_core14ReclaimerQueue6Handle5SweepE, ptr @__cxa_pure_virtual] }, comdat, align 8
@_ZN9grpc_core7ExecCtx9exec_ctx_E = external thread_local global ptr, align 8
@_ZN9grpc_core26ApplicationCallbackExecCtx18callback_exec_ctx_E = external thread_local global ptr, align 8
@_ZN9grpc_core4Fork16support_enabled_E = external global %"struct.std::atomic.9", align 1
@_ZTVN9grpc_core7ExecCtxE = linkonce_odr unnamed_addr constant { [5 x ptr] } { [5 x ptr] [ptr null, ptr @_ZTIN9grpc_core7ExecCtxE, ptr @_ZN9grpc_core7ExecCtxD2Ev, ptr @_ZN9grpc_core7ExecCtxD0Ev, ptr @_ZN9grpc_core7ExecCtx18CheckReadyToFinishEv] }, comdat, align 8
@_ZTSN9grpc_core7ExecCtxE = linkonce_odr constant [21 x i8] c"N9grpc_core7ExecCtxE\00", comdat, align 1
@_ZTIN9grpc_core7ExecCtxE = linkonce_odr constant { ptr, ptr } { ptr getelementptr inbounds (ptr, ptr @_ZTVN10__cxxabiv117__class_type_infoE, i64 2), ptr @_ZTSN9grpc_core7ExecCtxE }, comdat, align 8
@_ZTVN9grpc_core15ScopedTimeCacheE = external unnamed_addr constant { [4 x ptr] }, align 8
@_ZTVN9grpc_core9Timestamp12ScopedSourceE = linkonce_odr unnamed_addr constant { [4 x ptr] } { [4 x ptr] [ptr null, ptr @_ZTIN9grpc_core9Timestamp12ScopedSourceE, ptr @__cxa_pure_virtual, ptr @_ZN9grpc_core9Timestamp12ScopedSource15InvalidateCacheEv] }, comdat, align 8
@_ZN9grpc_core9Timestamp25thread_local_time_source_E = external thread_local global ptr, align 8
@_ZTSN9grpc_core9Timestamp12ScopedSourceE = linkonce_odr constant [37 x i8] c"N9grpc_core9Timestamp12ScopedSourceE\00", comdat, align 1
@_ZTSN9grpc_core9Timestamp6SourceE = linkonce_odr constant [30 x i8] c"N9grpc_core9Timestamp6SourceE\00", comdat, align 1
@_ZTIN9grpc_core9Timestamp6SourceE = linkonce_odr constant { ptr, ptr } { ptr getelementptr inbounds (ptr, ptr @_ZTVN10__cxxabiv117__class_type_infoE, i64 2), ptr @_ZTSN9grpc_core9Timestamp6SourceE }, comdat, align 8
@_ZTIN9grpc_core9Timestamp12ScopedSourceE = linkonce_odr constant { ptr, ptr, ptr } { ptr getelementptr inbounds (ptr, ptr @_ZTVN10__cxxabiv120__si_class_type_infoE, i64 2), ptr @_ZTSN9grpc_core9Timestamp12ScopedSourceE, ptr @_ZTIN9grpc_core9Timestamp6SourceE }, comdat, align 8
@_ZTVN9grpc_core9Timestamp6SourceE = linkonce_odr unnamed_addr constant { [4 x ptr] } { [4 x ptr] [ptr null, ptr @_ZTIN9grpc_core9Timestamp6SourceE, ptr @__cxa_pure_virtual, ptr @_ZN9grpc_core9Timestamp6Source15InvalidateCacheEv] }, comdat, align 8
@_ZSt8in_place = linkonce_odr constant %"struct.std::in_place_t" zeroinitializer, comdat, align 1
@_ZTVN9grpc_core10RefCountedIN17grpc_event_engine12experimental17PosixEndpointImplENS_19PolymorphicRefCountENS_11UnrefDeleteEEE = linkonce_odr unnamed_addr constant { [4 x ptr] } { [4 x ptr] [ptr null, ptr @_ZTIN9grpc_core10RefCountedIN17grpc_event_engine12experimental17PosixEndpointImplENS_19PolymorphicRefCountENS_11UnrefDeleteEEE, ptr @_ZN9grpc_core10RefCountedIN17grpc_event_engine12experimental17PosixEndpointImplENS_19PolymorphicRefCountENS_11UnrefDeleteEED2Ev, ptr @_ZN9grpc_core10RefCountedIN17grpc_event_engine12experimental17PosixEndpointImplENS_19PolymorphicRefCountENS_11UnrefDeleteEED0Ev] }, comdat, align 8
@_ZTVN9grpc_core19PolymorphicRefCountE = linkonce_odr unnamed_addr constant { [4 x ptr] } { [4 x ptr] [ptr null, ptr @_ZTIN9grpc_core19PolymorphicRefCountE, ptr @_ZN9grpc_core19PolymorphicRefCountD2Ev, ptr @_ZN9grpc_core19PolymorphicRefCountD0Ev] }, comdat, align 8
@.str.43 = private unnamed_addr constant [51 x i8] c"Disabling TCP TX zerocopy due to memory pressure.\0A\00", align 1
@_ZN4absl12lts_2023080218container_internal11kEmptyGroupE = external constant [32 x i8], align 16
@_ZTVN17grpc_event_engine12experimental13PosixEndpointE = linkonce_odr unnamed_addr constant { [12 x ptr] } { [12 x ptr] [ptr null, ptr @_ZTIN17grpc_event_engine12experimental13PosixEndpointE, ptr @_ZN17grpc_event_engine12experimental13PosixEndpointD2Ev, ptr @_ZN17grpc_event_engine12experimental13PosixEndpointD0Ev, ptr @_ZN17grpc_event_engine12experimental13PosixEndpoint4ReadEN4absl12lts_2023080212AnyInvocableIFvNS3_6StatusEEEEPNS0_11SliceBufferEPKNS0_11EventEngine8Endpoint8ReadArgsE, ptr @_ZN17grpc_event_engine12experimental13PosixEndpoint5WriteEN4absl12lts_2023080212AnyInvocableIFvNS3_6StatusEEEEPNS0_11SliceBufferEPKNS0_11EventEngine8Endpoint9WriteArgsE, ptr @_ZNK17grpc_event_engine12experimental13PosixEndpoint14GetPeerAddressEv, ptr @_ZNK17grpc_event_engine12experimental13PosixEndpoint15GetLocalAddressEv, ptr @_ZN17grpc_event_engine12experimental11EventEngine8Endpoint14QueryExtensionESt17basic_string_viewIcSt11char_traitsIcEE, ptr @_ZN17grpc_event_engine12experimental13PosixEndpoint12GetWrappedFdEv, ptr @_ZN17grpc_event_engine12experimental13PosixEndpoint14CanTrackErrorsEv, ptr @_ZN17grpc_event_engine12experimental13PosixEndpoint8ShutdownEN4absl12lts_2023080212AnyInvocableIFvNS3_8StatusOrIiEEEEE] }, comdat, align 8
@_ZTSN17grpc_event_engine12experimental13PosixEndpointE = linkonce_odr constant [51 x i8] c"N17grpc_event_engine12experimental13PosixEndpointE\00", comdat, align 1
@_ZTSN17grpc_event_engine12experimental26PosixEndpointWithFdSupportE = linkonce_odr constant [64 x i8] c"N17grpc_event_engine12experimental26PosixEndpointWithFdSupportE\00", comdat, align 1
@_ZTSN17grpc_event_engine12experimental11EventEngine8EndpointE = linkonce_odr constant [58 x i8] c"N17grpc_event_engine12experimental11EventEngine8EndpointE\00", comdat, align 1
@_ZTIN17grpc_event_engine12experimental11EventEngine8EndpointE = linkonce_odr constant { ptr, ptr } { ptr getelementptr inbounds (ptr, ptr @_ZTVN10__cxxabiv117__class_type_infoE, i64 2), ptr @_ZTSN17grpc_event_engine12experimental11EventEngine8EndpointE }, comdat, align 8
@_ZTIN17grpc_event_engine12experimental26PosixEndpointWithFdSupportE = linkonce_odr constant { ptr, ptr, ptr } { ptr getelementptr inbounds (ptr, ptr @_ZTVN10__cxxabiv120__si_class_type_infoE, i64 2), ptr @_ZTSN17grpc_event_engine12experimental26PosixEndpointWithFdSupportE, ptr @_ZTIN17grpc_event_engine12experimental11EventEngine8EndpointE }, comdat, align 8
@_ZTIN17grpc_event_engine12experimental13PosixEndpointE = linkonce_odr constant { ptr, ptr, ptr } { ptr getelementptr inbounds (ptr, ptr @_ZTVN10__cxxabiv120__si_class_type_infoE, i64 2), ptr @_ZTSN17grpc_event_engine12experimental13PosixEndpointE, ptr @_ZTIN17grpc_event_engine12experimental26PosixEndpointWithFdSupportE }, comdat, align 8
@_ZTVN17grpc_event_engine12experimental26PosixEndpointWithFdSupportE = linkonce_odr unnamed_addr constant { [12 x ptr] } { [12 x ptr] [ptr null, ptr @_ZTIN17grpc_event_engine12experimental26PosixEndpointWithFdSupportE, ptr @_ZN17grpc_event_engine12experimental26PosixEndpointWithFdSupportD2Ev, ptr @_ZN17grpc_event_engine12experimental26PosixEndpointWithFdSupportD0Ev, ptr @__cxa_pure_virtual, ptr @__cxa_pure_virtual, ptr @__cxa_pure_virtual, ptr @__cxa_pure_virtual, ptr @_ZN17grpc_event_engine12experimental11EventEngine8Endpoint14QueryExtensionESt17basic_string_viewIcSt11char_traitsIcEE, ptr @__cxa_pure_virtual, ptr @__cxa_pure_virtual, ptr @__cxa_pure_virtual] }, comdat, align 8
@_ZTVN17grpc_event_engine12experimental11EventEngine8EndpointE = linkonce_odr unnamed_addr constant { [9 x ptr] } { [9 x ptr] [ptr null, ptr @_ZTIN17grpc_event_engine12experimental11EventEngine8EndpointE, ptr @_ZN17grpc_event_engine12experimental11EventEngine8EndpointD2Ev, ptr @_ZN17grpc_event_engine12experimental11EventEngine8EndpointD0Ev, ptr @__cxa_pure_virtual, ptr @__cxa_pure_virtual, ptr @__cxa_pure_virtual, ptr @__cxa_pure_virtual, ptr @_ZN17grpc_event_engine12experimental11EventEngine8Endpoint14QueryExtensionESt17basic_string_viewIcSt11char_traitsIcEE] }, comdat, align 8
@.str.44 = private unnamed_addr constant [17 x i8] c"Endpoint closing\00", align 1
@llvm.global_ctors = appending global [2 x { i32, ptr, ptr }] [{ i32, ptr, ptr } { i32 65535, ptr @__cxx_global_var_init.26, ptr @_ZN9grpc_core19NoDestructSingletonINS_14promise_detail10UnwakeableEE6value_E }, { i32, ptr, ptr } { i32 65535, ptr @_GLOBAL__sub_I_posix_endpoint.cc, ptr null }]
@llvm.used = appending global [1 x ptr] [ptr @_ZN9grpc_core19NoDestructSingletonINS_14promise_detail10UnwakeableEE6value_E], section "llvm.metadata"

@_ZN17grpc_event_engine12experimental17PosixEndpointImplD1Ev = unnamed_addr alias void (ptr), ptr @_ZN17grpc_event_engine12experimental17PosixEndpointImplD2Ev
@_ZN17grpc_event_engine12experimental17PosixEndpointImplC1EPNS0_11EventHandleEPNS0_18PosixEngineClosureESt10shared_ptrINS0_11EventEngineEEONS0_15MemoryAllocatorERKNS0_15PosixTcpOptionsE = unnamed_addr alias void (ptr, ptr, ptr, ptr, ptr, ptr), ptr @_ZN17grpc_event_engine12experimental17PosixEndpointImplC2EPNS0_11EventHandleEPNS0_18PosixEngineClosureESt10shared_ptrINS0_11EventEngineEEONS0_15MemoryAllocatorERKNS0_15PosixTcpOptionsE

; Function Attrs: uwtable
define internal void @__cxx_global_var_init() #0 section ".text.startup" {
entry:
  call void @_ZNSt8ios_base4InitC1Ev(ptr noundef nonnull align 1 dereferenceable(1) @_ZStL8__ioinit)
  %0 = call i32 @__cxa_atexit(ptr @_ZNSt8ios_base4InitD1Ev, ptr @_ZStL8__ioinit, ptr @__dso_handle) #3
  ret void
}

declare void @_ZNSt8ios_base4InitC1Ev(ptr noundef nonnull align 1 dereferenceable(1)) unnamed_addr #1

; Function Attrs: nounwind
declare void @_ZNSt8ios_base4InitD1Ev(ptr noundef nonnull align 1 dereferenceable(1)) unnamed_addr #2

; Function Attrs: nounwind
declare i32 @__cxa_atexit(ptr, ptr, ptr) #3

; Function Attrs: mustprogress uwtable
define noundef i64 @_ZN17grpc_event_engine12experimental21TcpZerocopySendRecord12PopulateIovsEPmS2_S2_P5iovec(ptr noundef nonnull align 8 dereferenceable(288) %this, ptr noundef %unwind_slice_idx, ptr noundef %unwind_byte_idx, ptr noundef %sending_length, ptr noundef %iov) #4 align 2 {
entry:
  %this.addr = alloca ptr, align 8
  %unwind_slice_idx.addr = alloca ptr, align 8
  %unwind_byte_idx.addr = alloca ptr, align 8
  %sending_length.addr = alloca ptr, align 8
  %iov.addr = alloca ptr, align 8
  %iov_size = alloca i64, align 8
  %slice = alloca ptr, align 8
  store ptr %this, ptr %this.addr, align 8
  store ptr %unwind_slice_idx, ptr %unwind_slice_idx.addr, align 8
  store ptr %unwind_byte_idx, ptr %unwind_byte_idx.addr, align 8
  store ptr %sending_length, ptr %sending_length.addr, align 8
  store ptr %iov, ptr %iov.addr, align 8
  %this1 = load ptr, ptr %this.addr, align 8
  %out_offset_ = getelementptr inbounds %"class.grpc_event_engine::experimental::TcpZerocopySendRecord", ptr %this1, i32 0, i32 2
  %slice_idx = getelementptr inbounds %"struct.grpc_event_engine::experimental::TcpZerocopySendRecord::OutgoingOffset", ptr %out_offset_, i32 0, i32 0
  %0 = load i64, ptr %slice_idx, align 8
  %1 = load ptr, ptr %unwind_slice_idx.addr, align 8
  store i64 %0, ptr %1, align 8
  %out_offset_2 = getelementptr inbounds %"class.grpc_event_engine::experimental::TcpZerocopySendRecord", ptr %this1, i32 0, i32 2
  %byte_idx = getelementptr inbounds %"struct.grpc_event_engine::experimental::TcpZerocopySendRecord::OutgoingOffset", ptr %out_offset_2, i32 0, i32 1
  %2 = load i64, ptr %byte_idx, align 8
  %3 = load ptr, ptr %unwind_byte_idx.addr, align 8
  store i64 %2, ptr %3, align 8
  store i64 0, ptr %iov_size, align 8
  br label %for.cond

for.cond:                                         ; preds = %for.inc, %entry
  %out_offset_3 = getelementptr inbounds %"class.grpc_event_engine::experimental::TcpZerocopySendRecord", ptr %this1, i32 0, i32 2
  %slice_idx4 = getelementptr inbounds %"struct.grpc_event_engine::experimental::TcpZerocopySendRecord::OutgoingOffset", ptr %out_offset_3, i32 0, i32 0
  %4 = load i64, ptr %slice_idx4, align 8
  %buf_ = getelementptr inbounds %"class.grpc_event_engine::experimental::TcpZerocopySendRecord", ptr %this1, i32 0, i32 0
  %call = call noundef i64 @_ZN17grpc_event_engine12experimental11SliceBuffer5CountEv(ptr noundef nonnull align 8 dereferenceable(264) %buf_)
  %cmp = icmp ne i64 %4, %call
  br i1 %cmp, label %land.rhs, label %land.end

land.rhs:                                         ; preds = %for.cond
  %5 = load i64, ptr %iov_size, align 8
  %cmp5 = icmp ne i64 %5, 260
  br label %land.end

land.end:                                         ; preds = %land.rhs, %for.cond
  %6 = phi i1 [ false, %for.cond ], [ %cmp5, %land.rhs ]
  br i1 %6, label %for.body, label %for.end

for.body:                                         ; preds = %land.end
  %buf_6 = getelementptr inbounds %"class.grpc_event_engine::experimental::TcpZerocopySendRecord", ptr %this1, i32 0, i32 0
  %out_offset_7 = getelementptr inbounds %"class.grpc_event_engine::experimental::TcpZerocopySendRecord", ptr %this1, i32 0, i32 2
  %slice_idx8 = getelementptr inbounds %"struct.grpc_event_engine::experimental::TcpZerocopySendRecord::OutgoingOffset", ptr %out_offset_7, i32 0, i32 0
  %7 = load i64, ptr %slice_idx8, align 8
  %call9 = call noundef nonnull align 8 dereferenceable(32) ptr @_ZNK17grpc_event_engine12experimental11SliceBuffer14MutableSliceAtEm(ptr noundef nonnull align 8 dereferenceable(264) %buf_6, i64 noundef %7)
  %call10 = call noundef nonnull align 8 dereferenceable(32) ptr @_ZN17grpc_event_engine12experimental8internal9SliceCastINS0_12MutableSliceENS0_5SliceEEERT_RT0_NS1_13SliceCastableIS5_S7_EE(ptr noundef nonnull align 8 dereferenceable(32) %call9)
  store ptr %call10, ptr %slice, align 8
  %8 = load ptr, ptr %slice, align 8
  %call11 = call noundef ptr @_ZN17grpc_event_engine12experimental12MutableSlice5beginEv(ptr noundef nonnull align 8 dereferenceable(32) %8)
  %9 = load ptr, ptr %iov.addr, align 8
  %10 = load i64, ptr %iov_size, align 8
  %arrayidx = getelementptr inbounds %struct.iovec, ptr %9, i64 %10
  %iov_base = getelementptr inbounds %struct.iovec, ptr %arrayidx, i32 0, i32 0
  store ptr %call11, ptr %iov_base, align 8
  %11 = load ptr, ptr %slice, align 8
  %call12 = call noundef i64 @_ZNK17grpc_event_engine12experimental12slice_detail9BaseSlice6lengthEv(ptr noundef nonnull align 8 dereferenceable(32) %11)
  %out_offset_13 = getelementptr inbounds %"class.grpc_event_engine::experimental::TcpZerocopySendRecord", ptr %this1, i32 0, i32 2
  %byte_idx14 = getelementptr inbounds %"struct.grpc_event_engine::experimental::TcpZerocopySendRecord::OutgoingOffset", ptr %out_offset_13, i32 0, i32 1
  %12 = load i64, ptr %byte_idx14, align 8
  %sub = sub i64 %call12, %12
  %13 = load ptr, ptr %iov.addr, align 8
  %14 = load i64, ptr %iov_size, align 8
  %arrayidx15 = getelementptr inbounds %struct.iovec, ptr %13, i64 %14
  %iov_len = getelementptr inbounds %struct.iovec, ptr %arrayidx15, i32 0, i32 1
  store i64 %sub, ptr %iov_len, align 8
  %15 = load ptr, ptr %iov.addr, align 8
  %16 = load i64, ptr %iov_size, align 8
  %arrayidx16 = getelementptr inbounds %struct.iovec, ptr %15, i64 %16
  %iov_len17 = getelementptr inbounds %struct.iovec, ptr %arrayidx16, i32 0, i32 1
  %17 = load i64, ptr %iov_len17, align 8
  %18 = load ptr, ptr %sending_length.addr, align 8
  %19 = load i64, ptr %18, align 8
  %add = add i64 %19, %17
  store i64 %add, ptr %18, align 8
  %out_offset_18 = getelementptr inbounds %"class.grpc_event_engine::experimental::TcpZerocopySendRecord", ptr %this1, i32 0, i32 2
  %slice_idx19 = getelementptr inbounds %"struct.grpc_event_engine::experimental::TcpZerocopySendRecord::OutgoingOffset", ptr %out_offset_18, i32 0, i32 0
  %20 = load i64, ptr %slice_idx19, align 8
  %inc = add i64 %20, 1
  store i64 %inc, ptr %slice_idx19, align 8
  %out_offset_20 = getelementptr inbounds %"class.grpc_event_engine::experimental::TcpZerocopySendRecord", ptr %this1, i32 0, i32 2
  %byte_idx21 = getelementptr inbounds %"struct.grpc_event_engine::experimental::TcpZerocopySendRecord::OutgoingOffset", ptr %out_offset_20, i32 0, i32 1
  store i64 0, ptr %byte_idx21, align 8
  br label %for.inc

for.inc:                                          ; preds = %for.body
  %21 = load i64, ptr %iov_size, align 8
  %inc22 = add i64 %21, 1
  store i64 %inc22, ptr %iov_size, align 8
  br label %for.cond, !llvm.loop !4

for.end:                                          ; preds = %land.end
  %22 = load i64, ptr %iov_size, align 8
  ret i64 %22
}

; Function Attrs: mustprogress nounwind uwtable
define linkonce_odr noundef i64 @_ZN17grpc_event_engine12experimental11SliceBuffer5CountEv(ptr noundef nonnull align 8 dereferenceable(264) %this) #5 comdat align 2 {
entry:
  %this.addr = alloca ptr, align 8
  store ptr %this, ptr %this.addr, align 8
  %this1 = load ptr, ptr %this.addr, align 8
  %slice_buffer_ = getelementptr inbounds %"class.grpc_event_engine::experimental::SliceBuffer", ptr %this1, i32 0, i32 0
  %count = getelementptr inbounds %struct.grpc_slice_buffer, ptr %slice_buffer_, i32 0, i32 2
  %0 = load i64, ptr %count, align 8
  ret i64 %0
}

; Function Attrs: mustprogress nounwind uwtable
define linkonce_odr noundef nonnull align 8 dereferenceable(32) ptr @_ZN17grpc_event_engine12experimental8internal9SliceCastINS0_12MutableSliceENS0_5SliceEEERT_RT0_NS1_13SliceCastableIS5_S7_EE(ptr noundef nonnull align 8 dereferenceable(32) %value) #5 comdat {
entry:
  %value.addr = alloca ptr, align 8
  store ptr %value, ptr %value.addr, align 8
  %0 = load ptr, ptr %value.addr, align 8
  ret ptr %0
}

; Function Attrs: mustprogress uwtable
define linkonce_odr noundef nonnull align 8 dereferenceable(32) ptr @_ZNK17grpc_event_engine12experimental11SliceBuffer14MutableSliceAtEm(ptr noundef nonnull align 8 dereferenceable(264) %this, i64 noundef %index) #4 comdat align 2 {
entry:
  %this.addr = alloca ptr, align 8
  %index.addr = alloca i64, align 8
  store ptr %this, ptr %this.addr, align 8
  store i64 %index, ptr %index.addr, align 8
  %this1 = load ptr, ptr %this.addr, align 8
  %slice_buffer_ = getelementptr inbounds %"class.grpc_event_engine::experimental::SliceBuffer", ptr %this1, i32 0, i32 0
  %slices = getelementptr inbounds %struct.grpc_slice_buffer, ptr %slice_buffer_, i32 0, i32 1
  %0 = load ptr, ptr %slices, align 8
  %1 = load i64, ptr %index.addr, align 8
  %arrayidx = getelementptr inbounds %struct.grpc_slice, ptr %0, i64 %1
  %call = call noundef nonnull align 8 dereferenceable(32) ptr @_ZN17grpc_event_engine12experimental8internal9SliceCastINS0_5SliceE10grpc_sliceEERT_RT0_NS1_13SliceCastableIS5_S7_EE(ptr noundef nonnull align 8 dereferenceable(32) %arrayidx)
  ret ptr %call
}

; Function Attrs: mustprogress uwtable
define linkonce_odr noundef ptr @_ZN17grpc_event_engine12experimental12MutableSlice5beginEv(ptr noundef nonnull align 8 dereferenceable(32) %this) #4 comdat align 2 {
entry:
  %this.addr = alloca ptr, align 8
  store ptr %this, ptr %this.addr, align 8
  %this1 = load ptr, ptr %this.addr, align 8
  %call = call noundef ptr @_ZN17grpc_event_engine12experimental12slice_detail9BaseSlice12mutable_dataEv(ptr noundef nonnull align 8 dereferenceable(32) %this1)
  ret ptr %call
}

; Function Attrs: mustprogress uwtable
define linkonce_odr noundef i64 @_ZNK17grpc_event_engine12experimental12slice_detail9BaseSlice6lengthEv(ptr noundef nonnull align 8 dereferenceable(32) %this) #4 comdat align 2 {
entry:
  %this.addr = alloca ptr, align 8
  store ptr %this, ptr %this.addr, align 8
  %this1 = load ptr, ptr %this.addr, align 8
  %call = call noundef i64 @_ZNK17grpc_event_engine12experimental12slice_detail9BaseSlice4sizeEv(ptr noundef nonnull align 8 dereferenceable(32) %this1)
  ret i64 %call
}

; Function Attrs: mustprogress uwtable
define void @_ZN17grpc_event_engine12experimental21TcpZerocopySendRecord24UpdateOffsetForBytesSentEmm(ptr noundef nonnull align 8 dereferenceable(288) %this, i64 noundef %sending_length, i64 noundef %actually_sent) #4 align 2 personality ptr @__gxx_personality_v0 {
entry:
  %this.addr = alloca ptr, align 8
  %sending_length.addr = alloca i64, align 8
  %actually_sent.addr = alloca i64, align 8
  %trailing = alloca i64, align 8
  %slice_length = alloca i64, align 8
  %ref.tmp = alloca %"class.grpc_event_engine::experimental::Slice", align 8
  %exn.slot = alloca ptr, align 8
  %ehselector.slot = alloca i32, align 4
  store ptr %this, ptr %this.addr, align 8
  store i64 %sending_length, ptr %sending_length.addr, align 8
  store i64 %actually_sent, ptr %actually_sent.addr, align 8
  %this1 = load ptr, ptr %this.addr, align 8
  %0 = load i64, ptr %sending_length.addr, align 8
  %1 = load i64, ptr %actually_sent.addr, align 8
  %sub = sub i64 %0, %1
  store i64 %sub, ptr %trailing, align 8
  br label %while.cond

while.cond:                                       ; preds = %if.end, %entry
  %2 = load i64, ptr %trailing, align 8
  %cmp = icmp ugt i64 %2, 0
  br i1 %cmp, label %while.body, label %while.end

while.body:                                       ; preds = %while.cond
  %out_offset_ = getelementptr inbounds %"class.grpc_event_engine::experimental::TcpZerocopySendRecord", ptr %this1, i32 0, i32 2
  %slice_idx = getelementptr inbounds %"struct.grpc_event_engine::experimental::TcpZerocopySendRecord::OutgoingOffset", ptr %out_offset_, i32 0, i32 0
  %3 = load i64, ptr %slice_idx, align 8
  %dec = add i64 %3, -1
  store i64 %dec, ptr %slice_idx, align 8
  %buf_ = getelementptr inbounds %"class.grpc_event_engine::experimental::TcpZerocopySendRecord", ptr %this1, i32 0, i32 0
  %out_offset_2 = getelementptr inbounds %"class.grpc_event_engine::experimental::TcpZerocopySendRecord", ptr %this1, i32 0, i32 2
  %slice_idx3 = getelementptr inbounds %"struct.grpc_event_engine::experimental::TcpZerocopySendRecord::OutgoingOffset", ptr %out_offset_2, i32 0, i32 0
  %4 = load i64, ptr %slice_idx3, align 8
  call void @_ZN17grpc_event_engine12experimental11SliceBuffer8RefSliceEm(ptr sret(%"class.grpc_event_engine::experimental::Slice") align 8 %ref.tmp, ptr noundef nonnull align 8 dereferenceable(264) %buf_, i64 noundef %4)
  %call = invoke noundef i64 @_ZNK17grpc_event_engine12experimental12slice_detail9BaseSlice6lengthEv(ptr noundef nonnull align 8 dereferenceable(32) %ref.tmp)
          to label %invoke.cont unwind label %lpad

invoke.cont:                                      ; preds = %while.body
  store i64 %call, ptr %slice_length, align 8
  call void @_ZN17grpc_event_engine12experimental5SliceD1Ev(ptr noundef nonnull align 8 dereferenceable(32) %ref.tmp) #3
  %5 = load i64, ptr %slice_length, align 8
  %6 = load i64, ptr %trailing, align 8
  %cmp4 = icmp ugt i64 %5, %6
  br i1 %cmp4, label %if.then, label %if.else

if.then:                                          ; preds = %invoke.cont
  %7 = load i64, ptr %slice_length, align 8
  %8 = load i64, ptr %trailing, align 8
  %sub5 = sub i64 %7, %8
  %out_offset_6 = getelementptr inbounds %"class.grpc_event_engine::experimental::TcpZerocopySendRecord", ptr %this1, i32 0, i32 2
  %byte_idx = getelementptr inbounds %"struct.grpc_event_engine::experimental::TcpZerocopySendRecord::OutgoingOffset", ptr %out_offset_6, i32 0, i32 1
  store i64 %sub5, ptr %byte_idx, align 8
  br label %while.end

lpad:                                             ; preds = %while.body
  %9 = landingpad { ptr, i32 }
          cleanup
  %10 = extractvalue { ptr, i32 } %9, 0
  store ptr %10, ptr %exn.slot, align 8
  %11 = extractvalue { ptr, i32 } %9, 1
  store i32 %11, ptr %ehselector.slot, align 4
  call void @_ZN17grpc_event_engine12experimental5SliceD1Ev(ptr noundef nonnull align 8 dereferenceable(32) %ref.tmp) #3
  br label %eh.resume

if.else:                                          ; preds = %invoke.cont
  %12 = load i64, ptr %slice_length, align 8
  %13 = load i64, ptr %trailing, align 8
  %sub7 = sub i64 %13, %12
  store i64 %sub7, ptr %trailing, align 8
  br label %if.end

if.end:                                           ; preds = %if.else
  br label %while.cond, !llvm.loop !6

while.end:                                        ; preds = %if.then, %while.cond
  ret void

eh.resume:                                        ; preds = %lpad
  %exn = load ptr, ptr %exn.slot, align 8
  %sel = load i32, ptr %ehselector.slot, align 4
  %lpad.val = insertvalue { ptr, i32 } poison, ptr %exn, 0
  %lpad.val8 = insertvalue { ptr, i32 } %lpad.val, i32 %sel, 1
  resume { ptr, i32 } %lpad.val8
}

declare void @_ZN17grpc_event_engine12experimental11SliceBuffer8RefSliceEm(ptr sret(%"class.grpc_event_engine::experimental::Slice") align 8, ptr noundef nonnull align 8 dereferenceable(264), i64 noundef) #1

declare i32 @__gxx_personality_v0(...)

; Function Attrs: nounwind
declare void @_ZN17grpc_event_engine12experimental5SliceD1Ev(ptr noundef nonnull align 8 dereferenceable(32)) unnamed_addr #2

; Function Attrs: mustprogress nounwind uwtable
define void @_ZN17grpc_event_engine12experimental17PosixEndpointImpl13AddToEstimateEm(ptr noundef nonnull align 16 dereferenceable(936) %this, i64 noundef %bytes) #5 align 2 {
entry:
  %this.addr = alloca ptr, align 8
  %bytes.addr = alloca i64, align 8
  store ptr %this, ptr %this.addr, align 8
  store i64 %bytes, ptr %bytes.addr, align 8
  %this1 = load ptr, ptr %this.addr, align 8
  %0 = load i64, ptr %bytes.addr, align 8
  %conv = uitofp i64 %0 to double
  %bytes_read_this_round_ = getelementptr inbounds %"class.grpc_event_engine::experimental::PosixEndpointImpl", ptr %this1, i32 0, i32 10
  %1 = load double, ptr %bytes_read_this_round_, align 16
  %add = fadd double %1, %conv
  store double %add, ptr %bytes_read_this_round_, align 16
  ret void
}

; Function Attrs: mustprogress uwtable
define void @_ZN17grpc_event_engine12experimental17PosixEndpointImpl14FinishEstimateEv(ptr noundef nonnull align 16 dereferenceable(936) %this) #4 align 2 {
entry:
  %this.addr = alloca ptr, align 8
  %ref.tmp = alloca double, align 8
  store ptr %this, ptr %this.addr, align 8
  %this1 = load ptr, ptr %this.addr, align 8
  %bytes_read_this_round_ = getelementptr inbounds %"class.grpc_event_engine::experimental::PosixEndpointImpl", ptr %this1, i32 0, i32 10
  %0 = load double, ptr %bytes_read_this_round_, align 16
  %target_length_ = getelementptr inbounds %"class.grpc_event_engine::experimental::PosixEndpointImpl", ptr %this1, i32 0, i32 6
  %1 = load double, ptr %target_length_, align 8
  %mul = fmul double %1, 8.000000e-01
  %cmp = fcmp ogt double %0, %mul
  br i1 %cmp, label %if.then, label %if.else

if.then:                                          ; preds = %entry
  %target_length_2 = getelementptr inbounds %"class.grpc_event_engine::experimental::PosixEndpointImpl", ptr %this1, i32 0, i32 6
  %2 = load double, ptr %target_length_2, align 8
  %mul3 = fmul double 2.000000e+00, %2
  store double %mul3, ptr %ref.tmp, align 8
  %bytes_read_this_round_4 = getelementptr inbounds %"class.grpc_event_engine::experimental::PosixEndpointImpl", ptr %this1, i32 0, i32 10
  %call = call noundef nonnull align 8 dereferenceable(8) ptr @_ZSt3maxIdERKT_S2_S2_(ptr noundef nonnull align 8 dereferenceable(8) %ref.tmp, ptr noundef nonnull align 8 dereferenceable(8) %bytes_read_this_round_4)
  %3 = load double, ptr %call, align 8
  %target_length_5 = getelementptr inbounds %"class.grpc_event_engine::experimental::PosixEndpointImpl", ptr %this1, i32 0, i32 6
  store double %3, ptr %target_length_5, align 8
  br label %if.end

if.else:                                          ; preds = %entry
  %target_length_6 = getelementptr inbounds %"class.grpc_event_engine::experimental::PosixEndpointImpl", ptr %this1, i32 0, i32 6
  %4 = load double, ptr %target_length_6, align 8
  %bytes_read_this_round_8 = getelementptr inbounds %"class.grpc_event_engine::experimental::PosixEndpointImpl", ptr %this1, i32 0, i32 10
  %5 = load double, ptr %bytes_read_this_round_8, align 16
  %mul9 = fmul double 1.000000e-02, %5
  %6 = call double @llvm.fmuladd.f64(double 0x3FEFAE147AE147AE, double %4, double %mul9)
  %target_length_10 = getelementptr inbounds %"class.grpc_event_engine::experimental::PosixEndpointImpl", ptr %this1, i32 0, i32 6
  store double %6, ptr %target_length_10, align 8
  br label %if.end

if.end:                                           ; preds = %if.else, %if.then
  %bytes_read_this_round_11 = getelementptr inbounds %"class.grpc_event_engine::experimental::PosixEndpointImpl", ptr %this1, i32 0, i32 10
  store double 0.000000e+00, ptr %bytes_read_this_round_11, align 16
  ret void
}

; Function Attrs: mustprogress nounwind uwtable
define linkonce_odr noundef nonnull align 8 dereferenceable(8) ptr @_ZSt3maxIdERKT_S2_S2_(ptr noundef nonnull align 8 dereferenceable(8) %__a, ptr noundef nonnull align 8 dereferenceable(8) %__b) #5 comdat {
entry:
  %retval = alloca ptr, align 8
  %__a.addr = alloca ptr, align 8
  %__b.addr = alloca ptr, align 8
  store ptr %__a, ptr %__a.addr, align 8
  store ptr %__b, ptr %__b.addr, align 8
  %0 = load ptr, ptr %__a.addr, align 8
  %1 = load double, ptr %0, align 8
  %2 = load ptr, ptr %__b.addr, align 8
  %3 = load double, ptr %2, align 8
  %cmp = fcmp olt double %1, %3
  br i1 %cmp, label %if.then, label %if.end

if.then:                                          ; preds = %entry
  %4 = load ptr, ptr %__b.addr, align 8
  store ptr %4, ptr %retval, align 8
  br label %return

if.end:                                           ; preds = %entry
  %5 = load ptr, ptr %__a.addr, align 8
  store ptr %5, ptr %retval, align 8
  br label %return

return:                                           ; preds = %if.end, %if.then
  %6 = load ptr, ptr %retval, align 8
  ret ptr %6
}

; Function Attrs: nocallback nofree nosync nounwind speculatable willreturn memory(none)
declare double @llvm.fmuladd.f64(double, double, double) #6

; Function Attrs: mustprogress uwtable
define void @_ZN17grpc_event_engine12experimental17PosixEndpointImpl16TcpAnnotateErrorEN4absl12lts_202308026StatusE(ptr noalias sret(%"class.absl::lts_20230802::Status") align 8 %agg.result, ptr noundef nonnull align 16 dereferenceable(936) %this, ptr noundef %src_error) #4 align 2 personality ptr @__gxx_personality_v0 {
entry:
  %result.ptr = alloca ptr, align 8
  %this.addr = alloca ptr, align 8
  %src_error.indirect_addr = alloca ptr, align 8
  %peer_string = alloca %"class.absl::lts_20230802::StatusOr", align 8
  %agg.tmp = alloca %"class.std::basic_string_view", align 8
  %ref.tmp = alloca %"class.std::__cxx11::basic_string", align 8
  %exn.slot = alloca ptr, align 8
  %ehselector.slot = alloca i32, align 4
  %ref.tmp5 = alloca %"class.std::allocator", align 1
  %cleanup.cond = alloca i1, align 1
  store ptr %agg.result, ptr %result.ptr, align 8
  store ptr %this, ptr %this.addr, align 8
  store ptr %src_error, ptr %src_error.indirect_addr, align 8
  %this1 = load ptr, ptr %this.addr, align 8
  %peer_address_ = getelementptr inbounds %"class.grpc_event_engine::experimental::PosixEndpointImpl", ptr %this1, i32 0, i32 25
  call void @_ZN17grpc_event_engine12experimental33ResolvedAddressToNormalizedStringB5cxx11ERKNS0_11EventEngine15ResolvedAddressE(ptr sret(%"class.absl::lts_20230802::StatusOr") align 8 %peer_string, ptr noundef nonnull align 4 dereferenceable(132) %peer_address_)
  store i1 false, ptr %cleanup.cond, align 1
  %call = invoke noundef zeroext i1 @_ZNK4absl12lts_202308028StatusOrINSt7__cxx1112basic_stringIcSt11char_traitsIcESaIcEEEE2okEv(ptr noundef nonnull align 8 dereferenceable(40) %peer_string)
          to label %invoke.cont unwind label %lpad

invoke.cont:                                      ; preds = %entry
  br i1 %call, label %cond.true, label %cond.false

cond.true:                                        ; preds = %invoke.cont
  %call3 = invoke noundef nonnull align 8 dereferenceable(32) ptr @_ZNR4absl12lts_202308028StatusOrINSt7__cxx1112basic_stringIcSt11char_traitsIcESaIcEEEEdeEv(ptr noundef nonnull align 8 dereferenceable(40) %peer_string)
          to label %invoke.cont2 unwind label %lpad

invoke.cont2:                                     ; preds = %cond.true
  invoke void @_ZNSt7__cxx1112basic_stringIcSt11char_traitsIcESaIcEEC1ERKS4_(ptr noundef nonnull align 8 dereferenceable(32) %ref.tmp, ptr noundef nonnull align 8 dereferenceable(32) %call3)
          to label %invoke.cont4 unwind label %lpad

invoke.cont4:                                     ; preds = %invoke.cont2
  br label %cond.end

cond.false:                                       ; preds = %invoke.cont
  call void @_ZNSaIcEC1Ev(ptr noundef nonnull align 1 dereferenceable(1) %ref.tmp5) #3
  store i1 true, ptr %cleanup.cond, align 1
  invoke void @_ZNSt7__cxx1112basic_stringIcSt11char_traitsIcESaIcEEC2IS3_EEPKcRKS3_(ptr noundef nonnull align 8 dereferenceable(32) %ref.tmp, ptr noundef @.str, ptr noundef nonnull align 1 dereferenceable(1) %ref.tmp5)
          to label %invoke.cont7 unwind label %lpad6

invoke.cont7:                                     ; preds = %cond.false
  br label %cond.end

cond.end:                                         ; preds = %invoke.cont7, %invoke.cont4
  %call8 = call { i64, ptr } @_ZNKSt7__cxx1112basic_stringIcSt11char_traitsIcESaIcEEcvSt17basic_string_viewIcS2_EEv(ptr noundef nonnull align 8 dereferenceable(32) %ref.tmp) #3
  %0 = getelementptr inbounds { i64, ptr }, ptr %agg.tmp, i32 0, i32 0
  %1 = extractvalue { i64, ptr } %call8, 0
  store i64 %1, ptr %0, align 8
  %2 = getelementptr inbounds { i64, ptr }, ptr %agg.tmp, i32 0, i32 1
  %3 = extractvalue { i64, ptr } %call8, 1
  store ptr %3, ptr %2, align 8
  %4 = getelementptr inbounds { i64, ptr }, ptr %agg.tmp, i32 0, i32 0
  %5 = load i64, ptr %4, align 8
  %6 = getelementptr inbounds { i64, ptr }, ptr %agg.tmp, i32 0, i32 1
  %7 = load ptr, ptr %6, align 8
  invoke void @_ZN9grpc_core12StatusSetStrEPN4absl12lts_202308026StatusENS_17StatusStrPropertyESt17basic_string_viewIcSt11char_traitsIcEE(ptr noundef %src_error, i32 noundef 4, i64 %5, ptr %7)
          to label %invoke.cont10 unwind label %lpad9

invoke.cont10:                                    ; preds = %cond.end
  call void @_ZNSt7__cxx1112basic_stringIcSt11char_traitsIcESaIcEED1Ev(ptr noundef nonnull align 8 dereferenceable(32) %ref.tmp) #3
  %cleanup.is_active = load i1, ptr %cleanup.cond, align 1
  br i1 %cleanup.is_active, label %cleanup.action, label %cleanup.done

cleanup.action:                                   ; preds = %invoke.cont10
  call void @_ZNSaIcED1Ev(ptr noundef nonnull align 1 dereferenceable(1) %ref.tmp5) #3
  br label %cleanup.done

cleanup.done:                                     ; preds = %cleanup.action, %invoke.cont10
  %handle_ = getelementptr inbounds %"class.grpc_event_engine::experimental::PosixEndpointImpl", ptr %this1, i32 0, i32 41
  %8 = load ptr, ptr %handle_, align 8
  %vtable = load ptr, ptr %8, align 8
  %vfn = getelementptr inbounds ptr, ptr %vtable, i64 0
  %9 = load ptr, ptr %vfn, align 8
  %call15 = invoke noundef i32 %9(ptr noundef nonnull align 8 dereferenceable(8) %8)
          to label %invoke.cont14 unwind label %lpad

invoke.cont14:                                    ; preds = %cleanup.done
  %conv = sext i32 %call15 to i64
  invoke void @_ZN9grpc_core12StatusSetIntEPN4absl12lts_202308026StatusENS_17StatusIntPropertyEl(ptr noundef %src_error, i32 noundef 10, i64 noundef %conv)
          to label %invoke.cont16 unwind label %lpad

invoke.cont16:                                    ; preds = %invoke.cont14
  invoke void @_ZN9grpc_core12StatusSetIntEPN4absl12lts_202308026StatusENS_17StatusIntPropertyEl(ptr noundef %src_error, i32 noundef 3, i64 noundef 14)
          to label %invoke.cont17 unwind label %lpad

invoke.cont17:                                    ; preds = %invoke.cont16
  call void @_ZN4absl12lts_202308026StatusC2EOS1_(ptr noundef nonnull align 8 dereferenceable(8) %agg.result, ptr noundef nonnull align 8 dereferenceable(8) %src_error) #3
  call void @_ZN4absl12lts_202308028StatusOrINSt7__cxx1112basic_stringIcSt11char_traitsIcESaIcEEEED2Ev(ptr noundef nonnull align 8 dereferenceable(40) %peer_string) #3
  ret void

lpad:                                             ; preds = %invoke.cont16, %invoke.cont14, %cleanup.done, %invoke.cont2, %cond.true, %entry
  %10 = landingpad { ptr, i32 }
          cleanup
  %11 = extractvalue { ptr, i32 } %10, 0
  store ptr %11, ptr %exn.slot, align 8
  %12 = extractvalue { ptr, i32 } %10, 1
  store i32 %12, ptr %ehselector.slot, align 4
  br label %ehcleanup18

lpad6:                                            ; preds = %cond.false
  %13 = landingpad { ptr, i32 }
          cleanup
  %14 = extractvalue { ptr, i32 } %13, 0
  store ptr %14, ptr %exn.slot, align 8
  %15 = extractvalue { ptr, i32 } %13, 1
  store i32 %15, ptr %ehselector.slot, align 4
  br label %ehcleanup

lpad9:                                            ; preds = %cond.end
  %16 = landingpad { ptr, i32 }
          cleanup
  %17 = extractvalue { ptr, i32 } %16, 0
  store ptr %17, ptr %exn.slot, align 8
  %18 = extractvalue { ptr, i32 } %16, 1
  store i32 %18, ptr %ehselector.slot, align 4
  call void @_ZNSt7__cxx1112basic_stringIcSt11char_traitsIcESaIcEED1Ev(ptr noundef nonnull align 8 dereferenceable(32) %ref.tmp) #3
  br label %ehcleanup

ehcleanup:                                        ; preds = %lpad9, %lpad6
  %cleanup.is_active11 = load i1, ptr %cleanup.cond, align 1
  br i1 %cleanup.is_active11, label %cleanup.action12, label %cleanup.done13

cleanup.action12:                                 ; preds = %ehcleanup
  call void @_ZNSaIcED1Ev(ptr noundef nonnull align 1 dereferenceable(1) %ref.tmp5) #3
  br label %cleanup.done13

cleanup.done13:                                   ; preds = %cleanup.action12, %ehcleanup
  br label %ehcleanup18

ehcleanup18:                                      ; preds = %cleanup.done13, %lpad
  call void @_ZN4absl12lts_202308028StatusOrINSt7__cxx1112basic_stringIcSt11char_traitsIcESaIcEEEED2Ev(ptr noundef nonnull align 8 dereferenceable(40) %peer_string) #3
  br label %eh.resume

eh.resume:                                        ; preds = %ehcleanup18
  %exn = load ptr, ptr %exn.slot, align 8
  %sel = load i32, ptr %ehselector.slot, align 4
  %lpad.val = insertvalue { ptr, i32 } poison, ptr %exn, 0
  %lpad.val19 = insertvalue { ptr, i32 } %lpad.val, i32 %sel, 1
  resume { ptr, i32 } %lpad.val19
}

declare void @_ZN17grpc_event_engine12experimental33ResolvedAddressToNormalizedStringB5cxx11ERKNS0_11EventEngine15ResolvedAddressE(ptr sret(%"class.absl::lts_20230802::StatusOr") align 8, ptr noundef nonnull align 4 dereferenceable(132)) #1

declare void @_ZN9grpc_core12StatusSetStrEPN4absl12lts_202308026StatusENS_17StatusStrPropertyESt17basic_string_viewIcSt11char_traitsIcEE(ptr noundef, i32 noundef, i64, ptr) #1

; Function Attrs: mustprogress nounwind uwtable
define linkonce_odr noundef zeroext i1 @_ZNK4absl12lts_202308028StatusOrINSt7__cxx1112basic_stringIcSt11char_traitsIcESaIcEEEE2okEv(ptr noundef nonnull align 8 dereferenceable(40) %this) #5 comdat align 2 {
entry:
  %this.addr = alloca ptr, align 8
  store ptr %this, ptr %this.addr, align 8
  %this1 = load ptr, ptr %this.addr, align 8
  %0 = getelementptr inbounds %"class.absl::lts_20230802::internal_statusor::StatusOrData", ptr %this1, i32 0, i32 0
  %call = call noundef zeroext i1 @_ZNK4absl12lts_202308026Status2okEv(ptr noundef nonnull align 8 dereferenceable(8) %0)
  ret i1 %call
}

; Function Attrs: mustprogress uwtable
define linkonce_odr noundef nonnull align 8 dereferenceable(32) ptr @_ZNR4absl12lts_202308028StatusOrINSt7__cxx1112basic_stringIcSt11char_traitsIcESaIcEEEEdeEv(ptr noundef nonnull align 8 dereferenceable(40) %this) #4 comdat align 2 {
entry:
  %this.addr = alloca ptr, align 8
  store ptr %this, ptr %this.addr, align 8
  %this1 = load ptr, ptr %this.addr, align 8
  call void @_ZNK4absl12lts_2023080217internal_statusor12StatusOrDataINSt7__cxx1112basic_stringIcSt11char_traitsIcESaIcEEEE8EnsureOkEv(ptr noundef nonnull align 8 dereferenceable(40) %this1)
  %0 = getelementptr inbounds %"class.absl::lts_20230802::internal_statusor::StatusOrData", ptr %this1, i32 0, i32 1
  ret ptr %0
}

declare void @_ZNSt7__cxx1112basic_stringIcSt11char_traitsIcESaIcEEC1ERKS4_(ptr noundef nonnull align 8 dereferenceable(32), ptr noundef nonnull align 8 dereferenceable(32)) unnamed_addr #1

; Function Attrs: nounwind
declare void @_ZNSaIcEC1Ev(ptr noundef nonnull align 1 dereferenceable(1)) unnamed_addr #2

; Function Attrs: mustprogress uwtable
define linkonce_odr void @_ZNSt7__cxx1112basic_stringIcSt11char_traitsIcESaIcEEC2IS3_EEPKcRKS3_(ptr noundef nonnull align 8 dereferenceable(32) %this, ptr noundef %__s, ptr noundef nonnull align 1 dereferenceable(1) %__a) unnamed_addr #4 comdat align 2 personality ptr @__gxx_personality_v0 {
entry:
  %this.addr = alloca ptr, align 8
  %__s.addr = alloca ptr, align 8
  %__a.addr = alloca ptr, align 8
  %exn.slot = alloca ptr, align 8
  %ehselector.slot = alloca i32, align 4
  %__end = alloca ptr, align 8
  store ptr %this, ptr %this.addr, align 8
  store ptr %__s, ptr %__s.addr, align 8
  store ptr %__a, ptr %__a.addr, align 8
  %this1 = load ptr, ptr %this.addr, align 8
  %_M_dataplus = getelementptr inbounds %"class.std::__cxx11::basic_string", ptr %this1, i32 0, i32 0
  %call = call noundef ptr @_ZNSt7__cxx1112basic_stringIcSt11char_traitsIcESaIcEE13_M_local_dataEv(ptr noundef nonnull align 8 dereferenceable(32) %this1)
  %0 = load ptr, ptr %__a.addr, align 8
  call void @_ZNSt7__cxx1112basic_stringIcSt11char_traitsIcESaIcEE12_Alloc_hiderC1EPcRKS3_(ptr noundef nonnull align 8 dereferenceable(8) %_M_dataplus, ptr noundef %call, ptr noundef nonnull align 1 dereferenceable(1) %0)
  %1 = load ptr, ptr %__s.addr, align 8
  %cmp = icmp eq ptr %1, null
  br i1 %cmp, label %if.then, label %if.end

if.then:                                          ; preds = %entry
  invoke void @_ZSt19__throw_logic_errorPKc(ptr noundef @.str.40) #22
          to label %invoke.cont unwind label %lpad

invoke.cont:                                      ; preds = %if.then
  unreachable

lpad:                                             ; preds = %if.end, %if.then
  %2 = landingpad { ptr, i32 }
          cleanup
  %3 = extractvalue { ptr, i32 } %2, 0
  store ptr %3, ptr %exn.slot, align 8
  %4 = extractvalue { ptr, i32 } %2, 1
  store i32 %4, ptr %ehselector.slot, align 4
  call void @_ZNSt7__cxx1112basic_stringIcSt11char_traitsIcESaIcEE12_Alloc_hiderD2Ev(ptr noundef nonnull align 8 dereferenceable(8) %_M_dataplus) #3
  br label %eh.resume

if.end:                                           ; preds = %entry
  %5 = load ptr, ptr %__s.addr, align 8
  %6 = load ptr, ptr %__s.addr, align 8
  %call2 = call noundef i64 @_ZNSt11char_traitsIcE6lengthEPKc(ptr noundef %6)
  %add.ptr = getelementptr inbounds i8, ptr %5, i64 %call2
  store ptr %add.ptr, ptr %__end, align 8
  %7 = load ptr, ptr %__s.addr, align 8
  %8 = load ptr, ptr %__end, align 8
  invoke void @_ZNSt7__cxx1112basic_stringIcSt11char_traitsIcESaIcEE12_M_constructIPKcEEvT_S8_St20forward_iterator_tag(ptr noundef nonnull align 8 dereferenceable(32) %this1, ptr noundef %7, ptr noundef %8)
          to label %invoke.cont3 unwind label %lpad

invoke.cont3:                                     ; preds = %if.end
  ret void

eh.resume:                                        ; preds = %lpad
  %exn = load ptr, ptr %exn.slot, align 8
  %sel = load i32, ptr %ehselector.slot, align 4
  %lpad.val = insertvalue { ptr, i32 } poison, ptr %exn, 0
  %lpad.val4 = insertvalue { ptr, i32 } %lpad.val, i32 %sel, 1
  resume { ptr, i32 } %lpad.val4
}

; Function Attrs: nounwind
declare { i64, ptr } @_ZNKSt7__cxx1112basic_stringIcSt11char_traitsIcESaIcEEcvSt17basic_string_viewIcS2_EEv(ptr noundef nonnull align 8 dereferenceable(32)) #2

; Function Attrs: nounwind
declare void @_ZNSt7__cxx1112basic_stringIcSt11char_traitsIcESaIcEED1Ev(ptr noundef nonnull align 8 dereferenceable(32)) unnamed_addr #2

; Function Attrs: nounwind
declare void @_ZNSaIcED1Ev(ptr noundef nonnull align 1 dereferenceable(1)) unnamed_addr #2

declare void @_ZN9grpc_core12StatusSetIntEPN4absl12lts_202308026StatusENS_17StatusIntPropertyEl(ptr noundef, i32 noundef, i64 noundef) #1

; Function Attrs: mustprogress nounwind uwtable
define linkonce_odr void @_ZN4absl12lts_202308026StatusC2EOS1_(ptr noundef nonnull align 8 dereferenceable(8) %this, ptr noundef nonnull align 8 dereferenceable(8) %x) unnamed_addr #5 comdat align 2 personality ptr @__gxx_personality_v0 {
entry:
  %this.addr = alloca ptr, align 8
  %x.addr = alloca ptr, align 8
  store ptr %this, ptr %this.addr, align 8
  store ptr %x, ptr %x.addr, align 8
  %this1 = load ptr, ptr %this.addr, align 8
  %rep_ = getelementptr inbounds %"class.absl::lts_20230802::Status", ptr %this1, i32 0, i32 0
  %0 = load ptr, ptr %x.addr, align 8
  %rep_2 = getelementptr inbounds %"class.absl::lts_20230802::Status", ptr %0, i32 0, i32 0
  %1 = load i64, ptr %rep_2, align 8
  store i64 %1, ptr %rep_, align 8
  %call = invoke noundef i64 @_ZN4absl12lts_202308026Status12MovedFromRepEv()
          to label %invoke.cont unwind label %terminate.lpad

invoke.cont:                                      ; preds = %entry
  %2 = load ptr, ptr %x.addr, align 8
  %rep_3 = getelementptr inbounds %"class.absl::lts_20230802::Status", ptr %2, i32 0, i32 0
  store i64 %call, ptr %rep_3, align 8
  ret void

terminate.lpad:                                   ; preds = %entry
  %3 = landingpad { ptr, i32 }
          catch ptr null
  %4 = extractvalue { ptr, i32 } %3, 0
  call void @__clang_call_terminate(ptr %4) #23
  unreachable
}

; Function Attrs: mustprogress nounwind uwtable
define linkonce_odr void @_ZN4absl12lts_202308028StatusOrINSt7__cxx1112basic_stringIcSt11char_traitsIcESaIcEEEED2Ev(ptr noundef nonnull align 8 dereferenceable(40) %this) unnamed_addr #5 comdat align 2 {
entry:
  %this.addr = alloca ptr, align 8
  store ptr %this, ptr %this.addr, align 8
  %this1 = load ptr, ptr %this.addr, align 8
  call void @_ZN4absl12lts_2023080217internal_statusor12StatusOrDataINSt7__cxx1112basic_stringIcSt11char_traitsIcESaIcEEEED2Ev(ptr noundef nonnull align 8 dereferenceable(40) %this1) #3
  ret void
}

; Function Attrs: mustprogress uwtable
define noundef zeroext i1 @_ZN17grpc_event_engine12experimental17PosixEndpointImpl9TcpDoReadERN4absl12lts_202308026StatusE(ptr noundef nonnull align 16 dereferenceable(936) %this, ptr noundef nonnull align 8 dereferenceable(8) %status) #4 align 2 personality ptr @__gxx_personality_v0 {
entry:
  %retval = alloca i1, align 1
  %this.addr = alloca ptr, align 8
  %status.addr = alloca ptr, align 8
  %msg = alloca %struct.msghdr, align 8
  %iov = alloca [64 x %struct.iovec], align 16
  %read_bytes = alloca i64, align 8
  %total_read_bytes = alloca i64, align 8
  %iov_len = alloca i64, align 8
  %ref.tmp = alloca i64, align 8
  %ref.tmp2 = alloca i64, align 8
  %cmsg_alloc_space = alloca i64, align 8
  %cmsgbuf = alloca [88 x i8], align 16
  %i = alloca i64, align 8
  %slice = alloca ptr, align 8
  %ref.tmp46 = alloca %"class.absl::lts_20230802::Status", align 8
  %agg.tmp47 = alloca %"class.absl::lts_20230802::Status", align 8
  %agg.tmp48 = alloca %"class.std::basic_string_view", align 8
  %exn.slot = alloca ptr, align 8
  %ehselector.slot = alloca i32, align 4
  %ref.tmp53 = alloca %"class.absl::lts_20230802::Status", align 8
  %agg.tmp54 = alloca %"class.absl::lts_20230802::Status", align 8
  %agg.tmp55 = alloca %"class.std::basic_string_view", align 8
  %ref.tmp56 = alloca %"class.std::__cxx11::basic_string", align 8
  %ref.tmp57 = alloca %"class.absl::lts_20230802::AlphaNum", align 8
  %ref.tmp58 = alloca %"class.absl::lts_20230802::AlphaNum", align 8
  %ref.tmp59 = alloca %"class.std::__cxx11::basic_string", align 8
  %cmsg = alloca ptr, align 8
  %remaining = alloca i64, align 8
  %j = alloca i64, align 8
  %i107 = alloca i64, align 8
  %ref.tmp149 = alloca %"class.absl::lts_20230802::Status", align 8
  store ptr %this, ptr %this.addr, align 8
  store ptr %status, ptr %status.addr, align 8
  %this1 = load ptr, ptr %this.addr, align 8
  store i64 0, ptr %total_read_bytes, align 8
  store i64 64, ptr %ref.tmp, align 8
  %incoming_buffer_ = getelementptr inbounds %"class.grpc_event_engine::experimental::PosixEndpointImpl", ptr %this1, i32 0, i32 13
  %0 = load ptr, ptr %incoming_buffer_, align 8
  %call = call noundef i64 @_ZN17grpc_event_engine12experimental11SliceBuffer5CountEv(ptr noundef nonnull align 8 dereferenceable(264) %0)
  store i64 %call, ptr %ref.tmp2, align 8
  %call3 = call noundef nonnull align 8 dereferenceable(8) ptr @_ZSt3minImERKT_S2_S2_(ptr noundef nonnull align 8 dereferenceable(8) %ref.tmp, ptr noundef nonnull align 8 dereferenceable(8) %ref.tmp2)
  %1 = load i64, ptr %call3, align 8
  store i64 %1, ptr %iov_len, align 8
  store i64 88, ptr %cmsg_alloc_space, align 8
  store i64 0, ptr %i, align 8
  br label %for.cond

for.cond:                                         ; preds = %for.inc, %entry
  %2 = load i64, ptr %i, align 8
  %3 = load i64, ptr %iov_len, align 8
  %cmp = icmp ult i64 %2, %3
  br i1 %cmp, label %for.body, label %for.end

for.body:                                         ; preds = %for.cond
  %incoming_buffer_4 = getelementptr inbounds %"class.grpc_event_engine::experimental::PosixEndpointImpl", ptr %this1, i32 0, i32 13
  %4 = load ptr, ptr %incoming_buffer_4, align 8
  %5 = load i64, ptr %i, align 8
  %call5 = call noundef nonnull align 8 dereferenceable(32) ptr @_ZNK17grpc_event_engine12experimental11SliceBuffer14MutableSliceAtEm(ptr noundef nonnull align 8 dereferenceable(264) %4, i64 noundef %5)
  %call6 = call noundef nonnull align 8 dereferenceable(32) ptr @_ZN17grpc_event_engine12experimental8internal9SliceCastINS0_12MutableSliceENS0_5SliceEEERT_RT0_NS1_13SliceCastableIS5_S7_EE(ptr noundef nonnull align 8 dereferenceable(32) %call5)
  store ptr %call6, ptr %slice, align 8
  %6 = load ptr, ptr %slice, align 8
  %call7 = call noundef ptr @_ZN17grpc_event_engine12experimental12MutableSlice5beginEv(ptr noundef nonnull align 8 dereferenceable(32) %6)
  %7 = load i64, ptr %i, align 8
  %arrayidx = getelementptr inbounds [64 x %struct.iovec], ptr %iov, i64 0, i64 %7
  %iov_base = getelementptr inbounds %struct.iovec, ptr %arrayidx, i32 0, i32 0
  store ptr %call7, ptr %iov_base, align 16
  %8 = load ptr, ptr %slice, align 8
  %call8 = call noundef i64 @_ZNK17grpc_event_engine12experimental12slice_detail9BaseSlice6lengthEv(ptr noundef nonnull align 8 dereferenceable(32) %8)
  %9 = load i64, ptr %i, align 8
  %arrayidx9 = getelementptr inbounds [64 x %struct.iovec], ptr %iov, i64 0, i64 %9
  %iov_len10 = getelementptr inbounds %struct.iovec, ptr %arrayidx9, i32 0, i32 1
  store i64 %call8, ptr %iov_len10, align 8
  br label %for.inc

for.inc:                                          ; preds = %for.body
  %10 = load i64, ptr %i, align 8
  %inc = add i64 %10, 1
  store i64 %inc, ptr %i, align 8
  br label %for.cond, !llvm.loop !7

for.end:                                          ; preds = %for.cond
  br label %do.body

do.body:                                          ; preds = %for.end
  %incoming_buffer_11 = getelementptr inbounds %"class.grpc_event_engine::experimental::PosixEndpointImpl", ptr %this1, i32 0, i32 13
  %11 = load ptr, ptr %incoming_buffer_11, align 8
  %call12 = call noundef i64 @_ZNK17grpc_event_engine12experimental11SliceBuffer6LengthEv(ptr noundef nonnull align 8 dereferenceable(264) %11)
  %cmp13 = icmp ne i64 %call12, 0
  %lnot = xor i1 %cmp13, true
  br i1 %lnot, label %if.then, label %if.end

if.then:                                          ; preds = %do.body
  call void @gpr_assertion_failed(ptr noundef @.str.1, i32 noundef 317, ptr noundef @.str.2) #22
  unreachable

if.end:                                           ; preds = %do.body
  br label %do.end

do.end:                                           ; preds = %if.end
  br label %do.body14

do.body14:                                        ; preds = %do.cond143, %do.end
  %inq_ = getelementptr inbounds %"class.grpc_event_engine::experimental::PosixEndpointImpl", ptr %this1, i32 0, i32 14
  store i32 1, ptr %inq_, align 16
  %msg_name = getelementptr inbounds %struct.msghdr, ptr %msg, i32 0, i32 0
  store ptr null, ptr %msg_name, align 8
  %msg_namelen = getelementptr inbounds %struct.msghdr, ptr %msg, i32 0, i32 1
  store i32 0, ptr %msg_namelen, align 8
  %arraydecay = getelementptr inbounds [64 x %struct.iovec], ptr %iov, i64 0, i64 0
  %msg_iov = getelementptr inbounds %struct.msghdr, ptr %msg, i32 0, i32 2
  store ptr %arraydecay, ptr %msg_iov, align 8
  %12 = load i64, ptr %iov_len, align 8
  %msg_iovlen = getelementptr inbounds %struct.msghdr, ptr %msg, i32 0, i32 3
  store i64 %12, ptr %msg_iovlen, align 8
  %inq_capable_ = getelementptr inbounds %"class.grpc_event_engine::experimental::PosixEndpointImpl", ptr %this1, i32 0, i32 15
  %13 = load i8, ptr %inq_capable_, align 4
  %tobool = trunc i8 %13 to i1
  br i1 %tobool, label %if.then15, label %if.else

if.then15:                                        ; preds = %do.body14
  %arraydecay16 = getelementptr inbounds [88 x i8], ptr %cmsgbuf, i64 0, i64 0
  %msg_control = getelementptr inbounds %struct.msghdr, ptr %msg, i32 0, i32 4
  store ptr %arraydecay16, ptr %msg_control, align 8
  %msg_controllen = getelementptr inbounds %struct.msghdr, ptr %msg, i32 0, i32 5
  store i64 88, ptr %msg_controllen, align 8
  br label %if.end19

if.else:                                          ; preds = %do.body14
  %msg_control17 = getelementptr inbounds %struct.msghdr, ptr %msg, i32 0, i32 4
  store ptr null, ptr %msg_control17, align 8
  %msg_controllen18 = getelementptr inbounds %struct.msghdr, ptr %msg, i32 0, i32 5
  store i64 0, ptr %msg_controllen18, align 8
  br label %if.end19

if.end19:                                         ; preds = %if.else, %if.then15
  %msg_flags = getelementptr inbounds %struct.msghdr, ptr %msg, i32 0, i32 6
  store i32 0, ptr %msg_flags, align 8
  br label %do.body20

do.body20:                                        ; preds = %land.end, %if.end19
  %fd_ = getelementptr inbounds %"class.grpc_event_engine::experimental::PosixEndpointImpl", ptr %this1, i32 0, i32 3
  %14 = load i32, ptr %fd_, align 4
  %call21 = call i64 @recvmsg(i32 noundef %14, ptr noundef %msg, i32 noundef 0)
  store i64 %call21, ptr %read_bytes, align 8
  br label %do.cond

do.cond:                                          ; preds = %do.body20
  %15 = load i64, ptr %read_bytes, align 8
  %cmp22 = icmp slt i64 %15, 0
  br i1 %cmp22, label %land.rhs, label %land.end

land.rhs:                                         ; preds = %do.cond
  %call23 = call ptr @__errno_location() #24
  %16 = load i32, ptr %call23, align 4
  %cmp24 = icmp eq i32 %16, 4
  br label %land.end

land.end:                                         ; preds = %land.rhs, %do.cond
  %17 = phi i1 [ false, %do.cond ], [ %cmp24, %land.rhs ]
  br i1 %17, label %do.body20, label %do.end25, !llvm.loop !8

do.end25:                                         ; preds = %land.end
  %18 = load i64, ptr %read_bytes, align 8
  %cmp26 = icmp slt i64 %18, 0
  br i1 %cmp26, label %land.lhs.true, label %if.end34

land.lhs.true:                                    ; preds = %do.end25
  %call27 = call ptr @__errno_location() #24
  %19 = load i32, ptr %call27, align 4
  %cmp28 = icmp eq i32 %19, 11
  br i1 %cmp28, label %if.then29, label %if.end34

if.then29:                                        ; preds = %land.lhs.true
  %20 = load i64, ptr %total_read_bytes, align 8
  %cmp30 = icmp ugt i64 %20, 0
  br i1 %cmp30, label %if.then31, label %if.end32

if.then31:                                        ; preds = %if.then29
  br label %do.end144

if.end32:                                         ; preds = %if.then29
  call void @_ZN17grpc_event_engine12experimental17PosixEndpointImpl14FinishEstimateEv(ptr noundef nonnull align 16 dereferenceable(936) %this1)
  %inq_33 = getelementptr inbounds %"class.grpc_event_engine::experimental::PosixEndpointImpl", ptr %this1, i32 0, i32 14
  store i32 0, ptr %inq_33, align 16
  store i1 false, ptr %retval, align 1
  br label %return

if.end34:                                         ; preds = %land.lhs.true, %do.end25
  %21 = load i64, ptr %read_bytes, align 8
  %cmp35 = icmp sle i64 %21, 0
  br i1 %cmp35, label %land.lhs.true36, label %if.end40

land.lhs.true36:                                  ; preds = %if.end34
  %22 = load i64, ptr %total_read_bytes, align 8
  %cmp37 = icmp uge i64 %22, 1
  br i1 %cmp37, label %if.then38, label %if.end40

if.then38:                                        ; preds = %land.lhs.true36
  %inq_39 = getelementptr inbounds %"class.grpc_event_engine::experimental::PosixEndpointImpl", ptr %this1, i32 0, i32 14
  store i32 1, ptr %inq_39, align 16
  br label %do.end144

if.end40:                                         ; preds = %land.lhs.true36, %if.end34
  %23 = load i64, ptr %read_bytes, align 8
  %cmp41 = icmp sle i64 %23, 0
  br i1 %cmp41, label %if.then42, label %if.end77

if.then42:                                        ; preds = %if.end40
  %incoming_buffer_43 = getelementptr inbounds %"class.grpc_event_engine::experimental::PosixEndpointImpl", ptr %this1, i32 0, i32 13
  %24 = load ptr, ptr %incoming_buffer_43, align 8
  call void @_ZN17grpc_event_engine12experimental11SliceBuffer5ClearEv(ptr noundef nonnull align 8 dereferenceable(264) %24)
  %25 = load i64, ptr %read_bytes, align 8
  %cmp44 = icmp eq i64 %25, 0
  br i1 %cmp44, label %if.then45, label %if.else52

if.then45:                                        ; preds = %if.then42
  call void @_ZNSt17basic_string_viewIcSt11char_traitsIcEEC2EPKc(ptr noundef nonnull align 8 dereferenceable(16) %agg.tmp48, ptr noundef @.str.3) #3
  %26 = getelementptr inbounds { i64, ptr }, ptr %agg.tmp48, i32 0, i32 0
  %27 = load i64, ptr %26, align 8
  %28 = getelementptr inbounds { i64, ptr }, ptr %agg.tmp48, i32 0, i32 1
  %29 = load ptr, ptr %28, align 8
  call void @_ZN4absl12lts_2023080213InternalErrorESt17basic_string_viewIcSt11char_traitsIcEE(ptr sret(%"class.absl::lts_20230802::Status") align 8 %agg.tmp47, i64 %27, ptr %29)
  invoke void @_ZN17grpc_event_engine12experimental17PosixEndpointImpl16TcpAnnotateErrorEN4absl12lts_202308026StatusE(ptr sret(%"class.absl::lts_20230802::Status") align 8 %ref.tmp46, ptr noundef nonnull align 16 dereferenceable(936) %this1, ptr noundef %agg.tmp47)
          to label %invoke.cont unwind label %lpad

invoke.cont:                                      ; preds = %if.then45
  %30 = load ptr, ptr %status.addr, align 8
  %call51 = invoke noundef nonnull align 8 dereferenceable(8) ptr @_ZN4absl12lts_202308026StatusaSEOS1_(ptr noundef nonnull align 8 dereferenceable(8) %30, ptr noundef nonnull align 8 dereferenceable(8) %ref.tmp46)
          to label %invoke.cont50 unwind label %lpad49

invoke.cont50:                                    ; preds = %invoke.cont
  call void @_ZN4absl12lts_202308026StatusD2Ev(ptr noundef nonnull align 8 dereferenceable(8) %ref.tmp46) #3
  call void @_ZN4absl12lts_202308026StatusD2Ev(ptr noundef nonnull align 8 dereferenceable(8) %agg.tmp47) #3
  br label %if.end76

lpad:                                             ; preds = %if.then45
  %31 = landingpad { ptr, i32 }
          cleanup
  %32 = extractvalue { ptr, i32 } %31, 0
  store ptr %32, ptr %exn.slot, align 8
  %33 = extractvalue { ptr, i32 } %31, 1
  store i32 %33, ptr %ehselector.slot, align 4
  br label %ehcleanup

lpad49:                                           ; preds = %invoke.cont
  %34 = landingpad { ptr, i32 }
          cleanup
  %35 = extractvalue { ptr, i32 } %34, 0
  store ptr %35, ptr %exn.slot, align 8
  %36 = extractvalue { ptr, i32 } %34, 1
  store i32 %36, ptr %ehselector.slot, align 4
  call void @_ZN4absl12lts_202308026StatusD2Ev(ptr noundef nonnull align 8 dereferenceable(8) %ref.tmp46) #3
  br label %ehcleanup

ehcleanup:                                        ; preds = %lpad49, %lpad
  call void @_ZN4absl12lts_202308026StatusD2Ev(ptr noundef nonnull align 8 dereferenceable(8) %agg.tmp47) #3
  br label %eh.resume

if.else52:                                        ; preds = %if.then42
  call void @_ZN4absl12lts_202308028AlphaNumC2EPKc(ptr noundef nonnull align 8 dereferenceable(48) %ref.tmp57, ptr noundef @.str.4)
  %call60 = call ptr @__errno_location() #24
  %37 = load i32, ptr %call60, align 4
  call void @_ZN9grpc_core8StrErrorB5cxx11Ei(ptr sret(%"class.std::__cxx11::basic_string") align 8 %ref.tmp59, i32 noundef %37)
  invoke void @_ZN4absl12lts_202308028AlphaNumC2ISaIcEEERKNSt7__cxx1112basic_stringIcSt11char_traitsIcET_EE(ptr noundef nonnull align 8 dereferenceable(48) %ref.tmp58, ptr noundef nonnull align 8 dereferenceable(32) %ref.tmp59)
          to label %invoke.cont62 unwind label %lpad61

invoke.cont62:                                    ; preds = %if.else52
  invoke void @_ZN4absl12lts_202308026StrCatB5cxx11ERKNS0_8AlphaNumES3_(ptr sret(%"class.std::__cxx11::basic_string") align 8 %ref.tmp56, ptr noundef nonnull align 8 dereferenceable(48) %ref.tmp57, ptr noundef nonnull align 8 dereferenceable(48) %ref.tmp58)
          to label %invoke.cont63 unwind label %lpad61

invoke.cont63:                                    ; preds = %invoke.cont62
  %call64 = call { i64, ptr } @_ZNKSt7__cxx1112basic_stringIcSt11char_traitsIcESaIcEEcvSt17basic_string_viewIcS2_EEv(ptr noundef nonnull align 8 dereferenceable(32) %ref.tmp56) #3
  %38 = getelementptr inbounds { i64, ptr }, ptr %agg.tmp55, i32 0, i32 0
  %39 = extractvalue { i64, ptr } %call64, 0
  store i64 %39, ptr %38, align 8
  %40 = getelementptr inbounds { i64, ptr }, ptr %agg.tmp55, i32 0, i32 1
  %41 = extractvalue { i64, ptr } %call64, 1
  store ptr %41, ptr %40, align 8
  %42 = getelementptr inbounds { i64, ptr }, ptr %agg.tmp55, i32 0, i32 0
  %43 = load i64, ptr %42, align 8
  %44 = getelementptr inbounds { i64, ptr }, ptr %agg.tmp55, i32 0, i32 1
  %45 = load ptr, ptr %44, align 8
  invoke void @_ZN4absl12lts_2023080213InternalErrorESt17basic_string_viewIcSt11char_traitsIcEE(ptr sret(%"class.absl::lts_20230802::Status") align 8 %agg.tmp54, i64 %43, ptr %45)
          to label %invoke.cont66 unwind label %lpad65

invoke.cont66:                                    ; preds = %invoke.cont63
  invoke void @_ZN17grpc_event_engine12experimental17PosixEndpointImpl16TcpAnnotateErrorEN4absl12lts_202308026StatusE(ptr sret(%"class.absl::lts_20230802::Status") align 8 %ref.tmp53, ptr noundef nonnull align 16 dereferenceable(936) %this1, ptr noundef %agg.tmp54)
          to label %invoke.cont68 unwind label %lpad67

invoke.cont68:                                    ; preds = %invoke.cont66
  %46 = load ptr, ptr %status.addr, align 8
  %call71 = invoke noundef nonnull align 8 dereferenceable(8) ptr @_ZN4absl12lts_202308026StatusaSEOS1_(ptr noundef nonnull align 8 dereferenceable(8) %46, ptr noundef nonnull align 8 dereferenceable(8) %ref.tmp53)
          to label %invoke.cont70 unwind label %lpad69

invoke.cont70:                                    ; preds = %invoke.cont68
  call void @_ZN4absl12lts_202308026StatusD2Ev(ptr noundef nonnull align 8 dereferenceable(8) %ref.tmp53) #3
  call void @_ZN4absl12lts_202308026StatusD2Ev(ptr noundef nonnull align 8 dereferenceable(8) %agg.tmp54) #3
  call void @_ZNSt7__cxx1112basic_stringIcSt11char_traitsIcESaIcEED1Ev(ptr noundef nonnull align 8 dereferenceable(32) %ref.tmp56) #3
  call void @_ZNSt7__cxx1112basic_stringIcSt11char_traitsIcESaIcEED1Ev(ptr noundef nonnull align 8 dereferenceable(32) %ref.tmp59) #3
  br label %if.end76

lpad61:                                           ; preds = %invoke.cont62, %if.else52
  %47 = landingpad { ptr, i32 }
          cleanup
  %48 = extractvalue { ptr, i32 } %47, 0
  store ptr %48, ptr %exn.slot, align 8
  %49 = extractvalue { ptr, i32 } %47, 1
  store i32 %49, ptr %ehselector.slot, align 4
  br label %ehcleanup75

lpad65:                                           ; preds = %invoke.cont63
  %50 = landingpad { ptr, i32 }
          cleanup
  %51 = extractvalue { ptr, i32 } %50, 0
  store ptr %51, ptr %exn.slot, align 8
  %52 = extractvalue { ptr, i32 } %50, 1
  store i32 %52, ptr %ehselector.slot, align 4
  br label %ehcleanup74

lpad67:                                           ; preds = %invoke.cont66
  %53 = landingpad { ptr, i32 }
          cleanup
  %54 = extractvalue { ptr, i32 } %53, 0
  store ptr %54, ptr %exn.slot, align 8
  %55 = extractvalue { ptr, i32 } %53, 1
  store i32 %55, ptr %ehselector.slot, align 4
  br label %ehcleanup73

lpad69:                                           ; preds = %invoke.cont68
  %56 = landingpad { ptr, i32 }
          cleanup
  %57 = extractvalue { ptr, i32 } %56, 0
  store ptr %57, ptr %exn.slot, align 8
  %58 = extractvalue { ptr, i32 } %56, 1
  store i32 %58, ptr %ehselector.slot, align 4
  call void @_ZN4absl12lts_202308026StatusD2Ev(ptr noundef nonnull align 8 dereferenceable(8) %ref.tmp53) #3
  br label %ehcleanup73

ehcleanup73:                                      ; preds = %lpad69, %lpad67
  call void @_ZN4absl12lts_202308026StatusD2Ev(ptr noundef nonnull align 8 dereferenceable(8) %agg.tmp54) #3
  br label %ehcleanup74

ehcleanup74:                                      ; preds = %ehcleanup73, %lpad65
  call void @_ZNSt7__cxx1112basic_stringIcSt11char_traitsIcESaIcEED1Ev(ptr noundef nonnull align 8 dereferenceable(32) %ref.tmp56) #3
  br label %ehcleanup75

ehcleanup75:                                      ; preds = %ehcleanup74, %lpad61
  call void @_ZNSt7__cxx1112basic_stringIcSt11char_traitsIcESaIcEED1Ev(ptr noundef nonnull align 8 dereferenceable(32) %ref.tmp59) #3
  br label %eh.resume

if.end76:                                         ; preds = %invoke.cont70, %invoke.cont50
  store i1 true, ptr %retval, align 1
  br label %return

if.end77:                                         ; preds = %if.end40
  %59 = load i64, ptr %read_bytes, align 8
  call void @_ZN17grpc_event_engine12experimental17PosixEndpointImpl13AddToEstimateEm(ptr noundef nonnull align 16 dereferenceable(936) %this1, i64 noundef %59)
  %inq_capable_78 = getelementptr inbounds %"class.grpc_event_engine::experimental::PosixEndpointImpl", ptr %this1, i32 0, i32 15
  %60 = load i8, ptr %inq_capable_78, align 4
  %tobool79 = trunc i8 %60 to i1
  br i1 %tobool79, label %if.then80, label %if.end99

if.then80:                                        ; preds = %if.end77
  %msg_controllen81 = getelementptr inbounds %struct.msghdr, ptr %msg, i32 0, i32 5
  %61 = load i64, ptr %msg_controllen81, align 8
  %cmp82 = icmp uge i64 %61, 16
  br i1 %cmp82, label %cond.true, label %cond.false

cond.true:                                        ; preds = %if.then80
  %msg_control83 = getelementptr inbounds %struct.msghdr, ptr %msg, i32 0, i32 4
  %62 = load ptr, ptr %msg_control83, align 8
  br label %cond.end

cond.false:                                       ; preds = %if.then80
  br label %cond.end

cond.end:                                         ; preds = %cond.false, %cond.true
  %cond = phi ptr [ %62, %cond.true ], [ null, %cond.false ]
  store ptr %cond, ptr %cmsg, align 8
  br label %for.cond84

for.cond84:                                       ; preds = %for.inc96, %cond.end
  %63 = load ptr, ptr %cmsg, align 8
  %cmp85 = icmp ne ptr %63, null
  br i1 %cmp85, label %for.body86, label %for.end98

for.body86:                                       ; preds = %for.cond84
  %64 = load ptr, ptr %cmsg, align 8
  %cmsg_level = getelementptr inbounds %struct.cmsghdr, ptr %64, i32 0, i32 1
  %65 = load i32, ptr %cmsg_level, align 8
  %cmp87 = icmp eq i32 %65, 6
  br i1 %cmp87, label %land.lhs.true88, label %if.end95

land.lhs.true88:                                  ; preds = %for.body86
  %66 = load ptr, ptr %cmsg, align 8
  %cmsg_type = getelementptr inbounds %struct.cmsghdr, ptr %66, i32 0, i32 2
  %67 = load i32, ptr %cmsg_type, align 4
  %cmp89 = icmp eq i32 %67, 36
  br i1 %cmp89, label %land.lhs.true90, label %if.end95

land.lhs.true90:                                  ; preds = %land.lhs.true88
  %68 = load ptr, ptr %cmsg, align 8
  %cmsg_len = getelementptr inbounds %struct.cmsghdr, ptr %68, i32 0, i32 0
  %69 = load i64, ptr %cmsg_len, align 8
  %cmp91 = icmp eq i64 %69, 20
  br i1 %cmp91, label %if.then92, label %if.end95

if.then92:                                        ; preds = %land.lhs.true90
  %70 = load ptr, ptr %cmsg, align 8
  %__cmsg_data = getelementptr inbounds %struct.cmsghdr, ptr %70, i32 0, i32 3
  %arraydecay93 = getelementptr inbounds [0 x i8], ptr %__cmsg_data, i64 0, i64 0
  %71 = load i32, ptr %arraydecay93, align 8
  %inq_94 = getelementptr inbounds %"class.grpc_event_engine::experimental::PosixEndpointImpl", ptr %this1, i32 0, i32 14
  store i32 %71, ptr %inq_94, align 16
  br label %for.end98

if.end95:                                         ; preds = %land.lhs.true90, %land.lhs.true88, %for.body86
  br label %for.inc96

for.inc96:                                        ; preds = %if.end95
  %72 = load ptr, ptr %cmsg, align 8
  %call97 = call ptr @__cmsg_nxthdr(ptr noundef %msg, ptr noundef %72) #3
  store ptr %call97, ptr %cmsg, align 8
  br label %for.cond84, !llvm.loop !9

for.end98:                                        ; preds = %if.then92, %for.cond84
  br label %if.end99

if.end99:                                         ; preds = %for.end98, %if.end77
  %73 = load i64, ptr %read_bytes, align 8
  %74 = load i64, ptr %total_read_bytes, align 8
  %add = add i64 %74, %73
  store i64 %add, ptr %total_read_bytes, align 8
  %inq_100 = getelementptr inbounds %"class.grpc_event_engine::experimental::PosixEndpointImpl", ptr %this1, i32 0, i32 14
  %75 = load i32, ptr %inq_100, align 16
  %cmp101 = icmp eq i32 %75, 0
  br i1 %cmp101, label %if.then105, label %lor.lhs.false

lor.lhs.false:                                    ; preds = %if.end99
  %76 = load i64, ptr %total_read_bytes, align 8
  %incoming_buffer_102 = getelementptr inbounds %"class.grpc_event_engine::experimental::PosixEndpointImpl", ptr %this1, i32 0, i32 13
  %77 = load ptr, ptr %incoming_buffer_102, align 8
  %call103 = call noundef i64 @_ZNK17grpc_event_engine12experimental11SliceBuffer6LengthEv(ptr noundef nonnull align 8 dereferenceable(264) %77)
  %cmp104 = icmp eq i64 %76, %call103
  br i1 %cmp104, label %if.then105, label %if.end106

if.then105:                                       ; preds = %lor.lhs.false, %if.end99
  br label %do.end144

if.end106:                                        ; preds = %lor.lhs.false
  %78 = load i64, ptr %read_bytes, align 8
  store i64 %78, ptr %remaining, align 8
  store i64 0, ptr %j, align 8
  store i64 0, ptr %i107, align 8
  br label %for.cond108

for.cond108:                                      ; preds = %for.inc140, %if.end106
  %79 = load i64, ptr %i107, align 8
  %80 = load i64, ptr %iov_len, align 8
  %cmp109 = icmp ult i64 %79, %80
  br i1 %cmp109, label %for.body110, label %for.end142

for.body110:                                      ; preds = %for.cond108
  %81 = load i64, ptr %remaining, align 8
  %82 = load i64, ptr %i107, align 8
  %arrayidx111 = getelementptr inbounds [64 x %struct.iovec], ptr %iov, i64 0, i64 %82
  %iov_len112 = getelementptr inbounds %struct.iovec, ptr %arrayidx111, i32 0, i32 1
  %83 = load i64, ptr %iov_len112, align 8
  %cmp113 = icmp uge i64 %81, %83
  br i1 %cmp113, label %if.then114, label %if.end117

if.then114:                                       ; preds = %for.body110
  %84 = load i64, ptr %i107, align 8
  %arrayidx115 = getelementptr inbounds [64 x %struct.iovec], ptr %iov, i64 0, i64 %84
  %iov_len116 = getelementptr inbounds %struct.iovec, ptr %arrayidx115, i32 0, i32 1
  %85 = load i64, ptr %iov_len116, align 8
  %86 = load i64, ptr %remaining, align 8
  %sub = sub i64 %86, %85
  store i64 %sub, ptr %remaining, align 8
  br label %for.inc140

if.end117:                                        ; preds = %for.body110
  %87 = load i64, ptr %remaining, align 8
  %cmp118 = icmp ugt i64 %87, 0
  br i1 %cmp118, label %if.then119, label %if.else129

if.then119:                                       ; preds = %if.end117
  %88 = load i64, ptr %i107, align 8
  %arrayidx120 = getelementptr inbounds [64 x %struct.iovec], ptr %iov, i64 0, i64 %88
  %iov_base121 = getelementptr inbounds %struct.iovec, ptr %arrayidx120, i32 0, i32 0
  %89 = load ptr, ptr %iov_base121, align 16
  %90 = load i64, ptr %remaining, align 8
  %add.ptr = getelementptr inbounds i8, ptr %89, i64 %90
  %91 = load i64, ptr %j, align 8
  %arrayidx122 = getelementptr inbounds [64 x %struct.iovec], ptr %iov, i64 0, i64 %91
  %iov_base123 = getelementptr inbounds %struct.iovec, ptr %arrayidx122, i32 0, i32 0
  store ptr %add.ptr, ptr %iov_base123, align 16
  %92 = load i64, ptr %i107, align 8
  %arrayidx124 = getelementptr inbounds [64 x %struct.iovec], ptr %iov, i64 0, i64 %92
  %iov_len125 = getelementptr inbounds %struct.iovec, ptr %arrayidx124, i32 0, i32 1
  %93 = load i64, ptr %iov_len125, align 8
  %94 = load i64, ptr %remaining, align 8
  %sub126 = sub i64 %93, %94
  %95 = load i64, ptr %j, align 8
  %arrayidx127 = getelementptr inbounds [64 x %struct.iovec], ptr %iov, i64 0, i64 %95
  %iov_len128 = getelementptr inbounds %struct.iovec, ptr %arrayidx127, i32 0, i32 1
  store i64 %sub126, ptr %iov_len128, align 8
  store i64 0, ptr %remaining, align 8
  br label %if.end138

if.else129:                                       ; preds = %if.end117
  %96 = load i64, ptr %i107, align 8
  %arrayidx130 = getelementptr inbounds [64 x %struct.iovec], ptr %iov, i64 0, i64 %96
  %iov_base131 = getelementptr inbounds %struct.iovec, ptr %arrayidx130, i32 0, i32 0
  %97 = load ptr, ptr %iov_base131, align 16
  %98 = load i64, ptr %j, align 8
  %arrayidx132 = getelementptr inbounds [64 x %struct.iovec], ptr %iov, i64 0, i64 %98
  %iov_base133 = getelementptr inbounds %struct.iovec, ptr %arrayidx132, i32 0, i32 0
  store ptr %97, ptr %iov_base133, align 16
  %99 = load i64, ptr %i107, align 8
  %arrayidx134 = getelementptr inbounds [64 x %struct.iovec], ptr %iov, i64 0, i64 %99
  %iov_len135 = getelementptr inbounds %struct.iovec, ptr %arrayidx134, i32 0, i32 1
  %100 = load i64, ptr %iov_len135, align 8
  %101 = load i64, ptr %j, align 8
  %arrayidx136 = getelementptr inbounds [64 x %struct.iovec], ptr %iov, i64 0, i64 %101
  %iov_len137 = getelementptr inbounds %struct.iovec, ptr %arrayidx136, i32 0, i32 1
  store i64 %100, ptr %iov_len137, align 8
  br label %if.end138

if.end138:                                        ; preds = %if.else129, %if.then119
  %102 = load i64, ptr %j, align 8
  %inc139 = add i64 %102, 1
  store i64 %inc139, ptr %j, align 8
  br label %for.inc140

for.inc140:                                       ; preds = %if.end138, %if.then114
  %103 = load i64, ptr %i107, align 8
  %inc141 = add i64 %103, 1
  store i64 %inc141, ptr %i107, align 8
  br label %for.cond108, !llvm.loop !10

for.end142:                                       ; preds = %for.cond108
  %104 = load i64, ptr %j, align 8
  store i64 %104, ptr %iov_len, align 8
  br label %do.cond143

do.cond143:                                       ; preds = %for.end142
  br i1 true, label %do.body14, label %do.end144, !llvm.loop !11

do.end144:                                        ; preds = %do.cond143, %if.then105, %if.then38, %if.then31
  %inq_145 = getelementptr inbounds %"class.grpc_event_engine::experimental::PosixEndpointImpl", ptr %this1, i32 0, i32 14
  %105 = load i32, ptr %inq_145, align 16
  %cmp146 = icmp eq i32 %105, 0
  br i1 %cmp146, label %if.then147, label %if.end148

if.then147:                                       ; preds = %do.end144
  call void @_ZN17grpc_event_engine12experimental17PosixEndpointImpl14FinishEstimateEv(ptr noundef nonnull align 16 dereferenceable(936) %this1)
  br label %if.end148

if.end148:                                        ; preds = %if.then147, %do.end144
  call void @_ZN4absl12lts_202308028OkStatusEv(ptr sret(%"class.absl::lts_20230802::Status") align 8 %ref.tmp149)
  %106 = load ptr, ptr %status.addr, align 8
  %call152 = invoke noundef nonnull align 8 dereferenceable(8) ptr @_ZN4absl12lts_202308026StatusaSEOS1_(ptr noundef nonnull align 8 dereferenceable(8) %106, ptr noundef nonnull align 8 dereferenceable(8) %ref.tmp149)
          to label %invoke.cont151 unwind label %lpad150

invoke.cont151:                                   ; preds = %if.end148
  call void @_ZN4absl12lts_202308026StatusD2Ev(ptr noundef nonnull align 8 dereferenceable(8) %ref.tmp149) #3
  %call154 = call noundef zeroext i1 @_ZN9grpc_core27IsTcpFrameSizeTuningEnabledEv()
  br i1 %call154, label %if.then155, label %if.end168

if.then155:                                       ; preds = %invoke.cont151
  %107 = load i64, ptr %total_read_bytes, align 8
  %min_progress_size_ = getelementptr inbounds %"class.grpc_event_engine::experimental::PosixEndpointImpl", ptr %this1, i32 0, i32 39
  %108 = load i32, ptr %min_progress_size_, align 8
  %conv = sext i32 %108 to i64
  %sub156 = sub i64 %conv, %107
  %conv157 = trunc i64 %sub156 to i32
  store i32 %conv157, ptr %min_progress_size_, align 8
  %min_progress_size_158 = getelementptr inbounds %"class.grpc_event_engine::experimental::PosixEndpointImpl", ptr %this1, i32 0, i32 39
  %109 = load i32, ptr %min_progress_size_158, align 8
  %cmp159 = icmp sgt i32 %109, 0
  br i1 %cmp159, label %if.then160, label %if.else162

if.then160:                                       ; preds = %if.then155
  %incoming_buffer_161 = getelementptr inbounds %"class.grpc_event_engine::experimental::PosixEndpointImpl", ptr %this1, i32 0, i32 13
  %110 = load ptr, ptr %incoming_buffer_161, align 8
  %111 = load i64, ptr %total_read_bytes, align 8
  %last_read_buffer_ = getelementptr inbounds %"class.grpc_event_engine::experimental::PosixEndpointImpl", ptr %this1, i32 0, i32 12
  call void @_ZN17grpc_event_engine12experimental11SliceBuffer30MoveFirstNBytesIntoSliceBufferEmRS1_(ptr noundef nonnull align 8 dereferenceable(264) %110, i64 noundef %111, ptr noundef nonnull align 8 dereferenceable(264) %last_read_buffer_)
  store i1 false, ptr %retval, align 1
  br label %return

lpad150:                                          ; preds = %if.end148
  %112 = landingpad { ptr, i32 }
          cleanup
  %113 = extractvalue { ptr, i32 } %112, 0
  store ptr %113, ptr %exn.slot, align 8
  %114 = extractvalue { ptr, i32 } %112, 1
  store i32 %114, ptr %ehselector.slot, align 4
  call void @_ZN4absl12lts_202308026StatusD2Ev(ptr noundef nonnull align 8 dereferenceable(8) %ref.tmp149) #3
  br label %eh.resume

if.else162:                                       ; preds = %if.then155
  %min_progress_size_163 = getelementptr inbounds %"class.grpc_event_engine::experimental::PosixEndpointImpl", ptr %this1, i32 0, i32 39
  store i32 1, ptr %min_progress_size_163, align 8
  %incoming_buffer_164 = getelementptr inbounds %"class.grpc_event_engine::experimental::PosixEndpointImpl", ptr %this1, i32 0, i32 13
  %115 = load ptr, ptr %incoming_buffer_164, align 8
  %116 = load i64, ptr %total_read_bytes, align 8
  %last_read_buffer_165 = getelementptr inbounds %"class.grpc_event_engine::experimental::PosixEndpointImpl", ptr %this1, i32 0, i32 12
  call void @_ZN17grpc_event_engine12experimental11SliceBuffer30MoveFirstNBytesIntoSliceBufferEmRS1_(ptr noundef nonnull align 8 dereferenceable(264) %115, i64 noundef %116, ptr noundef nonnull align 8 dereferenceable(264) %last_read_buffer_165)
  %incoming_buffer_166 = getelementptr inbounds %"class.grpc_event_engine::experimental::PosixEndpointImpl", ptr %this1, i32 0, i32 13
  %117 = load ptr, ptr %incoming_buffer_166, align 8
  %last_read_buffer_167 = getelementptr inbounds %"class.grpc_event_engine::experimental::PosixEndpointImpl", ptr %this1, i32 0, i32 12
  call void @_ZN17grpc_event_engine12experimental11SliceBuffer4SwapERS1_(ptr noundef nonnull align 8 dereferenceable(264) %117, ptr noundef nonnull align 8 dereferenceable(264) %last_read_buffer_167)
  store i1 true, ptr %retval, align 1
  br label %return

if.end168:                                        ; preds = %invoke.cont151
  %118 = load i64, ptr %total_read_bytes, align 8
  %incoming_buffer_169 = getelementptr inbounds %"class.grpc_event_engine::experimental::PosixEndpointImpl", ptr %this1, i32 0, i32 13
  %119 = load ptr, ptr %incoming_buffer_169, align 8
  %call170 = call noundef i64 @_ZNK17grpc_event_engine12experimental11SliceBuffer6LengthEv(ptr noundef nonnull align 8 dereferenceable(264) %119)
  %cmp171 = icmp ult i64 %118, %call170
  br i1 %cmp171, label %if.then172, label %if.end178

if.then172:                                       ; preds = %if.end168
  %incoming_buffer_173 = getelementptr inbounds %"class.grpc_event_engine::experimental::PosixEndpointImpl", ptr %this1, i32 0, i32 13
  %120 = load ptr, ptr %incoming_buffer_173, align 8
  %incoming_buffer_174 = getelementptr inbounds %"class.grpc_event_engine::experimental::PosixEndpointImpl", ptr %this1, i32 0, i32 13
  %121 = load ptr, ptr %incoming_buffer_174, align 8
  %call175 = call noundef i64 @_ZNK17grpc_event_engine12experimental11SliceBuffer6LengthEv(ptr noundef nonnull align 8 dereferenceable(264) %121)
  %122 = load i64, ptr %total_read_bytes, align 8
  %sub176 = sub i64 %call175, %122
  %last_read_buffer_177 = getelementptr inbounds %"class.grpc_event_engine::experimental::PosixEndpointImpl", ptr %this1, i32 0, i32 12
  call void @_ZN17grpc_event_engine12experimental11SliceBuffer29MoveLastNBytesIntoSliceBufferEmRS1_(ptr noundef nonnull align 8 dereferenceable(264) %120, i64 noundef %sub176, ptr noundef nonnull align 8 dereferenceable(264) %last_read_buffer_177)
  br label %if.end178

if.end178:                                        ; preds = %if.then172, %if.end168
  store i1 true, ptr %retval, align 1
  br label %return

return:                                           ; preds = %if.end178, %if.else162, %if.then160, %if.end76, %if.end32
  %123 = load i1, ptr %retval, align 1
  ret i1 %123

eh.resume:                                        ; preds = %lpad150, %ehcleanup75, %ehcleanup
  %exn = load ptr, ptr %exn.slot, align 8
  %sel = load i32, ptr %ehselector.slot, align 4
  %lpad.val = insertvalue { ptr, i32 } poison, ptr %exn, 0
  %lpad.val179 = insertvalue { ptr, i32 } %lpad.val, i32 %sel, 1
  resume { ptr, i32 } %lpad.val179
}

; Function Attrs: mustprogress nounwind uwtable
define linkonce_odr noundef nonnull align 8 dereferenceable(8) ptr @_ZSt3minImERKT_S2_S2_(ptr noundef nonnull align 8 dereferenceable(8) %__a, ptr noundef nonnull align 8 dereferenceable(8) %__b) #5 comdat {
entry:
  %retval = alloca ptr, align 8
  %__a.addr = alloca ptr, align 8
  %__b.addr = alloca ptr, align 8
  store ptr %__a, ptr %__a.addr, align 8
  store ptr %__b, ptr %__b.addr, align 8
  %0 = load ptr, ptr %__b.addr, align 8
  %1 = load i64, ptr %0, align 8
  %2 = load ptr, ptr %__a.addr, align 8
  %3 = load i64, ptr %2, align 8
  %cmp = icmp ult i64 %1, %3
  br i1 %cmp, label %if.then, label %if.end

if.then:                                          ; preds = %entry
  %4 = load ptr, ptr %__b.addr, align 8
  store ptr %4, ptr %retval, align 8
  br label %return

if.end:                                           ; preds = %entry
  %5 = load ptr, ptr %__a.addr, align 8
  store ptr %5, ptr %retval, align 8
  br label %return

return:                                           ; preds = %if.end, %if.then
  %6 = load ptr, ptr %retval, align 8
  ret ptr %6
}

; Function Attrs: mustprogress nounwind uwtable
define linkonce_odr noundef i64 @_ZNK17grpc_event_engine12experimental11SliceBuffer6LengthEv(ptr noundef nonnull align 8 dereferenceable(264) %this) #5 comdat align 2 {
entry:
  %this.addr = alloca ptr, align 8
  store ptr %this, ptr %this.addr, align 8
  %this1 = load ptr, ptr %this.addr, align 8
  %slice_buffer_ = getelementptr inbounds %"class.grpc_event_engine::experimental::SliceBuffer", ptr %this1, i32 0, i32 0
  %length = getelementptr inbounds %struct.grpc_slice_buffer, ptr %slice_buffer_, i32 0, i32 4
  %0 = load i64, ptr %length, align 8
  ret i64 %0
}

; Function Attrs: noreturn
declare void @gpr_assertion_failed(ptr noundef, i32 noundef, ptr noundef) #7

declare i64 @recvmsg(i32 noundef, ptr noundef, i32 noundef) #1

; Function Attrs: nounwind willreturn memory(none)
declare ptr @__errno_location() #8

; Function Attrs: mustprogress uwtable
define linkonce_odr void @_ZN17grpc_event_engine12experimental11SliceBuffer5ClearEv(ptr noundef nonnull align 8 dereferenceable(264) %this) #4 comdat align 2 {
entry:
  %this.addr = alloca ptr, align 8
  store ptr %this, ptr %this.addr, align 8
  %this1 = load ptr, ptr %this.addr, align 8
  %slice_buffer_ = getelementptr inbounds %"class.grpc_event_engine::experimental::SliceBuffer", ptr %this1, i32 0, i32 0
  call void @grpc_slice_buffer_reset_and_unref(ptr noundef %slice_buffer_)
  ret void
}

declare void @_ZN4absl12lts_2023080213InternalErrorESt17basic_string_viewIcSt11char_traitsIcEE(ptr sret(%"class.absl::lts_20230802::Status") align 8, i64, ptr) #1

; Function Attrs: mustprogress nounwind uwtable
define linkonce_odr void @_ZNSt17basic_string_viewIcSt11char_traitsIcEEC2EPKc(ptr noundef nonnull align 8 dereferenceable(16) %this, ptr noundef nonnull %__str) unnamed_addr #5 comdat align 2 personality ptr @__gxx_personality_v0 {
entry:
  %this.addr = alloca ptr, align 8
  %__str.addr = alloca ptr, align 8
  store ptr %this, ptr %this.addr, align 8
  store ptr %__str, ptr %__str.addr, align 8
  %this1 = load ptr, ptr %this.addr, align 8
  %_M_len = getelementptr inbounds %"class.std::basic_string_view", ptr %this1, i32 0, i32 0
  %0 = load ptr, ptr %__str.addr, align 8
  %call = invoke noundef i64 @_ZNSt11char_traitsIcE6lengthEPKc(ptr noundef %0)
          to label %invoke.cont unwind label %terminate.lpad

invoke.cont:                                      ; preds = %entry
  store i64 %call, ptr %_M_len, align 8
  %_M_str = getelementptr inbounds %"class.std::basic_string_view", ptr %this1, i32 0, i32 1
  %1 = load ptr, ptr %__str.addr, align 8
  store ptr %1, ptr %_M_str, align 8
  ret void

terminate.lpad:                                   ; preds = %entry
  %2 = landingpad { ptr, i32 }
          catch ptr null
  %3 = extractvalue { ptr, i32 } %2, 0
  call void @__clang_call_terminate(ptr %3) #23
  unreachable
}

; Function Attrs: mustprogress uwtable
define linkonce_odr noundef nonnull align 8 dereferenceable(8) ptr @_ZN4absl12lts_202308026StatusaSEOS1_(ptr noundef nonnull align 8 dereferenceable(8) %this, ptr noundef nonnull align 8 dereferenceable(8) %x) #4 comdat align 2 {
entry:
  %this.addr = alloca ptr, align 8
  %x.addr = alloca ptr, align 8
  %old_rep = alloca i64, align 8
  store ptr %this, ptr %this.addr, align 8
  store ptr %x, ptr %x.addr, align 8
  %this1 = load ptr, ptr %this.addr, align 8
  %rep_ = getelementptr inbounds %"class.absl::lts_20230802::Status", ptr %this1, i32 0, i32 0
  %0 = load i64, ptr %rep_, align 8
  store i64 %0, ptr %old_rep, align 8
  %1 = load ptr, ptr %x.addr, align 8
  %rep_2 = getelementptr inbounds %"class.absl::lts_20230802::Status", ptr %1, i32 0, i32 0
  %2 = load i64, ptr %rep_2, align 8
  %3 = load i64, ptr %old_rep, align 8
  %cmp = icmp ne i64 %2, %3
  br i1 %cmp, label %if.then, label %if.end

if.then:                                          ; preds = %entry
  %4 = load ptr, ptr %x.addr, align 8
  %rep_3 = getelementptr inbounds %"class.absl::lts_20230802::Status", ptr %4, i32 0, i32 0
  %5 = load i64, ptr %rep_3, align 8
  %rep_4 = getelementptr inbounds %"class.absl::lts_20230802::Status", ptr %this1, i32 0, i32 0
  store i64 %5, ptr %rep_4, align 8
  %call = call noundef i64 @_ZN4absl12lts_202308026Status12MovedFromRepEv()
  %6 = load ptr, ptr %x.addr, align 8
  %rep_5 = getelementptr inbounds %"class.absl::lts_20230802::Status", ptr %6, i32 0, i32 0
  store i64 %call, ptr %rep_5, align 8
  %7 = load i64, ptr %old_rep, align 8
  call void @_ZN4absl12lts_202308026Status5UnrefEm(i64 noundef %7)
  br label %if.end

if.end:                                           ; preds = %if.then, %entry
  ret ptr %this1
}

; Function Attrs: mustprogress nounwind uwtable
define linkonce_odr void @_ZN4absl12lts_202308026StatusD2Ev(ptr noundef nonnull align 8 dereferenceable(8) %this) unnamed_addr #5 comdat align 2 personality ptr @__gxx_personality_v0 {
entry:
  %this.addr = alloca ptr, align 8
  store ptr %this, ptr %this.addr, align 8
  %this1 = load ptr, ptr %this.addr, align 8
  %rep_ = getelementptr inbounds %"class.absl::lts_20230802::Status", ptr %this1, i32 0, i32 0
  %0 = load i64, ptr %rep_, align 8
  invoke void @_ZN4absl12lts_202308026Status5UnrefEm(i64 noundef %0)
          to label %invoke.cont unwind label %terminate.lpad

invoke.cont:                                      ; preds = %entry
  ret void

terminate.lpad:                                   ; preds = %entry
  %1 = landingpad { ptr, i32 }
          catch ptr null
  %2 = extractvalue { ptr, i32 } %1, 0
  call void @__clang_call_terminate(ptr %2) #23
  unreachable
}

declare void @_ZN4absl12lts_202308026StrCatB5cxx11ERKNS0_8AlphaNumES3_(ptr sret(%"class.std::__cxx11::basic_string") align 8, ptr noundef nonnull align 8 dereferenceable(48), ptr noundef nonnull align 8 dereferenceable(48)) #1

; Function Attrs: mustprogress uwtable
define linkonce_odr void @_ZN4absl12lts_202308028AlphaNumC2EPKc(ptr noundef nonnull align 8 dereferenceable(48) %this, ptr noundef %c_str) unnamed_addr #4 comdat align 2 {
entry:
  %this.addr = alloca ptr, align 8
  %c_str.addr = alloca ptr, align 8
  store ptr %this, ptr %this.addr, align 8
  store ptr %c_str, ptr %c_str.addr, align 8
  %this1 = load ptr, ptr %this.addr, align 8
  %piece_ = getelementptr inbounds %"class.absl::lts_20230802::AlphaNum", ptr %this1, i32 0, i32 0
  %0 = load ptr, ptr %c_str.addr, align 8
  %call = call { i64, ptr } @_ZN4absl12lts_2023080218NullSafeStringViewEPKc(ptr noundef %0)
  %1 = getelementptr inbounds { i64, ptr }, ptr %piece_, i32 0, i32 0
  %2 = extractvalue { i64, ptr } %call, 0
  store i64 %2, ptr %1, align 8
  %3 = getelementptr inbounds { i64, ptr }, ptr %piece_, i32 0, i32 1
  %4 = extractvalue { i64, ptr } %call, 1
  store ptr %4, ptr %3, align 8
  ret void
}

declare void @_ZN9grpc_core8StrErrorB5cxx11Ei(ptr sret(%"class.std::__cxx11::basic_string") align 8, i32 noundef) #1

; Function Attrs: mustprogress nounwind uwtable
define linkonce_odr void @_ZN4absl12lts_202308028AlphaNumC2ISaIcEEERKNSt7__cxx1112basic_stringIcSt11char_traitsIcET_EE(ptr noundef nonnull align 8 dereferenceable(48) %this, ptr noundef nonnull align 8 dereferenceable(32) %str) unnamed_addr #5 comdat align 2 {
entry:
  %this.addr = alloca ptr, align 8
  %str.addr = alloca ptr, align 8
  store ptr %this, ptr %this.addr, align 8
  store ptr %str, ptr %str.addr, align 8
  %this1 = load ptr, ptr %this.addr, align 8
  %piece_ = getelementptr inbounds %"class.absl::lts_20230802::AlphaNum", ptr %this1, i32 0, i32 0
  %0 = load ptr, ptr %str.addr, align 8
  %call = call { i64, ptr } @_ZNKSt7__cxx1112basic_stringIcSt11char_traitsIcESaIcEEcvSt17basic_string_viewIcS2_EEv(ptr noundef nonnull align 8 dereferenceable(32) %0) #3
  %1 = getelementptr inbounds { i64, ptr }, ptr %piece_, i32 0, i32 0
  %2 = extractvalue { i64, ptr } %call, 0
  store i64 %2, ptr %1, align 8
  %3 = getelementptr inbounds { i64, ptr }, ptr %piece_, i32 0, i32 1
  %4 = extractvalue { i64, ptr } %call, 1
  store ptr %4, ptr %3, align 8
  ret void
}

; Function Attrs: nounwind
declare ptr @__cmsg_nxthdr(ptr noundef, ptr noundef) #2

; Function Attrs: mustprogress uwtable
define linkonce_odr void @_ZN4absl12lts_202308028OkStatusEv(ptr noalias sret(%"class.absl::lts_20230802::Status") align 8 %agg.result) #4 comdat {
entry:
  %result.ptr = alloca ptr, align 8
  store ptr %agg.result, ptr %result.ptr, align 8
  call void @_ZN4absl12lts_202308026StatusC2Ev(ptr noundef nonnull align 8 dereferenceable(8) %agg.result)
  ret void
}

; Function Attrs: mustprogress uwtable
define linkonce_odr noundef zeroext i1 @_ZN9grpc_core27IsTcpFrameSizeTuningEnabledEv() #4 comdat {
entry:
  %call = call noundef zeroext i1 @_ZN9grpc_core19IsExperimentEnabledEm(i64 noundef 29)
  ret i1 %call
}

; Function Attrs: mustprogress uwtable
define linkonce_odr void @_ZN17grpc_event_engine12experimental11SliceBuffer30MoveFirstNBytesIntoSliceBufferEmRS1_(ptr noundef nonnull align 8 dereferenceable(264) %this, i64 noundef %n, ptr noundef nonnull align 8 dereferenceable(264) %other) #4 comdat align 2 {
entry:
  %this.addr = alloca ptr, align 8
  %n.addr = alloca i64, align 8
  %other.addr = alloca ptr, align 8
  store ptr %this, ptr %this.addr, align 8
  store i64 %n, ptr %n.addr, align 8
  store ptr %other, ptr %other.addr, align 8
  %this1 = load ptr, ptr %this.addr, align 8
  %slice_buffer_ = getelementptr inbounds %"class.grpc_event_engine::experimental::SliceBuffer", ptr %this1, i32 0, i32 0
  %0 = load i64, ptr %n.addr, align 8
  %1 = load ptr, ptr %other.addr, align 8
  %slice_buffer_2 = getelementptr inbounds %"class.grpc_event_engine::experimental::SliceBuffer", ptr %1, i32 0, i32 0
  call void @grpc_slice_buffer_move_first(ptr noundef %slice_buffer_, i64 noundef %0, ptr noundef %slice_buffer_2)
  ret void
}

; Function Attrs: mustprogress uwtable
define linkonce_odr void @_ZN17grpc_event_engine12experimental11SliceBuffer4SwapERS1_(ptr noundef nonnull align 8 dereferenceable(264) %this, ptr noundef nonnull align 8 dereferenceable(264) %other) #4 comdat align 2 {
entry:
  %this.addr = alloca ptr, align 8
  %other.addr = alloca ptr, align 8
  store ptr %this, ptr %this.addr, align 8
  store ptr %other, ptr %other.addr, align 8
  %this1 = load ptr, ptr %this.addr, align 8
  %slice_buffer_ = getelementptr inbounds %"class.grpc_event_engine::experimental::SliceBuffer", ptr %this1, i32 0, i32 0
  %0 = load ptr, ptr %other.addr, align 8
  %slice_buffer_2 = getelementptr inbounds %"class.grpc_event_engine::experimental::SliceBuffer", ptr %0, i32 0, i32 0
  call void @grpc_slice_buffer_swap(ptr noundef %slice_buffer_, ptr noundef %slice_buffer_2)
  ret void
}

; Function Attrs: mustprogress uwtable
define linkonce_odr void @_ZN17grpc_event_engine12experimental11SliceBuffer29MoveLastNBytesIntoSliceBufferEmRS1_(ptr noundef nonnull align 8 dereferenceable(264) %this, i64 noundef %n, ptr noundef nonnull align 8 dereferenceable(264) %other) #4 comdat align 2 {
entry:
  %this.addr = alloca ptr, align 8
  %n.addr = alloca i64, align 8
  %other.addr = alloca ptr, align 8
  store ptr %this, ptr %this.addr, align 8
  store i64 %n, ptr %n.addr, align 8
  store ptr %other, ptr %other.addr, align 8
  %this1 = load ptr, ptr %this.addr, align 8
  %slice_buffer_ = getelementptr inbounds %"class.grpc_event_engine::experimental::SliceBuffer", ptr %this1, i32 0, i32 0
  %0 = load i64, ptr %n.addr, align 8
  %1 = load ptr, ptr %other.addr, align 8
  %slice_buffer_2 = getelementptr inbounds %"class.grpc_event_engine::experimental::SliceBuffer", ptr %1, i32 0, i32 0
  call void @grpc_slice_buffer_trim_end(ptr noundef %slice_buffer_, i64 noundef %0, ptr noundef %slice_buffer_2)
  ret void
}

; Function Attrs: mustprogress uwtable
define void @_ZN17grpc_event_engine12experimental17PosixEndpointImpl18PerformReclamationEv(ptr noundef nonnull align 16 dereferenceable(936) %this) #4 align 2 {
entry:
  %this.addr = alloca ptr, align 8
  store ptr %this, ptr %this.addr, align 8
  %this1 = load ptr, ptr %this.addr, align 8
  %read_mu_ = getelementptr inbounds %"class.grpc_event_engine::experimental::PosixEndpointImpl", ptr %this1, i32 0, i32 1
  call void @_ZN4absl12lts_202308025Mutex4LockEv(ptr noundef nonnull align 8 dereferenceable(8) %read_mu_)
  %incoming_buffer_ = getelementptr inbounds %"class.grpc_event_engine::experimental::PosixEndpointImpl", ptr %this1, i32 0, i32 13
  %0 = load ptr, ptr %incoming_buffer_, align 8
  %cmp = icmp ne ptr %0, null
  br i1 %cmp, label %if.then, label %if.end

if.then:                                          ; preds = %entry
  %incoming_buffer_2 = getelementptr inbounds %"class.grpc_event_engine::experimental::PosixEndpointImpl", ptr %this1, i32 0, i32 13
  %1 = load ptr, ptr %incoming_buffer_2, align 8
  call void @_ZN17grpc_event_engine12experimental11SliceBuffer5ClearEv(ptr noundef nonnull align 8 dereferenceable(264) %1)
  br label %if.end

if.end:                                           ; preds = %if.then, %entry
  %has_posted_reclaimer_ = getelementptr inbounds %"class.grpc_event_engine::experimental::PosixEndpointImpl", ptr %this1, i32 0, i32 5
  store i8 0, ptr %has_posted_reclaimer_, align 1
  %read_mu_3 = getelementptr inbounds %"class.grpc_event_engine::experimental::PosixEndpointImpl", ptr %this1, i32 0, i32 1
  call void @_ZN4absl12lts_202308025Mutex6UnlockEv(ptr noundef nonnull align 8 dereferenceable(8) %read_mu_3)
  ret void
}

declare void @_ZN4absl12lts_202308025Mutex4LockEv(ptr noundef nonnull align 8 dereferenceable(8)) #1

declare void @_ZN4absl12lts_202308025Mutex6UnlockEv(ptr noundef nonnull align 8 dereferenceable(8)) #1

; Function Attrs: mustprogress uwtable
define void @_ZN17grpc_event_engine12experimental17PosixEndpointImpl18MaybePostReclaimerEv(ptr noundef nonnull align 16 dereferenceable(936) %this) #4 align 2 personality ptr @__gxx_personality_v0 {
entry:
  %this.addr = alloca ptr, align 8
  %agg.tmp = alloca %class.anon, align 8
  %ref.tmp = alloca %"class.grpc_core::DebugLocation", align 1
  %exn.slot = alloca ptr, align 8
  %ehselector.slot = alloca i32, align 4
  store ptr %this, ptr %this.addr, align 8
  %this1 = load ptr, ptr %this.addr, align 8
  %has_posted_reclaimer_ = getelementptr inbounds %"class.grpc_event_engine::experimental::PosixEndpointImpl", ptr %this1, i32 0, i32 5
  %0 = load i8, ptr %has_posted_reclaimer_, align 1
  %tobool = trunc i8 %0 to i1
  br i1 %tobool, label %if.end, label %if.then

if.then:                                          ; preds = %entry
  %has_posted_reclaimer_2 = getelementptr inbounds %"class.grpc_event_engine::experimental::PosixEndpointImpl", ptr %this1, i32 0, i32 5
  store i8 1, ptr %has_posted_reclaimer_2, align 1
  %memory_owner_ = getelementptr inbounds %"class.grpc_event_engine::experimental::PosixEndpointImpl", ptr %this1, i32 0, i32 28
  %1 = getelementptr inbounds %class.anon, ptr %agg.tmp, i32 0, i32 0
  call void @_ZN9grpc_core13DebugLocationC2EPKci(ptr noundef nonnull align 1 dereferenceable(1) %ref.tmp, ptr noundef @.str.1, i32 noundef 471)
  call void @_ZN9grpc_core10RefCountedIN17grpc_event_engine12experimental17PosixEndpointImplENS_19PolymorphicRefCountENS_11UnrefDeleteEE3RefERKNS_13DebugLocationEPKc(ptr sret(%"class.grpc_core::RefCountedPtr") align 8 %1, ptr noundef nonnull align 8 dereferenceable(16) %this1, ptr noundef nonnull align 1 dereferenceable(1) %ref.tmp, ptr noundef @.str.5)
  invoke void @"_ZN9grpc_core11MemoryOwner13PostReclaimerIZN17grpc_event_engine12experimental17PosixEndpointImpl18MaybePostReclaimerEvE3$_0EEvNS_15ReclamationPassET_"(ptr noundef nonnull align 8 dereferenceable(16) %memory_owner_, i32 noundef 0, ptr noundef %agg.tmp)
          to label %invoke.cont unwind label %lpad

invoke.cont:                                      ; preds = %if.then
  call void @"_ZZN17grpc_event_engine12experimental17PosixEndpointImpl18MaybePostReclaimerEvEN3$_0D2Ev"(ptr noundef nonnull align 8 dereferenceable(8) %agg.tmp) #3
  br label %if.end

lpad:                                             ; preds = %if.then
  %2 = landingpad { ptr, i32 }
          cleanup
  %3 = extractvalue { ptr, i32 } %2, 0
  store ptr %3, ptr %exn.slot, align 8
  %4 = extractvalue { ptr, i32 } %2, 1
  store i32 %4, ptr %ehselector.slot, align 4
  call void @"_ZZN17grpc_event_engine12experimental17PosixEndpointImpl18MaybePostReclaimerEvEN3$_0D2Ev"(ptr noundef nonnull align 8 dereferenceable(8) %agg.tmp) #3
  br label %eh.resume

if.end:                                           ; preds = %invoke.cont, %entry
  ret void

eh.resume:                                        ; preds = %lpad
  %exn = load ptr, ptr %exn.slot, align 8
  %sel = load i32, ptr %ehselector.slot, align 4
  %lpad.val = insertvalue { ptr, i32 } poison, ptr %exn, 0
  %lpad.val3 = insertvalue { ptr, i32 } %lpad.val, i32 %sel, 1
  resume { ptr, i32 } %lpad.val3
}

; Function Attrs: mustprogress uwtable
define internal void @"_ZN9grpc_core11MemoryOwner13PostReclaimerIZN17grpc_event_engine12experimental17PosixEndpointImpl18MaybePostReclaimerEvE3$_0EEvNS_15ReclamationPassET_"(ptr noundef nonnull align 8 dereferenceable(16) %this, i32 noundef %pass, ptr noundef %fn) #4 align 2 personality ptr @__gxx_personality_v0 {
entry:
  %this.addr = alloca ptr, align 8
  %pass.addr = alloca i32, align 4
  %fn.indirect_addr = alloca ptr, align 8
  %agg.tmp = alloca %class.anon, align 8
  %exn.slot = alloca ptr, align 8
  %ehselector.slot = alloca i32, align 4
  store ptr %this, ptr %this.addr, align 8
  store i32 %pass, ptr %pass.addr, align 4
  store ptr %fn, ptr %fn.indirect_addr, align 8
  %this1 = load ptr, ptr %this.addr, align 8
  %call = call noundef ptr @_ZN9grpc_core11MemoryOwner4implEv(ptr noundef nonnull align 8 dereferenceable(16) %this1)
  %0 = load i32, ptr %pass.addr, align 4
  call void @"_ZZN17grpc_event_engine12experimental17PosixEndpointImpl18MaybePostReclaimerEvEN3$_0C2EOS2_"(ptr noundef nonnull align 8 dereferenceable(8) %agg.tmp, ptr noundef nonnull align 8 dereferenceable(8) %fn) #3
  invoke void @"_ZN9grpc_core23GrpcMemoryAllocatorImpl13PostReclaimerIZN17grpc_event_engine12experimental17PosixEndpointImpl18MaybePostReclaimerEvE3$_0EEvNS_15ReclamationPassET_"(ptr noundef nonnull align 8 dereferenceable(136) %call, i32 noundef %0, ptr noundef %agg.tmp)
          to label %invoke.cont unwind label %lpad

invoke.cont:                                      ; preds = %entry
  call void @"_ZZN17grpc_event_engine12experimental17PosixEndpointImpl18MaybePostReclaimerEvEN3$_0D2Ev"(ptr noundef nonnull align 8 dereferenceable(8) %agg.tmp) #3
  ret void

lpad:                                             ; preds = %entry
  %1 = landingpad { ptr, i32 }
          cleanup
  %2 = extractvalue { ptr, i32 } %1, 0
  store ptr %2, ptr %exn.slot, align 8
  %3 = extractvalue { ptr, i32 } %1, 1
  store i32 %3, ptr %ehselector.slot, align 4
  call void @"_ZZN17grpc_event_engine12experimental17PosixEndpointImpl18MaybePostReclaimerEvEN3$_0D2Ev"(ptr noundef nonnull align 8 dereferenceable(8) %agg.tmp) #3
  br label %eh.resume

eh.resume:                                        ; preds = %lpad
  %exn = load ptr, ptr %exn.slot, align 8
  %sel = load i32, ptr %ehselector.slot, align 4
  %lpad.val = insertvalue { ptr, i32 } poison, ptr %exn, 0
  %lpad.val2 = insertvalue { ptr, i32 } %lpad.val, i32 %sel, 1
  resume { ptr, i32 } %lpad.val2
}

; Function Attrs: mustprogress uwtable
define linkonce_odr void @_ZN9grpc_core10RefCountedIN17grpc_event_engine12experimental17PosixEndpointImplENS_19PolymorphicRefCountENS_11UnrefDeleteEE3RefERKNS_13DebugLocationEPKc(ptr noalias sret(%"class.grpc_core::RefCountedPtr") align 8 %agg.result, ptr noundef nonnull align 8 dereferenceable(16) %this, ptr noundef nonnull align 1 dereferenceable(1) %location, ptr noundef %reason) #4 comdat align 2 {
entry:
  %result.ptr = alloca ptr, align 8
  %this.addr = alloca ptr, align 8
  %location.addr = alloca ptr, align 8
  %reason.addr = alloca ptr, align 8
  store ptr %agg.result, ptr %result.ptr, align 8
  store ptr %this, ptr %this.addr, align 8
  store ptr %location, ptr %location.addr, align 8
  store ptr %reason, ptr %reason.addr, align 8
  %this1 = load ptr, ptr %this.addr, align 8
  %0 = load ptr, ptr %location.addr, align 8
  %1 = load ptr, ptr %reason.addr, align 8
  call void @_ZNK9grpc_core10RefCountedIN17grpc_event_engine12experimental17PosixEndpointImplENS_19PolymorphicRefCountENS_11UnrefDeleteEE17IncrementRefCountERKNS_13DebugLocationEPKc(ptr noundef nonnull align 8 dereferenceable(16) %this1, ptr noundef nonnull align 1 dereferenceable(1) %0, ptr noundef %1)
  call void @_ZN9grpc_core13RefCountedPtrIN17grpc_event_engine12experimental17PosixEndpointImplEEC2IS3_EEPT_(ptr noundef nonnull align 8 dereferenceable(8) %agg.result, ptr noundef %this1)
  ret void
}

; Function Attrs: mustprogress nounwind uwtable
define linkonce_odr void @_ZN9grpc_core13DebugLocationC2EPKci(ptr noundef nonnull align 1 dereferenceable(1) %this, ptr noundef %0, i32 noundef %1) unnamed_addr #5 comdat align 2 {
entry:
  %this.addr = alloca ptr, align 8
  %.addr = alloca ptr, align 8
  %.addr1 = alloca i32, align 4
  store ptr %this, ptr %this.addr, align 8
  store ptr %0, ptr %.addr, align 8
  store i32 %1, ptr %.addr1, align 4
  ret void
}

; Function Attrs: mustprogress nounwind uwtable
define internal void @"_ZZN17grpc_event_engine12experimental17PosixEndpointImpl18MaybePostReclaimerEvEN3$_0D2Ev"(ptr noundef nonnull align 8 dereferenceable(8) %this) unnamed_addr #5 align 2 {
entry:
  %this.addr = alloca ptr, align 8
  store ptr %this, ptr %this.addr, align 8
  %this1 = load ptr, ptr %this.addr, align 8
  %0 = getelementptr inbounds %class.anon, ptr %this1, i32 0, i32 0
  call void @_ZN9grpc_core13RefCountedPtrIN17grpc_event_engine12experimental17PosixEndpointImplEED2Ev(ptr noundef nonnull align 8 dereferenceable(8) %0) #3
  ret void
}

; Function Attrs: mustprogress uwtable
define void @_ZN17grpc_event_engine12experimental17PosixEndpointImpl14UpdateRcvLowatEv(ptr noundef nonnull align 16 dereferenceable(936) %this) #4 align 2 personality ptr @__gxx_personality_v0 {
entry:
  %this.addr = alloca ptr, align 8
  %remaining = alloca i32, align 4
  %agg.tmp = alloca %"class.std::initializer_list", align 8
  %ref.tmp = alloca [3 x i32], align 4
  %result = alloca %"class.absl::lts_20230802::StatusOr.28", align 8
  %exn.slot = alloca ptr, align 8
  %ehselector.slot = alloca i32, align 4
  %ref.tmp26 = alloca %"class.std::__cxx11::basic_string", align 8
  %ref.tmp27 = alloca %"class.absl::lts_20230802::AlphaNum", align 8
  %ref.tmp29 = alloca %"class.absl::lts_20230802::AlphaNum", align 8
  %agg.tmp30 = alloca %"class.std::basic_string_view", align 8
  store ptr %this, ptr %this.addr, align 8
  %this1 = load ptr, ptr %this.addr, align 8
  %call = call noundef zeroext i1 @_ZN9grpc_core20IsTcpRcvLowatEnabledEv()
  br i1 %call, label %if.end, label %if.then

if.then:                                          ; preds = %entry
  br label %return

if.end:                                           ; preds = %entry
  %arrayinit.begin = getelementptr inbounds [3 x i32], ptr %ref.tmp, i64 0, i64 0
  %incoming_buffer_ = getelementptr inbounds %"class.grpc_event_engine::experimental::PosixEndpointImpl", ptr %this1, i32 0, i32 13
  %0 = load ptr, ptr %incoming_buffer_, align 8
  %call2 = call noundef i64 @_ZNK17grpc_event_engine12experimental11SliceBuffer6LengthEv(ptr noundef nonnull align 8 dereferenceable(264) %0)
  %conv = trunc i64 %call2 to i32
  store i32 %conv, ptr %arrayinit.begin, align 4
  %arrayinit.element = getelementptr inbounds i32, ptr %arrayinit.begin, i64 1
  store i32 16777216, ptr %arrayinit.element, align 4
  %arrayinit.element3 = getelementptr inbounds i32, ptr %arrayinit.element, i64 1
  %min_progress_size_ = getelementptr inbounds %"class.grpc_event_engine::experimental::PosixEndpointImpl", ptr %this1, i32 0, i32 39
  %1 = load i32, ptr %min_progress_size_, align 8
  store i32 %1, ptr %arrayinit.element3, align 4
  %_M_array = getelementptr inbounds %"class.std::initializer_list", ptr %agg.tmp, i32 0, i32 0
  %arraystart = getelementptr inbounds [3 x i32], ptr %ref.tmp, i64 0, i64 0
  store ptr %arraystart, ptr %_M_array, align 8
  %_M_len = getelementptr inbounds %"class.std::initializer_list", ptr %agg.tmp, i32 0, i32 1
  store i64 3, ptr %_M_len, align 8
  %2 = getelementptr inbounds { ptr, i64 }, ptr %agg.tmp, i32 0, i32 0
  %3 = load ptr, ptr %2, align 8
  %4 = getelementptr inbounds { ptr, i64 }, ptr %agg.tmp, i32 0, i32 1
  %5 = load i64, ptr %4, align 8
  %call4 = call noundef i32 @_ZSt3minIiET_St16initializer_listIS0_E(ptr %3, i64 %5)
  store i32 %call4, ptr %remaining, align 4
  %6 = load i32, ptr %remaining, align 4
  %cmp = icmp slt i32 %6, 16384
  br i1 %cmp, label %if.then5, label %if.end6

if.then5:                                         ; preds = %if.end
  store i32 0, ptr %remaining, align 4
  br label %if.end6

if.end6:                                          ; preds = %if.then5, %if.end
  %tcp_zerocopy_send_ctx_ = getelementptr inbounds %"class.grpc_event_engine::experimental::PosixEndpointImpl", ptr %this1, i32 0, i32 37
  %call7 = call noundef ptr @_ZNKSt10unique_ptrIN17grpc_event_engine12experimental18TcpZerocopySendCtxESt14default_deleteIS2_EEptEv(ptr noundef nonnull align 8 dereferenceable(8) %tcp_zerocopy_send_ctx_) #3
  %call8 = call noundef zeroext i1 @_ZNK17grpc_event_engine12experimental18TcpZerocopySendCtx7EnabledEv(ptr noundef nonnull align 8 dereferenceable(83) %call7)
  br i1 %call8, label %if.end11, label %land.lhs.true

land.lhs.true:                                    ; preds = %if.end6
  %7 = load i32, ptr %remaining, align 4
  %cmp9 = icmp sgt i32 %7, 0
  br i1 %cmp9, label %if.then10, label %if.end11

if.then10:                                        ; preds = %land.lhs.true
  %8 = load i32, ptr %remaining, align 4
  %sub = sub nsw i32 %8, 16384
  store i32 %sub, ptr %remaining, align 4
  br label %if.end11

if.end11:                                         ; preds = %if.then10, %land.lhs.true, %if.end6
  %set_rcvlowat_ = getelementptr inbounds %"class.grpc_event_engine::experimental::PosixEndpointImpl", ptr %this1, i32 0, i32 9
  %9 = load i32, ptr %set_rcvlowat_, align 8
  %cmp12 = icmp sle i32 %9, 1
  br i1 %cmp12, label %land.lhs.true13, label %if.end16

land.lhs.true13:                                  ; preds = %if.end11
  %10 = load i32, ptr %remaining, align 4
  %cmp14 = icmp sle i32 %10, 1
  br i1 %cmp14, label %if.then15, label %if.end16

if.then15:                                        ; preds = %land.lhs.true13
  br label %return

if.end16:                                         ; preds = %land.lhs.true13, %if.end11
  %set_rcvlowat_17 = getelementptr inbounds %"class.grpc_event_engine::experimental::PosixEndpointImpl", ptr %this1, i32 0, i32 9
  %11 = load i32, ptr %set_rcvlowat_17, align 8
  %12 = load i32, ptr %remaining, align 4
  %cmp18 = icmp eq i32 %11, %12
  br i1 %cmp18, label %if.then19, label %if.end20

if.then19:                                        ; preds = %if.end16
  br label %return

if.end20:                                         ; preds = %if.end16
  %sock_ = getelementptr inbounds %"class.grpc_event_engine::experimental::PosixEndpointImpl", ptr %this1, i32 0, i32 2
  %13 = load i32, ptr %remaining, align 4
  call void @_ZN17grpc_event_engine12experimental18PosixSocketWrapper17SetSocketRcvLowatEi(ptr sret(%"class.absl::lts_20230802::StatusOr.28") align 8 %result, ptr noundef nonnull align 4 dereferenceable(4) %sock_, i32 noundef %13)
  %call21 = invoke noundef zeroext i1 @_ZNK4absl12lts_202308028StatusOrIiE2okEv(ptr noundef nonnull align 8 dereferenceable(12) %result)
          to label %invoke.cont unwind label %lpad

invoke.cont:                                      ; preds = %if.end20
  br i1 %call21, label %if.then22, label %if.else

if.then22:                                        ; preds = %invoke.cont
  %call24 = invoke noundef nonnull align 4 dereferenceable(4) ptr @_ZNR4absl12lts_202308028StatusOrIiEdeEv(ptr noundef nonnull align 8 dereferenceable(12) %result)
          to label %invoke.cont23 unwind label %lpad

invoke.cont23:                                    ; preds = %if.then22
  %14 = load i32, ptr %call24, align 4
  %set_rcvlowat_25 = getelementptr inbounds %"class.grpc_event_engine::experimental::PosixEndpointImpl", ptr %this1, i32 0, i32 9
  store i32 %14, ptr %set_rcvlowat_25, align 8
  br label %if.end40

lpad:                                             ; preds = %invoke.cont35, %invoke.cont33, %invoke.cont31, %invoke.cont28, %if.else, %if.then22, %if.end20
  %15 = landingpad { ptr, i32 }
          cleanup
  %16 = extractvalue { ptr, i32 } %15, 0
  store ptr %16, ptr %exn.slot, align 8
  %17 = extractvalue { ptr, i32 } %15, 1
  store i32 %17, ptr %ehselector.slot, align 4
  br label %ehcleanup

if.else:                                          ; preds = %invoke.cont
  invoke void @_ZN4absl12lts_202308028AlphaNumC2EPKc(ptr noundef nonnull align 8 dereferenceable(48) %ref.tmp27, ptr noundef @.str.7)
          to label %invoke.cont28 unwind label %lpad

invoke.cont28:                                    ; preds = %if.else
  %call32 = invoke noundef nonnull align 8 dereferenceable(8) ptr @_ZNKR4absl12lts_202308028StatusOrIiE6statusEv(ptr noundef nonnull align 8 dereferenceable(12) %result)
          to label %invoke.cont31 unwind label %lpad

invoke.cont31:                                    ; preds = %invoke.cont28
  %call34 = invoke { i64, ptr } @_ZNK4absl12lts_202308026Status7messageEv(ptr noundef nonnull align 8 dereferenceable(8) %call32)
          to label %invoke.cont33 unwind label %lpad

invoke.cont33:                                    ; preds = %invoke.cont31
  %18 = getelementptr inbounds { i64, ptr }, ptr %agg.tmp30, i32 0, i32 0
  %19 = extractvalue { i64, ptr } %call34, 0
  store i64 %19, ptr %18, align 8
  %20 = getelementptr inbounds { i64, ptr }, ptr %agg.tmp30, i32 0, i32 1
  %21 = extractvalue { i64, ptr } %call34, 1
  store ptr %21, ptr %20, align 8
  %22 = getelementptr inbounds { i64, ptr }, ptr %agg.tmp30, i32 0, i32 0
  %23 = load i64, ptr %22, align 8
  %24 = getelementptr inbounds { i64, ptr }, ptr %agg.tmp30, i32 0, i32 1
  %25 = load ptr, ptr %24, align 8
  invoke void @_ZN4absl12lts_202308028AlphaNumC2ESt17basic_string_viewIcSt11char_traitsIcEE(ptr noundef nonnull align 8 dereferenceable(48) %ref.tmp29, i64 %23, ptr %25)
          to label %invoke.cont35 unwind label %lpad

invoke.cont35:                                    ; preds = %invoke.cont33
  invoke void @_ZN4absl12lts_202308026StrCatB5cxx11ERKNS0_8AlphaNumES3_(ptr sret(%"class.std::__cxx11::basic_string") align 8 %ref.tmp26, ptr noundef nonnull align 8 dereferenceable(48) %ref.tmp27, ptr noundef nonnull align 8 dereferenceable(48) %ref.tmp29)
          to label %invoke.cont36 unwind label %lpad

invoke.cont36:                                    ; preds = %invoke.cont35
  %call37 = call noundef ptr @_ZNKSt7__cxx1112basic_stringIcSt11char_traitsIcESaIcEE5c_strEv(ptr noundef nonnull align 8 dereferenceable(32) %ref.tmp26) #3
  invoke void (ptr, i32, i32, ptr, ...) @gpr_log(ptr noundef @.str.1, i32 noundef 515, i32 noundef 2, ptr noundef @.str.6, ptr noundef %call37)
          to label %invoke.cont39 unwind label %lpad38

invoke.cont39:                                    ; preds = %invoke.cont36
  call void @_ZNSt7__cxx1112basic_stringIcSt11char_traitsIcESaIcEED1Ev(ptr noundef nonnull align 8 dereferenceable(32) %ref.tmp26) #3
  br label %if.end40

lpad38:                                           ; preds = %invoke.cont36
  %26 = landingpad { ptr, i32 }
          cleanup
  %27 = extractvalue { ptr, i32 } %26, 0
  store ptr %27, ptr %exn.slot, align 8
  %28 = extractvalue { ptr, i32 } %26, 1
  store i32 %28, ptr %ehselector.slot, align 4
  call void @_ZNSt7__cxx1112basic_stringIcSt11char_traitsIcESaIcEED1Ev(ptr noundef nonnull align 8 dereferenceable(32) %ref.tmp26) #3
  br label %ehcleanup

if.end40:                                         ; preds = %invoke.cont39, %invoke.cont23
  call void @_ZN4absl12lts_202308028StatusOrIiED2Ev(ptr noundef nonnull align 8 dereferenceable(12) %result) #3
  br label %return

return:                                           ; preds = %if.end40, %if.then19, %if.then15, %if.then
  ret void

ehcleanup:                                        ; preds = %lpad38, %lpad
  call void @_ZN4absl12lts_202308028StatusOrIiED2Ev(ptr noundef nonnull align 8 dereferenceable(12) %result) #3
  br label %eh.resume

eh.resume:                                        ; preds = %ehcleanup
  %exn = load ptr, ptr %exn.slot, align 8
  %sel = load i32, ptr %ehselector.slot, align 4
  %lpad.val = insertvalue { ptr, i32 } poison, ptr %exn, 0
  %lpad.val41 = insertvalue { ptr, i32 } %lpad.val, i32 %sel, 1
  resume { ptr, i32 } %lpad.val41
}

; Function Attrs: mustprogress uwtable
define linkonce_odr noundef zeroext i1 @_ZN9grpc_core20IsTcpRcvLowatEnabledEv() #4 comdat {
entry:
  %call = call noundef zeroext i1 @_ZN9grpc_core19IsExperimentEnabledEm(i64 noundef 30)
  ret i1 %call
}

; Function Attrs: mustprogress uwtable
define linkonce_odr noundef i32 @_ZSt3minIiET_St16initializer_listIS0_E(ptr %__l.coerce0, i64 %__l.coerce1) #4 comdat {
entry:
  %__l = alloca %"class.std::initializer_list", align 8
  %0 = getelementptr inbounds { ptr, i64 }, ptr %__l, i32 0, i32 0
  store ptr %__l.coerce0, ptr %0, align 8
  %1 = getelementptr inbounds { ptr, i64 }, ptr %__l, i32 0, i32 1
  store i64 %__l.coerce1, ptr %1, align 8
  %call = call noundef ptr @_ZNKSt16initializer_listIiE5beginEv(ptr noundef nonnull align 8 dereferenceable(16) %__l) #3
  %call1 = call noundef ptr @_ZNKSt16initializer_listIiE3endEv(ptr noundef nonnull align 8 dereferenceable(16) %__l) #3
  call void @_ZN9__gnu_cxx5__ops16__iter_less_iterEv()
  %call2 = call noundef ptr @_ZSt13__min_elementIPKiN9__gnu_cxx5__ops15_Iter_less_iterEET_S5_S5_T0_(ptr noundef %call, ptr noundef %call1)
  %2 = load i32, ptr %call2, align 4
  ret i32 %2
}

; Function Attrs: mustprogress nounwind uwtable
define linkonce_odr noundef ptr @_ZNKSt10unique_ptrIN17grpc_event_engine12experimental18TcpZerocopySendCtxESt14default_deleteIS2_EEptEv(ptr noundef nonnull align 8 dereferenceable(8) %this) #5 comdat align 2 {
entry:
  %this.addr = alloca ptr, align 8
  store ptr %this, ptr %this.addr, align 8
  %this1 = load ptr, ptr %this.addr, align 8
  %call = call noundef ptr @_ZNKSt10unique_ptrIN17grpc_event_engine12experimental18TcpZerocopySendCtxESt14default_deleteIS2_EE3getEv(ptr noundef nonnull align 8 dereferenceable(8) %this1) #3
  ret ptr %call
}

; Function Attrs: mustprogress nounwind uwtable
define linkonce_odr noundef zeroext i1 @_ZNK17grpc_event_engine12experimental18TcpZerocopySendCtx7EnabledEv(ptr noundef nonnull align 8 dereferenceable(83) %this) #5 comdat align 2 {
entry:
  %this.addr = alloca ptr, align 8
  store ptr %this, ptr %this.addr, align 8
  %this1 = load ptr, ptr %this.addr, align 8
  %enabled_ = getelementptr inbounds %"class.grpc_event_engine::experimental::TcpZerocopySendCtx", ptr %this1, i32 0, i32 7
  %0 = load i8, ptr %enabled_, align 1
  %tobool = trunc i8 %0 to i1
  ret i1 %tobool
}

declare void @_ZN17grpc_event_engine12experimental18PosixSocketWrapper17SetSocketRcvLowatEi(ptr sret(%"class.absl::lts_20230802::StatusOr.28") align 8, ptr noundef nonnull align 4 dereferenceable(4), i32 noundef) #1

; Function Attrs: mustprogress nounwind uwtable
define linkonce_odr noundef zeroext i1 @_ZNK4absl12lts_202308028StatusOrIiE2okEv(ptr noundef nonnull align 8 dereferenceable(12) %this) #5 comdat align 2 {
entry:
  %this.addr = alloca ptr, align 8
  store ptr %this, ptr %this.addr, align 8
  %this1 = load ptr, ptr %this.addr, align 8
  %0 = getelementptr inbounds %"class.absl::lts_20230802::internal_statusor::StatusOrData.29", ptr %this1, i32 0, i32 0
  %call = call noundef zeroext i1 @_ZNK4absl12lts_202308026Status2okEv(ptr noundef nonnull align 8 dereferenceable(8) %0)
  ret i1 %call
}

; Function Attrs: mustprogress uwtable
define linkonce_odr noundef nonnull align 4 dereferenceable(4) ptr @_ZNR4absl12lts_202308028StatusOrIiEdeEv(ptr noundef nonnull align 8 dereferenceable(12) %this) #4 comdat align 2 {
entry:
  %this.addr = alloca ptr, align 8
  store ptr %this, ptr %this.addr, align 8
  %this1 = load ptr, ptr %this.addr, align 8
  call void @_ZNK4absl12lts_2023080217internal_statusor12StatusOrDataIiE8EnsureOkEv(ptr noundef nonnull align 8 dereferenceable(12) %this1)
  %0 = getelementptr inbounds %"class.absl::lts_20230802::internal_statusor::StatusOrData.29", ptr %this1, i32 0, i32 1
  ret ptr %0
}

declare void @gpr_log(ptr noundef, i32 noundef, i32 noundef, ptr noundef, ...) #1

; Function Attrs: mustprogress nounwind uwtable
define linkonce_odr noundef nonnull align 8 dereferenceable(8) ptr @_ZNKR4absl12lts_202308028StatusOrIiE6statusEv(ptr noundef nonnull align 8 dereferenceable(12) %this) #5 comdat align 2 {
entry:
  %this.addr = alloca ptr, align 8
  store ptr %this, ptr %this.addr, align 8
  %this1 = load ptr, ptr %this.addr, align 8
  %0 = getelementptr inbounds %"class.absl::lts_20230802::internal_statusor::StatusOrData.29", ptr %this1, i32 0, i32 0
  ret ptr %0
}

; Function Attrs: mustprogress uwtable
define linkonce_odr { i64, ptr } @_ZNK4absl12lts_202308026Status7messageEv(ptr noundef nonnull align 8 dereferenceable(8) %this) #4 comdat align 2 {
entry:
  %retval = alloca %"class.std::basic_string_view", align 8
  %this.addr = alloca ptr, align 8
  store ptr %this, ptr %this.addr, align 8
  %this1 = load ptr, ptr %this.addr, align 8
  %rep_ = getelementptr inbounds %"class.absl::lts_20230802::Status", ptr %this1, i32 0, i32 0
  %0 = load i64, ptr %rep_, align 8
  %call = call noundef zeroext i1 @_ZN4absl12lts_202308026Status9IsInlinedEm(i64 noundef %0)
  br i1 %call, label %cond.false, label %cond.true

cond.true:                                        ; preds = %entry
  %rep_2 = getelementptr inbounds %"class.absl::lts_20230802::Status", ptr %this1, i32 0, i32 0
  %1 = load i64, ptr %rep_2, align 8
  %call3 = call noundef ptr @_ZN4absl12lts_202308026Status12RepToPointerEm(i64 noundef %1)
  %message = getelementptr inbounds %"struct.absl::lts_20230802::status_internal::StatusRep", ptr %call3, i32 0, i32 2
  %call4 = call { i64, ptr } @_ZNKSt7__cxx1112basic_stringIcSt11char_traitsIcESaIcEEcvSt17basic_string_viewIcS2_EEv(ptr noundef nonnull align 8 dereferenceable(32) %message) #3
  %2 = getelementptr inbounds { i64, ptr }, ptr %retval, i32 0, i32 0
  %3 = extractvalue { i64, ptr } %call4, 0
  store i64 %3, ptr %2, align 8
  %4 = getelementptr inbounds { i64, ptr }, ptr %retval, i32 0, i32 1
  %5 = extractvalue { i64, ptr } %call4, 1
  store ptr %5, ptr %4, align 8
  br label %cond.end9

cond.false:                                       ; preds = %entry
  %rep_5 = getelementptr inbounds %"class.absl::lts_20230802::Status", ptr %this1, i32 0, i32 0
  %6 = load i64, ptr %rep_5, align 8
  %call6 = call noundef zeroext i1 @_ZN4absl12lts_202308026Status11IsMovedFromEm(i64 noundef %6)
  br i1 %call6, label %cond.true7, label %cond.false8

cond.true7:                                       ; preds = %cond.false
  call void @_ZNSt17basic_string_viewIcSt11char_traitsIcEEC2EPKc(ptr noundef nonnull align 8 dereferenceable(16) %retval, ptr noundef @_ZN4absl12lts_202308026Status16kMovedFromStringE) #3
  br label %cond.end

cond.false8:                                      ; preds = %cond.false
  call void @_ZNSt17basic_string_viewIcSt11char_traitsIcEEC2Ev(ptr noundef nonnull align 8 dereferenceable(16) %retval) #3
  br label %cond.end

cond.end:                                         ; preds = %cond.false8, %cond.true7
  br label %cond.end9

cond.end9:                                        ; preds = %cond.end, %cond.true
  %7 = load { i64, ptr }, ptr %retval, align 8
  ret { i64, ptr } %7
}

; Function Attrs: mustprogress nounwind uwtable
define linkonce_odr void @_ZN4absl12lts_202308028AlphaNumC2ESt17basic_string_viewIcSt11char_traitsIcEE(ptr noundef nonnull align 8 dereferenceable(48) %this, i64 %pc.coerce0, ptr %pc.coerce1) unnamed_addr #5 comdat align 2 {
entry:
  %pc = alloca %"class.std::basic_string_view", align 8
  %this.addr = alloca ptr, align 8
  %0 = getelementptr inbounds { i64, ptr }, ptr %pc, i32 0, i32 0
  store i64 %pc.coerce0, ptr %0, align 8
  %1 = getelementptr inbounds { i64, ptr }, ptr %pc, i32 0, i32 1
  store ptr %pc.coerce1, ptr %1, align 8
  store ptr %this, ptr %this.addr, align 8
  %this1 = load ptr, ptr %this.addr, align 8
  %piece_ = getelementptr inbounds %"class.absl::lts_20230802::AlphaNum", ptr %this1, i32 0, i32 0
  call void @llvm.memcpy.p0.p0.i64(ptr align 8 %piece_, ptr align 8 %pc, i64 16, i1 false)
  ret void
}

; Function Attrs: nounwind
declare noundef ptr @_ZNKSt7__cxx1112basic_stringIcSt11char_traitsIcESaIcEE5c_strEv(ptr noundef nonnull align 8 dereferenceable(32)) #2

; Function Attrs: mustprogress nounwind uwtable
define linkonce_odr void @_ZN4absl12lts_202308028StatusOrIiED2Ev(ptr noundef nonnull align 8 dereferenceable(12) %this) unnamed_addr #5 comdat align 2 {
entry:
  %this.addr = alloca ptr, align 8
  store ptr %this, ptr %this.addr, align 8
  %this1 = load ptr, ptr %this.addr, align 8
  call void @_ZN4absl12lts_2023080217internal_statusor12StatusOrDataIiED2Ev(ptr noundef nonnull align 8 dereferenceable(12) %this1) #3
  ret void
}

; Function Attrs: mustprogress uwtable
define void @_ZN17grpc_event_engine12experimental17PosixEndpointImpl19MaybeMakeReadSlicesEv(ptr noundef nonnull align 16 dereferenceable(936) %this) #4 align 2 personality ptr @__gxx_personality_v0 {
entry:
  %this.addr = alloca ptr, align 8
  %ref.tmp = alloca i64, align 8
  %ref.tmp2 = alloca i64, align 8
  %allocate_length = alloca i64, align 8
  %target_length = alloca i64, align 8
  %low_memory_pressure = alloca i8, align 1
  %ref.tmp7 = alloca %"struct.grpc_core::BasicMemoryQuota::PressureInfo", align 8
  %extra_wanted = alloca i32, align 4
  %ref.tmp11 = alloca i32, align 4
  %ref.tmp12 = alloca i32, align 4
  %agg.tmp = alloca %"class.grpc_event_engine::experimental::Slice", align 8
  %ref.tmp25 = alloca %struct.grpc_slice, align 8
  %agg.tmp27 = alloca %"class.grpc_event_engine::experimental::MemoryRequest", align 8
  %exn.slot = alloca ptr, align 8
  %ehselector.slot = alloca i32, align 4
  %agg.tmp34 = alloca %"class.grpc_event_engine::experimental::Slice", align 8
  %ref.tmp35 = alloca %struct.grpc_slice, align 8
  %agg.tmp37 = alloca %"class.grpc_event_engine::experimental::MemoryRequest", align 8
  store ptr %this, ptr %this.addr, align 8
  %this1 = load ptr, ptr %this.addr, align 8
  %incoming_buffer_ = getelementptr inbounds %"class.grpc_event_engine::experimental::PosixEndpointImpl", ptr %this1, i32 0, i32 13
  %0 = load ptr, ptr %incoming_buffer_, align 8
  %call = call noundef i64 @_ZNK17grpc_event_engine12experimental11SliceBuffer6LengthEv(ptr noundef nonnull align 8 dereferenceable(264) %0)
  %min_progress_size_ = getelementptr inbounds %"class.grpc_event_engine::experimental::PosixEndpointImpl", ptr %this1, i32 0, i32 39
  %1 = load i32, ptr %min_progress_size_, align 8
  %conv = sext i32 %1 to i64
  store i64 %conv, ptr %ref.tmp, align 8
  store i64 1, ptr %ref.tmp2, align 8
  %call3 = call noundef nonnull align 8 dereferenceable(8) ptr @_ZSt3maxImERKT_S2_S2_(ptr noundef nonnull align 8 dereferenceable(8) %ref.tmp, ptr noundef nonnull align 8 dereferenceable(8) %ref.tmp2)
  %2 = load i64, ptr %call3, align 8
  %cmp = icmp ult i64 %call, %2
  br i1 %cmp, label %if.then, label %if.end43

if.then:                                          ; preds = %entry
  %min_progress_size_4 = getelementptr inbounds %"class.grpc_event_engine::experimental::PosixEndpointImpl", ptr %this1, i32 0, i32 39
  %3 = load i32, ptr %min_progress_size_4, align 8
  %conv5 = sext i32 %3 to i64
  store i64 %conv5, ptr %allocate_length, align 8
  %target_length_ = getelementptr inbounds %"class.grpc_event_engine::experimental::PosixEndpointImpl", ptr %this1, i32 0, i32 6
  %4 = load double, ptr %target_length_, align 8
  %conv6 = fptoui double %4 to i64
  store i64 %conv6, ptr %target_length, align 8
  %memory_owner_ = getelementptr inbounds %"class.grpc_event_engine::experimental::PosixEndpointImpl", ptr %this1, i32 0, i32 28
  call void @_ZNK9grpc_core11MemoryOwner15GetPressureInfoEv(ptr sret(%"struct.grpc_core::BasicMemoryQuota::PressureInfo") align 8 %ref.tmp7, ptr noundef nonnull align 8 dereferenceable(16) %memory_owner_)
  %pressure_control_value = getelementptr inbounds %"struct.grpc_core::BasicMemoryQuota::PressureInfo", ptr %ref.tmp7, i32 0, i32 1
  %5 = load double, ptr %pressure_control_value, align 8
  %cmp8 = fcmp olt double %5, 8.000000e-01
  %frombool = zext i1 %cmp8 to i8
  store i8 %frombool, ptr %low_memory_pressure, align 1
  %6 = load i8, ptr %low_memory_pressure, align 1
  %tobool = trunc i8 %6 to i1
  br i1 %tobool, label %land.lhs.true, label %if.end

land.lhs.true:                                    ; preds = %if.then
  %7 = load i64, ptr %target_length, align 8
  %8 = load i64, ptr %allocate_length, align 8
  %cmp9 = icmp ugt i64 %7, %8
  br i1 %cmp9, label %if.then10, label %if.end

if.then10:                                        ; preds = %land.lhs.true
  %9 = load i64, ptr %target_length, align 8
  store i64 %9, ptr %allocate_length, align 8
  br label %if.end

if.end:                                           ; preds = %if.then10, %land.lhs.true, %if.then
  store i32 1, ptr %ref.tmp11, align 4
  %10 = load i64, ptr %allocate_length, align 8
  %incoming_buffer_13 = getelementptr inbounds %"class.grpc_event_engine::experimental::PosixEndpointImpl", ptr %this1, i32 0, i32 13
  %11 = load ptr, ptr %incoming_buffer_13, align 8
  %call14 = call noundef i64 @_ZNK17grpc_event_engine12experimental11SliceBuffer6LengthEv(ptr noundef nonnull align 8 dereferenceable(264) %11)
  %conv15 = trunc i64 %call14 to i32
  %conv16 = sext i32 %conv15 to i64
  %sub = sub i64 %10, %conv16
  %conv17 = trunc i64 %sub to i32
  store i32 %conv17, ptr %ref.tmp12, align 4
  %call18 = call noundef nonnull align 4 dereferenceable(4) ptr @_ZSt3maxIiERKT_S2_S2_(ptr noundef nonnull align 4 dereferenceable(4) %ref.tmp11, ptr noundef nonnull align 4 dereferenceable(4) %ref.tmp12)
  %12 = load i32, ptr %call18, align 4
  store i32 %12, ptr %extra_wanted, align 4
  %13 = load i32, ptr %extra_wanted, align 4
  %14 = load i8, ptr %low_memory_pressure, align 1
  %tobool19 = trunc i8 %14 to i1
  %cond = select i1 %tobool19, i32 12288, i32 65536
  %cmp20 = icmp sge i32 %13, %cond
  br i1 %cmp20, label %if.then21, label %if.else

if.then21:                                        ; preds = %if.end
  br label %while.cond

while.cond:                                       ; preds = %invoke.cont, %if.then21
  %15 = load i32, ptr %extra_wanted, align 4
  %cmp22 = icmp sgt i32 %15, 0
  br i1 %cmp22, label %while.body, label %while.end

while.body:                                       ; preds = %while.cond
  %16 = load i32, ptr %extra_wanted, align 4
  %sub23 = sub nsw i32 %16, 65536
  store i32 %sub23, ptr %extra_wanted, align 4
  %incoming_buffer_24 = getelementptr inbounds %"class.grpc_event_engine::experimental::PosixEndpointImpl", ptr %this1, i32 0, i32 13
  %17 = load ptr, ptr %incoming_buffer_24, align 8
  %memory_owner_26 = getelementptr inbounds %"class.grpc_event_engine::experimental::PosixEndpointImpl", ptr %this1, i32 0, i32 28
  call void @_ZN17grpc_event_engine12experimental13MemoryRequestC2Em(ptr noundef nonnull align 8 dereferenceable(16) %agg.tmp27, i64 noundef 65536)
  %18 = getelementptr inbounds { i64, i64 }, ptr %agg.tmp27, i32 0, i32 0
  %19 = load i64, ptr %18, align 8
  %20 = getelementptr inbounds { i64, i64 }, ptr %agg.tmp27, i32 0, i32 1
  %21 = load i64, ptr %20, align 8
  call void @_ZN17grpc_event_engine12experimental15MemoryAllocator9MakeSliceENS0_13MemoryRequestE(ptr sret(%struct.grpc_slice) align 8 %ref.tmp25, ptr noundef nonnull align 8 dereferenceable(16) %memory_owner_26, i64 %19, i64 %21)
  call void @_ZN17grpc_event_engine12experimental5SliceC2ERK10grpc_slice(ptr noundef nonnull align 8 dereferenceable(32) %agg.tmp, ptr noundef nonnull align 8 dereferenceable(32) %ref.tmp25)
  %call28 = invoke noundef i64 @_ZN17grpc_event_engine12experimental11SliceBuffer13AppendIndexedENS0_5SliceE(ptr noundef nonnull align 8 dereferenceable(264) %17, ptr noundef %agg.tmp)
          to label %invoke.cont unwind label %lpad

invoke.cont:                                      ; preds = %while.body
  call void @_ZN17grpc_event_engine12experimental5SliceD1Ev(ptr noundef nonnull align 8 dereferenceable(32) %agg.tmp) #3
  br label %while.cond, !llvm.loop !12

lpad:                                             ; preds = %while.body
  %22 = landingpad { ptr, i32 }
          cleanup
  %23 = extractvalue { ptr, i32 } %22, 0
  store ptr %23, ptr %exn.slot, align 8
  %24 = extractvalue { ptr, i32 } %22, 1
  store i32 %24, ptr %ehselector.slot, align 4
  call void @_ZN17grpc_event_engine12experimental5SliceD1Ev(ptr noundef nonnull align 8 dereferenceable(32) %agg.tmp) #3
  br label %eh.resume

while.end:                                        ; preds = %while.cond
  br label %if.end42

if.else:                                          ; preds = %if.end
  br label %while.cond29

while.cond29:                                     ; preds = %invoke.cont39, %if.else
  %25 = load i32, ptr %extra_wanted, align 4
  %cmp30 = icmp sgt i32 %25, 0
  br i1 %cmp30, label %while.body31, label %while.end41

while.body31:                                     ; preds = %while.cond29
  %26 = load i32, ptr %extra_wanted, align 4
  %sub32 = sub nsw i32 %26, 8192
  store i32 %sub32, ptr %extra_wanted, align 4
  %incoming_buffer_33 = getelementptr inbounds %"class.grpc_event_engine::experimental::PosixEndpointImpl", ptr %this1, i32 0, i32 13
  %27 = load ptr, ptr %incoming_buffer_33, align 8
  %memory_owner_36 = getelementptr inbounds %"class.grpc_event_engine::experimental::PosixEndpointImpl", ptr %this1, i32 0, i32 28
  call void @_ZN17grpc_event_engine12experimental13MemoryRequestC2Em(ptr noundef nonnull align 8 dereferenceable(16) %agg.tmp37, i64 noundef 8192)
  %28 = getelementptr inbounds { i64, i64 }, ptr %agg.tmp37, i32 0, i32 0
  %29 = load i64, ptr %28, align 8
  %30 = getelementptr inbounds { i64, i64 }, ptr %agg.tmp37, i32 0, i32 1
  %31 = load i64, ptr %30, align 8
  call void @_ZN17grpc_event_engine12experimental15MemoryAllocator9MakeSliceENS0_13MemoryRequestE(ptr sret(%struct.grpc_slice) align 8 %ref.tmp35, ptr noundef nonnull align 8 dereferenceable(16) %memory_owner_36, i64 %29, i64 %31)
  call void @_ZN17grpc_event_engine12experimental5SliceC2ERK10grpc_slice(ptr noundef nonnull align 8 dereferenceable(32) %agg.tmp34, ptr noundef nonnull align 8 dereferenceable(32) %ref.tmp35)
  %call40 = invoke noundef i64 @_ZN17grpc_event_engine12experimental11SliceBuffer13AppendIndexedENS0_5SliceE(ptr noundef nonnull align 8 dereferenceable(264) %27, ptr noundef %agg.tmp34)
          to label %invoke.cont39 unwind label %lpad38

invoke.cont39:                                    ; preds = %while.body31
  call void @_ZN17grpc_event_engine12experimental5SliceD1Ev(ptr noundef nonnull align 8 dereferenceable(32) %agg.tmp34) #3
  br label %while.cond29, !llvm.loop !13

lpad38:                                           ; preds = %while.body31
  %32 = landingpad { ptr, i32 }
          cleanup
  %33 = extractvalue { ptr, i32 } %32, 0
  store ptr %33, ptr %exn.slot, align 8
  %34 = extractvalue { ptr, i32 } %32, 1
  store i32 %34, ptr %ehselector.slot, align 4
  call void @_ZN17grpc_event_engine12experimental5SliceD1Ev(ptr noundef nonnull align 8 dereferenceable(32) %agg.tmp34) #3
  br label %eh.resume

while.end41:                                      ; preds = %while.cond29
  br label %if.end42

if.end42:                                         ; preds = %while.end41, %while.end
  call void @_ZN17grpc_event_engine12experimental17PosixEndpointImpl18MaybePostReclaimerEv(ptr noundef nonnull align 16 dereferenceable(936) %this1)
  br label %if.end43

if.end43:                                         ; preds = %if.end42, %entry
  ret void

eh.resume:                                        ; preds = %lpad38, %lpad
  %exn = load ptr, ptr %exn.slot, align 8
  %sel = load i32, ptr %ehselector.slot, align 4
  %lpad.val = insertvalue { ptr, i32 } poison, ptr %exn, 0
  %lpad.val44 = insertvalue { ptr, i32 } %lpad.val, i32 %sel, 1
  resume { ptr, i32 } %lpad.val44
}

; Function Attrs: mustprogress nounwind uwtable
define linkonce_odr noundef nonnull align 8 dereferenceable(8) ptr @_ZSt3maxImERKT_S2_S2_(ptr noundef nonnull align 8 dereferenceable(8) %__a, ptr noundef nonnull align 8 dereferenceable(8) %__b) #5 comdat {
entry:
  %retval = alloca ptr, align 8
  %__a.addr = alloca ptr, align 8
  %__b.addr = alloca ptr, align 8
  store ptr %__a, ptr %__a.addr, align 8
  store ptr %__b, ptr %__b.addr, align 8
  %0 = load ptr, ptr %__a.addr, align 8
  %1 = load i64, ptr %0, align 8
  %2 = load ptr, ptr %__b.addr, align 8
  %3 = load i64, ptr %2, align 8
  %cmp = icmp ult i64 %1, %3
  br i1 %cmp, label %if.then, label %if.end

if.then:                                          ; preds = %entry
  %4 = load ptr, ptr %__b.addr, align 8
  store ptr %4, ptr %retval, align 8
  br label %return

if.end:                                           ; preds = %entry
  %5 = load ptr, ptr %__a.addr, align 8
  store ptr %5, ptr %retval, align 8
  br label %return

return:                                           ; preds = %if.end, %if.then
  %6 = load ptr, ptr %retval, align 8
  ret ptr %6
}

; Function Attrs: mustprogress uwtable
define linkonce_odr void @_ZNK9grpc_core11MemoryOwner15GetPressureInfoEv(ptr noalias sret(%"struct.grpc_core::BasicMemoryQuota::PressureInfo") align 8 %agg.result, ptr noundef nonnull align 8 dereferenceable(16) %this) #4 comdat align 2 {
entry:
  %this.addr = alloca ptr, align 8
  store ptr %this, ptr %this.addr, align 8
  %this1 = load ptr, ptr %this.addr, align 8
  %call = call noundef zeroext i1 @_ZNK9grpc_core11MemoryOwner8is_validEv(ptr noundef nonnull align 8 dereferenceable(16) %this1)
  br i1 %call, label %if.end, label %if.then

if.then:                                          ; preds = %entry
  %instantaneous_pressure = getelementptr inbounds %"struct.grpc_core::BasicMemoryQuota::PressureInfo", ptr %agg.result, i32 0, i32 0
  store double 0.000000e+00, ptr %instantaneous_pressure, align 8
  %pressure_control_value = getelementptr inbounds %"struct.grpc_core::BasicMemoryQuota::PressureInfo", ptr %agg.result, i32 0, i32 1
  store double 0.000000e+00, ptr %pressure_control_value, align 8
  %max_recommended_allocation_size = getelementptr inbounds %"struct.grpc_core::BasicMemoryQuota::PressureInfo", ptr %agg.result, i32 0, i32 2
  store i64 0, ptr %max_recommended_allocation_size, align 8
  br label %return

if.end:                                           ; preds = %entry
  %call2 = call noundef ptr @_ZNK9grpc_core11MemoryOwner4implEv(ptr noundef nonnull align 8 dereferenceable(16) %this1)
  call void @_ZNK9grpc_core23GrpcMemoryAllocatorImpl15GetPressureInfoEv(ptr sret(%"struct.grpc_core::BasicMemoryQuota::PressureInfo") align 8 %agg.result, ptr noundef nonnull align 8 dereferenceable(136) %call2)
  br label %return

return:                                           ; preds = %if.end, %if.then
  ret void
}

; Function Attrs: mustprogress nounwind uwtable
define linkonce_odr noundef nonnull align 4 dereferenceable(4) ptr @_ZSt3maxIiERKT_S2_S2_(ptr noundef nonnull align 4 dereferenceable(4) %__a, ptr noundef nonnull align 4 dereferenceable(4) %__b) #5 comdat {
entry:
  %retval = alloca ptr, align 8
  %__a.addr = alloca ptr, align 8
  %__b.addr = alloca ptr, align 8
  store ptr %__a, ptr %__a.addr, align 8
  store ptr %__b, ptr %__b.addr, align 8
  %0 = load ptr, ptr %__a.addr, align 8
  %1 = load i32, ptr %0, align 4
  %2 = load ptr, ptr %__b.addr, align 8
  %3 = load i32, ptr %2, align 4
  %cmp = icmp slt i32 %1, %3
  br i1 %cmp, label %if.then, label %if.end

if.then:                                          ; preds = %entry
  %4 = load ptr, ptr %__b.addr, align 8
  store ptr %4, ptr %retval, align 8
  br label %return

if.end:                                           ; preds = %entry
  %5 = load ptr, ptr %__a.addr, align 8
  store ptr %5, ptr %retval, align 8
  br label %return

return:                                           ; preds = %if.end, %if.then
  %6 = load ptr, ptr %retval, align 8
  ret ptr %6
}

declare noundef i64 @_ZN17grpc_event_engine12experimental11SliceBuffer13AppendIndexedENS0_5SliceE(ptr noundef nonnull align 8 dereferenceable(264), ptr noundef) #1

; Function Attrs: mustprogress uwtable
define linkonce_odr void @_ZN17grpc_event_engine12experimental15MemoryAllocator9MakeSliceENS0_13MemoryRequestE(ptr noalias sret(%struct.grpc_slice) align 8 %agg.result, ptr noundef nonnull align 8 dereferenceable(16) %this, i64 %request.coerce0, i64 %request.coerce1) #4 comdat align 2 {
entry:
  %request = alloca %"class.grpc_event_engine::experimental::MemoryRequest", align 8
  %this.addr = alloca ptr, align 8
  %agg.tmp = alloca %"class.grpc_event_engine::experimental::MemoryRequest", align 8
  %0 = getelementptr inbounds { i64, i64 }, ptr %request, i32 0, i32 0
  store i64 %request.coerce0, ptr %0, align 8
  %1 = getelementptr inbounds { i64, i64 }, ptr %request, i32 0, i32 1
  store i64 %request.coerce1, ptr %1, align 8
  store ptr %this, ptr %this.addr, align 8
  %this1 = load ptr, ptr %this.addr, align 8
  %allocator_ = getelementptr inbounds %"class.grpc_event_engine::experimental::MemoryAllocator", ptr %this1, i32 0, i32 0
  %call = call noundef ptr @_ZNKSt19__shared_ptr_accessIN17grpc_event_engine12experimental8internal19MemoryAllocatorImplELN9__gnu_cxx12_Lock_policyE2ELb0ELb0EEptEv(ptr noundef nonnull align 1 dereferenceable(1) %allocator_) #3
  call void @llvm.memcpy.p0.p0.i64(ptr align 8 %agg.tmp, ptr align 8 %request, i64 16, i1 false)
  %2 = getelementptr inbounds { i64, i64 }, ptr %agg.tmp, i32 0, i32 0
  %3 = load i64, ptr %2, align 8
  %4 = getelementptr inbounds { i64, i64 }, ptr %agg.tmp, i32 0, i32 1
  %5 = load i64, ptr %4, align 8
  %vtable = load ptr, ptr %call, align 8
  %vfn = getelementptr inbounds ptr, ptr %vtable, i64 3
  %6 = load ptr, ptr %vfn, align 8
  call void %6(ptr sret(%struct.grpc_slice) align 8 %agg.result, ptr noundef nonnull align 8 dereferenceable(24) %call, i64 %3, i64 %5)
  ret void
}

; Function Attrs: mustprogress nounwind uwtable
define linkonce_odr void @_ZN17grpc_event_engine12experimental13MemoryRequestC2Em(ptr noundef nonnull align 8 dereferenceable(16) %this, i64 noundef %n) unnamed_addr #5 comdat align 2 {
entry:
  %this.addr = alloca ptr, align 8
  %n.addr = alloca i64, align 8
  store ptr %this, ptr %this.addr, align 8
  store i64 %n, ptr %n.addr, align 8
  %this1 = load ptr, ptr %this.addr, align 8
  %min_ = getelementptr inbounds %"class.grpc_event_engine::experimental::MemoryRequest", ptr %this1, i32 0, i32 0
  %0 = load i64, ptr %n.addr, align 8
  store i64 %0, ptr %min_, align 8
  %max_ = getelementptr inbounds %"class.grpc_event_engine::experimental::MemoryRequest", ptr %this1, i32 0, i32 1
  %1 = load i64, ptr %n.addr, align 8
  store i64 %1, ptr %max_, align 8
  ret void
}

; Function Attrs: mustprogress uwtable
define linkonce_odr void @_ZN17grpc_event_engine12experimental5SliceC2ERK10grpc_slice(ptr noundef nonnull align 8 dereferenceable(32) %this, ptr noundef nonnull align 8 dereferenceable(32) %slice) unnamed_addr #4 comdat align 2 {
entry:
  %this.addr = alloca ptr, align 8
  %slice.addr = alloca ptr, align 8
  store ptr %this, ptr %this.addr, align 8
  store ptr %slice, ptr %slice.addr, align 8
  %this1 = load ptr, ptr %this.addr, align 8
  %0 = load ptr, ptr %slice.addr, align 8
  call void @_ZN17grpc_event_engine12experimental12slice_detail9BaseSliceC2ERK10grpc_slice(ptr noundef nonnull align 8 dereferenceable(32) %this1, ptr noundef nonnull align 8 dereferenceable(32) %0)
  ret void
}

; Function Attrs: mustprogress uwtable
define noundef zeroext i1 @_ZN17grpc_event_engine12experimental17PosixEndpointImpl16HandleReadLockedERN4absl12lts_202308026StatusE(ptr noundef nonnull align 16 dereferenceable(936) %this, ptr noundef nonnull align 8 dereferenceable(8) %status) #4 align 2 personality ptr @__gxx_personality_v0 {
entry:
  %retval = alloca i1, align 1
  %this.addr = alloca ptr, align 8
  %status.addr = alloca ptr, align 8
  %ref.tmp = alloca %"class.absl::lts_20230802::Status", align 8
  %agg.tmp = alloca %"class.absl::lts_20230802::Status", align 8
  %agg.tmp10 = alloca %"class.std::basic_string_view", align 8
  %exn.slot = alloca ptr, align 8
  %ehselector.slot = alloca i32, align 4
  store ptr %this, ptr %this.addr, align 8
  store ptr %status, ptr %status.addr, align 8
  %this1 = load ptr, ptr %this.addr, align 8
  %0 = load ptr, ptr %status.addr, align 8
  %call = call noundef zeroext i1 @_ZNK4absl12lts_202308026Status2okEv(ptr noundef nonnull align 8 dereferenceable(8) %0)
  br i1 %call, label %land.lhs.true, label %if.else

land.lhs.true:                                    ; preds = %entry
  %memory_owner_ = getelementptr inbounds %"class.grpc_event_engine::experimental::PosixEndpointImpl", ptr %this1, i32 0, i32 28
  %call2 = call noundef zeroext i1 @_ZNK9grpc_core11MemoryOwner8is_validEv(ptr noundef nonnull align 8 dereferenceable(16) %memory_owner_)
  br i1 %call2, label %if.then, label %if.else

if.then:                                          ; preds = %land.lhs.true
  call void @_ZN17grpc_event_engine12experimental17PosixEndpointImpl19MaybeMakeReadSlicesEv(ptr noundef nonnull align 16 dereferenceable(936) %this1)
  %1 = load ptr, ptr %status.addr, align 8
  %call3 = call noundef zeroext i1 @_ZN17grpc_event_engine12experimental17PosixEndpointImpl9TcpDoReadERN4absl12lts_202308026StatusE(ptr noundef nonnull align 16 dereferenceable(936) %this1, ptr noundef nonnull align 8 dereferenceable(8) %1)
  br i1 %call3, label %if.end, label %if.then4

if.then4:                                         ; preds = %if.then
  call void @_ZN17grpc_event_engine12experimental17PosixEndpointImpl14UpdateRcvLowatEv(ptr noundef nonnull align 16 dereferenceable(936) %this1)
  store i1 false, ptr %retval, align 1
  br label %return

if.end:                                           ; preds = %if.then
  br label %if.end15

if.else:                                          ; preds = %land.lhs.true, %entry
  %memory_owner_5 = getelementptr inbounds %"class.grpc_event_engine::experimental::PosixEndpointImpl", ptr %this1, i32 0, i32 28
  %call6 = call noundef zeroext i1 @_ZNK9grpc_core11MemoryOwner8is_validEv(ptr noundef nonnull align 8 dereferenceable(16) %memory_owner_5)
  br i1 %call6, label %if.end14, label %land.lhs.true7

land.lhs.true7:                                   ; preds = %if.else
  %2 = load ptr, ptr %status.addr, align 8
  %call8 = call noundef zeroext i1 @_ZNK4absl12lts_202308026Status2okEv(ptr noundef nonnull align 8 dereferenceable(8) %2)
  br i1 %call8, label %if.then9, label %if.end14

if.then9:                                         ; preds = %land.lhs.true7
  call void @_ZNSt17basic_string_viewIcSt11char_traitsIcEEC2EPKc(ptr noundef nonnull align 8 dereferenceable(16) %agg.tmp10, ptr noundef @.str.8) #3
  %3 = getelementptr inbounds { i64, ptr }, ptr %agg.tmp10, i32 0, i32 0
  %4 = load i64, ptr %3, align 8
  %5 = getelementptr inbounds { i64, ptr }, ptr %agg.tmp10, i32 0, i32 1
  %6 = load ptr, ptr %5, align 8
  call void @_ZN4absl12lts_2023080212UnknownErrorESt17basic_string_viewIcSt11char_traitsIcEE(ptr sret(%"class.absl::lts_20230802::Status") align 8 %agg.tmp, i64 %4, ptr %6)
  invoke void @_ZN17grpc_event_engine12experimental17PosixEndpointImpl16TcpAnnotateErrorEN4absl12lts_202308026StatusE(ptr sret(%"class.absl::lts_20230802::Status") align 8 %ref.tmp, ptr noundef nonnull align 16 dereferenceable(936) %this1, ptr noundef %agg.tmp)
          to label %invoke.cont unwind label %lpad

invoke.cont:                                      ; preds = %if.then9
  %7 = load ptr, ptr %status.addr, align 8
  %call13 = invoke noundef nonnull align 8 dereferenceable(8) ptr @_ZN4absl12lts_202308026StatusaSEOS1_(ptr noundef nonnull align 8 dereferenceable(8) %7, ptr noundef nonnull align 8 dereferenceable(8) %ref.tmp)
          to label %invoke.cont12 unwind label %lpad11

invoke.cont12:                                    ; preds = %invoke.cont
  call void @_ZN4absl12lts_202308026StatusD2Ev(ptr noundef nonnull align 8 dereferenceable(8) %ref.tmp) #3
  call void @_ZN4absl12lts_202308026StatusD2Ev(ptr noundef nonnull align 8 dereferenceable(8) %agg.tmp) #3
  br label %if.end14

lpad:                                             ; preds = %if.then9
  %8 = landingpad { ptr, i32 }
          cleanup
  %9 = extractvalue { ptr, i32 } %8, 0
  store ptr %9, ptr %exn.slot, align 8
  %10 = extractvalue { ptr, i32 } %8, 1
  store i32 %10, ptr %ehselector.slot, align 4
  br label %ehcleanup

lpad11:                                           ; preds = %invoke.cont
  %11 = landingpad { ptr, i32 }
          cleanup
  %12 = extractvalue { ptr, i32 } %11, 0
  store ptr %12, ptr %exn.slot, align 8
  %13 = extractvalue { ptr, i32 } %11, 1
  store i32 %13, ptr %ehselector.slot, align 4
  call void @_ZN4absl12lts_202308026StatusD2Ev(ptr noundef nonnull align 8 dereferenceable(8) %ref.tmp) #3
  br label %ehcleanup

ehcleanup:                                        ; preds = %lpad11, %lpad
  call void @_ZN4absl12lts_202308026StatusD2Ev(ptr noundef nonnull align 8 dereferenceable(8) %agg.tmp) #3
  br label %eh.resume

if.end14:                                         ; preds = %invoke.cont12, %land.lhs.true7, %if.else
  %incoming_buffer_ = getelementptr inbounds %"class.grpc_event_engine::experimental::PosixEndpointImpl", ptr %this1, i32 0, i32 13
  %14 = load ptr, ptr %incoming_buffer_, align 8
  call void @_ZN17grpc_event_engine12experimental11SliceBuffer5ClearEv(ptr noundef nonnull align 8 dereferenceable(264) %14)
  %last_read_buffer_ = getelementptr inbounds %"class.grpc_event_engine::experimental::PosixEndpointImpl", ptr %this1, i32 0, i32 12
  call void @_ZN17grpc_event_engine12experimental11SliceBuffer5ClearEv(ptr noundef nonnull align 8 dereferenceable(264) %last_read_buffer_)
  br label %if.end15

if.end15:                                         ; preds = %if.end14, %if.end
  store i1 true, ptr %retval, align 1
  br label %return

return:                                           ; preds = %if.end15, %if.then4
  %15 = load i1, ptr %retval, align 1
  ret i1 %15

eh.resume:                                        ; preds = %ehcleanup
  %exn = load ptr, ptr %exn.slot, align 8
  %sel = load i32, ptr %ehselector.slot, align 4
  %lpad.val = insertvalue { ptr, i32 } poison, ptr %exn, 0
  %lpad.val16 = insertvalue { ptr, i32 } %lpad.val, i32 %sel, 1
  resume { ptr, i32 } %lpad.val16
}

; Function Attrs: mustprogress nounwind uwtable
define linkonce_odr noundef zeroext i1 @_ZNK4absl12lts_202308026Status2okEv(ptr noundef nonnull align 8 dereferenceable(8) %this) #5 comdat align 2 {
entry:
  %this.addr = alloca ptr, align 8
  store ptr %this, ptr %this.addr, align 8
  %this1 = load ptr, ptr %this.addr, align 8
  %rep_ = getelementptr inbounds %"class.absl::lts_20230802::Status", ptr %this1, i32 0, i32 0
  %0 = load i64, ptr %rep_, align 8
  %call = call noundef i64 @_ZN4absl12lts_202308026Status16CodeToInlinedRepENS0_10StatusCodeE(i32 noundef 0)
  %cmp = icmp eq i64 %0, %call
  ret i1 %cmp
}

; Function Attrs: mustprogress uwtable
define linkonce_odr noundef zeroext i1 @_ZNK9grpc_core11MemoryOwner8is_validEv(ptr noundef nonnull align 8 dereferenceable(16) %this) #4 comdat align 2 {
entry:
  %this.addr = alloca ptr, align 8
  store ptr %this, ptr %this.addr, align 8
  %this1 = load ptr, ptr %this.addr, align 8
  %call = call noundef ptr @_ZNK9grpc_core11MemoryOwner4implEv(ptr noundef nonnull align 8 dereferenceable(16) %this1)
  %cmp = icmp ne ptr %call, null
  ret i1 %cmp
}

declare void @_ZN4absl12lts_2023080212UnknownErrorESt17basic_string_viewIcSt11char_traitsIcEE(ptr sret(%"class.absl::lts_20230802::Status") align 8, i64, ptr) #1

; Function Attrs: mustprogress uwtable
define void @_ZN17grpc_event_engine12experimental17PosixEndpointImpl10HandleReadEN4absl12lts_202308026StatusE(ptr noundef nonnull align 16 dereferenceable(936) %this, ptr noundef %status) #4 align 2 personality ptr @__gxx_personality_v0 {
entry:
  %this.addr = alloca ptr, align 8
  %status.indirect_addr = alloca ptr, align 8
  %ret = alloca i8, align 1
  %cb = alloca %"class.absl::lts_20230802::AnyInvocable", align 16
  %agg.tmp = alloca %class.anon.36, align 8
  %exn.slot = alloca ptr, align 8
  %ehselector.slot = alloca i32, align 4
  %cleanup.dest.slot = alloca i32, align 4
  %agg.tmp3 = alloca %"class.absl::lts_20230802::Status", align 8
  store ptr %this, ptr %this.addr, align 8
  store ptr %status, ptr %status.indirect_addr, align 8
  %this1 = load ptr, ptr %this.addr, align 8
  store i8 0, ptr %ret, align 1
  call void @_ZN4absl12lts_2023080212AnyInvocableIFvNS0_6StatusEEEC2EDn(ptr noundef nonnull align 16 dereferenceable(32) %cb, ptr null) #3
  %0 = getelementptr inbounds %class.anon.36, ptr %agg.tmp, i32 0, i32 0
  store ptr %this1, ptr %0, align 8
  %1 = getelementptr inbounds %class.anon.36, ptr %agg.tmp, i32 0, i32 1
  store ptr %ret, ptr %1, align 8
  %2 = getelementptr inbounds %class.anon.36, ptr %agg.tmp, i32 0, i32 2
  store ptr %status, ptr %2, align 8
  %3 = getelementptr inbounds %class.anon.36, ptr %agg.tmp, i32 0, i32 3
  store ptr %cb, ptr %3, align 8
  invoke void @"_ZN9grpc_core18EnsureRunInExecCtxIZN17grpc_event_engine12experimental17PosixEndpointImpl10HandleReadEN4absl12lts_202308026StatusEE3$_0EEvT_"(ptr noundef byval(%class.anon.36) align 8 %agg.tmp)
          to label %invoke.cont unwind label %lpad

invoke.cont:                                      ; preds = %entry
  %4 = load i8, ptr %ret, align 1
  %tobool = trunc i8 %4 to i1
  br i1 %tobool, label %if.end, label %if.then

if.then:                                          ; preds = %invoke.cont
  %handle_ = getelementptr inbounds %"class.grpc_event_engine::experimental::PosixEndpointImpl", ptr %this1, i32 0, i32 41
  %5 = load ptr, ptr %handle_, align 8
  %on_read_ = getelementptr inbounds %"class.grpc_event_engine::experimental::PosixEndpointImpl", ptr %this1, i32 0, i32 18
  %6 = load ptr, ptr %on_read_, align 8
  %vtable = load ptr, ptr %5, align 8
  %vfn = getelementptr inbounds ptr, ptr %vtable, i64 3
  %7 = load ptr, ptr %vfn, align 8
  invoke void %7(ptr noundef nonnull align 8 dereferenceable(8) %5, ptr noundef %6)
          to label %invoke.cont2 unwind label %lpad

invoke.cont2:                                     ; preds = %if.then
  store i32 1, ptr %cleanup.dest.slot, align 4
  br label %cleanup

lpad:                                             ; preds = %invoke.cont6, %if.end, %if.then, %entry
  %8 = landingpad { ptr, i32 }
          cleanup
  %9 = extractvalue { ptr, i32 } %8, 0
  store ptr %9, ptr %exn.slot, align 8
  %10 = extractvalue { ptr, i32 } %8, 1
  store i32 %10, ptr %ehselector.slot, align 4
  br label %ehcleanup

if.end:                                           ; preds = %invoke.cont
  invoke void @_ZN4absl12lts_202308026StatusC2ERKS1_(ptr noundef nonnull align 8 dereferenceable(8) %agg.tmp3, ptr noundef nonnull align 8 dereferenceable(8) %status)
          to label %invoke.cont4 unwind label %lpad

invoke.cont4:                                     ; preds = %if.end
  invoke void @_ZN4absl12lts_2023080222internal_any_invocable4ImplIFvNS0_6StatusEEEclES3_(ptr noundef nonnull align 16 dereferenceable(32) %cb, ptr noundef %agg.tmp3)
          to label %invoke.cont6 unwind label %lpad5

invoke.cont6:                                     ; preds = %invoke.cont4
  call void @_ZN4absl12lts_202308026StatusD2Ev(ptr noundef nonnull align 8 dereferenceable(8) %agg.tmp3) #3
  invoke void @_ZNK9grpc_core10RefCountedIN17grpc_event_engine12experimental17PosixEndpointImplENS_19PolymorphicRefCountENS_11UnrefDeleteEE5UnrefEv(ptr noundef nonnull align 8 dereferenceable(16) %this1)
          to label %invoke.cont7 unwind label %lpad

invoke.cont7:                                     ; preds = %invoke.cont6
  store i32 0, ptr %cleanup.dest.slot, align 4
  br label %cleanup

cleanup:                                          ; preds = %invoke.cont7, %invoke.cont2
  call void @_ZN4absl12lts_2023080212AnyInvocableIFvNS0_6StatusEEED2Ev(ptr noundef nonnull align 16 dereferenceable(32) %cb) #3
  %cleanup.dest = load i32, ptr %cleanup.dest.slot, align 4
  switch i32 %cleanup.dest, label %unreachable [
    i32 0, label %cleanup.cont
    i32 1, label %cleanup.cont
  ]

cleanup.cont:                                     ; preds = %cleanup, %cleanup
  ret void

lpad5:                                            ; preds = %invoke.cont4
  %11 = landingpad { ptr, i32 }
          cleanup
  %12 = extractvalue { ptr, i32 } %11, 0
  store ptr %12, ptr %exn.slot, align 8
  %13 = extractvalue { ptr, i32 } %11, 1
  store i32 %13, ptr %ehselector.slot, align 4
  call void @_ZN4absl12lts_202308026StatusD2Ev(ptr noundef nonnull align 8 dereferenceable(8) %agg.tmp3) #3
  br label %ehcleanup

ehcleanup:                                        ; preds = %lpad5, %lpad
  call void @_ZN4absl12lts_2023080212AnyInvocableIFvNS0_6StatusEEED2Ev(ptr noundef nonnull align 16 dereferenceable(32) %cb) #3
  br label %eh.resume

eh.resume:                                        ; preds = %ehcleanup
  %exn = load ptr, ptr %exn.slot, align 8
  %sel = load i32, ptr %ehselector.slot, align 4
  %lpad.val = insertvalue { ptr, i32 } poison, ptr %exn, 0
  %lpad.val8 = insertvalue { ptr, i32 } %lpad.val, i32 %sel, 1
  resume { ptr, i32 } %lpad.val8

unreachable:                                      ; preds = %cleanup
  unreachable
}

; Function Attrs: mustprogress nounwind uwtable
define linkonce_odr void @_ZN4absl12lts_2023080212AnyInvocableIFvNS0_6StatusEEEC2EDn(ptr noundef nonnull align 16 dereferenceable(32) %this, ptr %0) unnamed_addr #5 comdat align 2 {
entry:
  %this.addr = alloca ptr, align 8
  %.addr = alloca ptr, align 8
  store ptr %this, ptr %this.addr, align 8
  store ptr %0, ptr %.addr, align 8
  %this1 = load ptr, ptr %this.addr, align 8
  call void @_ZN4absl12lts_2023080222internal_any_invocable4ImplIFvNS0_6StatusEEEC2Ev(ptr noundef nonnull align 16 dereferenceable(32) %this1) #3
  ret void
}

; Function Attrs: mustprogress uwtable
define internal void @"_ZN9grpc_core18EnsureRunInExecCtxIZN17grpc_event_engine12experimental17PosixEndpointImpl10HandleReadEN4absl12lts_202308026StatusEE3$_0EEvT_"(ptr noundef byval(%class.anon.36) align 8 %f) #4 personality ptr @__gxx_personality_v0 {
entry:
  %app_ctx = alloca %"class.grpc_core::ApplicationCallbackExecCtx", align 8
  %exec_ctx = alloca %"class.grpc_core::ExecCtx", align 8
  %exn.slot = alloca ptr, align 8
  %ehselector.slot = alloca i32, align 4
  %call = call noundef ptr @_ZN9grpc_core7ExecCtx3GetEv()
  %cmp = icmp eq ptr %call, null
  br i1 %cmp, label %if.then, label %if.else

if.then:                                          ; preds = %entry
  call void @_ZN9grpc_core26ApplicationCallbackExecCtxC2Ev(ptr noundef nonnull align 8 dereferenceable(24) %app_ctx)
  invoke void @_ZN9grpc_core7ExecCtxC2Ev(ptr noundef nonnull align 8 dereferenceable(88) %exec_ctx)
          to label %invoke.cont unwind label %lpad

invoke.cont:                                      ; preds = %if.then
  invoke void @"_ZZN17grpc_event_engine12experimental17PosixEndpointImpl10HandleReadEN4absl12lts_202308026StatusEEN3$_0clEv"(ptr noundef nonnull align 8 dereferenceable(32) %f)
          to label %invoke.cont2 unwind label %lpad1

invoke.cont2:                                     ; preds = %invoke.cont
  call void @_ZN9grpc_core7ExecCtxD2Ev(ptr noundef nonnull align 8 dereferenceable(88) %exec_ctx) #3
  call void @_ZN9grpc_core26ApplicationCallbackExecCtxD2Ev(ptr noundef nonnull align 8 dereferenceable(24) %app_ctx) #3
  br label %if.end

lpad:                                             ; preds = %if.then
  %0 = landingpad { ptr, i32 }
          cleanup
  %1 = extractvalue { ptr, i32 } %0, 0
  store ptr %1, ptr %exn.slot, align 8
  %2 = extractvalue { ptr, i32 } %0, 1
  store i32 %2, ptr %ehselector.slot, align 4
  br label %ehcleanup

lpad1:                                            ; preds = %invoke.cont
  %3 = landingpad { ptr, i32 }
          cleanup
  %4 = extractvalue { ptr, i32 } %3, 0
  store ptr %4, ptr %exn.slot, align 8
  %5 = extractvalue { ptr, i32 } %3, 1
  store i32 %5, ptr %ehselector.slot, align 4
  call void @_ZN9grpc_core7ExecCtxD2Ev(ptr noundef nonnull align 8 dereferenceable(88) %exec_ctx) #3
  br label %ehcleanup

ehcleanup:                                        ; preds = %lpad1, %lpad
  call void @_ZN9grpc_core26ApplicationCallbackExecCtxD2Ev(ptr noundef nonnull align 8 dereferenceable(24) %app_ctx) #3
  br label %eh.resume

if.else:                                          ; preds = %entry
  call void @"_ZZN17grpc_event_engine12experimental17PosixEndpointImpl10HandleReadEN4absl12lts_202308026StatusEEN3$_0clEv"(ptr noundef nonnull align 8 dereferenceable(32) %f)
  br label %if.end

if.end:                                           ; preds = %if.else, %invoke.cont2
  ret void

eh.resume:                                        ; preds = %ehcleanup
  %exn = load ptr, ptr %exn.slot, align 8
  %sel = load i32, ptr %ehselector.slot, align 4
  %lpad.val = insertvalue { ptr, i32 } poison, ptr %exn, 0
  %lpad.val3 = insertvalue { ptr, i32 } %lpad.val, i32 %sel, 1
  resume { ptr, i32 } %lpad.val3
}

; Function Attrs: mustprogress uwtable
define linkonce_odr void @_ZN4absl12lts_2023080222internal_any_invocable4ImplIFvNS0_6StatusEEEclES3_(ptr noundef nonnull align 16 dereferenceable(32) %this, ptr noundef %args) #4 comdat align 2 {
entry:
  %this.addr = alloca ptr, align 8
  %args.indirect_addr = alloca ptr, align 8
  store ptr %this, ptr %this.addr, align 8
  store ptr %args, ptr %args.indirect_addr, align 8
  %this1 = load ptr, ptr %this.addr, align 8
  %call = call noundef ptr @_ZN4absl12lts_2023080222internal_any_invocable4ImplIFvNS0_6StatusEEE14ExtractInvokerEv(ptr noundef nonnull align 16 dereferenceable(32) %this1)
  %state_ = getelementptr inbounds %"class.absl::lts_20230802::internal_any_invocable::CoreImpl", ptr %this1, i32 0, i32 0
  call void %call(ptr noundef %state_, ptr noundef nonnull align 8 dereferenceable(8) %args)
  ret void
}

; Function Attrs: mustprogress uwtable
define linkonce_odr void @_ZN4absl12lts_202308026StatusC2ERKS1_(ptr noundef nonnull align 8 dereferenceable(8) %this, ptr noundef nonnull align 8 dereferenceable(8) %x) unnamed_addr #4 comdat align 2 {
entry:
  %this.addr = alloca ptr, align 8
  %x.addr = alloca ptr, align 8
  store ptr %this, ptr %this.addr, align 8
  store ptr %x, ptr %x.addr, align 8
  %this1 = load ptr, ptr %this.addr, align 8
  %rep_ = getelementptr inbounds %"class.absl::lts_20230802::Status", ptr %this1, i32 0, i32 0
  %0 = load ptr, ptr %x.addr, align 8
  %rep_2 = getelementptr inbounds %"class.absl::lts_20230802::Status", ptr %0, i32 0, i32 0
  %1 = load i64, ptr %rep_2, align 8
  store i64 %1, ptr %rep_, align 8
  %rep_3 = getelementptr inbounds %"class.absl::lts_20230802::Status", ptr %this1, i32 0, i32 0
  %2 = load i64, ptr %rep_3, align 8
  call void @_ZN4absl12lts_202308026Status3RefEm(i64 noundef %2)
  ret void
}

; Function Attrs: mustprogress uwtable
define linkonce_odr void @_ZNK9grpc_core10RefCountedIN17grpc_event_engine12experimental17PosixEndpointImplENS_19PolymorphicRefCountENS_11UnrefDeleteEE5UnrefEv(ptr noundef nonnull align 8 dereferenceable(16) %this) #4 comdat align 2 {
entry:
  %this.addr = alloca ptr, align 8
  store ptr %this, ptr %this.addr, align 8
  %this1 = load ptr, ptr %this.addr, align 8
  %refs_ = getelementptr inbounds %"class.grpc_core::RefCounted", ptr %this1, i32 0, i32 1
  %call = call noundef zeroext i1 @_ZN9grpc_core8RefCount5UnrefEv(ptr noundef nonnull align 8 dereferenceable(8) %refs_)
  br i1 %call, label %if.then, label %if.end

if.then:                                          ; preds = %entry
  call void @_ZNK9grpc_core11UnrefDeleteclIKN17grpc_event_engine12experimental17PosixEndpointImplEEEvPT_(ptr noundef nonnull align 1 dereferenceable(1) %this1, ptr noundef %this1)
  br label %if.end

if.end:                                           ; preds = %if.then, %entry
  ret void
}

; Function Attrs: mustprogress nounwind uwtable
define linkonce_odr void @_ZN4absl12lts_2023080212AnyInvocableIFvNS0_6StatusEEED2Ev(ptr noundef nonnull align 16 dereferenceable(32) %this) unnamed_addr #5 comdat align 2 {
entry:
  %this.addr = alloca ptr, align 8
  store ptr %this, ptr %this.addr, align 8
  %this1 = load ptr, ptr %this.addr, align 8
  call void @_ZN4absl12lts_2023080222internal_any_invocable4ImplIFvNS0_6StatusEEED2Ev(ptr noundef nonnull align 16 dereferenceable(32) %this1) #3
  ret void
}

; Function Attrs: mustprogress uwtable
define noundef zeroext i1 @_ZN17grpc_event_engine12experimental17PosixEndpointImpl4ReadEN4absl12lts_2023080212AnyInvocableIFvNS3_6StatusEEEEPNS0_11SliceBufferEPKNS0_11EventEngine8Endpoint8ReadArgsE(ptr noundef nonnull align 16 dereferenceable(936) %this, ptr noundef %on_read, ptr noundef %buffer, ptr noundef %args) #4 align 2 personality ptr @__gxx_personality_v0 {
entry:
  %retval = alloca i1, align 1
  %this.addr = alloca ptr, align 8
  %on_read.indirect_addr = alloca ptr, align 8
  %buffer.addr = alloca ptr, align 8
  %args.addr = alloca ptr, align 8
  %lock = alloca %"class.absl::lts_20230802::ReleasableMutexLock", align 8
  %exn.slot = alloca ptr, align 8
  %ehselector.slot = alloca i32, align 4
  %ref.tmp = alloca i32, align 4
  %ref.tmp9 = alloca i32, align 4
  %ref.tmp14 = alloca %"class.grpc_core::RefCountedPtr", align 8
  %status = alloca %"class.absl::lts_20230802::Status", align 8
  %cleanup.dest.slot = alloca i32, align 4
  %agg.tmp = alloca %"class.absl::lts_20230802::AnyInvocable.37", align 16
  %ref.tmp60 = alloca %class.anon.40, align 16
  store ptr %this, ptr %this.addr, align 8
  store ptr %on_read, ptr %on_read.indirect_addr, align 8
  store ptr %buffer, ptr %buffer.addr, align 8
  store ptr %args, ptr %args.addr, align 8
  %this1 = load ptr, ptr %this.addr, align 8
  %read_mu_ = getelementptr inbounds %"class.grpc_event_engine::experimental::PosixEndpointImpl", ptr %this1, i32 0, i32 1
  call void @_ZN4absl12lts_2023080219ReleasableMutexLockC2EPNS0_5MutexE(ptr noundef nonnull align 8 dereferenceable(8) %lock, ptr noundef %read_mu_)
  br label %do.body

do.body:                                          ; preds = %entry
  %read_cb_ = getelementptr inbounds %"class.grpc_event_engine::experimental::PosixEndpointImpl", ptr %this1, i32 0, i32 23
  %call = call noundef zeroext i1 @_ZN4absl12lts_20230802eqERKNS0_12AnyInvocableIFvNS0_6StatusEEEEDn(ptr noundef nonnull align 16 dereferenceable(32) %read_cb_, ptr null) #3
  %lnot = xor i1 %call, true
  br i1 %lnot, label %if.then, label %if.end

if.then:                                          ; preds = %do.body
  invoke void @gpr_assertion_failed(ptr noundef @.str.1, i32 noundef 596, ptr noundef @.str.9) #22
          to label %invoke.cont unwind label %lpad

invoke.cont:                                      ; preds = %if.then
  unreachable

lpad:                                             ; preds = %if.else38, %invoke.cont32, %invoke.cont31, %if.then28, %invoke.cont24, %invoke.cont22, %if.then19, %if.end13, %if.then8, %land.lhs.true, %invoke.cont3, %do.end, %if.then
  %0 = landingpad { ptr, i32 }
          cleanup
  %1 = extractvalue { ptr, i32 } %0, 0
  store ptr %1, ptr %exn.slot, align 8
  %2 = extractvalue { ptr, i32 } %0, 1
  store i32 %2, ptr %ehselector.slot, align 4
  br label %ehcleanup77

if.end:                                           ; preds = %do.body
  br label %do.cond

do.cond:                                          ; preds = %if.end
  br label %do.end

do.end:                                           ; preds = %do.cond
  %3 = load ptr, ptr %buffer.addr, align 8
  %incoming_buffer_ = getelementptr inbounds %"class.grpc_event_engine::experimental::PosixEndpointImpl", ptr %this1, i32 0, i32 13
  store ptr %3, ptr %incoming_buffer_, align 8
  %incoming_buffer_2 = getelementptr inbounds %"class.grpc_event_engine::experimental::PosixEndpointImpl", ptr %this1, i32 0, i32 13
  %4 = load ptr, ptr %incoming_buffer_2, align 8
  invoke void @_ZN17grpc_event_engine12experimental11SliceBuffer5ClearEv(ptr noundef nonnull align 8 dereferenceable(264) %4)
          to label %invoke.cont3 unwind label %lpad

invoke.cont3:                                     ; preds = %do.end
  %incoming_buffer_4 = getelementptr inbounds %"class.grpc_event_engine::experimental::PosixEndpointImpl", ptr %this1, i32 0, i32 13
  %5 = load ptr, ptr %incoming_buffer_4, align 8
  %last_read_buffer_ = getelementptr inbounds %"class.grpc_event_engine::experimental::PosixEndpointImpl", ptr %this1, i32 0, i32 12
  invoke void @_ZN17grpc_event_engine12experimental11SliceBuffer4SwapERS1_(ptr noundef nonnull align 8 dereferenceable(264) %5, ptr noundef nonnull align 8 dereferenceable(264) %last_read_buffer_)
          to label %invoke.cont5 unwind label %lpad

invoke.cont5:                                     ; preds = %invoke.cont3
  %6 = load ptr, ptr %args.addr, align 8
  %cmp = icmp ne ptr %6, null
  br i1 %cmp, label %land.lhs.true, label %if.else

land.lhs.true:                                    ; preds = %invoke.cont5
  %call7 = invoke noundef zeroext i1 @_ZN9grpc_core27IsTcpFrameSizeTuningEnabledEv()
          to label %invoke.cont6 unwind label %lpad

invoke.cont6:                                     ; preds = %land.lhs.true
  br i1 %call7, label %if.then8, label %if.else

if.then8:                                         ; preds = %invoke.cont6
  %7 = load ptr, ptr %args.addr, align 8
  %read_hint_bytes = getelementptr inbounds %"struct.grpc_event_engine::experimental::EventEngine::Endpoint::ReadArgs", ptr %7, i32 0, i32 0
  %8 = load i64, ptr %read_hint_bytes, align 8
  %conv = trunc i64 %8 to i32
  store i32 %conv, ptr %ref.tmp, align 4
  store i32 1, ptr %ref.tmp9, align 4
  %call11 = invoke noundef nonnull align 4 dereferenceable(4) ptr @_ZSt3maxIiERKT_S2_S2_(ptr noundef nonnull align 4 dereferenceable(4) %ref.tmp, ptr noundef nonnull align 4 dereferenceable(4) %ref.tmp9)
          to label %invoke.cont10 unwind label %lpad

invoke.cont10:                                    ; preds = %if.then8
  %9 = load i32, ptr %call11, align 4
  %min_progress_size_ = getelementptr inbounds %"class.grpc_event_engine::experimental::PosixEndpointImpl", ptr %this1, i32 0, i32 39
  store i32 %9, ptr %min_progress_size_, align 8
  br label %if.end13

if.else:                                          ; preds = %invoke.cont6, %invoke.cont5
  %min_progress_size_12 = getelementptr inbounds %"class.grpc_event_engine::experimental::PosixEndpointImpl", ptr %this1, i32 0, i32 39
  store i32 1, ptr %min_progress_size_12, align 8
  br label %if.end13

if.end13:                                         ; preds = %if.else, %invoke.cont10
  invoke void @_ZN9grpc_core10RefCountedIN17grpc_event_engine12experimental17PosixEndpointImplENS_19PolymorphicRefCountENS_11UnrefDeleteEE3RefEv(ptr sret(%"class.grpc_core::RefCountedPtr") align 8 %ref.tmp14, ptr noundef nonnull align 8 dereferenceable(16) %this1)
          to label %invoke.cont15 unwind label %lpad

invoke.cont15:                                    ; preds = %if.end13
  %call18 = invoke noundef ptr @_ZN9grpc_core13RefCountedPtrIN17grpc_event_engine12experimental17PosixEndpointImplEE7releaseEv(ptr noundef nonnull align 8 dereferenceable(8) %ref.tmp14)
          to label %invoke.cont17 unwind label %lpad16

invoke.cont17:                                    ; preds = %invoke.cont15
  call void @_ZN9grpc_core13RefCountedPtrIN17grpc_event_engine12experimental17PosixEndpointImplEED2Ev(ptr noundef nonnull align 8 dereferenceable(8) %ref.tmp14) #3
  %is_first_read_ = getelementptr inbounds %"class.grpc_event_engine::experimental::PosixEndpointImpl", ptr %this1, i32 0, i32 4
  %10 = load i8, ptr %is_first_read_, align 16
  %tobool = trunc i8 %10 to i1
  br i1 %tobool, label %if.then19, label %if.else26

if.then19:                                        ; preds = %invoke.cont17
  %read_cb_20 = getelementptr inbounds %"class.grpc_event_engine::experimental::PosixEndpointImpl", ptr %this1, i32 0, i32 23
  %call21 = call noundef nonnull align 16 dereferenceable(32) ptr @_ZN4absl12lts_2023080212AnyInvocableIFvNS0_6StatusEEEaSEOS4_(ptr noundef nonnull align 16 dereferenceable(32) %read_cb_20, ptr noundef nonnull align 16 dereferenceable(32) %on_read) #3
  invoke void @_ZN17grpc_event_engine12experimental17PosixEndpointImpl14UpdateRcvLowatEv(ptr noundef nonnull align 16 dereferenceable(936) %this1)
          to label %invoke.cont22 unwind label %lpad

invoke.cont22:                                    ; preds = %if.then19
  %is_first_read_23 = getelementptr inbounds %"class.grpc_event_engine::experimental::PosixEndpointImpl", ptr %this1, i32 0, i32 4
  store i8 0, ptr %is_first_read_23, align 16
  invoke void @_ZN4absl12lts_2023080219ReleasableMutexLock7ReleaseEv(ptr noundef nonnull align 8 dereferenceable(8) %lock)
          to label %invoke.cont24 unwind label %lpad

invoke.cont24:                                    ; preds = %invoke.cont22
  %handle_ = getelementptr inbounds %"class.grpc_event_engine::experimental::PosixEndpointImpl", ptr %this1, i32 0, i32 41
  %11 = load ptr, ptr %handle_, align 8
  %on_read_ = getelementptr inbounds %"class.grpc_event_engine::experimental::PosixEndpointImpl", ptr %this1, i32 0, i32 18
  %12 = load ptr, ptr %on_read_, align 8
  %vtable = load ptr, ptr %11, align 8
  %vfn = getelementptr inbounds ptr, ptr %vtable, i64 3
  %13 = load ptr, ptr %vfn, align 8
  invoke void %13(ptr noundef nonnull align 8 dereferenceable(8) %11, ptr noundef %12)
          to label %invoke.cont25 unwind label %lpad

invoke.cont25:                                    ; preds = %invoke.cont24
  br label %if.end75

lpad16:                                           ; preds = %invoke.cont15
  %14 = landingpad { ptr, i32 }
          cleanup
  %15 = extractvalue { ptr, i32 } %14, 0
  store ptr %15, ptr %exn.slot, align 8
  %16 = extractvalue { ptr, i32 } %14, 1
  store i32 %16, ptr %ehselector.slot, align 4
  call void @_ZN9grpc_core13RefCountedPtrIN17grpc_event_engine12experimental17PosixEndpointImplEED2Ev(ptr noundef nonnull align 8 dereferenceable(8) %ref.tmp14) #3
  br label %ehcleanup77

if.else26:                                        ; preds = %invoke.cont17
  %inq_ = getelementptr inbounds %"class.grpc_event_engine::experimental::PosixEndpointImpl", ptr %this1, i32 0, i32 14
  %17 = load i32, ptr %inq_, align 16
  %cmp27 = icmp eq i32 %17, 0
  br i1 %cmp27, label %if.then28, label %if.else38

if.then28:                                        ; preds = %if.else26
  %read_cb_29 = getelementptr inbounds %"class.grpc_event_engine::experimental::PosixEndpointImpl", ptr %this1, i32 0, i32 23
  %call30 = call noundef nonnull align 16 dereferenceable(32) ptr @_ZN4absl12lts_2023080212AnyInvocableIFvNS0_6StatusEEEaSEOS4_(ptr noundef nonnull align 16 dereferenceable(32) %read_cb_29, ptr noundef nonnull align 16 dereferenceable(32) %on_read) #3
  invoke void @_ZN17grpc_event_engine12experimental17PosixEndpointImpl14UpdateRcvLowatEv(ptr noundef nonnull align 16 dereferenceable(936) %this1)
          to label %invoke.cont31 unwind label %lpad

invoke.cont31:                                    ; preds = %if.then28
  invoke void @_ZN4absl12lts_2023080219ReleasableMutexLock7ReleaseEv(ptr noundef nonnull align 8 dereferenceable(8) %lock)
          to label %invoke.cont32 unwind label %lpad

invoke.cont32:                                    ; preds = %invoke.cont31
  %handle_33 = getelementptr inbounds %"class.grpc_event_engine::experimental::PosixEndpointImpl", ptr %this1, i32 0, i32 41
  %18 = load ptr, ptr %handle_33, align 8
  %on_read_34 = getelementptr inbounds %"class.grpc_event_engine::experimental::PosixEndpointImpl", ptr %this1, i32 0, i32 18
  %19 = load ptr, ptr %on_read_34, align 8
  %vtable35 = load ptr, ptr %18, align 8
  %vfn36 = getelementptr inbounds ptr, ptr %vtable35, i64 3
  %20 = load ptr, ptr %vfn36, align 8
  invoke void %20(ptr noundef nonnull align 8 dereferenceable(8) %18, ptr noundef %19)
          to label %invoke.cont37 unwind label %lpad

invoke.cont37:                                    ; preds = %invoke.cont32
  br label %if.end74

if.else38:                                        ; preds = %if.else26
  invoke void @_ZN4absl12lts_202308026StatusC2Ev(ptr noundef nonnull align 8 dereferenceable(8) %status)
          to label %invoke.cont39 unwind label %lpad

invoke.cont39:                                    ; preds = %if.else38
  invoke void @_ZN17grpc_event_engine12experimental17PosixEndpointImpl19MaybeMakeReadSlicesEv(ptr noundef nonnull align 16 dereferenceable(936) %this1)
          to label %invoke.cont41 unwind label %lpad40

invoke.cont41:                                    ; preds = %invoke.cont39
  %call43 = invoke noundef zeroext i1 @_ZN17grpc_event_engine12experimental17PosixEndpointImpl9TcpDoReadERN4absl12lts_202308026StatusE(ptr noundef nonnull align 16 dereferenceable(936) %this1, ptr noundef nonnull align 8 dereferenceable(8) %status)
          to label %invoke.cont42 unwind label %lpad40

invoke.cont42:                                    ; preds = %invoke.cont41
  br i1 %call43, label %if.end54, label %if.then44

if.then44:                                        ; preds = %invoke.cont42
  invoke void @_ZN17grpc_event_engine12experimental17PosixEndpointImpl14UpdateRcvLowatEv(ptr noundef nonnull align 16 dereferenceable(936) %this1)
          to label %invoke.cont45 unwind label %lpad40

invoke.cont45:                                    ; preds = %if.then44
  %read_cb_46 = getelementptr inbounds %"class.grpc_event_engine::experimental::PosixEndpointImpl", ptr %this1, i32 0, i32 23
  %call47 = call noundef nonnull align 16 dereferenceable(32) ptr @_ZN4absl12lts_2023080212AnyInvocableIFvNS0_6StatusEEEaSEOS4_(ptr noundef nonnull align 16 dereferenceable(32) %read_cb_46, ptr noundef nonnull align 16 dereferenceable(32) %on_read) #3
  invoke void @_ZN4absl12lts_2023080219ReleasableMutexLock7ReleaseEv(ptr noundef nonnull align 8 dereferenceable(8) %lock)
          to label %invoke.cont48 unwind label %lpad40

invoke.cont48:                                    ; preds = %invoke.cont45
  %handle_49 = getelementptr inbounds %"class.grpc_event_engine::experimental::PosixEndpointImpl", ptr %this1, i32 0, i32 41
  %21 = load ptr, ptr %handle_49, align 8
  %on_read_50 = getelementptr inbounds %"class.grpc_event_engine::experimental::PosixEndpointImpl", ptr %this1, i32 0, i32 18
  %22 = load ptr, ptr %on_read_50, align 8
  %vtable51 = load ptr, ptr %21, align 8
  %vfn52 = getelementptr inbounds ptr, ptr %vtable51, i64 3
  %23 = load ptr, ptr %vfn52, align 8
  invoke void %23(ptr noundef nonnull align 8 dereferenceable(8) %21, ptr noundef %22)
          to label %invoke.cont53 unwind label %lpad40

invoke.cont53:                                    ; preds = %invoke.cont48
  store i1 false, ptr %retval, align 1
  store i32 1, ptr %cleanup.dest.slot, align 4
  br label %cleanup

lpad40:                                           ; preds = %if.end70, %invoke.cont68, %if.then57, %if.end54, %invoke.cont48, %invoke.cont45, %if.then44, %invoke.cont41, %invoke.cont39
  %24 = landingpad { ptr, i32 }
          cleanup
  %25 = extractvalue { ptr, i32 } %24, 0
  store ptr %25, ptr %exn.slot, align 8
  %26 = extractvalue { ptr, i32 } %24, 1
  store i32 %26, ptr %ehselector.slot, align 4
  br label %ehcleanup73

if.end54:                                         ; preds = %invoke.cont42
  %call56 = invoke noundef zeroext i1 @_ZNK4absl12lts_202308026Status2okEv(ptr noundef nonnull align 8 dereferenceable(8) %status)
          to label %invoke.cont55 unwind label %lpad40

invoke.cont55:                                    ; preds = %if.end54
  br i1 %call56, label %if.end70, label %if.then57

if.then57:                                        ; preds = %invoke.cont55
  invoke void @_ZN4absl12lts_2023080219ReleasableMutexLock7ReleaseEv(ptr noundef nonnull align 8 dereferenceable(8) %lock)
          to label %invoke.cont58 unwind label %lpad40

invoke.cont58:                                    ; preds = %if.then57
  %engine_ = getelementptr inbounds %"class.grpc_event_engine::experimental::PosixEndpointImpl", ptr %this1, i32 0, i32 43
  %call59 = call noundef ptr @_ZNKSt19__shared_ptr_accessIN17grpc_event_engine12experimental11EventEngineELN9__gnu_cxx12_Lock_policyE2ELb0ELb0EEptEv(ptr noundef nonnull align 1 dereferenceable(1) %engine_) #3
  %27 = getelementptr inbounds %class.anon.40, ptr %ref.tmp60, i32 0, i32 0
  call void @_ZN4absl12lts_2023080212AnyInvocableIFvNS0_6StatusEEEC2EOS4_(ptr noundef nonnull align 16 dereferenceable(32) %27, ptr noundef nonnull align 16 dereferenceable(32) %on_read) #3
  %28 = getelementptr inbounds %class.anon.40, ptr %ref.tmp60, i32 0, i32 1
  invoke void @_ZN4absl12lts_202308026StatusC2ERKS1_(ptr noundef nonnull align 8 dereferenceable(8) %28, ptr noundef nonnull align 8 dereferenceable(8) %status)
          to label %invoke.cont62 unwind label %lpad61

invoke.cont62:                                    ; preds = %invoke.cont58
  invoke void @"_ZN4absl12lts_2023080212AnyInvocableIFvvEEC2IZN17grpc_event_engine12experimental17PosixEndpointImpl4ReadENS1_IFvNS0_6StatusEEEEPNS6_11SliceBufferEPKNS6_11EventEngine8Endpoint8ReadArgsEE3$_0vEEOT_"(ptr noundef nonnull align 16 dereferenceable(32) %agg.tmp, ptr noundef nonnull align 16 dereferenceable(40) %ref.tmp60)
          to label %invoke.cont64 unwind label %lpad63

invoke.cont64:                                    ; preds = %invoke.cont62
  %vtable65 = load ptr, ptr %call59, align 8
  %vfn66 = getelementptr inbounds ptr, ptr %vtable65, i64 8
  %29 = load ptr, ptr %vfn66, align 8
  invoke void %29(ptr noundef nonnull align 8 dereferenceable(24) %call59, ptr noundef %agg.tmp)
          to label %invoke.cont68 unwind label %lpad67

invoke.cont68:                                    ; preds = %invoke.cont64
  call void @_ZN4absl12lts_2023080212AnyInvocableIFvvEED2Ev(ptr noundef nonnull align 16 dereferenceable(32) %agg.tmp) #3
  call void @"_ZZN17grpc_event_engine12experimental17PosixEndpointImpl4ReadEN4absl12lts_2023080212AnyInvocableIFvNS3_6StatusEEEEPNS0_11SliceBufferEPKNS0_11EventEngine8Endpoint8ReadArgsEEN3$_0D2Ev"(ptr noundef nonnull align 16 dereferenceable(40) %ref.tmp60) #3
  invoke void @_ZNK9grpc_core10RefCountedIN17grpc_event_engine12experimental17PosixEndpointImplENS_19PolymorphicRefCountENS_11UnrefDeleteEE5UnrefEv(ptr noundef nonnull align 8 dereferenceable(16) %this1)
          to label %invoke.cont69 unwind label %lpad40

invoke.cont69:                                    ; preds = %invoke.cont68
  store i1 false, ptr %retval, align 1
  store i32 1, ptr %cleanup.dest.slot, align 4
  br label %cleanup

lpad61:                                           ; preds = %invoke.cont58
  %30 = landingpad { ptr, i32 }
          cleanup
  %31 = extractvalue { ptr, i32 } %30, 0
  store ptr %31, ptr %exn.slot, align 8
  %32 = extractvalue { ptr, i32 } %30, 1
  store i32 %32, ptr %ehselector.slot, align 4
  call void @_ZN4absl12lts_2023080212AnyInvocableIFvNS0_6StatusEEED2Ev(ptr noundef nonnull align 16 dereferenceable(32) %27) #3
  br label %ehcleanup73

lpad63:                                           ; preds = %invoke.cont62
  %33 = landingpad { ptr, i32 }
          cleanup
  %34 = extractvalue { ptr, i32 } %33, 0
  store ptr %34, ptr %exn.slot, align 8
  %35 = extractvalue { ptr, i32 } %33, 1
  store i32 %35, ptr %ehselector.slot, align 4
  br label %ehcleanup

lpad67:                                           ; preds = %invoke.cont64
  %36 = landingpad { ptr, i32 }
          cleanup
  %37 = extractvalue { ptr, i32 } %36, 0
  store ptr %37, ptr %exn.slot, align 8
  %38 = extractvalue { ptr, i32 } %36, 1
  store i32 %38, ptr %ehselector.slot, align 4
  call void @_ZN4absl12lts_2023080212AnyInvocableIFvvEED2Ev(ptr noundef nonnull align 16 dereferenceable(32) %agg.tmp) #3
  br label %ehcleanup

ehcleanup:                                        ; preds = %lpad67, %lpad63
  call void @"_ZZN17grpc_event_engine12experimental17PosixEndpointImpl4ReadEN4absl12lts_2023080212AnyInvocableIFvNS3_6StatusEEEEPNS0_11SliceBufferEPKNS0_11EventEngine8Endpoint8ReadArgsEEN3$_0D2Ev"(ptr noundef nonnull align 16 dereferenceable(40) %ref.tmp60) #3
  br label %ehcleanup73

if.end70:                                         ; preds = %invoke.cont55
  %incoming_buffer_71 = getelementptr inbounds %"class.grpc_event_engine::experimental::PosixEndpointImpl", ptr %this1, i32 0, i32 13
  store ptr null, ptr %incoming_buffer_71, align 8
  invoke void @_ZNK9grpc_core10RefCountedIN17grpc_event_engine12experimental17PosixEndpointImplENS_19PolymorphicRefCountENS_11UnrefDeleteEE5UnrefEv(ptr noundef nonnull align 8 dereferenceable(16) %this1)
          to label %invoke.cont72 unwind label %lpad40

invoke.cont72:                                    ; preds = %if.end70
  store i1 true, ptr %retval, align 1
  store i32 1, ptr %cleanup.dest.slot, align 4
  br label %cleanup

cleanup:                                          ; preds = %invoke.cont72, %invoke.cont69, %invoke.cont53
  call void @_ZN4absl12lts_202308026StatusD2Ev(ptr noundef nonnull align 8 dereferenceable(8) %status) #3
  br label %cleanup76

ehcleanup73:                                      ; preds = %ehcleanup, %lpad61, %lpad40
  call void @_ZN4absl12lts_202308026StatusD2Ev(ptr noundef nonnull align 8 dereferenceable(8) %status) #3
  br label %ehcleanup77

if.end74:                                         ; preds = %invoke.cont37
  br label %if.end75

if.end75:                                         ; preds = %if.end74, %invoke.cont25
  store i1 false, ptr %retval, align 1
  store i32 1, ptr %cleanup.dest.slot, align 4
  br label %cleanup76

cleanup76:                                        ; preds = %if.end75, %cleanup
  call void @_ZN4absl12lts_2023080219ReleasableMutexLockD2Ev(ptr noundef nonnull align 8 dereferenceable(8) %lock) #3
  %39 = load i1, ptr %retval, align 1
  ret i1 %39

ehcleanup77:                                      ; preds = %ehcleanup73, %lpad16, %lpad
  call void @_ZN4absl12lts_2023080219ReleasableMutexLockD2Ev(ptr noundef nonnull align 8 dereferenceable(8) %lock) #3
  br label %eh.resume

eh.resume:                                        ; preds = %ehcleanup77
  %exn = load ptr, ptr %exn.slot, align 8
  %sel = load i32, ptr %ehselector.slot, align 4
  %lpad.val = insertvalue { ptr, i32 } poison, ptr %exn, 0
  %lpad.val78 = insertvalue { ptr, i32 } %lpad.val, i32 %sel, 1
  resume { ptr, i32 } %lpad.val78
}

; Function Attrs: mustprogress uwtable
define linkonce_odr void @_ZN4absl12lts_2023080219ReleasableMutexLockC2EPNS0_5MutexE(ptr noundef nonnull align 8 dereferenceable(8) %this, ptr noundef %mu) unnamed_addr #4 comdat align 2 {
entry:
  %this.addr = alloca ptr, align 8
  %mu.addr = alloca ptr, align 8
  store ptr %this, ptr %this.addr, align 8
  store ptr %mu, ptr %mu.addr, align 8
  %this1 = load ptr, ptr %this.addr, align 8
  %mu_ = getelementptr inbounds %"class.absl::lts_20230802::ReleasableMutexLock", ptr %this1, i32 0, i32 0
  %0 = load ptr, ptr %mu.addr, align 8
  store ptr %0, ptr %mu_, align 8
  %mu_2 = getelementptr inbounds %"class.absl::lts_20230802::ReleasableMutexLock", ptr %this1, i32 0, i32 0
  %1 = load ptr, ptr %mu_2, align 8
  call void @_ZN4absl12lts_202308025Mutex4LockEv(ptr noundef nonnull align 8 dereferenceable(8) %1)
  ret void
}

; Function Attrs: mustprogress nounwind uwtable
define linkonce_odr noundef zeroext i1 @_ZN4absl12lts_20230802eqERKNS0_12AnyInvocableIFvNS0_6StatusEEEEDn(ptr noundef nonnull align 16 dereferenceable(32) %f, ptr %0) #5 comdat personality ptr @__gxx_personality_v0 {
entry:
  %f.addr = alloca ptr, align 8
  %.addr = alloca ptr, align 8
  store ptr %f, ptr %f.addr, align 8
  store ptr %0, ptr %.addr, align 8
  %1 = load ptr, ptr %f.addr, align 8
  %call = invoke noundef zeroext i1 @_ZNK4absl12lts_2023080222internal_any_invocable8CoreImplILb0EvJNS0_6StatusEEE8HasValueEv(ptr noundef nonnull align 16 dereferenceable(32) %1)
          to label %invoke.cont unwind label %terminate.lpad

invoke.cont:                                      ; preds = %entry
  %lnot = xor i1 %call, true
  ret i1 %lnot

terminate.lpad:                                   ; preds = %entry
  %2 = landingpad { ptr, i32 }
          catch ptr null
  %3 = extractvalue { ptr, i32 } %2, 0
  call void @__clang_call_terminate(ptr %3) #23
  unreachable
}

; Function Attrs: mustprogress uwtable
define linkonce_odr void @_ZN9grpc_core10RefCountedIN17grpc_event_engine12experimental17PosixEndpointImplENS_19PolymorphicRefCountENS_11UnrefDeleteEE3RefEv(ptr noalias sret(%"class.grpc_core::RefCountedPtr") align 8 %agg.result, ptr noundef nonnull align 8 dereferenceable(16) %this) #4 comdat align 2 {
entry:
  %result.ptr = alloca ptr, align 8
  %this.addr = alloca ptr, align 8
  store ptr %agg.result, ptr %result.ptr, align 8
  store ptr %this, ptr %this.addr, align 8
  %this1 = load ptr, ptr %this.addr, align 8
  call void @_ZNK9grpc_core10RefCountedIN17grpc_event_engine12experimental17PosixEndpointImplENS_19PolymorphicRefCountENS_11UnrefDeleteEE17IncrementRefCountEv(ptr noundef nonnull align 8 dereferenceable(16) %this1)
  call void @_ZN9grpc_core13RefCountedPtrIN17grpc_event_engine12experimental17PosixEndpointImplEEC2IS3_EEPT_(ptr noundef nonnull align 8 dereferenceable(8) %agg.result, ptr noundef %this1)
  ret void
}

; Function Attrs: mustprogress nounwind uwtable
define linkonce_odr noundef ptr @_ZN9grpc_core13RefCountedPtrIN17grpc_event_engine12experimental17PosixEndpointImplEE7releaseEv(ptr noundef nonnull align 8 dereferenceable(8) %this) #5 comdat align 2 {
entry:
  %this.addr = alloca ptr, align 8
  %ref.tmp = alloca ptr, align 8
  store ptr %this, ptr %this.addr, align 8
  %this1 = load ptr, ptr %this.addr, align 8
  %value_ = getelementptr inbounds %"class.grpc_core::RefCountedPtr", ptr %this1, i32 0, i32 0
  store ptr null, ptr %ref.tmp, align 8
  %call = call noundef ptr @_ZSt8exchangeIPN17grpc_event_engine12experimental17PosixEndpointImplEDnET_RS4_OT0_(ptr noundef nonnull align 8 dereferenceable(8) %value_, ptr noundef nonnull align 8 dereferenceable(8) %ref.tmp) #3
  ret ptr %call
}

; Function Attrs: mustprogress nounwind uwtable
define linkonce_odr void @_ZN9grpc_core13RefCountedPtrIN17grpc_event_engine12experimental17PosixEndpointImplEED2Ev(ptr noundef nonnull align 8 dereferenceable(8) %this) unnamed_addr #5 comdat align 2 personality ptr @__gxx_personality_v0 {
entry:
  %this.addr = alloca ptr, align 8
  store ptr %this, ptr %this.addr, align 8
  %this1 = load ptr, ptr %this.addr, align 8
  %value_ = getelementptr inbounds %"class.grpc_core::RefCountedPtr", ptr %this1, i32 0, i32 0
  %0 = load ptr, ptr %value_, align 8
  %cmp = icmp ne ptr %0, null
  br i1 %cmp, label %if.then, label %if.end

if.then:                                          ; preds = %entry
  %value_2 = getelementptr inbounds %"class.grpc_core::RefCountedPtr", ptr %this1, i32 0, i32 0
  %1 = load ptr, ptr %value_2, align 8
  invoke void @_ZNK9grpc_core10RefCountedIN17grpc_event_engine12experimental17PosixEndpointImplENS_19PolymorphicRefCountENS_11UnrefDeleteEE5UnrefEv(ptr noundef nonnull align 8 dereferenceable(16) %1)
          to label %invoke.cont unwind label %terminate.lpad

invoke.cont:                                      ; preds = %if.then
  br label %if.end

if.end:                                           ; preds = %invoke.cont, %entry
  ret void

terminate.lpad:                                   ; preds = %if.then
  %2 = landingpad { ptr, i32 }
          catch ptr null
  %3 = extractvalue { ptr, i32 } %2, 0
  call void @__clang_call_terminate(ptr %3) #23
  unreachable
}

; Function Attrs: mustprogress nounwind uwtable
define linkonce_odr noundef nonnull align 16 dereferenceable(32) ptr @_ZN4absl12lts_2023080212AnyInvocableIFvNS0_6StatusEEEaSEOS4_(ptr noundef nonnull align 16 dereferenceable(32) %this, ptr noundef nonnull align 16 dereferenceable(32) %0) #5 comdat align 2 {
entry:
  %this.addr = alloca ptr, align 8
  %.addr = alloca ptr, align 8
  store ptr %this, ptr %this.addr, align 8
  store ptr %0, ptr %.addr, align 8
  %this1 = load ptr, ptr %this.addr, align 8
  %1 = load ptr, ptr %.addr, align 8
  %call = call noundef nonnull align 16 dereferenceable(32) ptr @_ZN4absl12lts_2023080222internal_any_invocable4ImplIFvNS0_6StatusEEEaSEOS5_(ptr noundef nonnull align 16 dereferenceable(32) %this1, ptr noundef nonnull align 16 dereferenceable(32) %1) #3
  ret ptr %this1
}

declare void @_ZN4absl12lts_2023080219ReleasableMutexLock7ReleaseEv(ptr noundef nonnull align 8 dereferenceable(8)) #1

; Function Attrs: mustprogress nounwind uwtable
define linkonce_odr void @_ZN4absl12lts_202308026StatusC2Ev(ptr noundef nonnull align 8 dereferenceable(8) %this) unnamed_addr #5 comdat align 2 {
entry:
  %this.addr = alloca ptr, align 8
  store ptr %this, ptr %this.addr, align 8
  %this1 = load ptr, ptr %this.addr, align 8
  %rep_ = getelementptr inbounds %"class.absl::lts_20230802::Status", ptr %this1, i32 0, i32 0
  %call = call noundef i64 @_ZN4absl12lts_202308026Status16CodeToInlinedRepENS0_10StatusCodeE(i32 noundef 0)
  store i64 %call, ptr %rep_, align 8
  ret void
}

; Function Attrs: mustprogress nounwind uwtable
define linkonce_odr noundef ptr @_ZNKSt19__shared_ptr_accessIN17grpc_event_engine12experimental11EventEngineELN9__gnu_cxx12_Lock_policyE2ELb0ELb0EEptEv(ptr noundef nonnull align 1 dereferenceable(1) %this) #5 comdat align 2 {
entry:
  %this.addr = alloca ptr, align 8
  store ptr %this, ptr %this.addr, align 8
  %this1 = load ptr, ptr %this.addr, align 8
  %call = call noundef ptr @_ZNKSt19__shared_ptr_accessIN17grpc_event_engine12experimental11EventEngineELN9__gnu_cxx12_Lock_policyE2ELb0ELb0EE6_M_getEv(ptr noundef nonnull align 1 dereferenceable(1) %this1) #3
  ret ptr %call
}

; Function Attrs: mustprogress nounwind uwtable
define linkonce_odr void @_ZN4absl12lts_2023080212AnyInvocableIFvNS0_6StatusEEEC2EOS4_(ptr noundef nonnull align 16 dereferenceable(32) %this, ptr noundef nonnull align 16 dereferenceable(32) %0) unnamed_addr #5 comdat align 2 {
entry:
  %this.addr = alloca ptr, align 8
  %.addr = alloca ptr, align 8
  store ptr %this, ptr %this.addr, align 8
  store ptr %0, ptr %.addr, align 8
  %this1 = load ptr, ptr %this.addr, align 8
  %1 = load ptr, ptr %.addr, align 8
  call void @_ZN4absl12lts_2023080222internal_any_invocable4ImplIFvNS0_6StatusEEEC2EOS5_(ptr noundef nonnull align 16 dereferenceable(32) %this1, ptr noundef nonnull align 16 dereferenceable(32) %1) #3
  ret void
}

; Function Attrs: mustprogress uwtable
define internal void @"_ZN4absl12lts_2023080212AnyInvocableIFvvEEC2IZN17grpc_event_engine12experimental17PosixEndpointImpl4ReadENS1_IFvNS0_6StatusEEEEPNS6_11SliceBufferEPKNS6_11EventEngine8Endpoint8ReadArgsEE3$_0vEEOT_"(ptr noundef nonnull align 16 dereferenceable(32) %this, ptr noundef nonnull align 16 dereferenceable(40) %f) unnamed_addr #4 align 2 {
entry:
  %this.addr = alloca ptr, align 8
  %f.addr = alloca ptr, align 8
  store ptr %this, ptr %this.addr, align 8
  store ptr %f, ptr %f.addr, align 8
  %this1 = load ptr, ptr %this.addr, align 8
  %0 = load ptr, ptr %f.addr, align 8
  call void @"_ZN4absl12lts_2023080222internal_any_invocable4ImplIFvvEEC2IZN17grpc_event_engine12experimental17PosixEndpointImpl4ReadENS0_12AnyInvocableIFvNS0_6StatusEEEEPNS7_11SliceBufferEPKNS7_11EventEngine8Endpoint8ReadArgsEE3$_0EENS1_19ConversionConstructEOT_"(ptr noundef nonnull align 16 dereferenceable(32) %this1, ptr noundef nonnull align 16 dereferenceable(40) %0)
  ret void
}

; Function Attrs: mustprogress nounwind uwtable
define linkonce_odr void @_ZN4absl12lts_2023080212AnyInvocableIFvvEED2Ev(ptr noundef nonnull align 16 dereferenceable(32) %this) unnamed_addr #5 comdat align 2 {
entry:
  %this.addr = alloca ptr, align 8
  store ptr %this, ptr %this.addr, align 8
  %this1 = load ptr, ptr %this.addr, align 8
  call void @_ZN4absl12lts_2023080222internal_any_invocable4ImplIFvvEED2Ev(ptr noundef nonnull align 16 dereferenceable(32) %this1) #3
  ret void
}

; Function Attrs: mustprogress nounwind uwtable
define internal void @"_ZZN17grpc_event_engine12experimental17PosixEndpointImpl4ReadEN4absl12lts_2023080212AnyInvocableIFvNS3_6StatusEEEEPNS0_11SliceBufferEPKNS0_11EventEngine8Endpoint8ReadArgsEEN3$_0D2Ev"(ptr noundef nonnull align 16 dereferenceable(40) %this) unnamed_addr #5 align 2 {
entry:
  %this.addr = alloca ptr, align 8
  store ptr %this, ptr %this.addr, align 8
  %this1 = load ptr, ptr %this.addr, align 8
  %0 = getelementptr inbounds %class.anon.40, ptr %this1, i32 0, i32 1
  call void @_ZN4absl12lts_202308026StatusD2Ev(ptr noundef nonnull align 8 dereferenceable(8) %0) #3
  %1 = getelementptr inbounds %class.anon.40, ptr %this1, i32 0, i32 0
  call void @_ZN4absl12lts_2023080212AnyInvocableIFvNS0_6StatusEEED2Ev(ptr noundef nonnull align 16 dereferenceable(32) %1) #3
  ret void
}

; Function Attrs: mustprogress nounwind uwtable
define linkonce_odr void @_ZN4absl12lts_2023080219ReleasableMutexLockD2Ev(ptr noundef nonnull align 8 dereferenceable(8) %this) unnamed_addr #5 comdat align 2 personality ptr @__gxx_personality_v0 {
entry:
  %this.addr = alloca ptr, align 8
  store ptr %this, ptr %this.addr, align 8
  %this1 = load ptr, ptr %this.addr, align 8
  %mu_ = getelementptr inbounds %"class.absl::lts_20230802::ReleasableMutexLock", ptr %this1, i32 0, i32 0
  %0 = load ptr, ptr %mu_, align 8
  %cmp = icmp ne ptr %0, null
  br i1 %cmp, label %if.then, label %if.end

if.then:                                          ; preds = %entry
  %mu_2 = getelementptr inbounds %"class.absl::lts_20230802::ReleasableMutexLock", ptr %this1, i32 0, i32 0
  %1 = load ptr, ptr %mu_2, align 8
  invoke void @_ZN4absl12lts_202308025Mutex6UnlockEv(ptr noundef nonnull align 8 dereferenceable(8) %1)
          to label %invoke.cont unwind label %terminate.lpad

invoke.cont:                                      ; preds = %if.then
  br label %if.end

if.end:                                           ; preds = %invoke.cont, %entry
  ret void

terminate.lpad:                                   ; preds = %if.then
  %2 = landingpad { ptr, i32 }
          catch ptr null
  %3 = extractvalue { ptr, i32 } %2, 0
  call void @__clang_call_terminate(ptr %3) #23
  unreachable
}

; Function Attrs: mustprogress uwtable
define noundef ptr @_ZN17grpc_event_engine12experimental17PosixEndpointImpl24TcpGetSendZerocopyRecordERNS0_11SliceBufferE(ptr noundef nonnull align 16 dereferenceable(936) %this, ptr noundef nonnull align 8 dereferenceable(264) %buf) #4 align 2 {
entry:
  %this.addr = alloca ptr, align 8
  %buf.addr = alloca ptr, align 8
  %zerocopy_send_record = alloca ptr, align 8
  %use_zerocopy = alloca i8, align 1
  store ptr %this, ptr %this.addr, align 8
  store ptr %buf, ptr %buf.addr, align 8
  %this1 = load ptr, ptr %this.addr, align 8
  store ptr null, ptr %zerocopy_send_record, align 8
  %tcp_zerocopy_send_ctx_ = getelementptr inbounds %"class.grpc_event_engine::experimental::PosixEndpointImpl", ptr %this1, i32 0, i32 37
  %call = call noundef ptr @_ZNKSt10unique_ptrIN17grpc_event_engine12experimental18TcpZerocopySendCtxESt14default_deleteIS2_EEptEv(ptr noundef nonnull align 8 dereferenceable(8) %tcp_zerocopy_send_ctx_) #3
  %call2 = call noundef zeroext i1 @_ZNK17grpc_event_engine12experimental18TcpZerocopySendCtx7EnabledEv(ptr noundef nonnull align 8 dereferenceable(83) %call)
  br i1 %call2, label %land.rhs, label %land.end

land.rhs:                                         ; preds = %entry
  %tcp_zerocopy_send_ctx_3 = getelementptr inbounds %"class.grpc_event_engine::experimental::PosixEndpointImpl", ptr %this1, i32 0, i32 37
  %call4 = call noundef ptr @_ZNKSt10unique_ptrIN17grpc_event_engine12experimental18TcpZerocopySendCtxESt14default_deleteIS2_EEptEv(ptr noundef nonnull align 8 dereferenceable(8) %tcp_zerocopy_send_ctx_3) #3
  %call5 = call noundef i64 @_ZNK17grpc_event_engine12experimental18TcpZerocopySendCtx14ThresholdBytesEv(ptr noundef nonnull align 8 dereferenceable(83) %call4)
  %0 = load ptr, ptr %buf.addr, align 8
  %call6 = call noundef i64 @_ZNK17grpc_event_engine12experimental11SliceBuffer6LengthEv(ptr noundef nonnull align 8 dereferenceable(264) %0)
  %cmp = icmp ult i64 %call5, %call6
  br label %land.end

land.end:                                         ; preds = %land.rhs, %entry
  %1 = phi i1 [ false, %entry ], [ %cmp, %land.rhs ]
  %frombool = zext i1 %1 to i8
  store i8 %frombool, ptr %use_zerocopy, align 1
  %2 = load i8, ptr %use_zerocopy, align 1
  %tobool = trunc i8 %2 to i1
  br i1 %tobool, label %if.then, label %if.end19

if.then:                                          ; preds = %land.end
  %tcp_zerocopy_send_ctx_7 = getelementptr inbounds %"class.grpc_event_engine::experimental::PosixEndpointImpl", ptr %this1, i32 0, i32 37
  %call8 = call noundef ptr @_ZNKSt10unique_ptrIN17grpc_event_engine12experimental18TcpZerocopySendCtxESt14default_deleteIS2_EEptEv(ptr noundef nonnull align 8 dereferenceable(8) %tcp_zerocopy_send_ctx_7) #3
  %call9 = call noundef ptr @_ZN17grpc_event_engine12experimental18TcpZerocopySendCtx13GetSendRecordEv(ptr noundef nonnull align 8 dereferenceable(83) %call8)
  store ptr %call9, ptr %zerocopy_send_record, align 8
  %3 = load ptr, ptr %zerocopy_send_record, align 8
  %cmp10 = icmp eq ptr %3, null
  br i1 %cmp10, label %if.then11, label %if.end

if.then11:                                        ; preds = %if.then
  %call12 = call noundef zeroext i1 @_ZN17grpc_event_engine12experimental17PosixEndpointImpl13ProcessErrorsEv(ptr noundef nonnull align 16 dereferenceable(936) %this1)
  %tcp_zerocopy_send_ctx_13 = getelementptr inbounds %"class.grpc_event_engine::experimental::PosixEndpointImpl", ptr %this1, i32 0, i32 37
  %call14 = call noundef ptr @_ZNKSt10unique_ptrIN17grpc_event_engine12experimental18TcpZerocopySendCtxESt14default_deleteIS2_EEptEv(ptr noundef nonnull align 8 dereferenceable(8) %tcp_zerocopy_send_ctx_13) #3
  %call15 = call noundef ptr @_ZN17grpc_event_engine12experimental18TcpZerocopySendCtx13GetSendRecordEv(ptr noundef nonnull align 8 dereferenceable(83) %call14)
  store ptr %call15, ptr %zerocopy_send_record, align 8
  br label %if.end

if.end:                                           ; preds = %if.then11, %if.then
  %4 = load ptr, ptr %zerocopy_send_record, align 8
  %cmp16 = icmp ne ptr %4, null
  br i1 %cmp16, label %if.then17, label %if.end18

if.then17:                                        ; preds = %if.end
  %5 = load ptr, ptr %zerocopy_send_record, align 8
  %6 = load ptr, ptr %buf.addr, align 8
  call void @_ZN17grpc_event_engine12experimental21TcpZerocopySendRecord15PrepareForSendsERNS0_11SliceBufferE(ptr noundef nonnull align 8 dereferenceable(288) %5, ptr noundef nonnull align 8 dereferenceable(264) %6)
  %outgoing_byte_idx_ = getelementptr inbounds %"class.grpc_event_engine::experimental::PosixEndpointImpl", ptr %this1, i32 0, i32 17
  store i64 0, ptr %outgoing_byte_idx_, align 16
  %outgoing_buffer_ = getelementptr inbounds %"class.grpc_event_engine::experimental::PosixEndpointImpl", ptr %this1, i32 0, i32 16
  store ptr null, ptr %outgoing_buffer_, align 8
  br label %if.end18

if.end18:                                         ; preds = %if.then17, %if.end
  br label %if.end19

if.end19:                                         ; preds = %if.end18, %land.end
  %7 = load ptr, ptr %zerocopy_send_record, align 8
  ret ptr %7
}

; Function Attrs: mustprogress nounwind uwtable
define linkonce_odr noundef i64 @_ZNK17grpc_event_engine12experimental18TcpZerocopySendCtx14ThresholdBytesEv(ptr noundef nonnull align 8 dereferenceable(83) %this) #5 comdat align 2 {
entry:
  %this.addr = alloca ptr, align 8
  store ptr %this, ptr %this.addr, align 8
  %this1 = load ptr, ptr %this.addr, align 8
  %threshold_bytes_ = getelementptr inbounds %"class.grpc_event_engine::experimental::TcpZerocopySendCtx", ptr %this1, i32 0, i32 9
  %0 = load i64, ptr %threshold_bytes_, align 8
  ret i64 %0
}

; Function Attrs: mustprogress uwtable
define linkonce_odr noundef ptr @_ZN17grpc_event_engine12experimental18TcpZerocopySendCtx13GetSendRecordEv(ptr noundef nonnull align 8 dereferenceable(83) %this) #4 comdat align 2 personality ptr @__gxx_personality_v0 {
entry:
  %this.addr = alloca ptr, align 8
  %lock = alloca %"class.absl::lts_20230802::MutexLock", align 8
  %exn.slot = alloca ptr, align 8
  %ehselector.slot = alloca i32, align 4
  store ptr %this, ptr %this.addr, align 8
  %this1 = load ptr, ptr %this.addr, align 8
  %mu_ = getelementptr inbounds %"class.grpc_event_engine::experimental::TcpZerocopySendCtx", ptr %this1, i32 0, i32 4
  call void @_ZN4absl12lts_202308029MutexLockC2EPNS0_5MutexE(ptr noundef nonnull align 8 dereferenceable(8) %lock, ptr noundef %mu_)
  %call = invoke noundef ptr @_ZN17grpc_event_engine12experimental18TcpZerocopySendCtx22TryGetSendRecordLockedEv(ptr noundef nonnull align 8 dereferenceable(83) %this1)
          to label %invoke.cont unwind label %lpad

invoke.cont:                                      ; preds = %entry
  call void @_ZN4absl12lts_202308029MutexLockD2Ev(ptr noundef nonnull align 8 dereferenceable(8) %lock) #3
  ret ptr %call

lpad:                                             ; preds = %entry
  %0 = landingpad { ptr, i32 }
          cleanup
  %1 = extractvalue { ptr, i32 } %0, 0
  store ptr %1, ptr %exn.slot, align 8
  %2 = extractvalue { ptr, i32 } %0, 1
  store i32 %2, ptr %ehselector.slot, align 4
  call void @_ZN4absl12lts_202308029MutexLockD2Ev(ptr noundef nonnull align 8 dereferenceable(8) %lock) #3
  br label %eh.resume

eh.resume:                                        ; preds = %lpad
  %exn = load ptr, ptr %exn.slot, align 8
  %sel = load i32, ptr %ehselector.slot, align 4
  %lpad.val = insertvalue { ptr, i32 } poison, ptr %exn, 0
  %lpad.val2 = insertvalue { ptr, i32 } %lpad.val, i32 %sel, 1
  resume { ptr, i32 } %lpad.val2
}

; Function Attrs: mustprogress uwtable
define noundef zeroext i1 @_ZN17grpc_event_engine12experimental17PosixEndpointImpl13ProcessErrorsEv(ptr noundef nonnull align 16 dereferenceable(936) %this) #4 align 2 {
entry:
  %retval = alloca i1, align 1
  %this.addr = alloca ptr, align 8
  %processed_err = alloca i8, align 1
  %iov = alloca %struct.iovec, align 8
  %msg = alloca %struct.msghdr, align 8
  %cmsg_alloc_space = alloca i64, align 8
  %aligned_buf = alloca %union.anon.41, align 8
  %r = alloca i32, align 4
  %saved_errno = alloca i32, align 4
  %seen = alloca i8, align 1
  %cmsg = alloca ptr, align 8
  store ptr %this, ptr %this.addr, align 8
  %this1 = load ptr, ptr %this.addr, align 8
  store i8 0, ptr %processed_err, align 1
  %iov_base = getelementptr inbounds %struct.iovec, ptr %iov, i32 0, i32 0
  store ptr null, ptr %iov_base, align 8
  %iov_len = getelementptr inbounds %struct.iovec, ptr %iov, i32 0, i32 1
  store i64 0, ptr %iov_len, align 8
  %msg_name = getelementptr inbounds %struct.msghdr, ptr %msg, i32 0, i32 0
  store ptr null, ptr %msg_name, align 8
  %msg_namelen = getelementptr inbounds %struct.msghdr, ptr %msg, i32 0, i32 1
  store i32 0, ptr %msg_namelen, align 8
  %msg_iov = getelementptr inbounds %struct.msghdr, ptr %msg, i32 0, i32 2
  store ptr %iov, ptr %msg_iov, align 8
  %msg_iovlen = getelementptr inbounds %struct.msghdr, ptr %msg, i32 0, i32 3
  store i64 0, ptr %msg_iovlen, align 8
  %msg_flags = getelementptr inbounds %struct.msghdr, ptr %msg, i32 0, i32 6
  store i32 0, ptr %msg_flags, align 8
  store i64 512, ptr %cmsg_alloc_space, align 8
  %arraydecay = getelementptr inbounds [512 x i8], ptr %aligned_buf, i64 0, i64 0
  %msg_control = getelementptr inbounds %struct.msghdr, ptr %msg, i32 0, i32 4
  store ptr %arraydecay, ptr %msg_control, align 8
  br label %while.body

while.body:                                       ; preds = %if.end43, %entry
  %msg_controllen = getelementptr inbounds %struct.msghdr, ptr %msg, i32 0, i32 5
  store i64 512, ptr %msg_controllen, align 8
  br label %do.body

do.body:                                          ; preds = %land.end, %while.body
  %fd_ = getelementptr inbounds %"class.grpc_event_engine::experimental::PosixEndpointImpl", ptr %this1, i32 0, i32 3
  %0 = load i32, ptr %fd_, align 4
  %call = call i64 @recvmsg(i32 noundef %0, ptr noundef %msg, i32 noundef 8192)
  %conv = trunc i64 %call to i32
  store i32 %conv, ptr %r, align 4
  %call2 = call ptr @__errno_location() #24
  %1 = load i32, ptr %call2, align 4
  store i32 %1, ptr %saved_errno, align 4
  br label %do.cond

do.cond:                                          ; preds = %do.body
  %2 = load i32, ptr %r, align 4
  %cmp = icmp slt i32 %2, 0
  br i1 %cmp, label %land.rhs, label %land.end

land.rhs:                                         ; preds = %do.cond
  %3 = load i32, ptr %saved_errno, align 4
  %cmp3 = icmp eq i32 %3, 4
  br label %land.end

land.end:                                         ; preds = %land.rhs, %do.cond
  %4 = phi i1 [ false, %do.cond ], [ %cmp3, %land.rhs ]
  br i1 %4, label %do.body, label %do.end, !llvm.loop !14

do.end:                                           ; preds = %land.end
  %5 = load i32, ptr %r, align 4
  %cmp4 = icmp slt i32 %5, 0
  br i1 %cmp4, label %land.lhs.true, label %if.else

land.lhs.true:                                    ; preds = %do.end
  %6 = load i32, ptr %saved_errno, align 4
  %cmp5 = icmp eq i32 %6, 11
  br i1 %cmp5, label %if.then, label %if.else

if.then:                                          ; preds = %land.lhs.true
  %7 = load i8, ptr %processed_err, align 1
  %tobool = trunc i8 %7 to i1
  store i1 %tobool, ptr %retval, align 1
  br label %return

if.else:                                          ; preds = %land.lhs.true, %do.end
  %8 = load i32, ptr %r, align 4
  %cmp6 = icmp slt i32 %8, 0
  br i1 %cmp6, label %if.then7, label %if.end

if.then7:                                         ; preds = %if.else
  %9 = load i8, ptr %processed_err, align 1
  %tobool8 = trunc i8 %9 to i1
  store i1 %tobool8, ptr %retval, align 1
  br label %return

if.end:                                           ; preds = %if.else
  br label %if.end9

if.end9:                                          ; preds = %if.end
  %msg_flags10 = getelementptr inbounds %struct.msghdr, ptr %msg, i32 0, i32 6
  %10 = load i32, ptr %msg_flags10, align 8
  %and = and i32 %10, 8
  %cmp11 = icmp ne i32 %and, 0
  br i1 %cmp11, label %if.then13, label %if.end14

if.then13:                                        ; preds = %if.end9
  call void (ptr, i32, i32, ptr, ...) @gpr_log(ptr noundef @.str.1, i32 noundef 714, i32 noundef 2, ptr noundef @.str.10)
  br label %if.end14

if.end14:                                         ; preds = %if.then13, %if.end9
  %msg_controllen15 = getelementptr inbounds %struct.msghdr, ptr %msg, i32 0, i32 5
  %11 = load i64, ptr %msg_controllen15, align 8
  %cmp16 = icmp eq i64 %11, 0
  br i1 %cmp16, label %if.then17, label %if.end19

if.then17:                                        ; preds = %if.end14
  %12 = load i8, ptr %processed_err, align 1
  %tobool18 = trunc i8 %12 to i1
  store i1 %tobool18, ptr %retval, align 1
  br label %return

if.end19:                                         ; preds = %if.end14
  store i8 0, ptr %seen, align 1
  %msg_controllen20 = getelementptr inbounds %struct.msghdr, ptr %msg, i32 0, i32 5
  %13 = load i64, ptr %msg_controllen20, align 8
  %cmp21 = icmp uge i64 %13, 16
  br i1 %cmp21, label %cond.true, label %cond.false

cond.true:                                        ; preds = %if.end19
  %msg_control22 = getelementptr inbounds %struct.msghdr, ptr %msg, i32 0, i32 4
  %14 = load ptr, ptr %msg_control22, align 8
  br label %cond.end

cond.false:                                       ; preds = %if.end19
  br label %cond.end

cond.end:                                         ; preds = %cond.false, %cond.true
  %cond = phi ptr [ %14, %cond.true ], [ null, %cond.false ]
  store ptr %cond, ptr %cmsg, align 8
  br label %for.cond

for.cond:                                         ; preds = %for.inc, %cond.end
  %15 = load ptr, ptr %cmsg, align 8
  %tobool23 = icmp ne ptr %15, null
  br i1 %tobool23, label %land.rhs24, label %land.end26

land.rhs24:                                       ; preds = %for.cond
  %16 = load ptr, ptr %cmsg, align 8
  %cmsg_len = getelementptr inbounds %struct.cmsghdr, ptr %16, i32 0, i32 0
  %17 = load i64, ptr %cmsg_len, align 8
  %tobool25 = icmp ne i64 %17, 0
  br label %land.end26

land.end26:                                       ; preds = %land.rhs24, %for.cond
  %18 = phi i1 [ false, %for.cond ], [ %tobool25, %land.rhs24 ]
  br i1 %18, label %for.body, label %for.end

for.body:                                         ; preds = %land.end26
  %19 = load ptr, ptr %cmsg, align 8
  %call27 = call noundef zeroext i1 @_ZN17grpc_event_engine12experimental12_GLOBAL__N_114CmsgIsZeroCopyERK7cmsghdr(ptr noundef nonnull align 8 dereferenceable(16) %19)
  br i1 %call27, label %if.then28, label %if.else29

if.then28:                                        ; preds = %for.body
  %20 = load ptr, ptr %cmsg, align 8
  call void @_ZN17grpc_event_engine12experimental17PosixEndpointImpl15ProcessZerocopyEP7cmsghdr(ptr noundef nonnull align 16 dereferenceable(936) %this1, ptr noundef %20)
  store i8 1, ptr %seen, align 1
  store i8 1, ptr %processed_err, align 1
  br label %if.end38

if.else29:                                        ; preds = %for.body
  %21 = load ptr, ptr %cmsg, align 8
  %cmsg_level = getelementptr inbounds %struct.cmsghdr, ptr %21, i32 0, i32 1
  %22 = load i32, ptr %cmsg_level, align 8
  %cmp30 = icmp eq i32 %22, 1
  br i1 %cmp30, label %land.lhs.true31, label %if.else35

land.lhs.true31:                                  ; preds = %if.else29
  %23 = load ptr, ptr %cmsg, align 8
  %cmsg_type = getelementptr inbounds %struct.cmsghdr, ptr %23, i32 0, i32 2
  %24 = load i32, ptr %cmsg_type, align 4
  %cmp32 = icmp eq i32 %24, 37
  br i1 %cmp32, label %if.then33, label %if.else35

if.then33:                                        ; preds = %land.lhs.true31
  %25 = load ptr, ptr %cmsg, align 8
  %call34 = call noundef ptr @_ZN17grpc_event_engine12experimental17PosixEndpointImpl16ProcessTimestampEP6msghdrP7cmsghdr(ptr noundef nonnull align 16 dereferenceable(936) %this1, ptr noundef %msg, ptr noundef %25)
  store ptr %call34, ptr %cmsg, align 8
  store i8 1, ptr %seen, align 1
  store i8 1, ptr %processed_err, align 1
  br label %if.end37

if.else35:                                        ; preds = %land.lhs.true31, %if.else29
  %26 = load i8, ptr %processed_err, align 1
  %tobool36 = trunc i8 %26 to i1
  store i1 %tobool36, ptr %retval, align 1
  br label %return

if.end37:                                         ; preds = %if.then33
  br label %if.end38

if.end38:                                         ; preds = %if.end37, %if.then28
  br label %for.inc

for.inc:                                          ; preds = %if.end38
  %27 = load ptr, ptr %cmsg, align 8
  %call39 = call ptr @__cmsg_nxthdr(ptr noundef %msg, ptr noundef %27) #3
  store ptr %call39, ptr %cmsg, align 8
  br label %for.cond, !llvm.loop !15

for.end:                                          ; preds = %land.end26
  %28 = load i8, ptr %seen, align 1
  %tobool40 = trunc i8 %28 to i1
  br i1 %tobool40, label %if.end43, label %if.then41

if.then41:                                        ; preds = %for.end
  %29 = load i8, ptr %processed_err, align 1
  %tobool42 = trunc i8 %29 to i1
  store i1 %tobool42, ptr %retval, align 1
  br label %return

if.end43:                                         ; preds = %for.end
  br label %while.body, !llvm.loop !16

return:                                           ; preds = %if.then41, %if.else35, %if.then17, %if.then7, %if.then
  %30 = load i1, ptr %retval, align 1
  ret i1 %30
}

; Function Attrs: mustprogress uwtable
define linkonce_odr void @_ZN17grpc_event_engine12experimental21TcpZerocopySendRecord15PrepareForSendsERNS0_11SliceBufferE(ptr noundef nonnull align 8 dereferenceable(288) %this, ptr noundef nonnull align 8 dereferenceable(264) %slices_to_send) #4 comdat align 2 {
entry:
  %this.addr = alloca ptr, align 8
  %slices_to_send.addr = alloca ptr, align 8
  store ptr %this, ptr %this.addr, align 8
  store ptr %slices_to_send, ptr %slices_to_send.addr, align 8
  %this1 = load ptr, ptr %this.addr, align 8
  call void @_ZN17grpc_event_engine12experimental21TcpZerocopySendRecord16DebugAssertEmptyEv(ptr noundef nonnull align 8 dereferenceable(288) %this1)
  %out_offset_ = getelementptr inbounds %"class.grpc_event_engine::experimental::TcpZerocopySendRecord", ptr %this1, i32 0, i32 2
  %slice_idx = getelementptr inbounds %"struct.grpc_event_engine::experimental::TcpZerocopySendRecord::OutgoingOffset", ptr %out_offset_, i32 0, i32 0
  store i64 0, ptr %slice_idx, align 8
  %out_offset_2 = getelementptr inbounds %"class.grpc_event_engine::experimental::TcpZerocopySendRecord", ptr %this1, i32 0, i32 2
  %byte_idx = getelementptr inbounds %"struct.grpc_event_engine::experimental::TcpZerocopySendRecord::OutgoingOffset", ptr %out_offset_2, i32 0, i32 1
  store i64 0, ptr %byte_idx, align 8
  %buf_ = getelementptr inbounds %"class.grpc_event_engine::experimental::TcpZerocopySendRecord", ptr %this1, i32 0, i32 0
  %0 = load ptr, ptr %slices_to_send.addr, align 8
  call void @_ZN17grpc_event_engine12experimental11SliceBuffer4SwapERS1_(ptr noundef nonnull align 8 dereferenceable(264) %buf_, ptr noundef nonnull align 8 dereferenceable(264) %0)
  call void @_ZN17grpc_event_engine12experimental21TcpZerocopySendRecord3RefEv(ptr noundef nonnull align 8 dereferenceable(288) %this1)
  ret void
}

; Function Attrs: mustprogress uwtable
define internal noundef zeroext i1 @_ZN17grpc_event_engine12experimental12_GLOBAL__N_114CmsgIsZeroCopyERK7cmsghdr(ptr noundef nonnull align 8 dereferenceable(16) %cmsg) #4 {
entry:
  %retval = alloca i1, align 1
  %cmsg.addr = alloca ptr, align 8
  %serr = alloca ptr, align 8
  store ptr %cmsg, ptr %cmsg.addr, align 8
  %0 = load ptr, ptr %cmsg.addr, align 8
  %call = call noundef zeroext i1 @_ZN17grpc_event_engine12experimental12_GLOBAL__N_113CmsgIsIpLevelERK7cmsghdr(ptr noundef nonnull align 8 dereferenceable(16) %0)
  br i1 %call, label %if.end, label %if.then

if.then:                                          ; preds = %entry
  store i1 false, ptr %retval, align 1
  br label %return

if.end:                                           ; preds = %entry
  %1 = load ptr, ptr %cmsg.addr, align 8
  %__cmsg_data = getelementptr inbounds %struct.cmsghdr, ptr %1, i32 0, i32 3
  %arraydecay = getelementptr inbounds [0 x i8], ptr %__cmsg_data, i64 0, i64 0
  store ptr %arraydecay, ptr %serr, align 8
  %2 = load ptr, ptr %serr, align 8
  %ee_errno = getelementptr inbounds %struct.sock_extended_err, ptr %2, i32 0, i32 0
  %3 = load i32, ptr %ee_errno, align 4
  %cmp = icmp eq i32 %3, 0
  br i1 %cmp, label %land.rhs, label %land.end

land.rhs:                                         ; preds = %if.end
  %4 = load ptr, ptr %serr, align 8
  %ee_origin = getelementptr inbounds %struct.sock_extended_err, ptr %4, i32 0, i32 1
  %5 = load i8, ptr %ee_origin, align 4
  %conv = zext i8 %5 to i32
  %cmp1 = icmp eq i32 %conv, 5
  br label %land.end

land.end:                                         ; preds = %land.rhs, %if.end
  %6 = phi i1 [ false, %if.end ], [ %cmp1, %land.rhs ]
  store i1 %6, ptr %retval, align 1
  br label %return

return:                                           ; preds = %land.end, %if.then
  %7 = load i1, ptr %retval, align 1
  ret i1 %7
}

; Function Attrs: mustprogress uwtable
define void @_ZN17grpc_event_engine12experimental17PosixEndpointImpl15ProcessZerocopyEP7cmsghdr(ptr noundef nonnull align 16 dereferenceable(936) %this, ptr noundef %cmsg) #4 align 2 {
entry:
  %this.addr = alloca ptr, align 8
  %cmsg.addr = alloca ptr, align 8
  %serr = alloca ptr, align 8
  %lo = alloca i32, align 4
  %hi = alloca i32, align 4
  %seq = alloca i32, align 4
  %record = alloca ptr, align 8
  store ptr %this, ptr %this.addr, align 8
  store ptr %cmsg, ptr %cmsg.addr, align 8
  %this1 = load ptr, ptr %this.addr, align 8
  %0 = load ptr, ptr %cmsg.addr, align 8
  %__cmsg_data = getelementptr inbounds %struct.cmsghdr, ptr %0, i32 0, i32 3
  %arraydecay = getelementptr inbounds [0 x i8], ptr %__cmsg_data, i64 0, i64 0
  store ptr %arraydecay, ptr %serr, align 8
  %1 = load ptr, ptr %serr, align 8
  %ee_info = getelementptr inbounds %struct.sock_extended_err, ptr %1, i32 0, i32 5
  %2 = load i32, ptr %ee_info, align 4
  store i32 %2, ptr %lo, align 4
  %3 = load ptr, ptr %serr, align 8
  %4 = getelementptr inbounds %struct.sock_extended_err, ptr %3, i32 0, i32 6
  %5 = load i32, ptr %4, align 4
  store i32 %5, ptr %hi, align 4
  %6 = load i32, ptr %lo, align 4
  store i32 %6, ptr %seq, align 4
  br label %for.cond

for.cond:                                         ; preds = %for.inc, %entry
  %7 = load i32, ptr %seq, align 4
  %8 = load i32, ptr %hi, align 4
  %cmp = icmp ule i32 %7, %8
  br i1 %cmp, label %for.body, label %for.end

for.body:                                         ; preds = %for.cond
  %tcp_zerocopy_send_ctx_ = getelementptr inbounds %"class.grpc_event_engine::experimental::PosixEndpointImpl", ptr %this1, i32 0, i32 37
  %call = call noundef ptr @_ZNKSt10unique_ptrIN17grpc_event_engine12experimental18TcpZerocopySendCtxESt14default_deleteIS2_EEptEv(ptr noundef nonnull align 8 dereferenceable(8) %tcp_zerocopy_send_ctx_) #3
  %9 = load i32, ptr %seq, align 4
  %call2 = call noundef ptr @_ZN17grpc_event_engine12experimental18TcpZerocopySendCtx17ReleaseSendRecordEj(ptr noundef nonnull align 8 dereferenceable(83) %call, i32 noundef %9)
  store ptr %call2, ptr %record, align 8
  %10 = load ptr, ptr %record, align 8
  call void @_ZN17grpc_event_engine12experimental17PosixEndpointImpl31UnrefMaybePutZerocopySendRecordEPNS0_21TcpZerocopySendRecordE(ptr noundef nonnull align 16 dereferenceable(936) %this1, ptr noundef %10)
  br label %for.inc

for.inc:                                          ; preds = %for.body
  %11 = load i32, ptr %seq, align 4
  %inc = add i32 %11, 1
  store i32 %inc, ptr %seq, align 4
  br label %for.cond, !llvm.loop !17

for.end:                                          ; preds = %for.cond
  %tcp_zerocopy_send_ctx_3 = getelementptr inbounds %"class.grpc_event_engine::experimental::PosixEndpointImpl", ptr %this1, i32 0, i32 37
  %call4 = call noundef ptr @_ZNKSt10unique_ptrIN17grpc_event_engine12experimental18TcpZerocopySendCtxESt14default_deleteIS2_EEptEv(ptr noundef nonnull align 8 dereferenceable(8) %tcp_zerocopy_send_ctx_3) #3
  %call5 = call noundef zeroext i1 @_ZN17grpc_event_engine12experimental18TcpZerocopySendCtx34UpdateZeroCopyOptMemStateAfterFreeEv(ptr noundef nonnull align 8 dereferenceable(83) %call4)
  br i1 %call5, label %if.then, label %if.end

if.then:                                          ; preds = %for.end
  %handle_ = getelementptr inbounds %"class.grpc_event_engine::experimental::PosixEndpointImpl", ptr %this1, i32 0, i32 41
  %12 = load ptr, ptr %handle_, align 8
  %vtable = load ptr, ptr %12, align 8
  %vfn = getelementptr inbounds ptr, ptr %vtable, i64 7
  %13 = load ptr, ptr %vfn, align 8
  call void %13(ptr noundef nonnull align 8 dereferenceable(8) %12)
  br label %if.end

if.end:                                           ; preds = %if.then, %for.end
  ret void
}

; Function Attrs: mustprogress uwtable
define noundef ptr @_ZN17grpc_event_engine12experimental17PosixEndpointImpl16ProcessTimestampEP6msghdrP7cmsghdr(ptr noundef nonnull align 16 dereferenceable(936) %this, ptr noundef %msg, ptr noundef %cmsg) #4 align 2 {
entry:
  %retval = alloca ptr, align 8
  %this.addr = alloca ptr, align 8
  %msg.addr = alloca ptr, align 8
  %cmsg.addr = alloca ptr, align 8
  %next_cmsg = alloca ptr, align 8
  %opt_stats = alloca ptr, align 8
  %tss = alloca ptr, align 8
  %serr = alloca ptr, align 8
  store ptr %this, ptr %this.addr, align 8
  store ptr %msg, ptr %msg.addr, align 8
  store ptr %cmsg, ptr %cmsg.addr, align 8
  %this1 = load ptr, ptr %this.addr, align 8
  %0 = load ptr, ptr %msg.addr, align 8
  %1 = load ptr, ptr %cmsg.addr, align 8
  %call = call ptr @__cmsg_nxthdr(ptr noundef %0, ptr noundef %1) #3
  store ptr %call, ptr %next_cmsg, align 8
  store ptr null, ptr %opt_stats, align 8
  %2 = load ptr, ptr %next_cmsg, align 8
  %cmp = icmp eq ptr %2, null
  br i1 %cmp, label %if.then, label %if.end

if.then:                                          ; preds = %entry
  %3 = load ptr, ptr %cmsg.addr, align 8
  store ptr %3, ptr %retval, align 8
  br label %return

if.end:                                           ; preds = %entry
  %4 = load ptr, ptr %next_cmsg, align 8
  %cmsg_level = getelementptr inbounds %struct.cmsghdr, ptr %4, i32 0, i32 1
  %5 = load i32, ptr %cmsg_level, align 8
  %cmp2 = icmp eq i32 %5, 1
  br i1 %cmp2, label %land.lhs.true, label %if.end9

land.lhs.true:                                    ; preds = %if.end
  %6 = load ptr, ptr %next_cmsg, align 8
  %cmsg_type = getelementptr inbounds %struct.cmsghdr, ptr %6, i32 0, i32 2
  %7 = load i32, ptr %cmsg_type, align 4
  %cmp3 = icmp eq i32 %7, 54
  br i1 %cmp3, label %if.then4, label %if.end9

if.then4:                                         ; preds = %land.lhs.true
  %8 = load ptr, ptr %next_cmsg, align 8
  store ptr %8, ptr %opt_stats, align 8
  %9 = load ptr, ptr %msg.addr, align 8
  %10 = load ptr, ptr %opt_stats, align 8
  %call5 = call ptr @__cmsg_nxthdr(ptr noundef %9, ptr noundef %10) #3
  store ptr %call5, ptr %next_cmsg, align 8
  %11 = load ptr, ptr %next_cmsg, align 8
  %cmp6 = icmp eq ptr %11, null
  br i1 %cmp6, label %if.then7, label %if.end8

if.then7:                                         ; preds = %if.then4
  %12 = load ptr, ptr %opt_stats, align 8
  store ptr %12, ptr %retval, align 8
  br label %return

if.end8:                                          ; preds = %if.then4
  br label %if.end9

if.end9:                                          ; preds = %if.end8, %land.lhs.true, %if.end
  %13 = load ptr, ptr %next_cmsg, align 8
  %cmsg_level10 = getelementptr inbounds %struct.cmsghdr, ptr %13, i32 0, i32 1
  %14 = load i32, ptr %cmsg_level10, align 8
  %cmp11 = icmp eq i32 %14, 0
  br i1 %cmp11, label %lor.lhs.false14, label %lor.lhs.false

lor.lhs.false:                                    ; preds = %if.end9
  %15 = load ptr, ptr %next_cmsg, align 8
  %cmsg_level12 = getelementptr inbounds %struct.cmsghdr, ptr %15, i32 0, i32 1
  %16 = load i32, ptr %cmsg_level12, align 8
  %cmp13 = icmp eq i32 %16, 41
  br i1 %cmp13, label %lor.lhs.false14, label %if.then20

lor.lhs.false14:                                  ; preds = %lor.lhs.false, %if.end9
  %17 = load ptr, ptr %next_cmsg, align 8
  %cmsg_type15 = getelementptr inbounds %struct.cmsghdr, ptr %17, i32 0, i32 2
  %18 = load i32, ptr %cmsg_type15, align 4
  %cmp16 = icmp eq i32 %18, 11
  br i1 %cmp16, label %if.end21, label %lor.lhs.false17

lor.lhs.false17:                                  ; preds = %lor.lhs.false14
  %19 = load ptr, ptr %next_cmsg, align 8
  %cmsg_type18 = getelementptr inbounds %struct.cmsghdr, ptr %19, i32 0, i32 2
  %20 = load i32, ptr %cmsg_type18, align 4
  %cmp19 = icmp eq i32 %20, 25
  br i1 %cmp19, label %if.end21, label %if.then20

if.then20:                                        ; preds = %lor.lhs.false17, %lor.lhs.false
  %21 = load ptr, ptr %cmsg.addr, align 8
  store ptr %21, ptr %retval, align 8
  br label %return

if.end21:                                         ; preds = %lor.lhs.false17, %lor.lhs.false14
  %22 = load ptr, ptr %cmsg.addr, align 8
  %__cmsg_data = getelementptr inbounds %struct.cmsghdr, ptr %22, i32 0, i32 3
  %arraydecay = getelementptr inbounds [0 x i8], ptr %__cmsg_data, i64 0, i64 0
  store ptr %arraydecay, ptr %tss, align 8
  %23 = load ptr, ptr %next_cmsg, align 8
  %__cmsg_data22 = getelementptr inbounds %struct.cmsghdr, ptr %23, i32 0, i32 3
  %arraydecay23 = getelementptr inbounds [0 x i8], ptr %__cmsg_data22, i64 0, i64 0
  store ptr %arraydecay23, ptr %serr, align 8
  %24 = load ptr, ptr %serr, align 8
  %ee_errno = getelementptr inbounds %struct.sock_extended_err, ptr %24, i32 0, i32 0
  %25 = load i32, ptr %ee_errno, align 4
  %cmp24 = icmp ne i32 %25, 42
  br i1 %cmp24, label %if.then27, label %lor.lhs.false25

lor.lhs.false25:                                  ; preds = %if.end21
  %26 = load ptr, ptr %serr, align 8
  %ee_origin = getelementptr inbounds %struct.sock_extended_err, ptr %26, i32 0, i32 1
  %27 = load i8, ptr %ee_origin, align 4
  %conv = zext i8 %27 to i32
  %cmp26 = icmp ne i32 %conv, 4
  br i1 %cmp26, label %if.then27, label %if.end28

if.then27:                                        ; preds = %lor.lhs.false25, %if.end21
  call void (ptr, i32, i32, ptr, ...) @gpr_log(ptr noundef @.str.1, i32 noundef 809, i32 noundef 2, ptr noundef @.str.11)
  %28 = load ptr, ptr %cmsg.addr, align 8
  store ptr %28, ptr %retval, align 8
  br label %return

if.end28:                                         ; preds = %lor.lhs.false25
  %traced_buffers_ = getelementptr inbounds %"class.grpc_event_engine::experimental::PosixEndpointImpl", ptr %this1, i32 0, i32 40
  %29 = load ptr, ptr %serr, align 8
  %30 = load ptr, ptr %opt_stats, align 8
  %31 = load ptr, ptr %tss, align 8
  call void @_ZN17grpc_event_engine12experimental16TracedBufferList16ProcessTimestampEP17sock_extended_errP7cmsghdrPNS0_16scm_timestampingE(ptr noundef nonnull align 8 dereferenceable(24) %traced_buffers_, ptr noundef %29, ptr noundef %30, ptr noundef %31)
  %32 = load ptr, ptr %next_cmsg, align 8
  store ptr %32, ptr %retval, align 8
  br label %return

return:                                           ; preds = %if.end28, %if.then27, %if.then20, %if.then7, %if.then
  %33 = load ptr, ptr %retval, align 8
  ret ptr %33
}

; Function Attrs: mustprogress uwtable
define void @_ZN17grpc_event_engine12experimental17PosixEndpointImpl34ZerocopyDisableAndWaitForRemainingEv(ptr noundef nonnull align 16 dereferenceable(936) %this) #4 align 2 {
entry:
  %this.addr = alloca ptr, align 8
  store ptr %this, ptr %this.addr, align 8
  %this1 = load ptr, ptr %this.addr, align 8
  %tcp_zerocopy_send_ctx_ = getelementptr inbounds %"class.grpc_event_engine::experimental::PosixEndpointImpl", ptr %this1, i32 0, i32 37
  %call = call noundef ptr @_ZNKSt10unique_ptrIN17grpc_event_engine12experimental18TcpZerocopySendCtxESt14default_deleteIS2_EEptEv(ptr noundef nonnull align 8 dereferenceable(8) %tcp_zerocopy_send_ctx_) #3
  call void @_ZN17grpc_event_engine12experimental18TcpZerocopySendCtx8ShutdownEv(ptr noundef nonnull align 8 dereferenceable(83) %call)
  br label %while.cond

while.cond:                                       ; preds = %while.body, %entry
  %tcp_zerocopy_send_ctx_2 = getelementptr inbounds %"class.grpc_event_engine::experimental::PosixEndpointImpl", ptr %this1, i32 0, i32 37
  %call3 = call noundef ptr @_ZNKSt10unique_ptrIN17grpc_event_engine12experimental18TcpZerocopySendCtxESt14default_deleteIS2_EEptEv(ptr noundef nonnull align 8 dereferenceable(8) %tcp_zerocopy_send_ctx_2) #3
  %call4 = call noundef zeroext i1 @_ZN17grpc_event_engine12experimental18TcpZerocopySendCtx19AllSendRecordsEmptyEv(ptr noundef nonnull align 8 dereferenceable(83) %call3)
  %lnot = xor i1 %call4, true
  br i1 %lnot, label %while.body, label %while.end

while.body:                                       ; preds = %while.cond
  %call5 = call noundef zeroext i1 @_ZN17grpc_event_engine12experimental17PosixEndpointImpl13ProcessErrorsEv(ptr noundef nonnull align 16 dereferenceable(936) %this1)
  br label %while.cond, !llvm.loop !18

while.end:                                        ; preds = %while.cond
  ret void
}

; Function Attrs: mustprogress nounwind uwtable
define linkonce_odr void @_ZN17grpc_event_engine12experimental18TcpZerocopySendCtx8ShutdownEv(ptr noundef nonnull align 8 dereferenceable(83) %this) #5 comdat align 2 {
entry:
  %this.addr = alloca ptr, align 8
  store ptr %this, ptr %this.addr, align 8
  %this1 = load ptr, ptr %this.addr, align 8
  %shutdown_ = getelementptr inbounds %"class.grpc_event_engine::experimental::TcpZerocopySendCtx", ptr %this1, i32 0, i32 6
  call void @_ZNSt6atomicIbE5storeEbSt12memory_order(ptr noundef nonnull align 1 dereferenceable(1) %shutdown_, i1 noundef zeroext true, i32 noundef 3) #3
  ret void
}

; Function Attrs: mustprogress uwtable
define linkonce_odr noundef zeroext i1 @_ZN17grpc_event_engine12experimental18TcpZerocopySendCtx19AllSendRecordsEmptyEv(ptr noundef nonnull align 8 dereferenceable(83) %this) #4 comdat align 2 {
entry:
  %this.addr = alloca ptr, align 8
  %lock = alloca %"class.absl::lts_20230802::MutexLock", align 8
  store ptr %this, ptr %this.addr, align 8
  %this1 = load ptr, ptr %this.addr, align 8
  %mu_ = getelementptr inbounds %"class.grpc_event_engine::experimental::TcpZerocopySendCtx", ptr %this1, i32 0, i32 4
  call void @_ZN4absl12lts_202308029MutexLockC2EPNS0_5MutexE(ptr noundef nonnull align 8 dereferenceable(8) %lock, ptr noundef %mu_)
  %free_send_records_size_ = getelementptr inbounds %"class.grpc_event_engine::experimental::TcpZerocopySendCtx", ptr %this1, i32 0, i32 3
  %0 = load i32, ptr %free_send_records_size_, align 4
  %max_sends_ = getelementptr inbounds %"class.grpc_event_engine::experimental::TcpZerocopySendCtx", ptr %this1, i32 0, i32 2
  %1 = load i32, ptr %max_sends_, align 8
  %cmp = icmp eq i32 %0, %1
  call void @_ZN4absl12lts_202308029MutexLockD2Ev(ptr noundef nonnull align 8 dereferenceable(8) %lock) #3
  ret i1 %cmp
}

; Function Attrs: mustprogress uwtable
define linkonce_odr noundef ptr @_ZN17grpc_event_engine12experimental18TcpZerocopySendCtx17ReleaseSendRecordEj(ptr noundef nonnull align 8 dereferenceable(83) %this, i32 noundef %seq) #4 comdat align 2 personality ptr @__gxx_personality_v0 {
entry:
  %this.addr = alloca ptr, align 8
  %seq.addr = alloca i32, align 4
  %lock = alloca %"class.absl::lts_20230802::MutexLock", align 8
  %exn.slot = alloca ptr, align 8
  %ehselector.slot = alloca i32, align 4
  store ptr %this, ptr %this.addr, align 8
  store i32 %seq, ptr %seq.addr, align 4
  %this1 = load ptr, ptr %this.addr, align 8
  %mu_ = getelementptr inbounds %"class.grpc_event_engine::experimental::TcpZerocopySendCtx", ptr %this1, i32 0, i32 4
  call void @_ZN4absl12lts_202308029MutexLockC2EPNS0_5MutexE(ptr noundef nonnull align 8 dereferenceable(8) %lock, ptr noundef %mu_)
  %0 = load i32, ptr %seq.addr, align 4
  %call = invoke noundef ptr @_ZN17grpc_event_engine12experimental18TcpZerocopySendCtx23ReleaseSendRecordLockedEj(ptr noundef nonnull align 8 dereferenceable(83) %this1, i32 noundef %0)
          to label %invoke.cont unwind label %lpad

invoke.cont:                                      ; preds = %entry
  call void @_ZN4absl12lts_202308029MutexLockD2Ev(ptr noundef nonnull align 8 dereferenceable(8) %lock) #3
  ret ptr %call

lpad:                                             ; preds = %entry
  %1 = landingpad { ptr, i32 }
          cleanup
  %2 = extractvalue { ptr, i32 } %1, 0
  store ptr %2, ptr %exn.slot, align 8
  %3 = extractvalue { ptr, i32 } %1, 1
  store i32 %3, ptr %ehselector.slot, align 4
  call void @_ZN4absl12lts_202308029MutexLockD2Ev(ptr noundef nonnull align 8 dereferenceable(8) %lock) #3
  br label %eh.resume

eh.resume:                                        ; preds = %lpad
  %exn = load ptr, ptr %exn.slot, align 8
  %sel = load i32, ptr %ehselector.slot, align 4
  %lpad.val = insertvalue { ptr, i32 } poison, ptr %exn, 0
  %lpad.val2 = insertvalue { ptr, i32 } %lpad.val, i32 %sel, 1
  resume { ptr, i32 } %lpad.val2
}

; Function Attrs: mustprogress uwtable
define void @_ZN17grpc_event_engine12experimental17PosixEndpointImpl31UnrefMaybePutZerocopySendRecordEPNS0_21TcpZerocopySendRecordE(ptr noundef nonnull align 16 dereferenceable(936) %this, ptr noundef %record) #4 align 2 {
entry:
  %this.addr = alloca ptr, align 8
  %record.addr = alloca ptr, align 8
  store ptr %this, ptr %this.addr, align 8
  store ptr %record, ptr %record.addr, align 8
  %this1 = load ptr, ptr %this.addr, align 8
  %0 = load ptr, ptr %record.addr, align 8
  %call = call noundef zeroext i1 @_ZN17grpc_event_engine12experimental21TcpZerocopySendRecord5UnrefEv(ptr noundef nonnull align 8 dereferenceable(288) %0)
  br i1 %call, label %if.then, label %if.end

if.then:                                          ; preds = %entry
  %tcp_zerocopy_send_ctx_ = getelementptr inbounds %"class.grpc_event_engine::experimental::PosixEndpointImpl", ptr %this1, i32 0, i32 37
  %call2 = call noundef ptr @_ZNKSt10unique_ptrIN17grpc_event_engine12experimental18TcpZerocopySendCtxESt14default_deleteIS2_EEptEv(ptr noundef nonnull align 8 dereferenceable(8) %tcp_zerocopy_send_ctx_) #3
  %1 = load ptr, ptr %record.addr, align 8
  call void @_ZN17grpc_event_engine12experimental18TcpZerocopySendCtx13PutSendRecordEPNS0_21TcpZerocopySendRecordE(ptr noundef nonnull align 8 dereferenceable(83) %call2, ptr noundef %1)
  br label %if.end

if.end:                                           ; preds = %if.then, %entry
  ret void
}

; Function Attrs: mustprogress uwtable
define linkonce_odr noundef zeroext i1 @_ZN17grpc_event_engine12experimental18TcpZerocopySendCtx34UpdateZeroCopyOptMemStateAfterFreeEv(ptr noundef nonnull align 8 dereferenceable(83) %this) #4 comdat align 2 personality ptr @__gxx_personality_v0 {
entry:
  %retval = alloca i1, align 1
  %this.addr = alloca ptr, align 8
  %lock = alloca %"class.absl::lts_20230802::MutexLock", align 8
  %cleanup.dest.slot = alloca i32, align 4
  %agg.tmp = alloca %"class.std::basic_string_view", align 8
  %agg.tmp9 = alloca %"class.grpc_core::SourceLocation", align 8
  %exn.slot = alloca ptr, align 8
  %ehselector.slot = alloca i32, align 4
  store ptr %this, ptr %this.addr, align 8
  %this1 = load ptr, ptr %this.addr, align 8
  %mu_ = getelementptr inbounds %"class.grpc_event_engine::experimental::TcpZerocopySendCtx", ptr %this1, i32 0, i32 4
  call void @_ZN4absl12lts_202308029MutexLockC2EPNS0_5MutexE(ptr noundef nonnull align 8 dereferenceable(8) %lock, ptr noundef %mu_)
  %is_in_write_ = getelementptr inbounds %"class.grpc_event_engine::experimental::TcpZerocopySendCtx", ptr %this1, i32 0, i32 12
  %0 = load i8, ptr %is_in_write_, align 1
  %tobool = trunc i8 %0 to i1
  br i1 %tobool, label %if.then, label %if.end

if.then:                                          ; preds = %entry
  %zcopy_enobuf_state_ = getelementptr inbounds %"class.grpc_event_engine::experimental::TcpZerocopySendCtx", ptr %this1, i32 0, i32 13
  store i8 2, ptr %zcopy_enobuf_state_, align 2
  store i1 false, ptr %retval, align 1
  store i32 1, ptr %cleanup.dest.slot, align 4
  br label %cleanup

if.end:                                           ; preds = %entry
  %zcopy_enobuf_state_2 = getelementptr inbounds %"class.grpc_event_engine::experimental::TcpZerocopySendCtx", ptr %this1, i32 0, i32 13
  %1 = load i8, ptr %zcopy_enobuf_state_2, align 2
  %cmp = icmp eq i8 %1, 1
  br i1 %cmp, label %if.then3, label %if.else

if.then3:                                         ; preds = %if.end
  %zcopy_enobuf_state_4 = getelementptr inbounds %"class.grpc_event_engine::experimental::TcpZerocopySendCtx", ptr %this1, i32 0, i32 13
  store i8 0, ptr %zcopy_enobuf_state_4, align 2
  store i1 true, ptr %retval, align 1
  store i32 1, ptr %cleanup.dest.slot, align 4
  br label %cleanup

if.else:                                          ; preds = %if.end
  %zcopy_enobuf_state_5 = getelementptr inbounds %"class.grpc_event_engine::experimental::TcpZerocopySendCtx", ptr %this1, i32 0, i32 13
  %2 = load i8, ptr %zcopy_enobuf_state_5, align 2
  %cmp6 = icmp eq i8 %2, 0
  br i1 %cmp6, label %if.then7, label %if.else8

if.then7:                                         ; preds = %if.else
  store i1 false, ptr %retval, align 1
  store i32 1, ptr %cleanup.dest.slot, align 4
  br label %cleanup

if.else8:                                         ; preds = %if.else
  call void @_ZNSt17basic_string_viewIcSt11char_traitsIcEEC2EPKc(ptr noundef nonnull align 8 dereferenceable(16) %agg.tmp, ptr noundef @.str.30) #3
  invoke void @_ZN9grpc_core14SourceLocationC2EPKci(ptr noundef nonnull align 8 dereferenceable(12) %agg.tmp9, ptr noundef @.str.31, i32 noundef 349)
          to label %invoke.cont unwind label %lpad

invoke.cont:                                      ; preds = %if.else8
  %3 = getelementptr inbounds { i64, ptr }, ptr %agg.tmp, i32 0, i32 0
  %4 = load i64, ptr %3, align 8
  %5 = getelementptr inbounds { i64, ptr }, ptr %agg.tmp, i32 0, i32 1
  %6 = load ptr, ptr %5, align 8
  %7 = getelementptr inbounds { ptr, i32 }, ptr %agg.tmp9, i32 0, i32 0
  %8 = load ptr, ptr %7, align 8
  %9 = getelementptr inbounds { ptr, i32 }, ptr %agg.tmp9, i32 0, i32 1
  %10 = load i32, ptr %9, align 8
  invoke void @_ZN9grpc_core5CrashESt17basic_string_viewIcSt11char_traitsIcEENS_14SourceLocationE(i64 %4, ptr %6, ptr %8, i32 %10) #22
          to label %invoke.cont10 unwind label %lpad

invoke.cont10:                                    ; preds = %invoke.cont
  unreachable

lpad:                                             ; preds = %invoke.cont, %if.else8
  %11 = landingpad { ptr, i32 }
          cleanup
  %12 = extractvalue { ptr, i32 } %11, 0
  store ptr %12, ptr %exn.slot, align 8
  %13 = extractvalue { ptr, i32 } %11, 1
  store i32 %13, ptr %ehselector.slot, align 4
  call void @_ZN4absl12lts_202308029MutexLockD2Ev(ptr noundef nonnull align 8 dereferenceable(8) %lock) #3
  br label %eh.resume

cleanup:                                          ; preds = %if.then7, %if.then3, %if.then
  call void @_ZN4absl12lts_202308029MutexLockD2Ev(ptr noundef nonnull align 8 dereferenceable(8) %lock) #3
  %14 = load i1, ptr %retval, align 1
  ret i1 %14

eh.resume:                                        ; preds = %lpad
  %exn = load ptr, ptr %exn.slot, align 8
  %sel = load i32, ptr %ehselector.slot, align 4
  %lpad.val = insertvalue { ptr, i32 } poison, ptr %exn, 0
  %lpad.val11 = insertvalue { ptr, i32 } %lpad.val, i32 %sel, 1
  resume { ptr, i32 } %lpad.val11
}

declare void @_ZN17grpc_event_engine12experimental16TracedBufferList16ProcessTimestampEP17sock_extended_errP7cmsghdrPNS0_16scm_timestampingE(ptr noundef nonnull align 8 dereferenceable(24), ptr noundef, ptr noundef, ptr noundef) #1

; Function Attrs: mustprogress uwtable
define void @_ZN17grpc_event_engine12experimental17PosixEndpointImpl11HandleErrorEN4absl12lts_202308026StatusE(ptr noundef nonnull align 16 dereferenceable(936) %this, ptr noundef %status) #4 align 2 {
entry:
  %this.addr = alloca ptr, align 8
  %status.indirect_addr = alloca ptr, align 8
  store ptr %this, ptr %this.addr, align 8
  store ptr %status, ptr %status.indirect_addr, align 8
  %this1 = load ptr, ptr %this.addr, align 8
  %call = call noundef zeroext i1 @_ZNK4absl12lts_202308026Status2okEv(ptr noundef nonnull align 8 dereferenceable(8) %status)
  br i1 %call, label %lor.lhs.false, label %if.then

lor.lhs.false:                                    ; preds = %entry
  %stop_error_notification_ = getelementptr inbounds %"class.grpc_event_engine::experimental::PosixEndpointImpl", ptr %this1, i32 0, i32 36
  %call2 = call noundef zeroext i1 @_ZNKSt6atomicIbE4loadESt12memory_order(ptr noundef nonnull align 1 dereferenceable(1) %stop_error_notification_, i32 noundef 0) #3
  br i1 %call2, label %if.then, label %if.end

if.then:                                          ; preds = %lor.lhs.false, %entry
  call void @_ZNK9grpc_core10RefCountedIN17grpc_event_engine12experimental17PosixEndpointImplENS_19PolymorphicRefCountENS_11UnrefDeleteEE5UnrefEv(ptr noundef nonnull align 8 dereferenceable(16) %this1)
  br label %return

if.end:                                           ; preds = %lor.lhs.false
  %call3 = call noundef zeroext i1 @_ZN17grpc_event_engine12experimental17PosixEndpointImpl13ProcessErrorsEv(ptr noundef nonnull align 16 dereferenceable(936) %this1)
  br i1 %call3, label %if.end8, label %if.then4

if.then4:                                         ; preds = %if.end
  %handle_ = getelementptr inbounds %"class.grpc_event_engine::experimental::PosixEndpointImpl", ptr %this1, i32 0, i32 41
  %0 = load ptr, ptr %handle_, align 8
  %vtable = load ptr, ptr %0, align 8
  %vfn = getelementptr inbounds ptr, ptr %vtable, i64 6
  %1 = load ptr, ptr %vfn, align 8
  call void %1(ptr noundef nonnull align 8 dereferenceable(8) %0)
  %handle_5 = getelementptr inbounds %"class.grpc_event_engine::experimental::PosixEndpointImpl", ptr %this1, i32 0, i32 41
  %2 = load ptr, ptr %handle_5, align 8
  %vtable6 = load ptr, ptr %2, align 8
  %vfn7 = getelementptr inbounds ptr, ptr %vtable6, i64 7
  %3 = load ptr, ptr %vfn7, align 8
  call void %3(ptr noundef nonnull align 8 dereferenceable(8) %2)
  br label %if.end8

if.end8:                                          ; preds = %if.then4, %if.end
  %handle_9 = getelementptr inbounds %"class.grpc_event_engine::experimental::PosixEndpointImpl", ptr %this1, i32 0, i32 41
  %4 = load ptr, ptr %handle_9, align 8
  %on_error_ = getelementptr inbounds %"class.grpc_event_engine::experimental::PosixEndpointImpl", ptr %this1, i32 0, i32 20
  %5 = load ptr, ptr %on_error_, align 8
  %vtable10 = load ptr, ptr %4, align 8
  %vfn11 = getelementptr inbounds ptr, ptr %vtable10, i64 5
  %6 = load ptr, ptr %vfn11, align 8
  call void %6(ptr noundef nonnull align 8 dereferenceable(8) %4, ptr noundef %5)
  br label %return

return:                                           ; preds = %if.end8, %if.then
  ret void
}

; Function Attrs: mustprogress nounwind uwtable
define linkonce_odr noundef zeroext i1 @_ZNKSt6atomicIbE4loadESt12memory_order(ptr noundef nonnull align 1 dereferenceable(1) %this, i32 noundef %__m) #5 comdat align 2 personality ptr @__gxx_personality_v0 {
entry:
  %this.addr.i = alloca ptr, align 8
  %__m.addr.i = alloca i32, align 4
  %__b.i = alloca i32, align 4
  %atomic-temp.i = alloca i8, align 1
  %this.addr = alloca ptr, align 8
  %__m.addr = alloca i32, align 4
  store ptr %this, ptr %this.addr, align 8
  store i32 %__m, ptr %__m.addr, align 4
  %this1 = load ptr, ptr %this.addr, align 8
  %_M_base = getelementptr inbounds %"struct.std::atomic.9", ptr %this1, i32 0, i32 0
  %0 = load i32, ptr %__m.addr, align 4
  store ptr %_M_base, ptr %this.addr.i, align 8
  store i32 %0, ptr %__m.addr.i, align 4
  %this1.i = load ptr, ptr %this.addr.i, align 8
  %1 = load i32, ptr %__m.addr.i, align 4
  %call.i = invoke noundef i32 @_ZStanSt12memory_orderSt23__memory_order_modifier(i32 noundef %1, i32 noundef 65535)
          to label %invoke.cont.i unwind label %terminate.lpad.i

invoke.cont.i:                                    ; preds = %entry
  store i32 %call.i, ptr %__b.i, align 4
  %2 = load i32, ptr %__m.addr.i, align 4
  switch i32 %2, label %monotonic.i [
    i32 1, label %acquire.i
    i32 2, label %acquire.i
    i32 5, label %seqcst.i
  ]

monotonic.i:                                      ; preds = %invoke.cont.i
  %3 = load atomic i8, ptr %this1.i monotonic, align 1
  store i8 %3, ptr %atomic-temp.i, align 1
  br label %_ZNKSt13__atomic_baseIbE4loadESt12memory_order.exit

acquire.i:                                        ; preds = %invoke.cont.i, %invoke.cont.i
  %4 = load atomic i8, ptr %this1.i acquire, align 1
  store i8 %4, ptr %atomic-temp.i, align 1
  br label %_ZNKSt13__atomic_baseIbE4loadESt12memory_order.exit

seqcst.i:                                         ; preds = %invoke.cont.i
  %5 = load atomic i8, ptr %this1.i seq_cst, align 1
  store i8 %5, ptr %atomic-temp.i, align 1
  br label %_ZNKSt13__atomic_baseIbE4loadESt12memory_order.exit

terminate.lpad.i:                                 ; preds = %entry
  %6 = landingpad { ptr, i32 }
          catch ptr null
  %7 = extractvalue { ptr, i32 } %6, 0
  call void @__clang_call_terminate(ptr %7) #23
  unreachable

_ZNKSt13__atomic_baseIbE4loadESt12memory_order.exit: ; preds = %seqcst.i, %acquire.i, %monotonic.i
  %8 = load i8, ptr %atomic-temp.i, align 1
  %tobool.i = trunc i8 %8 to i1
  ret i1 %tobool.i
}

; Function Attrs: mustprogress uwtable
define noundef zeroext i1 @_ZN17grpc_event_engine12experimental17PosixEndpointImpl19WriteWithTimestampsEP6msghdrmPlPii(ptr noundef nonnull align 16 dereferenceable(936) %this, ptr noundef %msg, i64 noundef %sending_length, ptr noundef %sent_length, ptr noundef %saved_errno, i32 noundef %additional_flags) #4 align 2 {
entry:
  %retval = alloca i1, align 1
  %this.addr = alloca ptr, align 8
  %msg.addr = alloca ptr, align 8
  %sending_length.addr = alloca i64, align 8
  %sent_length.addr = alloca ptr, align 8
  %saved_errno.addr = alloca ptr, align 8
  %additional_flags.addr = alloca i32, align 4
  %opt = alloca i32, align 4
  %u = alloca %union.anon.43, align 8
  %cmsg = alloca ptr, align 8
  %length = alloca i64, align 8
  store ptr %this, ptr %this.addr, align 8
  store ptr %msg, ptr %msg.addr, align 8
  store i64 %sending_length, ptr %sending_length.addr, align 8
  store ptr %sent_length, ptr %sent_length.addr, align 8
  store ptr %saved_errno, ptr %saved_errno.addr, align 8
  store i32 %additional_flags, ptr %additional_flags.addr, align 4
  %this1 = load ptr, ptr %this.addr, align 8
  %socket_ts_enabled_ = getelementptr inbounds %"class.grpc_event_engine::experimental::PosixEndpointImpl", ptr %this1, i32 0, i32 34
  %0 = load i8, ptr %socket_ts_enabled_, align 4
  %tobool = trunc i8 %0 to i1
  br i1 %tobool, label %if.end4, label %if.then

if.then:                                          ; preds = %entry
  store i32 6288, ptr %opt, align 4
  %fd_ = getelementptr inbounds %"class.grpc_event_engine::experimental::PosixEndpointImpl", ptr %this1, i32 0, i32 3
  %1 = load i32, ptr %fd_, align 4
  %call = call i32 @setsockopt(i32 noundef %1, i32 noundef 1, i32 noundef 37, ptr noundef %opt, i32 noundef 4) #3
  %cmp = icmp ne i32 %call, 0
  br i1 %cmp, label %if.then2, label %if.end

if.then2:                                         ; preds = %if.then
  store i1 false, ptr %retval, align 1
  br label %return

if.end:                                           ; preds = %if.then
  %bytes_counter_ = getelementptr inbounds %"class.grpc_event_engine::experimental::PosixEndpointImpl", ptr %this1, i32 0, i32 33
  store i32 -1, ptr %bytes_counter_, align 16
  %socket_ts_enabled_3 = getelementptr inbounds %"class.grpc_event_engine::experimental::PosixEndpointImpl", ptr %this1, i32 0, i32 34
  store i8 1, ptr %socket_ts_enabled_3, align 4
  br label %if.end4

if.end4:                                          ; preds = %if.end, %entry
  %arraydecay = getelementptr inbounds [24 x i8], ptr %u, i64 0, i64 0
  store ptr %arraydecay, ptr %cmsg, align 8
  %2 = load ptr, ptr %cmsg, align 8
  %cmsg_level = getelementptr inbounds %struct.cmsghdr, ptr %2, i32 0, i32 1
  store i32 1, ptr %cmsg_level, align 8
  %3 = load ptr, ptr %cmsg, align 8
  %cmsg_type = getelementptr inbounds %struct.cmsghdr, ptr %3, i32 0, i32 2
  store i32 37, ptr %cmsg_type, align 4
  %4 = load ptr, ptr %cmsg, align 8
  %cmsg_len = getelementptr inbounds %struct.cmsghdr, ptr %4, i32 0, i32 0
  store i64 20, ptr %cmsg_len, align 8
  %5 = load ptr, ptr %cmsg, align 8
  %__cmsg_data = getelementptr inbounds %struct.cmsghdr, ptr %5, i32 0, i32 3
  %arraydecay5 = getelementptr inbounds [0 x i8], ptr %__cmsg_data, i64 0, i64 0
  store i32 770, ptr %arraydecay5, align 8
  %arraydecay6 = getelementptr inbounds [24 x i8], ptr %u, i64 0, i64 0
  %6 = load ptr, ptr %msg.addr, align 8
  %msg_control = getelementptr inbounds %struct.msghdr, ptr %6, i32 0, i32 4
  store ptr %arraydecay6, ptr %msg_control, align 8
  %7 = load ptr, ptr %msg.addr, align 8
  %msg_controllen = getelementptr inbounds %struct.msghdr, ptr %7, i32 0, i32 5
  store i64 24, ptr %msg_controllen, align 8
  %fd_7 = getelementptr inbounds %"class.grpc_event_engine::experimental::PosixEndpointImpl", ptr %this1, i32 0, i32 3
  %8 = load i32, ptr %fd_7, align 4
  %9 = load ptr, ptr %msg.addr, align 8
  %10 = load ptr, ptr %saved_errno.addr, align 8
  %11 = load i32, ptr %additional_flags.addr, align 4
  %call8 = call noundef i64 @_ZN17grpc_event_engine12experimental12_GLOBAL__N_17TcpSendEiPK6msghdrPii(i32 noundef %8, ptr noundef %9, ptr noundef %10, i32 noundef %11)
  store i64 %call8, ptr %length, align 8
  %12 = load i64, ptr %length, align 8
  %13 = load ptr, ptr %sent_length.addr, align 8
  store i64 %12, ptr %13, align 8
  %14 = load i64, ptr %sending_length.addr, align 8
  %15 = load i64, ptr %length, align 8
  %cmp9 = icmp eq i64 %14, %15
  br i1 %cmp9, label %if.then10, label %if.end15

if.then10:                                        ; preds = %if.end4
  %traced_buffers_ = getelementptr inbounds %"class.grpc_event_engine::experimental::PosixEndpointImpl", ptr %this1, i32 0, i32 40
  %bytes_counter_11 = getelementptr inbounds %"class.grpc_event_engine::experimental::PosixEndpointImpl", ptr %this1, i32 0, i32 33
  %16 = load i32, ptr %bytes_counter_11, align 16
  %conv = sext i32 %16 to i64
  %17 = load i64, ptr %length, align 8
  %add = add nsw i64 %conv, %17
  %conv12 = trunc i64 %add to i32
  %fd_13 = getelementptr inbounds %"class.grpc_event_engine::experimental::PosixEndpointImpl", ptr %this1, i32 0, i32 3
  %18 = load i32, ptr %fd_13, align 4
  %outgoing_buffer_arg_ = getelementptr inbounds %"class.grpc_event_engine::experimental::PosixEndpointImpl", ptr %this1, i32 0, i32 30
  %19 = load ptr, ptr %outgoing_buffer_arg_, align 16
  call void @_ZN17grpc_event_engine12experimental16TracedBufferList11AddNewEntryEiiPv(ptr noundef nonnull align 8 dereferenceable(24) %traced_buffers_, i32 noundef %conv12, i32 noundef %18, ptr noundef %19)
  %outgoing_buffer_arg_14 = getelementptr inbounds %"class.grpc_event_engine::experimental::PosixEndpointImpl", ptr %this1, i32 0, i32 30
  store ptr null, ptr %outgoing_buffer_arg_14, align 16
  br label %if.end15

if.end15:                                         ; preds = %if.then10, %if.end4
  store i1 true, ptr %retval, align 1
  br label %return

return:                                           ; preds = %if.end15, %if.then2
  %20 = load i1, ptr %retval, align 1
  ret i1 %20
}

; Function Attrs: nounwind
declare i32 @setsockopt(i32 noundef, i32 noundef, i32 noundef, ptr noundef, i32 noundef) #2

; Function Attrs: mustprogress uwtable
define internal noundef i64 @_ZN17grpc_event_engine12experimental12_GLOBAL__N_17TcpSendEiPK6msghdrPii(i32 noundef %fd, ptr noundef %msg, ptr noundef %saved_errno, i32 noundef %additional_flags) #4 {
entry:
  %fd.addr = alloca i32, align 4
  %msg.addr = alloca ptr, align 8
  %saved_errno.addr = alloca ptr, align 8
  %additional_flags.addr = alloca i32, align 4
  %sent_length = alloca i64, align 8
  store i32 %fd, ptr %fd.addr, align 4
  store ptr %msg, ptr %msg.addr, align 8
  store ptr %saved_errno, ptr %saved_errno.addr, align 8
  store i32 %additional_flags, ptr %additional_flags.addr, align 4
  br label %do.body

do.body:                                          ; preds = %land.end, %entry
  %0 = load i32, ptr %fd.addr, align 4
  %1 = load ptr, ptr %msg.addr, align 8
  %2 = load i32, ptr %additional_flags.addr, align 4
  %or = or i32 16384, %2
  %call = call i64 @sendmsg(i32 noundef %0, ptr noundef %1, i32 noundef %or)
  store i64 %call, ptr %sent_length, align 8
  br label %do.cond

do.cond:                                          ; preds = %do.body
  %3 = load i64, ptr %sent_length, align 8
  %cmp = icmp slt i64 %3, 0
  br i1 %cmp, label %land.rhs, label %land.end

land.rhs:                                         ; preds = %do.cond
  %call1 = call ptr @__errno_location() #24
  %4 = load i32, ptr %call1, align 4
  %5 = load ptr, ptr %saved_errno.addr, align 8
  store i32 %4, ptr %5, align 4
  %cmp2 = icmp eq i32 %4, 4
  br label %land.end

land.end:                                         ; preds = %land.rhs, %do.cond
  %6 = phi i1 [ false, %do.cond ], [ %cmp2, %land.rhs ]
  br i1 %6, label %do.body, label %do.end, !llvm.loop !19

do.end:                                           ; preds = %land.end
  %7 = load i64, ptr %sent_length, align 8
  ret i64 %7
}

declare void @_ZN17grpc_event_engine12experimental16TracedBufferList11AddNewEntryEiiPv(ptr noundef nonnull align 8 dereferenceable(24), i32 noundef, i32 noundef, ptr noundef) #1

; Function Attrs: mustprogress uwtable
define linkonce_odr noundef zeroext i1 @_ZN17grpc_event_engine12experimental21TcpZerocopySendRecord5UnrefEv(ptr noundef nonnull align 8 dereferenceable(288) %this) #4 comdat align 2 {
entry:
  %this.addr.i = alloca ptr, align 8
  %__i.addr.i = alloca i64, align 8
  %__m.addr.i = alloca i32, align 4
  %.atomictmp.i = alloca i64, align 8
  %atomic-temp.i = alloca i64, align 8
  %retval = alloca i1, align 1
  %this.addr = alloca ptr, align 8
  %prior = alloca i64, align 8
  store ptr %this, ptr %this.addr, align 8
  %this1 = load ptr, ptr %this.addr, align 8
  %ref_ = getelementptr inbounds %"class.grpc_event_engine::experimental::TcpZerocopySendRecord", ptr %this1, i32 0, i32 1
  store ptr %ref_, ptr %this.addr.i, align 8
  store i64 1, ptr %__i.addr.i, align 8
  store i32 4, ptr %__m.addr.i, align 4
  %this1.i = load ptr, ptr %this.addr.i, align 8
  %0 = load i32, ptr %__m.addr.i, align 4
  %1 = load i64, ptr %__i.addr.i, align 8
  store i64 %1, ptr %.atomictmp.i, align 8
  switch i32 %0, label %monotonic.i [
    i32 1, label %acquire.i
    i32 2, label %acquire.i
    i32 3, label %release.i
    i32 4, label %acqrel.i
    i32 5, label %seqcst.i
  ]

monotonic.i:                                      ; preds = %entry
  %2 = load i64, ptr %.atomictmp.i, align 8
  %3 = atomicrmw sub ptr %this1.i, i64 %2 monotonic, align 8
  store i64 %3, ptr %atomic-temp.i, align 8
  br label %_ZNSt13__atomic_baseIlE9fetch_subElSt12memory_order.exit

acquire.i:                                        ; preds = %entry, %entry
  %4 = load i64, ptr %.atomictmp.i, align 8
  %5 = atomicrmw sub ptr %this1.i, i64 %4 acquire, align 8
  store i64 %5, ptr %atomic-temp.i, align 8
  br label %_ZNSt13__atomic_baseIlE9fetch_subElSt12memory_order.exit

release.i:                                        ; preds = %entry
  %6 = load i64, ptr %.atomictmp.i, align 8
  %7 = atomicrmw sub ptr %this1.i, i64 %6 release, align 8
  store i64 %7, ptr %atomic-temp.i, align 8
  br label %_ZNSt13__atomic_baseIlE9fetch_subElSt12memory_order.exit

acqrel.i:                                         ; preds = %entry
  %8 = load i64, ptr %.atomictmp.i, align 8
  %9 = atomicrmw sub ptr %this1.i, i64 %8 acq_rel, align 8
  store i64 %9, ptr %atomic-temp.i, align 8
  br label %_ZNSt13__atomic_baseIlE9fetch_subElSt12memory_order.exit

seqcst.i:                                         ; preds = %entry
  %10 = load i64, ptr %.atomictmp.i, align 8
  %11 = atomicrmw sub ptr %this1.i, i64 %10 seq_cst, align 8
  store i64 %11, ptr %atomic-temp.i, align 8
  br label %_ZNSt13__atomic_baseIlE9fetch_subElSt12memory_order.exit

_ZNSt13__atomic_baseIlE9fetch_subElSt12memory_order.exit: ; preds = %seqcst.i, %acqrel.i, %release.i, %acquire.i, %monotonic.i
  %12 = load i64, ptr %atomic-temp.i, align 8
  store i64 %12, ptr %prior, align 8
  %13 = load i64, ptr %prior, align 8
  %cmp = icmp eq i64 %13, 1
  br i1 %cmp, label %if.then, label %if.end

if.then:                                          ; preds = %_ZNSt13__atomic_baseIlE9fetch_subElSt12memory_order.exit
  call void @_ZN17grpc_event_engine12experimental21TcpZerocopySendRecord16AllSendsCompleteEv(ptr noundef nonnull align 8 dereferenceable(288) %this1)
  store i1 true, ptr %retval, align 1
  br label %return

if.end:                                           ; preds = %_ZNSt13__atomic_baseIlE9fetch_subElSt12memory_order.exit
  store i1 false, ptr %retval, align 1
  br label %return

return:                                           ; preds = %if.end, %if.then
  %14 = load i1, ptr %retval, align 1
  ret i1 %14
}

; Function Attrs: mustprogress uwtable
define linkonce_odr void @_ZN17grpc_event_engine12experimental18TcpZerocopySendCtx13PutSendRecordEPNS0_21TcpZerocopySendRecordE(ptr noundef nonnull align 8 dereferenceable(83) %this, ptr noundef %record) #4 comdat align 2 personality ptr @__gxx_personality_v0 {
entry:
  %this.addr = alloca ptr, align 8
  %record.addr = alloca ptr, align 8
  %lock = alloca %"class.absl::lts_20230802::MutexLock", align 8
  %exn.slot = alloca ptr, align 8
  %ehselector.slot = alloca i32, align 4
  store ptr %this, ptr %this.addr, align 8
  store ptr %record, ptr %record.addr, align 8
  %this1 = load ptr, ptr %this.addr, align 8
  %mu_ = getelementptr inbounds %"class.grpc_event_engine::experimental::TcpZerocopySendCtx", ptr %this1, i32 0, i32 4
  call void @_ZN4absl12lts_202308029MutexLockC2EPNS0_5MutexE(ptr noundef nonnull align 8 dereferenceable(8) %lock, ptr noundef %mu_)
  %0 = load ptr, ptr %record.addr, align 8
  invoke void @_ZN17grpc_event_engine12experimental18TcpZerocopySendCtx19PutSendRecordLockedEPNS0_21TcpZerocopySendRecordE(ptr noundef nonnull align 8 dereferenceable(83) %this1, ptr noundef %0)
          to label %invoke.cont unwind label %lpad

invoke.cont:                                      ; preds = %entry
  call void @_ZN4absl12lts_202308029MutexLockD2Ev(ptr noundef nonnull align 8 dereferenceable(8) %lock) #3
  ret void

lpad:                                             ; preds = %entry
  %1 = landingpad { ptr, i32 }
          cleanup
  %2 = extractvalue { ptr, i32 } %1, 0
  store ptr %2, ptr %exn.slot, align 8
  %3 = extractvalue { ptr, i32 } %1, 1
  store i32 %3, ptr %ehselector.slot, align 4
  call void @_ZN4absl12lts_202308029MutexLockD2Ev(ptr noundef nonnull align 8 dereferenceable(8) %lock) #3
  br label %eh.resume

eh.resume:                                        ; preds = %lpad
  %exn = load ptr, ptr %exn.slot, align 8
  %sel = load i32, ptr %ehselector.slot, align 4
  %lpad.val = insertvalue { ptr, i32 } poison, ptr %exn, 0
  %lpad.val2 = insertvalue { ptr, i32 } %lpad.val, i32 %sel, 1
  resume { ptr, i32 } %lpad.val2
}

; Function Attrs: mustprogress uwtable
define void @_ZN17grpc_event_engine12experimental17PosixEndpointImpl27TcpShutdownTracedBufferListEv(ptr noundef nonnull align 16 dereferenceable(936) %this) #4 align 2 personality ptr @__gxx_personality_v0 {
entry:
  %this.addr = alloca ptr, align 8
  %agg.tmp = alloca %"class.absl::lts_20230802::Status", align 8
  %agg.tmp3 = alloca %"class.std::basic_string_view", align 8
  %exn.slot = alloca ptr, align 8
  %ehselector.slot = alloca i32, align 4
  store ptr %this, ptr %this.addr, align 8
  %this1 = load ptr, ptr %this.addr, align 8
  %outgoing_buffer_arg_ = getelementptr inbounds %"class.grpc_event_engine::experimental::PosixEndpointImpl", ptr %this1, i32 0, i32 30
  %0 = load ptr, ptr %outgoing_buffer_arg_, align 16
  %cmp = icmp ne ptr %0, null
  br i1 %cmp, label %if.then, label %if.end

if.then:                                          ; preds = %entry
  %traced_buffers_ = getelementptr inbounds %"class.grpc_event_engine::experimental::PosixEndpointImpl", ptr %this1, i32 0, i32 40
  %outgoing_buffer_arg_2 = getelementptr inbounds %"class.grpc_event_engine::experimental::PosixEndpointImpl", ptr %this1, i32 0, i32 30
  %1 = load ptr, ptr %outgoing_buffer_arg_2, align 16
  call void @_ZNSt17basic_string_viewIcSt11char_traitsIcEEC2EPKc(ptr noundef nonnull align 8 dereferenceable(16) %agg.tmp3, ptr noundef @.str.12) #3
  %2 = getelementptr inbounds { i64, ptr }, ptr %agg.tmp3, i32 0, i32 0
  %3 = load i64, ptr %2, align 8
  %4 = getelementptr inbounds { i64, ptr }, ptr %agg.tmp3, i32 0, i32 1
  %5 = load ptr, ptr %4, align 8
  call void @_ZN4absl12lts_2023080213InternalErrorESt17basic_string_viewIcSt11char_traitsIcEE(ptr sret(%"class.absl::lts_20230802::Status") align 8 %agg.tmp, i64 %3, ptr %5)
  invoke void @_ZN17grpc_event_engine12experimental16TracedBufferList8ShutdownEPvN4absl12lts_202308026StatusE(ptr noundef nonnull align 8 dereferenceable(24) %traced_buffers_, ptr noundef %1, ptr noundef %agg.tmp)
          to label %invoke.cont unwind label %lpad

invoke.cont:                                      ; preds = %if.then
  call void @_ZN4absl12lts_202308026StatusD2Ev(ptr noundef nonnull align 8 dereferenceable(8) %agg.tmp) #3
  %outgoing_buffer_arg_4 = getelementptr inbounds %"class.grpc_event_engine::experimental::PosixEndpointImpl", ptr %this1, i32 0, i32 30
  store ptr null, ptr %outgoing_buffer_arg_4, align 16
  br label %if.end

lpad:                                             ; preds = %if.then
  %6 = landingpad { ptr, i32 }
          cleanup
  %7 = extractvalue { ptr, i32 } %6, 0
  store ptr %7, ptr %exn.slot, align 8
  %8 = extractvalue { ptr, i32 } %6, 1
  store i32 %8, ptr %ehselector.slot, align 4
  call void @_ZN4absl12lts_202308026StatusD2Ev(ptr noundef nonnull align 8 dereferenceable(8) %agg.tmp) #3
  br label %eh.resume

if.end:                                           ; preds = %invoke.cont, %entry
  ret void

eh.resume:                                        ; preds = %lpad
  %exn = load ptr, ptr %exn.slot, align 8
  %sel = load i32, ptr %ehselector.slot, align 4
  %lpad.val = insertvalue { ptr, i32 } poison, ptr %exn, 0
  %lpad.val5 = insertvalue { ptr, i32 } %lpad.val, i32 %sel, 1
  resume { ptr, i32 } %lpad.val5
}

declare void @_ZN17grpc_event_engine12experimental16TracedBufferList8ShutdownEPvN4absl12lts_202308026StatusE(ptr noundef nonnull align 8 dereferenceable(24), ptr noundef, ptr noundef) #1

; Function Attrs: mustprogress uwtable
define noundef zeroext i1 @_ZN17grpc_event_engine12experimental17PosixEndpointImpl15DoFlushZerocopyEPNS0_21TcpZerocopySendRecordERN4absl12lts_202308026StatusE(ptr noundef nonnull align 16 dereferenceable(936) %this, ptr noundef %record, ptr noundef nonnull align 8 dereferenceable(8) %status) #4 align 2 personality ptr @__gxx_personality_v0 {
entry:
  %retval = alloca i1, align 1
  %this.addr = alloca ptr, align 8
  %record.addr = alloca ptr, align 8
  %status.addr = alloca ptr, align 8
  %iov_size = alloca i64, align 8
  %sent_length = alloca i64, align 8
  %sending_length = alloca i64, align 8
  %unwind_slice_idx = alloca i64, align 8
  %unwind_byte_idx = alloca i64, align 8
  %tried_sending_message = alloca i8, align 1
  %saved_errno = alloca i32, align 4
  %msg = alloca %struct.msghdr, align 8
  %constrained = alloca i8, align 1
  %ref.tmp = alloca %"class.absl::lts_20230802::Status", align 8
  %exn.slot = alloca ptr, align 8
  %ehselector.slot = alloca i32, align 4
  %iov = alloca [260 x %struct.iovec], align 16
  %now = alloca i64, align 8
  %ref.tmp23 = alloca %"class.grpc_core::Timestamp", align 8
  %agg.tmp = alloca %struct.gpr_timespec, align 8
  %ref.tmp48 = alloca %"class.absl::lts_20230802::Status", align 8
  %agg.tmp49 = alloca %"class.absl::lts_20230802::Status", align 8
  store ptr %this, ptr %this.addr, align 8
  store ptr %record, ptr %record.addr, align 8
  store ptr %status, ptr %status.addr, align 8
  %this1 = load ptr, ptr %this.addr, align 8
  store i64 0, ptr %sent_length, align 8
  call void @_ZN4absl12lts_202308028OkStatusEv(ptr sret(%"class.absl::lts_20230802::Status") align 8 %ref.tmp)
  %0 = load ptr, ptr %status.addr, align 8
  %call = invoke noundef nonnull align 8 dereferenceable(8) ptr @_ZN4absl12lts_202308026StatusaSEOS1_(ptr noundef nonnull align 8 dereferenceable(8) %0, ptr noundef nonnull align 8 dereferenceable(8) %ref.tmp)
          to label %invoke.cont unwind label %lpad

invoke.cont:                                      ; preds = %entry
  call void @_ZN4absl12lts_202308026StatusD2Ev(ptr noundef nonnull align 8 dereferenceable(8) %ref.tmp) #3
  br label %while.body

while.body:                                       ; preds = %if.end59, %invoke.cont
  store i64 0, ptr %sending_length, align 8
  %1 = load ptr, ptr %record.addr, align 8
  %arraydecay = getelementptr inbounds [260 x %struct.iovec], ptr %iov, i64 0, i64 0
  %call2 = call noundef i64 @_ZN17grpc_event_engine12experimental21TcpZerocopySendRecord12PopulateIovsEPmS2_S2_P5iovec(ptr noundef nonnull align 8 dereferenceable(288) %1, ptr noundef %unwind_slice_idx, ptr noundef %unwind_byte_idx, ptr noundef %sending_length, ptr noundef %arraydecay)
  store i64 %call2, ptr %iov_size, align 8
  %msg_name = getelementptr inbounds %struct.msghdr, ptr %msg, i32 0, i32 0
  store ptr null, ptr %msg_name, align 8
  %msg_namelen = getelementptr inbounds %struct.msghdr, ptr %msg, i32 0, i32 1
  store i32 0, ptr %msg_namelen, align 8
  %arraydecay3 = getelementptr inbounds [260 x %struct.iovec], ptr %iov, i64 0, i64 0
  %msg_iov = getelementptr inbounds %struct.msghdr, ptr %msg, i32 0, i32 2
  store ptr %arraydecay3, ptr %msg_iov, align 8
  %2 = load i64, ptr %iov_size, align 8
  %msg_iovlen = getelementptr inbounds %struct.msghdr, ptr %msg, i32 0, i32 3
  store i64 %2, ptr %msg_iovlen, align 8
  %msg_flags = getelementptr inbounds %struct.msghdr, ptr %msg, i32 0, i32 6
  store i32 0, ptr %msg_flags, align 8
  store i8 0, ptr %tried_sending_message, align 1
  store i8 0, ptr %constrained, align 1
  %tcp_zerocopy_send_ctx_ = getelementptr inbounds %"class.grpc_event_engine::experimental::PosixEndpointImpl", ptr %this1, i32 0, i32 37
  %call4 = call noundef ptr @_ZNKSt10unique_ptrIN17grpc_event_engine12experimental18TcpZerocopySendCtxESt14default_deleteIS2_EEptEv(ptr noundef nonnull align 8 dereferenceable(8) %tcp_zerocopy_send_ctx_) #3
  %3 = load ptr, ptr %record.addr, align 8
  call void @_ZN17grpc_event_engine12experimental18TcpZerocopySendCtx8NoteSendEPNS0_21TcpZerocopySendRecordE(ptr noundef nonnull align 8 dereferenceable(83) %call4, ptr noundef %3)
  store i32 0, ptr %saved_errno, align 4
  %outgoing_buffer_arg_ = getelementptr inbounds %"class.grpc_event_engine::experimental::PosixEndpointImpl", ptr %this1, i32 0, i32 30
  %4 = load ptr, ptr %outgoing_buffer_arg_, align 16
  %cmp = icmp ne ptr %4, null
  br i1 %cmp, label %if.then, label %if.end8

if.then:                                          ; preds = %while.body
  %ts_capable_ = getelementptr inbounds %"class.grpc_event_engine::experimental::PosixEndpointImpl", ptr %this1, i32 0, i32 35
  %5 = load i8, ptr %ts_capable_, align 1
  %tobool = trunc i8 %5 to i1
  br i1 %tobool, label %lor.lhs.false, label %if.then6

lor.lhs.false:                                    ; preds = %if.then
  %6 = load i64, ptr %sending_length, align 8
  %call5 = call noundef zeroext i1 @_ZN17grpc_event_engine12experimental17PosixEndpointImpl19WriteWithTimestampsEP6msghdrmPlPii(ptr noundef nonnull align 16 dereferenceable(936) %this1, ptr noundef %msg, i64 noundef %6, ptr noundef %sent_length, ptr noundef %saved_errno, i32 noundef 67108864)
  br i1 %call5, label %if.else, label %if.then6

if.then6:                                         ; preds = %lor.lhs.false, %if.then
  %ts_capable_7 = getelementptr inbounds %"class.grpc_event_engine::experimental::PosixEndpointImpl", ptr %this1, i32 0, i32 35
  store i8 0, ptr %ts_capable_7, align 1
  call void @_ZN17grpc_event_engine12experimental17PosixEndpointImpl27TcpShutdownTracedBufferListEv(ptr noundef nonnull align 16 dereferenceable(936) %this1)
  br label %if.end

lpad:                                             ; preds = %entry
  %7 = landingpad { ptr, i32 }
          cleanup
  %8 = extractvalue { ptr, i32 } %7, 0
  store ptr %8, ptr %exn.slot, align 8
  %9 = extractvalue { ptr, i32 } %7, 1
  store i32 %9, ptr %ehselector.slot, align 4
  call void @_ZN4absl12lts_202308026StatusD2Ev(ptr noundef nonnull align 8 dereferenceable(8) %ref.tmp) #3
  br label %eh.resume

if.else:                                          ; preds = %lor.lhs.false
  store i8 1, ptr %tried_sending_message, align 1
  br label %if.end

if.end:                                           ; preds = %if.else, %if.then6
  br label %if.end8

if.end8:                                          ; preds = %if.end, %while.body
  %10 = load i8, ptr %tried_sending_message, align 1
  %tobool9 = trunc i8 %10 to i1
  br i1 %tobool9, label %if.end12, label %if.then10

if.then10:                                        ; preds = %if.end8
  %msg_control = getelementptr inbounds %struct.msghdr, ptr %msg, i32 0, i32 4
  store ptr null, ptr %msg_control, align 8
  %msg_controllen = getelementptr inbounds %struct.msghdr, ptr %msg, i32 0, i32 5
  store i64 0, ptr %msg_controllen, align 8
  %fd_ = getelementptr inbounds %"class.grpc_event_engine::experimental::PosixEndpointImpl", ptr %this1, i32 0, i32 3
  %11 = load i32, ptr %fd_, align 4
  %call11 = call noundef i64 @_ZN17grpc_event_engine12experimental12_GLOBAL__N_17TcpSendEiPK6msghdrPii(i32 noundef %11, ptr noundef %msg, ptr noundef %saved_errno, i32 noundef 67108864)
  store i64 %call11, ptr %sent_length, align 8
  br label %if.end12

if.end12:                                         ; preds = %if.then10, %if.end8
  %tcp_zerocopy_send_ctx_13 = getelementptr inbounds %"class.grpc_event_engine::experimental::PosixEndpointImpl", ptr %this1, i32 0, i32 37
  %call14 = call noundef ptr @_ZNKSt10unique_ptrIN17grpc_event_engine12experimental18TcpZerocopySendCtxESt14default_deleteIS2_EEptEv(ptr noundef nonnull align 8 dereferenceable(8) %tcp_zerocopy_send_ctx_13) #3
  %12 = load i32, ptr %saved_errno, align 4
  %cmp15 = icmp eq i32 %12, 105
  %call16 = call noundef zeroext i1 @_ZN17grpc_event_engine12experimental18TcpZerocopySendCtx34UpdateZeroCopyOptMemStateAfterSendEbRb(ptr noundef nonnull align 8 dereferenceable(83) %call14, i1 noundef zeroext %cmp15, ptr noundef nonnull align 1 dereferenceable(1) %constrained)
  br i1 %call16, label %if.then19, label %lor.lhs.false17

lor.lhs.false17:                                  ; preds = %if.end12
  %13 = load i8, ptr %constrained, align 1
  %tobool18 = trunc i8 %13 to i1
  br i1 %tobool18, label %if.then19, label %if.end38

if.then19:                                        ; preds = %lor.lhs.false17, %if.end12
  %14 = load i8, ptr %constrained, align 1
  %tobool20 = trunc i8 %14 to i1
  br i1 %tobool20, label %if.else22, label %if.then21

if.then21:                                        ; preds = %if.then19
  %handle_ = getelementptr inbounds %"class.grpc_event_engine::experimental::PosixEndpointImpl", ptr %this1, i32 0, i32 41
  %15 = load ptr, ptr %handle_, align 8
  %vtable = load ptr, ptr %15, align 8
  %vfn = getelementptr inbounds ptr, ptr %vtable, i64 7
  %16 = load ptr, ptr %vfn, align 8
  call void %16(ptr noundef nonnull align 8 dereferenceable(8) %15)
  br label %if.end37

if.else22:                                        ; preds = %if.then19
  br label %do.body

do.body:                                          ; preds = %if.else22
  %call24 = call { i64, i64 } @gpr_now(i32 noundef 0)
  %17 = getelementptr inbounds { i64, i64 }, ptr %agg.tmp, i32 0, i32 0
  %18 = extractvalue { i64, i64 } %call24, 0
  store i64 %18, ptr %17, align 8
  %19 = getelementptr inbounds { i64, i64 }, ptr %agg.tmp, i32 0, i32 1
  %20 = extractvalue { i64, i64 } %call24, 1
  store i64 %20, ptr %19, align 8
  %21 = getelementptr inbounds { i64, i64 }, ptr %agg.tmp, i32 0, i32 0
  %22 = load i64, ptr %21, align 8
  %23 = getelementptr inbounds { i64, i64 }, ptr %agg.tmp, i32 0, i32 1
  %24 = load i64, ptr %23, align 8
  %call25 = call i64 @_ZN9grpc_core9Timestamp21FromTimespecRoundDownE12gpr_timespec(i64 %22, i64 %24)
  %coerce.dive = getelementptr inbounds %"class.grpc_core::Timestamp", ptr %ref.tmp23, i32 0, i32 0
  store i64 %call25, ptr %coerce.dive, align 8
  %call26 = call noundef i64 @_ZNK9grpc_core9Timestamp32milliseconds_after_process_epochEv(ptr noundef nonnull align 8 dereferenceable(8) %ref.tmp23)
  store i64 %call26, ptr %now, align 8
  %call27 = call noundef i64 @_ZNKSt13__atomic_baseImEcvmEv(ptr noundef nonnull align 8 dereferenceable(8) @_ZZN17grpc_event_engine12experimental17PosixEndpointImpl15DoFlushZerocopyEPNS0_21TcpZerocopySendRecordERN4absl12lts_202308026StatusEE4prev) #3
  %cmp28 = icmp eq i64 %call27, 0
  br i1 %cmp28, label %if.then32, label %lor.lhs.false29

lor.lhs.false29:                                  ; preds = %do.body
  %25 = load i64, ptr %now, align 8
  %call30 = call noundef i64 @_ZNKSt13__atomic_baseImEcvmEv(ptr noundef nonnull align 8 dereferenceable(8) @_ZZN17grpc_event_engine12experimental17PosixEndpointImpl15DoFlushZerocopyEPNS0_21TcpZerocopySendRecordERN4absl12lts_202308026StatusEE4prev) #3
  %sub = sub i64 %25, %call30
  %cmp31 = icmp ugt i64 %sub, 1000
  br i1 %cmp31, label %if.then32, label %if.end36

if.then32:                                        ; preds = %lor.lhs.false29, %do.body
  %26 = load i64, ptr %now, align 8
  %call33 = call noundef i64 @_ZNSt13__atomic_baseImEaSEm(ptr noundef nonnull align 8 dereferenceable(8) @_ZZN17grpc_event_engine12experimental17PosixEndpointImpl15DoFlushZerocopyEPNS0_21TcpZerocopySendRecordERN4absl12lts_202308026StatusEE4prev, i64 noundef %26) #3
  %call34 = call noundef i64 @_ZN17grpc_event_engine12experimental12_GLOBAL__N_119GetRLimitMemLockMaxEv()
  %call35 = call noundef i64 @_ZN17grpc_event_engine12experimental12_GLOBAL__N_120GetUlimitHardMemLockEv()
  call void (ptr, i32, i32, ptr, ...) @gpr_log(ptr noundef @.str.1, i32 noundef 978, i32 noundef 1, ptr noundef @.str.13, i64 noundef %call34, i64 noundef %call35)
  br label %if.end36

if.end36:                                         ; preds = %if.then32, %lor.lhs.false29
  br label %do.end

do.end:                                           ; preds = %if.end36
  br label %if.end37

if.end37:                                         ; preds = %do.end, %if.then21
  br label %if.end38

if.end38:                                         ; preds = %if.end37, %lor.lhs.false17
  %27 = load i64, ptr %sent_length, align 8
  %cmp39 = icmp slt i64 %27, 0
  br i1 %cmp39, label %if.then40, label %if.end55

if.then40:                                        ; preds = %if.end38
  %tcp_zerocopy_send_ctx_41 = getelementptr inbounds %"class.grpc_event_engine::experimental::PosixEndpointImpl", ptr %this1, i32 0, i32 37
  %call42 = call noundef ptr @_ZNKSt10unique_ptrIN17grpc_event_engine12experimental18TcpZerocopySendCtxESt14default_deleteIS2_EEptEv(ptr noundef nonnull align 8 dereferenceable(8) %tcp_zerocopy_send_ctx_41) #3
  call void @_ZN17grpc_event_engine12experimental18TcpZerocopySendCtx8UndoSendEv(ptr noundef nonnull align 8 dereferenceable(83) %call42)
  %28 = load i32, ptr %saved_errno, align 4
  %cmp43 = icmp eq i32 %28, 11
  br i1 %cmp43, label %if.then46, label %lor.lhs.false44

lor.lhs.false44:                                  ; preds = %if.then40
  %29 = load i32, ptr %saved_errno, align 4
  %cmp45 = icmp eq i32 %29, 105
  br i1 %cmp45, label %if.then46, label %if.else47

if.then46:                                        ; preds = %lor.lhs.false44, %if.then40
  %30 = load ptr, ptr %record.addr, align 8
  %31 = load i64, ptr %unwind_slice_idx, align 8
  %32 = load i64, ptr %unwind_byte_idx, align 8
  call void @_ZN17grpc_event_engine12experimental21TcpZerocopySendRecord17UnwindIfThrottledEmm(ptr noundef nonnull align 8 dereferenceable(288) %30, i64 noundef %31, i64 noundef %32)
  store i1 false, ptr %retval, align 1
  br label %return

if.else47:                                        ; preds = %lor.lhs.false44
  %33 = load i32, ptr %saved_errno, align 4
  call void @_ZN17grpc_event_engine12experimental12_GLOBAL__N_112PosixOSErrorEiPKc(ptr sret(%"class.absl::lts_20230802::Status") align 8 %agg.tmp49, i32 noundef %33, ptr noundef @.str.14)
  invoke void @_ZN17grpc_event_engine12experimental17PosixEndpointImpl16TcpAnnotateErrorEN4absl12lts_202308026StatusE(ptr sret(%"class.absl::lts_20230802::Status") align 8 %ref.tmp48, ptr noundef nonnull align 16 dereferenceable(936) %this1, ptr noundef %agg.tmp49)
          to label %invoke.cont51 unwind label %lpad50

invoke.cont51:                                    ; preds = %if.else47
  %34 = load ptr, ptr %status.addr, align 8
  %call54 = invoke noundef nonnull align 8 dereferenceable(8) ptr @_ZN4absl12lts_202308026StatusaSEOS1_(ptr noundef nonnull align 8 dereferenceable(8) %34, ptr noundef nonnull align 8 dereferenceable(8) %ref.tmp48)
          to label %invoke.cont53 unwind label %lpad52

invoke.cont53:                                    ; preds = %invoke.cont51
  call void @_ZN4absl12lts_202308026StatusD2Ev(ptr noundef nonnull align 8 dereferenceable(8) %ref.tmp48) #3
  call void @_ZN4absl12lts_202308026StatusD2Ev(ptr noundef nonnull align 8 dereferenceable(8) %agg.tmp49) #3
  call void @_ZN17grpc_event_engine12experimental17PosixEndpointImpl27TcpShutdownTracedBufferListEv(ptr noundef nonnull align 16 dereferenceable(936) %this1)
  store i1 true, ptr %retval, align 1
  br label %return

lpad50:                                           ; preds = %if.else47
  %35 = landingpad { ptr, i32 }
          cleanup
  %36 = extractvalue { ptr, i32 } %35, 0
  store ptr %36, ptr %exn.slot, align 8
  %37 = extractvalue { ptr, i32 } %35, 1
  store i32 %37, ptr %ehselector.slot, align 4
  br label %ehcleanup

lpad52:                                           ; preds = %invoke.cont51
  %38 = landingpad { ptr, i32 }
          cleanup
  %39 = extractvalue { ptr, i32 } %38, 0
  store ptr %39, ptr %exn.slot, align 8
  %40 = extractvalue { ptr, i32 } %38, 1
  store i32 %40, ptr %ehselector.slot, align 4
  call void @_ZN4absl12lts_202308026StatusD2Ev(ptr noundef nonnull align 8 dereferenceable(8) %ref.tmp48) #3
  br label %ehcleanup

ehcleanup:                                        ; preds = %lpad52, %lpad50
  call void @_ZN4absl12lts_202308026StatusD2Ev(ptr noundef nonnull align 8 dereferenceable(8) %agg.tmp49) #3
  br label %eh.resume

if.end55:                                         ; preds = %if.end38
  %41 = load i64, ptr %sent_length, align 8
  %bytes_counter_ = getelementptr inbounds %"class.grpc_event_engine::experimental::PosixEndpointImpl", ptr %this1, i32 0, i32 33
  %42 = load i32, ptr %bytes_counter_, align 16
  %conv = sext i32 %42 to i64
  %add = add nsw i64 %conv, %41
  %conv56 = trunc i64 %add to i32
  store i32 %conv56, ptr %bytes_counter_, align 16
  %43 = load ptr, ptr %record.addr, align 8
  %44 = load i64, ptr %sending_length, align 8
  %45 = load i64, ptr %sent_length, align 8
  call void @_ZN17grpc_event_engine12experimental21TcpZerocopySendRecord24UpdateOffsetForBytesSentEmm(ptr noundef nonnull align 8 dereferenceable(288) %43, i64 noundef %44, i64 noundef %45)
  %46 = load ptr, ptr %record.addr, align 8
  %call57 = call noundef zeroext i1 @_ZN17grpc_event_engine12experimental21TcpZerocopySendRecord13AllSlicesSentEv(ptr noundef nonnull align 8 dereferenceable(288) %46)
  br i1 %call57, label %if.then58, label %if.end59

if.then58:                                        ; preds = %if.end55
  store i1 true, ptr %retval, align 1
  br label %return

if.end59:                                         ; preds = %if.end55
  br label %while.body, !llvm.loop !20

return:                                           ; preds = %if.then58, %invoke.cont53, %if.then46
  %47 = load i1, ptr %retval, align 1
  ret i1 %47

eh.resume:                                        ; preds = %ehcleanup, %lpad
  %exn = load ptr, ptr %exn.slot, align 8
  %sel = load i32, ptr %ehselector.slot, align 4
  %lpad.val = insertvalue { ptr, i32 } poison, ptr %exn, 0
  %lpad.val60 = insertvalue { ptr, i32 } %lpad.val, i32 %sel, 1
  resume { ptr, i32 } %lpad.val60
}

; Function Attrs: mustprogress uwtable
define linkonce_odr void @_ZN17grpc_event_engine12experimental18TcpZerocopySendCtx8NoteSendEPNS0_21TcpZerocopySendRecordE(ptr noundef nonnull align 8 dereferenceable(83) %this, ptr noundef %record) #4 comdat align 2 personality ptr @__gxx_personality_v0 {
entry:
  %this.addr = alloca ptr, align 8
  %record.addr = alloca ptr, align 8
  %lock = alloca %"class.absl::lts_20230802::MutexLock", align 8
  %exn.slot = alloca ptr, align 8
  %ehselector.slot = alloca i32, align 4
  store ptr %this, ptr %this.addr, align 8
  store ptr %record, ptr %record.addr, align 8
  %this1 = load ptr, ptr %this.addr, align 8
  %0 = load ptr, ptr %record.addr, align 8
  call void @_ZN17grpc_event_engine12experimental21TcpZerocopySendRecord3RefEv(ptr noundef nonnull align 8 dereferenceable(288) %0)
  %mu_ = getelementptr inbounds %"class.grpc_event_engine::experimental::TcpZerocopySendCtx", ptr %this1, i32 0, i32 4
  call void @_ZN4absl12lts_202308029MutexLockC2EPNS0_5MutexE(ptr noundef nonnull align 8 dereferenceable(8) %lock, ptr noundef %mu_)
  %is_in_write_ = getelementptr inbounds %"class.grpc_event_engine::experimental::TcpZerocopySendCtx", ptr %this1, i32 0, i32 12
  store i8 1, ptr %is_in_write_, align 1
  %last_send_ = getelementptr inbounds %"class.grpc_event_engine::experimental::TcpZerocopySendCtx", ptr %this1, i32 0, i32 5
  %1 = load i32, ptr %last_send_, align 8
  %2 = load ptr, ptr %record.addr, align 8
  invoke void @_ZN17grpc_event_engine12experimental18TcpZerocopySendCtx32AssociateSeqWithSendRecordLockedEjPNS0_21TcpZerocopySendRecordE(ptr noundef nonnull align 8 dereferenceable(83) %this1, i32 noundef %1, ptr noundef %2)
          to label %invoke.cont unwind label %lpad

invoke.cont:                                      ; preds = %entry
  call void @_ZN4absl12lts_202308029MutexLockD2Ev(ptr noundef nonnull align 8 dereferenceable(8) %lock) #3
  %last_send_2 = getelementptr inbounds %"class.grpc_event_engine::experimental::TcpZerocopySendCtx", ptr %this1, i32 0, i32 5
  %3 = load i32, ptr %last_send_2, align 8
  %inc = add i32 %3, 1
  store i32 %inc, ptr %last_send_2, align 8
  ret void

lpad:                                             ; preds = %entry
  %4 = landingpad { ptr, i32 }
          cleanup
  %5 = extractvalue { ptr, i32 } %4, 0
  store ptr %5, ptr %exn.slot, align 8
  %6 = extractvalue { ptr, i32 } %4, 1
  store i32 %6, ptr %ehselector.slot, align 4
  call void @_ZN4absl12lts_202308029MutexLockD2Ev(ptr noundef nonnull align 8 dereferenceable(8) %lock) #3
  br label %eh.resume

eh.resume:                                        ; preds = %lpad
  %exn = load ptr, ptr %exn.slot, align 8
  %sel = load i32, ptr %ehselector.slot, align 4
  %lpad.val = insertvalue { ptr, i32 } poison, ptr %exn, 0
  %lpad.val3 = insertvalue { ptr, i32 } %lpad.val, i32 %sel, 1
  resume { ptr, i32 } %lpad.val3
}

; Function Attrs: mustprogress uwtable
define linkonce_odr noundef zeroext i1 @_ZN17grpc_event_engine12experimental18TcpZerocopySendCtx34UpdateZeroCopyOptMemStateAfterSendEbRb(ptr noundef nonnull align 8 dereferenceable(83) %this, i1 noundef zeroext %seen_enobuf, ptr noundef nonnull align 1 dereferenceable(1) %constrained) #4 comdat align 2 personality ptr @__gxx_personality_v0 {
entry:
  %retval = alloca i1, align 1
  %this.addr = alloca ptr, align 8
  %seen_enobuf.addr = alloca i8, align 1
  %constrained.addr = alloca ptr, align 8
  %lock = alloca %"class.absl::lts_20230802::MutexLock", align 8
  %exn.slot = alloca ptr, align 8
  %ehselector.slot = alloca i32, align 4
  %cleanup.dest.slot = alloca i32, align 4
  store ptr %this, ptr %this.addr, align 8
  %frombool = zext i1 %seen_enobuf to i8
  store i8 %frombool, ptr %seen_enobuf.addr, align 1
  store ptr %constrained, ptr %constrained.addr, align 8
  %this1 = load ptr, ptr %this.addr, align 8
  %mu_ = getelementptr inbounds %"class.grpc_event_engine::experimental::TcpZerocopySendCtx", ptr %this1, i32 0, i32 4
  call void @_ZN4absl12lts_202308029MutexLockC2EPNS0_5MutexE(ptr noundef nonnull align 8 dereferenceable(8) %lock, ptr noundef %mu_)
  %is_in_write_ = getelementptr inbounds %"class.grpc_event_engine::experimental::TcpZerocopySendCtx", ptr %this1, i32 0, i32 12
  store i8 0, ptr %is_in_write_, align 1
  %0 = load ptr, ptr %constrained.addr, align 8
  store i8 0, ptr %0, align 1
  %1 = load i8, ptr %seen_enobuf.addr, align 1
  %tobool = trunc i8 %1 to i1
  br i1 %tobool, label %if.then, label %if.else8

if.then:                                          ; preds = %entry
  %ctx_lookup_ = getelementptr inbounds %"class.grpc_event_engine::experimental::TcpZerocopySendCtx", ptr %this1, i32 0, i32 10
  %call = invoke noundef i64 @_ZNK4absl12lts_2023080218container_internal12raw_hash_setINS1_17FlatHashMapPolicyIjPN17grpc_event_engine12experimental21TcpZerocopySendRecordEEENS0_13hash_internal4HashIjEESt8equal_toIjESaISt4pairIKjS7_EEE4sizeEv(ptr noundef nonnull align 8 dereferenceable(32) %ctx_lookup_)
          to label %invoke.cont unwind label %lpad

invoke.cont:                                      ; preds = %if.then
  %cmp = icmp eq i64 %call, 1
  br i1 %cmp, label %if.then2, label %if.end

if.then2:                                         ; preds = %invoke.cont
  %2 = load ptr, ptr %constrained.addr, align 8
  store i8 1, ptr %2, align 1
  br label %if.end

lpad:                                             ; preds = %if.then
  %3 = landingpad { ptr, i32 }
          cleanup
  %4 = extractvalue { ptr, i32 } %3, 0
  store ptr %4, ptr %exn.slot, align 8
  %5 = extractvalue { ptr, i32 } %3, 1
  store i32 %5, ptr %ehselector.slot, align 4
  call void @_ZN4absl12lts_202308029MutexLockD2Ev(ptr noundef nonnull align 8 dereferenceable(8) %lock) #3
  br label %eh.resume

if.end:                                           ; preds = %if.then2, %invoke.cont
  %zcopy_enobuf_state_ = getelementptr inbounds %"class.grpc_event_engine::experimental::TcpZerocopySendCtx", ptr %this1, i32 0, i32 13
  %6 = load i8, ptr %zcopy_enobuf_state_, align 2
  %cmp3 = icmp eq i8 %6, 2
  br i1 %cmp3, label %if.then4, label %if.else

if.then4:                                         ; preds = %if.end
  %zcopy_enobuf_state_5 = getelementptr inbounds %"class.grpc_event_engine::experimental::TcpZerocopySendCtx", ptr %this1, i32 0, i32 13
  store i8 0, ptr %zcopy_enobuf_state_5, align 2
  store i1 true, ptr %retval, align 1
  store i32 1, ptr %cleanup.dest.slot, align 4
  br label %cleanup

if.else:                                          ; preds = %if.end
  %zcopy_enobuf_state_6 = getelementptr inbounds %"class.grpc_event_engine::experimental::TcpZerocopySendCtx", ptr %this1, i32 0, i32 13
  store i8 1, ptr %zcopy_enobuf_state_6, align 2
  br label %if.end7

if.end7:                                          ; preds = %if.else
  br label %if.end14

if.else8:                                         ; preds = %entry
  %zcopy_enobuf_state_9 = getelementptr inbounds %"class.grpc_event_engine::experimental::TcpZerocopySendCtx", ptr %this1, i32 0, i32 13
  %7 = load i8, ptr %zcopy_enobuf_state_9, align 2
  %cmp10 = icmp ne i8 %7, 0
  br i1 %cmp10, label %if.then11, label %if.end13

if.then11:                                        ; preds = %if.else8
  %zcopy_enobuf_state_12 = getelementptr inbounds %"class.grpc_event_engine::experimental::TcpZerocopySendCtx", ptr %this1, i32 0, i32 13
  store i8 0, ptr %zcopy_enobuf_state_12, align 2
  br label %if.end13

if.end13:                                         ; preds = %if.then11, %if.else8
  br label %if.end14

if.end14:                                         ; preds = %if.end13, %if.end7
  store i1 false, ptr %retval, align 1
  store i32 1, ptr %cleanup.dest.slot, align 4
  br label %cleanup

cleanup:                                          ; preds = %if.end14, %if.then4
  call void @_ZN4absl12lts_202308029MutexLockD2Ev(ptr noundef nonnull align 8 dereferenceable(8) %lock) #3
  %8 = load i1, ptr %retval, align 1
  ret i1 %8

eh.resume:                                        ; preds = %lpad
  %exn = load ptr, ptr %exn.slot, align 8
  %sel = load i32, ptr %ehselector.slot, align 4
  %lpad.val = insertvalue { ptr, i32 } poison, ptr %exn, 0
  %lpad.val15 = insertvalue { ptr, i32 } %lpad.val, i32 %sel, 1
  resume { ptr, i32 } %lpad.val15
}

declare i64 @_ZN9grpc_core9Timestamp21FromTimespecRoundDownE12gpr_timespec(i64, i64) #1

declare { i64, i64 } @gpr_now(i32 noundef) #1

; Function Attrs: mustprogress nounwind uwtable
define linkonce_odr noundef i64 @_ZNK9grpc_core9Timestamp32milliseconds_after_process_epochEv(ptr noundef nonnull align 8 dereferenceable(8) %this) #5 comdat align 2 {
entry:
  %this.addr = alloca ptr, align 8
  store ptr %this, ptr %this.addr, align 8
  %this1 = load ptr, ptr %this.addr, align 8
  %millis_ = getelementptr inbounds %"class.grpc_core::Timestamp", ptr %this1, i32 0, i32 0
  %0 = load i64, ptr %millis_, align 8
  ret i64 %0
}

; Function Attrs: mustprogress nounwind uwtable
define linkonce_odr noundef i64 @_ZNKSt13__atomic_baseImEcvmEv(ptr noundef nonnull align 8 dereferenceable(8) %this) #5 comdat align 2 {
entry:
  %this.addr.i = alloca ptr, align 8
  %__m.addr.i = alloca i32, align 4
  %__b.i = alloca i32, align 4
  %atomic-temp.i = alloca i64, align 8
  %this.addr = alloca ptr, align 8
  store ptr %this, ptr %this.addr, align 8
  %this1 = load ptr, ptr %this.addr, align 8
  store ptr %this1, ptr %this.addr.i, align 8
  store i32 5, ptr %__m.addr.i, align 4
  %this1.i = load ptr, ptr %this.addr.i, align 8
  %0 = load i32, ptr %__m.addr.i, align 4
  %call.i = call noundef i32 @_ZStanSt12memory_orderSt23__memory_order_modifier(i32 noundef %0, i32 noundef 65535)
  store i32 %call.i, ptr %__b.i, align 4
  %1 = load i32, ptr %__m.addr.i, align 4
  switch i32 %1, label %monotonic.i [
    i32 1, label %acquire.i
    i32 2, label %acquire.i
    i32 5, label %seqcst.i
  ]

monotonic.i:                                      ; preds = %entry
  %2 = load atomic i64, ptr %this1.i monotonic, align 8
  store i64 %2, ptr %atomic-temp.i, align 8
  br label %_ZNKSt13__atomic_baseImE4loadESt12memory_order.exit

acquire.i:                                        ; preds = %entry, %entry
  %3 = load atomic i64, ptr %this1.i acquire, align 8
  store i64 %3, ptr %atomic-temp.i, align 8
  br label %_ZNKSt13__atomic_baseImE4loadESt12memory_order.exit

seqcst.i:                                         ; preds = %entry
  %4 = load atomic i64, ptr %this1.i seq_cst, align 8
  store i64 %4, ptr %atomic-temp.i, align 8
  br label %_ZNKSt13__atomic_baseImE4loadESt12memory_order.exit

_ZNKSt13__atomic_baseImE4loadESt12memory_order.exit: ; preds = %seqcst.i, %acquire.i, %monotonic.i
  %5 = load i64, ptr %atomic-temp.i, align 8
  ret i64 %5
}

; Function Attrs: mustprogress nounwind uwtable
define linkonce_odr noundef i64 @_ZNSt13__atomic_baseImEaSEm(ptr noundef nonnull align 8 dereferenceable(8) %this, i64 noundef %__i) #5 comdat align 2 {
entry:
  %this.addr.i = alloca ptr, align 8
  %__i.addr.i = alloca i64, align 8
  %__m.addr.i = alloca i32, align 4
  %__b.i = alloca i32, align 4
  %.atomictmp.i = alloca i64, align 8
  %this.addr = alloca ptr, align 8
  %__i.addr = alloca i64, align 8
  store ptr %this, ptr %this.addr, align 8
  store i64 %__i, ptr %__i.addr, align 8
  %this1 = load ptr, ptr %this.addr, align 8
  %0 = load i64, ptr %__i.addr, align 8
  store ptr %this1, ptr %this.addr.i, align 8
  store i64 %0, ptr %__i.addr.i, align 8
  store i32 5, ptr %__m.addr.i, align 4
  %this1.i = load ptr, ptr %this.addr.i, align 8
  %1 = load i32, ptr %__m.addr.i, align 4
  %call.i = call noundef i32 @_ZStanSt12memory_orderSt23__memory_order_modifier(i32 noundef %1, i32 noundef 65535)
  store i32 %call.i, ptr %__b.i, align 4
  %2 = load i32, ptr %__m.addr.i, align 4
  %3 = load i64, ptr %__i.addr.i, align 8
  store i64 %3, ptr %.atomictmp.i, align 8
  switch i32 %2, label %monotonic.i [
    i32 3, label %release.i
    i32 5, label %seqcst.i
  ]

monotonic.i:                                      ; preds = %entry
  %4 = load i64, ptr %.atomictmp.i, align 8
  store atomic i64 %4, ptr %this1.i monotonic, align 8
  br label %_ZNSt13__atomic_baseImE5storeEmSt12memory_order.exit

release.i:                                        ; preds = %entry
  %5 = load i64, ptr %.atomictmp.i, align 8
  store atomic i64 %5, ptr %this1.i release, align 8
  br label %_ZNSt13__atomic_baseImE5storeEmSt12memory_order.exit

seqcst.i:                                         ; preds = %entry
  %6 = load i64, ptr %.atomictmp.i, align 8
  store atomic i64 %6, ptr %this1.i seq_cst, align 8
  br label %_ZNSt13__atomic_baseImE5storeEmSt12memory_order.exit

_ZNSt13__atomic_baseImE5storeEmSt12memory_order.exit: ; preds = %seqcst.i, %release.i, %monotonic.i
  %7 = load i64, ptr %__i.addr, align 8
  ret i64 %7
}

; Function Attrs: mustprogress uwtable
define internal noundef i64 @_ZN17grpc_event_engine12experimental12_GLOBAL__N_119GetRLimitMemLockMaxEv() #4 personality ptr @__gxx_personality_v0 {
entry:
  %ref.tmp = alloca %class.anon.148, align 1
  %exn.slot = alloca ptr, align 8
  %ehselector.slot = alloca i32, align 4
  %0 = load atomic i8, ptr @_ZGVZN17grpc_event_engine12experimental12_GLOBAL__N_119GetRLimitMemLockMaxEvE14kRlimitMemLock acquire, align 8
  %guard.uninitialized = icmp eq i8 %0, 0
  br i1 %guard.uninitialized, label %init.check, label %init.end, !prof !21

init.check:                                       ; preds = %entry
  %1 = call i32 @__cxa_guard_acquire(ptr @_ZGVZN17grpc_event_engine12experimental12_GLOBAL__N_119GetRLimitMemLockMaxEvE14kRlimitMemLock) #3
  %tobool = icmp ne i32 %1, 0
  br i1 %tobool, label %init, label %init.end

init:                                             ; preds = %init.check
  %call = invoke noundef i64 @"_ZZN17grpc_event_engine12experimental12_GLOBAL__N_119GetRLimitMemLockMaxEvENK3$_0clEv"(ptr noundef nonnull align 1 dereferenceable(1) %ref.tmp)
          to label %invoke.cont unwind label %lpad

invoke.cont:                                      ; preds = %init
  store i64 %call, ptr @_ZZN17grpc_event_engine12experimental12_GLOBAL__N_119GetRLimitMemLockMaxEvE14kRlimitMemLock, align 8
  call void @__cxa_guard_release(ptr @_ZGVZN17grpc_event_engine12experimental12_GLOBAL__N_119GetRLimitMemLockMaxEvE14kRlimitMemLock) #3
  br label %init.end

init.end:                                         ; preds = %invoke.cont, %init.check, %entry
  %2 = load i64, ptr @_ZZN17grpc_event_engine12experimental12_GLOBAL__N_119GetRLimitMemLockMaxEvE14kRlimitMemLock, align 8
  ret i64 %2

lpad:                                             ; preds = %init
  %3 = landingpad { ptr, i32 }
          cleanup
  %4 = extractvalue { ptr, i32 } %3, 0
  store ptr %4, ptr %exn.slot, align 8
  %5 = extractvalue { ptr, i32 } %3, 1
  store i32 %5, ptr %ehselector.slot, align 4
  call void @__cxa_guard_abort(ptr @_ZGVZN17grpc_event_engine12experimental12_GLOBAL__N_119GetRLimitMemLockMaxEvE14kRlimitMemLock) #3
  br label %eh.resume

eh.resume:                                        ; preds = %lpad
  %exn = load ptr, ptr %exn.slot, align 8
  %sel = load i32, ptr %ehselector.slot, align 4
  %lpad.val = insertvalue { ptr, i32 } poison, ptr %exn, 0
  %lpad.val1 = insertvalue { ptr, i32 } %lpad.val, i32 %sel, 1
  resume { ptr, i32 } %lpad.val1
}

; Function Attrs: mustprogress uwtable
define internal noundef i64 @_ZN17grpc_event_engine12experimental12_GLOBAL__N_120GetUlimitHardMemLockEv() #4 personality ptr @__gxx_personality_v0 {
entry:
  %ref.tmp = alloca %class.anon.150, align 1
  %exn.slot = alloca ptr, align 8
  %ehselector.slot = alloca i32, align 4
  %0 = load atomic i8, ptr @_ZGVZN17grpc_event_engine12experimental12_GLOBAL__N_120GetUlimitHardMemLockEvE18kUlimitHardMemLock acquire, align 8
  %guard.uninitialized = icmp eq i8 %0, 0
  br i1 %guard.uninitialized, label %init.check, label %init.end, !prof !21

init.check:                                       ; preds = %entry
  %1 = call i32 @__cxa_guard_acquire(ptr @_ZGVZN17grpc_event_engine12experimental12_GLOBAL__N_120GetUlimitHardMemLockEvE18kUlimitHardMemLock) #3
  %tobool = icmp ne i32 %1, 0
  br i1 %tobool, label %init, label %init.end

init:                                             ; preds = %init.check
  %call = invoke noundef i64 @"_ZZN17grpc_event_engine12experimental12_GLOBAL__N_120GetUlimitHardMemLockEvENK3$_0clEv"(ptr noundef nonnull align 1 dereferenceable(1) %ref.tmp)
          to label %invoke.cont unwind label %lpad

invoke.cont:                                      ; preds = %init
  store i64 %call, ptr @_ZZN17grpc_event_engine12experimental12_GLOBAL__N_120GetUlimitHardMemLockEvE18kUlimitHardMemLock, align 8
  call void @__cxa_guard_release(ptr @_ZGVZN17grpc_event_engine12experimental12_GLOBAL__N_120GetUlimitHardMemLockEvE18kUlimitHardMemLock) #3
  br label %init.end

init.end:                                         ; preds = %invoke.cont, %init.check, %entry
  %2 = load i64, ptr @_ZZN17grpc_event_engine12experimental12_GLOBAL__N_120GetUlimitHardMemLockEvE18kUlimitHardMemLock, align 8
  ret i64 %2

lpad:                                             ; preds = %init
  %3 = landingpad { ptr, i32 }
          cleanup
  %4 = extractvalue { ptr, i32 } %3, 0
  store ptr %4, ptr %exn.slot, align 8
  %5 = extractvalue { ptr, i32 } %3, 1
  store i32 %5, ptr %ehselector.slot, align 4
  call void @__cxa_guard_abort(ptr @_ZGVZN17grpc_event_engine12experimental12_GLOBAL__N_120GetUlimitHardMemLockEvE18kUlimitHardMemLock) #3
  br label %eh.resume

eh.resume:                                        ; preds = %lpad
  %exn = load ptr, ptr %exn.slot, align 8
  %sel = load i32, ptr %ehselector.slot, align 4
  %lpad.val = insertvalue { ptr, i32 } poison, ptr %exn, 0
  %lpad.val1 = insertvalue { ptr, i32 } %lpad.val, i32 %sel, 1
  resume { ptr, i32 } %lpad.val1
}

; Function Attrs: mustprogress uwtable
define linkonce_odr void @_ZN17grpc_event_engine12experimental18TcpZerocopySendCtx8UndoSendEv(ptr noundef nonnull align 8 dereferenceable(83) %this) #4 comdat align 2 {
entry:
  %this.addr = alloca ptr, align 8
  store ptr %this, ptr %this.addr, align 8
  %this1 = load ptr, ptr %this.addr, align 8
  %last_send_ = getelementptr inbounds %"class.grpc_event_engine::experimental::TcpZerocopySendCtx", ptr %this1, i32 0, i32 5
  %0 = load i32, ptr %last_send_, align 8
  %dec = add i32 %0, -1
  store i32 %dec, ptr %last_send_, align 8
  %last_send_2 = getelementptr inbounds %"class.grpc_event_engine::experimental::TcpZerocopySendCtx", ptr %this1, i32 0, i32 5
  %1 = load i32, ptr %last_send_2, align 8
  %call = call noundef ptr @_ZN17grpc_event_engine12experimental18TcpZerocopySendCtx17ReleaseSendRecordEj(ptr noundef nonnull align 8 dereferenceable(83) %this1, i32 noundef %1)
  %call3 = call noundef zeroext i1 @_ZN17grpc_event_engine12experimental21TcpZerocopySendRecord5UnrefEv(ptr noundef nonnull align 8 dereferenceable(288) %call)
  br i1 %call3, label %if.then, label %if.end

if.then:                                          ; preds = %entry
  br label %if.end

if.end:                                           ; preds = %if.then, %entry
  ret void
}

; Function Attrs: mustprogress nounwind uwtable
define linkonce_odr void @_ZN17grpc_event_engine12experimental21TcpZerocopySendRecord17UnwindIfThrottledEmm(ptr noundef nonnull align 8 dereferenceable(288) %this, i64 noundef %unwind_slice_idx, i64 noundef %unwind_byte_idx) #5 comdat align 2 {
entry:
  %this.addr = alloca ptr, align 8
  %unwind_slice_idx.addr = alloca i64, align 8
  %unwind_byte_idx.addr = alloca i64, align 8
  store ptr %this, ptr %this.addr, align 8
  store i64 %unwind_slice_idx, ptr %unwind_slice_idx.addr, align 8
  store i64 %unwind_byte_idx, ptr %unwind_byte_idx.addr, align 8
  %this1 = load ptr, ptr %this.addr, align 8
  %0 = load i64, ptr %unwind_byte_idx.addr, align 8
  %out_offset_ = getelementptr inbounds %"class.grpc_event_engine::experimental::TcpZerocopySendRecord", ptr %this1, i32 0, i32 2
  %byte_idx = getelementptr inbounds %"struct.grpc_event_engine::experimental::TcpZerocopySendRecord::OutgoingOffset", ptr %out_offset_, i32 0, i32 1
  store i64 %0, ptr %byte_idx, align 8
  %1 = load i64, ptr %unwind_slice_idx.addr, align 8
  %out_offset_2 = getelementptr inbounds %"class.grpc_event_engine::experimental::TcpZerocopySendRecord", ptr %this1, i32 0, i32 2
  %slice_idx = getelementptr inbounds %"struct.grpc_event_engine::experimental::TcpZerocopySendRecord::OutgoingOffset", ptr %out_offset_2, i32 0, i32 0
  store i64 %1, ptr %slice_idx, align 8
  ret void
}

; Function Attrs: mustprogress uwtable
define internal void @_ZN17grpc_event_engine12experimental12_GLOBAL__N_112PosixOSErrorEiPKc(ptr noalias sret(%"class.absl::lts_20230802::Status") align 8 %agg.result, i32 noundef %error_no, ptr noundef %call_name) #4 personality ptr @__gxx_personality_v0 {
entry:
  %result.ptr = alloca ptr, align 8
  %error_no.addr = alloca i32, align 4
  %call_name.addr = alloca ptr, align 8
  %nrvo = alloca i1, align 1
  %agg.tmp = alloca %"class.std::basic_string_view", align 8
  %ref.tmp = alloca %"class.std::__cxx11::basic_string", align 8
  %exn.slot = alloca ptr, align 8
  %ehselector.slot = alloca i32, align 4
  %agg.tmp3 = alloca %"class.std::basic_string_view", align 8
  %ref.tmp4 = alloca %"class.std::__cxx11::basic_string", align 8
  %agg.tmp9 = alloca %"class.std::basic_string_view", align 8
  store ptr %agg.result, ptr %result.ptr, align 8
  store i32 %error_no, ptr %error_no.addr, align 4
  store ptr %call_name, ptr %call_name.addr, align 8
  store i1 false, ptr %nrvo, align 1
  %0 = load i32, ptr %error_no.addr, align 4
  call void @_ZN9grpc_core8StrErrorB5cxx11Ei(ptr sret(%"class.std::__cxx11::basic_string") align 8 %ref.tmp, i32 noundef %0)
  %call = call { i64, ptr } @_ZNKSt7__cxx1112basic_stringIcSt11char_traitsIcESaIcEEcvSt17basic_string_viewIcS2_EEv(ptr noundef nonnull align 8 dereferenceable(32) %ref.tmp) #3
  %1 = getelementptr inbounds { i64, ptr }, ptr %agg.tmp, i32 0, i32 0
  %2 = extractvalue { i64, ptr } %call, 0
  store i64 %2, ptr %1, align 8
  %3 = getelementptr inbounds { i64, ptr }, ptr %agg.tmp, i32 0, i32 1
  %4 = extractvalue { i64, ptr } %call, 1
  store ptr %4, ptr %3, align 8
  %5 = getelementptr inbounds { i64, ptr }, ptr %agg.tmp, i32 0, i32 0
  %6 = load i64, ptr %5, align 8
  %7 = getelementptr inbounds { i64, ptr }, ptr %agg.tmp, i32 0, i32 1
  %8 = load ptr, ptr %7, align 8
  invoke void @_ZN4absl12lts_2023080212UnknownErrorESt17basic_string_viewIcSt11char_traitsIcEE(ptr sret(%"class.absl::lts_20230802::Status") align 8 %agg.result, i64 %6, ptr %8)
          to label %invoke.cont unwind label %lpad

invoke.cont:                                      ; preds = %entry
  call void @_ZNSt7__cxx1112basic_stringIcSt11char_traitsIcESaIcEED1Ev(ptr noundef nonnull align 8 dereferenceable(32) %ref.tmp) #3
  %9 = load i32, ptr %error_no.addr, align 4
  %conv = sext i32 %9 to i64
  invoke void @_ZN9grpc_core12StatusSetIntEPN4absl12lts_202308026StatusENS_17StatusIntPropertyEl(ptr noundef %agg.result, i32 noundef 0, i64 noundef %conv)
          to label %invoke.cont2 unwind label %lpad1

invoke.cont2:                                     ; preds = %invoke.cont
  %10 = load i32, ptr %error_no.addr, align 4
  invoke void @_ZN9grpc_core8StrErrorB5cxx11Ei(ptr sret(%"class.std::__cxx11::basic_string") align 8 %ref.tmp4, i32 noundef %10)
          to label %invoke.cont5 unwind label %lpad1

invoke.cont5:                                     ; preds = %invoke.cont2
  %call6 = call { i64, ptr } @_ZNKSt7__cxx1112basic_stringIcSt11char_traitsIcESaIcEEcvSt17basic_string_viewIcS2_EEv(ptr noundef nonnull align 8 dereferenceable(32) %ref.tmp4) #3
  %11 = getelementptr inbounds { i64, ptr }, ptr %agg.tmp3, i32 0, i32 0
  %12 = extractvalue { i64, ptr } %call6, 0
  store i64 %12, ptr %11, align 8
  %13 = getelementptr inbounds { i64, ptr }, ptr %agg.tmp3, i32 0, i32 1
  %14 = extractvalue { i64, ptr } %call6, 1
  store ptr %14, ptr %13, align 8
  %15 = getelementptr inbounds { i64, ptr }, ptr %agg.tmp3, i32 0, i32 0
  %16 = load i64, ptr %15, align 8
  %17 = getelementptr inbounds { i64, ptr }, ptr %agg.tmp3, i32 0, i32 1
  %18 = load ptr, ptr %17, align 8
  invoke void @_ZN9grpc_core12StatusSetStrEPN4absl12lts_202308026StatusENS_17StatusStrPropertyESt17basic_string_viewIcSt11char_traitsIcEE(ptr noundef %agg.result, i32 noundef 2, i64 %16, ptr %18)
          to label %invoke.cont8 unwind label %lpad7

invoke.cont8:                                     ; preds = %invoke.cont5
  call void @_ZNSt7__cxx1112basic_stringIcSt11char_traitsIcESaIcEED1Ev(ptr noundef nonnull align 8 dereferenceable(32) %ref.tmp4) #3
  %19 = load ptr, ptr %call_name.addr, align 8
  call void @_ZNSt17basic_string_viewIcSt11char_traitsIcEEC2EPKc(ptr noundef nonnull align 8 dereferenceable(16) %agg.tmp9, ptr noundef %19) #3
  %20 = getelementptr inbounds { i64, ptr }, ptr %agg.tmp9, i32 0, i32 0
  %21 = load i64, ptr %20, align 8
  %22 = getelementptr inbounds { i64, ptr }, ptr %agg.tmp9, i32 0, i32 1
  %23 = load ptr, ptr %22, align 8
  invoke void @_ZN9grpc_core12StatusSetStrEPN4absl12lts_202308026StatusENS_17StatusStrPropertyESt17basic_string_viewIcSt11char_traitsIcEE(ptr noundef %agg.result, i32 noundef 3, i64 %21, ptr %23)
          to label %invoke.cont10 unwind label %lpad1

invoke.cont10:                                    ; preds = %invoke.cont8
  store i1 true, ptr %nrvo, align 1
  %nrvo.val = load i1, ptr %nrvo, align 1
  br i1 %nrvo.val, label %nrvo.skipdtor, label %nrvo.unused

lpad:                                             ; preds = %entry
  %24 = landingpad { ptr, i32 }
          cleanup
  %25 = extractvalue { ptr, i32 } %24, 0
  store ptr %25, ptr %exn.slot, align 8
  %26 = extractvalue { ptr, i32 } %24, 1
  store i32 %26, ptr %ehselector.slot, align 4
  call void @_ZNSt7__cxx1112basic_stringIcSt11char_traitsIcESaIcEED1Ev(ptr noundef nonnull align 8 dereferenceable(32) %ref.tmp) #3
  br label %eh.resume

lpad1:                                            ; preds = %invoke.cont8, %invoke.cont2, %invoke.cont
  %27 = landingpad { ptr, i32 }
          cleanup
  %28 = extractvalue { ptr, i32 } %27, 0
  store ptr %28, ptr %exn.slot, align 8
  %29 = extractvalue { ptr, i32 } %27, 1
  store i32 %29, ptr %ehselector.slot, align 4
  br label %ehcleanup

lpad7:                                            ; preds = %invoke.cont5
  %30 = landingpad { ptr, i32 }
          cleanup
  %31 = extractvalue { ptr, i32 } %30, 0
  store ptr %31, ptr %exn.slot, align 8
  %32 = extractvalue { ptr, i32 } %30, 1
  store i32 %32, ptr %ehselector.slot, align 4
  call void @_ZNSt7__cxx1112basic_stringIcSt11char_traitsIcESaIcEED1Ev(ptr noundef nonnull align 8 dereferenceable(32) %ref.tmp4) #3
  br label %ehcleanup

nrvo.unused:                                      ; preds = %invoke.cont10
  call void @_ZN4absl12lts_202308026StatusD2Ev(ptr noundef nonnull align 8 dereferenceable(8) %agg.result) #3
  br label %nrvo.skipdtor

nrvo.skipdtor:                                    ; preds = %nrvo.unused, %invoke.cont10
  ret void

ehcleanup:                                        ; preds = %lpad7, %lpad1
  call void @_ZN4absl12lts_202308026StatusD2Ev(ptr noundef nonnull align 8 dereferenceable(8) %agg.result) #3
  br label %eh.resume

eh.resume:                                        ; preds = %ehcleanup, %lpad
  %exn = load ptr, ptr %exn.slot, align 8
  %sel = load i32, ptr %ehselector.slot, align 4
  %lpad.val = insertvalue { ptr, i32 } poison, ptr %exn, 0
  %lpad.val11 = insertvalue { ptr, i32 } %lpad.val, i32 %sel, 1
  resume { ptr, i32 } %lpad.val11
}

; Function Attrs: mustprogress nounwind uwtable
define linkonce_odr noundef zeroext i1 @_ZN17grpc_event_engine12experimental21TcpZerocopySendRecord13AllSlicesSentEv(ptr noundef nonnull align 8 dereferenceable(288) %this) #5 comdat align 2 {
entry:
  %this.addr = alloca ptr, align 8
  store ptr %this, ptr %this.addr, align 8
  %this1 = load ptr, ptr %this.addr, align 8
  %out_offset_ = getelementptr inbounds %"class.grpc_event_engine::experimental::TcpZerocopySendRecord", ptr %this1, i32 0, i32 2
  %slice_idx = getelementptr inbounds %"struct.grpc_event_engine::experimental::TcpZerocopySendRecord::OutgoingOffset", ptr %out_offset_, i32 0, i32 0
  %0 = load i64, ptr %slice_idx, align 8
  %buf_ = getelementptr inbounds %"class.grpc_event_engine::experimental::TcpZerocopySendRecord", ptr %this1, i32 0, i32 0
  %call = call noundef i64 @_ZN17grpc_event_engine12experimental11SliceBuffer5CountEv(ptr noundef nonnull align 8 dereferenceable(264) %buf_)
  %cmp = icmp eq i64 %0, %call
  ret i1 %cmp
}

; Function Attrs: mustprogress uwtable
define noundef zeroext i1 @_ZN17grpc_event_engine12experimental17PosixEndpointImpl16TcpFlushZerocopyEPNS0_21TcpZerocopySendRecordERN4absl12lts_202308026StatusE(ptr noundef nonnull align 16 dereferenceable(936) %this, ptr noundef %record, ptr noundef nonnull align 8 dereferenceable(8) %status) #4 align 2 {
entry:
  %this.addr = alloca ptr, align 8
  %record.addr = alloca ptr, align 8
  %status.addr = alloca ptr, align 8
  %done = alloca i8, align 1
  store ptr %this, ptr %this.addr, align 8
  store ptr %record, ptr %record.addr, align 8
  store ptr %status, ptr %status.addr, align 8
  %this1 = load ptr, ptr %this.addr, align 8
  %0 = load ptr, ptr %record.addr, align 8
  %1 = load ptr, ptr %status.addr, align 8
  %call = call noundef zeroext i1 @_ZN17grpc_event_engine12experimental17PosixEndpointImpl15DoFlushZerocopyEPNS0_21TcpZerocopySendRecordERN4absl12lts_202308026StatusE(ptr noundef nonnull align 16 dereferenceable(936) %this1, ptr noundef %0, ptr noundef nonnull align 8 dereferenceable(8) %1)
  %frombool = zext i1 %call to i8
  store i8 %frombool, ptr %done, align 1
  %2 = load i8, ptr %done, align 1
  %tobool = trunc i8 %2 to i1
  br i1 %tobool, label %if.then, label %if.end

if.then:                                          ; preds = %entry
  %3 = load ptr, ptr %record.addr, align 8
  call void @_ZN17grpc_event_engine12experimental17PosixEndpointImpl31UnrefMaybePutZerocopySendRecordEPNS0_21TcpZerocopySendRecordE(ptr noundef nonnull align 16 dereferenceable(936) %this1, ptr noundef %3)
  br label %if.end

if.end:                                           ; preds = %if.then, %entry
  %4 = load i8, ptr %done, align 1
  %tobool2 = trunc i8 %4 to i1
  ret i1 %tobool2
}

; Function Attrs: mustprogress uwtable
define noundef zeroext i1 @_ZN17grpc_event_engine12experimental17PosixEndpointImpl8TcpFlushERN4absl12lts_202308026StatusE(ptr noundef nonnull align 16 dereferenceable(936) %this, ptr noundef nonnull align 8 dereferenceable(8) %status) #4 align 2 personality ptr @__gxx_personality_v0 {
entry:
  %retval = alloca i1, align 1
  %this.addr = alloca ptr, align 8
  %status.addr = alloca ptr, align 8
  %msg = alloca %struct.msghdr, align 8
  %iov = alloca [260 x %struct.iovec], align 16
  %iov_size = alloca i64, align 8
  %sent_length = alloca i64, align 8
  %sending_length = alloca i64, align 8
  %trailing = alloca i64, align 8
  %unwind_slice_idx = alloca i64, align 8
  %unwind_byte_idx = alloca i64, align 8
  %saved_errno = alloca i32, align 4
  %ref.tmp = alloca %"class.absl::lts_20230802::Status", align 8
  %exn.slot = alloca ptr, align 8
  %ehselector.slot = alloca i32, align 4
  %outgoing_slice_idx = alloca i64, align 8
  %slice = alloca ptr, align 8
  %tried_sending_message = alloca i8, align 1
  %idx = alloca i64, align 8
  %agg.tmp.ensured = alloca %"class.grpc_event_engine::experimental::Slice", align 8
  %ref.tmp43 = alloca %"class.absl::lts_20230802::Status", align 8
  %agg.tmp44 = alloca %"class.absl::lts_20230802::Status", align 8
  %slice_length = alloca i64, align 8
  %ref.tmp65 = alloca %"class.grpc_event_engine::experimental::Slice", align 8
  store ptr %this, ptr %this.addr, align 8
  store ptr %status, ptr %status.addr, align 8
  %this1 = load ptr, ptr %this.addr, align 8
  store i64 0, ptr %sent_length, align 8
  call void @_ZN4absl12lts_202308028OkStatusEv(ptr sret(%"class.absl::lts_20230802::Status") align 8 %ref.tmp)
  %0 = load ptr, ptr %status.addr, align 8
  %call = invoke noundef nonnull align 8 dereferenceable(8) ptr @_ZN4absl12lts_202308026StatusaSEOS1_(ptr noundef nonnull align 8 dereferenceable(8) %0, ptr noundef nonnull align 8 dereferenceable(8) %ref.tmp)
          to label %invoke.cont unwind label %lpad

invoke.cont:                                      ; preds = %entry
  call void @_ZN4absl12lts_202308026StatusD2Ev(ptr noundef nonnull align 8 dereferenceable(8) %ref.tmp) #3
  store i64 0, ptr %outgoing_slice_idx, align 8
  br label %while.body

while.body:                                       ; preds = %if.end83, %invoke.cont
  store i64 0, ptr %sending_length, align 8
  %1 = load i64, ptr %outgoing_slice_idx, align 8
  store i64 %1, ptr %unwind_slice_idx, align 8
  %outgoing_byte_idx_ = getelementptr inbounds %"class.grpc_event_engine::experimental::PosixEndpointImpl", ptr %this1, i32 0, i32 17
  %2 = load i64, ptr %outgoing_byte_idx_, align 16
  store i64 %2, ptr %unwind_byte_idx, align 8
  store i64 0, ptr %iov_size, align 8
  br label %for.cond

for.cond:                                         ; preds = %for.inc, %while.body
  %3 = load i64, ptr %outgoing_slice_idx, align 8
  %outgoing_buffer_ = getelementptr inbounds %"class.grpc_event_engine::experimental::PosixEndpointImpl", ptr %this1, i32 0, i32 16
  %4 = load ptr, ptr %outgoing_buffer_, align 8
  %call2 = call noundef i64 @_ZN17grpc_event_engine12experimental11SliceBuffer5CountEv(ptr noundef nonnull align 8 dereferenceable(264) %4)
  %cmp = icmp ne i64 %3, %call2
  br i1 %cmp, label %land.rhs, label %land.end

land.rhs:                                         ; preds = %for.cond
  %5 = load i64, ptr %iov_size, align 8
  %cmp3 = icmp ne i64 %5, 260
  br label %land.end

land.end:                                         ; preds = %land.rhs, %for.cond
  %6 = phi i1 [ false, %for.cond ], [ %cmp3, %land.rhs ]
  br i1 %6, label %for.body, label %for.end

for.body:                                         ; preds = %land.end
  %outgoing_buffer_4 = getelementptr inbounds %"class.grpc_event_engine::experimental::PosixEndpointImpl", ptr %this1, i32 0, i32 16
  %7 = load ptr, ptr %outgoing_buffer_4, align 8
  %8 = load i64, ptr %outgoing_slice_idx, align 8
  %call5 = call noundef nonnull align 8 dereferenceable(32) ptr @_ZNK17grpc_event_engine12experimental11SliceBuffer14MutableSliceAtEm(ptr noundef nonnull align 8 dereferenceable(264) %7, i64 noundef %8)
  %call6 = call noundef nonnull align 8 dereferenceable(32) ptr @_ZN17grpc_event_engine12experimental8internal9SliceCastINS0_12MutableSliceENS0_5SliceEEERT_RT0_NS1_13SliceCastableIS5_S7_EE(ptr noundef nonnull align 8 dereferenceable(32) %call5)
  store ptr %call6, ptr %slice, align 8
  %9 = load ptr, ptr %slice, align 8
  %call7 = call noundef ptr @_ZN17grpc_event_engine12experimental12MutableSlice5beginEv(ptr noundef nonnull align 8 dereferenceable(32) %9)
  %outgoing_byte_idx_8 = getelementptr inbounds %"class.grpc_event_engine::experimental::PosixEndpointImpl", ptr %this1, i32 0, i32 17
  %10 = load i64, ptr %outgoing_byte_idx_8, align 16
  %add.ptr = getelementptr inbounds i8, ptr %call7, i64 %10
  %11 = load i64, ptr %iov_size, align 8
  %arrayidx = getelementptr inbounds [260 x %struct.iovec], ptr %iov, i64 0, i64 %11
  %iov_base = getelementptr inbounds %struct.iovec, ptr %arrayidx, i32 0, i32 0
  store ptr %add.ptr, ptr %iov_base, align 16
  %12 = load ptr, ptr %slice, align 8
  %call9 = call noundef i64 @_ZNK17grpc_event_engine12experimental12slice_detail9BaseSlice6lengthEv(ptr noundef nonnull align 8 dereferenceable(32) %12)
  %outgoing_byte_idx_10 = getelementptr inbounds %"class.grpc_event_engine::experimental::PosixEndpointImpl", ptr %this1, i32 0, i32 17
  %13 = load i64, ptr %outgoing_byte_idx_10, align 16
  %sub = sub i64 %call9, %13
  %14 = load i64, ptr %iov_size, align 8
  %arrayidx11 = getelementptr inbounds [260 x %struct.iovec], ptr %iov, i64 0, i64 %14
  %iov_len = getelementptr inbounds %struct.iovec, ptr %arrayidx11, i32 0, i32 1
  store i64 %sub, ptr %iov_len, align 8
  %15 = load i64, ptr %iov_size, align 8
  %arrayidx12 = getelementptr inbounds [260 x %struct.iovec], ptr %iov, i64 0, i64 %15
  %iov_len13 = getelementptr inbounds %struct.iovec, ptr %arrayidx12, i32 0, i32 1
  %16 = load i64, ptr %iov_len13, align 8
  %17 = load i64, ptr %sending_length, align 8
  %add = add i64 %17, %16
  store i64 %add, ptr %sending_length, align 8
  %18 = load i64, ptr %outgoing_slice_idx, align 8
  %inc = add i64 %18, 1
  store i64 %inc, ptr %outgoing_slice_idx, align 8
  %outgoing_byte_idx_14 = getelementptr inbounds %"class.grpc_event_engine::experimental::PosixEndpointImpl", ptr %this1, i32 0, i32 17
  store i64 0, ptr %outgoing_byte_idx_14, align 16
  br label %for.inc

for.inc:                                          ; preds = %for.body
  %19 = load i64, ptr %iov_size, align 8
  %inc15 = add i64 %19, 1
  store i64 %inc15, ptr %iov_size, align 8
  br label %for.cond, !llvm.loop !22

lpad:                                             ; preds = %entry
  %20 = landingpad { ptr, i32 }
          cleanup
  %21 = extractvalue { ptr, i32 } %20, 0
  store ptr %21, ptr %exn.slot, align 8
  %22 = extractvalue { ptr, i32 } %20, 1
  store i32 %22, ptr %ehselector.slot, align 4
  call void @_ZN4absl12lts_202308026StatusD2Ev(ptr noundef nonnull align 8 dereferenceable(8) %ref.tmp) #3
  br label %eh.resume

for.end:                                          ; preds = %land.end
  br label %do.body

do.body:                                          ; preds = %for.end
  %23 = load i64, ptr %iov_size, align 8
  %cmp16 = icmp ugt i64 %23, 0
  %lnot = xor i1 %cmp16, true
  br i1 %lnot, label %if.then, label %if.end

if.then:                                          ; preds = %do.body
  call void @gpr_assertion_failed(ptr noundef @.str.1, i32 noundef 1053, ptr noundef @.str.15) #22
  unreachable

if.end:                                           ; preds = %do.body
  br label %do.end

do.end:                                           ; preds = %if.end
  %msg_name = getelementptr inbounds %struct.msghdr, ptr %msg, i32 0, i32 0
  store ptr null, ptr %msg_name, align 8
  %msg_namelen = getelementptr inbounds %struct.msghdr, ptr %msg, i32 0, i32 1
  store i32 0, ptr %msg_namelen, align 8
  %arraydecay = getelementptr inbounds [260 x %struct.iovec], ptr %iov, i64 0, i64 0
  %msg_iov = getelementptr inbounds %struct.msghdr, ptr %msg, i32 0, i32 2
  store ptr %arraydecay, ptr %msg_iov, align 8
  %24 = load i64, ptr %iov_size, align 8
  %msg_iovlen = getelementptr inbounds %struct.msghdr, ptr %msg, i32 0, i32 3
  store i64 %24, ptr %msg_iovlen, align 8
  %msg_flags = getelementptr inbounds %struct.msghdr, ptr %msg, i32 0, i32 6
  store i32 0, ptr %msg_flags, align 8
  store i8 0, ptr %tried_sending_message, align 1
  store i32 0, ptr %saved_errno, align 4
  %outgoing_buffer_arg_ = getelementptr inbounds %"class.grpc_event_engine::experimental::PosixEndpointImpl", ptr %this1, i32 0, i32 30
  %25 = load ptr, ptr %outgoing_buffer_arg_, align 16
  %cmp17 = icmp ne ptr %25, null
  br i1 %cmp17, label %if.then18, label %if.end23

if.then18:                                        ; preds = %do.end
  %ts_capable_ = getelementptr inbounds %"class.grpc_event_engine::experimental::PosixEndpointImpl", ptr %this1, i32 0, i32 35
  %26 = load i8, ptr %ts_capable_, align 1
  %tobool = trunc i8 %26 to i1
  br i1 %tobool, label %lor.lhs.false, label %if.then20

lor.lhs.false:                                    ; preds = %if.then18
  %27 = load i64, ptr %sending_length, align 8
  %call19 = call noundef zeroext i1 @_ZN17grpc_event_engine12experimental17PosixEndpointImpl19WriteWithTimestampsEP6msghdrmPlPii(ptr noundef nonnull align 16 dereferenceable(936) %this1, ptr noundef %msg, i64 noundef %27, ptr noundef %sent_length, ptr noundef %saved_errno, i32 noundef 0)
  br i1 %call19, label %if.else, label %if.then20

if.then20:                                        ; preds = %lor.lhs.false, %if.then18
  %ts_capable_21 = getelementptr inbounds %"class.grpc_event_engine::experimental::PosixEndpointImpl", ptr %this1, i32 0, i32 35
  store i8 0, ptr %ts_capable_21, align 1
  call void @_ZN17grpc_event_engine12experimental17PosixEndpointImpl27TcpShutdownTracedBufferListEv(ptr noundef nonnull align 16 dereferenceable(936) %this1)
  br label %if.end22

if.else:                                          ; preds = %lor.lhs.false
  store i8 1, ptr %tried_sending_message, align 1
  br label %if.end22

if.end22:                                         ; preds = %if.else, %if.then20
  br label %if.end23

if.end23:                                         ; preds = %if.end22, %do.end
  %28 = load i8, ptr %tried_sending_message, align 1
  %tobool24 = trunc i8 %28 to i1
  br i1 %tobool24, label %if.end27, label %if.then25

if.then25:                                        ; preds = %if.end23
  %msg_control = getelementptr inbounds %struct.msghdr, ptr %msg, i32 0, i32 4
  store ptr null, ptr %msg_control, align 8
  %msg_controllen = getelementptr inbounds %struct.msghdr, ptr %msg, i32 0, i32 5
  store i64 0, ptr %msg_controllen, align 8
  %fd_ = getelementptr inbounds %"class.grpc_event_engine::experimental::PosixEndpointImpl", ptr %this1, i32 0, i32 3
  %29 = load i32, ptr %fd_, align 4
  %call26 = call noundef i64 @_ZN17grpc_event_engine12experimental12_GLOBAL__N_17TcpSendEiPK6msghdrPii(i32 noundef %29, ptr noundef %msg, ptr noundef %saved_errno, i32 noundef 0)
  store i64 %call26, ptr %sent_length, align 8
  br label %if.end27

if.end27:                                         ; preds = %if.then25, %if.end23
  %30 = load i64, ptr %sent_length, align 8
  %cmp28 = icmp slt i64 %30, 0
  br i1 %cmp28, label %if.then29, label %if.end51

if.then29:                                        ; preds = %if.end27
  %31 = load i32, ptr %saved_errno, align 4
  %cmp30 = icmp eq i32 %31, 11
  br i1 %cmp30, label %if.then33, label %lor.lhs.false31

lor.lhs.false31:                                  ; preds = %if.then29
  %32 = load i32, ptr %saved_errno, align 4
  %cmp32 = icmp eq i32 %32, 105
  br i1 %cmp32, label %if.then33, label %if.else42

if.then33:                                        ; preds = %lor.lhs.false31, %if.then29
  %33 = load i64, ptr %unwind_byte_idx, align 8
  %outgoing_byte_idx_34 = getelementptr inbounds %"class.grpc_event_engine::experimental::PosixEndpointImpl", ptr %this1, i32 0, i32 17
  store i64 %33, ptr %outgoing_byte_idx_34, align 16
  store i64 0, ptr %idx, align 8
  br label %for.cond35

for.cond35:                                       ; preds = %for.inc39, %if.then33
  %34 = load i64, ptr %idx, align 8
  %35 = load i64, ptr %unwind_slice_idx, align 8
  %cmp36 = icmp ult i64 %34, %35
  br i1 %cmp36, label %for.body37, label %for.end41

for.body37:                                       ; preds = %for.cond35
  %outgoing_buffer_38 = getelementptr inbounds %"class.grpc_event_engine::experimental::PosixEndpointImpl", ptr %this1, i32 0, i32 16
  %36 = load ptr, ptr %outgoing_buffer_38, align 8
  call void @_ZN17grpc_event_engine12experimental11SliceBuffer9TakeFirstEv(ptr sret(%"class.grpc_event_engine::experimental::Slice") align 8 %agg.tmp.ensured, ptr noundef nonnull align 8 dereferenceable(264) %36)
  call void @_ZN17grpc_event_engine12experimental5SliceD1Ev(ptr noundef nonnull align 8 dereferenceable(32) %agg.tmp.ensured) #3
  br label %for.inc39

for.inc39:                                        ; preds = %for.body37
  %37 = load i64, ptr %idx, align 8
  %inc40 = add i64 %37, 1
  store i64 %inc40, ptr %idx, align 8
  br label %for.cond35, !llvm.loop !23

for.end41:                                        ; preds = %for.cond35
  store i1 false, ptr %retval, align 1
  br label %return

if.else42:                                        ; preds = %lor.lhs.false31
  %38 = load i32, ptr %saved_errno, align 4
  call void @_ZN17grpc_event_engine12experimental12_GLOBAL__N_112PosixOSErrorEiPKc(ptr sret(%"class.absl::lts_20230802::Status") align 8 %agg.tmp44, i32 noundef %38, ptr noundef @.str.14)
  invoke void @_ZN17grpc_event_engine12experimental17PosixEndpointImpl16TcpAnnotateErrorEN4absl12lts_202308026StatusE(ptr sret(%"class.absl::lts_20230802::Status") align 8 %ref.tmp43, ptr noundef nonnull align 16 dereferenceable(936) %this1, ptr noundef %agg.tmp44)
          to label %invoke.cont46 unwind label %lpad45

invoke.cont46:                                    ; preds = %if.else42
  %39 = load ptr, ptr %status.addr, align 8
  %call49 = invoke noundef nonnull align 8 dereferenceable(8) ptr @_ZN4absl12lts_202308026StatusaSEOS1_(ptr noundef nonnull align 8 dereferenceable(8) %39, ptr noundef nonnull align 8 dereferenceable(8) %ref.tmp43)
          to label %invoke.cont48 unwind label %lpad47

invoke.cont48:                                    ; preds = %invoke.cont46
  call void @_ZN4absl12lts_202308026StatusD2Ev(ptr noundef nonnull align 8 dereferenceable(8) %ref.tmp43) #3
  call void @_ZN4absl12lts_202308026StatusD2Ev(ptr noundef nonnull align 8 dereferenceable(8) %agg.tmp44) #3
  %outgoing_buffer_50 = getelementptr inbounds %"class.grpc_event_engine::experimental::PosixEndpointImpl", ptr %this1, i32 0, i32 16
  %40 = load ptr, ptr %outgoing_buffer_50, align 8
  call void @_ZN17grpc_event_engine12experimental11SliceBuffer5ClearEv(ptr noundef nonnull align 8 dereferenceable(264) %40)
  call void @_ZN17grpc_event_engine12experimental17PosixEndpointImpl27TcpShutdownTracedBufferListEv(ptr noundef nonnull align 16 dereferenceable(936) %this1)
  store i1 true, ptr %retval, align 1
  br label %return

lpad45:                                           ; preds = %if.else42
  %41 = landingpad { ptr, i32 }
          cleanup
  %42 = extractvalue { ptr, i32 } %41, 0
  store ptr %42, ptr %exn.slot, align 8
  %43 = extractvalue { ptr, i32 } %41, 1
  store i32 %43, ptr %ehselector.slot, align 4
  br label %ehcleanup

lpad47:                                           ; preds = %invoke.cont46
  %44 = landingpad { ptr, i32 }
          cleanup
  %45 = extractvalue { ptr, i32 } %44, 0
  store ptr %45, ptr %exn.slot, align 8
  %46 = extractvalue { ptr, i32 } %44, 1
  store i32 %46, ptr %ehselector.slot, align 4
  call void @_ZN4absl12lts_202308026StatusD2Ev(ptr noundef nonnull align 8 dereferenceable(8) %ref.tmp43) #3
  br label %ehcleanup

ehcleanup:                                        ; preds = %lpad47, %lpad45
  call void @_ZN4absl12lts_202308026StatusD2Ev(ptr noundef nonnull align 8 dereferenceable(8) %agg.tmp44) #3
  br label %eh.resume

if.end51:                                         ; preds = %if.end27
  br label %do.body52

do.body52:                                        ; preds = %if.end51
  %outgoing_byte_idx_53 = getelementptr inbounds %"class.grpc_event_engine::experimental::PosixEndpointImpl", ptr %this1, i32 0, i32 17
  %47 = load i64, ptr %outgoing_byte_idx_53, align 16
  %cmp54 = icmp eq i64 %47, 0
  %lnot55 = xor i1 %cmp54, true
  br i1 %lnot55, label %if.then56, label %if.end57

if.then56:                                        ; preds = %do.body52
  call void @gpr_assertion_failed(ptr noundef @.str.1, i32 noundef 1096, ptr noundef @.str.16) #22
  unreachable

if.end57:                                         ; preds = %do.body52
  br label %do.end58

do.end58:                                         ; preds = %if.end57
  %48 = load i64, ptr %sent_length, align 8
  %bytes_counter_ = getelementptr inbounds %"class.grpc_event_engine::experimental::PosixEndpointImpl", ptr %this1, i32 0, i32 33
  %49 = load i32, ptr %bytes_counter_, align 16
  %conv = sext i32 %49 to i64
  %add59 = add nsw i64 %conv, %48
  %conv60 = trunc i64 %add59 to i32
  store i32 %conv60, ptr %bytes_counter_, align 16
  %50 = load i64, ptr %sending_length, align 8
  %51 = load i64, ptr %sent_length, align 8
  %sub61 = sub i64 %50, %51
  store i64 %sub61, ptr %trailing, align 8
  br label %while.cond62

while.cond62:                                     ; preds = %if.end77, %do.end58
  %52 = load i64, ptr %trailing, align 8
  %cmp63 = icmp ugt i64 %52, 0
  br i1 %cmp63, label %while.body64, label %while.end

while.body64:                                     ; preds = %while.cond62
  %53 = load i64, ptr %outgoing_slice_idx, align 8
  %dec = add i64 %53, -1
  store i64 %dec, ptr %outgoing_slice_idx, align 8
  %outgoing_buffer_66 = getelementptr inbounds %"class.grpc_event_engine::experimental::PosixEndpointImpl", ptr %this1, i32 0, i32 16
  %54 = load ptr, ptr %outgoing_buffer_66, align 8
  %55 = load i64, ptr %outgoing_slice_idx, align 8
  call void @_ZN17grpc_event_engine12experimental11SliceBuffer8RefSliceEm(ptr sret(%"class.grpc_event_engine::experimental::Slice") align 8 %ref.tmp65, ptr noundef nonnull align 8 dereferenceable(264) %54, i64 noundef %55)
  %call69 = invoke noundef i64 @_ZNK17grpc_event_engine12experimental12slice_detail9BaseSlice6lengthEv(ptr noundef nonnull align 8 dereferenceable(32) %ref.tmp65)
          to label %invoke.cont68 unwind label %lpad67

invoke.cont68:                                    ; preds = %while.body64
  store i64 %call69, ptr %slice_length, align 8
  call void @_ZN17grpc_event_engine12experimental5SliceD1Ev(ptr noundef nonnull align 8 dereferenceable(32) %ref.tmp65) #3
  %56 = load i64, ptr %slice_length, align 8
  %57 = load i64, ptr %trailing, align 8
  %cmp71 = icmp ugt i64 %56, %57
  br i1 %cmp71, label %if.then72, label %if.else75

if.then72:                                        ; preds = %invoke.cont68
  %58 = load i64, ptr %slice_length, align 8
  %59 = load i64, ptr %trailing, align 8
  %sub73 = sub i64 %58, %59
  %outgoing_byte_idx_74 = getelementptr inbounds %"class.grpc_event_engine::experimental::PosixEndpointImpl", ptr %this1, i32 0, i32 17
  store i64 %sub73, ptr %outgoing_byte_idx_74, align 16
  br label %while.end

lpad67:                                           ; preds = %while.body64
  %60 = landingpad { ptr, i32 }
          cleanup
  %61 = extractvalue { ptr, i32 } %60, 0
  store ptr %61, ptr %exn.slot, align 8
  %62 = extractvalue { ptr, i32 } %60, 1
  store i32 %62, ptr %ehselector.slot, align 4
  call void @_ZN17grpc_event_engine12experimental5SliceD1Ev(ptr noundef nonnull align 8 dereferenceable(32) %ref.tmp65) #3
  br label %eh.resume

if.else75:                                        ; preds = %invoke.cont68
  %63 = load i64, ptr %slice_length, align 8
  %64 = load i64, ptr %trailing, align 8
  %sub76 = sub i64 %64, %63
  store i64 %sub76, ptr %trailing, align 8
  br label %if.end77

if.end77:                                         ; preds = %if.else75
  br label %while.cond62, !llvm.loop !24

while.end:                                        ; preds = %if.then72, %while.cond62
  %65 = load i64, ptr %outgoing_slice_idx, align 8
  %outgoing_buffer_78 = getelementptr inbounds %"class.grpc_event_engine::experimental::PosixEndpointImpl", ptr %this1, i32 0, i32 16
  %66 = load ptr, ptr %outgoing_buffer_78, align 8
  %call79 = call noundef i64 @_ZN17grpc_event_engine12experimental11SliceBuffer5CountEv(ptr noundef nonnull align 8 dereferenceable(264) %66)
  %cmp80 = icmp eq i64 %65, %call79
  br i1 %cmp80, label %if.then81, label %if.end83

if.then81:                                        ; preds = %while.end
  %outgoing_buffer_82 = getelementptr inbounds %"class.grpc_event_engine::experimental::PosixEndpointImpl", ptr %this1, i32 0, i32 16
  %67 = load ptr, ptr %outgoing_buffer_82, align 8
  call void @_ZN17grpc_event_engine12experimental11SliceBuffer5ClearEv(ptr noundef nonnull align 8 dereferenceable(264) %67)
  store i1 true, ptr %retval, align 1
  br label %return

if.end83:                                         ; preds = %while.end
  br label %while.body, !llvm.loop !25

return:                                           ; preds = %if.then81, %invoke.cont48, %for.end41
  %68 = load i1, ptr %retval, align 1
  ret i1 %68

eh.resume:                                        ; preds = %lpad67, %ehcleanup, %lpad
  %exn = load ptr, ptr %exn.slot, align 8
  %sel = load i32, ptr %ehselector.slot, align 4
  %lpad.val = insertvalue { ptr, i32 } poison, ptr %exn, 0
  %lpad.val84 = insertvalue { ptr, i32 } %lpad.val, i32 %sel, 1
  resume { ptr, i32 } %lpad.val84
}

declare void @_ZN17grpc_event_engine12experimental11SliceBuffer9TakeFirstEv(ptr sret(%"class.grpc_event_engine::experimental::Slice") align 8, ptr noundef nonnull align 8 dereferenceable(264)) #1

; Function Attrs: mustprogress uwtable
define void @_ZN17grpc_event_engine12experimental17PosixEndpointImpl11HandleWriteEN4absl12lts_202308026StatusE(ptr noundef nonnull align 16 dereferenceable(936) %this, ptr noundef %status) #4 align 2 personality ptr @__gxx_personality_v0 {
entry:
  %this.addr = alloca ptr, align 8
  %status.indirect_addr = alloca ptr, align 8
  %cb_ = alloca %"class.absl::lts_20230802::AnyInvocable", align 16
  %exn.slot = alloca ptr, align 8
  %ehselector.slot = alloca i32, align 4
  %agg.tmp = alloca %"class.absl::lts_20230802::Status", align 8
  %flush_result = alloca i8, align 1
  %cb_18 = alloca %"class.absl::lts_20230802::AnyInvocable", align 16
  %agg.tmp23 = alloca %"class.absl::lts_20230802::Status", align 8
  store ptr %this, ptr %this.addr, align 8
  store ptr %status, ptr %status.indirect_addr, align 8
  %this1 = load ptr, ptr %this.addr, align 8
  %call = call noundef zeroext i1 @_ZNK4absl12lts_202308026Status2okEv(ptr noundef nonnull align 8 dereferenceable(8) %status)
  br i1 %call, label %if.end11, label %if.then

if.then:                                          ; preds = %entry
  %write_cb_ = getelementptr inbounds %"class.grpc_event_engine::experimental::PosixEndpointImpl", ptr %this1, i32 0, i32 24
  call void @_ZN4absl12lts_2023080212AnyInvocableIFvNS0_6StatusEEEC2EOS4_(ptr noundef nonnull align 16 dereferenceable(32) %cb_, ptr noundef nonnull align 16 dereferenceable(32) %write_cb_) #3
  %write_cb_2 = getelementptr inbounds %"class.grpc_event_engine::experimental::PosixEndpointImpl", ptr %this1, i32 0, i32 24
  %call3 = call noundef nonnull align 16 dereferenceable(32) ptr @_ZN4absl12lts_2023080212AnyInvocableIFvNS0_6StatusEEEaSEDn(ptr noundef nonnull align 16 dereferenceable(32) %write_cb_2, ptr null) #3
  %current_zerocopy_send_ = getelementptr inbounds %"class.grpc_event_engine::experimental::PosixEndpointImpl", ptr %this1, i32 0, i32 38
  %0 = load ptr, ptr %current_zerocopy_send_, align 16
  %cmp = icmp ne ptr %0, null
  br i1 %cmp, label %if.then4, label %if.end

if.then4:                                         ; preds = %if.then
  %current_zerocopy_send_5 = getelementptr inbounds %"class.grpc_event_engine::experimental::PosixEndpointImpl", ptr %this1, i32 0, i32 38
  %1 = load ptr, ptr %current_zerocopy_send_5, align 16
  invoke void @_ZN17grpc_event_engine12experimental17PosixEndpointImpl31UnrefMaybePutZerocopySendRecordEPNS0_21TcpZerocopySendRecordE(ptr noundef nonnull align 16 dereferenceable(936) %this1, ptr noundef %1)
          to label %invoke.cont unwind label %lpad

invoke.cont:                                      ; preds = %if.then4
  %current_zerocopy_send_6 = getelementptr inbounds %"class.grpc_event_engine::experimental::PosixEndpointImpl", ptr %this1, i32 0, i32 38
  store ptr null, ptr %current_zerocopy_send_6, align 16
  br label %if.end

lpad:                                             ; preds = %invoke.cont9, %if.end, %if.then4
  %2 = landingpad { ptr, i32 }
          cleanup
  %3 = extractvalue { ptr, i32 } %2, 0
  store ptr %3, ptr %exn.slot, align 8
  %4 = extractvalue { ptr, i32 } %2, 1
  store i32 %4, ptr %ehselector.slot, align 4
  br label %ehcleanup

if.end:                                           ; preds = %invoke.cont, %if.then
  invoke void @_ZN4absl12lts_202308026StatusC2ERKS1_(ptr noundef nonnull align 8 dereferenceable(8) %agg.tmp, ptr noundef nonnull align 8 dereferenceable(8) %status)
          to label %invoke.cont7 unwind label %lpad

invoke.cont7:                                     ; preds = %if.end
  invoke void @_ZN4absl12lts_2023080222internal_any_invocable4ImplIFvNS0_6StatusEEEclES3_(ptr noundef nonnull align 16 dereferenceable(32) %cb_, ptr noundef %agg.tmp)
          to label %invoke.cont9 unwind label %lpad8

invoke.cont9:                                     ; preds = %invoke.cont7
  call void @_ZN4absl12lts_202308026StatusD2Ev(ptr noundef nonnull align 8 dereferenceable(8) %agg.tmp) #3
  invoke void @_ZNK9grpc_core10RefCountedIN17grpc_event_engine12experimental17PosixEndpointImplENS_19PolymorphicRefCountENS_11UnrefDeleteEE5UnrefEv(ptr noundef nonnull align 8 dereferenceable(16) %this1)
          to label %invoke.cont10 unwind label %lpad

invoke.cont10:                                    ; preds = %invoke.cont9
  call void @_ZN4absl12lts_2023080212AnyInvocableIFvNS0_6StatusEEED2Ev(ptr noundef nonnull align 16 dereferenceable(32) %cb_) #3
  br label %if.end31

lpad8:                                            ; preds = %invoke.cont7
  %5 = landingpad { ptr, i32 }
          cleanup
  %6 = extractvalue { ptr, i32 } %5, 0
  store ptr %6, ptr %exn.slot, align 8
  %7 = extractvalue { ptr, i32 } %5, 1
  store i32 %7, ptr %ehselector.slot, align 4
  call void @_ZN4absl12lts_202308026StatusD2Ev(ptr noundef nonnull align 8 dereferenceable(8) %agg.tmp) #3
  br label %ehcleanup

ehcleanup:                                        ; preds = %lpad8, %lpad
  call void @_ZN4absl12lts_2023080212AnyInvocableIFvNS0_6StatusEEED2Ev(ptr noundef nonnull align 16 dereferenceable(32) %cb_) #3
  br label %eh.resume

if.end11:                                         ; preds = %entry
  %current_zerocopy_send_12 = getelementptr inbounds %"class.grpc_event_engine::experimental::PosixEndpointImpl", ptr %this1, i32 0, i32 38
  %8 = load ptr, ptr %current_zerocopy_send_12, align 16
  %cmp13 = icmp ne ptr %8, null
  br i1 %cmp13, label %cond.true, label %cond.false

cond.true:                                        ; preds = %if.end11
  %current_zerocopy_send_14 = getelementptr inbounds %"class.grpc_event_engine::experimental::PosixEndpointImpl", ptr %this1, i32 0, i32 38
  %9 = load ptr, ptr %current_zerocopy_send_14, align 16
  %call15 = call noundef zeroext i1 @_ZN17grpc_event_engine12experimental17PosixEndpointImpl16TcpFlushZerocopyEPNS0_21TcpZerocopySendRecordERN4absl12lts_202308026StatusE(ptr noundef nonnull align 16 dereferenceable(936) %this1, ptr noundef %9, ptr noundef nonnull align 8 dereferenceable(8) %status)
  br label %cond.end

cond.false:                                       ; preds = %if.end11
  %call16 = call noundef zeroext i1 @_ZN17grpc_event_engine12experimental17PosixEndpointImpl8TcpFlushERN4absl12lts_202308026StatusE(ptr noundef nonnull align 16 dereferenceable(936) %this1, ptr noundef nonnull align 8 dereferenceable(8) %status)
  br label %cond.end

cond.end:                                         ; preds = %cond.false, %cond.true
  %cond = phi i1 [ %call15, %cond.true ], [ %call16, %cond.false ]
  %frombool = zext i1 %cond to i8
  store i8 %frombool, ptr %flush_result, align 1
  %10 = load i8, ptr %flush_result, align 1
  %tobool = trunc i8 %10 to i1
  br i1 %tobool, label %if.else, label %if.then17

if.then17:                                        ; preds = %cond.end
  %handle_ = getelementptr inbounds %"class.grpc_event_engine::experimental::PosixEndpointImpl", ptr %this1, i32 0, i32 41
  %11 = load ptr, ptr %handle_, align 8
  %on_write_ = getelementptr inbounds %"class.grpc_event_engine::experimental::PosixEndpointImpl", ptr %this1, i32 0, i32 19
  %12 = load ptr, ptr %on_write_, align 16
  %vtable = load ptr, ptr %11, align 8
  %vfn = getelementptr inbounds ptr, ptr %vtable, i64 4
  %13 = load ptr, ptr %vfn, align 8
  call void %13(ptr noundef nonnull align 8 dereferenceable(8) %11, ptr noundef %12)
  br label %if.end31

if.else:                                          ; preds = %cond.end
  %write_cb_19 = getelementptr inbounds %"class.grpc_event_engine::experimental::PosixEndpointImpl", ptr %this1, i32 0, i32 24
  call void @_ZN4absl12lts_2023080212AnyInvocableIFvNS0_6StatusEEEC2EOS4_(ptr noundef nonnull align 16 dereferenceable(32) %cb_18, ptr noundef nonnull align 16 dereferenceable(32) %write_cb_19) #3
  %write_cb_20 = getelementptr inbounds %"class.grpc_event_engine::experimental::PosixEndpointImpl", ptr %this1, i32 0, i32 24
  %call21 = call noundef nonnull align 16 dereferenceable(32) ptr @_ZN4absl12lts_2023080212AnyInvocableIFvNS0_6StatusEEEaSEDn(ptr noundef nonnull align 16 dereferenceable(32) %write_cb_20, ptr null) #3
  %current_zerocopy_send_22 = getelementptr inbounds %"class.grpc_event_engine::experimental::PosixEndpointImpl", ptr %this1, i32 0, i32 38
  store ptr null, ptr %current_zerocopy_send_22, align 16
  invoke void @_ZN4absl12lts_202308026StatusC2ERKS1_(ptr noundef nonnull align 8 dereferenceable(8) %agg.tmp23, ptr noundef nonnull align 8 dereferenceable(8) %status)
          to label %invoke.cont25 unwind label %lpad24

invoke.cont25:                                    ; preds = %if.else
  invoke void @_ZN4absl12lts_2023080222internal_any_invocable4ImplIFvNS0_6StatusEEEclES3_(ptr noundef nonnull align 16 dereferenceable(32) %cb_18, ptr noundef %agg.tmp23)
          to label %invoke.cont27 unwind label %lpad26

invoke.cont27:                                    ; preds = %invoke.cont25
  call void @_ZN4absl12lts_202308026StatusD2Ev(ptr noundef nonnull align 8 dereferenceable(8) %agg.tmp23) #3
  invoke void @_ZNK9grpc_core10RefCountedIN17grpc_event_engine12experimental17PosixEndpointImplENS_19PolymorphicRefCountENS_11UnrefDeleteEE5UnrefEv(ptr noundef nonnull align 8 dereferenceable(16) %this1)
          to label %invoke.cont29 unwind label %lpad24

invoke.cont29:                                    ; preds = %invoke.cont27
  call void @_ZN4absl12lts_2023080212AnyInvocableIFvNS0_6StatusEEED2Ev(ptr noundef nonnull align 16 dereferenceable(32) %cb_18) #3
  br label %if.end31

lpad24:                                           ; preds = %invoke.cont27, %if.else
  %14 = landingpad { ptr, i32 }
          cleanup
  %15 = extractvalue { ptr, i32 } %14, 0
  store ptr %15, ptr %exn.slot, align 8
  %16 = extractvalue { ptr, i32 } %14, 1
  store i32 %16, ptr %ehselector.slot, align 4
  br label %ehcleanup30

lpad26:                                           ; preds = %invoke.cont25
  %17 = landingpad { ptr, i32 }
          cleanup
  %18 = extractvalue { ptr, i32 } %17, 0
  store ptr %18, ptr %exn.slot, align 8
  %19 = extractvalue { ptr, i32 } %17, 1
  store i32 %19, ptr %ehselector.slot, align 4
  call void @_ZN4absl12lts_202308026StatusD2Ev(ptr noundef nonnull align 8 dereferenceable(8) %agg.tmp23) #3
  br label %ehcleanup30

ehcleanup30:                                      ; preds = %lpad26, %lpad24
  call void @_ZN4absl12lts_2023080212AnyInvocableIFvNS0_6StatusEEED2Ev(ptr noundef nonnull align 16 dereferenceable(32) %cb_18) #3
  br label %eh.resume

if.end31:                                         ; preds = %invoke.cont29, %if.then17, %invoke.cont10
  ret void

eh.resume:                                        ; preds = %ehcleanup30, %ehcleanup
  %exn = load ptr, ptr %exn.slot, align 8
  %sel = load i32, ptr %ehselector.slot, align 4
  %lpad.val = insertvalue { ptr, i32 } poison, ptr %exn, 0
  %lpad.val32 = insertvalue { ptr, i32 } %lpad.val, i32 %sel, 1
  resume { ptr, i32 } %lpad.val32
}

; Function Attrs: mustprogress nounwind uwtable
define linkonce_odr noundef nonnull align 16 dereferenceable(32) ptr @_ZN4absl12lts_2023080212AnyInvocableIFvNS0_6StatusEEEaSEDn(ptr noundef nonnull align 16 dereferenceable(32) %this, ptr %0) #5 comdat align 2 {
entry:
  %this.addr = alloca ptr, align 8
  %.addr = alloca ptr, align 8
  store ptr %this, ptr %this.addr, align 8
  store ptr %0, ptr %.addr, align 8
  %this1 = load ptr, ptr %this.addr, align 8
  call void @_ZN4absl12lts_2023080222internal_any_invocable8CoreImplILb0EvJNS0_6StatusEEE5ClearEv(ptr noundef nonnull align 16 dereferenceable(32) %this1)
  ret ptr %this1
}

; Function Attrs: mustprogress uwtable
define noundef zeroext i1 @_ZN17grpc_event_engine12experimental17PosixEndpointImpl5WriteEN4absl12lts_2023080212AnyInvocableIFvNS3_6StatusEEEEPNS0_11SliceBufferEPKNS0_11EventEngine8Endpoint9WriteArgsE(ptr noundef nonnull align 16 dereferenceable(936) %this, ptr noundef %on_writable, ptr noundef %data, ptr noundef %args) #4 align 2 personality ptr @__gxx_personality_v0 {
entry:
  %retval = alloca i1, align 1
  %this.addr = alloca ptr, align 8
  %on_writable.indirect_addr = alloca ptr, align 8
  %data.addr = alloca ptr, align 8
  %args.addr = alloca ptr, align 8
  %status = alloca %"class.absl::lts_20230802::Status", align 8
  %zerocopy_send_record = alloca ptr, align 8
  %exn.slot = alloca ptr, align 8
  %ehselector.slot = alloca i32, align 4
  %ref.tmp = alloca %"class.absl::lts_20230802::Status", align 8
  %agg.tmp = alloca %"class.absl::lts_20230802::Status", align 8
  %agg.tmp9 = alloca %"class.std::basic_string_view", align 8
  %agg.tmp17 = alloca %"class.absl::lts_20230802::AnyInvocable.37", align 16
  %ref.tmp18 = alloca %class.anon.46, align 16
  %cleanup.dest.slot = alloca i32, align 4
  %flush_result = alloca i8, align 1
  %ref.tmp61 = alloca %"class.grpc_core::RefCountedPtr", align 8
  %agg.tmp79 = alloca %"class.absl::lts_20230802::AnyInvocable.37", align 16
  %ref.tmp80 = alloca %class.anon.48, align 16
  store ptr %this, ptr %this.addr, align 8
  store ptr %on_writable, ptr %on_writable.indirect_addr, align 8
  store ptr %data, ptr %data.addr, align 8
  store ptr %args, ptr %args.addr, align 8
  %this1 = load ptr, ptr %this.addr, align 8
  call void @_ZN4absl12lts_202308028OkStatusEv(ptr sret(%"class.absl::lts_20230802::Status") align 8 %status)
  store ptr null, ptr %zerocopy_send_record, align 8
  br label %do.body

do.body:                                          ; preds = %entry
  %write_cb_ = getelementptr inbounds %"class.grpc_event_engine::experimental::PosixEndpointImpl", ptr %this1, i32 0, i32 24
  %call = call noundef zeroext i1 @_ZN4absl12lts_20230802eqERKNS0_12AnyInvocableIFvNS0_6StatusEEEEDn(ptr noundef nonnull align 16 dereferenceable(32) %write_cb_, ptr null) #3
  %lnot = xor i1 %call, true
  br i1 %lnot, label %if.then, label %if.end

if.then:                                          ; preds = %do.body
  invoke void @gpr_assertion_failed(ptr noundef @.str.1, i32 noundef 1150, ptr noundef @.str.17) #22
          to label %invoke.cont unwind label %lpad

invoke.cont:                                      ; preds = %if.then
  unreachable

lpad:                                             ; preds = %if.end73, %invoke.cont64, %if.then60, %cond.false, %cond.true, %if.then48, %do.body42, %if.end31, %if.then8, %invoke.cont5, %if.then4, %do.end, %if.then
  %0 = landingpad { ptr, i32 }
          cleanup
  %1 = extractvalue { ptr, i32 } %0, 0
  store ptr %1, ptr %exn.slot, align 8
  %2 = extractvalue { ptr, i32 } %0, 1
  store i32 %2, ptr %ehselector.slot, align 4
  br label %ehcleanup93

if.end:                                           ; preds = %do.body
  br label %do.cond

do.cond:                                          ; preds = %if.end
  br label %do.end

do.end:                                           ; preds = %do.cond
  %3 = load ptr, ptr %data.addr, align 8
  %call3 = invoke noundef i64 @_ZNK17grpc_event_engine12experimental11SliceBuffer6LengthEv(ptr noundef nonnull align 8 dereferenceable(264) %3)
          to label %invoke.cont2 unwind label %lpad

invoke.cont2:                                     ; preds = %do.end
  %cmp = icmp eq i64 %call3, 0
  br i1 %cmp, label %if.then4, label %if.end31

if.then4:                                         ; preds = %invoke.cont2
  invoke void @_ZN17grpc_event_engine12experimental17PosixEndpointImpl27TcpShutdownTracedBufferListEv(ptr noundef nonnull align 16 dereferenceable(936) %this1)
          to label %invoke.cont5 unwind label %lpad

invoke.cont5:                                     ; preds = %if.then4
  %handle_ = getelementptr inbounds %"class.grpc_event_engine::experimental::PosixEndpointImpl", ptr %this1, i32 0, i32 41
  %4 = load ptr, ptr %handle_, align 8
  %vtable = load ptr, ptr %4, align 8
  %vfn = getelementptr inbounds ptr, ptr %vtable, i64 9
  %5 = load ptr, ptr %vfn, align 8
  %call7 = invoke noundef zeroext i1 %5(ptr noundef nonnull align 8 dereferenceable(8) %4)
          to label %invoke.cont6 unwind label %lpad

invoke.cont6:                                     ; preds = %invoke.cont5
  br i1 %call7, label %if.then8, label %if.end30

if.then8:                                         ; preds = %invoke.cont6
  call void @_ZNSt17basic_string_viewIcSt11char_traitsIcEEC2EPKc(ptr noundef nonnull align 8 dereferenceable(16) %agg.tmp9, ptr noundef @.str.18) #3
  %6 = getelementptr inbounds { i64, ptr }, ptr %agg.tmp9, i32 0, i32 0
  %7 = load i64, ptr %6, align 8
  %8 = getelementptr inbounds { i64, ptr }, ptr %agg.tmp9, i32 0, i32 1
  %9 = load ptr, ptr %8, align 8
  invoke void @_ZN4absl12lts_2023080213InternalErrorESt17basic_string_viewIcSt11char_traitsIcEE(ptr sret(%"class.absl::lts_20230802::Status") align 8 %agg.tmp, i64 %7, ptr %9)
          to label %invoke.cont10 unwind label %lpad

invoke.cont10:                                    ; preds = %if.then8
  invoke void @_ZN17grpc_event_engine12experimental17PosixEndpointImpl16TcpAnnotateErrorEN4absl12lts_202308026StatusE(ptr sret(%"class.absl::lts_20230802::Status") align 8 %ref.tmp, ptr noundef nonnull align 16 dereferenceable(936) %this1, ptr noundef %agg.tmp)
          to label %invoke.cont12 unwind label %lpad11

invoke.cont12:                                    ; preds = %invoke.cont10
  %call15 = invoke noundef nonnull align 8 dereferenceable(8) ptr @_ZN4absl12lts_202308026StatusaSEOS1_(ptr noundef nonnull align 8 dereferenceable(8) %status, ptr noundef nonnull align 8 dereferenceable(8) %ref.tmp)
          to label %invoke.cont14 unwind label %lpad13

invoke.cont14:                                    ; preds = %invoke.cont12
  call void @_ZN4absl12lts_202308026StatusD2Ev(ptr noundef nonnull align 8 dereferenceable(8) %ref.tmp) #3
  call void @_ZN4absl12lts_202308026StatusD2Ev(ptr noundef nonnull align 8 dereferenceable(8) %agg.tmp) #3
  %engine_ = getelementptr inbounds %"class.grpc_event_engine::experimental::PosixEndpointImpl", ptr %this1, i32 0, i32 43
  %call16 = call noundef ptr @_ZNKSt19__shared_ptr_accessIN17grpc_event_engine12experimental11EventEngineELN9__gnu_cxx12_Lock_policyE2ELb0ELb0EEptEv(ptr noundef nonnull align 1 dereferenceable(1) %engine_) #3
  %10 = getelementptr inbounds %class.anon.46, ptr %ref.tmp18, i32 0, i32 0
  call void @_ZN4absl12lts_2023080212AnyInvocableIFvNS0_6StatusEEEC2EOS4_(ptr noundef nonnull align 16 dereferenceable(32) %10, ptr noundef nonnull align 16 dereferenceable(32) %on_writable) #3
  %11 = getelementptr inbounds %class.anon.46, ptr %ref.tmp18, i32 0, i32 1
  invoke void @_ZN4absl12lts_202308026StatusC2ERKS1_(ptr noundef nonnull align 8 dereferenceable(8) %11, ptr noundef nonnull align 8 dereferenceable(8) %status)
          to label %invoke.cont20 unwind label %lpad19

invoke.cont20:                                    ; preds = %invoke.cont14
  invoke void @"_ZN4absl12lts_2023080212AnyInvocableIFvvEEC2IZN17grpc_event_engine12experimental17PosixEndpointImpl5WriteENS1_IFvNS0_6StatusEEEEPNS6_11SliceBufferEPKNS6_11EventEngine8Endpoint9WriteArgsEE3$_0vEEOT_"(ptr noundef nonnull align 16 dereferenceable(32) %agg.tmp17, ptr noundef nonnull align 16 dereferenceable(40) %ref.tmp18)
          to label %invoke.cont23 unwind label %lpad22

invoke.cont23:                                    ; preds = %invoke.cont20
  %vtable24 = load ptr, ptr %call16, align 8
  %vfn25 = getelementptr inbounds ptr, ptr %vtable24, i64 8
  %12 = load ptr, ptr %vfn25, align 8
  invoke void %12(ptr noundef nonnull align 8 dereferenceable(24) %call16, ptr noundef %agg.tmp17)
          to label %invoke.cont27 unwind label %lpad26

invoke.cont27:                                    ; preds = %invoke.cont23
  call void @_ZN4absl12lts_2023080212AnyInvocableIFvvEED2Ev(ptr noundef nonnull align 16 dereferenceable(32) %agg.tmp17) #3
  call void @"_ZZN17grpc_event_engine12experimental17PosixEndpointImpl5WriteEN4absl12lts_2023080212AnyInvocableIFvNS3_6StatusEEEEPNS0_11SliceBufferEPKNS0_11EventEngine8Endpoint9WriteArgsEEN3$_0D2Ev"(ptr noundef nonnull align 16 dereferenceable(40) %ref.tmp18) #3
  store i1 false, ptr %retval, align 1
  store i32 1, ptr %cleanup.dest.slot, align 4
  br label %cleanup

lpad11:                                           ; preds = %invoke.cont10
  %13 = landingpad { ptr, i32 }
          cleanup
  %14 = extractvalue { ptr, i32 } %13, 0
  store ptr %14, ptr %exn.slot, align 8
  %15 = extractvalue { ptr, i32 } %13, 1
  store i32 %15, ptr %ehselector.slot, align 4
  br label %ehcleanup

lpad13:                                           ; preds = %invoke.cont12
  %16 = landingpad { ptr, i32 }
          cleanup
  %17 = extractvalue { ptr, i32 } %16, 0
  store ptr %17, ptr %exn.slot, align 8
  %18 = extractvalue { ptr, i32 } %16, 1
  store i32 %18, ptr %ehselector.slot, align 4
  call void @_ZN4absl12lts_202308026StatusD2Ev(ptr noundef nonnull align 8 dereferenceable(8) %ref.tmp) #3
  br label %ehcleanup

ehcleanup:                                        ; preds = %lpad13, %lpad11
  call void @_ZN4absl12lts_202308026StatusD2Ev(ptr noundef nonnull align 8 dereferenceable(8) %agg.tmp) #3
  br label %ehcleanup93

lpad19:                                           ; preds = %invoke.cont14
  %19 = landingpad { ptr, i32 }
          cleanup
  %20 = extractvalue { ptr, i32 } %19, 0
  store ptr %20, ptr %exn.slot, align 8
  %21 = extractvalue { ptr, i32 } %19, 1
  store i32 %21, ptr %ehselector.slot, align 4
  call void @_ZN4absl12lts_2023080212AnyInvocableIFvNS0_6StatusEEED2Ev(ptr noundef nonnull align 16 dereferenceable(32) %10) #3
  br label %ehcleanup93

lpad22:                                           ; preds = %invoke.cont20
  %22 = landingpad { ptr, i32 }
          cleanup
  %23 = extractvalue { ptr, i32 } %22, 0
  store ptr %23, ptr %exn.slot, align 8
  %24 = extractvalue { ptr, i32 } %22, 1
  store i32 %24, ptr %ehselector.slot, align 4
  br label %ehcleanup29

lpad26:                                           ; preds = %invoke.cont23
  %25 = landingpad { ptr, i32 }
          cleanup
  %26 = extractvalue { ptr, i32 } %25, 0
  store ptr %26, ptr %exn.slot, align 8
  %27 = extractvalue { ptr, i32 } %25, 1
  store i32 %27, ptr %ehselector.slot, align 4
  call void @_ZN4absl12lts_2023080212AnyInvocableIFvvEED2Ev(ptr noundef nonnull align 16 dereferenceable(32) %agg.tmp17) #3
  br label %ehcleanup29

ehcleanup29:                                      ; preds = %lpad26, %lpad22
  call void @"_ZZN17grpc_event_engine12experimental17PosixEndpointImpl5WriteEN4absl12lts_2023080212AnyInvocableIFvNS3_6StatusEEEEPNS0_11SliceBufferEPKNS0_11EventEngine8Endpoint9WriteArgsEEN3$_0D2Ev"(ptr noundef nonnull align 16 dereferenceable(40) %ref.tmp18) #3
  br label %ehcleanup93

if.end30:                                         ; preds = %invoke.cont6
  store i1 true, ptr %retval, align 1
  store i32 1, ptr %cleanup.dest.slot, align 4
  br label %cleanup

if.end31:                                         ; preds = %invoke.cont2
  %28 = load ptr, ptr %data.addr, align 8
  %call33 = invoke noundef ptr @_ZN17grpc_event_engine12experimental17PosixEndpointImpl24TcpGetSendZerocopyRecordERNS0_11SliceBufferE(ptr noundef nonnull align 16 dereferenceable(936) %this1, ptr noundef nonnull align 8 dereferenceable(264) %28)
          to label %invoke.cont32 unwind label %lpad

invoke.cont32:                                    ; preds = %if.end31
  store ptr %call33, ptr %zerocopy_send_record, align 8
  %29 = load ptr, ptr %zerocopy_send_record, align 8
  %cmp34 = icmp eq ptr %29, null
  br i1 %cmp34, label %if.then35, label %if.end36

if.then35:                                        ; preds = %invoke.cont32
  %30 = load ptr, ptr %data.addr, align 8
  %outgoing_buffer_ = getelementptr inbounds %"class.grpc_event_engine::experimental::PosixEndpointImpl", ptr %this1, i32 0, i32 16
  store ptr %30, ptr %outgoing_buffer_, align 8
  %outgoing_byte_idx_ = getelementptr inbounds %"class.grpc_event_engine::experimental::PosixEndpointImpl", ptr %this1, i32 0, i32 17
  store i64 0, ptr %outgoing_byte_idx_, align 16
  br label %if.end36

if.end36:                                         ; preds = %if.then35, %invoke.cont32
  %31 = load ptr, ptr %args.addr, align 8
  %cmp37 = icmp ne ptr %31, null
  br i1 %cmp37, label %if.then38, label %if.end39

if.then38:                                        ; preds = %if.end36
  %32 = load ptr, ptr %args.addr, align 8
  %google_specific = getelementptr inbounds %"struct.grpc_event_engine::experimental::EventEngine::Endpoint::WriteArgs", ptr %32, i32 0, i32 0
  %33 = load ptr, ptr %google_specific, align 8
  %outgoing_buffer_arg_ = getelementptr inbounds %"class.grpc_event_engine::experimental::PosixEndpointImpl", ptr %this1, i32 0, i32 30
  store ptr %33, ptr %outgoing_buffer_arg_, align 16
  br label %if.end39

if.end39:                                         ; preds = %if.then38, %if.end36
  %outgoing_buffer_arg_40 = getelementptr inbounds %"class.grpc_event_engine::experimental::PosixEndpointImpl", ptr %this1, i32 0, i32 30
  %34 = load ptr, ptr %outgoing_buffer_arg_40, align 16
  %tobool = icmp ne ptr %34, null
  br i1 %tobool, label %if.then41, label %if.end53

if.then41:                                        ; preds = %if.end39
  br label %do.body42

do.body42:                                        ; preds = %if.then41
  %poller_ = getelementptr inbounds %"class.grpc_event_engine::experimental::PosixEndpointImpl", ptr %this1, i32 0, i32 42
  %35 = load ptr, ptr %poller_, align 16
  %vtable43 = load ptr, ptr %35, align 8
  %vfn44 = getelementptr inbounds ptr, ptr %vtable43, i64 5
  %36 = load ptr, ptr %vfn44, align 8
  %call46 = invoke noundef zeroext i1 %36(ptr noundef nonnull align 8 dereferenceable(16) %35)
          to label %invoke.cont45 unwind label %lpad

invoke.cont45:                                    ; preds = %do.body42
  %lnot47 = xor i1 %call46, true
  br i1 %lnot47, label %if.then48, label %if.end50

if.then48:                                        ; preds = %invoke.cont45
  invoke void @gpr_assertion_failed(ptr noundef @.str.1, i32 noundef 1176, ptr noundef @.str.19) #22
          to label %invoke.cont49 unwind label %lpad

invoke.cont49:                                    ; preds = %if.then48
  unreachable

if.end50:                                         ; preds = %invoke.cont45
  br label %do.cond51

do.cond51:                                        ; preds = %if.end50
  br label %do.end52

do.end52:                                         ; preds = %do.cond51
  br label %if.end53

if.end53:                                         ; preds = %do.end52, %if.end39
  %37 = load ptr, ptr %zerocopy_send_record, align 8
  %cmp54 = icmp ne ptr %37, null
  br i1 %cmp54, label %cond.true, label %cond.false

cond.true:                                        ; preds = %if.end53
  %38 = load ptr, ptr %zerocopy_send_record, align 8
  %call56 = invoke noundef zeroext i1 @_ZN17grpc_event_engine12experimental17PosixEndpointImpl16TcpFlushZerocopyEPNS0_21TcpZerocopySendRecordERN4absl12lts_202308026StatusE(ptr noundef nonnull align 16 dereferenceable(936) %this1, ptr noundef %38, ptr noundef nonnull align 8 dereferenceable(8) %status)
          to label %invoke.cont55 unwind label %lpad

invoke.cont55:                                    ; preds = %cond.true
  br label %cond.end

cond.false:                                       ; preds = %if.end53
  %call58 = invoke noundef zeroext i1 @_ZN17grpc_event_engine12experimental17PosixEndpointImpl8TcpFlushERN4absl12lts_202308026StatusE(ptr noundef nonnull align 16 dereferenceable(936) %this1, ptr noundef nonnull align 8 dereferenceable(8) %status)
          to label %invoke.cont57 unwind label %lpad

invoke.cont57:                                    ; preds = %cond.false
  br label %cond.end

cond.end:                                         ; preds = %invoke.cont57, %invoke.cont55
  %cond = phi i1 [ %call56, %invoke.cont55 ], [ %call58, %invoke.cont57 ]
  %frombool = zext i1 %cond to i8
  store i8 %frombool, ptr %flush_result, align 1
  %39 = load i8, ptr %flush_result, align 1
  %tobool59 = trunc i8 %39 to i1
  br i1 %tobool59, label %if.end73, label %if.then60

if.then60:                                        ; preds = %cond.end
