target datalayout = "e-m:e-p270:32:32-p271:32:32-p272:64:64-i64:64-i128:128-f80:128-n8:16:32:64-S128"
target triple = "x86_64-unknown-linux-gnu"

%"class.std::ios_base::Init" = type { i8 }
%"class.grpc_core::TraceFlag" = type <{ ptr, ptr, %"struct.std::atomic", [7 x i8] }>
%"struct.std::atomic" = type { %"struct.std::__atomic_base" }
%"struct.std::__atomic_base" = type { i8 }
%"class.grpc_core::NoDestruct" = type { [8 x i8] }
%"class.grpc_core::NoDestruct.108" = type { [8 x i8] }
%"class.grpc_core::NoDestruct.109" = type { [8 x i8] }
%"class.grpc_core::NoDestruct.110" = type { [8 x i8] }
%"class.grpc_core::NoDestruct.111" = type { [8 x i8] }
%"struct.std::atomic.112" = type { %"struct.std::__atomic_base.113" }
%"struct.std::__atomic_base.113" = type { ptr }
%"struct.std::piecewise_construct_t" = type { i8 }
%"struct.std::in_place_index_t" = type { i8 }
%"struct.std::nullopt_t" = type { i8 }
%"struct.std::in_place_t" = type { i8 }
%"struct.std::in_place_index_t.417" = type { i8 }
%"struct.std::in_place_index_t.424" = type { i8 }
%"struct.std::in_place_index_t.426" = type { i8 }
%"class.std::unique_ptr" = type { %"struct.std::__uniq_ptr_data" }
%"struct.std::__uniq_ptr_data" = type { %"class.std::__uniq_ptr_impl" }
%"class.std::__uniq_ptr_impl" = type { %"class.std::tuple" }
%"class.std::tuple" = type { %"struct.std::_Tuple_impl" }
%"struct.std::_Tuple_impl" = type { %"struct.std::_Head_base.42" }
%"struct.std::_Head_base.42" = type { ptr }
%"class.std::unique_ptr.43" = type { %"struct.std::__uniq_ptr_data.44" }
%"struct.std::__uniq_ptr_data.44" = type { %"class.std::__uniq_ptr_impl.45" }
%"class.std::__uniq_ptr_impl.45" = type { %"class.std::tuple.46" }
%"class.std::tuple.46" = type { %"struct.std::_Tuple_impl.47" }
%"struct.std::_Tuple_impl.47" = type { %"struct.std::_Head_base.50" }
%"struct.std::_Head_base.50" = type { ptr }
%"class.grpc_core::CoreConfiguration::Builder" = type { %"class.grpc_core::ChannelArgsPreconditioning::Builder", [8 x i8], %"class.grpc_core::ChannelInit::Builder", %"class.grpc_core::HandshakerRegistry::Builder", %"class.grpc_core::ChannelCredsRegistry<>::Builder", %"class.grpc_core::ServiceConfigParser::Builder", %"class.grpc_core::ResolverRegistry::Builder", %"class.grpc_core::LoadBalancingPolicyRegistry::Builder", %"class.grpc_core::ProxyMapperRegistry::Builder", %"class.grpc_core::CertificateProviderRegistry::Builder" }
%"class.grpc_core::ChannelArgsPreconditioning::Builder" = type { %"class.std::vector" }
%"class.std::vector" = type { %"struct.std::_Vector_base" }
%"struct.std::_Vector_base" = type { %"struct.std::_Vector_base<std::function<grpc_core::ChannelArgs (grpc_core::ChannelArgs)>, std::allocator<std::function<grpc_core::ChannelArgs (grpc_core::ChannelArgs)>>>::_Vector_impl" }
%"struct.std::_Vector_base<std::function<grpc_core::ChannelArgs (grpc_core::ChannelArgs)>, std::allocator<std::function<grpc_core::ChannelArgs (grpc_core::ChannelArgs)>>>::_Vector_impl" = type { %"struct.std::_Vector_base<std::function<grpc_core::ChannelArgs (grpc_core::ChannelArgs)>, std::allocator<std::function<grpc_core::ChannelArgs (grpc_core::ChannelArgs)>>>::_Vector_impl_data" }
%"struct.std::_Vector_base<std::function<grpc_core::ChannelArgs (grpc_core::ChannelArgs)>, std::allocator<std::function<grpc_core::ChannelArgs (grpc_core::ChannelArgs)>>>::_Vector_impl_data" = type { ptr, ptr, ptr }
%"class.grpc_core::ChannelInit::Builder" = type { [6 x %"class.std::vector.3"], [6 x [2 x %"class.absl::lts_20230802::AnyInvocable"]] }
%"class.std::vector.3" = type { %"struct.std::_Vector_base.4" }
%"struct.std::_Vector_base.4" = type { %"struct.std::_Vector_base<std::unique_ptr<grpc_core::ChannelInit::FilterRegistration>, std::allocator<std::unique_ptr<grpc_core::ChannelInit::FilterRegistration>>>::_Vector_impl" }
%"struct.std::_Vector_base<std::unique_ptr<grpc_core::ChannelInit::FilterRegistration>, std::allocator<std::unique_ptr<grpc_core::ChannelInit::FilterRegistration>>>::_Vector_impl" = type { %"struct.std::_Vector_base<std::unique_ptr<grpc_core::ChannelInit::FilterRegistration>, std::allocator<std::unique_ptr<grpc_core::ChannelInit::FilterRegistration>>>::_Vector_impl_data" }
%"struct.std::_Vector_base<std::unique_ptr<grpc_core::ChannelInit::FilterRegistration>, std::allocator<std::unique_ptr<grpc_core::ChannelInit::FilterRegistration>>>::_Vector_impl_data" = type { ptr, ptr, ptr }
%"class.absl::lts_20230802::AnyInvocable" = type { %"class.absl::lts_20230802::internal_any_invocable::Impl" }
%"class.absl::lts_20230802::internal_any_invocable::Impl" = type { %"class.absl::lts_20230802::internal_any_invocable::CoreImpl" }
%"class.absl::lts_20230802::internal_any_invocable::CoreImpl" = type { %"union.absl::lts_20230802::internal_any_invocable::TypeErasedState", ptr, ptr }
%"union.absl::lts_20230802::internal_any_invocable::TypeErasedState" = type { %struct.anon }
%struct.anon = type { ptr, i64 }
%"class.grpc_core::HandshakerRegistry::Builder" = type { [2 x %"class.std::vector.8"] }
%"class.std::vector.8" = type { %"struct.std::_Vector_base.9" }
%"struct.std::_Vector_base.9" = type { %"struct.std::_Vector_base<std::unique_ptr<grpc_core::HandshakerFactory>, std::allocator<std::unique_ptr<grpc_core::HandshakerFactory>>>::_Vector_impl" }
%"struct.std::_Vector_base<std::unique_ptr<grpc_core::HandshakerFactory>, std::allocator<std::unique_ptr<grpc_core::HandshakerFactory>>>::_Vector_impl" = type { %"struct.std::_Vector_base<std::unique_ptr<grpc_core::HandshakerFactory>, std::allocator<std::unique_ptr<grpc_core::HandshakerFactory>>>::_Vector_impl_data" }
%"struct.std::_Vector_base<std::unique_ptr<grpc_core::HandshakerFactory>, std::allocator<std::unique_ptr<grpc_core::HandshakerFactory>>>::_Vector_impl_data" = type { ptr, ptr, ptr }
%"class.grpc_core::ChannelCredsRegistry<>::Builder" = type { %"class.std::map.13" }
%"class.std::map.13" = type { %"class.std::_Rb_tree.14" }
%"class.std::_Rb_tree.14" = type { %"struct.std::_Rb_tree<std::basic_string_view<char>, std::pair<const std::basic_string_view<char>, std::unique_ptr<grpc_core::ChannelCredsFactory<grpc_channel_credentials>>>, std::_Select1st<std::pair<const std::basic_string_view<char>, std::unique_ptr<grpc_core::ChannelCredsFactory<grpc_channel_credentials>>>>, std::less<std::basic_string_view<char>>>::_Rb_tree_impl" }
%"struct.std::_Rb_tree<std::basic_string_view<char>, std::pair<const std::basic_string_view<char>, std::unique_ptr<grpc_core::ChannelCredsFactory<grpc_channel_credentials>>>, std::_Select1st<std::pair<const std::basic_string_view<char>, std::unique_ptr<grpc_core::ChannelCredsFactory<grpc_channel_credentials>>>>, std::less<std::basic_string_view<char>>>::_Rb_tree_impl" = type { %"struct.std::_Rb_tree_key_compare", %"struct.std::_Rb_tree_header" }
%"struct.std::_Rb_tree_key_compare" = type { %"struct.std::less" }
%"struct.std::less" = type { i8 }
%"struct.std::_Rb_tree_header" = type { %"struct.std::_Rb_tree_node_base", i64 }
%"struct.std::_Rb_tree_node_base" = type { i32, ptr, ptr, ptr }
%"class.grpc_core::ServiceConfigParser::Builder" = type { %"class.std::vector.18" }
%"class.std::vector.18" = type { %"struct.std::_Vector_base.19" }
%"struct.std::_Vector_base.19" = type { %"struct.std::_Vector_base<std::unique_ptr<grpc_core::ServiceConfigParser::Parser>, std::allocator<std::unique_ptr<grpc_core::ServiceConfigParser::Parser>>>::_Vector_impl" }
%"struct.std::_Vector_base<std::unique_ptr<grpc_core::ServiceConfigParser::Parser>, std::allocator<std::unique_ptr<grpc_core::ServiceConfigParser::Parser>>>::_Vector_impl" = type { %"struct.std::_Vector_base<std::unique_ptr<grpc_core::ServiceConfigParser::Parser>, std::allocator<std::unique_ptr<grpc_core::ServiceConfigParser::Parser>>>::_Vector_impl_data" }
%"struct.std::_Vector_base<std::unique_ptr<grpc_core::ServiceConfigParser::Parser>, std::allocator<std::unique_ptr<grpc_core::ServiceConfigParser::Parser>>>::_Vector_impl_data" = type { ptr, ptr, ptr }
%"class.grpc_core::ResolverRegistry::Builder" = type { %"struct.grpc_core::ResolverRegistry::State" }
%"struct.grpc_core::ResolverRegistry::State" = type { %"class.std::map.23", %"class.std::__cxx11::basic_string" }
%"class.std::map.23" = type { %"class.std::_Rb_tree.24" }
%"class.std::_Rb_tree.24" = type { %"struct.std::_Rb_tree<std::basic_string_view<char>, std::pair<const std::basic_string_view<char>, std::unique_ptr<grpc_core::ResolverFactory>>, std::_Select1st<std::pair<const std::basic_string_view<char>, std::unique_ptr<grpc_core::ResolverFactory>>>, std::less<std::basic_string_view<char>>>::_Rb_tree_impl" }
%"struct.std::_Rb_tree<std::basic_string_view<char>, std::pair<const std::basic_string_view<char>, std::unique_ptr<grpc_core::ResolverFactory>>, std::_Select1st<std::pair<const std::basic_string_view<char>, std::unique_ptr<grpc_core::ResolverFactory>>>, std::less<std::basic_string_view<char>>>::_Rb_tree_impl" = type { %"struct.std::_Rb_tree_key_compare", %"struct.std::_Rb_tree_header" }
%"class.std::__cxx11::basic_string" = type { %"struct.std::__cxx11::basic_string<char>::_Alloc_hider", i64, %union.anon }
%"struct.std::__cxx11::basic_string<char>::_Alloc_hider" = type { ptr }
%union.anon = type { i64, [8 x i8] }
%"class.grpc_core::LoadBalancingPolicyRegistry::Builder" = type { %"class.std::map" }
%"class.std::map" = type { %"class.std::_Rb_tree" }
%"class.std::_Rb_tree" = type { %"struct.std::_Rb_tree<std::basic_string_view<char>, std::pair<const std::basic_string_view<char>, std::unique_ptr<grpc_core::LoadBalancingPolicyFactory>>, std::_Select1st<std::pair<const std::basic_string_view<char>, std::unique_ptr<grpc_core::LoadBalancingPolicyFactory>>>, std::less<std::basic_string_view<char>>>::_Rb_tree_impl" }
%"struct.std::_Rb_tree<std::basic_string_view<char>, std::pair<const std::basic_string_view<char>, std::unique_ptr<grpc_core::LoadBalancingPolicyFactory>>, std::_Select1st<std::pair<const std::basic_string_view<char>, std::unique_ptr<grpc_core::LoadBalancingPolicyFactory>>>, std::less<std::basic_string_view<char>>>::_Rb_tree_impl" = type { %"struct.std::_Rb_tree_key_compare", %"struct.std::_Rb_tree_header" }
%"class.grpc_core::ProxyMapperRegistry::Builder" = type { %"class.std::vector.31" }
%"class.std::vector.31" = type { %"struct.std::_Vector_base.32" }
%"struct.std::_Vector_base.32" = type { %"struct.std::_Vector_base<std::unique_ptr<grpc_core::ProxyMapperInterface>, std::allocator<std::unique_ptr<grpc_core::ProxyMapperInterface>>>::_Vector_impl" }
%"struct.std::_Vector_base<std::unique_ptr<grpc_core::ProxyMapperInterface>, std::allocator<std::unique_ptr<grpc_core::ProxyMapperInterface>>>::_Vector_impl" = type { %"struct.std::_Vector_base<std::unique_ptr<grpc_core::ProxyMapperInterface>, std::allocator<std::unique_ptr<grpc_core::ProxyMapperInterface>>>::_Vector_impl_data" }
%"struct.std::_Vector_base<std::unique_ptr<grpc_core::ProxyMapperInterface>, std::allocator<std::unique_ptr<grpc_core::ProxyMapperInterface>>>::_Vector_impl_data" = type { ptr, ptr, ptr }
%"class.grpc_core::CertificateProviderRegistry::Builder" = type { %"class.std::map.36" }
%"class.std::map.36" = type { %"class.std::_Rb_tree.37" }
%"class.std::_Rb_tree.37" = type { %"struct.std::_Rb_tree<std::basic_string_view<char>, std::pair<const std::basic_string_view<char>, std::unique_ptr<grpc_core::CertificateProviderFactory>>, std::_Select1st<std::pair<const std::basic_string_view<char>, std::unique_ptr<grpc_core::CertificateProviderFactory>>>, std::less<std::basic_string_view<char>>>::_Rb_tree_impl" }
%"struct.std::_Rb_tree<std::basic_string_view<char>, std::pair<const std::basic_string_view<char>, std::unique_ptr<grpc_core::CertificateProviderFactory>>, std::_Select1st<std::pair<const std::basic_string_view<char>, std::unique_ptr<grpc_core::CertificateProviderFactory>>>, std::less<std::basic_string_view<char>>>::_Rb_tree_impl" = type { %"struct.std::_Rb_tree_key_compare", %"struct.std::_Rb_tree_header" }
%"class.grpc_core::json_detail::JsonObjectLoader" = type { i8 }
%"class.grpc_core::ValidationErrors::ScopedField" = type { ptr }
%"class.std::basic_string_view" = type { i64, ptr }
%"struct.std::_Rb_tree_const_iterator" = type { ptr }
%"class.std::allocator.28" = type { i8 }
%"class.absl::lts_20230802::StatusOr" = type { %"class.absl::lts_20230802::internal_statusor::StatusOrData" }
%"class.absl::lts_20230802::internal_statusor::StatusOrData" = type { %union.anon.83, %union.anon.84 }
%union.anon.83 = type { %"class.absl::lts_20230802::Status" }
%"class.absl::lts_20230802::Status" = type { i64 }
%union.anon.84 = type { %"class.grpc_core::RefCountedPtr" }
%"class.grpc_core::RefCountedPtr" = type { ptr }
%"class.std::optional" = type { %"struct.std::_Optional_base" }
%"struct.std::_Optional_base" = type { %"struct.std::_Optional_payload" }
%"struct.std::_Optional_payload" = type { %"struct.std::_Optional_payload.base", [7 x i8] }
%"struct.std::_Optional_payload.base" = type { %"struct.std::_Optional_payload_base.base" }
%"struct.std::_Optional_payload_base.base" = type <{ %"union.std::_Optional_payload_base<std::vector<std::__cxx11::basic_string<char>>>::_Storage", i8 }>
%"union.std::_Optional_payload_base<std::vector<std::__cxx11::basic_string<char>>>::_Storage" = type { %"class.std::vector.78" }
%"class.std::vector.78" = type { %"struct.std::_Vector_base.79" }
%"struct.std::_Vector_base.79" = type { %"struct.std::_Vector_base<std::__cxx11::basic_string<char>, std::allocator<std::__cxx11::basic_string<char>>>::_Vector_impl" }
%"struct.std::_Vector_base<std::__cxx11::basic_string<char>, std::allocator<std::__cxx11::basic_string<char>>>::_Vector_impl" = type { %"struct.std::_Vector_base<std::__cxx11::basic_string<char>, std::allocator<std::__cxx11::basic_string<char>>>::_Vector_impl_data" }
%"struct.std::_Vector_base<std::__cxx11::basic_string<char>, std::allocator<std::__cxx11::basic_string<char>>>::_Vector_impl_data" = type { ptr, ptr, ptr }
%"class.std::optional.100" = type { %"struct.std::_Optional_base.101" }
%"struct.std::_Optional_base.101" = type { %"struct.std::_Optional_payload.103" }
%"struct.std::_Optional_payload.103" = type { %"struct.std::_Optional_payload_base.base.105", [3 x i8] }
%"struct.std::_Optional_payload_base.base.105" = type <{ %"union.std::_Optional_payload_base<grpc_core::XdsHealthStatus>::_Storage", i8 }>
%"union.std::_Optional_payload_base<grpc_core::XdsHealthStatus>::_Storage" = type { %"class.grpc_core::XdsHealthStatus" }
%"class.grpc_core::XdsHealthStatus" = type { i32 }
%"class.absl::lts_20230802::AlphaNum" = type { %"class.std::basic_string_view", [32 x i8] }
%"class.grpc_core::XdsHealthStatusSet" = type { i32 }
%"class.absl::lts_20230802::Span" = type { ptr, i64 }
%"class.std::initializer_list" = type { ptr, i64 }
%"struct.std::pair" = type { %"class.std::__cxx11::basic_string", %"class.grpc_core::experimental::Json" }
%"class.grpc_core::experimental::Json" = type { %"class.std::variant" }
%"class.std::variant" = type { %"struct.std::__detail::__variant::_Variant_base.base", [7 x i8] }
%"struct.std::__detail::__variant::_Variant_base.base" = type { %"struct.std::__detail::__variant::_Move_assign_base.base" }
%"struct.std::__detail::__variant::_Move_assign_base.base" = type { %"struct.std::__detail::__variant::_Copy_assign_base.base" }
%"struct.std::__detail::__variant::_Copy_assign_base.base" = type { %"struct.std::__detail::__variant::_Move_ctor_base.base" }
%"struct.std::__detail::__variant::_Move_ctor_base.base" = type { %"struct.std::__detail::__variant::_Copy_ctor_base.base" }
%"struct.std::__detail::__variant::_Copy_ctor_base.base" = type { %"struct.std::__detail::__variant::_Variant_storage.base" }
%"struct.std::__detail::__variant::_Variant_storage.base" = type { %"union.std::__detail::__variant::_Variadic_union", i8 }
%"union.std::__detail::__variant::_Variadic_union" = type { %"union.std::__detail::__variant::_Variadic_union.51" }
%"union.std::__detail::__variant::_Variadic_union.51" = type { %"union.std::__detail::__variant::_Variadic_union.53" }
%"union.std::__detail::__variant::_Variadic_union.53" = type { %"union.std::__detail::__variant::_Variadic_union.55" }
%"union.std::__detail::__variant::_Variadic_union.55" = type { %"union.std::__detail::__variant::_Variadic_union.58" }
%"union.std::__detail::__variant::_Variadic_union.58" = type { %"struct.std::__detail::__variant::_Uninitialized.59" }
%"struct.std::__detail::__variant::_Uninitialized.59" = type { %"struct.__gnu_cxx::__aligned_membuf.60" }
%"struct.__gnu_cxx::__aligned_membuf.60" = type { [48 x i8] }
%"class.grpc_core::XdsOverrideHostLbConfig" = type <{ %"class.grpc_core::LoadBalancingPolicy::Config", %"class.grpc_core::RefCountedPtr", %"class.grpc_core::XdsHealthStatusSet", [4 x i8] }>
%"class.grpc_core::LoadBalancingPolicy::Config" = type { %"class.grpc_core::RefCounted" }
%"class.grpc_core::RefCounted" = type { %"class.grpc_core::PolymorphicRefCount", %"class.grpc_core::RefCount" }
%"class.grpc_core::PolymorphicRefCount" = type { ptr }
%"class.grpc_core::RefCount" = type { %"struct.std::atomic.95" }
%"struct.std::atomic.95" = type { %"struct.std::__atomic_base.96" }
%"struct.std::__atomic_base.96" = type { i64 }
%"class.std::map.65" = type { %"class.std::_Rb_tree.66" }
%"class.std::_Rb_tree.66" = type { %"struct.std::_Rb_tree<std::__cxx11::basic_string<char>, std::pair<const std::__cxx11::basic_string<char>, grpc_core::experimental::Json>, std::_Select1st<std::pair<const std::__cxx11::basic_string<char>, grpc_core::experimental::Json>>, std::less<std::__cxx11::basic_string<char>>>::_Rb_tree_impl" }
%"struct.std::_Rb_tree<std::__cxx11::basic_string<char>, std::pair<const std::__cxx11::basic_string<char>, grpc_core::experimental::Json>, std::_Select1st<std::pair<const std::__cxx11::basic_string<char>, grpc_core::experimental::Json>>, std::less<std::__cxx11::basic_string<char>>>::_Rb_tree_impl" = type { %"struct.std::_Rb_tree_key_compare.70", %"struct.std::_Rb_tree_header" }
%"struct.std::_Rb_tree_key_compare.70" = type { %"struct.std::less.71" }
%"struct.std::less.71" = type { i8 }
%"class.grpc_core::CoreConfiguration" = type { %"class.grpc_core::ChannelArgsPreconditioning", %"class.grpc_core::ChannelInit", %"class.grpc_core::HandshakerRegistry", %"class.grpc_core::ChannelCredsRegistry", %"class.grpc_core::ServiceConfigParser", %"class.grpc_core::ResolverRegistry", %"class.grpc_core::LoadBalancingPolicyRegistry", %"class.grpc_core::ProxyMapperRegistry", %"class.grpc_core::CertificateProviderRegistry" }
%"class.grpc_core::ChannelArgsPreconditioning" = type { %"class.std::vector" }
%"class.grpc_core::ChannelInit" = type { [6 x %"struct.grpc_core::ChannelInit::StackConfig"] }
%"struct.grpc_core::ChannelInit::StackConfig" = type { %"class.std::vector.85", %"class.std::vector.85", %"class.std::vector.90" }
%"class.std::vector.85" = type { %"struct.std::_Vector_base.86" }
%"struct.std::_Vector_base.86" = type { %"struct.std::_Vector_base<grpc_core::ChannelInit::Filter, std::allocator<grpc_core::ChannelInit::Filter>>::_Vector_impl" }
%"struct.std::_Vector_base<grpc_core::ChannelInit::Filter, std::allocator<grpc_core::ChannelInit::Filter>>::_Vector_impl" = type { %"struct.std::_Vector_base<grpc_core::ChannelInit::Filter, std::allocator<grpc_core::ChannelInit::Filter>>::_Vector_impl_data" }
%"struct.std::_Vector_base<grpc_core::ChannelInit::Filter, std::allocator<grpc_core::ChannelInit::Filter>>::_Vector_impl_data" = type { ptr, ptr, ptr }
%"class.std::vector.90" = type { %"struct.std::_Vector_base.91" }
%"struct.std::_Vector_base.91" = type { %"struct.std::_Vector_base<absl::lts_20230802::AnyInvocable<void (grpc_core::ChannelStackBuilder &) const>, std::allocator<absl::lts_20230802::AnyInvocable<void (grpc_core::ChannelStackBuilder &) const>>>::_Vector_impl" }
%"struct.std::_Vector_base<absl::lts_20230802::AnyInvocable<void (grpc_core::ChannelStackBuilder &) const>, std::allocator<absl::lts_20230802::AnyInvocable<void (grpc_core::ChannelStackBuilder &) const>>>::_Vector_impl" = type { %"struct.std::_Vector_base<absl::lts_20230802::AnyInvocable<void (grpc_core::ChannelStackBuilder &) const>, std::allocator<absl::lts_20230802::AnyInvocable<void (grpc_core::ChannelStackBuilder &) const>>>::_Vector_impl_data" }
%"struct.std::_Vector_base<absl::lts_20230802::AnyInvocable<void (grpc_core::ChannelStackBuilder &) const>, std::allocator<absl::lts_20230802::AnyInvocable<void (grpc_core::ChannelStackBuilder &) const>>>::_Vector_impl_data" = type { ptr, ptr, ptr }
%"class.grpc_core::HandshakerRegistry" = type { [2 x %"class.std::vector.8"] }
%"class.grpc_core::ChannelCredsRegistry" = type { %"class.std::map.13" }
%"class.grpc_core::ServiceConfigParser" = type { %"class.std::vector.18" }
%"class.grpc_core::ResolverRegistry" = type { %"struct.grpc_core::ResolverRegistry::State" }
%"class.grpc_core::LoadBalancingPolicyRegistry" = type { %"class.std::map" }
%"class.grpc_core::ProxyMapperRegistry" = type { %"class.std::vector.31" }
%"class.grpc_core::CertificateProviderRegistry" = type { %"class.std::map.36" }
%"struct.absl::lts_20230802::status_internal::StatusRep" = type { %"struct.std::atomic.114", i32, %"class.std::__cxx11::basic_string", %"class.std::unique_ptr.116" }
%"struct.std::atomic.114" = type { %"struct.std::__atomic_base.115" }
%"struct.std::__atomic_base.115" = type { i32 }
%"class.std::unique_ptr.116" = type { %"struct.std::__uniq_ptr_data.117" }
%"struct.std::__uniq_ptr_data.117" = type { %"class.std::__uniq_ptr_impl.118" }
%"class.std::__uniq_ptr_impl.118" = type { %"class.std::tuple.119" }
%"class.std::tuple.119" = type { %"struct.std::_Tuple_impl.120" }
%"struct.std::_Tuple_impl.120" = type { %"struct.std::_Head_base.123" }
%"struct.std::_Head_base.123" = type { ptr }
%"struct.std::__detail::__variant::_Variant_storage" = type { %"union.std::__detail::__variant::_Variadic_union", i8, [7 x i8] }
%"class.std::bad_variant_access" = type { %"class.std::exception", ptr }
%"class.std::exception" = type { ptr }
%"struct.std::_Optional_payload_base" = type <{ %"union.std::_Optional_payload_base<std::vector<std::__cxx11::basic_string<char>>>::_Storage", i8, [7 x i8] }>
%"struct.std::_Optional_payload_base.104" = type <{ %"union.std::_Optional_payload_base<grpc_core::XdsHealthStatus>::_Storage", i8, [3 x i8] }>
%struct._Guard = type { ptr }
%"class.grpc_core::RefCountedPtr.125" = type { ptr }
%"class.std::unique_ptr.126" = type { %"struct.std::__uniq_ptr_data.127" }
%"struct.std::__uniq_ptr_data.127" = type { %"class.std::__uniq_ptr_impl.128" }
%"class.std::__uniq_ptr_impl.128" = type { %"class.std::tuple.129" }
%"class.std::tuple.129" = type { %"struct.std::_Tuple_impl.130" }
%"struct.std::_Tuple_impl.130" = type { %"struct.std::_Head_base.133" }
%"struct.std::_Head_base.133" = type { ptr }
%"class.std::unique_ptr.143" = type { %"struct.std::__uniq_ptr_data.144" }
%"struct.std::__uniq_ptr_data.144" = type { %"class.std::__uniq_ptr_impl.145" }
%"class.std::__uniq_ptr_impl.145" = type { %"class.std::tuple.146" }
%"class.std::tuple.146" = type { %"struct.std::_Tuple_impl.147" }
%"struct.std::_Tuple_impl.147" = type { %"struct.std::_Head_base.148" }
%"struct.std::_Head_base.148" = type { ptr }
%"class.absl::lts_20230802::StatusOr.445" = type { %"class.absl::lts_20230802::internal_statusor::StatusOrData.446" }
%"class.absl::lts_20230802::internal_statusor::StatusOrData.446" = type { %union.anon.447, %union.anon.448 }
%union.anon.447 = type { %"class.absl::lts_20230802::Status" }
%union.anon.448 = type { %"class.grpc_core::RefCountedPtr.125" }
%"class.grpc_core::JsonArgs" = type { ptr }
%"struct.grpc_core::LoadBalancingPolicy::Args" = type { %"class.std::shared_ptr", %"class.std::unique_ptr.134", %"class.grpc_core::ChannelArgs" }
%"class.std::shared_ptr" = type { %"class.std::__shared_ptr" }
%"class.std::__shared_ptr" = type { ptr, %"class.std::__shared_count" }
%"class.std::__shared_count" = type { ptr }
%"class.std::unique_ptr.134" = type { %"struct.std::__uniq_ptr_data.135" }
%"struct.std::__uniq_ptr_data.135" = type { %"class.std::__uniq_ptr_impl.136" }
%"class.std::__uniq_ptr_impl.136" = type { %"class.std::tuple.137" }
%"class.std::tuple.137" = type { %"struct.std::_Tuple_impl.138" }
%"struct.std::_Tuple_impl.138" = type { %"struct.std::_Head_base.141" }
%"struct.std::_Head_base.141" = type { ptr }
%"class.grpc_core::ChannelArgs" = type { %"class.grpc_core::AVL" }
%"class.grpc_core::AVL" = type { %"class.grpc_core::RefCountedPtr.142" }
%"class.grpc_core::RefCountedPtr.142" = type { ptr }
%"class.grpc_core::(anonymous namespace)::XdsOverrideHostLb" = type { %"class.grpc_core::LoadBalancingPolicy", %"class.grpc_core::RefCountedPtr.125", i8, %"class.std::unique_ptr.126", i32, %"class.absl::lts_20230802::Status", %"class.grpc_core::RefCountedPtr.149", %"class.absl::lts_20230802::Mutex", %"class.std::map.150" }
%"class.grpc_core::LoadBalancingPolicy" = type { %"class.grpc_core::InternallyRefCounted", %"class.std::shared_ptr", ptr, %"class.std::unique_ptr.134", %"class.grpc_core::ChannelArgs" }
%"class.grpc_core::InternallyRefCounted" = type { %"class.grpc_core::Orphanable", %"class.grpc_core::RefCount" }
%"class.grpc_core::Orphanable" = type { ptr }
%"class.grpc_core::RefCountedPtr.149" = type { ptr }
%"class.absl::lts_20230802::Mutex" = type { %"struct.std::atomic.95" }
%"class.std::map.150" = type { %"class.std::_Rb_tree.151" }
%"class.std::_Rb_tree.151" = type { %"struct.std::_Rb_tree<std::__cxx11::basic_string<char>, std::pair<const std::__cxx11::basic_string<char>, grpc_core::(anonymous namespace)::XdsOverrideHostLb::SubchannelEntry>, std::_Select1st<std::pair<const std::__cxx11::basic_string<char>, grpc_core::(anonymous namespace)::XdsOverrideHostLb::SubchannelEntry>>, std::less<void>>::_Rb_tree_impl" }
%"struct.std::_Rb_tree<std::__cxx11::basic_string<char>, std::pair<const std::__cxx11::basic_string<char>, grpc_core::(anonymous namespace)::XdsOverrideHostLb::SubchannelEntry>, std::_Select1st<std::pair<const std::__cxx11::basic_string<char>, grpc_core::(anonymous namespace)::XdsOverrideHostLb::SubchannelEntry>>, std::less<void>>::_Rb_tree_impl" = type { %"struct.std::_Rb_tree_key_compare.155", %"struct.std::_Rb_tree_header" }
%"struct.std::_Rb_tree_key_compare.155" = type { %"struct.std::less.156" }
%"struct.std::less.156" = type { i8 }
%"class.std::shared_ptr.219" = type { %"class.std::__shared_ptr.220" }
%"class.std::__shared_ptr.220" = type { ptr, %"class.std::__shared_count" }
%"struct.grpc_core::LoadBalancingPolicy::UpdateArgs" = type { %"class.absl::lts_20230802::StatusOr.157", %"class.grpc_core::RefCountedPtr", %"class.std::__cxx11::basic_string", %"class.grpc_core::ChannelArgs" }
%"class.absl::lts_20230802::StatusOr.157" = type { %"class.absl::lts_20230802::internal_statusor::StatusOrData.158" }
%"class.absl::lts_20230802::internal_statusor::StatusOrData.158" = type { %union.anon.159, %union.anon.160 }
%union.anon.159 = type { %"class.absl::lts_20230802::Status" }
%union.anon.160 = type { %"class.std::shared_ptr.161" }
%"class.std::shared_ptr.161" = type { %"class.std::__shared_ptr.162" }
%"class.std::__shared_ptr.162" = type { ptr, %"class.std::__shared_count" }
%"class.absl::lts_20230802::MutexLock" = type { ptr }
%"struct.std::_Rb_tree_node" = type { %"struct.std::_Rb_tree_node_base", %"struct.__gnu_cxx::__aligned_membuf.168" }
%"struct.__gnu_cxx::__aligned_membuf.168" = type { [64 x i8] }
%"struct.std::pair.169" = type { %"class.std::__cxx11::basic_string", %"class.grpc_core::(anonymous namespace)::XdsOverrideHostLb::SubchannelEntry" }
%"class.grpc_core::(anonymous namespace)::XdsOverrideHostLb::SubchannelEntry" = type { %"class.std::variant.171", %"class.grpc_core::XdsHealthStatus", %"class.grpc_core::RefCountedStringValue" }
%"class.std::variant.171" = type { %"struct.std::__detail::__variant::_Variant_base.base.189", [7 x i8] }
%"struct.std::__detail::__variant::_Variant_base.base.189" = type { %"struct.std::__detail::__variant::_Move_assign_base.base.188" }
%"struct.std::__detail::__variant::_Move_assign_base.base.188" = type { %"struct.std::__detail::__variant::_Copy_assign_base.base.187" }
%"struct.std::__detail::__variant::_Copy_assign_base.base.187" = type { %"struct.std::__detail::__variant::_Move_ctor_base.base.186" }
%"struct.std::__detail::__variant::_Move_ctor_base.base.186" = type { %"struct.std::__detail::__variant::_Copy_ctor_base.base.185" }
%"struct.std::__detail::__variant::_Copy_ctor_base.base.185" = type { %"struct.std::__detail::__variant::_Variant_storage.base.184" }
%"struct.std::__detail::__variant::_Variant_storage.base.184" = type { %"union.std::__detail::__variant::_Variadic_union.178", i8 }
%"union.std::__detail::__variant::_Variadic_union.178" = type { %"struct.std::__detail::__variant::_Uninitialized.179" }
%"struct.std::__detail::__variant::_Uninitialized.179" = type { %"struct.__gnu_cxx::__aligned_membuf.180" }
%"struct.__gnu_cxx::__aligned_membuf.180" = type { [8 x i8] }
%"class.grpc_core::RefCountedStringValue" = type { %"class.grpc_core::RefCountedPtr.194" }
%"class.grpc_core::RefCountedPtr.194" = type { ptr }
%"class.grpc_core::RefCountedString" = type { %"struct.grpc_core::RefCountedString::Header", [0 x i8] }
%"struct.grpc_core::RefCountedString::Header" = type { %"class.grpc_core::RefCount", i64 }
%class.anon = type { i8 }
%"struct.std::__detail::__variant::_Variant_storage.177" = type { %"union.std::__detail::__variant::_Variadic_union.178", i8, [7 x i8] }
%class.anon.195 = type { i8 }
%"class.grpc_core::WeakRefCountedPtr" = type { ptr }
%"class.grpc_core::DualRefCounted" = type { %"class.grpc_core::Orphanable", %"struct.std::atomic.197" }
%"struct.std::atomic.197" = type { %"struct.std::__atomic_base.198" }
%"struct.std::__atomic_base.198" = type { i64 }
%"class.grpc_core::RefCountedPtr.217" = type { ptr }
%"struct.std::__detail::__variant::_Uninitialized.182" = type { %"struct.__gnu_cxx::__aligned_membuf.183" }
%"struct.__gnu_cxx::__aligned_membuf.183" = type { [8 x i8] }
%"class.grpc_core::DualRefCounted.218" = type { %"class.grpc_core::Orphanable", %"struct.std::atomic.197" }
%"class.std::map.222" = type { %"class.std::_Rb_tree.223" }
%"class.std::_Rb_tree.223" = type { %"struct.std::_Rb_tree<const std::__cxx11::basic_string<char>, std::pair<const std::__cxx11::basic_string<char>, AddressInfo>, std::_Select1st<std::pair<const std::__cxx11::basic_string<char>, AddressInfo>>, std::less<const std::__cxx11::basic_string<char>>>::_Rb_tree_impl" }
%"struct.std::_Rb_tree<const std::__cxx11::basic_string<char>, std::pair<const std::__cxx11::basic_string<char>, AddressInfo>, std::_Select1st<std::pair<const std::__cxx11::basic_string<char>, AddressInfo>>, std::less<const std::__cxx11::basic_string<char>>>::_Rb_tree_impl" = type { %"struct.std::_Rb_tree_key_compare.227", %"struct.std::_Rb_tree_header" }
%"struct.std::_Rb_tree_key_compare.227" = type { %"struct.std::less.228" }
%"struct.std::less.228" = type { i8 }
%"class.absl::lts_20230802::FunctionRef" = type { %"union.absl::lts_20230802::functional_internal::VoidPtr", ptr }
%"union.absl::lts_20230802::functional_internal::VoidPtr" = type { ptr }
%class.anon.230 = type { ptr, ptr }
%"struct.std::_Rb_tree_iterator" = type { ptr }
%"struct.std::_Rb_tree_iterator.231" = type { ptr }
%"struct.std::pair.234" = type <{ %"struct.std::_Rb_tree_iterator", i8, [7 x i8] }>
%"class.std::tuple.236" = type { %"struct.std::_Tuple_impl.237" }
%"struct.std::_Tuple_impl.237" = type { %"struct.std::_Head_base.238" }
%"struct.std::_Head_base.238" = type { ptr }
%"class.std::tuple.239" = type { %"struct.std::_Tuple_impl.240" }
%"struct.std::_Tuple_impl.240" = type { %"struct.std::_Head_base.241" }
%"struct.std::_Head_base.241" = type { ptr }
%"struct.std::pair.232" = type { %"class.std::__cxx11::basic_string", %struct.AddressInfo }
%struct.AddressInfo = type { %"class.grpc_core::XdsHealthStatus", %"class.grpc_core::RefCountedStringValue" }
%"class.std::allocator.293" = type { i8 }
%"struct.std::_Sp_alloc_shared_tag" = type { ptr }
%"class.std::unique_ptr.299" = type { %"struct.std::__uniq_ptr_data.300" }
%"struct.std::__uniq_ptr_data.300" = type { %"class.std::__uniq_ptr_impl.301" }
%"class.std::__uniq_ptr_impl.301" = type { %"class.std::tuple.302" }
%"class.std::tuple.302" = type { %"struct.std::_Tuple_impl.303" }
%"struct.std::_Tuple_impl.303" = type { %"struct.std::_Head_base.306" }
%"struct.std::_Head_base.306" = type { ptr }
%"class.grpc_core::RefCountedPtr.307" = type { ptr }
%"class.grpc_core::DebugLocation" = type { i8 }
%"class.std::unique_ptr.308" = type { %"struct.std::__uniq_ptr_data.309" }
%"struct.std::__uniq_ptr_data.309" = type { %"class.std::__uniq_ptr_impl.310" }
%"class.std::__uniq_ptr_impl.310" = type { %"class.std::tuple.311" }
%"class.std::tuple.311" = type { %"struct.std::_Tuple_impl.312" }
%"struct.std::_Tuple_impl.312" = type { %"struct.std::_Head_base.313" }
%"struct.std::_Head_base.313" = type { ptr }
%"class.grpc_core::RefCountedPtr.199" = type { ptr }
%"class.grpc_core::WeakRefCountedPtr.285" = type { ptr }
%"class.__gnu_cxx::__normal_iterator" = type { ptr }
%"class.absl::lts_20230802::StatusOr.247" = type { %"class.absl::lts_20230802::internal_statusor::StatusOrData.248" }
%"class.absl::lts_20230802::internal_statusor::StatusOrData.248" = type { %union.anon.249, %union.anon.250 }
%union.anon.249 = type { %"class.absl::lts_20230802::Status" }
%union.anon.250 = type { %"class.std::__cxx11::basic_string" }
%"class.absl::lts_20230802::Span.255" = type { ptr, i64 }
%"class.std::tuple.259" = type { %"struct.std::_Tuple_impl.260" }
%"struct.std::_Tuple_impl.260" = type { %"struct.std::_Head_base.261" }
%"struct.std::_Head_base.261" = type { ptr }
%"class.std::tuple.262" = type { %"struct.std::_Tuple_impl.263" }
%"struct.std::_Tuple_impl.263" = type { %"struct.std::_Tuple_impl.264", %"struct.std::_Head_base.241" }
%"struct.std::_Tuple_impl.264" = type { %"struct.std::_Head_base.265" }
%"struct.std::_Head_base.265" = type { ptr }
%"struct.std::pair.256" = type <{ %"struct.std::_Rb_tree_iterator.231", i8, [7 x i8] }>
%"class.std::optional.266" = type { %"struct.std::_Optional_base.267" }
%"struct.std::_Optional_base.267" = type { %"struct.std::_Optional_payload.269" }
%"struct.std::_Optional_payload.269" = type { %"struct.std::_Optional_payload_base.base.271", [3 x i8] }
%"struct.std::_Optional_payload_base.base.271" = type <{ %"union.std::_Optional_payload_base<int>::_Storage", i8 }>
%"union.std::_Optional_payload_base<int>::_Storage" = type { i32 }
%"class.grpc_core::EndpointAddresses" = type { %"class.std::vector.242", %"class.grpc_core::ChannelArgs" }
%"class.std::vector.242" = type { %"struct.std::_Vector_base.243" }
%"struct.std::_Vector_base.243" = type { %"struct.std::_Vector_base<grpc_resolved_address, std::allocator<grpc_resolved_address>>::_Vector_impl" }
%"struct.std::_Vector_base<grpc_resolved_address, std::allocator<grpc_resolved_address>>::_Vector_impl" = type { %"struct.std::_Vector_base<grpc_resolved_address, std::allocator<grpc_resolved_address>>::_Vector_impl_data" }
%"struct.std::_Vector_base<grpc_resolved_address, std::allocator<grpc_resolved_address>>::_Vector_impl_data" = type { ptr, ptr, ptr }
%struct.grpc_resolved_address = type { [128 x i8], i32 }
%"class.std::initializer_list.276" = type { ptr, i64 }
%"struct.std::_Optional_payload_base.270" = type <{ %"union.std::_Optional_payload_base<int>::_Storage", i8, [3 x i8] }>
%"class.__gnu_cxx::__normal_iterator.274" = type { ptr }
%"class.__gnu_cxx::__normal_iterator.275" = type { ptr }
%"struct.std::_Rb_tree<const std::__cxx11::basic_string<char>, std::pair<const std::__cxx11::basic_string<char>, AddressInfo>, std::_Select1st<std::pair<const std::__cxx11::basic_string<char>, AddressInfo>>, std::less<const std::__cxx11::basic_string<char>>>::_Auto_node" = type { ptr, ptr }
%"struct.std::pair.277" = type { ptr, ptr }
%"struct.std::_Rb_tree_node.279" = type { %"struct.std::_Rb_tree_node_base", %"struct.__gnu_cxx::__aligned_membuf.280" }
%"struct.__gnu_cxx::__aligned_membuf.280" = type { [48 x i8] }
%"struct.std::_Select1st" = type { i8 }
%"struct.std::_Rb_tree_const_iterator.282" = type { ptr }
%"struct.std::_Select1st.283" = type { i8 }
%"struct.std::_Rb_tree<std::__cxx11::basic_string<char>, std::pair<const std::__cxx11::basic_string<char>, grpc_core::(anonymous namespace)::XdsOverrideHostLb::SubchannelEntry>, std::_Select1st<std::pair<const std::__cxx11::basic_string<char>, grpc_core::(anonymous namespace)::XdsOverrideHostLb::SubchannelEntry>>, std::less<void>>::_Auto_node" = type { ptr, ptr }
%"struct.grpc_core::OverloadType" = type { i8 }
%class.anon.286 = type { i8 }
%class.anon.288 = type { i8 }
%class.anon.291 = type { i8 }
%"class.std::allocator.294" = type { i8 }
%"struct.std::__allocated_ptr" = type { ptr, ptr }
%"class.std::_Sp_counted_ptr_inplace" = type { %"class.std::_Sp_counted_base", %"class.std::_Sp_counted_ptr_inplace<grpc_core::(anonymous namespace)::ChildEndpointIterator, std::allocator<void>, __gnu_cxx::_S_atomic>::_Impl" }
%"class.std::_Sp_counted_base" = type { ptr, i32, i32 }
%"class.std::_Sp_counted_ptr_inplace<grpc_core::(anonymous namespace)::ChildEndpointIterator, std::allocator<void>, __gnu_cxx::_S_atomic>::_Impl" = type { %"struct.__gnu_cxx::__aligned_buffer" }
%"struct.__gnu_cxx::__aligned_buffer" = type { %"union.std::aligned_storage<24, 8>::type" }
%"union.std::aligned_storage<24, 8>::type" = type { [24 x i8] }
%"class.grpc_core::(anonymous namespace)::ChildEndpointIterator" = type { %"class.grpc_core::EndpointAddressesIterator", %"class.std::shared_ptr.161" }
%"class.grpc_core::EndpointAddressesIterator" = type { ptr }
%class.anon.298 = type { ptr, ptr }
%"class.std::type_info" = type { ptr, ptr }
%"class.grpc_core::RefCountedPtr.210" = type { ptr }
%"struct.std::default_delete" = type { i8 }
%"class.grpc_core::LoadBalancingPolicy::ParentOwningDelegatingChannelControlHelper" = type { %"class.grpc_core::LoadBalancingPolicy::DelegatingChannelControlHelper", %"class.grpc_core::RefCountedPtr.307" }
%"class.grpc_core::LoadBalancingPolicy::DelegatingChannelControlHelper" = type { %"class.grpc_core::LoadBalancingPolicy::ChannelControlHelper" }
%"class.grpc_core::LoadBalancingPolicy::ChannelControlHelper" = type { ptr }
%"class.grpc_core::RefCountedPtr.314" = type { ptr }
%"class.grpc_core::(anonymous namespace)::XdsOverrideHostLb::SubchannelWrapper" = type <{ %"class.grpc_core::DelegatingSubchannel", ptr, %"class.std::optional.200", %"class.grpc_core::RefCountedPtr.210", %"class.std::set", %"struct.std::atomic.216", [4 x i8] }>
%"class.grpc_core::DelegatingSubchannel" = type { %"class.grpc_core::SubchannelInterface", %"class.grpc_core::RefCountedPtr.199" }
%"class.grpc_core::SubchannelInterface" = type { %"class.grpc_core::DualRefCounted" }
%"class.std::optional.200" = type { %"struct.std::_Optional_base.201" }
%"struct.std::_Optional_base.201" = type { %"struct.std::_Optional_payload.203" }
%"struct.std::_Optional_payload.203" = type { %"struct.std::_Optional_payload.base.207", [7 x i8] }
%"struct.std::_Optional_payload.base.207" = type { %"struct.std::_Optional_payload_base.base.206" }
%"struct.std::_Optional_payload_base.base.206" = type <{ %"union.std::_Optional_payload_base<std::__cxx11::basic_string<char>>::_Storage", i8 }>
%"union.std::_Optional_payload_base<std::__cxx11::basic_string<char>>::_Storage" = type { %"class.std::__cxx11::basic_string" }
%"class.std::set" = type { %"class.std::_Rb_tree.211" }
%"class.std::_Rb_tree.211" = type { %"struct.std::_Rb_tree<std::unique_ptr<grpc_core::SubchannelInterface::ConnectivityStateWatcherInterface>, std::unique_ptr<grpc_core::SubchannelInterface::ConnectivityStateWatcherInterface>, std::_Identity<std::unique_ptr<grpc_core::SubchannelInterface::ConnectivityStateWatcherInterface>>, grpc_core::(anonymous namespace)::PtrLessThan<grpc_core::SubchannelInterface::ConnectivityStateWatcherInterface>>::_Rb_tree_impl" }
%"struct.std::_Rb_tree<std::unique_ptr<grpc_core::SubchannelInterface::ConnectivityStateWatcherInterface>, std::unique_ptr<grpc_core::SubchannelInterface::ConnectivityStateWatcherInterface>, std::_Identity<std::unique_ptr<grpc_core::SubchannelInterface::ConnectivityStateWatcherInterface>>, grpc_core::(anonymous namespace)::PtrLessThan<grpc_core::SubchannelInterface::ConnectivityStateWatcherInterface>>::_Rb_tree_impl" = type { %"struct.std::_Rb_tree_key_compare.215", %"struct.std::_Rb_tree_header" }
%"struct.std::_Rb_tree_key_compare.215" = type { %"struct.grpc_core::(anonymous namespace)::PtrLessThan" }
%"struct.grpc_core::(anonymous namespace)::PtrLessThan" = type { i8 }
%"struct.std::atomic.216" = type { i32 }
%"class.std::unique_ptr.315" = type { %"struct.std::__uniq_ptr_data.316" }
%"struct.std::__uniq_ptr_data.316" = type { %"class.std::__uniq_ptr_impl.317" }
%"class.std::__uniq_ptr_impl.317" = type { %"class.std::tuple.318" }
%"class.std::tuple.318" = type { %"struct.std::_Tuple_impl.319" }
%"struct.std::_Tuple_impl.319" = type { %"struct.std::_Head_base.322" }
%"struct.std::_Head_base.322" = type { ptr }
%"class.std::unique_ptr.323" = type { %"struct.std::__uniq_ptr_data.324" }
%"struct.std::__uniq_ptr_data.324" = type { %"class.std::__uniq_ptr_impl.325" }
%"class.std::__uniq_ptr_impl.325" = type { %"class.std::tuple.326" }
%"class.std::tuple.326" = type { %"struct.std::_Tuple_impl.327" }
%"struct.std::_Tuple_impl.327" = type { %"struct.std::_Head_base.330" }
%"struct.std::_Head_base.330" = type { ptr }
%"class.std::function" = type { %"class.std::_Function_base", ptr }
%"class.std::_Function_base" = type { %"union.std::_Any_data", ptr }
%"union.std::_Any_data" = type { %"union.std::_Nocopy_types" }
%"union.std::_Nocopy_types" = type { { i64, i64 } }
%class.anon.432 = type { %"class.grpc_core::WeakRefCountedPtr" }
%"struct.std::pair.433" = type <{ %"struct.std::_Rb_tree_const_iterator.344", i8, [7 x i8] }>
%"struct.std::_Rb_tree_const_iterator.344" = type { ptr }
%"class.std::unique_ptr.331" = type { %"struct.std::__uniq_ptr_data.332" }
%"struct.std::__uniq_ptr_data.332" = type { %"class.std::__uniq_ptr_impl.333" }
%"class.std::__uniq_ptr_impl.333" = type { %"class.std::tuple.334" }
%"class.std::tuple.334" = type { %"struct.std::_Tuple_impl.335" }
%"struct.std::_Tuple_impl.335" = type { %"struct.std::_Head_base.338" }
%"struct.std::_Head_base.338" = type { ptr }
%"struct.std::_Optional_payload_base.205" = type <{ %"union.std::_Optional_payload_base<std::__cxx11::basic_string<char>>::_Storage", i8, [7 x i8] }>
%"class.grpc_core::(anonymous namespace)::XdsOverrideHostLb::SubchannelWrapper::ConnectivityStateWatcher" = type { %"class.grpc_core::SubchannelInterface::ConnectivityStateWatcherInterface", %"class.grpc_core::WeakRefCountedPtr" }
%"class.grpc_core::SubchannelInterface::ConnectivityStateWatcherInterface" = type { ptr }
%"class.std::vector.339" = type { %"struct.std::_Vector_base.340" }
%"struct.std::_Vector_base.340" = type { %"struct.std::_Vector_base<grpc_core::SubchannelInterface::ConnectivityStateWatcherInterface *, std::allocator<grpc_core::SubchannelInterface::ConnectivityStateWatcherInterface *>>::_Vector_impl" }
%"struct.std::_Vector_base<grpc_core::SubchannelInterface::ConnectivityStateWatcherInterface *, std::allocator<grpc_core::SubchannelInterface::ConnectivityStateWatcherInterface *>>::_Vector_impl" = type { %"struct.std::_Vector_base<grpc_core::SubchannelInterface::ConnectivityStateWatcherInterface *, std::allocator<grpc_core::SubchannelInterface::ConnectivityStateWatcherInterface *>>::_Vector_impl_data" }
%"struct.std::_Vector_base<grpc_core::SubchannelInterface::ConnectivityStateWatcherInterface *, std::allocator<grpc_core::SubchannelInterface::ConnectivityStateWatcherInterface *>>::_Vector_impl_data" = type { ptr, ptr, ptr }
%"class.__gnu_cxx::__normal_iterator.345" = type { ptr }
%"struct.std::_Rb_tree_iterator.348" = type { ptr }
%"struct.std::_Rb_tree_node.346" = type { %"struct.std::_Rb_tree_node_base", %"struct.__gnu_cxx::__aligned_membuf.347" }
%"struct.__gnu_cxx::__aligned_membuf.347" = type { [8 x i8] }
%"struct.std::_Identity" = type { i8 }
%"class.grpc_core::RefCountedPtr.354" = type { ptr }
%"class.grpc_core::(anonymous namespace)::XdsOverrideHostLb::Picker" = type <{ %"class.grpc_core::LoadBalancingPolicy::SubchannelPicker", %"class.grpc_core::RefCountedPtr.210", %"class.grpc_core::RefCountedPtr.149", %"class.grpc_core::XdsHealthStatusSet", [4 x i8] }>
%"class.grpc_core::LoadBalancingPolicy::SubchannelPicker" = type { %"class.grpc_core::DualRefCounted.218" }
%"struct.grpc_core::LoadBalancingPolicy::PickResult" = type { %"class.std::variant.355" }
%"class.std::variant.355" = type { %"struct.std::__detail::__variant::_Variant_base.base.378", [7 x i8] }
%"struct.std::__detail::__variant::_Variant_base.base.378" = type { %"struct.std::__detail::__variant::_Move_assign_base.base.377" }
%"struct.std::__detail::__variant::_Move_assign_base.base.377" = type { %"struct.std::__detail::__variant::_Copy_assign_base.base.376" }
%"struct.std::__detail::__variant::_Copy_assign_base.base.376" = type { %"struct.std::__detail::__variant::_Move_ctor_base.base.375" }
%"struct.std::__detail::__variant::_Move_ctor_base.base.375" = type { %"struct.std::__detail::__variant::_Copy_ctor_base.base.374" }
%"struct.std::__detail::__variant::_Copy_ctor_base.base.374" = type { %"struct.std::__detail::__variant::_Variant_storage.base.373" }
%"struct.std::__detail::__variant::_Variant_storage.base.373" = type { %"union.std::__detail::__variant::_Variadic_union.362", i8 }
%"union.std::__detail::__variant::_Variadic_union.362" = type { %"struct.std::__detail::__variant::_Uninitialized.363" }
%"struct.std::__detail::__variant::_Uninitialized.363" = type { %"struct.__gnu_cxx::__aligned_membuf.364" }
%"struct.__gnu_cxx::__aligned_membuf.364" = type { [16 x i8] }
%"struct.grpc_core::LoadBalancingPolicy::PickArgs" = type { %"class.std::basic_string_view", ptr, ptr }
%"class.grpc_core::UniqueTypeName" = type { %"class.std::basic_string_view" }
%"class.std::optional.383" = type { %"struct.std::_Optional_base.384" }
%"struct.std::_Optional_base.384" = type { %"struct.std::_Optional_payload.386" }
%"struct.std::_Optional_payload.386" = type { %"struct.std::_Optional_payload.base.390", [7 x i8] }
%"struct.std::_Optional_payload.base.390" = type { %"struct.std::_Optional_payload_base.base.389" }
%"struct.std::_Optional_payload_base.base.389" = type { %"union.std::_Optional_payload_base<grpc_core::LoadBalancingPolicy::PickResult>::_Storage", i8 }
%"union.std::_Optional_payload_base<grpc_core::LoadBalancingPolicy::PickResult>::_Storage" = type { %"struct.grpc_core::LoadBalancingPolicy::PickResult" }
%"struct.grpc_core::LoadBalancingPolicy::PickResult::Fail" = type { %"class.absl::lts_20230802::Status" }
%"struct.grpc_core::LoadBalancingPolicy::PickResult::Complete" = type { %"class.grpc_core::RefCountedPtr.199", %"class.std::unique_ptr.393" }
%"class.std::unique_ptr.393" = type { %"struct.std::__uniq_ptr_data.394" }
%"struct.std::__uniq_ptr_data.394" = type { %"class.std::__uniq_ptr_impl.395" }
%"class.std::__uniq_ptr_impl.395" = type { %"class.std::tuple.396" }
%"class.std::tuple.396" = type { %"struct.std::_Tuple_impl.397" }
%"struct.std::_Tuple_impl.397" = type { %"struct.std::_Head_base.400" }
%"struct.std::_Head_base.400" = type { ptr }
%"class.absl::lts_20230802::strings_internal::Splitter" = type <{ %"class.std::basic_string_view", %"class.absl::lts_20230802::ByChar", %"struct.absl::lts_20230802::AllowEmpty", [6 x i8] }>
%"class.absl::lts_20230802::ByChar" = type { i8 }
%"struct.absl::lts_20230802::AllowEmpty" = type { i8 }
%"class.absl::lts_20230802::strings_internal::ConvertibleToStringView" = type { %"class.std::basic_string_view" }
%"class.absl::lts_20230802::strings_internal::SplitIterator" = type <{ i64, i32, [4 x i8], %"class.std::basic_string_view", ptr, %"class.absl::lts_20230802::ByChar", %"struct.absl::lts_20230802::AllowEmpty", [6 x i8] }>
%"struct.grpc_core::LoadBalancingPolicy::PickResult::Queue" = type { i8 }
%"class.grpc_core::XdsOverrideHostAttribute" = type { %"class.grpc_core::ServiceConfigCallData::CallAttributeInterface", %"class.std::basic_string_view", %"class.grpc_core::RefCountedStringValue" }
%"class.grpc_core::ServiceConfigCallData::CallAttributeInterface" = type { ptr }
%"struct.std::__cxx11::basic_string<char>::__sv_wrapper" = type { %"class.std::basic_string_view" }
%"class.grpc_core::(anonymous namespace)::XdsOverrideHostLb::Picker::SubchannelConnectionRequester" = type { %"class.grpc_core::RefCountedPtr.217", %struct.grpc_closure }
%struct.grpc_closure = type { %union.anon.401, ptr, ptr, %union.anon.402 }
%union.anon.401 = type { ptr }
%union.anon.402 = type { i64 }
%"struct.std::_Optional_payload_base.388" = type { %"union.std::_Optional_payload_base<grpc_core::LoadBalancingPolicy::PickResult>::_Storage", i8, [7 x i8] }
%"struct.std::__detail::__variant::_Variant_storage.361" = type { %"union.std::__detail::__variant::_Variadic_union.362", i8, [7 x i8] }
%class.anon.405 = type { i8 }
%class.anon.407 = type { i8 }
%"struct.std::__detail::__variant::_Uninitialized.366" = type { %"struct.grpc_core::LoadBalancingPolicy::PickResult::Queue" }
%"struct.std::__detail::__variant::_Uninitialized.368" = type { %"struct.__gnu_cxx::__aligned_membuf.369" }
%"struct.__gnu_cxx::__aligned_membuf.369" = type { [8 x i8] }
%"struct.grpc_core::LoadBalancingPolicy::PickResult::Drop" = type { %"class.absl::lts_20230802::Status" }
%"struct.std::__detail::__variant::_Uninitialized.371" = type { %"struct.__gnu_cxx::__aligned_membuf.372" }
%"struct.__gnu_cxx::__aligned_membuf.372" = type { [8 x i8] }
%class.anon.415 = type { ptr }
%class.anon.418 = type { ptr }
%class.anon.419 = type { i8 }
%"struct.std::integral_constant.421" = type { i8 }
%"struct.std::integral_constant.422" = type { i8 }
%"struct.std::integral_constant.423" = type { i8 }
%"struct.std::integral_constant.425" = type { i8 }
%"struct.std::__detail::__variant::__variant_cookie" = type { i8 }
%"struct.std::integral_constant.427" = type { i8 }
%"struct.std::pair.436" = type <{ %"struct.std::_Rb_tree_iterator.348", i8, [7 x i8] }>
%"struct.std::_Rb_tree<std::unique_ptr<grpc_core::SubchannelInterface::ConnectivityStateWatcherInterface>, std::unique_ptr<grpc_core::SubchannelInterface::ConnectivityStateWatcherInterface>, std::_Identity<std::unique_ptr<grpc_core::SubchannelInterface::ConnectivityStateWatcherInterface>>, grpc_core::(anonymous namespace)::PtrLessThan<grpc_core::SubchannelInterface::ConnectivityStateWatcherInterface>>::_Alloc_node" = type { ptr }
%"struct.std::less.439" = type { i8 }
%"class.grpc_core::ChildPolicyHandler" = type { %"class.grpc_core::LoadBalancingPolicy", ptr, i8, %"class.grpc_core::RefCountedPtr", %"class.std::unique_ptr.126", %"class.std::unique_ptr.126" }
%"class.grpc_core::ValidationErrors" = type { %"class.std::map.73", %"class.std::vector.78" }
%"class.std::map.73" = type { %"class.std::_Rb_tree.74" }
%"class.std::_Rb_tree.74" = type { %"struct.std::_Rb_tree<std::__cxx11::basic_string<char>, std::pair<const std::__cxx11::basic_string<char>, std::vector<std::__cxx11::basic_string<char>>>, std::_Select1st<std::pair<const std::__cxx11::basic_string<char>, std::vector<std::__cxx11::basic_string<char>>>>, std::less<std::__cxx11::basic_string<char>>>::_Rb_tree_impl" }
%"struct.std::_Rb_tree<std::__cxx11::basic_string<char>, std::pair<const std::__cxx11::basic_string<char>, std::vector<std::__cxx11::basic_string<char>>>, std::_Select1st<std::pair<const std::__cxx11::basic_string<char>, std::vector<std::__cxx11::basic_string<char>>>>, std::less<std::__cxx11::basic_string<char>>>::_Rb_tree_impl" = type { %"struct.std::_Rb_tree_key_compare.70", %"struct.std::_Rb_tree_header" }
%"struct.std::_Rb_tree_node.453" = type { %"struct.std::_Rb_tree_node_base", %"struct.__gnu_cxx::__aligned_membuf.454" }
%"struct.__gnu_cxx::__aligned_membuf.454" = type { [56 x i8] }
%"struct.std::pair.455" = type { %"class.std::__cxx11::basic_string", %"class.std::vector.78" }
%"struct.std::_Select1st.463" = type { i8 }
%"struct.std::_Rb_tree_node.461" = type { %"struct.std::_Rb_tree_node_base", %"struct.__gnu_cxx::__aligned_membuf.462" }
%"struct.__gnu_cxx::__aligned_membuf.462" = type { [88 x i8] }

$_ZN9grpc_core17CoreConfiguration7Builder18lb_policy_registryEv = comdat any

$_ZNSt10unique_ptrIN9grpc_core26LoadBalancingPolicyFactoryESt14default_deleteIS1_EED2Ev = comdat any

$_ZN9grpc_core11json_detail16JsonObjectLoaderINS_23XdsOverrideHostLbConfigELm0EEC2Ev = comdat any

$_ZNK9grpc_core11json_detail16JsonObjectLoaderINS_23XdsOverrideHostLbConfigELm0EE6FinishEv = comdat any

$_ZNSt17basic_string_viewIcSt11char_traitsIcEEC2EPKc = comdat any

$_ZN9grpc_core16ValidationErrors11ScopedFieldC2EPS0_St17basic_string_viewIcSt11char_traitsIcEE = comdat any

$_ZNK9grpc_core12experimental4Json6objectB5cxx11Ev = comdat any

$_ZNKSt3mapINSt7__cxx1112basic_stringIcSt11char_traitsIcESaIcEEEN9grpc_core12experimental4JsonESt4lessIS5_ESaISt4pairIKS5_S8_EEE4findERSC_ = comdat any

$_ZNSt7__cxx1112basic_stringIcSt11char_traitsIcESaIcEEC2IS3_EEPKcRKS3_ = comdat any

$_ZSteqRKSt23_Rb_tree_const_iteratorISt4pairIKNSt7__cxx1112basic_stringIcSt11char_traitsIcESaIcEEEN9grpc_core12experimental4JsonEEESE_ = comdat any

$_ZNKSt3mapINSt7__cxx1112basic_stringIcSt11char_traitsIcESaIcEEEN9grpc_core12experimental4JsonESt4lessIS5_ESaISt4pairIKS5_S8_EEE3endEv = comdat any

$_ZN9grpc_core17CoreConfiguration3GetEv = comdat any

$_ZNK9grpc_core17CoreConfiguration18lb_policy_registryEv = comdat any

$_ZNKSt23_Rb_tree_const_iteratorISt4pairIKNSt7__cxx1112basic_stringIcSt11char_traitsIcESaIcEEEN9grpc_core12experimental4JsonEEEptEv = comdat any

$_ZNK4absl12lts_202308028StatusOrIN9grpc_core13RefCountedPtrINS2_19LoadBalancingPolicy6ConfigEEEE2okEv = comdat any

$_ZNKR4absl12lts_202308028StatusOrIN9grpc_core13RefCountedPtrINS2_19LoadBalancingPolicy6ConfigEEEE6statusEv = comdat any

$_ZNK4absl12lts_202308026Status7messageEv = comdat any

$_ZNR4absl12lts_202308028StatusOrIN9grpc_core13RefCountedPtrINS2_19LoadBalancingPolicy6ConfigEEEEdeEv = comdat any

$_ZN9grpc_core13RefCountedPtrINS_19LoadBalancingPolicy6ConfigEEaSEOS3_ = comdat any

$_ZN4absl12lts_202308028StatusOrIN9grpc_core13RefCountedPtrINS2_19LoadBalancingPolicy6ConfigEEEED2Ev = comdat any

$_ZN9grpc_core16ValidationErrors11ScopedFieldD2Ev = comdat any

$_ZN9grpc_core19LoadJsonObjectFieldISt6vectorINSt7__cxx1112basic_stringIcSt11char_traitsIcESaIcEEESaIS7_EEEESt8optionalIT_ERKSt3mapIS7_NS_12experimental4JsonESt4lessIS7_ESaISt4pairIKS7_SF_EEERKNS_8JsonArgsESt17basic_string_viewIcS5_EPNS_16ValidationErrorsEb = comdat any

$_ZNKSt8optionalISt6vectorINSt7__cxx1112basic_stringIcSt11char_traitsIcESaIcEEESaIS6_EEE9has_valueEv = comdat any

$_ZNSt8optionalISt6vectorINSt7__cxx1112basic_stringIcSt11char_traitsIcESaIcEEESaIS6_EEEptEv = comdat any

$_ZNKSt6vectorINSt7__cxx1112basic_stringIcSt11char_traitsIcESaIcEEESaIS5_EE4sizeEv = comdat any

$_ZNRSt8optionalISt6vectorINSt7__cxx1112basic_stringIcSt11char_traitsIcESaIcEEESaIS6_EEEdeEv = comdat any

$_ZNSt6vectorINSt7__cxx1112basic_stringIcSt11char_traitsIcESaIcEEESaIS5_EEixEm = comdat any

$_ZNKSt8optionalIN9grpc_core15XdsHealthStatusEE9has_valueEv = comdat any

$_ZN4absl12lts_202308028AlphaNumC2EPKc = comdat any

$_ZN4absl12lts_202308028AlphaNumC2Em = comdat any

$_ZN9grpc_core18XdsHealthStatusSet3AddENS_15XdsHealthStatusE = comdat any

$_ZNRSt8optionalIN9grpc_core15XdsHealthStatusEEdeEv = comdat any

$_ZN9grpc_core15XdsHealthStatusC2ENS0_12HealthStatusE = comdat any

$_ZN4absl12lts_202308024SpanIKN9grpc_core15XdsHealthStatusEEC2IS4_S4_EESt16initializer_listIS3_E = comdat any

$_ZN9grpc_core18XdsHealthStatusSetC2EN4absl12lts_202308024SpanIKNS_15XdsHealthStatusEEE = comdat any

$_ZNSt8optionalISt6vectorINSt7__cxx1112basic_stringIcSt11char_traitsIcESaIcEEESaIS6_EEED2Ev = comdat any

$_ZN9grpc_core19NoDestructSingletonINS_14promise_detail10UnwakeableEE6value_E = comdat any

$_ZN9grpc_core10NoDestructINS_14promise_detail10UnwakeableEEC2IJEEEDpOT_ = comdat any

$_ZN9grpc_core19NoDestructSingletonINS_11json_detail10AutoLoaderINS_23XdsOverrideHostLbConfigEEEE6value_E = comdat any

$_ZN9grpc_core10NoDestructINS_11json_detail10AutoLoaderINS_23XdsOverrideHostLbConfigEEEEC2IJEEEDpOT_ = comdat any

$_ZN9grpc_core19NoDestructSingletonINS_11json_detail10AutoLoaderINS_13RefCountedPtrINS_23XdsOverrideHostLbConfigEEEEEE6value_E = comdat any

$_ZN9grpc_core10NoDestructINS_11json_detail10AutoLoaderINS_13RefCountedPtrINS_23XdsOverrideHostLbConfigEEEEEEC2IJEEEDpOT_ = comdat any

$_ZN9grpc_core19NoDestructSingletonINS_11json_detail10AutoLoaderINSt7__cxx1112basic_stringIcSt11char_traitsIcESaIcEEEEEE6value_E = comdat any

$_ZN9grpc_core10NoDestructINS_11json_detail10AutoLoaderINSt7__cxx1112basic_stringIcSt11char_traitsIcESaIcEEEEEEC2IJEEEDpOT_ = comdat any

$_ZN9grpc_core19NoDestructSingletonINS_11json_detail10AutoLoaderISt6vectorINSt7__cxx1112basic_stringIcSt11char_traitsIcESaIcEEESaIS9_EEEEE6value_E = comdat any

$_ZN9grpc_core10NoDestructINS_11json_detail10AutoLoaderISt6vectorINSt7__cxx1112basic_stringIcSt11char_traitsIcESaIcEEESaIS9_EEEEEC2IJEEEDpOT_ = comdat any

$_ZNSt11char_traitsIcE6lengthEPKc = comdat any

$__clang_call_terminate = comdat any

$_ZSt3getISt3mapINSt7__cxx1112basic_stringIcSt11char_traitsIcESaIcEEEN9grpc_core12experimental4JsonESt4lessIS6_ESaISt4pairIKS6_S9_EEEJSt9monostatebNS9_11NumberValueES6_SG_St6vectorIS9_SaIS9_EEEERKT_RKSt7variantIJDpT0_EE = comdat any

$_ZSt3getILm4EJSt9monostatebN9grpc_core12experimental4Json11NumberValueENSt7__cxx1112basic_stringIcSt11char_traitsIcESaIcEEESt3mapISA_S3_St4lessISA_ESaISt4pairIKSA_S3_EEESt6vectorIS3_SaIS3_EEEERKNSt19variant_alternativeIXT_ESt7variantIJDpT0_EEE4typeERKSQ_ = comdat any

$_ZNKSt7variantIJSt9monostatebN9grpc_core12experimental4Json11NumberValueENSt7__cxx1112basic_stringIcSt11char_traitsIcESaIcEEESt3mapISA_S3_St4lessISA_ESaISt4pairIKSA_S3_EEESt6vectorIS3_SaIS3_EEEE5indexEv = comdat any

$_ZSt26__throw_bad_variant_accessb = comdat any

$_ZNKSt7variantIJSt9monostatebN9grpc_core12experimental4Json11NumberValueENSt7__cxx1112basic_stringIcSt11char_traitsIcESaIcEEESt3mapISA_S3_St4lessISA_ESaISt4pairIKSA_S3_EEESt6vectorIS3_SaIS3_EEEE22valueless_by_exceptionEv = comdat any

$_ZNSt8__detail9__variant5__getILm4ERKSt7variantIJSt9monostatebN9grpc_core12experimental4Json11NumberValueENSt7__cxx1112basic_stringIcSt11char_traitsIcESaIcEEESt3mapISD_S6_St4lessISD_ESaISt4pairIKSD_S6_EEESt6vectorIS6_SaIS6_EEEEEEDcOT0_ = comdat any

$_ZSt26__throw_bad_variant_accessPKc = comdat any

$_ZNSt18bad_variant_accessC2EPKc = comdat any

$_ZNSt18bad_variant_accessD2Ev = comdat any

$_ZNSt9exceptionC2Ev = comdat any

$_ZNSt18bad_variant_accessD0Ev = comdat any

$_ZNKSt18bad_variant_access4whatEv = comdat any

$_ZNKSt8__detail9__variant16_Variant_storageILb0EJSt9monostatebN9grpc_core12experimental4Json11NumberValueENSt7__cxx1112basic_stringIcSt11char_traitsIcESaIcEEESt3mapISC_S5_St4lessISC_ESaISt4pairIKSC_S5_EEESt6vectorIS5_SaIS5_EEEE8_M_validEv = comdat any

$_ZNSt8__detail9__variant7__get_nILm4ERKNS0_15_Variadic_unionIJSt9monostatebN9grpc_core12experimental4Json11NumberValueENSt7__cxx1112basic_stringIcSt11char_traitsIcESaIcEEESt3mapISD_S6_St4lessISD_ESaISt4pairIKSD_S6_EEESt6vectorIS6_SaIS6_EEEEEEEDcOT0_ = comdat any

$_ZNSt8__detail9__variant7__get_nILm1ERKNS0_15_Variadic_unionIJNSt7__cxx1112basic_stringIcSt11char_traitsIcESaIcEEESt3mapIS8_N9grpc_core12experimental4JsonESt4lessIS8_ESaISt4pairIKS8_SC_EEESt6vectorISC_SaISC_EEEEEEEDcOT0_ = comdat any

$_ZNKRSt8__detail9__variant14_UninitializedISt3mapINSt7__cxx1112basic_stringIcSt11char_traitsIcESaIcEEEN9grpc_core12experimental4JsonESt4lessIS8_ESaISt4pairIKS8_SB_EEELb0EE6_M_getEv = comdat any

$_ZNK9__gnu_cxx16__aligned_membufISt3mapINSt7__cxx1112basic_stringIcSt11char_traitsIcESaIcEEEN9grpc_core12experimental4JsonESt4lessIS7_ESaISt4pairIKS7_SA_EEEE6_M_ptrEv = comdat any

$_ZNK9__gnu_cxx16__aligned_membufISt3mapINSt7__cxx1112basic_stringIcSt11char_traitsIcESaIcEEEN9grpc_core12experimental4JsonESt4lessIS7_ESaISt4pairIKS7_SA_EEEE7_M_addrEv = comdat any

$_ZNKSt6atomicIPN9grpc_core17CoreConfigurationEE4loadESt12memory_order = comdat any

$_ZStanSt12memory_orderSt23__memory_order_modifier = comdat any

$_ZN4absl12lts_202308026Status9IsInlinedEm = comdat any

$_ZN4absl12lts_202308026Status12RepToPointerEm = comdat any

$_ZN4absl12lts_202308026Status11IsMovedFromEm = comdat any

$_ZNSt17basic_string_viewIcSt11char_traitsIcEEC2Ev = comdat any

$_ZN4absl12lts_2023080217internal_statusor12StatusOrDataIN9grpc_core13RefCountedPtrINS3_19LoadBalancingPolicy6ConfigEEEED2Ev = comdat any

$_ZNK4absl12lts_2023080217internal_statusor12StatusOrDataIN9grpc_core13RefCountedPtrINS3_19LoadBalancingPolicy6ConfigEEEE2okEv = comdat any

$_ZN4absl12lts_202308026StatusD2Ev = comdat any

$_ZN9grpc_core13RefCountedPtrINS_19LoadBalancingPolicy6ConfigEED2Ev = comdat any

$_ZNK4absl12lts_202308026Status2okEv = comdat any

$_ZN4absl12lts_202308026Status16CodeToInlinedRepENS0_10StatusCodeE = comdat any

$_ZN4absl12lts_202308026Status5UnrefEm = comdat any

$_ZNK9grpc_core10RefCountedINS_19LoadBalancingPolicy6ConfigENS_19PolymorphicRefCountENS_11UnrefDeleteEE5UnrefEv = comdat any

$_ZN9grpc_core8RefCount5UnrefEv = comdat any

$_ZNK9grpc_core11UnrefDeleteclIKNS_19LoadBalancingPolicy6ConfigEEEvPT_ = comdat any

$_ZNKSt19_Optional_base_implISt6vectorINSt7__cxx1112basic_stringIcSt11char_traitsIcESaIcEEESaIS6_EESt14_Optional_baseIS8_Lb0ELb0EEE13_M_is_engagedEv = comdat any

$_ZNSt19_Optional_base_implISt6vectorINSt7__cxx1112basic_stringIcSt11char_traitsIcESaIcEEESaIS6_EESt14_Optional_baseIS8_Lb0ELb0EEE6_M_getEv = comdat any

$_ZNSt22_Optional_payload_baseISt6vectorINSt7__cxx1112basic_stringIcSt11char_traitsIcESaIcEEESaIS6_EEE6_M_getEv = comdat any

$_ZNKSt19_Optional_base_implIN9grpc_core15XdsHealthStatusESt14_Optional_baseIS1_Lb1ELb1EEE13_M_is_engagedEv = comdat any

$_ZN4absl12lts_2023080218NullSafeStringViewEPKc = comdat any

$_ZNSt17basic_string_viewIcSt11char_traitsIcEEC2EPKcm = comdat any

$_ZNK9grpc_core15XdsHealthStatus6statusEv = comdat any

$_ZNSt19_Optional_base_implIN9grpc_core15XdsHealthStatusESt14_Optional_baseIS1_Lb1ELb1EEE6_M_getEv = comdat any

$_ZNSt22_Optional_payload_baseIN9grpc_core15XdsHealthStatusEE6_M_getEv = comdat any

$_ZNK4absl12lts_202308024SpanIKN9grpc_core15XdsHealthStatusEE5beginEv = comdat any

$_ZNK4absl12lts_202308024SpanIKN9grpc_core15XdsHealthStatusEE3endEv = comdat any

$_ZNK4absl12lts_202308024SpanIKN9grpc_core15XdsHealthStatusEE4dataEv = comdat any

$_ZNK4absl12lts_202308024SpanIKN9grpc_core15XdsHealthStatusEE4sizeEv = comdat any

$_ZNSt14_Optional_baseISt6vectorINSt7__cxx1112basic_stringIcSt11char_traitsIcESaIcEEESaIS6_EELb0ELb0EED2Ev = comdat any

$_ZNSt17_Optional_payloadISt6vectorINSt7__cxx1112basic_stringIcSt11char_traitsIcESaIcEEESaIS6_EELb0ELb0ELb0EED2Ev = comdat any

$_ZNSt22_Optional_payload_baseISt6vectorINSt7__cxx1112basic_stringIcSt11char_traitsIcESaIcEEESaIS6_EEE8_M_resetEv = comdat any

$_ZNSt17_Optional_payloadISt6vectorINSt7__cxx1112basic_stringIcSt11char_traitsIcESaIcEEESaIS6_EELb1ELb0ELb0EED2Ev = comdat any

$_ZNSt22_Optional_payload_baseISt6vectorINSt7__cxx1112basic_stringIcSt11char_traitsIcESaIcEEESaIS6_EEE10_M_destroyEv = comdat any

$_ZNSt6vectorINSt7__cxx1112basic_stringIcSt11char_traitsIcESaIcEEESaIS5_EED2Ev = comdat any

$_ZSt8_DestroyIPNSt7__cxx1112basic_stringIcSt11char_traitsIcESaIcEEES5_EvT_S7_RSaIT0_E = comdat any

$_ZNSt12_Vector_baseINSt7__cxx1112basic_stringIcSt11char_traitsIcESaIcEEESaIS5_EE19_M_get_Tp_allocatorEv = comdat any

$_ZNSt12_Vector_baseINSt7__cxx1112basic_stringIcSt11char_traitsIcESaIcEEESaIS5_EED2Ev = comdat any

$_ZSt8_DestroyIPNSt7__cxx1112basic_stringIcSt11char_traitsIcESaIcEEEEvT_S7_ = comdat any

$_ZNSt12_Destroy_auxILb0EE9__destroyIPNSt7__cxx1112basic_stringIcSt11char_traitsIcESaIcEEEEEvT_S9_ = comdat any

$_ZSt8_DestroyINSt7__cxx1112basic_stringIcSt11char_traitsIcESaIcEEEEvPT_ = comdat any

$_ZNSt12_Vector_baseINSt7__cxx1112basic_stringIcSt11char_traitsIcESaIcEEESaIS5_EE13_M_deallocateEPS5_m = comdat any

$_ZNSt12_Vector_baseINSt7__cxx1112basic_stringIcSt11char_traitsIcESaIcEEESaIS5_EE12_Vector_implD2Ev = comdat any

$_ZNSt16allocator_traitsISaINSt7__cxx1112basic_stringIcSt11char_traitsIcESaIcEEEEE10deallocateERS6_PS5_m = comdat any

$_ZNSt15__new_allocatorINSt7__cxx1112basic_stringIcSt11char_traitsIcESaIcEEEE10deallocateEPS5_m = comdat any

$_ZNSaINSt7__cxx1112basic_stringIcSt11char_traitsIcESaIcEEEED2Ev = comdat any

$_ZNSt15__new_allocatorINSt7__cxx1112basic_stringIcSt11char_traitsIcESaIcEEEED2Ev = comdat any

$_ZNSt22_Optional_payload_baseISt6vectorINSt7__cxx1112basic_stringIcSt11char_traitsIcESaIcEEESaIS6_EEED2Ev = comdat any

$_ZNSt22_Optional_payload_baseISt6vectorINSt7__cxx1112basic_stringIcSt11char_traitsIcESaIcEEESaIS6_EEE8_StorageIS8_Lb0EED2Ev = comdat any

$_ZNSt7__cxx1112basic_stringIcSt11char_traitsIcESaIcEE12_M_constructIPKcEEvT_S8_St20forward_iterator_tag = comdat any

$_ZNSt7__cxx1112basic_stringIcSt11char_traitsIcESaIcEE12_Alloc_hiderD2Ev = comdat any

$_ZSt8distanceIPKcENSt15iterator_traitsIT_E15difference_typeES3_S3_ = comdat any

$_ZZNSt7__cxx1112basic_stringIcSt11char_traitsIcESaIcEE12_M_constructIPKcEEvT_S8_St20forward_iterator_tagEN6_GuardC2EPS4_ = comdat any

$_ZZNSt7__cxx1112basic_stringIcSt11char_traitsIcESaIcEE12_M_constructIPKcEEvT_S8_St20forward_iterator_tagEN6_GuardD2Ev = comdat any

$_ZSt10__distanceIPKcENSt15iterator_traitsIT_E15difference_typeES3_S3_St26random_access_iterator_tag = comdat any

$_ZSt19__iterator_categoryIPKcENSt15iterator_traitsIT_E17iterator_categoryERKS3_ = comdat any

$_ZN9grpc_core9ConstructINS_14promise_detail10UnwakeableEJEEEvPT_DpOT0_ = comdat any

$_ZN9grpc_core14promise_detail10UnwakeableC2Ev = comdat any

$_ZN9grpc_core8WakeableC2Ev = comdat any

$_ZN9grpc_core13RefCountedPtrINS_19LoadBalancingPolicy6ConfigEE5resetEPS2_ = comdat any

$_ZSt8exchangeIPN9grpc_core19LoadBalancingPolicy6ConfigEDnET_RS4_OT0_ = comdat any

$_ZSt8exchangeIPN9grpc_core19LoadBalancingPolicy6ConfigERS3_ET_RS5_OT0_ = comdat any

$_ZSt10__exchangeIPN9grpc_core19LoadBalancingPolicy6ConfigERS3_ET_RS5_OT0_ = comdat any

$_ZSt10__exchangeIPN9grpc_core19LoadBalancingPolicy6ConfigEDnET_RS4_OT0_ = comdat any

$_ZN9grpc_core9ConstructINS_11json_detail10AutoLoaderINS_23XdsOverrideHostLbConfigEEEJEEEvPT_DpOT0_ = comdat any

$_ZN9grpc_core11json_detail10AutoLoaderINS_23XdsOverrideHostLbConfigEEC2Ev = comdat any

$_ZN9grpc_core11json_detail15LoaderInterfaceC2Ev = comdat any

$_ZNK9grpc_core11json_detail10AutoLoaderINS_23XdsOverrideHostLbConfigEE8LoadIntoERKNS_12experimental4JsonERKNS_8JsonArgsEPvPNS_16ValidationErrorsE = comdat any

$_ZN9grpc_core9ConstructINS_11json_detail10AutoLoaderINS_13RefCountedPtrINS_23XdsOverrideHostLbConfigEEEEEJEEEvPT_DpOT0_ = comdat any

$_ZN9grpc_core11json_detail10AutoLoaderINS_13RefCountedPtrINS_23XdsOverrideHostLbConfigEEEEC2Ev = comdat any

$_ZN9grpc_core11json_detail11LoadWrappedC2Ev = comdat any

$_ZNK9grpc_core11json_detail10AutoLoaderINS_13RefCountedPtrINS_23XdsOverrideHostLbConfigEEEE7EmplaceEPv = comdat any

$_ZNK9grpc_core11json_detail10AutoLoaderINS_13RefCountedPtrINS_23XdsOverrideHostLbConfigEEEE5ResetEPv = comdat any

$_ZNK9grpc_core11json_detail10AutoLoaderINS_13RefCountedPtrINS_23XdsOverrideHostLbConfigEEEE13ElementLoaderEv = comdat any

$_ZN9grpc_core14MakeRefCountedINS_23XdsOverrideHostLbConfigEJEEENS_13RefCountedPtrIT_EEDpOT0_ = comdat any

$_ZN9grpc_core13RefCountedPtrINS_23XdsOverrideHostLbConfigEEaSEOS2_ = comdat any

$_ZN9grpc_core13RefCountedPtrINS_23XdsOverrideHostLbConfigEED2Ev = comdat any

$_ZNK9grpc_core13RefCountedPtrINS_23XdsOverrideHostLbConfigEE3getEv = comdat any

$_ZN9grpc_core23XdsOverrideHostLbConfigC2Ev = comdat any

$_ZN9grpc_core13RefCountedPtrINS_23XdsOverrideHostLbConfigEEC2IS1_EEPT_ = comdat any

$_ZN9grpc_core19LoadBalancingPolicy6ConfigC2Ev = comdat any

$_ZN9grpc_core13RefCountedPtrINS_19LoadBalancingPolicy6ConfigEEC2Ev = comdat any

$_ZN9grpc_core18XdsHealthStatusSetC2Ev = comdat any

$_ZN9grpc_core23XdsOverrideHostLbConfigD2Ev = comdat any

$_ZN9grpc_core23XdsOverrideHostLbConfigD0Ev = comdat any

$_ZNK9grpc_core23XdsOverrideHostLbConfig4nameEv = comdat any

$_ZN9grpc_core10RefCountedINS_19LoadBalancingPolicy6ConfigENS_19PolymorphicRefCountENS_11UnrefDeleteEEC2EPKcl = comdat any

$_ZN9grpc_core19LoadBalancingPolicy6ConfigD2Ev = comdat any

$_ZN9grpc_core19LoadBalancingPolicy6ConfigD0Ev = comdat any

$_ZN9grpc_core19PolymorphicRefCountC2Ev = comdat any

$_ZN9grpc_core8RefCountC2ElPKc = comdat any

$_ZN9grpc_core10RefCountedINS_19LoadBalancingPolicy6ConfigENS_19PolymorphicRefCountENS_11UnrefDeleteEED2Ev = comdat any

$_ZN9grpc_core10RefCountedINS_19LoadBalancingPolicy6ConfigENS_19PolymorphicRefCountENS_11UnrefDeleteEED0Ev = comdat any

$_ZN9grpc_core19PolymorphicRefCountD2Ev = comdat any

$_ZN9grpc_core19PolymorphicRefCountD0Ev = comdat any

$_ZNSt6atomicIlEC2El = comdat any

$_ZNSt13__atomic_baseIlEC2El = comdat any

$_ZN9grpc_core23XdsOverrideHostLbConfig4NameEv = comdat any

$_ZN9grpc_core13RefCountedPtrINS_23XdsOverrideHostLbConfigEE5resetEPS1_ = comdat any

$_ZSt8exchangeIPN9grpc_core23XdsOverrideHostLbConfigEDnET_RS3_OT0_ = comdat any

$_ZSt8exchangeIPN9grpc_core23XdsOverrideHostLbConfigERS2_ET_RS4_OT0_ = comdat any

$_ZSt10__exchangeIPN9grpc_core23XdsOverrideHostLbConfigERS2_ET_RS4_OT0_ = comdat any

$_ZSt10__exchangeIPN9grpc_core23XdsOverrideHostLbConfigEDnET_RS3_OT0_ = comdat any

$_ZN9grpc_core11json_detail13LoaderForTypeINS_23XdsOverrideHostLbConfigEEEPKNS0_15LoaderInterfaceEv = comdat any

$_ZN9grpc_core19NoDestructSingletonINS_11json_detail10AutoLoaderINS_23XdsOverrideHostLbConfigEEEE3GetEv = comdat any

$_ZN9grpc_core10NoDestructINS_11json_detail10AutoLoaderINS_23XdsOverrideHostLbConfigEEEEdeEv = comdat any

$_ZN9grpc_core10NoDestructINS_11json_detail10AutoLoaderINS_23XdsOverrideHostLbConfigEEEE3getEv = comdat any

$_ZN9grpc_core26LoadBalancingPolicyFactoryC2Ev = comdat any

$_ZN9grpc_core26LoadBalancingPolicyFactoryD2Ev = comdat any

$_ZN9grpc_core26LoadBalancingPolicyFactoryD0Ev = comdat any

$_ZN9grpc_core19LoadBalancingPolicy4ArgsC2EOS1_ = comdat any

$_ZN9grpc_core19LoadBalancingPolicy4ArgsD2Ev = comdat any

$_ZNSt10shared_ptrIN9grpc_core14WorkSerializerEEC2EOS2_ = comdat any

$_ZNSt10unique_ptrIN9grpc_core19LoadBalancingPolicy20ChannelControlHelperESt14default_deleteIS2_EEC2EOS5_ = comdat any

$_ZNSt14__shared_countILN9__gnu_cxx12_Lock_policyE2EEC2Ev = comdat any

$_ZNSt14__shared_countILN9__gnu_cxx12_Lock_policyE2EE7_M_swapERS2_ = comdat any

$_ZNSt15__uniq_ptr_dataIN9grpc_core19LoadBalancingPolicy20ChannelControlHelperESt14default_deleteIS2_ELb1ELb1EEC2EOS5_ = comdat any

$_ZNSt15__uniq_ptr_implIN9grpc_core19LoadBalancingPolicy20ChannelControlHelperESt14default_deleteIS2_EEC2EOS5_ = comdat any

$_ZNSt5tupleIJPN9grpc_core19LoadBalancingPolicy20ChannelControlHelperESt14default_deleteIS2_EEEC2EOS6_ = comdat any

$_ZNSt15__uniq_ptr_implIN9grpc_core19LoadBalancingPolicy20ChannelControlHelperESt14default_deleteIS2_EE6_M_ptrEv = comdat any

$_ZNSt11_Tuple_implILm0EJPN9grpc_core19LoadBalancingPolicy20ChannelControlHelperESt14default_deleteIS2_EEEC2EOS6_ = comdat any

$_ZNSt11_Tuple_implILm1EJSt14default_deleteIN9grpc_core19LoadBalancingPolicy20ChannelControlHelperEEEEC2EOS5_ = comdat any

$_ZSt3getILm0EJPN9grpc_core19LoadBalancingPolicy20ChannelControlHelperESt14default_deleteIS2_EEERNSt13tuple_elementIXT_ESt5tupleIJDpT0_EEE4typeERSA_ = comdat any

$_ZSt12__get_helperILm0EPN9grpc_core19LoadBalancingPolicy20ChannelControlHelperEJSt14default_deleteIS2_EEERT0_RSt11_Tuple_implIXT_EJS6_DpT1_EE = comdat any

$_ZNSt11_Tuple_implILm0EJPN9grpc_core19LoadBalancingPolicy20ChannelControlHelperESt14default_deleteIS2_EEE7_M_headERS6_ = comdat any

$_ZNSt10_Head_baseILm0EPN9grpc_core19LoadBalancingPolicy20ChannelControlHelperELb0EE7_M_headERS4_ = comdat any

$_ZN9grpc_core13RefCountedPtrINS_23XdsOverrideHostLbConfigEEC2Ev = comdat any

$_ZNSt10unique_ptrIN9grpc_core19LoadBalancingPolicyENS0_16OrphanableDeleteEEC2IS2_vEEv = comdat any

$_ZN4absl12lts_202308026StatusC2Ev = comdat any

$_ZN9grpc_core13RefCountedPtrINS_19LoadBalancingPolicy16SubchannelPickerEEC2Ev = comdat any

$_ZN4absl12lts_202308025MutexC2Ev = comdat any

$_ZN9grpc_core9TraceFlag7enabledEv = comdat any

$_ZN9grpc_core13RefCountedPtrINS_19LoadBalancingPolicy16SubchannelPickerEED2Ev = comdat any

$_ZNSt10unique_ptrIN9grpc_core19LoadBalancingPolicyENS0_16OrphanableDeleteEED2Ev = comdat any

$_ZNSt15__uniq_ptr_dataIN9grpc_core19LoadBalancingPolicyENS0_16OrphanableDeleteELb1ELb1EEC2Ev = comdat any

$_ZNSt15__uniq_ptr_implIN9grpc_core19LoadBalancingPolicyENS0_16OrphanableDeleteEEC2Ev = comdat any

$_ZNSt5tupleIJPN9grpc_core19LoadBalancingPolicyENS0_16OrphanableDeleteEEEC2ILb1ETnNSt9enable_ifIXclsr17_TupleConstraintsIXT_ES2_S3_EE37__is_implicitly_default_constructibleEEbE4typeELb1EEEv = comdat any

$_ZNSt11_Tuple_implILm0EJPN9grpc_core19LoadBalancingPolicyENS0_16OrphanableDeleteEEEC2Ev = comdat any

$_ZNSt11_Tuple_implILm1EJN9grpc_core16OrphanableDeleteEEEC2Ev = comdat any

$_ZNSt10_Head_baseILm0EPN9grpc_core19LoadBalancingPolicyELb0EEC2Ev = comdat any

$_ZNSt10_Head_baseILm1EN9grpc_core16OrphanableDeleteELb1EEC2Ev = comdat any

$_ZNSt20_Rb_tree_key_compareISt4lessIvEEC2Ev = comdat any

$_ZNSt15_Rb_tree_headerC2Ev = comdat any

$_ZNSt15_Rb_tree_header8_M_resetEv = comdat any

$_ZNKSt6atomicIbE4loadESt12memory_order = comdat any

$_ZN9grpc_core21RefCountedStringValueD2Ev = comdat any

$_ZN9grpc_core13RefCountedPtrINS_16RefCountedStringEED2Ev = comdat any

$_ZN9grpc_core16RefCountedString5UnrefEv = comdat any

$_ZN9grpc_core14DualRefCountedINS_19SubchannelInterfaceEE9WeakUnrefEv = comdat any

$_ZN9grpc_core14DualRefCountedINS_19SubchannelInterfaceEE11MakeRefPairEjj = comdat any

$_ZN9grpc_core14DualRefCountedINS_19SubchannelInterfaceEE5UnrefEv = comdat any

$_ZN9grpc_core14DualRefCountedINS_19SubchannelInterfaceEE13GetStrongRefsEm = comdat any

$_ZN9grpc_core14DualRefCountedINS_19LoadBalancingPolicy16SubchannelPickerEE5UnrefEv = comdat any

$_ZN9grpc_core14DualRefCountedINS_19LoadBalancingPolicy16SubchannelPickerEE11MakeRefPairEjj = comdat any

$_ZN9grpc_core14DualRefCountedINS_19LoadBalancingPolicy16SubchannelPickerEE13GetStrongRefsEm = comdat any

$_ZN9grpc_core14DualRefCountedINS_19LoadBalancingPolicy16SubchannelPickerEE9WeakUnrefEv = comdat any

$_ZNSt15__uniq_ptr_implIN9grpc_core19LoadBalancingPolicyENS0_16OrphanableDeleteEE6_M_ptrEv = comdat any

$_ZNSt10unique_ptrIN9grpc_core19LoadBalancingPolicyENS0_16OrphanableDeleteEE11get_deleterEv = comdat any

$_ZN9grpc_core16OrphanableDeleteclINS_19LoadBalancingPolicyEEEvPT_ = comdat any

$_ZSt3getILm0EJPN9grpc_core19LoadBalancingPolicyENS0_16OrphanableDeleteEEERNSt13tuple_elementIXT_ESt5tupleIJDpT0_EEE4typeERS8_ = comdat any

$_ZSt12__get_helperILm0EPN9grpc_core19LoadBalancingPolicyEJNS0_16OrphanableDeleteEEERT0_RSt11_Tuple_implIXT_EJS4_DpT1_EE = comdat any

$_ZNSt11_Tuple_implILm0EJPN9grpc_core19LoadBalancingPolicyENS0_16OrphanableDeleteEEE7_M_headERS4_ = comdat any

$_ZNSt10_Head_baseILm0EPN9grpc_core19LoadBalancingPolicyELb0EE7_M_headERS3_ = comdat any

$_ZNSt15__uniq_ptr_implIN9grpc_core19LoadBalancingPolicyENS0_16OrphanableDeleteEE10_M_deleterEv = comdat any

$_ZSt3getILm1EJPN9grpc_core19LoadBalancingPolicyENS0_16OrphanableDeleteEEERNSt13tuple_elementIXT_ESt5tupleIJDpT0_EEE4typeERS8_ = comdat any

$_ZSt12__get_helperILm1EN9grpc_core16OrphanableDeleteEJEERT0_RSt11_Tuple_implIXT_EJS2_DpT1_EE = comdat any

$_ZNSt11_Tuple_implILm1EJN9grpc_core16OrphanableDeleteEEE7_M_headERS2_ = comdat any

$_ZNSt10_Head_baseILm1EN9grpc_core16OrphanableDeleteELb1EE7_M_headERS2_ = comdat any

$_ZN9grpc_core13RefCountedPtrINS_23XdsOverrideHostLbConfigEEC2EOS2_ = comdat any

$_ZN9grpc_core13RefCountedPtrINS_23XdsOverrideHostLbConfigEEaSINS_19LoadBalancingPolicy6ConfigEEERS2_ONS0_IT_EE = comdat any

$_ZNK9grpc_core13RefCountedPtrINS_23XdsOverrideHostLbConfigEEeqEDn = comdat any

$_ZNK4absl12lts_202308028StatusOrISt10shared_ptrIN9grpc_core25EndpointAddressesIteratorEEE2okEv = comdat any

$_ZNR4absl12lts_202308028StatusOrISt10shared_ptrIN9grpc_core25EndpointAddressesIteratorEEEdeEv = comdat any

$_ZNKSt19__shared_ptr_accessIN9grpc_core25EndpointAddressesIteratorELN9__gnu_cxx12_Lock_policyE2ELb0ELb0EEdeEv = comdat any

$_ZNKR4absl12lts_202308028StatusOrISt10shared_ptrIN9grpc_core25EndpointAddressesIteratorEEE6statusEv = comdat any

$_ZNK4absl12lts_202308026Status8ToStringB5cxx11ENS0_18StatusToStringModeE = comdat any

$_ZSteqIN9grpc_core19LoadBalancingPolicyENS0_16OrphanableDeleteEEbRKSt10unique_ptrIT_T0_EDn = comdat any

$_ZNSt10unique_ptrIN9grpc_core19LoadBalancingPolicyENS0_16OrphanableDeleteEEaSEOS3_ = comdat any

$_ZN9grpc_core19LoadBalancingPolicy10UpdateArgsC2Ev = comdat any

$_ZN4absl12lts_202308028StatusOrISt10shared_ptrIN9grpc_core25EndpointAddressesIteratorEEEaSEOS6_ = comdat any

$_ZNK9grpc_core13RefCountedPtrINS_23XdsOverrideHostLbConfigEEptEv = comdat any

$_ZNK9grpc_core23XdsOverrideHostLbConfig12child_configEv = comdat any

$_ZNKSt10unique_ptrIN9grpc_core19LoadBalancingPolicyENS0_16OrphanableDeleteEE3getEv = comdat any

$_ZNKSt10unique_ptrIN9grpc_core19LoadBalancingPolicyENS0_16OrphanableDeleteEEptEv = comdat any

$_ZN9grpc_core19LoadBalancingPolicy10UpdateArgsC2EOS1_ = comdat any

$_ZN9grpc_core19LoadBalancingPolicy10UpdateArgsD2Ev = comdat any

$_ZN9grpc_core13RefCountedPtrINS_23XdsOverrideHostLbConfigEE5resetINS_19LoadBalancingPolicy6ConfigEEEvPT_ = comdat any

$_ZN4absl12lts_202308029MutexLockC2EPNS0_5MutexE = comdat any

$_ZSt16forward_as_tupleIJRKNSt7__cxx1112basic_stringIcSt11char_traitsIcESaIcEEEEESt5tupleIJDpOT_EESB_ = comdat any

$_ZSt16forward_as_tupleIJRN9grpc_core15XdsHealthStatusEEESt5tupleIJDpOT_EES6_ = comdat any

$_ZNK9grpc_core21RefCountedStringValue5c_strEv = comdat any

$_ZN9grpc_core21RefCountedStringValueC2EOS0_ = comdat any

$_ZN4absl12lts_202308029MutexLockD2Ev = comdat any

$_ZNSt20_Rb_tree_key_compareISt4lessIKNSt7__cxx1112basic_stringIcSt11char_traitsIcESaIcEEEEEC2Ev = comdat any

$_ZNK9grpc_core23XdsOverrideHostLbConfig24override_host_status_setEv = comdat any

$_ZNK9grpc_core18XdsHealthStatusSet8ContainsENS_15XdsHealthStatusE = comdat any

$_ZNSt6vectorINSt7__cxx1112basic_stringIcSt11char_traitsIcESaIcEEESaIS5_EEC2Ev = comdat any

$_ZNSt6vectorINSt7__cxx1112basic_stringIcSt11char_traitsIcESaIcEEESaIS5_EE7reserveEm = comdat any

$_ZNK9grpc_core17EndpointAddresses9addressesEv = comdat any

$_ZNKSt6vectorI21grpc_resolved_addressSaIS0_EE4sizeEv = comdat any

$_ZNKSt6vectorI21grpc_resolved_addressSaIS0_EE5beginEv = comdat any

$_ZNKSt6vectorI21grpc_resolved_addressSaIS0_EE3endEv = comdat any

$_ZN9__gnu_cxxneIPK21grpc_resolved_addressSt6vectorIS1_SaIS1_EEEEbRKNS_17__normal_iteratorIT_T0_EESC_ = comdat any

$_ZNK9__gnu_cxx17__normal_iteratorIPK21grpc_resolved_addressSt6vectorIS1_SaIS1_EEEdeEv = comdat any

$_ZNK4absl12lts_202308028StatusOrINSt7__cxx1112basic_stringIcSt11char_traitsIcESaIcEEEE2okEv = comdat any

$_ZN4absl12lts_202308028StatusOrINSt7__cxx1112basic_stringIcSt11char_traitsIcESaIcEEEEptEv = comdat any

$_ZNSt6vectorINSt7__cxx1112basic_stringIcSt11char_traitsIcESaIcEEESaIS5_EE9push_backEOS5_ = comdat any

$_ZNO4absl12lts_202308028StatusOrINSt7__cxx1112basic_stringIcSt11char_traitsIcESaIcEEEEdeEv = comdat any

$_ZN4absl12lts_202308028StatusOrINSt7__cxx1112basic_stringIcSt11char_traitsIcESaIcEEEED2Ev = comdat any

$_ZN9__gnu_cxx17__normal_iteratorIPK21grpc_resolved_addressSt6vectorIS1_SaIS1_EEEppEv = comdat any

$_ZN4absl12lts_202308024SpanIKNSt7__cxx1112basic_stringIcSt11char_traitsIcESaIcEEEEC2ISt6vectorIS7_SaIS7_EEvSD_iEERKT_ = comdat any

$_ZN4absl12lts_202308027StrJoinINS0_4SpanIKNSt7__cxx1112basic_stringIcSt11char_traitsIcESaIcEEEEEEES8_RKT_St17basic_string_viewIcS6_E = comdat any

$_ZNK4absl12lts_202308024SpanIKNSt7__cxx1112basic_stringIcSt11char_traitsIcESaIcEEEE7subspanEmm = comdat any

$_ZN4absl12lts_202308026StrCatIJEEENSt7__cxx1112basic_stringIcSt11char_traitsIcESaIcEEERKNS0_8AlphaNumESA_SA_SA_SA_DpRKT_ = comdat any

$_ZN4absl12lts_202308028AlphaNumC2ISaIcEEERKNSt7__cxx1112basic_stringIcSt11char_traitsIcET_EE = comdat any

$_ZN9grpc_core21RefCountedStringValueC2ESt17basic_string_viewIcSt11char_traitsIcEE = comdat any

$_ZSt16forward_as_tupleIJRNSt7__cxx1112basic_stringIcSt11char_traitsIcESaIcEEEEESt5tupleIJDpOT_EESA_ = comdat any

$_ZSt16forward_as_tupleIJRN9grpc_core15XdsHealthStatusENS0_21RefCountedStringValueEEESt5tupleIJDpOT_EES7_ = comdat any

$_ZNK9grpc_core17EndpointAddresses4argsEv = comdat any

$_ZNOSt8optionalIiE8value_orIN9grpc_core15XdsHealthStatus12HealthStatusEEEiOT_ = comdat any

$_ZNKSt19_Optional_base_implIiSt14_Optional_baseIiLb1ELb1EEE13_M_is_engagedEv = comdat any

$_ZNSt19_Optional_base_implIiSt14_Optional_baseIiLb1ELb1EEE6_M_getEv = comdat any

$_ZNSt22_Optional_payload_baseIiE6_M_getEv = comdat any

$_ZNSt12_Vector_baseINSt7__cxx1112basic_stringIcSt11char_traitsIcESaIcEEESaIS5_EEC2Ev = comdat any

$_ZNSt12_Vector_baseINSt7__cxx1112basic_stringIcSt11char_traitsIcESaIcEEESaIS5_EE12_Vector_implC2Ev = comdat any

$_ZNSaINSt7__cxx1112basic_stringIcSt11char_traitsIcESaIcEEEEC2Ev = comdat any

$_ZNSt12_Vector_baseINSt7__cxx1112basic_stringIcSt11char_traitsIcESaIcEEESaIS5_EE17_Vector_impl_dataC2Ev = comdat any

$_ZNSt15__new_allocatorINSt7__cxx1112basic_stringIcSt11char_traitsIcESaIcEEEEC2Ev = comdat any

$_ZNKSt6vectorINSt7__cxx1112basic_stringIcSt11char_traitsIcESaIcEEESaIS5_EE8max_sizeEv = comdat any

$_ZNKSt6vectorINSt7__cxx1112basic_stringIcSt11char_traitsIcESaIcEEESaIS5_EE8capacityEv = comdat any

$_ZNSt12_Vector_baseINSt7__cxx1112basic_stringIcSt11char_traitsIcESaIcEEESaIS5_EE11_M_allocateEm = comdat any

$_ZNSt6vectorINSt7__cxx1112basic_stringIcSt11char_traitsIcESaIcEEESaIS5_EE11_S_relocateEPS5_S8_S8_RS6_ = comdat any

$_ZNSt6vectorINSt7__cxx1112basic_stringIcSt11char_traitsIcESaIcEEESaIS5_EE11_S_max_sizeERKS6_ = comdat any

$_ZNKSt12_Vector_baseINSt7__cxx1112basic_stringIcSt11char_traitsIcESaIcEEESaIS5_EE19_M_get_Tp_allocatorEv = comdat any

$_ZNSt16allocator_traitsISaINSt7__cxx1112basic_stringIcSt11char_traitsIcESaIcEEEEE8max_sizeERKS6_ = comdat any

$_ZSt3minImERKT_S2_S2_ = comdat any

$_ZNKSt15__new_allocatorINSt7__cxx1112basic_stringIcSt11char_traitsIcESaIcEEEE8max_sizeEv = comdat any

$_ZNKSt15__new_allocatorINSt7__cxx1112basic_stringIcSt11char_traitsIcESaIcEEEE11_M_max_sizeEv = comdat any

$_ZNSt16allocator_traitsISaINSt7__cxx1112basic_stringIcSt11char_traitsIcESaIcEEEEE8allocateERS6_m = comdat any

$_ZNSt15__new_allocatorINSt7__cxx1112basic_stringIcSt11char_traitsIcESaIcEEEE8allocateEmPKv = comdat any

$_ZSt12__relocate_aIPNSt7__cxx1112basic_stringIcSt11char_traitsIcESaIcEEES6_SaIS5_EET0_T_S9_S8_RT1_ = comdat any

$_ZSt14__relocate_a_1IPNSt7__cxx1112basic_stringIcSt11char_traitsIcESaIcEEES6_SaIS5_EET0_T_S9_S8_RT1_ = comdat any

$_ZSt12__niter_baseIPNSt7__cxx1112basic_stringIcSt11char_traitsIcESaIcEEEET_S7_ = comdat any

$_ZSt19__relocate_object_aINSt7__cxx1112basic_stringIcSt11char_traitsIcESaIcEEES5_SaIS5_EEvPT_PT0_RT1_ = comdat any

$_ZNSt16allocator_traitsISaINSt7__cxx1112basic_stringIcSt11char_traitsIcESaIcEEEEE9constructIS5_JS5_EEEvRS6_PT_DpOT0_ = comdat any

$_ZNSt16allocator_traitsISaINSt7__cxx1112basic_stringIcSt11char_traitsIcESaIcEEEEE7destroyIS5_EEvRS6_PT_ = comdat any

$_ZNSt15__new_allocatorINSt7__cxx1112basic_stringIcSt11char_traitsIcESaIcEEEE9constructIS5_JS5_EEEvPT_DpOT0_ = comdat any

$_ZNSt15__new_allocatorINSt7__cxx1112basic_stringIcSt11char_traitsIcESaIcEEEE7destroyIS5_EEvPT_ = comdat any

$_ZN9__gnu_cxx17__normal_iteratorIPK21grpc_resolved_addressSt6vectorIS1_SaIS1_EEEC2ERKS3_ = comdat any

$_ZNK9__gnu_cxx17__normal_iteratorIPK21grpc_resolved_addressSt6vectorIS1_SaIS1_EEE4baseEv = comdat any

$_ZNK4absl12lts_2023080217internal_statusor12StatusOrDataINSt7__cxx1112basic_stringIcSt11char_traitsIcESaIcEEEE8EnsureOkEv = comdat any

$_ZNK4absl12lts_2023080217internal_statusor12StatusOrDataINSt7__cxx1112basic_stringIcSt11char_traitsIcESaIcEEEE2okEv = comdat any

$_ZNSt6vectorINSt7__cxx1112basic_stringIcSt11char_traitsIcESaIcEEESaIS5_EE12emplace_backIJS5_EEERS5_DpOT_ = comdat any

$_ZNSt6vectorINSt7__cxx1112basic_stringIcSt11char_traitsIcESaIcEEESaIS5_EE17_M_realloc_insertIJS5_EEEvN9__gnu_cxx17__normal_iteratorIPS5_S7_EEDpOT_ = comdat any

$_ZNSt6vectorINSt7__cxx1112basic_stringIcSt11char_traitsIcESaIcEEESaIS5_EE3endEv = comdat any

$_ZNSt6vectorINSt7__cxx1112basic_stringIcSt11char_traitsIcESaIcEEESaIS5_EE4backEv = comdat any

$_ZNKSt6vectorINSt7__cxx1112basic_stringIcSt11char_traitsIcESaIcEEESaIS5_EE12_M_check_lenEmPKc = comdat any

$_ZN9__gnu_cxxmiIPNSt7__cxx1112basic_stringIcSt11char_traitsIcESaIcEEESt6vectorIS6_SaIS6_EEEENS_17__normal_iteratorIT_T0_E15difference_typeERKSE_SH_ = comdat any

$_ZNSt6vectorINSt7__cxx1112basic_stringIcSt11char_traitsIcESaIcEEESaIS5_EE5beginEv = comdat any

$_ZNK9__gnu_cxx17__normal_iteratorIPNSt7__cxx1112basic_stringIcSt11char_traitsIcESaIcEEESt6vectorIS6_SaIS6_EEE4baseEv = comdat any

$_ZSt3maxImERKT_S2_S2_ = comdat any

$_ZN9__gnu_cxx17__normal_iteratorIPNSt7__cxx1112basic_stringIcSt11char_traitsIcESaIcEEESt6vectorIS6_SaIS6_EEEC2ERKS7_ = comdat any

$_ZNK9__gnu_cxx17__normal_iteratorIPNSt7__cxx1112basic_stringIcSt11char_traitsIcESaIcEEESt6vectorIS6_SaIS6_EEEmiEl = comdat any

$_ZNK9__gnu_cxx17__normal_iteratorIPNSt7__cxx1112basic_stringIcSt11char_traitsIcESaIcEEESt6vectorIS6_SaIS6_EEEdeEv = comdat any

$_ZN4absl12lts_2023080217internal_statusor12StatusOrDataINSt7__cxx1112basic_stringIcSt11char_traitsIcESaIcEEEED2Ev = comdat any

$_ZN4absl12lts_2023080213span_internal7GetDataIKSt6vectorINSt7__cxx1112basic_stringIcSt11char_traitsIcESaIcEEESaIS9_EEEEDTcl11GetDataImplfp_Li0EEERT_ = comdat any

$_ZN4absl12lts_2023080213span_internal11GetDataImplIKSt6vectorINSt7__cxx1112basic_stringIcSt11char_traitsIcESaIcEEESaIS9_EEEEDTcldtfp_4dataEERT_c = comdat any

$_ZNKSt6vectorINSt7__cxx1112basic_stringIcSt11char_traitsIcESaIcEEESaIS5_EE4dataEv = comdat any

$_ZNKSt6vectorINSt7__cxx1112basic_stringIcSt11char_traitsIcESaIcEEESaIS5_EE11_M_data_ptrIS5_EEPT_SA_ = comdat any

$_ZN4absl12lts_2023080216strings_internal9JoinRangeINS0_4SpanIKNSt7__cxx1112basic_stringIcSt11char_traitsIcESaIcEEEEEEES9_RKT_St17basic_string_viewIcS7_E = comdat any

$_ZN4absl12lts_2023080216strings_internal9JoinRangeIPKNSt7__cxx1112basic_stringIcSt11char_traitsIcESaIcEEEEES8_T_SB_St17basic_string_viewIcS6_E = comdat any

$_ZSt5beginIN4absl12lts_202308024SpanIKNSt7__cxx1112basic_stringIcSt11char_traitsIcESaIcEEEEEEDTcldtfp_5beginEERKT_ = comdat any

$_ZSt3endIN4absl12lts_202308024SpanIKNSt7__cxx1112basic_stringIcSt11char_traitsIcESaIcEEEEEEDTcldtfp_3endEERKT_ = comdat any

$_ZN4absl12lts_2023080216strings_internal13JoinAlgorithmIPKNSt7__cxx1112basic_stringIcSt11char_traitsIcESaIcEEEvEES8_T_SB_St17basic_string_viewIcS6_ENS1_11NoFormatterE = comdat any

$_ZNKSt17basic_string_viewIcSt11char_traitsIcEE4sizeEv = comdat any

$_ZN4absl12lts_2023080216strings_internal28STLStringResizeUninitializedINSt7__cxx1112basic_stringIcSt11char_traitsIcESaIcEEEvEEvPT_m = comdat any

$_ZNK9__gnu_cxx17__normal_iteratorIPcNSt7__cxx1112basic_stringIcSt11char_traitsIcESaIcEEEEdeEv = comdat any

$_ZNKSt17basic_string_viewIcSt11char_traitsIcEE4dataEv = comdat any

$_ZN4absl12lts_2023080216strings_internal25ResizeUninitializedTraitsINSt7__cxx1112basic_stringIcSt11char_traitsIcESaIcEEEvE6ResizeEPS8_m = comdat any

$_ZNK4absl12lts_202308024SpanIKNSt7__cxx1112basic_stringIcSt11char_traitsIcESaIcEEEE5beginEv = comdat any

$_ZNK4absl12lts_202308024SpanIKNSt7__cxx1112basic_stringIcSt11char_traitsIcESaIcEEEE4dataEv = comdat any

$_ZNK4absl12lts_202308024SpanIKNSt7__cxx1112basic_stringIcSt11char_traitsIcESaIcEEEE3endEv = comdat any

$_ZNK4absl12lts_202308024SpanIKNSt7__cxx1112basic_stringIcSt11char_traitsIcESaIcEEEE4sizeEv = comdat any

$_ZN4absl12lts_202308024SpanIKNSt7__cxx1112basic_stringIcSt11char_traitsIcESaIcEEEEC2EPS8_m = comdat any

$_ZN4absl12lts_202308024SpanIKNSt7__cxx1112basic_stringIcSt11char_traitsIcESaIcEEEEC2Ev = comdat any

$_ZNK4absl12lts_202308028AlphaNum5PieceEv = comdat any

$_ZNSt5tupleIJRNSt7__cxx1112basic_stringIcSt11char_traitsIcESaIcEEEEEC2EOS7_ = comdat any

$_ZNSt5tupleIJRN9grpc_core15XdsHealthStatusEONS0_21RefCountedStringValueEEEC2EOS5_ = comdat any

$_ZNSt11_Tuple_implILm0EJRNSt7__cxx1112basic_stringIcSt11char_traitsIcESaIcEEEEEC2EOS7_ = comdat any

$_ZNSt11_Tuple_implILm0EJRN9grpc_core15XdsHealthStatusEONS0_21RefCountedStringValueEEEC2EOS5_ = comdat any

$_ZNSt11_Tuple_implILm1EJON9grpc_core21RefCountedStringValueEEEC2EOS3_ = comdat any

$_ZSt3getILm0EJRNSt7__cxx1112basic_stringIcSt11char_traitsIcESaIcEEEEERNSt13tuple_elementIXT_ESt5tupleIJDpT0_EEE4typeERSB_ = comdat any

$_ZSt3getILm0EJRN9grpc_core15XdsHealthStatusEONS0_21RefCountedStringValueEEERNSt13tuple_elementIXT_ESt5tupleIJDpT0_EEE4typeERS9_ = comdat any

$_ZSt3getILm1EJRN9grpc_core15XdsHealthStatusEONS0_21RefCountedStringValueEEERNSt13tuple_elementIXT_ESt5tupleIJDpT0_EEE4typeERS9_ = comdat any

$_ZSt12__get_helperILm0ERNSt7__cxx1112basic_stringIcSt11char_traitsIcESaIcEEEJEERT0_RSt11_Tuple_implIXT_EJS7_DpT1_EE = comdat any

$_ZNSt11_Tuple_implILm0EJRNSt7__cxx1112basic_stringIcSt11char_traitsIcESaIcEEEEE7_M_headERS7_ = comdat any

$_ZNSt10_Head_baseILm0ERNSt7__cxx1112basic_stringIcSt11char_traitsIcESaIcEEELb0EE7_M_headERS7_ = comdat any

$_ZSt12__get_helperILm0ERN9grpc_core15XdsHealthStatusEJONS0_21RefCountedStringValueEEERT0_RSt11_Tuple_implIXT_EJS5_DpT1_EE = comdat any

$_ZNSt11_Tuple_implILm0EJRN9grpc_core15XdsHealthStatusEONS0_21RefCountedStringValueEEE7_M_headERS5_ = comdat any

$_ZNSt10_Head_baseILm0ERN9grpc_core15XdsHealthStatusELb0EE7_M_headERS3_ = comdat any

$_ZSt12__get_helperILm1EON9grpc_core21RefCountedStringValueEJEERT0_RSt11_Tuple_implIXT_EJS3_DpT1_EE = comdat any

$_ZNSt11_Tuple_implILm1EJON9grpc_core21RefCountedStringValueEEE7_M_headERS3_ = comdat any

$_ZNSt10_Head_baseILm1EON9grpc_core21RefCountedStringValueELb0EE7_M_headERS3_ = comdat any

$_ZNKSt4lessIKNSt7__cxx1112basic_stringIcSt11char_traitsIcESaIcEEEEclERS6_S8_ = comdat any

$_ZNSt4pairIPSt18_Rb_tree_node_baseS1_EC2IS1_S1_TnNSt9enable_ifIXaaclsr5_PCCPE18_ConstructiblePairIT_T0_EEclsr5_PCCPE26_ImplicitlyConvertiblePairIS5_S6_EEEbE4typeELb1EEERKS1_SA_ = comdat any

$_ZStltIcSt11char_traitsIcESaIcEEbRKNSt7__cxx1112basic_stringIT_T0_T1_EESA_ = comdat any

$_ZNSt5tupleIJRNSt7__cxx1112basic_stringIcSt11char_traitsIcESaIcEEEEEC2ILb1ETnNSt9enable_ifIXclsr4_TCCIXT_EEE29__is_implicitly_constructibleIS6_EEEbE4typeELb1EEES6_ = comdat any

$_ZNSt11_Tuple_implILm0EJRNSt7__cxx1112basic_stringIcSt11char_traitsIcESaIcEEEEEC2ES6_ = comdat any

$_ZNSt10_Head_baseILm0ERNSt7__cxx1112basic_stringIcSt11char_traitsIcESaIcEEELb0EEC2ES6_ = comdat any

$_ZNSt5tupleIJRN9grpc_core15XdsHealthStatusEONS0_21RefCountedStringValueEEEC2IS2_S3_TnNSt9enable_ifIXclsr4_TCCIXntcl14__is_alloc_argIT_EEEEE29__is_implicitly_constructibleIS8_T0_EEEbE4typeELb1EEEOS8_OS9_ = comdat any

$_ZNSt11_Tuple_implILm0EJRN9grpc_core15XdsHealthStatusEONS0_21RefCountedStringValueEEEC2IS2_JS3_EvEEOT_DpOT0_ = comdat any

$_ZNSt11_Tuple_implILm1EJON9grpc_core21RefCountedStringValueEEEC2IS1_EEOT_ = comdat any

$_ZNSt10_Head_baseILm0ERN9grpc_core15XdsHealthStatusELb0EEC2ES2_ = comdat any

$_ZNSt10_Head_baseILm1EON9grpc_core21RefCountedStringValueELb0EEC2IS1_EEOT_ = comdat any

$_ZNKSt4lessIvEclIRKNSt7__cxx1112basic_stringIcSt11char_traitsIcESaIcEEES9_EEDTltclsr3stdE7forwardIT_Efp_Eclsr3stdE7forwardIT0_Efp0_EEOSA_OSB_ = comdat any

$_ZNSt4lessIvE6_S_cmpIRKNSt7__cxx1112basic_stringIcSt11char_traitsIcESaIcEEES9_EEDcOT_OT0_St17integral_constantIbLb0EE = comdat any

$_ZNSt5tupleIJRKNSt7__cxx1112basic_stringIcSt11char_traitsIcESaIcEEEEEC2EOS8_ = comdat any

$_ZNSt5tupleIJRN9grpc_core15XdsHealthStatusEEEC2EOS3_ = comdat any

$_ZNSt11_Tuple_implILm0EJRKNSt7__cxx1112basic_stringIcSt11char_traitsIcESaIcEEEEEC2EOS8_ = comdat any

$_ZNSt11_Tuple_implILm0EJRN9grpc_core15XdsHealthStatusEEEC2EOS3_ = comdat any

$_ZSt3getILm0EJRKNSt7__cxx1112basic_stringIcSt11char_traitsIcESaIcEEEEERNSt13tuple_elementIXT_ESt5tupleIJDpT0_EEE4typeERSC_ = comdat any

$_ZSt3getILm0EJRN9grpc_core15XdsHealthStatusEEERNSt13tuple_elementIXT_ESt5tupleIJDpT0_EEE4typeERS7_ = comdat any

$_ZSt12__get_helperILm0ERKNSt7__cxx1112basic_stringIcSt11char_traitsIcESaIcEEEJEERT0_RSt11_Tuple_implIXT_EJS8_DpT1_EE = comdat any

$_ZNSt11_Tuple_implILm0EJRKNSt7__cxx1112basic_stringIcSt11char_traitsIcESaIcEEEEE7_M_headERS8_ = comdat any

$_ZNSt10_Head_baseILm0ERKNSt7__cxx1112basic_stringIcSt11char_traitsIcESaIcEEELb0EE7_M_headERS8_ = comdat any

$_ZSt12__get_helperILm0ERN9grpc_core15XdsHealthStatusEJEERT0_RSt11_Tuple_implIXT_EJS3_DpT1_EE = comdat any

$_ZNSt11_Tuple_implILm0EJRN9grpc_core15XdsHealthStatusEEE7_M_headERS3_ = comdat any

$_ZN9grpc_core21RefCountedStringValueC2Ev = comdat any

$_ZN9grpc_core13RefCountedPtrINS_16RefCountedStringEEC2Ev = comdat any

$_ZNSt5tupleIJRKNSt7__cxx1112basic_stringIcSt11char_traitsIcESaIcEEEEEC2ILb1ETnNSt9enable_ifIXclsr4_TCCIXT_EEE29__is_implicitly_constructibleIS7_EEEbE4typeELb1EEES7_ = comdat any

$_ZNSt11_Tuple_implILm0EJRKNSt7__cxx1112basic_stringIcSt11char_traitsIcESaIcEEEEEC2ES7_ = comdat any

$_ZNSt10_Head_baseILm0ERKNSt7__cxx1112basic_stringIcSt11char_traitsIcESaIcEEELb0EEC2ES7_ = comdat any

$_ZNSt5tupleIJRN9grpc_core15XdsHealthStatusEEEC2ILb1ETnNSt9enable_ifIXclsr4_TCCIXT_EEE29__is_implicitly_constructibleIS2_EEEbE4typeELb1EEES2_ = comdat any

$_ZNSt11_Tuple_implILm0EJRN9grpc_core15XdsHealthStatusEEEC2ES2_ = comdat any

$_ZN9grpc_core14DualRefCountedINS_19SubchannelInterfaceEE3RefEv = comdat any

$_ZN9grpc_core13RefCountedPtrINS_19SubchannelInterfaceEED2Ev = comdat any

$_ZN9grpc_core14DualRefCountedINS_19SubchannelInterfaceEE7WeakRefEv = comdat any

$_ZN9grpc_core17WeakRefCountedPtrINS_19SubchannelInterfaceEED2Ev = comdat any

$_ZN9grpc_core14DualRefCountedINS_19SubchannelInterfaceEE21IncrementWeakRefCountEv = comdat any

$_ZN9grpc_core14DualRefCountedINS_19SubchannelInterfaceEE17IncrementRefCountEv = comdat any

$_ZN9grpc_core13RefCountedPtrINS_19SubchannelInterfaceEEC2IS1_EEPT_ = comdat any

$_ZSt8exchangeIPN9grpc_core19SubchannelInterfaceEDnET_RS3_OT0_ = comdat any

$_ZSt10__exchangeIPN9grpc_core19SubchannelInterfaceEDnET_RS3_OT0_ = comdat any

$_ZN9grpc_core17WeakRefCountedPtrINS_19SubchannelInterfaceEEC2IS1_EEPT_ = comdat any

$_ZNK9grpc_core13RefCountedPtrINS_16RefCountedStringEEeqEDn = comdat any

$_ZNK9grpc_core13RefCountedPtrINS_16RefCountedStringEEptEv = comdat any

$_ZN9grpc_core16RefCountedString5c_strEv = comdat any

$_ZN9grpc_core21RefCountedStringValueaSEOS0_ = comdat any

$_ZN9grpc_core13RefCountedPtrINS_16RefCountedStringEEaSEOS2_ = comdat any

$_ZN9grpc_core13RefCountedPtrINS_16RefCountedStringEE5resetEPS1_ = comdat any

$_ZSt8exchangeIPN9grpc_core16RefCountedStringEDnET_RS3_OT0_ = comdat any

$_ZSt8exchangeIPN9grpc_core16RefCountedStringERS2_ET_RS4_OT0_ = comdat any

$_ZSt10__exchangeIPN9grpc_core16RefCountedStringERS2_ET_RS4_OT0_ = comdat any

$_ZSt10__exchangeIPN9grpc_core16RefCountedStringEDnET_RS3_OT0_ = comdat any

$_ZN9grpc_core13RefCountedPtrINS_16RefCountedStringEEC2EOS2_ = comdat any

$_ZNK4absl12lts_2023080217internal_statusor12StatusOrDataISt10shared_ptrIN9grpc_core25EndpointAddressesIteratorEEE8EnsureOkEv = comdat any

$_ZNK4absl12lts_2023080217internal_statusor12StatusOrDataISt10shared_ptrIN9grpc_core25EndpointAddressesIteratorEEE2okEv = comdat any

$_ZNKSt19__shared_ptr_accessIN9grpc_core25EndpointAddressesIteratorELN9__gnu_cxx12_Lock_policyE2ELb0ELb0EE6_M_getEv = comdat any

$_ZNKSt12__shared_ptrIN9grpc_core25EndpointAddressesIteratorELN9__gnu_cxx12_Lock_policyE2EE3getEv = comdat any

$_ZNSt16_Sp_counted_baseILN9__gnu_cxx12_Lock_policyE2EEC2Ev = comdat any

$_ZNSt16_Sp_counted_baseILN9__gnu_cxx12_Lock_policyE2EED2Ev = comdat any

$_ZNSt16_Sp_counted_baseILN9__gnu_cxx12_Lock_policyE2EED0Ev = comdat any

$_ZNSt16_Sp_counted_baseILN9__gnu_cxx12_Lock_policyE2EE10_M_destroyEv = comdat any

$_ZNSt14_Sp_ebo_helperILi0ESaIvELb1EEC2ERKS0_ = comdat any

$_ZNSt10shared_ptrIN9grpc_core25EndpointAddressesIteratorEEC2EOS2_ = comdat any

$_ZNSt10shared_ptrIN9grpc_core25EndpointAddressesIteratorEED2Ev = comdat any

$_ZN9grpc_core25EndpointAddressesIteratorC2Ev = comdat any

$_ZN9grpc_core25EndpointAddressesIteratorD2Ev = comdat any

$_ZN9grpc_core25EndpointAddressesIteratorD0Ev = comdat any

$_ZNKSt19__shared_ptr_accessIN9grpc_core25EndpointAddressesIteratorELN9__gnu_cxx12_Lock_policyE2ELb0ELb0EEptEv = comdat any

$_ZNK4absl12lts_2023080211FunctionRefIFvRKN9grpc_core17EndpointAddressesEEEclES5_ = comdat any

$_ZNSt14__shared_countILN9__gnu_cxx12_Lock_policyE2EED2Ev = comdat any

$_ZNSt16_Sp_counted_baseILN9__gnu_cxx12_Lock_policyE2EE10_M_releaseEv = comdat any

$_ZNSt16_Sp_counted_baseILN9__gnu_cxx12_Lock_policyE2EE24_M_release_last_use_coldEv = comdat any

$_ZNSt16_Sp_counted_baseILN9__gnu_cxx12_Lock_policyE2EE19_M_release_last_useEv = comdat any

$_ZNSt14_Sp_ebo_helperILi0ESaIvELb1EE6_S_getERS1_ = comdat any

$_ZNSt19_Sp_make_shared_tag5_S_tiEv = comdat any

$_ZNKSt9type_infoeqERKS_ = comdat any

$_ZNKSt9type_info4nameEv = comdat any

$_ZN4absl12lts_202308028OkStatusEv = comdat any

$_ZN4absl12lts_202308026StatusaSEOS1_ = comdat any

$_ZNSt12__shared_ptrIN9grpc_core25EndpointAddressesIteratorELN9__gnu_cxx12_Lock_policyE2EE4swapERS4_ = comdat any

$_ZNSt12__shared_ptrIN9grpc_core25EndpointAddressesIteratorELN9__gnu_cxx12_Lock_policyE2EED2Ev = comdat any

$_ZSt4swapIPN9grpc_core25EndpointAddressesIteratorEENSt9enable_ifIXsr6__and_ISt6__not_ISt15__is_tuple_likeIT_EESt21is_move_constructibleIS6_ESt18is_move_assignableIS6_EEE5valueEvE4typeERS6_SF_ = comdat any

$_ZN4absl12lts_202308026Status12MovedFromRepEv = comdat any

$_ZNKSt10unique_ptrIN9grpc_core19LoadBalancingPolicyENS0_16OrphanableDeleteEEcvbEv = comdat any

$_ZN9grpc_core19LoadBalancingPolicy4ArgsC2Ev = comdat any

$_ZNK9grpc_core19LoadBalancingPolicy15work_serializerEv = comdat any

$_ZNSt10shared_ptrIN9grpc_core14WorkSerializerEEaSEOS2_ = comdat any

$_ZNSt10shared_ptrIN9grpc_core14WorkSerializerEED2Ev = comdat any

$_ZN9grpc_core20InternallyRefCountedINS_19LoadBalancingPolicyENS_11UnrefDeleteEE3RefERKNS_13DebugLocationEPKc = comdat any

$_ZN9grpc_core13DebugLocationC2EPKci = comdat any

$_ZN9grpc_core13RefCountedPtrINS_19LoadBalancingPolicyEED2Ev = comdat any

$_ZN9grpc_core14MakeOrphanableINS_18ChildPolicyHandlerEJNS_19LoadBalancingPolicy4ArgsEPNS_9TraceFlagEEEESt10unique_ptrIT_NS_16OrphanableDeleteEEDpOT0_ = comdat any

$_ZNSt10unique_ptrIN9grpc_core19LoadBalancingPolicyENS0_16OrphanableDeleteEEC2INS0_18ChildPolicyHandlerES2_vEEOS_IT_T0_E = comdat any

$_ZNSt10unique_ptrIN9grpc_core18ChildPolicyHandlerENS0_16OrphanableDeleteEED2Ev = comdat any

$_ZNK9grpc_core19LoadBalancingPolicy18interested_partiesEv = comdat any

$_ZNSt10shared_ptrIN9grpc_core14WorkSerializerEEC2Ev = comdat any

$_ZNSt10unique_ptrIN9grpc_core19LoadBalancingPolicy20ChannelControlHelperESt14default_deleteIS2_EEC2IS4_vEEv = comdat any

$_ZNSt10unique_ptrIN9grpc_core19LoadBalancingPolicy20ChannelControlHelperESt14default_deleteIS2_EED2Ev = comdat any

$_ZNSt12__shared_ptrIN9grpc_core14WorkSerializerELN9__gnu_cxx12_Lock_policyE2EEC2Ev = comdat any

$_ZNSt15__uniq_ptr_dataIN9grpc_core19LoadBalancingPolicy20ChannelControlHelperESt14default_deleteIS2_ELb1ELb1EEC2Ev = comdat any

$_ZNSt15__uniq_ptr_implIN9grpc_core19LoadBalancingPolicy20ChannelControlHelperESt14default_deleteIS2_EEC2Ev = comdat any

$_ZNSt5tupleIJPN9grpc_core19LoadBalancingPolicy20ChannelControlHelperESt14default_deleteIS2_EEEC2ILb1ETnNSt9enable_ifIXclsr17_TupleConstraintsIXT_ES3_S5_EE37__is_implicitly_default_constructibleEEbE4typeELb1EEEv = comdat any

$_ZNSt11_Tuple_implILm0EJPN9grpc_core19LoadBalancingPolicy20ChannelControlHelperESt14default_deleteIS2_EEEC2Ev = comdat any

$_ZNSt11_Tuple_implILm1EJSt14default_deleteIN9grpc_core19LoadBalancingPolicy20ChannelControlHelperEEEEC2Ev = comdat any

$_ZNSt10_Head_baseILm0EPN9grpc_core19LoadBalancingPolicy20ChannelControlHelperELb0EEC2Ev = comdat any

$_ZNSt10_Head_baseILm1ESt14default_deleteIN9grpc_core19LoadBalancingPolicy20ChannelControlHelperEELb1EEC2Ev = comdat any

$_ZNSt10unique_ptrIN9grpc_core19LoadBalancingPolicy20ChannelControlHelperESt14default_deleteIS2_EE11get_deleterEv = comdat any

$_ZNKSt14default_deleteIN9grpc_core19LoadBalancingPolicy20ChannelControlHelperEEclEPS2_ = comdat any

$_ZNSt15__uniq_ptr_implIN9grpc_core19LoadBalancingPolicy20ChannelControlHelperESt14default_deleteIS2_EE10_M_deleterEv = comdat any

$_ZSt3getILm1EJPN9grpc_core19LoadBalancingPolicy20ChannelControlHelperESt14default_deleteIS2_EEERNSt13tuple_elementIXT_ESt5tupleIJDpT0_EEE4typeERSA_ = comdat any

$_ZSt12__get_helperILm1ESt14default_deleteIN9grpc_core19LoadBalancingPolicy20ChannelControlHelperEEJEERT0_RSt11_Tuple_implIXT_EJS5_DpT1_EE = comdat any

$_ZNSt11_Tuple_implILm1EJSt14default_deleteIN9grpc_core19LoadBalancingPolicy20ChannelControlHelperEEEE7_M_headERS5_ = comdat any

$_ZNSt10_Head_baseILm1ESt14default_deleteIN9grpc_core19LoadBalancingPolicy20ChannelControlHelperEELb1EE7_M_headERS5_ = comdat any

$_ZNSt10shared_ptrIN9grpc_core14WorkSerializerEEC2ERKS2_ = comdat any

$_ZNSt12__shared_ptrIN9grpc_core14WorkSerializerELN9__gnu_cxx12_Lock_policyE2EEC2ERKS4_ = comdat any

$_ZNSt14__shared_countILN9__gnu_cxx12_Lock_policyE2EEC2ERKS2_ = comdat any

$_ZNSt16_Sp_counted_baseILN9__gnu_cxx12_Lock_policyE2EE15_M_add_ref_copyEv = comdat any

$_ZNSt12__shared_ptrIN9grpc_core14WorkSerializerELN9__gnu_cxx12_Lock_policyE2EEaSEOS4_ = comdat any

$_ZNSt12__shared_ptrIN9grpc_core14WorkSerializerELN9__gnu_cxx12_Lock_policyE2EEC2EOS4_ = comdat any

$_ZNSt12__shared_ptrIN9grpc_core14WorkSerializerELN9__gnu_cxx12_Lock_policyE2EE4swapERS4_ = comdat any

$_ZNSt12__shared_ptrIN9grpc_core14WorkSerializerELN9__gnu_cxx12_Lock_policyE2EED2Ev = comdat any

$_ZSt4swapIPN9grpc_core14WorkSerializerEENSt9enable_ifIXsr6__and_ISt6__not_ISt15__is_tuple_likeIT_EESt21is_move_constructibleIS6_ESt18is_move_assignableIS6_EEE5valueEvE4typeERS6_SF_ = comdat any

$_ZN9grpc_core19LoadBalancingPolicy30DelegatingChannelControlHelper19RequestReresolutionEv = comdat any

$_ZN9grpc_core19LoadBalancingPolicy30DelegatingChannelControlHelper12GetAuthorityEv = comdat any

$_ZN9grpc_core19LoadBalancingPolicy30DelegatingChannelControlHelper21GetChannelCredentialsEv = comdat any

$_ZN9grpc_core19LoadBalancingPolicy30DelegatingChannelControlHelper27GetUnsafeChannelCredentialsEv = comdat any

$_ZN9grpc_core19LoadBalancingPolicy30DelegatingChannelControlHelper14GetEventEngineEv = comdat any

$_ZN9grpc_core19LoadBalancingPolicy30DelegatingChannelControlHelper13AddTraceEventENS0_20ChannelControlHelper13TraceSeverityESt17basic_string_viewIcSt11char_traitsIcEE = comdat any

$_ZN9grpc_core19LoadBalancingPolicy30DelegatingChannelControlHelperC2Ev = comdat any

$_ZN9grpc_core19LoadBalancingPolicy30DelegatingChannelControlHelper16CreateSubchannelERK21grpc_resolved_addressRKNS_11ChannelArgsES7_ = comdat any

$_ZN9grpc_core19LoadBalancingPolicy30DelegatingChannelControlHelper11UpdateStateE23grpc_connectivity_stateRKN4absl12lts_202308026StatusENS_13RefCountedPtrINS0_16SubchannelPickerEEE = comdat any

$_ZN9grpc_core19LoadBalancingPolicy20ChannelControlHelperC2Ev = comdat any

$_ZN9grpc_core19LoadBalancingPolicy30DelegatingChannelControlHelperD2Ev = comdat any

$_ZN9grpc_core19LoadBalancingPolicy30DelegatingChannelControlHelperD0Ev = comdat any

$_ZN9grpc_core19LoadBalancingPolicy20ChannelControlHelperD2Ev = comdat any

$_ZN9grpc_core19LoadBalancingPolicy20ChannelControlHelperD0Ev = comdat any

$_ZN9grpc_core13RefCountedPtrINS_19LoadBalancingPolicyEE5resetERKNS_13DebugLocationEPKcPS1_ = comdat any

$_ZSt8exchangeIPN9grpc_core19LoadBalancingPolicyERS2_ET_RS4_OT0_ = comdat any

$_ZN9grpc_core20InternallyRefCountedINS_19LoadBalancingPolicyENS_11UnrefDeleteEE5UnrefERKNS_13DebugLocationEPKc = comdat any

$_ZSt10__exchangeIPN9grpc_core19LoadBalancingPolicyERS2_ET_RS4_OT0_ = comdat any

$_ZN9grpc_core8RefCount5UnrefERKNS_13DebugLocationEPKc = comdat any

$_ZNK9grpc_core11UnrefDeleteclINS_19LoadBalancingPolicyEEEvPT_ = comdat any

$_ZN9grpc_core13RefCountedPtrINS_19LoadBalancingPolicy16SubchannelPickerEEC2EOS3_ = comdat any

$_ZNK9grpc_core19LoadBalancingPolicy22channel_control_helperEv = comdat any

$_ZN9grpc_core13RefCountedPtrINS_19SubchannelInterfaceEEC2EOS2_ = comdat any

$_ZNK9grpc_core13RefCountedPtrINS_19LoadBalancingPolicyEE3getEv = comdat any

$_ZNKSt10unique_ptrIN9grpc_core19LoadBalancingPolicy20ChannelControlHelperESt14default_deleteIS2_EE3getEv = comdat any

$_ZNKSt15__uniq_ptr_implIN9grpc_core19LoadBalancingPolicy20ChannelControlHelperESt14default_deleteIS2_EE6_M_ptrEv = comdat any

$_ZSt3getILm0EJPN9grpc_core19LoadBalancingPolicy20ChannelControlHelperESt14default_deleteIS2_EEERKNSt13tuple_elementIXT_ESt5tupleIJDpT0_EEE4typeERKSA_ = comdat any

$_ZSt12__get_helperILm0EPN9grpc_core19LoadBalancingPolicy20ChannelControlHelperEJSt14default_deleteIS2_EEERKT0_RKSt11_Tuple_implIXT_EJS6_DpT1_EE = comdat any

$_ZNSt11_Tuple_implILm0EJPN9grpc_core19LoadBalancingPolicy20ChannelControlHelperESt14default_deleteIS2_EEE7_M_headERKS6_ = comdat any

$_ZNSt10_Head_baseILm0EPN9grpc_core19LoadBalancingPolicy20ChannelControlHelperELb0EE7_M_headERKS4_ = comdat any

$_ZN9grpc_core20InternallyRefCountedINS_19LoadBalancingPolicyENS_11UnrefDeleteEE3RefEv = comdat any

$_ZNR4absl12lts_202308028StatusOrINSt7__cxx1112basic_stringIcSt11char_traitsIcESaIcEEEEdeEv = comdat any

$_ZN9grpc_core20DelegatingSubchannelC2ENS_13RefCountedPtrINS_19SubchannelInterfaceEEE = comdat any

$_ZNSt8optionalINSt7__cxx1112basic_stringIcSt11char_traitsIcESaIcEEEEC2Ev = comdat any

$_ZNSt6atomicI23grpc_connectivity_stateEC2ES0_ = comdat any

$_ZNK9grpc_core20DelegatingSubchannel18wrapped_subchannelEv = comdat any

$_ZNK9grpc_core13RefCountedPtrINS_19SubchannelInterfaceEEptEv = comdat any

$_ZNSt10unique_ptrIN9grpc_core19SubchannelInterface33ConnectivityStateWatcherInterfaceESt14default_deleteIS2_EED2Ev = comdat any

$_ZNSt8optionalINSt7__cxx1112basic_stringIcSt11char_traitsIcESaIcEEEED2Ev = comdat any

$_ZN9grpc_core20DelegatingSubchannel17RequestConnectionEv = comdat any

$_ZN9grpc_core20DelegatingSubchannel12ResetBackoffEv = comdat any

$_ZN9grpc_core20DelegatingSubchannel14AddDataWatcherESt10unique_ptrINS_19SubchannelInterface20DataWatcherInterfaceESt14default_deleteIS3_EE = comdat any

$_ZN9grpc_core20DelegatingSubchannel17CancelDataWatcherEPNS_19SubchannelInterface20DataWatcherInterfaceE = comdat any

$_ZN9grpc_core19SubchannelInterfaceC2EPKc = comdat any

$_ZN9grpc_core19SubchannelInterface6OrphanEv = comdat any

$_ZN9grpc_core20DelegatingSubchannelD2Ev = comdat any

$_ZN9grpc_core20DelegatingSubchannelD0Ev = comdat any

$_ZN9grpc_core20DelegatingSubchannel22WatchConnectivityStateESt10unique_ptrINS_19SubchannelInterface33ConnectivityStateWatcherInterfaceESt14default_deleteIS3_EE = comdat any

$_ZN9grpc_core20DelegatingSubchannel28CancelConnectivityStateWatchEPNS_19SubchannelInterface33ConnectivityStateWatcherInterfaceE = comdat any

$_ZN9grpc_core14DualRefCountedINS_19SubchannelInterfaceEEC2EPKci = comdat any

$_ZN9grpc_core19SubchannelInterfaceD2Ev = comdat any

$_ZN9grpc_core19SubchannelInterfaceD0Ev = comdat any

$_ZN9grpc_core10OrphanableC2Ev = comdat any

$_ZNSt6atomicImEC2Em = comdat any

$_ZN9grpc_core14DualRefCountedINS_19SubchannelInterfaceEED2Ev = comdat any

$_ZN9grpc_core14DualRefCountedINS_19SubchannelInterfaceEED0Ev = comdat any

$_ZN9grpc_core10OrphanableD2Ev = comdat any

$_ZN9grpc_core10OrphanableD0Ev = comdat any

$_ZNSt13__atomic_baseImEC2Em = comdat any

$_ZNSt10unique_ptrIN9grpc_core19SubchannelInterface33ConnectivityStateWatcherInterfaceESt14default_deleteIS2_EEC2EOS5_ = comdat any

$_ZNSt15__uniq_ptr_dataIN9grpc_core19SubchannelInterface33ConnectivityStateWatcherInterfaceESt14default_deleteIS2_ELb1ELb1EEC2EOS5_ = comdat any

$_ZNSt15__uniq_ptr_implIN9grpc_core19SubchannelInterface33ConnectivityStateWatcherInterfaceESt14default_deleteIS2_EEC2EOS5_ = comdat any

$_ZNSt5tupleIJPN9grpc_core19SubchannelInterface33ConnectivityStateWatcherInterfaceESt14default_deleteIS2_EEEC2EOS6_ = comdat any

$_ZNSt15__uniq_ptr_implIN9grpc_core19SubchannelInterface33ConnectivityStateWatcherInterfaceESt14default_deleteIS2_EE6_M_ptrEv = comdat any

$_ZNSt11_Tuple_implILm0EJPN9grpc_core19SubchannelInterface33ConnectivityStateWatcherInterfaceESt14default_deleteIS2_EEEC2EOS6_ = comdat any

$_ZNSt11_Tuple_implILm1EJSt14default_deleteIN9grpc_core19SubchannelInterface33ConnectivityStateWatcherInterfaceEEEEC2EOS5_ = comdat any

$_ZSt3getILm0EJPN9grpc_core19SubchannelInterface33ConnectivityStateWatcherInterfaceESt14default_deleteIS2_EEERNSt13tuple_elementIXT_ESt5tupleIJDpT0_EEE4typeERSA_ = comdat any

$_ZSt12__get_helperILm0EPN9grpc_core19SubchannelInterface33ConnectivityStateWatcherInterfaceEJSt14default_deleteIS2_EEERT0_RSt11_Tuple_implIXT_EJS6_DpT1_EE = comdat any

$_ZNSt11_Tuple_implILm0EJPN9grpc_core19SubchannelInterface33ConnectivityStateWatcherInterfaceESt14default_deleteIS2_EEE7_M_headERS6_ = comdat any

$_ZNSt10_Head_baseILm0EPN9grpc_core19SubchannelInterface33ConnectivityStateWatcherInterfaceELb0EE7_M_headERS4_ = comdat any

$_ZNSt14_Optional_baseINSt7__cxx1112basic_stringIcSt11char_traitsIcESaIcEEELb0ELb0EEC2Ev = comdat any

$_ZNSt17_Optional_payloadINSt7__cxx1112basic_stringIcSt11char_traitsIcESaIcEEELb0ELb0ELb0EEC2Ev = comdat any

$_ZNSt17_Optional_payloadINSt7__cxx1112basic_stringIcSt11char_traitsIcESaIcEEELb1ELb0ELb0EEC2Ev = comdat any

$_ZNSt22_Optional_payload_baseINSt7__cxx1112basic_stringIcSt11char_traitsIcESaIcEEEEC2Ev = comdat any

$_ZNSt22_Optional_payload_baseINSt7__cxx1112basic_stringIcSt11char_traitsIcESaIcEEEE8_StorageIS5_Lb0EEC2Ev = comdat any

$_ZNSaISt13_Rb_tree_nodeISt10unique_ptrIN9grpc_core19SubchannelInterface33ConnectivityStateWatcherInterfaceESt14default_deleteIS3_EEEEC2Ev = comdat any

$_ZNSt15__new_allocatorISt13_Rb_tree_nodeISt10unique_ptrIN9grpc_core19SubchannelInterface33ConnectivityStateWatcherInterfaceESt14default_deleteIS4_EEEEC2Ev = comdat any

$_ZN9grpc_core19SubchannelInterface33ConnectivityStateWatcherInterfaceC2Ev = comdat any

$_ZN9grpc_core19SubchannelInterface33ConnectivityStateWatcherInterfaceD2Ev = comdat any

$_ZN9grpc_core19SubchannelInterface33ConnectivityStateWatcherInterfaceD0Ev = comdat any

$_ZN4absl12lts_202308026StatusC2ERKS1_ = comdat any

$_ZNSt6atomicI23grpc_connectivity_stateE5storeES0_St12memory_order = comdat any

$_ZNSt6vectorIPN9grpc_core19SubchannelInterface33ConnectivityStateWatcherInterfaceESaIS3_EEC2Ev = comdat any

$_ZNSt6vectorIPN9grpc_core19SubchannelInterface33ConnectivityStateWatcherInterfaceESaIS3_EE7reserveEm = comdat any

$_ZStneRKSt23_Rb_tree_const_iteratorISt10unique_ptrIN9grpc_core19SubchannelInterface33ConnectivityStateWatcherInterfaceESt14default_deleteIS3_EEES9_ = comdat any

$_ZNKSt23_Rb_tree_const_iteratorISt10unique_ptrIN9grpc_core19SubchannelInterface33ConnectivityStateWatcherInterfaceESt14default_deleteIS3_EEEdeEv = comdat any

$_ZNSt6vectorIPN9grpc_core19SubchannelInterface33ConnectivityStateWatcherInterfaceESaIS3_EE9push_backEOS3_ = comdat any

$_ZNKSt10unique_ptrIN9grpc_core19SubchannelInterface33ConnectivityStateWatcherInterfaceESt14default_deleteIS2_EE3getEv = comdat any

$_ZNSt23_Rb_tree_const_iteratorISt10unique_ptrIN9grpc_core19SubchannelInterface33ConnectivityStateWatcherInterfaceESt14default_deleteIS3_EEEppEv = comdat any

$_ZNSt6vectorIPN9grpc_core19SubchannelInterface33ConnectivityStateWatcherInterfaceESaIS3_EE5beginEv = comdat any

$_ZNSt6vectorIPN9grpc_core19SubchannelInterface33ConnectivityStateWatcherInterfaceESaIS3_EE3endEv = comdat any

$_ZN9__gnu_cxxneIPPN9grpc_core19SubchannelInterface33ConnectivityStateWatcherInterfaceESt6vectorIS4_SaIS4_EEEEbRKNS_17__normal_iteratorIT_T0_EESE_ = comdat any

$_ZNK9__gnu_cxx17__normal_iteratorIPPN9grpc_core19SubchannelInterface33ConnectivityStateWatcherInterfaceESt6vectorIS4_SaIS4_EEEdeEv = comdat any

$_ZN9__gnu_cxx17__normal_iteratorIPPN9grpc_core19SubchannelInterface33ConnectivityStateWatcherInterfaceESt6vectorIS4_SaIS4_EEEppEv = comdat any

$_ZNKSt8optionalINSt7__cxx1112basic_stringIcSt11char_traitsIcESaIcEEEE9has_valueEv = comdat any

$_ZNRSt8optionalINSt7__cxx1112basic_stringIcSt11char_traitsIcESaIcEEEEdeEv = comdat any

$_ZNSt6vectorIPN9grpc_core19SubchannelInterface33ConnectivityStateWatcherInterfaceESaIS3_EED2Ev = comdat any

$_ZNSt12_Vector_baseIPN9grpc_core19SubchannelInterface33ConnectivityStateWatcherInterfaceESaIS3_EEC2Ev = comdat any

$_ZNSt12_Vector_baseIPN9grpc_core19SubchannelInterface33ConnectivityStateWatcherInterfaceESaIS3_EE12_Vector_implC2Ev = comdat any

$_ZNSaIPN9grpc_core19SubchannelInterface33ConnectivityStateWatcherInterfaceEEC2Ev = comdat any

$_ZNSt12_Vector_baseIPN9grpc_core19SubchannelInterface33ConnectivityStateWatcherInterfaceESaIS3_EE17_Vector_impl_dataC2Ev = comdat any

$_ZNSt15__new_allocatorIPN9grpc_core19SubchannelInterface33ConnectivityStateWatcherInterfaceEEC2Ev = comdat any

$_ZNKSt6vectorIPN9grpc_core19SubchannelInterface33ConnectivityStateWatcherInterfaceESaIS3_EE8max_sizeEv = comdat any

$_ZNKSt6vectorIPN9grpc_core19SubchannelInterface33ConnectivityStateWatcherInterfaceESaIS3_EE8capacityEv = comdat any

$_ZNKSt6vectorIPN9grpc_core19SubchannelInterface33ConnectivityStateWatcherInterfaceESaIS3_EE4sizeEv = comdat any

$_ZNSt12_Vector_baseIPN9grpc_core19SubchannelInterface33ConnectivityStateWatcherInterfaceESaIS3_EE11_M_allocateEm = comdat any

$_ZNSt6vectorIPN9grpc_core19SubchannelInterface33ConnectivityStateWatcherInterfaceESaIS3_EE11_S_relocateEPS3_S6_S6_RS4_ = comdat any

$_ZNSt12_Vector_baseIPN9grpc_core19SubchannelInterface33ConnectivityStateWatcherInterfaceESaIS3_EE19_M_get_Tp_allocatorEv = comdat any

$_ZNSt12_Vector_baseIPN9grpc_core19SubchannelInterface33ConnectivityStateWatcherInterfaceESaIS3_EE13_M_deallocateEPS3_m = comdat any

$_ZNSt6vectorIPN9grpc_core19SubchannelInterface33ConnectivityStateWatcherInterfaceESaIS3_EE11_S_max_sizeERKS4_ = comdat any

$_ZNKSt12_Vector_baseIPN9grpc_core19SubchannelInterface33ConnectivityStateWatcherInterfaceESaIS3_EE19_M_get_Tp_allocatorEv = comdat any

$_ZNSt16allocator_traitsISaIPN9grpc_core19SubchannelInterface33ConnectivityStateWatcherInterfaceEEE8max_sizeERKS4_ = comdat any

$_ZNKSt15__new_allocatorIPN9grpc_core19SubchannelInterface33ConnectivityStateWatcherInterfaceEE8max_sizeEv = comdat any

$_ZNKSt15__new_allocatorIPN9grpc_core19SubchannelInterface33ConnectivityStateWatcherInterfaceEE11_M_max_sizeEv = comdat any

$_ZNSt16allocator_traitsISaIPN9grpc_core19SubchannelInterface33ConnectivityStateWatcherInterfaceEEE8allocateERS4_m = comdat any

$_ZNSt15__new_allocatorIPN9grpc_core19SubchannelInterface33ConnectivityStateWatcherInterfaceEE8allocateEmPKv = comdat any

$_ZSt12__relocate_aIPPN9grpc_core19SubchannelInterface33ConnectivityStateWatcherInterfaceES4_SaIS3_EET0_T_S7_S6_RT1_ = comdat any

$_ZSt14__relocate_a_1IPN9grpc_core19SubchannelInterface33ConnectivityStateWatcherInterfaceES3_ENSt9enable_ifIXsr3std24__is_bitwise_relocatableIT_EE5valueEPS5_E4typeES6_S6_S6_RSaIT0_E = comdat any

$_ZSt12__niter_baseIPPN9grpc_core19SubchannelInterface33ConnectivityStateWatcherInterfaceEET_S5_ = comdat any

$_ZNSt16allocator_traitsISaIPN9grpc_core19SubchannelInterface33ConnectivityStateWatcherInterfaceEEE10deallocateERS4_PS3_m = comdat any

$_ZNSt15__new_allocatorIPN9grpc_core19SubchannelInterface33ConnectivityStateWatcherInterfaceEE10deallocateEPS3_m = comdat any

$_ZNSt23_Rb_tree_const_iteratorISt10unique_ptrIN9grpc_core19SubchannelInterface33ConnectivityStateWatcherInterfaceESt14default_deleteIS3_EEEC2EPKSt18_Rb_tree_node_base = comdat any

$_ZNKSt13_Rb_tree_nodeISt10unique_ptrIN9grpc_core19SubchannelInterface33ConnectivityStateWatcherInterfaceESt14default_deleteIS3_EEE9_M_valptrEv = comdat any

$_ZNK9__gnu_cxx16__aligned_membufISt10unique_ptrIN9grpc_core19SubchannelInterface33ConnectivityStateWatcherInterfaceESt14default_deleteIS4_EEE6_M_ptrEv = comdat any

$_ZNK9__gnu_cxx16__aligned_membufISt10unique_ptrIN9grpc_core19SubchannelInterface33ConnectivityStateWatcherInterfaceESt14default_deleteIS4_EEE7_M_addrEv = comdat any

$_ZNSt6vectorIPN9grpc_core19SubchannelInterface33ConnectivityStateWatcherInterfaceESaIS3_EE12emplace_backIJS3_EEERS3_DpOT_ = comdat any

$_ZNSt16allocator_traitsISaIPN9grpc_core19SubchannelInterface33ConnectivityStateWatcherInterfaceEEE9constructIS3_JS3_EEEvRS4_PT_DpOT0_ = comdat any

$_ZNSt6vectorIPN9grpc_core19SubchannelInterface33ConnectivityStateWatcherInterfaceESaIS3_EE17_M_realloc_insertIJS3_EEEvN9__gnu_cxx17__normal_iteratorIPS3_S5_EEDpOT_ = comdat any

$_ZNSt6vectorIPN9grpc_core19SubchannelInterface33ConnectivityStateWatcherInterfaceESaIS3_EE4backEv = comdat any

$_ZNSt15__new_allocatorIPN9grpc_core19SubchannelInterface33ConnectivityStateWatcherInterfaceEE9constructIS3_JS3_EEEvPT_DpOT0_ = comdat any

$_ZNKSt6vectorIPN9grpc_core19SubchannelInterface33ConnectivityStateWatcherInterfaceESaIS3_EE12_M_check_lenEmPKc = comdat any

$_ZN9__gnu_cxxmiIPPN9grpc_core19SubchannelInterface33ConnectivityStateWatcherInterfaceESt6vectorIS4_SaIS4_EEEENS_17__normal_iteratorIT_T0_E15difference_typeERKSC_SF_ = comdat any

$_ZNK9__gnu_cxx17__normal_iteratorIPPN9grpc_core19SubchannelInterface33ConnectivityStateWatcherInterfaceESt6vectorIS4_SaIS4_EEE4baseEv = comdat any

$_ZNK9__gnu_cxx17__normal_iteratorIPPN9grpc_core19SubchannelInterface33ConnectivityStateWatcherInterfaceESt6vectorIS4_SaIS4_EEEmiEl = comdat any

$_ZN9__gnu_cxx17__normal_iteratorIPPN9grpc_core19SubchannelInterface33ConnectivityStateWatcherInterfaceESt6vectorIS4_SaIS4_EEEC2ERKS5_ = comdat any

$_ZNKSt15__uniq_ptr_implIN9grpc_core19SubchannelInterface33ConnectivityStateWatcherInterfaceESt14default_deleteIS2_EE6_M_ptrEv = comdat any

$_ZSt3getILm0EJPN9grpc_core19SubchannelInterface33ConnectivityStateWatcherInterfaceESt14default_deleteIS2_EEERKNSt13tuple_elementIXT_ESt5tupleIJDpT0_EEE4typeERKSA_ = comdat any

$_ZSt12__get_helperILm0EPN9grpc_core19SubchannelInterface33ConnectivityStateWatcherInterfaceEJSt14default_deleteIS2_EEERKT0_RKSt11_Tuple_implIXT_EJS6_DpT1_EE = comdat any

$_ZNSt11_Tuple_implILm0EJPN9grpc_core19SubchannelInterface33ConnectivityStateWatcherInterfaceESt14default_deleteIS2_EEE7_M_headERKS6_ = comdat any

$_ZNSt10_Head_baseILm0EPN9grpc_core19SubchannelInterface33ConnectivityStateWatcherInterfaceELb0EE7_M_headERKS4_ = comdat any

$_ZNSt23_Rb_tree_const_iteratorISt10unique_ptrIN9grpc_core19SubchannelInterface33ConnectivityStateWatcherInterfaceESt14default_deleteIS3_EEEC2ERKSt17_Rb_tree_iteratorIS6_E = comdat any

$_ZNKSt23_Rb_tree_const_iteratorISt10unique_ptrIN9grpc_core19SubchannelInterface33ConnectivityStateWatcherInterfaceESt14default_deleteIS3_EEE13_M_const_castEv = comdat any

$_ZNKSt9_IdentityISt10unique_ptrIN9grpc_core19SubchannelInterface33ConnectivityStateWatcherInterfaceESt14default_deleteIS3_EEEclERKS6_ = comdat any

$_ZNSt17_Rb_tree_iteratorISt10unique_ptrIN9grpc_core19SubchannelInterface33ConnectivityStateWatcherInterfaceESt14default_deleteIS3_EEEC2EPSt18_Rb_tree_node_base = comdat any

$_ZNKSt19_Optional_base_implINSt7__cxx1112basic_stringIcSt11char_traitsIcESaIcEEESt14_Optional_baseIS5_Lb0ELb0EEE13_M_is_engagedEv = comdat any

$_ZNKSt4lessIvEclIRKSt17basic_string_viewIcSt11char_traitsIcEERKNSt7__cxx1112basic_stringIcS4_SaIcEEEEEDTltclsr3stdE7forwardIT_Efp_Eclsr3stdE7forwardIT0_Efp0_EEOSE_OSF_ = comdat any

$_ZNKSt4lessIvEclIRKNSt7__cxx1112basic_stringIcSt11char_traitsIcESaIcEEERKSt17basic_string_viewIcS5_EEEDTltclsr3stdE7forwardIT_Efp_Eclsr3stdE7forwardIT0_Efp0_EEOSE_OSF_ = comdat any

$_ZNSt4lessIvE6_S_cmpIRKNSt7__cxx1112basic_stringIcSt11char_traitsIcESaIcEEERKSt17basic_string_viewIcS5_EEEDcOT_OT0_St17integral_constantIbLb0EE = comdat any

$_ZStltIcSt11char_traitsIcEEbNSt15__type_identityISt17basic_string_viewIT_T0_EE4typeES6_ = comdat any

$_ZNKSt17basic_string_viewIcSt11char_traitsIcEE7compareES2_ = comdat any

$_ZNSt11char_traitsIcE7compareEPKcS2_m = comdat any

$_ZNSt17basic_string_viewIcSt11char_traitsIcEE10_S_compareEmm = comdat any

$_ZNSt4lessIvE6_S_cmpIRKSt17basic_string_viewIcSt11char_traitsIcEERKNSt7__cxx1112basic_stringIcS4_SaIcEEEEEDcOT_OT0_St17integral_constantIbLb0EE = comdat any

$_ZStltIcSt11char_traitsIcEEbSt17basic_string_viewIT_T0_ENSt15__type_identityIS5_E4typeE = comdat any

$_ZNK9grpc_core13RefCountedPtrINS_19LoadBalancingPolicy16SubchannelPickerEEneEDn = comdat any

$_ZN9grpc_core13RefCountedPtrINS_19LoadBalancingPolicy16SubchannelPickerEEC2ERKS3_ = comdat any

$_ZN9grpc_core14DualRefCountedINS_19LoadBalancingPolicy16SubchannelPickerEE17IncrementRefCountEv = comdat any

$_ZN9grpc_core19LoadBalancingPolicy16SubchannelPickerD2Ev = comdat any

$_ZN9grpc_core19LoadBalancingPolicy16SubchannelPicker6OrphanEv = comdat any

$_ZN9grpc_core14DualRefCountedINS_19LoadBalancingPolicy16SubchannelPickerEED2Ev = comdat any

$_ZNKSt8optionalIN9grpc_core19LoadBalancingPolicy10PickResultEE9has_valueEv = comdat any

$_ZNRSt8optionalIN9grpc_core19LoadBalancingPolicy10PickResultEEdeEv = comdat any

$_ZN9grpc_core19LoadBalancingPolicy10PickResultC2EOS1_ = comdat any

$_ZNSt8optionalIN9grpc_core19LoadBalancingPolicy10PickResultEED2Ev = comdat any

$_ZNK9grpc_core13RefCountedPtrINS_19LoadBalancingPolicy16SubchannelPickerEEeqEDn = comdat any

$_ZN9grpc_core19LoadBalancingPolicy10PickResult4FailC2EN4absl12lts_202308026StatusE = comdat any

$_ZN9grpc_core19LoadBalancingPolicy10PickResultC2ENS1_4FailE = comdat any

$_ZN9grpc_core19LoadBalancingPolicy10PickResult4FailD2Ev = comdat any

$_ZNK9grpc_core13RefCountedPtrINS_19LoadBalancingPolicy16SubchannelPickerEEptEv = comdat any

$_ZSt6get_ifIN9grpc_core19LoadBalancingPolicy10PickResult8CompleteEJS3_NS2_5QueueENS2_4FailENS2_4DropEEENSt11add_pointerIT_E4typeEPSt7variantIJDpT0_EE = comdat any

$_ZNK9grpc_core13RefCountedPtrINS_19SubchannelInterfaceEE3getEv = comdat any

$_ZNKRSt8optionalINSt7__cxx1112basic_stringIcSt11char_traitsIcESaIcEEEEdeEv = comdat any

$_ZN9grpc_core24XdsOverrideHostAttribute23set_actual_address_listENS_21RefCountedStringValueE = comdat any

$_ZN9grpc_core13RefCountedPtrINS_19SubchannelInterfaceEEaSEOS2_ = comdat any

$_ZN9grpc_core19LoadBalancingPolicy10PickResultD2Ev = comdat any

$_ZNK9grpc_core24XdsOverrideHostAttribute19cookie_address_listEv = comdat any

$_ZNKSt17basic_string_viewIcSt11char_traitsIcEE5emptyEv = comdat any

$_ZNSt8optionalIN9grpc_core19LoadBalancingPolicy10PickResultEEC2ESt9nullopt_t = comdat any

$_ZN4absl12lts_202308028StrSplitIcEENS0_16strings_internal8SplitterINS2_15SelectDelimiterIT_E4typeENS0_10AllowEmptyESt17basic_string_viewIcSt11char_traitsIcEEEENS2_23ConvertibleToStringViewES5_ = comdat any

$_ZN4absl12lts_2023080216strings_internal23ConvertibleToStringViewC2ESt17basic_string_viewIcSt11char_traitsIcEE = comdat any

$_ZNK4absl12lts_2023080216strings_internal8SplitterINS0_6ByCharENS0_10AllowEmptyESt17basic_string_viewIcSt11char_traitsIcEEE5beginEv = comdat any

$_ZNK4absl12lts_2023080216strings_internal8SplitterINS0_6ByCharENS0_10AllowEmptyESt17basic_string_viewIcSt11char_traitsIcEEE3endEv = comdat any

$_ZN4absl12lts_2023080216strings_internalneERKNS1_13SplitIteratorINS1_8SplitterINS0_6ByCharENS0_10AllowEmptyESt17basic_string_viewIcSt11char_traitsIcEEEEEESD_ = comdat any

$_ZNK4absl12lts_2023080216strings_internal13SplitIteratorINS1_8SplitterINS0_6ByCharENS0_10AllowEmptyESt17basic_string_viewIcSt11char_traitsIcEEEEEdeEv = comdat any

$_ZN9grpc_core14DualRefCountedINS_19SubchannelInterfaceEE12RefIfNonZeroEv = comdat any

$_ZNSt7__cxx1112basic_stringIcSt11char_traitsIcESaIcEEC2ISt17basic_string_viewIcS2_EvEERKT_RKS3_ = comdat any

$_ZNSt10unique_ptrIN9grpc_core19LoadBalancingPolicy30SubchannelCallTrackerInterfaceESt14default_deleteIS2_EEC2IS4_vEEDn = comdat any

$_ZN9grpc_core19LoadBalancingPolicy10PickResult8CompleteC2ENS_13RefCountedPtrINS_19SubchannelInterfaceEEESt10unique_ptrINS0_30SubchannelCallTrackerInterfaceESt14default_deleteIS7_EE = comdat any

$_ZNSt8optionalIN9grpc_core19LoadBalancingPolicy10PickResultEEC2INS2_8CompleteETnNSt9enable_ifIX7__and_vISt6__not_ISt7is_sameIS3_NSt9remove_cvINSt16remove_referenceIT_E4typeEE4typeEEES7_IS8_ISt10in_place_tSF_EESt16is_constructibleIS2_JSB_EESt14is_convertibleISB_S2_EEEbE4typeELb1EEEOSB_ = comdat any

$_ZN9grpc_core19LoadBalancingPolicy10PickResult8CompleteD2Ev = comdat any

$_ZNSt10unique_ptrIN9grpc_core19LoadBalancingPolicy30SubchannelCallTrackerInterfaceESt14default_deleteIS2_EED2Ev = comdat any

$_ZN4absl12lts_2023080216strings_internal13SplitIteratorINS1_8SplitterINS0_6ByCharENS0_10AllowEmptyESt17basic_string_viewIcSt11char_traitsIcEEEEEppEv = comdat any

$_ZNSt8optionalIN9grpc_core19LoadBalancingPolicy10PickResultEEC2INS2_5QueueETnNSt9enable_ifIX7__and_vISt6__not_ISt7is_sameIS3_NSt9remove_cvINSt16remove_referenceIT_E4typeEE4typeEEES7_IS8_ISt10in_place_tSF_EESt16is_constructibleIS2_JSB_EESt14is_convertibleISB_S2_EEEbE4typeELb1EEEOSB_ = comdat any

$_ZNSt14_Optional_baseIN9grpc_core19LoadBalancingPolicy10PickResultELb0ELb0EEC2Ev = comdat any

$_ZNSt17_Optional_payloadIN9grpc_core19LoadBalancingPolicy10PickResultELb0ELb0ELb0EEC2Ev = comdat any

$_ZNSt17_Optional_payloadIN9grpc_core19LoadBalancingPolicy10PickResultELb1ELb0ELb0EEC2Ev = comdat any

$_ZNSt22_Optional_payload_baseIN9grpc_core19LoadBalancingPolicy10PickResultEEC2Ev = comdat any

$_ZNSt22_Optional_payload_baseIN9grpc_core19LoadBalancingPolicy10PickResultEE8_StorageIS2_Lb0EEC2Ev = comdat any

$_ZNK4absl12lts_2023080216strings_internal23ConvertibleToStringView5valueEv = comdat any

$_ZN4absl12lts_202308026ByCharC2Ec = comdat any

$_ZN4absl12lts_2023080216strings_internal8SplitterINS0_6ByCharENS0_10AllowEmptyESt17basic_string_viewIcSt11char_traitsIcEEEC2ES8_S3_S4_ = comdat any

$_ZN4absl12lts_2023080216strings_internal13SplitIteratorINS1_8SplitterINS0_6ByCharENS0_10AllowEmptyESt17basic_string_viewIcSt11char_traitsIcEEEEEC2ENSB_5StateEPKSA_ = comdat any

$_ZNK4absl12lts_2023080216strings_internal8SplitterINS0_6ByCharENS0_10AllowEmptyESt17basic_string_viewIcSt11char_traitsIcEEE9delimiterEv = comdat any

$_ZNK4absl12lts_2023080216strings_internal8SplitterINS0_6ByCharENS0_10AllowEmptyESt17basic_string_viewIcSt11char_traitsIcEEE9predicateEv = comdat any

$_ZNK4absl12lts_2023080216strings_internal8SplitterINS0_6ByCharENS0_10AllowEmptyESt17basic_string_viewIcSt11char_traitsIcEEE4textEv = comdat any

$_ZN4absl12lts_2023080216strings_internaleqERKNS1_13SplitIteratorINS1_8SplitterINS0_6ByCharENS0_10AllowEmptyESt17basic_string_viewIcSt11char_traitsIcEEEEEESD_ = comdat any

$_ZN9grpc_core13RefCountedPtrINS_19SubchannelInterfaceEEC2EDn = comdat any

$_ZNKSt6atomicI23grpc_connectivity_stateE4loadESt12memory_order = comdat any

$_ZNSt15__uniq_ptr_dataIN9grpc_core19LoadBalancingPolicy30SubchannelCallTrackerInterfaceESt14default_deleteIS2_ELb1ELb1EEC2Ev = comdat any

$_ZNSt15__uniq_ptr_implIN9grpc_core19LoadBalancingPolicy30SubchannelCallTrackerInterfaceESt14default_deleteIS2_EEC2Ev = comdat any

$_ZNSt5tupleIJPN9grpc_core19LoadBalancingPolicy30SubchannelCallTrackerInterfaceESt14default_deleteIS2_EEEC2ILb1ETnNSt9enable_ifIXclsr17_TupleConstraintsIXT_ES3_S5_EE37__is_implicitly_default_constructibleEEbE4typeELb1EEEv = comdat any

$_ZNSt11_Tuple_implILm0EJPN9grpc_core19LoadBalancingPolicy30SubchannelCallTrackerInterfaceESt14default_deleteIS2_EEEC2Ev = comdat any

$_ZNSt11_Tuple_implILm1EJSt14default_deleteIN9grpc_core19LoadBalancingPolicy30SubchannelCallTrackerInterfaceEEEEC2Ev = comdat any

$_ZNSt10_Head_baseILm0EPN9grpc_core19LoadBalancingPolicy30SubchannelCallTrackerInterfaceELb0EEC2Ev = comdat any

$_ZNSt10_Head_baseILm1ESt14default_deleteIN9grpc_core19LoadBalancingPolicy30SubchannelCallTrackerInterfaceEELb1EEC2Ev = comdat any

$_ZNSt10unique_ptrIN9grpc_core19LoadBalancingPolicy30SubchannelCallTrackerInterfaceESt14default_deleteIS2_EEC2EOS5_ = comdat any

$_ZNSt15__uniq_ptr_dataIN9grpc_core19LoadBalancingPolicy30SubchannelCallTrackerInterfaceESt14default_deleteIS2_ELb1ELb1EEC2EOS5_ = comdat any

$_ZNSt15__uniq_ptr_implIN9grpc_core19LoadBalancingPolicy30SubchannelCallTrackerInterfaceESt14default_deleteIS2_EEC2EOS5_ = comdat any

$_ZNSt5tupleIJPN9grpc_core19LoadBalancingPolicy30SubchannelCallTrackerInterfaceESt14default_deleteIS2_EEEC2EOS6_ = comdat any

$_ZNSt15__uniq_ptr_implIN9grpc_core19LoadBalancingPolicy30SubchannelCallTrackerInterfaceESt14default_deleteIS2_EE6_M_ptrEv = comdat any

$_ZNSt11_Tuple_implILm0EJPN9grpc_core19LoadBalancingPolicy30SubchannelCallTrackerInterfaceESt14default_deleteIS2_EEEC2EOS6_ = comdat any

$_ZNSt11_Tuple_implILm1EJSt14default_deleteIN9grpc_core19LoadBalancingPolicy30SubchannelCallTrackerInterfaceEEEEC2EOS5_ = comdat any

$_ZSt3getILm0EJPN9grpc_core19LoadBalancingPolicy30SubchannelCallTrackerInterfaceESt14default_deleteIS2_EEERNSt13tuple_elementIXT_ESt5tupleIJDpT0_EEE4typeERSA_ = comdat any

$_ZSt12__get_helperILm0EPN9grpc_core19LoadBalancingPolicy30SubchannelCallTrackerInterfaceEJSt14default_deleteIS2_EEERT0_RSt11_Tuple_implIXT_EJS6_DpT1_EE = comdat any

$_ZNSt11_Tuple_implILm0EJPN9grpc_core19LoadBalancingPolicy30SubchannelCallTrackerInterfaceESt14default_deleteIS2_EEE7_M_headERS6_ = comdat any

$_ZNSt10_Head_baseILm0EPN9grpc_core19LoadBalancingPolicy30SubchannelCallTrackerInterfaceELb0EE7_M_headERS4_ = comdat any

$_ZNSt14_Optional_baseIN9grpc_core19LoadBalancingPolicy10PickResultELb0ELb0EEC2IJNS2_8CompleteEETnNSt9enable_ifIX18is_constructible_vIS2_DpT_EEbE4typeELb0EEESt10in_place_tDpOS7_ = comdat any

$_ZNSt17_Optional_payloadIN9grpc_core19LoadBalancingPolicy10PickResultELb0ELb0ELb0EECI2St22_Optional_payload_baseIS2_EIJNS2_8CompleteEEEESt10in_place_tDpOT_ = comdat any

$_ZNSt17_Optional_payloadIN9grpc_core19LoadBalancingPolicy10PickResultELb1ELb0ELb0EECI2St22_Optional_payload_baseIS2_EIJNS2_8CompleteEEEESt10in_place_tDpOT_ = comdat any

$_ZNSt22_Optional_payload_baseIN9grpc_core19LoadBalancingPolicy10PickResultEEC2IJNS2_8CompleteEEEESt10in_place_tDpOT_ = comdat any

$_ZNSt22_Optional_payload_baseIN9grpc_core19LoadBalancingPolicy10PickResultEE8_StorageIS2_Lb0EEC2IJNS2_8CompleteEEEESt10in_place_tDpOT_ = comdat any

$_ZN9grpc_core19LoadBalancingPolicy10PickResult8CompleteC2EOS2_ = comdat any

$_ZN9grpc_core19LoadBalancingPolicy10PickResultC2ENS1_8CompleteE = comdat any

$_ZNSt7variantIJN9grpc_core19LoadBalancingPolicy10PickResult8CompleteENS2_5QueueENS2_4FailENS2_4DropEEEC2IS3_vvS3_vEEOT_ = comdat any

$_ZNSt7variantIJN9grpc_core19LoadBalancingPolicy10PickResult8CompleteENS2_5QueueENS2_4FailENS2_4DropEEEC2ILm0EJS3_ES3_vEESt16in_place_index_tIXT_EEDpOT0_ = comdat any

$_ZNSt8__detail9__variant13_Variant_baseIJN9grpc_core19LoadBalancingPolicy10PickResult8CompleteENS4_5QueueENS4_4FailENS4_4DropEEEC2ILm0EJS5_EEESt16in_place_index_tIXT_EEDpOT0_ = comdat any

$_ZNSt27_Enable_default_constructorILb0ESt7variantIJN9grpc_core19LoadBalancingPolicy10PickResult8CompleteENS3_5QueueENS3_4FailENS3_4DropEEEEC2ESt31_Enable_default_constructor_tag = comdat any

$_ZNSt8__detail9__variant13_Variant_baseIJN9grpc_core19LoadBalancingPolicy10PickResult8CompleteENS4_5QueueENS4_4FailENS4_4DropEEED2Ev = comdat any

$_ZNSt8__detail9__variant17_Move_assign_baseILb0EJN9grpc_core19LoadBalancingPolicy10PickResult8CompleteENS4_5QueueENS4_4FailENS4_4DropEEECI2NS0_16_Variant_storageILb0EJS5_S6_S7_S8_EEEILm0EJS5_EEESt16in_place_index_tIXT_EEDpOT0_ = comdat any

$_ZNSt8__detail9__variant17_Copy_assign_baseILb0EJN9grpc_core19LoadBalancingPolicy10PickResult8CompleteENS4_5QueueENS4_4FailENS4_4DropEEECI2NS0_16_Variant_storageILb0EJS5_S6_S7_S8_EEEILm0EJS5_EEESt16in_place_index_tIXT_EEDpOT0_ = comdat any

$_ZNSt8__detail9__variant15_Move_ctor_baseILb0EJN9grpc_core19LoadBalancingPolicy10PickResult8CompleteENS4_5QueueENS4_4FailENS4_4DropEEECI2NS0_16_Variant_storageILb0EJS5_S6_S7_S8_EEEILm0EJS5_EEESt16in_place_index_tIXT_EEDpOT0_ = comdat any

$_ZNSt8__detail9__variant15_Copy_ctor_baseILb0EJN9grpc_core19LoadBalancingPolicy10PickResult8CompleteENS4_5QueueENS4_4FailENS4_4DropEEECI2NS0_16_Variant_storageILb0EJS5_S6_S7_S8_EEEILm0EJS5_EEESt16in_place_index_tIXT_EEDpOT0_ = comdat any

$_ZNSt8__detail9__variant16_Variant_storageILb0EJN9grpc_core19LoadBalancingPolicy10PickResult8CompleteENS4_5QueueENS4_4FailENS4_4DropEEEC2ILm0EJS5_EEESt16in_place_index_tIXT_EEDpOT0_ = comdat any

$_ZNSt8__detail9__variant15_Variadic_unionIJN9grpc_core19LoadBalancingPolicy10PickResult8CompleteENS4_5QueueENS4_4FailENS4_4DropEEEC2IJS5_EEESt16in_place_index_tILm0EEDpOT_ = comdat any

$_ZNSt8__detail9__variant14_UninitializedIN9grpc_core19LoadBalancingPolicy10PickResult8CompleteELb0EEC2IJS5_EEESt16in_place_index_tILm0EEDpOT_ = comdat any

$_ZNSt8__detail9__variant17_Move_assign_baseILb0EJN9grpc_core19LoadBalancingPolicy10PickResult8CompleteENS4_5QueueENS4_4FailENS4_4DropEEED2Ev = comdat any

$_ZNSt8__detail9__variant17_Copy_assign_baseILb0EJN9grpc_core19LoadBalancingPolicy10PickResult8CompleteENS4_5QueueENS4_4FailENS4_4DropEEED2Ev = comdat any

$_ZNSt8__detail9__variant15_Move_ctor_baseILb0EJN9grpc_core19LoadBalancingPolicy10PickResult8CompleteENS4_5QueueENS4_4FailENS4_4DropEEED2Ev = comdat any

$_ZNSt8__detail9__variant15_Copy_ctor_baseILb0EJN9grpc_core19LoadBalancingPolicy10PickResult8CompleteENS4_5QueueENS4_4FailENS4_4DropEEED2Ev = comdat any

$_ZNSt8__detail9__variant16_Variant_storageILb0EJN9grpc_core19LoadBalancingPolicy10PickResult8CompleteENS4_5QueueENS4_4FailENS4_4DropEEED2Ev = comdat any

$_ZNSt8__detail9__variant16_Variant_storageILb0EJN9grpc_core19LoadBalancingPolicy10PickResult8CompleteENS4_5QueueENS4_4FailENS4_4DropEEE8_M_resetEv = comdat any

$_ZNKSt8__detail9__variant16_Variant_storageILb0EJN9grpc_core19LoadBalancingPolicy10PickResult8CompleteENS4_5QueueENS4_4FailENS4_4DropEEE8_M_validEv = comdat any

$_ZSt10__do_visitIvZNSt8__detail9__variant16_Variant_storageILb0EJN9grpc_core19LoadBalancingPolicy10PickResult8CompleteENS5_5QueueENS5_4FailENS5_4DropEEE8_M_resetEvEUlOT_E_JRSt7variantIJS6_S7_S8_S9_EEEEDcOT0_DpOT1_ = comdat any

$_ZSt14__variant_castIJN9grpc_core19LoadBalancingPolicy10PickResult8CompleteENS2_5QueueENS2_4FailENS2_4DropEERNSt8__detail9__variant16_Variant_storageILb0EJS3_S4_S5_S6_EEEEDcOT0_ = comdat any

$_ZZSt10__do_visitIvZNSt8__detail9__variant16_Variant_storageILb0EJN9grpc_core19LoadBalancingPolicy10PickResult8CompleteENS5_5QueueENS5_4FailENS5_4DropEEE8_M_resetEvEUlOT_E_JRSt7variantIJS6_S7_S8_S9_EEEEDcOT0_DpOT1_ENKUlSG_zE_clESG_z = comdat any

$_ZNKSt7variantIJN9grpc_core19LoadBalancingPolicy10PickResult8CompleteENS2_5QueueENS2_4FailENS2_4DropEEE5indexEv = comdat any

$_ZNSt8__detail9__variant17__gen_vtable_implINS0_12_Multi_arrayIPFvOZNS0_16_Variant_storageILb0EJN9grpc_core19LoadBalancingPolicy10PickResult8CompleteENS6_5QueueENS6_4FailENS6_4DropEEE8_M_resetEvEUlOT_E_RSt7variantIJS7_S8_S9_SA_EEEJEEESt16integer_sequenceImJLm0EEEE14__visit_invokeESF_SI_ = comdat any

$_ZNSt8__detail9__variant17__gen_vtable_implINS0_12_Multi_arrayIPFvOZNS0_16_Variant_storageILb0EJN9grpc_core19LoadBalancingPolicy10PickResult8CompleteENS6_5QueueENS6_4FailENS6_4DropEEE8_M_resetEvEUlOT_E_RSt7variantIJS7_S8_S9_SA_EEEJEEESt16integer_sequenceImJLm1EEEE14__visit_invokeESF_SI_ = comdat any

$_ZNSt8__detail9__variant17__gen_vtable_implINS0_12_Multi_arrayIPFvOZNS0_16_Variant_storageILb0EJN9grpc_core19LoadBalancingPolicy10PickResult8CompleteENS6_5QueueENS6_4FailENS6_4DropEEE8_M_resetEvEUlOT_E_RSt7variantIJS7_S8_S9_SA_EEEJEEESt16integer_sequenceImJLm2EEEE14__visit_invokeESF_SI_ = comdat any

$_ZNSt8__detail9__variant17__gen_vtable_implINS0_12_Multi_arrayIPFvOZNS0_16_Variant_storageILb0EJN9grpc_core19LoadBalancingPolicy10PickResult8CompleteENS6_5QueueENS6_4FailENS6_4DropEEE8_M_resetEvEUlOT_E_RSt7variantIJS7_S8_S9_SA_EEEJEEESt16integer_sequenceImJLm3EEEE14__visit_invokeESF_SI_ = comdat any

$_ZSt10__invoke_rIvZNSt8__detail9__variant16_Variant_storageILb0EJN9grpc_core19LoadBalancingPolicy10PickResult8CompleteENS5_5QueueENS5_4FailENS5_4DropEEE8_M_resetEvEUlOT_E_JRS6_EENSt9enable_ifIX16is_invocable_r_vISB_T0_DpT1_EESB_E4typeEOSG_DpOSH_ = comdat any

$_ZNSt8__detail9__variant5__getILm0ERSt7variantIJN9grpc_core19LoadBalancingPolicy10PickResult8CompleteENS5_5QueueENS5_4FailENS5_4DropEEEEEDcOT0_ = comdat any

$_ZSt13__invoke_implIvZNSt8__detail9__variant16_Variant_storageILb0EJN9grpc_core19LoadBalancingPolicy10PickResult8CompleteENS5_5QueueENS5_4FailENS5_4DropEEE8_M_resetEvEUlOT_E_JRS6_EESB_St14__invoke_otherOT0_DpOT1_ = comdat any

$_ZZNSt8__detail9__variant16_Variant_storageILb0EJN9grpc_core19LoadBalancingPolicy10PickResult8CompleteENS4_5QueueENS4_4FailENS4_4DropEEE8_M_resetEvENUlOT_E_clIRS5_EEDaSB_ = comdat any

$_ZSt8_DestroyIN9grpc_core19LoadBalancingPolicy10PickResult8CompleteEEvPT_ = comdat any

$_ZNSt8__detail9__variant7__get_nILm0ERNS0_15_Variadic_unionIJN9grpc_core19LoadBalancingPolicy10PickResult8CompleteENS5_5QueueENS5_4FailENS5_4DropEEEEEEDcOT0_ = comdat any

$_ZNRSt8__detail9__variant14_UninitializedIN9grpc_core19LoadBalancingPolicy10PickResult8CompleteELb0EE6_M_getEv = comdat any

$_ZN9__gnu_cxx16__aligned_membufIN9grpc_core19LoadBalancingPolicy10PickResult8CompleteEE6_M_ptrEv = comdat any

$_ZN9__gnu_cxx16__aligned_membufIN9grpc_core19LoadBalancingPolicy10PickResult8CompleteEE7_M_addrEv = comdat any

$_ZSt10__invoke_rIvZNSt8__detail9__variant16_Variant_storageILb0EJN9grpc_core19LoadBalancingPolicy10PickResult8CompleteENS5_5QueueENS5_4FailENS5_4DropEEE8_M_resetEvEUlOT_E_JRS7_EENSt9enable_ifIX16is_invocable_r_vISB_T0_DpT1_EESB_E4typeEOSG_DpOSH_ = comdat any

$_ZNSt8__detail9__variant5__getILm1ERSt7variantIJN9grpc_core19LoadBalancingPolicy10PickResult8CompleteENS5_5QueueENS5_4FailENS5_4DropEEEEEDcOT0_ = comdat any

$_ZSt13__invoke_implIvZNSt8__detail9__variant16_Variant_storageILb0EJN9grpc_core19LoadBalancingPolicy10PickResult8CompleteENS5_5QueueENS5_4FailENS5_4DropEEE8_M_resetEvEUlOT_E_JRS7_EESB_St14__invoke_otherOT0_DpOT1_ = comdat any

$_ZZNSt8__detail9__variant16_Variant_storageILb0EJN9grpc_core19LoadBalancingPolicy10PickResult8CompleteENS4_5QueueENS4_4FailENS4_4DropEEE8_M_resetEvENUlOT_E_clIRS6_EEDaSB_ = comdat any

$_ZSt8_DestroyIN9grpc_core19LoadBalancingPolicy10PickResult5QueueEEvPT_ = comdat any

$_ZNSt8__detail9__variant7__get_nILm1ERNS0_15_Variadic_unionIJN9grpc_core19LoadBalancingPolicy10PickResult8CompleteENS5_5QueueENS5_4FailENS5_4DropEEEEEEDcOT0_ = comdat any

$_ZNRSt8__detail9__variant14_UninitializedIN9grpc_core19LoadBalancingPolicy10PickResult5QueueELb1EE6_M_getEv = comdat any

$_ZSt10__invoke_rIvZNSt8__detail9__variant16_Variant_storageILb0EJN9grpc_core19LoadBalancingPolicy10PickResult8CompleteENS5_5QueueENS5_4FailENS5_4DropEEE8_M_resetEvEUlOT_E_JRS8_EENSt9enable_ifIX16is_invocable_r_vISB_T0_DpT1_EESB_E4typeEOSG_DpOSH_ = comdat any

$_ZNSt8__detail9__variant5__getILm2ERSt7variantIJN9grpc_core19LoadBalancingPolicy10PickResult8CompleteENS5_5QueueENS5_4FailENS5_4DropEEEEEDcOT0_ = comdat any

$_ZSt13__invoke_implIvZNSt8__detail9__variant16_Variant_storageILb0EJN9grpc_core19LoadBalancingPolicy10PickResult8CompleteENS5_5QueueENS5_4FailENS5_4DropEEE8_M_resetEvEUlOT_E_JRS8_EESB_St14__invoke_otherOT0_DpOT1_ = comdat any

$_ZZNSt8__detail9__variant16_Variant_storageILb0EJN9grpc_core19LoadBalancingPolicy10PickResult8CompleteENS4_5QueueENS4_4FailENS4_4DropEEE8_M_resetEvENUlOT_E_clIRS7_EEDaSB_ = comdat any

$_ZSt8_DestroyIN9grpc_core19LoadBalancingPolicy10PickResult4FailEEvPT_ = comdat any

$_ZNSt8__detail9__variant7__get_nILm2ERNS0_15_Variadic_unionIJN9grpc_core19LoadBalancingPolicy10PickResult8CompleteENS5_5QueueENS5_4FailENS5_4DropEEEEEEDcOT0_ = comdat any

$_ZNRSt8__detail9__variant14_UninitializedIN9grpc_core19LoadBalancingPolicy10PickResult4FailELb0EE6_M_getEv = comdat any

$_ZN9__gnu_cxx16__aligned_membufIN9grpc_core19LoadBalancingPolicy10PickResult4FailEE6_M_ptrEv = comdat any

$_ZN9__gnu_cxx16__aligned_membufIN9grpc_core19LoadBalancingPolicy10PickResult4FailEE7_M_addrEv = comdat any

$_ZSt10__invoke_rIvZNSt8__detail9__variant16_Variant_storageILb0EJN9grpc_core19LoadBalancingPolicy10PickResult8CompleteENS5_5QueueENS5_4FailENS5_4DropEEE8_M_resetEvEUlOT_E_JRS9_EENSt9enable_ifIX16is_invocable_r_vISB_T0_DpT1_EESB_E4typeEOSG_DpOSH_ = comdat any

$_ZNSt8__detail9__variant5__getILm3ERSt7variantIJN9grpc_core19LoadBalancingPolicy10PickResult8CompleteENS5_5QueueENS5_4FailENS5_4DropEEEEEDcOT0_ = comdat any

$_ZSt13__invoke_implIvZNSt8__detail9__variant16_Variant_storageILb0EJN9grpc_core19LoadBalancingPolicy10PickResult8CompleteENS5_5QueueENS5_4FailENS5_4DropEEE8_M_resetEvEUlOT_E_JRS9_EESB_St14__invoke_otherOT0_DpOT1_ = comdat any

$_ZZNSt8__detail9__variant16_Variant_storageILb0EJN9grpc_core19LoadBalancingPolicy10PickResult8CompleteENS4_5QueueENS4_4FailENS4_4DropEEE8_M_resetEvENUlOT_E_clIRS8_EEDaSB_ = comdat any

$_ZSt8_DestroyIN9grpc_core19LoadBalancingPolicy10PickResult4DropEEvPT_ = comdat any

$_ZN9grpc_core19LoadBalancingPolicy10PickResult4DropD2Ev = comdat any

$_ZNSt8__detail9__variant7__get_nILm3ERNS0_15_Variadic_unionIJN9grpc_core19LoadBalancingPolicy10PickResult8CompleteENS5_5QueueENS5_4FailENS5_4DropEEEEEEDcOT0_ = comdat any

$_ZNSt8__detail9__variant7__get_nILm0ERNS0_15_Variadic_unionIJN9grpc_core19LoadBalancingPolicy10PickResult4DropEEEEEEDcOT0_ = comdat any

$_ZNRSt8__detail9__variant14_UninitializedIN9grpc_core19LoadBalancingPolicy10PickResult4DropELb0EE6_M_getEv = comdat any

$_ZN9__gnu_cxx16__aligned_membufIN9grpc_core19LoadBalancingPolicy10PickResult4DropEE6_M_ptrEv = comdat any

$_ZN9__gnu_cxx16__aligned_membufIN9grpc_core19LoadBalancingPolicy10PickResult4DropEE7_M_addrEv = comdat any

$_ZNSt10unique_ptrIN9grpc_core19LoadBalancingPolicy30SubchannelCallTrackerInterfaceESt14default_deleteIS2_EE11get_deleterEv = comdat any

$_ZNKSt14default_deleteIN9grpc_core19LoadBalancingPolicy30SubchannelCallTrackerInterfaceEEclEPS2_ = comdat any

$_ZNSt15__uniq_ptr_implIN9grpc_core19LoadBalancingPolicy30SubchannelCallTrackerInterfaceESt14default_deleteIS2_EE10_M_deleterEv = comdat any

$_ZSt3getILm1EJPN9grpc_core19LoadBalancingPolicy30SubchannelCallTrackerInterfaceESt14default_deleteIS2_EEERNSt13tuple_elementIXT_ESt5tupleIJDpT0_EEE4typeERSA_ = comdat any

$_ZSt12__get_helperILm1ESt14default_deleteIN9grpc_core19LoadBalancingPolicy30SubchannelCallTrackerInterfaceEEJEERT0_RSt11_Tuple_implIXT_EJS5_DpT1_EE = comdat any

$_ZNSt11_Tuple_implILm1EJSt14default_deleteIN9grpc_core19LoadBalancingPolicy30SubchannelCallTrackerInterfaceEEEE7_M_headERS5_ = comdat any

$_ZNSt10_Head_baseILm1ESt14default_deleteIN9grpc_core19LoadBalancingPolicy30SubchannelCallTrackerInterfaceEELb1EE7_M_headERS5_ = comdat any

$_ZNKSt17basic_string_viewIcSt11char_traitsIcEE6substrEmm = comdat any

$_ZNK4absl12lts_2023080210AllowEmptyclESt17basic_string_viewIcSt11char_traitsIcEE = comdat any

$_ZSt10__sv_checkmmPKc = comdat any

$_Z17grpc_closure_initP12grpc_closurePFvPvN4absl12lts_202308026StatusEES1_ = comdat any

$_ZNKSt19__shared_ptr_accessIN9grpc_core14WorkSerializerELN9__gnu_cxx12_Lock_policyE2ELb0ELb0EEptEv = comdat any

$_ZNSt8functionIFvvEED2Ev = comdat any

$_ZNKSt19__shared_ptr_accessIN9grpc_core14WorkSerializerELN9__gnu_cxx12_Lock_policyE2ELb0ELb0EE6_M_getEv = comdat any

$_ZNKSt12__shared_ptrIN9grpc_core14WorkSerializerELN9__gnu_cxx12_Lock_policyE2EE3getEv = comdat any

$_ZNSt14_Function_baseC2Ev = comdat any

$_ZNSt9_Any_data9_M_accessEv = comdat any

$_ZNKSt9_Any_data9_M_accessEv = comdat any

$_ZNSt9_Any_data9_M_accessIPKSt9type_infoEERT_v = comdat any

$_ZNSt14_Function_baseD2Ev = comdat any

$_ZNSt14_Optional_baseIN9grpc_core19LoadBalancingPolicy10PickResultELb0ELb0EEC2IJNS2_5QueueEETnNSt9enable_ifIX18is_constructible_vIS2_DpT_EEbE4typeELb0EEESt10in_place_tDpOS7_ = comdat any

$_ZNSt17_Optional_payloadIN9grpc_core19LoadBalancingPolicy10PickResultELb0ELb0ELb0EECI2St22_Optional_payload_baseIS2_EIJNS2_5QueueEEEESt10in_place_tDpOT_ = comdat any

$_ZNSt17_Optional_payloadIN9grpc_core19LoadBalancingPolicy10PickResultELb1ELb0ELb0EECI2St22_Optional_payload_baseIS2_EIJNS2_5QueueEEEESt10in_place_tDpOT_ = comdat any

$_ZNSt22_Optional_payload_baseIN9grpc_core19LoadBalancingPolicy10PickResultEEC2IJNS2_5QueueEEEESt10in_place_tDpOT_ = comdat any

$_ZNSt22_Optional_payload_baseIN9grpc_core19LoadBalancingPolicy10PickResultEE8_StorageIS2_Lb0EEC2IJNS2_5QueueEEEESt10in_place_tDpOT_ = comdat any

$_ZN9grpc_core19LoadBalancingPolicy10PickResultC2ENS1_5QueueE = comdat any

$_ZNSt7variantIJN9grpc_core19LoadBalancingPolicy10PickResult8CompleteENS2_5QueueENS2_4FailENS2_4DropEEEC2IRS4_vvS4_vEEOT_ = comdat any

$_ZNSt7variantIJN9grpc_core19LoadBalancingPolicy10PickResult8CompleteENS2_5QueueENS2_4FailENS2_4DropEEEC2ILm1EJRS4_ES4_vEESt16in_place_index_tIXT_EEDpOT0_ = comdat any

$_ZNSt8__detail9__variant13_Variant_baseIJN9grpc_core19LoadBalancingPolicy10PickResult8CompleteENS4_5QueueENS4_4FailENS4_4DropEEEC2ILm1EJRS6_EEESt16in_place_index_tIXT_EEDpOT0_ = comdat any

$_ZNSt8__detail9__variant17_Move_assign_baseILb0EJN9grpc_core19LoadBalancingPolicy10PickResult8CompleteENS4_5QueueENS4_4FailENS4_4DropEEECI2NS0_16_Variant_storageILb0EJS5_S6_S7_S8_EEEILm1EJRS6_EEESt16in_place_index_tIXT_EEDpOT0_ = comdat any

$_ZNSt8__detail9__variant17_Copy_assign_baseILb0EJN9grpc_core19LoadBalancingPolicy10PickResult8CompleteENS4_5QueueENS4_4FailENS4_4DropEEECI2NS0_16_Variant_storageILb0EJS5_S6_S7_S8_EEEILm1EJRS6_EEESt16in_place_index_tIXT_EEDpOT0_ = comdat any

$_ZNSt8__detail9__variant15_Move_ctor_baseILb0EJN9grpc_core19LoadBalancingPolicy10PickResult8CompleteENS4_5QueueENS4_4FailENS4_4DropEEECI2NS0_16_Variant_storageILb0EJS5_S6_S7_S8_EEEILm1EJRS6_EEESt16in_place_index_tIXT_EEDpOT0_ = comdat any

$_ZNSt8__detail9__variant15_Copy_ctor_baseILb0EJN9grpc_core19LoadBalancingPolicy10PickResult8CompleteENS4_5QueueENS4_4FailENS4_4DropEEECI2NS0_16_Variant_storageILb0EJS5_S6_S7_S8_EEEILm1EJRS6_EEESt16in_place_index_tIXT_EEDpOT0_ = comdat any

$_ZNSt8__detail9__variant16_Variant_storageILb0EJN9grpc_core19LoadBalancingPolicy10PickResult8CompleteENS4_5QueueENS4_4FailENS4_4DropEEEC2ILm1EJRS6_EEESt16in_place_index_tIXT_EEDpOT0_ = comdat any

$_ZNSt8__detail9__variant15_Variadic_unionIJN9grpc_core19LoadBalancingPolicy10PickResult8CompleteENS4_5QueueENS4_4FailENS4_4DropEEEC2ILm1EJRS6_EEESt16in_place_index_tIXT_EEDpOT0_ = comdat any

$_ZNSt8__detail9__variant15_Variadic_unionIJN9grpc_core19LoadBalancingPolicy10PickResult5QueueENS4_4FailENS4_4DropEEEC2IJRS5_EEESt16in_place_index_tILm0EEDpOT_ = comdat any

$_ZNSt8__detail9__variant14_UninitializedIN9grpc_core19LoadBalancingPolicy10PickResult5QueueELb1EEC2IJRS5_EEESt16in_place_index_tILm0EEDpOT_ = comdat any

$_ZNKSt19_Optional_base_implIN9grpc_core19LoadBalancingPolicy10PickResultESt14_Optional_baseIS2_Lb0ELb0EEE13_M_is_engagedEv = comdat any

$_ZNSt19_Optional_base_implIN9grpc_core19LoadBalancingPolicy10PickResultESt14_Optional_baseIS2_Lb0ELb0EEE6_M_getEv = comdat any

$_ZNSt22_Optional_payload_baseIN9grpc_core19LoadBalancingPolicy10PickResultEE6_M_getEv = comdat any

$_ZNSt7variantIJN9grpc_core19LoadBalancingPolicy10PickResult8CompleteENS2_5QueueENS2_4FailENS2_4DropEEEC2EOS7_ = comdat any

$_ZNSt8__detail9__variant13_Variant_baseIJN9grpc_core19LoadBalancingPolicy10PickResult8CompleteENS4_5QueueENS4_4FailENS4_4DropEEEC2EOS9_ = comdat any

$_ZNSt8__detail9__variant17_Move_assign_baseILb0EJN9grpc_core19LoadBalancingPolicy10PickResult8CompleteENS4_5QueueENS4_4FailENS4_4DropEEEC2EOS9_ = comdat any

$_ZNSt8__detail9__variant17_Copy_assign_baseILb0EJN9grpc_core19LoadBalancingPolicy10PickResult8CompleteENS4_5QueueENS4_4FailENS4_4DropEEEC2EOS9_ = comdat any

$_ZNSt8__detail9__variant15_Move_ctor_baseILb0EJN9grpc_core19LoadBalancingPolicy10PickResult8CompleteENS4_5QueueENS4_4FailENS4_4DropEEEC2EOS9_ = comdat any

$_ZNSt8__detail9__variant15_Copy_ctor_baseILb0EJN9grpc_core19LoadBalancingPolicy10PickResult8CompleteENS4_5QueueENS4_4FailENS4_4DropEEEC2Ev = comdat any

$_ZNSt8__detail9__variant15__raw_idx_visitIZNS0_15_Move_ctor_baseILb0EJN9grpc_core19LoadBalancingPolicy10PickResult8CompleteENS5_5QueueENS5_4FailENS5_4DropEEEC1EOSA_EUlOT_T0_E_JSt7variantIJS6_S7_S8_S9_EEEEEvSD_DpOT0_ = comdat any

$_ZSt14__variant_castIJN9grpc_core19LoadBalancingPolicy10PickResult8CompleteENS2_5QueueENS2_4FailENS2_4DropEENSt8__detail9__variant15_Move_ctor_baseILb0EJS3_S4_S5_S6_EEEEDcOT0_ = comdat any

$_ZNSt8__detail9__variant16_Variant_storageILb0EJN9grpc_core19LoadBalancingPolicy10PickResult8CompleteENS4_5QueueENS4_4FailENS4_4DropEEEC2Ev = comdat any

$_ZNSt8__detail9__variant15_Variadic_unionIJN9grpc_core19LoadBalancingPolicy10PickResult8CompleteENS4_5QueueENS4_4FailENS4_4DropEEEC2Ev = comdat any

$_ZNSt8__detail9__variant15_Variadic_unionIJN9grpc_core19LoadBalancingPolicy10PickResult5QueueENS4_4FailENS4_4DropEEEC2Ev = comdat any

$_ZNSt8__detail9__variant15_Variadic_unionIJN9grpc_core19LoadBalancingPolicy10PickResult4FailENS4_4DropEEEC2Ev = comdat any

$_ZNSt8__detail9__variant15_Variadic_unionIJN9grpc_core19LoadBalancingPolicy10PickResult4DropEEEC2Ev = comdat any

$_ZSt10__do_visitINSt8__detail9__variant20__variant_idx_cookieEZNS1_15_Move_ctor_baseILb0EJN9grpc_core19LoadBalancingPolicy10PickResult8CompleteENS6_5QueueENS6_4FailENS6_4DropEEEC1EOSB_EUlOT_T0_E_JSt7variantIJS7_S8_S9_SA_EEEEDcOSF_DpOT1_ = comdat any

$_ZZSt10__do_visitINSt8__detail9__variant20__variant_idx_cookieEZNS1_15_Move_ctor_baseILb0EJN9grpc_core19LoadBalancingPolicy10PickResult8CompleteENS6_5QueueENS6_4FailENS6_4DropEEEC1EOSB_EUlOT_T0_E_JSt7variantIJS7_S8_S9_SA_EEEEDcOSF_DpOT1_ENKUlRSI_zE_clESN_z = comdat any

$_ZNSt8__detail9__variant17__gen_vtable_implINS0_12_Multi_arrayIPFNS0_20__variant_idx_cookieEOZNS0_15_Move_ctor_baseILb0EJN9grpc_core19LoadBalancingPolicy10PickResult8CompleteENS7_5QueueENS7_4FailENS7_4DropEEEC1EOSC_EUlOT_T0_E_OSt7variantIJS8_S9_SA_SB_EEEJEEESt16integer_sequenceImJLm0EEEE14__visit_invokeESI_SL_ = comdat any

$_ZNSt8__detail9__variant17__gen_vtable_implINS0_12_Multi_arrayIPFNS0_20__variant_idx_cookieEOZNS0_15_Move_ctor_baseILb0EJN9grpc_core19LoadBalancingPolicy10PickResult8CompleteENS7_5QueueENS7_4FailENS7_4DropEEEC1EOSC_EUlOT_T0_E_OSt7variantIJS8_S9_SA_SB_EEEJEEESt16integer_sequenceImJLm1EEEE14__visit_invokeESI_SL_ = comdat any

$_ZNSt8__detail9__variant17__gen_vtable_implINS0_12_Multi_arrayIPFNS0_20__variant_idx_cookieEOZNS0_15_Move_ctor_baseILb0EJN9grpc_core19LoadBalancingPolicy10PickResult8CompleteENS7_5QueueENS7_4FailENS7_4DropEEEC1EOSC_EUlOT_T0_E_OSt7variantIJS8_S9_SA_SB_EEEJEEESt16integer_sequenceImJLm2EEEE14__visit_invokeESI_SL_ = comdat any

$_ZNSt8__detail9__variant17__gen_vtable_implINS0_12_Multi_arrayIPFNS0_20__variant_idx_cookieEOZNS0_15_Move_ctor_baseILb0EJN9grpc_core19LoadBalancingPolicy10PickResult8CompleteENS7_5QueueENS7_4FailENS7_4DropEEEC1EOSC_EUlOT_T0_E_OSt7variantIJS8_S9_SA_SB_EEEJEEESt16integer_sequenceImJLm3EEEE14__visit_invokeESI_SL_ = comdat any

$_ZNSt8__detail9__variant17__gen_vtable_implINS0_12_Multi_arrayIPFNS0_20__variant_idx_cookieEOZNS0_15_Move_ctor_baseILb0EJN9grpc_core19LoadBalancingPolicy10PickResult8CompleteENS7_5QueueENS7_4FailENS7_4DropEEEC1EOSC_EUlOT_T0_E_OSt7variantIJS8_S9_SA_SB_EEEJEEESt16integer_sequenceImJLm18446744073709551615EEEE14__visit_invokeESI_SL_ = comdat any

$_ZSt8__invokeIZNSt8__detail9__variant15_Move_ctor_baseILb0EJN9grpc_core19LoadBalancingPolicy10PickResult8CompleteENS5_5QueueENS5_4FailENS5_4DropEEEC1EOSA_EUlOT_T0_E_JS6_St17integral_constantImLm0EEEENSt15__invoke_resultISC_JDpT0_EE4typeESD_DpOSJ_ = comdat any

$_ZNSt8__detail9__variant17__gen_vtable_implINS0_12_Multi_arrayIPFNS0_20__variant_idx_cookieEOZNS0_15_Move_ctor_baseILb0EJN9grpc_core19LoadBalancingPolicy10PickResult8CompleteENS7_5QueueENS7_4FailENS7_4DropEEEC1EOSC_EUlOT_T0_E_OSt7variantIJS8_S9_SA_SB_EEEJEEESt16integer_sequenceImJLm0EEEE28__element_by_index_or_cookieILm0ESK_EEDcOSG_ = comdat any

$_ZSt13__invoke_implIvZNSt8__detail9__variant15_Move_ctor_baseILb0EJN9grpc_core19LoadBalancingPolicy10PickResult8CompleteENS5_5QueueENS5_4FailENS5_4DropEEEC1EOSA_EUlOT_T0_E_JS6_St17integral_constantImLm0EEEESC_St14__invoke_otherOSE_DpOT1_ = comdat any

$_ZZNSt8__detail9__variant15_Move_ctor_baseILb0EJN9grpc_core19LoadBalancingPolicy10PickResult8CompleteENS4_5QueueENS4_4FailENS4_4DropEEEC1EOS9_ENUlOT_T0_E_clIS5_St17integral_constantImLm0EEEEDaSC_SD_ = comdat any

$_ZSt10_ConstructINSt8__detail9__variant15_Variadic_unionIJN9grpc_core19LoadBalancingPolicy10PickResult8CompleteENS5_5QueueENS5_4FailENS5_4DropEEEEJRKSt16in_place_index_tILm0EES6_EEvPT_DpOT0_ = comdat any

$_ZNSt8__detail9__variant5__getILm0ESt7variantIJN9grpc_core19LoadBalancingPolicy10PickResult8CompleteENS5_5QueueENS5_4FailENS5_4DropEEEEEDcOT0_ = comdat any

$_ZNSt8__detail9__variant7__get_nILm0ENS0_15_Variadic_unionIJN9grpc_core19LoadBalancingPolicy10PickResult8CompleteENS5_5QueueENS5_4FailENS5_4DropEEEEEEDcOT0_ = comdat any

$_ZNOSt8__detail9__variant14_UninitializedIN9grpc_core19LoadBalancingPolicy10PickResult8CompleteELb0EE6_M_getEv = comdat any

$_ZSt8__invokeIZNSt8__detail9__variant15_Move_ctor_baseILb0EJN9grpc_core19LoadBalancingPolicy10PickResult8CompleteENS5_5QueueENS5_4FailENS5_4DropEEEC1EOSA_EUlOT_T0_E_JS7_St17integral_constantImLm1EEEENSt15__invoke_resultISC_JDpT0_EE4typeESD_DpOSJ_ = comdat any

$_ZNSt8__detail9__variant17__gen_vtable_implINS0_12_Multi_arrayIPFNS0_20__variant_idx_cookieEOZNS0_15_Move_ctor_baseILb0EJN9grpc_core19LoadBalancingPolicy10PickResult8CompleteENS7_5QueueENS7_4FailENS7_4DropEEEC1EOSC_EUlOT_T0_E_OSt7variantIJS8_S9_SA_SB_EEEJEEESt16integer_sequenceImJLm1EEEE28__element_by_index_or_cookieILm1ESK_EEDcOSG_ = comdat any

$_ZSt13__invoke_implIvZNSt8__detail9__variant15_Move_ctor_baseILb0EJN9grpc_core19LoadBalancingPolicy10PickResult8CompleteENS5_5QueueENS5_4FailENS5_4DropEEEC1EOSA_EUlOT_T0_E_JS7_St17integral_constantImLm1EEEESC_St14__invoke_otherOSE_DpOT1_ = comdat any

$_ZZNSt8__detail9__variant15_Move_ctor_baseILb0EJN9grpc_core19LoadBalancingPolicy10PickResult8CompleteENS4_5QueueENS4_4FailENS4_4DropEEEC1EOS9_ENUlOT_T0_E_clIS6_St17integral_constantImLm1EEEEDaSC_SD_ = comdat any

$_ZSt10_ConstructINSt8__detail9__variant15_Variadic_unionIJN9grpc_core19LoadBalancingPolicy10PickResult8CompleteENS5_5QueueENS5_4FailENS5_4DropEEEEJRKSt16in_place_index_tILm1EES7_EEvPT_DpOT0_ = comdat any

$_ZNSt8__detail9__variant15_Variadic_unionIJN9grpc_core19LoadBalancingPolicy10PickResult8CompleteENS4_5QueueENS4_4FailENS4_4DropEEEC2ILm1EJS6_EEESt16in_place_index_tIXT_EEDpOT0_ = comdat any

$_ZNSt8__detail9__variant15_Variadic_unionIJN9grpc_core19LoadBalancingPolicy10PickResult5QueueENS4_4FailENS4_4DropEEEC2IJS5_EEESt16in_place_index_tILm0EEDpOT_ = comdat any

$_ZNSt8__detail9__variant14_UninitializedIN9grpc_core19LoadBalancingPolicy10PickResult5QueueELb1EEC2IJS5_EEESt16in_place_index_tILm0EEDpOT_ = comdat any

$_ZNSt8__detail9__variant5__getILm1ESt7variantIJN9grpc_core19LoadBalancingPolicy10PickResult8CompleteENS5_5QueueENS5_4FailENS5_4DropEEEEEDcOT0_ = comdat any

$_ZNSt8__detail9__variant7__get_nILm1ENS0_15_Variadic_unionIJN9grpc_core19LoadBalancingPolicy10PickResult8CompleteENS5_5QueueENS5_4FailENS5_4DropEEEEEEDcOT0_ = comdat any

$_ZNOSt8__detail9__variant14_UninitializedIN9grpc_core19LoadBalancingPolicy10PickResult5QueueELb1EE6_M_getEv = comdat any

$_ZSt8__invokeIZNSt8__detail9__variant15_Move_ctor_baseILb0EJN9grpc_core19LoadBalancingPolicy10PickResult8CompleteENS5_5QueueENS5_4FailENS5_4DropEEEC1EOSA_EUlOT_T0_E_JS8_St17integral_constantImLm2EEEENSt15__invoke_resultISC_JDpT0_EE4typeESD_DpOSJ_ = comdat any

$_ZNSt8__detail9__variant17__gen_vtable_implINS0_12_Multi_arrayIPFNS0_20__variant_idx_cookieEOZNS0_15_Move_ctor_baseILb0EJN9grpc_core19LoadBalancingPolicy10PickResult8CompleteENS7_5QueueENS7_4FailENS7_4DropEEEC1EOSC_EUlOT_T0_E_OSt7variantIJS8_S9_SA_SB_EEEJEEESt16integer_sequenceImJLm2EEEE28__element_by_index_or_cookieILm2ESK_EEDcOSG_ = comdat any

$_ZSt13__invoke_implIvZNSt8__detail9__variant15_Move_ctor_baseILb0EJN9grpc_core19LoadBalancingPolicy10PickResult8CompleteENS5_5QueueENS5_4FailENS5_4DropEEEC1EOSA_EUlOT_T0_E_JS8_St17integral_constantImLm2EEEESC_St14__invoke_otherOSE_DpOT1_ = comdat any

$_ZZNSt8__detail9__variant15_Move_ctor_baseILb0EJN9grpc_core19LoadBalancingPolicy10PickResult8CompleteENS4_5QueueENS4_4FailENS4_4DropEEEC1EOS9_ENUlOT_T0_E_clIS7_St17integral_constantImLm2EEEEDaSC_SD_ = comdat any

$_ZSt10_ConstructINSt8__detail9__variant15_Variadic_unionIJN9grpc_core19LoadBalancingPolicy10PickResult8CompleteENS5_5QueueENS5_4FailENS5_4DropEEEEJRKSt16in_place_index_tILm2EES8_EEvPT_DpOT0_ = comdat any

$_ZNSt8__detail9__variant15_Variadic_unionIJN9grpc_core19LoadBalancingPolicy10PickResult8CompleteENS4_5QueueENS4_4FailENS4_4DropEEEC2ILm2EJS7_EEESt16in_place_index_tIXT_EEDpOT0_ = comdat any

$_ZNSt8__detail9__variant15_Variadic_unionIJN9grpc_core19LoadBalancingPolicy10PickResult5QueueENS4_4FailENS4_4DropEEEC2ILm1EJS6_EEESt16in_place_index_tIXT_EEDpOT0_ = comdat any

$_ZNSt8__detail9__variant15_Variadic_unionIJN9grpc_core19LoadBalancingPolicy10PickResult4FailENS4_4DropEEEC2IJS5_EEESt16in_place_index_tILm0EEDpOT_ = comdat any

$_ZNSt8__detail9__variant14_UninitializedIN9grpc_core19LoadBalancingPolicy10PickResult4FailELb0EEC2IJS5_EEESt16in_place_index_tILm0EEDpOT_ = comdat any

$_ZN9grpc_core19LoadBalancingPolicy10PickResult4FailC2EOS2_ = comdat any

$_ZN4absl12lts_202308026StatusC2EOS1_ = comdat any

$_ZNSt8__detail9__variant5__getILm2ESt7variantIJN9grpc_core19LoadBalancingPolicy10PickResult8CompleteENS5_5QueueENS5_4FailENS5_4DropEEEEEDcOT0_ = comdat any

$_ZNSt8__detail9__variant7__get_nILm2ENS0_15_Variadic_unionIJN9grpc_core19LoadBalancingPolicy10PickResult8CompleteENS5_5QueueENS5_4FailENS5_4DropEEEEEEDcOT0_ = comdat any

$_ZNOSt8__detail9__variant14_UninitializedIN9grpc_core19LoadBalancingPolicy10PickResult4FailELb0EE6_M_getEv = comdat any

$_ZSt8__invokeIZNSt8__detail9__variant15_Move_ctor_baseILb0EJN9grpc_core19LoadBalancingPolicy10PickResult8CompleteENS5_5QueueENS5_4FailENS5_4DropEEEC1EOSA_EUlOT_T0_E_JS9_St17integral_constantImLm3EEEENSt15__invoke_resultISC_JDpT0_EE4typeESD_DpOSJ_ = comdat any

$_ZNSt8__detail9__variant17__gen_vtable_implINS0_12_Multi_arrayIPFNS0_20__variant_idx_cookieEOZNS0_15_Move_ctor_baseILb0EJN9grpc_core19LoadBalancingPolicy10PickResult8CompleteENS7_5QueueENS7_4FailENS7_4DropEEEC1EOSC_EUlOT_T0_E_OSt7variantIJS8_S9_SA_SB_EEEJEEESt16integer_sequenceImJLm3EEEE28__element_by_index_or_cookieILm3ESK_EEDcOSG_ = comdat any

$_ZSt13__invoke_implIvZNSt8__detail9__variant15_Move_ctor_baseILb0EJN9grpc_core19LoadBalancingPolicy10PickResult8CompleteENS5_5QueueENS5_4FailENS5_4DropEEEC1EOSA_EUlOT_T0_E_JS9_St17integral_constantImLm3EEEESC_St14__invoke_otherOSE_DpOT1_ = comdat any

$_ZZNSt8__detail9__variant15_Move_ctor_baseILb0EJN9grpc_core19LoadBalancingPolicy10PickResult8CompleteENS4_5QueueENS4_4FailENS4_4DropEEEC1EOS9_ENUlOT_T0_E_clIS8_St17integral_constantImLm3EEEEDaSC_SD_ = comdat any

$_ZSt10_ConstructINSt8__detail9__variant15_Variadic_unionIJN9grpc_core19LoadBalancingPolicy10PickResult8CompleteENS5_5QueueENS5_4FailENS5_4DropEEEEJRKSt16in_place_index_tILm3EES9_EEvPT_DpOT0_ = comdat any

$_ZNSt8__detail9__variant15_Variadic_unionIJN9grpc_core19LoadBalancingPolicy10PickResult8CompleteENS4_5QueueENS4_4FailENS4_4DropEEEC2ILm3EJS8_EEESt16in_place_index_tIXT_EEDpOT0_ = comdat any

$_ZNSt8__detail9__variant15_Variadic_unionIJN9grpc_core19LoadBalancingPolicy10PickResult5QueueENS4_4FailENS4_4DropEEEC2ILm2EJS7_EEESt16in_place_index_tIXT_EEDpOT0_ = comdat any

$_ZNSt8__detail9__variant15_Variadic_unionIJN9grpc_core19LoadBalancingPolicy10PickResult4FailENS4_4DropEEEC2ILm1EJS6_EEESt16in_place_index_tIXT_EEDpOT0_ = comdat any

$_ZNSt8__detail9__variant15_Variadic_unionIJN9grpc_core19LoadBalancingPolicy10PickResult4DropEEEC2IJS5_EEESt16in_place_index_tILm0EEDpOT_ = comdat any

$_ZNSt8__detail9__variant14_UninitializedIN9grpc_core19LoadBalancingPolicy10PickResult4DropELb0EEC2IJS5_EEESt16in_place_index_tILm0EEDpOT_ = comdat any

$_ZN9grpc_core19LoadBalancingPolicy10PickResult4DropC2EOS2_ = comdat any

$_ZNSt8__detail9__variant5__getILm3ESt7variantIJN9grpc_core19LoadBalancingPolicy10PickResult8CompleteENS5_5QueueENS5_4FailENS5_4DropEEEEEDcOT0_ = comdat any

$_ZNSt8__detail9__variant7__get_nILm3ENS0_15_Variadic_unionIJN9grpc_core19LoadBalancingPolicy10PickResult8CompleteENS5_5QueueENS5_4FailENS5_4DropEEEEEEDcOT0_ = comdat any

$_ZNSt8__detail9__variant7__get_nILm0ENS0_15_Variadic_unionIJN9grpc_core19LoadBalancingPolicy10PickResult4DropEEEEEEDcOT0_ = comdat any

$_ZNOSt8__detail9__variant14_UninitializedIN9grpc_core19LoadBalancingPolicy10PickResult4DropELb0EE6_M_getEv = comdat any

$_ZSt8__invokeIZNSt8__detail9__variant15_Move_ctor_baseILb0EJN9grpc_core19LoadBalancingPolicy10PickResult8CompleteENS5_5QueueENS5_4FailENS5_4DropEEEC1EOSA_EUlOT_T0_E_JNS1_16__variant_cookieESt17integral_constantImLm18446744073709551615EEEENSt15__invoke_resultISC_JDpT0_EE4typeESD_DpOSK_ = comdat any

$_ZNSt8__detail9__variant17__gen_vtable_implINS0_12_Multi_arrayIPFNS0_20__variant_idx_cookieEOZNS0_15_Move_ctor_baseILb0EJN9grpc_core19LoadBalancingPolicy10PickResult8CompleteENS7_5QueueENS7_4FailENS7_4DropEEEC1EOSC_EUlOT_T0_E_OSt7variantIJS8_S9_SA_SB_EEEJEEESt16integer_sequenceImJLm18446744073709551615EEEE28__element_by_index_or_cookieILm18446744073709551615ESK_EEDcOSG_ = comdat any

$_ZSt13__invoke_implIvZNSt8__detail9__variant15_Move_ctor_baseILb0EJN9grpc_core19LoadBalancingPolicy10PickResult8CompleteENS5_5QueueENS5_4FailENS5_4DropEEEC1EOSA_EUlOT_T0_E_JNS1_16__variant_cookieESt17integral_constantImLm18446744073709551615EEEESC_St14__invoke_otherOSE_DpOT1_ = comdat any

$_ZZNSt8__detail9__variant15_Move_ctor_baseILb0EJN9grpc_core19LoadBalancingPolicy10PickResult8CompleteENS4_5QueueENS4_4FailENS4_4DropEEEC1EOS9_ENUlOT_T0_E_clINS0_16__variant_cookieESt17integral_constantImLm18446744073709551615EEEEDaSC_SD_ = comdat any

$_ZNSt14_Optional_baseIN9grpc_core19LoadBalancingPolicy10PickResultELb0ELb0EED2Ev = comdat any

$_ZNSt17_Optional_payloadIN9grpc_core19LoadBalancingPolicy10PickResultELb0ELb0ELb0EED2Ev = comdat any

$_ZNSt22_Optional_payload_baseIN9grpc_core19LoadBalancingPolicy10PickResultEE8_M_resetEv = comdat any

$_ZNSt17_Optional_payloadIN9grpc_core19LoadBalancingPolicy10PickResultELb1ELb0ELb0EED2Ev = comdat any

$_ZNSt22_Optional_payload_baseIN9grpc_core19LoadBalancingPolicy10PickResultEE10_M_destroyEv = comdat any

$_ZNSt22_Optional_payload_baseIN9grpc_core19LoadBalancingPolicy10PickResultEED2Ev = comdat any

$_ZNSt22_Optional_payload_baseIN9grpc_core19LoadBalancingPolicy10PickResultEE8_StorageIS2_Lb0EED2Ev = comdat any

$_ZNSt7variantIJN9grpc_core19LoadBalancingPolicy10PickResult8CompleteENS2_5QueueENS2_4FailENS2_4DropEEEC2IS5_vvS5_vEEOT_ = comdat any

$_ZNSt7variantIJN9grpc_core19LoadBalancingPolicy10PickResult8CompleteENS2_5QueueENS2_4FailENS2_4DropEEEC2ILm2EJS5_ES5_vEESt16in_place_index_tIXT_EEDpOT0_ = comdat any

$_ZNSt8__detail9__variant13_Variant_baseIJN9grpc_core19LoadBalancingPolicy10PickResult8CompleteENS4_5QueueENS4_4FailENS4_4DropEEEC2ILm2EJS7_EEESt16in_place_index_tIXT_EEDpOT0_ = comdat any

$_ZNSt8__detail9__variant17_Move_assign_baseILb0EJN9grpc_core19LoadBalancingPolicy10PickResult8CompleteENS4_5QueueENS4_4FailENS4_4DropEEECI2NS0_16_Variant_storageILb0EJS5_S6_S7_S8_EEEILm2EJS7_EEESt16in_place_index_tIXT_EEDpOT0_ = comdat any

$_ZNSt8__detail9__variant17_Copy_assign_baseILb0EJN9grpc_core19LoadBalancingPolicy10PickResult8CompleteENS4_5QueueENS4_4FailENS4_4DropEEECI2NS0_16_Variant_storageILb0EJS5_S6_S7_S8_EEEILm2EJS7_EEESt16in_place_index_tIXT_EEDpOT0_ = comdat any

$_ZNSt8__detail9__variant15_Move_ctor_baseILb0EJN9grpc_core19LoadBalancingPolicy10PickResult8CompleteENS4_5QueueENS4_4FailENS4_4DropEEECI2NS0_16_Variant_storageILb0EJS5_S6_S7_S8_EEEILm2EJS7_EEESt16in_place_index_tIXT_EEDpOT0_ = comdat any

$_ZNSt8__detail9__variant15_Copy_ctor_baseILb0EJN9grpc_core19LoadBalancingPolicy10PickResult8CompleteENS4_5QueueENS4_4FailENS4_4DropEEECI2NS0_16_Variant_storageILb0EJS5_S6_S7_S8_EEEILm2EJS7_EEESt16in_place_index_tIXT_EEDpOT0_ = comdat any

$_ZNSt8__detail9__variant16_Variant_storageILb0EJN9grpc_core19LoadBalancingPolicy10PickResult8CompleteENS4_5QueueENS4_4FailENS4_4DropEEEC2ILm2EJS7_EEESt16in_place_index_tIXT_EEDpOT0_ = comdat any

$_ZSt6get_ifILm0EJN9grpc_core19LoadBalancingPolicy10PickResult8CompleteENS2_5QueueENS2_4FailENS2_4DropEEENSt11add_pointerINSt19variant_alternativeIXT_ESt7variantIJDpT0_EEE4typeEE4typeEPSC_ = comdat any

$_ZNKSt19_Optional_base_implINSt7__cxx1112basic_stringIcSt11char_traitsIcESaIcEEESt14_Optional_baseIS5_Lb0ELb0EEE6_M_getEv = comdat any

$_ZNKSt22_Optional_payload_baseINSt7__cxx1112basic_stringIcSt11char_traitsIcESaIcEEEE6_M_getEv = comdat any

$_ZN9grpc_core21RefCountedStringValueC2ERKS0_ = comdat any

$_ZN9grpc_core13RefCountedPtrINS_16RefCountedStringEEC2ERKS2_ = comdat any

$_ZN9grpc_core16RefCountedString17IncrementRefCountEv = comdat any

$_ZN9grpc_core8RefCount3RefEl = comdat any

$_ZN9grpc_core13RefCountedPtrINS_19SubchannelInterfaceEE5resetEPS1_ = comdat any

$_ZSt8exchangeIPN9grpc_core19SubchannelInterfaceERS2_ET_RS4_OT0_ = comdat any

$_ZSt10__exchangeIPN9grpc_core19SubchannelInterfaceERS2_ET_RS4_OT0_ = comdat any

$_ZNSt7variantIJN9grpc_core19LoadBalancingPolicy10PickResult8CompleteENS2_5QueueENS2_4FailENS2_4DropEEED2Ev = comdat any

$_ZNSt19_Optional_base_implINSt7__cxx1112basic_stringIcSt11char_traitsIcESaIcEEESt14_Optional_baseIS5_Lb0ELb0EEE6_M_getEv = comdat any

$_ZNSt22_Optional_payload_baseINSt7__cxx1112basic_stringIcSt11char_traitsIcESaIcEEEE6_M_getEv = comdat any

$_ZSt8_DestroyIPPN9grpc_core19SubchannelInterface33ConnectivityStateWatcherInterfaceES3_EvT_S5_RSaIT0_E = comdat any

$_ZNSt12_Vector_baseIPN9grpc_core19SubchannelInterface33ConnectivityStateWatcherInterfaceESaIS3_EED2Ev = comdat any

$_ZSt8_DestroyIPPN9grpc_core19SubchannelInterface33ConnectivityStateWatcherInterfaceEEvT_S5_ = comdat any

$_ZNSt12_Destroy_auxILb1EE9__destroyIPPN9grpc_core19SubchannelInterface33ConnectivityStateWatcherInterfaceEEEvT_S7_ = comdat any

$_ZNSt12_Vector_baseIPN9grpc_core19SubchannelInterface33ConnectivityStateWatcherInterfaceESaIS3_EE12_Vector_implD2Ev = comdat any

$_ZNSaIPN9grpc_core19SubchannelInterface33ConnectivityStateWatcherInterfaceEED2Ev = comdat any

$_ZNSt15__new_allocatorIPN9grpc_core19SubchannelInterface33ConnectivityStateWatcherInterfaceEED2Ev = comdat any

$_ZN4absl12lts_202308026Status3RefEm = comdat any

$_ZN9grpc_core13RefCountedPtrINS_19SubchannelInterfaceEEC2ERKS2_ = comdat any

$_ZNSt10_Head_baseILm0EPN9grpc_core19SubchannelInterface33ConnectivityStateWatcherInterfaceELb0EEC2IRS3_EEOT_ = comdat any

$_ZNSt10unique_ptrIN9grpc_core19SubchannelInterface33ConnectivityStateWatcherInterfaceESt14default_deleteIS2_EE11get_deleterEv = comdat any

$_ZNKSt14default_deleteIN9grpc_core19SubchannelInterface33ConnectivityStateWatcherInterfaceEEclEPS2_ = comdat any

$_ZNSt15__uniq_ptr_implIN9grpc_core19SubchannelInterface33ConnectivityStateWatcherInterfaceESt14default_deleteIS2_EE10_M_deleterEv = comdat any

$_ZSt3getILm1EJPN9grpc_core19SubchannelInterface33ConnectivityStateWatcherInterfaceESt14default_deleteIS2_EEERNSt13tuple_elementIXT_ESt5tupleIJDpT0_EEE4typeERSA_ = comdat any

$_ZSt12__get_helperILm1ESt14default_deleteIN9grpc_core19SubchannelInterface33ConnectivityStateWatcherInterfaceEEJEERT0_RSt11_Tuple_implIXT_EJS5_DpT1_EE = comdat any

$_ZNSt11_Tuple_implILm1EJSt14default_deleteIN9grpc_core19SubchannelInterface33ConnectivityStateWatcherInterfaceEEEE7_M_headERS5_ = comdat any

$_ZNSt10_Head_baseILm1ESt14default_deleteIN9grpc_core19SubchannelInterface33ConnectivityStateWatcherInterfaceEELb1EE7_M_headERS5_ = comdat any

$_ZNSt16allocator_traitsISaISt13_Rb_tree_nodeISt10unique_ptrIN9grpc_core19SubchannelInterface33ConnectivityStateWatcherInterfaceESt14default_deleteIS4_EEEEE7destroyIS7_EEvRS9_PT_ = comdat any

$_ZNSt13_Rb_tree_nodeISt10unique_ptrIN9grpc_core19SubchannelInterface33ConnectivityStateWatcherInterfaceESt14default_deleteIS3_EEE9_M_valptrEv = comdat any

$_ZNSt15__new_allocatorISt13_Rb_tree_nodeISt10unique_ptrIN9grpc_core19SubchannelInterface33ConnectivityStateWatcherInterfaceESt14default_deleteIS4_EEEE7destroyIS7_EEvPT_ = comdat any

$_ZN9__gnu_cxx16__aligned_membufISt10unique_ptrIN9grpc_core19SubchannelInterface33ConnectivityStateWatcherInterfaceESt14default_deleteIS4_EEE6_M_ptrEv = comdat any

$_ZN9__gnu_cxx16__aligned_membufISt10unique_ptrIN9grpc_core19SubchannelInterface33ConnectivityStateWatcherInterfaceESt14default_deleteIS4_EEE7_M_addrEv = comdat any

$_ZNSt16allocator_traitsISaISt13_Rb_tree_nodeISt10unique_ptrIN9grpc_core19SubchannelInterface33ConnectivityStateWatcherInterfaceESt14default_deleteIS4_EEEEE10deallocateERS9_PS8_m = comdat any

$_ZNSt15__new_allocatorISt13_Rb_tree_nodeISt10unique_ptrIN9grpc_core19SubchannelInterface33ConnectivityStateWatcherInterfaceESt14default_deleteIS4_EEEE10deallocateEPS8_m = comdat any

$_ZNSaISt13_Rb_tree_nodeISt10unique_ptrIN9grpc_core19SubchannelInterface33ConnectivityStateWatcherInterfaceESt14default_deleteIS3_EEEED2Ev = comdat any

$_ZNSt15__new_allocatorISt13_Rb_tree_nodeISt10unique_ptrIN9grpc_core19SubchannelInterface33ConnectivityStateWatcherInterfaceESt14default_deleteIS4_EEEED2Ev = comdat any

$_ZNSt14_Optional_baseINSt7__cxx1112basic_stringIcSt11char_traitsIcESaIcEEELb0ELb0EED2Ev = comdat any

$_ZNSt17_Optional_payloadINSt7__cxx1112basic_stringIcSt11char_traitsIcESaIcEEELb0ELb0ELb0EED2Ev = comdat any

$_ZNSt22_Optional_payload_baseINSt7__cxx1112basic_stringIcSt11char_traitsIcESaIcEEEE8_M_resetEv = comdat any

$_ZNSt17_Optional_payloadINSt7__cxx1112basic_stringIcSt11char_traitsIcESaIcEEELb1ELb0ELb0EED2Ev = comdat any

$_ZNSt22_Optional_payload_baseINSt7__cxx1112basic_stringIcSt11char_traitsIcESaIcEEEE10_M_destroyEv = comdat any

$_ZNSt22_Optional_payload_baseINSt7__cxx1112basic_stringIcSt11char_traitsIcESaIcEEEED2Ev = comdat any

$_ZNSt22_Optional_payload_baseINSt7__cxx1112basic_stringIcSt11char_traitsIcESaIcEEEE8_StorageIS5_Lb0EED2Ev = comdat any

$_ZN9grpc_core31IsWorkSerializerDispatchEnabledEv = comdat any

$_ZNSt8optionalINSt7__cxx1112basic_stringIcSt11char_traitsIcESaIcEEEE5resetEv = comdat any

$_ZNSt19_Optional_base_implINSt7__cxx1112basic_stringIcSt11char_traitsIcESaIcEEESt14_Optional_baseIS5_Lb0ELb0EEE8_M_resetEv = comdat any

$_ZNSt4pairISt23_Rb_tree_const_iteratorISt10unique_ptrIN9grpc_core19SubchannelInterface33ConnectivityStateWatcherInterfaceESt14default_deleteIS4_EEEbEC2IRSt17_Rb_tree_iteratorIS7_ERbTnNSt9enable_ifIXaaclsr5_PCCPE22_MoveConstructiblePairIT_T0_EEclsr5_PCCPE30_ImplicitlyMoveConvertiblePairISG_SH_EEEbE4typeELb1EEEOSG_OSH_ = comdat any

$_ZNKSt9_IdentityISt10unique_ptrIN9grpc_core19SubchannelInterface33ConnectivityStateWatcherInterfaceESt14default_deleteIS3_EEEclERS6_ = comdat any

$_ZNSt4pairISt17_Rb_tree_iteratorISt10unique_ptrIN9grpc_core19SubchannelInterface33ConnectivityStateWatcherInterfaceESt14default_deleteIS4_EEEbEC2IS8_bTnNSt9enable_ifIXaaclsr5_PCCPE22_MoveConstructiblePairIT_T0_EEclsr5_PCCPE30_ImplicitlyMoveConvertiblePairISC_SD_EEEbE4typeELb1EEEOSC_OSD_ = comdat any

$_ZSteqRKSt17_Rb_tree_iteratorISt10unique_ptrIN9grpc_core19SubchannelInterface33ConnectivityStateWatcherInterfaceESt14default_deleteIS3_EEES9_ = comdat any

$_ZNSt4pairIPSt18_Rb_tree_node_baseS1_EC2IRPSt13_Rb_tree_nodeISt10unique_ptrIN9grpc_core19SubchannelInterface33ConnectivityStateWatcherInterfaceESt14default_deleteIS8_EEERS1_TnNSt9enable_ifIXaaclsr5_PCCPE22_MoveConstructiblePairIT_T0_EEclsr5_PCCPE30_ImplicitlyMoveConvertiblePairISH_SI_EEEbE4typeELb1EEEOSH_OSI_ = comdat any

$_ZNSt17_Rb_tree_iteratorISt10unique_ptrIN9grpc_core19SubchannelInterface33ConnectivityStateWatcherInterfaceESt14default_deleteIS3_EEEmmEv = comdat any

$_ZStltIN9grpc_core19SubchannelInterface33ConnectivityStateWatcherInterfaceESt14default_deleteIS2_ES2_S4_EbRKSt10unique_ptrIT_T0_ERKS5_IT1_T2_E = comdat any

$_ZNKSt4lessIPN9grpc_core19SubchannelInterface33ConnectivityStateWatcherInterfaceEEclES3_S3_ = comdat any

$_ZNSt16allocator_traitsISaISt13_Rb_tree_nodeISt10unique_ptrIN9grpc_core19SubchannelInterface33ConnectivityStateWatcherInterfaceESt14default_deleteIS4_EEEEE8allocateERS9_m = comdat any

$_ZNSt15__new_allocatorISt13_Rb_tree_nodeISt10unique_ptrIN9grpc_core19SubchannelInterface33ConnectivityStateWatcherInterfaceESt14default_deleteIS4_EEEE8allocateEmPKv = comdat any

$_ZNKSt15__new_allocatorISt13_Rb_tree_nodeISt10unique_ptrIN9grpc_core19SubchannelInterface33ConnectivityStateWatcherInterfaceESt14default_deleteIS4_EEEE11_M_max_sizeEv = comdat any

$_ZNSt16allocator_traitsISaISt13_Rb_tree_nodeISt10unique_ptrIN9grpc_core19SubchannelInterface33ConnectivityStateWatcherInterfaceESt14default_deleteIS4_EEEEE9constructIS7_JS7_EEEvRS9_PT_DpOT0_ = comdat any

$_ZNSt15__new_allocatorISt13_Rb_tree_nodeISt10unique_ptrIN9grpc_core19SubchannelInterface33ConnectivityStateWatcherInterfaceESt14default_deleteIS4_EEEE9constructIS7_JS7_EEEvPT_DpOT0_ = comdat any

$_ZNSt10unique_ptrIN9grpc_core19SubchannelInterface20DataWatcherInterfaceESt14default_deleteIS2_EEC2EOS5_ = comdat any

$_ZNSt10unique_ptrIN9grpc_core19SubchannelInterface20DataWatcherInterfaceESt14default_deleteIS2_EED2Ev = comdat any

$_ZNSt15__uniq_ptr_dataIN9grpc_core19SubchannelInterface20DataWatcherInterfaceESt14default_deleteIS2_ELb1ELb1EEC2EOS5_ = comdat any

$_ZNSt15__uniq_ptr_implIN9grpc_core19SubchannelInterface20DataWatcherInterfaceESt14default_deleteIS2_EEC2EOS5_ = comdat any

$_ZNSt5tupleIJPN9grpc_core19SubchannelInterface20DataWatcherInterfaceESt14default_deleteIS2_EEEC2EOS6_ = comdat any

$_ZNSt15__uniq_ptr_implIN9grpc_core19SubchannelInterface20DataWatcherInterfaceESt14default_deleteIS2_EE6_M_ptrEv = comdat any

$_ZNSt11_Tuple_implILm0EJPN9grpc_core19SubchannelInterface20DataWatcherInterfaceESt14default_deleteIS2_EEEC2EOS6_ = comdat any

$_ZNSt11_Tuple_implILm1EJSt14default_deleteIN9grpc_core19SubchannelInterface20DataWatcherInterfaceEEEEC2EOS5_ = comdat any

$_ZSt3getILm0EJPN9grpc_core19SubchannelInterface20DataWatcherInterfaceESt14default_deleteIS2_EEERNSt13tuple_elementIXT_ESt5tupleIJDpT0_EEE4typeERSA_ = comdat any

$_ZSt12__get_helperILm0EPN9grpc_core19SubchannelInterface20DataWatcherInterfaceEJSt14default_deleteIS2_EEERT0_RSt11_Tuple_implIXT_EJS6_DpT1_EE = comdat any

$_ZNSt11_Tuple_implILm0EJPN9grpc_core19SubchannelInterface20DataWatcherInterfaceESt14default_deleteIS2_EEE7_M_headERS6_ = comdat any

$_ZNSt10_Head_baseILm0EPN9grpc_core19SubchannelInterface20DataWatcherInterfaceELb0EE7_M_headERS4_ = comdat any

$_ZNSt10unique_ptrIN9grpc_core19SubchannelInterface20DataWatcherInterfaceESt14default_deleteIS2_EE11get_deleterEv = comdat any

$_ZNKSt14default_deleteIN9grpc_core19SubchannelInterface20DataWatcherInterfaceEEclEPS2_ = comdat any

$_ZNSt15__uniq_ptr_implIN9grpc_core19SubchannelInterface20DataWatcherInterfaceESt14default_deleteIS2_EE10_M_deleterEv = comdat any

$_ZSt3getILm1EJPN9grpc_core19SubchannelInterface20DataWatcherInterfaceESt14default_deleteIS2_EEERNSt13tuple_elementIXT_ESt5tupleIJDpT0_EEE4typeERSA_ = comdat any

$_ZSt12__get_helperILm1ESt14default_deleteIN9grpc_core19SubchannelInterface20DataWatcherInterfaceEEJEERT0_RSt11_Tuple_implIXT_EJS5_DpT1_EE = comdat any

$_ZNSt11_Tuple_implILm1EJSt14default_deleteIN9grpc_core19SubchannelInterface20DataWatcherInterfaceEEEE7_M_headERS5_ = comdat any

$_ZNSt10_Head_baseILm1ESt14default_deleteIN9grpc_core19SubchannelInterface20DataWatcherInterfaceEELb1EE7_M_headERS5_ = comdat any

$_ZN9grpc_core20InternallyRefCountedINS_19LoadBalancingPolicyENS_11UnrefDeleteEE17IncrementRefCountEv = comdat any

$_ZN9grpc_core13RefCountedPtrINS_19LoadBalancingPolicyEEC2IS1_EEPT_ = comdat any

$_ZNSt8optionalINSt7__cxx1112basic_stringIcSt11char_traitsIcESaIcEEEEaSIS5_EENSt9enable_ifIX7__and_vISt6__not_ISt7is_sameIS6_NSt9remove_cvINSt16remove_referenceIT_E4typeEE4typeEEES9_ISt6__and_IJSt9is_scalarIS5_ESA_IS5_NSt5decayISD_E4typeEEEEESt16is_constructibleIS5_JSD_EESt13is_assignableIRS5_SD_EEERS6_E4typeEOSD_ = comdat any

$_ZNSt19_Optional_base_implINSt7__cxx1112basic_stringIcSt11char_traitsIcESaIcEEESt14_Optional_baseIS5_Lb0ELb0EEE12_M_constructIJS5_EEEvDpOT_ = comdat any

$_ZNSt22_Optional_payload_baseINSt7__cxx1112basic_stringIcSt11char_traitsIcESaIcEEEE12_M_constructIJS5_EEEvDpOT_ = comdat any

$_ZSt10_ConstructINSt7__cxx1112basic_stringIcSt11char_traitsIcESaIcEEEJS5_EEvPT_DpOT0_ = comdat any

$_ZN4absl12lts_202308026StatusaSERKS1_ = comdat any

$_ZN9grpc_core13RefCountedPtrINS_19LoadBalancingPolicy16SubchannelPickerEEaSEOS3_ = comdat any

$_ZN9grpc_core13RefCountedPtrINS_19LoadBalancingPolicy16SubchannelPickerEE5resetEPS2_ = comdat any

$_ZSt8exchangeIPN9grpc_core19LoadBalancingPolicy16SubchannelPickerEDnET_RS4_OT0_ = comdat any

$_ZSt8exchangeIPN9grpc_core19LoadBalancingPolicy16SubchannelPickerERS3_ET_RS5_OT0_ = comdat any

$_ZSt10__exchangeIPN9grpc_core19LoadBalancingPolicy16SubchannelPickerERS3_ET_RS5_OT0_ = comdat any

$_ZSt10__exchangeIPN9grpc_core19LoadBalancingPolicy16SubchannelPickerEDnET_RS4_OT0_ = comdat any

$_ZNK9grpc_core13RefCountedPtrINS_19LoadBalancingPolicyEEptEv = comdat any

$_ZN9grpc_core20InternallyRefCountedINS_19LoadBalancingPolicyENS_11UnrefDeleteEE5UnrefEv = comdat any

$_ZN9grpc_core20InternallyRefCountedINS_19LoadBalancingPolicyENS_11UnrefDeleteEE17IncrementRefCountERKNS_13DebugLocationEPKc = comdat any

$_ZN9grpc_core8RefCount3RefERKNS_13DebugLocationEPKcl = comdat any

$_ZNSt10unique_ptrIN9grpc_core19LoadBalancingPolicy20ChannelControlHelperESt14default_deleteIS2_EE5resetEPS2_ = comdat any

$_ZNSt15__uniq_ptr_implIN9grpc_core19LoadBalancingPolicy20ChannelControlHelperESt14default_deleteIS2_EE5resetEPS2_ = comdat any

$_ZN9grpc_core18ChildPolicyHandlerC2ENS_19LoadBalancingPolicy4ArgsEPNS_9TraceFlagE = comdat any

$_ZNSt10unique_ptrIN9grpc_core18ChildPolicyHandlerENS0_16OrphanableDeleteEEC2IS2_vEEPS1_ = comdat any

$_ZNSt15__uniq_ptr_dataIN9grpc_core18ChildPolicyHandlerENS0_16OrphanableDeleteELb1ELb1EECI2St15__uniq_ptr_implIS1_S2_EEPS1_ = comdat any

$_ZNSt15__uniq_ptr_implIN9grpc_core18ChildPolicyHandlerENS0_16OrphanableDeleteEEC2EPS1_ = comdat any

$_ZNSt5tupleIJPN9grpc_core18ChildPolicyHandlerENS0_16OrphanableDeleteEEEC2ILb1ETnNSt9enable_ifIXclsr17_TupleConstraintsIXT_ES2_S3_EE37__is_implicitly_default_constructibleEEbE4typeELb1EEEv = comdat any

$_ZNSt15__uniq_ptr_implIN9grpc_core18ChildPolicyHandlerENS0_16OrphanableDeleteEE6_M_ptrEv = comdat any

$_ZNSt11_Tuple_implILm0EJPN9grpc_core18ChildPolicyHandlerENS0_16OrphanableDeleteEEEC2Ev = comdat any

$_ZNSt10_Head_baseILm0EPN9grpc_core18ChildPolicyHandlerELb0EEC2Ev = comdat any

$_ZSt3getILm0EJPN9grpc_core18ChildPolicyHandlerENS0_16OrphanableDeleteEEERNSt13tuple_elementIXT_ESt5tupleIJDpT0_EEE4typeERS8_ = comdat any

$_ZSt12__get_helperILm0EPN9grpc_core18ChildPolicyHandlerEJNS0_16OrphanableDeleteEEERT0_RSt11_Tuple_implIXT_EJS4_DpT1_EE = comdat any

$_ZNSt11_Tuple_implILm0EJPN9grpc_core18ChildPolicyHandlerENS0_16OrphanableDeleteEEE7_M_headERS4_ = comdat any

$_ZNSt10_Head_baseILm0EPN9grpc_core18ChildPolicyHandlerELb0EE7_M_headERS3_ = comdat any

$_ZNSt10unique_ptrIN9grpc_core18ChildPolicyHandlerENS0_16OrphanableDeleteEE7releaseEv = comdat any

$_ZNSt10unique_ptrIN9grpc_core18ChildPolicyHandlerENS0_16OrphanableDeleteEE11get_deleterEv = comdat any

$_ZNSt15__uniq_ptr_dataIN9grpc_core19LoadBalancingPolicyENS0_16OrphanableDeleteELb1ELb1EECI2St15__uniq_ptr_implIS1_S2_EIS2_EEPS1_OT_ = comdat any

$_ZNSt15__uniq_ptr_implIN9grpc_core18ChildPolicyHandlerENS0_16OrphanableDeleteEE7releaseEv = comdat any

$_ZNSt15__uniq_ptr_implIN9grpc_core18ChildPolicyHandlerENS0_16OrphanableDeleteEE10_M_deleterEv = comdat any

$_ZSt3getILm1EJPN9grpc_core18ChildPolicyHandlerENS0_16OrphanableDeleteEEERNSt13tuple_elementIXT_ESt5tupleIJDpT0_EEE4typeERS8_ = comdat any

$_ZNSt15__uniq_ptr_implIN9grpc_core19LoadBalancingPolicyENS0_16OrphanableDeleteEEC2IS2_EEPS1_OT_ = comdat any

$_ZNSt5tupleIJPN9grpc_core19LoadBalancingPolicyENS0_16OrphanableDeleteEEEC2IRS2_S3_TnNSt9enable_ifIXclsr4_TCCIXntcl14__is_alloc_argIT_EEEEE29__is_implicitly_constructibleIS8_T0_EEEbE4typeELb1EEEOS8_OS9_ = comdat any

$_ZNSt11_Tuple_implILm0EJPN9grpc_core19LoadBalancingPolicyENS0_16OrphanableDeleteEEEC2IRS2_JS3_EvEEOT_DpOT0_ = comdat any

$_ZNSt11_Tuple_implILm1EJN9grpc_core16OrphanableDeleteEEEC2IS1_EEOT_ = comdat any

$_ZNSt10_Head_baseILm0EPN9grpc_core19LoadBalancingPolicyELb0EEC2IRS2_EEOT_ = comdat any

$_ZNSt10_Head_baseILm1EN9grpc_core16OrphanableDeleteELb1EEC2IS1_EEOT_ = comdat any

$_ZN9grpc_core16OrphanableDeleteclINS_18ChildPolicyHandlerEEEvPT_ = comdat any

$_ZNSt15__uniq_ptr_dataIN9grpc_core19LoadBalancingPolicyENS0_16OrphanableDeleteELb1ELb1EEaSEOS3_ = comdat any

$_ZNSt15__uniq_ptr_implIN9grpc_core19LoadBalancingPolicyENS0_16OrphanableDeleteEEaSEOS3_ = comdat any

$_ZNSt15__uniq_ptr_implIN9grpc_core19LoadBalancingPolicyENS0_16OrphanableDeleteEE5resetEPS1_ = comdat any

$_ZNSt15__uniq_ptr_implIN9grpc_core19LoadBalancingPolicyENS0_16OrphanableDeleteEE7releaseEv = comdat any

$_ZN4absl12lts_202308028StatusOrISt10shared_ptrIN9grpc_core25EndpointAddressesIteratorEEEC2Ev = comdat any

$_ZN4absl12lts_202308028StatusOrISt10shared_ptrIN9grpc_core25EndpointAddressesIteratorEEED2Ev = comdat any

$_ZN4absl12lts_2023080217internal_statusor12StatusOrDataISt10shared_ptrIN9grpc_core25EndpointAddressesIteratorEEEC2INS0_6StatusETnNSt9enable_ifIXsr3std16is_constructibleIS9_OT_EE5valueEiE4typeELi0EEESC_ = comdat any

$_ZN4absl12lts_2023080217internal_statusor12StatusOrDataISt10shared_ptrIN9grpc_core25EndpointAddressesIteratorEEE11EnsureNotOkEv = comdat any

$_ZN4absl12lts_2023080217internal_statusor12StatusOrDataISt10shared_ptrIN9grpc_core25EndpointAddressesIteratorEEED2Ev = comdat any

$_ZN4absl12lts_2023080217internal_statusor12StatusOrDataISt10shared_ptrIN9grpc_core25EndpointAddressesIteratorEEEaSEOS7_ = comdat any

$_ZN4absl12lts_2023080217internal_statusor12StatusOrDataISt10shared_ptrIN9grpc_core25EndpointAddressesIteratorEEE6AssignIS6_EEvOT_ = comdat any

$_ZN4absl12lts_2023080217internal_statusor12StatusOrDataISt10shared_ptrIN9grpc_core25EndpointAddressesIteratorEEE12AssignStatusINS0_6StatusEEEvOT_ = comdat any

$_ZNSt10shared_ptrIN9grpc_core25EndpointAddressesIteratorEEaSEOS2_ = comdat any

$_ZN4absl12lts_2023080217internal_statusor12StatusOrDataISt10shared_ptrIN9grpc_core25EndpointAddressesIteratorEEE9MakeValueIJS6_EEEvDpOT_ = comdat any

$_ZNSt12__shared_ptrIN9grpc_core25EndpointAddressesIteratorELN9__gnu_cxx12_Lock_policyE2EEaSEOS4_ = comdat any

$_ZNSt12__shared_ptrIN9grpc_core25EndpointAddressesIteratorELN9__gnu_cxx12_Lock_policyE2EEC2EOS4_ = comdat any

$_ZN4absl12lts_2023080217internal_statusor12PlacementNewISt10shared_ptrIN9grpc_core25EndpointAddressesIteratorEEJS6_EEEvPvDpOT0_ = comdat any

$_ZN4absl12lts_2023080217internal_statusor12StatusOrDataISt10shared_ptrIN9grpc_core25EndpointAddressesIteratorEEE5ClearEv = comdat any

$_ZN9grpc_core13RefCountedPtrINS_19LoadBalancingPolicy6ConfigEEC2ERKS3_ = comdat any

$_ZNK9grpc_core10RefCountedINS_19LoadBalancingPolicy6ConfigENS_19PolymorphicRefCountENS_11UnrefDeleteEE17IncrementRefCountEv = comdat any

$_ZNKSt15__uniq_ptr_implIN9grpc_core19LoadBalancingPolicyENS0_16OrphanableDeleteEE6_M_ptrEv = comdat any

$_ZSt3getILm0EJPN9grpc_core19LoadBalancingPolicyENS0_16OrphanableDeleteEEERKNSt13tuple_elementIXT_ESt5tupleIJDpT0_EEE4typeERKS8_ = comdat any

$_ZSt12__get_helperILm0EPN9grpc_core19LoadBalancingPolicyEJNS0_16OrphanableDeleteEEERKT0_RKSt11_Tuple_implIXT_EJS4_DpT1_EE = comdat any

$_ZNSt11_Tuple_implILm0EJPN9grpc_core19LoadBalancingPolicyENS0_16OrphanableDeleteEEE7_M_headERKS4_ = comdat any

$_ZNSt10_Head_baseILm0EPN9grpc_core19LoadBalancingPolicyELb0EE7_M_headERKS3_ = comdat any

$_ZN4absl12lts_202308028StatusOrISt10shared_ptrIN9grpc_core25EndpointAddressesIteratorEEEC2EOS6_ = comdat any

$_ZN9grpc_core13RefCountedPtrINS_19LoadBalancingPolicy6ConfigEEC2EOS3_ = comdat any

$_ZN4absl12lts_2023080217internal_statusor12StatusOrDataISt10shared_ptrIN9grpc_core25EndpointAddressesIteratorEEEC2EOS7_ = comdat any

$_ZN4absl12lts_2023080217internal_statusor12StatusOrDataISt10shared_ptrIN9grpc_core25EndpointAddressesIteratorEEE10MakeStatusIJEEEvDpOT_ = comdat any

$_ZN4absl12lts_2023080217internal_statusor12StatusOrDataISt10shared_ptrIN9grpc_core25EndpointAddressesIteratorEEE10MakeStatusIJNS0_6StatusEEEEvDpOT_ = comdat any

$_ZN4absl12lts_2023080217internal_statusor12PlacementNewINS0_6StatusEJEEEvPvDpOT0_ = comdat any

$_ZN4absl12lts_2023080217internal_statusor12PlacementNewINS0_6StatusEJS3_EEEvPvDpOT0_ = comdat any

$_ZStneIN9grpc_core19LoadBalancingPolicyENS0_16OrphanableDeleteEEbRKSt10unique_ptrIT_T0_EDn = comdat any

$_ZNSt10unique_ptrIN9grpc_core19LoadBalancingPolicyENS0_16OrphanableDeleteEE5resetEPS1_ = comdat any

$_ZN9grpc_core12LoadFromJsonINS_13RefCountedPtrINS_23XdsOverrideHostLbConfigEEEEEN4absl12lts_202308028StatusOrIT_EERKNS_12experimental4JsonERKNS_8JsonArgsESt17basic_string_viewIcSt11char_traitsIcEE = comdat any

$_ZN9grpc_core8JsonArgsC2Ev = comdat any

$_ZN4absl12lts_202308028StatusOrIN9grpc_core13RefCountedPtrINS2_19LoadBalancingPolicy6ConfigEEEEC2INS3_INS2_23XdsOverrideHostLbConfigEEETnNSt9enable_ifIXsr4absl11conjunctionINS0_8negationISt7is_sameIS6_T_EEESt16is_constructibleIS6_JOSE_EESt14is_convertibleISI_S6_ENSC_INS0_11disjunctionIJSH_IS6_JRNS1_ISE_EEEESH_IS6_JRKSN_EESH_IS6_JOSN_EESH_IS6_JOSQ_EESK_ISO_S6_ESK_ISR_S6_ESK_IST_S6_ESK_ISV_S6_EEEEEEEE5valueEiE4typeELi0EEEST_ = comdat any

$_ZN4absl12lts_202308028StatusOrIN9grpc_core13RefCountedPtrINS2_23XdsOverrideHostLbConfigEEEED2Ev = comdat any

$_ZN9grpc_core8JsonArgsD2Ev = comdat any

$_ZN9grpc_core16ValidationErrorsC2Ev = comdat any

$_ZN9grpc_core11json_detail13LoaderForTypeINS_13RefCountedPtrINS_23XdsOverrideHostLbConfigEEEEEPKNS0_15LoaderInterfaceEv = comdat any

$_ZNK9grpc_core16ValidationErrors2okEv = comdat any

$_ZN4absl12lts_202308028StatusOrIN9grpc_core13RefCountedPtrINS2_23XdsOverrideHostLbConfigEEEEC2INS0_6StatusETnNSt9enable_ifIXsr4absl11conjunctionISt14is_convertibleIOT_S8_ESt16is_constructibleIS8_JSC_EENS0_8negationISt7is_sameINSt5decayISB_E4typeES6_EEENSG_ISH_ISK_S5_EEENSG_ISH_ISK_St10in_place_tEEENSG_INS0_17internal_statusor31HasConversionOperatorToStatusOrIS5_SC_vEEEEEE5valueEiE4typeELi0EEESC_ = comdat any

$_ZN4absl12lts_202308028StatusOrIN9grpc_core13RefCountedPtrINS2_23XdsOverrideHostLbConfigEEEEC2IS5_TnNSt9enable_ifIXsr4absl11conjunctionINS0_11disjunctionIJSt7is_sameIS5_NS0_12remove_cvrefIOT_E4typeEENS0_8negationINS9_IJSA_IS6_SF_ESA_INS0_6StatusESF_ESA_ISt10in_place_tSF_ENS0_17internal_statusor31IsDirectInitializationAmbiguousIS5_SD_EEEEEEEEEESt16is_constructibleIS5_JSD_EESt14is_convertibleISD_S5_ENS9_IJSA_INSB_ISC_E4typeES5_ENS0_11conjunctionIJNSH_ISV_ISD_SJ_EEENSH_INSN_31HasConversionOperatorToStatusOrIS5_SD_vEEEEEEEEEEEE5valueEiE4typeELi0EEESD_ = comdat any

$_ZN9grpc_core16ValidationErrorsD2Ev = comdat any

$_ZNSt3mapINSt7__cxx1112basic_stringIcSt11char_traitsIcESaIcEEESt6vectorIS5_SaIS5_EESt4lessIS5_ESaISt4pairIKS5_S8_EEEC2Ev = comdat any

$_ZNSt8_Rb_treeINSt7__cxx1112basic_stringIcSt11char_traitsIcESaIcEEESt4pairIKS5_St6vectorIS5_SaIS5_EEESt10_Select1stISB_ESt4lessIS5_ESaISB_EEC2Ev = comdat any

$_ZNSt8_Rb_treeINSt7__cxx1112basic_stringIcSt11char_traitsIcESaIcEEESt4pairIKS5_St6vectorIS5_SaIS5_EEESt10_Select1stISB_ESt4lessIS5_ESaISB_EE13_Rb_tree_implISF_Lb1EEC2Ev = comdat any

$_ZNSaISt13_Rb_tree_nodeISt4pairIKNSt7__cxx1112basic_stringIcSt11char_traitsIcESaIcEEESt6vectorIS6_SaIS6_EEEEEC2Ev = comdat any

$_ZNSt20_Rb_tree_key_compareISt4lessINSt7__cxx1112basic_stringIcSt11char_traitsIcESaIcEEEEEC2Ev = comdat any

$_ZNSt15__new_allocatorISt13_Rb_tree_nodeISt4pairIKNSt7__cxx1112basic_stringIcSt11char_traitsIcESaIcEEESt6vectorIS7_SaIS7_EEEEEC2Ev = comdat any

$_ZN9grpc_core19NoDestructSingletonINS_11json_detail10AutoLoaderINS_13RefCountedPtrINS_23XdsOverrideHostLbConfigEEEEEE3GetEv = comdat any

$_ZN9grpc_core10NoDestructINS_11json_detail10AutoLoaderINS_13RefCountedPtrINS_23XdsOverrideHostLbConfigEEEEEEdeEv = comdat any

$_ZN9grpc_core10NoDestructINS_11json_detail10AutoLoaderINS_13RefCountedPtrINS_23XdsOverrideHostLbConfigEEEEEE3getEv = comdat any

$_ZNKSt3mapINSt7__cxx1112basic_stringIcSt11char_traitsIcESaIcEEESt6vectorIS5_SaIS5_EESt4lessIS5_ESaISt4pairIKS5_S8_EEE5emptyEv = comdat any

$_ZNKSt8_Rb_treeINSt7__cxx1112basic_stringIcSt11char_traitsIcESaIcEEESt4pairIKS5_St6vectorIS5_SaIS5_EEESt10_Select1stISB_ESt4lessIS5_ESaISB_EE5emptyEv = comdat any

$_ZN4absl12lts_2023080217internal_statusor12StatusOrDataIN9grpc_core13RefCountedPtrINS3_23XdsOverrideHostLbConfigEEEEC2INS0_6StatusETnNSt9enable_ifIXsr3std16is_constructibleIS9_OT_EE5valueEiE4typeELi0EEESC_ = comdat any

$_ZN4absl12lts_2023080217internal_statusor12StatusOrDataIN9grpc_core13RefCountedPtrINS3_23XdsOverrideHostLbConfigEEEE11EnsureNotOkEv = comdat any

$_ZNK4absl12lts_2023080217internal_statusor12StatusOrDataIN9grpc_core13RefCountedPtrINS3_23XdsOverrideHostLbConfigEEEE2okEv = comdat any

$_ZN4absl12lts_202308028StatusOrIN9grpc_core13RefCountedPtrINS2_23XdsOverrideHostLbConfigEEEEC2IJS5_EEESt10in_place_tDpOT_ = comdat any

$_ZN4absl12lts_2023080217internal_statusor12StatusOrDataIN9grpc_core13RefCountedPtrINS3_23XdsOverrideHostLbConfigEEEEC2IJS6_EEESt10in_place_tDpOT_ = comdat any

$_ZN4absl12lts_2023080217internal_statusor12StatusOrDataIN9grpc_core13RefCountedPtrINS3_23XdsOverrideHostLbConfigEEEE10MakeStatusIJEEEvDpOT_ = comdat any

$_ZNSt3mapINSt7__cxx1112basic_stringIcSt11char_traitsIcESaIcEEESt6vectorIS5_SaIS5_EESt4lessIS5_ESaISt4pairIKS5_S8_EEED2Ev = comdat any

$_ZNSt8_Rb_treeINSt7__cxx1112basic_stringIcSt11char_traitsIcESaIcEEESt4pairIKS5_St6vectorIS5_SaIS5_EEESt10_Select1stISB_ESt4lessIS5_ESaISB_EED2Ev = comdat any

$_ZNSt8_Rb_treeINSt7__cxx1112basic_stringIcSt11char_traitsIcESaIcEEESt4pairIKS5_St6vectorIS5_SaIS5_EEESt10_Select1stISB_ESt4lessIS5_ESaISB_EE8_M_eraseEPSt13_Rb_tree_nodeISB_E = comdat any

$_ZNSt8_Rb_treeINSt7__cxx1112basic_stringIcSt11char_traitsIcESaIcEEESt4pairIKS5_St6vectorIS5_SaIS5_EEESt10_Select1stISB_ESt4lessIS5_ESaISB_EE8_M_beginEv = comdat any

$_ZNSt8_Rb_treeINSt7__cxx1112basic_stringIcSt11char_traitsIcESaIcEEESt4pairIKS5_St6vectorIS5_SaIS5_EEESt10_Select1stISB_ESt4lessIS5_ESaISB_EE13_Rb_tree_implISF_Lb1EED2Ev = comdat any

$_ZNSt8_Rb_treeINSt7__cxx1112basic_stringIcSt11char_traitsIcESaIcEEESt4pairIKS5_St6vectorIS5_SaIS5_EEESt10_Select1stISB_ESt4lessIS5_ESaISB_EE8_S_rightEPSt18_Rb_tree_node_base = comdat any

$_ZNSt8_Rb_treeINSt7__cxx1112basic_stringIcSt11char_traitsIcESaIcEEESt4pairIKS5_St6vectorIS5_SaIS5_EEESt10_Select1stISB_ESt4lessIS5_ESaISB_EE7_S_leftEPSt18_Rb_tree_node_base = comdat any

$_ZNSt8_Rb_treeINSt7__cxx1112basic_stringIcSt11char_traitsIcESaIcEEESt4pairIKS5_St6vectorIS5_SaIS5_EEESt10_Select1stISB_ESt4lessIS5_ESaISB_EE12_M_drop_nodeEPSt13_Rb_tree_nodeISB_E = comdat any

$_ZNSt8_Rb_treeINSt7__cxx1112basic_stringIcSt11char_traitsIcESaIcEEESt4pairIKS5_St6vectorIS5_SaIS5_EEESt10_Select1stISB_ESt4lessIS5_ESaISB_EE15_M_destroy_nodeEPSt13_Rb_tree_nodeISB_E = comdat any

$_ZNSt8_Rb_treeINSt7__cxx1112basic_stringIcSt11char_traitsIcESaIcEEESt4pairIKS5_St6vectorIS5_SaIS5_EEESt10_Select1stISB_ESt4lessIS5_ESaISB_EE11_M_put_nodeEPSt13_Rb_tree_nodeISB_E = comdat any

$_ZNSt16allocator_traitsISaISt13_Rb_tree_nodeISt4pairIKNSt7__cxx1112basic_stringIcSt11char_traitsIcESaIcEEESt6vectorIS7_SaIS7_EEEEEE7destroyISC_EEvRSE_PT_ = comdat any

$_ZNSt8_Rb_treeINSt7__cxx1112basic_stringIcSt11char_traitsIcESaIcEEESt4pairIKS5_St6vectorIS5_SaIS5_EEESt10_Select1stISB_ESt4lessIS5_ESaISB_EE21_M_get_Node_allocatorEv = comdat any

$_ZNSt13_Rb_tree_nodeISt4pairIKNSt7__cxx1112basic_stringIcSt11char_traitsIcESaIcEEESt6vectorIS6_SaIS6_EEEE9_M_valptrEv = comdat any

$_ZNSt15__new_allocatorISt13_Rb_tree_nodeISt4pairIKNSt7__cxx1112basic_stringIcSt11char_traitsIcESaIcEEESt6vectorIS7_SaIS7_EEEEE7destroyISC_EEvPT_ = comdat any

$_ZNSt4pairIKNSt7__cxx1112basic_stringIcSt11char_traitsIcESaIcEEESt6vectorIS5_SaIS5_EEED2Ev = comdat any

$_ZN9__gnu_cxx16__aligned_membufISt4pairIKNSt7__cxx1112basic_stringIcSt11char_traitsIcESaIcEEESt6vectorIS7_SaIS7_EEEE6_M_ptrEv = comdat any

$_ZN9__gnu_cxx16__aligned_membufISt4pairIKNSt7__cxx1112basic_stringIcSt11char_traitsIcESaIcEEESt6vectorIS7_SaIS7_EEEE7_M_addrEv = comdat any

$_ZNSt16allocator_traitsISaISt13_Rb_tree_nodeISt4pairIKNSt7__cxx1112basic_stringIcSt11char_traitsIcESaIcEEESt6vectorIS7_SaIS7_EEEEEE10deallocateERSE_PSD_m = comdat any

$_ZNSt15__new_allocatorISt13_Rb_tree_nodeISt4pairIKNSt7__cxx1112basic_stringIcSt11char_traitsIcESaIcEEESt6vectorIS7_SaIS7_EEEEE10deallocateEPSD_m = comdat any

$_ZNKSt8_Rb_treeINSt7__cxx1112basic_stringIcSt11char_traitsIcESaIcEEESt4pairIKS5_St6vectorIS5_SaIS5_EEESt10_Select1stISB_ESt4lessIS5_ESaISB_EE9_M_mbeginEv = comdat any

$_ZNSaISt13_Rb_tree_nodeISt4pairIKNSt7__cxx1112basic_stringIcSt11char_traitsIcESaIcEEESt6vectorIS6_SaIS6_EEEEED2Ev = comdat any

$_ZNSt15__new_allocatorISt13_Rb_tree_nodeISt4pairIKNSt7__cxx1112basic_stringIcSt11char_traitsIcESaIcEEESt6vectorIS7_SaIS7_EEEEED2Ev = comdat any

$_ZN9grpc_core8JsonArgsD0Ev = comdat any

$_ZNK9grpc_core8JsonArgs9IsEnabledESt17basic_string_viewIcSt11char_traitsIcEE = comdat any

$_ZN4absl12lts_2023080217internal_statusor12StatusOrDataIN9grpc_core13RefCountedPtrINS3_19LoadBalancingPolicy6ConfigEEEEC2INS4_INS3_23XdsOverrideHostLbConfigEEEEEONS2_IT_EE = comdat any

$_ZN4absl12lts_2023080217internal_statusor12StatusOrDataIN9grpc_core13RefCountedPtrINS3_19LoadBalancingPolicy6ConfigEEEE9MakeValueIJNS4_INS3_23XdsOverrideHostLbConfigEEEEEEvDpOT_ = comdat any

$_ZN4absl12lts_2023080217internal_statusor12StatusOrDataIN9grpc_core13RefCountedPtrINS3_19LoadBalancingPolicy6ConfigEEEE10MakeStatusIJEEEvDpOT_ = comdat any

$_ZN4absl12lts_2023080217internal_statusor12StatusOrDataIN9grpc_core13RefCountedPtrINS3_19LoadBalancingPolicy6ConfigEEEE10MakeStatusIJNS0_6StatusEEEEvDpOT_ = comdat any

$_ZN4absl12lts_2023080217internal_statusor12PlacementNewIN9grpc_core13RefCountedPtrINS3_19LoadBalancingPolicy6ConfigEEEJNS4_INS3_23XdsOverrideHostLbConfigEEEEEEvPvDpOT0_ = comdat any

$_ZN9grpc_core13RefCountedPtrINS_19LoadBalancingPolicy6ConfigEEC2INS_23XdsOverrideHostLbConfigEEEONS0_IT_EE = comdat any

$_ZN4absl12lts_2023080217internal_statusor12StatusOrDataIN9grpc_core13RefCountedPtrINS3_23XdsOverrideHostLbConfigEEEED2Ev = comdat any

$_ZNSt10_Head_baseILm0EPN9grpc_core26LoadBalancingPolicyFactoryELb0EEC2IRS2_EEOT_ = comdat any

$_ZNSt15__uniq_ptr_implIN9grpc_core26LoadBalancingPolicyFactoryESt14default_deleteIS1_EE6_M_ptrEv = comdat any

$_ZNSt10unique_ptrIN9grpc_core26LoadBalancingPolicyFactoryESt14default_deleteIS1_EE11get_deleterEv = comdat any

$_ZNKSt14default_deleteIN9grpc_core26LoadBalancingPolicyFactoryEEclEPS1_ = comdat any

$_ZSt3getILm0EJPN9grpc_core26LoadBalancingPolicyFactoryESt14default_deleteIS1_EEERNSt13tuple_elementIXT_ESt5tupleIJDpT0_EEE4typeERS9_ = comdat any

$_ZSt12__get_helperILm0EPN9grpc_core26LoadBalancingPolicyFactoryEJSt14default_deleteIS1_EEERT0_RSt11_Tuple_implIXT_EJS5_DpT1_EE = comdat any

$_ZNSt11_Tuple_implILm0EJPN9grpc_core26LoadBalancingPolicyFactoryESt14default_deleteIS1_EEE7_M_headERS5_ = comdat any

$_ZNSt10_Head_baseILm0EPN9grpc_core26LoadBalancingPolicyFactoryELb0EE7_M_headERS3_ = comdat any

$_ZNSt15__uniq_ptr_implIN9grpc_core26LoadBalancingPolicyFactoryESt14default_deleteIS1_EE10_M_deleterEv = comdat any

$_ZSt3getILm1EJPN9grpc_core26LoadBalancingPolicyFactoryESt14default_deleteIS1_EEERNSt13tuple_elementIXT_ESt5tupleIJDpT0_EEE4typeERS9_ = comdat any

$_ZSt12__get_helperILm1ESt14default_deleteIN9grpc_core26LoadBalancingPolicyFactoryEEJEERT0_RSt11_Tuple_implIXT_EJS4_DpT1_EE = comdat any

$_ZNSt11_Tuple_implILm1EJSt14default_deleteIN9grpc_core26LoadBalancingPolicyFactoryEEEE7_M_headERS4_ = comdat any

$_ZNSt10_Head_baseILm1ESt14default_deleteIN9grpc_core26LoadBalancingPolicyFactoryEELb1EE7_M_headERS4_ = comdat any

$_ZN9grpc_core11json_detail24FinishedJsonObjectLoaderINS_23XdsOverrideHostLbConfigELm0EvEC2ERKNS0_3VecINS0_7ElementELm0EEE = comdat any

$_ZNK9grpc_core11json_detail24FinishedJsonObjectLoaderINS_23XdsOverrideHostLbConfigELm0EvE8LoadIntoERKNS_12experimental4JsonERKNS_8JsonArgsEPvPNS_16ValidationErrorsE = comdat any

$_ZNK9grpc_core11json_detail3VecINS0_7ElementELm0EE4dataEv = comdat any

$_ZNK9grpc_core11json_detail3VecINS0_7ElementELm0EE4sizeEv = comdat any

$_ZNKSt8_Rb_treeINSt7__cxx1112basic_stringIcSt11char_traitsIcESaIcEEESt4pairIKS5_N9grpc_core12experimental4JsonEESt10_Select1stISB_ESt4lessIS5_ESaISB_EE4findERS7_ = comdat any

$_ZNKSt8_Rb_treeINSt7__cxx1112basic_stringIcSt11char_traitsIcESaIcEEESt4pairIKS5_N9grpc_core12experimental4JsonEESt10_Select1stISB_ESt4lessIS5_ESaISB_EE14_M_lower_boundEPKSt13_Rb_tree_nodeISB_EPKSt18_Rb_tree_node_baseRS7_ = comdat any

$_ZNKSt8_Rb_treeINSt7__cxx1112basic_stringIcSt11char_traitsIcESaIcEEESt4pairIKS5_N9grpc_core12experimental4JsonEESt10_Select1stISB_ESt4lessIS5_ESaISB_EE8_M_beginEv = comdat any

$_ZNKSt8_Rb_treeINSt7__cxx1112basic_stringIcSt11char_traitsIcESaIcEEESt4pairIKS5_N9grpc_core12experimental4JsonEESt10_Select1stISB_ESt4lessIS5_ESaISB_EE6_M_endEv = comdat any

$_ZNKSt8_Rb_treeINSt7__cxx1112basic_stringIcSt11char_traitsIcESaIcEEESt4pairIKS5_N9grpc_core12experimental4JsonEESt10_Select1stISB_ESt4lessIS5_ESaISB_EE3endEv = comdat any

$_ZNKSt4lessINSt7__cxx1112basic_stringIcSt11char_traitsIcESaIcEEEEclERKS5_S8_ = comdat any

$_ZNSt8_Rb_treeINSt7__cxx1112basic_stringIcSt11char_traitsIcESaIcEEESt4pairIKS5_N9grpc_core12experimental4JsonEESt10_Select1stISB_ESt4lessIS5_ESaISB_EE6_S_keyEPKSt18_Rb_tree_node_base = comdat any

$_ZNSt8_Rb_treeINSt7__cxx1112basic_stringIcSt11char_traitsIcESaIcEEESt4pairIKS5_N9grpc_core12experimental4JsonEESt10_Select1stISB_ESt4lessIS5_ESaISB_EE6_S_keyEPKSt13_Rb_tree_nodeISB_E = comdat any

$_ZNSt8_Rb_treeINSt7__cxx1112basic_stringIcSt11char_traitsIcESaIcEEESt4pairIKS5_N9grpc_core12experimental4JsonEESt10_Select1stISB_ESt4lessIS5_ESaISB_EE7_S_leftEPKSt18_Rb_tree_node_base = comdat any

$_ZNSt8_Rb_treeINSt7__cxx1112basic_stringIcSt11char_traitsIcESaIcEEESt4pairIKS5_N9grpc_core12experimental4JsonEESt10_Select1stISB_ESt4lessIS5_ESaISB_EE8_S_rightEPKSt18_Rb_tree_node_base = comdat any

$_ZNSt23_Rb_tree_const_iteratorISt4pairIKNSt7__cxx1112basic_stringIcSt11char_traitsIcESaIcEEEN9grpc_core12experimental4JsonEEEC2EPKSt18_Rb_tree_node_base = comdat any

$_ZNKSt10_Select1stISt4pairIKNSt7__cxx1112basic_stringIcSt11char_traitsIcESaIcEEEN9grpc_core12experimental4JsonEEEclERKSB_ = comdat any

$_ZNKSt13_Rb_tree_nodeISt4pairIKNSt7__cxx1112basic_stringIcSt11char_traitsIcESaIcEEEN9grpc_core12experimental4JsonEEE9_M_valptrEv = comdat any

$_ZNK9__gnu_cxx16__aligned_membufISt4pairIKNSt7__cxx1112basic_stringIcSt11char_traitsIcESaIcEEEN9grpc_core12experimental4JsonEEE6_M_ptrEv = comdat any

$_ZNK9__gnu_cxx16__aligned_membufISt4pairIKNSt7__cxx1112basic_stringIcSt11char_traitsIcESaIcEEEN9grpc_core12experimental4JsonEEE7_M_addrEv = comdat any

$_ZNK4absl12lts_2023080217internal_statusor12StatusOrDataIN9grpc_core13RefCountedPtrINS3_19LoadBalancingPolicy6ConfigEEEE8EnsureOkEv = comdat any

$_ZN4absl12lts_202308028AlphaNumC2ESt17basic_string_viewIcSt11char_traitsIcEE = comdat any

$_ZNSt8optionalISt6vectorINSt7__cxx1112basic_stringIcSt11char_traitsIcESaIcEEESaIS6_EEEC2ESt9nullopt_t = comdat any

$_ZNK9grpc_core16ValidationErrors4sizeEv = comdat any

$_ZN9grpc_core11json_detail13LoaderForTypeISt6vectorINSt7__cxx1112basic_stringIcSt11char_traitsIcESaIcEEESaIS8_EEEEPKNS0_15LoaderInterfaceEv = comdat any

$_ZNSt8optionalISt6vectorINSt7__cxx1112basic_stringIcSt11char_traitsIcESaIcEEESaIS6_EEEC2IS8_TnNSt9enable_ifIX7__and_vISt6__not_ISt7is_sameIS9_NSt9remove_cvINSt16remove_referenceIT_E4typeEE4typeEEESC_ISD_ISt10in_place_tSK_EESt16is_constructibleIS8_JSG_EESt14is_convertibleISG_S8_EEEbE4typeELb1EEEOSG_ = comdat any

$_ZNSt14_Optional_baseISt6vectorINSt7__cxx1112basic_stringIcSt11char_traitsIcESaIcEEESaIS6_EELb0ELb0EEC2Ev = comdat any

$_ZNSt17_Optional_payloadISt6vectorINSt7__cxx1112basic_stringIcSt11char_traitsIcESaIcEEESaIS6_EELb0ELb0ELb0EEC2Ev = comdat any

$_ZNSt17_Optional_payloadISt6vectorINSt7__cxx1112basic_stringIcSt11char_traitsIcESaIcEEESaIS6_EELb1ELb0ELb0EEC2Ev = comdat any

$_ZNSt22_Optional_payload_baseISt6vectorINSt7__cxx1112basic_stringIcSt11char_traitsIcESaIcEEESaIS6_EEEC2Ev = comdat any

$_ZNSt22_Optional_payload_baseISt6vectorINSt7__cxx1112basic_stringIcSt11char_traitsIcESaIcEEESaIS6_EEE8_StorageIS8_Lb0EEC2Ev = comdat any

$_ZNKSt3mapINSt7__cxx1112basic_stringIcSt11char_traitsIcESaIcEEESt6vectorIS5_SaIS5_EESt4lessIS5_ESaISt4pairIKS5_S8_EEE4sizeEv = comdat any

$_ZNKSt8_Rb_treeINSt7__cxx1112basic_stringIcSt11char_traitsIcESaIcEEESt4pairIKS5_St6vectorIS5_SaIS5_EEESt10_Select1stISB_ESt4lessIS5_ESaISB_EE4sizeEv = comdat any

$_ZN9grpc_core19NoDestructSingletonINS_11json_detail10AutoLoaderISt6vectorINSt7__cxx1112basic_stringIcSt11char_traitsIcESaIcEEESaIS9_EEEEE3GetEv = comdat any

$_ZN9grpc_core10NoDestructINS_11json_detail10AutoLoaderISt6vectorINSt7__cxx1112basic_stringIcSt11char_traitsIcESaIcEEESaIS9_EEEEEdeEv = comdat any

$_ZN9grpc_core10NoDestructINS_11json_detail10AutoLoaderISt6vectorINSt7__cxx1112basic_stringIcSt11char_traitsIcESaIcEEESaIS9_EEEEE3getEv = comdat any

$_ZNSt14_Optional_baseISt6vectorINSt7__cxx1112basic_stringIcSt11char_traitsIcESaIcEEESaIS6_EELb0ELb0EEC2IJS8_ETnNSt9enable_ifIX18is_constructible_vIS8_DpT_EEbE4typeELb0EEESt10in_place_tDpOSC_ = comdat any

$_ZNSt17_Optional_payloadISt6vectorINSt7__cxx1112basic_stringIcSt11char_traitsIcESaIcEEESaIS6_EELb0ELb0ELb0EECI2St22_Optional_payload_baseIS8_EIJS8_EEESt10in_place_tDpOT_ = comdat any

$_ZNSt17_Optional_payloadISt6vectorINSt7__cxx1112basic_stringIcSt11char_traitsIcESaIcEEESaIS6_EELb1ELb0ELb0EECI2St22_Optional_payload_baseIS8_EIJS8_EEESt10in_place_tDpOT_ = comdat any

$_ZNSt22_Optional_payload_baseISt6vectorINSt7__cxx1112basic_stringIcSt11char_traitsIcESaIcEEESaIS6_EEEC2IJS8_EEESt10in_place_tDpOT_ = comdat any

$_ZNSt22_Optional_payload_baseISt6vectorINSt7__cxx1112basic_stringIcSt11char_traitsIcESaIcEEESaIS6_EEE8_StorageIS8_Lb0EEC2IJS8_EEESt10in_place_tDpOT_ = comdat any

$_ZNSt6vectorINSt7__cxx1112basic_stringIcSt11char_traitsIcESaIcEEESaIS5_EEC2EOS7_ = comdat any

$_ZNSt12_Vector_baseINSt7__cxx1112basic_stringIcSt11char_traitsIcESaIcEEESaIS5_EEC2EOS7_ = comdat any

$_ZNSt12_Vector_baseINSt7__cxx1112basic_stringIcSt11char_traitsIcESaIcEEESaIS5_EE12_Vector_implC2EOS8_ = comdat any

$_ZNSaINSt7__cxx1112basic_stringIcSt11char_traitsIcESaIcEEEEC2ERKS5_ = comdat any

$_ZNSt12_Vector_baseINSt7__cxx1112basic_stringIcSt11char_traitsIcESaIcEEESaIS5_EE17_Vector_impl_dataC2EOS8_ = comdat any

$_ZNSt15__new_allocatorINSt7__cxx1112basic_stringIcSt11char_traitsIcESaIcEEEEC2ERKS6_ = comdat any

$_ZN9grpc_core9ConstructINS_11json_detail10AutoLoaderINSt7__cxx1112basic_stringIcSt11char_traitsIcESaIcEEEEEJEEEvPT_DpOT0_ = comdat any

$_ZN9grpc_core11json_detail10AutoLoaderINSt7__cxx1112basic_stringIcSt11char_traitsIcESaIcEEEEC2Ev = comdat any

$_ZN9grpc_core11json_detail10LoadStringC2Ev = comdat any

$_ZN9grpc_core11json_detail10LoadScalarC2Ev = comdat any

$_ZN9grpc_core9ConstructINS_11json_detail10AutoLoaderISt6vectorINSt7__cxx1112basic_stringIcSt11char_traitsIcESaIcEEESaIS9_EEEEJEEEvPT_DpOT0_ = comdat any

$_ZN9grpc_core11json_detail10AutoLoaderISt6vectorINSt7__cxx1112basic_stringIcSt11char_traitsIcESaIcEEESaIS8_EEEC2Ev = comdat any

$_ZN9grpc_core11json_detail10LoadVectorC2Ev = comdat any

$_ZNK9grpc_core11json_detail10AutoLoaderISt6vectorINSt7__cxx1112basic_stringIcSt11char_traitsIcESaIcEEESaIS8_EEE11EmplaceBackEPv = comdat any

$_ZNK9grpc_core11json_detail10AutoLoaderISt6vectorINSt7__cxx1112basic_stringIcSt11char_traitsIcESaIcEEESaIS8_EEE13ElementLoaderEv = comdat any

$_ZNSt6vectorINSt7__cxx1112basic_stringIcSt11char_traitsIcESaIcEEESaIS5_EE12emplace_backIJEEERS5_DpOT_ = comdat any

$_ZNSt16allocator_traitsISaINSt7__cxx1112basic_stringIcSt11char_traitsIcESaIcEEEEE9constructIS5_JEEEvRS6_PT_DpOT0_ = comdat any

$_ZNSt6vectorINSt7__cxx1112basic_stringIcSt11char_traitsIcESaIcEEESaIS5_EE17_M_realloc_insertIJEEEvN9__gnu_cxx17__normal_iteratorIPS5_S7_EEDpOT_ = comdat any

$_ZNSt15__new_allocatorINSt7__cxx1112basic_stringIcSt11char_traitsIcESaIcEEEE9constructIS5_JEEEvPT_DpOT0_ = comdat any

$_ZN9grpc_core11json_detail13LoaderForTypeINSt7__cxx1112basic_stringIcSt11char_traitsIcESaIcEEEEEPKNS0_15LoaderInterfaceEv = comdat any

$_ZN9grpc_core19NoDestructSingletonINS_11json_detail10AutoLoaderINSt7__cxx1112basic_stringIcSt11char_traitsIcESaIcEEEEEE3GetEv = comdat any

$_ZN9grpc_core10NoDestructINS_11json_detail10AutoLoaderINSt7__cxx1112basic_stringIcSt11char_traitsIcESaIcEEEEEEdeEv = comdat any

$_ZN9grpc_core10NoDestructINS_11json_detail10AutoLoaderINSt7__cxx1112basic_stringIcSt11char_traitsIcESaIcEEEEEE3getEv = comdat any

$_ZNKSt16initializer_listIN9grpc_core15XdsHealthStatusEE5beginEv = comdat any

$_ZNKSt16initializer_listIN9grpc_core15XdsHealthStatusEE4sizeEv = comdat any

$_ZN4absl12lts_202308024SpanIKN9grpc_core15XdsHealthStatusEEC2EPS4_m = comdat any

$_ZTSSt18bad_variant_access = comdat any

$_ZTISt18bad_variant_access = comdat any

$_ZTVSt18bad_variant_access = comdat any

$_ZN4absl12lts_202308026Status16kMovedFromStringE = comdat any

$_ZTVN9grpc_core8WakeableE = comdat any

$_ZTSN9grpc_core8WakeableE = comdat any

$_ZTIN9grpc_core8WakeableE = comdat any

$_ZTVN9grpc_core11json_detail10AutoLoaderINS_23XdsOverrideHostLbConfigEEE = comdat any

$_ZTSN9grpc_core11json_detail10AutoLoaderINS_23XdsOverrideHostLbConfigEEE = comdat any

$_ZTSN9grpc_core11json_detail15LoaderInterfaceE = comdat any

$_ZTIN9grpc_core11json_detail15LoaderInterfaceE = comdat any

$_ZTIN9grpc_core11json_detail10AutoLoaderINS_23XdsOverrideHostLbConfigEEE = comdat any

$_ZTVN9grpc_core11json_detail15LoaderInterfaceE = comdat any

$_ZTVN9grpc_core11json_detail10AutoLoaderINS_13RefCountedPtrINS_23XdsOverrideHostLbConfigEEEEE = comdat any

$_ZTSN9grpc_core11json_detail10AutoLoaderINS_13RefCountedPtrINS_23XdsOverrideHostLbConfigEEEEE = comdat any

$_ZTIN9grpc_core11json_detail10AutoLoaderINS_13RefCountedPtrINS_23XdsOverrideHostLbConfigEEEEE = comdat any

$_ZTVN9grpc_core23XdsOverrideHostLbConfigE = comdat any

$_ZTSN9grpc_core23XdsOverrideHostLbConfigE = comdat any

$_ZTSN9grpc_core19LoadBalancingPolicy6ConfigE = comdat any

$_ZTSN9grpc_core10RefCountedINS_19LoadBalancingPolicy6ConfigENS_19PolymorphicRefCountENS_11UnrefDeleteEEE = comdat any

$_ZTSN9grpc_core19PolymorphicRefCountE = comdat any

$_ZTIN9grpc_core19PolymorphicRefCountE = comdat any

$_ZTIN9grpc_core10RefCountedINS_19LoadBalancingPolicy6ConfigENS_19PolymorphicRefCountENS_11UnrefDeleteEEE = comdat any

$_ZTIN9grpc_core19LoadBalancingPolicy6ConfigE = comdat any

$_ZTIN9grpc_core23XdsOverrideHostLbConfigE = comdat any

$_ZTVN9grpc_core19LoadBalancingPolicy6ConfigE = comdat any

$_ZTVN9grpc_core10RefCountedINS_19LoadBalancingPolicy6ConfigENS_19PolymorphicRefCountENS_11UnrefDeleteEEE = comdat any

$_ZTVN9grpc_core19PolymorphicRefCountE = comdat any

$_ZTSN9grpc_core26LoadBalancingPolicyFactoryE = comdat any

$_ZTIN9grpc_core26LoadBalancingPolicyFactoryE = comdat any

$_ZTVN9grpc_core26LoadBalancingPolicyFactoryE = comdat any

$_ZSt19piecewise_construct = comdat any

$_ZSt14in_place_indexILm0EE = comdat any

$_ZTSSt16_Sp_counted_baseILN9__gnu_cxx12_Lock_policyE2EE = comdat any

$_ZTSSt11_Mutex_baseILN9__gnu_cxx12_Lock_policyE2EE = comdat any

$_ZTISt11_Mutex_baseILN9__gnu_cxx12_Lock_policyE2EE = comdat any

$_ZTISt16_Sp_counted_baseILN9__gnu_cxx12_Lock_policyE2EE = comdat any

$_ZTVSt16_Sp_counted_baseILN9__gnu_cxx12_Lock_policyE2EE = comdat any

$_ZTSN9grpc_core25EndpointAddressesIteratorE = comdat any

$_ZTIN9grpc_core25EndpointAddressesIteratorE = comdat any

$_ZTVN9grpc_core25EndpointAddressesIteratorE = comdat any

$_ZTSSt19_Sp_make_shared_tag = comdat any

$_ZTISt19_Sp_make_shared_tag = comdat any

$_ZZNSt19_Sp_make_shared_tag5_S_tiEvE5__tag = comdat any

$_ZTSN9grpc_core19LoadBalancingPolicy30DelegatingChannelControlHelperE = comdat any

$_ZTSN9grpc_core19LoadBalancingPolicy20ChannelControlHelperE = comdat any

$_ZTIN9grpc_core19LoadBalancingPolicy20ChannelControlHelperE = comdat any

$_ZTIN9grpc_core19LoadBalancingPolicy30DelegatingChannelControlHelperE = comdat any

$_ZTVN9grpc_core19LoadBalancingPolicy30DelegatingChannelControlHelperE = comdat any

$_ZTVN9grpc_core19LoadBalancingPolicy20ChannelControlHelperE = comdat any

$_ZTSN9grpc_core20DelegatingSubchannelE = comdat any

$_ZTSN9grpc_core19SubchannelInterfaceE = comdat any

$_ZTSN9grpc_core14DualRefCountedINS_19SubchannelInterfaceEEE = comdat any

$_ZTSN9grpc_core10OrphanableE = comdat any

$_ZTIN9grpc_core10OrphanableE = comdat any

$_ZTIN9grpc_core14DualRefCountedINS_19SubchannelInterfaceEEE = comdat any

$_ZTIN9grpc_core19SubchannelInterfaceE = comdat any

$_ZTIN9grpc_core20DelegatingSubchannelE = comdat any

$_ZTVN9grpc_core20DelegatingSubchannelE = comdat any

$_ZTVN9grpc_core19SubchannelInterfaceE = comdat any

$_ZTVN9grpc_core14DualRefCountedINS_19SubchannelInterfaceEEE = comdat any

$_ZTVN9grpc_core10OrphanableE = comdat any

$_ZTSN9grpc_core19SubchannelInterface33ConnectivityStateWatcherInterfaceE = comdat any

$_ZTIN9grpc_core19SubchannelInterface33ConnectivityStateWatcherInterfaceE = comdat any

$_ZTVN9grpc_core19SubchannelInterface33ConnectivityStateWatcherInterfaceE = comdat any

$_ZTSN9grpc_core19LoadBalancingPolicy16SubchannelPickerE = comdat any

$_ZTSN9grpc_core14DualRefCountedINS_19LoadBalancingPolicy16SubchannelPickerEEE = comdat any

$_ZTIN9grpc_core14DualRefCountedINS_19LoadBalancingPolicy16SubchannelPickerEEE = comdat any

$_ZTIN9grpc_core19LoadBalancingPolicy16SubchannelPickerE = comdat any

$_ZSt7nullopt = comdat any

$_ZSt8in_place = comdat any

$_ZSt14in_place_indexILm1EE = comdat any

$_ZSt14in_place_indexILm2EE = comdat any

$_ZSt14in_place_indexILm3EE = comdat any

$_ZTVN9grpc_core8JsonArgsE = comdat any

$_ZTSN9grpc_core8JsonArgsE = comdat any

$_ZTIN9grpc_core8JsonArgsE = comdat any

$_ZTVN9grpc_core11json_detail24FinishedJsonObjectLoaderINS_23XdsOverrideHostLbConfigELm0EvEE = comdat any

$_ZTSN9grpc_core11json_detail24FinishedJsonObjectLoaderINS_23XdsOverrideHostLbConfigELm0EvEE = comdat any

$_ZTIN9grpc_core11json_detail24FinishedJsonObjectLoaderINS_23XdsOverrideHostLbConfigELm0EvEE = comdat any

$_ZTVN9grpc_core11json_detail10AutoLoaderINSt7__cxx1112basic_stringIcSt11char_traitsIcESaIcEEEEE = comdat any

$_ZTSN9grpc_core11json_detail10AutoLoaderINSt7__cxx1112basic_stringIcSt11char_traitsIcESaIcEEEEE = comdat any

$_ZTIN9grpc_core11json_detail10AutoLoaderINSt7__cxx1112basic_stringIcSt11char_traitsIcESaIcEEEEE = comdat any

$_ZTVN9grpc_core11json_detail10AutoLoaderISt6vectorINSt7__cxx1112basic_stringIcSt11char_traitsIcESaIcEEESaIS8_EEEE = comdat any

$_ZTSN9grpc_core11json_detail10AutoLoaderISt6vectorINSt7__cxx1112basic_stringIcSt11char_traitsIcESaIcEEESaIS8_EEEE = comdat any

$_ZTIN9grpc_core11json_detail10AutoLoaderISt6vectorINSt7__cxx1112basic_stringIcSt11char_traitsIcESaIcEEESaIS8_EEEE = comdat any

@_ZStL8__ioinit = internal global %"class.std::ios_base::Init" zeroinitializer, align 1
@__dso_handle = external hidden global i8
@_ZN9grpc_core31grpc_lb_xds_override_host_traceE = global %"class.grpc_core::TraceFlag" zeroinitializer, align 8
@.str = private unnamed_addr constant [21 x i8] c"xds_override_host_lb\00", align 1
@_ZZN9grpc_core23XdsOverrideHostLbConfig10JsonLoaderERKNS_8JsonArgsEE11kJsonLoader = internal global ptr null, align 8
@_ZGVZN9grpc_core23XdsOverrideHostLbConfig10JsonLoaderERKNS_8JsonArgsEE11kJsonLoader = internal global i64 0, align 8
@.str.2 = private unnamed_addr constant [13 x i8] c".childPolicy\00", align 1
@.str.3 = private unnamed_addr constant [12 x i8] c"childPolicy\00", align 1
@.str.4 = private unnamed_addr constant [18 x i8] c"field not present\00", align 1
@.str.5 = private unnamed_addr constant [20 x i8] c".overrideHostStatus\00", align 1
@.str.6 = private unnamed_addr constant [19 x i8] c"overrideHostStatus\00", align 1
@.str.7 = private unnamed_addr constant [2 x i8] c"[\00", align 1
@.str.8 = private unnamed_addr constant [2 x i8] c"]\00", align 1
@.str.9 = private unnamed_addr constant [20 x i8] c"invalid host status\00", align 1
@_ZN9grpc_core19NoDestructSingletonINS_14promise_detail10UnwakeableEE6value_E = linkonce_odr global %"class.grpc_core::NoDestruct" zeroinitializer, comdat, align 8
@_ZGVN9grpc_core19NoDestructSingletonINS_14promise_detail10UnwakeableEE6value_E = linkonce_odr global i64 0, comdat($_ZN9grpc_core19NoDestructSingletonINS_14promise_detail10UnwakeableEE6value_E), align 8
@_ZN9grpc_core19NoDestructSingletonINS_11json_detail10AutoLoaderINS_23XdsOverrideHostLbConfigEEEE6value_E = linkonce_odr global %"class.grpc_core::NoDestruct.108" zeroinitializer, comdat, align 8
@_ZGVN9grpc_core19NoDestructSingletonINS_11json_detail10AutoLoaderINS_23XdsOverrideHostLbConfigEEEE6value_E = linkonce_odr global i64 0, comdat($_ZN9grpc_core19NoDestructSingletonINS_11json_detail10AutoLoaderINS_23XdsOverrideHostLbConfigEEEE6value_E), align 8
@_ZN9grpc_core19NoDestructSingletonINS_11json_detail10AutoLoaderINS_13RefCountedPtrINS_23XdsOverrideHostLbConfigEEEEEE6value_E = linkonce_odr global %"class.grpc_core::NoDestruct.109" zeroinitializer, comdat, align 8
@_ZGVN9grpc_core19NoDestructSingletonINS_11json_detail10AutoLoaderINS_13RefCountedPtrINS_23XdsOverrideHostLbConfigEEEEEE6value_E = linkonce_odr global i64 0, comdat($_ZN9grpc_core19NoDestructSingletonINS_11json_detail10AutoLoaderINS_13RefCountedPtrINS_23XdsOverrideHostLbConfigEEEEEE6value_E), align 8
@_ZN9grpc_core19NoDestructSingletonINS_11json_detail10AutoLoaderINSt7__cxx1112basic_stringIcSt11char_traitsIcESaIcEEEEEE6value_E = linkonce_odr global %"class.grpc_core::NoDestruct.110" zeroinitializer, comdat, align 8
@_ZGVN9grpc_core19NoDestructSingletonINS_11json_detail10AutoLoaderINSt7__cxx1112basic_stringIcSt11char_traitsIcESaIcEEEEEE6value_E = linkonce_odr global i64 0, comdat($_ZN9grpc_core19NoDestructSingletonINS_11json_detail10AutoLoaderINSt7__cxx1112basic_stringIcSt11char_traitsIcESaIcEEEEEE6value_E), align 8
@_ZN9grpc_core19NoDestructSingletonINS_11json_detail10AutoLoaderISt6vectorINSt7__cxx1112basic_stringIcSt11char_traitsIcESaIcEEESaIS9_EEEEE6value_E = linkonce_odr global %"class.grpc_core::NoDestruct.111" zeroinitializer, comdat, align 8
@_ZGVN9grpc_core19NoDestructSingletonINS_11json_detail10AutoLoaderISt6vectorINSt7__cxx1112basic_stringIcSt11char_traitsIcESaIcEEESaIS9_EEEEE6value_E = linkonce_odr global i64 0, comdat($_ZN9grpc_core19NoDestructSingletonINS_11json_detail10AutoLoaderISt6vectorINSt7__cxx1112basic_stringIcSt11char_traitsIcESaIcEEESaIS9_EEEEE6value_E), align 8
@.str.15 = private unnamed_addr constant [31 x i8] c"std::get: variant is valueless\00", align 1
@.str.16 = private unnamed_addr constant [34 x i8] c"std::get: wrong index for variant\00", align 1
@_ZTVN10__cxxabiv120__si_class_type_infoE = external global [0 x ptr]
@_ZTSSt18bad_variant_access = linkonce_odr constant [23 x i8] c"St18bad_variant_access\00", comdat, align 1
@_ZTISt9exception = external constant ptr
@_ZTISt18bad_variant_access = linkonce_odr constant { ptr, ptr, ptr } { ptr getelementptr inbounds (ptr, ptr @_ZTVN10__cxxabiv120__si_class_type_infoE, i64 2), ptr @_ZTSSt18bad_variant_access, ptr @_ZTISt9exception }, comdat, align 8
@_ZTVSt18bad_variant_access = linkonce_odr unnamed_addr constant { [5 x ptr] } { [5 x ptr] [ptr null, ptr @_ZTISt18bad_variant_access, ptr @_ZNSt18bad_variant_accessD2Ev, ptr @_ZNSt18bad_variant_accessD0Ev, ptr @_ZNKSt18bad_variant_access4whatEv] }, comdat, align 8
@_ZTVSt9exception = external unnamed_addr constant { [5 x ptr] }, align 8
@_ZN9grpc_core17CoreConfiguration7config_E = external global %"struct.std::atomic.112", align 8
@_ZN4absl12lts_202308026Status16kMovedFromStringE = linkonce_odr constant [28 x i8] c"Status accessed after move.\00", comdat, align 16
@.str.17 = private unnamed_addr constant [50 x i8] c"basic_string: construction from null is not valid\00", align 1
@_ZTVN9grpc_core14promise_detail10UnwakeableE = external unnamed_addr constant { [6 x ptr] }, align 8
@_ZTVN9grpc_core8WakeableE = linkonce_odr unnamed_addr constant { [6 x ptr] } { [6 x ptr] [ptr null, ptr @_ZTIN9grpc_core8WakeableE, ptr @__cxa_pure_virtual, ptr @__cxa_pure_virtual, ptr @__cxa_pure_virtual, ptr @__cxa_pure_virtual] }, comdat, align 8
@_ZTVN10__cxxabiv117__class_type_infoE = external global [0 x ptr]
@_ZTSN9grpc_core8WakeableE = linkonce_odr constant [22 x i8] c"N9grpc_core8WakeableE\00", comdat, align 1
@_ZTIN9grpc_core8WakeableE = linkonce_odr constant { ptr, ptr } { ptr getelementptr inbounds (ptr, ptr @_ZTVN10__cxxabiv117__class_type_infoE, i64 2), ptr @_ZTSN9grpc_core8WakeableE }, comdat, align 8
@_ZTVN9grpc_core11json_detail10AutoLoaderINS_23XdsOverrideHostLbConfigEEE = linkonce_odr unnamed_addr constant { [3 x ptr] } { [3 x ptr] [ptr null, ptr @_ZTIN9grpc_core11json_detail10AutoLoaderINS_23XdsOverrideHostLbConfigEEE, ptr @_ZNK9grpc_core11json_detail10AutoLoaderINS_23XdsOverrideHostLbConfigEE8LoadIntoERKNS_12experimental4JsonERKNS_8JsonArgsEPvPNS_16ValidationErrorsE] }, comdat, align 8
@_ZTSN9grpc_core11json_detail10AutoLoaderINS_23XdsOverrideHostLbConfigEEE = linkonce_odr constant [69 x i8] c"N9grpc_core11json_detail10AutoLoaderINS_23XdsOverrideHostLbConfigEEE\00", comdat, align 1
@_ZTSN9grpc_core11json_detail15LoaderInterfaceE = linkonce_odr constant [43 x i8] c"N9grpc_core11json_detail15LoaderInterfaceE\00", comdat, align 1
@_ZTIN9grpc_core11json_detail15LoaderInterfaceE = linkonce_odr constant { ptr, ptr } { ptr getelementptr inbounds (ptr, ptr @_ZTVN10__cxxabiv117__class_type_infoE, i64 2), ptr @_ZTSN9grpc_core11json_detail15LoaderInterfaceE }, comdat, align 8
@_ZTIN9grpc_core11json_detail10AutoLoaderINS_23XdsOverrideHostLbConfigEEE = linkonce_odr constant { ptr, ptr, ptr } { ptr getelementptr inbounds (ptr, ptr @_ZTVN10__cxxabiv120__si_class_type_infoE, i64 2), ptr @_ZTSN9grpc_core11json_detail10AutoLoaderINS_23XdsOverrideHostLbConfigEEE, ptr @_ZTIN9grpc_core11json_detail15LoaderInterfaceE }, comdat, align 8
@_ZTVN9grpc_core11json_detail15LoaderInterfaceE = linkonce_odr unnamed_addr constant { [3 x ptr] } { [3 x ptr] [ptr null, ptr @_ZTIN9grpc_core11json_detail15LoaderInterfaceE, ptr @__cxa_pure_virtual] }, comdat, align 8
@_ZTVN9grpc_core11json_detail10AutoLoaderINS_13RefCountedPtrINS_23XdsOverrideHostLbConfigEEEEE = linkonce_odr unnamed_addr constant { [6 x ptr] } { [6 x ptr] [ptr null, ptr @_ZTIN9grpc_core11json_detail10AutoLoaderINS_13RefCountedPtrINS_23XdsOverrideHostLbConfigEEEEE, ptr @_ZNK9grpc_core11json_detail11LoadWrapped8LoadIntoERKNS_12experimental4JsonERKNS_8JsonArgsEPvPNS_16ValidationErrorsE, ptr @_ZNK9grpc_core11json_detail10AutoLoaderINS_13RefCountedPtrINS_23XdsOverrideHostLbConfigEEEE7EmplaceEPv, ptr @_ZNK9grpc_core11json_detail10AutoLoaderINS_13RefCountedPtrINS_23XdsOverrideHostLbConfigEEEE5ResetEPv, ptr @_ZNK9grpc_core11json_detail10AutoLoaderINS_13RefCountedPtrINS_23XdsOverrideHostLbConfigEEEE13ElementLoaderEv] }, comdat, align 8
@_ZTSN9grpc_core11json_detail10AutoLoaderINS_13RefCountedPtrINS_23XdsOverrideHostLbConfigEEEEE = linkonce_odr constant [90 x i8] c"N9grpc_core11json_detail10AutoLoaderINS_13RefCountedPtrINS_23XdsOverrideHostLbConfigEEEEE\00", comdat, align 1
@_ZTIN9grpc_core11json_detail11LoadWrappedE = external constant ptr
@_ZTIN9grpc_core11json_detail10AutoLoaderINS_13RefCountedPtrINS_23XdsOverrideHostLbConfigEEEEE = linkonce_odr constant { ptr, ptr, ptr } { ptr getelementptr inbounds (ptr, ptr @_ZTVN10__cxxabiv120__si_class_type_infoE, i64 2), ptr @_ZTSN9grpc_core11json_detail10AutoLoaderINS_13RefCountedPtrINS_23XdsOverrideHostLbConfigEEEEE, ptr @_ZTIN9grpc_core11json_detail11LoadWrappedE }, comdat, align 8
@_ZTVN9grpc_core11json_detail11LoadWrappedE = external unnamed_addr constant { [6 x ptr] }, align 8
@_ZTVN9grpc_core23XdsOverrideHostLbConfigE = linkonce_odr unnamed_addr constant { [5 x ptr] } { [5 x ptr] [ptr null, ptr @_ZTIN9grpc_core23XdsOverrideHostLbConfigE, ptr @_ZN9grpc_core23XdsOverrideHostLbConfigD2Ev, ptr @_ZN9grpc_core23XdsOverrideHostLbConfigD0Ev, ptr @_ZNK9grpc_core23XdsOverrideHostLbConfig4nameEv] }, comdat, align 8
@_ZTSN9grpc_core23XdsOverrideHostLbConfigE = linkonce_odr constant [38 x i8] c"N9grpc_core23XdsOverrideHostLbConfigE\00", comdat, align 1
@_ZTSN9grpc_core19LoadBalancingPolicy6ConfigE = linkonce_odr constant [41 x i8] c"N9grpc_core19LoadBalancingPolicy6ConfigE\00", comdat, align 1
@_ZTSN9grpc_core10RefCountedINS_19LoadBalancingPolicy6ConfigENS_19PolymorphicRefCountENS_11UnrefDeleteEEE = linkonce_odr constant [101 x i8] c"N9grpc_core10RefCountedINS_19LoadBalancingPolicy6ConfigENS_19PolymorphicRefCountENS_11UnrefDeleteEEE\00", comdat, align 1
@_ZTSN9grpc_core19PolymorphicRefCountE = linkonce_odr constant [34 x i8] c"N9grpc_core19PolymorphicRefCountE\00", comdat, align 1
@_ZTIN9grpc_core19PolymorphicRefCountE = linkonce_odr constant { ptr, ptr } { ptr getelementptr inbounds (ptr, ptr @_ZTVN10__cxxabiv117__class_type_infoE, i64 2), ptr @_ZTSN9grpc_core19PolymorphicRefCountE }, comdat, align 8
@_ZTIN9grpc_core10RefCountedINS_19LoadBalancingPolicy6ConfigENS_19PolymorphicRefCountENS_11UnrefDeleteEEE = linkonce_odr constant { ptr, ptr, ptr } { ptr getelementptr inbounds (ptr, ptr @_ZTVN10__cxxabiv120__si_class_type_infoE, i64 2), ptr @_ZTSN9grpc_core10RefCountedINS_19LoadBalancingPolicy6ConfigENS_19PolymorphicRefCountENS_11UnrefDeleteEEE, ptr @_ZTIN9grpc_core19PolymorphicRefCountE }, comdat, align 8
@_ZTIN9grpc_core19LoadBalancingPolicy6ConfigE = linkonce_odr constant { ptr, ptr, ptr } { ptr getelementptr inbounds (ptr, ptr @_ZTVN10__cxxabiv120__si_class_type_infoE, i64 2), ptr @_ZTSN9grpc_core19LoadBalancingPolicy6ConfigE, ptr @_ZTIN9grpc_core10RefCountedINS_19LoadBalancingPolicy6ConfigENS_19PolymorphicRefCountENS_11UnrefDeleteEEE }, comdat, align 8
@_ZTIN9grpc_core23XdsOverrideHostLbConfigE = linkonce_odr constant { ptr, ptr, ptr } { ptr getelementptr inbounds (ptr, ptr @_ZTVN10__cxxabiv120__si_class_type_infoE, i64 2), ptr @_ZTSN9grpc_core23XdsOverrideHostLbConfigE, ptr @_ZTIN9grpc_core19LoadBalancingPolicy6ConfigE }, comdat, align 8
@_ZTVN9grpc_core19LoadBalancingPolicy6ConfigE = linkonce_odr unnamed_addr constant { [5 x ptr] } { [5 x ptr] [ptr null, ptr @_ZTIN9grpc_core19LoadBalancingPolicy6ConfigE, ptr @_ZN9grpc_core19LoadBalancingPolicy6ConfigD2Ev, ptr @_ZN9grpc_core19LoadBalancingPolicy6ConfigD0Ev, ptr @__cxa_pure_virtual] }, comdat, align 8
@_ZTVN9grpc_core10RefCountedINS_19LoadBalancingPolicy6ConfigENS_19PolymorphicRefCountENS_11UnrefDeleteEEE = linkonce_odr unnamed_addr constant { [4 x ptr] } { [4 x ptr] [ptr null, ptr @_ZTIN9grpc_core10RefCountedINS_19LoadBalancingPolicy6ConfigENS_19PolymorphicRefCountENS_11UnrefDeleteEEE, ptr @_ZN9grpc_core10RefCountedINS_19LoadBalancingPolicy6ConfigENS_19PolymorphicRefCountENS_11UnrefDeleteEED2Ev, ptr @_ZN9grpc_core10RefCountedINS_19LoadBalancingPolicy6ConfigENS_19PolymorphicRefCountENS_11UnrefDeleteEED0Ev] }, comdat, align 8
@_ZTVN9grpc_core19PolymorphicRefCountE = linkonce_odr unnamed_addr constant { [4 x ptr] } { [4 x ptr] [ptr null, ptr @_ZTIN9grpc_core19PolymorphicRefCountE, ptr @_ZN9grpc_core19PolymorphicRefCountD2Ev, ptr @_ZN9grpc_core19PolymorphicRefCountD0Ev] }, comdat, align 8
@.str.18 = private unnamed_addr constant [31 x i8] c"xds_override_host_experimental\00", align 1
@_ZTVN9grpc_core12_GLOBAL__N_124XdsOverrideHostLbFactoryE = internal unnamed_addr constant { [7 x ptr] } { [7 x ptr] [ptr null, ptr @_ZTIN9grpc_core12_GLOBAL__N_124XdsOverrideHostLbFactoryE, ptr @_ZN9grpc_core12_GLOBAL__N_124XdsOverrideHostLbFactoryD2Ev, ptr @_ZN9grpc_core12_GLOBAL__N_124XdsOverrideHostLbFactoryD0Ev, ptr @_ZNK9grpc_core12_GLOBAL__N_124XdsOverrideHostLbFactory25CreateLoadBalancingPolicyENS_19LoadBalancingPolicy4ArgsE, ptr @_ZNK9grpc_core12_GLOBAL__N_124XdsOverrideHostLbFactory4nameEv, ptr @_ZNK9grpc_core12_GLOBAL__N_124XdsOverrideHostLbFactory24ParseLoadBalancingConfigERKNS_12experimental4JsonE] }, align 8
@_ZTSN9grpc_core12_GLOBAL__N_124XdsOverrideHostLbFactoryE = internal constant [53 x i8] c"N9grpc_core12_GLOBAL__N_124XdsOverrideHostLbFactoryE\00", align 1
@_ZTSN9grpc_core26LoadBalancingPolicyFactoryE = linkonce_odr constant [41 x i8] c"N9grpc_core26LoadBalancingPolicyFactoryE\00", comdat, align 1
@_ZTIN9grpc_core26LoadBalancingPolicyFactoryE = linkonce_odr constant { ptr, ptr } { ptr getelementptr inbounds (ptr, ptr @_ZTVN10__cxxabiv117__class_type_infoE, i64 2), ptr @_ZTSN9grpc_core26LoadBalancingPolicyFactoryE }, comdat, align 8
@_ZTIN9grpc_core12_GLOBAL__N_124XdsOverrideHostLbFactoryE = internal constant { ptr, ptr, ptr } { ptr getelementptr inbounds (ptr, ptr @_ZTVN10__cxxabiv120__si_class_type_infoE, i64 2), ptr @_ZTSN9grpc_core12_GLOBAL__N_124XdsOverrideHostLbFactoryE, ptr @_ZTIN9grpc_core26LoadBalancingPolicyFactoryE }, align 8
@_ZTVN9grpc_core26LoadBalancingPolicyFactoryE = linkonce_odr unnamed_addr constant { [7 x ptr] } { [7 x ptr] [ptr null, ptr @_ZTIN9grpc_core26LoadBalancingPolicyFactoryE, ptr @_ZN9grpc_core26LoadBalancingPolicyFactoryD2Ev, ptr @_ZN9grpc_core26LoadBalancingPolicyFactoryD0Ev, ptr @__cxa_pure_virtual, ptr @__cxa_pure_virtual, ptr @__cxa_pure_virtual] }, comdat, align 8
@_ZTVN9grpc_core12_GLOBAL__N_117XdsOverrideHostLbE = internal unnamed_addr constant { [10 x ptr] } { [10 x ptr] [ptr null, ptr @_ZTIN9grpc_core12_GLOBAL__N_117XdsOverrideHostLbE, ptr @_ZN9grpc_core19LoadBalancingPolicy6OrphanEv, ptr @_ZN9grpc_core12_GLOBAL__N_117XdsOverrideHostLbD2Ev, ptr @_ZN9grpc_core12_GLOBAL__N_117XdsOverrideHostLbD0Ev, ptr @_ZNK9grpc_core12_GLOBAL__N_117XdsOverrideHostLb4nameEv, ptr @_ZN9grpc_core12_GLOBAL__N_117XdsOverrideHostLb12UpdateLockedENS_19LoadBalancingPolicy10UpdateArgsE, ptr @_ZN9grpc_core12_GLOBAL__N_117XdsOverrideHostLb14ExitIdleLockedEv, ptr @_ZN9grpc_core12_GLOBAL__N_117XdsOverrideHostLb18ResetBackoffLockedEv, ptr @_ZN9grpc_core12_GLOBAL__N_117XdsOverrideHostLb14ShutdownLockedEv] }, align 8
@.str.19 = private unnamed_addr constant [158 x i8] c"generated/home/dtcxzyw/WorkSpace/Projects/compilers/llvm-opt-benchmark/bench/grpc/grpc/src/core/ext/filters/client_channel/lb_policy/xds/xds_override_host.cc\00", align 1
@.str.20 = private unnamed_addr constant [34 x i8] c"[xds_override_host_lb %p] created\00", align 1
@_ZTSN9grpc_core12_GLOBAL__N_117XdsOverrideHostLbE = internal constant [46 x i8] c"N9grpc_core12_GLOBAL__N_117XdsOverrideHostLbE\00", align 1
@_ZTIN9grpc_core19LoadBalancingPolicyE = external constant ptr
@_ZTIN9grpc_core12_GLOBAL__N_117XdsOverrideHostLbE = internal constant { ptr, ptr, ptr } { ptr getelementptr inbounds (ptr, ptr @_ZTVN10__cxxabiv120__si_class_type_infoE, i64 2), ptr @_ZTSN9grpc_core12_GLOBAL__N_117XdsOverrideHostLbE, ptr @_ZTIN9grpc_core19LoadBalancingPolicyE }, align 8
@.str.21 = private unnamed_addr constant [65 x i8] c"[xds_override_host_lb %p] destroying xds_override_host LB policy\00", align 1
@.str.22 = private unnamed_addr constant [42 x i8] c"[xds_override_host_lb %p] Received update\00", align 1
@.str.23 = private unnamed_addr constant [22 x i8] c"Missing policy config\00", align 1
@.str.24 = private unnamed_addr constant [44 x i8] c"[xds_override_host_lb %p] address error: %s\00", align 1
@.str.25 = private unnamed_addr constant [59 x i8] c"[xds_override_host_lb %p] Updating child policy handler %p\00", align 1
@.str.26 = private unnamed_addr constant [46 x i8] c"[xds_override_host_lb %p] removing map key %s\00", align 1
@.str.27 = private unnamed_addr constant [44 x i8] c"[xds_override_host_lb %p] adding map key %s\00", align 1
@_ZSt19piecewise_construct = linkonce_odr constant %"struct.std::piecewise_construct_t" zeroinitializer, comdat, align 1
@.str.28 = private unnamed_addr constant [65 x i8] c"[xds_override_host_lb %p] setting EDS health status for %s to %s\00", align 1
@.str.29 = private unnamed_addr constant [60 x i8] c"[xds_override_host_lb %p] setting address list for %s to %s\00", align 1
@.str.30 = private unnamed_addr constant [96 x i8] c"[xds_override_host_lb %p] endpoint %s: draining but not in override_host_status set -- ignoring\00", align 1
@.str.31 = private unnamed_addr constant [57 x i8] c"[xds_override_host_lb %p] endpoint %s: adding map key %s\00", align 1
@.str.32 = private unnamed_addr constant [2 x i8] c",\00", align 1
@.str.33 = private unnamed_addr constant [1 x i8] zeroinitializer, align 1
@.str.34 = private unnamed_addr constant [46 x i8] c"grpc.internal.no_subchannel.xds_health_status\00", align 1
@.str.35 = private unnamed_addr constant [16 x i8] c"vector::reserve\00", align 1
@.str.36 = private unnamed_addr constant [26 x i8] c"vector::_M_realloc_insert\00", align 1
@.str.37 = private unnamed_addr constant [13 x i8] c"pos > size()\00", align 1
@_ZSt14in_place_indexILm0EE = linkonce_odr constant %"struct.std::in_place_index_t" zeroinitializer, comdat, align 1
@.str.38 = private unnamed_addr constant [33 x i8] c"std::visit: variant is valueless\00", align 1
@_ZTVSt23_Sp_counted_ptr_inplaceIN9grpc_core12_GLOBAL__N_121ChildEndpointIteratorESaIvELN9__gnu_cxx12_Lock_policyE2EE = internal unnamed_addr constant { [7 x ptr] } { [7 x ptr] [ptr null, ptr @_ZTISt23_Sp_counted_ptr_inplaceIN9grpc_core12_GLOBAL__N_121ChildEndpointIteratorESaIvELN9__gnu_cxx12_Lock_policyE2EE, ptr @_ZNSt23_Sp_counted_ptr_inplaceIN9grpc_core12_GLOBAL__N_121ChildEndpointIteratorESaIvELN9__gnu_cxx12_Lock_policyE2EED2Ev, ptr @_ZNSt23_Sp_counted_ptr_inplaceIN9grpc_core12_GLOBAL__N_121ChildEndpointIteratorESaIvELN9__gnu_cxx12_Lock_policyE2EED0Ev, ptr @_ZNSt23_Sp_counted_ptr_inplaceIN9grpc_core12_GLOBAL__N_121ChildEndpointIteratorESaIvELN9__gnu_cxx12_Lock_policyE2EE10_M_disposeEv, ptr @_ZNSt23_Sp_counted_ptr_inplaceIN9grpc_core12_GLOBAL__N_121ChildEndpointIteratorESaIvELN9__gnu_cxx12_Lock_policyE2EE10_M_destroyEv, ptr @_ZNSt23_Sp_counted_ptr_inplaceIN9grpc_core12_GLOBAL__N_121ChildEndpointIteratorESaIvELN9__gnu_cxx12_Lock_policyE2EE14_M_get_deleterERKSt9type_info] }, align 8
@_ZTSSt23_Sp_counted_ptr_inplaceIN9grpc_core12_GLOBAL__N_121ChildEndpointIteratorESaIvELN9__gnu_cxx12_Lock_policyE2EE = internal constant [113 x i8] c"St23_Sp_counted_ptr_inplaceIN9grpc_core12_GLOBAL__N_121ChildEndpointIteratorESaIvELN9__gnu_cxx12_Lock_policyE2EE\00", align 1
@_ZTSSt16_Sp_counted_baseILN9__gnu_cxx12_Lock_policyE2EE = linkonce_odr constant [52 x i8] c"St16_Sp_counted_baseILN9__gnu_cxx12_Lock_policyE2EE\00", comdat, align 1
@_ZTSSt11_Mutex_baseILN9__gnu_cxx12_Lock_policyE2EE = linkonce_odr constant [47 x i8] c"St11_Mutex_baseILN9__gnu_cxx12_Lock_policyE2EE\00", comdat, align 1
@_ZTISt11_Mutex_baseILN9__gnu_cxx12_Lock_policyE2EE = linkonce_odr constant { ptr, ptr } { ptr getelementptr inbounds (ptr, ptr @_ZTVN10__cxxabiv117__class_type_infoE, i64 2), ptr @_ZTSSt11_Mutex_baseILN9__gnu_cxx12_Lock_policyE2EE }, comdat, align 8
@_ZTISt16_Sp_counted_baseILN9__gnu_cxx12_Lock_policyE2EE = linkonce_odr constant { ptr, ptr, ptr } { ptr getelementptr inbounds (ptr, ptr @_ZTVN10__cxxabiv120__si_class_type_infoE, i64 2), ptr @_ZTSSt16_Sp_counted_baseILN9__gnu_cxx12_Lock_policyE2EE, ptr @_ZTISt11_Mutex_baseILN9__gnu_cxx12_Lock_policyE2EE }, comdat, align 8
@_ZTISt23_Sp_counted_ptr_inplaceIN9grpc_core12_GLOBAL__N_121ChildEndpointIteratorESaIvELN9__gnu_cxx12_Lock_policyE2EE = internal constant { ptr, ptr, ptr } { ptr getelementptr inbounds (ptr, ptr @_ZTVN10__cxxabiv120__si_class_type_infoE, i64 2), ptr @_ZTSSt23_Sp_counted_ptr_inplaceIN9grpc_core12_GLOBAL__N_121ChildEndpointIteratorESaIvELN9__gnu_cxx12_Lock_policyE2EE, ptr @_ZTISt16_Sp_counted_baseILN9__gnu_cxx12_Lock_policyE2EE }, align 8
@_ZTVSt16_Sp_counted_baseILN9__gnu_cxx12_Lock_policyE2EE = linkonce_odr unnamed_addr constant { [7 x ptr] } { [7 x ptr] [ptr null, ptr @_ZTISt16_Sp_counted_baseILN9__gnu_cxx12_Lock_policyE2EE, ptr @_ZNSt16_Sp_counted_baseILN9__gnu_cxx12_Lock_policyE2EED2Ev, ptr @_ZNSt16_Sp_counted_baseILN9__gnu_cxx12_Lock_policyE2EED0Ev, ptr @__cxa_pure_virtual, ptr @_ZNSt16_Sp_counted_baseILN9__gnu_cxx12_Lock_policyE2EE10_M_destroyEv, ptr @__cxa_pure_virtual] }, comdat, align 8
@_ZTVN9grpc_core12_GLOBAL__N_121ChildEndpointIteratorE = internal unnamed_addr constant { [5 x ptr] } { [5 x ptr] [ptr null, ptr @_ZTIN9grpc_core12_GLOBAL__N_121ChildEndpointIteratorE, ptr @_ZN9grpc_core12_GLOBAL__N_121ChildEndpointIteratorD2Ev, ptr @_ZN9grpc_core12_GLOBAL__N_121ChildEndpointIteratorD0Ev, ptr @_ZNK9grpc_core12_GLOBAL__N_121ChildEndpointIterator7ForEachEN4absl12lts_2023080211FunctionRefIFvRKNS_17EndpointAddressesEEEE] }, align 8
@_ZTSN9grpc_core12_GLOBAL__N_121ChildEndpointIteratorE = internal constant [50 x i8] c"N9grpc_core12_GLOBAL__N_121ChildEndpointIteratorE\00", align 1
@_ZTSN9grpc_core25EndpointAddressesIteratorE = linkonce_odr constant [40 x i8] c"N9grpc_core25EndpointAddressesIteratorE\00", comdat, align 1
@_ZTIN9grpc_core25EndpointAddressesIteratorE = linkonce_odr constant { ptr, ptr } { ptr getelementptr inbounds (ptr, ptr @_ZTVN10__cxxabiv117__class_type_infoE, i64 2), ptr @_ZTSN9grpc_core25EndpointAddressesIteratorE }, comdat, align 8
@_ZTIN9grpc_core12_GLOBAL__N_121ChildEndpointIteratorE = internal constant { ptr, ptr, ptr } { ptr getelementptr inbounds (ptr, ptr @_ZTVN10__cxxabiv120__si_class_type_infoE, i64 2), ptr @_ZTSN9grpc_core12_GLOBAL__N_121ChildEndpointIteratorE, ptr @_ZTIN9grpc_core25EndpointAddressesIteratorE }, align 8
@_ZTVN9grpc_core25EndpointAddressesIteratorE = linkonce_odr unnamed_addr constant { [5 x ptr] } { [5 x ptr] [ptr null, ptr @_ZTIN9grpc_core25EndpointAddressesIteratorE, ptr @_ZN9grpc_core25EndpointAddressesIteratorD2Ev, ptr @_ZN9grpc_core25EndpointAddressesIteratorD0Ev, ptr @__cxa_pure_virtual] }, comdat, align 8
@.str.39 = private unnamed_addr constant [70 x i8] c"[xds_override_host_lb %p] endpoint %s: not draining, passing to child\00", align 1
@__libc_single_threaded = external global i8, align 1
@_ZTSSt19_Sp_make_shared_tag = linkonce_odr constant [24 x i8] c"St19_Sp_make_shared_tag\00", comdat, align 1
@_ZTISt19_Sp_make_shared_tag = linkonce_odr constant { ptr, ptr } { ptr getelementptr inbounds (ptr, ptr @_ZTVN10__cxxabiv117__class_type_infoE, i64 2), ptr @_ZTSSt19_Sp_make_shared_tag }, comdat, align 8
@_ZZNSt19_Sp_make_shared_tag5_S_tiEvE5__tag = linkonce_odr constant [16 x i8] zeroinitializer, comdat, align 8
@.str.40 = private unnamed_addr constant [3 x i8] c"OK\00", align 1
@.str.41 = private unnamed_addr constant [7 x i8] c"Helper\00", align 1
@.str.42 = private unnamed_addr constant [62 x i8] c"[xds_override_host_lb %p] Created new child policy handler %p\00", align 1
@_ZTVN9grpc_core12_GLOBAL__N_117XdsOverrideHostLb6HelperE = internal unnamed_addr constant { [13 x ptr] } { [13 x ptr] [ptr null, ptr @_ZTIN9grpc_core12_GLOBAL__N_117XdsOverrideHostLb6HelperE, ptr @_ZN9grpc_core12_GLOBAL__N_117XdsOverrideHostLb6HelperD2Ev, ptr @_ZN9grpc_core12_GLOBAL__N_117XdsOverrideHostLb6HelperD0Ev, ptr @_ZN9grpc_core12_GLOBAL__N_117XdsOverrideHostLb6Helper16CreateSubchannelERK21grpc_resolved_addressRKNS_11ChannelArgsES8_, ptr @_ZN9grpc_core12_GLOBAL__N_117XdsOverrideHostLb6Helper11UpdateStateE23grpc_connectivity_stateRKN4absl12lts_202308026StatusENS_13RefCountedPtrINS_19LoadBalancingPolicy16SubchannelPickerEEE, ptr @_ZN9grpc_core19LoadBalancingPolicy30DelegatingChannelControlHelper19RequestReresolutionEv, ptr @_ZN9grpc_core19LoadBalancingPolicy30DelegatingChannelControlHelper12GetAuthorityEv, ptr @_ZN9grpc_core19LoadBalancingPolicy30DelegatingChannelControlHelper21GetChannelCredentialsEv, ptr @_ZN9grpc_core19LoadBalancingPolicy30DelegatingChannelControlHelper27GetUnsafeChannelCredentialsEv, ptr @_ZN9grpc_core19LoadBalancingPolicy30DelegatingChannelControlHelper14GetEventEngineEv, ptr @_ZN9grpc_core19LoadBalancingPolicy30DelegatingChannelControlHelper13AddTraceEventENS0_20ChannelControlHelper13TraceSeverityESt17basic_string_viewIcSt11char_traitsIcEE, ptr @_ZNK9grpc_core19LoadBalancingPolicy42ParentOwningDelegatingChannelControlHelperINS_12_GLOBAL__N_117XdsOverrideHostLbEE13parent_helperEv] }, align 8
@_ZTSN9grpc_core12_GLOBAL__N_117XdsOverrideHostLb6HelperE = internal constant [53 x i8] c"N9grpc_core12_GLOBAL__N_117XdsOverrideHostLb6HelperE\00", align 1
@_ZTSN9grpc_core19LoadBalancingPolicy42ParentOwningDelegatingChannelControlHelperINS_12_GLOBAL__N_117XdsOverrideHostLbEEE = internal constant [117 x i8] c"N9grpc_core19LoadBalancingPolicy42ParentOwningDelegatingChannelControlHelperINS_12_GLOBAL__N_117XdsOverrideHostLbEEE\00", align 1
@_ZTSN9grpc_core19LoadBalancingPolicy30DelegatingChannelControlHelperE = linkonce_odr constant [66 x i8] c"N9grpc_core19LoadBalancingPolicy30DelegatingChannelControlHelperE\00", comdat, align 1
@_ZTSN9grpc_core19LoadBalancingPolicy20ChannelControlHelperE = linkonce_odr constant [56 x i8] c"N9grpc_core19LoadBalancingPolicy20ChannelControlHelperE\00", comdat, align 1
@_ZTIN9grpc_core19LoadBalancingPolicy20ChannelControlHelperE = linkonce_odr constant { ptr, ptr } { ptr getelementptr inbounds (ptr, ptr @_ZTVN10__cxxabiv117__class_type_infoE, i64 2), ptr @_ZTSN9grpc_core19LoadBalancingPolicy20ChannelControlHelperE }, comdat, align 8
@_ZTIN9grpc_core19LoadBalancingPolicy30DelegatingChannelControlHelperE = linkonce_odr constant { ptr, ptr, ptr } { ptr getelementptr inbounds (ptr, ptr @_ZTVN10__cxxabiv120__si_class_type_infoE, i64 2), ptr @_ZTSN9grpc_core19LoadBalancingPolicy30DelegatingChannelControlHelperE, ptr @_ZTIN9grpc_core19LoadBalancingPolicy20ChannelControlHelperE }, comdat, align 8
@_ZTIN9grpc_core19LoadBalancingPolicy42ParentOwningDelegatingChannelControlHelperINS_12_GLOBAL__N_117XdsOverrideHostLbEEE = internal constant { ptr, ptr, ptr } { ptr getelementptr inbounds (ptr, ptr @_ZTVN10__cxxabiv120__si_class_type_infoE, i64 2), ptr @_ZTSN9grpc_core19LoadBalancingPolicy42ParentOwningDelegatingChannelControlHelperINS_12_GLOBAL__N_117XdsOverrideHostLbEEE, ptr @_ZTIN9grpc_core19LoadBalancingPolicy30DelegatingChannelControlHelperE }, align 8
@_ZTIN9grpc_core12_GLOBAL__N_117XdsOverrideHostLb6HelperE = internal constant { ptr, ptr, ptr } { ptr getelementptr inbounds (ptr, ptr @_ZTVN10__cxxabiv120__si_class_type_infoE, i64 2), ptr @_ZTSN9grpc_core12_GLOBAL__N_117XdsOverrideHostLb6HelperE, ptr @_ZTIN9grpc_core19LoadBalancingPolicy42ParentOwningDelegatingChannelControlHelperINS_12_GLOBAL__N_117XdsOverrideHostLbEEE }, align 8
@_ZTVN9grpc_core19LoadBalancingPolicy42ParentOwningDelegatingChannelControlHelperINS_12_GLOBAL__N_117XdsOverrideHostLbEEE = internal unnamed_addr constant { [13 x ptr] } { [13 x ptr] [ptr null, ptr @_ZTIN9grpc_core19LoadBalancingPolicy42ParentOwningDelegatingChannelControlHelperINS_12_GLOBAL__N_117XdsOverrideHostLbEEE, ptr @_ZN9grpc_core19LoadBalancingPolicy42ParentOwningDelegatingChannelControlHelperINS_12_GLOBAL__N_117XdsOverrideHostLbEED2Ev, ptr @_ZN9grpc_core19LoadBalancingPolicy42ParentOwningDelegatingChannelControlHelperINS_12_GLOBAL__N_117XdsOverrideHostLbEED0Ev, ptr @_ZN9grpc_core19LoadBalancingPolicy30DelegatingChannelControlHelper16CreateSubchannelERK21grpc_resolved_addressRKNS_11ChannelArgsES7_, ptr @_ZN9grpc_core19LoadBalancingPolicy30DelegatingChannelControlHelper11UpdateStateE23grpc_connectivity_stateRKN4absl12lts_202308026StatusENS_13RefCountedPtrINS0_16SubchannelPickerEEE, ptr @_ZN9grpc_core19LoadBalancingPolicy30DelegatingChannelControlHelper19RequestReresolutionEv, ptr @_ZN9grpc_core19LoadBalancingPolicy30DelegatingChannelControlHelper12GetAuthorityEv, ptr @_ZN9grpc_core19LoadBalancingPolicy30DelegatingChannelControlHelper21GetChannelCredentialsEv, ptr @_ZN9grpc_core19LoadBalancingPolicy30DelegatingChannelControlHelper27GetUnsafeChannelCredentialsEv, ptr @_ZN9grpc_core19LoadBalancingPolicy30DelegatingChannelControlHelper14GetEventEngineEv, ptr @_ZN9grpc_core19LoadBalancingPolicy30DelegatingChannelControlHelper13AddTraceEventENS0_20ChannelControlHelper13TraceSeverityESt17basic_string_viewIcSt11char_traitsIcEE, ptr @_ZNK9grpc_core19LoadBalancingPolicy42ParentOwningDelegatingChannelControlHelperINS_12_GLOBAL__N_117XdsOverrideHostLbEE13parent_helperEv] }, align 8
@_ZTVN9grpc_core19LoadBalancingPolicy30DelegatingChannelControlHelperE = linkonce_odr unnamed_addr constant { [13 x ptr] } { [13 x ptr] [ptr null, ptr @_ZTIN9grpc_core19LoadBalancingPolicy30DelegatingChannelControlHelperE, ptr @_ZN9grpc_core19LoadBalancingPolicy30DelegatingChannelControlHelperD2Ev, ptr @_ZN9grpc_core19LoadBalancingPolicy30DelegatingChannelControlHelperD0Ev, ptr @_ZN9grpc_core19LoadBalancingPolicy30DelegatingChannelControlHelper16CreateSubchannelERK21grpc_resolved_addressRKNS_11ChannelArgsES7_, ptr @_ZN9grpc_core19LoadBalancingPolicy30DelegatingChannelControlHelper11UpdateStateE23grpc_connectivity_stateRKN4absl12lts_202308026StatusENS_13RefCountedPtrINS0_16SubchannelPickerEEE, ptr @_ZN9grpc_core19LoadBalancingPolicy30DelegatingChannelControlHelper19RequestReresolutionEv, ptr @_ZN9grpc_core19LoadBalancingPolicy30DelegatingChannelControlHelper12GetAuthorityEv, ptr @_ZN9grpc_core19LoadBalancingPolicy30DelegatingChannelControlHelper21GetChannelCredentialsEv, ptr @_ZN9grpc_core19LoadBalancingPolicy30DelegatingChannelControlHelper27GetUnsafeChannelCredentialsEv, ptr @_ZN9grpc_core19LoadBalancingPolicy30DelegatingChannelControlHelper14GetEventEngineEv, ptr @_ZN9grpc_core19LoadBalancingPolicy30DelegatingChannelControlHelper13AddTraceEventENS0_20ChannelControlHelper13TraceSeverityESt17basic_string_viewIcSt11char_traitsIcEE, ptr @__cxa_pure_virtual] }, comdat, align 8
@_ZTVN9grpc_core19LoadBalancingPolicy20ChannelControlHelperE = linkonce_odr unnamed_addr constant { [12 x ptr] } { [12 x ptr] [ptr null, ptr @_ZTIN9grpc_core19LoadBalancingPolicy20ChannelControlHelperE, ptr @_ZN9grpc_core19LoadBalancingPolicy20ChannelControlHelperD2Ev, ptr @_ZN9grpc_core19LoadBalancingPolicy20ChannelControlHelperD0Ev, ptr @__cxa_pure_virtual, ptr @__cxa_pure_virtual, ptr @__cxa_pure_virtual, ptr @__cxa_pure_virtual, ptr @__cxa_pure_virtual, ptr @__cxa_pure_virtual, ptr @__cxa_pure_virtual, ptr @__cxa_pure_virtual] }, comdat, align 8
@.str.43 = private unnamed_addr constant [135 x i8] c"generated/home/dtcxzyw/WorkSpace/Projects/compilers/llvm-opt-benchmark/bench/grpc/grpc/src/core/lib/load_balancing/delegating_helper.h\00", align 1
@_ZTVN9grpc_core12_GLOBAL__N_117XdsOverrideHostLb17SubchannelWrapperE = internal unnamed_addr constant { [11 x ptr] } { [11 x ptr] [ptr null, ptr @_ZTIN9grpc_core12_GLOBAL__N_117XdsOverrideHostLb17SubchannelWrapperE, ptr @_ZN9grpc_core12_GLOBAL__N_117XdsOverrideHostLb17SubchannelWrapper6OrphanEv, ptr @_ZN9grpc_core12_GLOBAL__N_117XdsOverrideHostLb17SubchannelWrapperD2Ev, ptr @_ZN9grpc_core12_GLOBAL__N_117XdsOverrideHostLb17SubchannelWrapperD0Ev, ptr @_ZN9grpc_core12_GLOBAL__N_117XdsOverrideHostLb17SubchannelWrapper22WatchConnectivityStateESt10unique_ptrINS_19SubchannelInterface33ConnectivityStateWatcherInterfaceESt14default_deleteIS5_EE, ptr @_ZN9grpc_core12_GLOBAL__N_117XdsOverrideHostLb17SubchannelWrapper28CancelConnectivityStateWatchEPNS_19SubchannelInterface33ConnectivityStateWatcherInterfaceE, ptr @_ZN9grpc_core20DelegatingSubchannel17RequestConnectionEv, ptr @_ZN9grpc_core20DelegatingSubchannel12ResetBackoffEv, ptr @_ZN9grpc_core20DelegatingSubchannel14AddDataWatcherESt10unique_ptrINS_19SubchannelInterface20DataWatcherInterfaceESt14default_deleteIS3_EE, ptr @_ZN9grpc_core20DelegatingSubchannel17CancelDataWatcherEPNS_19SubchannelInterface20DataWatcherInterfaceE] }, align 8
@_ZTSN9grpc_core12_GLOBAL__N_117XdsOverrideHostLb17SubchannelWrapperE = internal constant [65 x i8] c"N9grpc_core12_GLOBAL__N_117XdsOverrideHostLb17SubchannelWrapperE\00", align 1
@_ZTSN9grpc_core20DelegatingSubchannelE = linkonce_odr constant [35 x i8] c"N9grpc_core20DelegatingSubchannelE\00", comdat, align 1
@_ZTSN9grpc_core19SubchannelInterfaceE = linkonce_odr constant [34 x i8] c"N9grpc_core19SubchannelInterfaceE\00", comdat, align 1
@_ZTSN9grpc_core14DualRefCountedINS_19SubchannelInterfaceEEE = linkonce_odr constant [56 x i8] c"N9grpc_core14DualRefCountedINS_19SubchannelInterfaceEEE\00", comdat, align 1
@_ZTSN9grpc_core10OrphanableE = linkonce_odr constant [25 x i8] c"N9grpc_core10OrphanableE\00", comdat, align 1
@_ZTIN9grpc_core10OrphanableE = linkonce_odr constant { ptr, ptr } { ptr getelementptr inbounds (ptr, ptr @_ZTVN10__cxxabiv117__class_type_infoE, i64 2), ptr @_ZTSN9grpc_core10OrphanableE }, comdat, align 8
@_ZTIN9grpc_core14DualRefCountedINS_19SubchannelInterfaceEEE = linkonce_odr constant { ptr, ptr, ptr } { ptr getelementptr inbounds (ptr, ptr @_ZTVN10__cxxabiv120__si_class_type_infoE, i64 2), ptr @_ZTSN9grpc_core14DualRefCountedINS_19SubchannelInterfaceEEE, ptr @_ZTIN9grpc_core10OrphanableE }, comdat, align 8
@_ZTIN9grpc_core19SubchannelInterfaceE = linkonce_odr constant { ptr, ptr, ptr } { ptr getelementptr inbounds (ptr, ptr @_ZTVN10__cxxabiv120__si_class_type_infoE, i64 2), ptr @_ZTSN9grpc_core19SubchannelInterfaceE, ptr @_ZTIN9grpc_core14DualRefCountedINS_19SubchannelInterfaceEEE }, comdat, align 8
@_ZTIN9grpc_core20DelegatingSubchannelE = linkonce_odr constant { ptr, ptr, ptr } { ptr getelementptr inbounds (ptr, ptr @_ZTVN10__cxxabiv120__si_class_type_infoE, i64 2), ptr @_ZTSN9grpc_core20DelegatingSubchannelE, ptr @_ZTIN9grpc_core19SubchannelInterfaceE }, comdat, align 8
@_ZTIN9grpc_core12_GLOBAL__N_117XdsOverrideHostLb17SubchannelWrapperE = internal constant { ptr, ptr, ptr } { ptr getelementptr inbounds (ptr, ptr @_ZTVN10__cxxabiv120__si_class_type_infoE, i64 2), ptr @_ZTSN9grpc_core12_GLOBAL__N_117XdsOverrideHostLb17SubchannelWrapperE, ptr @_ZTIN9grpc_core20DelegatingSubchannelE }, align 8
@_ZTVN9grpc_core20DelegatingSubchannelE = linkonce_odr unnamed_addr constant { [11 x ptr] } { [11 x ptr] [ptr null, ptr @_ZTIN9grpc_core20DelegatingSubchannelE, ptr @_ZN9grpc_core19SubchannelInterface6OrphanEv, ptr @_ZN9grpc_core20DelegatingSubchannelD2Ev, ptr @_ZN9grpc_core20DelegatingSubchannelD0Ev, ptr @_ZN9grpc_core20DelegatingSubchannel22WatchConnectivityStateESt10unique_ptrINS_19SubchannelInterface33ConnectivityStateWatcherInterfaceESt14default_deleteIS3_EE, ptr @_ZN9grpc_core20DelegatingSubchannel28CancelConnectivityStateWatchEPNS_19SubchannelInterface33ConnectivityStateWatcherInterfaceE, ptr @_ZN9grpc_core20DelegatingSubchannel17RequestConnectionEv, ptr @_ZN9grpc_core20DelegatingSubchannel12ResetBackoffEv, ptr @_ZN9grpc_core20DelegatingSubchannel14AddDataWatcherESt10unique_ptrINS_19SubchannelInterface20DataWatcherInterfaceESt14default_deleteIS3_EE, ptr @_ZN9grpc_core20DelegatingSubchannel17CancelDataWatcherEPNS_19SubchannelInterface20DataWatcherInterfaceE] }, comdat, align 8
@_ZTVN9grpc_core19SubchannelInterfaceE = linkonce_odr unnamed_addr constant { [11 x ptr] } { [11 x ptr] [ptr null, ptr @_ZTIN9grpc_core19SubchannelInterfaceE, ptr @_ZN9grpc_core19SubchannelInterface6OrphanEv, ptr @_ZN9grpc_core19SubchannelInterfaceD2Ev, ptr @_ZN9grpc_core19SubchannelInterfaceD0Ev, ptr @__cxa_pure_virtual, ptr @__cxa_pure_virtual, ptr @__cxa_pure_virtual, ptr @__cxa_pure_virtual, ptr @__cxa_pure_virtual, ptr @__cxa_pure_virtual] }, comdat, align 8
@_ZTVN9grpc_core14DualRefCountedINS_19SubchannelInterfaceEEE = linkonce_odr unnamed_addr constant { [5 x ptr] } { [5 x ptr] [ptr null, ptr @_ZTIN9grpc_core14DualRefCountedINS_19SubchannelInterfaceEEE, ptr @__cxa_pure_virtual, ptr @_ZN9grpc_core14DualRefCountedINS_19SubchannelInterfaceEED2Ev, ptr @_ZN9grpc_core14DualRefCountedINS_19SubchannelInterfaceEED0Ev] }, comdat, align 8
@_ZTVN9grpc_core10OrphanableE = linkonce_odr unnamed_addr constant { [5 x ptr] } { [5 x ptr] [ptr null, ptr @_ZTIN9grpc_core10OrphanableE, ptr @__cxa_pure_virtual, ptr @_ZN9grpc_core10OrphanableD2Ev, ptr @_ZN9grpc_core10OrphanableD0Ev] }, comdat, align 8
@_ZTVN9grpc_core12_GLOBAL__N_117XdsOverrideHostLb17SubchannelWrapper24ConnectivityStateWatcherE = internal unnamed_addr constant { [6 x ptr] } { [6 x ptr] [ptr null, ptr @_ZTIN9grpc_core12_GLOBAL__N_117XdsOverrideHostLb17SubchannelWrapper24ConnectivityStateWatcherE, ptr @_ZN9grpc_core12_GLOBAL__N_117XdsOverrideHostLb17SubchannelWrapper24ConnectivityStateWatcherD2Ev, ptr @_ZN9grpc_core12_GLOBAL__N_117XdsOverrideHostLb17SubchannelWrapper24ConnectivityStateWatcherD0Ev, ptr @_ZN9grpc_core12_GLOBAL__N_117XdsOverrideHostLb17SubchannelWrapper24ConnectivityStateWatcher25OnConnectivityStateChangeE23grpc_connectivity_stateN4absl12lts_202308026StatusE, ptr @_ZN9grpc_core12_GLOBAL__N_117XdsOverrideHostLb17SubchannelWrapper24ConnectivityStateWatcher18interested_partiesEv] }, align 8
@_ZTSN9grpc_core12_GLOBAL__N_117XdsOverrideHostLb17SubchannelWrapper24ConnectivityStateWatcherE = internal constant [91 x i8] c"N9grpc_core12_GLOBAL__N_117XdsOverrideHostLb17SubchannelWrapper24ConnectivityStateWatcherE\00", align 1
@_ZTSN9grpc_core19SubchannelInterface33ConnectivityStateWatcherInterfaceE = linkonce_odr constant [69 x i8] c"N9grpc_core19SubchannelInterface33ConnectivityStateWatcherInterfaceE\00", comdat, align 1
@_ZTIN9grpc_core19SubchannelInterface33ConnectivityStateWatcherInterfaceE = linkonce_odr constant { ptr, ptr } { ptr getelementptr inbounds (ptr, ptr @_ZTVN10__cxxabiv117__class_type_infoE, i64 2), ptr @_ZTSN9grpc_core19SubchannelInterface33ConnectivityStateWatcherInterfaceE }, comdat, align 8
@_ZTIN9grpc_core12_GLOBAL__N_117XdsOverrideHostLb17SubchannelWrapper24ConnectivityStateWatcherE = internal constant { ptr, ptr, ptr } { ptr getelementptr inbounds (ptr, ptr @_ZTVN10__cxxabiv120__si_class_type_infoE, i64 2), ptr @_ZTSN9grpc_core12_GLOBAL__N_117XdsOverrideHostLb17SubchannelWrapper24ConnectivityStateWatcherE, ptr @_ZTIN9grpc_core19SubchannelInterface33ConnectivityStateWatcherInterfaceE }, align 8
@_ZTVN9grpc_core19SubchannelInterface33ConnectivityStateWatcherInterfaceE = linkonce_odr unnamed_addr constant { [6 x ptr] } { [6 x ptr] [ptr null, ptr @_ZTIN9grpc_core19SubchannelInterface33ConnectivityStateWatcherInterfaceE, ptr @_ZN9grpc_core19SubchannelInterface33ConnectivityStateWatcherInterfaceD2Ev, ptr @_ZN9grpc_core19SubchannelInterface33ConnectivityStateWatcherInterfaceD0Ev, ptr @__cxa_pure_virtual, ptr @__cxa_pure_virtual] }, comdat, align 8
@.str.44 = private unnamed_addr constant [80 x i8] c"[xds_override_host_lb %p] updating connectivity: state=%s status=(%s) picker=%p\00", align 1
@_ZTVN9grpc_core12_GLOBAL__N_117XdsOverrideHostLb6PickerE = internal unnamed_addr constant { [6 x ptr] } { [6 x ptr] [ptr null, ptr @_ZTIN9grpc_core12_GLOBAL__N_117XdsOverrideHostLb6PickerE, ptr @_ZN9grpc_core19LoadBalancingPolicy16SubchannelPicker6OrphanEv, ptr @_ZN9grpc_core12_GLOBAL__N_117XdsOverrideHostLb6PickerD2Ev, ptr @_ZN9grpc_core12_GLOBAL__N_117XdsOverrideHostLb6PickerD0Ev, ptr @_ZN9grpc_core12_GLOBAL__N_117XdsOverrideHostLb6Picker4PickENS_19LoadBalancingPolicy8PickArgsE] }, align 8
@.str.45 = private unnamed_addr constant [52 x i8] c"[xds_override_host_lb %p] constructed new picker %p\00", align 1
@_ZTSN9grpc_core12_GLOBAL__N_117XdsOverrideHostLb6PickerE = internal constant [53 x i8] c"N9grpc_core12_GLOBAL__N_117XdsOverrideHostLb6PickerE\00", align 1
@_ZTSN9grpc_core19LoadBalancingPolicy16SubchannelPickerE = linkonce_odr constant [52 x i8] c"N9grpc_core19LoadBalancingPolicy16SubchannelPickerE\00", comdat, align 1
@_ZTSN9grpc_core14DualRefCountedINS_19LoadBalancingPolicy16SubchannelPickerEEE = linkonce_odr constant [74 x i8] c"N9grpc_core14DualRefCountedINS_19LoadBalancingPolicy16SubchannelPickerEEE\00", comdat, align 1
@_ZTIN9grpc_core14DualRefCountedINS_19LoadBalancingPolicy16SubchannelPickerEEE = linkonce_odr constant { ptr, ptr, ptr } { ptr getelementptr inbounds (ptr, ptr @_ZTVN10__cxxabiv120__si_class_type_infoE, i64 2), ptr @_ZTSN9grpc_core14DualRefCountedINS_19LoadBalancingPolicy16SubchannelPickerEEE, ptr @_ZTIN9grpc_core10OrphanableE }, comdat, align 8
@_ZTIN9grpc_core19LoadBalancingPolicy16SubchannelPickerE = linkonce_odr constant { ptr, ptr, ptr } { ptr getelementptr inbounds (ptr, ptr @_ZTVN10__cxxabiv120__si_class_type_infoE, i64 2), ptr @_ZTSN9grpc_core19LoadBalancingPolicy16SubchannelPickerE, ptr @_ZTIN9grpc_core14DualRefCountedINS_19LoadBalancingPolicy16SubchannelPickerEEE }, comdat, align 8
@_ZTIN9grpc_core12_GLOBAL__N_117XdsOverrideHostLb6PickerE = internal constant { ptr, ptr, ptr } { ptr getelementptr inbounds (ptr, ptr @_ZTVN10__cxxabiv120__si_class_type_infoE, i64 2), ptr @_ZTSN9grpc_core12_GLOBAL__N_117XdsOverrideHostLb6PickerE, ptr @_ZTIN9grpc_core19LoadBalancingPolicy16SubchannelPickerE }, align 8
@.str.46 = private unnamed_addr constant [52 x i8] c"xds_override_host picker not given any child picker\00", align 1
@.str.47 = private unnamed_addr constant [30 x i8] c"override_host_attr != nullptr\00", align 1
@_ZSt7nullopt = linkonce_odr constant %"struct.std::nullopt_t" undef, comdat, align 1
@.str.48 = private unnamed_addr constant [28 x i8] c"Subchannel %s was not found\00", align 1
@.str.49 = private unnamed_addr constant [51 x i8] c"Subchannel %s health status is not overridden (%s)\00", align 1
@.str.50 = private unnamed_addr constant [42 x i8] c"Picker override found READY subchannel %s\00", align 1
@.str.51 = private unnamed_addr constant [38 x i8] c"Picker override found IDLE subchannel\00", align 1
@.str.52 = private unnamed_addr constant [44 x i8] c"Picker override found CONNECTING subchannel\00", align 1
@_ZSt8in_place = linkonce_odr constant %"struct.std::in_place_t" zeroinitializer, comdat, align 1
@.str.53 = private unnamed_addr constant [26 x i8] c"basic_string_view::substr\00", align 1
@.str.54 = private unnamed_addr constant [49 x i8] c"%s: __pos (which is %zu) > __size (which is %zu)\00", align 1
@_ZTSZN9grpc_core12_GLOBAL__N_117XdsOverrideHostLb6Picker29SubchannelConnectionRequester12RunInExecCtxEPvN4absl12lts_202308026StatusEEUlvE_ = internal constant [135 x i8] c"ZN9grpc_core12_GLOBAL__N_117XdsOverrideHostLb6Picker29SubchannelConnectionRequester12RunInExecCtxEPvN4absl12lts_202308026StatusEEUlvE_\00", align 1
@_ZTIZN9grpc_core12_GLOBAL__N_117XdsOverrideHostLb6Picker29SubchannelConnectionRequester12RunInExecCtxEPvN4absl12lts_202308026StatusEEUlvE_ = internal constant { ptr, ptr } { ptr getelementptr inbounds (ptr, ptr @_ZTVN10__cxxabiv117__class_type_infoE, i64 2), ptr @_ZTSZN9grpc_core12_GLOBAL__N_117XdsOverrideHostLb6Picker29SubchannelConnectionRequester12RunInExecCtxEPvN4absl12lts_202308026StatusEEUlvE_ }, align 8
@_ZSt14in_place_indexILm1EE = linkonce_odr constant %"struct.std::in_place_index_t.417" zeroinitializer, comdat, align 1
@_ZSt14in_place_indexILm2EE = linkonce_odr constant %"struct.std::in_place_index_t.424" zeroinitializer, comdat, align 1
@_ZSt14in_place_indexILm3EE = linkonce_odr constant %"struct.std::in_place_index_t.426" zeroinitializer, comdat, align 1
@"_ZTSZN9grpc_core12_GLOBAL__N_117XdsOverrideHostLb17SubchannelWrapper6OrphanEvE3$_0" = internal constant [79 x i8] c"ZN9grpc_core12_GLOBAL__N_117XdsOverrideHostLb17SubchannelWrapper6OrphanEvE3$_0\00", align 1
@"_ZTIZN9grpc_core12_GLOBAL__N_117XdsOverrideHostLb17SubchannelWrapper6OrphanEvE3$_0" = internal constant { ptr, ptr } { ptr getelementptr inbounds (ptr, ptr @_ZTVN10__cxxabiv117__class_type_infoE, i64 2), ptr @"_ZTSZN9grpc_core12_GLOBAL__N_117XdsOverrideHostLb17SubchannelWrapper6OrphanEvE3$_0" }, align 8
@_ZTVN9grpc_core18ChildPolicyHandlerE = external unnamed_addr constant { [12 x ptr] }, align 8
@.str.55 = private unnamed_addr constant [40 x i8] c"[xds_override_host_lb %p] shutting down\00", align 1
@.str.56 = private unnamed_addr constant [53 x i8] c"errors validating xds_override_host LB policy config\00", align 1
@_ZTVN9grpc_core8JsonArgsE = linkonce_odr unnamed_addr constant { [5 x ptr] } { [5 x ptr] [ptr null, ptr @_ZTIN9grpc_core8JsonArgsE, ptr @_ZN9grpc_core8JsonArgsD2Ev, ptr @_ZN9grpc_core8JsonArgsD0Ev, ptr @_ZNK9grpc_core8JsonArgs9IsEnabledESt17basic_string_viewIcSt11char_traitsIcEE] }, comdat, align 8
@_ZTSN9grpc_core8JsonArgsE = linkonce_odr constant [22 x i8] c"N9grpc_core8JsonArgsE\00", comdat, align 1
@_ZTIN9grpc_core8JsonArgsE = linkonce_odr constant { ptr, ptr } { ptr getelementptr inbounds (ptr, ptr @_ZTVN10__cxxabiv117__class_type_infoE, i64 2), ptr @_ZTSN9grpc_core8JsonArgsE }, comdat, align 8
@_ZTVN9grpc_core11json_detail24FinishedJsonObjectLoaderINS_23XdsOverrideHostLbConfigELm0EvEE = linkonce_odr unnamed_addr constant { [3 x ptr] } { [3 x ptr] [ptr null, ptr @_ZTIN9grpc_core11json_detail24FinishedJsonObjectLoaderINS_23XdsOverrideHostLbConfigELm0EvEE, ptr @_ZNK9grpc_core11json_detail24FinishedJsonObjectLoaderINS_23XdsOverrideHostLbConfigELm0EvE8LoadIntoERKNS_12experimental4JsonERKNS_8JsonArgsEPvPNS_16ValidationErrorsE] }, comdat, align 8
@_ZTSN9grpc_core11json_detail24FinishedJsonObjectLoaderINS_23XdsOverrideHostLbConfigELm0EvEE = linkonce_odr constant [88 x i8] c"N9grpc_core11json_detail24FinishedJsonObjectLoaderINS_23XdsOverrideHostLbConfigELm0EvEE\00", comdat, align 1
@_ZTIN9grpc_core11json_detail24FinishedJsonObjectLoaderINS_23XdsOverrideHostLbConfigELm0EvEE = linkonce_odr constant { ptr, ptr, ptr } { ptr getelementptr inbounds (ptr, ptr @_ZTVN10__cxxabiv120__si_class_type_infoE, i64 2), ptr @_ZTSN9grpc_core11json_detail24FinishedJsonObjectLoaderINS_23XdsOverrideHostLbConfigELm0EvEE, ptr @_ZTIN9grpc_core11json_detail15LoaderInterfaceE }, comdat, align 8
@.str.57 = private unnamed_addr constant [2 x i8] c".\00", align 1
@_ZTVN9grpc_core11json_detail10AutoLoaderINSt7__cxx1112basic_stringIcSt11char_traitsIcESaIcEEEEE = linkonce_odr unnamed_addr constant { [5 x ptr] } { [5 x ptr] [ptr null, ptr @_ZTIN9grpc_core11json_detail10AutoLoaderINSt7__cxx1112basic_stringIcSt11char_traitsIcESaIcEEEEE, ptr @_ZNK9grpc_core11json_detail10LoadScalar8LoadIntoERKNS_12experimental4JsonERKNS_8JsonArgsEPvPNS_16ValidationErrorsE, ptr @_ZNK9grpc_core11json_detail10LoadString8IsNumberEv, ptr @_ZNK9grpc_core11json_detail10LoadString8LoadIntoERKNSt7__cxx1112basic_stringIcSt11char_traitsIcESaIcEEEPvPNS_16ValidationErrorsE] }, comdat, align 8
@_ZTSN9grpc_core11json_detail10AutoLoaderINSt7__cxx1112basic_stringIcSt11char_traitsIcESaIcEEEEE = linkonce_odr constant [92 x i8] c"N9grpc_core11json_detail10AutoLoaderINSt7__cxx1112basic_stringIcSt11char_traitsIcESaIcEEEEE\00", comdat, align 1
@_ZTIN9grpc_core11json_detail10LoadStringE = external constant ptr
@_ZTIN9grpc_core11json_detail10AutoLoaderINSt7__cxx1112basic_stringIcSt11char_traitsIcESaIcEEEEE = linkonce_odr constant { ptr, ptr, ptr } { ptr getelementptr inbounds (ptr, ptr @_ZTVN10__cxxabiv120__si_class_type_infoE, i64 2), ptr @_ZTSN9grpc_core11json_detail10AutoLoaderINSt7__cxx1112basic_stringIcSt11char_traitsIcESaIcEEEEE, ptr @_ZTIN9grpc_core11json_detail10LoadStringE }, comdat, align 8
@_ZTVN9grpc_core11json_detail10LoadStringE = external unnamed_addr constant { [5 x ptr] }, align 8
@_ZTVN9grpc_core11json_detail10LoadScalarE = external unnamed_addr constant { [5 x ptr] }, align 8
@_ZTVN9grpc_core11json_detail10AutoLoaderISt6vectorINSt7__cxx1112basic_stringIcSt11char_traitsIcESaIcEEESaIS8_EEEE = linkonce_odr unnamed_addr constant { [5 x ptr] } { [5 x ptr] [ptr null, ptr @_ZTIN9grpc_core11json_detail10AutoLoaderISt6vectorINSt7__cxx1112basic_stringIcSt11char_traitsIcESaIcEEESaIS8_EEEE, ptr @_ZNK9grpc_core11json_detail10LoadVector8LoadIntoERKNS_12experimental4JsonERKNS_8JsonArgsEPvPNS_16ValidationErrorsE, ptr @_ZNK9grpc_core11json_detail10AutoLoaderISt6vectorINSt7__cxx1112basic_stringIcSt11char_traitsIcESaIcEEESaIS8_EEE11EmplaceBackEPv, ptr @_ZNK9grpc_core11json_detail10AutoLoaderISt6vectorINSt7__cxx1112basic_stringIcSt11char_traitsIcESaIcEEESaIS8_EEE13ElementLoaderEv] }, comdat, align 8
@_ZTSN9grpc_core11json_detail10AutoLoaderISt6vectorINSt7__cxx1112basic_stringIcSt11char_traitsIcESaIcEEESaIS8_EEEE = linkonce_odr constant [110 x i8] c"N9grpc_core11json_detail10AutoLoaderISt6vectorINSt7__cxx1112basic_stringIcSt11char_traitsIcESaIcEEESaIS8_EEEE\00", comdat, align 1
@_ZTIN9grpc_core11json_detail10LoadVectorE = external constant ptr
@_ZTIN9grpc_core11json_detail10AutoLoaderISt6vectorINSt7__cxx1112basic_stringIcSt11char_traitsIcESaIcEEESaIS8_EEEE = linkonce_odr constant { ptr, ptr, ptr } { ptr getelementptr inbounds (ptr, ptr @_ZTVN10__cxxabiv120__si_class_type_infoE, i64 2), ptr @_ZTSN9grpc_core11json_detail10AutoLoaderISt6vectorINSt7__cxx1112basic_stringIcSt11char_traitsIcESaIcEEESaIS8_EEEE, ptr @_ZTIN9grpc_core11json_detail10LoadVectorE }, comdat, align 8
@_ZTVN9grpc_core11json_detail10LoadVectorE = external unnamed_addr constant { [5 x ptr] }, align 8
@llvm.global_ctors = appending global [6 x { i32, ptr, ptr }] [{ i32, ptr, ptr } { i32 65535, ptr @__cxx_global_var_init.10, ptr @_ZN9grpc_core19NoDestructSingletonINS_14promise_detail10UnwakeableEE6value_E }, { i32, ptr, ptr } { i32 65535, ptr @__cxx_global_var_init.11, ptr @_ZN9grpc_core19NoDestructSingletonINS_11json_detail10AutoLoaderINS_23XdsOverrideHostLbConfigEEEE6value_E }, { i32, ptr, ptr } { i32 65535, ptr @__cxx_global_var_init.12, ptr @_ZN9grpc_core19NoDestructSingletonINS_11json_detail10AutoLoaderINS_13RefCountedPtrINS_23XdsOverrideHostLbConfigEEEEEE6value_E }, { i32, ptr, ptr } { i32 65535, ptr @__cxx_global_var_init.13, ptr @_ZN9grpc_core19NoDestructSingletonINS_11json_detail10AutoLoaderINSt7__cxx1112basic_stringIcSt11char_traitsIcESaIcEEEEEE6value_E }, { i32, ptr, ptr } { i32 65535, ptr @__cxx_global_var_init.14, ptr @_ZN9grpc_core19NoDestructSingletonINS_11json_detail10AutoLoaderISt6vectorINSt7__cxx1112basic_stringIcSt11char_traitsIcESaIcEEESaIS9_EEEEE6value_E }, { i32, ptr, ptr } { i32 65535, ptr @_GLOBAL__sub_I_xds_override_host.cc, ptr null }]
@llvm.used = appending global [5 x ptr] [ptr @_ZN9grpc_core19NoDestructSingletonINS_14promise_detail10UnwakeableEE6value_E, ptr @_ZN9grpc_core19NoDestructSingletonINS_11json_detail10AutoLoaderINS_23XdsOverrideHostLbConfigEEEE6value_E, ptr @_ZN9grpc_core19NoDestructSingletonINS_11json_detail10AutoLoaderINS_13RefCountedPtrINS_23XdsOverrideHostLbConfigEEEEEE6value_E, ptr @_ZN9grpc_core19NoDestructSingletonINS_11json_detail10AutoLoaderINSt7__cxx1112basic_stringIcSt11char_traitsIcESaIcEEEEEE6value_E, ptr @_ZN9grpc_core19NoDestructSingletonINS_11json_detail10AutoLoaderISt6vectorINSt7__cxx1112basic_stringIcSt11char_traitsIcESaIcEEESaIS9_EEEEE6value_E], section "llvm.metadata"

; Function Attrs: uwtable
define internal void @__cxx_global_var_init() #0 section ".text.startup" {
entry:
  call void @_ZNSt8ios_base4InitC1Ev(ptr noundef nonnull align 1 dereferenceable(1) @_ZStL8__ioinit)
  %0 = call i32 @__cxa_atexit(ptr @_ZNSt8ios_base4InitD1Ev, ptr @_ZStL8__ioinit, ptr @__dso_handle) #3
  ret void
}

declare void @_ZNSt8ios_base4InitC1Ev(ptr noundef nonnull align 1 dereferenceable(1)) unnamed_addr #1

; Function Attrs: nounwind
declare void @_ZNSt8ios_base4InitD1Ev(ptr noundef nonnull align 1 dereferenceable(1)) unnamed_addr #2

; Function Attrs: nounwind
declare i32 @__cxa_atexit(ptr, ptr, ptr) #3

; Function Attrs: uwtable
define internal void @__cxx_global_var_init.1() #0 section ".text.startup" {
entry:
  call void @_ZN9grpc_core9TraceFlagC1EbPKc(ptr noundef nonnull align 8 dereferenceable(17) @_ZN9grpc_core31grpc_lb_xds_override_host_traceE, i1 noundef zeroext false, ptr noundef @.str)
  ret void
}

declare void @_ZN9grpc_core9TraceFlagC1EbPKc(ptr noundef nonnull align 8 dereferenceable(17), i1 noundef zeroext, ptr noundef) unnamed_addr #1

; Function Attrs: mustprogress uwtable
define void @_ZN9grpc_core31RegisterXdsOverrideHostLbPolicyEPNS_17CoreConfiguration7BuilderE(ptr noundef %builder) #4 personality ptr @__gxx_personality_v0 {
entry:
  %builder.addr = alloca ptr, align 8
  %agg.tmp = alloca %"class.std::unique_ptr", align 8
  %ref.tmp = alloca %"class.std::unique_ptr.43", align 8
  %exn.slot = alloca ptr, align 8
  %ehselector.slot = alloca i32, align 4
  store ptr %builder, ptr %builder.addr, align 8
  %0 = load ptr, ptr %builder.addr, align 8
  %call = call noundef ptr @_ZN9grpc_core17CoreConfiguration7Builder18lb_policy_registryEv(ptr noundef nonnull align 16 dereferenceable(880) %0)
  call void @_ZSt11make_uniqueIN9grpc_core12_GLOBAL__N_124XdsOverrideHostLbFactoryEJEENSt8__detail9_MakeUniqIT_E15__single_objectEDpOT0_(ptr sret(%"class.std::unique_ptr.43") align 8 %ref.tmp)
  call void @_ZNSt10unique_ptrIN9grpc_core26LoadBalancingPolicyFactoryESt14default_deleteIS1_EEC2INS0_12_GLOBAL__N_124XdsOverrideHostLbFactoryES2_IS7_EvEEOS_IT_T0_E(ptr noundef nonnull align 8 dereferenceable(8) %agg.tmp, ptr noundef nonnull align 8 dereferenceable(8) %ref.tmp) #3
  invoke void @_ZN9grpc_core27LoadBalancingPolicyRegistry7Builder34RegisterLoadBalancingPolicyFactoryESt10unique_ptrINS_26LoadBalancingPolicyFactoryESt14default_deleteIS3_EE(ptr noundef nonnull align 8 dereferenceable(48) %call, ptr noundef %agg.tmp)
          to label %invoke.cont unwind label %lpad

invoke.cont:                                      ; preds = %entry
  call void @_ZNSt10unique_ptrIN9grpc_core26LoadBalancingPolicyFactoryESt14default_deleteIS1_EED2Ev(ptr noundef nonnull align 8 dereferenceable(8) %agg.tmp) #3
  call void @_ZNSt10unique_ptrIN9grpc_core12_GLOBAL__N_124XdsOverrideHostLbFactoryESt14default_deleteIS2_EED2Ev(ptr noundef nonnull align 8 dereferenceable(8) %ref.tmp) #3
  ret void

lpad:                                             ; preds = %entry
  %1 = landingpad { ptr, i32 }
          cleanup
  %2 = extractvalue { ptr, i32 } %1, 0
  store ptr %2, ptr %exn.slot, align 8
  %3 = extractvalue { ptr, i32 } %1, 1
  store i32 %3, ptr %ehselector.slot, align 4
  call void @_ZNSt10unique_ptrIN9grpc_core26LoadBalancingPolicyFactoryESt14default_deleteIS1_EED2Ev(ptr noundef nonnull align 8 dereferenceable(8) %agg.tmp) #3
  call void @_ZNSt10unique_ptrIN9grpc_core12_GLOBAL__N_124XdsOverrideHostLbFactoryESt14default_deleteIS2_EED2Ev(ptr noundef nonnull align 8 dereferenceable(8) %ref.tmp) #3
  br label %eh.resume

eh.resume:                                        ; preds = %lpad
  %exn = load ptr, ptr %exn.slot, align 8
  %sel = load i32, ptr %ehselector.slot, align 4
  %lpad.val = insertvalue { ptr, i32 } poison, ptr %exn, 0
  %lpad.val1 = insertvalue { ptr, i32 } %lpad.val, i32 %sel, 1
  resume { ptr, i32 } %lpad.val1
}

; Function Attrs: mustprogress nounwind uwtable
define linkonce_odr noundef ptr @_ZN9grpc_core17CoreConfiguration7Builder18lb_policy_registryEv(ptr noundef nonnull align 16 dereferenceable(880) %this) #5 comdat align 2 {
entry:
  %this.addr = alloca ptr, align 8
  store ptr %this, ptr %this.addr, align 8
  %this1 = load ptr, ptr %this.addr, align 8
  %lb_policy_registry_ = getelementptr inbounds %"class.grpc_core::CoreConfiguration::Builder", ptr %this1, i32 0, i32 7
  ret ptr %lb_policy_registry_
}

declare void @_ZN9grpc_core27LoadBalancingPolicyRegistry7Builder34RegisterLoadBalancingPolicyFactoryESt10unique_ptrINS_26LoadBalancingPolicyFactoryESt14default_deleteIS3_EE(ptr noundef nonnull align 8 dereferenceable(48), ptr noundef) #1

; Function Attrs: mustprogress uwtable
define internal void @_ZSt11make_uniqueIN9grpc_core12_GLOBAL__N_124XdsOverrideHostLbFactoryEJEENSt8__detail9_MakeUniqIT_E15__single_objectEDpOT0_(ptr noalias sret(%"class.std::unique_ptr.43") align 8 %agg.result) #4 {
entry:
  %result.ptr = alloca ptr, align 8
  store ptr %agg.result, ptr %result.ptr, align 8
  %call = call noalias noundef nonnull ptr @_Znwm(i64 noundef 8) #14
  call void @llvm.memset.p0.i64(ptr align 8 %call, i8 0, i64 8, i1 false)
  call void @_ZN9grpc_core12_GLOBAL__N_124XdsOverrideHostLbFactoryC2Ev(ptr noundef nonnull align 8 dereferenceable(8) %call) #3
  call void @_ZNSt10unique_ptrIN9grpc_core12_GLOBAL__N_124XdsOverrideHostLbFactoryESt14default_deleteIS2_EEC2IS4_vEEPS2_(ptr noundef nonnull align 8 dereferenceable(8) %agg.result, ptr noundef %call) #3
  ret void
}

; Function Attrs: mustprogress nounwind uwtable
define internal void @_ZNSt10unique_ptrIN9grpc_core26LoadBalancingPolicyFactoryESt14default_deleteIS1_EEC2INS0_12_GLOBAL__N_124XdsOverrideHostLbFactoryES2_IS7_EvEEOS_IT_T0_E(ptr noundef nonnull align 8 dereferenceable(8) %this, ptr noundef nonnull align 8 dereferenceable(8) %__u) unnamed_addr #5 align 2 personality ptr @__gxx_personality_v0 {
entry:
  %this.addr = alloca ptr, align 8
  %__u.addr = alloca ptr, align 8
  store ptr %this, ptr %this.addr, align 8
  store ptr %__u, ptr %__u.addr, align 8
  %this1 = load ptr, ptr %this.addr, align 8
  %_M_t = getelementptr inbounds %"class.std::unique_ptr", ptr %this1, i32 0, i32 0
  %0 = load ptr, ptr %__u.addr, align 8
  %call = call noundef ptr @_ZNSt10unique_ptrIN9grpc_core12_GLOBAL__N_124XdsOverrideHostLbFactoryESt14default_deleteIS2_EE7releaseEv(ptr noundef nonnull align 8 dereferenceable(8) %0) #3
  %1 = load ptr, ptr %__u.addr, align 8
  %call2 = call noundef nonnull align 1 dereferenceable(1) ptr @_ZNSt10unique_ptrIN9grpc_core12_GLOBAL__N_124XdsOverrideHostLbFactoryESt14default_deleteIS2_EE11get_deleterEv(ptr noundef nonnull align 8 dereferenceable(8) %1) #3
  invoke void @_ZNSt15__uniq_ptr_dataIN9grpc_core26LoadBalancingPolicyFactoryESt14default_deleteIS1_ELb1ELb1EECI2St15__uniq_ptr_implIS1_S3_EIS2_INS0_12_GLOBAL__N_124XdsOverrideHostLbFactoryEEEEPS1_OT_(ptr noundef nonnull align 8 dereferenceable(8) %_M_t, ptr noundef %call, ptr noundef nonnull align 1 dereferenceable(1) %call2)
          to label %invoke.cont unwind label %terminate.lpad

invoke.cont:                                      ; preds = %entry
  ret void

terminate.lpad:                                   ; preds = %entry
  %2 = landingpad { ptr, i32 }
          catch ptr null
  %3 = extractvalue { ptr, i32 } %2, 0
  call void @__clang_call_terminate(ptr %3) #15
  unreachable
}

declare i32 @__gxx_personality_v0(...)

; Function Attrs: mustprogress nounwind uwtable
define linkonce_odr void @_ZNSt10unique_ptrIN9grpc_core26LoadBalancingPolicyFactoryESt14default_deleteIS1_EED2Ev(ptr noundef nonnull align 8 dereferenceable(8) %this) unnamed_addr #5 comdat align 2 personality ptr @__gxx_personality_v0 {
entry:
  %this.addr = alloca ptr, align 8
  %__ptr = alloca ptr, align 8
  store ptr %this, ptr %this.addr, align 8
  %this1 = load ptr, ptr %this.addr, align 8
  %_M_t = getelementptr inbounds %"class.std::unique_ptr", ptr %this1, i32 0, i32 0
  %call = call noundef nonnull align 8 dereferenceable(8) ptr @_ZNSt15__uniq_ptr_implIN9grpc_core26LoadBalancingPolicyFactoryESt14default_deleteIS1_EE6_M_ptrEv(ptr noundef nonnull align 8 dereferenceable(8) %_M_t) #3
  store ptr %call, ptr %__ptr, align 8
  %0 = load ptr, ptr %__ptr, align 8
  %1 = load ptr, ptr %0, align 8
  %cmp = icmp ne ptr %1, null
  br i1 %cmp, label %if.then, label %if.end

if.then:                                          ; preds = %entry
  %call2 = call noundef nonnull align 1 dereferenceable(1) ptr @_ZNSt10unique_ptrIN9grpc_core26LoadBalancingPolicyFactoryESt14default_deleteIS1_EE11get_deleterEv(ptr noundef nonnull align 8 dereferenceable(8) %this1) #3
  %2 = load ptr, ptr %__ptr, align 8
  %3 = load ptr, ptr %2, align 8
  invoke void @_ZNKSt14default_deleteIN9grpc_core26LoadBalancingPolicyFactoryEEclEPS1_(ptr noundef nonnull align 1 dereferenceable(1) %call2, ptr noundef %3)
          to label %invoke.cont unwind label %terminate.lpad

invoke.cont:                                      ; preds = %if.then
  br label %if.end

if.end:                                           ; preds = %invoke.cont, %entry
  %4 = load ptr, ptr %__ptr, align 8
  store ptr null, ptr %4, align 8
  ret void

terminate.lpad:                                   ; preds = %if.then
  %5 = landingpad { ptr, i32 }
          catch ptr null
  %6 = extractvalue { ptr, i32 } %5, 0
  call void @__clang_call_terminate(ptr %6) #15
  unreachable
}

; Function Attrs: mustprogress nounwind uwtable
define internal void @_ZNSt10unique_ptrIN9grpc_core12_GLOBAL__N_124XdsOverrideHostLbFactoryESt14default_deleteIS2_EED2Ev(ptr noundef nonnull align 8 dereferenceable(8) %this) unnamed_addr #5 align 2 personality ptr @__gxx_personality_v0 {
entry:
  %this.addr = alloca ptr, align 8
  %__ptr = alloca ptr, align 8
  store ptr %this, ptr %this.addr, align 8
  %this1 = load ptr, ptr %this.addr, align 8
  %_M_t = getelementptr inbounds %"class.std::unique_ptr.43", ptr %this1, i32 0, i32 0
  %call = call noundef nonnull align 8 dereferenceable(8) ptr @_ZNSt15__uniq_ptr_implIN9grpc_core12_GLOBAL__N_124XdsOverrideHostLbFactoryESt14default_deleteIS2_EE6_M_ptrEv(ptr noundef nonnull align 8 dereferenceable(8) %_M_t) #3
  store ptr %call, ptr %__ptr, align 8
  %0 = load ptr, ptr %__ptr, align 8
  %1 = load ptr, ptr %0, align 8
  %cmp = icmp ne ptr %1, null
  br i1 %cmp, label %if.then, label %if.end

if.then:                                          ; preds = %entry
  %call2 = call noundef nonnull align 1 dereferenceable(1) ptr @_ZNSt10unique_ptrIN9grpc_core12_GLOBAL__N_124XdsOverrideHostLbFactoryESt14default_deleteIS2_EE11get_deleterEv(ptr noundef nonnull align 8 dereferenceable(8) %this1) #3
  %2 = load ptr, ptr %__ptr, align 8
  %3 = load ptr, ptr %2, align 8
  invoke void @_ZNKSt14default_deleteIN9grpc_core12_GLOBAL__N_124XdsOverrideHostLbFactoryEEclEPS2_(ptr noundef nonnull align 1 dereferenceable(1) %call2, ptr noundef %3)
          to label %invoke.cont unwind label %terminate.lpad

invoke.cont:                                      ; preds = %if.then
  br label %if.end

if.end:                                           ; preds = %invoke.cont, %entry
  %4 = load ptr, ptr %__ptr, align 8
  store ptr null, ptr %4, align 8
  ret void

terminate.lpad:                                   ; preds = %if.then
  %5 = landingpad { ptr, i32 }
          catch ptr null
  %6 = extractvalue { ptr, i32 } %5, 0
  call void @__clang_call_terminate(ptr %6) #15
  unreachable
}

; Function Attrs: mustprogress uwtable
define noundef ptr @_ZN9grpc_core23XdsOverrideHostLbConfig10JsonLoaderERKNS_8JsonArgsE(ptr noundef nonnull align 8 dereferenceable(8) %0) #4 align 2 personality ptr @__gxx_personality_v0 {
entry:
  %.addr = alloca ptr, align 8
  %ref.tmp = alloca %"class.grpc_core::json_detail::JsonObjectLoader", align 1
  %exn.slot = alloca ptr, align 8
  %ehselector.slot = alloca i32, align 4
  store ptr %0, ptr %.addr, align 8
  %1 = load atomic i8, ptr @_ZGVZN9grpc_core23XdsOverrideHostLbConfig10JsonLoaderERKNS_8JsonArgsEE11kJsonLoader acquire, align 8
  %guard.uninitialized = icmp eq i8 %1, 0
  br i1 %guard.uninitialized, label %init.check, label %init.end, !prof !4

init.check:                                       ; preds = %entry
  %2 = call i32 @__cxa_guard_acquire(ptr @_ZGVZN9grpc_core23XdsOverrideHostLbConfig10JsonLoaderERKNS_8JsonArgsEE11kJsonLoader) #3
  %tobool = icmp ne i32 %2, 0
  br i1 %tobool, label %init, label %init.end

init:                                             ; preds = %init.check
  invoke void @_ZN9grpc_core11json_detail16JsonObjectLoaderINS_23XdsOverrideHostLbConfigELm0EEC2Ev(ptr noundef nonnull align 1 dereferenceable(1) %ref.tmp)
          to label %invoke.cont unwind label %lpad

invoke.cont:                                      ; preds = %init
  %call = invoke noundef ptr @_ZNK9grpc_core11json_detail16JsonObjectLoaderINS_23XdsOverrideHostLbConfigELm0EE6FinishEv(ptr noundef nonnull align 1 dereferenceable(1) %ref.tmp)
          to label %invoke.cont1 unwind label %lpad

invoke.cont1:                                     ; preds = %invoke.cont
  store ptr %call, ptr @_ZZN9grpc_core23XdsOverrideHostLbConfig10JsonLoaderERKNS_8JsonArgsEE11kJsonLoader, align 8
  call void @__cxa_guard_release(ptr @_ZGVZN9grpc_core23XdsOverrideHostLbConfig10JsonLoaderERKNS_8JsonArgsEE11kJsonLoader) #3
  br label %init.end

init.end:                                         ; preds = %invoke.cont1, %init.check, %entry
  %3 = load ptr, ptr @_ZZN9grpc_core23XdsOverrideHostLbConfig10JsonLoaderERKNS_8JsonArgsEE11kJsonLoader, align 8
  ret ptr %3

lpad:                                             ; preds = %invoke.cont, %init
  %4 = landingpad { ptr, i32 }
          cleanup
  %5 = extractvalue { ptr, i32 } %4, 0
  store ptr %5, ptr %exn.slot, align 8
  %6 = extractvalue { ptr, i32 } %4, 1
  store i32 %6, ptr %ehselector.slot, align 4
  call void @__cxa_guard_abort(ptr @_ZGVZN9grpc_core23XdsOverrideHostLbConfig10JsonLoaderERKNS_8JsonArgsEE11kJsonLoader) #3
  br label %eh.resume

eh.resume:                                        ; preds = %lpad
  %exn = load ptr, ptr %exn.slot, align 8
  %sel = load i32, ptr %ehselector.slot, align 4
  %lpad.val = insertvalue { ptr, i32 } poison, ptr %exn, 0
  %lpad.val2 = insertvalue { ptr, i32 } %lpad.val, i32 %sel, 1
  resume { ptr, i32 } %lpad.val2
}

; Function Attrs: nounwind
declare i32 @__cxa_guard_acquire(ptr) #3

; Function Attrs: mustprogress nounwind uwtable
define linkonce_odr void @_ZN9grpc_core11json_detail16JsonObjectLoaderINS_23XdsOverrideHostLbConfigELm0EEC2Ev(ptr noundef nonnull align 1 dereferenceable(1) %this) unnamed_addr #5 comdat align 2 {
entry:
  %this.addr = alloca ptr, align 8
  store ptr %this, ptr %this.addr, align 8
  ret void
}

; Function Attrs: mustprogress uwtable
define linkonce_odr noundef ptr @_ZNK9grpc_core11json_detail16JsonObjectLoaderINS_23XdsOverrideHostLbConfigELm0EE6FinishEv(ptr noundef nonnull align 1 dereferenceable(1) %this) #4 comdat align 2 personality ptr @__gxx_personality_v0 {
entry:
  %this.addr = alloca ptr, align 8
  %exn.slot = alloca ptr, align 8
  %ehselector.slot = alloca i32, align 4
  store ptr %this, ptr %this.addr, align 8
  %this1 = load ptr, ptr %this.addr, align 8
  %call = call noalias noundef nonnull ptr @_Znwm(i64 noundef 8) #14
  invoke void @_ZN9grpc_core11json_detail24FinishedJsonObjectLoaderINS_23XdsOverrideHostLbConfigELm0EvEC2ERKNS0_3VecINS0_7ElementELm0EEE(ptr noundef nonnull align 8 dereferenceable(8) %call, ptr noundef nonnull align 1 dereferenceable(1) %this1)
          to label %invoke.cont unwind label %lpad

invoke.cont:                                      ; preds = %entry
  ret ptr %call

lpad:                                             ; preds = %entry
  %0 = landingpad { ptr, i32 }
          cleanup
  %1 = extractvalue { ptr, i32 } %0, 0
  store ptr %1, ptr %exn.slot, align 8
  %2 = extractvalue { ptr, i32 } %0, 1
  store i32 %2, ptr %ehselector.slot, align 4
  call void @_ZdlPv(ptr noundef %call) #16
  br label %eh.resume

eh.resume:                                        ; preds = %lpad
  %exn = load ptr, ptr %exn.slot, align 8
  %sel = load i32, ptr %ehselector.slot, align 4
  %lpad.val = insertvalue { ptr, i32 } poison, ptr %exn, 0
  %lpad.val2 = insertvalue { ptr, i32 } %lpad.val, i32 %sel, 1
  resume { ptr, i32 } %lpad.val2
}

; Function Attrs: nounwind
declare void @__cxa_guard_abort(ptr) #3

; Function Attrs: nounwind
declare void @__cxa_guard_release(ptr) #3

; Function Attrs: mustprogress uwtable
define void @_ZN9grpc_core23XdsOverrideHostLbConfig12JsonPostLoadERKNS_12experimental4JsonERKNS_8JsonArgsEPNS_16ValidationErrorsE(ptr noundef nonnull align 8 dereferenceable(28) %this, ptr noundef nonnull align 8 dereferenceable(56) %json, ptr noundef nonnull align 8 dereferenceable(8) %args, ptr noundef %errors) #4 align 2 personality ptr @__gxx_personality_v0 {
entry:
  %this.addr = alloca ptr, align 8
  %json.addr = alloca ptr, align 8
  %args.addr = alloca ptr, align 8
  %errors.addr = alloca ptr, align 8
  %field = alloca %"class.grpc_core::ValidationErrors::ScopedField", align 8
  %agg.tmp = alloca %"class.std::basic_string_view", align 8
  %it = alloca %"struct.std::_Rb_tree_const_iterator", align 8
  %exn.slot = alloca ptr, align 8
  %ehselector.slot = alloca i32, align 4
  %ref.tmp = alloca %"class.std::__cxx11::basic_string", align 8
  %ref.tmp2 = alloca %"class.std::allocator.28", align 1
  %ref.tmp8 = alloca %"struct.std::_Rb_tree_const_iterator", align 8
  %agg.tmp14 = alloca %"class.std::basic_string_view", align 8
  %child_policy_config = alloca %"class.absl::lts_20230802::StatusOr", align 8
  %agg.tmp26 = alloca %"class.std::basic_string_view", align 8
  %field39 = alloca %"class.grpc_core::ValidationErrors::ScopedField", align 8
  %agg.tmp40 = alloca %"class.std::basic_string_view", align 8
  %host_status_list = alloca %"class.std::optional", align 8
  %agg.tmp44 = alloca %"class.std::basic_string_view", align 8
  %i = alloca i64, align 8
  %host_status = alloca ptr, align 8
  %status = alloca %"class.std::optional.100", align 4
  %agg.tmp52 = alloca %"class.std::basic_string_view", align 8
  %field61 = alloca %"class.grpc_core::ValidationErrors::ScopedField", align 8
  %agg.tmp62 = alloca %"class.std::basic_string_view", align 8
  %ref.tmp63 = alloca %"class.std::__cxx11::basic_string", align 8
  %ref.tmp64 = alloca %"class.absl::lts_20230802::AlphaNum", align 8
  %ref.tmp66 = alloca %"class.absl::lts_20230802::AlphaNum", align 8
  %ref.tmp68 = alloca %"class.absl::lts_20230802::AlphaNum", align 8
  %agg.tmp75 = alloca %"class.std::basic_string_view", align 8
  %agg.tmp80 = alloca %"class.grpc_core::XdsHealthStatus", align 4
  %ref.tmp86 = alloca %"class.grpc_core::XdsHealthStatusSet", align 4
  %agg.tmp87 = alloca %"class.absl::lts_20230802::Span", align 8
  %agg.tmp88 = alloca %"class.std::initializer_list", align 8
  %ref.tmp89 = alloca [2 x %"class.grpc_core::XdsHealthStatus"], align 4
  store ptr %this, ptr %this.addr, align 8
  store ptr %json, ptr %json.addr, align 8
  store ptr %args, ptr %args.addr, align 8
  store ptr %errors, ptr %errors.addr, align 8
  %this1 = load ptr, ptr %this.addr, align 8
  %0 = load ptr, ptr %errors.addr, align 8
  call void @_ZNSt17basic_string_viewIcSt11char_traitsIcEEC2EPKc(ptr noundef nonnull align 8 dereferenceable(16) %agg.tmp, ptr noundef @.str.2) #3
  %1 = getelementptr inbounds { i64, ptr }, ptr %agg.tmp, i32 0, i32 0
  %2 = load i64, ptr %1, align 8
  %3 = getelementptr inbounds { i64, ptr }, ptr %agg.tmp, i32 0, i32 1
  %4 = load ptr, ptr %3, align 8
  call void @_ZN9grpc_core16ValidationErrors11ScopedFieldC2EPS0_St17basic_string_viewIcSt11char_traitsIcEE(ptr noundef nonnull align 8 dereferenceable(8) %field, ptr noundef %0, i64 %2, ptr %4)
  %5 = load ptr, ptr %json.addr, align 8
  %call = invoke noundef nonnull align 8 dereferenceable(48) ptr @_ZNK9grpc_core12experimental4Json6objectB5cxx11Ev(ptr noundef nonnull align 8 dereferenceable(56) %5)
          to label %invoke.cont unwind label %lpad

invoke.cont:                                      ; preds = %entry
  call void @_ZNSaIcEC1Ev(ptr noundef nonnull align 1 dereferenceable(1) %ref.tmp2) #3
  invoke void @_ZNSt7__cxx1112basic_stringIcSt11char_traitsIcESaIcEEC2IS3_EEPKcRKS3_(ptr noundef nonnull align 8 dereferenceable(32) %ref.tmp, ptr noundef @.str.3, ptr noundef nonnull align 1 dereferenceable(1) %ref.tmp2)
          to label %invoke.cont4 unwind label %lpad3

invoke.cont4:                                     ; preds = %invoke.cont
  %call7 = invoke ptr @_ZNKSt3mapINSt7__cxx1112basic_stringIcSt11char_traitsIcESaIcEEEN9grpc_core12experimental4JsonESt4lessIS5_ESaISt4pairIKS5_S8_EEE4findERSC_(ptr noundef nonnull align 8 dereferenceable(48) %call, ptr noundef nonnull align 8 dereferenceable(32) %ref.tmp)
          to label %invoke.cont6 unwind label %lpad5

invoke.cont6:                                     ; preds = %invoke.cont4
  %coerce.dive = getelementptr inbounds %"struct.std::_Rb_tree_const_iterator", ptr %it, i32 0, i32 0
  store ptr %call7, ptr %coerce.dive, align 8
  call void @_ZNSt7__cxx1112basic_stringIcSt11char_traitsIcESaIcEED1Ev(ptr noundef nonnull align 8 dereferenceable(32) %ref.tmp) #3
  call void @_ZNSaIcED1Ev(ptr noundef nonnull align 1 dereferenceable(1) %ref.tmp2) #3
  %6 = load ptr, ptr %json.addr, align 8
  %call10 = invoke noundef nonnull align 8 dereferenceable(48) ptr @_ZNK9grpc_core12experimental4Json6objectB5cxx11Ev(ptr noundef nonnull align 8 dereferenceable(56) %6)
          to label %invoke.cont9 unwind label %lpad

invoke.cont9:                                     ; preds = %invoke.cont6
  %call11 = call ptr @_ZNKSt3mapINSt7__cxx1112basic_stringIcSt11char_traitsIcESaIcEEEN9grpc_core12experimental4JsonESt4lessIS5_ESaISt4pairIKS5_S8_EEE3endEv(ptr noundef nonnull align 8 dereferenceable(48) %call10) #3
  %coerce.dive12 = getelementptr inbounds %"struct.std::_Rb_tree_const_iterator", ptr %ref.tmp8, i32 0, i32 0
  store ptr %call11, ptr %coerce.dive12, align 8
  %call13 = call noundef zeroext i1 @_ZSteqRKSt23_Rb_tree_const_iteratorISt4pairIKNSt7__cxx1112basic_stringIcSt11char_traitsIcESaIcEEEN9grpc_core12experimental4JsonEEESE_(ptr noundef nonnull align 8 dereferenceable(8) %it, ptr noundef nonnull align 8 dereferenceable(8) %ref.tmp8) #3
  br i1 %call13, label %if.then, label %if.else

if.then:                                          ; preds = %invoke.cont9
  %7 = load ptr, ptr %errors.addr, align 8
  call void @_ZNSt17basic_string_viewIcSt11char_traitsIcEEC2EPKc(ptr noundef nonnull align 8 dereferenceable(16) %agg.tmp14, ptr noundef @.str.4) #3
  %8 = getelementptr inbounds { i64, ptr }, ptr %agg.tmp14, i32 0, i32 0
  %9 = load i64, ptr %8, align 8
  %10 = getelementptr inbounds { i64, ptr }, ptr %agg.tmp14, i32 0, i32 1
  %11 = load ptr, ptr %10, align 8
  invoke void @_ZN9grpc_core16ValidationErrors8AddErrorESt17basic_string_viewIcSt11char_traitsIcEE(ptr noundef nonnull align 8 dereferenceable(72) %7, i64 %9, ptr %11)
          to label %invoke.cont15 unwind label %lpad

invoke.cont15:                                    ; preds = %if.then
  br label %if.end37

lpad:                                             ; preds = %invoke.cont18, %invoke.cont16, %if.else, %if.then, %invoke.cont6, %entry
  %12 = landingpad { ptr, i32 }
          cleanup
  %13 = extractvalue { ptr, i32 } %12, 0
  store ptr %13, ptr %exn.slot, align 8
  %14 = extractvalue { ptr, i32 } %12, 1
  store i32 %14, ptr %ehselector.slot, align 4
  br label %ehcleanup38

lpad3:                                            ; preds = %invoke.cont
  %15 = landingpad { ptr, i32 }
          cleanup
  %16 = extractvalue { ptr, i32 } %15, 0
  store ptr %16, ptr %exn.slot, align 8
  %17 = extractvalue { ptr, i32 } %15, 1
  store i32 %17, ptr %ehselector.slot, align 4
  br label %ehcleanup

lpad5:                                            ; preds = %invoke.cont4
  %18 = landingpad { ptr, i32 }
          cleanup
  %19 = extractvalue { ptr, i32 } %18, 0
  store ptr %19, ptr %exn.slot, align 8
  %20 = extractvalue { ptr, i32 } %18, 1
  store i32 %20, ptr %ehselector.slot, align 4
  call void @_ZNSt7__cxx1112basic_stringIcSt11char_traitsIcESaIcEED1Ev(ptr noundef nonnull align 8 dereferenceable(32) %ref.tmp) #3
  br label %ehcleanup

ehcleanup:                                        ; preds = %lpad5, %lpad3
  call void @_ZNSaIcED1Ev(ptr noundef nonnull align 1 dereferenceable(1) %ref.tmp2) #3
  br label %ehcleanup38

if.else:                                          ; preds = %invoke.cont9
  %call17 = invoke noundef nonnull align 8 dereferenceable(776) ptr @_ZN9grpc_core17CoreConfiguration3GetEv()
          to label %invoke.cont16 unwind label %lpad

invoke.cont16:                                    ; preds = %if.else
  %call19 = invoke noundef nonnull align 8 dereferenceable(48) ptr @_ZNK9grpc_core17CoreConfiguration18lb_policy_registryEv(ptr noundef nonnull align 8 dereferenceable(776) %call17)
          to label %invoke.cont18 unwind label %lpad

invoke.cont18:                                    ; preds = %invoke.cont16
  %call20 = call noundef ptr @_ZNKSt23_Rb_tree_const_iteratorISt4pairIKNSt7__cxx1112basic_stringIcSt11char_traitsIcESaIcEEEN9grpc_core12experimental4JsonEEEptEv(ptr noundef nonnull align 8 dereferenceable(8) %it) #3
  %second = getelementptr inbounds %"struct.std::pair", ptr %call20, i32 0, i32 1
  invoke void @_ZNK9grpc_core27LoadBalancingPolicyRegistry24ParseLoadBalancingConfigERKNS_12experimental4JsonE(ptr sret(%"class.absl::lts_20230802::StatusOr") align 8 %child_policy_config, ptr noundef nonnull align 8 dereferenceable(48) %call19, ptr noundef nonnull align 8 dereferenceable(56) %second)
          to label %invoke.cont21 unwind label %lpad

invoke.cont21:                                    ; preds = %invoke.cont18
  %call24 = invoke noundef zeroext i1 @_ZNK4absl12lts_202308028StatusOrIN9grpc_core13RefCountedPtrINS2_19LoadBalancingPolicy6ConfigEEEE2okEv(ptr noundef nonnull align 8 dereferenceable(16) %child_policy_config)
          to label %invoke.cont23 unwind label %lpad22

invoke.cont23:                                    ; preds = %invoke.cont21
  br i1 %call24, label %if.else32, label %if.then25

if.then25:                                        ; preds = %invoke.cont23
  %21 = load ptr, ptr %errors.addr, align 8
  %call28 = invoke noundef nonnull align 8 dereferenceable(8) ptr @_ZNKR4absl12lts_202308028StatusOrIN9grpc_core13RefCountedPtrINS2_19LoadBalancingPolicy6ConfigEEEE6statusEv(ptr noundef nonnull align 8 dereferenceable(16) %child_policy_config)
          to label %invoke.cont27 unwind label %lpad22

invoke.cont27:                                    ; preds = %if.then25
  %call30 = invoke { i64, ptr } @_ZNK4absl12lts_202308026Status7messageEv(ptr noundef nonnull align 8 dereferenceable(8) %call28)
          to label %invoke.cont29 unwind label %lpad22

invoke.cont29:                                    ; preds = %invoke.cont27
  %22 = getelementptr inbounds { i64, ptr }, ptr %agg.tmp26, i32 0, i32 0
  %23 = extractvalue { i64, ptr } %call30, 0
  store i64 %23, ptr %22, align 8
  %24 = getelementptr inbounds { i64, ptr }, ptr %agg.tmp26, i32 0, i32 1
  %25 = extractvalue { i64, ptr } %call30, 1
  store ptr %25, ptr %24, align 8
  %26 = getelementptr inbounds { i64, ptr }, ptr %agg.tmp26, i32 0, i32 0
  %27 = load i64, ptr %26, align 8
  %28 = getelementptr inbounds { i64, ptr }, ptr %agg.tmp26, i32 0, i32 1
  %29 = load ptr, ptr %28, align 8
  invoke void @_ZN9grpc_core16ValidationErrors8AddErrorESt17basic_string_viewIcSt11char_traitsIcEE(ptr noundef nonnull align 8 dereferenceable(72) %21, i64 %27, ptr %29)
          to label %invoke.cont31 unwind label %lpad22

invoke.cont31:                                    ; preds = %invoke.cont29
  br label %if.end

lpad22:                                           ; preds = %if.else32, %invoke.cont29, %invoke.cont27, %if.then25, %invoke.cont21
  %30 = landingpad { ptr, i32 }
          cleanup
  %31 = extractvalue { ptr, i32 } %30, 0
  store ptr %31, ptr %exn.slot, align 8
  %32 = extractvalue { ptr, i32 } %30, 1
  store i32 %32, ptr %ehselector.slot, align 4
  call void @_ZN4absl12lts_202308028StatusOrIN9grpc_core13RefCountedPtrINS2_19LoadBalancingPolicy6ConfigEEEED2Ev(ptr noundef nonnull align 8 dereferenceable(16) %child_policy_config) #3
  br label %ehcleanup38

if.else32:                                        ; preds = %invoke.cont23
  %call34 = invoke noundef nonnull align 8 dereferenceable(8) ptr @_ZNR4absl12lts_202308028StatusOrIN9grpc_core13RefCountedPtrINS2_19LoadBalancingPolicy6ConfigEEEEdeEv(ptr noundef nonnull align 8 dereferenceable(16) %child_policy_config)
          to label %invoke.cont33 unwind label %lpad22

invoke.cont33:                                    ; preds = %if.else32
  %child_config_ = getelementptr inbounds %"class.grpc_core::XdsOverrideHostLbConfig", ptr %this1, i32 0, i32 1
  %call35 = call noundef nonnull align 8 dereferenceable(8) ptr @_ZN9grpc_core13RefCountedPtrINS_19LoadBalancingPolicy6ConfigEEaSEOS3_(ptr noundef nonnull align 8 dereferenceable(8) %child_config_, ptr noundef nonnull align 8 dereferenceable(8) %call34) #3
  br label %if.end

if.end:                                           ; preds = %invoke.cont33, %invoke.cont31
  call void @_ZN4absl12lts_202308028StatusOrIN9grpc_core13RefCountedPtrINS2_19LoadBalancingPolicy6ConfigEEEED2Ev(ptr noundef nonnull align 8 dereferenceable(16) %child_policy_config) #3
  br label %if.end37

if.end37:                                         ; preds = %if.end, %invoke.cont15
  call void @_ZN9grpc_core16ValidationErrors11ScopedFieldD2Ev(ptr noundef nonnull align 8 dereferenceable(8) %field) #3
  %33 = load ptr, ptr %errors.addr, align 8
  call void @_ZNSt17basic_string_viewIcSt11char_traitsIcEEC2EPKc(ptr noundef nonnull align 8 dereferenceable(16) %agg.tmp40, ptr noundef @.str.5) #3
  %34 = getelementptr inbounds { i64, ptr }, ptr %agg.tmp40, i32 0, i32 0
  %35 = load i64, ptr %34, align 8
  %36 = getelementptr inbounds { i64, ptr }, ptr %agg.tmp40, i32 0, i32 1
  %37 = load ptr, ptr %36, align 8
  call void @_ZN9grpc_core16ValidationErrors11ScopedFieldC2EPS0_St17basic_string_viewIcSt11char_traitsIcEE(ptr noundef nonnull align 8 dereferenceable(8) %field39, ptr noundef %33, i64 %35, ptr %37)
  %38 = load ptr, ptr %json.addr, align 8
  %call43 = invoke noundef nonnull align 8 dereferenceable(48) ptr @_ZNK9grpc_core12experimental4Json6objectB5cxx11Ev(ptr noundef nonnull align 8 dereferenceable(56) %38)
          to label %invoke.cont42 unwind label %lpad41

invoke.cont42:                                    ; preds = %if.end37
  %39 = load ptr, ptr %args.addr, align 8
  call void @_ZNSt17basic_string_viewIcSt11char_traitsIcEEC2EPKc(ptr noundef nonnull align 8 dereferenceable(16) %agg.tmp44, ptr noundef @.str.6) #3
  %40 = load ptr, ptr %errors.addr, align 8
  %41 = getelementptr inbounds { i64, ptr }, ptr %agg.tmp44, i32 0, i32 0
  %42 = load i64, ptr %41, align 8
  %43 = getelementptr inbounds { i64, ptr }, ptr %agg.tmp44, i32 0, i32 1
  %44 = load ptr, ptr %43, align 8
  invoke void @_ZN9grpc_core19LoadJsonObjectFieldISt6vectorINSt7__cxx1112basic_stringIcSt11char_traitsIcESaIcEEESaIS7_EEEESt8optionalIT_ERKSt3mapIS7_NS_12experimental4JsonESt4lessIS7_ESaISt4pairIKS7_SF_EEERKNS_8JsonArgsESt17basic_string_viewIcS5_EPNS_16ValidationErrorsEb(ptr sret(%"class.std::optional") align 8 %host_status_list, ptr noundef nonnull align 8 dereferenceable(48) %call43, ptr noundef nonnull align 8 dereferenceable(8) %39, i64 %42, ptr %44, ptr noundef %40, i1 noundef zeroext false)
          to label %invoke.cont45 unwind label %lpad41

invoke.cont45:                                    ; preds = %invoke.cont42
  %call46 = call noundef zeroext i1 @_ZNKSt8optionalISt6vectorINSt7__cxx1112basic_stringIcSt11char_traitsIcESaIcEEESaIS6_EEE9has_valueEv(ptr noundef nonnull align 8 dereferenceable(32) %host_status_list) #3
  br i1 %call46, label %if.then47, label %if.else85

if.then47:                                        ; preds = %invoke.cont45
  store i64 0, ptr %i, align 8
  br label %for.cond

for.cond:                                         ; preds = %for.inc, %if.then47
  %45 = load i64, ptr %i, align 8
  %call48 = call noundef ptr @_ZNSt8optionalISt6vectorINSt7__cxx1112basic_stringIcSt11char_traitsIcESaIcEEESaIS6_EEEptEv(ptr noundef nonnull align 8 dereferenceable(32) %host_status_list) #3
  %call49 = call noundef i64 @_ZNKSt6vectorINSt7__cxx1112basic_stringIcSt11char_traitsIcESaIcEEESaIS5_EE4sizeEv(ptr noundef nonnull align 8 dereferenceable(24) %call48) #3
  %cmp = icmp ult i64 %45, %call49
  br i1 %cmp, label %for.body, label %for.end

for.body:                                         ; preds = %for.cond
  %call50 = call noundef nonnull align 8 dereferenceable(24) ptr @_ZNRSt8optionalISt6vectorINSt7__cxx1112basic_stringIcSt11char_traitsIcESaIcEEESaIS6_EEEdeEv(ptr noundef nonnull align 8 dereferenceable(32) %host_status_list) #3
  %46 = load i64, ptr %i, align 8
  %call51 = call noundef nonnull align 8 dereferenceable(32) ptr @_ZNSt6vectorINSt7__cxx1112basic_stringIcSt11char_traitsIcESaIcEEESaIS5_EEixEm(ptr noundef nonnull align 8 dereferenceable(24) %call50, i64 noundef %46) #3
  store ptr %call51, ptr %host_status, align 8
  %47 = load ptr, ptr %host_status, align 8
  %call53 = call { i64, ptr } @_ZNKSt7__cxx1112basic_stringIcSt11char_traitsIcESaIcEEcvSt17basic_string_viewIcS2_EEv(ptr noundef nonnull align 8 dereferenceable(32) %47) #3
  %48 = getelementptr inbounds { i64, ptr }, ptr %agg.tmp52, i32 0, i32 0
  %49 = extractvalue { i64, ptr } %call53, 0
  store i64 %49, ptr %48, align 8
  %50 = getelementptr inbounds { i64, ptr }, ptr %agg.tmp52, i32 0, i32 1
  %51 = extractvalue { i64, ptr } %call53, 1
  store ptr %51, ptr %50, align 8
  %52 = getelementptr inbounds { i64, ptr }, ptr %agg.tmp52, i32 0, i32 0
  %53 = load i64, ptr %52, align 8
  %54 = getelementptr inbounds { i64, ptr }, ptr %agg.tmp52, i32 0, i32 1
  %55 = load ptr, ptr %54, align 8
  %call56 = invoke i64 @_ZN9grpc_core15XdsHealthStatus10FromStringESt17basic_string_viewIcSt11char_traitsIcEE(i64 %53, ptr %55)
          to label %invoke.cont55 unwind label %lpad54

invoke.cont55:                                    ; preds = %for.body
  %coerce.dive57 = getelementptr inbounds %"class.std::optional.100", ptr %status, i32 0, i32 0
  %coerce.dive58 = getelementptr inbounds %"struct.std::_Optional_base.101", ptr %coerce.dive57, i32 0, i32 0
  store i64 %call56, ptr %coerce.dive58, align 4
  %call59 = call noundef zeroext i1 @_ZNKSt8optionalIN9grpc_core15XdsHealthStatusEE9has_valueEv(ptr noundef nonnull align 4 dereferenceable(8) %status) #3
  br i1 %call59, label %if.else79, label %if.then60

if.then60:                                        ; preds = %invoke.cont55
  %56 = load ptr, ptr %errors.addr, align 8
  invoke void @_ZN4absl12lts_202308028AlphaNumC2EPKc(ptr noundef nonnull align 8 dereferenceable(48) %ref.tmp64, ptr noundef @.str.7)
          to label %invoke.cont65 unwind label %lpad54

invoke.cont65:                                    ; preds = %if.then60
  %57 = load i64, ptr %i, align 8
  invoke void @_ZN4absl12lts_202308028AlphaNumC2Em(ptr noundef nonnull align 8 dereferenceable(48) %ref.tmp66, i64 noundef %57)
          to label %invoke.cont67 unwind label %lpad54

invoke.cont67:                                    ; preds = %invoke.cont65
  invoke void @_ZN4absl12lts_202308028AlphaNumC2EPKc(ptr noundef nonnull align 8 dereferenceable(48) %ref.tmp68, ptr noundef @.str.8)
          to label %invoke.cont69 unwind label %lpad54

invoke.cont69:                                    ; preds = %invoke.cont67
  invoke void @_ZN4absl12lts_202308026StrCatB5cxx11ERKNS0_8AlphaNumES3_S3_(ptr sret(%"class.std::__cxx11::basic_string") align 8 %ref.tmp63, ptr noundef nonnull align 8 dereferenceable(48) %ref.tmp64, ptr noundef nonnull align 8 dereferenceable(48) %ref.tmp66, ptr noundef nonnull align 8 dereferenceable(48) %ref.tmp68)
          to label %invoke.cont70 unwind label %lpad54

invoke.cont70:                                    ; preds = %invoke.cont69
  %call71 = call { i64, ptr } @_ZNKSt7__cxx1112basic_stringIcSt11char_traitsIcESaIcEEcvSt17basic_string_viewIcS2_EEv(ptr noundef nonnull align 8 dereferenceable(32) %ref.tmp63) #3
  %58 = getelementptr inbounds { i64, ptr }, ptr %agg.tmp62, i32 0, i32 0
  %59 = extractvalue { i64, ptr } %call71, 0
  store i64 %59, ptr %58, align 8
  %60 = getelementptr inbounds { i64, ptr }, ptr %agg.tmp62, i32 0, i32 1
  %61 = extractvalue { i64, ptr } %call71, 1
  store ptr %61, ptr %60, align 8
  %62 = getelementptr inbounds { i64, ptr }, ptr %agg.tmp62, i32 0, i32 0
  %63 = load i64, ptr %62, align 8
  %64 = getelementptr inbounds { i64, ptr }, ptr %agg.tmp62, i32 0, i32 1
  %65 = load ptr, ptr %64, align 8
  invoke void @_ZN9grpc_core16ValidationErrors11ScopedFieldC2EPS0_St17basic_string_viewIcSt11char_traitsIcEE(ptr noundef nonnull align 8 dereferenceable(8) %field61, ptr noundef %56, i64 %63, ptr %65)
          to label %invoke.cont73 unwind label %lpad72

invoke.cont73:                                    ; preds = %invoke.cont70
  call void @_ZNSt7__cxx1112basic_stringIcSt11char_traitsIcESaIcEED1Ev(ptr noundef nonnull align 8 dereferenceable(32) %ref.tmp63) #3
  %66 = load ptr, ptr %errors.addr, align 8
  call void @_ZNSt17basic_string_viewIcSt11char_traitsIcEEC2EPKc(ptr noundef nonnull align 8 dereferenceable(16) %agg.tmp75, ptr noundef @.str.9) #3
  %67 = getelementptr inbounds { i64, ptr }, ptr %agg.tmp75, i32 0, i32 0
  %68 = load i64, ptr %67, align 8
  %69 = getelementptr inbounds { i64, ptr }, ptr %agg.tmp75, i32 0, i32 1
  %70 = load ptr, ptr %69, align 8
  invoke void @_ZN9grpc_core16ValidationErrors8AddErrorESt17basic_string_viewIcSt11char_traitsIcEE(ptr noundef nonnull align 8 dereferenceable(72) %66, i64 %68, ptr %70)
          to label %invoke.cont77 unwind label %lpad76

invoke.cont77:                                    ; preds = %invoke.cont73
  call void @_ZN9grpc_core16ValidationErrors11ScopedFieldD2Ev(ptr noundef nonnull align 8 dereferenceable(8) %field61) #3
  br label %if.end84

ehcleanup38:                                      ; preds = %lpad22, %ehcleanup, %lpad
  call void @_ZN9grpc_core16ValidationErrors11ScopedFieldD2Ev(ptr noundef nonnull align 8 dereferenceable(8) %field) #3
  br label %eh.resume

lpad41:                                           ; preds = %invoke.cont42, %if.end37
  %71 = landingpad { ptr, i32 }
          cleanup
  %72 = extractvalue { ptr, i32 } %71, 0
  store ptr %72, ptr %exn.slot, align 8
  %73 = extractvalue { ptr, i32 } %71, 1
  store i32 %73, ptr %ehselector.slot, align 4
  br label %ehcleanup96

lpad54:                                           ; preds = %invoke.cont91, %invoke.cont90, %if.else85, %if.else79, %invoke.cont69, %invoke.cont67, %invoke.cont65, %if.then60, %for.body
  %74 = landingpad { ptr, i32 }
          cleanup
  %75 = extractvalue { ptr, i32 } %74, 0
  store ptr %75, ptr %exn.slot, align 8
  %76 = extractvalue { ptr, i32 } %74, 1
  store i32 %76, ptr %ehselector.slot, align 4
  br label %ehcleanup95

lpad72:                                           ; preds = %invoke.cont70
  %77 = landingpad { ptr, i32 }
          cleanup
  %78 = extractvalue { ptr, i32 } %77, 0
  store ptr %78, ptr %exn.slot, align 8
  %79 = extractvalue { ptr, i32 } %77, 1
  store i32 %79, ptr %ehselector.slot, align 4
  call void @_ZNSt7__cxx1112basic_stringIcSt11char_traitsIcESaIcEED1Ev(ptr noundef nonnull align 8 dereferenceable(32) %ref.tmp63) #3
  br label %ehcleanup95

lpad76:                                           ; preds = %invoke.cont73
  %80 = landingpad { ptr, i32 }
          cleanup
  %81 = extractvalue { ptr, i32 } %80, 0
  store ptr %81, ptr %exn.slot, align 8
  %82 = extractvalue { ptr, i32 } %80, 1
  store i32 %82, ptr %ehselector.slot, align 4
  call void @_ZN9grpc_core16ValidationErrors11ScopedFieldD2Ev(ptr noundef nonnull align 8 dereferenceable(8) %field61) #3
  br label %ehcleanup95

if.else79:                                        ; preds = %invoke.cont55
  %override_host_status_set_ = getelementptr inbounds %"class.grpc_core::XdsOverrideHostLbConfig", ptr %this1, i32 0, i32 2
  %call81 = call noundef nonnull align 4 dereferenceable(4) ptr @_ZNRSt8optionalIN9grpc_core15XdsHealthStatusEEdeEv(ptr noundef nonnull align 4 dereferenceable(8) %status) #3
  call void @llvm.memcpy.p0.p0.i64(ptr align 4 %agg.tmp80, ptr align 4 %call81, i64 4, i1 false)
  %coerce.dive82 = getelementptr inbounds %"class.grpc_core::XdsHealthStatus", ptr %agg.tmp80, i32 0, i32 0
  %83 = load i32, ptr %coerce.dive82, align 4
  invoke void @_ZN9grpc_core18XdsHealthStatusSet3AddENS_15XdsHealthStatusE(ptr noundef nonnull align 4 dereferenceable(4) %override_host_status_set_, i32 %83)
          to label %invoke.cont83 unwind label %lpad54

invoke.cont83:                                    ; preds = %if.else79
  br label %if.end84

if.end84:                                         ; preds = %invoke.cont83, %invoke.cont77
  br label %for.inc

for.inc:                                          ; preds = %if.end84
  %84 = load i64, ptr %i, align 8
  %inc = add i64 %84, 1
  store i64 %inc, ptr %i, align 8
  br label %for.cond, !llvm.loop !5

for.end:                                          ; preds = %for.cond
  br label %if.end94

if.else85:                                        ; preds = %invoke.cont45
  %arrayinit.begin = getelementptr inbounds [2 x %"class.grpc_core::XdsHealthStatus"], ptr %ref.tmp89, i64 0, i64 0
  invoke void @_ZN9grpc_core15XdsHealthStatusC2ENS0_12HealthStatusE(ptr noundef nonnull align 4 dereferenceable(4) %arrayinit.begin, i32 noundef 1)
          to label %invoke.cont90 unwind label %lpad54

invoke.cont90:                                    ; preds = %if.else85
  %arrayinit.element = getelementptr inbounds %"class.grpc_core::XdsHealthStatus", ptr %arrayinit.begin, i64 1
  invoke void @_ZN9grpc_core15XdsHealthStatusC2ENS0_12HealthStatusE(ptr noundef nonnull align 4 dereferenceable(4) %arrayinit.element, i32 noundef 0)
          to label %invoke.cont91 unwind label %lpad54

invoke.cont91:                                    ; preds = %invoke.cont90
  %_M_array = getelementptr inbounds %"class.std::initializer_list", ptr %agg.tmp88, i32 0, i32 0
  %arraystart = getelementptr inbounds [2 x %"class.grpc_core::XdsHealthStatus"], ptr %ref.tmp89, i64 0, i64 0
  store ptr %arraystart, ptr %_M_array, align 8
  %_M_len = getelementptr inbounds %"class.std::initializer_list", ptr %agg.tmp88, i32 0, i32 1
  store i64 2, ptr %_M_len, align 8
  %85 = getelementptr inbounds { ptr, i64 }, ptr %agg.tmp88, i32 0, i32 0
  %86 = load ptr, ptr %85, align 8
  %87 = getelementptr inbounds { ptr, i64 }, ptr %agg.tmp88, i32 0, i32 1
  %88 = load i64, ptr %87, align 8
  call void @_ZN4absl12lts_202308024SpanIKN9grpc_core15XdsHealthStatusEEC2IS4_S4_EESt16initializer_listIS3_E(ptr noundef nonnull align 8 dereferenceable(16) %agg.tmp87, ptr %86, i64 %88) #3
  %89 = getelementptr inbounds { ptr, i64 }, ptr %agg.tmp87, i32 0, i32 0
  %90 = load ptr, ptr %89, align 8
  %91 = getelementptr inbounds { ptr, i64 }, ptr %agg.tmp87, i32 0, i32 1
  %92 = load i64, ptr %91, align 8
  invoke void @_ZN9grpc_core18XdsHealthStatusSetC2EN4absl12lts_202308024SpanIKNS_15XdsHealthStatusEEE(ptr noundef nonnull align 4 dereferenceable(4) %ref.tmp86, ptr %90, i64 %92)
          to label %invoke.cont92 unwind label %lpad54

invoke.cont92:                                    ; preds = %invoke.cont91
  %override_host_status_set_93 = getelementptr inbounds %"class.grpc_core::XdsOverrideHostLbConfig", ptr %this1, i32 0, i32 2
  call void @llvm.memcpy.p0.p0.i64(ptr align 8 %override_host_status_set_93, ptr align 4 %ref.tmp86, i64 4, i1 false)
  br label %if.end94

if.end94:                                         ; preds = %invoke.cont92, %for.end
  call void @_ZNSt8optionalISt6vectorINSt7__cxx1112basic_stringIcSt11char_traitsIcESaIcEEESaIS6_EEED2Ev(ptr noundef nonnull align 8 dereferenceable(32) %host_status_list) #3
  call void @_ZN9grpc_core16ValidationErrors11ScopedFieldD2Ev(ptr noundef nonnull align 8 dereferenceable(8) %field39) #3
  ret void

ehcleanup95:                                      ; preds = %lpad76, %lpad72, %lpad54
  call void @_ZNSt8optionalISt6vectorINSt7__cxx1112basic_stringIcSt11char_traitsIcESaIcEEESaIS6_EEED2Ev(ptr noundef nonnull align 8 dereferenceable(32) %host_status_list) #3
  br label %ehcleanup96

ehcleanup96:                                      ; preds = %ehcleanup95, %lpad41
  call void @_ZN9grpc_core16ValidationErrors11ScopedFieldD2Ev(ptr noundef nonnull align 8 dereferenceable(8) %field39) #3
  br label %eh.resume

eh.resume:                                        ; preds = %ehcleanup96, %ehcleanup38
  %exn = load ptr, ptr %exn.slot, align 8
  %sel = load i32, ptr %ehselector.slot, align 4
  %lpad.val = insertvalue { ptr, i32 } poison, ptr %exn, 0
  %lpad.val97 = insertvalue { ptr, i32 } %lpad.val, i32 %sel, 1
  resume { ptr, i32 } %lpad.val97
}

; Function Attrs: mustprogress nounwind uwtable
define linkonce_odr void @_ZNSt17basic_string_viewIcSt11char_traitsIcEEC2EPKc(ptr noundef nonnull align 8 dereferenceable(16) %this, ptr noundef nonnull %__str) unnamed_addr #5 comdat align 2 personality ptr @__gxx_personality_v0 {
entry:
  %this.addr = alloca ptr, align 8
  %__str.addr = alloca ptr, align 8
  store ptr %this, ptr %this.addr, align 8
  store ptr %__str, ptr %__str.addr, align 8
  %this1 = load ptr, ptr %this.addr, align 8
  %_M_len = getelementptr inbounds %"class.std::basic_string_view", ptr %this1, i32 0, i32 0
  %0 = load ptr, ptr %__str.addr, align 8
  %call = invoke noundef i64 @_ZNSt11char_traitsIcE6lengthEPKc(ptr noundef %0)
          to label %invoke.cont unwind label %terminate.lpad

invoke.cont:                                      ; preds = %entry
  store i64 %call, ptr %_M_len, align 8
  %_M_str = getelementptr inbounds %"class.std::basic_string_view", ptr %this1, i32 0, i32 1
  %1 = load ptr, ptr %__str.addr, align 8
  store ptr %1, ptr %_M_str, align 8
  ret void

terminate.lpad:                                   ; preds = %entry
  %2 = landingpad { ptr, i32 }
          catch ptr null
  %3 = extractvalue { ptr, i32 } %2, 0
  call void @__clang_call_terminate(ptr %3) #15
  unreachable
}

; Function Attrs: mustprogress uwtable
define linkonce_odr void @_ZN9grpc_core16ValidationErrors11ScopedFieldC2EPS0_St17basic_string_viewIcSt11char_traitsIcEE(ptr noundef nonnull align 8 dereferenceable(8) %this, ptr noundef %errors, i64 %field_name.coerce0, ptr %field_name.coerce1) unnamed_addr #4 comdat align 2 {
entry:
  %field_name = alloca %"class.std::basic_string_view", align 8
  %this.addr = alloca ptr, align 8
  %errors.addr = alloca ptr, align 8
  %agg.tmp = alloca %"class.std::basic_string_view", align 8
  %0 = getelementptr inbounds { i64, ptr }, ptr %field_name, i32 0, i32 0
  store i64 %field_name.coerce0, ptr %0, align 8
  %1 = getelementptr inbounds { i64, ptr }, ptr %field_name, i32 0, i32 1
  store ptr %field_name.coerce1, ptr %1, align 8
  store ptr %this, ptr %this.addr, align 8
  store ptr %errors, ptr %errors.addr, align 8
  %this1 = load ptr, ptr %this.addr, align 8
  %errors_ = getelementptr inbounds %"class.grpc_core::ValidationErrors::ScopedField", ptr %this1, i32 0, i32 0
  %2 = load ptr, ptr %errors.addr, align 8
  store ptr %2, ptr %errors_, align 8
  %errors_2 = getelementptr inbounds %"class.grpc_core::ValidationErrors::ScopedField", ptr %this1, i32 0, i32 0
  %3 = load ptr, ptr %errors_2, align 8
  call void @llvm.memcpy.p0.p0.i64(ptr align 8 %agg.tmp, ptr align 8 %field_name, i64 16, i1 false)
  %4 = getelementptr inbounds { i64, ptr }, ptr %agg.tmp, i32 0, i32 0
  %5 = load i64, ptr %4, align 8
  %6 = getelementptr inbounds { i64, ptr }, ptr %agg.tmp, i32 0, i32 1
  %7 = load ptr, ptr %6, align 8
  call void @_ZN9grpc_core16ValidationErrors9PushFieldESt17basic_string_viewIcSt11char_traitsIcEE(ptr noundef nonnull align 8 dereferenceable(72) %3, i64 %5, ptr %7)
  ret void
}

; Function Attrs: mustprogress uwtable
define linkonce_odr noundef nonnull align 8 dereferenceable(48) ptr @_ZNK9grpc_core12experimental4Json6objectB5cxx11Ev(ptr noundef nonnull align 8 dereferenceable(56) %this) #4 comdat align 2 {
entry:
  %this.addr = alloca ptr, align 8
  store ptr %this, ptr %this.addr, align 8
  %this1 = load ptr, ptr %this.addr, align 8
  %value_ = getelementptr inbounds %"class.grpc_core::experimental::Json", ptr %this1, i32 0, i32 0
  %call = call noundef nonnull align 8 dereferenceable(48) ptr @_ZSt3getISt3mapINSt7__cxx1112basic_stringIcSt11char_traitsIcESaIcEEEN9grpc_core12experimental4JsonESt4lessIS6_ESaISt4pairIKS6_S9_EEEJSt9monostatebNS9_11NumberValueES6_SG_St6vectorIS9_SaIS9_EEEERKT_RKSt7variantIJDpT0_EE(ptr noundef nonnull align 8 dereferenceable(49) %value_)
  ret ptr %call
}

; Function Attrs: mustprogress uwtable
define linkonce_odr ptr @_ZNKSt3mapINSt7__cxx1112basic_stringIcSt11char_traitsIcESaIcEEEN9grpc_core12experimental4JsonESt4lessIS5_ESaISt4pairIKS5_S8_EEE4findERSC_(ptr noundef nonnull align 8 dereferenceable(48) %this, ptr noundef nonnull align 8 dereferenceable(32) %__x) #4 comdat align 2 {
entry:
  %retval = alloca %"struct.std::_Rb_tree_const_iterator", align 8
  %this.addr = alloca ptr, align 8
  %__x.addr = alloca ptr, align 8
  store ptr %this, ptr %this.addr, align 8
  store ptr %__x, ptr %__x.addr, align 8
  %this1 = load ptr, ptr %this.addr, align 8
  %_M_t = getelementptr inbounds %"class.std::map.65", ptr %this1, i32 0, i32 0
  %0 = load ptr, ptr %__x.addr, align 8
  %call = call ptr @_ZNKSt8_Rb_treeINSt7__cxx1112basic_stringIcSt11char_traitsIcESaIcEEESt4pairIKS5_N9grpc_core12experimental4JsonEESt10_Select1stISB_ESt4lessIS5_ESaISB_EE4findERS7_(ptr noundef nonnull align 8 dereferenceable(48) %_M_t, ptr noundef nonnull align 8 dereferenceable(32) %0)
  %coerce.dive = getelementptr inbounds %"struct.std::_Rb_tree_const_iterator", ptr %retval, i32 0, i32 0
  store ptr %call, ptr %coerce.dive, align 8
  %coerce.dive2 = getelementptr inbounds %"struct.std::_Rb_tree_const_iterator", ptr %retval, i32 0, i32 0
  %1 = load ptr, ptr %coerce.dive2, align 8
  ret ptr %1
}

; Function Attrs: nounwind
declare void @_ZNSaIcEC1Ev(ptr noundef nonnull align 1 dereferenceable(1)) unnamed_addr #2

; Function Attrs: mustprogress uwtable
define linkonce_odr void @_ZNSt7__cxx1112basic_stringIcSt11char_traitsIcESaIcEEC2IS3_EEPKcRKS3_(ptr noundef nonnull align 8 dereferenceable(32) %this, ptr noundef %__s, ptr noundef nonnull align 1 dereferenceable(1) %__a) unnamed_addr #4 comdat align 2 personality ptr @__gxx_personality_v0 {
entry:
  %this.addr = alloca ptr, align 8
  %__s.addr = alloca ptr, align 8
  %__a.addr = alloca ptr, align 8
  %exn.slot = alloca ptr, align 8
  %ehselector.slot = alloca i32, align 4
  %__end = alloca ptr, align 8
  store ptr %this, ptr %this.addr, align 8
  store ptr %__s, ptr %__s.addr, align 8
  store ptr %__a, ptr %__a.addr, align 8
  %this1 = load ptr, ptr %this.addr, align 8
  %_M_dataplus = getelementptr inbounds %"class.std::__cxx11::basic_string", ptr %this1, i32 0, i32 0
  %call = call noundef ptr @_ZNSt7__cxx1112basic_stringIcSt11char_traitsIcESaIcEE13_M_local_dataEv(ptr noundef nonnull align 8 dereferenceable(32) %this1)
  %0 = load ptr, ptr %__a.addr, align 8
  call void @_ZNSt7__cxx1112basic_stringIcSt11char_traitsIcESaIcEE12_Alloc_hiderC1EPcRKS3_(ptr noundef nonnull align 8 dereferenceable(8) %_M_dataplus, ptr noundef %call, ptr noundef nonnull align 1 dereferenceable(1) %0)
  %1 = load ptr, ptr %__s.addr, align 8
  %cmp = icmp eq ptr %1, null
  br i1 %cmp, label %if.then, label %if.end

if.then:                                          ; preds = %entry
  invoke void @_ZSt19__throw_logic_errorPKc(ptr noundef @.str.17) #17
          to label %invoke.cont unwind label %lpad

invoke.cont:                                      ; preds = %if.then
  unreachable

lpad:                                             ; preds = %if.end, %if.then
  %2 = landingpad { ptr, i32 }
          cleanup
  %3 = extractvalue { ptr, i32 } %2, 0
  store ptr %3, ptr %exn.slot, align 8
  %4 = extractvalue { ptr, i32 } %2, 1
  store i32 %4, ptr %ehselector.slot, align 4
  call void @_ZNSt7__cxx1112basic_stringIcSt11char_traitsIcESaIcEE12_Alloc_hiderD2Ev(ptr noundef nonnull align 8 dereferenceable(8) %_M_dataplus) #3
  br label %eh.resume

if.end:                                           ; preds = %entry
  %5 = load ptr, ptr %__s.addr, align 8
  %6 = load ptr, ptr %__s.addr, align 8
  %call2 = call noundef i64 @_ZNSt11char_traitsIcE6lengthEPKc(ptr noundef %6)
  %add.ptr = getelementptr inbounds i8, ptr %5, i64 %call2
  store ptr %add.ptr, ptr %__end, align 8
  %7 = load ptr, ptr %__s.addr, align 8
  %8 = load ptr, ptr %__end, align 8
  invoke void @_ZNSt7__cxx1112basic_stringIcSt11char_traitsIcESaIcEE12_M_constructIPKcEEvT_S8_St20forward_iterator_tag(ptr noundef nonnull align 8 dereferenceable(32) %this1, ptr noundef %7, ptr noundef %8)
          to label %invoke.cont3 unwind label %lpad

invoke.cont3:                                     ; preds = %if.end
  ret void

eh.resume:                                        ; preds = %lpad
  %exn = load ptr, ptr %exn.slot, align 8
  %sel = load i32, ptr %ehselector.slot, align 4
  %lpad.val = insertvalue { ptr, i32 } poison, ptr %exn, 0
  %lpad.val4 = insertvalue { ptr, i32 } %lpad.val, i32 %sel, 1
  resume { ptr, i32 } %lpad.val4
}

; Function Attrs: nounwind
declare void @_ZNSt7__cxx1112basic_stringIcSt11char_traitsIcESaIcEED1Ev(ptr noundef nonnull align 8 dereferenceable(32)) unnamed_addr #2

; Function Attrs: nounwind
declare void @_ZNSaIcED1Ev(ptr noundef nonnull align 1 dereferenceable(1)) unnamed_addr #2

; Function Attrs: mustprogress nounwind uwtable
define linkonce_odr noundef zeroext i1 @_ZSteqRKSt23_Rb_tree_const_iteratorISt4pairIKNSt7__cxx1112basic_stringIcSt11char_traitsIcESaIcEEEN9grpc_core12experimental4JsonEEESE_(ptr noundef nonnull align 8 dereferenceable(8) %__x, ptr noundef nonnull align 8 dereferenceable(8) %__y) #5 comdat {
entry:
  %__x.addr = alloca ptr, align 8
  %__y.addr = alloca ptr, align 8
  store ptr %__x, ptr %__x.addr, align 8
  store ptr %__y, ptr %__y.addr, align 8
  %0 = load ptr, ptr %__x.addr, align 8
  %_M_node = getelementptr inbounds %"struct.std::_Rb_tree_const_iterator", ptr %0, i32 0, i32 0
  %1 = load ptr, ptr %_M_node, align 8
  %2 = load ptr, ptr %__y.addr, align 8
  %_M_node1 = getelementptr inbounds %"struct.std::_Rb_tree_const_iterator", ptr %2, i32 0, i32 0
  %3 = load ptr, ptr %_M_node1, align 8
  %cmp = icmp eq ptr %1, %3
  ret i1 %cmp
}

; Function Attrs: mustprogress nounwind uwtable
define linkonce_odr ptr @_ZNKSt3mapINSt7__cxx1112basic_stringIcSt11char_traitsIcESaIcEEEN9grpc_core12experimental4JsonESt4lessIS5_ESaISt4pairIKS5_S8_EEE3endEv(ptr noundef nonnull align 8 dereferenceable(48) %this) #5 comdat align 2 {
entry:
  %retval = alloca %"struct.std::_Rb_tree_const_iterator", align 8
  %this.addr = alloca ptr, align 8
  store ptr %this, ptr %this.addr, align 8
  %this1 = load ptr, ptr %this.addr, align 8
  %_M_t = getelementptr inbounds %"class.std::map.65", ptr %this1, i32 0, i32 0
  %call = call ptr @_ZNKSt8_Rb_treeINSt7__cxx1112basic_stringIcSt11char_traitsIcESaIcEEESt4pairIKS5_N9grpc_core12experimental4JsonEESt10_Select1stISB_ESt4lessIS5_ESaISB_EE3endEv(ptr noundef nonnull align 8 dereferenceable(48) %_M_t) #3
  %coerce.dive = getelementptr inbounds %"struct.std::_Rb_tree_const_iterator", ptr %retval, i32 0, i32 0
  store ptr %call, ptr %coerce.dive, align 8
  %coerce.dive2 = getelementptr inbounds %"struct.std::_Rb_tree_const_iterator", ptr %retval, i32 0, i32 0
  %0 = load ptr, ptr %coerce.dive2, align 8
  ret ptr %0
}

declare void @_ZN9grpc_core16ValidationErrors8AddErrorESt17basic_string_viewIcSt11char_traitsIcEE(ptr noundef nonnull align 8 dereferenceable(72), i64, ptr) #1

; Function Attrs: mustprogress uwtable
define linkonce_odr noundef nonnull align 8 dereferenceable(776) ptr @_ZN9grpc_core17CoreConfiguration3GetEv() #4 comdat align 2 {
entry:
  %retval = alloca ptr, align 8
  %p = alloca ptr, align 8
  %call = call noundef ptr @_ZNKSt6atomicIPN9grpc_core17CoreConfigurationEE4loadESt12memory_order(ptr noundef nonnull align 8 dereferenceable(8) @_ZN9grpc_core17CoreConfiguration7config_E, i32 noundef 2) #3
  store ptr %call, ptr %p, align 8
  %0 = load ptr, ptr %p, align 8
  %cmp = icmp ne ptr %0, null
  br i1 %cmp, label %if.then, label %if.end

if.then:                                          ; preds = %entry
  %1 = load ptr, ptr %p, align 8
  store ptr %1, ptr %retval, align 8
  br label %return

if.end:                                           ; preds = %entry
  %call1 = call noundef nonnull align 8 dereferenceable(776) ptr @_ZN9grpc_core17CoreConfiguration19BuildNewAndMaybeSetEv()
  store ptr %call1, ptr %retval, align 8
  br label %return

return:                                           ; preds = %if.end, %if.then
  %2 = load ptr, ptr %retval, align 8
  ret ptr %2
}

; Function Attrs: mustprogress nounwind uwtable
define linkonce_odr noundef nonnull align 8 dereferenceable(48) ptr @_ZNK9grpc_core17CoreConfiguration18lb_policy_registryEv(ptr noundef nonnull align 8 dereferenceable(776) %this) #5 comdat align 2 {
entry:
  %this.addr = alloca ptr, align 8
  store ptr %this, ptr %this.addr, align 8
  %this1 = load ptr, ptr %this.addr, align 8
  %lb_policy_registry_ = getelementptr inbounds %"class.grpc_core::CoreConfiguration", ptr %this1, i32 0, i32 6
  ret ptr %lb_policy_registry_
}

declare void @_ZNK9grpc_core27LoadBalancingPolicyRegistry24ParseLoadBalancingConfigERKNS_12experimental4JsonE(ptr sret(%"class.absl::lts_20230802::StatusOr") align 8, ptr noundef nonnull align 8 dereferenceable(48), ptr noundef nonnull align 8 dereferenceable(56)) #1

; Function Attrs: mustprogress nounwind uwtable
define linkonce_odr noundef ptr @_ZNKSt23_Rb_tree_const_iteratorISt4pairIKNSt7__cxx1112basic_stringIcSt11char_traitsIcESaIcEEEN9grpc_core12experimental4JsonEEEptEv(ptr noundef nonnull align 8 dereferenceable(8) %this) #5 comdat align 2 {
entry:
  %this.addr = alloca ptr, align 8
  store ptr %this, ptr %this.addr, align 8
  %this1 = load ptr, ptr %this.addr, align 8
  %_M_node = getelementptr inbounds %"struct.std::_Rb_tree_const_iterator", ptr %this1, i32 0, i32 0
  %0 = load ptr, ptr %_M_node, align 8
  %call = call noundef ptr @_ZNKSt13_Rb_tree_nodeISt4pairIKNSt7__cxx1112basic_stringIcSt11char_traitsIcESaIcEEEN9grpc_core12experimental4JsonEEE9_M_valptrEv(ptr noundef nonnull align 8 dereferenceable(120) %0)
  ret ptr %call
}

; Function Attrs: mustprogress uwtable
define linkonce_odr noundef zeroext i1 @_ZNK4absl12lts_202308028StatusOrIN9grpc_core13RefCountedPtrINS2_19LoadBalancingPolicy6ConfigEEEE2okEv(ptr noundef nonnull align 8 dereferenceable(16) %this) #4 comdat align 2 {
entry:
  %this.addr = alloca ptr, align 8
  store ptr %this, ptr %this.addr, align 8
  %this1 = load ptr, ptr %this.addr, align 8
  %0 = getelementptr inbounds %"class.absl::lts_20230802::internal_statusor::StatusOrData", ptr %this1, i32 0, i32 0
  %call = call noundef zeroext i1 @_ZNK4absl12lts_202308026Status2okEv(ptr noundef nonnull align 8 dereferenceable(8) %0)
  ret i1 %call
}

; Function Attrs: mustprogress nounwind uwtable
define linkonce_odr noundef nonnull align 8 dereferenceable(8) ptr @_ZNKR4absl12lts_202308028StatusOrIN9grpc_core13RefCountedPtrINS2_19LoadBalancingPolicy6ConfigEEEE6statusEv(ptr noundef nonnull align 8 dereferenceable(16) %this) #5 comdat align 2 {
entry:
  %this.addr = alloca ptr, align 8
  store ptr %this, ptr %this.addr, align 8
  %this1 = load ptr, ptr %this.addr, align 8
  %0 = getelementptr inbounds %"class.absl::lts_20230802::internal_statusor::StatusOrData", ptr %this1, i32 0, i32 0
  ret ptr %0
}

; Function Attrs: mustprogress uwtable
define linkonce_odr { i64, ptr } @_ZNK4absl12lts_202308026Status7messageEv(ptr noundef nonnull align 8 dereferenceable(8) %this) #4 comdat align 2 {
entry:
  %retval = alloca %"class.std::basic_string_view", align 8
  %this.addr = alloca ptr, align 8
  store ptr %this, ptr %this.addr, align 8
  %this1 = load ptr, ptr %this.addr, align 8
  %rep_ = getelementptr inbounds %"class.absl::lts_20230802::Status", ptr %this1, i32 0, i32 0
  %0 = load i64, ptr %rep_, align 8
  %call = call noundef zeroext i1 @_ZN4absl12lts_202308026Status9IsInlinedEm(i64 noundef %0)
  br i1 %call, label %cond.false, label %cond.true

cond.true:                                        ; preds = %entry
  %rep_2 = getelementptr inbounds %"class.absl::lts_20230802::Status", ptr %this1, i32 0, i32 0
  %1 = load i64, ptr %rep_2, align 8
  %call3 = call noundef ptr @_ZN4absl12lts_202308026Status12RepToPointerEm(i64 noundef %1)
  %message = getelementptr inbounds %"struct.absl::lts_20230802::status_internal::StatusRep", ptr %call3, i32 0, i32 2
  %call4 = call { i64, ptr } @_ZNKSt7__cxx1112basic_stringIcSt11char_traitsIcESaIcEEcvSt17basic_string_viewIcS2_EEv(ptr noundef nonnull align 8 dereferenceable(32) %message) #3
  %2 = getelementptr inbounds { i64, ptr }, ptr %retval, i32 0, i32 0
  %3 = extractvalue { i64, ptr } %call4, 0
  store i64 %3, ptr %2, align 8
  %4 = getelementptr inbounds { i64, ptr }, ptr %retval, i32 0, i32 1
  %5 = extractvalue { i64, ptr } %call4, 1
  store ptr %5, ptr %4, align 8
  br label %cond.end9

cond.false:                                       ; preds = %entry
  %rep_5 = getelementptr inbounds %"class.absl::lts_20230802::Status", ptr %this1, i32 0, i32 0
  %6 = load i64, ptr %rep_5, align 8
  %call6 = call noundef zeroext i1 @_ZN4absl12lts_202308026Status11IsMovedFromEm(i64 noundef %6)
  br i1 %call6, label %cond.true7, label %cond.false8

cond.true7:                                       ; preds = %cond.false
  call void @_ZNSt17basic_string_viewIcSt11char_traitsIcEEC2EPKc(ptr noundef nonnull align 8 dereferenceable(16) %retval, ptr noundef @_ZN4absl12lts_202308026Status16kMovedFromStringE) #3
  br label %cond.end

cond.false8:                                      ; preds = %cond.false
  call void @_ZNSt17basic_string_viewIcSt11char_traitsIcEEC2Ev(ptr noundef nonnull align 8 dereferenceable(16) %retval) #3
  br label %cond.end

cond.end:                                         ; preds = %cond.false8, %cond.true7
  br label %cond.end9

cond.end9:                                        ; preds = %cond.end, %cond.true
  %7 = load { i64, ptr }, ptr %retval, align 8
  ret { i64, ptr } %7
}

; Function Attrs: mustprogress uwtable
define linkonce_odr noundef nonnull align 8 dereferenceable(8) ptr @_ZNR4absl12lts_202308028StatusOrIN9grpc_core13RefCountedPtrINS2_19LoadBalancingPolicy6ConfigEEEEdeEv(ptr noundef nonnull align 8 dereferenceable(16) %this) #4 comdat align 2 {
entry:
  %this.addr = alloca ptr, align 8
  store ptr %this, ptr %this.addr, align 8
  %this1 = load ptr, ptr %this.addr, align 8
  call void @_ZNK4absl12lts_2023080217internal_statusor12StatusOrDataIN9grpc_core13RefCountedPtrINS3_19LoadBalancingPolicy6ConfigEEEE8EnsureOkEv(ptr noundef nonnull align 8 dereferenceable(16) %this1)
  %0 = getelementptr inbounds %"class.absl::lts_20230802::internal_statusor::StatusOrData", ptr %this1, i32 0, i32 1
  ret ptr %0
}

; Function Attrs: mustprogress nounwind uwtable
define linkonce_odr noundef nonnull align 8 dereferenceable(8) ptr @_ZN9grpc_core13RefCountedPtrINS_19LoadBalancingPolicy6ConfigEEaSEOS3_(ptr noundef nonnull align 8 dereferenceable(8) %this, ptr noundef nonnull align 8 dereferenceable(8) %other) #5 comdat align 2 personality ptr @__gxx_personality_v0 {
entry:
  %this.addr = alloca ptr, align 8
  %other.addr = alloca ptr, align 8
  %ref.tmp = alloca ptr, align 8
  store ptr %this, ptr %this.addr, align 8
  store ptr %other, ptr %other.addr, align 8
  %this1 = load ptr, ptr %this.addr, align 8
  %0 = load ptr, ptr %other.addr, align 8
  %value_ = getelementptr inbounds %"class.grpc_core::RefCountedPtr", ptr %0, i32 0, i32 0
  store ptr null, ptr %ref.tmp, align 8
  %call = call noundef ptr @_ZSt8exchangeIPN9grpc_core19LoadBalancingPolicy6ConfigEDnET_RS4_OT0_(ptr noundef nonnull align 8 dereferenceable(8) %value_, ptr noundef nonnull align 8 dereferenceable(8) %ref.tmp) #3
  invoke void @_ZN9grpc_core13RefCountedPtrINS_19LoadBalancingPolicy6ConfigEE5resetEPS2_(ptr noundef nonnull align 8 dereferenceable(8) %this1, ptr noundef %call)
          to label %invoke.cont unwind label %terminate.lpad

invoke.cont:                                      ; preds = %entry
  ret ptr %this1

terminate.lpad:                                   ; preds = %entry
  %1 = landingpad { ptr, i32 }
          catch ptr null
  %2 = extractvalue { ptr, i32 } %1, 0
  call void @__clang_call_terminate(ptr %2) #15
  unreachable
}

; Function Attrs: mustprogress nounwind uwtable
define linkonce_odr void @_ZN4absl12lts_202308028StatusOrIN9grpc_core13RefCountedPtrINS2_19LoadBalancingPolicy6ConfigEEEED2Ev(ptr noundef nonnull align 8 dereferenceable(16) %this) unnamed_addr #5 comdat align 2 {
entry:
  %this.addr = alloca ptr, align 8
  store ptr %this, ptr %this.addr, align 8
  %this1 = load ptr, ptr %this.addr, align 8
  call void @_ZN4absl12lts_2023080217internal_statusor12StatusOrDataIN9grpc_core13RefCountedPtrINS3_19LoadBalancingPolicy6ConfigEEEED2Ev(ptr noundef nonnull align 8 dereferenceable(16) %this1) #3
  ret void
}

; Function Attrs: mustprogress nounwind uwtable
define linkonce_odr void @_ZN9grpc_core16ValidationErrors11ScopedFieldD2Ev(ptr noundef nonnull align 8 dereferenceable(8) %this) unnamed_addr #5 comdat align 2 personality ptr @__gxx_personality_v0 {
entry:
  %this.addr = alloca ptr, align 8
  store ptr %this, ptr %this.addr, align 8
  %this1 = load ptr, ptr %this.addr, align 8
  %errors_ = getelementptr inbounds %"class.grpc_core::ValidationErrors::ScopedField", ptr %this1, i32 0, i32 0
  %0 = load ptr, ptr %errors_, align 8
  %cmp = icmp ne ptr %0, null
  br i1 %cmp, label %if.then, label %if.end

if.then:                                          ; preds = %entry
  %errors_2 = getelementptr inbounds %"class.grpc_core::ValidationErrors::ScopedField", ptr %this1, i32 0, i32 0
  %1 = load ptr, ptr %errors_2, align 8
  invoke void @_ZN9grpc_core16ValidationErrors8PopFieldEv(ptr noundef nonnull align 8 dereferenceable(72) %1)
          to label %invoke.cont unwind label %terminate.lpad

invoke.cont:                                      ; preds = %if.then
  br label %if.end

if.end:                                           ; preds = %invoke.cont, %entry
  ret void

terminate.lpad:                                   ; preds = %if.then
  %2 = landingpad { ptr, i32 }
          catch ptr null
  %3 = extractvalue { ptr, i32 } %2, 0
  call void @__clang_call_terminate(ptr %3) #15
  unreachable
}

; Function Attrs: mustprogress uwtable
define linkonce_odr void @_ZN9grpc_core19LoadJsonObjectFieldISt6vectorINSt7__cxx1112basic_stringIcSt11char_traitsIcESaIcEEESaIS7_EEEESt8optionalIT_ERKSt3mapIS7_NS_12experimental4JsonESt4lessIS7_ESaISt4pairIKS7_SF_EEERKNS_8JsonArgsESt17basic_string_viewIcS5_EPNS_16ValidationErrorsEb(ptr noalias sret(%"class.std::optional") align 8 %agg.result, ptr noundef nonnull align 8 dereferenceable(48) %json, ptr noundef nonnull align 8 dereferenceable(8) %args, i64 %field.coerce0, ptr %field.coerce1, ptr noundef %errors, i1 noundef zeroext %required) #4 comdat personality ptr @__gxx_personality_v0 {
entry:
  %result.ptr = alloca ptr, align 8
  %field = alloca %"class.std::basic_string_view", align 8
  %json.addr = alloca ptr, align 8
  %args.addr = alloca ptr, align 8
  %errors.addr = alloca ptr, align 8
  %required.addr = alloca i8, align 1
  %error_field = alloca %"class.grpc_core::ValidationErrors::ScopedField", align 8
  %agg.tmp = alloca %"class.std::basic_string_view", align 8
  %ref.tmp = alloca %"class.std::__cxx11::basic_string", align 8
  %ref.tmp1 = alloca %"class.absl::lts_20230802::AlphaNum", align 8
  %ref.tmp2 = alloca %"class.absl::lts_20230802::AlphaNum", align 8
  %agg.tmp3 = alloca %"class.std::basic_string_view", align 8
  %exn.slot = alloca ptr, align 8
  %ehselector.slot = alloca i32, align 4
  %field_json = alloca ptr, align 8
  %agg.tmp4 = alloca %"class.std::basic_string_view", align 8
  %cleanup.dest.slot = alloca i32, align 4
  %result = alloca %"class.std::vector.78", align 8
  %starting_error_size = alloca i64, align 8
  store ptr %agg.result, ptr %result.ptr, align 8
  %0 = getelementptr inbounds { i64, ptr }, ptr %field, i32 0, i32 0
  store i64 %field.coerce0, ptr %0, align 8
  %1 = getelementptr inbounds { i64, ptr }, ptr %field, i32 0, i32 1
  store ptr %field.coerce1, ptr %1, align 8
  store ptr %json, ptr %json.addr, align 8
  store ptr %args, ptr %args.addr, align 8
  store ptr %errors, ptr %errors.addr, align 8
  %frombool = zext i1 %required to i8
  store i8 %frombool, ptr %required.addr, align 1
  %2 = load ptr, ptr %errors.addr, align 8
  call void @_ZN4absl12lts_202308028AlphaNumC2EPKc(ptr noundef nonnull align 8 dereferenceable(48) %ref.tmp1, ptr noundef @.str.57)
  call void @llvm.memcpy.p0.p0.i64(ptr align 8 %agg.tmp3, ptr align 8 %field, i64 16, i1 false)
  %3 = getelementptr inbounds { i64, ptr }, ptr %agg.tmp3, i32 0, i32 0
  %4 = load i64, ptr %3, align 8
  %5 = getelementptr inbounds { i64, ptr }, ptr %agg.tmp3, i32 0, i32 1
  %6 = load ptr, ptr %5, align 8
  call void @_ZN4absl12lts_202308028AlphaNumC2ESt17basic_string_viewIcSt11char_traitsIcEE(ptr noundef nonnull align 8 dereferenceable(48) %ref.tmp2, i64 %4, ptr %6)
  call void @_ZN4absl12lts_202308026StrCatB5cxx11ERKNS0_8AlphaNumES3_(ptr sret(%"class.std::__cxx11::basic_string") align 8 %ref.tmp, ptr noundef nonnull align 8 dereferenceable(48) %ref.tmp1, ptr noundef nonnull align 8 dereferenceable(48) %ref.tmp2)
  %call = call { i64, ptr } @_ZNKSt7__cxx1112basic_stringIcSt11char_traitsIcESaIcEEcvSt17basic_string_viewIcS2_EEv(ptr noundef nonnull align 8 dereferenceable(32) %ref.tmp) #3
  %7 = getelementptr inbounds { i64, ptr }, ptr %agg.tmp, i32 0, i32 0
  %8 = extractvalue { i64, ptr } %call, 0
  store i64 %8, ptr %7, align 8
  %9 = getelementptr inbounds { i64, ptr }, ptr %agg.tmp, i32 0, i32 1
  %10 = extractvalue { i64, ptr } %call, 1
  store ptr %10, ptr %9, align 8
  %11 = getelementptr inbounds { i64, ptr }, ptr %agg.tmp, i32 0, i32 0
  %12 = load i64, ptr %11, align 8
  %13 = getelementptr inbounds { i64, ptr }, ptr %agg.tmp, i32 0, i32 1
  %14 = load ptr, ptr %13, align 8
  invoke void @_ZN9grpc_core16ValidationErrors11ScopedFieldC2EPS0_St17basic_string_viewIcSt11char_traitsIcEE(ptr noundef nonnull align 8 dereferenceable(8) %error_field, ptr noundef %2, i64 %12, ptr %14)
          to label %invoke.cont unwind label %lpad

invoke.cont:                                      ; preds = %entry
  call void @_ZNSt7__cxx1112basic_stringIcSt11char_traitsIcESaIcEED1Ev(ptr noundef nonnull align 8 dereferenceable(32) %ref.tmp) #3
  %15 = load ptr, ptr %json.addr, align 8
  call void @llvm.memcpy.p0.p0.i64(ptr align 8 %agg.tmp4, ptr align 8 %field, i64 16, i1 false)
  %16 = load ptr, ptr %errors.addr, align 8
  %17 = load i8, ptr %required.addr, align 1
  %tobool = trunc i8 %17 to i1
  %18 = getelementptr inbounds { i64, ptr }, ptr %agg.tmp4, i32 0, i32 0
  %19 = load i64, ptr %18, align 8
  %20 = getelementptr inbounds { i64, ptr }, ptr %agg.tmp4, i32 0, i32 1
  %21 = load ptr, ptr %20, align 8
  %call7 = invoke noundef ptr @_ZN9grpc_core11json_detail18GetJsonObjectFieldERKSt3mapINSt7__cxx1112basic_stringIcSt11char_traitsIcESaIcEEENS_12experimental4JsonESt4lessIS7_ESaISt4pairIKS7_S9_EEESt17basic_string_viewIcS5_EPNS_16ValidationErrorsEb(ptr noundef nonnull align 8 dereferenceable(48) %15, i64 %19, ptr %21, ptr noundef %16, i1 noundef zeroext %tobool)
          to label %invoke.cont6 unwind label %lpad5

invoke.cont6:                                     ; preds = %invoke.cont
  store ptr %call7, ptr %field_json, align 8
  %22 = load ptr, ptr %field_json, align 8
  %cmp = icmp eq ptr %22, null
  br i1 %cmp, label %if.then, label %if.end

if.then:                                          ; preds = %invoke.cont6
  call void @_ZNSt8optionalISt6vectorINSt7__cxx1112basic_stringIcSt11char_traitsIcESaIcEEESaIS6_EEEC2ESt9nullopt_t(ptr noundef nonnull align 8 dereferenceable(32) %agg.result) #3
  store i32 1, ptr %cleanup.dest.slot, align 4
  br label %cleanup21

lpad:                                             ; preds = %entry
  %23 = landingpad { ptr, i32 }
          cleanup
  %24 = extractvalue { ptr, i32 } %23, 0
  store ptr %24, ptr %exn.slot, align 8
  %25 = extractvalue { ptr, i32 } %23, 1
  store i32 %25, ptr %ehselector.slot, align 4
  call void @_ZNSt7__cxx1112basic_stringIcSt11char_traitsIcESaIcEED1Ev(ptr noundef nonnull align 8 dereferenceable(32) %ref.tmp) #3
  br label %eh.resume

lpad5:                                            ; preds = %invoke.cont
  %26 = landingpad { ptr, i32 }
          cleanup
  %27 = extractvalue { ptr, i32 } %26, 0
  store ptr %27, ptr %exn.slot, align 8
  %28 = extractvalue { ptr, i32 } %26, 1
  store i32 %28, ptr %ehselector.slot, align 4
  br label %ehcleanup

if.end:                                           ; preds = %invoke.cont6
  call void @llvm.memset.p0.i64(ptr align 8 %result, i8 0, i64 24, i1 false)
  call void @_ZNSt6vectorINSt7__cxx1112basic_stringIcSt11char_traitsIcESaIcEEESaIS5_EEC2Ev(ptr noundef nonnull align 8 dereferenceable(24) %result) #3
  %29 = load ptr, ptr %errors.addr, align 8
  %call11 = invoke noundef i64 @_ZNK9grpc_core16ValidationErrors4sizeEv(ptr noundef nonnull align 8 dereferenceable(72) %29)
          to label %invoke.cont10 unwind label %lpad9

invoke.cont10:                                    ; preds = %if.end
  store i64 %call11, ptr %starting_error_size, align 8
  %call13 = invoke noundef ptr @_ZN9grpc_core11json_detail13LoaderForTypeISt6vectorINSt7__cxx1112basic_stringIcSt11char_traitsIcESaIcEEESaIS8_EEEEPKNS0_15LoaderInterfaceEv()
          to label %invoke.cont12 unwind label %lpad9

invoke.cont12:                                    ; preds = %invoke.cont10
  %30 = load ptr, ptr %field_json, align 8
  %31 = load ptr, ptr %args.addr, align 8
  %32 = load ptr, ptr %errors.addr, align 8
  %vtable = load ptr, ptr %call13, align 8
  %vfn = getelementptr inbounds ptr, ptr %vtable, i64 0
  %33 = load ptr, ptr %vfn, align 8
  invoke void %33(ptr noundef nonnull align 8 dereferenceable(8) %call13, ptr noundef nonnull align 8 dereferenceable(56) %30, ptr noundef nonnull align 8 dereferenceable(8) %31, ptr noundef %result, ptr noundef %32)
          to label %invoke.cont14 unwind label %lpad9

invoke.cont14:                                    ; preds = %invoke.cont12
  %34 = load ptr, ptr %errors.addr, align 8
  %call16 = invoke noundef i64 @_ZNK9grpc_core16ValidationErrors4sizeEv(ptr noundef nonnull align 8 dereferenceable(72) %34)
          to label %invoke.cont15 unwind label %lpad9

invoke.cont15:                                    ; preds = %invoke.cont14
  %35 = load i64, ptr %starting_error_size, align 8
  %cmp17 = icmp ugt i64 %call16, %35
  br i1 %cmp17, label %if.then18, label %if.end20

if.then18:                                        ; preds = %invoke.cont15
  call void @_ZNSt8optionalISt6vectorINSt7__cxx1112basic_stringIcSt11char_traitsIcESaIcEEESaIS6_EEEC2ESt9nullopt_t(ptr noundef nonnull align 8 dereferenceable(32) %agg.result) #3
  store i32 1, ptr %cleanup.dest.slot, align 4
  br label %cleanup

lpad9:                                            ; preds = %invoke.cont14, %invoke.cont12, %invoke.cont10, %if.end
  %36 = landingpad { ptr, i32 }
          cleanup
  %37 = extractvalue { ptr, i32 } %36, 0
  store ptr %37, ptr %exn.slot, align 8
  %38 = extractvalue { ptr, i32 } %36, 1
  store i32 %38, ptr %ehselector.slot, align 4
  call void @_ZNSt6vectorINSt7__cxx1112basic_stringIcSt11char_traitsIcESaIcEEESaIS5_EED2Ev(ptr noundef nonnull align 8 dereferenceable(24) %result) #3
  br label %ehcleanup

if.end20:                                         ; preds = %invoke.cont15
  call void @_ZNSt8optionalISt6vectorINSt7__cxx1112basic_stringIcSt11char_traitsIcESaIcEEESaIS6_EEEC2IS8_TnNSt9enable_ifIX7__and_vISt6__not_ISt7is_sameIS9_NSt9remove_cvINSt16remove_referenceIT_E4typeEE4typeEEESC_ISD_ISt10in_place_tSK_EESt16is_constructibleIS8_JSG_EESt14is_convertibleISG_S8_EEEbE4typeELb1EEEOSG_(ptr noundef nonnull align 8 dereferenceable(32) %agg.result, ptr noundef nonnull align 8 dereferenceable(24) %result) #3
  store i32 1, ptr %cleanup.dest.slot, align 4
  br label %cleanup

cleanup:                                          ; preds = %if.end20, %if.then18
  call void @_ZNSt6vectorINSt7__cxx1112basic_stringIcSt11char_traitsIcESaIcEEESaIS5_EED2Ev(ptr noundef nonnull align 8 dereferenceable(24) %result) #3
  br label %cleanup21

cleanup21:                                        ; preds = %cleanup, %if.then
  call void @_ZN9grpc_core16ValidationErrors11ScopedFieldD2Ev(ptr noundef nonnull align 8 dereferenceable(8) %error_field) #3
  ret void

ehcleanup:                                        ; preds = %lpad9, %lpad5
  call void @_ZN9grpc_core16ValidationErrors11ScopedFieldD2Ev(ptr noundef nonnull align 8 dereferenceable(8) %error_field) #3
  br label %eh.resume

eh.resume:                                        ; preds = %ehcleanup, %lpad
  %exn = load ptr, ptr %exn.slot, align 8
  %sel = load i32, ptr %ehselector.slot, align 4
  %lpad.val = insertvalue { ptr, i32 } poison, ptr %exn, 0
  %lpad.val22 = insertvalue { ptr, i32 } %lpad.val, i32 %sel, 1
  resume { ptr, i32 } %lpad.val22
}

; Function Attrs: mustprogress nounwind uwtable
define linkonce_odr noundef zeroext i1 @_ZNKSt8optionalISt6vectorINSt7__cxx1112basic_stringIcSt11char_traitsIcESaIcEEESaIS6_EEE9has_valueEv(ptr noundef nonnull align 8 dereferenceable(32) %this) #5 comdat align 2 {
entry:
  %this.addr = alloca ptr, align 8
  store ptr %this, ptr %this.addr, align 8
  %this1 = load ptr, ptr %this.addr, align 8
  %call = call noundef zeroext i1 @_ZNKSt19_Optional_base_implISt6vectorINSt7__cxx1112basic_stringIcSt11char_traitsIcESaIcEEESaIS6_EESt14_Optional_baseIS8_Lb0ELb0EEE13_M_is_engagedEv(ptr noundef nonnull align 1 dereferenceable(1) %this1) #3
  ret i1 %call
}

; Function Attrs: mustprogress nounwind uwtable
define linkonce_odr noundef ptr @_ZNSt8optionalISt6vectorINSt7__cxx1112basic_stringIcSt11char_traitsIcESaIcEEESaIS6_EEEptEv(ptr noundef nonnull align 8 dereferenceable(32) %this) #5 comdat align 2 {
entry:
  %this.addr = alloca ptr, align 8
  store ptr %this, ptr %this.addr, align 8
  %this1 = load ptr, ptr %this.addr, align 8
  %call = call noundef nonnull align 8 dereferenceable(24) ptr @_ZNSt19_Optional_base_implISt6vectorINSt7__cxx1112basic_stringIcSt11char_traitsIcESaIcEEESaIS6_EESt14_Optional_baseIS8_Lb0ELb0EEE6_M_getEv(ptr noundef nonnull align 1 dereferenceable(1) %this1) #3
  ret ptr %call
}

; Function Attrs: mustprogress nounwind uwtable
define linkonce_odr noundef i64 @_ZNKSt6vectorINSt7__cxx1112basic_stringIcSt11char_traitsIcESaIcEEESaIS5_EE4sizeEv(ptr noundef nonnull align 8 dereferenceable(24) %this) #5 comdat align 2 {
entry:
  %this.addr = alloca ptr, align 8
  store ptr %this, ptr %this.addr, align 8
  %this1 = load ptr, ptr %this.addr, align 8
  %_M_impl = getelementptr inbounds %"struct.std::_Vector_base.79", ptr %this1, i32 0, i32 0
  %_M_finish = getelementptr inbounds %"struct.std::_Vector_base<std::__cxx11::basic_string<char>, std::allocator<std::__cxx11::basic_string<char>>>::_Vector_impl_data", ptr %_M_impl, i32 0, i32 1
  %0 = load ptr, ptr %_M_finish, align 8
  %_M_impl2 = getelementptr inbounds %"struct.std::_Vector_base.79", ptr %this1, i32 0, i32 0
  %_M_start = getelementptr inbounds %"struct.std::_Vector_base<std::__cxx11::basic_string<char>, std::allocator<std::__cxx11::basic_string<char>>>::_Vector_impl_data", ptr %_M_impl2, i32 0, i32 0
  %1 = load ptr, ptr %_M_start, align 8
  %sub.ptr.lhs.cast = ptrtoint ptr %0 to i64
  %sub.ptr.rhs.cast = ptrtoint ptr %1 to i64
  %sub.ptr.sub = sub i64 %sub.ptr.lhs.cast, %sub.ptr.rhs.cast
  %sub.ptr.div = sdiv exact i64 %sub.ptr.sub, 32
  ret i64 %sub.ptr.div
}

; Function Attrs: mustprogress nounwind uwtable
define linkonce_odr noundef nonnull align 8 dereferenceable(24) ptr @_ZNRSt8optionalISt6vectorINSt7__cxx1112basic_stringIcSt11char_traitsIcESaIcEEESaIS6_EEEdeEv(ptr noundef nonnull align 8 dereferenceable(32) %this) #5 comdat align 2 {
entry:
  %this.addr = alloca ptr, align 8
  store ptr %this, ptr %this.addr, align 8
  %this1 = load ptr, ptr %this.addr, align 8
  %call = call noundef nonnull align 8 dereferenceable(24) ptr @_ZNSt19_Optional_base_implISt6vectorINSt7__cxx1112basic_stringIcSt11char_traitsIcESaIcEEESaIS6_EESt14_Optional_baseIS8_Lb0ELb0EEE6_M_getEv(ptr noundef nonnull align 1 dereferenceable(1) %this1) #3
  ret ptr %call
}

; Function Attrs: mustprogress nounwind uwtable
define linkonce_odr noundef nonnull align 8 dereferenceable(32) ptr @_ZNSt6vectorINSt7__cxx1112basic_stringIcSt11char_traitsIcESaIcEEESaIS5_EEixEm(ptr noundef nonnull align 8 dereferenceable(24) %this, i64 noundef %__n) #5 comdat align 2 {
entry:
  %this.addr = alloca ptr, align 8
  %__n.addr = alloca i64, align 8
  store ptr %this, ptr %this.addr, align 8
  store i64 %__n, ptr %__n.addr, align 8
  %this1 = load ptr, ptr %this.addr, align 8
  %_M_impl = getelementptr inbounds %"struct.std::_Vector_base.79", ptr %this1, i32 0, i32 0
  %_M_start = getelementptr inbounds %"struct.std::_Vector_base<std::__cxx11::basic_string<char>, std::allocator<std::__cxx11::basic_string<char>>>::_Vector_impl_data", ptr %_M_impl, i32 0, i32 0
  %0 = load ptr, ptr %_M_start, align 8
  %1 = load i64, ptr %__n.addr, align 8
  %add.ptr = getelementptr inbounds %"class.std::__cxx11::basic_string", ptr %0, i64 %1
  ret ptr %add.ptr
}

declare i64 @_ZN9grpc_core15XdsHealthStatus10FromStringESt17basic_string_viewIcSt11char_traitsIcEE(i64, ptr) #1

; Function Attrs: nounwind
declare { i64, ptr } @_ZNKSt7__cxx1112basic_stringIcSt11char_traitsIcESaIcEEcvSt17basic_string_viewIcS2_EEv(ptr noundef nonnull align 8 dereferenceable(32)) #2

; Function Attrs: mustprogress nounwind uwtable
define linkonce_odr noundef zeroext i1 @_ZNKSt8optionalIN9grpc_core15XdsHealthStatusEE9has_valueEv(ptr noundef nonnull align 4 dereferenceable(8) %this) #5 comdat align 2 {
entry:
  %this.addr = alloca ptr, align 8
  store ptr %this, ptr %this.addr, align 8
  %this1 = load ptr, ptr %this.addr, align 8
  %call = call noundef zeroext i1 @_ZNKSt19_Optional_base_implIN9grpc_core15XdsHealthStatusESt14_Optional_baseIS1_Lb1ELb1EEE13_M_is_engagedEv(ptr noundef nonnull align 1 dereferenceable(1) %this1) #3
  ret i1 %call
}

declare void @_ZN4absl12lts_202308026StrCatB5cxx11ERKNS0_8AlphaNumES3_S3_(ptr sret(%"class.std::__cxx11::basic_string") align 8, ptr noundef nonnull align 8 dereferenceable(48), ptr noundef nonnull align 8 dereferenceable(48), ptr noundef nonnull align 8 dereferenceable(48)) #1

; Function Attrs: mustprogress uwtable
define linkonce_odr void @_ZN4absl12lts_202308028AlphaNumC2EPKc(ptr noundef nonnull align 8 dereferenceable(48) %this, ptr noundef %c_str) unnamed_addr #4 comdat align 2 {
entry:
  %this.addr = alloca ptr, align 8
  %c_str.addr = alloca ptr, align 8
  store ptr %this, ptr %this.addr, align 8
  store ptr %c_str, ptr %c_str.addr, align 8
  %this1 = load ptr, ptr %this.addr, align 8
  %piece_ = getelementptr inbounds %"class.absl::lts_20230802::AlphaNum", ptr %this1, i32 0, i32 0
  %0 = load ptr, ptr %c_str.addr, align 8
  %call = call { i64, ptr } @_ZN4absl12lts_2023080218NullSafeStringViewEPKc(ptr noundef %0)
  %1 = getelementptr inbounds { i64, ptr }, ptr %piece_, i32 0, i32 0
  %2 = extractvalue { i64, ptr } %call, 0
  store i64 %2, ptr %1, align 8
  %3 = getelementptr inbounds { i64, ptr }, ptr %piece_, i32 0, i32 1
  %4 = extractvalue { i64, ptr } %call, 1
  store ptr %4, ptr %3, align 8
  ret void
}

; Function Attrs: mustprogress uwtable
define linkonce_odr void @_ZN4absl12lts_202308028AlphaNumC2Em(ptr noundef nonnull align 8 dereferenceable(48) %this, i64 noundef %x) unnamed_addr #4 comdat align 2 {
entry:
  %this.addr = alloca ptr, align 8
  %x.addr = alloca i64, align 8
  store ptr %this, ptr %this.addr, align 8
  store i64 %x, ptr %x.addr, align 8
  %this1 = load ptr, ptr %this.addr, align 8
  %piece_ = getelementptr inbounds %"class.absl::lts_20230802::AlphaNum", ptr %this1, i32 0, i32 0
  %digits_ = getelementptr inbounds %"class.absl::lts_20230802::AlphaNum", ptr %this1, i32 0, i32 1
  %arraydecay = getelementptr inbounds [32 x i8], ptr %digits_, i64 0, i64 0
  %0 = load i64, ptr %x.addr, align 8
  %digits_2 = getelementptr inbounds %"class.absl::lts_20230802::AlphaNum", ptr %this1, i32 0, i32 1
  %arraydecay3 = getelementptr inbounds [32 x i8], ptr %digits_2, i64 0, i64 0
  %call = call noundef ptr @_ZN4absl12lts_2023080216numbers_internal15FastIntToBufferEmPc(i64 noundef %0, ptr noundef %arraydecay3)
  %digits_4 = getelementptr inbounds %"class.absl::lts_20230802::AlphaNum", ptr %this1, i32 0, i32 1
  %arrayidx = getelementptr inbounds [32 x i8], ptr %digits_4, i64 0, i64 0
  %sub.ptr.lhs.cast = ptrtoint ptr %call to i64
  %sub.ptr.rhs.cast = ptrtoint ptr %arrayidx to i64
  %sub.ptr.sub = sub i64 %sub.ptr.lhs.cast, %sub.ptr.rhs.cast
  call void @_ZNSt17basic_string_viewIcSt11char_traitsIcEEC2EPKcm(ptr noundef nonnull align 8 dereferenceable(16) %piece_, ptr noundef %arraydecay, i64 noundef %sub.ptr.sub) #3
  ret void
}

; Function Attrs: mustprogress uwtable
define linkonce_odr void @_ZN9grpc_core18XdsHealthStatusSet3AddENS_15XdsHealthStatusE(ptr noundef nonnull align 4 dereferenceable(4) %this, i32 %status.coerce) #4 comdat align 2 {
entry:
  %status = alloca %"class.grpc_core::XdsHealthStatus", align 4
  %this.addr = alloca ptr, align 8
  %coerce.dive = getelementptr inbounds %"class.grpc_core::XdsHealthStatus", ptr %status, i32 0, i32 0
  store i32 %status.coerce, ptr %coerce.dive, align 4
  store ptr %this, ptr %this.addr, align 8
  %this1 = load ptr, ptr %this.addr, align 8
  %call = call noundef i32 @_ZNK9grpc_core15XdsHealthStatus6statusEv(ptr noundef nonnull align 4 dereferenceable(4) %status)
  %shl = shl i32 1, %call
  %status_mask_ = getelementptr inbounds %"class.grpc_core::XdsHealthStatusSet", ptr %this1, i32 0, i32 0
  %0 = load i32, ptr %status_mask_, align 4
  %or = or i32 %0, %shl
  store i32 %or, ptr %status_mask_, align 4
  ret void
}

; Function Attrs: mustprogress nounwind uwtable
define linkonce_odr noundef nonnull align 4 dereferenceable(4) ptr @_ZNRSt8optionalIN9grpc_core15XdsHealthStatusEEdeEv(ptr noundef nonnull align 4 dereferenceable(8) %this) #5 comdat align 2 {
entry:
  %this.addr = alloca ptr, align 8
  store ptr %this, ptr %this.addr, align 8
  %this1 = load ptr, ptr %this.addr, align 8
  %call = call noundef nonnull align 4 dereferenceable(4) ptr @_ZNSt19_Optional_base_implIN9grpc_core15XdsHealthStatusESt14_Optional_baseIS1_Lb1ELb1EEE6_M_getEv(ptr noundef nonnull align 1 dereferenceable(1) %this1) #3
  ret ptr %call
}

; Function Attrs: nocallback nofree nounwind willreturn memory(argmem: readwrite)
declare void @llvm.memcpy.p0.p0.i64(ptr noalias nocapture writeonly, ptr noalias nocapture readonly, i64, i1 immarg) #6

; Function Attrs: mustprogress nounwind uwtable
define linkonce_odr void @_ZN9grpc_core15XdsHealthStatusC2ENS0_12HealthStatusE(ptr noundef nonnull align 4 dereferenceable(4) %this, i32 noundef %status) unnamed_addr #5 comdat align 2 {
entry:
  %this.addr = alloca ptr, align 8
  %status.addr = alloca i32, align 4
  store ptr %this, ptr %this.addr, align 8
  store i32 %status, ptr %status.addr, align 4
  %this1 = load ptr, ptr %this.addr, align 8
  %status_ = getelementptr inbounds %"class.grpc_core::XdsHealthStatus", ptr %this1, i32 0, i32 0
  %0 = load i32, ptr %status.addr, align 4
  store i32 %0, ptr %status_, align 4
  ret void
}

; Function Attrs: mustprogress nounwind uwtable
define linkonce_odr void @_ZN4absl12lts_202308024SpanIKN9grpc_core15XdsHealthStatusEEC2IS4_S4_EESt16initializer_listIS3_E(ptr noundef nonnull align 8 dereferenceable(16) %this, ptr %v.coerce0, i64 %v.coerce1) unnamed_addr #5 comdat align 2 {
entry:
  %v = alloca %"class.std::initializer_list", align 8
  %this.addr = alloca ptr, align 8
  %0 = getelementptr inbounds { ptr, i64 }, ptr %v, i32 0, i32 0
  store ptr %v.coerce0, ptr %0, align 8
  %1 = getelementptr inbounds { ptr, i64 }, ptr %v, i32 0, i32 1
  store i64 %v.coerce1, ptr %1, align 8
  store ptr %this, ptr %this.addr, align 8
  %this1 = load ptr, ptr %this.addr, align 8
  %call = call noundef ptr @_ZNKSt16initializer_listIN9grpc_core15XdsHealthStatusEE5beginEv(ptr noundef nonnull align 8 dereferenceable(16) %v) #3
  %call2 = call noundef i64 @_ZNKSt16initializer_listIN9grpc_core15XdsHealthStatusEE4sizeEv(ptr noundef nonnull align 8 dereferenceable(16) %v) #3
  call void @_ZN4absl12lts_202308024SpanIKN9grpc_core15XdsHealthStatusEEC2EPS4_m(ptr noundef nonnull align 8 dereferenceable(16) %this1, ptr noundef %call, i64 noundef %call2) #3
  ret void
}

; Function Attrs: mustprogress uwtable
define linkonce_odr void @_ZN9grpc_core18XdsHealthStatusSetC2EN4absl12lts_202308024SpanIKNS_15XdsHealthStatusEEE(ptr noundef nonnull align 4 dereferenceable(4) %this, ptr %statuses.coerce0, i64 %statuses.coerce1) unnamed_addr #4 comdat align 2 {
entry:
  %statuses = alloca %"class.absl::lts_20230802::Span", align 8
  %this.addr = alloca ptr, align 8
  %__range2 = alloca ptr, align 8
  %__begin2 = alloca ptr, align 8
  %__end2 = alloca ptr, align 8
  %status = alloca %"class.grpc_core::XdsHealthStatus", align 4
  %agg.tmp = alloca %"class.grpc_core::XdsHealthStatus", align 4
  %0 = getelementptr inbounds { ptr, i64 }, ptr %statuses, i32 0, i32 0
  store ptr %statuses.coerce0, ptr %0, align 8
  %1 = getelementptr inbounds { ptr, i64 }, ptr %statuses, i32 0, i32 1
  store i64 %statuses.coerce1, ptr %1, align 8
  store ptr %this, ptr %this.addr, align 8
  %this1 = load ptr, ptr %this.addr, align 8
  %status_mask_ = getelementptr inbounds %"class.grpc_core::XdsHealthStatusSet", ptr %this1, i32 0, i32 0
  store i32 0, ptr %status_mask_, align 4
  store ptr %statuses, ptr %__range2, align 8
  %2 = load ptr, ptr %__range2, align 8
  %call = call noundef ptr @_ZNK4absl12lts_202308024SpanIKN9grpc_core15XdsHealthStatusEE5beginEv(ptr noundef nonnull align 8 dereferenceable(16) %2) #3
  store ptr %call, ptr %__begin2, align 8
  %3 = load ptr, ptr %__range2, align 8
  %call2 = call noundef ptr @_ZNK4absl12lts_202308024SpanIKN9grpc_core15XdsHealthStatusEE3endEv(ptr noundef nonnull align 8 dereferenceable(16) %3) #3
  store ptr %call2, ptr %__end2, align 8
  br label %for.cond

for.cond:                                         ; preds = %for.inc, %entry
  %4 = load ptr, ptr %__begin2, align 8
  %5 = load ptr, ptr %__end2, align 8
  %cmp = icmp ne ptr %4, %5
  br i1 %cmp, label %for.body, label %for.end

for.body:                                         ; preds = %for.cond
  %6 = load ptr, ptr %__begin2, align 8
  call void @llvm.memcpy.p0.p0.i64(ptr align 4 %status, ptr align 4 %6, i64 4, i1 false)
  call void @llvm.memcpy.p0.p0.i64(ptr align 4 %agg.tmp, ptr align 4 %status, i64 4, i1 false)
  %coerce.dive = getelementptr inbounds %"class.grpc_core::XdsHealthStatus", ptr %agg.tmp, i32 0, i32 0
  %7 = load i32, ptr %coerce.dive, align 4
  call void @_ZN9grpc_core18XdsHealthStatusSet3AddENS_15XdsHealthStatusE(ptr noundef nonnull align 4 dereferenceable(4) %this1, i32 %7)
  br label %for.inc

for.inc:                                          ; preds = %for.body
  %8 = load ptr, ptr %__begin2, align 8
  %incdec.ptr = getelementptr inbounds %"class.grpc_core::XdsHealthStatus", ptr %8, i32 1
  store ptr %incdec.ptr, ptr %__begin2, align 8
  br label %for.cond

for.end:                                          ; preds = %for.cond
  ret void
}

; Function Attrs: mustprogress nounwind uwtable
define linkonce_odr void @_ZNSt8optionalISt6vectorINSt7__cxx1112basic_stringIcSt11char_traitsIcESaIcEEESaIS6_EEED2Ev(ptr noundef nonnull align 8 dereferenceable(32) %this) unnamed_addr #5 comdat align 2 {
entry:
  %this.addr = alloca ptr, align 8
  store ptr %this, ptr %this.addr, align 8
  %this1 = load ptr, ptr %this.addr, align 8
  call void @_ZNSt14_Optional_baseISt6vectorINSt7__cxx1112basic_stringIcSt11char_traitsIcESaIcEEESaIS6_EELb0ELb0EED2Ev(ptr noundef nonnull align 8 dereferenceable(32) %this1) #3
  ret void
}

; Function Attrs: uwtable
define internal void @__cxx_global_var_init.10() #0 section ".text.startup" comdat($_ZN9grpc_core19NoDestructSingletonINS_14promise_detail10UnwakeableEE6value_E) {
entry:
  %0 = load i8, ptr @_ZGVN9grpc_core19NoDestructSingletonINS_14promise_detail10UnwakeableEE6value_E, align 8
  %guard.uninitialized = icmp eq i8 %0, 0
  br i1 %guard.uninitialized, label %init.check, label %init.end

init.check:                                       ; preds = %entry
  store i8 1, ptr @_ZGVN9grpc_core19NoDestructSingletonINS_14promise_detail10UnwakeableEE6value_E, align 8
  call void @_ZN9grpc_core10NoDestructINS_14promise_detail10UnwakeableEEC2IJEEEDpOT_(ptr noundef nonnull align 8 dereferenceable(8) @_ZN9grpc_core19NoDestructSingletonINS_14promise_detail10UnwakeableEE6value_E)
  br label %init.end

init.end:                                         ; preds = %init.check, %entry
  ret void
}

; Function Attrs: mustprogress uwtable
define linkonce_odr void @_ZN9grpc_core10NoDestructINS_14promise_detail10UnwakeableEEC2IJEEEDpOT_(ptr noundef nonnull align 8 dereferenceable(8) %this) unnamed_addr #4 comdat align 2 {
entry:
  %this.addr = alloca ptr, align 8
  store ptr %this, ptr %this.addr, align 8
  %this1 = load ptr, ptr %this.addr, align 8
  %space_ = getelementptr inbounds %"class.grpc_core::NoDestruct", ptr %this1, i32 0, i32 0
  call void @_ZN9grpc_core9ConstructINS_14promise_detail10UnwakeableEJEEEvPT_DpOT0_(ptr noundef %space_)
  ret void
}

; Function Attrs: uwtable
define internal void @__cxx_global_var_init.11() #0 section ".text.startup" comdat($_ZN9grpc_core19NoDestructSingletonINS_11json_detail10AutoLoaderINS_23XdsOverrideHostLbConfigEEEE6value_E) {
entry:
  %0 = load i8, ptr @_ZGVN9grpc_core19NoDestructSingletonINS_11json_detail10AutoLoaderINS_23XdsOverrideHostLbConfigEEEE6value_E, align 8
  %guard.uninitialized = icmp eq i8 %0, 0
  br i1 %guard.uninitialized, label %init.check, label %init.end

init.check:                                       ; preds = %entry
  store i8 1, ptr @_ZGVN9grpc_core19NoDestructSingletonINS_11json_detail10AutoLoaderINS_23XdsOverrideHostLbConfigEEEE6value_E, align 8
  call void @_ZN9grpc_core10NoDestructINS_11json_detail10AutoLoaderINS_23XdsOverrideHostLbConfigEEEEC2IJEEEDpOT_(ptr noundef nonnull align 8 dereferenceable(8) @_ZN9grpc_core19NoDestructSingletonINS_11json_detail10AutoLoaderINS_23XdsOverrideHostLbConfigEEEE6value_E)
  br label %init.end

init.end:                                         ; preds = %init.check, %entry
  ret void
}

; Function Attrs: mustprogress uwtable
define linkonce_odr void @_ZN9grpc_core10NoDestructINS_11json_detail10AutoLoaderINS_23XdsOverrideHostLbConfigEEEEC2IJEEEDpOT_(ptr noundef nonnull align 8 dereferenceable(8) %this) unnamed_addr #4 comdat align 2 {
entry:
  %this.addr = alloca ptr, align 8
  store ptr %this, ptr %this.addr, align 8
  %this1 = load ptr, ptr %this.addr, align 8
  %space_ = getelementptr inbounds %"class.grpc_core::NoDestruct.108", ptr %this1, i32 0, i32 0
  call void @_ZN9grpc_core9ConstructINS_11json_detail10AutoLoaderINS_23XdsOverrideHostLbConfigEEEJEEEvPT_DpOT0_(ptr noundef %space_)
  ret void
}

; Function Attrs: uwtable
define internal void @__cxx_global_var_init.12() #0 section ".text.startup" comdat($_ZN9grpc_core19NoDestructSingletonINS_11json_detail10AutoLoaderINS_13RefCountedPtrINS_23XdsOverrideHostLbConfigEEEEEE6value_E) {
entry:
  %0 = load i8, ptr @_ZGVN9grpc_core19NoDestructSingletonINS_11json_detail10AutoLoaderINS_13RefCountedPtrINS_23XdsOverrideHostLbConfigEEEEEE6value_E, align 8
  %guard.uninitialized = icmp eq i8 %0, 0
  br i1 %guard.uninitialized, label %init.check, label %init.end

init.check:                                       ; preds = %entry
  store i8 1, ptr @_ZGVN9grpc_core19NoDestructSingletonINS_11json_detail10AutoLoaderINS_13RefCountedPtrINS_23XdsOverrideHostLbConfigEEEEEE6value_E, align 8
  call void @_ZN9grpc_core10NoDestructINS_11json_detail10AutoLoaderINS_13RefCountedPtrINS_23XdsOverrideHostLbConfigEEEEEEC2IJEEEDpOT_(ptr noundef nonnull align 8 dereferenceable(8) @_ZN9grpc_core19NoDestructSingletonINS_11json_detail10AutoLoaderINS_13RefCountedPtrINS_23XdsOverrideHostLbConfigEEEEEE6value_E)
  br label %init.end

init.end:                                         ; preds = %init.check, %entry
  ret void
}

; Function Attrs: mustprogress uwtable
define linkonce_odr void @_ZN9grpc_core10NoDestructINS_11json_detail10AutoLoaderINS_13RefCountedPtrINS_23XdsOverrideHostLbConfigEEEEEEC2IJEEEDpOT_(ptr noundef nonnull align 8 dereferenceable(8) %this) unnamed_addr #4 comdat align 2 {
entry:
  %this.addr = alloca ptr, align 8
  store ptr %this, ptr %this.addr, align 8
  %this1 = load ptr, ptr %this.addr, align 8
  %space_ = getelementptr inbounds %"class.grpc_core::NoDestruct.109", ptr %this1, i32 0, i32 0
  call void @_ZN9grpc_core9ConstructINS_11json_detail10AutoLoaderINS_13RefCountedPtrINS_23XdsOverrideHostLbConfigEEEEEJEEEvPT_DpOT0_(ptr noundef %space_)
  ret void
}

; Function Attrs: uwtable
define internal void @__cxx_global_var_init.13() #0 section ".text.startup" comdat($_ZN9grpc_core19NoDestructSingletonINS_11json_detail10AutoLoaderINSt7__cxx1112basic_stringIcSt11char_traitsIcESaIcEEEEEE6value_E) {
entry:
  %0 = load i8, ptr @_ZGVN9grpc_core19NoDestructSingletonINS_11json_detail10AutoLoaderINSt7__cxx1112basic_stringIcSt11char_traitsIcESaIcEEEEEE6value_E, align 8
  %guard.uninitialized = icmp eq i8 %0, 0
  br i1 %guard.uninitialized, label %init.check, label %init.end

init.check:                                       ; preds = %entry
  store i8 1, ptr @_ZGVN9grpc_core19NoDestructSingletonINS_11json_detail10AutoLoaderINSt7__cxx1112basic_stringIcSt11char_traitsIcESaIcEEEEEE6value_E, align 8
  call void @_ZN9grpc_core10NoDestructINS_11json_detail10AutoLoaderINSt7__cxx1112basic_stringIcSt11char_traitsIcESaIcEEEEEEC2IJEEEDpOT_(ptr noundef nonnull align 8 dereferenceable(8) @_ZN9grpc_core19NoDestructSingletonINS_11json_detail10AutoLoaderINSt7__cxx1112basic_stringIcSt11char_traitsIcESaIcEEEEEE6value_E)
  br label %init.end

init.end:                                         ; preds = %init.check, %entry
  ret void
}

; Function Attrs: mustprogress uwtable
define linkonce_odr void @_ZN9grpc_core10NoDestructINS_11json_detail10AutoLoaderINSt7__cxx1112basic_stringIcSt11char_traitsIcESaIcEEEEEEC2IJEEEDpOT_(ptr noundef nonnull align 8 dereferenceable(8) %this) unnamed_addr #4 comdat align 2 {
entry:
  %this.addr = alloca ptr, align 8
  store ptr %this, ptr %this.addr, align 8
  %this1 = load ptr, ptr %this.addr, align 8
  %space_ = getelementptr inbounds %"class.grpc_core::NoDestruct.110", ptr %this1, i32 0, i32 0
  call void @_ZN9grpc_core9ConstructINS_11json_detail10AutoLoaderINSt7__cxx1112basic_stringIcSt11char_traitsIcESaIcEEEEEJEEEvPT_DpOT0_(ptr noundef %space_)
  ret void
}

; Function Attrs: uwtable
define internal void @__cxx_global_var_init.14() #0 section ".text.startup" comdat($_ZN9grpc_core19NoDestructSingletonINS_11json_detail10AutoLoaderISt6vectorINSt7__cxx1112basic_stringIcSt11char_traitsIcESaIcEEESaIS9_EEEEE6value_E) {
entry:
  %0 = load i8, ptr @_ZGVN9grpc_core19NoDestructSingletonINS_11json_detail10AutoLoaderISt6vectorINSt7__cxx1112basic_stringIcSt11char_traitsIcESaIcEEESaIS9_EEEEE6value_E, align 8
  %guard.uninitialized = icmp eq i8 %0, 0
  br i1 %guard.uninitialized, label %init.check, label %init.end

init.check:                                       ; preds = %entry
  store i8 1, ptr @_ZGVN9grpc_core19NoDestructSingletonINS_11json_detail10AutoLoaderISt6vectorINSt7__cxx1112basic_stringIcSt11char_traitsIcESaIcEEESaIS9_EEEEE6value_E, align 8
  call void @_ZN9grpc_core10NoDestructINS_11json_detail10AutoLoaderISt6vectorINSt7__cxx1112basic_stringIcSt11char_traitsIcESaIcEEESaIS9_EEEEEC2IJEEEDpOT_(ptr noundef nonnull align 8 dereferenceable(8) @_ZN9grpc_core19NoDestructSingletonINS_11json_detail10AutoLoaderISt6vectorINSt7__cxx1112basic_stringIcSt11char_traitsIcESaIcEEESaIS9_EEEEE6value_E)
  br label %init.end

init.end:                                         ; preds = %init.check, %entry
  ret void
}

; Function Attrs: mustprogress uwtable
define linkonce_odr void @_ZN9grpc_core10NoDestructINS_11json_detail10AutoLoaderISt6vectorINSt7__cxx1112basic_stringIcSt11char_traitsIcESaIcEEESaIS9_EEEEEC2IJEEEDpOT_(ptr noundef nonnull align 8 dereferenceable(8) %this) unnamed_addr #4 comdat align 2 {
entry:
  %this.addr = alloca ptr, align 8
  store ptr %this, ptr %this.addr, align 8
  %this1 = load ptr, ptr %this.addr, align 8
  %space_ = getelementptr inbounds %"class.grpc_core::NoDestruct.111", ptr %this1, i32 0, i32 0
  call void @_ZN9grpc_core9ConstructINS_11json_detail10AutoLoaderISt6vectorINSt7__cxx1112basic_stringIcSt11char_traitsIcESaIcEEESaIS9_EEEEJEEEvPT_DpOT0_(ptr noundef %space_)
  ret void
}

; Function Attrs: mustprogress nounwind uwtable
define linkonce_odr noundef i64 @_ZNSt11char_traitsIcE6lengthEPKc(ptr noundef %__s) #5 comdat align 2 {
entry:
  %__s.addr = alloca ptr, align 8
  store ptr %__s, ptr %__s.addr, align 8
  %0 = load ptr, ptr %__s.addr, align 8
  %call = call i64 @strlen(ptr noundef %0) #3
  ret i64 %call
}

; Function Attrs: noreturn nounwind uwtable
define linkonce_odr hidden void @__clang_call_terminate(ptr noundef %0) #7 comdat {
  %2 = call ptr @__cxa_begin_catch(ptr %0) #3
  call void @_ZSt9terminatev() #15
  unreachable
}

declare ptr @__cxa_begin_catch(ptr)

declare void @_ZSt9terminatev()

; Function Attrs: nounwind
declare i64 @strlen(ptr noundef) #2

declare void @_ZN9grpc_core16ValidationErrors9PushFieldESt17basic_string_viewIcSt11char_traitsIcEE(ptr noundef nonnull align 8 dereferenceable(72), i64, ptr) #1

; Function Attrs: mustprogress uwtable
define linkonce_odr noundef nonnull align 8 dereferenceable(48) ptr @_ZSt3getISt3mapINSt7__cxx1112basic_stringIcSt11char_traitsIcESaIcEEEN9grpc_core12experimental4JsonESt4lessIS6_ESaISt4pairIKS6_S9_EEEJSt9monostatebNS9_11NumberValueES6_SG_St6vectorIS9_SaIS9_EEEERKT_RKSt7variantIJDpT0_EE(ptr noundef nonnull align 8 dereferenceable(49) %__v) #4 comdat {
entry:
  %__v.addr = alloca ptr, align 8
  %__n = alloca i64, align 8
  store ptr %__v, ptr %__v.addr, align 8
  store i64 4, ptr %__n, align 8
  %0 = load ptr, ptr %__v.addr, align 8
  %call = call noundef nonnull align 8 dereferenceable(48) ptr @_ZSt3getILm4EJSt9monostatebN9grpc_core12experimental4Json11NumberValueENSt7__cxx1112basic_stringIcSt11char_traitsIcESaIcEEESt3mapISA_S3_St4lessISA_ESaISt4pairIKSA_S3_EEESt6vectorIS3_SaIS3_EEEERKNSt19variant_alternativeIXT_ESt7variantIJDpT0_EEE4typeERKSQ_(ptr noundef nonnull align 8 dereferenceable(49) %0)
  ret ptr %call
}

; Function Attrs: mustprogress uwtable
define linkonce_odr noundef nonnull align 8 dereferenceable(48) ptr @_ZSt3getILm4EJSt9monostatebN9grpc_core12experimental4Json11NumberValueENSt7__cxx1112basic_stringIcSt11char_traitsIcESaIcEEESt3mapISA_S3_St4lessISA_ESaISt4pairIKSA_S3_EEESt6vectorIS3_SaIS3_EEEERKNSt19variant_alternativeIXT_ESt7variantIJDpT0_EEE4typeERKSQ_(ptr noundef nonnull align 8 dereferenceable(49) %__v) #4 comdat {
entry:
  %__v.addr = alloca ptr, align 8
  store ptr %__v, ptr %__v.addr, align 8
  %0 = load ptr, ptr %__v.addr, align 8
  %call = call noundef i64 @_ZNKSt7variantIJSt9monostatebN9grpc_core12experimental4Json11NumberValueENSt7__cxx1112basic_stringIcSt11char_traitsIcESaIcEEESt3mapISA_S3_St4lessISA_ESaISt4pairIKSA_S3_EEESt6vectorIS3_SaIS3_EEEE5indexEv(ptr noundef nonnull align 8 dereferenceable(49) %0) #3
  %cmp = icmp ne i64 %call, 4
  br i1 %cmp, label %if.then, label %if.end

if.then:                                          ; preds = %entry
  %1 = load ptr, ptr %__v.addr, align 8
  %call1 = call noundef zeroext i1 @_ZNKSt7variantIJSt9monostatebN9grpc_core12experimental4Json11NumberValueENSt7__cxx1112basic_stringIcSt11char_traitsIcESaIcEEESt3mapISA_S3_St4lessISA_ESaISt4pairIKSA_S3_EEESt6vectorIS3_SaIS3_EEEE22valueless_by_exceptionEv(ptr noundef nonnull align 8 dereferenceable(49) %1) #3
  call void @_ZSt26__throw_bad_variant_accessb(i1 noundef zeroext %call1)
  br label %if.end

if.end:                                           ; preds = %if.then, %entry
  %2 = load ptr, ptr %__v.addr, align 8
  %call2 = call noundef nonnull align 8 dereferenceable(48) ptr @_ZNSt8__detail9__variant5__getILm4ERKSt7variantIJSt9monostatebN9grpc_core12experimental4Json11NumberValueENSt7__cxx1112basic_stringIcSt11char_traitsIcESaIcEEESt3mapISD_S6_St4lessISD_ESaISt4pairIKSD_S6_EEESt6vectorIS6_SaIS6_EEEEEEDcOT0_(ptr noundef nonnull align 8 dereferenceable(49) %2) #3
  ret ptr %call2
}

; Function Attrs: mustprogress nounwind uwtable
define linkonce_odr noundef i64 @_ZNKSt7variantIJSt9monostatebN9grpc_core12experimental4Json11NumberValueENSt7__cxx1112basic_stringIcSt11char_traitsIcESaIcEEESt3mapISA_S3_St4lessISA_ESaISt4pairIKSA_S3_EEESt6vectorIS3_SaIS3_EEEE5indexEv(ptr noundef nonnull align 8 dereferenceable(49) %this) #5 comdat align 2 {
entry:
  %this.addr = alloca ptr, align 8
  store ptr %this, ptr %this.addr, align 8
  %this1 = load ptr, ptr %this.addr, align 8
  %_M_index = getelementptr inbounds %"struct.std::__detail::__variant::_Variant_storage", ptr %this1, i32 0, i32 1
  %0 = load i8, ptr %_M_index, align 8
  %conv = sext i8 %0 to i64
  ret i64 %conv
}

; Function Attrs: mustprogress uwtable
define linkonce_odr void @_ZSt26__throw_bad_variant_accessb(i1 noundef zeroext %__valueless) #4 comdat {
entry:
  %__valueless.addr = alloca i8, align 1
  %frombool = zext i1 %__valueless to i8
  store i8 %frombool, ptr %__valueless.addr, align 1
  %0 = load i8, ptr %__valueless.addr, align 1
  %tobool = trunc i8 %0 to i1
  br i1 %tobool, label %if.then, label %if.else

if.then:                                          ; preds = %entry
  call void @_ZSt26__throw_bad_variant_accessPKc(ptr noundef @.str.15)
  br label %if.end

if.else:                                          ; preds = %entry
  call void @_ZSt26__throw_bad_variant_accessPKc(ptr noundef @.str.16)
  br label %if.end

if.end:                                           ; preds = %if.else, %if.then
  ret void
}

; Function Attrs: mustprogress nounwind uwtable
define linkonce_odr noundef zeroext i1 @_ZNKSt7variantIJSt9monostatebN9grpc_core12experimental4Json11NumberValueENSt7__cxx1112basic_stringIcSt11char_traitsIcESaIcEEESt3mapISA_S3_St4lessISA_ESaISt4pairIKSA_S3_EEESt6vectorIS3_SaIS3_EEEE22valueless_by_exceptionEv(ptr noundef nonnull align 8 dereferenceable(49) %this) #5 comdat align 2 {
entry:
  %this.addr = alloca ptr, align 8
  store ptr %this, ptr %this.addr, align 8
  %this1 = load ptr, ptr %this.addr, align 8
  %call = call noundef zeroext i1 @_ZNKSt8__detail9__variant16_Variant_storageILb0EJSt9monostatebN9grpc_core12experimental4Json11NumberValueENSt7__cxx1112basic_stringIcSt11char_traitsIcESaIcEEESt3mapISC_S5_St4lessISC_ESaISt4pairIKSC_S5_EEESt6vectorIS5_SaIS5_EEEE8_M_validEv(ptr noundef nonnull align 8 dereferenceable(49) %this1) #3
  %lnot = xor i1 %call, true
  ret i1 %lnot
}

; Function Attrs: mustprogress nounwind uwtable
define linkonce_odr noundef nonnull align 8 dereferenceable(48) ptr @_ZNSt8__detail9__variant5__getILm4ERKSt7variantIJSt9monostatebN9grpc_core12experimental4Json11NumberValueENSt7__cxx1112basic_stringIcSt11char_traitsIcESaIcEEESt3mapISD_S6_St4lessISD_ESaISt4pairIKSD_S6_EEESt6vectorIS6_SaIS6_EEEEEEDcOT0_(ptr noundef nonnull align 8 dereferenceable(49) %__v) #5 comdat {
entry:
  %__v.addr = alloca ptr, align 8
  store ptr %__v, ptr %__v.addr, align 8
  %0 = load ptr, ptr %__v.addr, align 8
  %_M_u = getelementptr inbounds %"struct.std::__detail::__variant::_Variant_storage", ptr %0, i32 0, i32 0
  %call = call noundef nonnull align 8 dereferenceable(48) ptr @_ZNSt8__detail9__variant7__get_nILm4ERKNS0_15_Variadic_unionIJSt9monostatebN9grpc_core12experimental4Json11NumberValueENSt7__cxx1112basic_stringIcSt11char_traitsIcESaIcEEESt3mapISD_S6_St4lessISD_ESaISt4pairIKSD_S6_EEESt6vectorIS6_SaIS6_EEEEEEEDcOT0_(ptr noundef nonnull align 8 dereferenceable(48) %_M_u) #3
  ret ptr %call
}

; Function Attrs: mustprogress uwtable
define linkonce_odr void @_ZSt26__throw_bad_variant_accessPKc(ptr noundef %__what) #4 comdat {
entry:
  %__what.addr = alloca ptr, align 8
  store ptr %__what, ptr %__what.addr, align 8
  %exception = call ptr @__cxa_allocate_exception(i64 16) #3
  %0 = load ptr, ptr %__what.addr, align 8
  call void @_ZNSt18bad_variant_accessC2EPKc(ptr noundef nonnull align 8 dereferenceable(16) %exception, ptr noundef %0) #3
  call void @__cxa_throw(ptr %exception, ptr @_ZTISt18bad_variant_access, ptr @_ZNSt18bad_variant_accessD2Ev) #17
  unreachable
}

declare ptr @__cxa_allocate_exception(i64)

; Function Attrs: mustprogress nounwind uwtable
define linkonce_odr void @_ZNSt18bad_variant_accessC2EPKc(ptr noundef nonnull align 8 dereferenceable(16) %this, ptr noundef %__reason) unnamed_addr #5 comdat align 2 {
entry:
  %this.addr = alloca ptr, align 8
  %__reason.addr = alloca ptr, align 8
  store ptr %this, ptr %this.addr, align 8
  store ptr %__reason, ptr %__reason.addr, align 8
  %this1 = load ptr, ptr %this.addr, align 8
  call void @_ZNSt9exceptionC2Ev(ptr noundef nonnull align 8 dereferenceable(8) %this1) #3
  store ptr getelementptr inbounds ({ [5 x ptr] }, ptr @_ZTVSt18bad_variant_access, i32 0, inrange i32 0, i32 2), ptr %this1, align 8
  %_M_reason = getelementptr inbounds %"class.std::bad_variant_access", ptr %this1, i32 0, i32 1
  %0 = load ptr, ptr %__reason.addr, align 8
  store ptr %0, ptr %_M_reason, align 8
  ret void
}

; Function Attrs: mustprogress nounwind uwtable
define linkonce_odr void @_ZNSt18bad_variant_accessD2Ev(ptr noundef nonnull align 8 dereferenceable(16) %this) unnamed_addr #5 comdat align 2 {
entry:
  %this.addr = alloca ptr, align 8
  store ptr %this, ptr %this.addr, align 8
  %this1 = load ptr, ptr %this.addr, align 8
  call void @_ZNSt9exceptionD2Ev(ptr noundef nonnull align 8 dereferenceable(8) %this1) #3
  ret void
}

declare void @__cxa_throw(ptr, ptr, ptr)

; Function Attrs: mustprogress nounwind uwtable
define linkonce_odr void @_ZNSt9exceptionC2Ev(ptr noundef nonnull align 8 dereferenceable(8) %this) unnamed_addr #5 comdat align 2 {
entry:
  %this.addr = alloca ptr, align 8
  store ptr %this, ptr %this.addr, align 8
  %this1 = load ptr, ptr %this.addr, align 8
  store ptr getelementptr inbounds ({ [5 x ptr] }, ptr @_ZTVSt9exception, i32 0, inrange i32 0, i32 2), ptr %this1, align 8
  ret void
}

; Function Attrs: mustprogress nounwind uwtable
define linkonce_odr void @_ZNSt18bad_variant_accessD0Ev(ptr noundef nonnull align 8 dereferenceable(16) %this) unnamed_addr #5 comdat align 2 {
entry:
  %this.addr = alloca ptr, align 8
  store ptr %this, ptr %this.addr, align 8
  %this1 = load ptr, ptr %this.addr, align 8
  call void @_ZNSt18bad_variant_accessD2Ev(ptr noundef nonnull align 8 dereferenceable(16) %this1) #3
  call void @_ZdlPv(ptr noundef %this1) #16
  ret void
}

; Function Attrs: mustprogress nounwind uwtable
define linkonce_odr noundef ptr @_ZNKSt18bad_variant_access4whatEv(ptr noundef nonnull align 8 dereferenceable(16) %this) unnamed_addr #5 comdat align 2 {
entry:
  %this.addr = alloca ptr, align 8
  store ptr %this, ptr %this.addr, align 8
  %this1 = load ptr, ptr %this.addr, align 8
  %_M_reason = getelementptr inbounds %"class.std::bad_variant_access", ptr %this1, i32 0, i32 1
  %0 = load ptr, ptr %_M_reason, align 8
  ret ptr %0
}

; Function Attrs: nobuiltin nounwind
declare void @_ZdlPv(ptr noundef) #8

; Function Attrs: nounwind
declare void @_ZNSt9exceptionD2Ev(ptr noundef nonnull align 8 dereferenceable(8)) unnamed_addr #2

; Function Attrs: mustprogress nounwind uwtable
define linkonce_odr noundef zeroext i1 @_ZNKSt8__detail9__variant16_Variant_storageILb0EJSt9monostatebN9grpc_core12experimental4Json11NumberValueENSt7__cxx1112basic_stringIcSt11char_traitsIcESaIcEEESt3mapISC_S5_St4lessISC_ESaISt4pairIKSC_S5_EEESt6vectorIS5_SaIS5_EEEE8_M_validEv(ptr noundef nonnull align 8 dereferenceable(49) %this) #5 comdat align 2 {
entry:
  %this.addr = alloca ptr, align 8
  store ptr %this, ptr %this.addr, align 8
  %this1 = load ptr, ptr %this.addr, align 8
  %_M_index = getelementptr inbounds %"struct.std::__detail::__variant::_Variant_storage", ptr %this1, i32 0, i32 1
  %0 = load i8, ptr %_M_index, align 8
  %conv = zext i8 %0 to i32
  %cmp = icmp ne i32 %conv, 255
  ret i1 %cmp
}

; Function Attrs: mustprogress nounwind uwtable
define linkonce_odr noundef nonnull align 8 dereferenceable(48) ptr @_ZNSt8__detail9__variant7__get_nILm4ERKNS0_15_Variadic_unionIJSt9monostatebN9grpc_core12experimental4Json11NumberValueENSt7__cxx1112basic_stringIcSt11char_traitsIcESaIcEEESt3mapISD_S6_St4lessISD_ESaISt4pairIKSD_S6_EEESt6vectorIS6_SaIS6_EEEEEEEDcOT0_(ptr noundef nonnull align 8 dereferenceable(48) %__u) #5 comdat {
entry:
  %__u.addr = alloca ptr, align 8
  store ptr %__u, ptr %__u.addr, align 8
  %0 = load ptr, ptr %__u.addr, align 8
  %call = call noundef nonnull align 8 dereferenceable(48) ptr @_ZNSt8__detail9__variant7__get_nILm1ERKNS0_15_Variadic_unionIJNSt7__cxx1112basic_stringIcSt11char_traitsIcESaIcEEESt3mapIS8_N9grpc_core12experimental4JsonESt4lessIS8_ESaISt4pairIKS8_SC_EEESt6vectorISC_SaISC_EEEEEEEDcOT0_(ptr noundef nonnull align 8 dereferenceable(48) %0) #3
  ret ptr %call
}

; Function Attrs: mustprogress nounwind uwtable
define linkonce_odr noundef nonnull align 8 dereferenceable(48) ptr @_ZNSt8__detail9__variant7__get_nILm1ERKNS0_15_Variadic_unionIJNSt7__cxx1112basic_stringIcSt11char_traitsIcESaIcEEESt3mapIS8_N9grpc_core12experimental4JsonESt4lessIS8_ESaISt4pairIKS8_SC_EEESt6vectorISC_SaISC_EEEEEEEDcOT0_(ptr noundef nonnull align 8 dereferenceable(48) %__u) #5 comdat {
entry:
  %__u.addr = alloca ptr, align 8
  store ptr %__u, ptr %__u.addr, align 8
  %0 = load ptr, ptr %__u.addr, align 8
  %call = call noundef nonnull align 8 dereferenceable(48) ptr @_ZNKRSt8__detail9__variant14_UninitializedISt3mapINSt7__cxx1112basic_stringIcSt11char_traitsIcESaIcEEEN9grpc_core12experimental4JsonESt4lessIS8_ESaISt4pairIKS8_SB_EEELb0EE6_M_getEv(ptr noundef nonnull align 8 dereferenceable(48) %0) #3
  ret ptr %call
}

; Function Attrs: mustprogress nounwind uwtable
define linkonce_odr noundef nonnull align 8 dereferenceable(48) ptr @_ZNKRSt8__detail9__variant14_UninitializedISt3mapINSt7__cxx1112basic_stringIcSt11char_traitsIcESaIcEEEN9grpc_core12experimental4JsonESt4lessIS8_ESaISt4pairIKS8_SB_EEELb0EE6_M_getEv(ptr noundef nonnull align 8 dereferenceable(48) %this) #5 comdat align 2 {
entry:
  %this.addr = alloca ptr, align 8
  store ptr %this, ptr %this.addr, align 8
  %this1 = load ptr, ptr %this.addr, align 8
  %_M_storage = getelementptr inbounds %"struct.std::__detail::__variant::_Uninitialized.59", ptr %this1, i32 0, i32 0
  %call = call noundef ptr @_ZNK9__gnu_cxx16__aligned_membufISt3mapINSt7__cxx1112basic_stringIcSt11char_traitsIcESaIcEEEN9grpc_core12experimental4JsonESt4lessIS7_ESaISt4pairIKS7_SA_EEEE6_M_ptrEv(ptr noundef nonnull align 8 dereferenceable(48) %_M_storage) #3
  ret ptr %call
}

; Function Attrs: mustprogress nounwind uwtable
define linkonce_odr noundef ptr @_ZNK9__gnu_cxx16__aligned_membufISt3mapINSt7__cxx1112basic_stringIcSt11char_traitsIcESaIcEEEN9grpc_core12experimental4JsonESt4lessIS7_ESaISt4pairIKS7_SA_EEEE6_M_ptrEv(ptr noundef nonnull align 8 dereferenceable(48) %this) #5 comdat align 2 {
entry:
  %this.addr = alloca ptr, align 8
  store ptr %this, ptr %this.addr, align 8
  %this1 = load ptr, ptr %this.addr, align 8
  %call = call noundef ptr @_ZNK9__gnu_cxx16__aligned_membufISt3mapINSt7__cxx1112basic_stringIcSt11char_traitsIcESaIcEEEN9grpc_core12experimental4JsonESt4lessIS7_ESaISt4pairIKS7_SA_EEEE7_M_addrEv(ptr noundef nonnull align 8 dereferenceable(48) %this1) #3
  ret ptr %call
}

; Function Attrs: mustprogress nounwind uwtable
define linkonce_odr noundef ptr @_ZNK9__gnu_cxx16__aligned_membufISt3mapINSt7__cxx1112basic_stringIcSt11char_traitsIcESaIcEEEN9grpc_core12experimental4JsonESt4lessIS7_ESaISt4pairIKS7_SA_EEEE7_M_addrEv(ptr noundef nonnull align 8 dereferenceable(48) %this) #5 comdat align 2 {
entry:
  %this.addr = alloca ptr, align 8
  store ptr %this, ptr %this.addr, align 8
  %this1 = load ptr, ptr %this.addr, align 8
  %_M_storage = getelementptr inbounds %"struct.__gnu_cxx::__aligned_membuf.60", ptr %this1, i32 0, i32 0
  ret ptr %_M_storage
}

; Function Attrs: mustprogress nounwind uwtable
define linkonce_odr noundef ptr @_ZNKSt6atomicIPN9grpc_core17CoreConfigurationEE4loadESt12memory_order(ptr noundef nonnull align 8 dereferenceable(8) %this, i32 noundef %__m) #5 comdat align 2 personality ptr @__gxx_personality_v0 {
entry:
  %this.addr.i = alloca ptr, align 8
  %__m.addr.i = alloca i32, align 4
  %__b.i = alloca i32, align 4
  %atomic-temp.i = alloca ptr, align 8
  %this.addr = alloca ptr, align 8
  %__m.addr = alloca i32, align 4
  store ptr %this, ptr %this.addr, align 8
  store i32 %__m, ptr %__m.addr, align 4
  %this1 = load ptr, ptr %this.addr, align 8
  %_M_b = getelementptr inbounds %"struct.std::atomic.112", ptr %this1, i32 0, i32 0
  %0 = load i32, ptr %__m.addr, align 4
  store ptr %_M_b, ptr %this.addr.i, align 8
  store i32 %0, ptr %__m.addr.i, align 4
  %this1.i = load ptr, ptr %this.addr.i, align 8
  %1 = load i32, ptr %__m.addr.i, align 4
  %call.i = invoke noundef i32 @_ZStanSt12memory_orderSt23__memory_order_modifier(i32 noundef %1, i32 noundef 65535)
          to label %invoke.cont.i unwind label %terminate.lpad.i

invoke.cont.i:                                    ; preds = %entry
  store i32 %call.i, ptr %__b.i, align 4
  %2 = load i32, ptr %__m.addr.i, align 4
  switch i32 %2, label %monotonic.i [
    i32 1, label %acquire.i
    i32 2, label %acquire.i
    i32 5, label %seqcst.i
  ]

monotonic.i:                                      ; preds = %invoke.cont.i
  %3 = load atomic i64, ptr %this1.i monotonic, align 8
  store i64 %3, ptr %atomic-temp.i, align 8
  br label %_ZNKSt13__atomic_baseIPN9grpc_core17CoreConfigurationEE4loadESt12memory_order.exit

acquire.i:                                        ; preds = %invoke.cont.i, %invoke.cont.i
  %4 = load atomic i64, ptr %this1.i acquire, align 8
  store i64 %4, ptr %atomic-temp.i, align 8
  br label %_ZNKSt13__atomic_baseIPN9grpc_core17CoreConfigurationEE4loadESt12memory_order.exit

seqcst.i:                                         ; preds = %invoke.cont.i
  %5 = load atomic i64, ptr %this1.i seq_cst, align 8
  store i64 %5, ptr %atomic-temp.i, align 8
  br label %_ZNKSt13__atomic_baseIPN9grpc_core17CoreConfigurationEE4loadESt12memory_order.exit

terminate.lpad.i:                                 ; preds = %entry
  %6 = landingpad { ptr, i32 }
          catch ptr null
  %7 = extractvalue { ptr, i32 } %6, 0
  call void @__clang_call_terminate(ptr %7) #15
  unreachable

_ZNKSt13__atomic_baseIPN9grpc_core17CoreConfigurationEE4loadESt12memory_order.exit: ; preds = %seqcst.i, %acquire.i, %monotonic.i
  %8 = load ptr, ptr %atomic-temp.i, align 8
  ret ptr %8
}

declare noundef nonnull align 8 dereferenceable(776) ptr @_ZN9grpc_core17CoreConfiguration19BuildNewAndMaybeSetEv() #1

; Function Attrs: mustprogress nounwind uwtable
define linkonce_odr noundef i32 @_ZStanSt12memory_orderSt23__memory_order_modifier(i32 noundef %__m, i32 noundef %__mod) #5 comdat {
entry:
  %__m.addr = alloca i32, align 4
  %__mod.addr = alloca i32, align 4
  store i32 %__m, ptr %__m.addr, align 4
  store i32 %__mod, ptr %__mod.addr, align 4
  %0 = load i32, ptr %__m.addr, align 4
  %1 = load i32, ptr %__mod.addr, align 4
  %and = and i32 %0, %1
  ret i32 %and
}

; Function Attrs: mustprogress nounwind uwtable
define linkonce_odr noundef zeroext i1 @_ZN4absl12lts_202308026Status9IsInlinedEm(i64 noundef %rep) #5 comdat align 2 {
entry:
  %rep.addr = alloca i64, align 8
  store i64 %rep, ptr %rep.addr, align 8
  %0 = load i64, ptr %rep.addr, align 8
  %and = and i64 %0, 1
  %cmp = icmp eq i64 %and, 0
  ret i1 %cmp
}

; Function Attrs: mustprogress nounwind uwtable
define linkonce_odr noundef ptr @_ZN4absl12lts_202308026Status12RepToPointerEm(i64 noundef %rep) #5 comdat align 2 {
entry:
  %rep.addr = alloca i64, align 8
  store i64 %rep, ptr %rep.addr, align 8
  %0 = load i64, ptr %rep.addr, align 8
  %sub = sub i64 %0, 1
  %1 = inttoptr i64 %sub to ptr
  ret ptr %1
}

; Function Attrs: mustprogress nounwind uwtable
define linkonce_odr noundef zeroext i1 @_ZN4absl12lts_202308026Status11IsMovedFromEm(i64 noundef %rep) #5 comdat align 2 {
entry:
  %rep.addr = alloca i64, align 8
  store i64 %rep, ptr %rep.addr, align 8
  %0 = load i64, ptr %rep.addr, align 8
  %call = call noundef zeroext i1 @_ZN4absl12lts_202308026Status9IsInlinedEm(i64 noundef %0)
  br i1 %call, label %land.rhs, label %land.end

land.rhs:                                         ; preds = %entry
  %1 = load i64, ptr %rep.addr, align 8
  %and = and i64 %1, 2
  %cmp = icmp ne i64 %and, 0
  br label %land.end

land.end:                                         ; preds = %land.rhs, %entry
  %2 = phi i1 [ false, %entry ], [ %cmp, %land.rhs ]
  ret i1 %2
}

; Function Attrs: mustprogress nounwind uwtable
define linkonce_odr void @_ZNSt17basic_string_viewIcSt11char_traitsIcEEC2Ev(ptr noundef nonnull align 8 dereferenceable(16) %this) unnamed_addr #5 comdat align 2 {
entry:
  %this.addr = alloca ptr, align 8
  store ptr %this, ptr %this.addr, align 8
  %this1 = load ptr, ptr %this.addr, align 8
  %_M_len = getelementptr inbounds %"class.std::basic_string_view", ptr %this1, i32 0, i32 0
  store i64 0, ptr %_M_len, align 8
  %_M_str = getelementptr inbounds %"class.std::basic_string_view", ptr %this1, i32 0, i32 1
  store ptr null, ptr %_M_str, align 8
  ret void
}

; Function Attrs: mustprogress nounwind uwtable
define linkonce_odr void @_ZN4absl12lts_2023080217internal_statusor12StatusOrDataIN9grpc_core13RefCountedPtrINS3_19LoadBalancingPolicy6ConfigEEEED2Ev(ptr noundef nonnull align 8 dereferenceable(16) %this) unnamed_addr #5 comdat align 2 personality ptr @__gxx_personality_v0 {
entry:
  %this.addr = alloca ptr, align 8
  store ptr %this, ptr %this.addr, align 8
  %this1 = load ptr, ptr %this.addr, align 8
  %call = invoke noundef zeroext i1 @_ZNK4absl12lts_2023080217internal_statusor12StatusOrDataIN9grpc_core13RefCountedPtrINS3_19LoadBalancingPolicy6ConfigEEEE2okEv(ptr noundef nonnull align 8 dereferenceable(16) %this1)
          to label %invoke.cont unwind label %terminate.lpad

invoke.cont:                                      ; preds = %entry
  br i1 %call, label %if.then, label %if.else

if.then:                                          ; preds = %invoke.cont
  %0 = getelementptr inbounds %"class.absl::lts_20230802::internal_statusor::StatusOrData", ptr %this1, i32 0, i32 0
  call void @_ZN4absl12lts_202308026StatusD2Ev(ptr noundef nonnull align 8 dereferenceable(8) %0) #3
  %1 = getelementptr inbounds %"class.absl::lts_20230802::internal_statusor::StatusOrData", ptr %this1, i32 0, i32 1
  call void @_ZN9grpc_core13RefCountedPtrINS_19LoadBalancingPolicy6ConfigEED2Ev(ptr noundef nonnull align 8 dereferenceable(8) %1) #3
  br label %if.end

if.else:                                          ; preds = %invoke.cont
  %2 = getelementptr inbounds %"class.absl::lts_20230802::internal_statusor::StatusOrData", ptr %this1, i32 0, i32 0
  call void @_ZN4absl12lts_202308026StatusD2Ev(ptr noundef nonnull align 8 dereferenceable(8) %2) #3
  br label %if.end

if.end:                                           ; preds = %if.else, %if.then
  ret void

terminate.lpad:                                   ; preds = %entry
  %3 = landingpad { ptr, i32 }
          catch ptr null
  %4 = extractvalue { ptr, i32 } %3, 0
  call void @__clang_call_terminate(ptr %4) #15
  unreachable
}

; Function Attrs: mustprogress uwtable
define linkonce_odr noundef zeroext i1 @_ZNK4absl12lts_2023080217internal_statusor12StatusOrDataIN9grpc_core13RefCountedPtrINS3_19LoadBalancingPolicy6ConfigEEEE2okEv(ptr noundef nonnull align 8 dereferenceable(16) %this) #4 comdat align 2 {
entry:
  %this.addr = alloca ptr, align 8
  store ptr %this, ptr %this.addr, align 8
  %this1 = load ptr, ptr %this.addr, align 8
  %0 = getelementptr inbounds %"class.absl::lts_20230802::internal_statusor::StatusOrData", ptr %this1, i32 0, i32 0
  %call = call noundef zeroext i1 @_ZNK4absl12lts_202308026Status2okEv(ptr noundef nonnull align 8 dereferenceable(8) %0)
  ret i1 %call
}

; Function Attrs: mustprogress nounwind uwtable
define linkonce_odr void @_ZN4absl12lts_202308026StatusD2Ev(ptr noundef nonnull align 8 dereferenceable(8) %this) unnamed_addr #5 comdat align 2 personality ptr @__gxx_personality_v0 {
entry:
  %this.addr = alloca ptr, align 8
  store ptr %this, ptr %this.addr, align 8
  %this1 = load ptr, ptr %this.addr, align 8
  %rep_ = getelementptr inbounds %"class.absl::lts_20230802::Status", ptr %this1, i32 0, i32 0
  %0 = load i64, ptr %rep_, align 8
  invoke void @_ZN4absl12lts_202308026Status5UnrefEm(i64 noundef %0)
          to label %invoke.cont unwind label %terminate.lpad

invoke.cont:                                      ; preds = %entry
  ret void

terminate.lpad:                                   ; preds = %entry
  %1 = landingpad { ptr, i32 }
          catch ptr null
  %2 = extractvalue { ptr, i32 } %1, 0
  call void @__clang_call_terminate(ptr %2) #15
  unreachable
}

; Function Attrs: mustprogress nounwind uwtable
define linkonce_odr void @_ZN9grpc_core13RefCountedPtrINS_19LoadBalancingPolicy6ConfigEED2Ev(ptr noundef nonnull align 8 dereferenceable(8) %this) unnamed_addr #5 comdat align 2 personality ptr @__gxx_personality_v0 {
entry:
  %this.addr = alloca ptr, align 8
  store ptr %this, ptr %this.addr, align 8
  %this1 = load ptr, ptr %this.addr, align 8
  %value_ = getelementptr inbounds %"class.grpc_core::RefCountedPtr", ptr %this1, i32 0, i32 0
  %0 = load ptr, ptr %value_, align 8
  %cmp = icmp ne ptr %0, null
  br i1 %cmp, label %if.then, label %if.end

if.then:                                          ; preds = %entry
  %value_2 = getelementptr inbounds %"class.grpc_core::RefCountedPtr", ptr %this1, i32 0, i32 0
  %1 = load ptr, ptr %value_2, align 8
  invoke void @_ZNK9grpc_core10RefCountedINS_19LoadBalancingPolicy6ConfigENS_19PolymorphicRefCountENS_11UnrefDeleteEE5UnrefEv(ptr noundef nonnull align 8 dereferenceable(16) %1)
          to label %invoke.cont unwind label %terminate.lpad

invoke.cont:                                      ; preds = %if.then
  br label %if.end

if.end:                                           ; preds = %invoke.cont, %entry
  ret void

terminate.lpad:                                   ; preds = %if.then
  %2 = landingpad { ptr, i32 }
          catch ptr null
  %3 = extractvalue { ptr, i32 } %2, 0
  call void @__clang_call_terminate(ptr %3) #15
  unreachable
}

; Function Attrs: mustprogress uwtable
define linkonce_odr noundef zeroext i1 @_ZNK4absl12lts_202308026Status2okEv(ptr noundef nonnull align 8 dereferenceable(8) %this) #4 comdat align 2 {
entry:
  %this.addr = alloca ptr, align 8
  store ptr %this, ptr %this.addr, align 8
  %this1 = load ptr, ptr %this.addr, align 8
  %rep_ = getelementptr inbounds %"class.absl::lts_20230802::Status", ptr %this1, i32 0, i32 0
  %0 = load i64, ptr %rep_, align 8
  %call = call noundef i64 @_ZN4absl12lts_202308026Status16CodeToInlinedRepENS0_10StatusCodeE(i32 noundef 0)
  %cmp = icmp eq i64 %0, %call
  ret i1 %cmp
}

; Function Attrs: mustprogress nounwind uwtable
define linkonce_odr noundef i64 @_ZN4absl12lts_202308026Status16CodeToInlinedRepENS0_10StatusCodeE(i32 noundef %code) #5 comdat align 2 {
entry:
  %code.addr = alloca i32, align 4
  store i32 %code, ptr %code.addr, align 4
  %0 = load i32, ptr %code.addr, align 4
  %conv = sext i32 %0 to i64
  %shl = shl i64 %conv, 2
  ret i64 %shl
}

; Function Attrs: mustprogress uwtable
define linkonce_odr void @_ZN4absl12lts_202308026Status5UnrefEm(i64 noundef %rep) #4 comdat align 2 {
entry:
  %rep.addr = alloca i64, align 8
  store i64 %rep, ptr %rep.addr, align 8
  %0 = load i64, ptr %rep.addr, align 8
  %call = call noundef zeroext i1 @_ZN4absl12lts_202308026Status9IsInlinedEm(i64 noundef %0)
  br i1 %call, label %if.end, label %if.then

if.then:                                          ; preds = %entry
  %1 = load i64, ptr %rep.addr, align 8
  call void @_ZN4absl12lts_202308026Status15UnrefNonInlinedEm(i64 noundef %1)
  br label %if.end

if.end:                                           ; preds = %if.then, %entry
  ret void
}

declare void @_ZN4absl12lts_202308026Status15UnrefNonInlinedEm(i64 noundef) #1

; Function Attrs: mustprogress uwtable
define linkonce_odr void @_ZNK9grpc_core10RefCountedINS_19LoadBalancingPolicy6ConfigENS_19PolymorphicRefCountENS_11UnrefDeleteEE5UnrefEv(ptr noundef nonnull align 8 dereferenceable(16) %this) #4 comdat align 2 {
entry:
  %this.addr = alloca ptr, align 8
  store ptr %this, ptr %this.addr, align 8
  %this1 = load ptr, ptr %this.addr, align 8
  %refs_ = getelementptr inbounds %"class.grpc_core::RefCounted", ptr %this1, i32 0, i32 1
  %call = call noundef zeroext i1 @_ZN9grpc_core8RefCount5UnrefEv(ptr noundef nonnull align 8 dereferenceable(8) %refs_)
  br i1 %call, label %if.then, label %if.end

if.then:                                          ; preds = %entry
  call void @_ZNK9grpc_core11UnrefDeleteclIKNS_19LoadBalancingPolicy6ConfigEEEvPT_(ptr noundef nonnull align 1 dereferenceable(1) %this1, ptr noundef %this1)
  br label %if.end

if.end:                                           ; preds = %if.then, %entry
  ret void
}

; Function Attrs: mustprogress nounwind uwtable
define linkonce_odr noundef zeroext i1 @_ZN9grpc_core8RefCount5UnrefEv(ptr noundef nonnull align 8 dereferenceable(8) %this) #5 comdat align 2 {
entry:
  %this.addr.i = alloca ptr, align 8
  %__i.addr.i = alloca i64, align 8
  %__m.addr.i = alloca i32, align 4
  %.atomictmp.i = alloca i64, align 8
  %atomic-temp.i = alloca i64, align 8
  %this.addr = alloca ptr, align 8
  %prior = alloca i64, align 8
  store ptr %this, ptr %this.addr, align 8
  %this1 = load ptr, ptr %this.addr, align 8
  %value_ = getelementptr inbounds %"class.grpc_core::RefCount", ptr %this1, i32 0, i32 0
  store ptr %value_, ptr %this.addr.i, align 8
  store i64 1, ptr %__i.addr.i, align 8
  store i32 4, ptr %__m.addr.i, align 4
  %this1.i = load ptr, ptr %this.addr.i, align 8
  %0 = load i32, ptr %__m.addr.i, align 4
  %1 = load i64, ptr %__i.addr.i, align 8
  store i64 %1, ptr %.atomictmp.i, align 8
  switch i32 %0, label %monotonic.i [
    i32 1, label %acquire.i
    i32 2, label %acquire.i
    i32 3, label %release.i
    i32 4, label %acqrel.i
    i32 5, label %seqcst.i
  ]

monotonic.i:                                      ; preds = %entry
  %2 = load i64, ptr %.atomictmp.i, align 8
  %3 = atomicrmw sub ptr %this1.i, i64 %2 monotonic, align 8
  store i64 %3, ptr %atomic-temp.i, align 8
  br label %_ZNSt13__atomic_baseIlE9fetch_subElSt12memory_order.exit

acquire.i:                                        ; preds = %entry, %entry
  %4 = load i64, ptr %.atomictmp.i, align 8
  %5 = atomicrmw sub ptr %this1.i, i64 %4 acquire, align 8
  store i64 %5, ptr %atomic-temp.i, align 8
  br label %_ZNSt13__atomic_baseIlE9fetch_subElSt12memory_order.exit

release.i:                                        ; preds = %entry
  %6 = load i64, ptr %.atomictmp.i, align 8
  %7 = atomicrmw sub ptr %this1.i, i64 %6 release, align 8
  store i64 %7, ptr %atomic-temp.i, align 8
  br label %_ZNSt13__atomic_baseIlE9fetch_subElSt12memory_order.exit

acqrel.i:                                         ; preds = %entry
  %8 = load i64, ptr %.atomictmp.i, align 8
  %9 = atomicrmw sub ptr %this1.i, i64 %8 acq_rel, align 8
  store i64 %9, ptr %atomic-temp.i, align 8
  br label %_ZNSt13__atomic_baseIlE9fetch_subElSt12memory_order.exit

seqcst.i:                                         ; preds = %entry
  %10 = load i64, ptr %.atomictmp.i, align 8
  %11 = atomicrmw sub ptr %this1.i, i64 %10 seq_cst, align 8
  store i64 %11, ptr %atomic-temp.i, align 8
  br label %_ZNSt13__atomic_baseIlE9fetch_subElSt12memory_order.exit

_ZNSt13__atomic_baseIlE9fetch_subElSt12memory_order.exit: ; preds = %seqcst.i, %acqrel.i, %release.i, %acquire.i, %monotonic.i
  %12 = load i64, ptr %atomic-temp.i, align 8
  store i64 %12, ptr %prior, align 8
  %13 = load i64, ptr %prior, align 8
  %cmp = icmp eq i64 %13, 1
  ret i1 %cmp
}

; Function Attrs: mustprogress nounwind uwtable
define linkonce_odr void @_ZNK9grpc_core11UnrefDeleteclIKNS_19LoadBalancingPolicy6ConfigEEEvPT_(ptr noundef nonnull align 1 dereferenceable(1) %this, ptr noundef %p) #5 comdat align 2 {
entry:
  %this.addr = alloca ptr, align 8
  %p.addr = alloca ptr, align 8
  store ptr %this, ptr %this.addr, align 8
  store ptr %p, ptr %p.addr, align 8
  %0 = load ptr, ptr %p.addr, align 8
  %isnull = icmp eq ptr %0, null
  br i1 %isnull, label %delete.end, label %delete.notnull

delete.notnull:                                   ; preds = %entry
  %vtable = load ptr, ptr %0, align 8
  %vfn = getelementptr inbounds ptr, ptr %vtable, i64 1
  %1 = load ptr, ptr %vfn, align 8
  call void %1(ptr noundef nonnull align 8 dereferenceable(16) %0) #3
  br label %delete.end

delete.end:                                       ; preds = %delete.notnull, %entry
  ret void
}

declare void @_ZN9grpc_core16ValidationErrors8PopFieldEv(ptr noundef nonnull align 8 dereferenceable(72)) #1

; Function Attrs: mustprogress nounwind uwtable
define linkonce_odr noundef zeroext i1 @_ZNKSt19_Optional_base_implISt6vectorINSt7__cxx1112basic_stringIcSt11char_traitsIcESaIcEEESaIS6_EESt14_Optional_baseIS8_Lb0ELb0EEE13_M_is_engagedEv(ptr noundef nonnull align 1 dereferenceable(1) %this) #5 comdat align 2 {
entry:
  %this.addr = alloca ptr, align 8
  store ptr %this, ptr %this.addr, align 8
  %this1 = load ptr, ptr %this.addr, align 8
  %_M_payload = getelementptr inbounds %"struct.std::_Optional_base", ptr %this1, i32 0, i32 0
  %_M_engaged = getelementptr inbounds %"struct.std::_Optional_payload_base", ptr %_M_payload, i32 0, i32 1
  %0 = load i8, ptr %_M_engaged, align 8
  %tobool = trunc i8 %0 to i1
  ret i1 %tobool
}

; Function Attrs: mustprogress nounwind uwtable
define linkonce_odr noundef nonnull align 8 dereferenceable(24) ptr @_ZNSt19_Optional_base_implISt6vectorINSt7__cxx1112basic_stringIcSt11char_traitsIcESaIcEEESaIS6_EESt14_Optional_baseIS8_Lb0ELb0EEE6_M_getEv(ptr noundef nonnull align 1 dereferenceable(1) %this) #5 comdat align 2 {
entry:
  %this.addr = alloca ptr, align 8
  store ptr %this, ptr %this.addr, align 8
  %this1 = load ptr, ptr %this.addr, align 8
  br label %do.body

do.body:                                          ; preds = %entry
  br label %do.cond

do.cond:                                          ; preds = %do.body
  br label %do.end

do.end:                                           ; preds = %do.cond
  %_M_payload = getelementptr inbounds %"struct.std::_Optional_base", ptr %this1, i32 0, i32 0
  %call = call noundef nonnull align 8 dereferenceable(24) ptr @_ZNSt22_Optional_payload_baseISt6vectorINSt7__cxx1112basic_stringIcSt11char_traitsIcESaIcEEESaIS6_EEE6_M_getEv(ptr noundef nonnull align 8 dereferenceable(25) %_M_payload) #3
  ret ptr %call
}

; Function Attrs: mustprogress nounwind uwtable
define linkonce_odr noundef nonnull align 8 dereferenceable(24) ptr @_ZNSt22_Optional_payload_baseISt6vectorINSt7__cxx1112basic_stringIcSt11char_traitsIcESaIcEEESaIS6_EEE6_M_getEv(ptr noundef nonnull align 8 dereferenceable(25) %this) #5 comdat align 2 {
entry:
  %this.addr = alloca ptr, align 8
  store ptr %this, ptr %this.addr, align 8
  %this1 = load ptr, ptr %this.addr, align 8
  %_M_payload = getelementptr inbounds %"struct.std::_Optional_payload_base", ptr %this1, i32 0, i32 0
  ret ptr %_M_payload
}

; Function Attrs: mustprogress nounwind uwtable
define linkonce_odr noundef zeroext i1 @_ZNKSt19_Optional_base_implIN9grpc_core15XdsHealthStatusESt14_Optional_baseIS1_Lb1ELb1EEE13_M_is_engagedEv(ptr noundef nonnull align 1 dereferenceable(1) %this) #5 comdat align 2 {
entry:
  %this.addr = alloca ptr, align 8
  store ptr %this, ptr %this.addr, align 8
  %this1 = load ptr, ptr %this.addr, align 8
  %_M_payload = getelementptr inbounds %"struct.std::_Optional_base.101", ptr %this1, i32 0, i32 0
  %_M_engaged = getelementptr inbounds %"struct.std::_Optional_payload_base.104", ptr %_M_payload, i32 0, i32 1
  %0 = load i8, ptr %_M_engaged, align 4
  %tobool = trunc i8 %0 to i1
  ret i1 %tobool
}

; Function Attrs: mustprogress nounwind uwtable
define linkonce_odr { i64, ptr } @_ZN4absl12lts_2023080218NullSafeStringViewEPKc(ptr noundef %p) #5 comdat {
entry:
  %retval = alloca %"class.std::basic_string_view", align 8
  %p.addr = alloca ptr, align 8
  store ptr %p, ptr %p.addr, align 8
  %0 = load ptr, ptr %p.addr, align 8
  %tobool = icmp ne ptr %0, null
  br i1 %tobool, label %cond.true, label %cond.false

cond.true:                                        ; preds = %entry
  %1 = load ptr, ptr %p.addr, align 8
  call void @_ZNSt17basic_string_viewIcSt11char_traitsIcEEC2EPKc(ptr noundef nonnull align 8 dereferenceable(16) %retval, ptr noundef %1) #3
  br label %cond.end

cond.false:                                       ; preds = %entry
  call void @_ZNSt17basic_string_viewIcSt11char_traitsIcEEC2Ev(ptr noundef nonnull align 8 dereferenceable(16) %retval) #3
  br label %cond.end

cond.end:                                         ; preds = %cond.false, %cond.true
  %2 = load { i64, ptr }, ptr %retval, align 8
  ret { i64, ptr } %2
}

declare noundef ptr @_ZN4absl12lts_2023080216numbers_internal15FastIntToBufferEmPc(i64 noundef, ptr noundef) #1

; Function Attrs: mustprogress nounwind uwtable
define linkonce_odr void @_ZNSt17basic_string_viewIcSt11char_traitsIcEEC2EPKcm(ptr noundef nonnull align 8 dereferenceable(16) %this, ptr noundef %__str, i64 noundef %__len) unnamed_addr #5 comdat align 2 {
entry:
  %this.addr = alloca ptr, align 8
  %__str.addr = alloca ptr, align 8
  %__len.addr = alloca i64, align 8
  store ptr %this, ptr %this.addr, align 8
  store ptr %__str, ptr %__str.addr, align 8
  store i64 %__len, ptr %__len.addr, align 8
  %this1 = load ptr, ptr %this.addr, align 8
  %_M_len = getelementptr inbounds %"class.std::basic_string_view", ptr %this1, i32 0, i32 0
  %0 = load i64, ptr %__len.addr, align 8
  store i64 %0, ptr %_M_len, align 8
  %_M_str = getelementptr inbounds %"class.std::basic_string_view", ptr %this1, i32 0, i32 1
  %1 = load ptr, ptr %__str.addr, align 8
  store ptr %1, ptr %_M_str, align 8
  ret void
}

; Function Attrs: mustprogress nounwind uwtable
define linkonce_odr noundef i32 @_ZNK9grpc_core15XdsHealthStatus6statusEv(ptr noundef nonnull align 4 dereferenceable(4) %this) #5 comdat align 2 {
entry:
  %this.addr = alloca ptr, align 8
  store ptr %this, ptr %this.addr, align 8
  %this1 = load ptr, ptr %this.addr, align 8
  %status_ = getelementptr inbounds %"class.grpc_core::XdsHealthStatus", ptr %this1, i32 0, i32 0
  %0 = load i32, ptr %status_, align 4
  ret i32 %0
}

; Function Attrs: mustprogress nounwind uwtable
define linkonce_odr noundef nonnull align 4 dereferenceable(4) ptr @_ZNSt19_Optional_base_implIN9grpc_core15XdsHealthStatusESt14_Optional_baseIS1_Lb1ELb1EEE6_M_getEv(ptr noundef nonnull align 1 dereferenceable(1) %this) #5 comdat align 2 {
entry:
  %this.addr = alloca ptr, align 8
  store ptr %this, ptr %this.addr, align 8
  %this1 = load ptr, ptr %this.addr, align 8
  br label %do.body

do.body:                                          ; preds = %entry
  br label %do.cond

do.cond:                                          ; preds = %do.body
  br label %do.end

do.end:                                           ; preds = %do.cond
  %_M_payload = getelementptr inbounds %"struct.std::_Optional_base.101", ptr %this1, i32 0, i32 0
  %call = call noundef nonnull align 4 dereferenceable(4) ptr @_ZNSt22_Optional_payload_baseIN9grpc_core15XdsHealthStatusEE6_M_getEv(ptr noundef nonnull align 4 dereferenceable(5) %_M_payload) #3
  ret ptr %call
}

; Function Attrs: mustprogress nounwind uwtable
define linkonce_odr noundef nonnull align 4 dereferenceable(4) ptr @_ZNSt22_Optional_payload_baseIN9grpc_core15XdsHealthStatusEE6_M_getEv(ptr noundef nonnull align 4 dereferenceable(5) %this) #5 comdat align 2 {
entry:
  %this.addr = alloca ptr, align 8
  store ptr %this, ptr %this.addr, align 8
  %this1 = load ptr, ptr %this.addr, align 8
  %_M_payload = getelementptr inbounds %"struct.std::_Optional_payload_base.104", ptr %this1, i32 0, i32 0
  ret ptr %_M_payload
}

; Function Attrs: mustprogress nounwind uwtable
define linkonce_odr noundef ptr @_ZNK4absl12lts_202308024SpanIKN9grpc_core15XdsHealthStatusEE5beginEv(ptr noundef nonnull align 8 dereferenceable(16) %this) #5 comdat align 2 {
entry:
  %this.addr = alloca ptr, align 8
  store ptr %this, ptr %this.addr, align 8
  %this1 = load ptr, ptr %this.addr, align 8
  %call = call noundef ptr @_ZNK4absl12lts_202308024SpanIKN9grpc_core15XdsHealthStatusEE4dataEv(ptr noundef nonnull align 8 dereferenceable(16) %this1) #3
  ret ptr %call
}

; Function Attrs: mustprogress nounwind uwtable
define linkonce_odr noundef ptr @_ZNK4absl12lts_202308024SpanIKN9grpc_core15XdsHealthStatusEE3endEv(ptr noundef nonnull align 8 dereferenceable(16) %this) #5 comdat align 2 {
entry:
  %this.addr = alloca ptr, align 8
  store ptr %this, ptr %this.addr, align 8
  %this1 = load ptr, ptr %this.addr, align 8
  %call = call noundef ptr @_ZNK4absl12lts_202308024SpanIKN9grpc_core15XdsHealthStatusEE4dataEv(ptr noundef nonnull align 8 dereferenceable(16) %this1) #3
  %call2 = call noundef i64 @_ZNK4absl12lts_202308024SpanIKN9grpc_core15XdsHealthStatusEE4sizeEv(ptr noundef nonnull align 8 dereferenceable(16) %this1) #3
  %add.ptr = getelementptr inbounds %"class.grpc_core::XdsHealthStatus", ptr %call, i64 %call2
  ret ptr %add.ptr
}

; Function Attrs: mustprogress nounwind uwtable
define linkonce_odr noundef ptr @_ZNK4absl12lts_202308024SpanIKN9grpc_core15XdsHealthStatusEE4dataEv(ptr noundef nonnull align 8 dereferenceable(16) %this) #5 comdat align 2 {
entry:
  %this.addr = alloca ptr, align 8
  store ptr %this, ptr %this.addr, align 8
  %this1 = load ptr, ptr %this.addr, align 8
  %ptr_ = getelementptr inbounds %"class.absl::lts_20230802::Span", ptr %this1, i32 0, i32 0
  %0 = load ptr, ptr %ptr_, align 8
  ret ptr %0
}

; Function Attrs: mustprogress nounwind uwtable
define linkonce_odr noundef i64 @_ZNK4absl12lts_202308024SpanIKN9grpc_core15XdsHealthStatusEE4sizeEv(ptr noundef nonnull align 8 dereferenceable(16) %this) #5 comdat align 2 {
entry:
  %this.addr = alloca ptr, align 8
  store ptr %this, ptr %this.addr, align 8
  %this1 = load ptr, ptr %this.addr, align 8
  %len_ = getelementptr inbounds %"class.absl::lts_20230802::Span", ptr %this1, i32 0, i32 1
  %0 = load i64, ptr %len_, align 8
  ret i64 %0
}

; Function Attrs: mustprogress nounwind uwtable
define linkonce_odr void @_ZNSt14_Optional_baseISt6vectorINSt7__cxx1112basic_stringIcSt11char_traitsIcESaIcEEESaIS6_EELb0ELb0EED2Ev(ptr noundef nonnull align 8 dereferenceable(32) %this) unnamed_addr #5 comdat align 2 {
entry:
  %this.addr = alloca ptr, align 8
  store ptr %this, ptr %this.addr, align 8
  %this1 = load ptr, ptr %this.addr, align 8
  %_M_payload = getelementptr inbounds %"struct.std::_Optional_base", ptr %this1, i32 0, i32 0
  call void @_ZNSt17_Optional_payloadISt6vectorINSt7__cxx1112basic_stringIcSt11char_traitsIcESaIcEEESaIS6_EELb0ELb0ELb0EED2Ev(ptr noundef nonnull align 8 dereferenceable(25) %_M_payload) #3
  ret void
}

; Function Attrs: mustprogress nounwind uwtable
define linkonce_odr void @_ZNSt17_Optional_payloadISt6vectorINSt7__cxx1112basic_stringIcSt11char_traitsIcESaIcEEESaIS6_EELb0ELb0ELb0EED2Ev(ptr noundef nonnull align 8 dereferenceable(25) %this) unnamed_addr #5 comdat align 2 {
entry:
  %this.addr = alloca ptr, align 8
  store ptr %this, ptr %this.addr, align 8
  %this1 = load ptr, ptr %this.addr, align 8
  call void @_ZNSt22_Optional_payload_baseISt6vectorINSt7__cxx1112basic_stringIcSt11char_traitsIcESaIcEEESaIS6_EEE8_M_resetEv(ptr noundef nonnull align 8 dereferenceable(25) %this1) #3
  call void @_ZNSt17_Optional_payloadISt6vectorINSt7__cxx1112basic_stringIcSt11char_traitsIcESaIcEEESaIS6_EELb1ELb0ELb0EED2Ev(ptr noundef nonnull align 8 dereferenceable(25) %this1) #3
  ret void
}

; Function Attrs: mustprogress nounwind uwtable
define linkonce_odr void @_ZNSt22_Optional_payload_baseISt6vectorINSt7__cxx1112basic_stringIcSt11char_traitsIcESaIcEEESaIS6_EEE8_M_resetEv(ptr noundef nonnull align 8 dereferenceable(25) %this) #5 comdat align 2 {
entry:
  %this.addr = alloca ptr, align 8
  store ptr %this, ptr %this.addr, align 8
  %this1 = load ptr, ptr %this.addr, align 8
  %_M_engaged = getelementptr inbounds %"struct.std::_Optional_payload_base", ptr %this1, i32 0, i32 1
  %0 = load i8, ptr %_M_engaged, align 8
  %tobool = trunc i8 %0 to i1
  br i1 %tobool, label %if.then, label %if.end

if.then:                                          ; preds = %entry
  call void @_ZNSt22_Optional_payload_baseISt6vectorINSt7__cxx1112basic_stringIcSt11char_traitsIcESaIcEEESaIS6_EEE10_M_destroyEv(ptr noundef nonnull align 8 dereferenceable(25) %this1) #3
  br label %if.end

if.end:                                           ; preds = %if.then, %entry
  ret void
}

; Function Attrs: mustprogress nounwind uwtable
define linkonce_odr void @_ZNSt17_Optional_payloadISt6vectorINSt7__cxx1112basic_stringIcSt11char_traitsIcESaIcEEESaIS6_EELb1ELb0ELb0EED2Ev(ptr noundef nonnull align 8 dereferenceable(25) %this) unnamed_addr #5 comdat align 2 {
entry:
  %this.addr = alloca ptr, align 8
  store ptr %this, ptr %this.addr, align 8
  %this1 = load ptr, ptr %this.addr, align 8
  call void @_ZNSt22_Optional_payload_baseISt6vectorINSt7__cxx1112basic_stringIcSt11char_traitsIcESaIcEEESaIS6_EEED2Ev(ptr noundef nonnull align 8 dereferenceable(25) %this1) #3
  ret void
}

; Function Attrs: mustprogress nounwind uwtable
define linkonce_odr void @_ZNSt22_Optional_payload_baseISt6vectorINSt7__cxx1112basic_stringIcSt11char_traitsIcESaIcEEESaIS6_EEE10_M_destroyEv(ptr noundef nonnull align 8 dereferenceable(25) %this) #5 comdat align 2 {
entry:
  %this.addr = alloca ptr, align 8
  store ptr %this, ptr %this.addr, align 8
  %this1 = load ptr, ptr %this.addr, align 8
  %_M_engaged = getelementptr inbounds %"struct.std::_Optional_payload_base", ptr %this1, i32 0, i32 1
  store i8 0, ptr %_M_engaged, align 8
  %_M_payload = getelementptr inbounds %"struct.std::_Optional_payload_base", ptr %this1, i32 0, i32 0
  call void @_ZNSt6vectorINSt7__cxx1112basic_stringIcSt11char_traitsIcESaIcEEESaIS5_EED2Ev(ptr noundef nonnull align 8 dereferenceable(24) %_M_payload) #3
  ret void
}

; Function Attrs: mustprogress nounwind uwtable
define linkonce_odr void @_ZNSt6vectorINSt7__cxx1112basic_stringIcSt11char_traitsIcESaIcEEESaIS5_EED2Ev(ptr noundef nonnull align 8 dereferenceable(24) %this) unnamed_addr #5 comdat align 2 personality ptr @__gxx_personality_v0 {
entry:
  %this.addr = alloca ptr, align 8
  store ptr %this, ptr %this.addr, align 8
  %this1 = load ptr, ptr %this.addr, align 8
  %_M_impl = getelementptr inbounds %"struct.std::_Vector_base.79", ptr %this1, i32 0, i32 0
  %_M_start = getelementptr inbounds %"struct.std::_Vector_base<std::__cxx11::basic_string<char>, std::allocator<std::__cxx11::basic_string<char>>>::_Vector_impl_data", ptr %_M_impl, i32 0, i32 0
  %0 = load ptr, ptr %_M_start, align 8
  %_M_impl2 = getelementptr inbounds %"struct.std::_Vector_base.79", ptr %this1, i32 0, i32 0
  %_M_finish = getelementptr inbounds %"struct.std::_Vector_base<std::__cxx11::basic_string<char>, std::allocator<std::__cxx11::basic_string<char>>>::_Vector_impl_data", ptr %_M_impl2, i32 0, i32 1
  %1 = load ptr, ptr %_M_finish, align 8
  %call = call noundef nonnull align 1 dereferenceable(1) ptr @_ZNSt12_Vector_baseINSt7__cxx1112basic_stringIcSt11char_traitsIcESaIcEEESaIS5_EE19_M_get_Tp_allocatorEv(ptr noundef nonnull align 8 dereferenceable(24) %this1) #3
  invoke void @_ZSt8_DestroyIPNSt7__cxx1112basic_stringIcSt11char_traitsIcESaIcEEES5_EvT_S7_RSaIT0_E(ptr noundef %0, ptr noundef %1, ptr noundef nonnull align 1 dereferenceable(1) %call)
          to label %invoke.cont unwind label %terminate.lpad

invoke.cont:                                      ; preds = %entry
  call void @_ZNSt12_Vector_baseINSt7__cxx1112basic_stringIcSt11char_traitsIcESaIcEEESaIS5_EED2Ev(ptr noundef nonnull align 8 dereferenceable(24) %this1) #3
  ret void

terminate.lpad:                                   ; preds = %entry
  %2 = landingpad { ptr, i32 }
          catch ptr null
  %3 = extractvalue { ptr, i32 } %2, 0
  call void @__clang_call_terminate(ptr %3) #15
  unreachable
}

; Function Attrs: mustprogress uwtable
define linkonce_odr void @_ZSt8_DestroyIPNSt7__cxx1112basic_stringIcSt11char_traitsIcESaIcEEES5_EvT_S7_RSaIT0_E(ptr noundef %__first, ptr noundef %__last, ptr noundef nonnull align 1 dereferenceable(1) %0) #4 comdat {
entry:
  %__first.addr = alloca ptr, align 8
  %__last.addr = alloca ptr, align 8
  %.addr = alloca ptr, align 8
  store ptr %__first, ptr %__first.addr, align 8
  store ptr %__last, ptr %__last.addr, align 8
  store ptr %0, ptr %.addr, align 8
  %1 = load ptr, ptr %__first.addr, align 8
  %2 = load ptr, ptr %__last.addr, align 8
  call void @_ZSt8_DestroyIPNSt7__cxx1112basic_stringIcSt11char_traitsIcESaIcEEEEvT_S7_(ptr noundef %1, ptr noundef %2)
  ret void
}

; Function Attrs: mustprogress nounwind uwtable
define linkonce_odr noundef nonnull align 1 dereferenceable(1) ptr @_ZNSt12_Vector_baseINSt7__cxx1112basic_stringIcSt11char_traitsIcESaIcEEESaIS5_EE19_M_get_Tp_allocatorEv(ptr noundef nonnull align 8 dereferenceable(24) %this) #5 comdat align 2 {
entry:
  %this.addr = alloca ptr, align 8
  store ptr %this, ptr %this.addr, align 8
  %this1 = load ptr, ptr %this.addr, align 8
  %_M_impl = getelementptr inbounds %"struct.std::_Vector_base.79", ptr %this1, i32 0, i32 0
  ret ptr %_M_impl
}

; Function Attrs: mustprogress nounwind uwtable
define linkonce_odr void @_ZNSt12_Vector_baseINSt7__cxx1112basic_stringIcSt11char_traitsIcESaIcEEESaIS5_EED2Ev(ptr noundef nonnull align 8 dereferenceable(24) %this) unnamed_addr #5 comdat align 2 personality ptr @__gxx_personality_v0 {
entry:
  %this.addr = alloca ptr, align 8
  store ptr %this, ptr %this.addr, align 8
  %this1 = load ptr, ptr %this.addr, align 8
  %_M_impl = getelementptr inbounds %"struct.std::_Vector_base.79", ptr %this1, i32 0, i32 0
  %_M_start = getelementptr inbounds %"struct.std::_Vector_base<std::__cxx11::basic_string<char>, std::allocator<std::__cxx11::basic_string<char>>>::_Vector_impl_data", ptr %_M_impl, i32 0, i32 0
  %0 = load ptr, ptr %_M_start, align 8
  %_M_impl2 = getelementptr inbounds %"struct.std::_Vector_base.79", ptr %this1, i32 0, i32 0
  %_M_end_of_storage = getelementptr inbounds %"struct.std::_Vector_base<std::__cxx11::basic_string<char>, std::allocator<std::__cxx11::basic_string<char>>>::_Vector_impl_data", ptr %_M_impl2, i32 0, i32 2
  %1 = load ptr, ptr %_M_end_of_storage, align 8
  %_M_impl3 = getelementptr inbounds %"struct.std::_Vector_base.79", ptr %this1, i32 0, i32 0
  %_M_start4 = getelementptr inbounds %"struct.std::_Vector_base<std::__cxx11::basic_string<char>, std::allocator<std::__cxx11::basic_string<char>>>::_Vector_impl_data", ptr %_M_impl3, i32 0, i32 0
  %2 = load ptr, ptr %_M_start4, align 8
  %sub.ptr.lhs.cast = ptrtoint ptr %1 to i64
  %sub.ptr.rhs.cast = ptrtoint ptr %2 to i64
  %sub.ptr.sub = sub i64 %sub.ptr.lhs.cast, %sub.ptr.rhs.cast
  %sub.ptr.div = sdiv exact i64 %sub.ptr.sub, 32
  invoke void @_ZNSt12_Vector_baseINSt7__cxx1112basic_stringIcSt11char_traitsIcESaIcEEESaIS5_EE13_M_deallocateEPS5_m(ptr noundef nonnull align 8 dereferenceable(24) %this1, ptr noundef %0, i64 noundef %sub.ptr.div)
          to label %invoke.cont unwind label %terminate.lpad

invoke.cont:                                      ; preds = %entry
  %_M_impl5 = getelementptr inbounds %"struct.std::_Vector_base.79", ptr %this1, i32 0, i32 0
  call void @_ZNSt12_Vector_baseINSt7__cxx1112basic_stringIcSt11char_traitsIcESaIcEEESaIS5_EE12_Vector_implD2Ev(ptr noundef nonnull align 8 dereferenceable(24) %_M_impl5) #3
  ret void

terminate.lpad:                                   ; preds = %entry
  %3 = landingpad { ptr, i32 }
          catch ptr null
  %4 = extractvalue { ptr, i32 } %3, 0
  call void @__clang_call_terminate(ptr %4) #15
  unreachable
}

; Function Attrs: mustprogress uwtable
define linkonce_odr void @_ZSt8_DestroyIPNSt7__cxx1112basic_stringIcSt11char_traitsIcESaIcEEEEvT_S7_(ptr noundef %__first, ptr noundef %__last) #4 comdat {
entry:
  %__first.addr = alloca ptr, align 8
  %__last.addr = alloca ptr, align 8
  store ptr %__first, ptr %__first.addr, align 8
  store ptr %__last, ptr %__last.addr, align 8
  %0 = load ptr, ptr %__first.addr, align 8
  %1 = load ptr, ptr %__last.addr, align 8
  call void @_ZNSt12_Destroy_auxILb0EE9__destroyIPNSt7__cxx1112basic_stringIcSt11char_traitsIcESaIcEEEEEvT_S9_(ptr noundef %0, ptr noundef %1)
  ret void
}

; Function Attrs: mustprogress uwtable
define linkonce_odr void @_ZNSt12_Destroy_auxILb0EE9__destroyIPNSt7__cxx1112basic_stringIcSt11char_traitsIcESaIcEEEEEvT_S9_(ptr noundef %__first, ptr noundef %__last) #4 comdat align 2 {
entry:
  %__first.addr = alloca ptr, align 8
  %__last.addr = alloca ptr, align 8
  store ptr %__first, ptr %__first.addr, align 8
  store ptr %__last, ptr %__last.addr, align 8
  br label %for.cond

for.cond:                                         ; preds = %for.inc, %entry
  %0 = load ptr, ptr %__first.addr, align 8
  %1 = load ptr, ptr %__last.addr, align 8
  %cmp = icmp ne ptr %0, %1
  br i1 %cmp, label %for.body, label %for.end

for.body:                                         ; preds = %for.cond
  %2 = load ptr, ptr %__first.addr, align 8
  call void @_ZSt8_DestroyINSt7__cxx1112basic_stringIcSt11char_traitsIcESaIcEEEEvPT_(ptr noundef %2)
  br label %for.inc

for.inc:                                          ; preds = %for.body
  %3 = load ptr, ptr %__first.addr, align 8
  %incdec.ptr = getelementptr inbounds %"class.std::__cxx11::basic_string", ptr %3, i32 1
  store ptr %incdec.ptr, ptr %__first.addr, align 8
  br label %for.cond, !llvm.loop !7

for.end:                                          ; preds = %for.cond
  ret void
}

; Function Attrs: mustprogress nounwind uwtable
define linkonce_odr void @_ZSt8_DestroyINSt7__cxx1112basic_stringIcSt11char_traitsIcESaIcEEEEvPT_(ptr noundef %__pointer) #5 comdat {
entry:
  %__pointer.addr = alloca ptr, align 8
  store ptr %__pointer, ptr %__pointer.addr, align 8
  %0 = load ptr, ptr %__pointer.addr, align 8
  call void @_ZNSt7__cxx1112basic_stringIcSt11char_traitsIcESaIcEED1Ev(ptr noundef nonnull align 8 dereferenceable(32) %0) #3
  ret void
}

; Function Attrs: mustprogress uwtable
define linkonce_odr void @_ZNSt12_Vector_baseINSt7__cxx1112basic_stringIcSt11char_traitsIcESaIcEEESaIS5_EE13_M_deallocateEPS5_m(ptr noundef nonnull align 8 dereferenceable(24) %this, ptr noundef %__p, i64 noundef %__n) #4 comdat align 2 {
entry:
  %this.addr = alloca ptr, align 8
  %__p.addr = alloca ptr, align 8
  %__n.addr = alloca i64, align 8
  store ptr %this, ptr %this.addr, align 8
  store ptr %__p, ptr %__p.addr, align 8
  store i64 %__n, ptr %__n.addr, align 8
  %this1 = load ptr, ptr %this.addr, align 8
  %0 = load ptr, ptr %__p.addr, align 8
  %tobool = icmp ne ptr %0, null
  br i1 %tobool, label %if.then, label %if.end

if.then:                                          ; preds = %entry
  %_M_impl = getelementptr inbounds %"struct.std::_Vector_base.79", ptr %this1, i32 0, i32 0
  %1 = load ptr, ptr %__p.addr, align 8
  %2 = load i64, ptr %__n.addr, align 8
  call void @_ZNSt16allocator_traitsISaINSt7__cxx1112basic_stringIcSt11char_traitsIcESaIcEEEEE10deallocateERS6_PS5_m(ptr noundef nonnull align 1 dereferenceable(1) %_M_impl, ptr noundef %1, i64 noundef %2)
  br label %if.end

if.end:                                           ; preds = %if.then, %entry
  ret void
}

; Function Attrs: mustprogress nounwind uwtable
define linkonce_odr void @_ZNSt12_Vector_baseINSt7__cxx1112basic_stringIcSt11char_traitsIcESaIcEEESaIS5_EE12_Vector_implD2Ev(ptr noundef nonnull align 8 dereferenceable(24) %this) unnamed_addr #5 comdat align 2 {
entry:
  %this.addr = alloca ptr, align 8
  store ptr %this, ptr %this.addr, align 8
  %this1 = load ptr, ptr %this.addr, align 8
  call void @_ZNSaINSt7__cxx1112basic_stringIcSt11char_traitsIcESaIcEEEED2Ev(ptr noundef nonnull align 1 dereferenceable(1) %this1) #3
  ret void
}

; Function Attrs: mustprogress uwtable
define linkonce_odr void @_ZNSt16allocator_traitsISaINSt7__cxx1112basic_stringIcSt11char_traitsIcESaIcEEEEE10deallocateERS6_PS5_m(ptr noundef nonnull align 1 dereferenceable(1) %__a, ptr noundef %__p, i64 noundef %__n) #4 comdat align 2 {
entry:
  %__a.addr = alloca ptr, align 8
  %__p.addr = alloca ptr, align 8
  %__n.addr = alloca i64, align 8
  store ptr %__a, ptr %__a.addr, align 8
  store ptr %__p, ptr %__p.addr, align 8
  store i64 %__n, ptr %__n.addr, align 8
  %0 = load ptr, ptr %__a.addr, align 8
  %1 = load ptr, ptr %__p.addr, align 8
  %2 = load i64, ptr %__n.addr, align 8
  call void @_ZNSt15__new_allocatorINSt7__cxx1112basic_stringIcSt11char_traitsIcESaIcEEEE10deallocateEPS5_m(ptr noundef nonnull align 1 dereferenceable(1) %0, ptr noundef %1, i64 noundef %2)
  ret void
}

; Function Attrs: mustprogress nounwind uwtable
define linkonce_odr void @_ZNSt15__new_allocatorINSt7__cxx1112basic_stringIcSt11char_traitsIcESaIcEEEE10deallocateEPS5_m(ptr noundef nonnull align 1 dereferenceable(1) %this, ptr noundef %__p, i64 noundef %__n) #5 comdat align 2 {
entry:
  %this.addr = alloca ptr, align 8
  %__p.addr = alloca ptr, align 8
  %__n.addr = alloca i64, align 8
  store ptr %this, ptr %this.addr, align 8
  store ptr %__p, ptr %__p.addr, align 8
  store i64 %__n, ptr %__n.addr, align 8
  %0 = load ptr, ptr %__p.addr, align 8
  call void @_ZdlPv(ptr noundef %0) #16
  ret void
}

; Function Attrs: mustprogress nounwind uwtable
define linkonce_odr void @_ZNSaINSt7__cxx1112basic_stringIcSt11char_traitsIcESaIcEEEED2Ev(ptr noundef nonnull align 1 dereferenceable(1) %this) unnamed_addr #5 comdat align 2 {
entry:
  %this.addr = alloca ptr, align 8
  store ptr %this, ptr %this.addr, align 8
  %this1 = load ptr, ptr %this.addr, align 8
  call void @_ZNSt15__new_allocatorINSt7__cxx1112basic_stringIcSt11char_traitsIcESaIcEEEED2Ev(ptr noundef nonnull align 1 dereferenceable(1) %this1) #3
  ret void
}

; Function Attrs: mustprogress nounwind uwtable
define linkonce_odr void @_ZNSt15__new_allocatorINSt7__cxx1112basic_stringIcSt11char_traitsIcESaIcEEEED2Ev(ptr noundef nonnull align 1 dereferenceable(1) %this) unnamed_addr #5 comdat align 2 {
entry:
  %this.addr = alloca ptr, align 8
  store ptr %this, ptr %this.addr, align 8
  ret void
}

; Function Attrs: mustprogress nounwind uwtable
define linkonce_odr void @_ZNSt22_Optional_payload_baseISt6vectorINSt7__cxx1112basic_stringIcSt11char_traitsIcESaIcEEESaIS6_EEED2Ev(ptr noundef nonnull align 8 dereferenceable(25) %this) unnamed_addr #5 comdat align 2 {
entry:
  %this.addr = alloca ptr, align 8
  store ptr %this, ptr %this.addr, align 8
  %this1 = load ptr, ptr %this.addr, align 8
  %_M_payload = getelementptr inbounds %"struct.std::_Optional_payload_base", ptr %this1, i32 0, i32 0
  call void @_ZNSt22_Optional_payload_baseISt6vectorINSt7__cxx1112basic_stringIcSt11char_traitsIcESaIcEEESaIS6_EEE8_StorageIS8_Lb0EED2Ev(ptr noundef nonnull align 8 dereferenceable(24) %_M_payload) #3
  ret void
}

; Function Attrs: mustprogress nounwind uwtable
define linkonce_odr void @_ZNSt22_Optional_payload_baseISt6vectorINSt7__cxx1112basic_stringIcSt11char_traitsIcESaIcEEESaIS6_EEE8_StorageIS8_Lb0EED2Ev(ptr noundef nonnull align 8 dereferenceable(24) %this) unnamed_addr #5 comdat align 2 {
entry:
  %this.addr = alloca ptr, align 8
  store ptr %this, ptr %this.addr, align 8
  ret void
}

declare noundef ptr @_ZNSt7__cxx1112basic_stringIcSt11char_traitsIcESaIcEE13_M_local_dataEv(ptr noundef nonnull align 8 dereferenceable(32)) #1

declare void @_ZNSt7__cxx1112basic_stringIcSt11char_traitsIcESaIcEE12_Alloc_hiderC1EPcRKS3_(ptr noundef nonnull align 8 dereferenceable(8), ptr noundef, ptr noundef nonnull align 1 dereferenceable(1)) unnamed_addr #1

; Function Attrs: noreturn
declare void @_ZSt19__throw_logic_errorPKc(ptr noundef) #9

; Function Attrs: mustprogress uwtable
define linkonce_odr void @_ZNSt7__cxx1112basic_stringIcSt11char_traitsIcESaIcEE12_M_constructIPKcEEvT_S8_St20forward_iterator_tag(ptr noundef nonnull align 8 dereferenceable(32) %this, ptr noundef %__beg, ptr noundef %__end) #4 comdat align 2 personality ptr @__gxx_personality_v0 {
entry:
  %this.addr.i = alloca ptr, align 8
  %this.addr = alloca ptr, align 8
  %__beg.addr = alloca ptr, align 8
  %__end.addr = alloca ptr, align 8
  %__dnew = alloca i64, align 8
  %__guard = alloca %struct._Guard, align 8
  %exn.slot = alloca ptr, align 8
  %ehselector.slot = alloca i32, align 4
  store ptr %this, ptr %this.addr, align 8
  store ptr %__beg, ptr %__beg.addr, align 8
  store ptr %__end, ptr %__end.addr, align 8
  %this1 = load ptr, ptr %this.addr, align 8
  %0 = load ptr, ptr %__beg.addr, align 8
  %1 = load ptr, ptr %__end.addr, align 8
  %call = call noundef i64 @_ZSt8distanceIPKcENSt15iterator_traitsIT_E15difference_typeES3_S3_(ptr noundef %0, ptr noundef %1)
  store i64 %call, ptr %__dnew, align 8
  %2 = load i64, ptr %__dnew, align 8
  %cmp = icmp ugt i64 %2, 15
  br i1 %cmp, label %if.then, label %if.else

if.then:                                          ; preds = %entry
  %call2 = call noundef ptr @_ZNSt7__cxx1112basic_stringIcSt11char_traitsIcESaIcEE9_M_createERmm(ptr noundef nonnull align 8 dereferenceable(32) %this1, ptr noundef nonnull align 8 dereferenceable(8) %__dnew, i64 noundef 0)
  call void @_ZNSt7__cxx1112basic_stringIcSt11char_traitsIcESaIcEE7_M_dataEPc(ptr noundef nonnull align 8 dereferenceable(32) %this1, ptr noundef %call2)
  %3 = load i64, ptr %__dnew, align 8
  call void @_ZNSt7__cxx1112basic_stringIcSt11char_traitsIcESaIcEE11_M_capacityEm(ptr noundef nonnull align 8 dereferenceable(32) %this1, i64 noundef %3)
  br label %if.end

if.else:                                          ; preds = %entry
  store ptr %this1, ptr %this.addr.i, align 8
  %this1.i = load ptr, ptr %this.addr.i, align 8
  %call.i = invoke noundef ptr @_ZNSt7__cxx1112basic_stringIcSt11char_traitsIcESaIcEE13_M_local_dataEv(ptr noundef nonnull align 8 dereferenceable(32) %this1.i)
          to label %_ZNSt7__cxx1112basic_stringIcSt11char_traitsIcESaIcEE17_M_use_local_dataEv.exit unwind label %terminate.lpad.i

terminate.lpad.i:                                 ; preds = %if.else
  %4 = landingpad { ptr, i32 }
          catch ptr null
  %5 = extractvalue { ptr, i32 } %4, 0
  call void @__clang_call_terminate(ptr %5) #15
  unreachable

_ZNSt7__cxx1112basic_stringIcSt11char_traitsIcESaIcEE17_M_use_local_dataEv.exit: ; preds = %if.else
  br label %if.end

if.end:                                           ; preds = %_ZNSt7__cxx1112basic_stringIcSt11char_traitsIcESaIcEE17_M_use_local_dataEv.exit, %if.then
  call void @_ZZNSt7__cxx1112basic_stringIcSt11char_traitsIcESaIcEE12_M_constructIPKcEEvT_S8_St20forward_iterator_tagEN6_GuardC2EPS4_(ptr noundef nonnull align 8 dereferenceable(8) %__guard, ptr noundef %this1)
  %call4 = invoke noundef ptr @_ZNKSt7__cxx1112basic_stringIcSt11char_traitsIcESaIcEE7_M_dataEv(ptr noundef nonnull align 8 dereferenceable(32) %this1)
          to label %invoke.cont unwind label %lpad

invoke.cont:                                      ; preds = %if.end
  %6 = load ptr, ptr %__beg.addr, align 8
  %7 = load ptr, ptr %__end.addr, align 8
  call void @_ZNSt7__cxx1112basic_stringIcSt11char_traitsIcESaIcEE13_S_copy_charsEPcPKcS7_(ptr noundef %call4, ptr noundef %6, ptr noundef %7) #3
  %_M_guarded = getelementptr inbounds %struct._Guard, ptr %__guard, i32 0, i32 0
  store ptr null, ptr %_M_guarded, align 8
  %8 = load i64, ptr %__dnew, align 8
  invoke void @_ZNSt7__cxx1112basic_stringIcSt11char_traitsIcESaIcEE13_M_set_lengthEm(ptr noundef nonnull align 8 dereferenceable(32) %this1, i64 noundef %8)
          to label %invoke.cont5 unwind label %lpad

invoke.cont5:                                     ; preds = %invoke.cont
  call void @_ZZNSt7__cxx1112basic_stringIcSt11char_traitsIcESaIcEE12_M_constructIPKcEEvT_S8_St20forward_iterator_tagEN6_GuardD2Ev(ptr noundef nonnull align 8 dereferenceable(8) %__guard) #3
  ret void

lpad:                                             ; preds = %invoke.cont, %if.end
  %9 = landingpad { ptr, i32 }
          cleanup
  %10 = extractvalue { ptr, i32 } %9, 0
  store ptr %10, ptr %exn.slot, align 8
  %11 = extractvalue { ptr, i32 } %9, 1
  store i32 %11, ptr %ehselector.slot, align 4
  call void @_ZZNSt7__cxx1112basic_stringIcSt11char_traitsIcESaIcEE12_M_constructIPKcEEvT_S8_St20forward_iterator_tagEN6_GuardD2Ev(ptr noundef nonnull align 8 dereferenceable(8) %__guard) #3
  br label %eh.resume

eh.resume:                                        ; preds = %lpad
  %exn = load ptr, ptr %exn.slot, align 8
  %sel = load i32, ptr %ehselector.slot, align 4
  %lpad.val = insertvalue { ptr, i32 } poison, ptr %exn, 0
  %lpad.val6 = insertvalue { ptr, i32 } %lpad.val, i32 %sel, 1
  resume { ptr, i32 } %lpad.val6
}

; Function Attrs: mustprogress nounwind uwtable
define linkonce_odr void @_ZNSt7__cxx1112basic_stringIcSt11char_traitsIcESaIcEE12_Alloc_hiderD2Ev(ptr noundef nonnull align 8 dereferenceable(8) %this) unnamed_addr #5 comdat align 2 {
entry:
  %this.addr = alloca ptr, align 8
  store ptr %this, ptr %this.addr, align 8
  %this1 = load ptr, ptr %this.addr, align 8
  call void @_ZNSaIcED2Ev(ptr noundef nonnull align 1 dereferenceable(1) %this1) #3
  ret void
}

; Function Attrs: mustprogress uwtable
define linkonce_odr noundef i64 @_ZSt8distanceIPKcENSt15iterator_traitsIT_E15difference_typeES3_S3_(ptr noundef %__first, ptr noundef %__last) #4 comdat {
entry:
  %__first.addr = alloca ptr, align 8
  %__last.addr = alloca ptr, align 8
  store ptr %__first, ptr %__first.addr, align 8
  store ptr %__last, ptr %__last.addr, align 8
  %0 = load ptr, ptr %__first.addr, align 8
  %1 = load ptr, ptr %__last.addr, align 8
  call void @_ZSt19__iterator_categoryIPKcENSt15iterator_traitsIT_E17iterator_categoryERKS3_(ptr noundef nonnull align 8 dereferenceable(8) %__first.addr)
  %call = call noundef i64 @_ZSt10__distanceIPKcENSt15iterator_traitsIT_E15difference_typeES3_S3_St26random_access_iterator_tag(ptr noundef %0, ptr noundef %1)
  ret i64 %call
}

declare void @_ZNSt7__cxx1112basic_stringIcSt11char_traitsIcESaIcEE7_M_dataEPc(ptr noundef nonnull align 8 dereferenceable(32), ptr noundef) #1

declare noundef ptr @_ZNSt7__cxx1112basic_stringIcSt11char_traitsIcESaIcEE9_M_createERmm(ptr noundef nonnull align 8 dereferenceable(32), ptr noundef nonnull align 8 dereferenceable(8), i64 noundef) #1

declare void @_ZNSt7__cxx1112basic_stringIcSt11char_traitsIcESaIcEE11_M_capacityEm(ptr noundef nonnull align 8 dereferenceable(32), i64 noundef) #1

; Function Attrs: mustprogress nounwind uwtable
define linkonce_odr void @_ZZNSt7__cxx1112basic_stringIcSt11char_traitsIcESaIcEE12_M_constructIPKcEEvT_S8_St20forward_iterator_tagEN6_GuardC2EPS4_(ptr noundef nonnull align 8 dereferenceable(8) %this, ptr noundef %__s) unnamed_addr #5 comdat align 2 {
entry:
  %this.addr = alloca ptr, align 8
  %__s.addr = alloca ptr, align 8
  store ptr %this, ptr %this.addr, align 8
  store ptr %__s, ptr %__s.addr, align 8
  %this1 = load ptr, ptr %this.addr, align 8
  %_M_guarded = getelementptr inbounds %struct._Guard, ptr %this1, i32 0, i32 0
  %0 = load ptr, ptr %__s.addr, align 8
  store ptr %0, ptr %_M_guarded, align 8
  ret void
}

; Function Attrs: nounwind
declare void @_ZNSt7__cxx1112basic_stringIcSt11char_traitsIcESaIcEE13_S_copy_charsEPcPKcS7_(ptr noundef, ptr noundef, ptr noundef) #2

declare noundef ptr @_ZNKSt7__cxx1112basic_stringIcSt11char_traitsIcESaIcEE7_M_dataEv(ptr noundef nonnull align 8 dereferenceable(32)) #1

declare void @_ZNSt7__cxx1112basic_stringIcSt11char_traitsIcESaIcEE13_M_set_lengthEm(ptr noundef nonnull align 8 dereferenceable(32), i64 noundef) #1

; Function Attrs: mustprogress nounwind uwtable
define linkonce_odr void @_ZZNSt7__cxx1112basic_stringIcSt11char_traitsIcESaIcEE12_M_constructIPKcEEvT_S8_St20forward_iterator_tagEN6_GuardD2Ev(ptr noundef nonnull align 8 dereferenceable(8) %this) unnamed_addr #5 comdat align 2 personality ptr @__gxx_personality_v0 {
entry:
  %this.addr = alloca ptr, align 8
  store ptr %this, ptr %this.addr, align 8
  %this1 = load ptr, ptr %this.addr, align 8
  %_M_guarded = getelementptr inbounds %struct._Guard, ptr %this1, i32 0, i32 0
  %0 = load ptr, ptr %_M_guarded, align 8
  %tobool = icmp ne ptr %0, null
  br i1 %tobool, label %if.then, label %if.end

if.then:                                          ; preds = %entry
  %_M_guarded2 = getelementptr inbounds %struct._Guard, ptr %this1, i32 0, i32 0
  %1 = load ptr, ptr %_M_guarded2, align 8
  invoke void @_ZNSt7__cxx1112basic_stringIcSt11char_traitsIcESaIcEE10_M_disposeEv(ptr noundef nonnull align 8 dereferenceable(32) %1)
          to label %invoke.cont unwind label %terminate.lpad

invoke.cont:                                      ; preds = %if.then
  br label %if.end

if.end:                                           ; preds = %invoke.cont, %entry
  ret void

terminate.lpad:                                   ; preds = %if.then
  %2 = landingpad { ptr, i32 }
          catch ptr null
  %3 = extractvalue { ptr, i32 } %2, 0
  call void @__clang_call_terminate(ptr %3) #15
  unreachable
}

; Function Attrs: mustprogress nounwind uwtable
define linkonce_odr noundef i64 @_ZSt10__distanceIPKcENSt15iterator_traitsIT_E15difference_typeES3_S3_St26random_access_iterator_tag(ptr noundef %__first, ptr noundef %__last) #5 comdat {
entry:
  %__first.addr = alloca ptr, align 8
  %__last.addr = alloca ptr, align 8
  store ptr %__first, ptr %__first.addr, align 8
  store ptr %__last, ptr %__last.addr, align 8
  %0 = load ptr, ptr %__last.addr, align 8
  %1 = load ptr, ptr %__first.addr, align 8
  %sub.ptr.lhs.cast = ptrtoint ptr %0 to i64
  %sub.ptr.rhs.cast = ptrtoint ptr %1 to i64
  %sub.ptr.sub = sub i64 %sub.ptr.lhs.cast, %sub.ptr.rhs.cast
  ret i64 %sub.ptr.sub
}

; Function Attrs: mustprogress nounwind uwtable
define linkonce_odr void @_ZSt19__iterator_categoryIPKcENSt15iterator_traitsIT_E17iterator_categoryERKS3_(ptr noundef nonnull align 8 dereferenceable(8) %0) #5 comdat {
entry:
  %.addr = alloca ptr, align 8
  store ptr %0, ptr %.addr, align 8
  ret void
}

declare void @_ZNSt7__cxx1112basic_stringIcSt11char_traitsIcESaIcEE10_M_disposeEv(ptr noundef nonnull align 8 dereferenceable(32)) #1

; Function Attrs: nounwind
declare void @_ZNSaIcED2Ev(ptr noundef nonnull align 1 dereferenceable(1)) unnamed_addr #2

; Function Attrs: mustprogress nounwind uwtable
define linkonce_odr void @_ZN9grpc_core9ConstructINS_14promise_detail10UnwakeableEJEEEvPT_DpOT0_(ptr noundef %p) #5 comdat {
entry:
  %p.addr = alloca ptr, align 8
  store ptr %p, ptr %p.addr, align 8
  %0 = load ptr, ptr %p.addr, align 8
  call void @llvm.memset.p0.i64(ptr align 8 %0, i8 0, i64 8, i1 false)
  call void @_ZN9grpc_core14promise_detail10UnwakeableC2Ev(ptr noundef nonnull align 8 dereferenceable(8) %0) #3
  ret void
}

; Function Attrs: nocallback nofree nounwind willreturn memory(argmem: write)
declare void @llvm.memset.p0.i64(ptr nocapture writeonly, i8, i64, i1 immarg) #10

; Function Attrs: mustprogress nounwind uwtable
define linkonce_odr void @_ZN9grpc_core14promise_detail10UnwakeableC2Ev(ptr noundef nonnull align 8 dereferenceable(8) %this) unnamed_addr #5 comdat align 2 {
entry:
  %this.addr = alloca ptr, align 8
  store ptr %this, ptr %this.addr, align 8
  %this1 = load ptr, ptr %this.addr, align 8
  call void @_ZN9grpc_core8WakeableC2Ev(ptr noundef nonnull align 8 dereferenceable(8) %this1) #3
  store ptr getelementptr inbounds ({ [6 x ptr] }, ptr @_ZTVN9grpc_core14promise_detail10UnwakeableE, i32 0, inrange i32 0, i32 2), ptr %this1, align 8
  ret void
}

; Function Attrs: mustprogress nounwind uwtable
define linkonce_odr void @_ZN9grpc_core8WakeableC2Ev(ptr noundef nonnull align 8 dereferenceable(8) %this) unnamed_addr #5 comdat align 2 {
entry:
  %this.addr = alloca ptr, align 8
  store ptr %this, ptr %this.addr, align 8
  %this1 = load ptr, ptr %this.addr, align 8
  store ptr getelementptr inbounds ({ [6 x ptr] }, ptr @_ZTVN9grpc_core8WakeableE, i32 0, inrange i32 0, i32 2), ptr %this1, align 8
  ret void
}

declare void @__cxa_pure_virtual() unnamed_addr

; Function Attrs: mustprogress uwtable
define linkonce_odr void @_ZN9grpc_core13RefCountedPtrINS_19LoadBalancingPolicy6ConfigEE5resetEPS2_(ptr noundef nonnull align 8 dereferenceable(8) %this, ptr noundef %value) #4 comdat align 2 {
entry:
  %this.addr = alloca ptr, align 8
  %value.addr = alloca ptr, align 8
  %old_value = alloca ptr, align 8
  store ptr %this, ptr %this.addr, align 8
  store ptr %value, ptr %value.addr, align 8
  %this1 = load ptr, ptr %this.addr, align 8
  %value_ = getelementptr inbounds %"class.grpc_core::RefCountedPtr", ptr %this1, i32 0, i32 0
  %call = call noundef ptr @_ZSt8exchangeIPN9grpc_core19LoadBalancingPolicy6ConfigERS3_ET_RS5_OT0_(ptr noundef nonnull align 8 dereferenceable(8) %value_, ptr noundef nonnull align 8 dereferenceable(8) %value.addr) #3
  store ptr %call, ptr %old_value, align 8
  %0 = load ptr, ptr %old_value, align 8
  %cmp = icmp ne ptr %0, null
  br i1 %cmp, label %if.then, label %if.end

if.then:                                          ; preds = %entry
  %1 = load ptr, ptr %old_value, align 8
  call void @_ZNK9grpc_core10RefCountedINS_19LoadBalancingPolicy6ConfigENS_19PolymorphicRefCountENS_11UnrefDeleteEE5UnrefEv(ptr noundef nonnull align 8 dereferenceable(16) %1)
  br label %if.end

if.end:                                           ; preds = %if.then, %entry
  ret void
}

; Function Attrs: mustprogress nounwind uwtable
define linkonce_odr noundef ptr @_ZSt8exchangeIPN9grpc_core19LoadBalancingPolicy6ConfigEDnET_RS4_OT0_(ptr noundef nonnull align 8 dereferenceable(8) %__obj, ptr noundef nonnull align 8 dereferenceable(8) %__new_val) #5 comdat personality ptr @__gxx_personality_v0 {
entry:
  %__obj.addr = alloca ptr, align 8
  %__new_val.addr = alloca ptr, align 8
  store ptr %__obj, ptr %__obj.addr, align 8
  store ptr %__new_val, ptr %__new_val.addr, align 8
  %0 = load ptr, ptr %__obj.addr, align 8
  %1 = load ptr, ptr %__new_val.addr, align 8
  %call = invoke noundef ptr @_ZSt10__exchangeIPN9grpc_core19LoadBalancingPolicy6ConfigEDnET_RS4_OT0_(ptr noundef nonnull align 8 dereferenceable(8) %0, ptr noundef nonnull align 8 dereferenceable(8) %1)
          to label %invoke.cont unwind label %terminate.lpad

invoke.cont:                                      ; preds = %entry
  ret ptr %call

terminate.lpad:                                   ; preds = %entry
  %2 = landingpad { ptr, i32 }
          catch ptr null
  %3 = extractvalue { ptr, i32 } %2, 0
  call void @__clang_call_terminate(ptr %3) #15
  unreachable
}

; Function Attrs: mustprogress nounwind uwtable
define linkonce_odr noundef ptr @_ZSt8exchangeIPN9grpc_core19LoadBalancingPolicy6ConfigERS3_ET_RS5_OT0_(ptr noundef nonnull align 8 dereferenceable(8) %__obj, ptr noundef nonnull align 8 dereferenceable(8) %__new_val) #5 comdat personality ptr @__gxx_personality_v0 {
entry:
  %__obj.addr = alloca ptr, align 8
  %__new_val.addr = alloca ptr, align 8
  store ptr %__obj, ptr %__obj.addr, align 8
  store ptr %__new_val, ptr %__new_val.addr, align 8
  %0 = load ptr, ptr %__obj.addr, align 8
  %1 = load ptr, ptr %__new_val.addr, align 8
  %call = invoke noundef ptr @_ZSt10__exchangeIPN9grpc_core19LoadBalancingPolicy6ConfigERS3_ET_RS5_OT0_(ptr noundef nonnull align 8 dereferenceable(8) %0, ptr noundef nonnull align 8 dereferenceable(8) %1)
          to label %invoke.cont unwind label %terminate.lpad

invoke.cont:                                      ; preds = %entry
  ret ptr %call

terminate.lpad:                                   ; preds = %entry
  %2 = landingpad { ptr, i32 }
          catch ptr null
  %3 = extractvalue { ptr, i32 } %2, 0
  call void @__clang_call_terminate(ptr %3) #15
  unreachable
}

; Function Attrs: mustprogress nounwind uwtable
define linkonce_odr noundef ptr @_ZSt10__exchangeIPN9grpc_core19LoadBalancingPolicy6ConfigERS3_ET_RS5_OT0_(ptr noundef nonnull align 8 dereferenceable(8) %__obj, ptr noundef nonnull align 8 dereferenceable(8) %__new_val) #5 comdat {
entry:
  %__obj.addr = alloca ptr, align 8
  %__new_val.addr = alloca ptr, align 8
  %__old_val = alloca ptr, align 8
  store ptr %__obj, ptr %__obj.addr, align 8
  store ptr %__new_val, ptr %__new_val.addr, align 8
  %0 = load ptr, ptr %__obj.addr, align 8
  %1 = load ptr, ptr %0, align 8
  store ptr %1, ptr %__old_val, align 8
  %2 = load ptr, ptr %__new_val.addr, align 8
  %3 = load ptr, ptr %2, align 8
  %4 = load ptr, ptr %__obj.addr, align 8
  store ptr %3, ptr %4, align 8
  %5 = load ptr, ptr %__old_val, align 8
  ret ptr %5
}

; Function Attrs: mustprogress nounwind uwtable
define linkonce_odr noundef ptr @_ZSt10__exchangeIPN9grpc_core19LoadBalancingPolicy6ConfigEDnET_RS4_OT0_(ptr noundef nonnull align 8 dereferenceable(8) %__obj, ptr noundef nonnull align 8 dereferenceable(8) %__new_val) #5 comdat {
entry:
  %__obj.addr = alloca ptr, align 8
  %__new_val.addr = alloca ptr, align 8
  %__old_val = alloca ptr, align 8
  store ptr %__obj, ptr %__obj.addr, align 8
  store ptr %__new_val, ptr %__new_val.addr, align 8
  %0 = load ptr, ptr %__obj.addr, align 8
  %1 = load ptr, ptr %0, align 8
  store ptr %1, ptr %__old_val, align 8
  %2 = load ptr, ptr %__obj.addr, align 8
  store ptr null, ptr %2, align 8
  %3 = load ptr, ptr %__old_val, align 8
  ret ptr %3
}

; Function Attrs: mustprogress nounwind uwtable
define linkonce_odr void @_ZN9grpc_core9ConstructINS_11json_detail10AutoLoaderINS_23XdsOverrideHostLbConfigEEEJEEEvPT_DpOT0_(ptr noundef %p) #5 comdat {
entry:
  %p.addr = alloca ptr, align 8
  store ptr %p, ptr %p.addr, align 8
  %0 = load ptr, ptr %p.addr, align 8
  call void @llvm.memset.p0.i64(ptr align 8 %0, i8 0, i64 8, i1 false)
  call void @_ZN9grpc_core11json_detail10AutoLoaderINS_23XdsOverrideHostLbConfigEEC2Ev(ptr noundef nonnull align 8 dereferenceable(8) %0) #3
  ret void
}

; Function Attrs: mustprogress nounwind uwtable
define linkonce_odr void @_ZN9grpc_core11json_detail10AutoLoaderINS_23XdsOverrideHostLbConfigEEC2Ev(ptr noundef nonnull align 8 dereferenceable(8) %this) unnamed_addr #5 comdat align 2 {
entry:
  %this.addr = alloca ptr, align 8
  store ptr %this, ptr %this.addr, align 8
  %this1 = load ptr, ptr %this.addr, align 8
  call void @_ZN9grpc_core11json_detail15LoaderInterfaceC2Ev(ptr noundef nonnull align 8 dereferenceable(8) %this1) #3
  store ptr getelementptr inbounds ({ [3 x ptr] }, ptr @_ZTVN9grpc_core11json_detail10AutoLoaderINS_23XdsOverrideHostLbConfigEEE, i32 0, inrange i32 0, i32 2), ptr %this1, align 8
  ret void
}

; Function Attrs: mustprogress nounwind uwtable
define linkonce_odr void @_ZN9grpc_core11json_detail15LoaderInterfaceC2Ev(ptr noundef nonnull align 8 dereferenceable(8) %this) unnamed_addr #5 comdat align 2 {
entry:
  %this.addr = alloca ptr, align 8
  store ptr %this, ptr %this.addr, align 8
  %this1 = load ptr, ptr %this.addr, align 8
  store ptr getelementptr inbounds ({ [3 x ptr] }, ptr @_ZTVN9grpc_core11json_detail15LoaderInterfaceE, i32 0, inrange i32 0, i32 2), ptr %this1, align 8
  ret void
}

; Function Attrs: mustprogress uwtable
define linkonce_odr void @_ZNK9grpc_core11json_detail10AutoLoaderINS_23XdsOverrideHostLbConfigEE8LoadIntoERKNS_12experimental4JsonERKNS_8JsonArgsEPvPNS_16ValidationErrorsE(ptr noundef nonnull align 8 dereferenceable(8) %this, ptr noundef nonnull align 8 dereferenceable(56) %json, ptr noundef nonnull align 8 dereferenceable(8) %args, ptr noundef %dst, ptr noundef %errors) unnamed_addr #4 comdat align 2 {
entry:
  %this.addr = alloca ptr, align 8
  %json.addr = alloca ptr, align 8
  %args.addr = alloca ptr, align 8
  %dst.addr = alloca ptr, align 8
  %errors.addr = alloca ptr, align 8
  store ptr %this, ptr %this.addr, align 8
  store ptr %json, ptr %json.addr, align 8
  store ptr %args, ptr %args.addr, align 8
  store ptr %dst, ptr %dst.addr, align 8
  store ptr %errors, ptr %errors.addr, align 8
  %0 = load ptr, ptr %args.addr, align 8
  %call = call noundef ptr @_ZN9grpc_core23XdsOverrideHostLbConfig10JsonLoaderERKNS_8JsonArgsE(ptr noundef nonnull align 8 dereferenceable(8) %0)
  %1 = load ptr, ptr %json.addr, align 8
  %2 = load ptr, ptr %args.addr, align 8
  %3 = load ptr, ptr %dst.addr, align 8
  %4 = load ptr, ptr %errors.addr, align 8
  %vtable = load ptr, ptr %call, align 8
  %vfn = getelementptr inbounds ptr, ptr %vtable, i64 0
  %5 = load ptr, ptr %vfn, align 8
  call void %5(ptr noundef nonnull align 8 dereferenceable(8) %call, ptr noundef nonnull align 8 dereferenceable(56) %1, ptr noundef nonnull align 8 dereferenceable(8) %2, ptr noundef %3, ptr noundef %4)
  ret void
}

; Function Attrs: mustprogress nounwind uwtable
define linkonce_odr void @_ZN9grpc_core9ConstructINS_11json_detail10AutoLoaderINS_13RefCountedPtrINS_23XdsOverrideHostLbConfigEEEEEJEEEvPT_DpOT0_(ptr noundef %p) #5 comdat {
entry:
  %p.addr = alloca ptr, align 8
  store ptr %p, ptr %p.addr, align 8
  %0 = load ptr, ptr %p.addr, align 8
  call void @llvm.memset.p0.i64(ptr align 8 %0, i8 0, i64 8, i1 false)
  call void @_ZN9grpc_core11json_detail10AutoLoaderINS_13RefCountedPtrINS_23XdsOverrideHostLbConfigEEEEC2Ev(ptr noundef nonnull align 8 dereferenceable(8) %0) #3
  ret void
}

; Function Attrs: mustprogress nounwind uwtable
define linkonce_odr void @_ZN9grpc_core11json_detail10AutoLoaderINS_13RefCountedPtrINS_23XdsOverrideHostLbConfigEEEEC2Ev(ptr noundef nonnull align 8 dereferenceable(8) %this) unnamed_addr #5 comdat align 2 {
entry:
  %this.addr = alloca ptr, align 8
  store ptr %this, ptr %this.addr, align 8
  %this1 = load ptr, ptr %this.addr, align 8
  call void @_ZN9grpc_core11json_detail11LoadWrappedC2Ev(ptr noundef nonnull align 8 dereferenceable(8) %this1) #3
  store ptr getelementptr inbounds ({ [6 x ptr] }, ptr @_ZTVN9grpc_core11json_detail10AutoLoaderINS_13RefCountedPtrINS_23XdsOverrideHostLbConfigEEEEE, i32 0, inrange i32 0, i32 2), ptr %this1, align 8
  ret void
}

; Function Attrs: mustprogress nounwind uwtable
define linkonce_odr void @_ZN9grpc_core11json_detail11LoadWrappedC2Ev(ptr noundef nonnull align 8 dereferenceable(8) %this) unnamed_addr #5 comdat align 2 {
entry:
  %this.addr = alloca ptr, align 8
  store ptr %this, ptr %this.addr, align 8
  %this1 = load ptr, ptr %this.addr, align 8
  call void @_ZN9grpc_core11json_detail15LoaderInterfaceC2Ev(ptr noundef nonnull align 8 dereferenceable(8) %this1) #3
  store ptr getelementptr inbounds ({ [6 x ptr] }, ptr @_ZTVN9grpc_core11json_detail11LoadWrappedE, i32 0, inrange i32 0, i32 2), ptr %this1, align 8
  ret void
}

declare void @_ZNK9grpc_core11json_detail11LoadWrapped8LoadIntoERKNS_12experimental4JsonERKNS_8JsonArgsEPvPNS_16ValidationErrorsE(ptr noundef nonnull align 8 dereferenceable(8), ptr noundef nonnull align 8 dereferenceable(56), ptr noundef nonnull align 8 dereferenceable(8), ptr noundef, ptr noundef) unnamed_addr #1

; Function Attrs: mustprogress uwtable
define linkonce_odr noundef ptr @_ZNK9grpc_core11json_detail10AutoLoaderINS_13RefCountedPtrINS_23XdsOverrideHostLbConfigEEEE7EmplaceEPv(ptr noundef nonnull align 8 dereferenceable(8) %this, ptr noundef %dst) unnamed_addr #4 comdat align 2 {
entry:
  %this.addr = alloca ptr, align 8
  %dst.addr = alloca ptr, align 8
  %p = alloca ptr, align 8
  %ref.tmp = alloca %"class.grpc_core::RefCountedPtr.125", align 8
  store ptr %this, ptr %this.addr, align 8
  store ptr %dst, ptr %dst.addr, align 8
  %0 = load ptr, ptr %dst.addr, align 8
  store ptr %0, ptr %p, align 8
  call void @_ZN9grpc_core14MakeRefCountedINS_23XdsOverrideHostLbConfigEJEEENS_13RefCountedPtrIT_EEDpOT0_(ptr sret(%"class.grpc_core::RefCountedPtr.125") align 8 %ref.tmp)
  %1 = load ptr, ptr %p, align 8
  %call = call noundef nonnull align 8 dereferenceable(8) ptr @_ZN9grpc_core13RefCountedPtrINS_23XdsOverrideHostLbConfigEEaSEOS2_(ptr noundef nonnull align 8 dereferenceable(8) %1, ptr noundef nonnull align 8 dereferenceable(8) %ref.tmp) #3
  call void @_ZN9grpc_core13RefCountedPtrINS_23XdsOverrideHostLbConfigEED2Ev(ptr noundef nonnull align 8 dereferenceable(8) %ref.tmp) #3
  %2 = load ptr, ptr %p, align 8
  %call2 = call noundef ptr @_ZNK9grpc_core13RefCountedPtrINS_23XdsOverrideHostLbConfigEE3getEv(ptr noundef nonnull align 8 dereferenceable(8) %2)
  ret ptr %call2
}

; Function Attrs: mustprogress uwtable
define linkonce_odr void @_ZNK9grpc_core11json_detail10AutoLoaderINS_13RefCountedPtrINS_23XdsOverrideHostLbConfigEEEE5ResetEPv(ptr noundef nonnull align 8 dereferenceable(8) %this, ptr noundef %dst) unnamed_addr #4 comdat align 2 {
entry:
  %this.addr = alloca ptr, align 8
  %dst.addr = alloca ptr, align 8
  store ptr %this, ptr %this.addr, align 8
  store ptr %dst, ptr %dst.addr, align 8
  %0 = load ptr, ptr %dst.addr, align 8
  call void @_ZN9grpc_core13RefCountedPtrINS_23XdsOverrideHostLbConfigEE5resetEPS1_(ptr noundef nonnull align 8 dereferenceable(8) %0, ptr noundef null)
  ret void
}

; Function Attrs: mustprogress uwtable
define linkonce_odr noundef ptr @_ZNK9grpc_core11json_detail10AutoLoaderINS_13RefCountedPtrINS_23XdsOverrideHostLbConfigEEEE13ElementLoaderEv(ptr noundef nonnull align 8 dereferenceable(8) %this) unnamed_addr #4 comdat align 2 {
entry:
  %this.addr = alloca ptr, align 8
  store ptr %this, ptr %this.addr, align 8
  %call = call noundef ptr @_ZN9grpc_core11json_detail13LoaderForTypeINS_23XdsOverrideHostLbConfigEEEPKNS0_15LoaderInterfaceEv()
  ret ptr %call
}

; Function Attrs: mustprogress uwtable
define linkonce_odr void @_ZN9grpc_core14MakeRefCountedINS_23XdsOverrideHostLbConfigEJEEENS_13RefCountedPtrIT_EEDpOT0_(ptr noalias sret(%"class.grpc_core::RefCountedPtr.125") align 8 %agg.result) #4 comdat personality ptr @__gxx_personality_v0 {
entry:
  %result.ptr = alloca ptr, align 8
  %exn.slot = alloca ptr, align 8
  %ehselector.slot = alloca i32, align 4
  store ptr %agg.result, ptr %result.ptr, align 8
  %call = call noalias noundef nonnull ptr @_Znwm(i64 noundef 32) #14
  call void @llvm.memset.p0.i64(ptr align 16 %call, i8 0, i64 32, i1 false)
  invoke void @_ZN9grpc_core23XdsOverrideHostLbConfigC2Ev(ptr noundef nonnull align 8 dereferenceable(28) %call)
          to label %invoke.cont unwind label %lpad

invoke.cont:                                      ; preds = %entry
  call void @_ZN9grpc_core13RefCountedPtrINS_23XdsOverrideHostLbConfigEEC2IS1_EEPT_(ptr noundef nonnull align 8 dereferenceable(8) %agg.result, ptr noundef %call)
  ret void

lpad:                                             ; preds = %entry
  %0 = landingpad { ptr, i32 }
          cleanup
  %1 = extractvalue { ptr, i32 } %0, 0
  store ptr %1, ptr %exn.slot, align 8
  %2 = extractvalue { ptr, i32 } %0, 1
  store i32 %2, ptr %ehselector.slot, align 4
  call void @_ZdlPv(ptr noundef %call) #16
  br label %eh.resume

eh.resume:                                        ; preds = %lpad
  %exn = load ptr, ptr %exn.slot, align 8
  %sel = load i32, ptr %ehselector.slot, align 4
  %lpad.val = insertvalue { ptr, i32 } poison, ptr %exn, 0
  %lpad.val1 = insertvalue { ptr, i32 } %lpad.val, i32 %sel, 1
  resume { ptr, i32 } %lpad.val1
}

; Function Attrs: mustprogress nounwind uwtable
define linkonce_odr noundef nonnull align 8 dereferenceable(8) ptr @_ZN9grpc_core13RefCountedPtrINS_23XdsOverrideHostLbConfigEEaSEOS2_(ptr noundef nonnull align 8 dereferenceable(8) %this, ptr noundef nonnull align 8 dereferenceable(8) %other) #5 comdat align 2 personality ptr @__gxx_personality_v0 {
entry:
  %this.addr = alloca ptr, align 8
  %other.addr = alloca ptr, align 8
  %ref.tmp = alloca ptr, align 8
  store ptr %this, ptr %this.addr, align 8
  store ptr %other, ptr %other.addr, align 8
  %this1 = load ptr, ptr %this.addr, align 8
  %0 = load ptr, ptr %other.addr, align 8
  %value_ = getelementptr inbounds %"class.grpc_core::RefCountedPtr.125", ptr %0, i32 0, i32 0
  store ptr null, ptr %ref.tmp, align 8
  %call = call noundef ptr @_ZSt8exchangeIPN9grpc_core23XdsOverrideHostLbConfigEDnET_RS3_OT0_(ptr noundef nonnull align 8 dereferenceable(8) %value_, ptr noundef nonnull align 8 dereferenceable(8) %ref.tmp) #3
  invoke void @_ZN9grpc_core13RefCountedPtrINS_23XdsOverrideHostLbConfigEE5resetEPS1_(ptr noundef nonnull align 8 dereferenceable(8) %this1, ptr noundef %call)
          to label %invoke.cont unwind label %terminate.lpad

invoke.cont:                                      ; preds = %entry
  ret ptr %this1

terminate.lpad:                                   ; preds = %entry
  %1 = landingpad { ptr, i32 }
          catch ptr null
  %2 = extractvalue { ptr, i32 } %1, 0
  call void @__clang_call_terminate(ptr %2) #15
  unreachable
}

; Function Attrs: mustprogress nounwind uwtable
define linkonce_odr void @_ZN9grpc_core13RefCountedPtrINS_23XdsOverrideHostLbConfigEED2Ev(ptr noundef nonnull align 8 dereferenceable(8) %this) unnamed_addr #5 comdat align 2 personality ptr @__gxx_personality_v0 {
entry:
  %this.addr = alloca ptr, align 8
  store ptr %this, ptr %this.addr, align 8
  %this1 = load ptr, ptr %this.addr, align 8
  %value_ = getelementptr inbounds %"class.grpc_core::RefCountedPtr.125", ptr %this1, i32 0, i32 0
  %0 = load ptr, ptr %value_, align 8
  %cmp = icmp ne ptr %0, null
  br i1 %cmp, label %if.then, label %if.end

if.then:                                          ; preds = %entry
  %value_2 = getelementptr inbounds %"class.grpc_core::RefCountedPtr.125", ptr %this1, i32 0, i32 0
  %1 = load ptr, ptr %value_2, align 8
  invoke void @_ZNK9grpc_core10RefCountedINS_19LoadBalancingPolicy6ConfigENS_19PolymorphicRefCountENS_11UnrefDeleteEE5UnrefEv(ptr noundef nonnull align 8 dereferenceable(16) %1)
          to label %invoke.cont unwind label %terminate.lpad

invoke.cont:                                      ; preds = %if.then
  br label %if.end

if.end:                                           ; preds = %invoke.cont, %entry
  ret void

terminate.lpad:                                   ; preds = %if.then
  %2 = landingpad { ptr, i32 }
          catch ptr null
  %3 = extractvalue { ptr, i32 } %2, 0
  call void @__clang_call_terminate(ptr %3) #15
  unreachable
}

; Function Attrs: mustprogress nounwind uwtable
define linkonce_odr noundef ptr @_ZNK9grpc_core13RefCountedPtrINS_23XdsOverrideHostLbConfigEE3getEv(ptr noundef nonnull align 8 dereferenceable(8) %this) #5 comdat align 2 {
entry:
  %this.addr = alloca ptr, align 8
  store ptr %this, ptr %this.addr, align 8
  %this1 = load ptr, ptr %this.addr, align 8
  %value_ = getelementptr inbounds %"class.grpc_core::RefCountedPtr.125", ptr %this1, i32 0, i32 0
  %0 = load ptr, ptr %value_, align 8
  ret ptr %0
}

; Function Attrs: nobuiltin allocsize(0)
declare noundef nonnull ptr @_Znwm(i64 noundef) #11

; Function Attrs: mustprogress uwtable
define linkonce_odr void @_ZN9grpc_core23XdsOverrideHostLbConfigC2Ev(ptr noundef nonnull align 8 dereferenceable(28) %this) unnamed_addr #4 comdat align 2 personality ptr @__gxx_personality_v0 {
entry:
  %this.addr = alloca ptr, align 8
  %exn.slot = alloca ptr, align 8
  %ehselector.slot = alloca i32, align 4
  store ptr %this, ptr %this.addr, align 8
  %this1 = load ptr, ptr %this.addr, align 8
  call void @_ZN9grpc_core19LoadBalancingPolicy6ConfigC2Ev(ptr noundef nonnull align 8 dereferenceable(16) %this1)
  store ptr getelementptr inbounds ({ [5 x ptr] }, ptr @_ZTVN9grpc_core23XdsOverrideHostLbConfigE, i32 0, inrange i32 0, i32 2), ptr %this1, align 8
  %child_config_ = getelementptr inbounds %"class.grpc_core::XdsOverrideHostLbConfig", ptr %this1, i32 0, i32 1
  invoke void @_ZN9grpc_core13RefCountedPtrINS_19LoadBalancingPolicy6ConfigEEC2Ev(ptr noundef nonnull align 8 dereferenceable(8) %child_config_)
          to label %invoke.cont unwind label %lpad

invoke.cont:                                      ; preds = %entry
  %override_host_status_set_ = getelementptr inbounds %"class.grpc_core::XdsOverrideHostLbConfig", ptr %this1, i32 0, i32 2
  call void @_ZN9grpc_core18XdsHealthStatusSetC2Ev(ptr noundef nonnull align 4 dereferenceable(4) %override_host_status_set_) #3
  ret void

lpad:                                             ; preds = %entry
  %0 = landingpad { ptr, i32 }
          cleanup
  %1 = extractvalue { ptr, i32 } %0, 0
  store ptr %1, ptr %exn.slot, align 8
  %2 = extractvalue { ptr, i32 } %0, 1
  store i32 %2, ptr %ehselector.slot, align 4
  call void @_ZN9grpc_core19LoadBalancingPolicy6ConfigD2Ev(ptr noundef nonnull align 8 dereferenceable(16) %this1) #3
  br label %eh.resume

eh.resume:                                        ; preds = %lpad
  %exn = load ptr, ptr %exn.slot, align 8
  %sel = load i32, ptr %ehselector.slot, align 4
  %lpad.val = insertvalue { ptr, i32 } poison, ptr %exn, 0
  %lpad.val2 = insertvalue { ptr, i32 } %lpad.val, i32 %sel, 1
  resume { ptr, i32 } %lpad.val2
}

; Function Attrs: mustprogress nounwind uwtable
define linkonce_odr void @_ZN9grpc_core13RefCountedPtrINS_23XdsOverrideHostLbConfigEEC2IS1_EEPT_(ptr noundef nonnull align 8 dereferenceable(8) %this, ptr noundef %value) unnamed_addr #5 comdat align 2 {
entry:
  %this.addr = alloca ptr, align 8
  %value.addr = alloca ptr, align 8
  store ptr %this, ptr %this.addr, align 8
  store ptr %value, ptr %value.addr, align 8
  %this1 = load ptr, ptr %this.addr, align 8
  %value_ = getelementptr inbounds %"class.grpc_core::RefCountedPtr.125", ptr %this1, i32 0, i32 0
  %0 = load ptr, ptr %value.addr, align 8
  store ptr %0, ptr %value_, align 8
  ret void
}

; Function Attrs: mustprogress uwtable
define linkonce_odr void @_ZN9grpc_core19LoadBalancingPolicy6ConfigC2Ev(ptr noundef nonnull align 8 dereferenceable(16) %this) unnamed_addr #4 comdat align 2 {
entry:
  %this.addr = alloca ptr, align 8
  store ptr %this, ptr %this.addr, align 8
  %this1 = load ptr, ptr %this.addr, align 8
  call void @_ZN9grpc_core10RefCountedINS_19LoadBalancingPolicy6ConfigENS_19PolymorphicRefCountENS_11UnrefDeleteEEC2EPKcl(ptr noundef nonnull align 8 dereferenceable(16) %this1, ptr noundef null, i64 noundef 1)
  store ptr getelementptr inbounds ({ [5 x ptr] }, ptr @_ZTVN9grpc_core19LoadBalancingPolicy6ConfigE, i32 0, inrange i32 0, i32 2), ptr %this1, align 8
  ret void
}

; Function Attrs: mustprogress nounwind uwtable
define linkonce_odr void @_ZN9grpc_core13RefCountedPtrINS_19LoadBalancingPolicy6ConfigEEC2Ev(ptr noundef nonnull align 8 dereferenceable(8) %this) unnamed_addr #5 comdat align 2 {
entry:
  %this.addr = alloca ptr, align 8
  store ptr %this, ptr %this.addr, align 8
  %this1 = load ptr, ptr %this.addr, align 8
  %value_ = getelementptr inbounds %"class.grpc_core::RefCountedPtr", ptr %this1, i32 0, i32 0
  store ptr null, ptr %value_, align 8
  ret void
}

; Function Attrs: mustprogress nounwind uwtable
define linkonce_odr void @_ZN9grpc_core18XdsHealthStatusSetC2Ev(ptr noundef nonnull align 4 dereferenceable(4) %this) unnamed_addr #5 comdat align 2 {
entry:
  %this.addr = alloca ptr, align 8
  store ptr %this, ptr %this.addr, align 8
  %this1 = load ptr, ptr %this.addr, align 8
  %status_mask_ = getelementptr inbounds %"class.grpc_core::XdsHealthStatusSet", ptr %this1, i32 0, i32 0
  store i32 0, ptr %status_mask_, align 4
  ret void
}

; Function Attrs: mustprogress nounwind uwtable
define linkonce_odr void @_ZN9grpc_core23XdsOverrideHostLbConfigD2Ev(ptr noundef nonnull align 8 dereferenceable(28) %this) unnamed_addr #5 comdat align 2 {
entry:
  %this.addr = alloca ptr, align 8
  store ptr %this, ptr %this.addr, align 8
  %this1 = load ptr, ptr %this.addr, align 8
  store ptr getelementptr inbounds ({ [5 x ptr] }, ptr @_ZTVN9grpc_core23XdsOverrideHostLbConfigE, i32 0, inrange i32 0, i32 2), ptr %this1, align 8
  %child_config_ = getelementptr inbounds %"class.grpc_core::XdsOverrideHostLbConfig", ptr %this1, i32 0, i32 1
  call void @_ZN9grpc_core13RefCountedPtrINS_19LoadBalancingPolicy6ConfigEED2Ev(ptr noundef nonnull align 8 dereferenceable(8) %child_config_) #3
  call void @_ZN9grpc_core19LoadBalancingPolicy6ConfigD2Ev(ptr noundef nonnull align 8 dereferenceable(16) %this1) #3
  ret void
}

; Function Attrs: mustprogress nounwind uwtable
define linkonce_odr void @_ZN9grpc_core23XdsOverrideHostLbConfigD0Ev(ptr noundef nonnull align 8 dereferenceable(28) %this) unnamed_addr #5 comdat align 2 {
entry:
  %this.addr = alloca ptr, align 8
  store ptr %this, ptr %this.addr, align 8
  %this1 = load ptr, ptr %this.addr, align 8
  call void @_ZN9grpc_core23XdsOverrideHostLbConfigD2Ev(ptr noundef nonnull align 8 dereferenceable(28) %this1) #3
  call void @_ZdlPv(ptr noundef %this1) #16
  ret void
}

; Function Attrs: mustprogress uwtable
define linkonce_odr { i64, ptr } @_ZNK9grpc_core23XdsOverrideHostLbConfig4nameEv(ptr noundef nonnull align 8 dereferenceable(28) %this) unnamed_addr #4 comdat align 2 {
entry:
  %retval = alloca %"class.std::basic_string_view", align 8
  %this.addr = alloca ptr, align 8
  store ptr %this, ptr %this.addr, align 8
  %call = call { i64, ptr } @_ZN9grpc_core23XdsOverrideHostLbConfig4NameEv()
  %0 = getelementptr inbounds { i64, ptr }, ptr %retval, i32 0, i32 0
  %1 = extractvalue { i64, ptr } %call, 0
  store i64 %1, ptr %0, align 8
  %2 = getelementptr inbounds { i64, ptr }, ptr %retval, i32 0, i32 1
  %3 = extractvalue { i64, ptr } %call, 1
  store ptr %3, ptr %2, align 8
  %4 = load { i64, ptr }, ptr %retval, align 8
  ret { i64, ptr } %4
}

; Function Attrs: mustprogress uwtable
define linkonce_odr void @_ZN9grpc_core10RefCountedINS_19LoadBalancingPolicy6ConfigENS_19PolymorphicRefCountENS_11UnrefDeleteEEC2EPKcl(ptr noundef nonnull align 8 dereferenceable(16) %this, ptr noundef %trace, i64 noundef %initial_refcount) unnamed_addr #4 comdat align 2 personality ptr @__gxx_personality_v0 {
entry:
  %this.addr = alloca ptr, align 8
  %trace.addr = alloca ptr, align 8
  %initial_refcount.addr = alloca i64, align 8
  %exn.slot = alloca ptr, align 8
  %ehselector.slot = alloca i32, align 4
  store ptr %this, ptr %this.addr, align 8
  store ptr %trace, ptr %trace.addr, align 8
  store i64 %initial_refcount, ptr %initial_refcount.addr, align 8
  %this1 = load ptr, ptr %this.addr, align 8
  call void @_ZN9grpc_core19PolymorphicRefCountC2Ev(ptr noundef nonnull align 8 dereferenceable(8) %this1) #3
  store ptr getelementptr inbounds ({ [4 x ptr] }, ptr @_ZTVN9grpc_core10RefCountedINS_19LoadBalancingPolicy6ConfigENS_19PolymorphicRefCountENS_11UnrefDeleteEEE, i32 0, inrange i32 0, i32 2), ptr %this1, align 8
  %refs_ = getelementptr inbounds %"class.grpc_core::RefCounted", ptr %this1, i32 0, i32 1
  %0 = load i64, ptr %initial_refcount.addr, align 8
  %1 = load ptr, ptr %trace.addr, align 8
  invoke void @_ZN9grpc_core8RefCountC2ElPKc(ptr noundef nonnull align 8 dereferenceable(8) %refs_, i64 noundef %0, ptr noundef %1)
          to label %invoke.cont unwind label %lpad

invoke.cont:                                      ; preds = %entry
  ret void

lpad:                                             ; preds = %entry
  %2 = landingpad { ptr, i32 }
          cleanup
  %3 = extractvalue { ptr, i32 } %2, 0
  store ptr %3, ptr %exn.slot, align 8
  %4 = extractvalue { ptr, i32 } %2, 1
  store i32 %4, ptr %ehselector.slot, align 4
  call void @_ZN9grpc_core19PolymorphicRefCountD2Ev(ptr noundef nonnull align 8 dereferenceable(8) %this1) #3
  br label %eh.resume

eh.resume:                                        ; preds = %lpad
  %exn = load ptr, ptr %exn.slot, align 8
  %sel = load i32, ptr %ehselector.slot, align 4
  %lpad.val = insertvalue { ptr, i32 } poison, ptr %exn, 0
  %lpad.val2 = insertvalue { ptr, i32 } %lpad.val, i32 %sel, 1
  resume { ptr, i32 } %lpad.val2
}

; Function Attrs: mustprogress nounwind uwtable
define linkonce_odr void @_ZN9grpc_core19LoadBalancingPolicy6ConfigD2Ev(ptr noundef nonnull align 8 dereferenceable(16) %this) unnamed_addr #5 comdat align 2 {
entry:
  %this.addr = alloca ptr, align 8
  store ptr %this, ptr %this.addr, align 8
  %this1 = load ptr, ptr %this.addr, align 8
  call void @_ZN9grpc_core10RefCountedINS_19LoadBalancingPolicy6ConfigENS_19PolymorphicRefCountENS_11UnrefDeleteEED2Ev(ptr noundef nonnull align 8 dereferenceable(16) %this1) #3
  ret void
}

; Function Attrs: mustprogress nounwind uwtable
define linkonce_odr void @_ZN9grpc_core19LoadBalancingPolicy6ConfigD0Ev(ptr noundef nonnull align 8 dereferenceable(16) %this) unnamed_addr #5 comdat align 2 {
entry:
  %this.addr = alloca ptr, align 8
  store ptr %this, ptr %this.addr, align 8
  call void @llvm.trap() #15
  unreachable
}

; Function Attrs: mustprogress nounwind uwtable
define linkonce_odr void @_ZN9grpc_core19PolymorphicRefCountC2Ev(ptr noundef nonnull align 8 dereferenceable(8) %this) unnamed_addr #5 comdat align 2 {
entry:
  %this.addr = alloca ptr, align 8
  store ptr %this, ptr %this.addr, align 8
  %this1 = load ptr, ptr %this.addr, align 8
  store ptr getelementptr inbounds ({ [4 x ptr] }, ptr @_ZTVN9grpc_core19PolymorphicRefCountE, i32 0, inrange i32 0, i32 2), ptr %this1, align 8
  ret void
}

; Function Attrs: mustprogress nounwind uwtable
define linkonce_odr void @_ZN9grpc_core8RefCountC2ElPKc(ptr noundef nonnull align 8 dereferenceable(8) %this, i64 noundef %init, ptr noundef %0) unnamed_addr #5 comdat align 2 {
entry:
  %this.addr = alloca ptr, align 8
  %init.addr = alloca i64, align 8
  %.addr = alloca ptr, align 8
  store ptr %this, ptr %this.addr, align 8
  store i64 %init, ptr %init.addr, align 8
  store ptr %0, ptr %.addr, align 8
  %this1 = load ptr, ptr %this.addr, align 8
  %value_ = getelementptr inbounds %"class.grpc_core::RefCount", ptr %this1, i32 0, i32 0
  %1 = load i64, ptr %init.addr, align 8
  call void @_ZNSt6atomicIlEC2El(ptr noundef nonnull align 8 dereferenceable(8) %value_, i64 noundef %1) #3
  ret void
}

; Function Attrs: mustprogress nounwind uwtable
define linkonce_odr void @_ZN9grpc_core10RefCountedINS_19LoadBalancingPolicy6ConfigENS_19PolymorphicRefCountENS_11UnrefDeleteEED2Ev(ptr noundef nonnull align 8 dereferenceable(16) %this) unnamed_addr #5 comdat align 2 {
entry:
  %this.addr = alloca ptr, align 8
  store ptr %this, ptr %this.addr, align 8
  %this1 = load ptr, ptr %this.addr, align 8
  call void @_ZN9grpc_core19PolymorphicRefCountD2Ev(ptr noundef nonnull align 8 dereferenceable(8) %this1) #3
  ret void
}

; Function Attrs: mustprogress nounwind uwtable
define linkonce_odr void @_ZN9grpc_core10RefCountedINS_19LoadBalancingPolicy6ConfigENS_19PolymorphicRefCountENS_11UnrefDeleteEED0Ev(ptr noundef nonnull align 8 dereferenceable(16) %this) unnamed_addr #5 comdat align 2 {
entry:
  %this.addr = alloca ptr, align 8
  store ptr %this, ptr %this.addr, align 8
  %this1 = load ptr, ptr %this.addr, align 8
  call void @_ZN9grpc_core10RefCountedINS_19LoadBalancingPolicy6ConfigENS_19PolymorphicRefCountENS_11UnrefDeleteEED2Ev(ptr noundef nonnull align 8 dereferenceable(16) %this1) #3
  call void @_ZdlPv(ptr noundef %this1) #16
  ret void
}

; Function Attrs: mustprogress nounwind uwtable
define linkonce_odr void @_ZN9grpc_core19PolymorphicRefCountD2Ev(ptr noundef nonnull align 8 dereferenceable(8) %this) unnamed_addr #5 comdat align 2 {
entry:
  %this.addr = alloca ptr, align 8
  store ptr %this, ptr %this.addr, align 8
  ret void
}

; Function Attrs: mustprogress nounwind uwtable
define linkonce_odr void @_ZN9grpc_core19PolymorphicRefCountD0Ev(ptr noundef nonnull align 8 dereferenceable(8) %this) unnamed_addr #5 comdat align 2 {
entry:
  %this.addr = alloca ptr, align 8
  store ptr %this, ptr %this.addr, align 8
  %this1 = load ptr, ptr %this.addr, align 8
  call void @_ZN9grpc_core19PolymorphicRefCountD2Ev(ptr noundef nonnull align 8 dereferenceable(8) %this1) #3
  call void @_ZdlPv(ptr noundef %this1) #16
  ret void
}

; Function Attrs: mustprogress nounwind uwtable
define linkonce_odr void @_ZNSt6atomicIlEC2El(ptr noundef nonnull align 8 dereferenceable(8) %this, i64 noundef %__i) unnamed_addr #5 comdat align 2 {
entry:
  %this.addr = alloca ptr, align 8
  %__i.addr = alloca i64, align 8
  store ptr %this, ptr %this.addr, align 8
  store i64 %__i, ptr %__i.addr, align 8
  %this1 = load ptr, ptr %this.addr, align 8
  %0 = load i64, ptr %__i.addr, align 8
  call void @_ZNSt13__atomic_baseIlEC2El(ptr noundef nonnull align 8 dereferenceable(8) %this1, i64 noundef %0) #3
  ret void
}

; Function Attrs: mustprogress nounwind uwtable
define linkonce_odr void @_ZNSt13__atomic_baseIlEC2El(ptr noundef nonnull align 8 dereferenceable(8) %this, i64 noundef %__i) unnamed_addr #5 comdat align 2 {
entry:
  %this.addr = alloca ptr, align 8
  %__i.addr = alloca i64, align 8
  store ptr %this, ptr %this.addr, align 8
  store i64 %__i, ptr %__i.addr, align 8
  %this1 = load ptr, ptr %this.addr, align 8
  %_M_i = getelementptr inbounds %"struct.std::__atomic_base.96", ptr %this1, i32 0, i32 0
  %0 = load i64, ptr %__i.addr, align 8
  store i64 %0, ptr %_M_i, align 8
  ret void
}

; Function Attrs: cold noreturn nounwind memory(inaccessiblemem: write)
declare void @llvm.trap() #12

; Function Attrs: mustprogress nounwind uwtable
define linkonce_odr { i64, ptr } @_ZN9grpc_core23XdsOverrideHostLbConfig4NameEv() #5 comdat align 2 {
entry:
  %retval = alloca %"class.std::basic_string_view", align 8
  call void @_ZNSt17basic_string_viewIcSt11char_traitsIcEEC2EPKc(ptr noundef nonnull align 8 dereferenceable(16) %retval, ptr noundef @.str.18) #3
  %0 = load { i64, ptr }, ptr %retval, align 8
  ret { i64, ptr } %0
}

; Function Attrs: mustprogress uwtable
define linkonce_odr void @_ZN9grpc_core13RefCountedPtrINS_23XdsOverrideHostLbConfigEE5resetEPS1_(ptr noundef nonnull align 8 dereferenceable(8) %this, ptr noundef %value) #4 comdat align 2 {
entry:
  %this.addr = alloca ptr, align 8
  %value.addr = alloca ptr, align 8
  %old_value = alloca ptr, align 8
  store ptr %this, ptr %this.addr, align 8
  store ptr %value, ptr %value.addr, align 8
  %this1 = load ptr, ptr %this.addr, align 8
  %value_ = getelementptr inbounds %"class.grpc_core::RefCountedPtr.125", ptr %this1, i32 0, i32 0
  %call = call noundef ptr @_ZSt8exchangeIPN9grpc_core23XdsOverrideHostLbConfigERS2_ET_RS4_OT0_(ptr noundef nonnull align 8 dereferenceable(8) %value_, ptr noundef nonnull align 8 dereferenceable(8) %value.addr) #3
  store ptr %call, ptr %old_value, align 8
  %0 = load ptr, ptr %old_value, align 8
  %cmp = icmp ne ptr %0, null
  br i1 %cmp, label %if.then, label %if.end

if.then:                                          ; preds = %entry
  %1 = load ptr, ptr %old_value, align 8
  call void @_ZNK9grpc_core10RefCountedINS_19LoadBalancingPolicy6ConfigENS_19PolymorphicRefCountENS_11UnrefDeleteEE5UnrefEv(ptr noundef nonnull align 8 dereferenceable(16) %1)
  br label %if.end

if.end:                                           ; preds = %if.then, %entry
  ret void
}

; Function Attrs: mustprogress nounwind uwtable
define linkonce_odr noundef ptr @_ZSt8exchangeIPN9grpc_core23XdsOverrideHostLbConfigEDnET_RS3_OT0_(ptr noundef nonnull align 8 dereferenceable(8) %__obj, ptr noundef nonnull align 8 dereferenceable(8) %__new_val) #5 comdat personality ptr @__gxx_personality_v0 {
entry:
  %__obj.addr = alloca ptr, align 8
  %__new_val.addr = alloca ptr, align 8
  store ptr %__obj, ptr %__obj.addr, align 8
  store ptr %__new_val, ptr %__new_val.addr, align 8
  %0 = load ptr, ptr %__obj.addr, align 8
  %1 = load ptr, ptr %__new_val.addr, align 8
  %call = invoke noundef ptr @_ZSt10__exchangeIPN9grpc_core23XdsOverrideHostLbConfigEDnET_RS3_OT0_(ptr noundef nonnull align 8 dereferenceable(8) %0, ptr noundef nonnull align 8 dereferenceable(8) %1)
          to label %invoke.cont unwind label %terminate.lpad

invoke.cont:                                      ; preds = %entry
  ret ptr %call

terminate.lpad:                                   ; preds = %entry
  %2 = landingpad { ptr, i32 }
          catch ptr null
  %3 = extractvalue { ptr, i32 } %2, 0
  call void @__clang_call_terminate(ptr %3) #15
  unreachable
}

; Function Attrs: mustprogress nounwind uwtable
define linkonce_odr noundef ptr @_ZSt8exchangeIPN9grpc_core23XdsOverrideHostLbConfigERS2_ET_RS4_OT0_(ptr noundef nonnull align 8 dereferenceable(8) %__obj, ptr noundef nonnull align 8 dereferenceable(8) %__new_val) #5 comdat personality ptr @__gxx_personality_v0 {
entry:
  %__obj.addr = alloca ptr, align 8
  %__new_val.addr = alloca ptr, align 8
  store ptr %__obj, ptr %__obj.addr, align 8
  store ptr %__new_val, ptr %__new_val.addr, align 8
  %0 = load ptr, ptr %__obj.addr, align 8
  %1 = load ptr, ptr %__new_val.addr, align 8
  %call = invoke noundef ptr @_ZSt10__exchangeIPN9grpc_core23XdsOverrideHostLbConfigERS2_ET_RS4_OT0_(ptr noundef nonnull align 8 dereferenceable(8) %0, ptr noundef nonnull align 8 dereferenceable(8) %1)
          to label %invoke.cont unwind label %terminate.lpad

invoke.cont:                                      ; preds = %entry
  ret ptr %call

terminate.lpad:                                   ; preds = %entry
  %2 = landingpad { ptr, i32 }
          catch ptr null
  %3 = extractvalue { ptr, i32 } %2, 0
  call void @__clang_call_terminate(ptr %3) #15
  unreachable
}

; Function Attrs: mustprogress nounwind uwtable
define linkonce_odr noundef ptr @_ZSt10__exchangeIPN9grpc_core23XdsOverrideHostLbConfigERS2_ET_RS4_OT0_(ptr noundef nonnull align 8 dereferenceable(8) %__obj, ptr noundef nonnull align 8 dereferenceable(8) %__new_val) #5 comdat {
entry:
  %__obj.addr = alloca ptr, align 8
  %__new_val.addr = alloca ptr, align 8
  %__old_val = alloca ptr, align 8
  store ptr %__obj, ptr %__obj.addr, align 8
  store ptr %__new_val, ptr %__new_val.addr, align 8
  %0 = load ptr, ptr %__obj.addr, align 8
  %1 = load ptr, ptr %0, align 8
  store ptr %1, ptr %__old_val, align 8
  %2 = load ptr, ptr %__new_val.addr, align 8
  %3 = load ptr, ptr %2, align 8
  %4 = load ptr, ptr %__obj.addr, align 8
  store ptr %3, ptr %4, align 8
  %5 = load ptr, ptr %__old_val, align 8
  ret ptr %5
}

; Function Attrs: mustprogress nounwind uwtable
define linkonce_odr noundef ptr @_ZSt10__exchangeIPN9grpc_core23XdsOverrideHostLbConfigEDnET_RS3_OT0_(ptr noundef nonnull align 8 dereferenceable(8) %__obj, ptr noundef nonnull align 8 dereferenceable(8) %__new_val) #5 comdat {
entry:
  %__obj.addr = alloca ptr, align 8
  %__new_val.addr = alloca ptr, align 8
  %__old_val = alloca ptr, align 8
  store ptr %__obj, ptr %__obj.addr, align 8
  store ptr %__new_val, ptr %__new_val.addr, align 8
  %0 = load ptr, ptr %__obj.addr, align 8
  %1 = load ptr, ptr %0, align 8
  store ptr %1, ptr %__old_val, align 8
  %2 = load ptr, ptr %__obj.addr, align 8
  store ptr null, ptr %2, align 8
  %3 = load ptr, ptr %__old_val, align 8
  ret ptr %3
}

; Function Attrs: mustprogress uwtable
define linkonce_odr noundef ptr @_ZN9grpc_core11json_detail13LoaderForTypeINS_23XdsOverrideHostLbConfigEEEPKNS0_15LoaderInterfaceEv() #4 comdat {
entry:
  %call = call noundef ptr @_ZN9grpc_core19NoDestructSingletonINS_11json_detail10AutoLoaderINS_23XdsOverrideHostLbConfigEEEE3GetEv()
  ret ptr %call
}

; Function Attrs: mustprogress uwtable
define linkonce_odr noundef ptr @_ZN9grpc_core19NoDestructSingletonINS_11json_detail10AutoLoaderINS_23XdsOverrideHostLbConfigEEEE3GetEv() #4 comdat align 2 {
entry:
  %call = call noundef nonnull align 8 dereferenceable(8) ptr @_ZN9grpc_core10NoDestructINS_11json_detail10AutoLoaderINS_23XdsOverrideHostLbConfigEEEEdeEv(ptr noundef nonnull align 8 dereferenceable(8) @_ZN9grpc_core19NoDestructSingletonINS_11json_detail10AutoLoaderINS_23XdsOverrideHostLbConfigEEEE6value_E)
  ret ptr %call
}

; Function Attrs: mustprogress uwtable
define linkonce_odr noundef nonnull align 8 dereferenceable(8) ptr @_ZN9grpc_core10NoDestructINS_11json_detail10AutoLoaderINS_23XdsOverrideHostLbConfigEEEEdeEv(ptr noundef nonnull align 8 dereferenceable(8) %this) #4 comdat align 2 {
entry:
  %this.addr = alloca ptr, align 8
  store ptr %this, ptr %this.addr, align 8
  %this1 = load ptr, ptr %this.addr, align 8
  %call = call noundef ptr @_ZN9grpc_core10NoDestructINS_11json_detail10AutoLoaderINS_23XdsOverrideHostLbConfigEEEE3getEv(ptr noundef nonnull align 8 dereferenceable(8) %this1)
  ret ptr %call
}

; Function Attrs: mustprogress nounwind uwtable
define linkonce_odr noundef ptr @_ZN9grpc_core10NoDestructINS_11json_detail10AutoLoaderINS_23XdsOverrideHostLbConfigEEEE3getEv(ptr noundef nonnull align 8 dereferenceable(8) %this) #5 comdat align 2 {
entry:
  %this.addr = alloca ptr, align 8
  store ptr %this, ptr %this.addr, align 8
  %this1 = load ptr, ptr %this.addr, align 8
  %space_ = getelementptr inbounds %"class.grpc_core::NoDestruct.108", ptr %this1, i32 0, i32 0
  ret ptr %space_
}

; Function Attrs: mustprogress nounwind uwtable
define internal void @_ZN9grpc_core12_GLOBAL__N_124XdsOverrideHostLbFactoryC2Ev(ptr noundef nonnull align 8 dereferenceable(8) %this) unnamed_addr #5 align 2 {
entry:
  %this.addr = alloca ptr, align 8
  store ptr %this, ptr %this.addr, align 8
  %this1 = load ptr, ptr %this.addr, align 8
  call void @_ZN9grpc_core26LoadBalancingPolicyFactoryC2Ev(ptr noundef nonnull align 8 dereferenceable(8) %this1) #3
  store ptr getelementptr inbounds ({ [7 x ptr] }, ptr @_ZTVN9grpc_core12_GLOBAL__N_124XdsOverrideHostLbFactoryE, i32 0, inrange i32 0, i32 2), ptr %this1, align 8
  ret void
}

; Function Attrs: mustprogress nounwind uwtable
define internal void @_ZNSt10unique_ptrIN9grpc_core12_GLOBAL__N_124XdsOverrideHostLbFactoryESt14default_deleteIS2_EEC2IS4_vEEPS2_(ptr noundef nonnull align 8 dereferenceable(8) %this, ptr noundef %__p) unnamed_addr #5 align 2 personality ptr @__gxx_personality_v0 {
entry:
  %this.addr = alloca ptr, align 8
  %__p.addr = alloca ptr, align 8
  store ptr %this, ptr %this.addr, align 8
  store ptr %__p, ptr %__p.addr, align 8
  %this1 = load ptr, ptr %this.addr, align 8
  %_M_t = getelementptr inbounds %"class.std::unique_ptr.43", ptr %this1, i32 0, i32 0
  %0 = load ptr, ptr %__p.addr, align 8
  invoke void @_ZNSt15__uniq_ptr_dataIN9grpc_core12_GLOBAL__N_124XdsOverrideHostLbFactoryESt14default_deleteIS2_ELb1ELb1EECI2St15__uniq_ptr_implIS2_S4_EEPS2_(ptr noundef nonnull align 8 dereferenceable(8) %_M_t, ptr noundef %0)
          to label %invoke.cont unwind label %terminate.lpad

invoke.cont:                                      ; preds = %entry
  ret void

terminate.lpad:                                   ; preds = %entry
  %1 = landingpad { ptr, i32 }
          catch ptr null
  %2 = extractvalue { ptr, i32 } %1, 0
  call void @__clang_call_terminate(ptr %2) #15
  unreachable
}

; Function Attrs: mustprogress nounwind uwtable
define linkonce_odr void @_ZN9grpc_core26LoadBalancingPolicyFactoryC2Ev(ptr noundef nonnull align 8 dereferenceable(8) %this) unnamed_addr #5 comdat align 2 {
entry:
  %this.addr = alloca ptr, align 8
  store ptr %this, ptr %this.addr, align 8
  %this1 = load ptr, ptr %this.addr, align 8
  store ptr getelementptr inbounds ({ [7 x ptr] }, ptr @_ZTVN9grpc_core26LoadBalancingPolicyFactoryE, i32 0, inrange i32 0, i32 2), ptr %this1, align 8
  ret void
}

; Function Attrs: mustprogress nounwind uwtable
define internal void @_ZN9grpc_core12_GLOBAL__N_124XdsOverrideHostLbFactoryD2Ev(ptr noundef nonnull align 8 dereferenceable(8) %this) unnamed_addr #5 align 2 {
entry:
  %this.addr = alloca ptr, align 8
  store ptr %this, ptr %this.addr, align 8
  %this1 = load ptr, ptr %this.addr, align 8
  call void @_ZN9grpc_core26LoadBalancingPolicyFactoryD2Ev(ptr noundef nonnull align 8 dereferenceable(8) %this1) #3
  ret void
}

; Function Attrs: mustprogress nounwind uwtable
define internal void @_ZN9grpc_core12_GLOBAL__N_124XdsOverrideHostLbFactoryD0Ev(ptr noundef nonnull align 8 dereferenceable(8) %this) unnamed_addr #5 align 2 {
entry:
  %this.addr = alloca ptr, align 8
  store ptr %this, ptr %this.addr, align 8
  %this1 = load ptr, ptr %this.addr, align 8
  call void @_ZN9grpc_core12_GLOBAL__N_124XdsOverrideHostLbFactoryD2Ev(ptr noundef nonnull align 8 dereferenceable(8) %this1) #3
  call void @_ZdlPv(ptr noundef %this1) #16
  ret void
}

; Function Attrs: mustprogress uwtable
define internal void @_ZNK9grpc_core12_GLOBAL__N_124XdsOverrideHostLbFactory25CreateLoadBalancingPolicyENS_19LoadBalancingPolicy4ArgsE(ptr noalias sret(%"class.std::unique_ptr.126") align 8 %agg.result, ptr noundef nonnull align 8 dereferenceable(8) %this, ptr noundef %args) unnamed_addr #4 align 2 {
entry:
  %result.ptr = alloca ptr, align 8
  %this.addr = alloca ptr, align 8
  %args.indirect_addr = alloca ptr, align 8
  %ref.tmp = alloca %"class.std::unique_ptr.143", align 8
  store ptr %agg.result, ptr %result.ptr, align 8
  store ptr %this, ptr %this.addr, align 8
  store ptr %args, ptr %args.indirect_addr, align 8
  call void @_ZN9grpc_core14MakeOrphanableINS_12_GLOBAL__N_117XdsOverrideHostLbEJNS_19LoadBalancingPolicy4ArgsEEEESt10unique_ptrIT_NS_16OrphanableDeleteEEDpOT0_(ptr sret(%"class.std::unique_ptr.143") align 8 %ref.tmp, ptr noundef nonnull align 8 dereferenceable(32) %args)
  call void @_ZNSt10unique_ptrIN9grpc_core19LoadBalancingPolicyENS0_16OrphanableDeleteEEC2INS0_12_GLOBAL__N_117XdsOverrideHostLbES2_vEEOS_IT_T0_E(ptr noundef nonnull align 8 dereferenceable(8) %agg.result, ptr noundef nonnull align 8 dereferenceable(8) %ref.tmp) #3
  call void @_ZNSt10unique_ptrIN9grpc_core12_GLOBAL__N_117XdsOverrideHostLbENS0_16OrphanableDeleteEED2Ev(ptr noundef nonnull align 8 dereferenceable(8) %ref.tmp) #3
  ret void
}

; Function Attrs: mustprogress nounwind uwtable
define internal { i64, ptr } @_ZNK9grpc_core12_GLOBAL__N_124XdsOverrideHostLbFactory4nameEv(ptr noundef nonnull align 8 dereferenceable(8) %this) unnamed_addr #5 align 2 {
entry:
  %retval = alloca %"class.std::basic_string_view", align 8
  %this.addr = alloca ptr, align 8
  store ptr %this, ptr %this.addr, align 8
  %call = call { i64, ptr } @_ZN9grpc_core23XdsOverrideHostLbConfig4NameEv()
  %0 = getelementptr inbounds { i64, ptr }, ptr %retval, i32 0, i32 0
  %1 = extractvalue { i64, ptr } %call, 0
  store i64 %1, ptr %0, align 8
  %2 = getelementptr inbounds { i64, ptr }, ptr %retval, i32 0, i32 1
  %3 = extractvalue { i64, ptr } %call, 1
  store ptr %3, ptr %2, align 8
  %4 = load { i64, ptr }, ptr %retval, align 8
  ret { i64, ptr } %4
}

; Function Attrs: mustprogress uwtable
define internal void @_ZNK9grpc_core12_GLOBAL__N_124XdsOverrideHostLbFactory24ParseLoadBalancingConfigERKNS_12experimental4JsonE(ptr noalias sret(%"class.absl::lts_20230802::StatusOr") align 8 %agg.result, ptr noundef nonnull align 8 dereferenceable(8) %this, ptr noundef nonnull align 8 dereferenceable(56) %json) unnamed_addr #4 align 2 personality ptr @__gxx_personality_v0 {
entry:
  %result.ptr = alloca ptr, align 8
  %this.addr = alloca ptr, align 8
  %json.addr = alloca ptr, align 8
  %ref.tmp = alloca %"class.absl::lts_20230802::StatusOr.445", align 8
  %ref.tmp2 = alloca %"class.grpc_core::JsonArgs", align 8
  %agg.tmp = alloca %"class.std::basic_string_view", align 8
  %exn.slot = alloca ptr, align 8
  %ehselector.slot = alloca i32, align 4
  store ptr %agg.result, ptr %result.ptr, align 8
  store ptr %this, ptr %this.addr, align 8
  store ptr %json, ptr %json.addr, align 8
  %0 = load ptr, ptr %json.addr, align 8
  call void @llvm.memset.p0.i64(ptr align 8 %ref.tmp2, i8 0, i64 8, i1 false)
  call void @_ZN9grpc_core8JsonArgsC2Ev(ptr noundef nonnull align 8 dereferenceable(8) %ref.tmp2) #3
  call void @_ZNSt17basic_string_viewIcSt11char_traitsIcEEC2EPKc(ptr noundef nonnull align 8 dereferenceable(16) %agg.tmp, ptr noundef @.str.56) #3
  %1 = getelementptr inbounds { i64, ptr }, ptr %agg.tmp, i32 0, i32 0
  %2 = load i64, ptr %1, align 8
  %3 = getelementptr inbounds { i64, ptr }, ptr %agg.tmp, i32 0, i32 1
  %4 = load ptr, ptr %3, align 8
  invoke void @_ZN9grpc_core12LoadFromJsonINS_13RefCountedPtrINS_23XdsOverrideHostLbConfigEEEEEN4absl12lts_202308028StatusOrIT_EERKNS_12experimental4JsonERKNS_8JsonArgsESt17basic_string_viewIcSt11char_traitsIcEE(ptr sret(%"class.absl::lts_20230802::StatusOr.445") align 8 %ref.tmp, ptr noundef nonnull align 8 dereferenceable(56) %0, ptr noundef nonnull align 8 dereferenceable(8) %ref.tmp2, i64 %2, ptr %4)
          to label %invoke.cont unwind label %lpad

invoke.cont:                                      ; preds = %entry
  invoke void @_ZN4absl12lts_202308028StatusOrIN9grpc_core13RefCountedPtrINS2_19LoadBalancingPolicy6ConfigEEEEC2INS3_INS2_23XdsOverrideHostLbConfigEEETnNSt9enable_ifIXsr4absl11conjunctionINS0_8negationISt7is_sameIS6_T_EEESt16is_constructibleIS6_JOSE_EESt14is_convertibleISI_S6_ENSC_INS0_11disjunctionIJSH_IS6_JRNS1_ISE_EEEESH_IS6_JRKSN_EESH_IS6_JOSN_EESH_IS6_JOSQ_EESK_ISO_S6_ESK_ISR_S6_ESK_IST_S6_ESK_ISV_S6_EEEEEEEE5valueEiE4typeELi0EEEST_(ptr noundef nonnull align 8 dereferenceable(16) %agg.result, ptr noundef nonnull align 8 dereferenceable(16) %ref.tmp)
          to label %invoke.cont4 unwind label %lpad3

invoke.cont4:                                     ; preds = %invoke.cont
  call void @_ZN4absl12lts_202308028StatusOrIN9grpc_core13RefCountedPtrINS2_23XdsOverrideHostLbConfigEEEED2Ev(ptr noundef nonnull align 8 dereferenceable(16) %ref.tmp) #3
  call void @_ZN9grpc_core8JsonArgsD2Ev(ptr noundef nonnull align 8 dereferenceable(8) %ref.tmp2) #3
  ret void

lpad:                                             ; preds = %entry
  %5 = landingpad { ptr, i32 }
          cleanup
  %6 = extractvalue { ptr, i32 } %5, 0
  store ptr %6, ptr %exn.slot, align 8
  %7 = extractvalue { ptr, i32 } %5, 1
  store i32 %7, ptr %ehselector.slot, align 4
  br label %ehcleanup

lpad3:                                            ; preds = %invoke.cont
  %8 = landingpad { ptr, i32 }
          cleanup
  %9 = extractvalue { ptr, i32 } %8, 0
  store ptr %9, ptr %exn.slot, align 8
  %10 = extractvalue { ptr, i32 } %8, 1
  store i32 %10, ptr %ehselector.slot, align 4
  call void @_ZN4absl12lts_202308028StatusOrIN9grpc_core13RefCountedPtrINS2_23XdsOverrideHostLbConfigEEEED2Ev(ptr noundef nonnull align 8 dereferenceable(16) %ref.tmp) #3
  br label %ehcleanup

ehcleanup:                                        ; preds = %lpad3, %lpad
  call void @_ZN9grpc_core8JsonArgsD2Ev(ptr noundef nonnull align 8 dereferenceable(8) %ref.tmp2) #3
  br label %eh.resume

eh.resume:                                        ; preds = %ehcleanup
  %exn = load ptr, ptr %exn.slot, align 8
  %sel = load i32, ptr %ehselector.slot, align 4
  %lpad.val = insertvalue { ptr, i32 } poison, ptr %exn, 0
  %lpad.val5 = insertvalue { ptr, i32 } %lpad.val, i32 %sel, 1
  resume { ptr, i32 } %lpad.val5
}

; Function Attrs: mustprogress nounwind uwtable
define linkonce_odr void @_ZN9grpc_core26LoadBalancingPolicyFactoryD2Ev(ptr noundef nonnull align 8 dereferenceable(8) %this) unnamed_addr #5 comdat align 2 {
entry:
  %this.addr = alloca ptr, align 8
  store ptr %this, ptr %this.addr, align 8
  ret void
}

; Function Attrs: mustprogress nounwind uwtable
define linkonce_odr void @_ZN9grpc_core26LoadBalancingPolicyFactoryD0Ev(ptr noundef nonnull align 8 dereferenceable(8) %this) unnamed_addr #5 comdat align 2 {
entry:
  %this.addr = alloca ptr, align 8
  store ptr %this, ptr %this.addr, align 8
  call void @llvm.trap() #15
  unreachable
}

; Function Attrs: mustprogress uwtable
define internal void @_ZN9grpc_core14MakeOrphanableINS_12_GLOBAL__N_117XdsOverrideHostLbEJNS_19LoadBalancingPolicy4ArgsEEEESt10unique_ptrIT_NS_16OrphanableDeleteEEDpOT0_(ptr noalias sret(%"class.std::unique_ptr.143") align 8 %agg.result, ptr noundef nonnull align 8 dereferenceable(32) %args) #4 personality ptr @__gxx_personality_v0 {
entry:
  %result.ptr = alloca ptr, align 8
  %args.addr = alloca ptr, align 8
  %agg.tmp = alloca %"struct.grpc_core::LoadBalancingPolicy::Args", align 8
  %exn.slot = alloca ptr, align 8
  %ehselector.slot = alloca i32, align 4
  %cleanup.isactive = alloca i1, align 1
  store ptr %agg.result, ptr %result.ptr, align 8
  store ptr %args, ptr %args.addr, align 8
  %call = call noalias noundef nonnull ptr @_Znwm(i64 noundef 160) #14
  store i1 true, ptr %cleanup.isactive, align 1
  %0 = load ptr, ptr %args.addr, align 8
  call void @_ZN9grpc_core19LoadBalancingPolicy4ArgsC2EOS1_(ptr noundef nonnull align 8 dereferenceable(32) %agg.tmp, ptr noundef nonnull align 8 dereferenceable(32) %0) #3
  invoke void @_ZN9grpc_core12_GLOBAL__N_117XdsOverrideHostLbC2ENS_19LoadBalancingPolicy4ArgsE(ptr noundef nonnull align 8 dereferenceable(160) %call, ptr noundef %agg.tmp)
          to label %invoke.cont unwind label %lpad

invoke.cont:                                      ; preds = %entry
  store i1 false, ptr %cleanup.isactive, align 1
  call void @_ZNSt10unique_ptrIN9grpc_core12_GLOBAL__N_117XdsOverrideHostLbENS0_16OrphanableDeleteEEC2IS3_vEEPS2_(ptr noundef nonnull align 8 dereferenceable(8) %agg.result, ptr noundef %call) #3
  call void @_ZN9grpc_core19LoadBalancingPolicy4ArgsD2Ev(ptr noundef nonnull align 8 dereferenceable(32) %agg.tmp) #3
  ret void

lpad:                                             ; preds = %entry
  %1 = landingpad { ptr, i32 }
          cleanup
  %2 = extractvalue { ptr, i32 } %1, 0
  store ptr %2, ptr %exn.slot, align 8
  %3 = extractvalue { ptr, i32 } %1, 1
  store i32 %3, ptr %ehselector.slot, align 4
  call void @_ZN9grpc_core19LoadBalancingPolicy4ArgsD2Ev(ptr noundef nonnull align 8 dereferenceable(32) %agg.tmp) #3
  %cleanup.is_active = load i1, ptr %cleanup.isactive, align 1
  br i1 %cleanup.is_active, label %cleanup.action, label %cleanup.done

cleanup.action:                                   ; preds = %lpad
  call void @_ZdlPv(ptr noundef %call) #16
  br label %cleanup.done

cleanup.done:                                     ; preds = %cleanup.action, %lpad
  br label %eh.resume

eh.resume:                                        ; preds = %cleanup.done
  %exn = load ptr, ptr %exn.slot, align 8
  %sel = load i32, ptr %ehselector.slot, align 4
  %lpad.val = insertvalue { ptr, i32 } poison, ptr %exn, 0
  %lpad.val1 = insertvalue { ptr, i32 } %lpad.val, i32 %sel, 1
  resume { ptr, i32 } %lpad.val1
}

; Function Attrs: mustprogress nounwind uwtable
define internal void @_ZNSt10unique_ptrIN9grpc_core19LoadBalancingPolicyENS0_16OrphanableDeleteEEC2INS0_12_GLOBAL__N_117XdsOverrideHostLbES2_vEEOS_IT_T0_E(ptr noundef nonnull align 8 dereferenceable(8) %this, ptr noundef nonnull align 8 dereferenceable(8) %__u) unnamed_addr #5 align 2 personality ptr @__gxx_personality_v0 {
entry:
  %this.addr = alloca ptr, align 8
  %__u.addr = alloca ptr, align 8
  store ptr %this, ptr %this.addr, align 8
  store ptr %__u, ptr %__u.addr, align 8
  %this1 = load ptr, ptr %this.addr, align 8
  %_M_t = getelementptr inbounds %"class.std::unique_ptr.126", ptr %this1, i32 0, i32 0
  %0 = load ptr, ptr %__u.addr, align 8
  %call = call noundef ptr @_ZNSt10unique_ptrIN9grpc_core12_GLOBAL__N_117XdsOverrideHostLbENS0_16OrphanableDeleteEE7releaseEv(ptr noundef nonnull align 8 dereferenceable(8) %0) #3
  %1 = load ptr, ptr %__u.addr, align 8
  %call2 = call noundef nonnull align 1 dereferenceable(1) ptr @_ZNSt10unique_ptrIN9grpc_core12_GLOBAL__N_117XdsOverrideHostLbENS0_16OrphanableDeleteEE11get_deleterEv(ptr noundef nonnull align 8 dereferenceable(8) %1) #3
  invoke void @_ZNSt15__uniq_ptr_dataIN9grpc_core19LoadBalancingPolicyENS0_16OrphanableDeleteELb1ELb1EECI2St15__uniq_ptr_implIS1_S2_EIS2_EEPS1_OT_(ptr noundef nonnull align 8 dereferenceable(8) %_M_t, ptr noundef %call, ptr noundef nonnull align 1 dereferenceable(1) %call2)
          to label %invoke.cont unwind label %terminate.lpad

invoke.cont:                                      ; preds = %entry
  ret void

terminate.lpad:                                   ; preds = %entry
  %2 = landingpad { ptr, i32 }
          catch ptr null
  %3 = extractvalue { ptr, i32 } %2, 0
  call void @__clang_call_terminate(ptr %3) #15
  unreachable
}

; Function Attrs: mustprogress nounwind uwtable
define internal void @_ZNSt10unique_ptrIN9grpc_core12_GLOBAL__N_117XdsOverrideHostLbENS0_16OrphanableDeleteEED2Ev(ptr noundef nonnull align 8 dereferenceable(8) %this) unnamed_addr #5 align 2 personality ptr @__gxx_personality_v0 {
entry:
  %this.addr = alloca ptr, align 8
  %__ptr = alloca ptr, align 8
  store ptr %this, ptr %this.addr, align 8
  %this1 = load ptr, ptr %this.addr, align 8
  %_M_t = getelementptr inbounds %"class.std::unique_ptr.143", ptr %this1, i32 0, i32 0
  %call = call noundef nonnull align 8 dereferenceable(8) ptr @_ZNSt15__uniq_ptr_implIN9grpc_core12_GLOBAL__N_117XdsOverrideHostLbENS0_16OrphanableDeleteEE6_M_ptrEv(ptr noundef nonnull align 8 dereferenceable(8) %_M_t) #3
  store ptr %call, ptr %__ptr, align 8
  %0 = load ptr, ptr %__ptr, align 8
  %1 = load ptr, ptr %0, align 8
  %cmp = icmp ne ptr %1, null
  br i1 %cmp, label %if.then, label %if.end

if.then:                                          ; preds = %entry
  %call2 = call noundef nonnull align 1 dereferenceable(1) ptr @_ZNSt10unique_ptrIN9grpc_core12_GLOBAL__N_117XdsOverrideHostLbENS0_16OrphanableDeleteEE11get_deleterEv(ptr noundef nonnull align 8 dereferenceable(8) %this1) #3
  %2 = load ptr, ptr %__ptr, align 8
  %3 = load ptr, ptr %2, align 8
  invoke void @_ZN9grpc_core16OrphanableDeleteclINS_12_GLOBAL__N_117XdsOverrideHostLbEEEvPT_(ptr noundef nonnull align 1 dereferenceable(1) %call2, ptr noundef %3)
          to label %invoke.cont unwind label %terminate.lpad

invoke.cont:                                      ; preds = %if.then
  br label %if.end

if.end:                                           ; preds = %invoke.cont, %entry
  %4 = load ptr, ptr %__ptr, align 8
  store ptr null, ptr %4, align 8
  ret void

terminate.lpad:                                   ; preds = %if.then
  %5 = landingpad { ptr, i32 }
          catch ptr null
  %6 = extractvalue { ptr, i32 } %5, 0
  call void @__clang_call_terminate(ptr %6) #15
  unreachable
}

; Function Attrs: mustprogress nounwind uwtable
define linkonce_odr void @_ZN9grpc_core19LoadBalancingPolicy4ArgsC2EOS1_(ptr noundef nonnull align 8 dereferenceable(32) %this, ptr noundef nonnull align 8 dereferenceable(32) %0) unnamed_addr #5 comdat align 2 {
entry:
  %this.addr = alloca ptr, align 8
  %.addr = alloca ptr, align 8
  store ptr %this, ptr %this.addr, align 8
  store ptr %0, ptr %.addr, align 8
  %this1 = load ptr, ptr %this.addr, align 8
  %work_serializer = getelementptr inbounds %"struct.grpc_core::LoadBalancingPolicy::Args", ptr %this1, i32 0, i32 0
  %1 = load ptr, ptr %.addr, align 8
  %work_serializer2 = getelementptr inbounds %"struct.grpc_core::LoadBalancingPolicy::Args", ptr %1, i32 0, i32 0
  call void @_ZNSt10shared_ptrIN9grpc_core14WorkSerializerEEC2EOS2_(ptr noundef nonnull align 8 dereferenceable(16) %work_serializer, ptr noundef nonnull align 8 dereferenceable(16) %work_serializer2) #3
  %channel_control_helper = getelementptr inbounds %"struct.grpc_core::LoadBalancingPolicy::Args", ptr %this1, i32 0, i32 1
  %2 = load ptr, ptr %.addr, align 8
  %channel_control_helper3 = getelementptr inbounds %"struct.grpc_core::LoadBalancingPolicy::Args", ptr %2, i32 0, i32 1
  call void @_ZNSt10unique_ptrIN9grpc_core19LoadBalancingPolicy20ChannelControlHelperESt14default_deleteIS2_EEC2EOS5_(ptr noundef nonnull align 8 dereferenceable(8) %channel_control_helper, ptr noundef nonnull align 8 dereferenceable(8) %channel_control_helper3) #3
  %args = getelementptr inbounds %"struct.grpc_core::LoadBalancingPolicy::Args", ptr %this1, i32 0, i32 2
  %3 = load ptr, ptr %.addr, align 8
  %args4 = getelementptr inbounds %"struct.grpc_core::LoadBalancingPolicy::Args", ptr %3, i32 0, i32 2
  call void @_ZN9grpc_core11ChannelArgsC1EOS0_(ptr noundef nonnull align 8 dereferenceable(8) %args, ptr noundef nonnull align 8 dereferenceable(8) %args4) #3
  ret void
}

; Function Attrs: mustprogress uwtable
define internal void @_ZN9grpc_core12_GLOBAL__N_117XdsOverrideHostLbC2ENS_19LoadBalancingPolicy4ArgsE(ptr noundef nonnull align 8 dereferenceable(160) %this, ptr noundef %args) unnamed_addr #4 align 2 personality ptr @__gxx_personality_v0 {
entry:
  %this.addr = alloca ptr, align 8
  %args.indirect_addr = alloca ptr, align 8
  %agg.tmp = alloca %"struct.grpc_core::LoadBalancingPolicy::Args", align 8
  %exn.slot = alloca ptr, align 8
  %ehselector.slot = alloca i32, align 4
  store ptr %this, ptr %this.addr, align 8
  store ptr %args, ptr %args.indirect_addr, align 8
  %this1 = load ptr, ptr %this.addr, align 8
  call void @_ZN9grpc_core19LoadBalancingPolicy4ArgsC2EOS1_(ptr noundef nonnull align 8 dereferenceable(32) %agg.tmp, ptr noundef nonnull align 8 dereferenceable(32) %args) #3
  invoke void @_ZN9grpc_core19LoadBalancingPolicyC2ENS0_4ArgsEl(ptr noundef nonnull align 8 dereferenceable(56) %this1, ptr noundef %agg.tmp, i64 noundef 1)
          to label %invoke.cont unwind label %lpad

invoke.cont:                                      ; preds = %entry
  call void @_ZN9grpc_core19LoadBalancingPolicy4ArgsD2Ev(ptr noundef nonnull align 8 dereferenceable(32) %agg.tmp) #3
  store ptr getelementptr inbounds ({ [10 x ptr] }, ptr @_ZTVN9grpc_core12_GLOBAL__N_117XdsOverrideHostLbE, i32 0, inrange i32 0, i32 2), ptr %this1, align 8
  %config_ = getelementptr inbounds %"class.grpc_core::(anonymous namespace)::XdsOverrideHostLb", ptr %this1, i32 0, i32 1
  invoke void @_ZN9grpc_core13RefCountedPtrINS_23XdsOverrideHostLbConfigEEC2Ev(ptr noundef nonnull align 8 dereferenceable(8) %config_)
          to label %invoke.cont3 unwind label %lpad2

invoke.cont3:                                     ; preds = %invoke.cont
  %shutting_down_ = getelementptr inbounds %"class.grpc_core::(anonymous namespace)::XdsOverrideHostLb", ptr %this1, i32 0, i32 2
  store i8 0, ptr %shutting_down_, align 8
  %child_policy_ = getelementptr inbounds %"class.grpc_core::(anonymous namespace)::XdsOverrideHostLb", ptr %this1, i32 0, i32 3
  call void @_ZNSt10unique_ptrIN9grpc_core19LoadBalancingPolicyENS0_16OrphanableDeleteEEC2IS2_vEEv(ptr noundef nonnull align 8 dereferenceable(8) %child_policy_) #3
  %state_ = getelementptr inbounds %"class.grpc_core::(anonymous namespace)::XdsOverrideHostLb", ptr %this1, i32 0, i32 4
  store i32 1, ptr %state_, align 8
  %status_ = getelementptr inbounds %"class.grpc_core::(anonymous namespace)::XdsOverrideHostLb", ptr %this1, i32 0, i32 5
  invoke void @_ZN4absl12lts_202308026StatusC2Ev(ptr noundef nonnull align 8 dereferenceable(8) %status_)
          to label %invoke.cont5 unwind label %lpad4

invoke.cont5:                                     ; preds = %invoke.cont3
  %picker_ = getelementptr inbounds %"class.grpc_core::(anonymous namespace)::XdsOverrideHostLb", ptr %this1, i32 0, i32 6
  invoke void @_ZN9grpc_core13RefCountedPtrINS_19LoadBalancingPolicy16SubchannelPickerEEC2Ev(ptr noundef nonnull align 8 dereferenceable(8) %picker_)
          to label %invoke.cont7 unwind label %lpad6

invoke.cont7:                                     ; preds = %invoke.cont5
  %subchannel_map_mu_ = getelementptr inbounds %"class.grpc_core::(anonymous namespace)::XdsOverrideHostLb", ptr %this1, i32 0, i32 7
  invoke void @_ZN4absl12lts_202308025MutexC2Ev(ptr noundef nonnull align 8 dereferenceable(8) %subchannel_map_mu_)
          to label %invoke.cont9 unwind label %lpad8

invoke.cont9:                                     ; preds = %invoke.cont7
  %subchannel_map_ = getelementptr inbounds %"class.grpc_core::(anonymous namespace)::XdsOverrideHostLb", ptr %this1, i32 0, i32 8
  call void @_ZNSt3mapINSt7__cxx1112basic_stringIcSt11char_traitsIcESaIcEEEN9grpc_core12_GLOBAL__N_117XdsOverrideHostLb15SubchannelEntryESt4lessIvESaISt4pairIKS5_S9_EEEC2Ev(ptr noundef nonnull align 8 dereferenceable(48) %subchannel_map_) #3
  %call = invoke noundef zeroext i1 @_ZN9grpc_core9TraceFlag7enabledEv(ptr noundef nonnull align 8 dereferenceable(17) @_ZN9grpc_core31grpc_lb_xds_override_host_traceE)
          to label %invoke.cont11 unwind label %lpad10

invoke.cont11:                                    ; preds = %invoke.cont9
  br i1 %call, label %if.then, label %if.end

if.then:                                          ; preds = %invoke.cont11
  invoke void (ptr, i32, i32, ptr, ...) @gpr_log(ptr noundef @.str.19, i32 noundef 469, i32 noundef 1, ptr noundef @.str.20, ptr noundef %this1)
          to label %invoke.cont12 unwind label %lpad10

invoke.cont12:                                    ; preds = %if.then
  br label %if.end

lpad:                                             ; preds = %entry
  %0 = landingpad { ptr, i32 }
          cleanup
  %1 = extractvalue { ptr, i32 } %0, 0
  store ptr %1, ptr %exn.slot, align 8
  %2 = extractvalue { ptr, i32 } %0, 1
  store i32 %2, ptr %ehselector.slot, align 4
  call void @_ZN9grpc_core19LoadBalancingPolicy4ArgsD2Ev(ptr noundef nonnull align 8 dereferenceable(32) %agg.tmp) #3
  br label %eh.resume

lpad2:                                            ; preds = %invoke.cont
  %3 = landingpad { ptr, i32 }
          cleanup
  %4 = extractvalue { ptr, i32 } %3, 0
  store ptr %4, ptr %exn.slot, align 8
  %5 = extractvalue { ptr, i32 } %3, 1
  store i32 %5, ptr %ehselector.slot, align 4
  br label %ehcleanup16

lpad4:                                            ; preds = %invoke.cont3
  %6 = landingpad { ptr, i32 }
          cleanup
  %7 = extractvalue { ptr, i32 } %6, 0
  store ptr %7, ptr %exn.slot, align 8
  %8 = extractvalue { ptr, i32 } %6, 1
  store i32 %8, ptr %ehselector.slot, align 4
  br label %ehcleanup14

lpad6:                                            ; preds = %invoke.cont5
  %9 = landingpad { ptr, i32 }
          cleanup
  %10 = extractvalue { ptr, i32 } %9, 0
  store ptr %10, ptr %exn.slot, align 8
  %11 = extractvalue { ptr, i32 } %9, 1
  store i32 %11, ptr %ehselector.slot, align 4
  br label %ehcleanup13

lpad8:                                            ; preds = %invoke.cont7
  %12 = landingpad { ptr, i32 }
          cleanup
  %13 = extractvalue { ptr, i32 } %12, 0
  store ptr %13, ptr %exn.slot, align 8
  %14 = extractvalue { ptr, i32 } %12, 1
  store i32 %14, ptr %ehselector.slot, align 4
  br label %ehcleanup

lpad10:                                           ; preds = %if.then, %invoke.cont9
  %15 = landingpad { ptr, i32 }
          cleanup
  %16 = extractvalue { ptr, i32 } %15, 0
