target datalayout = "e-m:e-p270:32:32-p271:32:32-p272:64:64-i64:64-i128:128-f80:128-n8:16:32:64-S128"
target triple = "x86_64-unknown-linux-gnu"

%"class.std::ios_base::Init" = type { i8 }
%"struct.std::nullopt_t" = type { i8 }
%struct.grpc_channel_filter = type { ptr, ptr, ptr, ptr, i64, ptr, ptr, ptr, i64, ptr, ptr, ptr, ptr, ptr }
%"class.grpc_core::NoDestruct" = type { [8 x i8] }
%struct._upb_DefPool_Init = type { ptr, ptr, ptr, %struct.upb_StringView }
%struct.upb_StringView = type { ptr, i64 }
%struct.upb_MiniTable = type { ptr, ptr, i16, i16, i8, i8, i8, i8, [0 x %struct._upb_FastTable_Entry] }
%struct._upb_FastTable_Entry = type { i64, ptr }
%struct.upb_MiniTableField = type { i32, i16, i16, i16, i8, i8 }
%"struct.std::in_place_index_t" = type { i8 }
%"struct.std::in_place_t" = type { i8 }
%"struct.std::in_place_index_t.78" = type { i8 }
%"struct.std::in_place_index_t.79" = type { i8 }
%"struct.std::in_place_index_t.80" = type { i8 }
%"struct.std::in_place_index_t.81" = type { i8 }
%"struct.std::in_place_index_t.82" = type { i8 }
%"struct.std::piecewise_construct_t" = type { i8 }
%"class.std::basic_string_view" = type { i64, ptr }
%"class.std::optional" = type { %"struct.std::_Optional_base" }
%"struct.std::_Optional_base" = type { %"struct.std::_Optional_payload" }
%"struct.std::_Optional_payload" = type { %"struct.std::_Optional_payload.base", [7 x i8] }
%"struct.std::_Optional_payload.base" = type { %"struct.std::_Optional_payload_base.base" }
%"struct.std::_Optional_payload_base.base" = type <{ %"union.std::_Optional_payload_base<grpc_core::XdsHttpFilterImpl::FilterConfig>::_Storage", i8 }>
%"union.std::_Optional_payload_base<grpc_core::XdsHttpFilterImpl::FilterConfig>::_Storage" = type { %"struct.grpc_core::XdsHttpFilterImpl::FilterConfig" }
%"struct.grpc_core::XdsHttpFilterImpl::FilterConfig" = type { %"class.std::basic_string_view", %"class.grpc_core::experimental::Json" }
%"class.grpc_core::experimental::Json" = type { %"class.std::variant" }
%"class.std::variant" = type { %"struct.std::__detail::__variant::_Variant_base.base", [7 x i8] }
%"struct.std::__detail::__variant::_Variant_base.base" = type { %"struct.std::__detail::__variant::_Move_assign_base.base" }
%"struct.std::__detail::__variant::_Move_assign_base.base" = type { %"struct.std::__detail::__variant::_Copy_assign_base.base" }
%"struct.std::__detail::__variant::_Copy_assign_base.base" = type { %"struct.std::__detail::__variant::_Move_ctor_base.base" }
%"struct.std::__detail::__variant::_Move_ctor_base.base" = type { %"struct.std::__detail::__variant::_Copy_ctor_base.base" }
%"struct.std::__detail::__variant::_Copy_ctor_base.base" = type { %"struct.std::__detail::__variant::_Variant_storage.base" }
%"struct.std::__detail::__variant::_Variant_storage.base" = type { %"union.std::__detail::__variant::_Variadic_union", i8 }
%"union.std::__detail::__variant::_Variadic_union" = type { %"union.std::__detail::__variant::_Variadic_union.1" }
%"union.std::__detail::__variant::_Variadic_union.1" = type { %"union.std::__detail::__variant::_Variadic_union.3" }
%"union.std::__detail::__variant::_Variadic_union.3" = type { %"union.std::__detail::__variant::_Variadic_union.5" }
%"union.std::__detail::__variant::_Variadic_union.5" = type { %"union.std::__detail::__variant::_Variadic_union.8" }
%"union.std::__detail::__variant::_Variadic_union.8" = type { %"struct.std::__detail::__variant::_Uninitialized.9" }
%"struct.std::__detail::__variant::_Uninitialized.9" = type { %"struct.__gnu_cxx::__aligned_membuf.10" }
%"struct.__gnu_cxx::__aligned_membuf.10" = type { [48 x i8] }
%"class.std::map.47" = type { %"class.std::_Rb_tree.48" }
%"class.std::_Rb_tree.48" = type { %"struct.std::_Rb_tree<std::__cxx11::basic_string<char>, std::pair<const std::__cxx11::basic_string<char>, grpc_core::experimental::Json>, std::_Select1st<std::pair<const std::__cxx11::basic_string<char>, grpc_core::experimental::Json>>, std::less<std::__cxx11::basic_string<char>>>::_Rb_tree_impl" }
%"struct.std::_Rb_tree<std::__cxx11::basic_string<char>, std::pair<const std::__cxx11::basic_string<char>, grpc_core::experimental::Json>, std::_Select1st<std::pair<const std::__cxx11::basic_string<char>, grpc_core::experimental::Json>>, std::less<std::__cxx11::basic_string<char>>>::_Rb_tree_impl" = type { %"struct.std::_Rb_tree_key_compare", %"struct.std::_Rb_tree_header" }
%"struct.std::_Rb_tree_key_compare" = type { %"struct.std::less" }
%"struct.std::less" = type { i8 }
%"struct.std::_Rb_tree_header" = type { %"struct.std::_Rb_tree_node_base", i64 }
%"struct.std::_Rb_tree_node_base" = type { i32, ptr, ptr, ptr }
%"class.grpc_core::ValidationErrors::ScopedField" = type { ptr }
%"class.std::__cxx11::basic_string" = type { %"struct.std::__cxx11::basic_string<char>::_Alloc_hider", i64, %union.anon }
%"struct.std::__cxx11::basic_string<char>::_Alloc_hider" = type { ptr }
%union.anon = type { i64, [8 x i8] }
%"class.absl::lts_20230802::AlphaNum" = type { %"class.std::basic_string_view", [32 x i8] }
%"class.std::allocator.52" = type { i8 }
%"class.grpc_core::Duration" = type { i64 }
%"struct.grpc_core::XdsExtension" = type { %"class.std::basic_string_view", %"class.std::variant.17", %"class.std::vector" }
%"class.std::variant.17" = type { %"struct.std::__detail::__variant::_Variant_base.base.34", [7 x i8] }
%"struct.std::__detail::__variant::_Variant_base.base.34" = type { %"struct.std::__detail::__variant::_Move_assign_base.base.33" }
%"struct.std::__detail::__variant::_Move_assign_base.base.33" = type { %"struct.std::__detail::__variant::_Copy_assign_base.base.32" }
%"struct.std::__detail::__variant::_Copy_assign_base.base.32" = type { %"struct.std::__detail::__variant::_Move_ctor_base.base.31" }
%"struct.std::__detail::__variant::_Move_ctor_base.base.31" = type { %"struct.std::__detail::__variant::_Copy_ctor_base.base.30" }
%"struct.std::__detail::__variant::_Copy_ctor_base.base.30" = type { %"struct.std::__detail::__variant::_Variant_storage.base.29" }
%"struct.std::__detail::__variant::_Variant_storage.base.29" = type <{ %"union.std::__detail::__variant::_Variadic_union.24", i8 }>
%"union.std::__detail::__variant::_Variadic_union.24" = type { %"struct.std::__detail::__variant::_Uninitialized.25", [40 x i8] }
%"struct.std::__detail::__variant::_Uninitialized.25" = type { %"class.std::basic_string_view" }
%"class.std::vector" = type { %"struct.std::_Vector_base" }
%"struct.std::_Vector_base" = type { %"struct.std::_Vector_base<grpc_core::ValidationErrors::ScopedField, std::allocator<grpc_core::ValidationErrors::ScopedField>>::_Vector_impl" }
%"struct.std::_Vector_base<grpc_core::ValidationErrors::ScopedField, std::allocator<grpc_core::ValidationErrors::ScopedField>>::_Vector_impl" = type { %"struct.std::_Vector_base<grpc_core::ValidationErrors::ScopedField, std::allocator<grpc_core::ValidationErrors::ScopedField>>::_Vector_impl_data" }
%"struct.std::_Vector_base<grpc_core::ValidationErrors::ScopedField, std::allocator<grpc_core::ValidationErrors::ScopedField>>::_Vector_impl_data" = type { ptr, ptr, ptr }
%"struct.grpc_core::XdsResourceType::DecodeContext" = type { ptr, ptr, ptr, ptr, ptr }
%"struct.std::_Rb_tree_iterator" = type { ptr }
%"struct.std::_Rb_tree_const_iterator" = type { ptr }
%"class.std::tuple" = type { %"struct.std::_Tuple_impl" }
%"struct.std::_Tuple_impl" = type { %"struct.std::_Head_base" }
%"struct.std::_Head_base" = type { ptr }
%"class.std::tuple.93" = type { i8 }
%"struct.std::pair" = type { %"class.std::__cxx11::basic_string", %"class.grpc_core::experimental::Json" }
%"struct.std::monostate" = type { i8 }
%"struct.grpc_core::experimental::Json::NumberValue" = type { %"class.std::__cxx11::basic_string" }
%"class.grpc_core::ChannelArgs" = type { %"class.grpc_core::AVL" }
%"class.grpc_core::AVL" = type { %"class.grpc_core::RefCountedPtr" }
%"class.grpc_core::RefCountedPtr" = type { ptr }
%"class.absl::lts_20230802::StatusOr" = type { %"class.absl::lts_20230802::internal_statusor::StatusOrData" }
%"class.absl::lts_20230802::internal_statusor::StatusOrData" = type { %union.anon.55, %union.anon.56 }
%union.anon.55 = type { %"class.absl::lts_20230802::Status" }
%"class.absl::lts_20230802::Status" = type { i64 }
%union.anon.56 = type { %"struct.grpc_core::XdsHttpFilterImpl::ServiceConfigJsonEntry" }
%"struct.grpc_core::XdsHttpFilterImpl::ServiceConfigJsonEntry" = type { %"class.std::__cxx11::basic_string", %"class.std::__cxx11::basic_string" }
%"struct.std::__detail::__variant::_Variant_storage.23" = type <{ %"union.std::__detail::__variant::_Variadic_union.24", i8, [7 x i8] }>
%"struct.std::_Optional_payload_base" = type <{ %"union.std::_Optional_payload_base<grpc_core::XdsHttpFilterImpl::FilterConfig>::_Storage", i8, [7 x i8] }>
%struct._upb_ArenaHead = type { ptr, ptr }
%"struct.std::__detail::__variant::_Variant_storage" = type { %"union.std::__detail::__variant::_Variadic_union", i8, [7 x i8] }
%"class.std::bad_variant_access" = type { %"class.std::exception", ptr }
%"class.std::exception" = type { ptr }
%"struct.std::__detail::__variant::_Uninitialized.6" = type { %"struct.__gnu_cxx::__aligned_membuf.7" }
%"struct.__gnu_cxx::__aligned_membuf.7" = type { [32 x i8] }
%class.anon = type { i8 }
%class.anon.57 = type { i8 }
%"struct.std::__detail::__variant::_Uninitialized" = type { %"struct.std::monostate" }
%"struct.std::__detail::__variant::_Uninitialized.2" = type { i8 }
%"struct.std::__detail::__variant::_Uninitialized.4" = type { %"struct.__gnu_cxx::__aligned_membuf" }
%"struct.__gnu_cxx::__aligned_membuf" = type { [32 x i8] }
%"struct.std::_Vector_base.60" = type { %"struct.std::_Vector_base<grpc_core::experimental::Json, std::allocator<grpc_core::experimental::Json>>::_Vector_impl" }
%"struct.std::_Vector_base<grpc_core::experimental::Json, std::allocator<grpc_core::experimental::Json>>::_Vector_impl" = type { %"struct.std::_Vector_base<grpc_core::experimental::Json, std::allocator<grpc_core::experimental::Json>>::_Vector_impl_data" }
%"struct.std::_Vector_base<grpc_core::experimental::Json, std::allocator<grpc_core::experimental::Json>>::_Vector_impl_data" = type { ptr, ptr, ptr }
%"struct.std::__detail::__variant::_Uninitialized.12" = type { %"struct.__gnu_cxx::__aligned_membuf.13" }
%"struct.__gnu_cxx::__aligned_membuf.13" = type { [24 x i8] }
%class.anon.64 = type { ptr }
%class.anon.65 = type { i8 }
%"struct.std::integral_constant" = type { i8 }
%"struct.std::integral_constant.67" = type { i8 }
%"struct.std::integral_constant.68" = type { i8 }
%"struct.std::integral_constant.69" = type { i8 }
%"struct.std::integral_constant.70" = type { i8 }
%"struct.std::integral_constant.73" = type { i8 }
%"struct.std::__detail::__variant::__variant_cookie" = type { i8 }
%"struct.std::integral_constant.74" = type { i8 }
%"struct.std::_Rb_tree_node" = type { %"struct.std::_Rb_tree_node_base", %"struct.__gnu_cxx::__aligned_membuf.72" }
%"struct.__gnu_cxx::__aligned_membuf.72" = type { [88 x i8] }
%"class.std::vector.59" = type { %"struct.std::_Vector_base.60" }
%"class.std::allocator.61" = type { i8 }
%class.anon.75 = type { ptr }
%class.anon.76 = type { i8 }
%class.anon.83 = type { ptr }
%class.anon.84 = type { i8 }
%"struct.std::__detail::__variant::_Uninitialized.27" = type { %"struct.__gnu_cxx::__aligned_membuf.28" }
%"struct.__gnu_cxx::__aligned_membuf.28" = type { [56 x i8] }
%class.anon.86 = type { i8 }
%class.anon.88 = type { i8 }
%class.anon.90 = type { ptr }
%class.anon.91 = type { i8 }
%"class.std::allocator.49" = type { i8 }
%"struct.std::_Rb_tree<std::__cxx11::basic_string<char>, std::pair<const std::__cxx11::basic_string<char>, grpc_core::experimental::Json>, std::_Select1st<std::pair<const std::__cxx11::basic_string<char>, grpc_core::experimental::Json>>, std::less<std::__cxx11::basic_string<char>>>::_Alloc_node" = type { ptr }
%"class.__gnu_cxx::__normal_iterator" = type { ptr }
%struct._Guard = type { ptr }
%"struct.std::_Rb_tree<std::__cxx11::basic_string<char>, std::pair<const std::__cxx11::basic_string<char>, grpc_core::experimental::Json>, std::_Select1st<std::pair<const std::__cxx11::basic_string<char>, grpc_core::experimental::Json>>, std::less<std::__cxx11::basic_string<char>>>::_Auto_node" = type { ptr, ptr }
%"struct.std::pair.94" = type { ptr, ptr }
%"struct.std::_Select1st" = type { i8 }

$_ZNSt17basic_string_viewIcSt11char_traitsIcEEC2EPKc = comdat any

$envoy_extensions_filters_http_fault_v3_HTTPFault_getmsgdef = comdat any

$_ZSt6get_ifISt17basic_string_viewIcSt11char_traitsIcEEJS3_N9grpc_core12experimental4JsonEEENSt11add_pointerIT_E4typeEPSt7variantIJDpT0_EE = comdat any

$_ZNSt8optionalIN9grpc_core17XdsHttpFilterImpl12FilterConfigEEC2ESt9nullopt_t = comdat any

$envoy_extensions_filters_http_fault_v3_HTTPFault_parse = comdat any

$_ZNKSt17basic_string_viewIcSt11char_traitsIcEE4dataEv = comdat any

$_ZNKSt17basic_string_viewIcSt11char_traitsIcEE4sizeEv = comdat any

$_ZNSt3mapINSt7__cxx1112basic_stringIcSt11char_traitsIcESaIcEEEN9grpc_core12experimental4JsonESt4lessIS5_ESaISt4pairIKS5_S8_EEEC2Ev = comdat any

$envoy_extensions_filters_http_fault_v3_HTTPFault_abort = comdat any

$_ZN9grpc_core16ValidationErrors11ScopedFieldC2EPS0_St17basic_string_viewIcSt11char_traitsIcEE = comdat any

$envoy_extensions_filters_http_fault_v3_FaultAbort_grpc_status = comdat any

$_ZN4absl12lts_202308028AlphaNumC2EPKc = comdat any

$_ZN4absl12lts_202308028AlphaNumC2Ei = comdat any

$_ZN9grpc_core16ValidationErrors11ScopedFieldD2Ev = comdat any

$envoy_extensions_filters_http_fault_v3_FaultAbort_http_status = comdat any

$_ZN9grpc_core12experimental4Json10FromStringEPKc = comdat any

$_ZNSt3mapINSt7__cxx1112basic_stringIcSt11char_traitsIcESaIcEEEN9grpc_core12experimental4JsonESt4lessIS5_ESaISt4pairIKS5_S8_EEEixEOS5_ = comdat any

$_ZNSt7__cxx1112basic_stringIcSt11char_traitsIcESaIcEEC2IS3_EEPKcRKS3_ = comdat any

$_ZN9grpc_core12experimental4JsonaSEOS1_ = comdat any

$_ZN9grpc_core12experimental4JsonD2Ev = comdat any

$envoy_extensions_filters_http_fault_v3_FaultAbort_has_header_abort = comdat any

$envoy_extensions_filters_http_fault_v3_FaultAbort_percentage = comdat any

$_ZN9grpc_core12experimental4Json10FromNumberEj = comdat any

$envoy_type_v3_FractionalPercent_numerator = comdat any

$envoy_extensions_filters_http_fault_v3_HTTPFault_delay = comdat any

$envoy_extensions_filters_common_fault_v3_FaultDelay_fixed_delay = comdat any

$_ZN9grpc_core12experimental4Json10FromStringEONSt7__cxx1112basic_stringIcSt11char_traitsIcESaIcEEE = comdat any

$envoy_extensions_filters_common_fault_v3_FaultDelay_has_header_delay = comdat any

$envoy_extensions_filters_common_fault_v3_FaultDelay_percentage = comdat any

$envoy_extensions_filters_http_fault_v3_HTTPFault_max_active_faults = comdat any

$google_protobuf_UInt32Value_value = comdat any

$_ZN9grpc_core12experimental4Json10FromObjectEOSt3mapINSt7__cxx1112basic_stringIcSt11char_traitsIcESaIcEEES1_St4lessIS8_ESaISt4pairIKS8_S1_EEE = comdat any

$_ZNSt8optionalIN9grpc_core17XdsHttpFilterImpl12FilterConfigEEC2IS2_TnNSt9enable_ifIX7__and_vISt6__not_ISt7is_sameIS3_NSt9remove_cvINSt16remove_referenceIT_E4typeEE4typeEEES6_IS7_ISt10in_place_tSE_EESt16is_constructibleIS2_JSA_EESt14is_convertibleISA_S2_EEEbE4typeELb1EEEOSA_ = comdat any

$_ZN9grpc_core17XdsHttpFilterImpl12FilterConfigD2Ev = comdat any

$_ZNSt3mapINSt7__cxx1112basic_stringIcSt11char_traitsIcESaIcEEEN9grpc_core12experimental4JsonESt4lessIS5_ESaISt4pairIKS5_S8_EEED2Ev = comdat any

$_ZN9grpc_core12XdsExtensionC2EOS0_ = comdat any

$_ZN9grpc_core12XdsExtensionD2Ev = comdat any

$_ZN9grpc_core12experimental4JsonC2ERKS1_ = comdat any

$_ZN4absl12lts_202308028StatusOrIN9grpc_core17XdsHttpFilterImpl22ServiceConfigJsonEntryEEC2IS4_TnNSt9enable_ifIXsr4absl11conjunctionINS0_11disjunctionIJSt7is_sameIS4_NS0_12remove_cvrefIOT_E4typeEENS0_8negationINS8_IJS9_IS5_SE_ES9_INS0_6StatusESE_ES9_ISt10in_place_tSE_ENS0_17internal_statusor31IsDirectInitializationAmbiguousIS4_SC_EEEEEEEEEESt16is_constructibleIS4_JSC_EESt14is_convertibleISC_S4_ENS8_IJS9_INSA_ISB_E4typeES4_ENS0_11conjunctionIJNSG_ISU_ISC_SI_EEENSG_INSM_31HasConversionOperatorToStatusOrIS4_SC_vEEEEEEEEEEEE5valueEiE4typeELi0EEESC_ = comdat any

$_ZN9grpc_core17XdsHttpFilterImpl22ServiceConfigJsonEntryD2Ev = comdat any

$_ZN9grpc_core18XdsHttpFaultFilterD2Ev = comdat any

$_ZN9grpc_core18XdsHttpFaultFilterD0Ev = comdat any

$_ZNK9grpc_core18XdsHttpFaultFilter20IsSupportedOnClientsEv = comdat any

$_ZNK9grpc_core18XdsHttpFaultFilter20IsSupportedOnServersEv = comdat any

$_ZNK9grpc_core17XdsHttpFilterImpl16IsTerminalFilterEv = comdat any

$_ZN9grpc_core19NoDestructSingletonINS_14promise_detail10UnwakeableEE6value_E = comdat any

$_ZN9grpc_core10NoDestructINS_14promise_detail10UnwakeableEEC2IJEEEDpOT_ = comdat any

$_ZNSt11char_traitsIcE6lengthEPKc = comdat any

$__clang_call_terminate = comdat any

$_ZSt6get_ifILm0EJSt17basic_string_viewIcSt11char_traitsIcEEN9grpc_core12experimental4JsonEEENSt11add_pointerINSt19variant_alternativeIXT_ESt7variantIJDpT0_EEE4typeEE4typeEPSC_ = comdat any

$_ZNKSt7variantIJSt17basic_string_viewIcSt11char_traitsIcEEN9grpc_core12experimental4JsonEEE5indexEv = comdat any

$_ZNSt8__detail9__variant5__getILm0ERSt7variantIJSt17basic_string_viewIcSt11char_traitsIcEEN9grpc_core12experimental4JsonEEEEEDcOT0_ = comdat any

$_ZNSt8__detail9__variant7__get_nILm0ERNS0_15_Variadic_unionIJSt17basic_string_viewIcSt11char_traitsIcEEN9grpc_core12experimental4JsonEEEEEEDcOT0_ = comdat any

$_ZNRSt8__detail9__variant14_UninitializedISt17basic_string_viewIcSt11char_traitsIcEELb1EE6_M_getEv = comdat any

$_ZNSt14_Optional_baseIN9grpc_core17XdsHttpFilterImpl12FilterConfigELb0ELb0EEC2Ev = comdat any

$_ZNSt17_Optional_payloadIN9grpc_core17XdsHttpFilterImpl12FilterConfigELb0ELb0ELb0EEC2Ev = comdat any

$_ZNSt17_Optional_payloadIN9grpc_core17XdsHttpFilterImpl12FilterConfigELb1ELb0ELb0EEC2Ev = comdat any

$_ZNSt22_Optional_payload_baseIN9grpc_core17XdsHttpFilterImpl12FilterConfigEEC2Ev = comdat any

$_ZNSt22_Optional_payload_baseIN9grpc_core17XdsHttpFilterImpl12FilterConfigEE8_StorageIS2_Lb0EEC2Ev = comdat any

$envoy_extensions_filters_http_fault_v3_HTTPFault_new = comdat any

$_upb_Message_New = comdat any

$upb_msg_sizeof = comdat any

$upb_Arena_Malloc = comdat any

$_upb_ArenaHas = comdat any

$_ZNSt8_Rb_treeINSt7__cxx1112basic_stringIcSt11char_traitsIcESaIcEEESt4pairIKS5_N9grpc_core12experimental4JsonEESt10_Select1stISB_ESt4lessIS5_ESaISB_EEC2Ev = comdat any

$_ZNSt8_Rb_treeINSt7__cxx1112basic_stringIcSt11char_traitsIcESaIcEEESt4pairIKS5_N9grpc_core12experimental4JsonEESt10_Select1stISB_ESt4lessIS5_ESaISB_EE13_Rb_tree_implISF_Lb1EEC2Ev = comdat any

$_ZNSaISt13_Rb_tree_nodeISt4pairIKNSt7__cxx1112basic_stringIcSt11char_traitsIcESaIcEEEN9grpc_core12experimental4JsonEEEEC2Ev = comdat any

$_ZNSt20_Rb_tree_key_compareISt4lessINSt7__cxx1112basic_stringIcSt11char_traitsIcESaIcEEEEEC2Ev = comdat any

$_ZNSt15_Rb_tree_headerC2Ev = comdat any

$_ZNSt15__new_allocatorISt13_Rb_tree_nodeISt4pairIKNSt7__cxx1112basic_stringIcSt11char_traitsIcESaIcEEEN9grpc_core12experimental4JsonEEEEC2Ev = comdat any

$_ZNSt15_Rb_tree_header8_M_resetEv = comdat any

$upb_MiniTableField_IsExtension = comdat any

$_upb_MiniTableField_InOneOf = comdat any

$_upb_MiniTable_ValueIsNonZero = comdat any

$_upb_Message_HasNonExtensionField = comdat any

$_upb_MiniTable_CopyFieldData = comdat any

$_upb_MiniTableField_GetConstPtr = comdat any

$_Z26_upb_MiniTableField_GetRepPK18upb_MiniTableField = comdat any

$_upb_getoneofcase_field = comdat any

$_upb_hasbit_field = comdat any

$_upb_oneofcase_field = comdat any

$_upb_oneofcase_ofs = comdat any

$_upb_hasbit = comdat any

$_upb_Message_Hasidx = comdat any

$_upb_hasbit_ofs = comdat any

$_upb_hasbit_mask = comdat any

$_ZN4absl12lts_2023080218NullSafeStringViewEPKc = comdat any

$_ZNSt17basic_string_viewIcSt11char_traitsIcEEC2Ev = comdat any

$_ZNSt17basic_string_viewIcSt11char_traitsIcEEC2EPKcm = comdat any

$_ZN9grpc_core12experimental4JsonC2Ev = comdat any

$_ZNSt7variantIJSt9monostatebN9grpc_core12experimental4Json11NumberValueENSt7__cxx1112basic_stringIcSt11char_traitsIcESaIcEEESt3mapISA_S3_St4lessISA_ESaISt4pairIKSA_S3_EEESt6vectorIS3_SaIS3_EEEEaSISA_EENSt9enable_ifIXaaaa14__exactly_onceINSt9_Nth_typeIX16__accepted_indexIOT_EEJS0_bS4_SA_SI_SL_EE4typeEE18is_constructible_vIST_SQ_E15is_assignable_vIRST_SQ_EERSM_E4typeESR_ = comdat any

$_ZNSt7variantIJSt9monostatebN9grpc_core12experimental4Json11NumberValueENSt7__cxx1112basic_stringIcSt11char_traitsIcESaIcEEESt3mapISA_S3_St4lessISA_ESaISt4pairIKSA_S3_EEESt6vectorIS3_SaIS3_EEEEC2Ev = comdat any

$_ZNSt8__detail9__variant13_Variant_baseIJSt9monostatebN9grpc_core12experimental4Json11NumberValueENSt7__cxx1112basic_stringIcSt11char_traitsIcESaIcEEESt3mapISC_S5_St4lessISC_ESaISt4pairIKSC_S5_EEESt6vectorIS5_SaIS5_EEEEC2Ev = comdat any

$_ZNSt8__detail9__variant13_Variant_baseIJSt9monostatebN9grpc_core12experimental4Json11NumberValueENSt7__cxx1112basic_stringIcSt11char_traitsIcESaIcEEESt3mapISC_S5_St4lessISC_ESaISt4pairIKSC_S5_EEESt6vectorIS5_SaIS5_EEEEC2ILm0EJEEESt16in_place_index_tIXT_EEDpOT0_ = comdat any

$_ZNSt8__detail9__variant17_Move_assign_baseILb0EJSt9monostatebN9grpc_core12experimental4Json11NumberValueENSt7__cxx1112basic_stringIcSt11char_traitsIcESaIcEEESt3mapISC_S5_St4lessISC_ESaISt4pairIKSC_S5_EEESt6vectorIS5_SaIS5_EEEECI2NS0_16_Variant_storageILb0EJS2_bS6_SC_SK_SN_EEEILm0EJEEESt16in_place_index_tIXT_EEDpOT0_ = comdat any

$_ZNSt8__detail9__variant17_Copy_assign_baseILb0EJSt9monostatebN9grpc_core12experimental4Json11NumberValueENSt7__cxx1112basic_stringIcSt11char_traitsIcESaIcEEESt3mapISC_S5_St4lessISC_ESaISt4pairIKSC_S5_EEESt6vectorIS5_SaIS5_EEEECI2NS0_16_Variant_storageILb0EJS2_bS6_SC_SK_SN_EEEILm0EJEEESt16in_place_index_tIXT_EEDpOT0_ = comdat any

$_ZNSt8__detail9__variant15_Move_ctor_baseILb0EJSt9monostatebN9grpc_core12experimental4Json11NumberValueENSt7__cxx1112basic_stringIcSt11char_traitsIcESaIcEEESt3mapISC_S5_St4lessISC_ESaISt4pairIKSC_S5_EEESt6vectorIS5_SaIS5_EEEECI2NS0_16_Variant_storageILb0EJS2_bS6_SC_SK_SN_EEEILm0EJEEESt16in_place_index_tIXT_EEDpOT0_ = comdat any

$_ZNSt8__detail9__variant15_Copy_ctor_baseILb0EJSt9monostatebN9grpc_core12experimental4Json11NumberValueENSt7__cxx1112basic_stringIcSt11char_traitsIcESaIcEEESt3mapISC_S5_St4lessISC_ESaISt4pairIKSC_S5_EEESt6vectorIS5_SaIS5_EEEECI2NS0_16_Variant_storageILb0EJS2_bS6_SC_SK_SN_EEEILm0EJEEESt16in_place_index_tIXT_EEDpOT0_ = comdat any

$_ZNSt8__detail9__variant16_Variant_storageILb0EJSt9monostatebN9grpc_core12experimental4Json11NumberValueENSt7__cxx1112basic_stringIcSt11char_traitsIcESaIcEEESt3mapISC_S5_St4lessISC_ESaISt4pairIKSC_S5_EEESt6vectorIS5_SaIS5_EEEEC2ILm0EJEEESt16in_place_index_tIXT_EEDpOT0_ = comdat any

$_ZNSt8__detail9__variant15_Variadic_unionIJSt9monostatebN9grpc_core12experimental4Json11NumberValueENSt7__cxx1112basic_stringIcSt11char_traitsIcESaIcEEESt3mapISC_S5_St4lessISC_ESaISt4pairIKSC_S5_EEESt6vectorIS5_SaIS5_EEEEC2IJEEESt16in_place_index_tILm0EEDpOT_ = comdat any

$_ZNSt8__detail9__variant14_UninitializedISt9monostateLb1EEC2IJEEESt16in_place_index_tILm0EEDpOT_ = comdat any

$_ZNKSt7variantIJSt9monostatebN9grpc_core12experimental4Json11NumberValueENSt7__cxx1112basic_stringIcSt11char_traitsIcESaIcEEESt3mapISA_S3_St4lessISA_ESaISt4pairIKSA_S3_EEESt6vectorIS3_SaIS3_EEEE5indexEv = comdat any

$_ZSt3getILm3EJSt9monostatebN9grpc_core12experimental4Json11NumberValueENSt7__cxx1112basic_stringIcSt11char_traitsIcESaIcEEESt3mapISA_S3_St4lessISA_ESaISt4pairIKSA_S3_EEESt6vectorIS3_SaIS3_EEEERNSt19variant_alternativeIXT_ESt7variantIJDpT0_EEE4typeERSQ_ = comdat any

$_ZNSt7variantIJSt9monostatebN9grpc_core12experimental4Json11NumberValueENSt7__cxx1112basic_stringIcSt11char_traitsIcESaIcEEESt3mapISA_S3_St4lessISA_ESaISt4pairIKSA_S3_EEESt6vectorIS3_SaIS3_EEEE7emplaceILm3EJSA_EEENSt9enable_ifIX18is_constructible_vINSt9_Nth_typeIXT_EJS0_bS4_SA_SI_SL_EE4typeEDpT0_EERSR_E4typeEDpOSS_ = comdat any

$_ZSt26__throw_bad_variant_accessb = comdat any

$_ZNKSt7variantIJSt9monostatebN9grpc_core12experimental4Json11NumberValueENSt7__cxx1112basic_stringIcSt11char_traitsIcESaIcEEESt3mapISA_S3_St4lessISA_ESaISt4pairIKSA_S3_EEESt6vectorIS3_SaIS3_EEEE22valueless_by_exceptionEv = comdat any

$_ZNSt8__detail9__variant5__getILm3ERSt7variantIJSt9monostatebN9grpc_core12experimental4Json11NumberValueENSt7__cxx1112basic_stringIcSt11char_traitsIcESaIcEEESt3mapISD_S6_St4lessISD_ESaISt4pairIKSD_S6_EEESt6vectorIS6_SaIS6_EEEEEEDcOT0_ = comdat any

$_ZSt26__throw_bad_variant_accessPKc = comdat any

$_ZNSt18bad_variant_accessC2EPKc = comdat any

$_ZNSt18bad_variant_accessD2Ev = comdat any

$_ZNSt9exceptionC2Ev = comdat any

$_ZNSt18bad_variant_accessD0Ev = comdat any

$_ZNKSt18bad_variant_access4whatEv = comdat any

$_ZNKSt8__detail9__variant16_Variant_storageILb0EJSt9monostatebN9grpc_core12experimental4Json11NumberValueENSt7__cxx1112basic_stringIcSt11char_traitsIcESaIcEEESt3mapISC_S5_St4lessISC_ESaISt4pairIKSC_S5_EEESt6vectorIS5_SaIS5_EEEE8_M_validEv = comdat any

$_ZNSt8__detail9__variant7__get_nILm3ERNS0_15_Variadic_unionIJSt9monostatebN9grpc_core12experimental4Json11NumberValueENSt7__cxx1112basic_stringIcSt11char_traitsIcESaIcEEESt3mapISD_S6_St4lessISD_ESaISt4pairIKSD_S6_EEESt6vectorIS6_SaIS6_EEEEEEEDcOT0_ = comdat any

$_ZNSt8__detail9__variant7__get_nILm0ERNS0_15_Variadic_unionIJNSt7__cxx1112basic_stringIcSt11char_traitsIcESaIcEEESt3mapIS8_N9grpc_core12experimental4JsonESt4lessIS8_ESaISt4pairIKS8_SC_EEESt6vectorISC_SaISC_EEEEEEEDcOT0_ = comdat any

$_ZNRSt8__detail9__variant14_UninitializedINSt7__cxx1112basic_stringIcSt11char_traitsIcESaIcEEELb0EE6_M_getEv = comdat any

$_ZN9__gnu_cxx16__aligned_membufINSt7__cxx1112basic_stringIcSt11char_traitsIcESaIcEEEE6_M_ptrEv = comdat any

$_ZN9__gnu_cxx16__aligned_membufINSt7__cxx1112basic_stringIcSt11char_traitsIcESaIcEEEE7_M_addrEv = comdat any

$_ZNSt8__detail9__variant9__emplaceILm3ELb0EJSt9monostatebN9grpc_core12experimental4Json11NumberValueENSt7__cxx1112basic_stringIcSt11char_traitsIcESaIcEEESt3mapISC_S5_St4lessISC_ESaISt4pairIKSC_S5_EEESt6vectorIS5_SaIS5_EEEJSC_EEEvRNS0_16_Variant_storageIXT0_EJDpT1_EEEDpOT2_ = comdat any

$_ZNSt8__detail9__variant16_Variant_storageILb0EJSt9monostatebN9grpc_core12experimental4Json11NumberValueENSt7__cxx1112basic_stringIcSt11char_traitsIcESaIcEEESt3mapISC_S5_St4lessISC_ESaISt4pairIKSC_S5_EEESt6vectorIS5_SaIS5_EEEE8_M_resetEv = comdat any

$_ZSt10_ConstructINSt7__cxx1112basic_stringIcSt11char_traitsIcESaIcEEEJS5_EEvPT_DpOT0_ = comdat any

$_ZSt10__do_visitIvZNSt8__detail9__variant16_Variant_storageILb0EJSt9monostatebN9grpc_core12experimental4Json11NumberValueENSt7__cxx1112basic_stringIcSt11char_traitsIcESaIcEEESt3mapISD_S6_St4lessISD_ESaISt4pairIKSD_S6_EEESt6vectorIS6_SaIS6_EEEE8_M_resetEvEUlOT_E_JRSt7variantIJS3_bS7_SD_SL_SO_EEEEDcOT0_DpOT1_ = comdat any

$_ZSt14__variant_castIJSt9monostatebN9grpc_core12experimental4Json11NumberValueENSt7__cxx1112basic_stringIcSt11char_traitsIcESaIcEEESt3mapISA_S3_St4lessISA_ESaISt4pairIKSA_S3_EEESt6vectorIS3_SaIS3_EEERNSt8__detail9__variant16_Variant_storageILb0EJS0_bS4_SA_SI_SL_EEEEDcOT0_ = comdat any

$_ZZSt10__do_visitIvZNSt8__detail9__variant16_Variant_storageILb0EJSt9monostatebN9grpc_core12experimental4Json11NumberValueENSt7__cxx1112basic_stringIcSt11char_traitsIcESaIcEEESt3mapISD_S6_St4lessISD_ESaISt4pairIKSD_S6_EEESt6vectorIS6_SaIS6_EEEE8_M_resetEvEUlOT_E_JRSt7variantIJS3_bS7_SD_SL_SO_EEEEDcOT0_DpOT1_ENKUlSV_zE_clB5cxx11ESV_z = comdat any

$_ZNSt8__detail9__variant17__gen_vtable_implINS0_12_Multi_arrayIPFvOZNS0_16_Variant_storageILb0EJSt9monostatebN9grpc_core12experimental4Json11NumberValueENSt7__cxx1112basic_stringIcSt11char_traitsIcESaIcEEESt3mapISE_S7_St4lessISE_ESaISt4pairIKSE_S7_EEESt6vectorIS7_SaIS7_EEEE8_M_resetEvEUlOT_E_RSt7variantIJS4_bS8_SE_SM_SP_EEEJEEESt16integer_sequenceImJLm0EEEE14__visit_invokeESU_SX_ = comdat any

$_ZNSt8__detail9__variant17__gen_vtable_implINS0_12_Multi_arrayIPFvOZNS0_16_Variant_storageILb0EJSt9monostatebN9grpc_core12experimental4Json11NumberValueENSt7__cxx1112basic_stringIcSt11char_traitsIcESaIcEEESt3mapISE_S7_St4lessISE_ESaISt4pairIKSE_S7_EEESt6vectorIS7_SaIS7_EEEE8_M_resetEvEUlOT_E_RSt7variantIJS4_bS8_SE_SM_SP_EEEJEEESt16integer_sequenceImJLm1EEEE14__visit_invokeESU_SX_ = comdat any

$_ZNSt8__detail9__variant17__gen_vtable_implINS0_12_Multi_arrayIPFvOZNS0_16_Variant_storageILb0EJSt9monostatebN9grpc_core12experimental4Json11NumberValueENSt7__cxx1112basic_stringIcSt11char_traitsIcESaIcEEESt3mapISE_S7_St4lessISE_ESaISt4pairIKSE_S7_EEESt6vectorIS7_SaIS7_EEEE8_M_resetEvEUlOT_E_RSt7variantIJS4_bS8_SE_SM_SP_EEEJEEESt16integer_sequenceImJLm2EEEE14__visit_invokeESU_SX_ = comdat any

$_ZNSt8__detail9__variant17__gen_vtable_implINS0_12_Multi_arrayIPFvOZNS0_16_Variant_storageILb0EJSt9monostatebN9grpc_core12experimental4Json11NumberValueENSt7__cxx1112basic_stringIcSt11char_traitsIcESaIcEEESt3mapISE_S7_St4lessISE_ESaISt4pairIKSE_S7_EEESt6vectorIS7_SaIS7_EEEE8_M_resetEvEUlOT_E_RSt7variantIJS4_bS8_SE_SM_SP_EEEJEEESt16integer_sequenceImJLm3EEEE14__visit_invokeESU_SX_ = comdat any

$_ZNSt8__detail9__variant17__gen_vtable_implINS0_12_Multi_arrayIPFvOZNS0_16_Variant_storageILb0EJSt9monostatebN9grpc_core12experimental4Json11NumberValueENSt7__cxx1112basic_stringIcSt11char_traitsIcESaIcEEESt3mapISE_S7_St4lessISE_ESaISt4pairIKSE_S7_EEESt6vectorIS7_SaIS7_EEEE8_M_resetEvEUlOT_E_RSt7variantIJS4_bS8_SE_SM_SP_EEEJEEESt16integer_sequenceImJLm4EEEE14__visit_invokeESU_SX_ = comdat any

$_ZNSt8__detail9__variant17__gen_vtable_implINS0_12_Multi_arrayIPFvOZNS0_16_Variant_storageILb0EJSt9monostatebN9grpc_core12experimental4Json11NumberValueENSt7__cxx1112basic_stringIcSt11char_traitsIcESaIcEEESt3mapISE_S7_St4lessISE_ESaISt4pairIKSE_S7_EEESt6vectorIS7_SaIS7_EEEE8_M_resetEvEUlOT_E_RSt7variantIJS4_bS8_SE_SM_SP_EEEJEEESt16integer_sequenceImJLm5EEEE14__visit_invokeESU_SX_ = comdat any

$_ZSt10__invoke_rIvZNSt8__detail9__variant16_Variant_storageILb0EJSt9monostatebN9grpc_core12experimental4Json11NumberValueENSt7__cxx1112basic_stringIcSt11char_traitsIcESaIcEEESt3mapISD_S6_St4lessISD_ESaISt4pairIKSD_S6_EEESt6vectorIS6_SaIS6_EEEE8_M_resetEvEUlOT_E_JRS3_EENSt9enable_ifIX16is_invocable_r_vISQ_T0_DpT1_EESQ_E4typeEOSV_DpOSW_ = comdat any

$_ZNSt8__detail9__variant5__getILm0ERSt7variantIJSt9monostatebN9grpc_core12experimental4Json11NumberValueENSt7__cxx1112basic_stringIcSt11char_traitsIcESaIcEEESt3mapISD_S6_St4lessISD_ESaISt4pairIKSD_S6_EEESt6vectorIS6_SaIS6_EEEEEEDcOT0_ = comdat any

$_ZSt13__invoke_implIvZNSt8__detail9__variant16_Variant_storageILb0EJSt9monostatebN9grpc_core12experimental4Json11NumberValueENSt7__cxx1112basic_stringIcSt11char_traitsIcESaIcEEESt3mapISD_S6_St4lessISD_ESaISt4pairIKSD_S6_EEESt6vectorIS6_SaIS6_EEEE8_M_resetEvEUlOT_E_JRS3_EESQ_St14__invoke_otherOT0_DpOT1_ = comdat any

$_ZZNSt8__detail9__variant16_Variant_storageILb0EJSt9monostatebN9grpc_core12experimental4Json11NumberValueENSt7__cxx1112basic_stringIcSt11char_traitsIcESaIcEEESt3mapISC_S5_St4lessISC_ESaISt4pairIKSC_S5_EEESt6vectorIS5_SaIS5_EEEE8_M_resetEvENUlOT_E_clIRS2_EEDaSQ_ = comdat any

$_ZSt8_DestroyISt9monostateEvPT_ = comdat any

$_ZNSt8__detail9__variant7__get_nILm0ERNS0_15_Variadic_unionIJSt9monostatebN9grpc_core12experimental4Json11NumberValueENSt7__cxx1112basic_stringIcSt11char_traitsIcESaIcEEESt3mapISD_S6_St4lessISD_ESaISt4pairIKSD_S6_EEESt6vectorIS6_SaIS6_EEEEEEEDcOT0_ = comdat any

$_ZNRSt8__detail9__variant14_UninitializedISt9monostateLb1EE6_M_getEv = comdat any

$_ZSt10__invoke_rIvZNSt8__detail9__variant16_Variant_storageILb0EJSt9monostatebN9grpc_core12experimental4Json11NumberValueENSt7__cxx1112basic_stringIcSt11char_traitsIcESaIcEEESt3mapISD_S6_St4lessISD_ESaISt4pairIKSD_S6_EEESt6vectorIS6_SaIS6_EEEE8_M_resetEvEUlOT_E_JRbEENSt9enable_ifIX16is_invocable_r_vISQ_T0_DpT1_EESQ_E4typeEOSV_DpOSW_ = comdat any

$_ZNSt8__detail9__variant5__getILm1ERSt7variantIJSt9monostatebN9grpc_core12experimental4Json11NumberValueENSt7__cxx1112basic_stringIcSt11char_traitsIcESaIcEEESt3mapISD_S6_St4lessISD_ESaISt4pairIKSD_S6_EEESt6vectorIS6_SaIS6_EEEEEEDcOT0_ = comdat any

$_ZSt13__invoke_implIvZNSt8__detail9__variant16_Variant_storageILb0EJSt9monostatebN9grpc_core12experimental4Json11NumberValueENSt7__cxx1112basic_stringIcSt11char_traitsIcESaIcEEESt3mapISD_S6_St4lessISD_ESaISt4pairIKSD_S6_EEESt6vectorIS6_SaIS6_EEEE8_M_resetEvEUlOT_E_JRbEESQ_St14__invoke_otherOT0_DpOT1_ = comdat any

$_ZZNSt8__detail9__variant16_Variant_storageILb0EJSt9monostatebN9grpc_core12experimental4Json11NumberValueENSt7__cxx1112basic_stringIcSt11char_traitsIcESaIcEEESt3mapISC_S5_St4lessISC_ESaISt4pairIKSC_S5_EEESt6vectorIS5_SaIS5_EEEE8_M_resetEvENUlOT_E_clIRbEEDaSQ_ = comdat any

$_ZSt8_DestroyIbEvPT_ = comdat any

$_ZNSt8__detail9__variant7__get_nILm1ERNS0_15_Variadic_unionIJSt9monostatebN9grpc_core12experimental4Json11NumberValueENSt7__cxx1112basic_stringIcSt11char_traitsIcESaIcEEESt3mapISD_S6_St4lessISD_ESaISt4pairIKSD_S6_EEESt6vectorIS6_SaIS6_EEEEEEEDcOT0_ = comdat any

$_ZNRSt8__detail9__variant14_UninitializedIbLb1EE6_M_getEv = comdat any

$_ZSt10__invoke_rIvZNSt8__detail9__variant16_Variant_storageILb0EJSt9monostatebN9grpc_core12experimental4Json11NumberValueENSt7__cxx1112basic_stringIcSt11char_traitsIcESaIcEEESt3mapISD_S6_St4lessISD_ESaISt4pairIKSD_S6_EEESt6vectorIS6_SaIS6_EEEE8_M_resetEvEUlOT_E_JRS7_EENSt9enable_ifIX16is_invocable_r_vISQ_T0_DpT1_EESQ_E4typeEOSV_DpOSW_ = comdat any

$_ZNSt8__detail9__variant5__getILm2ERSt7variantIJSt9monostatebN9grpc_core12experimental4Json11NumberValueENSt7__cxx1112basic_stringIcSt11char_traitsIcESaIcEEESt3mapISD_S6_St4lessISD_ESaISt4pairIKSD_S6_EEESt6vectorIS6_SaIS6_EEEEEEDcOT0_ = comdat any

$_ZSt13__invoke_implIvZNSt8__detail9__variant16_Variant_storageILb0EJSt9monostatebN9grpc_core12experimental4Json11NumberValueENSt7__cxx1112basic_stringIcSt11char_traitsIcESaIcEEESt3mapISD_S6_St4lessISD_ESaISt4pairIKSD_S6_EEESt6vectorIS6_SaIS6_EEEE8_M_resetEvEUlOT_E_JRS7_EESQ_St14__invoke_otherOT0_DpOT1_ = comdat any

$_ZZNSt8__detail9__variant16_Variant_storageILb0EJSt9monostatebN9grpc_core12experimental4Json11NumberValueENSt7__cxx1112basic_stringIcSt11char_traitsIcESaIcEEESt3mapISC_S5_St4lessISC_ESaISt4pairIKSC_S5_EEESt6vectorIS5_SaIS5_EEEE8_M_resetEvENUlOT_E_clIRS6_EEDaSQ_ = comdat any

$_ZSt8_DestroyIN9grpc_core12experimental4Json11NumberValueEEvPT_ = comdat any

$_ZN9grpc_core12experimental4Json11NumberValueD2Ev = comdat any

$_ZNSt8__detail9__variant7__get_nILm2ERNS0_15_Variadic_unionIJSt9monostatebN9grpc_core12experimental4Json11NumberValueENSt7__cxx1112basic_stringIcSt11char_traitsIcESaIcEEESt3mapISD_S6_St4lessISD_ESaISt4pairIKSD_S6_EEESt6vectorIS6_SaIS6_EEEEEEEDcOT0_ = comdat any

$_ZNRSt8__detail9__variant14_UninitializedIN9grpc_core12experimental4Json11NumberValueELb0EE6_M_getEv = comdat any

$_ZN9__gnu_cxx16__aligned_membufIN9grpc_core12experimental4Json11NumberValueEE6_M_ptrEv = comdat any

$_ZN9__gnu_cxx16__aligned_membufIN9grpc_core12experimental4Json11NumberValueEE7_M_addrEv = comdat any

$_ZSt10__invoke_rIvZNSt8__detail9__variant16_Variant_storageILb0EJSt9monostatebN9grpc_core12experimental4Json11NumberValueENSt7__cxx1112basic_stringIcSt11char_traitsIcESaIcEEESt3mapISD_S6_St4lessISD_ESaISt4pairIKSD_S6_EEESt6vectorIS6_SaIS6_EEEE8_M_resetEvEUlOT_E_JRSD_EENSt9enable_ifIX16is_invocable_r_vISQ_T0_DpT1_EESQ_E4typeEOSV_DpOSW_ = comdat any

$_ZSt13__invoke_implIvZNSt8__detail9__variant16_Variant_storageILb0EJSt9monostatebN9grpc_core12experimental4Json11NumberValueENSt7__cxx1112basic_stringIcSt11char_traitsIcESaIcEEESt3mapISD_S6_St4lessISD_ESaISt4pairIKSD_S6_EEESt6vectorIS6_SaIS6_EEEE8_M_resetEvEUlOT_E_JRSD_EESQ_St14__invoke_otherOT0_DpOT1_ = comdat any

$_ZZNSt8__detail9__variant16_Variant_storageILb0EJSt9monostatebN9grpc_core12experimental4Json11NumberValueENSt7__cxx1112basic_stringIcSt11char_traitsIcESaIcEEESt3mapISC_S5_St4lessISC_ESaISt4pairIKSC_S5_EEESt6vectorIS5_SaIS5_EEEE8_M_resetEvENUlOT_E_clIRSC_EEDaSQ_ = comdat any

$_ZSt8_DestroyINSt7__cxx1112basic_stringIcSt11char_traitsIcESaIcEEEEvPT_ = comdat any

$_ZSt10__invoke_rIvZNSt8__detail9__variant16_Variant_storageILb0EJSt9monostatebN9grpc_core12experimental4Json11NumberValueENSt7__cxx1112basic_stringIcSt11char_traitsIcESaIcEEESt3mapISD_S6_St4lessISD_ESaISt4pairIKSD_S6_EEESt6vectorIS6_SaIS6_EEEE8_M_resetEvEUlOT_E_JRSL_EENSt9enable_ifIX16is_invocable_r_vISQ_T0_DpT1_EESQ_E4typeEOSV_DpOSW_ = comdat any

$_ZNSt8__detail9__variant5__getILm4ERSt7variantIJSt9monostatebN9grpc_core12experimental4Json11NumberValueENSt7__cxx1112basic_stringIcSt11char_traitsIcESaIcEEESt3mapISD_S6_St4lessISD_ESaISt4pairIKSD_S6_EEESt6vectorIS6_SaIS6_EEEEEEDcOT0_ = comdat any

$_ZSt13__invoke_implIvZNSt8__detail9__variant16_Variant_storageILb0EJSt9monostatebN9grpc_core12experimental4Json11NumberValueENSt7__cxx1112basic_stringIcSt11char_traitsIcESaIcEEESt3mapISD_S6_St4lessISD_ESaISt4pairIKSD_S6_EEESt6vectorIS6_SaIS6_EEEE8_M_resetEvEUlOT_E_JRSL_EESQ_St14__invoke_otherOT0_DpOT1_ = comdat any

$_ZZNSt8__detail9__variant16_Variant_storageILb0EJSt9monostatebN9grpc_core12experimental4Json11NumberValueENSt7__cxx1112basic_stringIcSt11char_traitsIcESaIcEEESt3mapISC_S5_St4lessISC_ESaISt4pairIKSC_S5_EEESt6vectorIS5_SaIS5_EEEE8_M_resetEvENUlOT_E_clIRSK_EEDaSQ_ = comdat any

$_ZSt8_DestroyISt3mapINSt7__cxx1112basic_stringIcSt11char_traitsIcESaIcEEEN9grpc_core12experimental4JsonESt4lessIS6_ESaISt4pairIKS6_S9_EEEEvPT_ = comdat any

$_ZNSt8__detail9__variant7__get_nILm4ERNS0_15_Variadic_unionIJSt9monostatebN9grpc_core12experimental4Json11NumberValueENSt7__cxx1112basic_stringIcSt11char_traitsIcESaIcEEESt3mapISD_S6_St4lessISD_ESaISt4pairIKSD_S6_EEESt6vectorIS6_SaIS6_EEEEEEEDcOT0_ = comdat any

$_ZNSt8__detail9__variant7__get_nILm1ERNS0_15_Variadic_unionIJNSt7__cxx1112basic_stringIcSt11char_traitsIcESaIcEEESt3mapIS8_N9grpc_core12experimental4JsonESt4lessIS8_ESaISt4pairIKS8_SC_EEESt6vectorISC_SaISC_EEEEEEEDcOT0_ = comdat any

$_ZNRSt8__detail9__variant14_UninitializedISt3mapINSt7__cxx1112basic_stringIcSt11char_traitsIcESaIcEEEN9grpc_core12experimental4JsonESt4lessIS8_ESaISt4pairIKS8_SB_EEELb0EE6_M_getEv = comdat any

$_ZN9__gnu_cxx16__aligned_membufISt3mapINSt7__cxx1112basic_stringIcSt11char_traitsIcESaIcEEEN9grpc_core12experimental4JsonESt4lessIS7_ESaISt4pairIKS7_SA_EEEE6_M_ptrEv = comdat any

$_ZN9__gnu_cxx16__aligned_membufISt3mapINSt7__cxx1112basic_stringIcSt11char_traitsIcESaIcEEEN9grpc_core12experimental4JsonESt4lessIS7_ESaISt4pairIKS7_SA_EEEE7_M_addrEv = comdat any

$_ZSt10__invoke_rIvZNSt8__detail9__variant16_Variant_storageILb0EJSt9monostatebN9grpc_core12experimental4Json11NumberValueENSt7__cxx1112basic_stringIcSt11char_traitsIcESaIcEEESt3mapISD_S6_St4lessISD_ESaISt4pairIKSD_S6_EEESt6vectorIS6_SaIS6_EEEE8_M_resetEvEUlOT_E_JRSO_EENSt9enable_ifIX16is_invocable_r_vISQ_T0_DpT1_EESQ_E4typeEOSV_DpOSW_ = comdat any

$_ZNSt8__detail9__variant5__getILm5ERSt7variantIJSt9monostatebN9grpc_core12experimental4Json11NumberValueENSt7__cxx1112basic_stringIcSt11char_traitsIcESaIcEEESt3mapISD_S6_St4lessISD_ESaISt4pairIKSD_S6_EEESt6vectorIS6_SaIS6_EEEEEEDcOT0_ = comdat any

$_ZSt13__invoke_implIvZNSt8__detail9__variant16_Variant_storageILb0EJSt9monostatebN9grpc_core12experimental4Json11NumberValueENSt7__cxx1112basic_stringIcSt11char_traitsIcESaIcEEESt3mapISD_S6_St4lessISD_ESaISt4pairIKSD_S6_EEESt6vectorIS6_SaIS6_EEEE8_M_resetEvEUlOT_E_JRSO_EESQ_St14__invoke_otherOT0_DpOT1_ = comdat any

$_ZZNSt8__detail9__variant16_Variant_storageILb0EJSt9monostatebN9grpc_core12experimental4Json11NumberValueENSt7__cxx1112basic_stringIcSt11char_traitsIcESaIcEEESt3mapISC_S5_St4lessISC_ESaISt4pairIKSC_S5_EEESt6vectorIS5_SaIS5_EEEE8_M_resetEvENUlOT_E_clIRSN_EEDaSQ_ = comdat any

$_ZSt8_DestroyISt6vectorIN9grpc_core12experimental4JsonESaIS3_EEEvPT_ = comdat any

$_ZNSt6vectorIN9grpc_core12experimental4JsonESaIS2_EED2Ev = comdat any

$_ZSt8_DestroyIPN9grpc_core12experimental4JsonES2_EvT_S4_RSaIT0_E = comdat any

$_ZNSt12_Vector_baseIN9grpc_core12experimental4JsonESaIS2_EE19_M_get_Tp_allocatorEv = comdat any

$_ZNSt12_Vector_baseIN9grpc_core12experimental4JsonESaIS2_EED2Ev = comdat any

$_ZSt8_DestroyIPN9grpc_core12experimental4JsonEEvT_S4_ = comdat any

$_ZNSt12_Destroy_auxILb0EE9__destroyIPN9grpc_core12experimental4JsonEEEvT_S6_ = comdat any

$_ZSt8_DestroyIN9grpc_core12experimental4JsonEEvPT_ = comdat any

$_ZNSt12_Vector_baseIN9grpc_core12experimental4JsonESaIS2_EE13_M_deallocateEPS2_m = comdat any

$_ZNSt12_Vector_baseIN9grpc_core12experimental4JsonESaIS2_EE12_Vector_implD2Ev = comdat any

$_ZNSt16allocator_traitsISaIN9grpc_core12experimental4JsonEEE10deallocateERS3_PS2_m = comdat any

$_ZNSt15__new_allocatorIN9grpc_core12experimental4JsonEE10deallocateEPS2_m = comdat any

$_ZNSt15__new_allocatorIN9grpc_core12experimental4JsonEED2Ev = comdat any

$_ZNSt8__detail9__variant7__get_nILm5ERNS0_15_Variadic_unionIJSt9monostatebN9grpc_core12experimental4Json11NumberValueENSt7__cxx1112basic_stringIcSt11char_traitsIcESaIcEEESt3mapISD_S6_St4lessISD_ESaISt4pairIKSD_S6_EEESt6vectorIS6_SaIS6_EEEEEEEDcOT0_ = comdat any

$_ZNSt8__detail9__variant7__get_nILm2ERNS0_15_Variadic_unionIJNSt7__cxx1112basic_stringIcSt11char_traitsIcESaIcEEESt3mapIS8_N9grpc_core12experimental4JsonESt4lessIS8_ESaISt4pairIKS8_SC_EEESt6vectorISC_SaISC_EEEEEEEDcOT0_ = comdat any

$_ZNRSt8__detail9__variant14_UninitializedISt6vectorIN9grpc_core12experimental4JsonESaIS5_EELb0EE6_M_getEv = comdat any

$_ZN9__gnu_cxx16__aligned_membufISt6vectorIN9grpc_core12experimental4JsonESaIS4_EEE6_M_ptrEv = comdat any

$_ZN9__gnu_cxx16__aligned_membufISt6vectorIN9grpc_core12experimental4JsonESaIS4_EEE7_M_addrEv = comdat any

$_ZNSt7variantIJSt9monostatebN9grpc_core12experimental4Json11NumberValueENSt7__cxx1112basic_stringIcSt11char_traitsIcESaIcEEESt3mapISA_S3_St4lessISA_ESaISt4pairIKSA_S3_EEESt6vectorIS3_SaIS3_EEEEaSEOSM_ = comdat any

$_ZNSt7variantIJSt9monostatebN9grpc_core12experimental4Json11NumberValueENSt7__cxx1112basic_stringIcSt11char_traitsIcESaIcEEESt3mapISA_S3_St4lessISA_ESaISt4pairIKSA_S3_EEESt6vectorIS3_SaIS3_EEEEaSIS0_EENSt9enable_ifIXaaaa14__exactly_onceINSt9_Nth_typeIX16__accepted_indexIOT_EEJS0_bS4_SA_SI_SL_EE4typeEE18is_constructible_vIST_SQ_E15is_assignable_vIRST_SQ_EERSM_E4typeESR_ = comdat any

$_ZNSt8__detail9__variant13_Variant_baseIJSt9monostatebN9grpc_core12experimental4Json11NumberValueENSt7__cxx1112basic_stringIcSt11char_traitsIcESaIcEEESt3mapISC_S5_St4lessISC_ESaISt4pairIKSC_S5_EEESt6vectorIS5_SaIS5_EEEEaSEOSO_ = comdat any

$_ZNSt8__detail9__variant17_Move_assign_baseILb0EJSt9monostatebN9grpc_core12experimental4Json11NumberValueENSt7__cxx1112basic_stringIcSt11char_traitsIcESaIcEEESt3mapISC_S5_St4lessISC_ESaISt4pairIKSC_S5_EEESt6vectorIS5_SaIS5_EEEEaSEOSO_ = comdat any

$_ZNSt8__detail9__variant15__raw_idx_visitIZNS0_17_Move_assign_baseILb0EJSt9monostatebN9grpc_core12experimental4Json11NumberValueENSt7__cxx1112basic_stringIcSt11char_traitsIcESaIcEEESt3mapISD_S6_St4lessISD_ESaISt4pairIKSD_S6_EEESt6vectorIS6_SaIS6_EEEEaSEOSP_EUlOT_T0_E_JRSt7variantIJS3_bS7_SD_SL_SO_EEEEEvSS_DpOT0_ = comdat any

$_ZSt14__variant_castIJSt9monostatebN9grpc_core12experimental4Json11NumberValueENSt7__cxx1112basic_stringIcSt11char_traitsIcESaIcEEESt3mapISA_S3_St4lessISA_ESaISt4pairIKSA_S3_EEESt6vectorIS3_SaIS3_EEERNSt8__detail9__variant17_Move_assign_baseILb0EJS0_bS4_SA_SI_SL_EEEEDcOT0_ = comdat any

$_ZSt10__do_visitINSt8__detail9__variant20__variant_idx_cookieEZNS1_17_Move_assign_baseILb0EJSt9monostatebN9grpc_core12experimental4Json11NumberValueENSt7__cxx1112basic_stringIcSt11char_traitsIcESaIcEEESt3mapISE_S7_St4lessISE_ESaISt4pairIKSE_S7_EEESt6vectorIS7_SaIS7_EEEEaSEOSQ_EUlOT_T0_E_JRSt7variantIJS4_bS8_SE_SM_SP_EEEEDcOSU_DpOT1_ = comdat any

$_ZZSt10__do_visitINSt8__detail9__variant20__variant_idx_cookieEZNS1_17_Move_assign_baseILb0EJSt9monostatebN9grpc_core12experimental4Json11NumberValueENSt7__cxx1112basic_stringIcSt11char_traitsIcESaIcEEESt3mapISE_S7_St4lessISE_ESaISt4pairIKSE_S7_EEESt6vectorIS7_SaIS7_EEEEaSEOSQ_EUlOT_T0_E_JRSt7variantIJS4_bS8_SE_SM_SP_EEEEDcOSU_DpOT1_ENKUlSY_zE_clB5cxx11ESY_z = comdat any

$_ZNSt8__detail9__variant17__gen_vtable_implINS0_12_Multi_arrayIPFNS0_20__variant_idx_cookieEOZNS0_17_Move_assign_baseILb0EJSt9monostatebN9grpc_core12experimental4Json11NumberValueENSt7__cxx1112basic_stringIcSt11char_traitsIcESaIcEEESt3mapISF_S8_St4lessISF_ESaISt4pairIKSF_S8_EEESt6vectorIS8_SaIS8_EEEEaSEOSR_EUlOT_T0_E_RSt7variantIJS5_bS9_SF_SN_SQ_EEEJEEESt16integer_sequenceImJLm0EEEE14__visit_invokeESX_S10_ = comdat any

$_ZNSt8__detail9__variant17__gen_vtable_implINS0_12_Multi_arrayIPFNS0_20__variant_idx_cookieEOZNS0_17_Move_assign_baseILb0EJSt9monostatebN9grpc_core12experimental4Json11NumberValueENSt7__cxx1112basic_stringIcSt11char_traitsIcESaIcEEESt3mapISF_S8_St4lessISF_ESaISt4pairIKSF_S8_EEESt6vectorIS8_SaIS8_EEEEaSEOSR_EUlOT_T0_E_RSt7variantIJS5_bS9_SF_SN_SQ_EEEJEEESt16integer_sequenceImJLm1EEEE14__visit_invokeESX_S10_ = comdat any

$_ZNSt8__detail9__variant17__gen_vtable_implINS0_12_Multi_arrayIPFNS0_20__variant_idx_cookieEOZNS0_17_Move_assign_baseILb0EJSt9monostatebN9grpc_core12experimental4Json11NumberValueENSt7__cxx1112basic_stringIcSt11char_traitsIcESaIcEEESt3mapISF_S8_St4lessISF_ESaISt4pairIKSF_S8_EEESt6vectorIS8_SaIS8_EEEEaSEOSR_EUlOT_T0_E_RSt7variantIJS5_bS9_SF_SN_SQ_EEEJEEESt16integer_sequenceImJLm2EEEE14__visit_invokeESX_S10_ = comdat any

$_ZNSt8__detail9__variant17__gen_vtable_implINS0_12_Multi_arrayIPFNS0_20__variant_idx_cookieEOZNS0_17_Move_assign_baseILb0EJSt9monostatebN9grpc_core12experimental4Json11NumberValueENSt7__cxx1112basic_stringIcSt11char_traitsIcESaIcEEESt3mapISF_S8_St4lessISF_ESaISt4pairIKSF_S8_EEESt6vectorIS8_SaIS8_EEEEaSEOSR_EUlOT_T0_E_RSt7variantIJS5_bS9_SF_SN_SQ_EEEJEEESt16integer_sequenceImJLm3EEEE14__visit_invokeESX_S10_ = comdat any

$_ZNSt8__detail9__variant17__gen_vtable_implINS0_12_Multi_arrayIPFNS0_20__variant_idx_cookieEOZNS0_17_Move_assign_baseILb0EJSt9monostatebN9grpc_core12experimental4Json11NumberValueENSt7__cxx1112basic_stringIcSt11char_traitsIcESaIcEEESt3mapISF_S8_St4lessISF_ESaISt4pairIKSF_S8_EEESt6vectorIS8_SaIS8_EEEEaSEOSR_EUlOT_T0_E_RSt7variantIJS5_bS9_SF_SN_SQ_EEEJEEESt16integer_sequenceImJLm4EEEE14__visit_invokeESX_S10_ = comdat any

$_ZNSt8__detail9__variant17__gen_vtable_implINS0_12_Multi_arrayIPFNS0_20__variant_idx_cookieEOZNS0_17_Move_assign_baseILb0EJSt9monostatebN9grpc_core12experimental4Json11NumberValueENSt7__cxx1112basic_stringIcSt11char_traitsIcESaIcEEESt3mapISF_S8_St4lessISF_ESaISt4pairIKSF_S8_EEESt6vectorIS8_SaIS8_EEEEaSEOSR_EUlOT_T0_E_RSt7variantIJS5_bS9_SF_SN_SQ_EEEJEEESt16integer_sequenceImJLm5EEEE14__visit_invokeESX_S10_ = comdat any

$_ZNSt8__detail9__variant17__gen_vtable_implINS0_12_Multi_arrayIPFNS0_20__variant_idx_cookieEOZNS0_17_Move_assign_baseILb0EJSt9monostatebN9grpc_core12experimental4Json11NumberValueENSt7__cxx1112basic_stringIcSt11char_traitsIcESaIcEEESt3mapISF_S8_St4lessISF_ESaISt4pairIKSF_S8_EEESt6vectorIS8_SaIS8_EEEEaSEOSR_EUlOT_T0_E_RSt7variantIJS5_bS9_SF_SN_SQ_EEEJEEESt16integer_sequenceImJLm18446744073709551615EEEE14__visit_invokeESX_S10_ = comdat any

$_ZSt8__invokeIZNSt8__detail9__variant17_Move_assign_baseILb0EJSt9monostatebN9grpc_core12experimental4Json11NumberValueENSt7__cxx1112basic_stringIcSt11char_traitsIcESaIcEEESt3mapISD_S6_St4lessISD_ESaISt4pairIKSD_S6_EEESt6vectorIS6_SaIS6_EEEEaSEOSP_EUlOT_T0_E_JRS3_St17integral_constantImLm0EEEENSt15__invoke_resultISR_JDpT0_EE4typeESS_DpOSZ_ = comdat any

$_ZNSt8__detail9__variant17__gen_vtable_implINS0_12_Multi_arrayIPFNS0_20__variant_idx_cookieEOZNS0_17_Move_assign_baseILb0EJSt9monostatebN9grpc_core12experimental4Json11NumberValueENSt7__cxx1112basic_stringIcSt11char_traitsIcESaIcEEESt3mapISF_S8_St4lessISF_ESaISt4pairIKSF_S8_EEESt6vectorIS8_SaIS8_EEEEaSEOSR_EUlOT_T0_E_RSt7variantIJS5_bS9_SF_SN_SQ_EEEJEEESt16integer_sequenceImJLm0EEEE28__element_by_index_or_cookieILm0ES10_EEDcOSV_ = comdat any

$_ZSt13__invoke_implIvZNSt8__detail9__variant17_Move_assign_baseILb0EJSt9monostatebN9grpc_core12experimental4Json11NumberValueENSt7__cxx1112basic_stringIcSt11char_traitsIcESaIcEEESt3mapISD_S6_St4lessISD_ESaISt4pairIKSD_S6_EEESt6vectorIS6_SaIS6_EEEEaSEOSP_EUlOT_T0_E_JRS3_St17integral_constantImLm0EEEESR_St14__invoke_otherOST_DpOT1_ = comdat any

$_ZZNSt8__detail9__variant17_Move_assign_baseILb0EJSt9monostatebN9grpc_core12experimental4Json11NumberValueENSt7__cxx1112basic_stringIcSt11char_traitsIcESaIcEEESt3mapISC_S5_St4lessISC_ESaISt4pairIKSC_S5_EEESt6vectorIS5_SaIS5_EEEEaSEOSO_ENUlOT_T0_E_clIRS2_St17integral_constantImLm0EEEEDaSR_SS_ = comdat any

$_ZNSt8__detail9__variant5__getILm0ERNS0_17_Move_assign_baseILb0EJSt9monostatebN9grpc_core12experimental4Json11NumberValueENSt7__cxx1112basic_stringIcSt11char_traitsIcESaIcEEESt3mapISD_S6_St4lessISD_ESaISt4pairIKSD_S6_EEESt6vectorIS6_SaIS6_EEEEEEEDcOT0_ = comdat any

$_ZNSt8__detail9__variant9__emplaceILm0ELb0EJSt9monostatebN9grpc_core12experimental4Json11NumberValueENSt7__cxx1112basic_stringIcSt11char_traitsIcESaIcEEESt3mapISC_S5_St4lessISC_ESaISt4pairIKSC_S5_EEESt6vectorIS5_SaIS5_EEEJS2_EEEvRNS0_16_Variant_storageIXT0_EJDpT1_EEEDpOT2_ = comdat any

$_ZSt10_ConstructISt9monostateJS0_EEvPT_DpOT0_ = comdat any

$_ZSt8__invokeIZNSt8__detail9__variant17_Move_assign_baseILb0EJSt9monostatebN9grpc_core12experimental4Json11NumberValueENSt7__cxx1112basic_stringIcSt11char_traitsIcESaIcEEESt3mapISD_S6_St4lessISD_ESaISt4pairIKSD_S6_EEESt6vectorIS6_SaIS6_EEEEaSEOSP_EUlOT_T0_E_JRbSt17integral_constantImLm1EEEENSt15__invoke_resultISR_JDpT0_EE4typeESS_DpOSZ_ = comdat any

$_ZNSt8__detail9__variant17__gen_vtable_implINS0_12_Multi_arrayIPFNS0_20__variant_idx_cookieEOZNS0_17_Move_assign_baseILb0EJSt9monostatebN9grpc_core12experimental4Json11NumberValueENSt7__cxx1112basic_stringIcSt11char_traitsIcESaIcEEESt3mapISF_S8_St4lessISF_ESaISt4pairIKSF_S8_EEESt6vectorIS8_SaIS8_EEEEaSEOSR_EUlOT_T0_E_RSt7variantIJS5_bS9_SF_SN_SQ_EEEJEEESt16integer_sequenceImJLm1EEEE28__element_by_index_or_cookieILm1ES10_EEDcOSV_ = comdat any

$_ZSt13__invoke_implIvZNSt8__detail9__variant17_Move_assign_baseILb0EJSt9monostatebN9grpc_core12experimental4Json11NumberValueENSt7__cxx1112basic_stringIcSt11char_traitsIcESaIcEEESt3mapISD_S6_St4lessISD_ESaISt4pairIKSD_S6_EEESt6vectorIS6_SaIS6_EEEEaSEOSP_EUlOT_T0_E_JRbSt17integral_constantImLm1EEEESR_St14__invoke_otherOST_DpOT1_ = comdat any

$_ZZNSt8__detail9__variant17_Move_assign_baseILb0EJSt9monostatebN9grpc_core12experimental4Json11NumberValueENSt7__cxx1112basic_stringIcSt11char_traitsIcESaIcEEESt3mapISC_S5_St4lessISC_ESaISt4pairIKSC_S5_EEESt6vectorIS5_SaIS5_EEEEaSEOSO_ENUlOT_T0_E_clIRbSt17integral_constantImLm1EEEEDaSR_SS_ = comdat any

$_ZNSt8__detail9__variant5__getILm1ERNS0_17_Move_assign_baseILb0EJSt9monostatebN9grpc_core12experimental4Json11NumberValueENSt7__cxx1112basic_stringIcSt11char_traitsIcESaIcEEESt3mapISD_S6_St4lessISD_ESaISt4pairIKSD_S6_EEESt6vectorIS6_SaIS6_EEEEEEEDcOT0_ = comdat any

$_ZNSt8__detail9__variant9__emplaceILm1ELb0EJSt9monostatebN9grpc_core12experimental4Json11NumberValueENSt7__cxx1112basic_stringIcSt11char_traitsIcESaIcEEESt3mapISC_S5_St4lessISC_ESaISt4pairIKSC_S5_EEESt6vectorIS5_SaIS5_EEEJbEEEvRNS0_16_Variant_storageIXT0_EJDpT1_EEEDpOT2_ = comdat any

$_ZSt10_ConstructIbJbEEvPT_DpOT0_ = comdat any

$_ZSt8__invokeIZNSt8__detail9__variant17_Move_assign_baseILb0EJSt9monostatebN9grpc_core12experimental4Json11NumberValueENSt7__cxx1112basic_stringIcSt11char_traitsIcESaIcEEESt3mapISD_S6_St4lessISD_ESaISt4pairIKSD_S6_EEESt6vectorIS6_SaIS6_EEEEaSEOSP_EUlOT_T0_E_JRS7_St17integral_constantImLm2EEEENSt15__invoke_resultISR_JDpT0_EE4typeESS_DpOSZ_ = comdat any

$_ZNSt8__detail9__variant17__gen_vtable_implINS0_12_Multi_arrayIPFNS0_20__variant_idx_cookieEOZNS0_17_Move_assign_baseILb0EJSt9monostatebN9grpc_core12experimental4Json11NumberValueENSt7__cxx1112basic_stringIcSt11char_traitsIcESaIcEEESt3mapISF_S8_St4lessISF_ESaISt4pairIKSF_S8_EEESt6vectorIS8_SaIS8_EEEEaSEOSR_EUlOT_T0_E_RSt7variantIJS5_bS9_SF_SN_SQ_EEEJEEESt16integer_sequenceImJLm2EEEE28__element_by_index_or_cookieILm2ES10_EEDcOSV_ = comdat any

$_ZSt13__invoke_implIvZNSt8__detail9__variant17_Move_assign_baseILb0EJSt9monostatebN9grpc_core12experimental4Json11NumberValueENSt7__cxx1112basic_stringIcSt11char_traitsIcESaIcEEESt3mapISD_S6_St4lessISD_ESaISt4pairIKSD_S6_EEESt6vectorIS6_SaIS6_EEEEaSEOSP_EUlOT_T0_E_JRS7_St17integral_constantImLm2EEEESR_St14__invoke_otherOST_DpOT1_ = comdat any

$_ZZNSt8__detail9__variant17_Move_assign_baseILb0EJSt9monostatebN9grpc_core12experimental4Json11NumberValueENSt7__cxx1112basic_stringIcSt11char_traitsIcESaIcEEESt3mapISC_S5_St4lessISC_ESaISt4pairIKSC_S5_EEESt6vectorIS5_SaIS5_EEEEaSEOSO_ENUlOT_T0_E_clIRS6_St17integral_constantImLm2EEEEDaSR_SS_ = comdat any

$_ZNSt8__detail9__variant5__getILm2ERNS0_17_Move_assign_baseILb0EJSt9monostatebN9grpc_core12experimental4Json11NumberValueENSt7__cxx1112basic_stringIcSt11char_traitsIcESaIcEEESt3mapISD_S6_St4lessISD_ESaISt4pairIKSD_S6_EEESt6vectorIS6_SaIS6_EEEEEEEDcOT0_ = comdat any

$_ZN9grpc_core12experimental4Json11NumberValueaSEOS2_ = comdat any

$_ZNSt8__detail9__variant9__emplaceILm2ELb0EJSt9monostatebN9grpc_core12experimental4Json11NumberValueENSt7__cxx1112basic_stringIcSt11char_traitsIcESaIcEEESt3mapISC_S5_St4lessISC_ESaISt4pairIKSC_S5_EEESt6vectorIS5_SaIS5_EEEJS6_EEEvRNS0_16_Variant_storageIXT0_EJDpT1_EEEDpOT2_ = comdat any

$_ZSt10_ConstructIN9grpc_core12experimental4Json11NumberValueEJS3_EEvPT_DpOT0_ = comdat any

$_ZN9grpc_core12experimental4Json11NumberValueC2EOS2_ = comdat any

$_ZSt8__invokeIZNSt8__detail9__variant17_Move_assign_baseILb0EJSt9monostatebN9grpc_core12experimental4Json11NumberValueENSt7__cxx1112basic_stringIcSt11char_traitsIcESaIcEEESt3mapISD_S6_St4lessISD_ESaISt4pairIKSD_S6_EEESt6vectorIS6_SaIS6_EEEEaSEOSP_EUlOT_T0_E_JRSD_St17integral_constantImLm3EEEENSt15__invoke_resultISR_JDpT0_EE4typeESS_DpOSZ_ = comdat any

$_ZNSt8__detail9__variant17__gen_vtable_implINS0_12_Multi_arrayIPFNS0_20__variant_idx_cookieEOZNS0_17_Move_assign_baseILb0EJSt9monostatebN9grpc_core12experimental4Json11NumberValueENSt7__cxx1112basic_stringIcSt11char_traitsIcESaIcEEESt3mapISF_S8_St4lessISF_ESaISt4pairIKSF_S8_EEESt6vectorIS8_SaIS8_EEEEaSEOSR_EUlOT_T0_E_RSt7variantIJS5_bS9_SF_SN_SQ_EEEJEEESt16integer_sequenceImJLm3EEEE28__element_by_index_or_cookieILm3ES10_EEDcOSV_ = comdat any

$_ZSt13__invoke_implIvZNSt8__detail9__variant17_Move_assign_baseILb0EJSt9monostatebN9grpc_core12experimental4Json11NumberValueENSt7__cxx1112basic_stringIcSt11char_traitsIcESaIcEEESt3mapISD_S6_St4lessISD_ESaISt4pairIKSD_S6_EEESt6vectorIS6_SaIS6_EEEEaSEOSP_EUlOT_T0_E_JRSD_St17integral_constantImLm3EEEESR_St14__invoke_otherOST_DpOT1_ = comdat any

$_ZZNSt8__detail9__variant17_Move_assign_baseILb0EJSt9monostatebN9grpc_core12experimental4Json11NumberValueENSt7__cxx1112basic_stringIcSt11char_traitsIcESaIcEEESt3mapISC_S5_St4lessISC_ESaISt4pairIKSC_S5_EEESt6vectorIS5_SaIS5_EEEEaSEOSO_ENUlOT_T0_E_clIRSC_St17integral_constantImLm3EEEEDaSR_SS_ = comdat any

$_ZNSt8__detail9__variant5__getILm3ERNS0_17_Move_assign_baseILb0EJSt9monostatebN9grpc_core12experimental4Json11NumberValueENSt7__cxx1112basic_stringIcSt11char_traitsIcESaIcEEESt3mapISD_S6_St4lessISD_ESaISt4pairIKSD_S6_EEESt6vectorIS6_SaIS6_EEEEEEEDcOT0_ = comdat any

$_ZSt8__invokeIZNSt8__detail9__variant17_Move_assign_baseILb0EJSt9monostatebN9grpc_core12experimental4Json11NumberValueENSt7__cxx1112basic_stringIcSt11char_traitsIcESaIcEEESt3mapISD_S6_St4lessISD_ESaISt4pairIKSD_S6_EEESt6vectorIS6_SaIS6_EEEEaSEOSP_EUlOT_T0_E_JRSL_St17integral_constantImLm4EEEENSt15__invoke_resultISR_JDpT0_EE4typeESS_DpOSZ_ = comdat any

$_ZNSt8__detail9__variant17__gen_vtable_implINS0_12_Multi_arrayIPFNS0_20__variant_idx_cookieEOZNS0_17_Move_assign_baseILb0EJSt9monostatebN9grpc_core12experimental4Json11NumberValueENSt7__cxx1112basic_stringIcSt11char_traitsIcESaIcEEESt3mapISF_S8_St4lessISF_ESaISt4pairIKSF_S8_EEESt6vectorIS8_SaIS8_EEEEaSEOSR_EUlOT_T0_E_RSt7variantIJS5_bS9_SF_SN_SQ_EEEJEEESt16integer_sequenceImJLm4EEEE28__element_by_index_or_cookieILm4ES10_EEDcOSV_ = comdat any

$_ZSt13__invoke_implIvZNSt8__detail9__variant17_Move_assign_baseILb0EJSt9monostatebN9grpc_core12experimental4Json11NumberValueENSt7__cxx1112basic_stringIcSt11char_traitsIcESaIcEEESt3mapISD_S6_St4lessISD_ESaISt4pairIKSD_S6_EEESt6vectorIS6_SaIS6_EEEEaSEOSP_EUlOT_T0_E_JRSL_St17integral_constantImLm4EEEESR_St14__invoke_otherOST_DpOT1_ = comdat any

$_ZZNSt8__detail9__variant17_Move_assign_baseILb0EJSt9monostatebN9grpc_core12experimental4Json11NumberValueENSt7__cxx1112basic_stringIcSt11char_traitsIcESaIcEEESt3mapISC_S5_St4lessISC_ESaISt4pairIKSC_S5_EEESt6vectorIS5_SaIS5_EEEEaSEOSO_ENUlOT_T0_E_clIRSK_St17integral_constantImLm4EEEEDaSR_SS_ = comdat any

$_ZNSt8__detail9__variant5__getILm4ERNS0_17_Move_assign_baseILb0EJSt9monostatebN9grpc_core12experimental4Json11NumberValueENSt7__cxx1112basic_stringIcSt11char_traitsIcESaIcEEESt3mapISD_S6_St4lessISD_ESaISt4pairIKSD_S6_EEESt6vectorIS6_SaIS6_EEEEEEEDcOT0_ = comdat any

$_ZNSt3mapINSt7__cxx1112basic_stringIcSt11char_traitsIcESaIcEEEN9grpc_core12experimental4JsonESt4lessIS5_ESaISt4pairIKS5_S8_EEEaSEOSF_ = comdat any

$_ZNSt8__detail9__variant9__emplaceILm4ELb0EJSt9monostatebN9grpc_core12experimental4Json11NumberValueENSt7__cxx1112basic_stringIcSt11char_traitsIcESaIcEEESt3mapISC_S5_St4lessISC_ESaISt4pairIKSC_S5_EEESt6vectorIS5_SaIS5_EEEJSK_EEEvRNS0_16_Variant_storageIXT0_EJDpT1_EEEDpOT2_ = comdat any

$_ZNSt8_Rb_treeINSt7__cxx1112basic_stringIcSt11char_traitsIcESaIcEEESt4pairIKS5_N9grpc_core12experimental4JsonEESt10_Select1stISB_ESt4lessIS5_ESaISB_EEaSEOSH_ = comdat any

$_ZNSt8_Rb_treeINSt7__cxx1112basic_stringIcSt11char_traitsIcESaIcEEESt4pairIKS5_N9grpc_core12experimental4JsonEESt10_Select1stISB_ESt4lessIS5_ESaISB_EE14_M_move_assignERSH_St17integral_constantIbLb1EE = comdat any

$_ZNSt8_Rb_treeINSt7__cxx1112basic_stringIcSt11char_traitsIcESaIcEEESt4pairIKS5_N9grpc_core12experimental4JsonEESt10_Select1stISB_ESt4lessIS5_ESaISB_EE5clearEv = comdat any

$_ZNSt8_Rb_treeINSt7__cxx1112basic_stringIcSt11char_traitsIcESaIcEEESt4pairIKS5_N9grpc_core12experimental4JsonEESt10_Select1stISB_ESt4lessIS5_ESaISB_EE7_M_rootEv = comdat any

$_ZNSt8_Rb_treeINSt7__cxx1112basic_stringIcSt11char_traitsIcESaIcEEESt4pairIKS5_N9grpc_core12experimental4JsonEESt10_Select1stISB_ESt4lessIS5_ESaISB_EE12_M_move_dataERSH_St17integral_constantIbLb1EE = comdat any

$_ZSt15__alloc_on_moveISaISt13_Rb_tree_nodeISt4pairIKNSt7__cxx1112basic_stringIcSt11char_traitsIcESaIcEEEN9grpc_core12experimental4JsonEEEEEvRT_SG_ = comdat any

$_ZNSt8_Rb_treeINSt7__cxx1112basic_stringIcSt11char_traitsIcESaIcEEESt4pairIKS5_N9grpc_core12experimental4JsonEESt10_Select1stISB_ESt4lessIS5_ESaISB_EE21_M_get_Node_allocatorEv = comdat any

$_ZNSt8_Rb_treeINSt7__cxx1112basic_stringIcSt11char_traitsIcESaIcEEESt4pairIKS5_N9grpc_core12experimental4JsonEESt10_Select1stISB_ESt4lessIS5_ESaISB_EE8_M_eraseEPSt13_Rb_tree_nodeISB_E = comdat any

$_ZNSt8_Rb_treeINSt7__cxx1112basic_stringIcSt11char_traitsIcESaIcEEESt4pairIKS5_N9grpc_core12experimental4JsonEESt10_Select1stISB_ESt4lessIS5_ESaISB_EE8_M_beginEv = comdat any

$_ZNSt8_Rb_treeINSt7__cxx1112basic_stringIcSt11char_traitsIcESaIcEEESt4pairIKS5_N9grpc_core12experimental4JsonEESt10_Select1stISB_ESt4lessIS5_ESaISB_EE8_S_rightEPSt18_Rb_tree_node_base = comdat any

$_ZNSt8_Rb_treeINSt7__cxx1112basic_stringIcSt11char_traitsIcESaIcEEESt4pairIKS5_N9grpc_core12experimental4JsonEESt10_Select1stISB_ESt4lessIS5_ESaISB_EE7_S_leftEPSt18_Rb_tree_node_base = comdat any

$_ZNSt8_Rb_treeINSt7__cxx1112basic_stringIcSt11char_traitsIcESaIcEEESt4pairIKS5_N9grpc_core12experimental4JsonEESt10_Select1stISB_ESt4lessIS5_ESaISB_EE12_M_drop_nodeEPSt13_Rb_tree_nodeISB_E = comdat any

$_ZNSt8_Rb_treeINSt7__cxx1112basic_stringIcSt11char_traitsIcESaIcEEESt4pairIKS5_N9grpc_core12experimental4JsonEESt10_Select1stISB_ESt4lessIS5_ESaISB_EE15_M_destroy_nodeEPSt13_Rb_tree_nodeISB_E = comdat any

$_ZNSt8_Rb_treeINSt7__cxx1112basic_stringIcSt11char_traitsIcESaIcEEESt4pairIKS5_N9grpc_core12experimental4JsonEESt10_Select1stISB_ESt4lessIS5_ESaISB_EE11_M_put_nodeEPSt13_Rb_tree_nodeISB_E = comdat any

$_ZNSt16allocator_traitsISaISt13_Rb_tree_nodeISt4pairIKNSt7__cxx1112basic_stringIcSt11char_traitsIcESaIcEEEN9grpc_core12experimental4JsonEEEEE7destroyISC_EEvRSE_PT_ = comdat any

$_ZNSt13_Rb_tree_nodeISt4pairIKNSt7__cxx1112basic_stringIcSt11char_traitsIcESaIcEEEN9grpc_core12experimental4JsonEEE9_M_valptrEv = comdat any

$_ZNSt15__new_allocatorISt13_Rb_tree_nodeISt4pairIKNSt7__cxx1112basic_stringIcSt11char_traitsIcESaIcEEEN9grpc_core12experimental4JsonEEEE7destroyISC_EEvPT_ = comdat any

$_ZNSt4pairIKNSt7__cxx1112basic_stringIcSt11char_traitsIcESaIcEEEN9grpc_core12experimental4JsonEED2Ev = comdat any

$_ZN9__gnu_cxx16__aligned_membufISt4pairIKNSt7__cxx1112basic_stringIcSt11char_traitsIcESaIcEEEN9grpc_core12experimental4JsonEEE6_M_ptrEv = comdat any

$_ZN9__gnu_cxx16__aligned_membufISt4pairIKNSt7__cxx1112basic_stringIcSt11char_traitsIcESaIcEEEN9grpc_core12experimental4JsonEEE7_M_addrEv = comdat any

$_ZNSt16allocator_traitsISaISt13_Rb_tree_nodeISt4pairIKNSt7__cxx1112basic_stringIcSt11char_traitsIcESaIcEEEN9grpc_core12experimental4JsonEEEEE10deallocateERSE_PSD_m = comdat any

$_ZNSt15__new_allocatorISt13_Rb_tree_nodeISt4pairIKNSt7__cxx1112basic_stringIcSt11char_traitsIcESaIcEEEN9grpc_core12experimental4JsonEEEE10deallocateEPSD_m = comdat any

$_ZNKSt8_Rb_treeINSt7__cxx1112basic_stringIcSt11char_traitsIcESaIcEEESt4pairIKS5_N9grpc_core12experimental4JsonEESt10_Select1stISB_ESt4lessIS5_ESaISB_EE9_M_mbeginEv = comdat any

$_ZNSt15_Rb_tree_header12_M_move_dataERS_ = comdat any

$_ZSt10_ConstructISt3mapINSt7__cxx1112basic_stringIcSt11char_traitsIcESaIcEEEN9grpc_core12experimental4JsonESt4lessIS6_ESaISt4pairIKS6_S9_EEEJSG_EEvPT_DpOT0_ = comdat any

$_ZNSt3mapINSt7__cxx1112basic_stringIcSt11char_traitsIcESaIcEEEN9grpc_core12experimental4JsonESt4lessIS5_ESaISt4pairIKS5_S8_EEEC2EOSF_ = comdat any

$_ZNSt8_Rb_treeINSt7__cxx1112basic_stringIcSt11char_traitsIcESaIcEEESt4pairIKS5_N9grpc_core12experimental4JsonEESt10_Select1stISB_ESt4lessIS5_ESaISB_EEC2EOSH_ = comdat any

$_ZNSt8_Rb_treeINSt7__cxx1112basic_stringIcSt11char_traitsIcESaIcEEESt4pairIKS5_N9grpc_core12experimental4JsonEESt10_Select1stISB_ESt4lessIS5_ESaISB_EE13_Rb_tree_implISF_Lb1EEC2EOSJ_ = comdat any

$_ZNSt20_Rb_tree_key_compareISt4lessINSt7__cxx1112basic_stringIcSt11char_traitsIcESaIcEEEEEC2EOS8_ = comdat any

$_ZNSt15_Rb_tree_headerC2EOS_ = comdat any

$_ZNSt15__new_allocatorISt13_Rb_tree_nodeISt4pairIKNSt7__cxx1112basic_stringIcSt11char_traitsIcESaIcEEEN9grpc_core12experimental4JsonEEEEC2ERKSE_ = comdat any

$_ZSt8__invokeIZNSt8__detail9__variant17_Move_assign_baseILb0EJSt9monostatebN9grpc_core12experimental4Json11NumberValueENSt7__cxx1112basic_stringIcSt11char_traitsIcESaIcEEESt3mapISD_S6_St4lessISD_ESaISt4pairIKSD_S6_EEESt6vectorIS6_SaIS6_EEEEaSEOSP_EUlOT_T0_E_JRSO_St17integral_constantImLm5EEEENSt15__invoke_resultISR_JDpT0_EE4typeESS_DpOSZ_ = comdat any

$_ZNSt8__detail9__variant17__gen_vtable_implINS0_12_Multi_arrayIPFNS0_20__variant_idx_cookieEOZNS0_17_Move_assign_baseILb0EJSt9monostatebN9grpc_core12experimental4Json11NumberValueENSt7__cxx1112basic_stringIcSt11char_traitsIcESaIcEEESt3mapISF_S8_St4lessISF_ESaISt4pairIKSF_S8_EEESt6vectorIS8_SaIS8_EEEEaSEOSR_EUlOT_T0_E_RSt7variantIJS5_bS9_SF_SN_SQ_EEEJEEESt16integer_sequenceImJLm5EEEE28__element_by_index_or_cookieILm5ES10_EEDcOSV_ = comdat any

$_ZSt13__invoke_implIvZNSt8__detail9__variant17_Move_assign_baseILb0EJSt9monostatebN9grpc_core12experimental4Json11NumberValueENSt7__cxx1112basic_stringIcSt11char_traitsIcESaIcEEESt3mapISD_S6_St4lessISD_ESaISt4pairIKSD_S6_EEESt6vectorIS6_SaIS6_EEEEaSEOSP_EUlOT_T0_E_JRSO_St17integral_constantImLm5EEEESR_St14__invoke_otherOST_DpOT1_ = comdat any

$_ZZNSt8__detail9__variant17_Move_assign_baseILb0EJSt9monostatebN9grpc_core12experimental4Json11NumberValueENSt7__cxx1112basic_stringIcSt11char_traitsIcESaIcEEESt3mapISC_S5_St4lessISC_ESaISt4pairIKSC_S5_EEESt6vectorIS5_SaIS5_EEEEaSEOSO_ENUlOT_T0_E_clIRSN_St17integral_constantImLm5EEEEDaSR_SS_ = comdat any

$_ZNSt8__detail9__variant5__getILm5ERNS0_17_Move_assign_baseILb0EJSt9monostatebN9grpc_core12experimental4Json11NumberValueENSt7__cxx1112basic_stringIcSt11char_traitsIcESaIcEEESt3mapISD_S6_St4lessISD_ESaISt4pairIKSD_S6_EEESt6vectorIS6_SaIS6_EEEEEEEDcOT0_ = comdat any

$_ZNSt6vectorIN9grpc_core12experimental4JsonESaIS2_EEaSEOS4_ = comdat any

$_ZNSt8__detail9__variant9__emplaceILm5ELb0EJSt9monostatebN9grpc_core12experimental4Json11NumberValueENSt7__cxx1112basic_stringIcSt11char_traitsIcESaIcEEESt3mapISC_S5_St4lessISC_ESaISt4pairIKSC_S5_EEESt6vectorIS5_SaIS5_EEEJSN_EEEvRNS0_16_Variant_storageIXT0_EJDpT1_EEEDpOT2_ = comdat any

$_ZNSt6vectorIN9grpc_core12experimental4JsonESaIS2_EE14_M_move_assignEOS4_St17integral_constantIbLb1EE = comdat any

$_ZNKSt12_Vector_baseIN9grpc_core12experimental4JsonESaIS2_EE13get_allocatorEv = comdat any

$_ZNSt6vectorIN9grpc_core12experimental4JsonESaIS2_EEC2ERKS3_ = comdat any

$_ZNSaIN9grpc_core12experimental4JsonEED2Ev = comdat any

$_ZNSt12_Vector_baseIN9grpc_core12experimental4JsonESaIS2_EE17_Vector_impl_data12_M_swap_dataERS5_ = comdat any

$_ZSt15__alloc_on_moveISaIN9grpc_core12experimental4JsonEEEvRT_S5_ = comdat any

$_ZNKSt12_Vector_baseIN9grpc_core12experimental4JsonESaIS2_EE19_M_get_Tp_allocatorEv = comdat any

$_ZNSaIN9grpc_core12experimental4JsonEEC2ERKS2_ = comdat any

$_ZNSt15__new_allocatorIN9grpc_core12experimental4JsonEEC2ERKS3_ = comdat any

$_ZNSt12_Vector_baseIN9grpc_core12experimental4JsonESaIS2_EEC2ERKS3_ = comdat any

$_ZNSt12_Vector_baseIN9grpc_core12experimental4JsonESaIS2_EE12_Vector_implC2ERKS3_ = comdat any

$_ZNSt12_Vector_baseIN9grpc_core12experimental4JsonESaIS2_EE17_Vector_impl_dataC2Ev = comdat any

$_ZNSt12_Vector_baseIN9grpc_core12experimental4JsonESaIS2_EE17_Vector_impl_data12_M_copy_dataERKS5_ = comdat any

$_ZSt10_ConstructISt6vectorIN9grpc_core12experimental4JsonESaIS3_EEJS5_EEvPT_DpOT0_ = comdat any

$_ZNSt6vectorIN9grpc_core12experimental4JsonESaIS2_EEC2EOS4_ = comdat any

$_ZNSt12_Vector_baseIN9grpc_core12experimental4JsonESaIS2_EEC2EOS4_ = comdat any

$_ZNSt12_Vector_baseIN9grpc_core12experimental4JsonESaIS2_EE12_Vector_implC2EOS5_ = comdat any

$_ZNSt12_Vector_baseIN9grpc_core12experimental4JsonESaIS2_EE17_Vector_impl_dataC2EOS5_ = comdat any

$_ZSt8__invokeIZNSt8__detail9__variant17_Move_assign_baseILb0EJSt9monostatebN9grpc_core12experimental4Json11NumberValueENSt7__cxx1112basic_stringIcSt11char_traitsIcESaIcEEESt3mapISD_S6_St4lessISD_ESaISt4pairIKSD_S6_EEESt6vectorIS6_SaIS6_EEEEaSEOSP_EUlOT_T0_E_JNS1_16__variant_cookieESt17integral_constantImLm18446744073709551615EEEENSt15__invoke_resultISR_JDpT0_EE4typeESS_DpOSZ_ = comdat any

$_ZNSt8__detail9__variant17__gen_vtable_implINS0_12_Multi_arrayIPFNS0_20__variant_idx_cookieEOZNS0_17_Move_assign_baseILb0EJSt9monostatebN9grpc_core12experimental4Json11NumberValueENSt7__cxx1112basic_stringIcSt11char_traitsIcESaIcEEESt3mapISF_S8_St4lessISF_ESaISt4pairIKSF_S8_EEESt6vectorIS8_SaIS8_EEEEaSEOSR_EUlOT_T0_E_RSt7variantIJS5_bS9_SF_SN_SQ_EEEJEEESt16integer_sequenceImJLm18446744073709551615EEEE28__element_by_index_or_cookieILm18446744073709551615ES10_EEDcOSV_ = comdat any

$_ZSt13__invoke_implIvZNSt8__detail9__variant17_Move_assign_baseILb0EJSt9monostatebN9grpc_core12experimental4Json11NumberValueENSt7__cxx1112basic_stringIcSt11char_traitsIcESaIcEEESt3mapISD_S6_St4lessISD_ESaISt4pairIKSD_S6_EEESt6vectorIS6_SaIS6_EEEEaSEOSP_EUlOT_T0_E_JNS1_16__variant_cookieESt17integral_constantImLm18446744073709551615EEEESR_St14__invoke_otherOST_DpOT1_ = comdat any

$_ZZNSt8__detail9__variant17_Move_assign_baseILb0EJSt9monostatebN9grpc_core12experimental4Json11NumberValueENSt7__cxx1112basic_stringIcSt11char_traitsIcESaIcEEESt3mapISC_S5_St4lessISC_ESaISt4pairIKSC_S5_EEESt6vectorIS5_SaIS5_EEEEaSEOSO_ENUlOT_T0_E_clINS0_16__variant_cookieESt17integral_constantImLm18446744073709551615EEEEDaSR_SS_ = comdat any

$_ZSt3getILm0EJSt9monostatebN9grpc_core12experimental4Json11NumberValueENSt7__cxx1112basic_stringIcSt11char_traitsIcESaIcEEESt3mapISA_S3_St4lessISA_ESaISt4pairIKSA_S3_EEESt6vectorIS3_SaIS3_EEEERNSt19variant_alternativeIXT_ESt7variantIJDpT0_EEE4typeERSQ_ = comdat any

$_ZNSt7variantIJSt9monostatebN9grpc_core12experimental4Json11NumberValueENSt7__cxx1112basic_stringIcSt11char_traitsIcESaIcEEESt3mapISA_S3_St4lessISA_ESaISt4pairIKSA_S3_EEESt6vectorIS3_SaIS3_EEEE7emplaceILm0EJS0_EEENSt9enable_ifIX18is_constructible_vINSt9_Nth_typeIXT_EJS0_bS4_SA_SI_SL_EE4typeEDpT0_EERSR_E4typeEDpOSS_ = comdat any

$_ZNSt7variantIJSt9monostatebN9grpc_core12experimental4Json11NumberValueENSt7__cxx1112basic_stringIcSt11char_traitsIcESaIcEEESt3mapISA_S3_St4lessISA_ESaISt4pairIKSA_S3_EEESt6vectorIS3_SaIS3_EEEED2Ev = comdat any

$_ZNSt8__detail9__variant13_Variant_baseIJSt9monostatebN9grpc_core12experimental4Json11NumberValueENSt7__cxx1112basic_stringIcSt11char_traitsIcESaIcEEESt3mapISC_S5_St4lessISC_ESaISt4pairIKSC_S5_EEESt6vectorIS5_SaIS5_EEEED2Ev = comdat any

$_ZNSt8__detail9__variant17_Move_assign_baseILb0EJSt9monostatebN9grpc_core12experimental4Json11NumberValueENSt7__cxx1112basic_stringIcSt11char_traitsIcESaIcEEESt3mapISC_S5_St4lessISC_ESaISt4pairIKSC_S5_EEESt6vectorIS5_SaIS5_EEEED2Ev = comdat any

$_ZNSt8__detail9__variant17_Copy_assign_baseILb0EJSt9monostatebN9grpc_core12experimental4Json11NumberValueENSt7__cxx1112basic_stringIcSt11char_traitsIcESaIcEEESt3mapISC_S5_St4lessISC_ESaISt4pairIKSC_S5_EEESt6vectorIS5_SaIS5_EEEED2Ev = comdat any

$_ZNSt8__detail9__variant15_Move_ctor_baseILb0EJSt9monostatebN9grpc_core12experimental4Json11NumberValueENSt7__cxx1112basic_stringIcSt11char_traitsIcESaIcEEESt3mapISC_S5_St4lessISC_ESaISt4pairIKSC_S5_EEESt6vectorIS5_SaIS5_EEEED2Ev = comdat any

$_ZNSt8__detail9__variant15_Copy_ctor_baseILb0EJSt9monostatebN9grpc_core12experimental4Json11NumberValueENSt7__cxx1112basic_stringIcSt11char_traitsIcESaIcEEESt3mapISC_S5_St4lessISC_ESaISt4pairIKSC_S5_EEESt6vectorIS5_SaIS5_EEEED2Ev = comdat any

$_ZNSt8__detail9__variant16_Variant_storageILb0EJSt9monostatebN9grpc_core12experimental4Json11NumberValueENSt7__cxx1112basic_stringIcSt11char_traitsIcESaIcEEESt3mapISC_S5_St4lessISC_ESaISt4pairIKSC_S5_EEESt6vectorIS5_SaIS5_EEEED2Ev = comdat any

$_ZN4absl12lts_202308026StrCatB5cxx11ERKNS0_8AlphaNumE = comdat any

$_ZN4absl12lts_202308028AlphaNumC2Ej = comdat any

$_ZNSt7variantIJSt9monostatebN9grpc_core12experimental4Json11NumberValueENSt7__cxx1112basic_stringIcSt11char_traitsIcESaIcEEESt3mapISA_S3_St4lessISA_ESaISt4pairIKSA_S3_EEESt6vectorIS3_SaIS3_EEEEaSIS4_EENSt9enable_ifIXaaaa14__exactly_onceINSt9_Nth_typeIX16__accepted_indexIOT_EEJS0_bS4_SA_SI_SL_EE4typeEE18is_constructible_vIST_SQ_E15is_assignable_vIRST_SQ_EERSM_E4typeESR_ = comdat any

$_ZNK4absl12lts_202308028AlphaNum4dataEv = comdat any

$_ZNK4absl12lts_202308028AlphaNum4sizeEv = comdat any

$_ZSt3getILm2EJSt9monostatebN9grpc_core12experimental4Json11NumberValueENSt7__cxx1112basic_stringIcSt11char_traitsIcESaIcEEESt3mapISA_S3_St4lessISA_ESaISt4pairIKSA_S3_EEESt6vectorIS3_SaIS3_EEEERNSt19variant_alternativeIXT_ESt7variantIJDpT0_EEE4typeERSQ_ = comdat any

$_ZNSt7variantIJSt9monostatebN9grpc_core12experimental4Json11NumberValueENSt7__cxx1112basic_stringIcSt11char_traitsIcESaIcEEESt3mapISA_S3_St4lessISA_ESaISt4pairIKSA_S3_EEESt6vectorIS3_SaIS3_EEEE7emplaceILm2EJS4_EEENSt9enable_ifIX18is_constructible_vINSt9_Nth_typeIXT_EJS0_bS4_SA_SI_SL_EE4typeEDpT0_EERSR_E4typeEDpOSS_ = comdat any

$envoy_type_v3_FractionalPercent_denominator = comdat any

$_ZNSt7variantIJSt9monostatebN9grpc_core12experimental4Json11NumberValueENSt7__cxx1112basic_stringIcSt11char_traitsIcESaIcEEESt3mapISA_S3_St4lessISA_ESaISt4pairIKSA_S3_EEESt6vectorIS3_SaIS3_EEEEaSISI_EENSt9enable_ifIXaaaa14__exactly_onceINSt9_Nth_typeIX16__accepted_indexIOT_EEJS0_bS4_SA_SI_SL_EE4typeEE18is_constructible_vIST_SQ_E15is_assignable_vIRST_SQ_EERSM_E4typeESR_ = comdat any

$_ZSt3getILm4EJSt9monostatebN9grpc_core12experimental4Json11NumberValueENSt7__cxx1112basic_stringIcSt11char_traitsIcESaIcEEESt3mapISA_S3_St4lessISA_ESaISt4pairIKSA_S3_EEESt6vectorIS3_SaIS3_EEEERNSt19variant_alternativeIXT_ESt7variantIJDpT0_EEE4typeERSQ_ = comdat any

$_ZNSt7variantIJSt9monostatebN9grpc_core12experimental4Json11NumberValueENSt7__cxx1112basic_stringIcSt11char_traitsIcESaIcEEESt3mapISA_S3_St4lessISA_ESaISt4pairIKSA_S3_EEESt6vectorIS3_SaIS3_EEEE7emplaceILm4EJSI_EEENSt9enable_ifIX18is_constructible_vINSt9_Nth_typeIXT_EJS0_bS4_SA_SI_SL_EE4typeEDpT0_EERSR_E4typeEDpOSS_ = comdat any

$_ZNSt14_Optional_baseIN9grpc_core17XdsHttpFilterImpl12FilterConfigELb0ELb0EEC2IJS2_ETnNSt9enable_ifIX18is_constructible_vIS2_DpT_EEbE4typeELb0EEESt10in_place_tDpOS6_ = comdat any

$_ZNSt17_Optional_payloadIN9grpc_core17XdsHttpFilterImpl12FilterConfigELb0ELb0ELb0EECI2St22_Optional_payload_baseIS2_EIJS2_EEESt10in_place_tDpOT_ = comdat any

$_ZNSt17_Optional_payloadIN9grpc_core17XdsHttpFilterImpl12FilterConfigELb1ELb0ELb0EECI2St22_Optional_payload_baseIS2_EIJS2_EEESt10in_place_tDpOT_ = comdat any

$_ZNSt22_Optional_payload_baseIN9grpc_core17XdsHttpFilterImpl12FilterConfigEEC2IJS2_EEESt10in_place_tDpOT_ = comdat any

$_ZNSt22_Optional_payload_baseIN9grpc_core17XdsHttpFilterImpl12FilterConfigEE8_StorageIS2_Lb0EEC2IJS2_EEESt10in_place_tDpOT_ = comdat any

$_ZN9grpc_core17XdsHttpFilterImpl12FilterConfigC2EOS1_ = comdat any

$_ZN9grpc_core12experimental4JsonC2EOS1_ = comdat any

$_ZNSt7variantIJSt9monostatebN9grpc_core12experimental4Json11NumberValueENSt7__cxx1112basic_stringIcSt11char_traitsIcESaIcEEESt3mapISA_S3_St4lessISA_ESaISt4pairIKSA_S3_EEESt6vectorIS3_SaIS3_EEEEC2EOSM_ = comdat any

$_ZNSt8__detail9__variant13_Variant_baseIJSt9monostatebN9grpc_core12experimental4Json11NumberValueENSt7__cxx1112basic_stringIcSt11char_traitsIcESaIcEEESt3mapISC_S5_St4lessISC_ESaISt4pairIKSC_S5_EEESt6vectorIS5_SaIS5_EEEEC2EOSO_ = comdat any

$_ZNSt8__detail9__variant17_Move_assign_baseILb0EJSt9monostatebN9grpc_core12experimental4Json11NumberValueENSt7__cxx1112basic_stringIcSt11char_traitsIcESaIcEEESt3mapISC_S5_St4lessISC_ESaISt4pairIKSC_S5_EEESt6vectorIS5_SaIS5_EEEEC2EOSO_ = comdat any

$_ZNSt8__detail9__variant17_Copy_assign_baseILb0EJSt9monostatebN9grpc_core12experimental4Json11NumberValueENSt7__cxx1112basic_stringIcSt11char_traitsIcESaIcEEESt3mapISC_S5_St4lessISC_ESaISt4pairIKSC_S5_EEESt6vectorIS5_SaIS5_EEEEC2EOSO_ = comdat any

$_ZNSt8__detail9__variant15_Move_ctor_baseILb0EJSt9monostatebN9grpc_core12experimental4Json11NumberValueENSt7__cxx1112basic_stringIcSt11char_traitsIcESaIcEEESt3mapISC_S5_St4lessISC_ESaISt4pairIKSC_S5_EEESt6vectorIS5_SaIS5_EEEEC2EOSO_ = comdat any

$_ZNSt8__detail9__variant15_Copy_ctor_baseILb0EJSt9monostatebN9grpc_core12experimental4Json11NumberValueENSt7__cxx1112basic_stringIcSt11char_traitsIcESaIcEEESt3mapISC_S5_St4lessISC_ESaISt4pairIKSC_S5_EEESt6vectorIS5_SaIS5_EEEEC2Ev = comdat any

$_ZNSt8__detail9__variant15__raw_idx_visitIZNS0_15_Move_ctor_baseILb0EJSt9monostatebN9grpc_core12experimental4Json11NumberValueENSt7__cxx1112basic_stringIcSt11char_traitsIcESaIcEEESt3mapISD_S6_St4lessISD_ESaISt4pairIKSD_S6_EEESt6vectorIS6_SaIS6_EEEEC1EOSP_EUlOT_T0_E_JSt7variantIJS3_bS7_SD_SL_SO_EEEEEvSS_DpOT0_ = comdat any

$_ZSt14__variant_castIJSt9monostatebN9grpc_core12experimental4Json11NumberValueENSt7__cxx1112basic_stringIcSt11char_traitsIcESaIcEEESt3mapISA_S3_St4lessISA_ESaISt4pairIKSA_S3_EEESt6vectorIS3_SaIS3_EEENSt8__detail9__variant15_Move_ctor_baseILb0EJS0_bS4_SA_SI_SL_EEEEDcOT0_ = comdat any

$_ZNSt8__detail9__variant16_Variant_storageILb0EJSt9monostatebN9grpc_core12experimental4Json11NumberValueENSt7__cxx1112basic_stringIcSt11char_traitsIcESaIcEEESt3mapISC_S5_St4lessISC_ESaISt4pairIKSC_S5_EEESt6vectorIS5_SaIS5_EEEEC2Ev = comdat any

$_ZNSt8__detail9__variant15_Variadic_unionIJSt9monostatebN9grpc_core12experimental4Json11NumberValueENSt7__cxx1112basic_stringIcSt11char_traitsIcESaIcEEESt3mapISC_S5_St4lessISC_ESaISt4pairIKSC_S5_EEESt6vectorIS5_SaIS5_EEEEC2Ev = comdat any

$_ZNSt8__detail9__variant15_Variadic_unionIJbN9grpc_core12experimental4Json11NumberValueENSt7__cxx1112basic_stringIcSt11char_traitsIcESaIcEEESt3mapISB_S4_St4lessISB_ESaISt4pairIKSB_S4_EEESt6vectorIS4_SaIS4_EEEEC2Ev = comdat any

$_ZNSt8__detail9__variant15_Variadic_unionIJN9grpc_core12experimental4Json11NumberValueENSt7__cxx1112basic_stringIcSt11char_traitsIcESaIcEEESt3mapISB_S4_St4lessISB_ESaISt4pairIKSB_S4_EEESt6vectorIS4_SaIS4_EEEEC2Ev = comdat any

$_ZNSt8__detail9__variant15_Variadic_unionIJNSt7__cxx1112basic_stringIcSt11char_traitsIcESaIcEEESt3mapIS7_N9grpc_core12experimental4JsonESt4lessIS7_ESaISt4pairIKS7_SB_EEESt6vectorISB_SaISB_EEEEC2Ev = comdat any

$_ZNSt8__detail9__variant15_Variadic_unionIJSt3mapINSt7__cxx1112basic_stringIcSt11char_traitsIcESaIcEEEN9grpc_core12experimental4JsonESt4lessIS8_ESaISt4pairIKS8_SB_EEESt6vectorISB_SaISB_EEEEC2Ev = comdat any

$_ZNSt8__detail9__variant15_Variadic_unionIJSt6vectorIN9grpc_core12experimental4JsonESaIS5_EEEEC2Ev = comdat any

$_ZSt10__do_visitINSt8__detail9__variant20__variant_idx_cookieEZNS1_15_Move_ctor_baseILb0EJSt9monostatebN9grpc_core12experimental4Json11NumberValueENSt7__cxx1112basic_stringIcSt11char_traitsIcESaIcEEESt3mapISE_S7_St4lessISE_ESaISt4pairIKSE_S7_EEESt6vectorIS7_SaIS7_EEEEC1EOSQ_EUlOT_T0_E_JSt7variantIJS4_bS8_SE_SM_SP_EEEEDcOSU_DpOT1_ = comdat any

$_ZZSt10__do_visitINSt8__detail9__variant20__variant_idx_cookieEZNS1_15_Move_ctor_baseILb0EJSt9monostatebN9grpc_core12experimental4Json11NumberValueENSt7__cxx1112basic_stringIcSt11char_traitsIcESaIcEEESt3mapISE_S7_St4lessISE_ESaISt4pairIKSE_S7_EEESt6vectorIS7_SaIS7_EEEEC1EOSQ_EUlOT_T0_E_JSt7variantIJS4_bS8_SE_SM_SP_EEEEDcOSU_DpOT1_ENKUlRSX_zE_clB5cxx11ES12_z = comdat any

$_ZNSt8__detail9__variant17__gen_vtable_implINS0_12_Multi_arrayIPFNS0_20__variant_idx_cookieEOZNS0_15_Move_ctor_baseILb0EJSt9monostatebN9grpc_core12experimental4Json11NumberValueENSt7__cxx1112basic_stringIcSt11char_traitsIcESaIcEEESt3mapISF_S8_St4lessISF_ESaISt4pairIKSF_S8_EEESt6vectorIS8_SaIS8_EEEEC1EOSR_EUlOT_T0_E_OSt7variantIJS5_bS9_SF_SN_SQ_EEEJEEESt16integer_sequenceImJLm0EEEE14__visit_invokeESX_S10_ = comdat any

$_ZNSt8__detail9__variant17__gen_vtable_implINS0_12_Multi_arrayIPFNS0_20__variant_idx_cookieEOZNS0_15_Move_ctor_baseILb0EJSt9monostatebN9grpc_core12experimental4Json11NumberValueENSt7__cxx1112basic_stringIcSt11char_traitsIcESaIcEEESt3mapISF_S8_St4lessISF_ESaISt4pairIKSF_S8_EEESt6vectorIS8_SaIS8_EEEEC1EOSR_EUlOT_T0_E_OSt7variantIJS5_bS9_SF_SN_SQ_EEEJEEESt16integer_sequenceImJLm1EEEE14__visit_invokeESX_S10_ = comdat any

$_ZNSt8__detail9__variant17__gen_vtable_implINS0_12_Multi_arrayIPFNS0_20__variant_idx_cookieEOZNS0_15_Move_ctor_baseILb0EJSt9monostatebN9grpc_core12experimental4Json11NumberValueENSt7__cxx1112basic_stringIcSt11char_traitsIcESaIcEEESt3mapISF_S8_St4lessISF_ESaISt4pairIKSF_S8_EEESt6vectorIS8_SaIS8_EEEEC1EOSR_EUlOT_T0_E_OSt7variantIJS5_bS9_SF_SN_SQ_EEEJEEESt16integer_sequenceImJLm2EEEE14__visit_invokeESX_S10_ = comdat any

$_ZNSt8__detail9__variant17__gen_vtable_implINS0_12_Multi_arrayIPFNS0_20__variant_idx_cookieEOZNS0_15_Move_ctor_baseILb0EJSt9monostatebN9grpc_core12experimental4Json11NumberValueENSt7__cxx1112basic_stringIcSt11char_traitsIcESaIcEEESt3mapISF_S8_St4lessISF_ESaISt4pairIKSF_S8_EEESt6vectorIS8_SaIS8_EEEEC1EOSR_EUlOT_T0_E_OSt7variantIJS5_bS9_SF_SN_SQ_EEEJEEESt16integer_sequenceImJLm3EEEE14__visit_invokeESX_S10_ = comdat any

$_ZNSt8__detail9__variant17__gen_vtable_implINS0_12_Multi_arrayIPFNS0_20__variant_idx_cookieEOZNS0_15_Move_ctor_baseILb0EJSt9monostatebN9grpc_core12experimental4Json11NumberValueENSt7__cxx1112basic_stringIcSt11char_traitsIcESaIcEEESt3mapISF_S8_St4lessISF_ESaISt4pairIKSF_S8_EEESt6vectorIS8_SaIS8_EEEEC1EOSR_EUlOT_T0_E_OSt7variantIJS5_bS9_SF_SN_SQ_EEEJEEESt16integer_sequenceImJLm4EEEE14__visit_invokeESX_S10_ = comdat any

$_ZNSt8__detail9__variant17__gen_vtable_implINS0_12_Multi_arrayIPFNS0_20__variant_idx_cookieEOZNS0_15_Move_ctor_baseILb0EJSt9monostatebN9grpc_core12experimental4Json11NumberValueENSt7__cxx1112basic_stringIcSt11char_traitsIcESaIcEEESt3mapISF_S8_St4lessISF_ESaISt4pairIKSF_S8_EEESt6vectorIS8_SaIS8_EEEEC1EOSR_EUlOT_T0_E_OSt7variantIJS5_bS9_SF_SN_SQ_EEEJEEESt16integer_sequenceImJLm5EEEE14__visit_invokeESX_S10_ = comdat any

$_ZNSt8__detail9__variant17__gen_vtable_implINS0_12_Multi_arrayIPFNS0_20__variant_idx_cookieEOZNS0_15_Move_ctor_baseILb0EJSt9monostatebN9grpc_core12experimental4Json11NumberValueENSt7__cxx1112basic_stringIcSt11char_traitsIcESaIcEEESt3mapISF_S8_St4lessISF_ESaISt4pairIKSF_S8_EEESt6vectorIS8_SaIS8_EEEEC1EOSR_EUlOT_T0_E_OSt7variantIJS5_bS9_SF_SN_SQ_EEEJEEESt16integer_sequenceImJLm18446744073709551615EEEE14__visit_invokeESX_S10_ = comdat any

$_ZSt8__invokeIZNSt8__detail9__variant15_Move_ctor_baseILb0EJSt9monostatebN9grpc_core12experimental4Json11NumberValueENSt7__cxx1112basic_stringIcSt11char_traitsIcESaIcEEESt3mapISD_S6_St4lessISD_ESaISt4pairIKSD_S6_EEESt6vectorIS6_SaIS6_EEEEC1EOSP_EUlOT_T0_E_JS3_St17integral_constantImLm0EEEENSt15__invoke_resultISR_JDpT0_EE4typeESS_DpOSY_ = comdat any

$_ZNSt8__detail9__variant17__gen_vtable_implINS0_12_Multi_arrayIPFNS0_20__variant_idx_cookieEOZNS0_15_Move_ctor_baseILb0EJSt9monostatebN9grpc_core12experimental4Json11NumberValueENSt7__cxx1112basic_stringIcSt11char_traitsIcESaIcEEESt3mapISF_S8_St4lessISF_ESaISt4pairIKSF_S8_EEESt6vectorIS8_SaIS8_EEEEC1EOSR_EUlOT_T0_E_OSt7variantIJS5_bS9_SF_SN_SQ_EEEJEEESt16integer_sequenceImJLm0EEEE28__element_by_index_or_cookieILm0ESZ_EEDcOSV_ = comdat any

$_ZSt13__invoke_implIvZNSt8__detail9__variant15_Move_ctor_baseILb0EJSt9monostatebN9grpc_core12experimental4Json11NumberValueENSt7__cxx1112basic_stringIcSt11char_traitsIcESaIcEEESt3mapISD_S6_St4lessISD_ESaISt4pairIKSD_S6_EEESt6vectorIS6_SaIS6_EEEEC1EOSP_EUlOT_T0_E_JS3_St17integral_constantImLm0EEEESR_St14__invoke_otherOST_DpOT1_ = comdat any

$_ZZNSt8__detail9__variant15_Move_ctor_baseILb0EJSt9monostatebN9grpc_core12experimental4Json11NumberValueENSt7__cxx1112basic_stringIcSt11char_traitsIcESaIcEEESt3mapISC_S5_St4lessISC_ESaISt4pairIKSC_S5_EEESt6vectorIS5_SaIS5_EEEEC1EOSO_ENUlOT_T0_E_clIS2_St17integral_constantImLm0EEEEDaSR_SS_ = comdat any

$_ZSt10_ConstructINSt8__detail9__variant15_Variadic_unionIJSt9monostatebN9grpc_core12experimental4Json11NumberValueENSt7__cxx1112basic_stringIcSt11char_traitsIcESaIcEEESt3mapISD_S6_St4lessISD_ESaISt4pairIKSD_S6_EEESt6vectorIS6_SaIS6_EEEEEJRKSt16in_place_index_tILm0EES3_EEvPT_DpOT0_ = comdat any

$_ZNSt8__detail9__variant15_Variadic_unionIJSt9monostatebN9grpc_core12experimental4Json11NumberValueENSt7__cxx1112basic_stringIcSt11char_traitsIcESaIcEEESt3mapISC_S5_St4lessISC_ESaISt4pairIKSC_S5_EEESt6vectorIS5_SaIS5_EEEEC2IJS2_EEESt16in_place_index_tILm0EEDpOT_ = comdat any

$_ZNSt8__detail9__variant14_UninitializedISt9monostateLb1EEC2IJS2_EEESt16in_place_index_tILm0EEDpOT_ = comdat any

$_ZNSt8__detail9__variant5__getILm0ESt7variantIJSt9monostatebN9grpc_core12experimental4Json11NumberValueENSt7__cxx1112basic_stringIcSt11char_traitsIcESaIcEEESt3mapISD_S6_St4lessISD_ESaISt4pairIKSD_S6_EEESt6vectorIS6_SaIS6_EEEEEEDcOT0_ = comdat any

$_ZNSt8__detail9__variant7__get_nILm0ENS0_15_Variadic_unionIJSt9monostatebN9grpc_core12experimental4Json11NumberValueENSt7__cxx1112basic_stringIcSt11char_traitsIcESaIcEEESt3mapISD_S6_St4lessISD_ESaISt4pairIKSD_S6_EEESt6vectorIS6_SaIS6_EEEEEEEDcOT0_ = comdat any

$_ZNOSt8__detail9__variant14_UninitializedISt9monostateLb1EE6_M_getEv = comdat any

$_ZSt8__invokeIZNSt8__detail9__variant15_Move_ctor_baseILb0EJSt9monostatebN9grpc_core12experimental4Json11NumberValueENSt7__cxx1112basic_stringIcSt11char_traitsIcESaIcEEESt3mapISD_S6_St4lessISD_ESaISt4pairIKSD_S6_EEESt6vectorIS6_SaIS6_EEEEC1EOSP_EUlOT_T0_E_JbSt17integral_constantImLm1EEEENSt15__invoke_resultISR_JDpT0_EE4typeESS_DpOSY_ = comdat any

$_ZNSt8__detail9__variant17__gen_vtable_implINS0_12_Multi_arrayIPFNS0_20__variant_idx_cookieEOZNS0_15_Move_ctor_baseILb0EJSt9monostatebN9grpc_core12experimental4Json11NumberValueENSt7__cxx1112basic_stringIcSt11char_traitsIcESaIcEEESt3mapISF_S8_St4lessISF_ESaISt4pairIKSF_S8_EEESt6vectorIS8_SaIS8_EEEEC1EOSR_EUlOT_T0_E_OSt7variantIJS5_bS9_SF_SN_SQ_EEEJEEESt16integer_sequenceImJLm1EEEE28__element_by_index_or_cookieILm1ESZ_EEDcOSV_ = comdat any

$_ZSt13__invoke_implIvZNSt8__detail9__variant15_Move_ctor_baseILb0EJSt9monostatebN9grpc_core12experimental4Json11NumberValueENSt7__cxx1112basic_stringIcSt11char_traitsIcESaIcEEESt3mapISD_S6_St4lessISD_ESaISt4pairIKSD_S6_EEESt6vectorIS6_SaIS6_EEEEC1EOSP_EUlOT_T0_E_JbSt17integral_constantImLm1EEEESR_St14__invoke_otherOST_DpOT1_ = comdat any

$_ZZNSt8__detail9__variant15_Move_ctor_baseILb0EJSt9monostatebN9grpc_core12experimental4Json11NumberValueENSt7__cxx1112basic_stringIcSt11char_traitsIcESaIcEEESt3mapISC_S5_St4lessISC_ESaISt4pairIKSC_S5_EEESt6vectorIS5_SaIS5_EEEEC1EOSO_ENUlOT_T0_E_clIbSt17integral_constantImLm1EEEEDaSR_SS_ = comdat any

$_ZSt10_ConstructINSt8__detail9__variant15_Variadic_unionIJSt9monostatebN9grpc_core12experimental4Json11NumberValueENSt7__cxx1112basic_stringIcSt11char_traitsIcESaIcEEESt3mapISD_S6_St4lessISD_ESaISt4pairIKSD_S6_EEESt6vectorIS6_SaIS6_EEEEEJRKSt16in_place_index_tILm1EEbEEvPT_DpOT0_ = comdat any

$_ZNSt8__detail9__variant15_Variadic_unionIJSt9monostatebN9grpc_core12experimental4Json11NumberValueENSt7__cxx1112basic_stringIcSt11char_traitsIcESaIcEEESt3mapISC_S5_St4lessISC_ESaISt4pairIKSC_S5_EEESt6vectorIS5_SaIS5_EEEEC2ILm1EJbEEESt16in_place_index_tIXT_EEDpOT0_ = comdat any

$_ZNSt8__detail9__variant15_Variadic_unionIJbN9grpc_core12experimental4Json11NumberValueENSt7__cxx1112basic_stringIcSt11char_traitsIcESaIcEEESt3mapISB_S4_St4lessISB_ESaISt4pairIKSB_S4_EEESt6vectorIS4_SaIS4_EEEEC2IJbEEESt16in_place_index_tILm0EEDpOT_ = comdat any

$_ZNSt8__detail9__variant14_UninitializedIbLb1EEC2IJbEEESt16in_place_index_tILm0EEDpOT_ = comdat any

$_ZNSt8__detail9__variant5__getILm1ESt7variantIJSt9monostatebN9grpc_core12experimental4Json11NumberValueENSt7__cxx1112basic_stringIcSt11char_traitsIcESaIcEEESt3mapISD_S6_St4lessISD_ESaISt4pairIKSD_S6_EEESt6vectorIS6_SaIS6_EEEEEEDcOT0_ = comdat any

$_ZNSt8__detail9__variant7__get_nILm1ENS0_15_Variadic_unionIJSt9monostatebN9grpc_core12experimental4Json11NumberValueENSt7__cxx1112basic_stringIcSt11char_traitsIcESaIcEEESt3mapISD_S6_St4lessISD_ESaISt4pairIKSD_S6_EEESt6vectorIS6_SaIS6_EEEEEEEDcOT0_ = comdat any

$_ZNOSt8__detail9__variant14_UninitializedIbLb1EE6_M_getEv = comdat any

$_ZSt8__invokeIZNSt8__detail9__variant15_Move_ctor_baseILb0EJSt9monostatebN9grpc_core12experimental4Json11NumberValueENSt7__cxx1112basic_stringIcSt11char_traitsIcESaIcEEESt3mapISD_S6_St4lessISD_ESaISt4pairIKSD_S6_EEESt6vectorIS6_SaIS6_EEEEC1EOSP_EUlOT_T0_E_JS7_St17integral_constantImLm2EEEENSt15__invoke_resultISR_JDpT0_EE4typeESS_DpOSY_ = comdat any

$_ZNSt8__detail9__variant17__gen_vtable_implINS0_12_Multi_arrayIPFNS0_20__variant_idx_cookieEOZNS0_15_Move_ctor_baseILb0EJSt9monostatebN9grpc_core12experimental4Json11NumberValueENSt7__cxx1112basic_stringIcSt11char_traitsIcESaIcEEESt3mapISF_S8_St4lessISF_ESaISt4pairIKSF_S8_EEESt6vectorIS8_SaIS8_EEEEC1EOSR_EUlOT_T0_E_OSt7variantIJS5_bS9_SF_SN_SQ_EEEJEEESt16integer_sequenceImJLm2EEEE28__element_by_index_or_cookieILm2ESZ_EEDcOSV_ = comdat any

$_ZSt13__invoke_implIvZNSt8__detail9__variant15_Move_ctor_baseILb0EJSt9monostatebN9grpc_core12experimental4Json11NumberValueENSt7__cxx1112basic_stringIcSt11char_traitsIcESaIcEEESt3mapISD_S6_St4lessISD_ESaISt4pairIKSD_S6_EEESt6vectorIS6_SaIS6_EEEEC1EOSP_EUlOT_T0_E_JS7_St17integral_constantImLm2EEEESR_St14__invoke_otherOST_DpOT1_ = comdat any

$_ZZNSt8__detail9__variant15_Move_ctor_baseILb0EJSt9monostatebN9grpc_core12experimental4Json11NumberValueENSt7__cxx1112basic_stringIcSt11char_traitsIcESaIcEEESt3mapISC_S5_St4lessISC_ESaISt4pairIKSC_S5_EEESt6vectorIS5_SaIS5_EEEEC1EOSO_ENUlOT_T0_E_clIS6_St17integral_constantImLm2EEEEDaSR_SS_ = comdat any

$_ZSt10_ConstructINSt8__detail9__variant15_Variadic_unionIJSt9monostatebN9grpc_core12experimental4Json11NumberValueENSt7__cxx1112basic_stringIcSt11char_traitsIcESaIcEEESt3mapISD_S6_St4lessISD_ESaISt4pairIKSD_S6_EEESt6vectorIS6_SaIS6_EEEEEJRKSt16in_place_index_tILm2EES7_EEvPT_DpOT0_ = comdat any

$_ZNSt8__detail9__variant15_Variadic_unionIJSt9monostatebN9grpc_core12experimental4Json11NumberValueENSt7__cxx1112basic_stringIcSt11char_traitsIcESaIcEEESt3mapISC_S5_St4lessISC_ESaISt4pairIKSC_S5_EEESt6vectorIS5_SaIS5_EEEEC2ILm2EJS6_EEESt16in_place_index_tIXT_EEDpOT0_ = comdat any

$_ZNSt8__detail9__variant15_Variadic_unionIJbN9grpc_core12experimental4Json11NumberValueENSt7__cxx1112basic_stringIcSt11char_traitsIcESaIcEEESt3mapISB_S4_St4lessISB_ESaISt4pairIKSB_S4_EEESt6vectorIS4_SaIS4_EEEEC2ILm1EJS5_EEESt16in_place_index_tIXT_EEDpOT0_ = comdat any

$_ZNSt8__detail9__variant15_Variadic_unionIJN9grpc_core12experimental4Json11NumberValueENSt7__cxx1112basic_stringIcSt11char_traitsIcESaIcEEESt3mapISB_S4_St4lessISB_ESaISt4pairIKSB_S4_EEESt6vectorIS4_SaIS4_EEEEC2IJS5_EEESt16in_place_index_tILm0EEDpOT_ = comdat any

$_ZNSt8__detail9__variant14_UninitializedIN9grpc_core12experimental4Json11NumberValueELb0EEC2IJS5_EEESt16in_place_index_tILm0EEDpOT_ = comdat any

$_ZNSt8__detail9__variant5__getILm2ESt7variantIJSt9monostatebN9grpc_core12experimental4Json11NumberValueENSt7__cxx1112basic_stringIcSt11char_traitsIcESaIcEEESt3mapISD_S6_St4lessISD_ESaISt4pairIKSD_S6_EEESt6vectorIS6_SaIS6_EEEEEEDcOT0_ = comdat any

$_ZNSt8__detail9__variant7__get_nILm2ENS0_15_Variadic_unionIJSt9monostatebN9grpc_core12experimental4Json11NumberValueENSt7__cxx1112basic_stringIcSt11char_traitsIcESaIcEEESt3mapISD_S6_St4lessISD_ESaISt4pairIKSD_S6_EEESt6vectorIS6_SaIS6_EEEEEEEDcOT0_ = comdat any

$_ZNOSt8__detail9__variant14_UninitializedIN9grpc_core12experimental4Json11NumberValueELb0EE6_M_getEv = comdat any

$_ZSt8__invokeIZNSt8__detail9__variant15_Move_ctor_baseILb0EJSt9monostatebN9grpc_core12experimental4Json11NumberValueENSt7__cxx1112basic_stringIcSt11char_traitsIcESaIcEEESt3mapISD_S6_St4lessISD_ESaISt4pairIKSD_S6_EEESt6vectorIS6_SaIS6_EEEEC1EOSP_EUlOT_T0_E_JSD_St17integral_constantImLm3EEEENSt15__invoke_resultISR_JDpT0_EE4typeESS_DpOSY_ = comdat any

$_ZNSt8__detail9__variant17__gen_vtable_implINS0_12_Multi_arrayIPFNS0_20__variant_idx_cookieEOZNS0_15_Move_ctor_baseILb0EJSt9monostatebN9grpc_core12experimental4Json11NumberValueENSt7__cxx1112basic_stringIcSt11char_traitsIcESaIcEEESt3mapISF_S8_St4lessISF_ESaISt4pairIKSF_S8_EEESt6vectorIS8_SaIS8_EEEEC1EOSR_EUlOT_T0_E_OSt7variantIJS5_bS9_SF_SN_SQ_EEEJEEESt16integer_sequenceImJLm3EEEE28__element_by_index_or_cookieILm3ESZ_EEDcOSV_ = comdat any

$_ZSt13__invoke_implIvZNSt8__detail9__variant15_Move_ctor_baseILb0EJSt9monostatebN9grpc_core12experimental4Json11NumberValueENSt7__cxx1112basic_stringIcSt11char_traitsIcESaIcEEESt3mapISD_S6_St4lessISD_ESaISt4pairIKSD_S6_EEESt6vectorIS6_SaIS6_EEEEC1EOSP_EUlOT_T0_E_JSD_St17integral_constantImLm3EEEESR_St14__invoke_otherOST_DpOT1_ = comdat any

$_ZZNSt8__detail9__variant15_Move_ctor_baseILb0EJSt9monostatebN9grpc_core12experimental4Json11NumberValueENSt7__cxx1112basic_stringIcSt11char_traitsIcESaIcEEESt3mapISC_S5_St4lessISC_ESaISt4pairIKSC_S5_EEESt6vectorIS5_SaIS5_EEEEC1EOSO_ENUlOT_T0_E_clISC_St17integral_constantImLm3EEEEDaSR_SS_ = comdat any

$_ZSt10_ConstructINSt8__detail9__variant15_Variadic_unionIJSt9monostatebN9grpc_core12experimental4Json11NumberValueENSt7__cxx1112basic_stringIcSt11char_traitsIcESaIcEEESt3mapISD_S6_St4lessISD_ESaISt4pairIKSD_S6_EEESt6vectorIS6_SaIS6_EEEEEJRKSt16in_place_index_tILm3EESD_EEvPT_DpOT0_ = comdat any

$_ZNSt8__detail9__variant15_Variadic_unionIJSt9monostatebN9grpc_core12experimental4Json11NumberValueENSt7__cxx1112basic_stringIcSt11char_traitsIcESaIcEEESt3mapISC_S5_St4lessISC_ESaISt4pairIKSC_S5_EEESt6vectorIS5_SaIS5_EEEEC2ILm3EJSC_EEESt16in_place_index_tIXT_EEDpOT0_ = comdat any

$_ZNSt8__detail9__variant15_Variadic_unionIJbN9grpc_core12experimental4Json11NumberValueENSt7__cxx1112basic_stringIcSt11char_traitsIcESaIcEEESt3mapISB_S4_St4lessISB_ESaISt4pairIKSB_S4_EEESt6vectorIS4_SaIS4_EEEEC2ILm2EJSB_EEESt16in_place_index_tIXT_EEDpOT0_ = comdat any

$_ZNSt8__detail9__variant15_Variadic_unionIJN9grpc_core12experimental4Json11NumberValueENSt7__cxx1112basic_stringIcSt11char_traitsIcESaIcEEESt3mapISB_S4_St4lessISB_ESaISt4pairIKSB_S4_EEESt6vectorIS4_SaIS4_EEEEC2ILm1EJSB_EEESt16in_place_index_tIXT_EEDpOT0_ = comdat any

$_ZNSt8__detail9__variant15_Variadic_unionIJNSt7__cxx1112basic_stringIcSt11char_traitsIcESaIcEEESt3mapIS7_N9grpc_core12experimental4JsonESt4lessIS7_ESaISt4pairIKS7_SB_EEESt6vectorISB_SaISB_EEEEC2IJS7_EEESt16in_place_index_tILm0EEDpOT_ = comdat any

$_ZNSt8__detail9__variant14_UninitializedINSt7__cxx1112basic_stringIcSt11char_traitsIcESaIcEEELb0EEC2IJS7_EEESt16in_place_index_tILm0EEDpOT_ = comdat any

$_ZNSt8__detail9__variant5__getILm3ESt7variantIJSt9monostatebN9grpc_core12experimental4Json11NumberValueENSt7__cxx1112basic_stringIcSt11char_traitsIcESaIcEEESt3mapISD_S6_St4lessISD_ESaISt4pairIKSD_S6_EEESt6vectorIS6_SaIS6_EEEEEEDcOT0_ = comdat any

$_ZNSt8__detail9__variant7__get_nILm3ENS0_15_Variadic_unionIJSt9monostatebN9grpc_core12experimental4Json11NumberValueENSt7__cxx1112basic_stringIcSt11char_traitsIcESaIcEEESt3mapISD_S6_St4lessISD_ESaISt4pairIKSD_S6_EEESt6vectorIS6_SaIS6_EEEEEEEDcOT0_ = comdat any

$_ZNSt8__detail9__variant7__get_nILm0ENS0_15_Variadic_unionIJNSt7__cxx1112basic_stringIcSt11char_traitsIcESaIcEEESt3mapIS8_N9grpc_core12experimental4JsonESt4lessIS8_ESaISt4pairIKS8_SC_EEESt6vectorISC_SaISC_EEEEEEEDcOT0_ = comdat any

$_ZNOSt8__detail9__variant14_UninitializedINSt7__cxx1112basic_stringIcSt11char_traitsIcESaIcEEELb0EE6_M_getEv = comdat any

$_ZSt8__invokeIZNSt8__detail9__variant15_Move_ctor_baseILb0EJSt9monostatebN9grpc_core12experimental4Json11NumberValueENSt7__cxx1112basic_stringIcSt11char_traitsIcESaIcEEESt3mapISD_S6_St4lessISD_ESaISt4pairIKSD_S6_EEESt6vectorIS6_SaIS6_EEEEC1EOSP_EUlOT_T0_E_JSL_St17integral_constantImLm4EEEENSt15__invoke_resultISR_JDpT0_EE4typeESS_DpOSY_ = comdat any

$_ZNSt8__detail9__variant17__gen_vtable_implINS0_12_Multi_arrayIPFNS0_20__variant_idx_cookieEOZNS0_15_Move_ctor_baseILb0EJSt9monostatebN9grpc_core12experimental4Json11NumberValueENSt7__cxx1112basic_stringIcSt11char_traitsIcESaIcEEESt3mapISF_S8_St4lessISF_ESaISt4pairIKSF_S8_EEESt6vectorIS8_SaIS8_EEEEC1EOSR_EUlOT_T0_E_OSt7variantIJS5_bS9_SF_SN_SQ_EEEJEEESt16integer_sequenceImJLm4EEEE28__element_by_index_or_cookieILm4ESZ_EEDcOSV_ = comdat any

$_ZSt13__invoke_implIvZNSt8__detail9__variant15_Move_ctor_baseILb0EJSt9monostatebN9grpc_core12experimental4Json11NumberValueENSt7__cxx1112basic_stringIcSt11char_traitsIcESaIcEEESt3mapISD_S6_St4lessISD_ESaISt4pairIKSD_S6_EEESt6vectorIS6_SaIS6_EEEEC1EOSP_EUlOT_T0_E_JSL_St17integral_constantImLm4EEEESR_St14__invoke_otherOST_DpOT1_ = comdat any

$_ZZNSt8__detail9__variant15_Move_ctor_baseILb0EJSt9monostatebN9grpc_core12experimental4Json11NumberValueENSt7__cxx1112basic_stringIcSt11char_traitsIcESaIcEEESt3mapISC_S5_St4lessISC_ESaISt4pairIKSC_S5_EEESt6vectorIS5_SaIS5_EEEEC1EOSO_ENUlOT_T0_E_clISK_St17integral_constantImLm4EEEEDaSR_SS_ = comdat any

$_ZSt10_ConstructINSt8__detail9__variant15_Variadic_unionIJSt9monostatebN9grpc_core12experimental4Json11NumberValueENSt7__cxx1112basic_stringIcSt11char_traitsIcESaIcEEESt3mapISD_S6_St4lessISD_ESaISt4pairIKSD_S6_EEESt6vectorIS6_SaIS6_EEEEEJRKSt16in_place_index_tILm4EESL_EEvPT_DpOT0_ = comdat any

$_ZNSt8__detail9__variant15_Variadic_unionIJSt9monostatebN9grpc_core12experimental4Json11NumberValueENSt7__cxx1112basic_stringIcSt11char_traitsIcESaIcEEESt3mapISC_S5_St4lessISC_ESaISt4pairIKSC_S5_EEESt6vectorIS5_SaIS5_EEEEC2ILm4EJSK_EEESt16in_place_index_tIXT_EEDpOT0_ = comdat any

$_ZNSt8__detail9__variant15_Variadic_unionIJbN9grpc_core12experimental4Json11NumberValueENSt7__cxx1112basic_stringIcSt11char_traitsIcESaIcEEESt3mapISB_S4_St4lessISB_ESaISt4pairIKSB_S4_EEESt6vectorIS4_SaIS4_EEEEC2ILm3EJSJ_EEESt16in_place_index_tIXT_EEDpOT0_ = comdat any

$_ZNSt8__detail9__variant15_Variadic_unionIJN9grpc_core12experimental4Json11NumberValueENSt7__cxx1112basic_stringIcSt11char_traitsIcESaIcEEESt3mapISB_S4_St4lessISB_ESaISt4pairIKSB_S4_EEESt6vectorIS4_SaIS4_EEEEC2ILm2EJSJ_EEESt16in_place_index_tIXT_EEDpOT0_ = comdat any

$_ZNSt8__detail9__variant15_Variadic_unionIJNSt7__cxx1112basic_stringIcSt11char_traitsIcESaIcEEESt3mapIS7_N9grpc_core12experimental4JsonESt4lessIS7_ESaISt4pairIKS7_SB_EEESt6vectorISB_SaISB_EEEEC2ILm1EJSI_EEESt16in_place_index_tIXT_EEDpOT0_ = comdat any

$_ZNSt8__detail9__variant15_Variadic_unionIJSt3mapINSt7__cxx1112basic_stringIcSt11char_traitsIcESaIcEEEN9grpc_core12experimental4JsonESt4lessIS8_ESaISt4pairIKS8_SB_EEESt6vectorISB_SaISB_EEEEC2IJSI_EEESt16in_place_index_tILm0EEDpOT_ = comdat any

$_ZNSt8__detail9__variant14_UninitializedISt3mapINSt7__cxx1112basic_stringIcSt11char_traitsIcESaIcEEEN9grpc_core12experimental4JsonESt4lessIS8_ESaISt4pairIKS8_SB_EEELb0EEC2IJSI_EEESt16in_place_index_tILm0EEDpOT_ = comdat any

$_ZNSt8__detail9__variant5__getILm4ESt7variantIJSt9monostatebN9grpc_core12experimental4Json11NumberValueENSt7__cxx1112basic_stringIcSt11char_traitsIcESaIcEEESt3mapISD_S6_St4lessISD_ESaISt4pairIKSD_S6_EEESt6vectorIS6_SaIS6_EEEEEEDcOT0_ = comdat any

$_ZNSt8__detail9__variant7__get_nILm4ENS0_15_Variadic_unionIJSt9monostatebN9grpc_core12experimental4Json11NumberValueENSt7__cxx1112basic_stringIcSt11char_traitsIcESaIcEEESt3mapISD_S6_St4lessISD_ESaISt4pairIKSD_S6_EEESt6vectorIS6_SaIS6_EEEEEEEDcOT0_ = comdat any

$_ZNSt8__detail9__variant7__get_nILm1ENS0_15_Variadic_unionIJNSt7__cxx1112basic_stringIcSt11char_traitsIcESaIcEEESt3mapIS8_N9grpc_core12experimental4JsonESt4lessIS8_ESaISt4pairIKS8_SC_EEESt6vectorISC_SaISC_EEEEEEEDcOT0_ = comdat any

$_ZNOSt8__detail9__variant14_UninitializedISt3mapINSt7__cxx1112basic_stringIcSt11char_traitsIcESaIcEEEN9grpc_core12experimental4JsonESt4lessIS8_ESaISt4pairIKS8_SB_EEELb0EE6_M_getEv = comdat any

$_ZSt8__invokeIZNSt8__detail9__variant15_Move_ctor_baseILb0EJSt9monostatebN9grpc_core12experimental4Json11NumberValueENSt7__cxx1112basic_stringIcSt11char_traitsIcESaIcEEESt3mapISD_S6_St4lessISD_ESaISt4pairIKSD_S6_EEESt6vectorIS6_SaIS6_EEEEC1EOSP_EUlOT_T0_E_JSO_St17integral_constantImLm5EEEENSt15__invoke_resultISR_JDpT0_EE4typeESS_DpOSY_ = comdat any

$_ZNSt8__detail9__variant17__gen_vtable_implINS0_12_Multi_arrayIPFNS0_20__variant_idx_cookieEOZNS0_15_Move_ctor_baseILb0EJSt9monostatebN9grpc_core12experimental4Json11NumberValueENSt7__cxx1112basic_stringIcSt11char_traitsIcESaIcEEESt3mapISF_S8_St4lessISF_ESaISt4pairIKSF_S8_EEESt6vectorIS8_SaIS8_EEEEC1EOSR_EUlOT_T0_E_OSt7variantIJS5_bS9_SF_SN_SQ_EEEJEEESt16integer_sequenceImJLm5EEEE28__element_by_index_or_cookieILm5ESZ_EEDcOSV_ = comdat any

$_ZSt13__invoke_implIvZNSt8__detail9__variant15_Move_ctor_baseILb0EJSt9monostatebN9grpc_core12experimental4Json11NumberValueENSt7__cxx1112basic_stringIcSt11char_traitsIcESaIcEEESt3mapISD_S6_St4lessISD_ESaISt4pairIKSD_S6_EEESt6vectorIS6_SaIS6_EEEEC1EOSP_EUlOT_T0_E_JSO_St17integral_constantImLm5EEEESR_St14__invoke_otherOST_DpOT1_ = comdat any

$_ZZNSt8__detail9__variant15_Move_ctor_baseILb0EJSt9monostatebN9grpc_core12experimental4Json11NumberValueENSt7__cxx1112basic_stringIcSt11char_traitsIcESaIcEEESt3mapISC_S5_St4lessISC_ESaISt4pairIKSC_S5_EEESt6vectorIS5_SaIS5_EEEEC1EOSO_ENUlOT_T0_E_clISN_St17integral_constantImLm5EEEEDaSR_SS_ = comdat any

$_ZSt10_ConstructINSt8__detail9__variant15_Variadic_unionIJSt9monostatebN9grpc_core12experimental4Json11NumberValueENSt7__cxx1112basic_stringIcSt11char_traitsIcESaIcEEESt3mapISD_S6_St4lessISD_ESaISt4pairIKSD_S6_EEESt6vectorIS6_SaIS6_EEEEEJRKSt16in_place_index_tILm5EESO_EEvPT_DpOT0_ = comdat any

$_ZNSt8__detail9__variant15_Variadic_unionIJSt9monostatebN9grpc_core12experimental4Json11NumberValueENSt7__cxx1112basic_stringIcSt11char_traitsIcESaIcEEESt3mapISC_S5_St4lessISC_ESaISt4pairIKSC_S5_EEESt6vectorIS5_SaIS5_EEEEC2ILm5EJSN_EEESt16in_place_index_tIXT_EEDpOT0_ = comdat any

$_ZNSt8__detail9__variant15_Variadic_unionIJbN9grpc_core12experimental4Json11NumberValueENSt7__cxx1112basic_stringIcSt11char_traitsIcESaIcEEESt3mapISB_S4_St4lessISB_ESaISt4pairIKSB_S4_EEESt6vectorIS4_SaIS4_EEEEC2ILm4EJSM_EEESt16in_place_index_tIXT_EEDpOT0_ = comdat any

$_ZNSt8__detail9__variant15_Variadic_unionIJN9grpc_core12experimental4Json11NumberValueENSt7__cxx1112basic_stringIcSt11char_traitsIcESaIcEEESt3mapISB_S4_St4lessISB_ESaISt4pairIKSB_S4_EEESt6vectorIS4_SaIS4_EEEEC2ILm3EJSM_EEESt16in_place_index_tIXT_EEDpOT0_ = comdat any

$_ZNSt8__detail9__variant15_Variadic_unionIJNSt7__cxx1112basic_stringIcSt11char_traitsIcESaIcEEESt3mapIS7_N9grpc_core12experimental4JsonESt4lessIS7_ESaISt4pairIKS7_SB_EEESt6vectorISB_SaISB_EEEEC2ILm2EJSL_EEESt16in_place_index_tIXT_EEDpOT0_ = comdat any

$_ZNSt8__detail9__variant15_Variadic_unionIJSt3mapINSt7__cxx1112basic_stringIcSt11char_traitsIcESaIcEEEN9grpc_core12experimental4JsonESt4lessIS8_ESaISt4pairIKS8_SB_EEESt6vectorISB_SaISB_EEEEC2ILm1EJSL_EEESt16in_place_index_tIXT_EEDpOT0_ = comdat any

$_ZNSt8__detail9__variant15_Variadic_unionIJSt6vectorIN9grpc_core12experimental4JsonESaIS5_EEEEC2IJS7_EEESt16in_place_index_tILm0EEDpOT_ = comdat any

$_ZNSt8__detail9__variant14_UninitializedISt6vectorIN9grpc_core12experimental4JsonESaIS5_EELb0EEC2IJS7_EEESt16in_place_index_tILm0EEDpOT_ = comdat any

$_ZNSt8__detail9__variant5__getILm5ESt7variantIJSt9monostatebN9grpc_core12experimental4Json11NumberValueENSt7__cxx1112basic_stringIcSt11char_traitsIcESaIcEEESt3mapISD_S6_St4lessISD_ESaISt4pairIKSD_S6_EEESt6vectorIS6_SaIS6_EEEEEEDcOT0_ = comdat any

$_ZNSt8__detail9__variant7__get_nILm5ENS0_15_Variadic_unionIJSt9monostatebN9grpc_core12experimental4Json11NumberValueENSt7__cxx1112basic_stringIcSt11char_traitsIcESaIcEEESt3mapISD_S6_St4lessISD_ESaISt4pairIKSD_S6_EEESt6vectorIS6_SaIS6_EEEEEEEDcOT0_ = comdat any

$_ZNSt8__detail9__variant7__get_nILm2ENS0_15_Variadic_unionIJNSt7__cxx1112basic_stringIcSt11char_traitsIcESaIcEEESt3mapIS8_N9grpc_core12experimental4JsonESt4lessIS8_ESaISt4pairIKS8_SC_EEESt6vectorISC_SaISC_EEEEEEEDcOT0_ = comdat any

$_ZNOSt8__detail9__variant14_UninitializedISt6vectorIN9grpc_core12experimental4JsonESaIS5_EELb0EE6_M_getEv = comdat any

$_ZSt8__invokeIZNSt8__detail9__variant15_Move_ctor_baseILb0EJSt9monostatebN9grpc_core12experimental4Json11NumberValueENSt7__cxx1112basic_stringIcSt11char_traitsIcESaIcEEESt3mapISD_S6_St4lessISD_ESaISt4pairIKSD_S6_EEESt6vectorIS6_SaIS6_EEEEC1EOSP_EUlOT_T0_E_JNS1_16__variant_cookieESt17integral_constantImLm18446744073709551615EEEENSt15__invoke_resultISR_JDpT0_EE4typeESS_DpOSZ_ = comdat any

$_ZNSt8__detail9__variant17__gen_vtable_implINS0_12_Multi_arrayIPFNS0_20__variant_idx_cookieEOZNS0_15_Move_ctor_baseILb0EJSt9monostatebN9grpc_core12experimental4Json11NumberValueENSt7__cxx1112basic_stringIcSt11char_traitsIcESaIcEEESt3mapISF_S8_St4lessISF_ESaISt4pairIKSF_S8_EEESt6vectorIS8_SaIS8_EEEEC1EOSR_EUlOT_T0_E_OSt7variantIJS5_bS9_SF_SN_SQ_EEEJEEESt16integer_sequenceImJLm18446744073709551615EEEE28__element_by_index_or_cookieILm18446744073709551615ESZ_EEDcOSV_ = comdat any

$_ZSt13__invoke_implIvZNSt8__detail9__variant15_Move_ctor_baseILb0EJSt9monostatebN9grpc_core12experimental4Json11NumberValueENSt7__cxx1112basic_stringIcSt11char_traitsIcESaIcEEESt3mapISD_S6_St4lessISD_ESaISt4pairIKSD_S6_EEESt6vectorIS6_SaIS6_EEEEC1EOSP_EUlOT_T0_E_JNS1_16__variant_cookieESt17integral_constantImLm18446744073709551615EEEESR_St14__invoke_otherOST_DpOT1_ = comdat any

$_ZZNSt8__detail9__variant15_Move_ctor_baseILb0EJSt9monostatebN9grpc_core12experimental4Json11NumberValueENSt7__cxx1112basic_stringIcSt11char_traitsIcESaIcEEESt3mapISC_S5_St4lessISC_ESaISt4pairIKSC_S5_EEESt6vectorIS5_SaIS5_EEEEC1EOSO_ENUlOT_T0_E_clINS0_16__variant_cookieESt17integral_constantImLm18446744073709551615EEEEDaSR_SS_ = comdat any

$_ZNSt8_Rb_treeINSt7__cxx1112basic_stringIcSt11char_traitsIcESaIcEEESt4pairIKS5_N9grpc_core12experimental4JsonEESt10_Select1stISB_ESt4lessIS5_ESaISB_EED2Ev = comdat any

$_ZNSt8_Rb_treeINSt7__cxx1112basic_stringIcSt11char_traitsIcESaIcEEESt4pairIKS5_N9grpc_core12experimental4JsonEESt10_Select1stISB_ESt4lessIS5_ESaISB_EE13_Rb_tree_implISF_Lb1EED2Ev = comdat any

$_ZNSt15__new_allocatorISt13_Rb_tree_nodeISt4pairIKNSt7__cxx1112basic_stringIcSt11char_traitsIcESaIcEEEN9grpc_core12experimental4JsonEEEED2Ev = comdat any

$_ZNSt7variantIJSt17basic_string_viewIcSt11char_traitsIcEEN9grpc_core12experimental4JsonEEEC2EOS7_ = comdat any

$_ZNSt6vectorIN9grpc_core16ValidationErrors11ScopedFieldESaIS2_EEC2EOS4_ = comdat any

$_ZNSt8__detail9__variant13_Variant_baseIJSt17basic_string_viewIcSt11char_traitsIcEEN9grpc_core12experimental4JsonEEEC2EOS9_ = comdat any

$_ZNSt8__detail9__variant17_Move_assign_baseILb0EJSt17basic_string_viewIcSt11char_traitsIcEEN9grpc_core12experimental4JsonEEEC2EOS9_ = comdat any

$_ZNSt8__detail9__variant17_Copy_assign_baseILb0EJSt17basic_string_viewIcSt11char_traitsIcEEN9grpc_core12experimental4JsonEEEC2EOS9_ = comdat any

$_ZNSt8__detail9__variant15_Move_ctor_baseILb0EJSt17basic_string_viewIcSt11char_traitsIcEEN9grpc_core12experimental4JsonEEEC2EOS9_ = comdat any

$_ZNSt8__detail9__variant15_Copy_ctor_baseILb0EJSt17basic_string_viewIcSt11char_traitsIcEEN9grpc_core12experimental4JsonEEEC2Ev = comdat any

$_ZNSt8__detail9__variant15__raw_idx_visitIZNS0_15_Move_ctor_baseILb0EJSt17basic_string_viewIcSt11char_traitsIcEEN9grpc_core12experimental4JsonEEEC1EOSA_EUlOT_T0_E_JSt7variantIJS6_S9_EEEEEvSD_DpOT0_ = comdat any

$_ZSt14__variant_castIJSt17basic_string_viewIcSt11char_traitsIcEEN9grpc_core12experimental4JsonEENSt8__detail9__variant15_Move_ctor_baseILb0EJS3_S6_EEEEDcOT0_ = comdat any

$_ZNSt8__detail9__variant16_Variant_storageILb0EJSt17basic_string_viewIcSt11char_traitsIcEEN9grpc_core12experimental4JsonEEEC2Ev = comdat any

$_ZNSt8__detail9__variant15_Variadic_unionIJSt17basic_string_viewIcSt11char_traitsIcEEN9grpc_core12experimental4JsonEEEC2Ev = comdat any

$_ZNSt8__detail9__variant15_Variadic_unionIJN9grpc_core12experimental4JsonEEEC2Ev = comdat any

$_ZSt10__do_visitINSt8__detail9__variant20__variant_idx_cookieEZNS1_15_Move_ctor_baseILb0EJSt17basic_string_viewIcSt11char_traitsIcEEN9grpc_core12experimental4JsonEEEC1EOSB_EUlOT_T0_E_JSt7variantIJS7_SA_EEEEDcOSF_DpOT1_ = comdat any

$_ZZSt10__do_visitINSt8__detail9__variant20__variant_idx_cookieEZNS1_15_Move_ctor_baseILb0EJSt17basic_string_viewIcSt11char_traitsIcEEN9grpc_core12experimental4JsonEEEC1EOSB_EUlOT_T0_E_JSt7variantIJS7_SA_EEEEDcOSF_DpOT1_ENKUlRSI_zE_clESN_z = comdat any

$_ZNSt8__detail9__variant17__gen_vtable_implINS0_12_Multi_arrayIPFNS0_20__variant_idx_cookieEOZNS0_15_Move_ctor_baseILb0EJSt17basic_string_viewIcSt11char_traitsIcEEN9grpc_core12experimental4JsonEEEC1EOSC_EUlOT_T0_E_OSt7variantIJS8_SB_EEEJEEESt16integer_sequenceImJLm0EEEE14__visit_invokeESI_SL_ = comdat any

$_ZNSt8__detail9__variant17__gen_vtable_implINS0_12_Multi_arrayIPFNS0_20__variant_idx_cookieEOZNS0_15_Move_ctor_baseILb0EJSt17basic_string_viewIcSt11char_traitsIcEEN9grpc_core12experimental4JsonEEEC1EOSC_EUlOT_T0_E_OSt7variantIJS8_SB_EEEJEEESt16integer_sequenceImJLm1EEEE14__visit_invokeESI_SL_ = comdat any

$_ZNSt8__detail9__variant17__gen_vtable_implINS0_12_Multi_arrayIPFNS0_20__variant_idx_cookieEOZNS0_15_Move_ctor_baseILb0EJSt17basic_string_viewIcSt11char_traitsIcEEN9grpc_core12experimental4JsonEEEC1EOSC_EUlOT_T0_E_OSt7variantIJS8_SB_EEEJEEESt16integer_sequenceImJLm18446744073709551615EEEE14__visit_invokeESI_SL_ = comdat any

$_ZSt8__invokeIZNSt8__detail9__variant15_Move_ctor_baseILb0EJSt17basic_string_viewIcSt11char_traitsIcEEN9grpc_core12experimental4JsonEEEC1EOSA_EUlOT_T0_E_JS6_St17integral_constantImLm0EEEENSt15__invoke_resultISC_JDpT0_EE4typeESD_DpOSJ_ = comdat any

$_ZNSt8__detail9__variant17__gen_vtable_implINS0_12_Multi_arrayIPFNS0_20__variant_idx_cookieEOZNS0_15_Move_ctor_baseILb0EJSt17basic_string_viewIcSt11char_traitsIcEEN9grpc_core12experimental4JsonEEEC1EOSC_EUlOT_T0_E_OSt7variantIJS8_SB_EEEJEEESt16integer_sequenceImJLm0EEEE28__element_by_index_or_cookieILm0ESK_EEDcOSG_ = comdat any

$_ZSt13__invoke_implIvZNSt8__detail9__variant15_Move_ctor_baseILb0EJSt17basic_string_viewIcSt11char_traitsIcEEN9grpc_core12experimental4JsonEEEC1EOSA_EUlOT_T0_E_JS6_St17integral_constantImLm0EEEESC_St14__invoke_otherOSE_DpOT1_ = comdat any

$_ZZNSt8__detail9__variant15_Move_ctor_baseILb0EJSt17basic_string_viewIcSt11char_traitsIcEEN9grpc_core12experimental4JsonEEEC1EOS9_ENUlOT_T0_E_clIS5_St17integral_constantImLm0EEEEDaSC_SD_ = comdat any

$_ZSt10_ConstructINSt8__detail9__variant15_Variadic_unionIJSt17basic_string_viewIcSt11char_traitsIcEEN9grpc_core12experimental4JsonEEEEJRKSt16in_place_index_tILm0EES6_EEvPT_DpOT0_ = comdat any

$_ZNSt8__detail9__variant15_Variadic_unionIJSt17basic_string_viewIcSt11char_traitsIcEEN9grpc_core12experimental4JsonEEEC2IJS5_EEESt16in_place_index_tILm0EEDpOT_ = comdat any

$_ZNSt8__detail9__variant14_UninitializedISt17basic_string_viewIcSt11char_traitsIcEELb1EEC2IJS5_EEESt16in_place_index_tILm0EEDpOT_ = comdat any

$_ZNSt8__detail9__variant5__getILm0ESt7variantIJSt17basic_string_viewIcSt11char_traitsIcEEN9grpc_core12experimental4JsonEEEEEDcOT0_ = comdat any

$_ZNSt8__detail9__variant7__get_nILm0ENS0_15_Variadic_unionIJSt17basic_string_viewIcSt11char_traitsIcEEN9grpc_core12experimental4JsonEEEEEEDcOT0_ = comdat any

$_ZNOSt8__detail9__variant14_UninitializedISt17basic_string_viewIcSt11char_traitsIcEELb1EE6_M_getEv = comdat any

$_ZSt8__invokeIZNSt8__detail9__variant15_Move_ctor_baseILb0EJSt17basic_string_viewIcSt11char_traitsIcEEN9grpc_core12experimental4JsonEEEC1EOSA_EUlOT_T0_E_JS9_St17integral_constantImLm1EEEENSt15__invoke_resultISC_JDpT0_EE4typeESD_DpOSJ_ = comdat any

$_ZNSt8__detail9__variant17__gen_vtable_implINS0_12_Multi_arrayIPFNS0_20__variant_idx_cookieEOZNS0_15_Move_ctor_baseILb0EJSt17basic_string_viewIcSt11char_traitsIcEEN9grpc_core12experimental4JsonEEEC1EOSC_EUlOT_T0_E_OSt7variantIJS8_SB_EEEJEEESt16integer_sequenceImJLm1EEEE28__element_by_index_or_cookieILm1ESK_EEDcOSG_ = comdat any

$_ZSt13__invoke_implIvZNSt8__detail9__variant15_Move_ctor_baseILb0EJSt17basic_string_viewIcSt11char_traitsIcEEN9grpc_core12experimental4JsonEEEC1EOSA_EUlOT_T0_E_JS9_St17integral_constantImLm1EEEESC_St14__invoke_otherOSE_DpOT1_ = comdat any

$_ZZNSt8__detail9__variant15_Move_ctor_baseILb0EJSt17basic_string_viewIcSt11char_traitsIcEEN9grpc_core12experimental4JsonEEEC1EOS9_ENUlOT_T0_E_clIS8_St17integral_constantImLm1EEEEDaSC_SD_ = comdat any

$_ZSt10_ConstructINSt8__detail9__variant15_Variadic_unionIJSt17basic_string_viewIcSt11char_traitsIcEEN9grpc_core12experimental4JsonEEEEJRKSt16in_place_index_tILm1EES9_EEvPT_DpOT0_ = comdat any

$_ZNSt8__detail9__variant15_Variadic_unionIJSt17basic_string_viewIcSt11char_traitsIcEEN9grpc_core12experimental4JsonEEEC2ILm1EJS8_EEESt16in_place_index_tIXT_EEDpOT0_ = comdat any

$_ZNSt8__detail9__variant15_Variadic_unionIJN9grpc_core12experimental4JsonEEEC2IJS4_EEESt16in_place_index_tILm0EEDpOT_ = comdat any

$_ZNSt8__detail9__variant14_UninitializedIN9grpc_core12experimental4JsonELb0EEC2IJS4_EEESt16in_place_index_tILm0EEDpOT_ = comdat any

$_ZNSt8__detail9__variant5__getILm1ESt7variantIJSt17basic_string_viewIcSt11char_traitsIcEEN9grpc_core12experimental4JsonEEEEEDcOT0_ = comdat any

$_ZNSt8__detail9__variant7__get_nILm1ENS0_15_Variadic_unionIJSt17basic_string_viewIcSt11char_traitsIcEEN9grpc_core12experimental4JsonEEEEEEDcOT0_ = comdat any

$_ZNOSt8__detail9__variant14_UninitializedIN9grpc_core12experimental4JsonELb0EE6_M_getEv = comdat any

$_ZN9__gnu_cxx16__aligned_membufIN9grpc_core12experimental4JsonEE6_M_ptrEv = comdat any

$_ZN9__gnu_cxx16__aligned_membufIN9grpc_core12experimental4JsonEE7_M_addrEv = comdat any

$_ZSt8__invokeIZNSt8__detail9__variant15_Move_ctor_baseILb0EJSt17basic_string_viewIcSt11char_traitsIcEEN9grpc_core12experimental4JsonEEEC1EOSA_EUlOT_T0_E_JNS1_16__variant_cookieESt17integral_constantImLm18446744073709551615EEEENSt15__invoke_resultISC_JDpT0_EE4typeESD_DpOSK_ = comdat any

$_ZNSt8__detail9__variant17__gen_vtable_implINS0_12_Multi_arrayIPFNS0_20__variant_idx_cookieEOZNS0_15_Move_ctor_baseILb0EJSt17basic_string_viewIcSt11char_traitsIcEEN9grpc_core12experimental4JsonEEEC1EOSC_EUlOT_T0_E_OSt7variantIJS8_SB_EEEJEEESt16integer_sequenceImJLm18446744073709551615EEEE28__element_by_index_or_cookieILm18446744073709551615ESK_EEDcOSG_ = comdat any

$_ZSt13__invoke_implIvZNSt8__detail9__variant15_Move_ctor_baseILb0EJSt17basic_string_viewIcSt11char_traitsIcEEN9grpc_core12experimental4JsonEEEC1EOSA_EUlOT_T0_E_JNS1_16__variant_cookieESt17integral_constantImLm18446744073709551615EEEESC_St14__invoke_otherOSE_DpOT1_ = comdat any

$_ZZNSt8__detail9__variant15_Move_ctor_baseILb0EJSt17basic_string_viewIcSt11char_traitsIcEEN9grpc_core12experimental4JsonEEEC1EOS9_ENUlOT_T0_E_clINS0_16__variant_cookieESt17integral_constantImLm18446744073709551615EEEEDaSC_SD_ = comdat any

$_ZNSt12_Vector_baseIN9grpc_core16ValidationErrors11ScopedFieldESaIS2_EEC2EOS4_ = comdat any

$_ZNSt12_Vector_baseIN9grpc_core16ValidationErrors11ScopedFieldESaIS2_EE12_Vector_implC2EOS5_ = comdat any

$_ZNSaIN9grpc_core16ValidationErrors11ScopedFieldEEC2ERKS2_ = comdat any

$_ZNSt12_Vector_baseIN9grpc_core16ValidationErrors11ScopedFieldESaIS2_EE17_Vector_impl_dataC2EOS5_ = comdat any

$_ZNSt15__new_allocatorIN9grpc_core16ValidationErrors11ScopedFieldEEC2ERKS3_ = comdat any

$_ZNSt6vectorIN9grpc_core16ValidationErrors11ScopedFieldESaIS2_EED2Ev = comdat any

$_ZNSt7variantIJSt17basic_string_viewIcSt11char_traitsIcEEN9grpc_core12experimental4JsonEEED2Ev = comdat any

$_ZSt8_DestroyIPN9grpc_core16ValidationErrors11ScopedFieldES2_EvT_S4_RSaIT0_E = comdat any

$_ZNSt12_Vector_baseIN9grpc_core16ValidationErrors11ScopedFieldESaIS2_EE19_M_get_Tp_allocatorEv = comdat any

$_ZNSt12_Vector_baseIN9grpc_core16ValidationErrors11ScopedFieldESaIS2_EED2Ev = comdat any

$_ZSt8_DestroyIPN9grpc_core16ValidationErrors11ScopedFieldEEvT_S4_ = comdat any

$_ZNSt12_Destroy_auxILb0EE9__destroyIPN9grpc_core16ValidationErrors11ScopedFieldEEEvT_S6_ = comdat any

$_ZSt8_DestroyIN9grpc_core16ValidationErrors11ScopedFieldEEvPT_ = comdat any

$_ZNSt12_Vector_baseIN9grpc_core16ValidationErrors11ScopedFieldESaIS2_EE13_M_deallocateEPS2_m = comdat any

$_ZNSt12_Vector_baseIN9grpc_core16ValidationErrors11ScopedFieldESaIS2_EE12_Vector_implD2Ev = comdat any

$_ZNSt16allocator_traitsISaIN9grpc_core16ValidationErrors11ScopedFieldEEE10deallocateERS3_PS2_m = comdat any

$_ZNSt15__new_allocatorIN9grpc_core16ValidationErrors11ScopedFieldEE10deallocateEPS2_m = comdat any

$_ZNSaIN9grpc_core16ValidationErrors11ScopedFieldEED2Ev = comdat any

$_ZNSt15__new_allocatorIN9grpc_core16ValidationErrors11ScopedFieldEED2Ev = comdat any

$_ZNSt8__detail9__variant13_Variant_baseIJSt17basic_string_viewIcSt11char_traitsIcEEN9grpc_core12experimental4JsonEEED2Ev = comdat any

$_ZNSt8__detail9__variant17_Move_assign_baseILb0EJSt17basic_string_viewIcSt11char_traitsIcEEN9grpc_core12experimental4JsonEEED2Ev = comdat any

$_ZNSt8__detail9__variant17_Copy_assign_baseILb0EJSt17basic_string_viewIcSt11char_traitsIcEEN9grpc_core12experimental4JsonEEED2Ev = comdat any

$_ZNSt8__detail9__variant15_Move_ctor_baseILb0EJSt17basic_string_viewIcSt11char_traitsIcEEN9grpc_core12experimental4JsonEEED2Ev = comdat any

$_ZNSt8__detail9__variant15_Copy_ctor_baseILb0EJSt17basic_string_viewIcSt11char_traitsIcEEN9grpc_core12experimental4JsonEEED2Ev = comdat any

$_ZNSt8__detail9__variant16_Variant_storageILb0EJSt17basic_string_viewIcSt11char_traitsIcEEN9grpc_core12experimental4JsonEEED2Ev = comdat any

$_ZNSt8__detail9__variant16_Variant_storageILb0EJSt17basic_string_viewIcSt11char_traitsIcEEN9grpc_core12experimental4JsonEEE8_M_resetEv = comdat any

$_ZNKSt8__detail9__variant16_Variant_storageILb0EJSt17basic_string_viewIcSt11char_traitsIcEEN9grpc_core12experimental4JsonEEE8_M_validEv = comdat any

$_ZSt10__do_visitIvZNSt8__detail9__variant16_Variant_storageILb0EJSt17basic_string_viewIcSt11char_traitsIcEEN9grpc_core12experimental4JsonEEE8_M_resetEvEUlOT_E_JRSt7variantIJS6_S9_EEEEDcOT0_DpOT1_ = comdat any

$_ZSt14__variant_castIJSt17basic_string_viewIcSt11char_traitsIcEEN9grpc_core12experimental4JsonEERNSt8__detail9__variant16_Variant_storageILb0EJS3_S6_EEEEDcOT0_ = comdat any

$_ZZSt10__do_visitIvZNSt8__detail9__variant16_Variant_storageILb0EJSt17basic_string_viewIcSt11char_traitsIcEEN9grpc_core12experimental4JsonEEE8_M_resetEvEUlOT_E_JRSt7variantIJS6_S9_EEEEDcOT0_DpOT1_ENKUlSG_zE_clESG_z = comdat any

$_ZNSt8__detail9__variant17__gen_vtable_implINS0_12_Multi_arrayIPFvOZNS0_16_Variant_storageILb0EJSt17basic_string_viewIcSt11char_traitsIcEEN9grpc_core12experimental4JsonEEE8_M_resetEvEUlOT_E_RSt7variantIJS7_SA_EEEJEEESt16integer_sequenceImJLm0EEEE14__visit_invokeESF_SI_ = comdat any

$_ZNSt8__detail9__variant17__gen_vtable_implINS0_12_Multi_arrayIPFvOZNS0_16_Variant_storageILb0EJSt17basic_string_viewIcSt11char_traitsIcEEN9grpc_core12experimental4JsonEEE8_M_resetEvEUlOT_E_RSt7variantIJS7_SA_EEEJEEESt16integer_sequenceImJLm1EEEE14__visit_invokeESF_SI_ = comdat any

$_ZSt10__invoke_rIvZNSt8__detail9__variant16_Variant_storageILb0EJSt17basic_string_viewIcSt11char_traitsIcEEN9grpc_core12experimental4JsonEEE8_M_resetEvEUlOT_E_JRS6_EENSt9enable_ifIX16is_invocable_r_vISB_T0_DpT1_EESB_E4typeEOSG_DpOSH_ = comdat any

$_ZSt13__invoke_implIvZNSt8__detail9__variant16_Variant_storageILb0EJSt17basic_string_viewIcSt11char_traitsIcEEN9grpc_core12experimental4JsonEEE8_M_resetEvEUlOT_E_JRS6_EESB_St14__invoke_otherOT0_DpOT1_ = comdat any

$_ZZNSt8__detail9__variant16_Variant_storageILb0EJSt17basic_string_viewIcSt11char_traitsIcEEN9grpc_core12experimental4JsonEEE8_M_resetEvENUlOT_E_clIRS5_EEDaSB_ = comdat any

$_ZSt8_DestroyISt17basic_string_viewIcSt11char_traitsIcEEEvPT_ = comdat any

$_ZSt10__invoke_rIvZNSt8__detail9__variant16_Variant_storageILb0EJSt17basic_string_viewIcSt11char_traitsIcEEN9grpc_core12experimental4JsonEEE8_M_resetEvEUlOT_E_JRS9_EENSt9enable_ifIX16is_invocable_r_vISB_T0_DpT1_EESB_E4typeEOSG_DpOSH_ = comdat any

$_ZNSt8__detail9__variant5__getILm1ERSt7variantIJSt17basic_string_viewIcSt11char_traitsIcEEN9grpc_core12experimental4JsonEEEEEDcOT0_ = comdat any

$_ZSt13__invoke_implIvZNSt8__detail9__variant16_Variant_storageILb0EJSt17basic_string_viewIcSt11char_traitsIcEEN9grpc_core12experimental4JsonEEE8_M_resetEvEUlOT_E_JRS9_EESB_St14__invoke_otherOT0_DpOT1_ = comdat any

$_ZZNSt8__detail9__variant16_Variant_storageILb0EJSt17basic_string_viewIcSt11char_traitsIcEEN9grpc_core12experimental4JsonEEE8_M_resetEvENUlOT_E_clIRS8_EEDaSB_ = comdat any

$_ZNSt8__detail9__variant7__get_nILm1ERNS0_15_Variadic_unionIJSt17basic_string_viewIcSt11char_traitsIcEEN9grpc_core12experimental4JsonEEEEEEDcOT0_ = comdat any

$_ZNRSt8__detail9__variant14_UninitializedIN9grpc_core12experimental4JsonELb0EE6_M_getEv = comdat any

$_ZNSt7variantIJSt9monostatebN9grpc_core12experimental4Json11NumberValueENSt7__cxx1112basic_stringIcSt11char_traitsIcESaIcEEESt3mapISA_S3_St4lessISA_ESaISt4pairIKSA_S3_EEESt6vectorIS3_SaIS3_EEEEC2ERKSM_ = comdat any

$_ZNSt8__detail9__variant13_Variant_baseIJSt9monostatebN9grpc_core12experimental4Json11NumberValueENSt7__cxx1112basic_stringIcSt11char_traitsIcESaIcEEESt3mapISC_S5_St4lessISC_ESaISt4pairIKSC_S5_EEESt6vectorIS5_SaIS5_EEEEC2ERKSO_ = comdat any

$_ZNSt8__detail9__variant17_Move_assign_baseILb0EJSt9monostatebN9grpc_core12experimental4Json11NumberValueENSt7__cxx1112basic_stringIcSt11char_traitsIcESaIcEEESt3mapISC_S5_St4lessISC_ESaISt4pairIKSC_S5_EEESt6vectorIS5_SaIS5_EEEEC2ERKSO_ = comdat any

$_ZNSt8__detail9__variant17_Copy_assign_baseILb0EJSt9monostatebN9grpc_core12experimental4Json11NumberValueENSt7__cxx1112basic_stringIcSt11char_traitsIcESaIcEEESt3mapISC_S5_St4lessISC_ESaISt4pairIKSC_S5_EEESt6vectorIS5_SaIS5_EEEEC2ERKSO_ = comdat any

$_ZNSt8__detail9__variant15_Move_ctor_baseILb0EJSt9monostatebN9grpc_core12experimental4Json11NumberValueENSt7__cxx1112basic_stringIcSt11char_traitsIcESaIcEEESt3mapISC_S5_St4lessISC_ESaISt4pairIKSC_S5_EEESt6vectorIS5_SaIS5_EEEEC2ERKSO_ = comdat any

$_ZNSt8__detail9__variant15_Copy_ctor_baseILb0EJSt9monostatebN9grpc_core12experimental4Json11NumberValueENSt7__cxx1112basic_stringIcSt11char_traitsIcESaIcEEESt3mapISC_S5_St4lessISC_ESaISt4pairIKSC_S5_EEESt6vectorIS5_SaIS5_EEEEC2ERKSO_ = comdat any

$_ZNSt8__detail9__variant15__raw_idx_visitIZNS0_15_Copy_ctor_baseILb0EJSt9monostatebN9grpc_core12experimental4Json11NumberValueENSt7__cxx1112basic_stringIcSt11char_traitsIcESaIcEEESt3mapISD_S6_St4lessISD_ESaISt4pairIKSD_S6_EEESt6vectorIS6_SaIS6_EEEEC1ERKSP_EUlOT_T0_E_JRKSt7variantIJS3_bS7_SD_SL_SO_EEEEEvST_DpOT0_ = comdat any

$_ZSt14__variant_castIJSt9monostatebN9grpc_core12experimental4Json11NumberValueENSt7__cxx1112basic_stringIcSt11char_traitsIcESaIcEEESt3mapISA_S3_St4lessISA_ESaISt4pairIKSA_S3_EEESt6vectorIS3_SaIS3_EEERKNSt8__detail9__variant15_Copy_ctor_baseILb0EJS0_bS4_SA_SI_SL_EEEEDcOT0_ = comdat any

$_ZSt10__do_visitINSt8__detail9__variant20__variant_idx_cookieEZNS1_15_Copy_ctor_baseILb0EJSt9monostatebN9grpc_core12experimental4Json11NumberValueENSt7__cxx1112basic_stringIcSt11char_traitsIcESaIcEEESt3mapISE_S7_St4lessISE_ESaISt4pairIKSE_S7_EEESt6vectorIS7_SaIS7_EEEEC1ERKSQ_EUlOT_T0_E_JRKSt7variantIJS4_bS8_SE_SM_SP_EEEEDcOSV_DpOT1_ = comdat any

$_ZZSt10__do_visitINSt8__detail9__variant20__variant_idx_cookieEZNS1_15_Copy_ctor_baseILb0EJSt9monostatebN9grpc_core12experimental4Json11NumberValueENSt7__cxx1112basic_stringIcSt11char_traitsIcESaIcEEESt3mapISE_S7_St4lessISE_ESaISt4pairIKSE_S7_EEESt6vectorIS7_SaIS7_EEEEC1ERKSQ_EUlOT_T0_E_JRKSt7variantIJS4_bS8_SE_SM_SP_EEEEDcOSV_DpOT1_ENKUlS10_zE_clB5cxx11ES10_z = comdat any

$_ZNSt8__detail9__variant17__gen_vtable_implINS0_12_Multi_arrayIPFNS0_20__variant_idx_cookieEOZNS0_15_Copy_ctor_baseILb0EJSt9monostatebN9grpc_core12experimental4Json11NumberValueENSt7__cxx1112basic_stringIcSt11char_traitsIcESaIcEEESt3mapISF_S8_St4lessISF_ESaISt4pairIKSF_S8_EEESt6vectorIS8_SaIS8_EEEEC1ERKSR_EUlOT_T0_E_RKSt7variantIJS5_bS9_SF_SN_SQ_EEEJEEESt16integer_sequenceImJLm0EEEE14__visit_invokeESY_S12_ = comdat any

$_ZNSt8__detail9__variant17__gen_vtable_implINS0_12_Multi_arrayIPFNS0_20__variant_idx_cookieEOZNS0_15_Copy_ctor_baseILb0EJSt9monostatebN9grpc_core12experimental4Json11NumberValueENSt7__cxx1112basic_stringIcSt11char_traitsIcESaIcEEESt3mapISF_S8_St4lessISF_ESaISt4pairIKSF_S8_EEESt6vectorIS8_SaIS8_EEEEC1ERKSR_EUlOT_T0_E_RKSt7variantIJS5_bS9_SF_SN_SQ_EEEJEEESt16integer_sequenceImJLm1EEEE14__visit_invokeESY_S12_ = comdat any

$_ZNSt8__detail9__variant17__gen_vtable_implINS0_12_Multi_arrayIPFNS0_20__variant_idx_cookieEOZNS0_15_Copy_ctor_baseILb0EJSt9monostatebN9grpc_core12experimental4Json11NumberValueENSt7__cxx1112basic_stringIcSt11char_traitsIcESaIcEEESt3mapISF_S8_St4lessISF_ESaISt4pairIKSF_S8_EEESt6vectorIS8_SaIS8_EEEEC1ERKSR_EUlOT_T0_E_RKSt7variantIJS5_bS9_SF_SN_SQ_EEEJEEESt16integer_sequenceImJLm2EEEE14__visit_invokeESY_S12_ = comdat any

$_ZNSt8__detail9__variant17__gen_vtable_implINS0_12_Multi_arrayIPFNS0_20__variant_idx_cookieEOZNS0_15_Copy_ctor_baseILb0EJSt9monostatebN9grpc_core12experimental4Json11NumberValueENSt7__cxx1112basic_stringIcSt11char_traitsIcESaIcEEESt3mapISF_S8_St4lessISF_ESaISt4pairIKSF_S8_EEESt6vectorIS8_SaIS8_EEEEC1ERKSR_EUlOT_T0_E_RKSt7variantIJS5_bS9_SF_SN_SQ_EEEJEEESt16integer_sequenceImJLm3EEEE14__visit_invokeESY_S12_ = comdat any

$_ZNSt8__detail9__variant17__gen_vtable_implINS0_12_Multi_arrayIPFNS0_20__variant_idx_cookieEOZNS0_15_Copy_ctor_baseILb0EJSt9monostatebN9grpc_core12experimental4Json11NumberValueENSt7__cxx1112basic_stringIcSt11char_traitsIcESaIcEEESt3mapISF_S8_St4lessISF_ESaISt4pairIKSF_S8_EEESt6vectorIS8_SaIS8_EEEEC1ERKSR_EUlOT_T0_E_RKSt7variantIJS5_bS9_SF_SN_SQ_EEEJEEESt16integer_sequenceImJLm4EEEE14__visit_invokeESY_S12_ = comdat any

$_ZNSt8__detail9__variant17__gen_vtable_implINS0_12_Multi_arrayIPFNS0_20__variant_idx_cookieEOZNS0_15_Copy_ctor_baseILb0EJSt9monostatebN9grpc_core12experimental4Json11NumberValueENSt7__cxx1112basic_stringIcSt11char_traitsIcESaIcEEESt3mapISF_S8_St4lessISF_ESaISt4pairIKSF_S8_EEESt6vectorIS8_SaIS8_EEEEC1ERKSR_EUlOT_T0_E_RKSt7variantIJS5_bS9_SF_SN_SQ_EEEJEEESt16integer_sequenceImJLm5EEEE14__visit_invokeESY_S12_ = comdat any

$_ZNSt8__detail9__variant17__gen_vtable_implINS0_12_Multi_arrayIPFNS0_20__variant_idx_cookieEOZNS0_15_Copy_ctor_baseILb0EJSt9monostatebN9grpc_core12experimental4Json11NumberValueENSt7__cxx1112basic_stringIcSt11char_traitsIcESaIcEEESt3mapISF_S8_St4lessISF_ESaISt4pairIKSF_S8_EEESt6vectorIS8_SaIS8_EEEEC1ERKSR_EUlOT_T0_E_RKSt7variantIJS5_bS9_SF_SN_SQ_EEEJEEESt16integer_sequenceImJLm18446744073709551615EEEE14__visit_invokeESY_S12_ = comdat any

$_ZSt8__invokeIZNSt8__detail9__variant15_Copy_ctor_baseILb0EJSt9monostatebN9grpc_core12experimental4Json11NumberValueENSt7__cxx1112basic_stringIcSt11char_traitsIcESaIcEEESt3mapISD_S6_St4lessISD_ESaISt4pairIKSD_S6_EEESt6vectorIS6_SaIS6_EEEEC1ERKSP_EUlOT_T0_E_JRKS3_St17integral_constantImLm0EEEENSt15__invoke_resultISS_JDpT0_EE4typeEST_DpOS11_ = comdat any

$_ZNSt8__detail9__variant17__gen_vtable_implINS0_12_Multi_arrayIPFNS0_20__variant_idx_cookieEOZNS0_15_Copy_ctor_baseILb0EJSt9monostatebN9grpc_core12experimental4Json11NumberValueENSt7__cxx1112basic_stringIcSt11char_traitsIcESaIcEEESt3mapISF_S8_St4lessISF_ESaISt4pairIKSF_S8_EEESt6vectorIS8_SaIS8_EEEEC1ERKSR_EUlOT_T0_E_RKSt7variantIJS5_bS9_SF_SN_SQ_EEEJEEESt16integer_sequenceImJLm0EEEE28__element_by_index_or_cookieILm0ES12_EEDcOSW_ = comdat any

$_ZSt13__invoke_implIvZNSt8__detail9__variant15_Copy_ctor_baseILb0EJSt9monostatebN9grpc_core12experimental4Json11NumberValueENSt7__cxx1112basic_stringIcSt11char_traitsIcESaIcEEESt3mapISD_S6_St4lessISD_ESaISt4pairIKSD_S6_EEESt6vectorIS6_SaIS6_EEEEC1ERKSP_EUlOT_T0_E_JRKS3_St17integral_constantImLm0EEEESS_St14__invoke_otherOSU_DpOT1_ = comdat any

$_ZZNSt8__detail9__variant15_Copy_ctor_baseILb0EJSt9monostatebN9grpc_core12experimental4Json11NumberValueENSt7__cxx1112basic_stringIcSt11char_traitsIcESaIcEEESt3mapISC_S5_St4lessISC_ESaISt4pairIKSC_S5_EEESt6vectorIS5_SaIS5_EEEEC1ERKSO_ENUlOT_T0_E_clIRKS2_St17integral_constantImLm0EEEEDaSS_ST_ = comdat any

$_ZSt10_ConstructINSt8__detail9__variant15_Variadic_unionIJSt9monostatebN9grpc_core12experimental4Json11NumberValueENSt7__cxx1112basic_stringIcSt11char_traitsIcESaIcEEESt3mapISD_S6_St4lessISD_ESaISt4pairIKSD_S6_EEESt6vectorIS6_SaIS6_EEEEEJRKSt16in_place_index_tILm0EERKS3_EEvPT_DpOT0_ = comdat any

$_ZNSt8__detail9__variant15_Variadic_unionIJSt9monostatebN9grpc_core12experimental4Json11NumberValueENSt7__cxx1112basic_stringIcSt11char_traitsIcESaIcEEESt3mapISC_S5_St4lessISC_ESaISt4pairIKSC_S5_EEESt6vectorIS5_SaIS5_EEEEC2IJRKS2_EEESt16in_place_index_tILm0EEDpOT_ = comdat any

$_ZNSt8__detail9__variant14_UninitializedISt9monostateLb1EEC2IJRKS2_EEESt16in_place_index_tILm0EEDpOT_ = comdat any

$_ZNSt8__detail9__variant5__getILm0ERKSt7variantIJSt9monostatebN9grpc_core12experimental4Json11NumberValueENSt7__cxx1112basic_stringIcSt11char_traitsIcESaIcEEESt3mapISD_S6_St4lessISD_ESaISt4pairIKSD_S6_EEESt6vectorIS6_SaIS6_EEEEEEDcOT0_ = comdat any

$_ZNSt8__detail9__variant7__get_nILm0ERKNS0_15_Variadic_unionIJSt9monostatebN9grpc_core12experimental4Json11NumberValueENSt7__cxx1112basic_stringIcSt11char_traitsIcESaIcEEESt3mapISD_S6_St4lessISD_ESaISt4pairIKSD_S6_EEESt6vectorIS6_SaIS6_EEEEEEEDcOT0_ = comdat any

$_ZNKRSt8__detail9__variant14_UninitializedISt9monostateLb1EE6_M_getEv = comdat any

$_ZSt8__invokeIZNSt8__detail9__variant15_Copy_ctor_baseILb0EJSt9monostatebN9grpc_core12experimental4Json11NumberValueENSt7__cxx1112basic_stringIcSt11char_traitsIcESaIcEEESt3mapISD_S6_St4lessISD_ESaISt4pairIKSD_S6_EEESt6vectorIS6_SaIS6_EEEEC1ERKSP_EUlOT_T0_E_JRKbSt17integral_constantImLm1EEEENSt15__invoke_resultISS_JDpT0_EE4typeEST_DpOS11_ = comdat any

$_ZNSt8__detail9__variant17__gen_vtable_implINS0_12_Multi_arrayIPFNS0_20__variant_idx_cookieEOZNS0_15_Copy_ctor_baseILb0EJSt9monostatebN9grpc_core12experimental4Json11NumberValueENSt7__cxx1112basic_stringIcSt11char_traitsIcESaIcEEESt3mapISF_S8_St4lessISF_ESaISt4pairIKSF_S8_EEESt6vectorIS8_SaIS8_EEEEC1ERKSR_EUlOT_T0_E_RKSt7variantIJS5_bS9_SF_SN_SQ_EEEJEEESt16integer_sequenceImJLm1EEEE28__element_by_index_or_cookieILm1ES12_EEDcOSW_ = comdat any

$_ZSt13__invoke_implIvZNSt8__detail9__variant15_Copy_ctor_baseILb0EJSt9monostatebN9grpc_core12experimental4Json11NumberValueENSt7__cxx1112basic_stringIcSt11char_traitsIcESaIcEEESt3mapISD_S6_St4lessISD_ESaISt4pairIKSD_S6_EEESt6vectorIS6_SaIS6_EEEEC1ERKSP_EUlOT_T0_E_JRKbSt17integral_constantImLm1EEEESS_St14__invoke_otherOSU_DpOT1_ = comdat any

$_ZZNSt8__detail9__variant15_Copy_ctor_baseILb0EJSt9monostatebN9grpc_core12experimental4Json11NumberValueENSt7__cxx1112basic_stringIcSt11char_traitsIcESaIcEEESt3mapISC_S5_St4lessISC_ESaISt4pairIKSC_S5_EEESt6vectorIS5_SaIS5_EEEEC1ERKSO_ENUlOT_T0_E_clIRKbSt17integral_constantImLm1EEEEDaSS_ST_ = comdat any

$_ZSt10_ConstructINSt8__detail9__variant15_Variadic_unionIJSt9monostatebN9grpc_core12experimental4Json11NumberValueENSt7__cxx1112basic_stringIcSt11char_traitsIcESaIcEEESt3mapISD_S6_St4lessISD_ESaISt4pairIKSD_S6_EEESt6vectorIS6_SaIS6_EEEEEJRKSt16in_place_index_tILm1EERKbEEvPT_DpOT0_ = comdat any

$_ZNSt8__detail9__variant15_Variadic_unionIJSt9monostatebN9grpc_core12experimental4Json11NumberValueENSt7__cxx1112basic_stringIcSt11char_traitsIcESaIcEEESt3mapISC_S5_St4lessISC_ESaISt4pairIKSC_S5_EEESt6vectorIS5_SaIS5_EEEEC2ILm1EJRKbEEESt16in_place_index_tIXT_EEDpOT0_ = comdat any

$_ZNSt8__detail9__variant15_Variadic_unionIJbN9grpc_core12experimental4Json11NumberValueENSt7__cxx1112basic_stringIcSt11char_traitsIcESaIcEEESt3mapISB_S4_St4lessISB_ESaISt4pairIKSB_S4_EEESt6vectorIS4_SaIS4_EEEEC2IJRKbEEESt16in_place_index_tILm0EEDpOT_ = comdat any

$_ZNSt8__detail9__variant14_UninitializedIbLb1EEC2IJRKbEEESt16in_place_index_tILm0EEDpOT_ = comdat any

$_ZNSt8__detail9__variant5__getILm1ERKSt7variantIJSt9monostatebN9grpc_core12experimental4Json11NumberValueENSt7__cxx1112basic_stringIcSt11char_traitsIcESaIcEEESt3mapISD_S6_St4lessISD_ESaISt4pairIKSD_S6_EEESt6vectorIS6_SaIS6_EEEEEEDcOT0_ = comdat any

$_ZNSt8__detail9__variant7__get_nILm1ERKNS0_15_Variadic_unionIJSt9monostatebN9grpc_core12experimental4Json11NumberValueENSt7__cxx1112basic_stringIcSt11char_traitsIcESaIcEEESt3mapISD_S6_St4lessISD_ESaISt4pairIKSD_S6_EEESt6vectorIS6_SaIS6_EEEEEEEDcOT0_ = comdat any

$_ZNKRSt8__detail9__variant14_UninitializedIbLb1EE6_M_getEv = comdat any

$_ZSt8__invokeIZNSt8__detail9__variant15_Copy_ctor_baseILb0EJSt9monostatebN9grpc_core12experimental4Json11NumberValueENSt7__cxx1112basic_stringIcSt11char_traitsIcESaIcEEESt3mapISD_S6_St4lessISD_ESaISt4pairIKSD_S6_EEESt6vectorIS6_SaIS6_EEEEC1ERKSP_EUlOT_T0_E_JRKS7_St17integral_constantImLm2EEEENSt15__invoke_resultISS_JDpT0_EE4typeEST_DpOS11_ = comdat any

$_ZNSt8__detail9__variant17__gen_vtable_implINS0_12_Multi_arrayIPFNS0_20__variant_idx_cookieEOZNS0_15_Copy_ctor_baseILb0EJSt9monostatebN9grpc_core12experimental4Json11NumberValueENSt7__cxx1112basic_stringIcSt11char_traitsIcESaIcEEESt3mapISF_S8_St4lessISF_ESaISt4pairIKSF_S8_EEESt6vectorIS8_SaIS8_EEEEC1ERKSR_EUlOT_T0_E_RKSt7variantIJS5_bS9_SF_SN_SQ_EEEJEEESt16integer_sequenceImJLm2EEEE28__element_by_index_or_cookieILm2ES12_EEDcOSW_ = comdat any

$_ZSt13__invoke_implIvZNSt8__detail9__variant15_Copy_ctor_baseILb0EJSt9monostatebN9grpc_core12experimental4Json11NumberValueENSt7__cxx1112basic_stringIcSt11char_traitsIcESaIcEEESt3mapISD_S6_St4lessISD_ESaISt4pairIKSD_S6_EEESt6vectorIS6_SaIS6_EEEEC1ERKSP_EUlOT_T0_E_JRKS7_St17integral_constantImLm2EEEESS_St14__invoke_otherOSU_DpOT1_ = comdat any

$_ZZNSt8__detail9__variant15_Copy_ctor_baseILb0EJSt9monostatebN9grpc_core12experimental4Json11NumberValueENSt7__cxx1112basic_stringIcSt11char_traitsIcESaIcEEESt3mapISC_S5_St4lessISC_ESaISt4pairIKSC_S5_EEESt6vectorIS5_SaIS5_EEEEC1ERKSO_ENUlOT_T0_E_clIRKS6_St17integral_constantImLm2EEEEDaSS_ST_ = comdat any

$_ZSt10_ConstructINSt8__detail9__variant15_Variadic_unionIJSt9monostatebN9grpc_core12experimental4Json11NumberValueENSt7__cxx1112basic_stringIcSt11char_traitsIcESaIcEEESt3mapISD_S6_St4lessISD_ESaISt4pairIKSD_S6_EEESt6vectorIS6_SaIS6_EEEEEJRKSt16in_place_index_tILm2EERKS7_EEvPT_DpOT0_ = comdat any

$_ZNSt8__detail9__variant15_Variadic_unionIJSt9monostatebN9grpc_core12experimental4Json11NumberValueENSt7__cxx1112basic_stringIcSt11char_traitsIcESaIcEEESt3mapISC_S5_St4lessISC_ESaISt4pairIKSC_S5_EEESt6vectorIS5_SaIS5_EEEEC2ILm2EJRKS6_EEESt16in_place_index_tIXT_EEDpOT0_ = comdat any

$_ZNSt8__detail9__variant15_Variadic_unionIJbN9grpc_core12experimental4Json11NumberValueENSt7__cxx1112basic_stringIcSt11char_traitsIcESaIcEEESt3mapISB_S4_St4lessISB_ESaISt4pairIKSB_S4_EEESt6vectorIS4_SaIS4_EEEEC2ILm1EJRKS5_EEESt16in_place_index_tIXT_EEDpOT0_ = comdat any

$_ZNSt8__detail9__variant15_Variadic_unionIJN9grpc_core12experimental4Json11NumberValueENSt7__cxx1112basic_stringIcSt11char_traitsIcESaIcEEESt3mapISB_S4_St4lessISB_ESaISt4pairIKSB_S4_EEESt6vectorIS4_SaIS4_EEEEC2IJRKS5_EEESt16in_place_index_tILm0EEDpOT_ = comdat any

$_ZNSt8__detail9__variant14_UninitializedIN9grpc_core12experimental4Json11NumberValueELb0EEC2IJRKS5_EEESt16in_place_index_tILm0EEDpOT_ = comdat any

$_ZN9grpc_core12experimental4Json11NumberValueC2ERKS2_ = comdat any

$_ZNSt8__detail9__variant5__getILm2ERKSt7variantIJSt9monostatebN9grpc_core12experimental4Json11NumberValueENSt7__cxx1112basic_stringIcSt11char_traitsIcESaIcEEESt3mapISD_S6_St4lessISD_ESaISt4pairIKSD_S6_EEESt6vectorIS6_SaIS6_EEEEEEDcOT0_ = comdat any

$_ZNSt8__detail9__variant7__get_nILm2ERKNS0_15_Variadic_unionIJSt9monostatebN9grpc_core12experimental4Json11NumberValueENSt7__cxx1112basic_stringIcSt11char_traitsIcESaIcEEESt3mapISD_S6_St4lessISD_ESaISt4pairIKSD_S6_EEESt6vectorIS6_SaIS6_EEEEEEEDcOT0_ = comdat any

$_ZNKRSt8__detail9__variant14_UninitializedIN9grpc_core12experimental4Json11NumberValueELb0EE6_M_getEv = comdat any

$_ZNK9__gnu_cxx16__aligned_membufIN9grpc_core12experimental4Json11NumberValueEE6_M_ptrEv = comdat any

$_ZNK9__gnu_cxx16__aligned_membufIN9grpc_core12experimental4Json11NumberValueEE7_M_addrEv = comdat any

$_ZSt8__invokeIZNSt8__detail9__variant15_Copy_ctor_baseILb0EJSt9monostatebN9grpc_core12experimental4Json11NumberValueENSt7__cxx1112basic_stringIcSt11char_traitsIcESaIcEEESt3mapISD_S6_St4lessISD_ESaISt4pairIKSD_S6_EEESt6vectorIS6_SaIS6_EEEEC1ERKSP_EUlOT_T0_E_JRSI_St17integral_constantImLm3EEEENSt15__invoke_resultISS_JDpT0_EE4typeEST_DpOS10_ = comdat any

$_ZNSt8__detail9__variant17__gen_vtable_implINS0_12_Multi_arrayIPFNS0_20__variant_idx_cookieEOZNS0_15_Copy_ctor_baseILb0EJSt9monostatebN9grpc_core12experimental4Json11NumberValueENSt7__cxx1112basic_stringIcSt11char_traitsIcESaIcEEESt3mapISF_S8_St4lessISF_ESaISt4pairIKSF_S8_EEESt6vectorIS8_SaIS8_EEEEC1ERKSR_EUlOT_T0_E_RKSt7variantIJS5_bS9_SF_SN_SQ_EEEJEEESt16integer_sequenceImJLm3EEEE28__element_by_index_or_cookieILm3ES12_EEDcOSW_ = comdat any

$_ZSt13__invoke_implIvZNSt8__detail9__variant15_Copy_ctor_baseILb0EJSt9monostatebN9grpc_core12experimental4Json11NumberValueENSt7__cxx1112basic_stringIcSt11char_traitsIcESaIcEEESt3mapISD_S6_St4lessISD_ESaISt4pairIKSD_S6_EEESt6vectorIS6_SaIS6_EEEEC1ERKSP_EUlOT_T0_E_JRSI_St17integral_constantImLm3EEEESS_St14__invoke_otherOSU_DpOT1_ = comdat any

$_ZZNSt8__detail9__variant15_Copy_ctor_baseILb0EJSt9monostatebN9grpc_core12experimental4Json11NumberValueENSt7__cxx1112basic_stringIcSt11char_traitsIcESaIcEEESt3mapISC_S5_St4lessISC_ESaISt4pairIKSC_S5_EEESt6vectorIS5_SaIS5_EEEEC1ERKSO_ENUlOT_T0_E_clIRSH_St17integral_constantImLm3EEEEDaSS_ST_ = comdat any

$_ZSt10_ConstructINSt8__detail9__variant15_Variadic_unionIJSt9monostatebN9grpc_core12experimental4Json11NumberValueENSt7__cxx1112basic_stringIcSt11char_traitsIcESaIcEEESt3mapISD_S6_St4lessISD_ESaISt4pairIKSD_S6_EEESt6vectorIS6_SaIS6_EEEEEJRKSt16in_place_index_tILm3EERSI_EEvPT_DpOT0_ = comdat any

$_ZNSt8__detail9__variant15_Variadic_unionIJSt9monostatebN9grpc_core12experimental4Json11NumberValueENSt7__cxx1112basic_stringIcSt11char_traitsIcESaIcEEESt3mapISC_S5_St4lessISC_ESaISt4pairIKSC_S5_EEESt6vectorIS5_SaIS5_EEEEC2ILm3EJRSH_EEESt16in_place_index_tIXT_EEDpOT0_ = comdat any

$_ZNSt8__detail9__variant15_Variadic_unionIJbN9grpc_core12experimental4Json11NumberValueENSt7__cxx1112basic_stringIcSt11char_traitsIcESaIcEEESt3mapISB_S4_St4lessISB_ESaISt4pairIKSB_S4_EEESt6vectorIS4_SaIS4_EEEEC2ILm2EJRSG_EEESt16in_place_index_tIXT_EEDpOT0_ = comdat any

$_ZNSt8__detail9__variant15_Variadic_unionIJN9grpc_core12experimental4Json11NumberValueENSt7__cxx1112basic_stringIcSt11char_traitsIcESaIcEEESt3mapISB_S4_St4lessISB_ESaISt4pairIKSB_S4_EEESt6vectorIS4_SaIS4_EEEEC2ILm1EJRSG_EEESt16in_place_index_tIXT_EEDpOT0_ = comdat any

$_ZNSt8__detail9__variant15_Variadic_unionIJNSt7__cxx1112basic_stringIcSt11char_traitsIcESaIcEEESt3mapIS7_N9grpc_core12experimental4JsonESt4lessIS7_ESaISt4pairIKS7_SB_EEESt6vectorISB_SaISB_EEEEC2IJRSF_EEESt16in_place_index_tILm0EEDpOT_ = comdat any

$_ZNSt8__detail9__variant14_UninitializedINSt7__cxx1112basic_stringIcSt11char_traitsIcESaIcEEELb0EEC2IJRKS7_EEESt16in_place_index_tILm0EEDpOT_ = comdat any

$_ZNSt8__detail9__variant5__getILm3ERKSt7variantIJSt9monostatebN9grpc_core12experimental4Json11NumberValueENSt7__cxx1112basic_stringIcSt11char_traitsIcESaIcEEESt3mapISD_S6_St4lessISD_ESaISt4pairIKSD_S6_EEESt6vectorIS6_SaIS6_EEEEEEDcOT0_ = comdat any

$_ZNSt8__detail9__variant7__get_nILm3ERKNS0_15_Variadic_unionIJSt9monostatebN9grpc_core12experimental4Json11NumberValueENSt7__cxx1112basic_stringIcSt11char_traitsIcESaIcEEESt3mapISD_S6_St4lessISD_ESaISt4pairIKSD_S6_EEESt6vectorIS6_SaIS6_EEEEEEEDcOT0_ = comdat any

$_ZNSt8__detail9__variant7__get_nILm0ERKNS0_15_Variadic_unionIJNSt7__cxx1112basic_stringIcSt11char_traitsIcESaIcEEESt3mapIS8_N9grpc_core12experimental4JsonESt4lessIS8_ESaISt4pairIKS8_SC_EEESt6vectorISC_SaISC_EEEEEEEDcOT0_ = comdat any

$_ZNKRSt8__detail9__variant14_UninitializedINSt7__cxx1112basic_stringIcSt11char_traitsIcESaIcEEELb0EE6_M_getEv = comdat any

$_ZNK9__gnu_cxx16__aligned_membufINSt7__cxx1112basic_stringIcSt11char_traitsIcESaIcEEEE6_M_ptrEv = comdat any

$_ZNK9__gnu_cxx16__aligned_membufINSt7__cxx1112basic_stringIcSt11char_traitsIcESaIcEEEE7_M_addrEv = comdat any

$_ZSt8__invokeIZNSt8__detail9__variant15_Copy_ctor_baseILb0EJSt9monostatebN9grpc_core12experimental4Json11NumberValueENSt7__cxx1112basic_stringIcSt11char_traitsIcESaIcEEESt3mapISD_S6_St4lessISD_ESaISt4pairIKSD_S6_EEESt6vectorIS6_SaIS6_EEEEC1ERKSP_EUlOT_T0_E_JRKSL_St17integral_constantImLm4EEEENSt15__invoke_resultISS_JDpT0_EE4typeEST_DpOS11_ = comdat any

$_ZNSt8__detail9__variant17__gen_vtable_implINS0_12_Multi_arrayIPFNS0_20__variant_idx_cookieEOZNS0_15_Copy_ctor_baseILb0EJSt9monostatebN9grpc_core12experimental4Json11NumberValueENSt7__cxx1112basic_stringIcSt11char_traitsIcESaIcEEESt3mapISF_S8_St4lessISF_ESaISt4pairIKSF_S8_EEESt6vectorIS8_SaIS8_EEEEC1ERKSR_EUlOT_T0_E_RKSt7variantIJS5_bS9_SF_SN_SQ_EEEJEEESt16integer_sequenceImJLm4EEEE28__element_by_index_or_cookieILm4ES12_EEDcOSW_ = comdat any

$_ZSt13__invoke_implIvZNSt8__detail9__variant15_Copy_ctor_baseILb0EJSt9monostatebN9grpc_core12experimental4Json11NumberValueENSt7__cxx1112basic_stringIcSt11char_traitsIcESaIcEEESt3mapISD_S6_St4lessISD_ESaISt4pairIKSD_S6_EEESt6vectorIS6_SaIS6_EEEEC1ERKSP_EUlOT_T0_E_JRKSL_St17integral_constantImLm4EEEESS_St14__invoke_otherOSU_DpOT1_ = comdat any

$_ZZNSt8__detail9__variant15_Copy_ctor_baseILb0EJSt9monostatebN9grpc_core12experimental4Json11NumberValueENSt7__cxx1112basic_stringIcSt11char_traitsIcESaIcEEESt3mapISC_S5_St4lessISC_ESaISt4pairIKSC_S5_EEESt6vectorIS5_SaIS5_EEEEC1ERKSO_ENUlOT_T0_E_clIRKSK_St17integral_constantImLm4EEEEDaSS_ST_ = comdat any

$_ZSt10_ConstructINSt8__detail9__variant15_Variadic_unionIJSt9monostatebN9grpc_core12experimental4Json11NumberValueENSt7__cxx1112basic_stringIcSt11char_traitsIcESaIcEEESt3mapISD_S6_St4lessISD_ESaISt4pairIKSD_S6_EEESt6vectorIS6_SaIS6_EEEEEJRKSt16in_place_index_tILm4EERKSL_EEvPT_DpOT0_ = comdat any

$_ZNSt8__detail9__variant15_Variadic_unionIJSt9monostatebN9grpc_core12experimental4Json11NumberValueENSt7__cxx1112basic_stringIcSt11char_traitsIcESaIcEEESt3mapISC_S5_St4lessISC_ESaISt4pairIKSC_S5_EEESt6vectorIS5_SaIS5_EEEEC2ILm4EJRKSK_EEESt16in_place_index_tIXT_EEDpOT0_ = comdat any

$_ZNSt8__detail9__variant15_Variadic_unionIJbN9grpc_core12experimental4Json11NumberValueENSt7__cxx1112basic_stringIcSt11char_traitsIcESaIcEEESt3mapISB_S4_St4lessISB_ESaISt4pairIKSB_S4_EEESt6vectorIS4_SaIS4_EEEEC2ILm3EJRKSJ_EEESt16in_place_index_tIXT_EEDpOT0_ = comdat any

$_ZNSt8__detail9__variant15_Variadic_unionIJN9grpc_core12experimental4Json11NumberValueENSt7__cxx1112basic_stringIcSt11char_traitsIcESaIcEEESt3mapISB_S4_St4lessISB_ESaISt4pairIKSB_S4_EEESt6vectorIS4_SaIS4_EEEEC2ILm2EJRKSJ_EEESt16in_place_index_tIXT_EEDpOT0_ = comdat any

$_ZNSt8__detail9__variant15_Variadic_unionIJNSt7__cxx1112basic_stringIcSt11char_traitsIcESaIcEEESt3mapIS7_N9grpc_core12experimental4JsonESt4lessIS7_ESaISt4pairIKS7_SB_EEESt6vectorISB_SaISB_EEEEC2ILm1EJRKSI_EEESt16in_place_index_tIXT_EEDpOT0_ = comdat any

$_ZNSt8__detail9__variant15_Variadic_unionIJSt3mapINSt7__cxx1112basic_stringIcSt11char_traitsIcESaIcEEEN9grpc_core12experimental4JsonESt4lessIS8_ESaISt4pairIKS8_SB_EEESt6vectorISB_SaISB_EEEEC2IJRKSI_EEESt16in_place_index_tILm0EEDpOT_ = comdat any

$_ZNSt8__detail9__variant14_UninitializedISt3mapINSt7__cxx1112basic_stringIcSt11char_traitsIcESaIcEEEN9grpc_core12experimental4JsonESt4lessIS8_ESaISt4pairIKS8_SB_EEELb0EEC2IJRKSI_EEESt16in_place_index_tILm0EEDpOT_ = comdat any

$_ZNSt3mapINSt7__cxx1112basic_stringIcSt11char_traitsIcESaIcEEEN9grpc_core12experimental4JsonESt4lessIS5_ESaISt4pairIKS5_S8_EEEC2ERKSF_ = comdat any

$_ZNSt8_Rb_treeINSt7__cxx1112basic_stringIcSt11char_traitsIcESaIcEEESt4pairIKS5_N9grpc_core12experimental4JsonEESt10_Select1stISB_ESt4lessIS5_ESaISB_EEC2ERKSH_ = comdat any

$_ZNSt8_Rb_treeINSt7__cxx1112basic_stringIcSt11char_traitsIcESaIcEEESt4pairIKS5_N9grpc_core12experimental4JsonEESt10_Select1stISB_ESt4lessIS5_ESaISB_EE13_Rb_tree_implISF_Lb1EEC2ERKSJ_ = comdat any

$_ZNKSt8_Rb_treeINSt7__cxx1112basic_stringIcSt11char_traitsIcESaIcEEESt4pairIKS5_N9grpc_core12experimental4JsonEESt10_Select1stISB_ESt4lessIS5_ESaISB_EE7_M_rootEv = comdat any

$_ZNSt8_Rb_treeINSt7__cxx1112basic_stringIcSt11char_traitsIcESaIcEEESt4pairIKS5_N9grpc_core12experimental4JsonEESt10_Select1stISB_ESt4lessIS5_ESaISB_EE7_M_copyERKSH_ = comdat any

$_ZN9__gnu_cxx14__alloc_traitsISaISt13_Rb_tree_nodeISt4pairIKNSt7__cxx1112basic_stringIcSt11char_traitsIcESaIcEEEN9grpc_core12experimental4JsonEEEESE_E17_S_select_on_copyERKSF_ = comdat any

$_ZNSaISt13_Rb_tree_nodeISt4pairIKNSt7__cxx1112basic_stringIcSt11char_traitsIcESaIcEEEN9grpc_core12experimental4JsonEEEED2Ev = comdat any

$_ZNSt20_Rb_tree_key_compareISt4lessINSt7__cxx1112basic_stringIcSt11char_traitsIcESaIcEEEEEC2ERKS7_ = comdat any

$_ZNSt16allocator_traitsISaISt13_Rb_tree_nodeISt4pairIKNSt7__cxx1112basic_stringIcSt11char_traitsIcESaIcEEEN9grpc_core12experimental4JsonEEEEE37select_on_container_copy_constructionERKSE_ = comdat any

$_ZNSaISt13_Rb_tree_nodeISt4pairIKNSt7__cxx1112basic_stringIcSt11char_traitsIcESaIcEEEN9grpc_core12experimental4JsonEEEEC2ERKSD_ = comdat any

$_ZNSt8_Rb_treeINSt7__cxx1112basic_stringIcSt11char_traitsIcESaIcEEESt4pairIKS5_N9grpc_core12experimental4JsonEESt10_Select1stISB_ESt4lessIS5_ESaISB_EE11_Alloc_nodeC2ERSH_ = comdat any

$_ZNSt8_Rb_treeINSt7__cxx1112basic_stringIcSt11char_traitsIcESaIcEEESt4pairIKS5_N9grpc_core12experimental4JsonEESt10_Select1stISB_ESt4lessIS5_ESaISB_EE7_M_copyILb0ENSH_11_Alloc_nodeEEEPSt13_Rb_tree_nodeISB_ERKSH_RT0_ = comdat any

$_ZNSt8_Rb_treeINSt7__cxx1112basic_stringIcSt11char_traitsIcESaIcEEESt4pairIKS5_N9grpc_core12experimental4JsonEESt10_Select1stISB_ESt4lessIS5_ESaISB_EE7_M_copyILb0ENSH_11_Alloc_nodeEEEPSt13_Rb_tree_nodeISB_ESM_PSt18_Rb_tree_node_baseRT0_ = comdat any

$_ZNSt8_Rb_treeINSt7__cxx1112basic_stringIcSt11char_traitsIcESaIcEEESt4pairIKS5_N9grpc_core12experimental4JsonEESt10_Select1stISB_ESt4lessIS5_ESaISB_EE6_M_endEv = comdat any

$_ZNSt8_Rb_treeINSt7__cxx1112basic_stringIcSt11char_traitsIcESaIcEEESt4pairIKS5_N9grpc_core12experimental4JsonEESt10_Select1stISB_ESt4lessIS5_ESaISB_EE10_S_minimumEPSt18_Rb_tree_node_base = comdat any

$_ZNSt8_Rb_treeINSt7__cxx1112basic_stringIcSt11char_traitsIcESaIcEEESt4pairIKS5_N9grpc_core12experimental4JsonEESt10_Select1stISB_ESt4lessIS5_ESaISB_EE11_M_leftmostEv = comdat any

$_ZNSt8_Rb_treeINSt7__cxx1112basic_stringIcSt11char_traitsIcESaIcEEESt4pairIKS5_N9grpc_core12experimental4JsonEESt10_Select1stISB_ESt4lessIS5_ESaISB_EE10_S_maximumEPSt18_Rb_tree_node_base = comdat any

$_ZNSt8_Rb_treeINSt7__cxx1112basic_stringIcSt11char_traitsIcESaIcEEESt4pairIKS5_N9grpc_core12experimental4JsonEESt10_Select1stISB_ESt4lessIS5_ESaISB_EE12_M_rightmostEv = comdat any

$_ZNSt8_Rb_treeINSt7__cxx1112basic_stringIcSt11char_traitsIcESaIcEEESt4pairIKS5_N9grpc_core12experimental4JsonEESt10_Select1stISB_ESt4lessIS5_ESaISB_EE13_M_clone_nodeILb0ENSH_11_Alloc_nodeEEEPSt13_Rb_tree_nodeISB_ESM_RT0_ = comdat any

$_ZNKSt8_Rb_treeINSt7__cxx1112basic_stringIcSt11char_traitsIcESaIcEEESt4pairIKS5_N9grpc_core12experimental4JsonEESt10_Select1stISB_ESt4lessIS5_ESaISB_EE11_Alloc_nodeclIRKSB_EEPSt13_Rb_tree_nodeISB_EOT_ = comdat any

$_ZNSt8_Rb_treeINSt7__cxx1112basic_stringIcSt11char_traitsIcESaIcEEESt4pairIKS5_N9grpc_core12experimental4JsonEESt10_Select1stISB_ESt4lessIS5_ESaISB_EE14_M_create_nodeIJRKSB_EEEPSt13_Rb_tree_nodeISB_EDpOT_ = comdat any

$_ZNSt8_Rb_treeINSt7__cxx1112basic_stringIcSt11char_traitsIcESaIcEEESt4pairIKS5_N9grpc_core12experimental4JsonEESt10_Select1stISB_ESt4lessIS5_ESaISB_EE11_M_get_nodeEv = comdat any

$_ZNSt8_Rb_treeINSt7__cxx1112basic_stringIcSt11char_traitsIcESaIcEEESt4pairIKS5_N9grpc_core12experimental4JsonEESt10_Select1stISB_ESt4lessIS5_ESaISB_EE17_M_construct_nodeIJRKSB_EEEvPSt13_Rb_tree_nodeISB_EDpOT_ = comdat any

$_ZNSt16allocator_traitsISaISt13_Rb_tree_nodeISt4pairIKNSt7__cxx1112basic_stringIcSt11char_traitsIcESaIcEEEN9grpc_core12experimental4JsonEEEEE8allocateERSE_m = comdat any

$_ZNSt15__new_allocatorISt13_Rb_tree_nodeISt4pairIKNSt7__cxx1112basic_stringIcSt11char_traitsIcESaIcEEEN9grpc_core12experimental4JsonEEEE8allocateEmPKv = comdat any

$_ZNKSt15__new_allocatorISt13_Rb_tree_nodeISt4pairIKNSt7__cxx1112basic_stringIcSt11char_traitsIcESaIcEEEN9grpc_core12experimental4JsonEEEE11_M_max_sizeEv = comdat any

$_ZNSt16allocator_traitsISaISt13_Rb_tree_nodeISt4pairIKNSt7__cxx1112basic_stringIcSt11char_traitsIcESaIcEEEN9grpc_core12experimental4JsonEEEEE9constructISC_JRKSC_EEEvRSE_PT_DpOT0_ = comdat any

$_ZNSt15__new_allocatorISt13_Rb_tree_nodeISt4pairIKNSt7__cxx1112basic_stringIcSt11char_traitsIcESaIcEEEN9grpc_core12experimental4JsonEEEE9constructISC_JRKSC_EEEvPT_DpOT0_ = comdat any

$_ZNSt4pairIKNSt7__cxx1112basic_stringIcSt11char_traitsIcESaIcEEEN9grpc_core12experimental4JsonEEC2ERKSA_ = comdat any

$_ZNSt18_Rb_tree_node_base10_S_minimumEPS_ = comdat any

$_ZNSt18_Rb_tree_node_base10_S_maximumEPS_ = comdat any

$_ZNSt8__detail9__variant5__getILm4ERKSt7variantIJSt9monostatebN9grpc_core12experimental4Json11NumberValueENSt7__cxx1112basic_stringIcSt11char_traitsIcESaIcEEESt3mapISD_S6_St4lessISD_ESaISt4pairIKSD_S6_EEESt6vectorIS6_SaIS6_EEEEEEDcOT0_ = comdat any

$_ZNSt8__detail9__variant7__get_nILm4ERKNS0_15_Variadic_unionIJSt9monostatebN9grpc_core12experimental4Json11NumberValueENSt7__cxx1112basic_stringIcSt11char_traitsIcESaIcEEESt3mapISD_S6_St4lessISD_ESaISt4pairIKSD_S6_EEESt6vectorIS6_SaIS6_EEEEEEEDcOT0_ = comdat any

$_ZNSt8__detail9__variant7__get_nILm1ERKNS0_15_Variadic_unionIJNSt7__cxx1112basic_stringIcSt11char_traitsIcESaIcEEESt3mapIS8_N9grpc_core12experimental4JsonESt4lessIS8_ESaISt4pairIKS8_SC_EEESt6vectorISC_SaISC_EEEEEEEDcOT0_ = comdat any

$_ZNKRSt8__detail9__variant14_UninitializedISt3mapINSt7__cxx1112basic_stringIcSt11char_traitsIcESaIcEEEN9grpc_core12experimental4JsonESt4lessIS8_ESaISt4pairIKS8_SB_EEELb0EE6_M_getEv = comdat any

$_ZNK9__gnu_cxx16__aligned_membufISt3mapINSt7__cxx1112basic_stringIcSt11char_traitsIcESaIcEEEN9grpc_core12experimental4JsonESt4lessIS7_ESaISt4pairIKS7_SA_EEEE6_M_ptrEv = comdat any

$_ZNK9__gnu_cxx16__aligned_membufISt3mapINSt7__cxx1112basic_stringIcSt11char_traitsIcESaIcEEEN9grpc_core12experimental4JsonESt4lessIS7_ESaISt4pairIKS7_SA_EEEE7_M_addrEv = comdat any

$_ZSt8__invokeIZNSt8__detail9__variant15_Copy_ctor_baseILb0EJSt9monostatebN9grpc_core12experimental4Json11NumberValueENSt7__cxx1112basic_stringIcSt11char_traitsIcESaIcEEESt3mapISD_S6_St4lessISD_ESaISt4pairIKSD_S6_EEESt6vectorIS6_SaIS6_EEEEC1ERKSP_EUlOT_T0_E_JRKSO_St17integral_constantImLm5EEEENSt15__invoke_resultISS_JDpT0_EE4typeEST_DpOS11_ = comdat any

$_ZNSt8__detail9__variant17__gen_vtable_implINS0_12_Multi_arrayIPFNS0_20__variant_idx_cookieEOZNS0_15_Copy_ctor_baseILb0EJSt9monostatebN9grpc_core12experimental4Json11NumberValueENSt7__cxx1112basic_stringIcSt11char_traitsIcESaIcEEESt3mapISF_S8_St4lessISF_ESaISt4pairIKSF_S8_EEESt6vectorIS8_SaIS8_EEEEC1ERKSR_EUlOT_T0_E_RKSt7variantIJS5_bS9_SF_SN_SQ_EEEJEEESt16integer_sequenceImJLm5EEEE28__element_by_index_or_cookieILm5ES12_EEDcOSW_ = comdat any

$_ZSt13__invoke_implIvZNSt8__detail9__variant15_Copy_ctor_baseILb0EJSt9monostatebN9grpc_core12experimental4Json11NumberValueENSt7__cxx1112basic_stringIcSt11char_traitsIcESaIcEEESt3mapISD_S6_St4lessISD_ESaISt4pairIKSD_S6_EEESt6vectorIS6_SaIS6_EEEEC1ERKSP_EUlOT_T0_E_JRKSO_St17integral_constantImLm5EEEESS_St14__invoke_otherOSU_DpOT1_ = comdat any

$_ZZNSt8__detail9__variant15_Copy_ctor_baseILb0EJSt9monostatebN9grpc_core12experimental4Json11NumberValueENSt7__cxx1112basic_stringIcSt11char_traitsIcESaIcEEESt3mapISC_S5_St4lessISC_ESaISt4pairIKSC_S5_EEESt6vectorIS5_SaIS5_EEEEC1ERKSO_ENUlOT_T0_E_clIRKSN_St17integral_constantImLm5EEEEDaSS_ST_ = comdat any

$_ZSt10_ConstructINSt8__detail9__variant15_Variadic_unionIJSt9monostatebN9grpc_core12experimental4Json11NumberValueENSt7__cxx1112basic_stringIcSt11char_traitsIcESaIcEEESt3mapISD_S6_St4lessISD_ESaISt4pairIKSD_S6_EEESt6vectorIS6_SaIS6_EEEEEJRKSt16in_place_index_tILm5EERKSO_EEvPT_DpOT0_ = comdat any

$_ZNSt8__detail9__variant15_Variadic_unionIJSt9monostatebN9grpc_core12experimental4Json11NumberValueENSt7__cxx1112basic_stringIcSt11char_traitsIcESaIcEEESt3mapISC_S5_St4lessISC_ESaISt4pairIKSC_S5_EEESt6vectorIS5_SaIS5_EEEEC2ILm5EJRKSN_EEESt16in_place_index_tIXT_EEDpOT0_ = comdat any

$_ZNSt8__detail9__variant15_Variadic_unionIJbN9grpc_core12experimental4Json11NumberValueENSt7__cxx1112basic_stringIcSt11char_traitsIcESaIcEEESt3mapISB_S4_St4lessISB_ESaISt4pairIKSB_S4_EEESt6vectorIS4_SaIS4_EEEEC2ILm4EJRKSM_EEESt16in_place_index_tIXT_EEDpOT0_ = comdat any

$_ZNSt8__detail9__variant15_Variadic_unionIJN9grpc_core12experimental4Json11NumberValueENSt7__cxx1112basic_stringIcSt11char_traitsIcESaIcEEESt3mapISB_S4_St4lessISB_ESaISt4pairIKSB_S4_EEESt6vectorIS4_SaIS4_EEEEC2ILm3EJRKSM_EEESt16in_place_index_tIXT_EEDpOT0_ = comdat any

$_ZNSt8__detail9__variant15_Variadic_unionIJNSt7__cxx1112basic_stringIcSt11char_traitsIcESaIcEEESt3mapIS7_N9grpc_core12experimental4JsonESt4lessIS7_ESaISt4pairIKS7_SB_EEESt6vectorISB_SaISB_EEEEC2ILm2EJRKSL_EEESt16in_place_index_tIXT_EEDpOT0_ = comdat any

$_ZNSt8__detail9__variant15_Variadic_unionIJSt3mapINSt7__cxx1112basic_stringIcSt11char_traitsIcESaIcEEEN9grpc_core12experimental4JsonESt4lessIS8_ESaISt4pairIKS8_SB_EEESt6vectorISB_SaISB_EEEEC2ILm1EJRKSL_EEESt16in_place_index_tIXT_EEDpOT0_ = comdat any

$_ZNSt8__detail9__variant15_Variadic_unionIJSt6vectorIN9grpc_core12experimental4JsonESaIS5_EEEEC2IJRKS7_EEESt16in_place_index_tILm0EEDpOT_ = comdat any

$_ZNSt8__detail9__variant14_UninitializedISt6vectorIN9grpc_core12experimental4JsonESaIS5_EELb0EEC2IJRKS7_EEESt16in_place_index_tILm0EEDpOT_ = comdat any

$_ZNSt6vectorIN9grpc_core12experimental4JsonESaIS2_EEC2ERKS4_ = comdat any

$_ZNKSt6vectorIN9grpc_core12experimental4JsonESaIS2_EE4sizeEv = comdat any

$_ZN9__gnu_cxx14__alloc_traitsISaIN9grpc_core12experimental4JsonEES3_E17_S_select_on_copyERKS4_ = comdat any

$_ZNSt12_Vector_baseIN9grpc_core12experimental4JsonESaIS2_EEC2EmRKS3_ = comdat any

$_ZSt22__uninitialized_copy_aIN9__gnu_cxx17__normal_iteratorIPKN9grpc_core12experimental4JsonESt6vectorIS4_SaIS4_EEEEPS4_S4_ET0_T_SD_SC_RSaIT1_E = comdat any

$_ZNKSt6vectorIN9grpc_core12experimental4JsonESaIS2_EE5beginEv = comdat any

$_ZNKSt6vectorIN9grpc_core12experimental4JsonESaIS2_EE3endEv = comdat any

$_ZNSt16allocator_traitsISaIN9grpc_core12experimental4JsonEEE37select_on_container_copy_constructionERKS3_ = comdat any

$_ZNSt12_Vector_baseIN9grpc_core12experimental4JsonESaIS2_EE17_M_create_storageEm = comdat any

$_ZNSt12_Vector_baseIN9grpc_core12experimental4JsonESaIS2_EE11_M_allocateEm = comdat any

$_ZNSt16allocator_traitsISaIN9grpc_core12experimental4JsonEEE8allocateERS3_m = comdat any

$_ZNSt15__new_allocatorIN9grpc_core12experimental4JsonEE8allocateEmPKv = comdat any

$_ZNKSt15__new_allocatorIN9grpc_core12experimental4JsonEE11_M_max_sizeEv = comdat any

$_ZSt18uninitialized_copyIN9__gnu_cxx17__normal_iteratorIPKN9grpc_core12experimental4JsonESt6vectorIS4_SaIS4_EEEEPS4_ET0_T_SD_SC_ = comdat any

$_ZNSt20__uninitialized_copyILb0EE13__uninit_copyIN9__gnu_cxx17__normal_iteratorIPKN9grpc_core12experimental4JsonESt6vectorIS6_SaIS6_EEEEPS6_EET0_T_SF_SE_ = comdat any

$_ZSt16__do_uninit_copyIN9__gnu_cxx17__normal_iteratorIPKN9grpc_core12experimental4JsonESt6vectorIS4_SaIS4_EEEEPS4_ET0_T_SD_SC_ = comdat any

$_ZN9__gnu_cxxneIPKN9grpc_core12experimental4JsonESt6vectorIS3_SaIS3_EEEEbRKNS_17__normal_iteratorIT_T0_EESE_ = comdat any

$_ZSt10_ConstructIN9grpc_core12experimental4JsonEJRKS2_EEvPT_DpOT0_ = comdat any

$_ZNK9__gnu_cxx17__normal_iteratorIPKN9grpc_core12experimental4JsonESt6vectorIS3_SaIS3_EEEdeEv = comdat any

$_ZN9__gnu_cxx17__normal_iteratorIPKN9grpc_core12experimental4JsonESt6vectorIS3_SaIS3_EEEppEv = comdat any

$_ZNK9__gnu_cxx17__normal_iteratorIPKN9grpc_core12experimental4JsonESt6vectorIS3_SaIS3_EEE4baseEv = comdat any

$_ZN9__gnu_cxx17__normal_iteratorIPKN9grpc_core12experimental4JsonESt6vectorIS3_SaIS3_EEEC2ERKS5_ = comdat any

$_ZNSt8__detail9__variant5__getILm5ERKSt7variantIJSt9monostatebN9grpc_core12experimental4Json11NumberValueENSt7__cxx1112basic_stringIcSt11char_traitsIcESaIcEEESt3mapISD_S6_St4lessISD_ESaISt4pairIKSD_S6_EEESt6vectorIS6_SaIS6_EEEEEEDcOT0_ = comdat any

$_ZNSt8__detail9__variant7__get_nILm5ERKNS0_15_Variadic_unionIJSt9monostatebN9grpc_core12experimental4Json11NumberValueENSt7__cxx1112basic_stringIcSt11char_traitsIcESaIcEEESt3mapISD_S6_St4lessISD_ESaISt4pairIKSD_S6_EEESt6vectorIS6_SaIS6_EEEEEEEDcOT0_ = comdat any

$_ZNSt8__detail9__variant7__get_nILm2ERKNS0_15_Variadic_unionIJNSt7__cxx1112basic_stringIcSt11char_traitsIcESaIcEEESt3mapIS8_N9grpc_core12experimental4JsonESt4lessIS8_ESaISt4pairIKS8_SC_EEESt6vectorISC_SaISC_EEEEEEEDcOT0_ = comdat any

$_ZNKRSt8__detail9__variant14_UninitializedISt6vectorIN9grpc_core12experimental4JsonESaIS5_EELb0EE6_M_getEv = comdat any

$_ZNK9__gnu_cxx16__aligned_membufISt6vectorIN9grpc_core12experimental4JsonESaIS4_EEE6_M_ptrEv = comdat any

$_ZNK9__gnu_cxx16__aligned_membufISt6vectorIN9grpc_core12experimental4JsonESaIS4_EEE7_M_addrEv = comdat any

$_ZSt8__invokeIZNSt8__detail9__variant15_Copy_ctor_baseILb0EJSt9monostatebN9grpc_core12experimental4Json11NumberValueENSt7__cxx1112basic_stringIcSt11char_traitsIcESaIcEEESt3mapISD_S6_St4lessISD_ESaISt4pairIKSD_S6_EEESt6vectorIS6_SaIS6_EEEEC1ERKSP_EUlOT_T0_E_JNS1_16__variant_cookieESt17integral_constantImLm18446744073709551615EEEENSt15__invoke_resultISS_JDpT0_EE4typeEST_DpOS10_ = comdat any

$_ZNSt8__detail9__variant17__gen_vtable_implINS0_12_Multi_arrayIPFNS0_20__variant_idx_cookieEOZNS0_15_Copy_ctor_baseILb0EJSt9monostatebN9grpc_core12experimental4Json11NumberValueENSt7__cxx1112basic_stringIcSt11char_traitsIcESaIcEEESt3mapISF_S8_St4lessISF_ESaISt4pairIKSF_S8_EEESt6vectorIS8_SaIS8_EEEEC1ERKSR_EUlOT_T0_E_RKSt7variantIJS5_bS9_SF_SN_SQ_EEEJEEESt16integer_sequenceImJLm18446744073709551615EEEE28__element_by_index_or_cookieILm18446744073709551615ES12_EEDcOSW_ = comdat any

$_ZSt13__invoke_implIvZNSt8__detail9__variant15_Copy_ctor_baseILb0EJSt9monostatebN9grpc_core12experimental4Json11NumberValueENSt7__cxx1112basic_stringIcSt11char_traitsIcESaIcEEESt3mapISD_S6_St4lessISD_ESaISt4pairIKSD_S6_EEESt6vectorIS6_SaIS6_EEEEC1ERKSP_EUlOT_T0_E_JNS1_16__variant_cookieESt17integral_constantImLm18446744073709551615EEEESS_St14__invoke_otherOSU_DpOT1_ = comdat any

$_ZZNSt8__detail9__variant15_Copy_ctor_baseILb0EJSt9monostatebN9grpc_core12experimental4Json11NumberValueENSt7__cxx1112basic_stringIcSt11char_traitsIcESaIcEEESt3mapISC_S5_St4lessISC_ESaISt4pairIKSC_S5_EEESt6vectorIS5_SaIS5_EEEEC1ERKSO_ENUlOT_T0_E_clINS0_16__variant_cookieESt17integral_constantImLm18446744073709551615EEEEDaSS_ST_ = comdat any

$_ZN9grpc_core17XdsHttpFilterImplD2Ev = comdat any

$_ZNSt7__cxx1112basic_stringIcSt11char_traitsIcESaIcEE12_M_constructIPKcEEvT_S8_St20forward_iterator_tag = comdat any

$_ZNSt7__cxx1112basic_stringIcSt11char_traitsIcESaIcEE12_Alloc_hiderD2Ev = comdat any

$_ZSt8distanceIPKcENSt15iterator_traitsIT_E15difference_typeES3_S3_ = comdat any

$_ZZNSt7__cxx1112basic_stringIcSt11char_traitsIcESaIcEE12_M_constructIPKcEEvT_S8_St20forward_iterator_tagEN6_GuardC2EPS4_ = comdat any

$_ZZNSt7__cxx1112basic_stringIcSt11char_traitsIcESaIcEE12_M_constructIPKcEEvT_S8_St20forward_iterator_tagEN6_GuardD2Ev = comdat any

$_ZSt10__distanceIPKcENSt15iterator_traitsIT_E15difference_typeES3_S3_St26random_access_iterator_tag = comdat any

$_ZSt19__iterator_categoryIPKcENSt15iterator_traitsIT_E17iterator_categoryERKS3_ = comdat any

$_ZN9grpc_core9ConstructINS_14promise_detail10UnwakeableEJEEEvPT_DpOT0_ = comdat any

$_ZN9grpc_core14promise_detail10UnwakeableC2Ev = comdat any

$_ZN9grpc_core8WakeableC2Ev = comdat any

$_ZNSt3mapINSt7__cxx1112basic_stringIcSt11char_traitsIcESaIcEEEN9grpc_core12experimental4JsonESt4lessIS5_ESaISt4pairIKS5_S8_EEE11lower_boundERSC_ = comdat any

$_ZSteqRKSt17_Rb_tree_iteratorISt4pairIKNSt7__cxx1112basic_stringIcSt11char_traitsIcESaIcEEEN9grpc_core12experimental4JsonEEESE_ = comdat any

$_ZNSt3mapINSt7__cxx1112basic_stringIcSt11char_traitsIcESaIcEEEN9grpc_core12experimental4JsonESt4lessIS5_ESaISt4pairIKS5_S8_EEE3endEv = comdat any

$_ZNKSt3mapINSt7__cxx1112basic_stringIcSt11char_traitsIcESaIcEEEN9grpc_core12experimental4JsonESt4lessIS5_ESaISt4pairIKS5_S8_EEE8key_compEv = comdat any

$_ZNKSt4lessINSt7__cxx1112basic_stringIcSt11char_traitsIcESaIcEEEEclERKS5_S8_ = comdat any

$_ZNKSt17_Rb_tree_iteratorISt4pairIKNSt7__cxx1112basic_stringIcSt11char_traitsIcESaIcEEEN9grpc_core12experimental4JsonEEEdeEv = comdat any

$_ZNSt8_Rb_treeINSt7__cxx1112basic_stringIcSt11char_traitsIcESaIcEEESt4pairIKS5_N9grpc_core12experimental4JsonEESt10_Select1stISB_ESt4lessIS5_ESaISB_EE22_M_emplace_hint_uniqueIJRKSt21piecewise_construct_tSt5tupleIJOS5_EESM_IJEEEEESt17_Rb_tree_iteratorISB_ESt23_Rb_tree_const_iteratorISB_EDpOT_ = comdat any

$_ZNSt23_Rb_tree_const_iteratorISt4pairIKNSt7__cxx1112basic_stringIcSt11char_traitsIcESaIcEEEN9grpc_core12experimental4JsonEEEC2ERKSt17_Rb_tree_iteratorISB_E = comdat any

$_ZSt16forward_as_tupleIJNSt7__cxx1112basic_stringIcSt11char_traitsIcESaIcEEEEESt5tupleIJDpOT_EES9_ = comdat any

$_ZNSt8_Rb_treeINSt7__cxx1112basic_stringIcSt11char_traitsIcESaIcEEESt4pairIKS5_N9grpc_core12experimental4JsonEESt10_Select1stISB_ESt4lessIS5_ESaISB_EE11lower_boundERS7_ = comdat any

$_ZNSt8_Rb_treeINSt7__cxx1112basic_stringIcSt11char_traitsIcESaIcEEESt4pairIKS5_N9grpc_core12experimental4JsonEESt10_Select1stISB_ESt4lessIS5_ESaISB_EE14_M_lower_boundEPSt13_Rb_tree_nodeISB_EPSt18_Rb_tree_node_baseRS7_ = comdat any

$_ZNSt8_Rb_treeINSt7__cxx1112basic_stringIcSt11char_traitsIcESaIcEEESt4pairIKS5_N9grpc_core12experimental4JsonEESt10_Select1stISB_ESt4lessIS5_ESaISB_EE6_S_keyEPKSt13_Rb_tree_nodeISB_E = comdat any

$_ZNSt17_Rb_tree_iteratorISt4pairIKNSt7__cxx1112basic_stringIcSt11char_traitsIcESaIcEEEN9grpc_core12experimental4JsonEEEC2EPSt18_Rb_tree_node_base = comdat any

$_ZNKSt10_Select1stISt4pairIKNSt7__cxx1112basic_stringIcSt11char_traitsIcESaIcEEEN9grpc_core12experimental4JsonEEEclERKSB_ = comdat any

$_ZNKSt13_Rb_tree_nodeISt4pairIKNSt7__cxx1112basic_stringIcSt11char_traitsIcESaIcEEEN9grpc_core12experimental4JsonEEE9_M_valptrEv = comdat any

$_ZNK9__gnu_cxx16__aligned_membufISt4pairIKNSt7__cxx1112basic_stringIcSt11char_traitsIcESaIcEEEN9grpc_core12experimental4JsonEEE6_M_ptrEv = comdat any

$_ZNK9__gnu_cxx16__aligned_membufISt4pairIKNSt7__cxx1112basic_stringIcSt11char_traitsIcESaIcEEEN9grpc_core12experimental4JsonEEE7_M_addrEv = comdat any

$_ZNSt8_Rb_treeINSt7__cxx1112basic_stringIcSt11char_traitsIcESaIcEEESt4pairIKS5_N9grpc_core12experimental4JsonEESt10_Select1stISB_ESt4lessIS5_ESaISB_EE3endEv = comdat any

$_ZNKSt8_Rb_treeINSt7__cxx1112basic_stringIcSt11char_traitsIcESaIcEEESt4pairIKS5_N9grpc_core12experimental4JsonEESt10_Select1stISB_ESt4lessIS5_ESaISB_EE8key_compEv = comdat any

$_ZStltIcSt11char_traitsIcESaIcEEbRKNSt7__cxx1112basic_stringIT_T0_T1_EESA_ = comdat any

$_ZNSt8_Rb_treeINSt7__cxx1112basic_stringIcSt11char_traitsIcESaIcEEESt4pairIKS5_N9grpc_core12experimental4JsonEESt10_Select1stISB_ESt4lessIS5_ESaISB_EE10_Auto_nodeC2IJRKSt21piecewise_construct_tSt5tupleIJOS5_EESN_IJEEEEERSH_DpOT_ = comdat any

$_ZNSt8_Rb_treeINSt7__cxx1112basic_stringIcSt11char_traitsIcESaIcEEESt4pairIKS5_N9grpc_core12experimental4JsonEESt10_Select1stISB_ESt4lessIS5_ESaISB_EE29_M_get_insert_hint_unique_posESt23_Rb_tree_const_iteratorISB_ERS7_ = comdat any

$_ZNKSt8_Rb_treeINSt7__cxx1112basic_stringIcSt11char_traitsIcESaIcEEESt4pairIKS5_N9grpc_core12experimental4JsonEESt10_Select1stISB_ESt4lessIS5_ESaISB_EE10_Auto_node6_M_keyEv = comdat any

$_ZNSt8_Rb_treeINSt7__cxx1112basic_stringIcSt11char_traitsIcESaIcEEESt4pairIKS5_N9grpc_core12experimental4JsonEESt10_Select1stISB_ESt4lessIS5_ESaISB_EE10_Auto_node9_M_insertES6_IPSt18_Rb_tree_node_baseSK_E = comdat any

$_ZNSt8_Rb_treeINSt7__cxx1112basic_stringIcSt11char_traitsIcESaIcEEESt4pairIKS5_N9grpc_core12experimental4JsonEESt10_Select1stISB_ESt4lessIS5_ESaISB_EE10_Auto_nodeD2Ev = comdat any

$_ZNSt8_Rb_treeINSt7__cxx1112basic_stringIcSt11char_traitsIcESaIcEEESt4pairIKS5_N9grpc_core12experimental4JsonEESt10_Select1stISB_ESt4lessIS5_ESaISB_EE14_M_create_nodeIJRKSt21piecewise_construct_tSt5tupleIJOS5_EESM_IJEEEEEPSt13_Rb_tree_nodeISB_EDpOT_ = comdat any

$_ZNSt8_Rb_treeINSt7__cxx1112basic_stringIcSt11char_traitsIcESaIcEEESt4pairIKS5_N9grpc_core12experimental4JsonEESt10_Select1stISB_ESt4lessIS5_ESaISB_EE17_M_construct_nodeIJRKSt21piecewise_construct_tSt5tupleIJOS5_EESM_IJEEEEEvPSt13_Rb_tree_nodeISB_EDpOT_ = comdat any

$_ZNSt16allocator_traitsISaISt13_Rb_tree_nodeISt4pairIKNSt7__cxx1112basic_stringIcSt11char_traitsIcESaIcEEEN9grpc_core12experimental4JsonEEEEE9constructISC_JRKSt21piecewise_construct_tSt5tupleIJOS7_EESK_IJEEEEEvRSE_PT_DpOT0_ = comdat any

$_ZNSt15__new_allocatorISt13_Rb_tree_nodeISt4pairIKNSt7__cxx1112basic_stringIcSt11char_traitsIcESaIcEEEN9grpc_core12experimental4JsonEEEE9constructISC_JRKSt21piecewise_construct_tSt5tupleIJOS7_EESJ_IJEEEEEvPT_DpOT0_ = comdat any

$_ZNSt5tupleIJONSt7__cxx1112basic_stringIcSt11char_traitsIcESaIcEEEEEC2EOS7_ = comdat any

$_ZNSt4pairIKNSt7__cxx1112basic_stringIcSt11char_traitsIcESaIcEEEN9grpc_core12experimental4JsonEEC2IJOS5_EJEEESt21piecewise_construct_tSt5tupleIJDpT_EESE_IJDpT0_EE = comdat any

$_ZNSt11_Tuple_implILm0EJONSt7__cxx1112basic_stringIcSt11char_traitsIcESaIcEEEEEC2EOS7_ = comdat any

$_ZNSt4pairIKNSt7__cxx1112basic_stringIcSt11char_traitsIcESaIcEEEN9grpc_core12experimental4JsonEEC2IJOS5_EJLm0EEJETpTnmJEEERSt5tupleIJDpT_EERSD_IJDpT1_EESt12_Index_tupleIJXspT0_EEESM_IJXspT2_EEE = comdat any

$_ZSt3getILm0EJONSt7__cxx1112basic_stringIcSt11char_traitsIcESaIcEEEEERNSt13tuple_elementIXT_ESt5tupleIJDpT0_EEE4typeERSB_ = comdat any

$_ZSt12__get_helperILm0EONSt7__cxx1112basic_stringIcSt11char_traitsIcESaIcEEEJEERT0_RSt11_Tuple_implIXT_EJS7_DpT1_EE = comdat any

$_ZNSt11_Tuple_implILm0EJONSt7__cxx1112basic_stringIcSt11char_traitsIcESaIcEEEEE7_M_headERS7_ = comdat any

$_ZNSt10_Head_baseILm0EONSt7__cxx1112basic_stringIcSt11char_traitsIcESaIcEEELb0EE7_M_headERS7_ = comdat any

$_ZNKSt23_Rb_tree_const_iteratorISt4pairIKNSt7__cxx1112basic_stringIcSt11char_traitsIcESaIcEEEN9grpc_core12experimental4JsonEEE13_M_const_castEv = comdat any

$_ZNKSt8_Rb_treeINSt7__cxx1112basic_stringIcSt11char_traitsIcESaIcEEESt4pairIKS5_N9grpc_core12experimental4JsonEESt10_Select1stISB_ESt4lessIS5_ESaISB_EE4sizeEv = comdat any

$_ZNSt8_Rb_treeINSt7__cxx1112basic_stringIcSt11char_traitsIcESaIcEEESt4pairIKS5_N9grpc_core12experimental4JsonEESt10_Select1stISB_ESt4lessIS5_ESaISB_EE6_S_keyEPKSt18_Rb_tree_node_base = comdat any

$_ZNSt4pairIPSt18_Rb_tree_node_baseS1_EC2IS1_S1_TnNSt9enable_ifIXaaclsr5_PCCPE18_ConstructiblePairIT_T0_EEclsr5_PCCPE26_ImplicitlyConvertiblePairIS5_S6_EEEbE4typeELb1EEERKS1_SA_ = comdat any

$_ZNSt8_Rb_treeINSt7__cxx1112basic_stringIcSt11char_traitsIcESaIcEEESt4pairIKS5_N9grpc_core12experimental4JsonEESt10_Select1stISB_ESt4lessIS5_ESaISB_EE24_M_get_insert_unique_posERS7_ = comdat any

$_ZNSt4pairIPSt18_Rb_tree_node_baseS1_EC2IRS1_S4_TnNSt9enable_ifIXaaclsr5_PCCPE22_MoveConstructiblePairIT_T0_EEclsr5_PCCPE30_ImplicitlyMoveConvertiblePairIS6_S7_EEEbE4typeELb1EEEOS6_OS7_ = comdat any

$_ZNSt17_Rb_tree_iteratorISt4pairIKNSt7__cxx1112basic_stringIcSt11char_traitsIcESaIcEEEN9grpc_core12experimental4JsonEEEmmEv = comdat any

$_ZNSt17_Rb_tree_iteratorISt4pairIKNSt7__cxx1112basic_stringIcSt11char_traitsIcESaIcEEEN9grpc_core12experimental4JsonEEEppEv = comdat any

$_ZNSt8_Rb_treeINSt7__cxx1112basic_stringIcSt11char_traitsIcESaIcEEESt4pairIKS5_N9grpc_core12experimental4JsonEESt10_Select1stISB_ESt4lessIS5_ESaISB_EE5beginEv = comdat any

$_ZNSt4pairIPSt18_Rb_tree_node_baseS1_EC2IRPSt13_Rb_tree_nodeIS_IKNSt7__cxx1112basic_stringIcSt11char_traitsIcESaIcEEEN9grpc_core12experimental4JsonEEERS1_TnNSt9enable_ifIXaaclsr5_PCCPE22_MoveConstructiblePairIT_T0_EEclsr5_PCCPE30_ImplicitlyMoveConvertiblePairISL_SM_EEEbE4typeELb1EEEOSL_OSM_ = comdat any

$_ZNSt8_Rb_treeINSt7__cxx1112basic_stringIcSt11char_traitsIcESaIcEEESt4pairIKS5_N9grpc_core12experimental4JsonEESt10_Select1stISB_ESt4lessIS5_ESaISB_EE14_M_insert_nodeEPSt18_Rb_tree_node_baseSJ_PSt13_Rb_tree_nodeISB_E = comdat any

$_ZNSt5tupleIJONSt7__cxx1112basic_stringIcSt11char_traitsIcESaIcEEEEEC2IJS5_ELb1ETnNSt9enable_ifIXclsr4_TCCIXT0_EEE29__is_implicitly_constructibleIDpT_EEEbE4typeELb1EEEDpOSA_ = comdat any

$_ZNSt11_Tuple_implILm0EJONSt7__cxx1112basic_stringIcSt11char_traitsIcESaIcEEEEEC2IS5_EEOT_ = comdat any

$_ZNSt10_Head_baseILm0EONSt7__cxx1112basic_stringIcSt11char_traitsIcESaIcEEELb0EEC2IS5_EEOT_ = comdat any

$_ZN4absl12lts_202308028StatusOrIN9grpc_core17XdsHttpFilterImpl22ServiceConfigJsonEntryEEC2IJS4_EEESt10in_place_tDpOT_ = comdat any

$_ZN4absl12lts_2023080217internal_statusor12StatusOrDataIN9grpc_core17XdsHttpFilterImpl22ServiceConfigJsonEntryEEC2IJS5_EEESt10in_place_tDpOT_ = comdat any

$_ZN9grpc_core17XdsHttpFilterImpl22ServiceConfigJsonEntryC2EOS1_ = comdat any

$_ZN4absl12lts_2023080217internal_statusor12StatusOrDataIN9grpc_core17XdsHttpFilterImpl22ServiceConfigJsonEntryEE10MakeStatusIJEEEvDpOT_ = comdat any

$_ZN4absl12lts_2023080217internal_statusor12PlacementNewINS0_6StatusEJEEEvPvDpOT0_ = comdat any

$_ZN4absl12lts_202308026StatusC2Ev = comdat any

$_ZN4absl12lts_202308026Status16CodeToInlinedRepENS0_10StatusCodeE = comdat any

$_ZSt7nullopt = comdat any

$_ZTSN9grpc_core17XdsHttpFilterImplE = comdat any

$_ZTIN9grpc_core17XdsHttpFilterImplE = comdat any

$_ZSt14in_place_indexILm0EE = comdat any

$_ZTSSt18bad_variant_access = comdat any

$_ZTISt18bad_variant_access = comdat any

$_ZTVSt18bad_variant_access = comdat any

$_ZSt8in_place = comdat any

$_ZSt14in_place_indexILm1EE = comdat any

$_ZSt14in_place_indexILm2EE = comdat any

$_ZSt14in_place_indexILm3EE = comdat any

$_ZSt14in_place_indexILm4EE = comdat any

$_ZSt14in_place_indexILm5EE = comdat any

$_ZTVN9grpc_core8WakeableE = comdat any

$_ZTSN9grpc_core8WakeableE = comdat any

$_ZTIN9grpc_core8WakeableE = comdat any

$_ZSt19piecewise_construct = comdat any

@_ZStL8__ioinit = internal global %"class.std::ios_base::Init" zeroinitializer, align 1
@__dso_handle = external hidden global i8
@.str = private unnamed_addr constant [49 x i8] c"envoy.extensions.filters.http.fault.v3.HTTPFault\00", align 1
@.str.1 = private unnamed_addr constant [1 x i8] zeroinitializer, align 1
@.str.2 = private unnamed_addr constant [46 x i8] c"could not parse fault injection filter config\00", align 1
@_ZSt7nullopt = linkonce_odr constant %"struct.std::nullopt_t" undef, comdat, align 1
@.str.3 = private unnamed_addr constant [7 x i8] c".abort\00", align 1
@.str.4 = private unnamed_addr constant [13 x i8] c".grpc_status\00", align 1
@.str.5 = private unnamed_addr constant [27 x i8] c"invalid gRPC status code: \00", align 1
@.str.6 = private unnamed_addr constant [10 x i8] c"abortCode\00", align 1
@.str.7 = private unnamed_addr constant [33 x i8] c"x-envoy-fault-abort-grpc-request\00", align 1
@.str.8 = private unnamed_addr constant [16 x i8] c"abortCodeHeader\00", align 1
@.str.9 = private unnamed_addr constant [31 x i8] c"x-envoy-fault-abort-percentage\00", align 1
@.str.10 = private unnamed_addr constant [22 x i8] c"abortPercentageHeader\00", align 1
@.str.11 = private unnamed_addr constant [25 x i8] c"abortPercentageNumerator\00", align 1
@.str.12 = private unnamed_addr constant [27 x i8] c"abortPercentageDenominator\00", align 1
@.str.13 = private unnamed_addr constant [7 x i8] c".delay\00", align 1
@.str.14 = private unnamed_addr constant [13 x i8] c".fixed_delay\00", align 1
@.str.15 = private unnamed_addr constant [6 x i8] c"delay\00", align 1
@.str.16 = private unnamed_addr constant [28 x i8] c"x-envoy-fault-delay-request\00", align 1
@.str.17 = private unnamed_addr constant [12 x i8] c"delayHeader\00", align 1
@.str.18 = private unnamed_addr constant [39 x i8] c"x-envoy-fault-delay-request-percentage\00", align 1
@.str.19 = private unnamed_addr constant [22 x i8] c"delayPercentageHeader\00", align 1
@.str.20 = private unnamed_addr constant [25 x i8] c"delayPercentageNumerator\00", align 1
@.str.21 = private unnamed_addr constant [27 x i8] c"delayPercentageDenominator\00", align 1
@.str.22 = private unnamed_addr constant [10 x i8] c"maxFaults\00", align 1
@_ZN9grpc_core20FaultInjectionFilter7kFilterE = external global %struct.grpc_channel_filter, align 8
@.str.23 = private unnamed_addr constant [50 x i8] c"grpc.internal.parse_fault_injection_method_config\00", align 1
@.str.24 = private unnamed_addr constant [21 x i8] c"faultInjectionPolicy\00", align 1
@_ZTVN9grpc_core18XdsHttpFaultFilterE = unnamed_addr constant { [15 x ptr] } { [15 x ptr] [ptr null, ptr @_ZTIN9grpc_core18XdsHttpFaultFilterE, ptr @_ZN9grpc_core18XdsHttpFaultFilterD2Ev, ptr @_ZN9grpc_core18XdsHttpFaultFilterD0Ev, ptr @_ZNK9grpc_core18XdsHttpFaultFilter15ConfigProtoNameEv, ptr @_ZNK9grpc_core18XdsHttpFaultFilter23OverrideConfigProtoNameEv, ptr @_ZNK9grpc_core18XdsHttpFaultFilter14PopulateSymtabEP11upb_DefPool, ptr @_ZNK9grpc_core18XdsHttpFaultFilter20GenerateFilterConfigERKNS_15XdsResourceType13DecodeContextENS_12XdsExtensionEPNS_16ValidationErrorsE, ptr @_ZNK9grpc_core18XdsHttpFaultFilter28GenerateFilterConfigOverrideERKNS_15XdsResourceType13DecodeContextENS_12XdsExtensionEPNS_16ValidationErrorsE, ptr @_ZNK9grpc_core18XdsHttpFaultFilter14channel_filterEv, ptr @_ZNK9grpc_core18XdsHttpFaultFilter17ModifyChannelArgsERKNS_11ChannelArgsE, ptr @_ZNK9grpc_core18XdsHttpFaultFilter21GenerateServiceConfigERKNS_17XdsHttpFilterImpl12FilterConfigEPS3_, ptr @_ZNK9grpc_core18XdsHttpFaultFilter20IsSupportedOnClientsEv, ptr @_ZNK9grpc_core18XdsHttpFaultFilter20IsSupportedOnServersEv, ptr @_ZNK9grpc_core17XdsHttpFilterImpl16IsTerminalFilterEv] }, align 8
@_ZTVN10__cxxabiv120__si_class_type_infoE = external global [0 x ptr]
@_ZTSN9grpc_core18XdsHttpFaultFilterE = constant [33 x i8] c"N9grpc_core18XdsHttpFaultFilterE\00", align 1
@_ZTVN10__cxxabiv117__class_type_infoE = external global [0 x ptr]
@_ZTSN9grpc_core17XdsHttpFilterImplE = linkonce_odr constant [32 x i8] c"N9grpc_core17XdsHttpFilterImplE\00", comdat, align 1
@_ZTIN9grpc_core17XdsHttpFilterImplE = linkonce_odr constant { ptr, ptr } { ptr getelementptr inbounds (ptr, ptr @_ZTVN10__cxxabiv117__class_type_infoE, i64 2), ptr @_ZTSN9grpc_core17XdsHttpFilterImplE }, comdat, align 8
@_ZTIN9grpc_core18XdsHttpFaultFilterE = constant { ptr, ptr, ptr } { ptr getelementptr inbounds (ptr, ptr @_ZTVN10__cxxabiv120__si_class_type_infoE, i64 2), ptr @_ZTSN9grpc_core18XdsHttpFaultFilterE, ptr @_ZTIN9grpc_core17XdsHttpFilterImplE }, align 8
@_ZN9grpc_core19NoDestructSingletonINS_14promise_detail10UnwakeableEE6value_E = linkonce_odr global %"class.grpc_core::NoDestruct" zeroinitializer, comdat, align 8
@_ZGVN9grpc_core19NoDestructSingletonINS_14promise_detail10UnwakeableEE6value_E = linkonce_odr global i64 0, comdat($_ZN9grpc_core19NoDestructSingletonINS_14promise_detail10UnwakeableEE6value_E), align 8
@envoy_extensions_filters_http_fault_v3_fault_proto_upbdefinit = external global %struct._upb_DefPool_Init, align 8
@envoy__extensions__filters__http__fault__v3__HTTPFault_msg_init = external global %struct.upb_MiniTable, align 8
@__const.envoy_extensions_filters_http_fault_v3_HTTPFault_abort.field = private unnamed_addr constant %struct.upb_MiniTableField { i32 2, i16 16, i16 2, i16 1, i8 11, i8 -62 }, align 4
@__const.envoy_extensions_filters_http_fault_v3_FaultAbort_grpc_status.field = private unnamed_addr constant %struct.upb_MiniTableField { i32 5, i16 16, i16 -5, i16 -1, i8 13, i8 66 }, align 4
@__const.envoy_extensions_filters_http_fault_v3_FaultAbort_http_status.field = private unnamed_addr constant %struct.upb_MiniTableField { i32 2, i16 16, i16 -5, i16 -1, i8 13, i8 66 }, align 4
@_ZSt14in_place_indexILm0EE = linkonce_odr constant %"struct.std::in_place_index_t" zeroinitializer, comdat, align 1
@.str.26 = private unnamed_addr constant [31 x i8] c"std::get: variant is valueless\00", align 1
@.str.27 = private unnamed_addr constant [34 x i8] c"std::get: wrong index for variant\00", align 1
@_ZTSSt18bad_variant_access = linkonce_odr constant [23 x i8] c"St18bad_variant_access\00", comdat, align 1
@_ZTISt9exception = external constant ptr
@_ZTISt18bad_variant_access = linkonce_odr constant { ptr, ptr, ptr } { ptr getelementptr inbounds (ptr, ptr @_ZTVN10__cxxabiv120__si_class_type_infoE, i64 2), ptr @_ZTSSt18bad_variant_access, ptr @_ZTISt9exception }, comdat, align 8
@_ZTVSt18bad_variant_access = linkonce_odr unnamed_addr constant { [5 x ptr] } { [5 x ptr] [ptr null, ptr @_ZTISt18bad_variant_access, ptr @_ZNSt18bad_variant_accessD2Ev, ptr @_ZNSt18bad_variant_accessD0Ev, ptr @_ZNKSt18bad_variant_access4whatEv] }, comdat, align 8
@_ZTVSt9exception = external unnamed_addr constant { [5 x ptr] }, align 8
@__const.envoy_extensions_filters_http_fault_v3_FaultAbort_has_header_abort.field = private unnamed_addr constant %struct.upb_MiniTableField { i32 4, i16 16, i16 -5, i16 1, i8 11, i8 -62 }, align 4
@__const.envoy_extensions_filters_http_fault_v3_FaultAbort_percentage.field = private unnamed_addr constant %struct.upb_MiniTableField { i32 3, i16 8, i16 1, i16 0, i8 11, i8 -62 }, align 4
@__const.envoy_type_v3_FractionalPercent_numerator.field = private unnamed_addr constant %struct.upb_MiniTableField { i32 1, i16 0, i16 0, i16 -1, i8 13, i8 66 }, align 4
@__const.envoy_type_v3_FractionalPercent_denominator.field = private unnamed_addr constant %struct.upb_MiniTableField { i32 2, i16 4, i16 0, i16 -1, i8 5, i8 82 }, align 4
@__const.envoy_extensions_filters_http_fault_v3_HTTPFault_delay.field = private unnamed_addr constant %struct.upb_MiniTableField { i32 1, i16 8, i16 1, i16 0, i8 11, i8 -62 }, align 4
@__const.envoy_extensions_filters_common_fault_v3_FaultDelay_fixed_delay.field = private unnamed_addr constant %struct.upb_MiniTableField { i32 3, i16 16, i16 -5, i16 0, i8 11, i8 -62 }, align 4
@__const.envoy_extensions_filters_common_fault_v3_FaultDelay_has_header_delay.field = private unnamed_addr constant %struct.upb_MiniTableField { i32 5, i16 16, i16 -5, i16 2, i8 11, i8 -62 }, align 4
@__const.envoy_extensions_filters_common_fault_v3_FaultDelay_percentage.field = private unnamed_addr constant %struct.upb_MiniTableField { i32 4, i16 8, i16 1, i16 1, i8 11, i8 -62 }, align 4
@__const.envoy_extensions_filters_http_fault_v3_HTTPFault_max_active_faults.field = private unnamed_addr constant %struct.upb_MiniTableField { i32 6, i16 56, i16 3, i16 3, i8 11, i8 -62 }, align 4
@__const.google_protobuf_UInt32Value_value.field = private unnamed_addr constant %struct.upb_MiniTableField { i32 1, i16 0, i16 0, i16 -1, i8 13, i8 66 }, align 4
@_ZSt8in_place = linkonce_odr constant %"struct.std::in_place_t" zeroinitializer, comdat, align 1
@_ZSt14in_place_indexILm1EE = linkonce_odr constant %"struct.std::in_place_index_t.78" zeroinitializer, comdat, align 1
@_ZSt14in_place_indexILm2EE = linkonce_odr constant %"struct.std::in_place_index_t.79" zeroinitializer, comdat, align 1
@_ZSt14in_place_indexILm3EE = linkonce_odr constant %"struct.std::in_place_index_t.80" zeroinitializer, comdat, align 1
@_ZSt14in_place_indexILm4EE = linkonce_odr constant %"struct.std::in_place_index_t.81" zeroinitializer, comdat, align 1
@_ZSt14in_place_indexILm5EE = linkonce_odr constant %"struct.std::in_place_index_t.82" zeroinitializer, comdat, align 1
@.str.28 = private unnamed_addr constant [50 x i8] c"basic_string: construction from null is not valid\00", align 1
@_ZTVN9grpc_core14promise_detail10UnwakeableE = external unnamed_addr constant { [6 x ptr] }, align 8
@_ZTVN9grpc_core8WakeableE = linkonce_odr unnamed_addr constant { [6 x ptr] } { [6 x ptr] [ptr null, ptr @_ZTIN9grpc_core8WakeableE, ptr @__cxa_pure_virtual, ptr @__cxa_pure_virtual, ptr @__cxa_pure_virtual, ptr @__cxa_pure_virtual] }, comdat, align 8
@_ZTSN9grpc_core8WakeableE = linkonce_odr constant [22 x i8] c"N9grpc_core8WakeableE\00", comdat, align 1
@_ZTIN9grpc_core8WakeableE = linkonce_odr constant { ptr, ptr } { ptr getelementptr inbounds (ptr, ptr @_ZTVN10__cxxabiv117__class_type_infoE, i64 2), ptr @_ZTSN9grpc_core8WakeableE }, comdat, align 8
@_ZSt19piecewise_construct = linkonce_odr constant %"struct.std::piecewise_construct_t" zeroinitializer, comdat, align 1
@llvm.global_ctors = appending global [2 x { i32, ptr, ptr }] [{ i32, ptr, ptr } { i32 65535, ptr @__cxx_global_var_init.25, ptr @_ZN9grpc_core19NoDestructSingletonINS_14promise_detail10UnwakeableEE6value_E }, { i32, ptr, ptr } { i32 65535, ptr @_GLOBAL__sub_I_xds_http_fault_filter.cc, ptr null }]
@llvm.used = appending global [1 x ptr] [ptr @_ZN9grpc_core19NoDestructSingletonINS_14promise_detail10UnwakeableEE6value_E], section "llvm.metadata"

; Function Attrs: uwtable
define internal void @__cxx_global_var_init() #0 section ".text.startup" {
entry:
  call void @_ZNSt8ios_base4InitC1Ev(ptr noundef nonnull align 1 dereferenceable(1) @_ZStL8__ioinit)
  %0 = call i32 @__cxa_atexit(ptr @_ZNSt8ios_base4InitD1Ev, ptr @_ZStL8__ioinit, ptr @__dso_handle) #3
  ret void
}

declare void @_ZNSt8ios_base4InitC1Ev(ptr noundef nonnull align 1 dereferenceable(1)) unnamed_addr #1

; Function Attrs: nounwind
declare void @_ZNSt8ios_base4InitD1Ev(ptr noundef nonnull align 1 dereferenceable(1)) unnamed_addr #2

; Function Attrs: nounwind
declare i32 @__cxa_atexit(ptr, ptr, ptr) #3

; Function Attrs: mustprogress nounwind uwtable
define { i64, ptr } @_ZNK9grpc_core18XdsHttpFaultFilter15ConfigProtoNameEv(ptr noundef nonnull align 8 dereferenceable(8) %this) unnamed_addr #4 align 2 {
entry:
  %retval = alloca %"class.std::basic_string_view", align 8
  %this.addr = alloca ptr, align 8
  store ptr %this, ptr %this.addr, align 8
  call void @_ZNSt17basic_string_viewIcSt11char_traitsIcEEC2EPKc(ptr noundef nonnull align 8 dereferenceable(16) %retval, ptr noundef @.str) #3
  %0 = load { i64, ptr }, ptr %retval, align 8
  ret { i64, ptr } %0
}

; Function Attrs: mustprogress nounwind uwtable
define linkonce_odr void @_ZNSt17basic_string_viewIcSt11char_traitsIcEEC2EPKc(ptr noundef nonnull align 8 dereferenceable(16) %this, ptr noundef nonnull %__str) unnamed_addr #4 comdat align 2 personality ptr @__gxx_personality_v0 {
entry:
  %this.addr = alloca ptr, align 8
  %__str.addr = alloca ptr, align 8
  store ptr %this, ptr %this.addr, align 8
  store ptr %__str, ptr %__str.addr, align 8
  %this1 = load ptr, ptr %this.addr, align 8
  %_M_len = getelementptr inbounds %"class.std::basic_string_view", ptr %this1, i32 0, i32 0
  %0 = load ptr, ptr %__str.addr, align 8
  %call = invoke noundef i64 @_ZNSt11char_traitsIcE6lengthEPKc(ptr noundef %0)
          to label %invoke.cont unwind label %terminate.lpad

invoke.cont:                                      ; preds = %entry
  store i64 %call, ptr %_M_len, align 8
  %_M_str = getelementptr inbounds %"class.std::basic_string_view", ptr %this1, i32 0, i32 1
  %1 = load ptr, ptr %__str.addr, align 8
  store ptr %1, ptr %_M_str, align 8
  ret void

terminate.lpad:                                   ; preds = %entry
  %2 = landingpad { ptr, i32 }
          catch ptr null
  %3 = extractvalue { ptr, i32 } %2, 0
  call void @__clang_call_terminate(ptr %3) #14
  unreachable
}

; Function Attrs: mustprogress nounwind uwtable
define { i64, ptr } @_ZNK9grpc_core18XdsHttpFaultFilter23OverrideConfigProtoNameEv(ptr noundef nonnull align 8 dereferenceable(8) %this) unnamed_addr #4 align 2 {
entry:
  %retval = alloca %"class.std::basic_string_view", align 8
  %this.addr = alloca ptr, align 8
  store ptr %this, ptr %this.addr, align 8
  call void @_ZNSt17basic_string_viewIcSt11char_traitsIcEEC2EPKc(ptr noundef nonnull align 8 dereferenceable(16) %retval, ptr noundef @.str.1) #3
  %0 = load { i64, ptr }, ptr %retval, align 8
  ret { i64, ptr } %0
}

; Function Attrs: mustprogress uwtable
define void @_ZNK9grpc_core18XdsHttpFaultFilter14PopulateSymtabEP11upb_DefPool(ptr noundef nonnull align 8 dereferenceable(8) %this, ptr noundef %symtab) unnamed_addr #5 align 2 {
entry:
  %this.addr = alloca ptr, align 8
  %symtab.addr = alloca ptr, align 8
  store ptr %this, ptr %this.addr, align 8
  store ptr %symtab, ptr %symtab.addr, align 8
  %0 = load ptr, ptr %symtab.addr, align 8
  %call = call ptr @envoy_extensions_filters_http_fault_v3_HTTPFault_getmsgdef(ptr noundef %0)
  ret void
}

; Function Attrs: mustprogress uwtable
define linkonce_odr ptr @envoy_extensions_filters_http_fault_v3_HTTPFault_getmsgdef(ptr noundef %s) #5 comdat {
entry:
  %s.addr = alloca ptr, align 8
  store ptr %s, ptr %s.addr, align 8
  %0 = load ptr, ptr %s.addr, align 8
  %call = call zeroext i1 @_upb_DefPool_LoadDefInit(ptr noundef %0, ptr noundef @envoy_extensions_filters_http_fault_v3_fault_proto_upbdefinit)
  %1 = load ptr, ptr %s.addr, align 8
  %call1 = call ptr @upb_DefPool_FindMessageByName(ptr noundef %1, ptr noundef @.str)
  ret ptr %call1
}

; Function Attrs: mustprogress uwtable
define void @_ZNK9grpc_core18XdsHttpFaultFilter20GenerateFilterConfigERKNS_15XdsResourceType13DecodeContextENS_12XdsExtensionEPNS_16ValidationErrorsE(ptr noalias sret(%"class.std::optional") align 8 %agg.result, ptr noundef nonnull align 8 dereferenceable(8) %this, ptr noundef nonnull align 8 dereferenceable(40) %context, ptr noundef %extension, ptr noundef %errors) unnamed_addr #5 align 2 personality ptr @__gxx_personality_v0 {
entry:
  %result.ptr = alloca ptr, align 8
  %this.addr = alloca ptr, align 8
  %context.addr = alloca ptr, align 8
  %extension.indirect_addr = alloca ptr, align 8
  %errors.addr = alloca ptr, align 8
  %serialized_filter_config = alloca ptr, align 8
  %agg.tmp = alloca %"class.std::basic_string_view", align 8
  %http_fault = alloca ptr, align 8
  %agg.tmp8 = alloca %"class.std::basic_string_view", align 8
  %fault_injection_policy_json = alloca %"class.std::map.47", align 8
  %fault_abort = alloca ptr, align 8
  %exn.slot = alloca ptr, align 8
  %ehselector.slot = alloca i32, align 4
  %field = alloca %"class.grpc_core::ValidationErrors::ScopedField", align 8
  %agg.tmp14 = alloca %"class.std::basic_string_view", align 8
  %abort_grpc_status_code = alloca i32, align 4
  %abort_grpc_status_code_raw = alloca i32, align 4
  %field24 = alloca %"class.grpc_core::ValidationErrors::ScopedField", align 8
  %agg.tmp25 = alloca %"class.std::basic_string_view", align 8
  %agg.tmp27 = alloca %"class.std::basic_string_view", align 8
  %ref.tmp = alloca %"class.std::__cxx11::basic_string", align 8
  %ref.tmp28 = alloca %"class.absl::lts_20230802::AlphaNum", align 8
  %ref.tmp31 = alloca %"class.absl::lts_20230802::AlphaNum", align 8
  %abort_http_status_code = alloca i32, align 4
  %ref.tmp47 = alloca %"class.grpc_core::experimental::Json", align 8
  %ref.tmp51 = alloca %"class.std::__cxx11::basic_string", align 8
  %ref.tmp52 = alloca %"class.std::allocator.52", align 1
  %ref.tmp65 = alloca %"class.grpc_core::experimental::Json", align 8
  %ref.tmp67 = alloca %"class.std::__cxx11::basic_string", align 8
  %ref.tmp68 = alloca %"class.std::allocator.52", align 1
  %ref.tmp78 = alloca %"class.grpc_core::experimental::Json", align 8
  %ref.tmp80 = alloca %"class.std::__cxx11::basic_string", align 8
  %ref.tmp81 = alloca %"class.std::allocator.52", align 1
  %percent = alloca ptr, align 8
  %ref.tmp96 = alloca %"class.grpc_core::experimental::Json", align 8
  %ref.tmp100 = alloca %"class.std::__cxx11::basic_string", align 8
  %ref.tmp101 = alloca %"class.std::allocator.52", align 1
  %ref.tmp111 = alloca %"class.grpc_core::experimental::Json", align 8
  %ref.tmp115 = alloca %"class.std::__cxx11::basic_string", align 8
  %ref.tmp116 = alloca %"class.std::allocator.52", align 1
  %fault_delay = alloca ptr, align 8
  %field133 = alloca %"class.grpc_core::ValidationErrors::ScopedField", align 8
  %agg.tmp134 = alloca %"class.std::basic_string_view", align 8
  %delay_duration = alloca ptr, align 8
  %field141 = alloca %"class.grpc_core::ValidationErrors::ScopedField", align 8
  %agg.tmp142 = alloca %"class.std::basic_string_view", align 8
  %duration = alloca %"class.grpc_core::Duration", align 8
  %ref.tmp147 = alloca %"class.grpc_core::experimental::Json", align 8
  %ref.tmp148 = alloca %"class.std::__cxx11::basic_string", align 8
  %ref.tmp152 = alloca %"class.std::__cxx11::basic_string", align 8
  %ref.tmp153 = alloca %"class.std::allocator.52", align 1
  %ref.tmp169 = alloca %"class.grpc_core::experimental::Json", align 8
  %ref.tmp171 = alloca %"class.std::__cxx11::basic_string", align 8
  %ref.tmp172 = alloca %"class.std::allocator.52", align 1
  %ref.tmp182 = alloca %"class.grpc_core::experimental::Json", align 8
  %ref.tmp184 = alloca %"class.std::__cxx11::basic_string", align 8
  %ref.tmp185 = alloca %"class.std::allocator.52", align 1
  %percent196 = alloca ptr, align 8
  %ref.tmp201 = alloca %"class.grpc_core::experimental::Json", align 8
  %ref.tmp205 = alloca %"class.std::__cxx11::basic_string", align 8
  %ref.tmp206 = alloca %"class.std::allocator.52", align 1
  %ref.tmp216 = alloca %"class.grpc_core::experimental::Json", align 8
  %ref.tmp220 = alloca %"class.std::__cxx11::basic_string", align 8
  %ref.tmp221 = alloca %"class.std::allocator.52", align 1
  %max_fault_wrapper = alloca ptr, align 8
  %ref.tmp238 = alloca %"class.grpc_core::experimental::Json", align 8
  %ref.tmp242 = alloca %"class.std::__cxx11::basic_string", align 8
  %ref.tmp243 = alloca %"class.std::allocator.52", align 1
  %ref.tmp254 = alloca %"struct.grpc_core::XdsHttpFilterImpl::FilterConfig", align 8
  store ptr %agg.result, ptr %result.ptr, align 8
  store ptr %this, ptr %this.addr, align 8
  store ptr %context, ptr %context.addr, align 8
  store ptr %extension, ptr %extension.indirect_addr, align 8
  store ptr %errors, ptr %errors.addr, align 8
  %this1 = load ptr, ptr %this.addr, align 8
  %value = getelementptr inbounds %"struct.grpc_core::XdsExtension", ptr %extension, i32 0, i32 1
  %call = call noundef ptr @_ZSt6get_ifISt17basic_string_viewIcSt11char_traitsIcEEJS3_N9grpc_core12experimental4JsonEEENSt11add_pointerIT_E4typeEPSt7variantIJDpT0_EE(ptr noundef %value) #3
  store ptr %call, ptr %serialized_filter_config, align 8
  %0 = load ptr, ptr %serialized_filter_config, align 8
  %cmp = icmp eq ptr %0, null
  br i1 %cmp, label %if.then, label %if.end

if.then:                                          ; preds = %entry
  %1 = load ptr, ptr %errors.addr, align 8
  call void @_ZNSt17basic_string_viewIcSt11char_traitsIcEEC2EPKc(ptr noundef nonnull align 8 dereferenceable(16) %agg.tmp, ptr noundef @.str.2) #3
  %2 = getelementptr inbounds { i64, ptr }, ptr %agg.tmp, i32 0, i32 0
  %3 = load i64, ptr %2, align 8
  %4 = getelementptr inbounds { i64, ptr }, ptr %agg.tmp, i32 0, i32 1
  %5 = load ptr, ptr %4, align 8
  call void @_ZN9grpc_core16ValidationErrors8AddErrorESt17basic_string_viewIcSt11char_traitsIcEE(ptr noundef nonnull align 8 dereferenceable(72) %1, i64 %3, ptr %5)
  call void @_ZNSt8optionalIN9grpc_core17XdsHttpFilterImpl12FilterConfigEEC2ESt9nullopt_t(ptr noundef nonnull align 8 dereferenceable(80) %agg.result) #3
  br label %return

if.end:                                           ; preds = %entry
  %6 = load ptr, ptr %serialized_filter_config, align 8
  %call3 = call noundef ptr @_ZNKSt17basic_string_viewIcSt11char_traitsIcEE4dataEv(ptr noundef nonnull align 8 dereferenceable(16) %6) #3
  %7 = load ptr, ptr %serialized_filter_config, align 8
  %call4 = call noundef i64 @_ZNKSt17basic_string_viewIcSt11char_traitsIcEE4sizeEv(ptr noundef nonnull align 8 dereferenceable(16) %7) #3
  %8 = load ptr, ptr %context.addr, align 8
  %arena = getelementptr inbounds %"struct.grpc_core::XdsResourceType::DecodeContext", ptr %8, i32 0, i32 4
  %9 = load ptr, ptr %arena, align 8
  %call5 = call ptr @envoy_extensions_filters_http_fault_v3_HTTPFault_parse(ptr noundef %call3, i64 noundef %call4, ptr noundef %9)
  store ptr %call5, ptr %http_fault, align 8
  %10 = load ptr, ptr %http_fault, align 8
  %cmp6 = icmp eq ptr %10, null
  br i1 %cmp6, label %if.then7, label %if.end10

if.then7:                                         ; preds = %if.end
  %11 = load ptr, ptr %errors.addr, align 8
  call void @_ZNSt17basic_string_viewIcSt11char_traitsIcEEC2EPKc(ptr noundef nonnull align 8 dereferenceable(16) %agg.tmp8, ptr noundef @.str.2) #3
  %12 = getelementptr inbounds { i64, ptr }, ptr %agg.tmp8, i32 0, i32 0
  %13 = load i64, ptr %12, align 8
  %14 = getelementptr inbounds { i64, ptr }, ptr %agg.tmp8, i32 0, i32 1
  %15 = load ptr, ptr %14, align 8
  call void @_ZN9grpc_core16ValidationErrors8AddErrorESt17basic_string_viewIcSt11char_traitsIcEE(ptr noundef nonnull align 8 dereferenceable(72) %11, i64 %13, ptr %15)
  call void @_ZNSt8optionalIN9grpc_core17XdsHttpFilterImpl12FilterConfigEEC2ESt9nullopt_t(ptr noundef nonnull align 8 dereferenceable(80) %agg.result) #3
  br label %return

if.end10:                                         ; preds = %if.end
  call void @_ZNSt3mapINSt7__cxx1112basic_stringIcSt11char_traitsIcESaIcEEEN9grpc_core12experimental4JsonESt4lessIS5_ESaISt4pairIKS5_S8_EEEC2Ev(ptr noundef nonnull align 8 dereferenceable(48) %fault_injection_policy_json) #3
  %16 = load ptr, ptr %http_fault, align 8
  %call11 = invoke ptr @envoy_extensions_filters_http_fault_v3_HTTPFault_abort(ptr noundef %16)
          to label %invoke.cont unwind label %lpad

invoke.cont:                                      ; preds = %if.end10
  store ptr %call11, ptr %fault_abort, align 8
  %17 = load ptr, ptr %fault_abort, align 8
  %cmp12 = icmp ne ptr %17, null
  br i1 %cmp12, label %if.then13, label %if.end128

if.then13:                                        ; preds = %invoke.cont
  %18 = load ptr, ptr %errors.addr, align 8
  call void @_ZNSt17basic_string_viewIcSt11char_traitsIcEEC2EPKc(ptr noundef nonnull align 8 dereferenceable(16) %agg.tmp14, ptr noundef @.str.3) #3
  %19 = getelementptr inbounds { i64, ptr }, ptr %agg.tmp14, i32 0, i32 0
  %20 = load i64, ptr %19, align 8
  %21 = getelementptr inbounds { i64, ptr }, ptr %agg.tmp14, i32 0, i32 1
  %22 = load ptr, ptr %21, align 8
  invoke void @_ZN9grpc_core16ValidationErrors11ScopedFieldC2EPS0_St17basic_string_viewIcSt11char_traitsIcEE(ptr noundef nonnull align 8 dereferenceable(8) %field, ptr noundef %18, i64 %20, ptr %22)
          to label %invoke.cont15 unwind label %lpad

invoke.cont15:                                    ; preds = %if.then13
  store i32 0, ptr %abort_grpc_status_code, align 4
  %23 = load ptr, ptr %fault_abort, align 8
  %call18 = invoke i32 @envoy_extensions_filters_http_fault_v3_FaultAbort_grpc_status(ptr noundef %23)
          to label %invoke.cont17 unwind label %lpad16

invoke.cont17:                                    ; preds = %invoke.cont15
  store i32 %call18, ptr %abort_grpc_status_code_raw, align 4
  %24 = load i32, ptr %abort_grpc_status_code_raw, align 4
  %cmp19 = icmp ne i32 %24, 0
  br i1 %cmp19, label %if.then20, label %if.else

if.then20:                                        ; preds = %invoke.cont17
  %25 = load i32, ptr %abort_grpc_status_code_raw, align 4
  %call22 = invoke noundef zeroext i1 @_Z25grpc_status_code_from_intiP16grpc_status_code(i32 noundef %25, ptr noundef %abort_grpc_status_code)
          to label %invoke.cont21 unwind label %lpad16

invoke.cont21:                                    ; preds = %if.then20
  br i1 %call22, label %if.end37, label %if.then23

if.then23:                                        ; preds = %invoke.cont21
  %26 = load ptr, ptr %errors.addr, align 8
  call void @_ZNSt17basic_string_viewIcSt11char_traitsIcEEC2EPKc(ptr noundef nonnull align 8 dereferenceable(16) %agg.tmp25, ptr noundef @.str.4) #3
  %27 = getelementptr inbounds { i64, ptr }, ptr %agg.tmp25, i32 0, i32 0
  %28 = load i64, ptr %27, align 8
  %29 = getelementptr inbounds { i64, ptr }, ptr %agg.tmp25, i32 0, i32 1
  %30 = load ptr, ptr %29, align 8
  invoke void @_ZN9grpc_core16ValidationErrors11ScopedFieldC2EPS0_St17basic_string_viewIcSt11char_traitsIcEE(ptr noundef nonnull align 8 dereferenceable(8) %field24, ptr noundef %26, i64 %28, ptr %30)
          to label %invoke.cont26 unwind label %lpad16

invoke.cont26:                                    ; preds = %if.then23
  %31 = load ptr, ptr %errors.addr, align 8
  invoke void @_ZN4absl12lts_202308028AlphaNumC2EPKc(ptr noundef nonnull align 8 dereferenceable(48) %ref.tmp28, ptr noundef @.str.5)
          to label %invoke.cont30 unwind label %lpad29

invoke.cont30:                                    ; preds = %invoke.cont26
  %32 = load i32, ptr %abort_grpc_status_code_raw, align 4
  invoke void @_ZN4absl12lts_202308028AlphaNumC2Ei(ptr noundef nonnull align 8 dereferenceable(48) %ref.tmp31, i32 noundef %32)
          to label %invoke.cont32 unwind label %lpad29

invoke.cont32:                                    ; preds = %invoke.cont30
  invoke void @_ZN4absl12lts_202308026StrCatB5cxx11ERKNS0_8AlphaNumES3_(ptr sret(%"class.std::__cxx11::basic_string") align 8 %ref.tmp, ptr noundef nonnull align 8 dereferenceable(48) %ref.tmp28, ptr noundef nonnull align 8 dereferenceable(48) %ref.tmp31)
          to label %invoke.cont33 unwind label %lpad29

invoke.cont33:                                    ; preds = %invoke.cont32
  %call34 = call { i64, ptr } @_ZNKSt7__cxx1112basic_stringIcSt11char_traitsIcESaIcEEcvSt17basic_string_viewIcS2_EEv(ptr noundef nonnull align 8 dereferenceable(32) %ref.tmp) #3
  %33 = getelementptr inbounds { i64, ptr }, ptr %agg.tmp27, i32 0, i32 0
  %34 = extractvalue { i64, ptr } %call34, 0
  store i64 %34, ptr %33, align 8
  %35 = getelementptr inbounds { i64, ptr }, ptr %agg.tmp27, i32 0, i32 1
  %36 = extractvalue { i64, ptr } %call34, 1
  store ptr %36, ptr %35, align 8
  %37 = getelementptr inbounds { i64, ptr }, ptr %agg.tmp27, i32 0, i32 0
  %38 = load i64, ptr %37, align 8
  %39 = getelementptr inbounds { i64, ptr }, ptr %agg.tmp27, i32 0, i32 1
  %40 = load ptr, ptr %39, align 8
  invoke void @_ZN9grpc_core16ValidationErrors8AddErrorESt17basic_string_viewIcSt11char_traitsIcEE(ptr noundef nonnull align 8 dereferenceable(72) %31, i64 %38, ptr %40)
          to label %invoke.cont36 unwind label %lpad35

invoke.cont36:                                    ; preds = %invoke.cont33
  call void @_ZNSt7__cxx1112basic_stringIcSt11char_traitsIcESaIcEED1Ev(ptr noundef nonnull align 8 dereferenceable(32) %ref.tmp) #3
  call void @_ZN9grpc_core16ValidationErrors11ScopedFieldD2Ev(ptr noundef nonnull align 8 dereferenceable(8) %field24) #3
  br label %if.end37

lpad:                                             ; preds = %invoke.cont255, %if.end253, %invoke.cont239, %if.then237, %if.end233, %if.then132, %if.end128, %if.then13, %if.end10
  %41 = landingpad { ptr, i32 }
          cleanup
  %42 = extractvalue { ptr, i32 } %41, 0
  store ptr %42, ptr %exn.slot, align 8
  %43 = extractvalue { ptr, i32 } %41, 1
  store i32 %43, ptr %ehselector.slot, align 4
  br label %ehcleanup258

lpad16:                                           ; preds = %invoke.cont112, %invoke.cont105, %invoke.cont97, %if.then95, %if.end91, %invoke.cont72, %if.then64, %invoke.cont56, %invoke.cont48, %if.end46, %if.then42, %if.else, %if.then23, %if.then20, %invoke.cont15
  %44 = landingpad { ptr, i32 }
          cleanup
  %45 = extractvalue { ptr, i32 } %44, 0
  store ptr %45, ptr %exn.slot, align 8
  %46 = extractvalue { ptr, i32 } %44, 1
  store i32 %46, ptr %ehselector.slot, align 4
  br label %ehcleanup127

lpad29:                                           ; preds = %invoke.cont32, %invoke.cont30, %invoke.cont26
  %47 = landingpad { ptr, i32 }
          cleanup
  %48 = extractvalue { ptr, i32 } %47, 0
  store ptr %48, ptr %exn.slot, align 8
  %49 = extractvalue { ptr, i32 } %47, 1
  store i32 %49, ptr %ehselector.slot, align 4
  br label %ehcleanup

lpad35:                                           ; preds = %invoke.cont33
  %50 = landingpad { ptr, i32 }
          cleanup
  %51 = extractvalue { ptr, i32 } %50, 0
  store ptr %51, ptr %exn.slot, align 8
  %52 = extractvalue { ptr, i32 } %50, 1
  store i32 %52, ptr %ehselector.slot, align 4
  call void @_ZNSt7__cxx1112basic_stringIcSt11char_traitsIcESaIcEED1Ev(ptr noundef nonnull align 8 dereferenceable(32) %ref.tmp) #3
  br label %ehcleanup

ehcleanup:                                        ; preds = %lpad35, %lpad29
  call void @_ZN9grpc_core16ValidationErrors11ScopedFieldD2Ev(ptr noundef nonnull align 8 dereferenceable(8) %field24) #3
  br label %ehcleanup127

if.end37:                                         ; preds = %invoke.cont36, %invoke.cont21
  br label %if.end46

if.else:                                          ; preds = %invoke.cont17
  %53 = load ptr, ptr %fault_abort, align 8
  %call39 = invoke i32 @envoy_extensions_filters_http_fault_v3_FaultAbort_http_status(ptr noundef %53)
          to label %invoke.cont38 unwind label %lpad16

invoke.cont38:                                    ; preds = %if.else
  store i32 %call39, ptr %abort_http_status_code, align 4
  %54 = load i32, ptr %abort_http_status_code, align 4
  %cmp40 = icmp ne i32 %54, 0
  br i1 %cmp40, label %land.lhs.true, label %if.end45

land.lhs.true:                                    ; preds = %invoke.cont38
  %55 = load i32, ptr %abort_http_status_code, align 4
  %cmp41 = icmp ne i32 %55, 200
  br i1 %cmp41, label %if.then42, label %if.end45

if.then42:                                        ; preds = %land.lhs.true
  %56 = load i32, ptr %abort_http_status_code, align 4
  %call44 = invoke noundef i32 @_Z32grpc_http2_status_to_grpc_statusi(i32 noundef %56)
          to label %invoke.cont43 unwind label %lpad16

invoke.cont43:                                    ; preds = %if.then42
  store i32 %call44, ptr %abort_grpc_status_code, align 4
  br label %if.end45

if.end45:                                         ; preds = %invoke.cont43, %land.lhs.true, %invoke.cont38
  br label %if.end46

if.end46:                                         ; preds = %if.end45, %if.end37
  %57 = load i32, ptr %abort_grpc_status_code, align 4
  %call49 = invoke noundef ptr @_Z26grpc_status_code_to_string16grpc_status_code(i32 noundef %57)
          to label %invoke.cont48 unwind label %lpad16

invoke.cont48:                                    ; preds = %if.end46
  invoke void @_ZN9grpc_core12experimental4Json10FromStringEPKc(ptr sret(%"class.grpc_core::experimental::Json") align 8 %ref.tmp47, ptr noundef %call49)
          to label %invoke.cont50 unwind label %lpad16

invoke.cont50:                                    ; preds = %invoke.cont48
  call void @_ZNSaIcEC1Ev(ptr noundef nonnull align 1 dereferenceable(1) %ref.tmp52) #3
  invoke void @_ZNSt7__cxx1112basic_stringIcSt11char_traitsIcESaIcEEC2IS3_EEPKcRKS3_(ptr noundef nonnull align 8 dereferenceable(32) %ref.tmp51, ptr noundef @.str.6, ptr noundef nonnull align 1 dereferenceable(1) %ref.tmp52)
          to label %invoke.cont54 unwind label %lpad53

invoke.cont54:                                    ; preds = %invoke.cont50
  %call57 = invoke noundef nonnull align 8 dereferenceable(56) ptr @_ZNSt3mapINSt7__cxx1112basic_stringIcSt11char_traitsIcESaIcEEEN9grpc_core12experimental4JsonESt4lessIS5_ESaISt4pairIKS5_S8_EEEixEOS5_(ptr noundef nonnull align 8 dereferenceable(48) %fault_injection_policy_json, ptr noundef nonnull align 8 dereferenceable(32) %ref.tmp51)
          to label %invoke.cont56 unwind label %lpad55

invoke.cont56:                                    ; preds = %invoke.cont54
  %call58 = call noundef nonnull align 8 dereferenceable(56) ptr @_ZN9grpc_core12experimental4JsonaSEOS1_(ptr noundef nonnull align 8 dereferenceable(56) %call57, ptr noundef nonnull align 8 dereferenceable(56) %ref.tmp47) #3
  call void @_ZNSt7__cxx1112basic_stringIcSt11char_traitsIcESaIcEED1Ev(ptr noundef nonnull align 8 dereferenceable(32) %ref.tmp51) #3
  call void @_ZNSaIcED1Ev(ptr noundef nonnull align 1 dereferenceable(1) %ref.tmp52) #3
  call void @_ZN9grpc_core12experimental4JsonD2Ev(ptr noundef nonnull align 8 dereferenceable(56) %ref.tmp47) #3
  %58 = load ptr, ptr %fault_abort, align 8
  %call63 = invoke zeroext i1 @envoy_extensions_filters_http_fault_v3_FaultAbort_has_header_abort(ptr noundef %58)
          to label %invoke.cont62 unwind label %lpad16

invoke.cont62:                                    ; preds = %invoke.cont56
  br i1 %call63, label %if.then64, label %if.end91

if.then64:                                        ; preds = %invoke.cont62
  invoke void @_ZN9grpc_core12experimental4Json10FromStringEPKc(ptr sret(%"class.grpc_core::experimental::Json") align 8 %ref.tmp65, ptr noundef @.str.7)
          to label %invoke.cont66 unwind label %lpad16

invoke.cont66:                                    ; preds = %if.then64
  call void @_ZNSaIcEC1Ev(ptr noundef nonnull align 1 dereferenceable(1) %ref.tmp68) #3
  invoke void @_ZNSt7__cxx1112basic_stringIcSt11char_traitsIcESaIcEEC2IS3_EEPKcRKS3_(ptr noundef nonnull align 8 dereferenceable(32) %ref.tmp67, ptr noundef @.str.8, ptr noundef nonnull align 1 dereferenceable(1) %ref.tmp68)
          to label %invoke.cont70 unwind label %lpad69

invoke.cont70:                                    ; preds = %invoke.cont66
  %call73 = invoke noundef nonnull align 8 dereferenceable(56) ptr @_ZNSt3mapINSt7__cxx1112basic_stringIcSt11char_traitsIcESaIcEEEN9grpc_core12experimental4JsonESt4lessIS5_ESaISt4pairIKS5_S8_EEEixEOS5_(ptr noundef nonnull align 8 dereferenceable(48) %fault_injection_policy_json, ptr noundef nonnull align 8 dereferenceable(32) %ref.tmp67)
          to label %invoke.cont72 unwind label %lpad71

invoke.cont72:                                    ; preds = %invoke.cont70
  %call74 = call noundef nonnull align 8 dereferenceable(56) ptr @_ZN9grpc_core12experimental4JsonaSEOS1_(ptr noundef nonnull align 8 dereferenceable(56) %call73, ptr noundef nonnull align 8 dereferenceable(56) %ref.tmp65) #3
  call void @_ZNSt7__cxx1112basic_stringIcSt11char_traitsIcESaIcEED1Ev(ptr noundef nonnull align 8 dereferenceable(32) %ref.tmp67) #3
  call void @_ZNSaIcED1Ev(ptr noundef nonnull align 1 dereferenceable(1) %ref.tmp68) #3
  call void @_ZN9grpc_core12experimental4JsonD2Ev(ptr noundef nonnull align 8 dereferenceable(56) %ref.tmp65) #3
  invoke void @_ZN9grpc_core12experimental4Json10FromStringEPKc(ptr sret(%"class.grpc_core::experimental::Json") align 8 %ref.tmp78, ptr noundef @.str.9)
          to label %invoke.cont79 unwind label %lpad16

invoke.cont79:                                    ; preds = %invoke.cont72
  call void @_ZNSaIcEC1Ev(ptr noundef nonnull align 1 dereferenceable(1) %ref.tmp81) #3
  invoke void @_ZNSt7__cxx1112basic_stringIcSt11char_traitsIcESaIcEEC2IS3_EEPKcRKS3_(ptr noundef nonnull align 8 dereferenceable(32) %ref.tmp80, ptr noundef @.str.10, ptr noundef nonnull align 1 dereferenceable(1) %ref.tmp81)
          to label %invoke.cont83 unwind label %lpad82

invoke.cont83:                                    ; preds = %invoke.cont79
  %call86 = invoke noundef nonnull align 8 dereferenceable(56) ptr @_ZNSt3mapINSt7__cxx1112basic_stringIcSt11char_traitsIcESaIcEEEN9grpc_core12experimental4JsonESt4lessIS5_ESaISt4pairIKS5_S8_EEEixEOS5_(ptr noundef nonnull align 8 dereferenceable(48) %fault_injection_policy_json, ptr noundef nonnull align 8 dereferenceable(32) %ref.tmp80)
          to label %invoke.cont85 unwind label %lpad84

invoke.cont85:                                    ; preds = %invoke.cont83
  %call87 = call noundef nonnull align 8 dereferenceable(56) ptr @_ZN9grpc_core12experimental4JsonaSEOS1_(ptr noundef nonnull align 8 dereferenceable(56) %call86, ptr noundef nonnull align 8 dereferenceable(56) %ref.tmp78) #3
  call void @_ZNSt7__cxx1112basic_stringIcSt11char_traitsIcESaIcEED1Ev(ptr noundef nonnull align 8 dereferenceable(32) %ref.tmp80) #3
  call void @_ZNSaIcED1Ev(ptr noundef nonnull align 1 dereferenceable(1) %ref.tmp81) #3
  call void @_ZN9grpc_core12experimental4JsonD2Ev(ptr noundef nonnull align 8 dereferenceable(56) %ref.tmp78) #3
  br label %if.end91

lpad53:                                           ; preds = %invoke.cont50
  %59 = landingpad { ptr, i32 }
          cleanup
  %60 = extractvalue { ptr, i32 } %59, 0
  store ptr %60, ptr %exn.slot, align 8
  %61 = extractvalue { ptr, i32 } %59, 1
  store i32 %61, ptr %ehselector.slot, align 4
  br label %ehcleanup60

lpad55:                                           ; preds = %invoke.cont54
  %62 = landingpad { ptr, i32 }
          cleanup
  %63 = extractvalue { ptr, i32 } %62, 0
  store ptr %63, ptr %exn.slot, align 8
  %64 = extractvalue { ptr, i32 } %62, 1
  store i32 %64, ptr %ehselector.slot, align 4
  call void @_ZNSt7__cxx1112basic_stringIcSt11char_traitsIcESaIcEED1Ev(ptr noundef nonnull align 8 dereferenceable(32) %ref.tmp51) #3
  br label %ehcleanup60

ehcleanup60:                                      ; preds = %lpad55, %lpad53
  call void @_ZNSaIcED1Ev(ptr noundef nonnull align 1 dereferenceable(1) %ref.tmp52) #3
  call void @_ZN9grpc_core12experimental4JsonD2Ev(ptr noundef nonnull align 8 dereferenceable(56) %ref.tmp47) #3
  br label %ehcleanup127

lpad69:                                           ; preds = %invoke.cont66
  %65 = landingpad { ptr, i32 }
          cleanup
  %66 = extractvalue { ptr, i32 } %65, 0
  store ptr %66, ptr %exn.slot, align 8
  %67 = extractvalue { ptr, i32 } %65, 1
  store i32 %67, ptr %ehselector.slot, align 4
  br label %ehcleanup76

lpad71:                                           ; preds = %invoke.cont70
  %68 = landingpad { ptr, i32 }
          cleanup
  %69 = extractvalue { ptr, i32 } %68, 0
  store ptr %69, ptr %exn.slot, align 8
  %70 = extractvalue { ptr, i32 } %68, 1
  store i32 %70, ptr %ehselector.slot, align 4
  call void @_ZNSt7__cxx1112basic_stringIcSt11char_traitsIcESaIcEED1Ev(ptr noundef nonnull align 8 dereferenceable(32) %ref.tmp67) #3
  br label %ehcleanup76

ehcleanup76:                                      ; preds = %lpad71, %lpad69
  call void @_ZNSaIcED1Ev(ptr noundef nonnull align 1 dereferenceable(1) %ref.tmp68) #3
  call void @_ZN9grpc_core12experimental4JsonD2Ev(ptr noundef nonnull align 8 dereferenceable(56) %ref.tmp65) #3
  br label %ehcleanup127

lpad82:                                           ; preds = %invoke.cont79
  %71 = landingpad { ptr, i32 }
          cleanup
  %72 = extractvalue { ptr, i32 } %71, 0
  store ptr %72, ptr %exn.slot, align 8
  %73 = extractvalue { ptr, i32 } %71, 1
  store i32 %73, ptr %ehselector.slot, align 4
  br label %ehcleanup89

lpad84:                                           ; preds = %invoke.cont83
  %74 = landingpad { ptr, i32 }
          cleanup
  %75 = extractvalue { ptr, i32 } %74, 0
  store ptr %75, ptr %exn.slot, align 8
  %76 = extractvalue { ptr, i32 } %74, 1
  store i32 %76, ptr %ehselector.slot, align 4
  call void @_ZNSt7__cxx1112basic_stringIcSt11char_traitsIcESaIcEED1Ev(ptr noundef nonnull align 8 dereferenceable(32) %ref.tmp80) #3
  br label %ehcleanup89

ehcleanup89:                                      ; preds = %lpad84, %lpad82
  call void @_ZNSaIcED1Ev(ptr noundef nonnull align 1 dereferenceable(1) %ref.tmp81) #3
  call void @_ZN9grpc_core12experimental4JsonD2Ev(ptr noundef nonnull align 8 dereferenceable(56) %ref.tmp78) #3
  br label %ehcleanup127

if.end91:                                         ; preds = %invoke.cont85, %invoke.cont62
  %77 = load ptr, ptr %fault_abort, align 8
  %call93 = invoke ptr @envoy_extensions_filters_http_fault_v3_FaultAbort_percentage(ptr noundef %77)
          to label %invoke.cont92 unwind label %lpad16

invoke.cont92:                                    ; preds = %if.end91
  store ptr %call93, ptr %percent, align 8
  %78 = load ptr, ptr %percent, align 8
  %cmp94 = icmp ne ptr %78, null
  br i1 %cmp94, label %if.then95, label %if.end126

if.then95:                                        ; preds = %invoke.cont92
  %79 = load ptr, ptr %percent, align 8
  %call98 = invoke i32 @envoy_type_v3_FractionalPercent_numerator(ptr noundef %79)
          to label %invoke.cont97 unwind label %lpad16

invoke.cont97:                                    ; preds = %if.then95
  invoke void @_ZN9grpc_core12experimental4Json10FromNumberEj(ptr sret(%"class.grpc_core::experimental::Json") align 8 %ref.tmp96, i32 noundef %call98)
          to label %invoke.cont99 unwind label %lpad16

invoke.cont99:                                    ; preds = %invoke.cont97
  call void @_ZNSaIcEC1Ev(ptr noundef nonnull align 1 dereferenceable(1) %ref.tmp101) #3
  invoke void @_ZNSt7__cxx1112basic_stringIcSt11char_traitsIcESaIcEEC2IS3_EEPKcRKS3_(ptr noundef nonnull align 8 dereferenceable(32) %ref.tmp100, ptr noundef @.str.11, ptr noundef nonnull align 1 dereferenceable(1) %ref.tmp101)
          to label %invoke.cont103 unwind label %lpad102

invoke.cont103:                                   ; preds = %invoke.cont99
  %call106 = invoke noundef nonnull align 8 dereferenceable(56) ptr @_ZNSt3mapINSt7__cxx1112basic_stringIcSt11char_traitsIcESaIcEEEN9grpc_core12experimental4JsonESt4lessIS5_ESaISt4pairIKS5_S8_EEEixEOS5_(ptr noundef nonnull align 8 dereferenceable(48) %fault_injection_policy_json, ptr noundef nonnull align 8 dereferenceable(32) %ref.tmp100)
          to label %invoke.cont105 unwind label %lpad104

invoke.cont105:                                   ; preds = %invoke.cont103
  %call107 = call noundef nonnull align 8 dereferenceable(56) ptr @_ZN9grpc_core12experimental4JsonaSEOS1_(ptr noundef nonnull align 8 dereferenceable(56) %call106, ptr noundef nonnull align 8 dereferenceable(56) %ref.tmp96) #3
  call void @_ZNSt7__cxx1112basic_stringIcSt11char_traitsIcESaIcEED1Ev(ptr noundef nonnull align 8 dereferenceable(32) %ref.tmp100) #3
  call void @_ZNSaIcED1Ev(ptr noundef nonnull align 1 dereferenceable(1) %ref.tmp101) #3
  call void @_ZN9grpc_core12experimental4JsonD2Ev(ptr noundef nonnull align 8 dereferenceable(56) %ref.tmp96) #3
  %80 = load ptr, ptr %percent, align 8
  %call113 = invoke noundef i32 @_ZN9grpc_core12_GLOBAL__N_114GetDenominatorEPK31envoy_type_v3_FractionalPercent(ptr noundef %80)
          to label %invoke.cont112 unwind label %lpad16

invoke.cont112:                                   ; preds = %invoke.cont105
  invoke void @_ZN9grpc_core12experimental4Json10FromNumberEj(ptr sret(%"class.grpc_core::experimental::Json") align 8 %ref.tmp111, i32 noundef %call113)
          to label %invoke.cont114 unwind label %lpad16

invoke.cont114:                                   ; preds = %invoke.cont112
  call void @_ZNSaIcEC1Ev(ptr noundef nonnull align 1 dereferenceable(1) %ref.tmp116) #3
  invoke void @_ZNSt7__cxx1112basic_stringIcSt11char_traitsIcESaIcEEC2IS3_EEPKcRKS3_(ptr noundef nonnull align 8 dereferenceable(32) %ref.tmp115, ptr noundef @.str.12, ptr noundef nonnull align 1 dereferenceable(1) %ref.tmp116)
          to label %invoke.cont118 unwind label %lpad117

invoke.cont118:                                   ; preds = %invoke.cont114
  %call121 = invoke noundef nonnull align 8 dereferenceable(56) ptr @_ZNSt3mapINSt7__cxx1112basic_stringIcSt11char_traitsIcESaIcEEEN9grpc_core12experimental4JsonESt4lessIS5_ESaISt4pairIKS5_S8_EEEixEOS5_(ptr noundef nonnull align 8 dereferenceable(48) %fault_injection_policy_json, ptr noundef nonnull align 8 dereferenceable(32) %ref.tmp115)
          to label %invoke.cont120 unwind label %lpad119

invoke.cont120:                                   ; preds = %invoke.cont118
  %call122 = call noundef nonnull align 8 dereferenceable(56) ptr @_ZN9grpc_core12experimental4JsonaSEOS1_(ptr noundef nonnull align 8 dereferenceable(56) %call121, ptr noundef nonnull align 8 dereferenceable(56) %ref.tmp111) #3
  call void @_ZNSt7__cxx1112basic_stringIcSt11char_traitsIcESaIcEED1Ev(ptr noundef nonnull align 8 dereferenceable(32) %ref.tmp115) #3
  call void @_ZNSaIcED1Ev(ptr noundef nonnull align 1 dereferenceable(1) %ref.tmp116) #3
  call void @_ZN9grpc_core12experimental4JsonD2Ev(ptr noundef nonnull align 8 dereferenceable(56) %ref.tmp111) #3
  br label %if.end126

lpad102:                                          ; preds = %invoke.cont99
  %81 = landingpad { ptr, i32 }
          cleanup
  %82 = extractvalue { ptr, i32 } %81, 0
  store ptr %82, ptr %exn.slot, align 8
  %83 = extractvalue { ptr, i32 } %81, 1
  store i32 %83, ptr %ehselector.slot, align 4
  br label %ehcleanup109

lpad104:                                          ; preds = %invoke.cont103
  %84 = landingpad { ptr, i32 }
          cleanup
  %85 = extractvalue { ptr, i32 } %84, 0
  store ptr %85, ptr %exn.slot, align 8
  %86 = extractvalue { ptr, i32 } %84, 1
  store i32 %86, ptr %ehselector.slot, align 4
  call void @_ZNSt7__cxx1112basic_stringIcSt11char_traitsIcESaIcEED1Ev(ptr noundef nonnull align 8 dereferenceable(32) %ref.tmp100) #3
  br label %ehcleanup109

ehcleanup109:                                     ; preds = %lpad104, %lpad102
  call void @_ZNSaIcED1Ev(ptr noundef nonnull align 1 dereferenceable(1) %ref.tmp101) #3
  call void @_ZN9grpc_core12experimental4JsonD2Ev(ptr noundef nonnull align 8 dereferenceable(56) %ref.tmp96) #3
  br label %ehcleanup127

lpad117:                                          ; preds = %invoke.cont114
  %87 = landingpad { ptr, i32 }
          cleanup
  %88 = extractvalue { ptr, i32 } %87, 0
  store ptr %88, ptr %exn.slot, align 8
  %89 = extractvalue { ptr, i32 } %87, 1
  store i32 %89, ptr %ehselector.slot, align 4
  br label %ehcleanup124

lpad119:                                          ; preds = %invoke.cont118
  %90 = landingpad { ptr, i32 }
          cleanup
  %91 = extractvalue { ptr, i32 } %90, 0
  store ptr %91, ptr %exn.slot, align 8
  %92 = extractvalue { ptr, i32 } %90, 1
  store i32 %92, ptr %ehselector.slot, align 4
  call void @_ZNSt7__cxx1112basic_stringIcSt11char_traitsIcESaIcEED1Ev(ptr noundef nonnull align 8 dereferenceable(32) %ref.tmp115) #3
  br label %ehcleanup124

ehcleanup124:                                     ; preds = %lpad119, %lpad117
  call void @_ZNSaIcED1Ev(ptr noundef nonnull align 1 dereferenceable(1) %ref.tmp116) #3
  call void @_ZN9grpc_core12experimental4JsonD2Ev(ptr noundef nonnull align 8 dereferenceable(56) %ref.tmp111) #3
  br label %ehcleanup127

if.end126:                                        ; preds = %invoke.cont120, %invoke.cont92
  call void @_ZN9grpc_core16ValidationErrors11ScopedFieldD2Ev(ptr noundef nonnull align 8 dereferenceable(8) %field) #3
  br label %if.end128

ehcleanup127:                                     ; preds = %ehcleanup124, %ehcleanup109, %ehcleanup89, %ehcleanup76, %ehcleanup60, %ehcleanup, %lpad16
  call void @_ZN9grpc_core16ValidationErrors11ScopedFieldD2Ev(ptr noundef nonnull align 8 dereferenceable(8) %field) #3
  br label %ehcleanup258

if.end128:                                        ; preds = %if.end126, %invoke.cont
  %93 = load ptr, ptr %http_fault, align 8
  %call130 = invoke ptr @envoy_extensions_filters_http_fault_v3_HTTPFault_delay(ptr noundef %93)
          to label %invoke.cont129 unwind label %lpad

invoke.cont129:                                   ; preds = %if.end128
  store ptr %call130, ptr %fault_delay, align 8
  %94 = load ptr, ptr %fault_delay, align 8
  %cmp131 = icmp ne ptr %94, null
  br i1 %cmp131, label %if.then132, label %if.end233

if.then132:                                       ; preds = %invoke.cont129
  %95 = load ptr, ptr %errors.addr, align 8
  call void @_ZNSt17basic_string_viewIcSt11char_traitsIcEEC2EPKc(ptr noundef nonnull align 8 dereferenceable(16) %agg.tmp134, ptr noundef @.str.13) #3
  %96 = getelementptr inbounds { i64, ptr }, ptr %agg.tmp134, i32 0, i32 0
  %97 = load i64, ptr %96, align 8
  %98 = getelementptr inbounds { i64, ptr }, ptr %agg.tmp134, i32 0, i32 1
  %99 = load ptr, ptr %98, align 8
  invoke void @_ZN9grpc_core16ValidationErrors11ScopedFieldC2EPS0_St17basic_string_viewIcSt11char_traitsIcEE(ptr noundef nonnull align 8 dereferenceable(8) %field133, ptr noundef %95, i64 %97, ptr %99)
          to label %invoke.cont135 unwind label %lpad

invoke.cont135:                                   ; preds = %if.then132
  %100 = load ptr, ptr %fault_delay, align 8
  %call138 = invoke ptr @envoy_extensions_filters_common_fault_v3_FaultDelay_fixed_delay(ptr noundef %100)
          to label %invoke.cont137 unwind label %lpad136

invoke.cont137:                                   ; preds = %invoke.cont135
  store ptr %call138, ptr %delay_duration, align 8
  %101 = load ptr, ptr %delay_duration, align 8
  %cmp139 = icmp ne ptr %101, null
  br i1 %cmp139, label %if.then140, label %if.end165

if.then140:                                       ; preds = %invoke.cont137
  %102 = load ptr, ptr %errors.addr, align 8
  call void @_ZNSt17basic_string_viewIcSt11char_traitsIcEEC2EPKc(ptr noundef nonnull align 8 dereferenceable(16) %agg.tmp142, ptr noundef @.str.14) #3
  %103 = getelementptr inbounds { i64, ptr }, ptr %agg.tmp142, i32 0, i32 0
  %104 = load i64, ptr %103, align 8
  %105 = getelementptr inbounds { i64, ptr }, ptr %agg.tmp142, i32 0, i32 1
  %106 = load ptr, ptr %105, align 8
  invoke void @_ZN9grpc_core16ValidationErrors11ScopedFieldC2EPS0_St17basic_string_viewIcSt11char_traitsIcEE(ptr noundef nonnull align 8 dereferenceable(8) %field141, ptr noundef %102, i64 %104, ptr %106)
          to label %invoke.cont143 unwind label %lpad136

invoke.cont143:                                   ; preds = %if.then140
  %107 = load ptr, ptr %delay_duration, align 8
  %108 = load ptr, ptr %errors.addr, align 8
  %call146 = invoke i64 @_ZN9grpc_core13ParseDurationEPK24google_protobuf_DurationPNS_16ValidationErrorsE(ptr noundef %107, ptr noundef %108)
          to label %invoke.cont145 unwind label %lpad144

invoke.cont145:                                   ; preds = %invoke.cont143
  %coerce.dive = getelementptr inbounds %"class.grpc_core::Duration", ptr %duration, i32 0, i32 0
  store i64 %call146, ptr %coerce.dive, align 8
  invoke void @_ZNK9grpc_core8Duration12ToJsonStringB5cxx11Ev(ptr sret(%"class.std::__cxx11::basic_string") align 8 %ref.tmp148, ptr noundef nonnull align 8 dereferenceable(8) %duration)
          to label %invoke.cont149 unwind label %lpad144

invoke.cont149:                                   ; preds = %invoke.cont145
  invoke void @_ZN9grpc_core12experimental4Json10FromStringEONSt7__cxx1112basic_stringIcSt11char_traitsIcESaIcEEE(ptr sret(%"class.grpc_core::experimental::Json") align 8 %ref.tmp147, ptr noundef nonnull align 8 dereferenceable(32) %ref.tmp148)
          to label %invoke.cont151 unwind label %lpad150

invoke.cont151:                                   ; preds = %invoke.cont149
  call void @_ZNSaIcEC1Ev(ptr noundef nonnull align 1 dereferenceable(1) %ref.tmp153) #3
  invoke void @_ZNSt7__cxx1112basic_stringIcSt11char_traitsIcESaIcEEC2IS3_EEPKcRKS3_(ptr noundef nonnull align 8 dereferenceable(32) %ref.tmp152, ptr noundef @.str.15, ptr noundef nonnull align 1 dereferenceable(1) %ref.tmp153)
          to label %invoke.cont155 unwind label %lpad154

invoke.cont155:                                   ; preds = %invoke.cont151
  %call158 = invoke noundef nonnull align 8 dereferenceable(56) ptr @_ZNSt3mapINSt7__cxx1112basic_stringIcSt11char_traitsIcESaIcEEEN9grpc_core12experimental4JsonESt4lessIS5_ESaISt4pairIKS5_S8_EEEixEOS5_(ptr noundef nonnull align 8 dereferenceable(48) %fault_injection_policy_json, ptr noundef nonnull align 8 dereferenceable(32) %ref.tmp152)
          to label %invoke.cont157 unwind label %lpad156

invoke.cont157:                                   ; preds = %invoke.cont155
  %call159 = call noundef nonnull align 8 dereferenceable(56) ptr @_ZN9grpc_core12experimental4JsonaSEOS1_(ptr noundef nonnull align 8 dereferenceable(56) %call158, ptr noundef nonnull align 8 dereferenceable(56) %ref.tmp147) #3
  call void @_ZNSt7__cxx1112basic_stringIcSt11char_traitsIcESaIcEED1Ev(ptr noundef nonnull align 8 dereferenceable(32) %ref.tmp152) #3
  call void @_ZNSaIcED1Ev(ptr noundef nonnull align 1 dereferenceable(1) %ref.tmp153) #3
  call void @_ZN9grpc_core12experimental4JsonD2Ev(ptr noundef nonnull align 8 dereferenceable(56) %ref.tmp147) #3
  call void @_ZNSt7__cxx1112basic_stringIcSt11char_traitsIcESaIcEED1Ev(ptr noundef nonnull align 8 dereferenceable(32) %ref.tmp148) #3
  call void @_ZN9grpc_core16ValidationErrors11ScopedFieldD2Ev(ptr noundef nonnull align 8 dereferenceable(8) %field141) #3
  br label %if.end165

lpad136:                                          ; preds = %invoke.cont217, %invoke.cont210, %invoke.cont202, %if.then200, %if.end195, %invoke.cont176, %if.then168, %if.end165, %if.then140, %invoke.cont135
  %109 = landingpad { ptr, i32 }
          cleanup
  %110 = extractvalue { ptr, i32 } %109, 0
  store ptr %110, ptr %exn.slot, align 8
  %111 = extractvalue { ptr, i32 } %109, 1
  store i32 %111, ptr %ehselector.slot, align 4
  br label %ehcleanup232

lpad144:                                          ; preds = %invoke.cont145, %invoke.cont143
  %112 = landingpad { ptr, i32 }
          cleanup
  %113 = extractvalue { ptr, i32 } %112, 0
  store ptr %113, ptr %exn.slot, align 8
  %114 = extractvalue { ptr, i32 } %112, 1
  store i32 %114, ptr %ehselector.slot, align 4
  br label %ehcleanup164

lpad150:                                          ; preds = %invoke.cont149
  %115 = landingpad { ptr, i32 }
          cleanup
  %116 = extractvalue { ptr, i32 } %115, 0
  store ptr %116, ptr %exn.slot, align 8
  %117 = extractvalue { ptr, i32 } %115, 1
  store i32 %117, ptr %ehselector.slot, align 4
  br label %ehcleanup163

lpad154:                                          ; preds = %invoke.cont151
  %118 = landingpad { ptr, i32 }
          cleanup
  %119 = extractvalue { ptr, i32 } %118, 0
  store ptr %119, ptr %exn.slot, align 8
  %120 = extractvalue { ptr, i32 } %118, 1
  store i32 %120, ptr %ehselector.slot, align 4
  br label %ehcleanup161

lpad156:                                          ; preds = %invoke.cont155
  %121 = landingpad { ptr, i32 }
          cleanup
  %122 = extractvalue { ptr, i32 } %121, 0
  store ptr %122, ptr %exn.slot, align 8
  %123 = extractvalue { ptr, i32 } %121, 1
  store i32 %123, ptr %ehselector.slot, align 4
  call void @_ZNSt7__cxx1112basic_stringIcSt11char_traitsIcESaIcEED1Ev(ptr noundef nonnull align 8 dereferenceable(32) %ref.tmp152) #3
  br label %ehcleanup161

ehcleanup161:                                     ; preds = %lpad156, %lpad154
  call void @_ZNSaIcED1Ev(ptr noundef nonnull align 1 dereferenceable(1) %ref.tmp153) #3
  call void @_ZN9grpc_core12experimental4JsonD2Ev(ptr noundef nonnull align 8 dereferenceable(56) %ref.tmp147) #3
  br label %ehcleanup163

ehcleanup163:                                     ; preds = %ehcleanup161, %lpad150
  call void @_ZNSt7__cxx1112basic_stringIcSt11char_traitsIcESaIcEED1Ev(ptr noundef nonnull align 8 dereferenceable(32) %ref.tmp148) #3
  br label %ehcleanup164

ehcleanup164:                                     ; preds = %ehcleanup163, %lpad144
  call void @_ZN9grpc_core16ValidationErrors11ScopedFieldD2Ev(ptr noundef nonnull align 8 dereferenceable(8) %field141) #3
  br label %ehcleanup232

if.end165:                                        ; preds = %invoke.cont157, %invoke.cont137
  %124 = load ptr, ptr %fault_delay, align 8
  %call167 = invoke zeroext i1 @envoy_extensions_filters_common_fault_v3_FaultDelay_has_header_delay(ptr noundef %124)
          to label %invoke.cont166 unwind label %lpad136

invoke.cont166:                                   ; preds = %if.end165
  br i1 %call167, label %if.then168, label %if.end195

if.then168:                                       ; preds = %invoke.cont166
  invoke void @_ZN9grpc_core12experimental4Json10FromStringEPKc(ptr sret(%"class.grpc_core::experimental::Json") align 8 %ref.tmp169, ptr noundef @.str.16)
          to label %invoke.cont170 unwind label %lpad136

invoke.cont170:                                   ; preds = %if.then168
  call void @_ZNSaIcEC1Ev(ptr noundef nonnull align 1 dereferenceable(1) %ref.tmp172) #3
  invoke void @_ZNSt7__cxx1112basic_stringIcSt11char_traitsIcESaIcEEC2IS3_EEPKcRKS3_(ptr noundef nonnull align 8 dereferenceable(32) %ref.tmp171, ptr noundef @.str.17, ptr noundef nonnull align 1 dereferenceable(1) %ref.tmp172)
          to label %invoke.cont174 unwind label %lpad173

invoke.cont174:                                   ; preds = %invoke.cont170
  %call177 = invoke noundef nonnull align 8 dereferenceable(56) ptr @_ZNSt3mapINSt7__cxx1112basic_stringIcSt11char_traitsIcESaIcEEEN9grpc_core12experimental4JsonESt4lessIS5_ESaISt4pairIKS5_S8_EEEixEOS5_(ptr noundef nonnull align 8 dereferenceable(48) %fault_injection_policy_json, ptr noundef nonnull align 8 dereferenceable(32) %ref.tmp171)
          to label %invoke.cont176 unwind label %lpad175

invoke.cont176:                                   ; preds = %invoke.cont174
  %call178 = call noundef nonnull align 8 dereferenceable(56) ptr @_ZN9grpc_core12experimental4JsonaSEOS1_(ptr noundef nonnull align 8 dereferenceable(56) %call177, ptr noundef nonnull align 8 dereferenceable(56) %ref.tmp169) #3
  call void @_ZNSt7__cxx1112basic_stringIcSt11char_traitsIcESaIcEED1Ev(ptr noundef nonnull align 8 dereferenceable(32) %ref.tmp171) #3
  call void @_ZNSaIcED1Ev(ptr noundef nonnull align 1 dereferenceable(1) %ref.tmp172) #3
  call void @_ZN9grpc_core12experimental4JsonD2Ev(ptr noundef nonnull align 8 dereferenceable(56) %ref.tmp169) #3
  invoke void @_ZN9grpc_core12experimental4Json10FromStringEPKc(ptr sret(%"class.grpc_core::experimental::Json") align 8 %ref.tmp182, ptr noundef @.str.18)
          to label %invoke.cont183 unwind label %lpad136

invoke.cont183:                                   ; preds = %invoke.cont176
  call void @_ZNSaIcEC1Ev(ptr noundef nonnull align 1 dereferenceable(1) %ref.tmp185) #3
  invoke void @_ZNSt7__cxx1112basic_stringIcSt11char_traitsIcESaIcEEC2IS3_EEPKcRKS3_(ptr noundef nonnull align 8 dereferenceable(32) %ref.tmp184, ptr noundef @.str.19, ptr noundef nonnull align 1 dereferenceable(1) %ref.tmp185)
          to label %invoke.cont187 unwind label %lpad186

invoke.cont187:                                   ; preds = %invoke.cont183
  %call190 = invoke noundef nonnull align 8 dereferenceable(56) ptr @_ZNSt3mapINSt7__cxx1112basic_stringIcSt11char_traitsIcESaIcEEEN9grpc_core12experimental4JsonESt4lessIS5_ESaISt4pairIKS5_S8_EEEixEOS5_(ptr noundef nonnull align 8 dereferenceable(48) %fault_injection_policy_json, ptr noundef nonnull align 8 dereferenceable(32) %ref.tmp184)
          to label %invoke.cont189 unwind label %lpad188

invoke.cont189:                                   ; preds = %invoke.cont187
  %call191 = call noundef nonnull align 8 dereferenceable(56) ptr @_ZN9grpc_core12experimental4JsonaSEOS1_(ptr noundef nonnull align 8 dereferenceable(56) %call190, ptr noundef nonnull align 8 dereferenceable(56) %ref.tmp182) #3
  call void @_ZNSt7__cxx1112basic_stringIcSt11char_traitsIcESaIcEED1Ev(ptr noundef nonnull align 8 dereferenceable(32) %ref.tmp184) #3
  call void @_ZNSaIcED1Ev(ptr noundef nonnull align 1 dereferenceable(1) %ref.tmp185) #3
  call void @_ZN9grpc_core12experimental4JsonD2Ev(ptr noundef nonnull align 8 dereferenceable(56) %ref.tmp182) #3
  br label %if.end195

lpad173:                                          ; preds = %invoke.cont170
  %125 = landingpad { ptr, i32 }
          cleanup
  %126 = extractvalue { ptr, i32 } %125, 0
  store ptr %126, ptr %exn.slot, align 8
  %127 = extractvalue { ptr, i32 } %125, 1
  store i32 %127, ptr %ehselector.slot, align 4
  br label %ehcleanup180

lpad175:                                          ; preds = %invoke.cont174
  %128 = landingpad { ptr, i32 }
          cleanup
  %129 = extractvalue { ptr, i32 } %128, 0
  store ptr %129, ptr %exn.slot, align 8
  %130 = extractvalue { ptr, i32 } %128, 1
  store i32 %130, ptr %ehselector.slot, align 4
  call void @_ZNSt7__cxx1112basic_stringIcSt11char_traitsIcESaIcEED1Ev(ptr noundef nonnull align 8 dereferenceable(32) %ref.tmp171) #3
  br label %ehcleanup180

ehcleanup180:                                     ; preds = %lpad175, %lpad173
  call void @_ZNSaIcED1Ev(ptr noundef nonnull align 1 dereferenceable(1) %ref.tmp172) #3
  call void @_ZN9grpc_core12experimental4JsonD2Ev(ptr noundef nonnull align 8 dereferenceable(56) %ref.tmp169) #3
  br label %ehcleanup232

lpad186:                                          ; preds = %invoke.cont183
  %131 = landingpad { ptr, i32 }
          cleanup
  %132 = extractvalue { ptr, i32 } %131, 0
  store ptr %132, ptr %exn.slot, align 8
  %133 = extractvalue { ptr, i32 } %131, 1
  store i32 %133, ptr %ehselector.slot, align 4
  br label %ehcleanup193

lpad188:                                          ; preds = %invoke.cont187
  %134 = landingpad { ptr, i32 }
          cleanup
  %135 = extractvalue { ptr, i32 } %134, 0
  store ptr %135, ptr %exn.slot, align 8
  %136 = extractvalue { ptr, i32 } %134, 1
  store i32 %136, ptr %ehselector.slot, align 4
  call void @_ZNSt7__cxx1112basic_stringIcSt11char_traitsIcESaIcEED1Ev(ptr noundef nonnull align 8 dereferenceable(32) %ref.tmp184) #3
  br label %ehcleanup193

ehcleanup193:                                     ; preds = %lpad188, %lpad186
  call void @_ZNSaIcED1Ev(ptr noundef nonnull align 1 dereferenceable(1) %ref.tmp185) #3
  call void @_ZN9grpc_core12experimental4JsonD2Ev(ptr noundef nonnull align 8 dereferenceable(56) %ref.tmp182) #3
  br label %ehcleanup232

if.end195:                                        ; preds = %invoke.cont189, %invoke.cont166
  %137 = load ptr, ptr %fault_delay, align 8
  %call198 = invoke ptr @envoy_extensions_filters_common_fault_v3_FaultDelay_percentage(ptr noundef %137)
          to label %invoke.cont197 unwind label %lpad136

invoke.cont197:                                   ; preds = %if.end195
  store ptr %call198, ptr %percent196, align 8
  %138 = load ptr, ptr %percent196, align 8
  %cmp199 = icmp ne ptr %138, null
  br i1 %cmp199, label %if.then200, label %if.end231

if.then200:                                       ; preds = %invoke.cont197
  %139 = load ptr, ptr %percent196, align 8
  %call203 = invoke i32 @envoy_type_v3_FractionalPercent_numerator(ptr noundef %139)
          to label %invoke.cont202 unwind label %lpad136

invoke.cont202:                                   ; preds = %if.then200
  invoke void @_ZN9grpc_core12experimental4Json10FromNumberEj(ptr sret(%"class.grpc_core::experimental::Json") align 8 %ref.tmp201, i32 noundef %call203)
          to label %invoke.cont204 unwind label %lpad136

invoke.cont204:                                   ; preds = %invoke.cont202
  call void @_ZNSaIcEC1Ev(ptr noundef nonnull align 1 dereferenceable(1) %ref.tmp206) #3
  invoke void @_ZNSt7__cxx1112basic_stringIcSt11char_traitsIcESaIcEEC2IS3_EEPKcRKS3_(ptr noundef nonnull align 8 dereferenceable(32) %ref.tmp205, ptr noundef @.str.20, ptr noundef nonnull align 1 dereferenceable(1) %ref.tmp206)
          to label %invoke.cont208 unwind label %lpad207

invoke.cont208:                                   ; preds = %invoke.cont204
  %call211 = invoke noundef nonnull align 8 dereferenceable(56) ptr @_ZNSt3mapINSt7__cxx1112basic_stringIcSt11char_traitsIcESaIcEEEN9grpc_core12experimental4JsonESt4lessIS5_ESaISt4pairIKS5_S8_EEEixEOS5_(ptr noundef nonnull align 8 dereferenceable(48) %fault_injection_policy_json, ptr noundef nonnull align 8 dereferenceable(32) %ref.tmp205)
          to label %invoke.cont210 unwind label %lpad209

invoke.cont210:                                   ; preds = %invoke.cont208
  %call212 = call noundef nonnull align 8 dereferenceable(56) ptr @_ZN9grpc_core12experimental4JsonaSEOS1_(ptr noundef nonnull align 8 dereferenceable(56) %call211, ptr noundef nonnull align 8 dereferenceable(56) %ref.tmp201) #3
  call void @_ZNSt7__cxx1112basic_stringIcSt11char_traitsIcESaIcEED1Ev(ptr noundef nonnull align 8 dereferenceable(32) %ref.tmp205) #3
  call void @_ZNSaIcED1Ev(ptr noundef nonnull align 1 dereferenceable(1) %ref.tmp206) #3
  call void @_ZN9grpc_core12experimental4JsonD2Ev(ptr noundef nonnull align 8 dereferenceable(56) %ref.tmp201) #3
  %140 = load ptr, ptr %percent196, align 8
  %call218 = invoke noundef i32 @_ZN9grpc_core12_GLOBAL__N_114GetDenominatorEPK31envoy_type_v3_FractionalPercent(ptr noundef %140)
          to label %invoke.cont217 unwind label %lpad136

invoke.cont217:                                   ; preds = %invoke.cont210
  invoke void @_ZN9grpc_core12experimental4Json10FromNumberEj(ptr sret(%"class.grpc_core::experimental::Json") align 8 %ref.tmp216, i32 noundef %call218)
          to label %invoke.cont219 unwind label %lpad136

invoke.cont219:                                   ; preds = %invoke.cont217
  call void @_ZNSaIcEC1Ev(ptr noundef nonnull align 1 dereferenceable(1) %ref.tmp221) #3
  invoke void @_ZNSt7__cxx1112basic_stringIcSt11char_traitsIcESaIcEEC2IS3_EEPKcRKS3_(ptr noundef nonnull align 8 dereferenceable(32) %ref.tmp220, ptr noundef @.str.21, ptr noundef nonnull align 1 dereferenceable(1) %ref.tmp221)
          to label %invoke.cont223 unwind label %lpad222

invoke.cont223:                                   ; preds = %invoke.cont219
  %call226 = invoke noundef nonnull align 8 dereferenceable(56) ptr @_ZNSt3mapINSt7__cxx1112basic_stringIcSt11char_traitsIcESaIcEEEN9grpc_core12experimental4JsonESt4lessIS5_ESaISt4pairIKS5_S8_EEEixEOS5_(ptr noundef nonnull align 8 dereferenceable(48) %fault_injection_policy_json, ptr noundef nonnull align 8 dereferenceable(32) %ref.tmp220)
          to label %invoke.cont225 unwind label %lpad224

invoke.cont225:                                   ; preds = %invoke.cont223
  %call227 = call noundef nonnull align 8 dereferenceable(56) ptr @_ZN9grpc_core12experimental4JsonaSEOS1_(ptr noundef nonnull align 8 dereferenceable(56) %call226, ptr noundef nonnull align 8 dereferenceable(56) %ref.tmp216) #3
  call void @_ZNSt7__cxx1112basic_stringIcSt11char_traitsIcESaIcEED1Ev(ptr noundef nonnull align 8 dereferenceable(32) %ref.tmp220) #3
  call void @_ZNSaIcED1Ev(ptr noundef nonnull align 1 dereferenceable(1) %ref.tmp221) #3
  call void @_ZN9grpc_core12experimental4JsonD2Ev(ptr noundef nonnull align 8 dereferenceable(56) %ref.tmp216) #3
  br label %if.end231

lpad207:                                          ; preds = %invoke.cont204
  %141 = landingpad { ptr, i32 }
          cleanup
  %142 = extractvalue { ptr, i32 } %141, 0
  store ptr %142, ptr %exn.slot, align 8
  %143 = extractvalue { ptr, i32 } %141, 1
  store i32 %143, ptr %ehselector.slot, align 4
  br label %ehcleanup214

lpad209:                                          ; preds = %invoke.cont208
  %144 = landingpad { ptr, i32 }
          cleanup
  %145 = extractvalue { ptr, i32 } %144, 0
  store ptr %145, ptr %exn.slot, align 8
  %146 = extractvalue { ptr, i32 } %144, 1
  store i32 %146, ptr %ehselector.slot, align 4
  call void @_ZNSt7__cxx1112basic_stringIcSt11char_traitsIcESaIcEED1Ev(ptr noundef nonnull align 8 dereferenceable(32) %ref.tmp205) #3
  br label %ehcleanup214

ehcleanup214:                                     ; preds = %lpad209, %lpad207
  call void @_ZNSaIcED1Ev(ptr noundef nonnull align 1 dereferenceable(1) %ref.tmp206) #3
  call void @_ZN9grpc_core12experimental4JsonD2Ev(ptr noundef nonnull align 8 dereferenceable(56) %ref.tmp201) #3
  br label %ehcleanup232

lpad222:                                          ; preds = %invoke.cont219
  %147 = landingpad { ptr, i32 }
          cleanup
  %148 = extractvalue { ptr, i32 } %147, 0
  store ptr %148, ptr %exn.slot, align 8
  %149 = extractvalue { ptr, i32 } %147, 1
  store i32 %149, ptr %ehselector.slot, align 4
  br label %ehcleanup229

lpad224:                                          ; preds = %invoke.cont223
  %150 = landingpad { ptr, i32 }
          cleanup
  %151 = extractvalue { ptr, i32 } %150, 0
  store ptr %151, ptr %exn.slot, align 8
  %152 = extractvalue { ptr, i32 } %150, 1
  store i32 %152, ptr %ehselector.slot, align 4
  call void @_ZNSt7__cxx1112basic_stringIcSt11char_traitsIcESaIcEED1Ev(ptr noundef nonnull align 8 dereferenceable(32) %ref.tmp220) #3
  br label %ehcleanup229

ehcleanup229:                                     ; preds = %lpad224, %lpad222
  call void @_ZNSaIcED1Ev(ptr noundef nonnull align 1 dereferenceable(1) %ref.tmp221) #3
  call void @_ZN9grpc_core12experimental4JsonD2Ev(ptr noundef nonnull align 8 dereferenceable(56) %ref.tmp216) #3
  br label %ehcleanup232

if.end231:                                        ; preds = %invoke.cont225, %invoke.cont197
  call void @_ZN9grpc_core16ValidationErrors11ScopedFieldD2Ev(ptr noundef nonnull align 8 dereferenceable(8) %field133) #3
  br label %if.end233

ehcleanup232:                                     ; preds = %ehcleanup229, %ehcleanup214, %ehcleanup193, %ehcleanup180, %ehcleanup164, %lpad136
  call void @_ZN9grpc_core16ValidationErrors11ScopedFieldD2Ev(ptr noundef nonnull align 8 dereferenceable(8) %field133) #3
  br label %ehcleanup258

if.end233:                                        ; preds = %if.end231, %invoke.cont129
  %153 = load ptr, ptr %http_fault, align 8
  %call235 = invoke ptr @envoy_extensions_filters_http_fault_v3_HTTPFault_max_active_faults(ptr noundef %153)
          to label %invoke.cont234 unwind label %lpad

invoke.cont234:                                   ; preds = %if.end233
  store ptr %call235, ptr %max_fault_wrapper, align 8
  %154 = load ptr, ptr %max_fault_wrapper, align 8
  %cmp236 = icmp ne ptr %154, null
  br i1 %cmp236, label %if.then237, label %if.end253

if.then237:                                       ; preds = %invoke.cont234
  %155 = load ptr, ptr %max_fault_wrapper, align 8
  %call240 = invoke i32 @google_protobuf_UInt32Value_value(ptr noundef %155)
          to label %invoke.cont239 unwind label %lpad

invoke.cont239:                                   ; preds = %if.then237
  invoke void @_ZN9grpc_core12experimental4Json10FromNumberEj(ptr sret(%"class.grpc_core::experimental::Json") align 8 %ref.tmp238, i32 noundef %call240)
          to label %invoke.cont241 unwind label %lpad

invoke.cont241:                                   ; preds = %invoke.cont239
  call void @_ZNSaIcEC1Ev(ptr noundef nonnull align 1 dereferenceable(1) %ref.tmp243) #3
  invoke void @_ZNSt7__cxx1112basic_stringIcSt11char_traitsIcESaIcEEC2IS3_EEPKcRKS3_(ptr noundef nonnull align 8 dereferenceable(32) %ref.tmp242, ptr noundef @.str.22, ptr noundef nonnull align 1 dereferenceable(1) %ref.tmp243)
          to label %invoke.cont245 unwind label %lpad244

invoke.cont245:                                   ; preds = %invoke.cont241
  %call248 = invoke noundef nonnull align 8 dereferenceable(56) ptr @_ZNSt3mapINSt7__cxx1112basic_stringIcSt11char_traitsIcESaIcEEEN9grpc_core12experimental4JsonESt4lessIS5_ESaISt4pairIKS5_S8_EEEixEOS5_(ptr noundef nonnull align 8 dereferenceable(48) %fault_injection_policy_json, ptr noundef nonnull align 8 dereferenceable(32) %ref.tmp242)
          to label %invoke.cont247 unwind label %lpad246

invoke.cont247:                                   ; preds = %invoke.cont245
  %call249 = call noundef nonnull align 8 dereferenceable(56) ptr @_ZN9grpc_core12experimental4JsonaSEOS1_(ptr noundef nonnull align 8 dereferenceable(56) %call248, ptr noundef nonnull align 8 dereferenceable(56) %ref.tmp238) #3
  call void @_ZNSt7__cxx1112basic_stringIcSt11char_traitsIcESaIcEED1Ev(ptr noundef nonnull align 8 dereferenceable(32) %ref.tmp242) #3
  call void @_ZNSaIcED1Ev(ptr noundef nonnull align 1 dereferenceable(1) %ref.tmp243) #3
  call void @_ZN9grpc_core12experimental4JsonD2Ev(ptr noundef nonnull align 8 dereferenceable(56) %ref.tmp238) #3
  br label %if.end253

lpad244:                                          ; preds = %invoke.cont241
  %156 = landingpad { ptr, i32 }
          cleanup
  %157 = extractvalue { ptr, i32 } %156, 0
  store ptr %157, ptr %exn.slot, align 8
  %158 = extractvalue { ptr, i32 } %156, 1
  store i32 %158, ptr %ehselector.slot, align 4
  br label %ehcleanup251

lpad246:                                          ; preds = %invoke.cont245
  %159 = landingpad { ptr, i32 }
          cleanup
  %160 = extractvalue { ptr, i32 } %159, 0
  store ptr %160, ptr %exn.slot, align 8
  %161 = extractvalue { ptr, i32 } %159, 1
  store i32 %161, ptr %ehselector.slot, align 4
  call void @_ZNSt7__cxx1112basic_stringIcSt11char_traitsIcESaIcEED1Ev(ptr noundef nonnull align 8 dereferenceable(32) %ref.tmp242) #3
  br label %ehcleanup251

ehcleanup251:                                     ; preds = %lpad246, %lpad244
  call void @_ZNSaIcED1Ev(ptr noundef nonnull align 1 dereferenceable(1) %ref.tmp243) #3
  call void @_ZN9grpc_core12experimental4JsonD2Ev(ptr noundef nonnull align 8 dereferenceable(56) %ref.tmp238) #3
  br label %ehcleanup258

if.end253:                                        ; preds = %invoke.cont247, %invoke.cont234
  %config_proto_type_name = getelementptr inbounds %"struct.grpc_core::XdsHttpFilterImpl::FilterConfig", ptr %ref.tmp254, i32 0, i32 0
  %vtable = load ptr, ptr %this1, align 8
  %vfn = getelementptr inbounds ptr, ptr %vtable, i64 2
  %162 = load ptr, ptr %vfn, align 8
  %call256 = invoke { i64, ptr } %162(ptr noundef nonnull align 8 dereferenceable(8) %this1)
          to label %invoke.cont255 unwind label %lpad

invoke.cont255:                                   ; preds = %if.end253
  %163 = getelementptr inbounds { i64, ptr }, ptr %config_proto_type_name, i32 0, i32 0
  %164 = extractvalue { i64, ptr } %call256, 0
  store i64 %164, ptr %163, align 8
  %165 = getelementptr inbounds { i64, ptr }, ptr %config_proto_type_name, i32 0, i32 1
  %166 = extractvalue { i64, ptr } %call256, 1
  store ptr %166, ptr %165, align 8
  %config = getelementptr inbounds %"struct.grpc_core::XdsHttpFilterImpl::FilterConfig", ptr %ref.tmp254, i32 0, i32 1
  invoke void @_ZN9grpc_core12experimental4Json10FromObjectEOSt3mapINSt7__cxx1112basic_stringIcSt11char_traitsIcESaIcEEES1_St4lessIS8_ESaISt4pairIKS8_S1_EEE(ptr sret(%"class.grpc_core::experimental::Json") align 8 %config, ptr noundef nonnull align 8 dereferenceable(48) %fault_injection_policy_json)
          to label %invoke.cont257 unwind label %lpad

invoke.cont257:                                   ; preds = %invoke.cont255
  call void @_ZNSt8optionalIN9grpc_core17XdsHttpFilterImpl12FilterConfigEEC2IS2_TnNSt9enable_ifIX7__and_vISt6__not_ISt7is_sameIS3_NSt9remove_cvINSt16remove_referenceIT_E4typeEE4typeEEES6_IS7_ISt10in_place_tSE_EESt16is_constructibleIS2_JSA_EESt14is_convertibleISA_S2_EEEbE4typeELb1EEEOSA_(ptr noundef nonnull align 8 dereferenceable(80) %agg.result, ptr noundef nonnull align 8 dereferenceable(72) %ref.tmp254) #3
  call void @_ZN9grpc_core17XdsHttpFilterImpl12FilterConfigD2Ev(ptr noundef nonnull align 8 dereferenceable(72) %ref.tmp254) #3
  call void @_ZNSt3mapINSt7__cxx1112basic_stringIcSt11char_traitsIcESaIcEEEN9grpc_core12experimental4JsonESt4lessIS5_ESaISt4pairIKS5_S8_EEED2Ev(ptr noundef nonnull align 8 dereferenceable(48) %fault_injection_policy_json) #3
  br label %return

ehcleanup258:                                     ; preds = %ehcleanup251, %ehcleanup232, %ehcleanup127, %lpad
  call void @_ZNSt3mapINSt7__cxx1112basic_stringIcSt11char_traitsIcESaIcEEEN9grpc_core12experimental4JsonESt4lessIS5_ESaISt4pairIKS5_S8_EEED2Ev(ptr noundef nonnull align 8 dereferenceable(48) %fault_injection_policy_json) #3
  br label %eh.resume

return:                                           ; preds = %invoke.cont257, %if.then7, %if.then
  ret void

eh.resume:                                        ; preds = %ehcleanup258
  %exn = load ptr, ptr %exn.slot, align 8
  %sel = load i32, ptr %ehselector.slot, align 4
  %lpad.val = insertvalue { ptr, i32 } poison, ptr %exn, 0
  %lpad.val259 = insertvalue { ptr, i32 } %lpad.val, i32 %sel, 1
  resume { ptr, i32 } %lpad.val259
}

; Function Attrs: mustprogress nounwind uwtable
define linkonce_odr noundef ptr @_ZSt6get_ifISt17basic_string_viewIcSt11char_traitsIcEEJS3_N9grpc_core12experimental4JsonEEENSt11add_pointerIT_E4typeEPSt7variantIJDpT0_EE(ptr noundef %__ptr) #4 comdat {
entry:
  %__ptr.addr = alloca ptr, align 8
  %__n = alloca i64, align 8
  store ptr %__ptr, ptr %__ptr.addr, align 8
  store i64 0, ptr %__n, align 8
  %0 = load ptr, ptr %__ptr.addr, align 8
  %call = call noundef ptr @_ZSt6get_ifILm0EJSt17basic_string_viewIcSt11char_traitsIcEEN9grpc_core12experimental4JsonEEENSt11add_pointerINSt19variant_alternativeIXT_ESt7variantIJDpT0_EEE4typeEE4typeEPSC_(ptr noundef %0) #3
  ret ptr %call
}

declare void @_ZN9grpc_core16ValidationErrors8AddErrorESt17basic_string_viewIcSt11char_traitsIcEE(ptr noundef nonnull align 8 dereferenceable(72), i64, ptr) #1

; Function Attrs: mustprogress nounwind uwtable
define linkonce_odr void @_ZNSt8optionalIN9grpc_core17XdsHttpFilterImpl12FilterConfigEEC2ESt9nullopt_t(ptr noundef nonnull align 8 dereferenceable(80) %this) unnamed_addr #4 comdat align 2 {
entry:
  %this.addr = alloca ptr, align 8
  store ptr %this, ptr %this.addr, align 8
  %this1 = load ptr, ptr %this.addr, align 8
  call void @_ZNSt14_Optional_baseIN9grpc_core17XdsHttpFilterImpl12FilterConfigELb0ELb0EEC2Ev(ptr noundef nonnull align 8 dereferenceable(80) %this1) #3
  ret void
}

; Function Attrs: mustprogress uwtable
define linkonce_odr ptr @envoy_extensions_filters_http_fault_v3_HTTPFault_parse(ptr noundef %buf, i64 noundef %size, ptr noundef %arena) #5 comdat {
entry:
  %retval = alloca ptr, align 8
  %buf.addr = alloca ptr, align 8
  %size.addr = alloca i64, align 8
  %arena.addr = alloca ptr, align 8
  %ret = alloca ptr, align 8
  store ptr %buf, ptr %buf.addr, align 8
  store i64 %size, ptr %size.addr, align 8
  store ptr %arena, ptr %arena.addr, align 8
  %0 = load ptr, ptr %arena.addr, align 8
  %call = call ptr @envoy_extensions_filters_http_fault_v3_HTTPFault_new(ptr noundef %0)
  store ptr %call, ptr %ret, align 8
  %1 = load ptr, ptr %ret, align 8
  %tobool = icmp ne ptr %1, null
  br i1 %tobool, label %if.end, label %if.then

if.then:                                          ; preds = %entry
  store ptr null, ptr %retval, align 8
  br label %return

if.end:                                           ; preds = %entry
  %2 = load ptr, ptr %buf.addr, align 8
  %3 = load i64, ptr %size.addr, align 8
  %4 = load ptr, ptr %ret, align 8
  %5 = load ptr, ptr %arena.addr, align 8
  %call1 = call i32 @upb_Decode(ptr noundef %2, i64 noundef %3, ptr noundef %4, ptr noundef @envoy__extensions__filters__http__fault__v3__HTTPFault_msg_init, ptr noundef null, i32 noundef 0, ptr noundef %5)
  %cmp = icmp ne i32 %call1, 0
  br i1 %cmp, label %if.then2, label %if.end3

if.then2:                                         ; preds = %if.end
  store ptr null, ptr %retval, align 8
  br label %return

if.end3:                                          ; preds = %if.end
  %6 = load ptr, ptr %ret, align 8
  store ptr %6, ptr %retval, align 8
  br label %return

return:                                           ; preds = %if.end3, %if.then2, %if.then
  %7 = load ptr, ptr %retval, align 8
  ret ptr %7
}

; Function Attrs: mustprogress nounwind uwtable
define linkonce_odr noundef ptr @_ZNKSt17basic_string_viewIcSt11char_traitsIcEE4dataEv(ptr noundef nonnull align 8 dereferenceable(16) %this) #4 comdat align 2 {
entry:
  %this.addr = alloca ptr, align 8
  store ptr %this, ptr %this.addr, align 8
  %this1 = load ptr, ptr %this.addr, align 8
  %_M_str = getelementptr inbounds %"class.std::basic_string_view", ptr %this1, i32 0, i32 1
  %0 = load ptr, ptr %_M_str, align 8
  ret ptr %0
}

; Function Attrs: mustprogress nounwind uwtable
define linkonce_odr noundef i64 @_ZNKSt17basic_string_viewIcSt11char_traitsIcEE4sizeEv(ptr noundef nonnull align 8 dereferenceable(16) %this) #4 comdat align 2 {
entry:
  %this.addr = alloca ptr, align 8
  store ptr %this, ptr %this.addr, align 8
  %this1 = load ptr, ptr %this.addr, align 8
  %_M_len = getelementptr inbounds %"class.std::basic_string_view", ptr %this1, i32 0, i32 0
  %0 = load i64, ptr %_M_len, align 8
  ret i64 %0
}

; Function Attrs: mustprogress nounwind uwtable
define linkonce_odr void @_ZNSt3mapINSt7__cxx1112basic_stringIcSt11char_traitsIcESaIcEEEN9grpc_core12experimental4JsonESt4lessIS5_ESaISt4pairIKS5_S8_EEEC2Ev(ptr noundef nonnull align 8 dereferenceable(48) %this) unnamed_addr #4 comdat align 2 {
entry:
  %this.addr = alloca ptr, align 8
  store ptr %this, ptr %this.addr, align 8
  %this1 = load ptr, ptr %this.addr, align 8
  %_M_t = getelementptr inbounds %"class.std::map.47", ptr %this1, i32 0, i32 0
  call void @_ZNSt8_Rb_treeINSt7__cxx1112basic_stringIcSt11char_traitsIcESaIcEEESt4pairIKS5_N9grpc_core12experimental4JsonEESt10_Select1stISB_ESt4lessIS5_ESaISB_EEC2Ev(ptr noundef nonnull align 8 dereferenceable(48) %_M_t) #3
  ret void
}

; Function Attrs: mustprogress uwtable
define linkonce_odr ptr @envoy_extensions_filters_http_fault_v3_HTTPFault_abort(ptr noundef %msg) #5 comdat {
entry:
  %msg.addr.i = alloca ptr, align 8
  %field.addr.i = alloca ptr, align 8
  %default_val.addr.i = alloca ptr, align 8
  %val.addr.i = alloca ptr, align 8
  %msg.addr = alloca ptr, align 8
  %default_val = alloca ptr, align 8
  %ret = alloca ptr, align 8
  %field = alloca %struct.upb_MiniTableField, align 4
  store ptr %msg, ptr %msg.addr, align 8
  store ptr null, ptr %default_val, align 8
  call void @llvm.memcpy.p0.p0.i64(ptr align 4 %field, ptr align 4 @__const.envoy_extensions_filters_http_fault_v3_HTTPFault_abort.field, i64 12, i1 false)
  %0 = load ptr, ptr %msg.addr, align 8
  store ptr %0, ptr %msg.addr.i, align 8
  store ptr %field, ptr %field.addr.i, align 8
  store ptr %default_val, ptr %default_val.addr.i, align 8
  store ptr %ret, ptr %val.addr.i, align 8
  %1 = load ptr, ptr %field.addr.i, align 8
  %call.i = call zeroext i1 @upb_MiniTableField_IsExtension(ptr noundef %1)
  br i1 %call.i, label %if.then.i, label %if.end.i

if.then.i:                                        ; preds = %entry
  unreachable

if.end.i:                                         ; preds = %entry
  %2 = load ptr, ptr %field.addr.i, align 8
  %call1.i = call zeroext i1 @_upb_MiniTableField_InOneOf(ptr noundef %2)
  br i1 %call1.i, label %land.lhs.true.i, label %lor.lhs.false.i

lor.lhs.false.i:                                  ; preds = %if.end.i
  %3 = load ptr, ptr %default_val.addr.i, align 8
  %4 = load ptr, ptr %field.addr.i, align 8
  %call2.i = call zeroext i1 @_upb_MiniTable_ValueIsNonZero(ptr noundef %3, ptr noundef %4)
  br i1 %call2.i, label %land.lhs.true.i, label %if.end5.i

land.lhs.true.i:                                  ; preds = %lor.lhs.false.i, %if.end.i
  %5 = load ptr, ptr %msg.addr.i, align 8
  %6 = load ptr, ptr %field.addr.i, align 8
  %call3.i = call zeroext i1 @_upb_Message_HasNonExtensionField(ptr noundef %5, ptr noundef %6)
  br i1 %call3.i, label %if.end5.i, label %if.then4.i

if.then4.i:                                       ; preds = %land.lhs.true.i
  %7 = load ptr, ptr %val.addr.i, align 8
  %8 = load ptr, ptr %default_val.addr.i, align 8
  %9 = load ptr, ptr %field.addr.i, align 8
  call void @_upb_MiniTable_CopyFieldData(ptr noundef %7, ptr noundef %8, ptr noundef %9)
  br label %_ZL33_upb_Message_GetNonExtensionFieldPKvPK18upb_MiniTableFieldS0_Pv.exit

if.end5.i:                                        ; preds = %land.lhs.true.i, %lor.lhs.false.i
  %10 = load ptr, ptr %val.addr.i, align 8
  %11 = load ptr, ptr %msg.addr.i, align 8
  %12 = load ptr, ptr %field.addr.i, align 8
  %call6.i = call ptr @_upb_MiniTableField_GetConstPtr(ptr noundef %11, ptr noundef %12)
  %13 = load ptr, ptr %field.addr.i, align 8
  call void @_upb_MiniTable_CopyFieldData(ptr noundef %10, ptr noundef %call6.i, ptr noundef %13)
  br label %_ZL33_upb_Message_GetNonExtensionFieldPKvPK18upb_MiniTableFieldS0_Pv.exit

_ZL33_upb_Message_GetNonExtensionFieldPKvPK18upb_MiniTableFieldS0_Pv.exit: ; preds = %if.end5.i, %if.then4.i
  %14 = load ptr, ptr %ret, align 8
  ret ptr %14
}

declare i32 @__gxx_personality_v0(...)

; Function Attrs: mustprogress uwtable
define linkonce_odr void @_ZN9grpc_core16ValidationErrors11ScopedFieldC2EPS0_St17basic_string_viewIcSt11char_traitsIcEE(ptr noundef nonnull align 8 dereferenceable(8) %this, ptr noundef %errors, i64 %field_name.coerce0, ptr %field_name.coerce1) unnamed_addr #5 comdat align 2 {
entry:
  %field_name = alloca %"class.std::basic_string_view", align 8
  %this.addr = alloca ptr, align 8
  %errors.addr = alloca ptr, align 8
  %agg.tmp = alloca %"class.std::basic_string_view", align 8
  %0 = getelementptr inbounds { i64, ptr }, ptr %field_name, i32 0, i32 0
  store i64 %field_name.coerce0, ptr %0, align 8
  %1 = getelementptr inbounds { i64, ptr }, ptr %field_name, i32 0, i32 1
  store ptr %field_name.coerce1, ptr %1, align 8
  store ptr %this, ptr %this.addr, align 8
  store ptr %errors, ptr %errors.addr, align 8
  %this1 = load ptr, ptr %this.addr, align 8
  %errors_ = getelementptr inbounds %"class.grpc_core::ValidationErrors::ScopedField", ptr %this1, i32 0, i32 0
  %2 = load ptr, ptr %errors.addr, align 8
  store ptr %2, ptr %errors_, align 8
  %errors_2 = getelementptr inbounds %"class.grpc_core::ValidationErrors::ScopedField", ptr %this1, i32 0, i32 0
  %3 = load ptr, ptr %errors_2, align 8
  call void @llvm.memcpy.p0.p0.i64(ptr align 8 %agg.tmp, ptr align 8 %field_name, i64 16, i1 false)
  %4 = getelementptr inbounds { i64, ptr }, ptr %agg.tmp, i32 0, i32 0
  %5 = load i64, ptr %4, align 8
  %6 = getelementptr inbounds { i64, ptr }, ptr %agg.tmp, i32 0, i32 1
  %7 = load ptr, ptr %6, align 8
  call void @_ZN9grpc_core16ValidationErrors9PushFieldESt17basic_string_viewIcSt11char_traitsIcEE(ptr noundef nonnull align 8 dereferenceable(72) %3, i64 %5, ptr %7)
  ret void
}

; Function Attrs: mustprogress uwtable
define linkonce_odr i32 @envoy_extensions_filters_http_fault_v3_FaultAbort_grpc_status(ptr noundef %msg) #5 comdat {
entry:
  %msg.addr.i = alloca ptr, align 8
  %field.addr.i = alloca ptr, align 8
  %default_val.addr.i = alloca ptr, align 8
  %val.addr.i = alloca ptr, align 8
  %msg.addr = alloca ptr, align 8
  %default_val = alloca i32, align 4
  %ret = alloca i32, align 4
  %field = alloca %struct.upb_MiniTableField, align 4
  store ptr %msg, ptr %msg.addr, align 8
  store i32 0, ptr %default_val, align 4
  call void @llvm.memcpy.p0.p0.i64(ptr align 4 %field, ptr align 4 @__const.envoy_extensions_filters_http_fault_v3_FaultAbort_grpc_status.field, i64 12, i1 false)
  %0 = load ptr, ptr %msg.addr, align 8
  store ptr %0, ptr %msg.addr.i, align 8
  store ptr %field, ptr %field.addr.i, align 8
  store ptr %default_val, ptr %default_val.addr.i, align 8
  store ptr %ret, ptr %val.addr.i, align 8
  %1 = load ptr, ptr %field.addr.i, align 8
  %call.i = call zeroext i1 @upb_MiniTableField_IsExtension(ptr noundef %1)
  br i1 %call.i, label %if.then.i, label %if.end.i

if.then.i:                                        ; preds = %entry
  unreachable

if.end.i:                                         ; preds = %entry
  %2 = load ptr, ptr %field.addr.i, align 8
  %call1.i = call zeroext i1 @_upb_MiniTableField_InOneOf(ptr noundef %2)
  br i1 %call1.i, label %land.lhs.true.i, label %lor.lhs.false.i

lor.lhs.false.i:                                  ; preds = %if.end.i
  %3 = load ptr, ptr %default_val.addr.i, align 8
  %4 = load ptr, ptr %field.addr.i, align 8
  %call2.i = call zeroext i1 @_upb_MiniTable_ValueIsNonZero(ptr noundef %3, ptr noundef %4)
  br i1 %call2.i, label %land.lhs.true.i, label %if.end5.i

land.lhs.true.i:                                  ; preds = %lor.lhs.false.i, %if.end.i
  %5 = load ptr, ptr %msg.addr.i, align 8
  %6 = load ptr, ptr %field.addr.i, align 8
  %call3.i = call zeroext i1 @_upb_Message_HasNonExtensionField(ptr noundef %5, ptr noundef %6)
  br i1 %call3.i, label %if.end5.i, label %if.then4.i

if.then4.i:                                       ; preds = %land.lhs.true.i
  %7 = load ptr, ptr %val.addr.i, align 8
  %8 = load ptr, ptr %default_val.addr.i, align 8
  %9 = load ptr, ptr %field.addr.i, align 8
  call void @_upb_MiniTable_CopyFieldData(ptr noundef %7, ptr noundef %8, ptr noundef %9)
  br label %_ZL33_upb_Message_GetNonExtensionFieldPKvPK18upb_MiniTableFieldS0_Pv.exit

if.end5.i:                                        ; preds = %land.lhs.true.i, %lor.lhs.false.i
  %10 = load ptr, ptr %val.addr.i, align 8
  %11 = load ptr, ptr %msg.addr.i, align 8
  %12 = load ptr, ptr %field.addr.i, align 8
  %call6.i = call ptr @_upb_MiniTableField_GetConstPtr(ptr noundef %11, ptr noundef %12)
  %13 = load ptr, ptr %field.addr.i, align 8
  call void @_upb_MiniTable_CopyFieldData(ptr noundef %10, ptr noundef %call6.i, ptr noundef %13)
  br label %_ZL33_upb_Message_GetNonExtensionFieldPKvPK18upb_MiniTableFieldS0_Pv.exit

_ZL33_upb_Message_GetNonExtensionFieldPKvPK18upb_MiniTableFieldS0_Pv.exit: ; preds = %if.end5.i, %if.then4.i
  %14 = load i32, ptr %ret, align 4
  ret i32 %14
}

declare noundef zeroext i1 @_Z25grpc_status_code_from_intiP16grpc_status_code(i32 noundef, ptr noundef) #1

declare void @_ZN4absl12lts_202308026StrCatB5cxx11ERKNS0_8AlphaNumES3_(ptr sret(%"class.std::__cxx11::basic_string") align 8, ptr noundef nonnull align 8 dereferenceable(48), ptr noundef nonnull align 8 dereferenceable(48)) #1

; Function Attrs: mustprogress uwtable
define linkonce_odr void @_ZN4absl12lts_202308028AlphaNumC2EPKc(ptr noundef nonnull align 8 dereferenceable(48) %this, ptr noundef %c_str) unnamed_addr #5 comdat align 2 {
entry:
  %this.addr = alloca ptr, align 8
  %c_str.addr = alloca ptr, align 8
  store ptr %this, ptr %this.addr, align 8
  store ptr %c_str, ptr %c_str.addr, align 8
  %this1 = load ptr, ptr %this.addr, align 8
  %piece_ = getelementptr inbounds %"class.absl::lts_20230802::AlphaNum", ptr %this1, i32 0, i32 0
  %0 = load ptr, ptr %c_str.addr, align 8
  %call = call { i64, ptr } @_ZN4absl12lts_2023080218NullSafeStringViewEPKc(ptr noundef %0)
  %1 = getelementptr inbounds { i64, ptr }, ptr %piece_, i32 0, i32 0
  %2 = extractvalue { i64, ptr } %call, 0
  store i64 %2, ptr %1, align 8
  %3 = getelementptr inbounds { i64, ptr }, ptr %piece_, i32 0, i32 1
  %4 = extractvalue { i64, ptr } %call, 1
  store ptr %4, ptr %3, align 8
  ret void
}

; Function Attrs: mustprogress uwtable
define linkonce_odr void @_ZN4absl12lts_202308028AlphaNumC2Ei(ptr noundef nonnull align 8 dereferenceable(48) %this, i32 noundef %x) unnamed_addr #5 comdat align 2 {
entry:
  %this.addr = alloca ptr, align 8
  %x.addr = alloca i32, align 4
  store ptr %this, ptr %this.addr, align 8
  store i32 %x, ptr %x.addr, align 4
  %this1 = load ptr, ptr %this.addr, align 8
  %piece_ = getelementptr inbounds %"class.absl::lts_20230802::AlphaNum", ptr %this1, i32 0, i32 0
  %digits_ = getelementptr inbounds %"class.absl::lts_20230802::AlphaNum", ptr %this1, i32 0, i32 1
  %arraydecay = getelementptr inbounds [32 x i8], ptr %digits_, i64 0, i64 0
  %0 = load i32, ptr %x.addr, align 4
  %digits_2 = getelementptr inbounds %"class.absl::lts_20230802::AlphaNum", ptr %this1, i32 0, i32 1
  %arraydecay3 = getelementptr inbounds [32 x i8], ptr %digits_2, i64 0, i64 0
  %call = call noundef ptr @_ZN4absl12lts_2023080216numbers_internal15FastIntToBufferEiPc(i32 noundef %0, ptr noundef %arraydecay3)
  %digits_4 = getelementptr inbounds %"class.absl::lts_20230802::AlphaNum", ptr %this1, i32 0, i32 1
  %arrayidx = getelementptr inbounds [32 x i8], ptr %digits_4, i64 0, i64 0
  %sub.ptr.lhs.cast = ptrtoint ptr %call to i64
  %sub.ptr.rhs.cast = ptrtoint ptr %arrayidx to i64
  %sub.ptr.sub = sub i64 %sub.ptr.lhs.cast, %sub.ptr.rhs.cast
  call void @_ZNSt17basic_string_viewIcSt11char_traitsIcEEC2EPKcm(ptr noundef nonnull align 8 dereferenceable(16) %piece_, ptr noundef %arraydecay, i64 noundef %sub.ptr.sub) #3
  ret void
}

; Function Attrs: nounwind
declare { i64, ptr } @_ZNKSt7__cxx1112basic_stringIcSt11char_traitsIcESaIcEEcvSt17basic_string_viewIcS2_EEv(ptr noundef nonnull align 8 dereferenceable(32)) #2

; Function Attrs: nounwind
declare void @_ZNSt7__cxx1112basic_stringIcSt11char_traitsIcESaIcEED1Ev(ptr noundef nonnull align 8 dereferenceable(32)) unnamed_addr #2

; Function Attrs: mustprogress nounwind uwtable
define linkonce_odr void @_ZN9grpc_core16ValidationErrors11ScopedFieldD2Ev(ptr noundef nonnull align 8 dereferenceable(8) %this) unnamed_addr #4 comdat align 2 personality ptr @__gxx_personality_v0 {
entry:
  %this.addr = alloca ptr, align 8
  store ptr %this, ptr %this.addr, align 8
  %this1 = load ptr, ptr %this.addr, align 8
  %errors_ = getelementptr inbounds %"class.grpc_core::ValidationErrors::ScopedField", ptr %this1, i32 0, i32 0
  %0 = load ptr, ptr %errors_, align 8
  %cmp = icmp ne ptr %0, null
  br i1 %cmp, label %if.then, label %if.end

if.then:                                          ; preds = %entry
  %errors_2 = getelementptr inbounds %"class.grpc_core::ValidationErrors::ScopedField", ptr %this1, i32 0, i32 0
  %1 = load ptr, ptr %errors_2, align 8
  invoke void @_ZN9grpc_core16ValidationErrors8PopFieldEv(ptr noundef nonnull align 8 dereferenceable(72) %1)
          to label %invoke.cont unwind label %terminate.lpad

invoke.cont:                                      ; preds = %if.then
  br label %if.end

if.end:                                           ; preds = %invoke.cont, %entry
  ret void

terminate.lpad:                                   ; preds = %if.then
  %2 = landingpad { ptr, i32 }
          catch ptr null
  %3 = extractvalue { ptr, i32 } %2, 0
  call void @__clang_call_terminate(ptr %3) #14
  unreachable
}

; Function Attrs: mustprogress uwtable
define linkonce_odr i32 @envoy_extensions_filters_http_fault_v3_FaultAbort_http_status(ptr noundef %msg) #5 comdat {
entry:
  %msg.addr.i = alloca ptr, align 8
  %field.addr.i = alloca ptr, align 8
  %default_val.addr.i = alloca ptr, align 8
  %val.addr.i = alloca ptr, align 8
  %msg.addr = alloca ptr, align 8
  %default_val = alloca i32, align 4
  %ret = alloca i32, align 4
  %field = alloca %struct.upb_MiniTableField, align 4
  store ptr %msg, ptr %msg.addr, align 8
  store i32 0, ptr %default_val, align 4
  call void @llvm.memcpy.p0.p0.i64(ptr align 4 %field, ptr align 4 @__const.envoy_extensions_filters_http_fault_v3_FaultAbort_http_status.field, i64 12, i1 false)
  %0 = load ptr, ptr %msg.addr, align 8
  store ptr %0, ptr %msg.addr.i, align 8
  store ptr %field, ptr %field.addr.i, align 8
  store ptr %default_val, ptr %default_val.addr.i, align 8
  store ptr %ret, ptr %val.addr.i, align 8
  %1 = load ptr, ptr %field.addr.i, align 8
  %call.i = call zeroext i1 @upb_MiniTableField_IsExtension(ptr noundef %1)
  br i1 %call.i, label %if.then.i, label %if.end.i

if.then.i:                                        ; preds = %entry
  unreachable

if.end.i:                                         ; preds = %entry
  %2 = load ptr, ptr %field.addr.i, align 8
  %call1.i = call zeroext i1 @_upb_MiniTableField_InOneOf(ptr noundef %2)
  br i1 %call1.i, label %land.lhs.true.i, label %lor.lhs.false.i

lor.lhs.false.i:                                  ; preds = %if.end.i
  %3 = load ptr, ptr %default_val.addr.i, align 8
  %4 = load ptr, ptr %field.addr.i, align 8
  %call2.i = call zeroext i1 @_upb_MiniTable_ValueIsNonZero(ptr noundef %3, ptr noundef %4)
  br i1 %call2.i, label %land.lhs.true.i, label %if.end5.i

land.lhs.true.i:                                  ; preds = %lor.lhs.false.i, %if.end.i
  %5 = load ptr, ptr %msg.addr.i, align 8
  %6 = load ptr, ptr %field.addr.i, align 8
  %call3.i = call zeroext i1 @_upb_Message_HasNonExtensionField(ptr noundef %5, ptr noundef %6)
  br i1 %call3.i, label %if.end5.i, label %if.then4.i

if.then4.i:                                       ; preds = %land.lhs.true.i
  %7 = load ptr, ptr %val.addr.i, align 8
  %8 = load ptr, ptr %default_val.addr.i, align 8
  %9 = load ptr, ptr %field.addr.i, align 8
  call void @_upb_MiniTable_CopyFieldData(ptr noundef %7, ptr noundef %8, ptr noundef %9)
  br label %_ZL33_upb_Message_GetNonExtensionFieldPKvPK18upb_MiniTableFieldS0_Pv.exit

if.end5.i:                                        ; preds = %land.lhs.true.i, %lor.lhs.false.i
  %10 = load ptr, ptr %val.addr.i, align 8
  %11 = load ptr, ptr %msg.addr.i, align 8
  %12 = load ptr, ptr %field.addr.i, align 8
  %call6.i = call ptr @_upb_MiniTableField_GetConstPtr(ptr noundef %11, ptr noundef %12)
  %13 = load ptr, ptr %field.addr.i, align 8
  call void @_upb_MiniTable_CopyFieldData(ptr noundef %10, ptr noundef %call6.i, ptr noundef %13)
  br label %_ZL33_upb_Message_GetNonExtensionFieldPKvPK18upb_MiniTableFieldS0_Pv.exit

_ZL33_upb_Message_GetNonExtensionFieldPKvPK18upb_MiniTableFieldS0_Pv.exit: ; preds = %if.end5.i, %if.then4.i
  %14 = load i32, ptr %ret, align 4
  ret i32 %14
}

declare noundef i32 @_Z32grpc_http2_status_to_grpc_statusi(i32 noundef) #1

; Function Attrs: mustprogress uwtable
define linkonce_odr void @_ZN9grpc_core12experimental4Json10FromStringEPKc(ptr noalias sret(%"class.grpc_core::experimental::Json") align 8 %agg.result, ptr noundef %str) #5 comdat align 2 personality ptr @__gxx_personality_v0 {
entry:
  %result.ptr = alloca ptr, align 8
  %str.addr = alloca ptr, align 8
  %nrvo = alloca i1, align 1
  %ref.tmp = alloca %"class.std::__cxx11::basic_string", align 8
  %ref.tmp1 = alloca %"class.std::allocator.52", align 1
  %exn.slot = alloca ptr, align 8
  %ehselector.slot = alloca i32, align 4
  store ptr %agg.result, ptr %result.ptr, align 8
  store ptr %str, ptr %str.addr, align 8
  store i1 false, ptr %nrvo, align 1
  call void @_ZN9grpc_core12experimental4JsonC2Ev(ptr noundef nonnull align 8 dereferenceable(56) %agg.result) #3
  %0 = load ptr, ptr %str.addr, align 8
  call void @_ZNSaIcEC1Ev(ptr noundef nonnull align 1 dereferenceable(1) %ref.tmp1) #3
  invoke void @_ZNSt7__cxx1112basic_stringIcSt11char_traitsIcESaIcEEC2IS3_EEPKcRKS3_(ptr noundef nonnull align 8 dereferenceable(32) %ref.tmp, ptr noundef %0, ptr noundef nonnull align 1 dereferenceable(1) %ref.tmp1)
          to label %invoke.cont unwind label %lpad

invoke.cont:                                      ; preds = %entry
  %value_ = getelementptr inbounds %"class.grpc_core::experimental::Json", ptr %agg.result, i32 0, i32 0
  %call = call noundef nonnull align 8 dereferenceable(49) ptr @_ZNSt7variantIJSt9monostatebN9grpc_core12experimental4Json11NumberValueENSt7__cxx1112basic_stringIcSt11char_traitsIcESaIcEEESt3mapISA_S3_St4lessISA_ESaISt4pairIKSA_S3_EEESt6vectorIS3_SaIS3_EEEEaSISA_EENSt9enable_ifIXaaaa14__exactly_onceINSt9_Nth_typeIX16__accepted_indexIOT_EEJS0_bS4_SA_SI_SL_EE4typeEE18is_constructible_vIST_SQ_E15is_assignable_vIRST_SQ_EERSM_E4typeESR_(ptr noundef nonnull align 8 dereferenceable(49) %value_, ptr noundef nonnull align 8 dereferenceable(32) %ref.tmp) #3
  call void @_ZNSt7__cxx1112basic_stringIcSt11char_traitsIcESaIcEED1Ev(ptr noundef nonnull align 8 dereferenceable(32) %ref.tmp) #3
  call void @_ZNSaIcED1Ev(ptr noundef nonnull align 1 dereferenceable(1) %ref.tmp1) #3
  store i1 true, ptr %nrvo, align 1
  %nrvo.val = load i1, ptr %nrvo, align 1
  br i1 %nrvo.val, label %nrvo.skipdtor, label %nrvo.unused

lpad:                                             ; preds = %entry
  %1 = landingpad { ptr, i32 }
          cleanup
  %2 = extractvalue { ptr, i32 } %1, 0
  store ptr %2, ptr %exn.slot, align 8
  %3 = extractvalue { ptr, i32 } %1, 1
  store i32 %3, ptr %ehselector.slot, align 4
  call void @_ZNSaIcED1Ev(ptr noundef nonnull align 1 dereferenceable(1) %ref.tmp1) #3
  call void @_ZN9grpc_core12experimental4JsonD2Ev(ptr noundef nonnull align 8 dereferenceable(56) %agg.result) #3
  br label %eh.resume

nrvo.unused:                                      ; preds = %invoke.cont
  call void @_ZN9grpc_core12experimental4JsonD2Ev(ptr noundef nonnull align 8 dereferenceable(56) %agg.result) #3
  br label %nrvo.skipdtor

nrvo.skipdtor:                                    ; preds = %nrvo.unused, %invoke.cont
  ret void

eh.resume:                                        ; preds = %lpad
  %exn = load ptr, ptr %exn.slot, align 8
  %sel = load i32, ptr %ehselector.slot, align 4
  %lpad.val = insertvalue { ptr, i32 } poison, ptr %exn, 0
  %lpad.val2 = insertvalue { ptr, i32 } %lpad.val, i32 %sel, 1
  resume { ptr, i32 } %lpad.val2
}

declare noundef ptr @_Z26grpc_status_code_to_string16grpc_status_code(i32 noundef) #1

; Function Attrs: mustprogress uwtable
define linkonce_odr noundef nonnull align 8 dereferenceable(56) ptr @_ZNSt3mapINSt7__cxx1112basic_stringIcSt11char_traitsIcESaIcEEEN9grpc_core12experimental4JsonESt4lessIS5_ESaISt4pairIKS5_S8_EEEixEOS5_(ptr noundef nonnull align 8 dereferenceable(48) %this, ptr noundef nonnull align 8 dereferenceable(32) %__k) #5 comdat align 2 {
entry:
  %this.addr = alloca ptr, align 8
  %__k.addr = alloca ptr, align 8
  %__i = alloca %"struct.std::_Rb_tree_iterator", align 8
  %ref.tmp = alloca %"struct.std::_Rb_tree_iterator", align 8
  %ref.tmp5 = alloca %"struct.std::less", align 1
  %ref.tmp8 = alloca %"struct.std::_Rb_tree_iterator", align 8
  %agg.tmp = alloca %"struct.std::_Rb_tree_const_iterator", align 8
  %ref.tmp9 = alloca %"class.std::tuple", align 8
  %ref.tmp10 = alloca %"class.std::tuple.93", align 1
  store ptr %this, ptr %this.addr, align 8
  store ptr %__k, ptr %__k.addr, align 8
  %this1 = load ptr, ptr %this.addr, align 8
  %0 = load ptr, ptr %__k.addr, align 8
  %call = call ptr @_ZNSt3mapINSt7__cxx1112basic_stringIcSt11char_traitsIcESaIcEEEN9grpc_core12experimental4JsonESt4lessIS5_ESaISt4pairIKS5_S8_EEE11lower_boundERSC_(ptr noundef nonnull align 8 dereferenceable(48) %this1, ptr noundef nonnull align 8 dereferenceable(32) %0)
  %coerce.dive = getelementptr inbounds %"struct.std::_Rb_tree_iterator", ptr %__i, i32 0, i32 0
  store ptr %call, ptr %coerce.dive, align 8
  %call2 = call ptr @_ZNSt3mapINSt7__cxx1112basic_stringIcSt11char_traitsIcESaIcEEEN9grpc_core12experimental4JsonESt4lessIS5_ESaISt4pairIKS5_S8_EEE3endEv(ptr noundef nonnull align 8 dereferenceable(48) %this1) #3
  %coerce.dive3 = getelementptr inbounds %"struct.std::_Rb_tree_iterator", ptr %ref.tmp, i32 0, i32 0
  store ptr %call2, ptr %coerce.dive3, align 8
  %call4 = call noundef zeroext i1 @_ZSteqRKSt17_Rb_tree_iteratorISt4pairIKNSt7__cxx1112basic_stringIcSt11char_traitsIcESaIcEEEN9grpc_core12experimental4JsonEEESE_(ptr noundef nonnull align 8 dereferenceable(8) %__i, ptr noundef nonnull align 8 dereferenceable(8) %ref.tmp) #3
  br i1 %call4, label %lor.end, label %lor.rhs

lor.rhs:                                          ; preds = %entry
  call void @_ZNKSt3mapINSt7__cxx1112basic_stringIcSt11char_traitsIcESaIcEEEN9grpc_core12experimental4JsonESt4lessIS5_ESaISt4pairIKS5_S8_EEE8key_compEv(ptr noundef nonnull align 8 dereferenceable(48) %this1)
  %1 = load ptr, ptr %__k.addr, align 8
  %call6 = call noundef nonnull align 8 dereferenceable(88) ptr @_ZNKSt17_Rb_tree_iteratorISt4pairIKNSt7__cxx1112basic_stringIcSt11char_traitsIcESaIcEEEN9grpc_core12experimental4JsonEEEdeEv(ptr noundef nonnull align 8 dereferenceable(8) %__i) #3
  %first = getelementptr inbounds %"struct.std::pair", ptr %call6, i32 0, i32 0
  %call7 = call noundef zeroext i1 @_ZNKSt4lessINSt7__cxx1112basic_stringIcSt11char_traitsIcESaIcEEEEclERKS5_S8_(ptr noundef nonnull align 1 dereferenceable(1) %ref.tmp5, ptr noundef nonnull align 8 dereferenceable(32) %1, ptr noundef nonnull align 8 dereferenceable(32) %first)
  br label %lor.end

lor.end:                                          ; preds = %lor.rhs, %entry
  %2 = phi i1 [ true, %entry ], [ %call7, %lor.rhs ]
  br i1 %2, label %if.then, label %if.end

if.then:                                          ; preds = %lor.end
  %_M_t = getelementptr inbounds %"class.std::map.47", ptr %this1, i32 0, i32 0
  call void @_ZNSt23_Rb_tree_const_iteratorISt4pairIKNSt7__cxx1112basic_stringIcSt11char_traitsIcESaIcEEEN9grpc_core12experimental4JsonEEEC2ERKSt17_Rb_tree_iteratorISB_E(ptr noundef nonnull align 8 dereferenceable(8) %agg.tmp, ptr noundef nonnull align 8 dereferenceable(8) %__i) #3
  %3 = load ptr, ptr %__k.addr, align 8
  call void @_ZSt16forward_as_tupleIJNSt7__cxx1112basic_stringIcSt11char_traitsIcESaIcEEEEESt5tupleIJDpOT_EES9_(ptr sret(%"class.std::tuple") align 8 %ref.tmp9, ptr noundef nonnull align 8 dereferenceable(32) %3) #3
  %coerce.dive11 = getelementptr inbounds %"struct.std::_Rb_tree_const_iterator", ptr %agg.tmp, i32 0, i32 0
  %4 = load ptr, ptr %coerce.dive11, align 8
  %call12 = call ptr @_ZNSt8_Rb_treeINSt7__cxx1112basic_stringIcSt11char_traitsIcESaIcEEESt4pairIKS5_N9grpc_core12experimental4JsonEESt10_Select1stISB_ESt4lessIS5_ESaISB_EE22_M_emplace_hint_uniqueIJRKSt21piecewise_construct_tSt5tupleIJOS5_EESM_IJEEEEESt17_Rb_tree_iteratorISB_ESt23_Rb_tree_const_iteratorISB_EDpOT_(ptr noundef nonnull align 8 dereferenceable(48) %_M_t, ptr %4, ptr noundef nonnull align 1 dereferenceable(1) @_ZSt19piecewise_construct, ptr noundef nonnull align 8 dereferenceable(8) %ref.tmp9, ptr noundef nonnull align 1 dereferenceable(1) %ref.tmp10)
  %coerce.dive13 = getelementptr inbounds %"struct.std::_Rb_tree_iterator", ptr %ref.tmp8, i32 0, i32 0
  store ptr %call12, ptr %coerce.dive13, align 8
  call void @llvm.memcpy.p0.p0.i64(ptr align 8 %__i, ptr align 8 %ref.tmp8, i64 8, i1 false)
  br label %if.end

if.end:                                           ; preds = %if.then, %lor.end
  %call14 = call noundef nonnull align 8 dereferenceable(88) ptr @_ZNKSt17_Rb_tree_iteratorISt4pairIKNSt7__cxx1112basic_stringIcSt11char_traitsIcESaIcEEEN9grpc_core12experimental4JsonEEEdeEv(ptr noundef nonnull align 8 dereferenceable(8) %__i) #3
  %second = getelementptr inbounds %"struct.std::pair", ptr %call14, i32 0, i32 1
  ret ptr %second
}

; Function Attrs: nounwind
declare void @_ZNSaIcEC1Ev(ptr noundef nonnull align 1 dereferenceable(1)) unnamed_addr #2

; Function Attrs: mustprogress uwtable
define linkonce_odr void @_ZNSt7__cxx1112basic_stringIcSt11char_traitsIcESaIcEEC2IS3_EEPKcRKS3_(ptr noundef nonnull align 8 dereferenceable(32) %this, ptr noundef %__s, ptr noundef nonnull align 1 dereferenceable(1) %__a) unnamed_addr #5 comdat align 2 personality ptr @__gxx_personality_v0 {
entry:
  %this.addr = alloca ptr, align 8
  %__s.addr = alloca ptr, align 8
  %__a.addr = alloca ptr, align 8
  %exn.slot = alloca ptr, align 8
  %ehselector.slot = alloca i32, align 4
  %__end = alloca ptr, align 8
  store ptr %this, ptr %this.addr, align 8
  store ptr %__s, ptr %__s.addr, align 8
  store ptr %__a, ptr %__a.addr, align 8
  %this1 = load ptr, ptr %this.addr, align 8
  %_M_dataplus = getelementptr inbounds %"class.std::__cxx11::basic_string", ptr %this1, i32 0, i32 0
  %call = call noundef ptr @_ZNSt7__cxx1112basic_stringIcSt11char_traitsIcESaIcEE13_M_local_dataEv(ptr noundef nonnull align 8 dereferenceable(32) %this1)
  %0 = load ptr, ptr %__a.addr, align 8
  call void @_ZNSt7__cxx1112basic_stringIcSt11char_traitsIcESaIcEE12_Alloc_hiderC1EPcRKS3_(ptr noundef nonnull align 8 dereferenceable(8) %_M_dataplus, ptr noundef %call, ptr noundef nonnull align 1 dereferenceable(1) %0)
  %1 = load ptr, ptr %__s.addr, align 8
  %cmp = icmp eq ptr %1, null
  br i1 %cmp, label %if.then, label %if.end

if.then:                                          ; preds = %entry
  invoke void @_ZSt19__throw_logic_errorPKc(ptr noundef @.str.28) #15
          to label %invoke.cont unwind label %lpad

invoke.cont:                                      ; preds = %if.then
  unreachable

lpad:                                             ; preds = %if.end, %if.then
  %2 = landingpad { ptr, i32 }
          cleanup
  %3 = extractvalue { ptr, i32 } %2, 0
  store ptr %3, ptr %exn.slot, align 8
  %4 = extractvalue { ptr, i32 } %2, 1
  store i32 %4, ptr %ehselector.slot, align 4
  call void @_ZNSt7__cxx1112basic_stringIcSt11char_traitsIcESaIcEE12_Alloc_hiderD2Ev(ptr noundef nonnull align 8 dereferenceable(8) %_M_dataplus) #3
  br label %eh.resume

if.end:                                           ; preds = %entry
  %5 = load ptr, ptr %__s.addr, align 8
  %6 = load ptr, ptr %__s.addr, align 8
  %call2 = call noundef i64 @_ZNSt11char_traitsIcE6lengthEPKc(ptr noundef %6)
  %add.ptr = getelementptr inbounds i8, ptr %5, i64 %call2
  store ptr %add.ptr, ptr %__end, align 8
  %7 = load ptr, ptr %__s.addr, align 8
  %8 = load ptr, ptr %__end, align 8
  invoke void @_ZNSt7__cxx1112basic_stringIcSt11char_traitsIcESaIcEE12_M_constructIPKcEEvT_S8_St20forward_iterator_tag(ptr noundef nonnull align 8 dereferenceable(32) %this1, ptr noundef %7, ptr noundef %8)
          to label %invoke.cont3 unwind label %lpad

invoke.cont3:                                     ; preds = %if.end
  ret void

eh.resume:                                        ; preds = %lpad
  %exn = load ptr, ptr %exn.slot, align 8
  %sel = load i32, ptr %ehselector.slot, align 4
  %lpad.val = insertvalue { ptr, i32 } poison, ptr %exn, 0
  %lpad.val4 = insertvalue { ptr, i32 } %lpad.val, i32 %sel, 1
  resume { ptr, i32 } %lpad.val4
}

; Function Attrs: mustprogress nounwind uwtable
define linkonce_odr noundef nonnull align 8 dereferenceable(56) ptr @_ZN9grpc_core12experimental4JsonaSEOS1_(ptr noundef nonnull align 8 dereferenceable(56) %this, ptr noundef nonnull align 8 dereferenceable(56) %other) #4 comdat align 2 {
entry:
  %this.addr = alloca ptr, align 8
  %other.addr = alloca ptr, align 8
  %ref.tmp = alloca %"struct.std::monostate", align 1
  store ptr %this, ptr %this.addr, align 8
  store ptr %other, ptr %other.addr, align 8
  %this1 = load ptr, ptr %this.addr, align 8
  %0 = load ptr, ptr %other.addr, align 8
  %value_ = getelementptr inbounds %"class.grpc_core::experimental::Json", ptr %0, i32 0, i32 0
  %value_2 = getelementptr inbounds %"class.grpc_core::experimental::Json", ptr %this1, i32 0, i32 0
  %call = call noundef nonnull align 8 dereferenceable(49) ptr @_ZNSt7variantIJSt9monostatebN9grpc_core12experimental4Json11NumberValueENSt7__cxx1112basic_stringIcSt11char_traitsIcESaIcEEESt3mapISA_S3_St4lessISA_ESaISt4pairIKSA_S3_EEESt6vectorIS3_SaIS3_EEEEaSEOSM_(ptr noundef nonnull align 8 dereferenceable(49) %value_2, ptr noundef nonnull align 8 dereferenceable(49) %value_) #3
  %1 = load ptr, ptr %other.addr, align 8
  %value_3 = getelementptr inbounds %"class.grpc_core::experimental::Json", ptr %1, i32 0, i32 0
  %call4 = call noundef nonnull align 8 dereferenceable(49) ptr @_ZNSt7variantIJSt9monostatebN9grpc_core12experimental4Json11NumberValueENSt7__cxx1112basic_stringIcSt11char_traitsIcESaIcEEESt3mapISA_S3_St4lessISA_ESaISt4pairIKSA_S3_EEESt6vectorIS3_SaIS3_EEEEaSIS0_EENSt9enable_ifIXaaaa14__exactly_onceINSt9_Nth_typeIX16__accepted_indexIOT_EEJS0_bS4_SA_SI_SL_EE4typeEE18is_constructible_vIST_SQ_E15is_assignable_vIRST_SQ_EERSM_E4typeESR_(ptr noundef nonnull align 8 dereferenceable(49) %value_3, ptr noundef nonnull align 1 dereferenceable(1) %ref.tmp) #3
  ret ptr %this1
}

; Function Attrs: nounwind
declare void @_ZNSaIcED1Ev(ptr noundef nonnull align 1 dereferenceable(1)) unnamed_addr #2

; Function Attrs: mustprogress nounwind uwtable
define linkonce_odr void @_ZN9grpc_core12experimental4JsonD2Ev(ptr noundef nonnull align 8 dereferenceable(56) %this) unnamed_addr #4 comdat align 2 {
entry:
  %this.addr = alloca ptr, align 8
  store ptr %this, ptr %this.addr, align 8
  %this1 = load ptr, ptr %this.addr, align 8
  %value_ = getelementptr inbounds %"class.grpc_core::experimental::Json", ptr %this1, i32 0, i32 0
  call void @_ZNSt7variantIJSt9monostatebN9grpc_core12experimental4Json11NumberValueENSt7__cxx1112basic_stringIcSt11char_traitsIcESaIcEEESt3mapISA_S3_St4lessISA_ESaISt4pairIKSA_S3_EEESt6vectorIS3_SaIS3_EEEED2Ev(ptr noundef nonnull align 8 dereferenceable(49) %value_) #3
  ret void
}

; Function Attrs: mustprogress uwtable
define linkonce_odr zeroext i1 @envoy_extensions_filters_http_fault_v3_FaultAbort_has_header_abort(ptr noundef %msg) #5 comdat {
entry:
  %msg.addr = alloca ptr, align 8
  %field = alloca %struct.upb_MiniTableField, align 4
  store ptr %msg, ptr %msg.addr, align 8
  call void @llvm.memcpy.p0.p0.i64(ptr align 4 %field, ptr align 4 @__const.envoy_extensions_filters_http_fault_v3_FaultAbort_has_header_abort.field, i64 12, i1 false)
  %0 = load ptr, ptr %msg.addr, align 8
  %call = call zeroext i1 @_upb_Message_HasNonExtensionField(ptr noundef %0, ptr noundef %field)
  ret i1 %call
}

; Function Attrs: mustprogress uwtable
define linkonce_odr ptr @envoy_extensions_filters_http_fault_v3_FaultAbort_percentage(ptr noundef %msg) #5 comdat {
entry:
  %msg.addr.i = alloca ptr, align 8
  %field.addr.i = alloca ptr, align 8
  %default_val.addr.i = alloca ptr, align 8
  %val.addr.i = alloca ptr, align 8
  %msg.addr = alloca ptr, align 8
  %default_val = alloca ptr, align 8
  %ret = alloca ptr, align 8
  %field = alloca %struct.upb_MiniTableField, align 4
  store ptr %msg, ptr %msg.addr, align 8
  store ptr null, ptr %default_val, align 8
  call void @llvm.memcpy.p0.p0.i64(ptr align 4 %field, ptr align 4 @__const.envoy_extensions_filters_http_fault_v3_FaultAbort_percentage.field, i64 12, i1 false)
  %0 = load ptr, ptr %msg.addr, align 8
  store ptr %0, ptr %msg.addr.i, align 8
  store ptr %field, ptr %field.addr.i, align 8
  store ptr %default_val, ptr %default_val.addr.i, align 8
  store ptr %ret, ptr %val.addr.i, align 8
  %1 = load ptr, ptr %field.addr.i, align 8
  %call.i = call zeroext i1 @upb_MiniTableField_IsExtension(ptr noundef %1)
  br i1 %call.i, label %if.then.i, label %if.end.i

if.then.i:                                        ; preds = %entry
  unreachable

if.end.i:                                         ; preds = %entry
  %2 = load ptr, ptr %field.addr.i, align 8
  %call1.i = call zeroext i1 @_upb_MiniTableField_InOneOf(ptr noundef %2)
  br i1 %call1.i, label %land.lhs.true.i, label %lor.lhs.false.i

lor.lhs.false.i:                                  ; preds = %if.end.i
  %3 = load ptr, ptr %default_val.addr.i, align 8
  %4 = load ptr, ptr %field.addr.i, align 8
  %call2.i = call zeroext i1 @_upb_MiniTable_ValueIsNonZero(ptr noundef %3, ptr noundef %4)
  br i1 %call2.i, label %land.lhs.true.i, label %if.end5.i

land.lhs.true.i:                                  ; preds = %lor.lhs.false.i, %if.end.i
  %5 = load ptr, ptr %msg.addr.i, align 8
  %6 = load ptr, ptr %field.addr.i, align 8
  %call3.i = call zeroext i1 @_upb_Message_HasNonExtensionField(ptr noundef %5, ptr noundef %6)
  br i1 %call3.i, label %if.end5.i, label %if.then4.i

if.then4.i:                                       ; preds = %land.lhs.true.i
  %7 = load ptr, ptr %val.addr.i, align 8
  %8 = load ptr, ptr %default_val.addr.i, align 8
  %9 = load ptr, ptr %field.addr.i, align 8
  call void @_upb_MiniTable_CopyFieldData(ptr noundef %7, ptr noundef %8, ptr noundef %9)
  br label %_ZL33_upb_Message_GetNonExtensionFieldPKvPK18upb_MiniTableFieldS0_Pv.exit

if.end5.i:                                        ; preds = %land.lhs.true.i, %lor.lhs.false.i
  %10 = load ptr, ptr %val.addr.i, align 8
  %11 = load ptr, ptr %msg.addr.i, align 8
  %12 = load ptr, ptr %field.addr.i, align 8
  %call6.i = call ptr @_upb_MiniTableField_GetConstPtr(ptr noundef %11, ptr noundef %12)
  %13 = load ptr, ptr %field.addr.i, align 8
  call void @_upb_MiniTable_CopyFieldData(ptr noundef %10, ptr noundef %call6.i, ptr noundef %13)
  br label %_ZL33_upb_Message_GetNonExtensionFieldPKvPK18upb_MiniTableFieldS0_Pv.exit

_ZL33_upb_Message_GetNonExtensionFieldPKvPK18upb_MiniTableFieldS0_Pv.exit: ; preds = %if.end5.i, %if.then4.i
  %14 = load ptr, ptr %ret, align 8
  ret ptr %14
}

; Function Attrs: mustprogress uwtable
define linkonce_odr void @_ZN9grpc_core12experimental4Json10FromNumberEj(ptr noalias sret(%"class.grpc_core::experimental::Json") align 8 %agg.result, i32 noundef %value) #5 comdat align 2 personality ptr @__gxx_personality_v0 {
entry:
  %result.ptr = alloca ptr, align 8
  %value.addr = alloca i32, align 4
  %nrvo = alloca i1, align 1
  %ref.tmp = alloca %"struct.grpc_core::experimental::Json::NumberValue", align 8
  %ref.tmp2 = alloca %"class.absl::lts_20230802::AlphaNum", align 8
  %exn.slot = alloca ptr, align 8
  %ehselector.slot = alloca i32, align 4
  store ptr %agg.result, ptr %result.ptr, align 8
  store i32 %value, ptr %value.addr, align 4
  store i1 false, ptr %nrvo, align 1
  call void @_ZN9grpc_core12experimental4JsonC2Ev(ptr noundef nonnull align 8 dereferenceable(56) %agg.result) #3
  %value1 = getelementptr inbounds %"struct.grpc_core::experimental::Json::NumberValue", ptr %ref.tmp, i32 0, i32 0
  %0 = load i32, ptr %value.addr, align 4
  invoke void @_ZN4absl12lts_202308028AlphaNumC2Ej(ptr noundef nonnull align 8 dereferenceable(48) %ref.tmp2, i32 noundef %0)
          to label %invoke.cont unwind label %lpad

invoke.cont:                                      ; preds = %entry
  invoke void @_ZN4absl12lts_202308026StrCatB5cxx11ERKNS0_8AlphaNumE(ptr sret(%"class.std::__cxx11::basic_string") align 8 %value1, ptr noundef nonnull align 8 dereferenceable(48) %ref.tmp2)
          to label %invoke.cont3 unwind label %lpad

invoke.cont3:                                     ; preds = %invoke.cont
  %value_ = getelementptr inbounds %"class.grpc_core::experimental::Json", ptr %agg.result, i32 0, i32 0
  %call = call noundef nonnull align 8 dereferenceable(49) ptr @_ZNSt7variantIJSt9monostatebN9grpc_core12experimental4Json11NumberValueENSt7__cxx1112basic_stringIcSt11char_traitsIcESaIcEEESt3mapISA_S3_St4lessISA_ESaISt4pairIKSA_S3_EEESt6vectorIS3_SaIS3_EEEEaSIS4_EENSt9enable_ifIXaaaa14__exactly_onceINSt9_Nth_typeIX16__accepted_indexIOT_EEJS0_bS4_SA_SI_SL_EE4typeEE18is_constructible_vIST_SQ_E15is_assignable_vIRST_SQ_EERSM_E4typeESR_(ptr noundef nonnull align 8 dereferenceable(49) %value_, ptr noundef nonnull align 8 dereferenceable(32) %ref.tmp) #3
  call void @_ZN9grpc_core12experimental4Json11NumberValueD2Ev(ptr noundef nonnull align 8 dereferenceable(32) %ref.tmp) #3
  store i1 true, ptr %nrvo, align 1
  %nrvo.val = load i1, ptr %nrvo, align 1
  br i1 %nrvo.val, label %nrvo.skipdtor, label %nrvo.unused

lpad:                                             ; preds = %invoke.cont, %entry
  %1 = landingpad { ptr, i32 }
          cleanup
  %2 = extractvalue { ptr, i32 } %1, 0
  store ptr %2, ptr %exn.slot, align 8
  %3 = extractvalue { ptr, i32 } %1, 1
  store i32 %3, ptr %ehselector.slot, align 4
  call void @_ZN9grpc_core12experimental4JsonD2Ev(ptr noundef nonnull align 8 dereferenceable(56) %agg.result) #3
  br label %eh.resume

nrvo.unused:                                      ; preds = %invoke.cont3
  call void @_ZN9grpc_core12experimental4JsonD2Ev(ptr noundef nonnull align 8 dereferenceable(56) %agg.result) #3
  br label %nrvo.skipdtor

nrvo.skipdtor:                                    ; preds = %nrvo.unused, %invoke.cont3
  ret void

eh.resume:                                        ; preds = %lpad
  %exn = load ptr, ptr %exn.slot, align 8
  %sel = load i32, ptr %ehselector.slot, align 4
  %lpad.val = insertvalue { ptr, i32 } poison, ptr %exn, 0
  %lpad.val4 = insertvalue { ptr, i32 } %lpad.val, i32 %sel, 1
  resume { ptr, i32 } %lpad.val4
}

; Function Attrs: mustprogress uwtable
define linkonce_odr i32 @envoy_type_v3_FractionalPercent_numerator(ptr noundef %msg) #5 comdat {
entry:
  %msg.addr.i = alloca ptr, align 8
  %field.addr.i = alloca ptr, align 8
  %default_val.addr.i = alloca ptr, align 8
  %val.addr.i = alloca ptr, align 8
  %msg.addr = alloca ptr, align 8
  %default_val = alloca i32, align 4
  %ret = alloca i32, align 4
  %field = alloca %struct.upb_MiniTableField, align 4
  store ptr %msg, ptr %msg.addr, align 8
  store i32 0, ptr %default_val, align 4
  call void @llvm.memcpy.p0.p0.i64(ptr align 4 %field, ptr align 4 @__const.envoy_type_v3_FractionalPercent_numerator.field, i64 12, i1 false)
  %0 = load ptr, ptr %msg.addr, align 8
  store ptr %0, ptr %msg.addr.i, align 8
  store ptr %field, ptr %field.addr.i, align 8
  store ptr %default_val, ptr %default_val.addr.i, align 8
  store ptr %ret, ptr %val.addr.i, align 8
  %1 = load ptr, ptr %field.addr.i, align 8
  %call.i = call zeroext i1 @upb_MiniTableField_IsExtension(ptr noundef %1)
  br i1 %call.i, label %if.then.i, label %if.end.i

if.then.i:                                        ; preds = %entry
  unreachable

if.end.i:                                         ; preds = %entry
  %2 = load ptr, ptr %field.addr.i, align 8
  %call1.i = call zeroext i1 @_upb_MiniTableField_InOneOf(ptr noundef %2)
  br i1 %call1.i, label %land.lhs.true.i, label %lor.lhs.false.i

lor.lhs.false.i:                                  ; preds = %if.end.i
  %3 = load ptr, ptr %default_val.addr.i, align 8
  %4 = load ptr, ptr %field.addr.i, align 8
  %call2.i = call zeroext i1 @_upb_MiniTable_ValueIsNonZero(ptr noundef %3, ptr noundef %4)
  br i1 %call2.i, label %land.lhs.true.i, label %if.end5.i

land.lhs.true.i:                                  ; preds = %lor.lhs.false.i, %if.end.i
  %5 = load ptr, ptr %msg.addr.i, align 8
  %6 = load ptr, ptr %field.addr.i, align 8
  %call3.i = call zeroext i1 @_upb_Message_HasNonExtensionField(ptr noundef %5, ptr noundef %6)
  br i1 %call3.i, label %if.end5.i, label %if.then4.i

if.then4.i:                                       ; preds = %land.lhs.true.i
  %7 = load ptr, ptr %val.addr.i, align 8
  %8 = load ptr, ptr %default_val.addr.i, align 8
  %9 = load ptr, ptr %field.addr.i, align 8
  call void @_upb_MiniTable_CopyFieldData(ptr noundef %7, ptr noundef %8, ptr noundef %9)
  br label %_ZL33_upb_Message_GetNonExtensionFieldPKvPK18upb_MiniTableFieldS0_Pv.exit

if.end5.i:                                        ; preds = %land.lhs.true.i, %lor.lhs.false.i
  %10 = load ptr, ptr %val.addr.i, align 8
  %11 = load ptr, ptr %msg.addr.i, align 8
  %12 = load ptr, ptr %field.addr.i, align 8
  %call6.i = call ptr @_upb_MiniTableField_GetConstPtr(ptr noundef %11, ptr noundef %12)
  %13 = load ptr, ptr %field.addr.i, align 8
  call void @_upb_MiniTable_CopyFieldData(ptr noundef %10, ptr noundef %call6.i, ptr noundef %13)
  br label %_ZL33_upb_Message_GetNonExtensionFieldPKvPK18upb_MiniTableFieldS0_Pv.exit

_ZL33_upb_Message_GetNonExtensionFieldPKvPK18upb_MiniTableFieldS0_Pv.exit: ; preds = %if.end5.i, %if.then4.i
  %14 = load i32, ptr %ret, align 4
  ret i32 %14
}

; Function Attrs: mustprogress uwtable
define internal noundef i32 @_ZN9grpc_core12_GLOBAL__N_114GetDenominatorEPK31envoy_type_v3_FractionalPercent(ptr noundef %fraction) #5 {
entry:
  %retval = alloca i32, align 4
  %fraction.addr = alloca ptr, align 8
  %denominator = alloca i32, align 4
  store ptr %fraction, ptr %fraction.addr, align 8
  %0 = load ptr, ptr %fraction.addr, align 8
  %cmp = icmp ne ptr %0, null
  br i1 %cmp, label %if.then, label %if.end

if.then:                                          ; preds = %entry
  %1 = load ptr, ptr %fraction.addr, align 8
  %call = call i32 @envoy_type_v3_FractionalPercent_denominator(ptr noundef %1)
  store i32 %call, ptr %denominator, align 4
  %2 = load i32, ptr %denominator, align 4
  switch i32 %2, label %sw.default [
    i32 2, label %sw.bb
    i32 1, label %sw.bb1
    i32 0, label %sw.bb2
  ]

sw.bb:                                            ; preds = %if.then
  store i32 1000000, ptr %retval, align 4
  br label %return

sw.bb1:                                           ; preds = %if.then
  store i32 10000, ptr %retval, align 4
  br label %return

sw.bb2:                                           ; preds = %if.then
  br label %sw.default

sw.default:                                       ; preds = %sw.bb2, %if.then
  store i32 100, ptr %retval, align 4
  br label %return

if.end:                                           ; preds = %entry
  store i32 100, ptr %retval, align 4
  br label %return

return:                                           ; preds = %if.end, %sw.default, %sw.bb1, %sw.bb
  %3 = load i32, ptr %retval, align 4
  ret i32 %3
}

; Function Attrs: mustprogress uwtable
define linkonce_odr ptr @envoy_extensions_filters_http_fault_v3_HTTPFault_delay(ptr noundef %msg) #5 comdat {
entry:
  %msg.addr.i = alloca ptr, align 8
  %field.addr.i = alloca ptr, align 8
  %default_val.addr.i = alloca ptr, align 8
  %val.addr.i = alloca ptr, align 8
  %msg.addr = alloca ptr, align 8
  %default_val = alloca ptr, align 8
  %ret = alloca ptr, align 8
  %field = alloca %struct.upb_MiniTableField, align 4
  store ptr %msg, ptr %msg.addr, align 8
  store ptr null, ptr %default_val, align 8
  call void @llvm.memcpy.p0.p0.i64(ptr align 4 %field, ptr align 4 @__const.envoy_extensions_filters_http_fault_v3_HTTPFault_delay.field, i64 12, i1 false)
  %0 = load ptr, ptr %msg.addr, align 8
  store ptr %0, ptr %msg.addr.i, align 8
  store ptr %field, ptr %field.addr.i, align 8
  store ptr %default_val, ptr %default_val.addr.i, align 8
  store ptr %ret, ptr %val.addr.i, align 8
  %1 = load ptr, ptr %field.addr.i, align 8
  %call.i = call zeroext i1 @upb_MiniTableField_IsExtension(ptr noundef %1)
  br i1 %call.i, label %if.then.i, label %if.end.i

if.then.i:                                        ; preds = %entry
  unreachable

if.end.i:                                         ; preds = %entry
  %2 = load ptr, ptr %field.addr.i, align 8
  %call1.i = call zeroext i1 @_upb_MiniTableField_InOneOf(ptr noundef %2)
  br i1 %call1.i, label %land.lhs.true.i, label %lor.lhs.false.i

lor.lhs.false.i:                                  ; preds = %if.end.i
  %3 = load ptr, ptr %default_val.addr.i, align 8
  %4 = load ptr, ptr %field.addr.i, align 8
  %call2.i = call zeroext i1 @_upb_MiniTable_ValueIsNonZero(ptr noundef %3, ptr noundef %4)
  br i1 %call2.i, label %land.lhs.true.i, label %if.end5.i

land.lhs.true.i:                                  ; preds = %lor.lhs.false.i, %if.end.i
  %5 = load ptr, ptr %msg.addr.i, align 8
  %6 = load ptr, ptr %field.addr.i, align 8
  %call3.i = call zeroext i1 @_upb_Message_HasNonExtensionField(ptr noundef %5, ptr noundef %6)
  br i1 %call3.i, label %if.end5.i, label %if.then4.i

if.then4.i:                                       ; preds = %land.lhs.true.i
  %7 = load ptr, ptr %val.addr.i, align 8
  %8 = load ptr, ptr %default_val.addr.i, align 8
  %9 = load ptr, ptr %field.addr.i, align 8
  call void @_upb_MiniTable_CopyFieldData(ptr noundef %7, ptr noundef %8, ptr noundef %9)
  br label %_ZL33_upb_Message_GetNonExtensionFieldPKvPK18upb_MiniTableFieldS0_Pv.exit

if.end5.i:                                        ; preds = %land.lhs.true.i, %lor.lhs.false.i
  %10 = load ptr, ptr %val.addr.i, align 8
  %11 = load ptr, ptr %msg.addr.i, align 8
  %12 = load ptr, ptr %field.addr.i, align 8
  %call6.i = call ptr @_upb_MiniTableField_GetConstPtr(ptr noundef %11, ptr noundef %12)
  %13 = load ptr, ptr %field.addr.i, align 8
  call void @_upb_MiniTable_CopyFieldData(ptr noundef %10, ptr noundef %call6.i, ptr noundef %13)
  br label %_ZL33_upb_Message_GetNonExtensionFieldPKvPK18upb_MiniTableFieldS0_Pv.exit

_ZL33_upb_Message_GetNonExtensionFieldPKvPK18upb_MiniTableFieldS0_Pv.exit: ; preds = %if.end5.i, %if.then4.i
  %14 = load ptr, ptr %ret, align 8
  ret ptr %14
}

; Function Attrs: mustprogress uwtable
define linkonce_odr ptr @envoy_extensions_filters_common_fault_v3_FaultDelay_fixed_delay(ptr noundef %msg) #5 comdat {
entry:
  %msg.addr.i = alloca ptr, align 8
  %field.addr.i = alloca ptr, align 8
  %default_val.addr.i = alloca ptr, align 8
  %val.addr.i = alloca ptr, align 8
  %msg.addr = alloca ptr, align 8
  %default_val = alloca ptr, align 8
  %ret = alloca ptr, align 8
  %field = alloca %struct.upb_MiniTableField, align 4
  store ptr %msg, ptr %msg.addr, align 8
  store ptr null, ptr %default_val, align 8
  call void @llvm.memcpy.p0.p0.i64(ptr align 4 %field, ptr align 4 @__const.envoy_extensions_filters_common_fault_v3_FaultDelay_fixed_delay.field, i64 12, i1 false)
  %0 = load ptr, ptr %msg.addr, align 8
  store ptr %0, ptr %msg.addr.i, align 8
  store ptr %field, ptr %field.addr.i, align 8
  store ptr %default_val, ptr %default_val.addr.i, align 8
  store ptr %ret, ptr %val.addr.i, align 8
  %1 = load ptr, ptr %field.addr.i, align 8
  %call.i = call zeroext i1 @upb_MiniTableField_IsExtension(ptr noundef %1)
  br i1 %call.i, label %if.then.i, label %if.end.i

if.then.i:                                        ; preds = %entry
  unreachable

if.end.i:                                         ; preds = %entry
  %2 = load ptr, ptr %field.addr.i, align 8
  %call1.i = call zeroext i1 @_upb_MiniTableField_InOneOf(ptr noundef %2)
  br i1 %call1.i, label %land.lhs.true.i, label %lor.lhs.false.i

lor.lhs.false.i:                                  ; preds = %if.end.i
  %3 = load ptr, ptr %default_val.addr.i, align 8
  %4 = load ptr, ptr %field.addr.i, align 8
  %call2.i = call zeroext i1 @_upb_MiniTable_ValueIsNonZero(ptr noundef %3, ptr noundef %4)
  br i1 %call2.i, label %land.lhs.true.i, label %if.end5.i

land.lhs.true.i:                                  ; preds = %lor.lhs.false.i, %if.end.i
  %5 = load ptr, ptr %msg.addr.i, align 8
  %6 = load ptr, ptr %field.addr.i, align 8
  %call3.i = call zeroext i1 @_upb_Message_HasNonExtensionField(ptr noundef %5, ptr noundef %6)
  br i1 %call3.i, label %if.end5.i, label %if.then4.i

if.then4.i:                                       ; preds = %land.lhs.true.i
  %7 = load ptr, ptr %val.addr.i, align 8
  %8 = load ptr, ptr %default_val.addr.i, align 8
  %9 = load ptr, ptr %field.addr.i, align 8
  call void @_upb_MiniTable_CopyFieldData(ptr noundef %7, ptr noundef %8, ptr noundef %9)
  br label %_ZL33_upb_Message_GetNonExtensionFieldPKvPK18upb_MiniTableFieldS0_Pv.exit

if.end5.i:                                        ; preds = %land.lhs.true.i, %lor.lhs.false.i
  %10 = load ptr, ptr %val.addr.i, align 8
  %11 = load ptr, ptr %msg.addr.i, align 8
  %12 = load ptr, ptr %field.addr.i, align 8
  %call6.i = call ptr @_upb_MiniTableField_GetConstPtr(ptr noundef %11, ptr noundef %12)
  %13 = load ptr, ptr %field.addr.i, align 8
  call void @_upb_MiniTable_CopyFieldData(ptr noundef %10, ptr noundef %call6.i, ptr noundef %13)
  br label %_ZL33_upb_Message_GetNonExtensionFieldPKvPK18upb_MiniTableFieldS0_Pv.exit

_ZL33_upb_Message_GetNonExtensionFieldPKvPK18upb_MiniTableFieldS0_Pv.exit: ; preds = %if.end5.i, %if.then4.i
  %14 = load ptr, ptr %ret, align 8
  ret ptr %14
}

declare i64 @_ZN9grpc_core13ParseDurationEPK24google_protobuf_DurationPNS_16ValidationErrorsE(ptr noundef, ptr noundef) #1

; Function Attrs: mustprogress nounwind uwtable
define linkonce_odr void @_ZN9grpc_core12experimental4Json10FromStringEONSt7__cxx1112basic_stringIcSt11char_traitsIcESaIcEEE(ptr noalias sret(%"class.grpc_core::experimental::Json") align 8 %agg.result, ptr noundef nonnull align 8 dereferenceable(32) %str) #4 comdat align 2 {
entry:
  %result.ptr = alloca ptr, align 8
  %str.addr = alloca ptr, align 8
  %nrvo = alloca i1, align 1
  store ptr %agg.result, ptr %result.ptr, align 8
  store ptr %str, ptr %str.addr, align 8
  store i1 false, ptr %nrvo, align 1
  call void @_ZN9grpc_core12experimental4JsonC2Ev(ptr noundef nonnull align 8 dereferenceable(56) %agg.result) #3
  %0 = load ptr, ptr %str.addr, align 8
  %value_ = getelementptr inbounds %"class.grpc_core::experimental::Json", ptr %agg.result, i32 0, i32 0
  %call = call noundef nonnull align 8 dereferenceable(49) ptr @_ZNSt7variantIJSt9monostatebN9grpc_core12experimental4Json11NumberValueENSt7__cxx1112basic_stringIcSt11char_traitsIcESaIcEEESt3mapISA_S3_St4lessISA_ESaISt4pairIKSA_S3_EEESt6vectorIS3_SaIS3_EEEEaSISA_EENSt9enable_ifIXaaaa14__exactly_onceINSt9_Nth_typeIX16__accepted_indexIOT_EEJS0_bS4_SA_SI_SL_EE4typeEE18is_constructible_vIST_SQ_E15is_assignable_vIRST_SQ_EERSM_E4typeESR_(ptr noundef nonnull align 8 dereferenceable(49) %value_, ptr noundef nonnull align 8 dereferenceable(32) %0) #3
  store i1 true, ptr %nrvo, align 1
  %nrvo.val = load i1, ptr %nrvo, align 1
  br i1 %nrvo.val, label %nrvo.skipdtor, label %nrvo.unused

nrvo.unused:                                      ; preds = %entry
  call void @_ZN9grpc_core12experimental4JsonD2Ev(ptr noundef nonnull align 8 dereferenceable(56) %agg.result) #3
  br label %nrvo.skipdtor

nrvo.skipdtor:                                    ; preds = %nrvo.unused, %entry
  ret void
}

declare void @_ZNK9grpc_core8Duration12ToJsonStringB5cxx11Ev(ptr sret(%"class.std::__cxx11::basic_string") align 8, ptr noundef nonnull align 8 dereferenceable(8)) #1

; Function Attrs: mustprogress uwtable
define linkonce_odr zeroext i1 @envoy_extensions_filters_common_fault_v3_FaultDelay_has_header_delay(ptr noundef %msg) #5 comdat {
entry:
  %msg.addr = alloca ptr, align 8
  %field = alloca %struct.upb_MiniTableField, align 4
  store ptr %msg, ptr %msg.addr, align 8
  call void @llvm.memcpy.p0.p0.i64(ptr align 4 %field, ptr align 4 @__const.envoy_extensions_filters_common_fault_v3_FaultDelay_has_header_delay.field, i64 12, i1 false)
  %0 = load ptr, ptr %msg.addr, align 8
  %call = call zeroext i1 @_upb_Message_HasNonExtensionField(ptr noundef %0, ptr noundef %field)
  ret i1 %call
}

; Function Attrs: mustprogress uwtable
define linkonce_odr ptr @envoy_extensions_filters_common_fault_v3_FaultDelay_percentage(ptr noundef %msg) #5 comdat {
entry:
  %msg.addr.i = alloca ptr, align 8
  %field.addr.i = alloca ptr, align 8
  %default_val.addr.i = alloca ptr, align 8
  %val.addr.i = alloca ptr, align 8
  %msg.addr = alloca ptr, align 8
  %default_val = alloca ptr, align 8
  %ret = alloca ptr, align 8
  %field = alloca %struct.upb_MiniTableField, align 4
  store ptr %msg, ptr %msg.addr, align 8
  store ptr null, ptr %default_val, align 8
  call void @llvm.memcpy.p0.p0.i64(ptr align 4 %field, ptr align 4 @__const.envoy_extensions_filters_common_fault_v3_FaultDelay_percentage.field, i64 12, i1 false)
  %0 = load ptr, ptr %msg.addr, align 8
  store ptr %0, ptr %msg.addr.i, align 8
  store ptr %field, ptr %field.addr.i, align 8
  store ptr %default_val, ptr %default_val.addr.i, align 8
  store ptr %ret, ptr %val.addr.i, align 8
  %1 = load ptr, ptr %field.addr.i, align 8
  %call.i = call zeroext i1 @upb_MiniTableField_IsExtension(ptr noundef %1)
  br i1 %call.i, label %if.then.i, label %if.end.i

if.then.i:                                        ; preds = %entry
  unreachable

if.end.i:                                         ; preds = %entry
  %2 = load ptr, ptr %field.addr.i, align 8
  %call1.i = call zeroext i1 @_upb_MiniTableField_InOneOf(ptr noundef %2)
  br i1 %call1.i, label %land.lhs.true.i, label %lor.lhs.false.i

lor.lhs.false.i:                                  ; preds = %if.end.i
  %3 = load ptr, ptr %default_val.addr.i, align 8
  %4 = load ptr, ptr %field.addr.i, align 8
  %call2.i = call zeroext i1 @_upb_MiniTable_ValueIsNonZero(ptr noundef %3, ptr noundef %4)
  br i1 %call2.i, label %land.lhs.true.i, label %if.end5.i

land.lhs.true.i:                                  ; preds = %lor.lhs.false.i, %if.end.i
  %5 = load ptr, ptr %msg.addr.i, align 8
  %6 = load ptr, ptr %field.addr.i, align 8
  %call3.i = call zeroext i1 @_upb_Message_HasNonExtensionField(ptr noundef %5, ptr noundef %6)
  br i1 %call3.i, label %if.end5.i, label %if.then4.i

if.then4.i:                                       ; preds = %land.lhs.true.i
  %7 = load ptr, ptr %val.addr.i, align 8
  %8 = load ptr, ptr %default_val.addr.i, align 8
  %9 = load ptr, ptr %field.addr.i, align 8
  call void @_upb_MiniTable_CopyFieldData(ptr noundef %7, ptr noundef %8, ptr noundef %9)
  br label %_ZL33_upb_Message_GetNonExtensionFieldPKvPK18upb_MiniTableFieldS0_Pv.exit

if.end5.i:                                        ; preds = %land.lhs.true.i, %lor.lhs.false.i
  %10 = load ptr, ptr %val.addr.i, align 8
  %11 = load ptr, ptr %msg.addr.i, align 8
  %12 = load ptr, ptr %field.addr.i, align 8
  %call6.i = call ptr @_upb_MiniTableField_GetConstPtr(ptr noundef %11, ptr noundef %12)
  %13 = load ptr, ptr %field.addr.i, align 8
  call void @_upb_MiniTable_CopyFieldData(ptr noundef %10, ptr noundef %call6.i, ptr noundef %13)
  br label %_ZL33_upb_Message_GetNonExtensionFieldPKvPK18upb_MiniTableFieldS0_Pv.exit

_ZL33_upb_Message_GetNonExtensionFieldPKvPK18upb_MiniTableFieldS0_Pv.exit: ; preds = %if.end5.i, %if.then4.i
  %14 = load ptr, ptr %ret, align 8
  ret ptr %14
}

; Function Attrs: mustprogress uwtable
define linkonce_odr ptr @envoy_extensions_filters_http_fault_v3_HTTPFault_max_active_faults(ptr noundef %msg) #5 comdat {
entry:
  %msg.addr.i = alloca ptr, align 8
  %field.addr.i = alloca ptr, align 8
  %default_val.addr.i = alloca ptr, align 8
  %val.addr.i = alloca ptr, align 8
  %msg.addr = alloca ptr, align 8
  %default_val = alloca ptr, align 8
  %ret = alloca ptr, align 8
  %field = alloca %struct.upb_MiniTableField, align 4
  store ptr %msg, ptr %msg.addr, align 8
  store ptr null, ptr %default_val, align 8
  call void @llvm.memcpy.p0.p0.i64(ptr align 4 %field, ptr align 4 @__const.envoy_extensions_filters_http_fault_v3_HTTPFault_max_active_faults.field, i64 12, i1 false)
  %0 = load ptr, ptr %msg.addr, align 8
  store ptr %0, ptr %msg.addr.i, align 8
  store ptr %field, ptr %field.addr.i, align 8
  store ptr %default_val, ptr %default_val.addr.i, align 8
  store ptr %ret, ptr %val.addr.i, align 8
  %1 = load ptr, ptr %field.addr.i, align 8
  %call.i = call zeroext i1 @upb_MiniTableField_IsExtension(ptr noundef %1)
  br i1 %call.i, label %if.then.i, label %if.end.i

if.then.i:                                        ; preds = %entry
  unreachable

if.end.i:                                         ; preds = %entry
  %2 = load ptr, ptr %field.addr.i, align 8
  %call1.i = call zeroext i1 @_upb_MiniTableField_InOneOf(ptr noundef %2)
  br i1 %call1.i, label %land.lhs.true.i, label %lor.lhs.false.i

lor.lhs.false.i:                                  ; preds = %if.end.i
  %3 = load ptr, ptr %default_val.addr.i, align 8
  %4 = load ptr, ptr %field.addr.i, align 8
  %call2.i = call zeroext i1 @_upb_MiniTable_ValueIsNonZero(ptr noundef %3, ptr noundef %4)
  br i1 %call2.i, label %land.lhs.true.i, label %if.end5.i

land.lhs.true.i:                                  ; preds = %lor.lhs.false.i, %if.end.i
  %5 = load ptr, ptr %msg.addr.i, align 8
  %6 = load ptr, ptr %field.addr.i, align 8
  %call3.i = call zeroext i1 @_upb_Message_HasNonExtensionField(ptr noundef %5, ptr noundef %6)
  br i1 %call3.i, label %if.end5.i, label %if.then4.i

if.then4.i:                                       ; preds = %land.lhs.true.i
  %7 = load ptr, ptr %val.addr.i, align 8
  %8 = load ptr, ptr %default_val.addr.i, align 8
  %9 = load ptr, ptr %field.addr.i, align 8
  call void @_upb_MiniTable_CopyFieldData(ptr noundef %7, ptr noundef %8, ptr noundef %9)
  br label %_ZL33_upb_Message_GetNonExtensionFieldPKvPK18upb_MiniTableFieldS0_Pv.exit

if.end5.i:                                        ; preds = %land.lhs.true.i, %lor.lhs.false.i
  %10 = load ptr, ptr %val.addr.i, align 8
  %11 = load ptr, ptr %msg.addr.i, align 8
  %12 = load ptr, ptr %field.addr.i, align 8
  %call6.i = call ptr @_upb_MiniTableField_GetConstPtr(ptr noundef %11, ptr noundef %12)
  %13 = load ptr, ptr %field.addr.i, align 8
  call void @_upb_MiniTable_CopyFieldData(ptr noundef %10, ptr noundef %call6.i, ptr noundef %13)
  br label %_ZL33_upb_Message_GetNonExtensionFieldPKvPK18upb_MiniTableFieldS0_Pv.exit

_ZL33_upb_Message_GetNonExtensionFieldPKvPK18upb_MiniTableFieldS0_Pv.exit: ; preds = %if.end5.i, %if.then4.i
  %14 = load ptr, ptr %ret, align 8
  ret ptr %14
}

; Function Attrs: mustprogress uwtable
define linkonce_odr i32 @google_protobuf_UInt32Value_value(ptr noundef %msg) #5 comdat {
entry:
  %msg.addr.i = alloca ptr, align 8
  %field.addr.i = alloca ptr, align 8
  %default_val.addr.i = alloca ptr, align 8
  %val.addr.i = alloca ptr, align 8
  %msg.addr = alloca ptr, align 8
  %default_val = alloca i32, align 4
  %ret = alloca i32, align 4
  %field = alloca %struct.upb_MiniTableField, align 4
  store ptr %msg, ptr %msg.addr, align 8
  store i32 0, ptr %default_val, align 4
  call void @llvm.memcpy.p0.p0.i64(ptr align 4 %field, ptr align 4 @__const.google_protobuf_UInt32Value_value.field, i64 12, i1 false)
  %0 = load ptr, ptr %msg.addr, align 8
  store ptr %0, ptr %msg.addr.i, align 8
  store ptr %field, ptr %field.addr.i, align 8
  store ptr %default_val, ptr %default_val.addr.i, align 8
  store ptr %ret, ptr %val.addr.i, align 8
  %1 = load ptr, ptr %field.addr.i, align 8
  %call.i = call zeroext i1 @upb_MiniTableField_IsExtension(ptr noundef %1)
  br i1 %call.i, label %if.then.i, label %if.end.i

if.then.i:                                        ; preds = %entry
  unreachable

if.end.i:                                         ; preds = %entry
  %2 = load ptr, ptr %field.addr.i, align 8
  %call1.i = call zeroext i1 @_upb_MiniTableField_InOneOf(ptr noundef %2)
  br i1 %call1.i, label %land.lhs.true.i, label %lor.lhs.false.i

lor.lhs.false.i:                                  ; preds = %if.end.i
  %3 = load ptr, ptr %default_val.addr.i, align 8
  %4 = load ptr, ptr %field.addr.i, align 8
  %call2.i = call zeroext i1 @_upb_MiniTable_ValueIsNonZero(ptr noundef %3, ptr noundef %4)
  br i1 %call2.i, label %land.lhs.true.i, label %if.end5.i

land.lhs.true.i:                                  ; preds = %lor.lhs.false.i, %if.end.i
  %5 = load ptr, ptr %msg.addr.i, align 8
  %6 = load ptr, ptr %field.addr.i, align 8
  %call3.i = call zeroext i1 @_upb_Message_HasNonExtensionField(ptr noundef %5, ptr noundef %6)
  br i1 %call3.i, label %if.end5.i, label %if.then4.i

if.then4.i:                                       ; preds = %land.lhs.true.i
  %7 = load ptr, ptr %val.addr.i, align 8
  %8 = load ptr, ptr %default_val.addr.i, align 8
  %9 = load ptr, ptr %field.addr.i, align 8
  call void @_upb_MiniTable_CopyFieldData(ptr noundef %7, ptr noundef %8, ptr noundef %9)
  br label %_ZL33_upb_Message_GetNonExtensionFieldPKvPK18upb_MiniTableFieldS0_Pv.exit

if.end5.i:                                        ; preds = %land.lhs.true.i, %lor.lhs.false.i
  %10 = load ptr, ptr %val.addr.i, align 8
  %11 = load ptr, ptr %msg.addr.i, align 8
  %12 = load ptr, ptr %field.addr.i, align 8
  %call6.i = call ptr @_upb_MiniTableField_GetConstPtr(ptr noundef %11, ptr noundef %12)
  %13 = load ptr, ptr %field.addr.i, align 8
  call void @_upb_MiniTable_CopyFieldData(ptr noundef %10, ptr noundef %call6.i, ptr noundef %13)
  br label %_ZL33_upb_Message_GetNonExtensionFieldPKvPK18upb_MiniTableFieldS0_Pv.exit

_ZL33_upb_Message_GetNonExtensionFieldPKvPK18upb_MiniTableFieldS0_Pv.exit: ; preds = %if.end5.i, %if.then4.i
  %14 = load i32, ptr %ret, align 4
  ret i32 %14
}

; Function Attrs: mustprogress nounwind uwtable
define linkonce_odr void @_ZN9grpc_core12experimental4Json10FromObjectEOSt3mapINSt7__cxx1112basic_stringIcSt11char_traitsIcESaIcEEES1_St4lessIS8_ESaISt4pairIKS8_S1_EEE(ptr noalias sret(%"class.grpc_core::experimental::Json") align 8 %agg.result, ptr noundef nonnull align 8 dereferenceable(48) %object) #4 comdat align 2 {
entry:
  %result.ptr = alloca ptr, align 8
  %object.addr = alloca ptr, align 8
  %nrvo = alloca i1, align 1
  store ptr %agg.result, ptr %result.ptr, align 8
  store ptr %object, ptr %object.addr, align 8
  store i1 false, ptr %nrvo, align 1
  call void @_ZN9grpc_core12experimental4JsonC2Ev(ptr noundef nonnull align 8 dereferenceable(56) %agg.result) #3
  %0 = load ptr, ptr %object.addr, align 8
  %value_ = getelementptr inbounds %"class.grpc_core::experimental::Json", ptr %agg.result, i32 0, i32 0
  %call = call noundef nonnull align 8 dereferenceable(49) ptr @_ZNSt7variantIJSt9monostatebN9grpc_core12experimental4Json11NumberValueENSt7__cxx1112basic_stringIcSt11char_traitsIcESaIcEEESt3mapISA_S3_St4lessISA_ESaISt4pairIKSA_S3_EEESt6vectorIS3_SaIS3_EEEEaSISI_EENSt9enable_ifIXaaaa14__exactly_onceINSt9_Nth_typeIX16__accepted_indexIOT_EEJS0_bS4_SA_SI_SL_EE4typeEE18is_constructible_vIST_SQ_E15is_assignable_vIRST_SQ_EERSM_E4typeESR_(ptr noundef nonnull align 8 dereferenceable(49) %value_, ptr noundef nonnull align 8 dereferenceable(48) %0) #3
  store i1 true, ptr %nrvo, align 1
  %nrvo.val = load i1, ptr %nrvo, align 1
  br i1 %nrvo.val, label %nrvo.skipdtor, label %nrvo.unused

nrvo.unused:                                      ; preds = %entry
  call void @_ZN9grpc_core12experimental4JsonD2Ev(ptr noundef nonnull align 8 dereferenceable(56) %agg.result) #3
  br label %nrvo.skipdtor

nrvo.skipdtor:                                    ; preds = %nrvo.unused, %entry
  ret void
}

; Function Attrs: mustprogress nounwind uwtable
define linkonce_odr void @_ZNSt8optionalIN9grpc_core17XdsHttpFilterImpl12FilterConfigEEC2IS2_TnNSt9enable_ifIX7__and_vISt6__not_ISt7is_sameIS3_NSt9remove_cvINSt16remove_referenceIT_E4typeEE4typeEEES6_IS7_ISt10in_place_tSE_EESt16is_constructibleIS2_JSA_EESt14is_convertibleISA_S2_EEEbE4typeELb1EEEOSA_(ptr noundef nonnull align 8 dereferenceable(80) %this, ptr noundef nonnull align 8 dereferenceable(72) %__t) unnamed_addr #4 comdat align 2 personality ptr @__gxx_personality_v0 {
entry:
  %this.addr = alloca ptr, align 8
  %__t.addr = alloca ptr, align 8
  store ptr %this, ptr %this.addr, align 8
  store ptr %__t, ptr %__t.addr, align 8
  %this1 = load ptr, ptr %this.addr, align 8
  %0 = load ptr, ptr %__t.addr, align 8
  invoke void @_ZNSt14_Optional_baseIN9grpc_core17XdsHttpFilterImpl12FilterConfigELb0ELb0EEC2IJS2_ETnNSt9enable_ifIX18is_constructible_vIS2_DpT_EEbE4typeELb0EEESt10in_place_tDpOS6_(ptr noundef nonnull align 8 dereferenceable(80) %this1, ptr noundef nonnull align 8 dereferenceable(72) %0)
          to label %invoke.cont unwind label %terminate.lpad

invoke.cont:                                      ; preds = %entry
  ret void

terminate.lpad:                                   ; preds = %entry
  %1 = landingpad { ptr, i32 }
          catch ptr null
  %2 = extractvalue { ptr, i32 } %1, 0
  call void @__clang_call_terminate(ptr %2) #14
  unreachable
}

; Function Attrs: mustprogress nounwind uwtable
define linkonce_odr void @_ZN9grpc_core17XdsHttpFilterImpl12FilterConfigD2Ev(ptr noundef nonnull align 8 dereferenceable(72) %this) unnamed_addr #4 comdat align 2 {
entry:
  %this.addr = alloca ptr, align 8
  store ptr %this, ptr %this.addr, align 8
  %this1 = load ptr, ptr %this.addr, align 8
  %config = getelementptr inbounds %"struct.grpc_core::XdsHttpFilterImpl::FilterConfig", ptr %this1, i32 0, i32 1
  call void @_ZN9grpc_core12experimental4JsonD2Ev(ptr noundef nonnull align 8 dereferenceable(56) %config) #3
  ret void
}

; Function Attrs: mustprogress nounwind uwtable
define linkonce_odr void @_ZNSt3mapINSt7__cxx1112basic_stringIcSt11char_traitsIcESaIcEEEN9grpc_core12experimental4JsonESt4lessIS5_ESaISt4pairIKS5_S8_EEED2Ev(ptr noundef nonnull align 8 dereferenceable(48) %this) unnamed_addr #4 comdat align 2 {
entry:
  %this.addr = alloca ptr, align 8
  store ptr %this, ptr %this.addr, align 8
  %this1 = load ptr, ptr %this.addr, align 8
  %_M_t = getelementptr inbounds %"class.std::map.47", ptr %this1, i32 0, i32 0
  call void @_ZNSt8_Rb_treeINSt7__cxx1112basic_stringIcSt11char_traitsIcESaIcEEESt4pairIKS5_N9grpc_core12experimental4JsonEESt10_Select1stISB_ESt4lessIS5_ESaISB_EED2Ev(ptr noundef nonnull align 8 dereferenceable(48) %_M_t) #3
  ret void
}

; Function Attrs: mustprogress uwtable
define void @_ZNK9grpc_core18XdsHttpFaultFilter28GenerateFilterConfigOverrideERKNS_15XdsResourceType13DecodeContextENS_12XdsExtensionEPNS_16ValidationErrorsE(ptr noalias sret(%"class.std::optional") align 8 %agg.result, ptr noundef nonnull align 8 dereferenceable(8) %this, ptr noundef nonnull align 8 dereferenceable(40) %context, ptr noundef %extension, ptr noundef %errors) unnamed_addr #5 align 2 personality ptr @__gxx_personality_v0 {
entry:
  %result.ptr = alloca ptr, align 8
  %this.addr = alloca ptr, align 8
  %context.addr = alloca ptr, align 8
  %extension.indirect_addr = alloca ptr, align 8
  %errors.addr = alloca ptr, align 8
  %agg.tmp = alloca %"struct.grpc_core::XdsExtension", align 8
  %exn.slot = alloca ptr, align 8
  %ehselector.slot = alloca i32, align 4
  store ptr %agg.result, ptr %result.ptr, align 8
  store ptr %this, ptr %this.addr, align 8
  store ptr %context, ptr %context.addr, align 8
  store ptr %extension, ptr %extension.indirect_addr, align 8
  store ptr %errors, ptr %errors.addr, align 8
  %this1 = load ptr, ptr %this.addr, align 8
  %0 = load ptr, ptr %context.addr, align 8
  call void @_ZN9grpc_core12XdsExtensionC2EOS0_(ptr noundef nonnull align 8 dereferenceable(104) %agg.tmp, ptr noundef nonnull align 8 dereferenceable(104) %extension) #3
  %1 = load ptr, ptr %errors.addr, align 8
  %vtable = load ptr, ptr %this1, align 8
  %vfn = getelementptr inbounds ptr, ptr %vtable, i64 5
  %2 = load ptr, ptr %vfn, align 8
  invoke void %2(ptr sret(%"class.std::optional") align 8 %agg.result, ptr noundef nonnull align 8 dereferenceable(8) %this1, ptr noundef nonnull align 8 dereferenceable(40) %0, ptr noundef %agg.tmp, ptr noundef %1)
          to label %invoke.cont unwind label %lpad

invoke.cont:                                      ; preds = %entry
  call void @_ZN9grpc_core12XdsExtensionD2Ev(ptr noundef nonnull align 8 dereferenceable(104) %agg.tmp) #3
  ret void

lpad:                                             ; preds = %entry
  %3 = landingpad { ptr, i32 }
          cleanup
  %4 = extractvalue { ptr, i32 } %3, 0
  store ptr %4, ptr %exn.slot, align 8
  %5 = extractvalue { ptr, i32 } %3, 1
  store i32 %5, ptr %ehselector.slot, align 4
  call void @_ZN9grpc_core12XdsExtensionD2Ev(ptr noundef nonnull align 8 dereferenceable(104) %agg.tmp) #3
  br label %eh.resume

eh.resume:                                        ; preds = %lpad
  %exn = load ptr, ptr %exn.slot, align 8
  %sel = load i32, ptr %ehselector.slot, align 4
  %lpad.val = insertvalue { ptr, i32 } poison, ptr %exn, 0
  %lpad.val2 = insertvalue { ptr, i32 } %lpad.val, i32 %sel, 1
  resume { ptr, i32 } %lpad.val2
}

; Function Attrs: mustprogress nounwind uwtable
define linkonce_odr void @_ZN9grpc_core12XdsExtensionC2EOS0_(ptr noundef nonnull align 8 dereferenceable(104) %this, ptr noundef nonnull align 8 dereferenceable(104) %0) unnamed_addr #4 comdat align 2 {
entry:
  %this.addr = alloca ptr, align 8
  %.addr = alloca ptr, align 8
  store ptr %this, ptr %this.addr, align 8
  store ptr %0, ptr %.addr, align 8
  %this1 = load ptr, ptr %this.addr, align 8
  %type = getelementptr inbounds %"struct.grpc_core::XdsExtension", ptr %this1, i32 0, i32 0
  %1 = load ptr, ptr %.addr, align 8
  %type2 = getelementptr inbounds %"struct.grpc_core::XdsExtension", ptr %1, i32 0, i32 0
  call void @llvm.memcpy.p0.p0.i64(ptr align 8 %type, ptr align 8 %type2, i64 16, i1 false)
  %value = getelementptr inbounds %"struct.grpc_core::XdsExtension", ptr %this1, i32 0, i32 1
  %2 = load ptr, ptr %.addr, align 8
  %value3 = getelementptr inbounds %"struct.grpc_core::XdsExtension", ptr %2, i32 0, i32 1
  call void @_ZNSt7variantIJSt17basic_string_viewIcSt11char_traitsIcEEN9grpc_core12experimental4JsonEEEC2EOS7_(ptr noundef nonnull align 8 dereferenceable(57) %value, ptr noundef nonnull align 8 dereferenceable(57) %value3) #3
  %validation_fields = getelementptr inbounds %"struct.grpc_core::XdsExtension", ptr %this1, i32 0, i32 2
  %3 = load ptr, ptr %.addr, align 8
  %validation_fields4 = getelementptr inbounds %"struct.grpc_core::XdsExtension", ptr %3, i32 0, i32 2
  call void @_ZNSt6vectorIN9grpc_core16ValidationErrors11ScopedFieldESaIS2_EEC2EOS4_(ptr noundef nonnull align 8 dereferenceable(24) %validation_fields, ptr noundef nonnull align 8 dereferenceable(24) %validation_fields4) #3
  ret void
}

; Function Attrs: mustprogress nounwind uwtable
define linkonce_odr void @_ZN9grpc_core12XdsExtensionD2Ev(ptr noundef nonnull align 8 dereferenceable(104) %this) unnamed_addr #4 comdat align 2 {
entry:
  %this.addr = alloca ptr, align 8
  store ptr %this, ptr %this.addr, align 8
  %this1 = load ptr, ptr %this.addr, align 8
  %validation_fields = getelementptr inbounds %"struct.grpc_core::XdsExtension", ptr %this1, i32 0, i32 2
  call void @_ZNSt6vectorIN9grpc_core16ValidationErrors11ScopedFieldESaIS2_EED2Ev(ptr noundef nonnull align 8 dereferenceable(24) %validation_fields) #3
  %value = getelementptr inbounds %"struct.grpc_core::XdsExtension", ptr %this1, i32 0, i32 1
  call void @_ZNSt7variantIJSt17basic_string_viewIcSt11char_traitsIcEEN9grpc_core12experimental4JsonEEED2Ev(ptr noundef nonnull align 8 dereferenceable(57) %value) #3
  ret void
}

; Function Attrs: mustprogress nounwind uwtable
define noundef ptr @_ZNK9grpc_core18XdsHttpFaultFilter14channel_filterEv(ptr noundef nonnull align 8 dereferenceable(8) %this) unnamed_addr #4 align 2 {
entry:
  %this.addr = alloca ptr, align 8
  store ptr %this, ptr %this.addr, align 8
  ret ptr @_ZN9grpc_core20FaultInjectionFilter7kFilterE
}

; Function Attrs: mustprogress uwtable
define void @_ZNK9grpc_core18XdsHttpFaultFilter17ModifyChannelArgsERKNS_11ChannelArgsE(ptr noalias sret(%"class.grpc_core::ChannelArgs") align 8 %agg.result, ptr noundef nonnull align 8 dereferenceable(8) %this, ptr noundef nonnull align 8 dereferenceable(8) %args) unnamed_addr #5 align 2 {
entry:
  %result.ptr = alloca ptr, align 8
  %this.addr = alloca ptr, align 8
  %args.addr = alloca ptr, align 8
  %agg.tmp = alloca %"class.std::basic_string_view", align 8
  store ptr %agg.result, ptr %result.ptr, align 8
  store ptr %this, ptr %this.addr, align 8
  store ptr %args, ptr %args.addr, align 8
  %0 = load ptr, ptr %args.addr, align 8
  call void @_ZNSt17basic_string_viewIcSt11char_traitsIcEEC2EPKc(ptr noundef nonnull align 8 dereferenceable(16) %agg.tmp, ptr noundef @.str.23) #3
  %1 = getelementptr inbounds { i64, ptr }, ptr %agg.tmp, i32 0, i32 0
  %2 = load i64, ptr %1, align 8
  %3 = getelementptr inbounds { i64, ptr }, ptr %agg.tmp, i32 0, i32 1
  %4 = load ptr, ptr %3, align 8
  call void @_ZNK9grpc_core11ChannelArgs3SetESt17basic_string_viewIcSt11char_traitsIcEEi(ptr sret(%"class.grpc_core::ChannelArgs") align 8 %agg.result, ptr noundef nonnull align 8 dereferenceable(8) %0, i64 %2, ptr %4, i32 noundef 1)
  ret void
}

declare void @_ZNK9grpc_core11ChannelArgs3SetESt17basic_string_viewIcSt11char_traitsIcEEi(ptr sret(%"class.grpc_core::ChannelArgs") align 8, ptr noundef nonnull align 8 dereferenceable(8), i64, ptr, i32 noundef) #1

; Function Attrs: mustprogress uwtable
define void @_ZNK9grpc_core18XdsHttpFaultFilter21GenerateServiceConfigERKNS_17XdsHttpFilterImpl12FilterConfigEPS3_(ptr noalias sret(%"class.absl::lts_20230802::StatusOr") align 8 %agg.result, ptr noundef nonnull align 8 dereferenceable(8) %this, ptr noundef nonnull align 8 dereferenceable(72) %hcm_filter_config, ptr noundef %filter_config_override) unnamed_addr #5 align 2 personality ptr @__gxx_personality_v0 {
entry:
  %result.ptr = alloca ptr, align 8
  %this.addr = alloca ptr, align 8
  %hcm_filter_config.addr = alloca ptr, align 8
  %filter_config_override.addr = alloca ptr, align 8
  %policy_json = alloca %"class.grpc_core::experimental::Json", align 8
  %ref.tmp = alloca %"struct.grpc_core::XdsHttpFilterImpl::ServiceConfigJsonEntry", align 8
  %ref.tmp3 = alloca %"class.std::allocator.52", align 1
  %exn.slot = alloca ptr, align 8
  %ehselector.slot = alloca i32, align 4
  store ptr %agg.result, ptr %result.ptr, align 8
  store ptr %this, ptr %this.addr, align 8
  store ptr %hcm_filter_config, ptr %hcm_filter_config.addr, align 8
  store ptr %filter_config_override, ptr %filter_config_override.addr, align 8
  %0 = load ptr, ptr %filter_config_override.addr, align 8
  %cmp = icmp ne ptr %0, null
  br i1 %cmp, label %cond.true, label %cond.false

cond.true:                                        ; preds = %entry
  %1 = load ptr, ptr %filter_config_override.addr, align 8
  %config = getelementptr inbounds %"struct.grpc_core::XdsHttpFilterImpl::FilterConfig", ptr %1, i32 0, i32 1
  br label %cond.end

cond.false:                                       ; preds = %entry
  %2 = load ptr, ptr %hcm_filter_config.addr, align 8
  %config2 = getelementptr inbounds %"struct.grpc_core::XdsHttpFilterImpl::FilterConfig", ptr %2, i32 0, i32 1
  br label %cond.end

cond.end:                                         ; preds = %cond.false, %cond.true
  %cond-lvalue = phi ptr [ %config, %cond.true ], [ %config2, %cond.false ]
  call void @_ZN9grpc_core12experimental4JsonC2ERKS1_(ptr noundef nonnull align 8 dereferenceable(56) %policy_json, ptr noundef nonnull align 8 dereferenceable(56) %cond-lvalue)
  %service_config_field_name = getelementptr inbounds %"struct.grpc_core::XdsHttpFilterImpl::ServiceConfigJsonEntry", ptr %ref.tmp, i32 0, i32 0
  call void @_ZNSaIcEC1Ev(ptr noundef nonnull align 1 dereferenceable(1) %ref.tmp3) #3
  invoke void @_ZNSt7__cxx1112basic_stringIcSt11char_traitsIcESaIcEEC2IS3_EEPKcRKS3_(ptr noundef nonnull align 8 dereferenceable(32) %service_config_field_name, ptr noundef @.str.24, ptr noundef nonnull align 1 dereferenceable(1) %ref.tmp3)
          to label %invoke.cont unwind label %lpad

invoke.cont:                                      ; preds = %cond.end
  %element = getelementptr inbounds %"struct.grpc_core::XdsHttpFilterImpl::ServiceConfigJsonEntry", ptr %ref.tmp, i32 0, i32 1
  invoke void @_ZN9grpc_core8JsonDumpB5cxx11ERKNS_12experimental4JsonEi(ptr sret(%"class.std::__cxx11::basic_string") align 8 %element, ptr noundef nonnull align 8 dereferenceable(56) %policy_json, i32 noundef 0)
          to label %invoke.cont5 unwind label %lpad4

invoke.cont5:                                     ; preds = %invoke.cont
  invoke void @_ZN4absl12lts_202308028StatusOrIN9grpc_core17XdsHttpFilterImpl22ServiceConfigJsonEntryEEC2IS4_TnNSt9enable_ifIXsr4absl11conjunctionINS0_11disjunctionIJSt7is_sameIS4_NS0_12remove_cvrefIOT_E4typeEENS0_8negationINS8_IJS9_IS5_SE_ES9_INS0_6StatusESE_ES9_ISt10in_place_tSE_ENS0_17internal_statusor31IsDirectInitializationAmbiguousIS4_SC_EEEEEEEEEESt16is_constructibleIS4_JSC_EESt14is_convertibleISC_S4_ENS8_IJS9_INSA_ISB_E4typeES4_ENS0_11conjunctionIJNSG_ISU_ISC_SI_EEENSG_INSM_31HasConversionOperatorToStatusOrIS4_SC_vEEEEEEEEEEEE5valueEiE4typeELi0EEESC_(ptr noundef nonnull align 8 dereferenceable(72) %agg.result, ptr noundef nonnull align 8 dereferenceable(64) %ref.tmp)
          to label %invoke.cont7 unwind label %lpad6

invoke.cont7:                                     ; preds = %invoke.cont5
  call void @_ZN9grpc_core17XdsHttpFilterImpl22ServiceConfigJsonEntryD2Ev(ptr noundef nonnull align 8 dereferenceable(64) %ref.tmp) #3
  call void @_ZNSaIcED1Ev(ptr noundef nonnull align 1 dereferenceable(1) %ref.tmp3) #3
  call void @_ZN9grpc_core12experimental4JsonD2Ev(ptr noundef nonnull align 8 dereferenceable(56) %policy_json) #3
  ret void

lpad:                                             ; preds = %cond.end
  %3 = landingpad { ptr, i32 }
          cleanup
  %4 = extractvalue { ptr, i32 } %3, 0
  store ptr %4, ptr %exn.slot, align 8
  %5 = extractvalue { ptr, i32 } %3, 1
  store i32 %5, ptr %ehselector.slot, align 4
  br label %ehcleanup

lpad4:                                            ; preds = %invoke.cont
  %6 = landingpad { ptr, i32 }
          cleanup
  %7 = extractvalue { ptr, i32 } %6, 0
  store ptr %7, ptr %exn.slot, align 8
  %8 = extractvalue { ptr, i32 } %6, 1
  store i32 %8, ptr %ehselector.slot, align 4
  call void @_ZNSt7__cxx1112basic_stringIcSt11char_traitsIcESaIcEED1Ev(ptr noundef nonnull align 8 dereferenceable(32) %service_config_field_name) #3
  br label %ehcleanup

lpad6:                                            ; preds = %invoke.cont5
  %9 = landingpad { ptr, i32 }
          cleanup
  %10 = extractvalue { ptr, i32 } %9, 0
  store ptr %10, ptr %exn.slot, align 8
  %11 = extractvalue { ptr, i32 } %9, 1
  store i32 %11, ptr %ehselector.slot, align 4
  call void @_ZN9grpc_core17XdsHttpFilterImpl22ServiceConfigJsonEntryD2Ev(ptr noundef nonnull align 8 dereferenceable(64) %ref.tmp) #3
  br label %ehcleanup

ehcleanup:                                        ; preds = %lpad6, %lpad4, %lpad
  call void @_ZNSaIcED1Ev(ptr noundef nonnull align 1 dereferenceable(1) %ref.tmp3) #3
  call void @_ZN9grpc_core12experimental4JsonD2Ev(ptr noundef nonnull align 8 dereferenceable(56) %policy_json) #3
  br label %eh.resume

eh.resume:                                        ; preds = %ehcleanup
  %exn = load ptr, ptr %exn.slot, align 8
  %sel = load i32, ptr %ehselector.slot, align 4
  %lpad.val = insertvalue { ptr, i32 } poison, ptr %exn, 0
  %lpad.val9 = insertvalue { ptr, i32 } %lpad.val, i32 %sel, 1
  resume { ptr, i32 } %lpad.val9
}

; Function Attrs: mustprogress uwtable
define linkonce_odr void @_ZN9grpc_core12experimental4JsonC2ERKS1_(ptr noundef nonnull align 8 dereferenceable(56) %this, ptr noundef nonnull align 8 dereferenceable(56) %other) unnamed_addr #5 comdat align 2 {
entry:
  %this.addr = alloca ptr, align 8
  %other.addr = alloca ptr, align 8
  store ptr %this, ptr %this.addr, align 8
  store ptr %other, ptr %other.addr, align 8
  %this1 = load ptr, ptr %this.addr, align 8
  %value_ = getelementptr inbounds %"class.grpc_core::experimental::Json", ptr %this1, i32 0, i32 0
  %0 = load ptr, ptr %other.addr, align 8
  %value_2 = getelementptr inbounds %"class.grpc_core::experimental::Json", ptr %0, i32 0, i32 0
  call void @_ZNSt7variantIJSt9monostatebN9grpc_core12experimental4Json11NumberValueENSt7__cxx1112basic_stringIcSt11char_traitsIcESaIcEEESt3mapISA_S3_St4lessISA_ESaISt4pairIKSA_S3_EEESt6vectorIS3_SaIS3_EEEEC2ERKSM_(ptr noundef nonnull align 8 dereferenceable(49) %value_, ptr noundef nonnull align 8 dereferenceable(49) %value_2)
  ret void
}

declare void @_ZN9grpc_core8JsonDumpB5cxx11ERKNS_12experimental4JsonEi(ptr sret(%"class.std::__cxx11::basic_string") align 8, ptr noundef nonnull align 8 dereferenceable(56), i32 noundef) #1

; Function Attrs: mustprogress uwtable
define linkonce_odr void @_ZN4absl12lts_202308028StatusOrIN9grpc_core17XdsHttpFilterImpl22ServiceConfigJsonEntryEEC2IS4_TnNSt9enable_ifIXsr4absl11conjunctionINS0_11disjunctionIJSt7is_sameIS4_NS0_12remove_cvrefIOT_E4typeEENS0_8negationINS8_IJS9_IS5_SE_ES9_INS0_6StatusESE_ES9_ISt10in_place_tSE_ENS0_17internal_statusor31IsDirectInitializationAmbiguousIS4_SC_EEEEEEEEEESt16is_constructibleIS4_JSC_EESt14is_convertibleISC_S4_ENS8_IJS9_INSA_ISB_E4typeES4_ENS0_11conjunctionIJNSG_ISU_ISC_SI_EEENSG_INSM_31HasConversionOperatorToStatusOrIS4_SC_vEEEEEEEEEEEE5valueEiE4typeELi0EEESC_(ptr noundef nonnull align 8 dereferenceable(72) %this, ptr noundef nonnull align 8 dereferenceable(64) %u) unnamed_addr #5 comdat align 2 {
entry:
  %this.addr = alloca ptr, align 8
  %u.addr = alloca ptr, align 8
  store ptr %this, ptr %this.addr, align 8
  store ptr %u, ptr %u.addr, align 8
  %this1 = load ptr, ptr %this.addr, align 8
  %0 = load ptr, ptr %u.addr, align 8
  call void @_ZN4absl12lts_202308028StatusOrIN9grpc_core17XdsHttpFilterImpl22ServiceConfigJsonEntryEEC2IJS4_EEESt10in_place_tDpOT_(ptr noundef nonnull align 8 dereferenceable(72) %this1, ptr noundef nonnull align 8 dereferenceable(64) %0)
  ret void
}

; Function Attrs: mustprogress nounwind uwtable
define linkonce_odr void @_ZN9grpc_core17XdsHttpFilterImpl22ServiceConfigJsonEntryD2Ev(ptr noundef nonnull align 8 dereferenceable(64) %this) unnamed_addr #4 comdat align 2 {
entry:
  %this.addr = alloca ptr, align 8
  store ptr %this, ptr %this.addr, align 8
  %this1 = load ptr, ptr %this.addr, align 8
  %element = getelementptr inbounds %"struct.grpc_core::XdsHttpFilterImpl::ServiceConfigJsonEntry", ptr %this1, i32 0, i32 1
  call void @_ZNSt7__cxx1112basic_stringIcSt11char_traitsIcESaIcEED1Ev(ptr noundef nonnull align 8 dereferenceable(32) %element) #3
  %service_config_field_name = getelementptr inbounds %"struct.grpc_core::XdsHttpFilterImpl::ServiceConfigJsonEntry", ptr %this1, i32 0, i32 0
  call void @_ZNSt7__cxx1112basic_stringIcSt11char_traitsIcESaIcEED1Ev(ptr noundef nonnull align 8 dereferenceable(32) %service_config_field_name) #3
  ret void
}

; Function Attrs: mustprogress nounwind uwtable
define linkonce_odr void @_ZN9grpc_core18XdsHttpFaultFilterD2Ev(ptr noundef nonnull align 8 dereferenceable(8) %this) unnamed_addr #4 comdat align 2 {
entry:
  %this.addr = alloca ptr, align 8
  store ptr %this, ptr %this.addr, align 8
  %this1 = load ptr, ptr %this.addr, align 8
  call void @_ZN9grpc_core17XdsHttpFilterImplD2Ev(ptr noundef nonnull align 8 dereferenceable(8) %this1) #3
  ret void
}

; Function Attrs: mustprogress nounwind uwtable
define linkonce_odr void @_ZN9grpc_core18XdsHttpFaultFilterD0Ev(ptr noundef nonnull align 8 dereferenceable(8) %this) unnamed_addr #4 comdat align 2 {
entry:
  %this.addr = alloca ptr, align 8
  store ptr %this, ptr %this.addr, align 8
  %this1 = load ptr, ptr %this.addr, align 8
  call void @_ZN9grpc_core18XdsHttpFaultFilterD2Ev(ptr noundef nonnull align 8 dereferenceable(8) %this1) #3
  call void @_ZdlPv(ptr noundef %this1) #16
  ret void
}

; Function Attrs: mustprogress nounwind uwtable
define linkonce_odr noundef zeroext i1 @_ZNK9grpc_core18XdsHttpFaultFilter20IsSupportedOnClientsEv(ptr noundef nonnull align 8 dereferenceable(8) %this) unnamed_addr #4 comdat align 2 {
entry:
  %this.addr = alloca ptr, align 8
  store ptr %this, ptr %this.addr, align 8
  ret i1 true
}

; Function Attrs: mustprogress nounwind uwtable
define linkonce_odr noundef zeroext i1 @_ZNK9grpc_core18XdsHttpFaultFilter20IsSupportedOnServersEv(ptr noundef nonnull align 8 dereferenceable(8) %this) unnamed_addr #4 comdat align 2 {
entry:
  %this.addr = alloca ptr, align 8
  store ptr %this, ptr %this.addr, align 8
  ret i1 false
}

; Function Attrs: mustprogress nounwind uwtable
define linkonce_odr noundef zeroext i1 @_ZNK9grpc_core17XdsHttpFilterImpl16IsTerminalFilterEv(ptr noundef nonnull align 8 dereferenceable(8) %this) unnamed_addr #4 comdat align 2 {
entry:
  %this.addr = alloca ptr, align 8
  store ptr %this, ptr %this.addr, align 8
  ret i1 false
}

; Function Attrs: uwtable
define internal void @__cxx_global_var_init.25() #0 section ".text.startup" comdat($_ZN9grpc_core19NoDestructSingletonINS_14promise_detail10UnwakeableEE6value_E) {
entry:
  %0 = load i8, ptr @_ZGVN9grpc_core19NoDestructSingletonINS_14promise_detail10UnwakeableEE6value_E, align 8
  %guard.uninitialized = icmp eq i8 %0, 0
  br i1 %guard.uninitialized, label %init.check, label %init.end

init.check:                                       ; preds = %entry
  store i8 1, ptr @_ZGVN9grpc_core19NoDestructSingletonINS_14promise_detail10UnwakeableEE6value_E, align 8
  call void @_ZN9grpc_core10NoDestructINS_14promise_detail10UnwakeableEEC2IJEEEDpOT_(ptr noundef nonnull align 8 dereferenceable(8) @_ZN9grpc_core19NoDestructSingletonINS_14promise_detail10UnwakeableEE6value_E)
  br label %init.end

init.end:                                         ; preds = %init.check, %entry
  ret void
}

; Function Attrs: mustprogress uwtable
define linkonce_odr void @_ZN9grpc_core10NoDestructINS_14promise_detail10UnwakeableEEC2IJEEEDpOT_(ptr noundef nonnull align 8 dereferenceable(8) %this) unnamed_addr #5 comdat align 2 {
entry:
  %this.addr = alloca ptr, align 8
  store ptr %this, ptr %this.addr, align 8
  %this1 = load ptr, ptr %this.addr, align 8
  %space_ = getelementptr inbounds %"class.grpc_core::NoDestruct", ptr %this1, i32 0, i32 0
  call void @_ZN9grpc_core9ConstructINS_14promise_detail10UnwakeableEJEEEvPT_DpOT0_(ptr noundef %space_)
  ret void
}

; Function Attrs: mustprogress nounwind uwtable
define linkonce_odr noundef i64 @_ZNSt11char_traitsIcE6lengthEPKc(ptr noundef %__s) #4 comdat align 2 {
entry:
  %__s.addr = alloca ptr, align 8
  store ptr %__s, ptr %__s.addr, align 8
  %0 = load ptr, ptr %__s.addr, align 8
  %call = call i64 @strlen(ptr noundef %0) #3
  ret i64 %call
}

; Function Attrs: noreturn nounwind uwtable
define linkonce_odr hidden void @__clang_call_terminate(ptr noundef %0) #6 comdat {
  %2 = call ptr @__cxa_begin_catch(ptr %0) #3
  call void @_ZSt9terminatev() #14
  unreachable
}

declare ptr @__cxa_begin_catch(ptr)

declare void @_ZSt9terminatev()

; Function Attrs: nounwind
declare i64 @strlen(ptr noundef) #2

declare zeroext i1 @_upb_DefPool_LoadDefInit(ptr noundef, ptr noundef) #1

declare ptr @upb_DefPool_FindMessageByName(ptr noundef, ptr noundef) #1

; Function Attrs: mustprogress nounwind uwtable
define linkonce_odr noundef ptr @_ZSt6get_ifILm0EJSt17basic_string_viewIcSt11char_traitsIcEEN9grpc_core12experimental4JsonEEENSt11add_pointerINSt19variant_alternativeIXT_ESt7variantIJDpT0_EEE4typeEE4typeEPSC_(ptr noundef %__ptr) #4 comdat {
entry:
  %retval = alloca ptr, align 8
  %__ptr.addr = alloca ptr, align 8
  store ptr %__ptr, ptr %__ptr.addr, align 8
  %0 = load ptr, ptr %__ptr.addr, align 8
  %tobool = icmp ne ptr %0, null
  br i1 %tobool, label %land.lhs.true, label %if.end

land.lhs.true:                                    ; preds = %entry
  %1 = load ptr, ptr %__ptr.addr, align 8
  %call = call noundef i64 @_ZNKSt7variantIJSt17basic_string_viewIcSt11char_traitsIcEEN9grpc_core12experimental4JsonEEE5indexEv(ptr noundef nonnull align 8 dereferenceable(57) %1) #3
  %cmp = icmp eq i64 %call, 0
  br i1 %cmp, label %if.then, label %if.end

if.then:                                          ; preds = %land.lhs.true
  %2 = load ptr, ptr %__ptr.addr, align 8
  %call1 = call noundef nonnull align 8 dereferenceable(16) ptr @_ZNSt8__detail9__variant5__getILm0ERSt7variantIJSt17basic_string_viewIcSt11char_traitsIcEEN9grpc_core12experimental4JsonEEEEEDcOT0_(ptr noundef nonnull align 8 dereferenceable(57) %2) #3
  store ptr %call1, ptr %retval, align 8
  br label %return

if.end:                                           ; preds = %land.lhs.true, %entry
  store ptr null, ptr %retval, align 8
  br label %return

return:                                           ; preds = %if.end, %if.then
  %3 = load ptr, ptr %retval, align 8
  ret ptr %3
}

; Function Attrs: mustprogress nounwind uwtable
define linkonce_odr noundef i64 @_ZNKSt7variantIJSt17basic_string_viewIcSt11char_traitsIcEEN9grpc_core12experimental4JsonEEE5indexEv(ptr noundef nonnull align 8 dereferenceable(57) %this) #4 comdat align 2 {
entry:
  %this.addr = alloca ptr, align 8
  store ptr %this, ptr %this.addr, align 8
  %this1 = load ptr, ptr %this.addr, align 8
  %_M_index = getelementptr inbounds %"struct.std::__detail::__variant::_Variant_storage.23", ptr %this1, i32 0, i32 1
  %0 = load i8, ptr %_M_index, align 8
  %conv = sext i8 %0 to i64
  ret i64 %conv
}

; Function Attrs: mustprogress nounwind uwtable
define linkonce_odr noundef nonnull align 8 dereferenceable(16) ptr @_ZNSt8__detail9__variant5__getILm0ERSt7variantIJSt17basic_string_viewIcSt11char_traitsIcEEN9grpc_core12experimental4JsonEEEEEDcOT0_(ptr noundef nonnull align 8 dereferenceable(57) %__v) #4 comdat {
entry:
  %__v.addr = alloca ptr, align 8
  store ptr %__v, ptr %__v.addr, align 8
  %0 = load ptr, ptr %__v.addr, align 8
  %_M_u = getelementptr inbounds %"struct.std::__detail::__variant::_Variant_storage.23", ptr %0, i32 0, i32 0
  %call = call noundef nonnull align 8 dereferenceable(16) ptr @_ZNSt8__detail9__variant7__get_nILm0ERNS0_15_Variadic_unionIJSt17basic_string_viewIcSt11char_traitsIcEEN9grpc_core12experimental4JsonEEEEEEDcOT0_(ptr noundef nonnull align 8 dereferenceable(56) %_M_u) #3
  ret ptr %call
}

; Function Attrs: mustprogress nounwind uwtable
define linkonce_odr noundef nonnull align 8 dereferenceable(16) ptr @_ZNSt8__detail9__variant7__get_nILm0ERNS0_15_Variadic_unionIJSt17basic_string_viewIcSt11char_traitsIcEEN9grpc_core12experimental4JsonEEEEEEDcOT0_(ptr noundef nonnull align 8 dereferenceable(56) %__u) #4 comdat {
entry:
  %__u.addr = alloca ptr, align 8
  store ptr %__u, ptr %__u.addr, align 8
  %0 = load ptr, ptr %__u.addr, align 8
  %call = call noundef nonnull align 8 dereferenceable(16) ptr @_ZNRSt8__detail9__variant14_UninitializedISt17basic_string_viewIcSt11char_traitsIcEELb1EE6_M_getEv(ptr noundef nonnull align 8 dereferenceable(16) %0) #3
  ret ptr %call
}

; Function Attrs: mustprogress nounwind uwtable
define linkonce_odr noundef nonnull align 8 dereferenceable(16) ptr @_ZNRSt8__detail9__variant14_UninitializedISt17basic_string_viewIcSt11char_traitsIcEELb1EE6_M_getEv(ptr noundef nonnull align 8 dereferenceable(16) %this) #4 comdat align 2 {
entry:
  %this.addr = alloca ptr, align 8
  store ptr %this, ptr %this.addr, align 8
  %this1 = load ptr, ptr %this.addr, align 8
  %_M_storage = getelementptr inbounds %"struct.std::__detail::__variant::_Uninitialized.25", ptr %this1, i32 0, i32 0
  ret ptr %_M_storage
}

; Function Attrs: mustprogress nounwind uwtable
define linkonce_odr void @_ZNSt14_Optional_baseIN9grpc_core17XdsHttpFilterImpl12FilterConfigELb0ELb0EEC2Ev(ptr noundef nonnull align 8 dereferenceable(80) %this) unnamed_addr #4 comdat align 2 {
entry:
  %this.addr = alloca ptr, align 8
  store ptr %this, ptr %this.addr, align 8
  %this1 = load ptr, ptr %this.addr, align 8
  %_M_payload = getelementptr inbounds %"struct.std::_Optional_base", ptr %this1, i32 0, i32 0
  call void @_ZNSt17_Optional_payloadIN9grpc_core17XdsHttpFilterImpl12FilterConfigELb0ELb0ELb0EEC2Ev(ptr noundef nonnull align 8 dereferenceable(73) %_M_payload) #3
  ret void
}

; Function Attrs: mustprogress nounwind uwtable
define linkonce_odr void @_ZNSt17_Optional_payloadIN9grpc_core17XdsHttpFilterImpl12FilterConfigELb0ELb0ELb0EEC2Ev(ptr noundef nonnull align 8 dereferenceable(73) %this) unnamed_addr #4 comdat align 2 {
entry:
  %this.addr = alloca ptr, align 8
  store ptr %this, ptr %this.addr, align 8
  %this1 = load ptr, ptr %this.addr, align 8
  call void @_ZNSt17_Optional_payloadIN9grpc_core17XdsHttpFilterImpl12FilterConfigELb1ELb0ELb0EEC2Ev(ptr noundef nonnull align 8 dereferenceable(73) %this1) #3
  ret void
}

; Function Attrs: mustprogress nounwind uwtable
define linkonce_odr void @_ZNSt17_Optional_payloadIN9grpc_core17XdsHttpFilterImpl12FilterConfigELb1ELb0ELb0EEC2Ev(ptr noundef nonnull align 8 dereferenceable(73) %this) unnamed_addr #4 comdat align 2 {
entry:
  %this.addr = alloca ptr, align 8
  store ptr %this, ptr %this.addr, align 8
  %this1 = load ptr, ptr %this.addr, align 8
  call void @_ZNSt22_Optional_payload_baseIN9grpc_core17XdsHttpFilterImpl12FilterConfigEEC2Ev(ptr noundef nonnull align 8 dereferenceable(73) %this1) #3
  ret void
}

; Function Attrs: mustprogress nounwind uwtable
define linkonce_odr void @_ZNSt22_Optional_payload_baseIN9grpc_core17XdsHttpFilterImpl12FilterConfigEEC2Ev(ptr noundef nonnull align 8 dereferenceable(73) %this) unnamed_addr #4 comdat align 2 {
entry:
  %this.addr = alloca ptr, align 8
  store ptr %this, ptr %this.addr, align 8
  %this1 = load ptr, ptr %this.addr, align 8
  %_M_payload = getelementptr inbounds %"struct.std::_Optional_payload_base", ptr %this1, i32 0, i32 0
  call void @_ZNSt22_Optional_payload_baseIN9grpc_core17XdsHttpFilterImpl12FilterConfigEE8_StorageIS2_Lb0EEC2Ev(ptr noundef nonnull align 8 dereferenceable(72) %_M_payload) #3
  %_M_engaged = getelementptr inbounds %"struct.std::_Optional_payload_base", ptr %this1, i32 0, i32 1
  store i8 0, ptr %_M_engaged, align 8
  ret void
}

; Function Attrs: mustprogress nounwind uwtable
define linkonce_odr void @_ZNSt22_Optional_payload_baseIN9grpc_core17XdsHttpFilterImpl12FilterConfigEE8_StorageIS2_Lb0EEC2Ev(ptr noundef nonnull align 8 dereferenceable(72) %this) unnamed_addr #4 comdat align 2 {
entry:
  %this.addr = alloca ptr, align 8
  store ptr %this, ptr %this.addr, align 8
  ret void
}

; Function Attrs: mustprogress uwtable
define linkonce_odr ptr @envoy_extensions_filters_http_fault_v3_HTTPFault_new(ptr noundef %arena) #5 comdat {
entry:
  %arena.addr = alloca ptr, align 8
  store ptr %arena, ptr %arena.addr, align 8
  %0 = load ptr, ptr %arena.addr, align 8
  %call = call ptr @_upb_Message_New(ptr noundef @envoy__extensions__filters__http__fault__v3__HTTPFault_msg_init, ptr noundef %0)
  ret ptr %call
}

declare i32 @upb_Decode(ptr noundef, i64 noundef, ptr noundef, ptr noundef, ptr noundef, i32 noundef, ptr noundef) #1

; Function Attrs: mustprogress uwtable
define linkonce_odr ptr @_upb_Message_New(ptr noundef %mini_table, ptr noundef %arena) #5 comdat {
entry:
  %retval = alloca ptr, align 8
  %mini_table.addr = alloca ptr, align 8
  %arena.addr = alloca ptr, align 8
  %size = alloca i64, align 8
  %mem = alloca ptr, align 8
  %msg = alloca ptr, align 8
  store ptr %mini_table, ptr %mini_table.addr, align 8
  store ptr %arena, ptr %arena.addr, align 8
  %0 = load ptr, ptr %mini_table.addr, align 8
  %call = call i64 @upb_msg_sizeof(ptr noundef %0)
  store i64 %call, ptr %size, align 8
  %1 = load ptr, ptr %arena.addr, align 8
  %2 = load i64, ptr %size, align 8
  %add = add i64 %2, 8
  %call1 = call ptr @upb_Arena_Malloc(ptr noundef %1, i64 noundef %add)
  store ptr %call1, ptr %mem, align 8
  %3 = load ptr, ptr %mem, align 8
  %tobool = icmp ne ptr %3, null
  %lnot = xor i1 %tobool, true
  br i1 %lnot, label %if.then, label %if.end

if.then:                                          ; preds = %entry
  store ptr null, ptr %retval, align 8
  br label %return

if.end:                                           ; preds = %entry
  %4 = load ptr, ptr %mem, align 8
  %add.ptr = getelementptr inbounds i8, ptr %4, i64 8
  store ptr %add.ptr, ptr %msg, align 8
  %5 = load ptr, ptr %mem, align 8
  %6 = load i64, ptr %size, align 8
  call void @llvm.memset.p0.i64(ptr align 1 %5, i8 0, i64 %6, i1 false)
  %7 = load ptr, ptr %msg, align 8
  store ptr %7, ptr %retval, align 8
  br label %return

return:                                           ; preds = %if.end, %if.then
  %8 = load ptr, ptr %retval, align 8
  ret ptr %8
}

; Function Attrs: mustprogress nounwind uwtable
define linkonce_odr i64 @upb_msg_sizeof(ptr noundef %t) #4 comdat {
entry:
  %t.addr = alloca ptr, align 8
  store ptr %t, ptr %t.addr, align 8
  %0 = load ptr, ptr %t.addr, align 8
  %size = getelementptr inbounds %struct.upb_MiniTable, ptr %0, i32 0, i32 2
  %1 = load i16, ptr %size, align 8
  %conv = zext i16 %1 to i64
  %add = add i64 %conv, 8
  ret i64 %add
}

; Function Attrs: mustprogress uwtable
define linkonce_odr ptr @upb_Arena_Malloc(ptr noundef %a, i64 noundef %size) #5 comdat {
entry:
  %retval = alloca ptr, align 8
  %a.addr = alloca ptr, align 8
  %size.addr = alloca i64, align 8
  %span = alloca i64, align 8
  %h = alloca ptr, align 8
  %ret = alloca ptr, align 8
  store ptr %a, ptr %a.addr, align 8
  store i64 %size, ptr %size.addr, align 8
  %0 = load i64, ptr %size.addr, align 8
  %add = add i64 %0, 8
  %sub = sub i64 %add, 1
  %div = udiv i64 %sub, 8
  %mul = mul i64 %div, 8
  store i64 %mul, ptr %size.addr, align 8
  %1 = load i64, ptr %size.addr, align 8
  %add1 = add i64 %1, 0
  store i64 %add1, ptr %span, align 8
  %2 = load ptr, ptr %a.addr, align 8
  %call = call i64 @_upb_ArenaHas(ptr noundef %2)
  %3 = load i64, ptr %span, align 8
  %cmp = icmp ult i64 %call, %3
  br i1 %cmp, label %if.then, label %if.end

if.then:                                          ; preds = %entry
  %4 = load ptr, ptr %a.addr, align 8
  %5 = load i64, ptr %size.addr, align 8
  %call2 = call ptr @_upb_Arena_SlowMalloc(ptr noundef %4, i64 noundef %5)
  store ptr %call2, ptr %retval, align 8
  br label %return

if.end:                                           ; preds = %entry
  %6 = load ptr, ptr %a.addr, align 8
  store ptr %6, ptr %h, align 8
  %7 = load ptr, ptr %h, align 8
  %ptr = getelementptr inbounds %struct._upb_ArenaHead, ptr %7, i32 0, i32 0
  %8 = load ptr, ptr %ptr, align 8
  store ptr %8, ptr %ret, align 8
  br label %do.body

do.body:                                          ; preds = %if.end
  br label %do.end

do.end:                                           ; preds = %do.body
  br label %do.body3

do.body3:                                         ; preds = %do.end
  br label %do.end4

do.end4:                                          ; preds = %do.body3
  %9 = load i64, ptr %span, align 8
  %10 = load ptr, ptr %h, align 8
  %ptr5 = getelementptr inbounds %struct._upb_ArenaHead, ptr %10, i32 0, i32 0
  %11 = load ptr, ptr %ptr5, align 8
  %add.ptr = getelementptr inbounds i8, ptr %11, i64 %9
  store ptr %add.ptr, ptr %ptr5, align 8
  %12 = load ptr, ptr %ret, align 8
  store ptr %12, ptr %retval, align 8
  br label %return

return:                                           ; preds = %do.end4, %if.then
  %13 = load ptr, ptr %retval, align 8
  ret ptr %13
}

; Function Attrs: nocallback nofree nounwind willreturn memory(argmem: write)
declare void @llvm.memset.p0.i64(ptr nocapture writeonly, i8, i64, i1 immarg) #7

; Function Attrs: mustprogress nounwind uwtable
define linkonce_odr i64 @_upb_ArenaHas(ptr noundef %a) #4 comdat {
entry:
  %a.addr = alloca ptr, align 8
  %h = alloca ptr, align 8
  store ptr %a, ptr %a.addr, align 8
  %0 = load ptr, ptr %a.addr, align 8
  store ptr %0, ptr %h, align 8
  %1 = load ptr, ptr %h, align 8
  %end = getelementptr inbounds %struct._upb_ArenaHead, ptr %1, i32 0, i32 1
  %2 = load ptr, ptr %end, align 8
  %3 = load ptr, ptr %h, align 8
  %ptr = getelementptr inbounds %struct._upb_ArenaHead, ptr %3, i32 0, i32 0
  %4 = load ptr, ptr %ptr, align 8
  %sub.ptr.lhs.cast = ptrtoint ptr %2 to i64
  %sub.ptr.rhs.cast = ptrtoint ptr %4 to i64
  %sub.ptr.sub = sub i64 %sub.ptr.lhs.cast, %sub.ptr.rhs.cast
  ret i64 %sub.ptr.sub
}

declare ptr @_upb_Arena_SlowMalloc(ptr noundef, i64 noundef) #1

; Function Attrs: mustprogress nounwind uwtable
define linkonce_odr void @_ZNSt8_Rb_treeINSt7__cxx1112basic_stringIcSt11char_traitsIcESaIcEEESt4pairIKS5_N9grpc_core12experimental4JsonEESt10_Select1stISB_ESt4lessIS5_ESaISB_EEC2Ev(ptr noundef nonnull align 8 dereferenceable(48) %this) unnamed_addr #4 comdat align 2 {
entry:
  %this.addr = alloca ptr, align 8
  store ptr %this, ptr %this.addr, align 8
  %this1 = load ptr, ptr %this.addr, align 8
  %_M_impl = getelementptr inbounds %"class.std::_Rb_tree.48", ptr %this1, i32 0, i32 0
  call void @_ZNSt8_Rb_treeINSt7__cxx1112basic_stringIcSt11char_traitsIcESaIcEEESt4pairIKS5_N9grpc_core12experimental4JsonEESt10_Select1stISB_ESt4lessIS5_ESaISB_EE13_Rb_tree_implISF_Lb1EEC2Ev(ptr noundef nonnull align 8 dereferenceable(48) %_M_impl) #3
  ret void
}

; Function Attrs: mustprogress nounwind uwtable
define linkonce_odr void @_ZNSt8_Rb_treeINSt7__cxx1112basic_stringIcSt11char_traitsIcESaIcEEESt4pairIKS5_N9grpc_core12experimental4JsonEESt10_Select1stISB_ESt4lessIS5_ESaISB_EE13_Rb_tree_implISF_Lb1EEC2Ev(ptr noundef nonnull align 8 dereferenceable(48) %this) unnamed_addr #4 comdat align 2 {
entry:
  %this.addr = alloca ptr, align 8
  store ptr %this, ptr %this.addr, align 8
  %this1 = load ptr, ptr %this.addr, align 8
  call void @_ZNSaISt13_Rb_tree_nodeISt4pairIKNSt7__cxx1112basic_stringIcSt11char_traitsIcESaIcEEEN9grpc_core12experimental4JsonEEEEC2Ev(ptr noundef nonnull align 1 dereferenceable(1) %this1) #3
  call void @_ZNSt20_Rb_tree_key_compareISt4lessINSt7__cxx1112basic_stringIcSt11char_traitsIcESaIcEEEEEC2Ev(ptr noundef nonnull align 1 dereferenceable(1) %this1) #3
  %0 = getelementptr inbounds i8, ptr %this1, i64 8
  call void @_ZNSt15_Rb_tree_headerC2Ev(ptr noundef nonnull align 8 dereferenceable(40) %0) #3
  ret void
}

; Function Attrs: mustprogress nounwind uwtable
define linkonce_odr void @_ZNSaISt13_Rb_tree_nodeISt4pairIKNSt7__cxx1112basic_stringIcSt11char_traitsIcESaIcEEEN9grpc_core12experimental4JsonEEEEC2Ev(ptr noundef nonnull align 1 dereferenceable(1) %this) unnamed_addr #4 comdat align 2 {
entry:
  %this.addr = alloca ptr, align 8
  store ptr %this, ptr %this.addr, align 8
  %this1 = load ptr, ptr %this.addr, align 8
  call void @_ZNSt15__new_allocatorISt13_Rb_tree_nodeISt4pairIKNSt7__cxx1112basic_stringIcSt11char_traitsIcESaIcEEEN9grpc_core12experimental4JsonEEEEC2Ev(ptr noundef nonnull align 1 dereferenceable(1) %this1) #3
  ret void
}

; Function Attrs: mustprogress nounwind uwtable
define linkonce_odr void @_ZNSt20_Rb_tree_key_compareISt4lessINSt7__cxx1112basic_stringIcSt11char_traitsIcESaIcEEEEEC2Ev(ptr noundef nonnull align 1 dereferenceable(1) %this) unnamed_addr #4 comdat align 2 {
entry:
  %this.addr = alloca ptr, align 8
  store ptr %this, ptr %this.addr, align 8
  ret void
}

; Function Attrs: mustprogress nounwind uwtable
define linkonce_odr void @_ZNSt15_Rb_tree_headerC2Ev(ptr noundef nonnull align 8 dereferenceable(40) %this) unnamed_addr #4 comdat align 2 personality ptr @__gxx_personality_v0 {
entry:
  %this.addr = alloca ptr, align 8
  store ptr %this, ptr %this.addr, align 8
  %this1 = load ptr, ptr %this.addr, align 8
  %_M_header2 = getelementptr inbounds %"struct.std::_Rb_tree_header", ptr %this1, i32 0, i32 0
  %_M_color = getelementptr inbounds %"struct.std::_Rb_tree_node_base", ptr %_M_header2, i32 0, i32 0
  store i32 0, ptr %_M_color, align 8
  invoke void @_ZNSt15_Rb_tree_header8_M_resetEv(ptr noundef nonnull align 8 dereferenceable(40) %this1)
          to label %invoke.cont unwind label %terminate.lpad

invoke.cont:                                      ; preds = %entry
  ret void

terminate.lpad:                                   ; preds = %entry
  %0 = landingpad { ptr, i32 }
          catch ptr null
  %1 = extractvalue { ptr, i32 } %0, 0
  call void @__clang_call_terminate(ptr %1) #14
  unreachable
}

; Function Attrs: mustprogress nounwind uwtable
define linkonce_odr void @_ZNSt15__new_allocatorISt13_Rb_tree_nodeISt4pairIKNSt7__cxx1112basic_stringIcSt11char_traitsIcESaIcEEEN9grpc_core12experimental4JsonEEEEC2Ev(ptr noundef nonnull align 1 dereferenceable(1) %this) unnamed_addr #4 comdat align 2 {
entry:
  %this.addr = alloca ptr, align 8
  store ptr %this, ptr %this.addr, align 8
  ret void
}

; Function Attrs: mustprogress nounwind uwtable
define linkonce_odr void @_ZNSt15_Rb_tree_header8_M_resetEv(ptr noundef nonnull align 8 dereferenceable(40) %this) #4 comdat align 2 {
entry:
  %this.addr = alloca ptr, align 8
  store ptr %this, ptr %this.addr, align 8
  %this1 = load ptr, ptr %this.addr, align 8
  %_M_header = getelementptr inbounds %"struct.std::_Rb_tree_header", ptr %this1, i32 0, i32 0
  %_M_parent = getelementptr inbounds %"struct.std::_Rb_tree_node_base", ptr %_M_header, i32 0, i32 1
  store ptr null, ptr %_M_parent, align 8
  %_M_header2 = getelementptr inbounds %"struct.std::_Rb_tree_header", ptr %this1, i32 0, i32 0
  %_M_header3 = getelementptr inbounds %"struct.std::_Rb_tree_header", ptr %this1, i32 0, i32 0
  %_M_left = getelementptr inbounds %"struct.std::_Rb_tree_node_base", ptr %_M_header3, i32 0, i32 2
  store ptr %_M_header2, ptr %_M_left, align 8
  %_M_header4 = getelementptr inbounds %"struct.std::_Rb_tree_header", ptr %this1, i32 0, i32 0
  %_M_header5 = getelementptr inbounds %"struct.std::_Rb_tree_header", ptr %this1, i32 0, i32 0
  %_M_right = getelementptr inbounds %"struct.std::_Rb_tree_node_base", ptr %_M_header5, i32 0, i32 3
  store ptr %_M_header4, ptr %_M_right, align 8
  %_M_node_count = getelementptr inbounds %"struct.std::_Rb_tree_header", ptr %this1, i32 0, i32 1
  store i64 0, ptr %_M_node_count, align 8
  ret void
}

; Function Attrs: nocallback nofree nounwind willreturn memory(argmem: readwrite)
declare void @llvm.memcpy.p0.p0.i64(ptr noalias nocapture writeonly, ptr noalias nocapture readonly, i64, i1 immarg) #8

; Function Attrs: mustprogress nounwind uwtable
define linkonce_odr zeroext i1 @upb_MiniTableField_IsExtension(ptr noundef %field) #4 comdat {
entry:
  %field.addr = alloca ptr, align 8
  store ptr %field, ptr %field.addr, align 8
  %0 = load ptr, ptr %field.addr, align 8
  %mode = getelementptr inbounds %struct.upb_MiniTableField, ptr %0, i32 0, i32 5
  %1 = load i8, ptr %mode, align 1
  %conv = zext i8 %1 to i32
  %and = and i32 %conv, 8
  %tobool = icmp ne i32 %and, 0
  ret i1 %tobool
}

; Function Attrs: mustprogress nounwind uwtable
define linkonce_odr zeroext i1 @_upb_MiniTableField_InOneOf(ptr noundef %field) #4 comdat {
entry:
  %field.addr = alloca ptr, align 8
  store ptr %field, ptr %field.addr, align 8
  %0 = load ptr, ptr %field.addr, align 8
  %presence = getelementptr inbounds %struct.upb_MiniTableField, ptr %0, i32 0, i32 2
  %1 = load i16, ptr %presence, align 2
  %conv = sext i16 %1 to i32
  %cmp = icmp slt i32 %conv, 0
  ret i1 %cmp
}

; Function Attrs: mustprogress uwtable
define linkonce_odr zeroext i1 @_upb_MiniTable_ValueIsNonZero(ptr noundef %default_val, ptr noundef %field) #5 comdat {
entry:
  %retval = alloca i1, align 1
  %default_val.addr = alloca ptr, align 8
  %field.addr = alloca ptr, align 8
  %zero = alloca [16 x i8], align 16
  %sv = alloca ptr, align 8
  store ptr %default_val, ptr %default_val.addr, align 8
  store ptr %field, ptr %field.addr, align 8
  call void @llvm.memset.p0.i64(ptr align 16 %zero, i8 0, i64 16, i1 false)
  %0 = load ptr, ptr %field.addr, align 8
  %call = call noundef i32 @_Z26_upb_MiniTableField_GetRepPK18upb_MiniTableField(ptr noundef %0)
  switch i32 %call, label %sw.epilog [
    i32 0, label %sw.bb
    i32 1, label %sw.bb2
    i32 3, label %sw.bb5
    i32 2, label %sw.bb8
  ]

sw.bb:                                            ; preds = %entry
  %1 = load ptr, ptr %default_val.addr, align 8
  %call1 = call i32 @memcmp(ptr noundef %zero, ptr noundef %1, i64 noundef 1) #17
  %cmp = icmp ne i32 %call1, 0
  store i1 %cmp, ptr %retval, align 1
  br label %return

sw.bb2:                                           ; preds = %entry
  %2 = load ptr, ptr %default_val.addr, align 8
  %call3 = call i32 @memcmp(ptr noundef %zero, ptr noundef %2, i64 noundef 4) #17
  %cmp4 = icmp ne i32 %call3, 0
  store i1 %cmp4, ptr %retval, align 1
  br label %return

sw.bb5:                                           ; preds = %entry
  %3 = load ptr, ptr %default_val.addr, align 8
  %call6 = call i32 @memcmp(ptr noundef %zero, ptr noundef %3, i64 noundef 8) #17
  %cmp7 = icmp ne i32 %call6, 0
  store i1 %cmp7, ptr %retval, align 1
  br label %return

sw.bb8:                                           ; preds = %entry
  %4 = load ptr, ptr %default_val.addr, align 8
  store ptr %4, ptr %sv, align 8
  %5 = load ptr, ptr %sv, align 8
  %size = getelementptr inbounds %struct.upb_StringView, ptr %5, i32 0, i32 1
  %6 = load i64, ptr %size, align 8
  %cmp9 = icmp ne i64 %6, 0
  store i1 %cmp9, ptr %retval, align 1
  br label %return

sw.epilog:                                        ; preds = %entry
  br label %do.body

do.body:                                          ; preds = %sw.epilog
  unreachable

do.end:                                           ; No predecessors!
  call void @llvm.trap()
  unreachable

return:                                           ; preds = %sw.bb8, %sw.bb5, %sw.bb2, %sw.bb
  %7 = load i1, ptr %retval, align 1
  ret i1 %7
}

; Function Attrs: mustprogress uwtable
define linkonce_odr zeroext i1 @_upb_Message_HasNonExtensionField(ptr noundef %msg, ptr noundef %field) #5 comdat {
entry:
  %retval = alloca i1, align 1
  %msg.addr = alloca ptr, align 8
  %field.addr = alloca ptr, align 8
  store ptr %msg, ptr %msg.addr, align 8
  store ptr %field, ptr %field.addr, align 8
  br label %do.body

do.body:                                          ; preds = %entry
  br label %do.end

do.end:                                           ; preds = %do.body
  %0 = load ptr, ptr %field.addr, align 8
  %call = call zeroext i1 @upb_MiniTableField_IsExtension(ptr noundef %0)
  br i1 %call, label %if.then, label %if.end

if.then:                                          ; preds = %do.end
  unreachable

if.end:                                           ; preds = %do.end
  %1 = load ptr, ptr %field.addr, align 8
  %call1 = call zeroext i1 @_upb_MiniTableField_InOneOf(ptr noundef %1)
  br i1 %call1, label %if.then2, label %if.else

if.then2:                                         ; preds = %if.end
  %2 = load ptr, ptr %msg.addr, align 8
  %3 = load ptr, ptr %field.addr, align 8
  %call3 = call i32 @_upb_getoneofcase_field(ptr noundef %2, ptr noundef %3)
  %4 = load ptr, ptr %field.addr, align 8
  %number = getelementptr inbounds %struct.upb_MiniTableField, ptr %4, i32 0, i32 0
  %5 = load i32, ptr %number, align 4
  %cmp = icmp eq i32 %call3, %5
  store i1 %cmp, ptr %retval, align 1
  br label %return

if.else:                                          ; preds = %if.end
  %6 = load ptr, ptr %msg.addr, align 8
  %7 = load ptr, ptr %field.addr, align 8
  %call4 = call zeroext i1 @_upb_hasbit_field(ptr noundef %6, ptr noundef %7)
  store i1 %call4, ptr %retval, align 1
  br label %return

return:                                           ; preds = %if.else, %if.then2
  %8 = load i1, ptr %retval, align 1
  ret i1 %8
}

; Function Attrs: mustprogress nounwind uwtable
define linkonce_odr void @_upb_MiniTable_CopyFieldData(ptr noundef %to, ptr noundef %from, ptr noundef %field) #4 comdat {
entry:
  %to.addr = alloca ptr, align 8
  %from.addr = alloca ptr, align 8
  %field.addr = alloca ptr, align 8
  store ptr %to, ptr %to.addr, align 8
  store ptr %from, ptr %from.addr, align 8
  store ptr %field, ptr %field.addr, align 8
  %0 = load ptr, ptr %field.addr, align 8
  %call = call noundef i32 @_Z26_upb_MiniTableField_GetRepPK18upb_MiniTableField(ptr noundef %0)
  switch i32 %call, label %sw.epilog [
    i32 0, label %sw.bb
    i32 1, label %sw.bb1
    i32 3, label %sw.bb2
    i32 2, label %sw.bb3
  ]

sw.bb:                                            ; preds = %entry
  %1 = load ptr, ptr %to.addr, align 8
  %2 = load ptr, ptr %from.addr, align 8
  call void @llvm.memcpy.p0.p0.i64(ptr align 1 %1, ptr align 1 %2, i64 1, i1 false)
  br label %do.end

sw.bb1:                                           ; preds = %entry
  %3 = load ptr, ptr %to.addr, align 8
  %4 = load ptr, ptr %from.addr, align 8
  call void @llvm.memcpy.p0.p0.i64(ptr align 1 %3, ptr align 1 %4, i64 4, i1 false)
  br label %do.end

sw.bb2:                                           ; preds = %entry
  %5 = load ptr, ptr %to.addr, align 8
  %6 = load ptr, ptr %from.addr, align 8
  call void @llvm.memcpy.p0.p0.i64(ptr align 1 %5, ptr align 1 %6, i64 8, i1 false)
  br label %do.end

sw.bb3:                                           ; preds = %entry
  %7 = load ptr, ptr %to.addr, align 8
  %8 = load ptr, ptr %from.addr, align 8
  call void @llvm.memcpy.p0.p0.i64(ptr align 1 %7, ptr align 1 %8, i64 16, i1 false)
  br label %do.end

sw.epilog:                                        ; preds = %entry
  br label %do.body

do.body:                                          ; preds = %sw.epilog
  unreachable

do.end:                                           ; preds = %sw.bb3, %sw.bb2, %sw.bb1, %sw.bb
  ret void
}

; Function Attrs: mustprogress nounwind uwtable
define linkonce_odr ptr @_upb_MiniTableField_GetConstPtr(ptr noundef %msg, ptr noundef %field) #4 comdat {
entry:
  %msg.addr = alloca ptr, align 8
  %field.addr = alloca ptr, align 8
  store ptr %msg, ptr %msg.addr, align 8
  store ptr %field, ptr %field.addr, align 8
  %0 = load ptr, ptr %msg.addr, align 8
  %1 = load ptr, ptr %field.addr, align 8
  %offset = getelementptr inbounds %struct.upb_MiniTableField, ptr %1, i32 0, i32 1
  %2 = load i16, ptr %offset, align 4
  %conv = zext i16 %2 to i32
  %idx.ext = sext i32 %conv to i64
  %add.ptr = getelementptr inbounds i8, ptr %0, i64 %idx.ext
  ret ptr %add.ptr
}

; Function Attrs: mustprogress nounwind uwtable
define linkonce_odr noundef i32 @_Z26_upb_MiniTableField_GetRepPK18upb_MiniTableField(ptr noundef %field) #4 comdat {
entry:
  %field.addr = alloca ptr, align 8
  store ptr %field, ptr %field.addr, align 8
  %0 = load ptr, ptr %field.addr, align 8
  %mode = getelementptr inbounds %struct.upb_MiniTableField, ptr %0, i32 0, i32 5
  %1 = load i8, ptr %mode, align 1
  %conv = zext i8 %1 to i32
  %shr = ashr i32 %conv, 6
  ret i32 %shr
}

; Function Attrs: nounwind willreturn memory(read)
declare i32 @memcmp(ptr noundef, ptr noundef, i64 noundef) #9

; Function Attrs: cold noreturn nounwind memory(inaccessiblemem: write)
declare void @llvm.trap() #10

; Function Attrs: mustprogress uwtable
define linkonce_odr i32 @_upb_getoneofcase_field(ptr noundef %msg, ptr noundef %f) #5 comdat {
entry:
  %msg.addr = alloca ptr, align 8
  %f.addr = alloca ptr, align 8
  store ptr %msg, ptr %msg.addr, align 8
  store ptr %f, ptr %f.addr, align 8
  %0 = load ptr, ptr %msg.addr, align 8
  %1 = load ptr, ptr %f.addr, align 8
  %call = call ptr @_upb_oneofcase_field(ptr noundef %0, ptr noundef %1)
  %2 = load i32, ptr %call, align 4
  ret i32 %2
}

; Function Attrs: mustprogress uwtable
define linkonce_odr zeroext i1 @_upb_hasbit_field(ptr noundef %msg, ptr noundef %f) #5 comdat {
entry:
  %msg.addr = alloca ptr, align 8
  %f.addr = alloca ptr, align 8
  store ptr %msg, ptr %msg.addr, align 8
  store ptr %f, ptr %f.addr, align 8
  %0 = load ptr, ptr %msg.addr, align 8
  %1 = load ptr, ptr %f.addr, align 8
  %call = call i64 @_upb_Message_Hasidx(ptr noundef %1)
  %call1 = call zeroext i1 @_upb_hasbit(ptr noundef %0, i64 noundef %call)
  ret i1 %call1
}

; Function Attrs: mustprogress uwtable
define linkonce_odr ptr @_upb_oneofcase_field(ptr noundef %msg, ptr noundef %f) #5 comdat {
entry:
  %msg.addr = alloca ptr, align 8
  %f.addr = alloca ptr, align 8
  store ptr %msg, ptr %msg.addr, align 8
  store ptr %f, ptr %f.addr, align 8
  %0 = load ptr, ptr %msg.addr, align 8
  %1 = load ptr, ptr %f.addr, align 8
  %call = call i64 @_upb_oneofcase_ofs(ptr noundef %1)
  %add.ptr = getelementptr inbounds i8, ptr %0, i64 %call
  ret ptr %add.ptr
}

; Function Attrs: mustprogress nounwind uwtable
define linkonce_odr i64 @_upb_oneofcase_ofs(ptr noundef %f) #4 comdat {
entry:
  %f.addr = alloca ptr, align 8
  store ptr %f, ptr %f.addr, align 8
  br label %do.body

do.body:                                          ; preds = %entry
  br label %do.end

do.end:                                           ; preds = %do.body
  %0 = load ptr, ptr %f.addr, align 8
  %presence = getelementptr inbounds %struct.upb_MiniTableField, ptr %0, i32 0, i32 2
  %1 = load i16, ptr %presence, align 2
  %conv = sext i16 %1 to i64
  %not = xor i64 %conv, -1
  ret i64 %not
}

; Function Attrs: mustprogress uwtable
define linkonce_odr zeroext i1 @_upb_hasbit(ptr noundef %msg, i64 noundef %idx) #5 comdat {
entry:
  %msg.addr = alloca ptr, align 8
  %idx.addr = alloca i64, align 8
  store ptr %msg, ptr %msg.addr, align 8
  store i64 %idx, ptr %idx.addr, align 8
  %0 = load ptr, ptr %msg.addr, align 8
  %1 = load i64, ptr %idx.addr, align 8
  %call = call i64 @_upb_hasbit_ofs(i64 noundef %1)
  %add.ptr = getelementptr inbounds i8, ptr %0, i64 %call
  %2 = load i8, ptr %add.ptr, align 1
  %conv = sext i8 %2 to i32
  %3 = load i64, ptr %idx.addr, align 8
  %call1 = call signext i8 @_upb_hasbit_mask(i64 noundef %3)
  %conv2 = sext i8 %call1 to i32
  %and = and i32 %conv, %conv2
  %cmp = icmp ne i32 %and, 0
  ret i1 %cmp
}

; Function Attrs: mustprogress nounwind uwtable
define linkonce_odr i64 @_upb_Message_Hasidx(ptr noundef %f) #4 comdat {
entry:
  %f.addr = alloca ptr, align 8
  store ptr %f, ptr %f.addr, align 8
  br label %do.body

do.body:                                          ; preds = %entry
  br label %do.end

do.end:                                           ; preds = %do.body
  %0 = load ptr, ptr %f.addr, align 8
  %presence = getelementptr inbounds %struct.upb_MiniTableField, ptr %0, i32 0, i32 2
  %1 = load i16, ptr %presence, align 2
  %conv = sext i16 %1 to i64
  ret i64 %conv
}

; Function Attrs: mustprogress nounwind uwtable
define linkonce_odr i64 @_upb_hasbit_ofs(i64 noundef %idx) #4 comdat {
entry:
  %idx.addr = alloca i64, align 8
  store i64 %idx, ptr %idx.addr, align 8
  %0 = load i64, ptr %idx.addr, align 8
  %div = udiv i64 %0, 8
  ret i64 %div
}

; Function Attrs: mustprogress nounwind uwtable
define linkonce_odr signext i8 @_upb_hasbit_mask(i64 noundef %idx) #4 comdat {
entry:
  %idx.addr = alloca i64, align 8
  store i64 %idx, ptr %idx.addr, align 8
  %0 = load i64, ptr %idx.addr, align 8
  %rem = urem i64 %0, 8
  %sh_prom = trunc i64 %rem to i32
  %shl = shl i32 1, %sh_prom
  %conv = trunc i32 %shl to i8
  ret i8 %conv
}

declare void @_ZN9grpc_core16ValidationErrors9PushFieldESt17basic_string_viewIcSt11char_traitsIcEE(ptr noundef nonnull align 8 dereferenceable(72), i64, ptr) #1

; Function Attrs: mustprogress nounwind uwtable
define linkonce_odr { i64, ptr } @_ZN4absl12lts_2023080218NullSafeStringViewEPKc(ptr noundef %p) #4 comdat {
entry:
  %retval = alloca %"class.std::basic_string_view", align 8
  %p.addr = alloca ptr, align 8
  store ptr %p, ptr %p.addr, align 8
  %0 = load ptr, ptr %p.addr, align 8
  %tobool = icmp ne ptr %0, null
  br i1 %tobool, label %cond.true, label %cond.false

cond.true:                                        ; preds = %entry
  %1 = load ptr, ptr %p.addr, align 8
  call void @_ZNSt17basic_string_viewIcSt11char_traitsIcEEC2EPKc(ptr noundef nonnull align 8 dereferenceable(16) %retval, ptr noundef %1) #3
  br label %cond.end

cond.false:                                       ; preds = %entry
  call void @_ZNSt17basic_string_viewIcSt11char_traitsIcEEC2Ev(ptr noundef nonnull align 8 dereferenceable(16) %retval) #3
  br label %cond.end

cond.end:                                         ; preds = %cond.false, %cond.true
  %2 = load { i64, ptr }, ptr %retval, align 8
  ret { i64, ptr } %2
}

; Function Attrs: mustprogress nounwind uwtable
define linkonce_odr void @_ZNSt17basic_string_viewIcSt11char_traitsIcEEC2Ev(ptr noundef nonnull align 8 dereferenceable(16) %this) unnamed_addr #4 comdat align 2 {
entry:
  %this.addr = alloca ptr, align 8
  store ptr %this, ptr %this.addr, align 8
  %this1 = load ptr, ptr %this.addr, align 8
  %_M_len = getelementptr inbounds %"class.std::basic_string_view", ptr %this1, i32 0, i32 0
  store i64 0, ptr %_M_len, align 8
  %_M_str = getelementptr inbounds %"class.std::basic_string_view", ptr %this1, i32 0, i32 1
  store ptr null, ptr %_M_str, align 8
  ret void
}

declare noundef ptr @_ZN4absl12lts_2023080216numbers_internal15FastIntToBufferEiPc(i32 noundef, ptr noundef) #1

; Function Attrs: mustprogress nounwind uwtable
define linkonce_odr void @_ZNSt17basic_string_viewIcSt11char_traitsIcEEC2EPKcm(ptr noundef nonnull align 8 dereferenceable(16) %this, ptr noundef %__str, i64 noundef %__len) unnamed_addr #4 comdat align 2 {
entry:
  %this.addr = alloca ptr, align 8
  %__str.addr = alloca ptr, align 8
  %__len.addr = alloca i64, align 8
  store ptr %this, ptr %this.addr, align 8
  store ptr %__str, ptr %__str.addr, align 8
  store i64 %__len, ptr %__len.addr, align 8
  %this1 = load ptr, ptr %this.addr, align 8
  %_M_len = getelementptr inbounds %"class.std::basic_string_view", ptr %this1, i32 0, i32 0
  %0 = load i64, ptr %__len.addr, align 8
  store i64 %0, ptr %_M_len, align 8
  %_M_str = getelementptr inbounds %"class.std::basic_string_view", ptr %this1, i32 0, i32 1
  %1 = load ptr, ptr %__str.addr, align 8
  store ptr %1, ptr %_M_str, align 8
  ret void
}

declare void @_ZN9grpc_core16ValidationErrors8PopFieldEv(ptr noundef nonnull align 8 dereferenceable(72)) #1

; Function Attrs: mustprogress nounwind uwtable
define linkonce_odr void @_ZN9grpc_core12experimental4JsonC2Ev(ptr noundef nonnull align 8 dereferenceable(56) %this) unnamed_addr #4 comdat align 2 {
entry:
  %this.addr = alloca ptr, align 8
  store ptr %this, ptr %this.addr, align 8
  %this1 = load ptr, ptr %this.addr, align 8
  %value_ = getelementptr inbounds %"class.grpc_core::experimental::Json", ptr %this1, i32 0, i32 0
  call void @_ZNSt7variantIJSt9monostatebN9grpc_core12experimental4Json11NumberValueENSt7__cxx1112basic_stringIcSt11char_traitsIcESaIcEEESt3mapISA_S3_St4lessISA_ESaISt4pairIKSA_S3_EEESt6vectorIS3_SaIS3_EEEEC2Ev(ptr noundef nonnull align 8 dereferenceable(49) %value_) #3
  ret void
}

; Function Attrs: mustprogress nounwind uwtable
define linkonce_odr noundef nonnull align 8 dereferenceable(49) ptr @_ZNSt7variantIJSt9monostatebN9grpc_core12experimental4Json11NumberValueENSt7__cxx1112basic_stringIcSt11char_traitsIcESaIcEEESt3mapISA_S3_St4lessISA_ESaISt4pairIKSA_S3_EEESt6vectorIS3_SaIS3_EEEEaSISA_EENSt9enable_ifIXaaaa14__exactly_onceINSt9_Nth_typeIX16__accepted_indexIOT_EEJS0_bS4_SA_SI_SL_EE4typeEE18is_constructible_vIST_SQ_E15is_assignable_vIRST_SQ_EERSM_E4typeESR_(ptr noundef nonnull align 8 dereferenceable(49) %this, ptr noundef nonnull align 8 dereferenceable(32) %__rhs) #4 comdat align 2 personality ptr @__gxx_personality_v0 {
entry:
  %this.addr = alloca ptr, align 8
  %__rhs.addr = alloca ptr, align 8
  %__index = alloca i64, align 8
  store ptr %this, ptr %this.addr, align 8
  store ptr %__rhs, ptr %__rhs.addr, align 8
  %this1 = load ptr, ptr %this.addr, align 8
  store i64 3, ptr %__index, align 8
  %call = call noundef i64 @_ZNKSt7variantIJSt9monostatebN9grpc_core12experimental4Json11NumberValueENSt7__cxx1112basic_stringIcSt11char_traitsIcESaIcEEESt3mapISA_S3_St4lessISA_ESaISt4pairIKSA_S3_EEESt6vectorIS3_SaIS3_EEEE5indexEv(ptr noundef nonnull align 8 dereferenceable(49) %this1) #3
  %cmp = icmp eq i64 %call, 3
  br i1 %cmp, label %if.then, label %if.else

if.then:                                          ; preds = %entry
  %0 = load ptr, ptr %__rhs.addr, align 8
  %call2 = invoke noundef nonnull align 8 dereferenceable(32) ptr @_ZSt3getILm3EJSt9monostatebN9grpc_core12experimental4Json11NumberValueENSt7__cxx1112basic_stringIcSt11char_traitsIcESaIcEEESt3mapISA_S3_St4lessISA_ESaISt4pairIKSA_S3_EEESt6vectorIS3_SaIS3_EEEERNSt19variant_alternativeIXT_ESt7variantIJDpT0_EEE4typeERSQ_(ptr noundef nonnull align 8 dereferenceable(49) %this1)
          to label %invoke.cont unwind label %terminate.lpad

invoke.cont:                                      ; preds = %if.then
  %call3 = call noundef nonnull align 8 dereferenceable(32) ptr @_ZNSt7__cxx1112basic_stringIcSt11char_traitsIcESaIcEEaSEOS4_(ptr noundef nonnull align 8 dereferenceable(32) %call2, ptr noundef nonnull align 8 dereferenceable(32) %0) #3
  br label %if.end

if.else:                                          ; preds = %entry
  %1 = load ptr, ptr %__rhs.addr, align 8
  %call5 = invoke noundef nonnull align 8 dereferenceable(32) ptr @_ZNSt7variantIJSt9monostatebN9grpc_core12experimental4Json11NumberValueENSt7__cxx1112basic_stringIcSt11char_traitsIcESaIcEEESt3mapISA_S3_St4lessISA_ESaISt4pairIKSA_S3_EEESt6vectorIS3_SaIS3_EEEE7emplaceILm3EJSA_EEENSt9enable_ifIX18is_constructible_vINSt9_Nth_typeIXT_EJS0_bS4_SA_SI_SL_EE4typeEDpT0_EERSR_E4typeEDpOSS_(ptr noundef nonnull align 8 dereferenceable(49) %this1, ptr noundef nonnull align 8 dereferenceable(32) %1)
          to label %invoke.cont4 unwind label %terminate.lpad

invoke.cont4:                                     ; preds = %if.else
  br label %if.end

if.end:                                           ; preds = %invoke.cont4, %invoke.cont
  ret ptr %this1

terminate.lpad:                                   ; preds = %if.else, %if.then
  %2 = landingpad { ptr, i32 }
          catch ptr null
  %3 = extractvalue { ptr, i32 } %2, 0
  call void @__clang_call_terminate(ptr %3) #14
  unreachable
}

; Function Attrs: mustprogress nounwind uwtable
define linkonce_odr void @_ZNSt7variantIJSt9monostatebN9grpc_core12experimental4Json11NumberValueENSt7__cxx1112basic_stringIcSt11char_traitsIcESaIcEEESt3mapISA_S3_St4lessISA_ESaISt4pairIKSA_S3_EEESt6vectorIS3_SaIS3_EEEEC2Ev(ptr noundef nonnull align 8 dereferenceable(49) %this) unnamed_addr #4 comdat align 2 {
entry:
  %this.addr = alloca ptr, align 8
  store ptr %this, ptr %this.addr, align 8
  %this1 = load ptr, ptr %this.addr, align 8
  call void @_ZNSt8__detail9__variant13_Variant_baseIJSt9monostatebN9grpc_core12experimental4Json11NumberValueENSt7__cxx1112basic_stringIcSt11char_traitsIcESaIcEEESt3mapISC_S5_St4lessISC_ESaISt4pairIKSC_S5_EEESt6vectorIS5_SaIS5_EEEEC2Ev(ptr noundef nonnull align 8 dereferenceable(49) %this1) #3
  ret void
}

; Function Attrs: mustprogress nounwind uwtable
define linkonce_odr void @_ZNSt8__detail9__variant13_Variant_baseIJSt9monostatebN9grpc_core12experimental4Json11NumberValueENSt7__cxx1112basic_stringIcSt11char_traitsIcESaIcEEESt3mapISC_S5_St4lessISC_ESaISt4pairIKSC_S5_EEESt6vectorIS5_SaIS5_EEEEC2Ev(ptr noundef nonnull align 8 dereferenceable(49) %this) unnamed_addr #4 comdat align 2 personality ptr @__gxx_personality_v0 {
entry:
  %this.addr = alloca ptr, align 8
  store ptr %this, ptr %this.addr, align 8
  %this1 = load ptr, ptr %this.addr, align 8
  invoke void @_ZNSt8__detail9__variant13_Variant_baseIJSt9monostatebN9grpc_core12experimental4Json11NumberValueENSt7__cxx1112basic_stringIcSt11char_traitsIcESaIcEEESt3mapISC_S5_St4lessISC_ESaISt4pairIKSC_S5_EEESt6vectorIS5_SaIS5_EEEEC2ILm0EJEEESt16in_place_index_tIXT_EEDpOT0_(ptr noundef nonnull align 8 dereferenceable(49) %this1)
          to label %invoke.cont unwind label %terminate.lpad

invoke.cont:                                      ; preds = %entry
  ret void

terminate.lpad:                                   ; preds = %entry
  %0 = landingpad { ptr, i32 }
          catch ptr null
  %1 = extractvalue { ptr, i32 } %0, 0
  call void @__clang_call_terminate(ptr %1) #14
  unreachable
}

; Function Attrs: mustprogress uwtable
define linkonce_odr void @_ZNSt8__detail9__variant13_Variant_baseIJSt9monostatebN9grpc_core12experimental4Json11NumberValueENSt7__cxx1112basic_stringIcSt11char_traitsIcESaIcEEESt3mapISC_S5_St4lessISC_ESaISt4pairIKSC_S5_EEESt6vectorIS5_SaIS5_EEEEC2ILm0EJEEESt16in_place_index_tIXT_EEDpOT0_(ptr noundef nonnull align 8 dereferenceable(49) %this) unnamed_addr #5 comdat align 2 {
entry:
  %this.addr = alloca ptr, align 8
  store ptr %this, ptr %this.addr, align 8
  %this1 = load ptr, ptr %this.addr, align 8
  call void @_ZNSt8__detail9__variant17_Move_assign_baseILb0EJSt9monostatebN9grpc_core12experimental4Json11NumberValueENSt7__cxx1112basic_stringIcSt11char_traitsIcESaIcEEESt3mapISC_S5_St4lessISC_ESaISt4pairIKSC_S5_EEESt6vectorIS5_SaIS5_EEEECI2NS0_16_Variant_storageILb0EJS2_bS6_SC_SK_SN_EEEILm0EJEEESt16in_place_index_tIXT_EEDpOT0_(ptr noundef nonnull align 8 dereferenceable(49) %this1)
  ret void
}

; Function Attrs: mustprogress uwtable
define linkonce_odr void @_ZNSt8__detail9__variant17_Move_assign_baseILb0EJSt9monostatebN9grpc_core12experimental4Json11NumberValueENSt7__cxx1112basic_stringIcSt11char_traitsIcESaIcEEESt3mapISC_S5_St4lessISC_ESaISt4pairIKSC_S5_EEESt6vectorIS5_SaIS5_EEEECI2NS0_16_Variant_storageILb0EJS2_bS6_SC_SK_SN_EEEILm0EJEEESt16in_place_index_tIXT_EEDpOT0_(ptr noundef nonnull align 8 dereferenceable(49) %this) unnamed_addr #5 comdat align 2 {
entry:
  %this.addr = alloca ptr, align 8
  store ptr %this, ptr %this.addr, align 8
  %this1 = load ptr, ptr %this.addr, align 8
  call void @_ZNSt8__detail9__variant17_Copy_assign_baseILb0EJSt9monostatebN9grpc_core12experimental4Json11NumberValueENSt7__cxx1112basic_stringIcSt11char_traitsIcESaIcEEESt3mapISC_S5_St4lessISC_ESaISt4pairIKSC_S5_EEESt6vectorIS5_SaIS5_EEEECI2NS0_16_Variant_storageILb0EJS2_bS6_SC_SK_SN_EEEILm0EJEEESt16in_place_index_tIXT_EEDpOT0_(ptr noundef nonnull align 8 dereferenceable(49) %this1)
  ret void
}

; Function Attrs: mustprogress uwtable
define linkonce_odr void @_ZNSt8__detail9__variant17_Copy_assign_baseILb0EJSt9monostatebN9grpc_core12experimental4Json11NumberValueENSt7__cxx1112basic_stringIcSt11char_traitsIcESaIcEEESt3mapISC_S5_St4lessISC_ESaISt4pairIKSC_S5_EEESt6vectorIS5_SaIS5_EEEECI2NS0_16_Variant_storageILb0EJS2_bS6_SC_SK_SN_EEEILm0EJEEESt16in_place_index_tIXT_EEDpOT0_(ptr noundef nonnull align 8 dereferenceable(49) %this) unnamed_addr #5 comdat align 2 {
entry:
  %this.addr = alloca ptr, align 8
  store ptr %this, ptr %this.addr, align 8
  %this1 = load ptr, ptr %this.addr, align 8
  call void @_ZNSt8__detail9__variant15_Move_ctor_baseILb0EJSt9monostatebN9grpc_core12experimental4Json11NumberValueENSt7__cxx1112basic_stringIcSt11char_traitsIcESaIcEEESt3mapISC_S5_St4lessISC_ESaISt4pairIKSC_S5_EEESt6vectorIS5_SaIS5_EEEECI2NS0_16_Variant_storageILb0EJS2_bS6_SC_SK_SN_EEEILm0EJEEESt16in_place_index_tIXT_EEDpOT0_(ptr noundef nonnull align 8 dereferenceable(49) %this1)
  ret void
}

; Function Attrs: mustprogress uwtable
define linkonce_odr void @_ZNSt8__detail9__variant15_Move_ctor_baseILb0EJSt9monostatebN9grpc_core12experimental4Json11NumberValueENSt7__cxx1112basic_stringIcSt11char_traitsIcESaIcEEESt3mapISC_S5_St4lessISC_ESaISt4pairIKSC_S5_EEESt6vectorIS5_SaIS5_EEEECI2NS0_16_Variant_storageILb0EJS2_bS6_SC_SK_SN_EEEILm0EJEEESt16in_place_index_tIXT_EEDpOT0_(ptr noundef nonnull align 8 dereferenceable(49) %this) unnamed_addr #5 comdat align 2 {
entry:
  %this.addr = alloca ptr, align 8
  store ptr %this, ptr %this.addr, align 8
  %this1 = load ptr, ptr %this.addr, align 8
  call void @_ZNSt8__detail9__variant15_Copy_ctor_baseILb0EJSt9monostatebN9grpc_core12experimental4Json11NumberValueENSt7__cxx1112basic_stringIcSt11char_traitsIcESaIcEEESt3mapISC_S5_St4lessISC_ESaISt4pairIKSC_S5_EEESt6vectorIS5_SaIS5_EEEECI2NS0_16_Variant_storageILb0EJS2_bS6_SC_SK_SN_EEEILm0EJEEESt16in_place_index_tIXT_EEDpOT0_(ptr noundef nonnull align 8 dereferenceable(49) %this1)
  ret void
}

; Function Attrs: mustprogress uwtable
define linkonce_odr void @_ZNSt8__detail9__variant15_Copy_ctor_baseILb0EJSt9monostatebN9grpc_core12experimental4Json11NumberValueENSt7__cxx1112basic_stringIcSt11char_traitsIcESaIcEEESt3mapISC_S5_St4lessISC_ESaISt4pairIKSC_S5_EEESt6vectorIS5_SaIS5_EEEECI2NS0_16_Variant_storageILb0EJS2_bS6_SC_SK_SN_EEEILm0EJEEESt16in_place_index_tIXT_EEDpOT0_(ptr noundef nonnull align 8 dereferenceable(49) %this) unnamed_addr #5 comdat align 2 {
entry:
  %this.addr = alloca ptr, align 8
  store ptr %this, ptr %this.addr, align 8
  %this1 = load ptr, ptr %this.addr, align 8
  call void @_ZNSt8__detail9__variant16_Variant_storageILb0EJSt9monostatebN9grpc_core12experimental4Json11NumberValueENSt7__cxx1112basic_stringIcSt11char_traitsIcESaIcEEESt3mapISC_S5_St4lessISC_ESaISt4pairIKSC_S5_EEESt6vectorIS5_SaIS5_EEEEC2ILm0EJEEESt16in_place_index_tIXT_EEDpOT0_(ptr noundef nonnull align 8 dereferenceable(49) %this1)
  ret void
}

; Function Attrs: mustprogress uwtable
define linkonce_odr void @_ZNSt8__detail9__variant16_Variant_storageILb0EJSt9monostatebN9grpc_core12experimental4Json11NumberValueENSt7__cxx1112basic_stringIcSt11char_traitsIcESaIcEEESt3mapISC_S5_St4lessISC_ESaISt4pairIKSC_S5_EEESt6vectorIS5_SaIS5_EEEEC2ILm0EJEEESt16in_place_index_tIXT_EEDpOT0_(ptr noundef nonnull align 8 dereferenceable(49) %this) unnamed_addr #5 comdat align 2 {
entry:
  %this.addr = alloca ptr, align 8
  store ptr %this, ptr %this.addr, align 8
  %this1 = load ptr, ptr %this.addr, align 8
  %_M_u = getelementptr inbounds %"struct.std::__detail::__variant::_Variant_storage", ptr %this1, i32 0, i32 0
  call void @_ZNSt8__detail9__variant15_Variadic_unionIJSt9monostatebN9grpc_core12experimental4Json11NumberValueENSt7__cxx1112basic_stringIcSt11char_traitsIcESaIcEEESt3mapISC_S5_St4lessISC_ESaISt4pairIKSC_S5_EEESt6vectorIS5_SaIS5_EEEEC2IJEEESt16in_place_index_tILm0EEDpOT_(ptr noundef nonnull align 8 dereferenceable(48) %_M_u)
  %_M_index = getelementptr inbounds %"struct.std::__detail::__variant::_Variant_storage", ptr %this1, i32 0, i32 1
  store i8 0, ptr %_M_index, align 8
  ret void
}

; Function Attrs: mustprogress uwtable
define linkonce_odr void @_ZNSt8__detail9__variant15_Variadic_unionIJSt9monostatebN9grpc_core12experimental4Json11NumberValueENSt7__cxx1112basic_stringIcSt11char_traitsIcESaIcEEESt3mapISC_S5_St4lessISC_ESaISt4pairIKSC_S5_EEESt6vectorIS5_SaIS5_EEEEC2IJEEESt16in_place_index_tILm0EEDpOT_(ptr noundef nonnull align 8 dereferenceable(48) %this) unnamed_addr #5 comdat align 2 {
entry:
  %this.addr = alloca ptr, align 8
  store ptr %this, ptr %this.addr, align 8
  %this1 = load ptr, ptr %this.addr, align 8
  call void @_ZNSt8__detail9__variant14_UninitializedISt9monostateLb1EEC2IJEEESt16in_place_index_tILm0EEDpOT_(ptr noundef nonnull align 1 dereferenceable(1) %this1)
  ret void
}

; Function Attrs: mustprogress nounwind uwtable
define linkonce_odr void @_ZNSt8__detail9__variant14_UninitializedISt9monostateLb1EEC2IJEEESt16in_place_index_tILm0EEDpOT_(ptr noundef nonnull align 1 dereferenceable(1) %this) unnamed_addr #4 comdat align 2 {
entry:
  %this.addr = alloca ptr, align 8
  store ptr %this, ptr %this.addr, align 8
  ret void
}

; Function Attrs: mustprogress nounwind uwtable
define linkonce_odr noundef i64 @_ZNKSt7variantIJSt9monostatebN9grpc_core12experimental4Json11NumberValueENSt7__cxx1112basic_stringIcSt11char_traitsIcESaIcEEESt3mapISA_S3_St4lessISA_ESaISt4pairIKSA_S3_EEESt6vectorIS3_SaIS3_EEEE5indexEv(ptr noundef nonnull align 8 dereferenceable(49) %this) #4 comdat align 2 {
entry:
  %this.addr = alloca ptr, align 8
  store ptr %this, ptr %this.addr, align 8
  %this1 = load ptr, ptr %this.addr, align 8
  %_M_index = getelementptr inbounds %"struct.std::__detail::__variant::_Variant_storage", ptr %this1, i32 0, i32 1
  %0 = load i8, ptr %_M_index, align 8
  %conv = sext i8 %0 to i64
  ret i64 %conv
}

; Function Attrs: mustprogress uwtable
define linkonce_odr noundef nonnull align 8 dereferenceable(32) ptr @_ZSt3getILm3EJSt9monostatebN9grpc_core12experimental4Json11NumberValueENSt7__cxx1112basic_stringIcSt11char_traitsIcESaIcEEESt3mapISA_S3_St4lessISA_ESaISt4pairIKSA_S3_EEESt6vectorIS3_SaIS3_EEEERNSt19variant_alternativeIXT_ESt7variantIJDpT0_EEE4typeERSQ_(ptr noundef nonnull align 8 dereferenceable(49) %__v) #5 comdat {
entry:
  %__v.addr = alloca ptr, align 8
  store ptr %__v, ptr %__v.addr, align 8
  %0 = load ptr, ptr %__v.addr, align 8
  %call = call noundef i64 @_ZNKSt7variantIJSt9monostatebN9grpc_core12experimental4Json11NumberValueENSt7__cxx1112basic_stringIcSt11char_traitsIcESaIcEEESt3mapISA_S3_St4lessISA_ESaISt4pairIKSA_S3_EEESt6vectorIS3_SaIS3_EEEE5indexEv(ptr noundef nonnull align 8 dereferenceable(49) %0) #3
  %cmp = icmp ne i64 %call, 3
  br i1 %cmp, label %if.then, label %if.end

if.then:                                          ; preds = %entry
  %1 = load ptr, ptr %__v.addr, align 8
  %call1 = call noundef zeroext i1 @_ZNKSt7variantIJSt9monostatebN9grpc_core12experimental4Json11NumberValueENSt7__cxx1112basic_stringIcSt11char_traitsIcESaIcEEESt3mapISA_S3_St4lessISA_ESaISt4pairIKSA_S3_EEESt6vectorIS3_SaIS3_EEEE22valueless_by_exceptionEv(ptr noundef nonnull align 8 dereferenceable(49) %1) #3
  call void @_ZSt26__throw_bad_variant_accessb(i1 noundef zeroext %call1)
  br label %if.end

if.end:                                           ; preds = %if.then, %entry
  %2 = load ptr, ptr %__v.addr, align 8
  %call2 = call noundef nonnull align 8 dereferenceable(32) ptr @_ZNSt8__detail9__variant5__getILm3ERSt7variantIJSt9monostatebN9grpc_core12experimental4Json11NumberValueENSt7__cxx1112basic_stringIcSt11char_traitsIcESaIcEEESt3mapISD_S6_St4lessISD_ESaISt4pairIKSD_S6_EEESt6vectorIS6_SaIS6_EEEEEEDcOT0_(ptr noundef nonnull align 8 dereferenceable(49) %2) #3
  ret ptr %call2
}

; Function Attrs: nounwind
declare noundef nonnull align 8 dereferenceable(32) ptr @_ZNSt7__cxx1112basic_stringIcSt11char_traitsIcESaIcEEaSEOS4_(ptr noundef nonnull align 8 dereferenceable(32), ptr noundef nonnull align 8 dereferenceable(32)) #2

; Function Attrs: mustprogress uwtable
define linkonce_odr noundef nonnull align 8 dereferenceable(32) ptr @_ZNSt7variantIJSt9monostatebN9grpc_core12experimental4Json11NumberValueENSt7__cxx1112basic_stringIcSt11char_traitsIcESaIcEEESt3mapISA_S3_St4lessISA_ESaISt4pairIKSA_S3_EEESt6vectorIS3_SaIS3_EEEE7emplaceILm3EJSA_EEENSt9enable_ifIX18is_constructible_vINSt9_Nth_typeIXT_EJS0_bS4_SA_SI_SL_EE4typeEDpT0_EERSR_E4typeEDpOSS_(ptr noundef nonnull align 8 dereferenceable(49) %this, ptr noundef nonnull align 8 dereferenceable(32) %__args) #5 comdat align 2 {
entry:
  %this.addr = alloca ptr, align 8
  %__args.addr = alloca ptr, align 8
  store ptr %this, ptr %this.addr, align 8
  store ptr %__args, ptr %__args.addr, align 8
  %this1 = load ptr, ptr %this.addr, align 8
  %0 = load ptr, ptr %__args.addr, align 8
  call void @_ZNSt8__detail9__variant9__emplaceILm3ELb0EJSt9monostatebN9grpc_core12experimental4Json11NumberValueENSt7__cxx1112basic_stringIcSt11char_traitsIcESaIcEEESt3mapISC_S5_St4lessISC_ESaISt4pairIKSC_S5_EEESt6vectorIS5_SaIS5_EEEJSC_EEEvRNS0_16_Variant_storageIXT0_EJDpT1_EEEDpOT2_(ptr noundef nonnull align 8 dereferenceable(49) %this1, ptr noundef nonnull align 8 dereferenceable(32) %0)
  %call = call noundef nonnull align 8 dereferenceable(32) ptr @_ZSt3getILm3EJSt9monostatebN9grpc_core12experimental4Json11NumberValueENSt7__cxx1112basic_stringIcSt11char_traitsIcESaIcEEESt3mapISA_S3_St4lessISA_ESaISt4pairIKSA_S3_EEESt6vectorIS3_SaIS3_EEEERNSt19variant_alternativeIXT_ESt7variantIJDpT0_EEE4typeERSQ_(ptr noundef nonnull align 8 dereferenceable(49) %this1)
  ret ptr %call
}

; Function Attrs: mustprogress uwtable
define linkonce_odr void @_ZSt26__throw_bad_variant_accessb(i1 noundef zeroext %__valueless) #5 comdat {
entry:
  %__valueless.addr = alloca i8, align 1
  %frombool = zext i1 %__valueless to i8
  store i8 %frombool, ptr %__valueless.addr, align 1
  %0 = load i8, ptr %__valueless.addr, align 1
  %tobool = trunc i8 %0 to i1
  br i1 %tobool, label %if.then, label %if.else

if.then:                                          ; preds = %entry
  call void @_ZSt26__throw_bad_variant_accessPKc(ptr noundef @.str.26)
  br label %if.end

if.else:                                          ; preds = %entry
  call void @_ZSt26__throw_bad_variant_accessPKc(ptr noundef @.str.27)
  br label %if.end

if.end:                                           ; preds = %if.else, %if.then
  ret void
}

; Function Attrs: mustprogress nounwind uwtable
define linkonce_odr noundef zeroext i1 @_ZNKSt7variantIJSt9monostatebN9grpc_core12experimental4Json11NumberValueENSt7__cxx1112basic_stringIcSt11char_traitsIcESaIcEEESt3mapISA_S3_St4lessISA_ESaISt4pairIKSA_S3_EEESt6vectorIS3_SaIS3_EEEE22valueless_by_exceptionEv(ptr noundef nonnull align 8 dereferenceable(49) %this) #4 comdat align 2 {
entry:
  %this.addr = alloca ptr, align 8
  store ptr %this, ptr %this.addr, align 8
  %this1 = load ptr, ptr %this.addr, align 8
  %call = call noundef zeroext i1 @_ZNKSt8__detail9__variant16_Variant_storageILb0EJSt9monostatebN9grpc_core12experimental4Json11NumberValueENSt7__cxx1112basic_stringIcSt11char_traitsIcESaIcEEESt3mapISC_S5_St4lessISC_ESaISt4pairIKSC_S5_EEESt6vectorIS5_SaIS5_EEEE8_M_validEv(ptr noundef nonnull align 8 dereferenceable(49) %this1) #3
  %lnot = xor i1 %call, true
  ret i1 %lnot
}

; Function Attrs: mustprogress nounwind uwtable
define linkonce_odr noundef nonnull align 8 dereferenceable(32) ptr @_ZNSt8__detail9__variant5__getILm3ERSt7variantIJSt9monostatebN9grpc_core12experimental4Json11NumberValueENSt7__cxx1112basic_stringIcSt11char_traitsIcESaIcEEESt3mapISD_S6_St4lessISD_ESaISt4pairIKSD_S6_EEESt6vectorIS6_SaIS6_EEEEEEDcOT0_(ptr noundef nonnull align 8 dereferenceable(49) %__v) #4 comdat {
entry:
  %__v.addr = alloca ptr, align 8
  store ptr %__v, ptr %__v.addr, align 8
  %0 = load ptr, ptr %__v.addr, align 8
  %_M_u = getelementptr inbounds %"struct.std::__detail::__variant::_Variant_storage", ptr %0, i32 0, i32 0
  %call = call noundef nonnull align 8 dereferenceable(32) ptr @_ZNSt8__detail9__variant7__get_nILm3ERNS0_15_Variadic_unionIJSt9monostatebN9grpc_core12experimental4Json11NumberValueENSt7__cxx1112basic_stringIcSt11char_traitsIcESaIcEEESt3mapISD_S6_St4lessISD_ESaISt4pairIKSD_S6_EEESt6vectorIS6_SaIS6_EEEEEEEDcOT0_(ptr noundef nonnull align 8 dereferenceable(48) %_M_u) #3
  ret ptr %call
}

; Function Attrs: mustprogress uwtable
define linkonce_odr void @_ZSt26__throw_bad_variant_accessPKc(ptr noundef %__what) #5 comdat {
entry:
  %__what.addr = alloca ptr, align 8
  store ptr %__what, ptr %__what.addr, align 8
  %exception = call ptr @__cxa_allocate_exception(i64 16) #3
  %0 = load ptr, ptr %__what.addr, align 8
  call void @_ZNSt18bad_variant_accessC2EPKc(ptr noundef nonnull align 8 dereferenceable(16) %exception, ptr noundef %0) #3
  call void @__cxa_throw(ptr %exception, ptr @_ZTISt18bad_variant_access, ptr @_ZNSt18bad_variant_accessD2Ev) #15
  unreachable
}

declare ptr @__cxa_allocate_exception(i64)

; Function Attrs: mustprogress nounwind uwtable
define linkonce_odr void @_ZNSt18bad_variant_accessC2EPKc(ptr noundef nonnull align 8 dereferenceable(16) %this, ptr noundef %__reason) unnamed_addr #4 comdat align 2 {
entry:
  %this.addr = alloca ptr, align 8
  %__reason.addr = alloca ptr, align 8
  store ptr %this, ptr %this.addr, align 8
  store ptr %__reason, ptr %__reason.addr, align 8
  %this1 = load ptr, ptr %this.addr, align 8
  call void @_ZNSt9exceptionC2Ev(ptr noundef nonnull align 8 dereferenceable(8) %this1) #3
  store ptr getelementptr inbounds ({ [5 x ptr] }, ptr @_ZTVSt18bad_variant_access, i32 0, inrange i32 0, i32 2), ptr %this1, align 8
  %_M_reason = getelementptr inbounds %"class.std::bad_variant_access", ptr %this1, i32 0, i32 1
  %0 = load ptr, ptr %__reason.addr, align 8
  store ptr %0, ptr %_M_reason, align 8
  ret void
}

; Function Attrs: mustprogress nounwind uwtable
define linkonce_odr void @_ZNSt18bad_variant_accessD2Ev(ptr noundef nonnull align 8 dereferenceable(16) %this) unnamed_addr #4 comdat align 2 {
entry:
  %this.addr = alloca ptr, align 8
  store ptr %this, ptr %this.addr, align 8
  %this1 = load ptr, ptr %this.addr, align 8
  call void @_ZNSt9exceptionD2Ev(ptr noundef nonnull align 8 dereferenceable(8) %this1) #3
  ret void
}

declare void @__cxa_throw(ptr, ptr, ptr)

; Function Attrs: mustprogress nounwind uwtable
define linkonce_odr void @_ZNSt9exceptionC2Ev(ptr noundef nonnull align 8 dereferenceable(8) %this) unnamed_addr #4 comdat align 2 {
entry:
  %this.addr = alloca ptr, align 8
  store ptr %this, ptr %this.addr, align 8
  %this1 = load ptr, ptr %this.addr, align 8
  store ptr getelementptr inbounds ({ [5 x ptr] }, ptr @_ZTVSt9exception, i32 0, inrange i32 0, i32 2), ptr %this1, align 8
  ret void
}

; Function Attrs: mustprogress nounwind uwtable
define linkonce_odr void @_ZNSt18bad_variant_accessD0Ev(ptr noundef nonnull align 8 dereferenceable(16) %this) unnamed_addr #4 comdat align 2 {
entry:
  %this.addr = alloca ptr, align 8
  store ptr %this, ptr %this.addr, align 8
  %this1 = load ptr, ptr %this.addr, align 8
  call void @_ZNSt18bad_variant_accessD2Ev(ptr noundef nonnull align 8 dereferenceable(16) %this1) #3
  call void @_ZdlPv(ptr noundef %this1) #16
  ret void
}

; Function Attrs: mustprogress nounwind uwtable
define linkonce_odr noundef ptr @_ZNKSt18bad_variant_access4whatEv(ptr noundef nonnull align 8 dereferenceable(16) %this) unnamed_addr #4 comdat align 2 {
entry:
  %this.addr = alloca ptr, align 8
  store ptr %this, ptr %this.addr, align 8
  %this1 = load ptr, ptr %this.addr, align 8
  %_M_reason = getelementptr inbounds %"class.std::bad_variant_access", ptr %this1, i32 0, i32 1
  %0 = load ptr, ptr %_M_reason, align 8
  ret ptr %0
}

; Function Attrs: nobuiltin nounwind
declare void @_ZdlPv(ptr noundef) #11

; Function Attrs: nounwind
declare void @_ZNSt9exceptionD2Ev(ptr noundef nonnull align 8 dereferenceable(8)) unnamed_addr #2

; Function Attrs: mustprogress nounwind uwtable
define linkonce_odr noundef zeroext i1 @_ZNKSt8__detail9__variant16_Variant_storageILb0EJSt9monostatebN9grpc_core12experimental4Json11NumberValueENSt7__cxx1112basic_stringIcSt11char_traitsIcESaIcEEESt3mapISC_S5_St4lessISC_ESaISt4pairIKSC_S5_EEESt6vectorIS5_SaIS5_EEEE8_M_validEv(ptr noundef nonnull align 8 dereferenceable(49) %this) #4 comdat align 2 {
entry:
  %this.addr = alloca ptr, align 8
  store ptr %this, ptr %this.addr, align 8
  %this1 = load ptr, ptr %this.addr, align 8
  %_M_index = getelementptr inbounds %"struct.std::__detail::__variant::_Variant_storage", ptr %this1, i32 0, i32 1
  %0 = load i8, ptr %_M_index, align 8
  %conv = zext i8 %0 to i32
  %cmp = icmp ne i32 %conv, 255
  ret i1 %cmp
}

; Function Attrs: mustprogress nounwind uwtable
define linkonce_odr noundef nonnull align 8 dereferenceable(32) ptr @_ZNSt8__detail9__variant7__get_nILm3ERNS0_15_Variadic_unionIJSt9monostatebN9grpc_core12experimental4Json11NumberValueENSt7__cxx1112basic_stringIcSt11char_traitsIcESaIcEEESt3mapISD_S6_St4lessISD_ESaISt4pairIKSD_S6_EEESt6vectorIS6_SaIS6_EEEEEEEDcOT0_(ptr noundef nonnull align 8 dereferenceable(48) %__u) #4 comdat {
entry:
  %__u.addr = alloca ptr, align 8
  store ptr %__u, ptr %__u.addr, align 8
  %0 = load ptr, ptr %__u.addr, align 8
  %call = call noundef nonnull align 8 dereferenceable(32) ptr @_ZNSt8__detail9__variant7__get_nILm0ERNS0_15_Variadic_unionIJNSt7__cxx1112basic_stringIcSt11char_traitsIcESaIcEEESt3mapIS8_N9grpc_core12experimental4JsonESt4lessIS8_ESaISt4pairIKS8_SC_EEESt6vectorISC_SaISC_EEEEEEEDcOT0_(ptr noundef nonnull align 8 dereferenceable(48) %0) #3
  ret ptr %call
}

; Function Attrs: mustprogress nounwind uwtable
define linkonce_odr noundef nonnull align 8 dereferenceable(32) ptr @_ZNSt8__detail9__variant7__get_nILm0ERNS0_15_Variadic_unionIJNSt7__cxx1112basic_stringIcSt11char_traitsIcESaIcEEESt3mapIS8_N9grpc_core12experimental4JsonESt4lessIS8_ESaISt4pairIKS8_SC_EEESt6vectorISC_SaISC_EEEEEEEDcOT0_(ptr noundef nonnull align 8 dereferenceable(48) %__u) #4 comdat {
entry:
  %__u.addr = alloca ptr, align 8
  store ptr %__u, ptr %__u.addr, align 8
  %0 = load ptr, ptr %__u.addr, align 8
  %call = call noundef nonnull align 8 dereferenceable(32) ptr @_ZNRSt8__detail9__variant14_UninitializedINSt7__cxx1112basic_stringIcSt11char_traitsIcESaIcEEELb0EE6_M_getEv(ptr noundef nonnull align 8 dereferenceable(32) %0) #3
  ret ptr %call
}

; Function Attrs: mustprogress nounwind uwtable
define linkonce_odr noundef nonnull align 8 dereferenceable(32) ptr @_ZNRSt8__detail9__variant14_UninitializedINSt7__cxx1112basic_stringIcSt11char_traitsIcESaIcEEELb0EE6_M_getEv(ptr noundef nonnull align 8 dereferenceable(32) %this) #4 comdat align 2 {
entry:
  %this.addr = alloca ptr, align 8
  store ptr %this, ptr %this.addr, align 8
  %this1 = load ptr, ptr %this.addr, align 8
  %_M_storage = getelementptr inbounds %"struct.std::__detail::__variant::_Uninitialized.6", ptr %this1, i32 0, i32 0
  %call = call noundef ptr @_ZN9__gnu_cxx16__aligned_membufINSt7__cxx1112basic_stringIcSt11char_traitsIcESaIcEEEE6_M_ptrEv(ptr noundef nonnull align 8 dereferenceable(32) %_M_storage) #3
  ret ptr %call
}

; Function Attrs: mustprogress nounwind uwtable
define linkonce_odr noundef ptr @_ZN9__gnu_cxx16__aligned_membufINSt7__cxx1112basic_stringIcSt11char_traitsIcESaIcEEEE6_M_ptrEv(ptr noundef nonnull align 8 dereferenceable(32) %this) #4 comdat align 2 {
entry:
  %this.addr = alloca ptr, align 8
  store ptr %this, ptr %this.addr, align 8
  %this1 = load ptr, ptr %this.addr, align 8
  %call = call noundef ptr @_ZN9__gnu_cxx16__aligned_membufINSt7__cxx1112basic_stringIcSt11char_traitsIcESaIcEEEE7_M_addrEv(ptr noundef nonnull align 8 dereferenceable(32) %this1) #3
  ret ptr %call
}

; Function Attrs: mustprogress nounwind uwtable
define linkonce_odr noundef ptr @_ZN9__gnu_cxx16__aligned_membufINSt7__cxx1112basic_stringIcSt11char_traitsIcESaIcEEEE7_M_addrEv(ptr noundef nonnull align 8 dereferenceable(32) %this) #4 comdat align 2 {
entry:
  %this.addr = alloca ptr, align 8
  store ptr %this, ptr %this.addr, align 8
  %this1 = load ptr, ptr %this.addr, align 8
  %_M_storage = getelementptr inbounds %"struct.__gnu_cxx::__aligned_membuf.7", ptr %this1, i32 0, i32 0
  ret ptr %_M_storage
}

; Function Attrs: mustprogress uwtable
define linkonce_odr void @_ZNSt8__detail9__variant9__emplaceILm3ELb0EJSt9monostatebN9grpc_core12experimental4Json11NumberValueENSt7__cxx1112basic_stringIcSt11char_traitsIcESaIcEEESt3mapISC_S5_St4lessISC_ESaISt4pairIKSC_S5_EEESt6vectorIS5_SaIS5_EEEJSC_EEEvRNS0_16_Variant_storageIXT0_EJDpT1_EEEDpOT2_(ptr noundef nonnull align 8 dereferenceable(49) %__v, ptr noundef nonnull align 8 dereferenceable(32) %__args) #5 comdat {
entry:
  %__v.addr = alloca ptr, align 8
  %__args.addr = alloca ptr, align 8
  %__addr = alloca ptr, align 8
  store ptr %__v, ptr %__v.addr, align 8
  store ptr %__args, ptr %__args.addr, align 8
  %0 = load ptr, ptr %__v.addr, align 8
  call void @_ZNSt8__detail9__variant16_Variant_storageILb0EJSt9monostatebN9grpc_core12experimental4Json11NumberValueENSt7__cxx1112basic_stringIcSt11char_traitsIcESaIcEEESt3mapISC_S5_St4lessISC_ESaISt4pairIKSC_S5_EEESt6vectorIS5_SaIS5_EEEE8_M_resetEv(ptr noundef nonnull align 8 dereferenceable(49) %0)
  %1 = load ptr, ptr %__v.addr, align 8
  %_M_u = getelementptr inbounds %"struct.std::__detail::__variant::_Variant_storage", ptr %1, i32 0, i32 0
  %call = call noundef nonnull align 8 dereferenceable(32) ptr @_ZNSt8__detail9__variant7__get_nILm3ERNS0_15_Variadic_unionIJSt9monostatebN9grpc_core12experimental4Json11NumberValueENSt7__cxx1112basic_stringIcSt11char_traitsIcESaIcEEESt3mapISD_S6_St4lessISD_ESaISt4pairIKSD_S6_EEESt6vectorIS6_SaIS6_EEEEEEEDcOT0_(ptr noundef nonnull align 8 dereferenceable(48) %_M_u) #3
  store ptr %call, ptr %__addr, align 8
  %2 = load ptr, ptr %__addr, align 8
  %3 = load ptr, ptr %__args.addr, align 8
  call void @_ZSt10_ConstructINSt7__cxx1112basic_stringIcSt11char_traitsIcESaIcEEEJS5_EEvPT_DpOT0_(ptr noundef %2, ptr noundef nonnull align 8 dereferenceable(32) %3)
  %4 = load ptr, ptr %__v.addr, align 8
  %_M_index = getelementptr inbounds %"struct.std::__detail::__variant::_Variant_storage", ptr %4, i32 0, i32 1
  store i8 3, ptr %_M_index, align 8
  ret void
}

; Function Attrs: mustprogress uwtable
define linkonce_odr void @_ZNSt8__detail9__variant16_Variant_storageILb0EJSt9monostatebN9grpc_core12experimental4Json11NumberValueENSt7__cxx1112basic_stringIcSt11char_traitsIcESaIcEEESt3mapISC_S5_St4lessISC_ESaISt4pairIKSC_S5_EEESt6vectorIS5_SaIS5_EEEE8_M_resetEv(ptr noundef nonnull align 8 dereferenceable(49) %this) #5 comdat align 2 {
entry:
  %this.addr = alloca ptr, align 8
  %ref.tmp = alloca %class.anon, align 1
  store ptr %this, ptr %this.addr, align 8
  %this1 = load ptr, ptr %this.addr, align 8
  %call = call noundef zeroext i1 @_ZNKSt8__detail9__variant16_Variant_storageILb0EJSt9monostatebN9grpc_core12experimental4Json11NumberValueENSt7__cxx1112basic_stringIcSt11char_traitsIcESaIcEEESt3mapISC_S5_St4lessISC_ESaISt4pairIKSC_S5_EEESt6vectorIS5_SaIS5_EEEE8_M_validEv(ptr noundef nonnull align 8 dereferenceable(49) %this1) #3
  br i1 %call, label %if.end, label %if.then

if.then:                                          ; preds = %entry
  br label %return

if.end:                                           ; preds = %entry
  %call2 = call noundef nonnull align 8 dereferenceable(49) ptr @_ZSt14__variant_castIJSt9monostatebN9grpc_core12experimental4Json11NumberValueENSt7__cxx1112basic_stringIcSt11char_traitsIcESaIcEEESt3mapISA_S3_St4lessISA_ESaISt4pairIKSA_S3_EEESt6vectorIS3_SaIS3_EEERNSt8__detail9__variant16_Variant_storageILb0EJS0_bS4_SA_SI_SL_EEEEDcOT0_(ptr noundef nonnull align 8 dereferenceable(49) %this1)
  call void @_ZSt10__do_visitIvZNSt8__detail9__variant16_Variant_storageILb0EJSt9monostatebN9grpc_core12experimental4Json11NumberValueENSt7__cxx1112basic_stringIcSt11char_traitsIcESaIcEEESt3mapISD_S6_St4lessISD_ESaISt4pairIKSD_S6_EEESt6vectorIS6_SaIS6_EEEE8_M_resetEvEUlOT_E_JRSt7variantIJS3_bS7_SD_SL_SO_EEEEDcOT0_DpOT1_(ptr noundef nonnull align 1 dereferenceable(1) %ref.tmp, ptr noundef nonnull align 8 dereferenceable(49) %call2)
  %_M_index = getelementptr inbounds %"struct.std::__detail::__variant::_Variant_storage", ptr %this1, i32 0, i32 1
  store i8 -1, ptr %_M_index, align 8
  br label %return

return:                                           ; preds = %if.end, %if.then
  ret void
}

; Function Attrs: mustprogress nounwind uwtable
define linkonce_odr void @_ZSt10_ConstructINSt7__cxx1112basic_stringIcSt11char_traitsIcESaIcEEEJS5_EEvPT_DpOT0_(ptr noundef %__p, ptr noundef nonnull align 8 dereferenceable(32) %__args) #4 comdat {
entry:
  %__p.addr = alloca ptr, align 8
  %__args.addr = alloca ptr, align 8
  store ptr %__p, ptr %__p.addr, align 8
  store ptr %__args, ptr %__args.addr, align 8
  %0 = load ptr, ptr %__p.addr, align 8
  %1 = load ptr, ptr %__args.addr, align 8
  call void @_ZNSt7__cxx1112basic_stringIcSt11char_traitsIcESaIcEEC1EOS4_(ptr noundef nonnull align 8 dereferenceable(32) %0, ptr noundef nonnull align 8 dereferenceable(32) %1) #3
  ret void
}

; Function Attrs: mustprogress uwtable
define linkonce_odr void @_ZSt10__do_visitIvZNSt8__detail9__variant16_Variant_storageILb0EJSt9monostatebN9grpc_core12experimental4Json11NumberValueENSt7__cxx1112basic_stringIcSt11char_traitsIcESaIcEEESt3mapISD_S6_St4lessISD_ESaISt4pairIKSD_S6_EEESt6vectorIS6_SaIS6_EEEE8_M_resetEvEUlOT_E_JRSt7variantIJS3_bS7_SD_SL_SO_EEEEDcOT0_DpOT1_(ptr noundef nonnull align 1 dereferenceable(1) %__visitor, ptr noundef nonnull align 8 dereferenceable(49) %__variants) #5 comdat {
entry:
  %__visitor.addr = alloca ptr, align 8
  %__variants.addr = alloca ptr, align 8
  %__max = alloca i64, align 8
  %__n = alloca i64, align 8
  %__v0 = alloca ptr, align 8
  %ref.tmp = alloca %class.anon.57, align 1
  store ptr %__visitor, ptr %__visitor.addr, align 8
  store ptr %__variants, ptr %__variants.addr, align 8
  store i64 11, ptr %__max, align 8
  store i64 6, ptr %__n, align 8
  %0 = load ptr, ptr %__variants.addr, align 8
  %call = call noundef nonnull align 8 dereferenceable(49) ptr (ptr, ptr, ...) @_ZZSt10__do_visitIvZNSt8__detail9__variant16_Variant_storageILb0EJSt9monostatebN9grpc_core12experimental4Json11NumberValueENSt7__cxx1112basic_stringIcSt11char_traitsIcESaIcEEESt3mapISD_S6_St4lessISD_ESaISt4pairIKSD_S6_EEESt6vectorIS6_SaIS6_EEEE8_M_resetEvEUlOT_E_JRSt7variantIJS3_bS7_SD_SL_SO_EEEEDcOT0_DpOT1_ENKUlSV_zE_clB5cxx11ESV_z(ptr noundef nonnull align 1 dereferenceable(1) %ref.tmp, ptr noundef nonnull align 8 dereferenceable(49) %0)
  store ptr %call, ptr %__v0, align 8
  %1 = load ptr, ptr %__v0, align 8
  %call1 = call noundef i64 @_ZNKSt7variantIJSt9monostatebN9grpc_core12experimental4Json11NumberValueENSt7__cxx1112basic_stringIcSt11char_traitsIcESaIcEEESt3mapISA_S3_St4lessISA_ESaISt4pairIKSA_S3_EEESt6vectorIS3_SaIS3_EEEE5indexEv(ptr noundef nonnull align 8 dereferenceable(49) %1) #3
  switch i64 %call1, label %sw.default [
    i64 0, label %sw.bb
    i64 1, label %sw.bb2
    i64 2, label %sw.bb3
    i64 3, label %sw.bb4
    i64 4, label %sw.bb5
    i64 5, label %sw.bb6
    i64 6, label %sw.bb7
    i64 7, label %sw.bb8
    i64 8, label %sw.bb9
    i64 9, label %sw.bb10
    i64 10, label %sw.bb11
    i64 -1, label %sw.bb12
  ]

sw.bb:                                            ; preds = %entry
  %2 = load ptr, ptr %__visitor.addr, align 8
  %3 = load ptr, ptr %__v0, align 8
  call void @_ZNSt8__detail9__variant17__gen_vtable_implINS0_12_Multi_arrayIPFvOZNS0_16_Variant_storageILb0EJSt9monostatebN9grpc_core12experimental4Json11NumberValueENSt7__cxx1112basic_stringIcSt11char_traitsIcESaIcEEESt3mapISE_S7_St4lessISE_ESaISt4pairIKSE_S7_EEESt6vectorIS7_SaIS7_EEEE8_M_resetEvEUlOT_E_RSt7variantIJS4_bS8_SE_SM_SP_EEEJEEESt16integer_sequenceImJLm0EEEE14__visit_invokeESU_SX_(ptr noundef nonnull align 1 dereferenceable(1) %2, ptr noundef nonnull align 8 dereferenceable(49) %3)
  br label %return

sw.bb2:                                           ; preds = %entry
  %4 = load ptr, ptr %__visitor.addr, align 8
  %5 = load ptr, ptr %__v0, align 8
  call void @_ZNSt8__detail9__variant17__gen_vtable_implINS0_12_Multi_arrayIPFvOZNS0_16_Variant_storageILb0EJSt9monostatebN9grpc_core12experimental4Json11NumberValueENSt7__cxx1112basic_stringIcSt11char_traitsIcESaIcEEESt3mapISE_S7_St4lessISE_ESaISt4pairIKSE_S7_EEESt6vectorIS7_SaIS7_EEEE8_M_resetEvEUlOT_E_RSt7variantIJS4_bS8_SE_SM_SP_EEEJEEESt16integer_sequenceImJLm1EEEE14__visit_invokeESU_SX_(ptr noundef nonnull align 1 dereferenceable(1) %4, ptr noundef nonnull align 8 dereferenceable(49) %5)
  br label %return

sw.bb3:                                           ; preds = %entry
  %6 = load ptr, ptr %__visitor.addr, align 8
  %7 = load ptr, ptr %__v0, align 8
  call void @_ZNSt8__detail9__variant17__gen_vtable_implINS0_12_Multi_arrayIPFvOZNS0_16_Variant_storageILb0EJSt9monostatebN9grpc_core12experimental4Json11NumberValueENSt7__cxx1112basic_stringIcSt11char_traitsIcESaIcEEESt3mapISE_S7_St4lessISE_ESaISt4pairIKSE_S7_EEESt6vectorIS7_SaIS7_EEEE8_M_resetEvEUlOT_E_RSt7variantIJS4_bS8_SE_SM_SP_EEEJEEESt16integer_sequenceImJLm2EEEE14__visit_invokeESU_SX_(ptr noundef nonnull align 1 dereferenceable(1) %6, ptr noundef nonnull align 8 dereferenceable(49) %7)
  br label %return

sw.bb4:                                           ; preds = %entry
  %8 = load ptr, ptr %__visitor.addr, align 8
  %9 = load ptr, ptr %__v0, align 8
  call void @_ZNSt8__detail9__variant17__gen_vtable_implINS0_12_Multi_arrayIPFvOZNS0_16_Variant_storageILb0EJSt9monostatebN9grpc_core12experimental4Json11NumberValueENSt7__cxx1112basic_stringIcSt11char_traitsIcESaIcEEESt3mapISE_S7_St4lessISE_ESaISt4pairIKSE_S7_EEESt6vectorIS7_SaIS7_EEEE8_M_resetEvEUlOT_E_RSt7variantIJS4_bS8_SE_SM_SP_EEEJEEESt16integer_sequenceImJLm3EEEE14__visit_invokeESU_SX_(ptr noundef nonnull align 1 dereferenceable(1) %8, ptr noundef nonnull align 8 dereferenceable(49) %9)
  br label %return

sw.bb5:                                           ; preds = %entry
  %10 = load ptr, ptr %__visitor.addr, align 8
  %11 = load ptr, ptr %__v0, align 8
  call void @_ZNSt8__detail9__variant17__gen_vtable_implINS0_12_Multi_arrayIPFvOZNS0_16_Variant_storageILb0EJSt9monostatebN9grpc_core12experimental4Json11NumberValueENSt7__cxx1112basic_stringIcSt11char_traitsIcESaIcEEESt3mapISE_S7_St4lessISE_ESaISt4pairIKSE_S7_EEESt6vectorIS7_SaIS7_EEEE8_M_resetEvEUlOT_E_RSt7variantIJS4_bS8_SE_SM_SP_EEEJEEESt16integer_sequenceImJLm4EEEE14__visit_invokeESU_SX_(ptr noundef nonnull align 1 dereferenceable(1) %10, ptr noundef nonnull align 8 dereferenceable(49) %11)
  br label %return

sw.bb6:                                           ; preds = %entry
  %12 = load ptr, ptr %__visitor.addr, align 8
  %13 = load ptr, ptr %__v0, align 8
  call void @_ZNSt8__detail9__variant17__gen_vtable_implINS0_12_Multi_arrayIPFvOZNS0_16_Variant_storageILb0EJSt9monostatebN9grpc_core12experimental4Json11NumberValueENSt7__cxx1112basic_stringIcSt11char_traitsIcESaIcEEESt3mapISE_S7_St4lessISE_ESaISt4pairIKSE_S7_EEESt6vectorIS7_SaIS7_EEEE8_M_resetEvEUlOT_E_RSt7variantIJS4_bS8_SE_SM_SP_EEEJEEESt16integer_sequenceImJLm5EEEE14__visit_invokeESU_SX_(ptr noundef nonnull align 1 dereferenceable(1) %12, ptr noundef nonnull align 8 dereferenceable(49) %13)
  br label %return

sw.bb7:                                           ; preds = %entry
  unreachable

sw.bb8:                                           ; preds = %entry
  unreachable

sw.bb9:                                           ; preds = %entry
  unreachable

sw.bb10:                                          ; preds = %entry
  unreachable

sw.bb11:                                          ; preds = %entry
  unreachable

sw.bb12:                                          ; preds = %entry
  unreachable

sw.default:                                       ; preds = %entry
  unreachable

return:                                           ; preds = %sw.bb6, %sw.bb5, %sw.bb4, %sw.bb3, %sw.bb2, %sw.bb
  ret void
}

; Function Attrs: mustprogress nounwind uwtable
define linkonce_odr noundef nonnull align 8 dereferenceable(49) ptr @_ZSt14__variant_castIJSt9monostatebN9grpc_core12experimental4Json11NumberValueENSt7__cxx1112basic_stringIcSt11char_traitsIcESaIcEEESt3mapISA_S3_St4lessISA_ESaISt4pairIKSA_S3_EEESt6vectorIS3_SaIS3_EEERNSt8__detail9__variant16_Variant_storageILb0EJS0_bS4_SA_SI_SL_EEEEDcOT0_(ptr noundef nonnull align 8 dereferenceable(49) %__rhs) #4 comdat {
entry:
  %__rhs.addr = alloca ptr, align 8
  store ptr %__rhs, ptr %__rhs.addr, align 8
  %0 = load ptr, ptr %__rhs.addr, align 8
  ret ptr %0
}

; Function Attrs: mustprogress nounwind uwtable
define linkonce_odr noundef nonnull align 8 dereferenceable(49) ptr @_ZZSt10__do_visitIvZNSt8__detail9__variant16_Variant_storageILb0EJSt9monostatebN9grpc_core12experimental4Json11NumberValueENSt7__cxx1112basic_stringIcSt11char_traitsIcESaIcEEESt3mapISD_S6_St4lessISD_ESaISt4pairIKSD_S6_EEESt6vectorIS6_SaIS6_EEEE8_M_resetEvEUlOT_E_JRSt7variantIJS3_bS7_SD_SL_SO_EEEEDcOT0_DpOT1_ENKUlSV_zE_clB5cxx11ESV_z(ptr noundef nonnull align 1 dereferenceable(1) %this, ptr noundef nonnull align 8 dereferenceable(49) %__v, ...) #4 comdat align 2 {
entry:
  %this.addr = alloca ptr, align 8
  %__v.addr = alloca ptr, align 8
  store ptr %this, ptr %this.addr, align 8
  store ptr %__v, ptr %__v.addr, align 8
  %0 = load ptr, ptr %__v.addr, align 8
  ret ptr %0
}

; Function Attrs: mustprogress uwtable
define linkonce_odr void @_ZNSt8__detail9__variant17__gen_vtable_implINS0_12_Multi_arrayIPFvOZNS0_16_Variant_storageILb0EJSt9monostatebN9grpc_core12experimental4Json11NumberValueENSt7__cxx1112basic_stringIcSt11char_traitsIcESaIcEEESt3mapISE_S7_St4lessISE_ESaISt4pairIKSE_S7_EEESt6vectorIS7_SaIS7_EEEE8_M_resetEvEUlOT_E_RSt7variantIJS4_bS8_SE_SM_SP_EEEJEEESt16integer_sequenceImJLm0EEEE14__visit_invokeESU_SX_(ptr noundef nonnull align 1 dereferenceable(1) %__visitor, ptr noundef nonnull align 8 dereferenceable(49) %__vars) #5 comdat align 2 {
entry:
  %__visitor.addr = alloca ptr, align 8
  %__vars.addr = alloca ptr, align 8
  store ptr %__visitor, ptr %__visitor.addr, align 8
  store ptr %__vars, ptr %__vars.addr, align 8
  %0 = load ptr, ptr %__visitor.addr, align 8
  %1 = load ptr, ptr %__vars.addr, align 8
  %call = call noundef nonnull align 1 dereferenceable(1) ptr @_ZNSt8__detail9__variant5__getILm0ERSt7variantIJSt9monostatebN9grpc_core12experimental4Json11NumberValueENSt7__cxx1112basic_stringIcSt11char_traitsIcESaIcEEESt3mapISD_S6_St4lessISD_ESaISt4pairIKSD_S6_EEESt6vectorIS6_SaIS6_EEEEEEDcOT0_(ptr noundef nonnull align 8 dereferenceable(49) %1) #3
  call void @_ZSt10__invoke_rIvZNSt8__detail9__variant16_Variant_storageILb0EJSt9monostatebN9grpc_core12experimental4Json11NumberValueENSt7__cxx1112basic_stringIcSt11char_traitsIcESaIcEEESt3mapISD_S6_St4lessISD_ESaISt4pairIKSD_S6_EEESt6vectorIS6_SaIS6_EEEE8_M_resetEvEUlOT_E_JRS3_EENSt9enable_ifIX16is_invocable_r_vISQ_T0_DpT1_EESQ_E4typeEOSV_DpOSW_(ptr noundef nonnull align 1 dereferenceable(1) %0, ptr noundef nonnull align 1 dereferenceable(1) %call)
  ret void
}

; Function Attrs: mustprogress uwtable
define linkonce_odr void @_ZNSt8__detail9__variant17__gen_vtable_implINS0_12_Multi_arrayIPFvOZNS0_16_Variant_storageILb0EJSt9monostatebN9grpc_core12experimental4Json11NumberValueENSt7__cxx1112basic_stringIcSt11char_traitsIcESaIcEEESt3mapISE_S7_St4lessISE_ESaISt4pairIKSE_S7_EEESt6vectorIS7_SaIS7_EEEE8_M_resetEvEUlOT_E_RSt7variantIJS4_bS8_SE_SM_SP_EEEJEEESt16integer_sequenceImJLm1EEEE14__visit_invokeESU_SX_(ptr noundef nonnull align 1 dereferenceable(1) %__visitor, ptr noundef nonnull align 8 dereferenceable(49) %__vars) #5 comdat align 2 {
entry:
  %__visitor.addr = alloca ptr, align 8
  %__vars.addr = alloca ptr, align 8
  store ptr %__visitor, ptr %__visitor.addr, align 8
  store ptr %__vars, ptr %__vars.addr, align 8
  %0 = load ptr, ptr %__visitor.addr, align 8
  %1 = load ptr, ptr %__vars.addr, align 8
  %call = call noundef nonnull align 1 dereferenceable(1) ptr @_ZNSt8__detail9__variant5__getILm1ERSt7variantIJSt9monostatebN9grpc_core12experimental4Json11NumberValueENSt7__cxx1112basic_stringIcSt11char_traitsIcESaIcEEESt3mapISD_S6_St4lessISD_ESaISt4pairIKSD_S6_EEESt6vectorIS6_SaIS6_EEEEEEDcOT0_(ptr noundef nonnull align 8 dereferenceable(49) %1) #3
  call void @_ZSt10__invoke_rIvZNSt8__detail9__variant16_Variant_storageILb0EJSt9monostatebN9grpc_core12experimental4Json11NumberValueENSt7__cxx1112basic_stringIcSt11char_traitsIcESaIcEEESt3mapISD_S6_St4lessISD_ESaISt4pairIKSD_S6_EEESt6vectorIS6_SaIS6_EEEE8_M_resetEvEUlOT_E_JRbEENSt9enable_ifIX16is_invocable_r_vISQ_T0_DpT1_EESQ_E4typeEOSV_DpOSW_(ptr noundef nonnull align 1 dereferenceable(1) %0, ptr noundef nonnull align 1 dereferenceable(1) %call)
  ret void
}

; Function Attrs: mustprogress uwtable
define linkonce_odr void @_ZNSt8__detail9__variant17__gen_vtable_implINS0_12_Multi_arrayIPFvOZNS0_16_Variant_storageILb0EJSt9monostatebN9grpc_core12experimental4Json11NumberValueENSt7__cxx1112basic_stringIcSt11char_traitsIcESaIcEEESt3mapISE_S7_St4lessISE_ESaISt4pairIKSE_S7_EEESt6vectorIS7_SaIS7_EEEE8_M_resetEvEUlOT_E_RSt7variantIJS4_bS8_SE_SM_SP_EEEJEEESt16integer_sequenceImJLm2EEEE14__visit_invokeESU_SX_(ptr noundef nonnull align 1 dereferenceable(1) %__visitor, ptr noundef nonnull align 8 dereferenceable(49) %__vars) #5 comdat align 2 {
entry:
  %__visitor.addr = alloca ptr, align 8
  %__vars.addr = alloca ptr, align 8
  store ptr %__visitor, ptr %__visitor.addr, align 8
  store ptr %__vars, ptr %__vars.addr, align 8
  %0 = load ptr, ptr %__visitor.addr, align 8
  %1 = load ptr, ptr %__vars.addr, align 8
  %call = call noundef nonnull align 8 dereferenceable(32) ptr @_ZNSt8__detail9__variant5__getILm2ERSt7variantIJSt9monostatebN9grpc_core12experimental4Json11NumberValueENSt7__cxx1112basic_stringIcSt11char_traitsIcESaIcEEESt3mapISD_S6_St4lessISD_ESaISt4pairIKSD_S6_EEESt6vectorIS6_SaIS6_EEEEEEDcOT0_(ptr noundef nonnull align 8 dereferenceable(49) %1) #3
  call void @_ZSt10__invoke_rIvZNSt8__detail9__variant16_Variant_storageILb0EJSt9monostatebN9grpc_core12experimental4Json11NumberValueENSt7__cxx1112basic_stringIcSt11char_traitsIcESaIcEEESt3mapISD_S6_St4lessISD_ESaISt4pairIKSD_S6_EEESt6vectorIS6_SaIS6_EEEE8_M_resetEvEUlOT_E_JRS7_EENSt9enable_ifIX16is_invocable_r_vISQ_T0_DpT1_EESQ_E4typeEOSV_DpOSW_(ptr noundef nonnull align 1 dereferenceable(1) %0, ptr noundef nonnull align 8 dereferenceable(32) %call)
  ret void
}

; Function Attrs: mustprogress uwtable
define linkonce_odr void @_ZNSt8__detail9__variant17__gen_vtable_implINS0_12_Multi_arrayIPFvOZNS0_16_Variant_storageILb0EJSt9monostatebN9grpc_core12experimental4Json11NumberValueENSt7__cxx1112basic_stringIcSt11char_traitsIcESaIcEEESt3mapISE_S7_St4lessISE_ESaISt4pairIKSE_S7_EEESt6vectorIS7_SaIS7_EEEE8_M_resetEvEUlOT_E_RSt7variantIJS4_bS8_SE_SM_SP_EEEJEEESt16integer_sequenceImJLm3EEEE14__visit_invokeESU_SX_(ptr noundef nonnull align 1 dereferenceable(1) %__visitor, ptr noundef nonnull align 8 dereferenceable(49) %__vars) #5 comdat align 2 {
entry:
  %__visitor.addr = alloca ptr, align 8
  %__vars.addr = alloca ptr, align 8
  store ptr %__visitor, ptr %__visitor.addr, align 8
  store ptr %__vars, ptr %__vars.addr, align 8
  %0 = load ptr, ptr %__visitor.addr, align 8
  %1 = load ptr, ptr %__vars.addr, align 8
  %call = call noundef nonnull align 8 dereferenceable(32) ptr @_ZNSt8__detail9__variant5__getILm3ERSt7variantIJSt9monostatebN9grpc_core12experimental4Json11NumberValueENSt7__cxx1112basic_stringIcSt11char_traitsIcESaIcEEESt3mapISD_S6_St4lessISD_ESaISt4pairIKSD_S6_EEESt6vectorIS6_SaIS6_EEEEEEDcOT0_(ptr noundef nonnull align 8 dereferenceable(49) %1) #3
  call void @_ZSt10__invoke_rIvZNSt8__detail9__variant16_Variant_storageILb0EJSt9monostatebN9grpc_core12experimental4Json11NumberValueENSt7__cxx1112basic_stringIcSt11char_traitsIcESaIcEEESt3mapISD_S6_St4lessISD_ESaISt4pairIKSD_S6_EEESt6vectorIS6_SaIS6_EEEE8_M_resetEvEUlOT_E_JRSD_EENSt9enable_ifIX16is_invocable_r_vISQ_T0_DpT1_EESQ_E4typeEOSV_DpOSW_(ptr noundef nonnull align 1 dereferenceable(1) %0, ptr noundef nonnull align 8 dereferenceable(32) %call)
  ret void
}

; Function Attrs: mustprogress uwtable
define linkonce_odr void @_ZNSt8__detail9__variant17__gen_vtable_implINS0_12_Multi_arrayIPFvOZNS0_16_Variant_storageILb0EJSt9monostatebN9grpc_core12experimental4Json11NumberValueENSt7__cxx1112basic_stringIcSt11char_traitsIcESaIcEEESt3mapISE_S7_St4lessISE_ESaISt4pairIKSE_S7_EEESt6vectorIS7_SaIS7_EEEE8_M_resetEvEUlOT_E_RSt7variantIJS4_bS8_SE_SM_SP_EEEJEEESt16integer_sequenceImJLm4EEEE14__visit_invokeESU_SX_(ptr noundef nonnull align 1 dereferenceable(1) %__visitor, ptr noundef nonnull align 8 dereferenceable(49) %__vars) #5 comdat align 2 {
entry:
  %__visitor.addr = alloca ptr, align 8
  %__vars.addr = alloca ptr, align 8
  store ptr %__visitor, ptr %__visitor.addr, align 8
  store ptr %__vars, ptr %__vars.addr, align 8
  %0 = load ptr, ptr %__visitor.addr, align 8
  %1 = load ptr, ptr %__vars.addr, align 8
  %call = call noundef nonnull align 8 dereferenceable(48) ptr @_ZNSt8__detail9__variant5__getILm4ERSt7variantIJSt9monostatebN9grpc_core12experimental4Json11NumberValueENSt7__cxx1112basic_stringIcSt11char_traitsIcESaIcEEESt3mapISD_S6_St4lessISD_ESaISt4pairIKSD_S6_EEESt6vectorIS6_SaIS6_EEEEEEDcOT0_(ptr noundef nonnull align 8 dereferenceable(49) %1) #3
  call void @_ZSt10__invoke_rIvZNSt8__detail9__variant16_Variant_storageILb0EJSt9monostatebN9grpc_core12experimental4Json11NumberValueENSt7__cxx1112basic_stringIcSt11char_traitsIcESaIcEEESt3mapISD_S6_St4lessISD_ESaISt4pairIKSD_S6_EEESt6vectorIS6_SaIS6_EEEE8_M_resetEvEUlOT_E_JRSL_EENSt9enable_ifIX16is_invocable_r_vISQ_T0_DpT1_EESQ_E4typeEOSV_DpOSW_(ptr noundef nonnull align 1 dereferenceable(1) %0, ptr noundef nonnull align 8 dereferenceable(48) %call)
  ret void
}

; Function Attrs: mustprogress uwtable
define linkonce_odr void @_ZNSt8__detail9__variant17__gen_vtable_implINS0_12_Multi_arrayIPFvOZNS0_16_Variant_storageILb0EJSt9monostatebN9grpc_core12experimental4Json11NumberValueENSt7__cxx1112basic_stringIcSt11char_traitsIcESaIcEEESt3mapISE_S7_St4lessISE_ESaISt4pairIKSE_S7_EEESt6vectorIS7_SaIS7_EEEE8_M_resetEvEUlOT_E_RSt7variantIJS4_bS8_SE_SM_SP_EEEJEEESt16integer_sequenceImJLm5EEEE14__visit_invokeESU_SX_(ptr noundef nonnull align 1 dereferenceable(1) %__visitor, ptr noundef nonnull align 8 dereferenceable(49) %__vars) #5 comdat align 2 {
entry:
  %__visitor.addr = alloca ptr, align 8
  %__vars.addr = alloca ptr, align 8
  store ptr %__visitor, ptr %__visitor.addr, align 8
  store ptr %__vars, ptr %__vars.addr, align 8
  %0 = load ptr, ptr %__visitor.addr, align 8
  %1 = load ptr, ptr %__vars.addr, align 8
  %call = call noundef nonnull align 8 dereferenceable(24) ptr @_ZNSt8__detail9__variant5__getILm5ERSt7variantIJSt9monostatebN9grpc_core12experimental4Json11NumberValueENSt7__cxx1112basic_stringIcSt11char_traitsIcESaIcEEESt3mapISD_S6_St4lessISD_ESaISt4pairIKSD_S6_EEESt6vectorIS6_SaIS6_EEEEEEDcOT0_(ptr noundef nonnull align 8 dereferenceable(49) %1) #3
  call void @_ZSt10__invoke_rIvZNSt8__detail9__variant16_Variant_storageILb0EJSt9monostatebN9grpc_core12experimental4Json11NumberValueENSt7__cxx1112basic_stringIcSt11char_traitsIcESaIcEEESt3mapISD_S6_St4lessISD_ESaISt4pairIKSD_S6_EEESt6vectorIS6_SaIS6_EEEE8_M_resetEvEUlOT_E_JRSO_EENSt9enable_ifIX16is_invocable_r_vISQ_T0_DpT1_EESQ_E4typeEOSV_DpOSW_(ptr noundef nonnull align 1 dereferenceable(1) %0, ptr noundef nonnull align 8 dereferenceable(24) %call)
  ret void
}

; Function Attrs: mustprogress uwtable
define linkonce_odr void @_ZSt10__invoke_rIvZNSt8__detail9__variant16_Variant_storageILb0EJSt9monostatebN9grpc_core12experimental4Json11NumberValueENSt7__cxx1112basic_stringIcSt11char_traitsIcESaIcEEESt3mapISD_S6_St4lessISD_ESaISt4pairIKSD_S6_EEESt6vectorIS6_SaIS6_EEEE8_M_resetEvEUlOT_E_JRS3_EENSt9enable_ifIX16is_invocable_r_vISQ_T0_DpT1_EESQ_E4typeEOSV_DpOSW_(ptr noundef nonnull align 1 dereferenceable(1) %__fn, ptr noundef nonnull align 1 dereferenceable(1) %__args) #5 comdat {
entry:
  %__fn.addr = alloca ptr, align 8
  %__args.addr = alloca ptr, align 8
  store ptr %__fn, ptr %__fn.addr, align 8
  store ptr %__args, ptr %__args.addr, align 8
  %0 = load ptr, ptr %__fn.addr, align 8
  %1 = load ptr, ptr %__args.addr, align 8
  call void @_ZSt13__invoke_implIvZNSt8__detail9__variant16_Variant_storageILb0EJSt9monostatebN9grpc_core12experimental4Json11NumberValueENSt7__cxx1112basic_stringIcSt11char_traitsIcESaIcEEESt3mapISD_S6_St4lessISD_ESaISt4pairIKSD_S6_EEESt6vectorIS6_SaIS6_EEEE8_M_resetEvEUlOT_E_JRS3_EESQ_St14__invoke_otherOT0_DpOT1_(ptr noundef nonnull align 1 dereferenceable(1) %0, ptr noundef nonnull align 1 dereferenceable(1) %1)
  ret void
}

; Function Attrs: mustprogress nounwind uwtable
define linkonce_odr noundef nonnull align 1 dereferenceable(1) ptr @_ZNSt8__detail9__variant5__getILm0ERSt7variantIJSt9monostatebN9grpc_core12experimental4Json11NumberValueENSt7__cxx1112basic_stringIcSt11char_traitsIcESaIcEEESt3mapISD_S6_St4lessISD_ESaISt4pairIKSD_S6_EEESt6vectorIS6_SaIS6_EEEEEEDcOT0_(ptr noundef nonnull align 8 dereferenceable(49) %__v) #4 comdat {
entry:
  %__v.addr = alloca ptr, align 8
  store ptr %__v, ptr %__v.addr, align 8
  %0 = load ptr, ptr %__v.addr, align 8
  %_M_u = getelementptr inbounds %"struct.std::__detail::__variant::_Variant_storage", ptr %0, i32 0, i32 0
  %call = call noundef nonnull align 1 dereferenceable(1) ptr @_ZNSt8__detail9__variant7__get_nILm0ERNS0_15_Variadic_unionIJSt9monostatebN9grpc_core12experimental4Json11NumberValueENSt7__cxx1112basic_stringIcSt11char_traitsIcESaIcEEESt3mapISD_S6_St4lessISD_ESaISt4pairIKSD_S6_EEESt6vectorIS6_SaIS6_EEEEEEEDcOT0_(ptr noundef nonnull align 8 dereferenceable(48) %_M_u) #3
  ret ptr %call
}

; Function Attrs: mustprogress uwtable
define linkonce_odr void @_ZSt13__invoke_implIvZNSt8__detail9__variant16_Variant_storageILb0EJSt9monostatebN9grpc_core12experimental4Json11NumberValueENSt7__cxx1112basic_stringIcSt11char_traitsIcESaIcEEESt3mapISD_S6_St4lessISD_ESaISt4pairIKSD_S6_EEESt6vectorIS6_SaIS6_EEEE8_M_resetEvEUlOT_E_JRS3_EESQ_St14__invoke_otherOT0_DpOT1_(ptr noundef nonnull align 1 dereferenceable(1) %__f, ptr noundef nonnull align 1 dereferenceable(1) %__args) #5 comdat {
entry:
  %__f.addr = alloca ptr, align 8
  %__args.addr = alloca ptr, align 8
  store ptr %__f, ptr %__f.addr, align 8
  store ptr %__args, ptr %__args.addr, align 8
  %0 = load ptr, ptr %__f.addr, align 8
  %1 = load ptr, ptr %__args.addr, align 8
  call void @_ZZNSt8__detail9__variant16_Variant_storageILb0EJSt9monostatebN9grpc_core12experimental4Json11NumberValueENSt7__cxx1112basic_stringIcSt11char_traitsIcESaIcEEESt3mapISC_S5_St4lessISC_ESaISt4pairIKSC_S5_EEESt6vectorIS5_SaIS5_EEEE8_M_resetEvENUlOT_E_clIRS2_EEDaSQ_(ptr noundef nonnull align 1 dereferenceable(1) %0, ptr noundef nonnull align 1 dereferenceable(1) %1)
  ret void
}

; Function Attrs: mustprogress uwtable
define linkonce_odr void @_ZZNSt8__detail9__variant16_Variant_storageILb0EJSt9monostatebN9grpc_core12experimental4Json11NumberValueENSt7__cxx1112basic_stringIcSt11char_traitsIcESaIcEEESt3mapISC_S5_St4lessISC_ESaISt4pairIKSC_S5_EEESt6vectorIS5_SaIS5_EEEE8_M_resetEvENUlOT_E_clIRS2_EEDaSQ_(ptr noundef nonnull align 1 dereferenceable(1) %this, ptr noundef nonnull align 1 dereferenceable(1) %__this_mem) #5 comdat align 2 {
entry:
  %this.addr = alloca ptr, align 8
  %__this_mem.addr = alloca ptr, align 8
  store ptr %this, ptr %this.addr, align 8
  store ptr %__this_mem, ptr %__this_mem.addr, align 8
  %0 = load ptr, ptr %__this_mem.addr, align 8
  call void @_ZSt8_DestroyISt9monostateEvPT_(ptr noundef %0)
  ret void
}

; Function Attrs: mustprogress nounwind uwtable
define linkonce_odr void @_ZSt8_DestroyISt9monostateEvPT_(ptr noundef %__pointer) #4 comdat {
entry:
  %__pointer.addr = alloca ptr, align 8
  store ptr %__pointer, ptr %__pointer.addr, align 8
  ret void
}

; Function Attrs: mustprogress nounwind uwtable
define linkonce_odr noundef nonnull align 1 dereferenceable(1) ptr @_ZNSt8__detail9__variant7__get_nILm0ERNS0_15_Variadic_unionIJSt9monostatebN9grpc_core12experimental4Json11NumberValueENSt7__cxx1112basic_stringIcSt11char_traitsIcESaIcEEESt3mapISD_S6_St4lessISD_ESaISt4pairIKSD_S6_EEESt6vectorIS6_SaIS6_EEEEEEEDcOT0_(ptr noundef nonnull align 8 dereferenceable(48) %__u) #4 comdat {
entry:
  %__u.addr = alloca ptr, align 8
  store ptr %__u, ptr %__u.addr, align 8
  %0 = load ptr, ptr %__u.addr, align 8
  %call = call noundef nonnull align 1 dereferenceable(1) ptr @_ZNRSt8__detail9__variant14_UninitializedISt9monostateLb1EE6_M_getEv(ptr noundef nonnull align 1 dereferenceable(1) %0) #3
  ret ptr %call
}

; Function Attrs: mustprogress nounwind uwtable
define linkonce_odr noundef nonnull align 1 dereferenceable(1) ptr @_ZNRSt8__detail9__variant14_UninitializedISt9monostateLb1EE6_M_getEv(ptr noundef nonnull align 1 dereferenceable(1) %this) #4 comdat align 2 {
entry:
  %this.addr = alloca ptr, align 8
  store ptr %this, ptr %this.addr, align 8
  %this1 = load ptr, ptr %this.addr, align 8
  %_M_storage = getelementptr inbounds %"struct.std::__detail::__variant::_Uninitialized", ptr %this1, i32 0, i32 0
  ret ptr %_M_storage
}

; Function Attrs: mustprogress uwtable
define linkonce_odr void @_ZSt10__invoke_rIvZNSt8__detail9__variant16_Variant_storageILb0EJSt9monostatebN9grpc_core12experimental4Json11NumberValueENSt7__cxx1112basic_stringIcSt11char_traitsIcESaIcEEESt3mapISD_S6_St4lessISD_ESaISt4pairIKSD_S6_EEESt6vectorIS6_SaIS6_EEEE8_M_resetEvEUlOT_E_JRbEENSt9enable_ifIX16is_invocable_r_vISQ_T0_DpT1_EESQ_E4typeEOSV_DpOSW_(ptr noundef nonnull align 1 dereferenceable(1) %__fn, ptr noundef nonnull align 1 dereferenceable(1) %__args) #5 comdat {
entry:
  %__fn.addr = alloca ptr, align 8
  %__args.addr = alloca ptr, align 8
  store ptr %__fn, ptr %__fn.addr, align 8
  store ptr %__args, ptr %__args.addr, align 8
  %0 = load ptr, ptr %__fn.addr, align 8
  %1 = load ptr, ptr %__args.addr, align 8
  call void @_ZSt13__invoke_implIvZNSt8__detail9__variant16_Variant_storageILb0EJSt9monostatebN9grpc_core12experimental4Json11NumberValueENSt7__cxx1112basic_stringIcSt11char_traitsIcESaIcEEESt3mapISD_S6_St4lessISD_ESaISt4pairIKSD_S6_EEESt6vectorIS6_SaIS6_EEEE8_M_resetEvEUlOT_E_JRbEESQ_St14__invoke_otherOT0_DpOT1_(ptr noundef nonnull align 1 dereferenceable(1) %0, ptr noundef nonnull align 1 dereferenceable(1) %1)
  ret void
}

; Function Attrs: mustprogress nounwind uwtable
define linkonce_odr noundef nonnull align 1 dereferenceable(1) ptr @_ZNSt8__detail9__variant5__getILm1ERSt7variantIJSt9monostatebN9grpc_core12experimental4Json11NumberValueENSt7__cxx1112basic_stringIcSt11char_traitsIcESaIcEEESt3mapISD_S6_St4lessISD_ESaISt4pairIKSD_S6_EEESt6vectorIS6_SaIS6_EEEEEEDcOT0_(ptr noundef nonnull align 8 dereferenceable(49) %__v) #4 comdat {
entry:
  %__v.addr = alloca ptr, align 8
  store ptr %__v, ptr %__v.addr, align 8
  %0 = load ptr, ptr %__v.addr, align 8
  %_M_u = getelementptr inbounds %"struct.std::__detail::__variant::_Variant_storage", ptr %0, i32 0, i32 0
  %call = call noundef nonnull align 1 dereferenceable(1) ptr @_ZNSt8__detail9__variant7__get_nILm1ERNS0_15_Variadic_unionIJSt9monostatebN9grpc_core12experimental4Json11NumberValueENSt7__cxx1112basic_stringIcSt11char_traitsIcESaIcEEESt3mapISD_S6_St4lessISD_ESaISt4pairIKSD_S6_EEESt6vectorIS6_SaIS6_EEEEEEEDcOT0_(ptr noundef nonnull align 8 dereferenceable(48) %_M_u) #3
  ret ptr %call
}

; Function Attrs: mustprogress uwtable
define linkonce_odr void @_ZSt13__invoke_implIvZNSt8__detail9__variant16_Variant_storageILb0EJSt9monostatebN9grpc_core12experimental4Json11NumberValueENSt7__cxx1112basic_stringIcSt11char_traitsIcESaIcEEESt3mapISD_S6_St4lessISD_ESaISt4pairIKSD_S6_EEESt6vectorIS6_SaIS6_EEEE8_M_resetEvEUlOT_E_JRbEESQ_St14__invoke_otherOT0_DpOT1_(ptr noundef nonnull align 1 dereferenceable(1) %__f, ptr noundef nonnull align 1 dereferenceable(1) %__args) #5 comdat {
entry:
  %__f.addr = alloca ptr, align 8
  %__args.addr = alloca ptr, align 8
  store ptr %__f, ptr %__f.addr, align 8
  store ptr %__args, ptr %__args.addr, align 8
  %0 = load ptr, ptr %__f.addr, align 8
  %1 = load ptr, ptr %__args.addr, align 8
  call void @_ZZNSt8__detail9__variant16_Variant_storageILb0EJSt9monostatebN9grpc_core12experimental4Json11NumberValueENSt7__cxx1112basic_stringIcSt11char_traitsIcESaIcEEESt3mapISC_S5_St4lessISC_ESaISt4pairIKSC_S5_EEESt6vectorIS5_SaIS5_EEEE8_M_resetEvENUlOT_E_clIRbEEDaSQ_(ptr noundef nonnull align 1 dereferenceable(1) %0, ptr noundef nonnull align 1 dereferenceable(1) %1)
  ret void
}

; Function Attrs: mustprogress uwtable
define linkonce_odr void @_ZZNSt8__detail9__variant16_Variant_storageILb0EJSt9monostatebN9grpc_core12experimental4Json11NumberValueENSt7__cxx1112basic_stringIcSt11char_traitsIcESaIcEEESt3mapISC_S5_St4lessISC_ESaISt4pairIKSC_S5_EEESt6vectorIS5_SaIS5_EEEE8_M_resetEvENUlOT_E_clIRbEEDaSQ_(ptr noundef nonnull align 1 dereferenceable(1) %this, ptr noundef nonnull align 1 dereferenceable(1) %__this_mem) #5 comdat align 2 {
entry:
  %this.addr = alloca ptr, align 8
  %__this_mem.addr = alloca ptr, align 8
  store ptr %this, ptr %this.addr, align 8
  store ptr %__this_mem, ptr %__this_mem.addr, align 8
  %0 = load ptr, ptr %__this_mem.addr, align 8
  call void @_ZSt8_DestroyIbEvPT_(ptr noundef %0)
  ret void
}

; Function Attrs: mustprogress nounwind uwtable
define linkonce_odr void @_ZSt8_DestroyIbEvPT_(ptr noundef %__pointer) #4 comdat {
entry:
  %__pointer.addr = alloca ptr, align 8
  store ptr %__pointer, ptr %__pointer.addr, align 8
  ret void
}

; Function Attrs: mustprogress nounwind uwtable
define linkonce_odr noundef nonnull align 1 dereferenceable(1) ptr @_ZNSt8__detail9__variant7__get_nILm1ERNS0_15_Variadic_unionIJSt9monostatebN9grpc_core12experimental4Json11NumberValueENSt7__cxx1112basic_stringIcSt11char_traitsIcESaIcEEESt3mapISD_S6_St4lessISD_ESaISt4pairIKSD_S6_EEESt6vectorIS6_SaIS6_EEEEEEEDcOT0_(ptr noundef nonnull align 8 dereferenceable(48) %__u) #4 comdat {
entry:
  %__u.addr = alloca ptr, align 8
  store ptr %__u, ptr %__u.addr, align 8
  %0 = load ptr, ptr %__u.addr, align 8
  %call = call noundef nonnull align 1 dereferenceable(1) ptr @_ZNRSt8__detail9__variant14_UninitializedIbLb1EE6_M_getEv(ptr noundef nonnull align 1 dereferenceable(1) %0) #3
  ret ptr %call
}

; Function Attrs: mustprogress nounwind uwtable
define linkonce_odr noundef nonnull align 1 dereferenceable(1) ptr @_ZNRSt8__detail9__variant14_UninitializedIbLb1EE6_M_getEv(ptr noundef nonnull align 1 dereferenceable(1) %this) #4 comdat align 2 {
entry:
  %this.addr = alloca ptr, align 8
  store ptr %this, ptr %this.addr, align 8
  %this1 = load ptr, ptr %this.addr, align 8
  %_M_storage = getelementptr inbounds %"struct.std::__detail::__variant::_Uninitialized.2", ptr %this1, i32 0, i32 0
  ret ptr %_M_storage
}

; Function Attrs: mustprogress uwtable
define linkonce_odr void @_ZSt10__invoke_rIvZNSt8__detail9__variant16_Variant_storageILb0EJSt9monostatebN9grpc_core12experimental4Json11NumberValueENSt7__cxx1112basic_stringIcSt11char_traitsIcESaIcEEESt3mapISD_S6_St4lessISD_ESaISt4pairIKSD_S6_EEESt6vectorIS6_SaIS6_EEEE8_M_resetEvEUlOT_E_JRS7_EENSt9enable_ifIX16is_invocable_r_vISQ_T0_DpT1_EESQ_E4typeEOSV_DpOSW_(ptr noundef nonnull align 1 dereferenceable(1) %__fn, ptr noundef nonnull align 8 dereferenceable(32) %__args) #5 comdat {
entry:
  %__fn.addr = alloca ptr, align 8
  %__args.addr = alloca ptr, align 8
  store ptr %__fn, ptr %__fn.addr, align 8
  store ptr %__args, ptr %__args.addr, align 8
  %0 = load ptr, ptr %__fn.addr, align 8
  %1 = load ptr, ptr %__args.addr, align 8
  call void @_ZSt13__invoke_implIvZNSt8__detail9__variant16_Variant_storageILb0EJSt9monostatebN9grpc_core12experimental4Json11NumberValueENSt7__cxx1112basic_stringIcSt11char_traitsIcESaIcEEESt3mapISD_S6_St4lessISD_ESaISt4pairIKSD_S6_EEESt6vectorIS6_SaIS6_EEEE8_M_resetEvEUlOT_E_JRS7_EESQ_St14__invoke_otherOT0_DpOT1_(ptr noundef nonnull align 1 dereferenceable(1) %0, ptr noundef nonnull align 8 dereferenceable(32) %1)
  ret void
}

; Function Attrs: mustprogress nounwind uwtable
define linkonce_odr noundef nonnull align 8 dereferenceable(32) ptr @_ZNSt8__detail9__variant5__getILm2ERSt7variantIJSt9monostatebN9grpc_core12experimental4Json11NumberValueENSt7__cxx1112basic_stringIcSt11char_traitsIcESaIcEEESt3mapISD_S6_St4lessISD_ESaISt4pairIKSD_S6_EEESt6vectorIS6_SaIS6_EEEEEEDcOT0_(ptr noundef nonnull align 8 dereferenceable(49) %__v) #4 comdat {
entry:
  %__v.addr = alloca ptr, align 8
  store ptr %__v, ptr %__v.addr, align 8
  %0 = load ptr, ptr %__v.addr, align 8
  %_M_u = getelementptr inbounds %"struct.std::__detail::__variant::_Variant_storage", ptr %0, i32 0, i32 0
  %call = call noundef nonnull align 8 dereferenceable(32) ptr @_ZNSt8__detail9__variant7__get_nILm2ERNS0_15_Variadic_unionIJSt9monostatebN9grpc_core12experimental4Json11NumberValueENSt7__cxx1112basic_stringIcSt11char_traitsIcESaIcEEESt3mapISD_S6_St4lessISD_ESaISt4pairIKSD_S6_EEESt6vectorIS6_SaIS6_EEEEEEEDcOT0_(ptr noundef nonnull align 8 dereferenceable(48) %_M_u) #3
  ret ptr %call
}

; Function Attrs: mustprogress uwtable
define linkonce_odr void @_ZSt13__invoke_implIvZNSt8__detail9__variant16_Variant_storageILb0EJSt9monostatebN9grpc_core12experimental4Json11NumberValueENSt7__cxx1112basic_stringIcSt11char_traitsIcESaIcEEESt3mapISD_S6_St4lessISD_ESaISt4pairIKSD_S6_EEESt6vectorIS6_SaIS6_EEEE8_M_resetEvEUlOT_E_JRS7_EESQ_St14__invoke_otherOT0_DpOT1_(ptr noundef nonnull align 1 dereferenceable(1) %__f, ptr noundef nonnull align 8 dereferenceable(32) %__args) #5 comdat {
entry:
  %__f.addr = alloca ptr, align 8
  %__args.addr = alloca ptr, align 8
  store ptr %__f, ptr %__f.addr, align 8
  store ptr %__args, ptr %__args.addr, align 8
  %0 = load ptr, ptr %__f.addr, align 8
  %1 = load ptr, ptr %__args.addr, align 8
  call void @_ZZNSt8__detail9__variant16_Variant_storageILb0EJSt9monostatebN9grpc_core12experimental4Json11NumberValueENSt7__cxx1112basic_stringIcSt11char_traitsIcESaIcEEESt3mapISC_S5_St4lessISC_ESaISt4pairIKSC_S5_EEESt6vectorIS5_SaIS5_EEEE8_M_resetEvENUlOT_E_clIRS6_EEDaSQ_(ptr noundef nonnull align 1 dereferenceable(1) %0, ptr noundef nonnull align 8 dereferenceable(32) %1)
  ret void
}

; Function Attrs: mustprogress uwtable
define linkonce_odr void @_ZZNSt8__detail9__variant16_Variant_storageILb0EJSt9monostatebN9grpc_core12experimental4Json11NumberValueENSt7__cxx1112basic_stringIcSt11char_traitsIcESaIcEEESt3mapISC_S5_St4lessISC_ESaISt4pairIKSC_S5_EEESt6vectorIS5_SaIS5_EEEE8_M_resetEvENUlOT_E_clIRS6_EEDaSQ_(ptr noundef nonnull align 1 dereferenceable(1) %this, ptr noundef nonnull align 8 dereferenceable(32) %__this_mem) #5 comdat align 2 {
entry:
  %this.addr = alloca ptr, align 8
  %__this_mem.addr = alloca ptr, align 8
  store ptr %this, ptr %this.addr, align 8
  store ptr %__this_mem, ptr %__this_mem.addr, align 8
  %0 = load ptr, ptr %__this_mem.addr, align 8
  call void @_ZSt8_DestroyIN9grpc_core12experimental4Json11NumberValueEEvPT_(ptr noundef %0)
  ret void
}

; Function Attrs: mustprogress nounwind uwtable
define linkonce_odr void @_ZSt8_DestroyIN9grpc_core12experimental4Json11NumberValueEEvPT_(ptr noundef %__pointer) #4 comdat {
entry:
  %__pointer.addr = alloca ptr, align 8
  store ptr %__pointer, ptr %__pointer.addr, align 8
  %0 = load ptr, ptr %__pointer.addr, align 8
  call void @_ZN9grpc_core12experimental4Json11NumberValueD2Ev(ptr noundef nonnull align 8 dereferenceable(32) %0) #3
  ret void
}

; Function Attrs: mustprogress nounwind uwtable
define linkonce_odr void @_ZN9grpc_core12experimental4Json11NumberValueD2Ev(ptr noundef nonnull align 8 dereferenceable(32) %this) unnamed_addr #4 comdat align 2 {
entry:
  %this.addr = alloca ptr, align 8
  store ptr %this, ptr %this.addr, align 8
  %this1 = load ptr, ptr %this.addr, align 8
  %value = getelementptr inbounds %"struct.grpc_core::experimental::Json::NumberValue", ptr %this1, i32 0, i32 0
  call void @_ZNSt7__cxx1112basic_stringIcSt11char_traitsIcESaIcEED1Ev(ptr noundef nonnull align 8 dereferenceable(32) %value) #3
  ret void
}

; Function Attrs: mustprogress nounwind uwtable
define linkonce_odr noundef nonnull align 8 dereferenceable(32) ptr @_ZNSt8__detail9__variant7__get_nILm2ERNS0_15_Variadic_unionIJSt9monostatebN9grpc_core12experimental4Json11NumberValueENSt7__cxx1112basic_stringIcSt11char_traitsIcESaIcEEESt3mapISD_S6_St4lessISD_ESaISt4pairIKSD_S6_EEESt6vectorIS6_SaIS6_EEEEEEEDcOT0_(ptr noundef nonnull align 8 dereferenceable(48) %__u) #4 comdat {
entry:
  %__u.addr = alloca ptr, align 8
  store ptr %__u, ptr %__u.addr, align 8
  %0 = load ptr, ptr %__u.addr, align 8
  %call = call noundef nonnull align 8 dereferenceable(32) ptr @_ZNRSt8__detail9__variant14_UninitializedIN9grpc_core12experimental4Json11NumberValueELb0EE6_M_getEv(ptr noundef nonnull align 8 dereferenceable(32) %0) #3
  ret ptr %call
}

; Function Attrs: mustprogress nounwind uwtable
define linkonce_odr noundef nonnull align 8 dereferenceable(32) ptr @_ZNRSt8__detail9__variant14_UninitializedIN9grpc_core12experimental4Json11NumberValueELb0EE6_M_getEv(ptr noundef nonnull align 8 dereferenceable(32) %this) #4 comdat align 2 {
entry:
  %this.addr = alloca ptr, align 8
  store ptr %this, ptr %this.addr, align 8
  %this1 = load ptr, ptr %this.addr, align 8
  %_M_storage = getelementptr inbounds %"struct.std::__detail::__variant::_Uninitialized.4", ptr %this1, i32 0, i32 0
  %call = call noundef ptr @_ZN9__gnu_cxx16__aligned_membufIN9grpc_core12experimental4Json11NumberValueEE6_M_ptrEv(ptr noundef nonnull align 8 dereferenceable(32) %_M_storage) #3
  ret ptr %call
}

; Function Attrs: mustprogress nounwind uwtable
define linkonce_odr noundef ptr @_ZN9__gnu_cxx16__aligned_membufIN9grpc_core12experimental4Json11NumberValueEE6_M_ptrEv(ptr noundef nonnull align 8 dereferenceable(32) %this) #4 comdat align 2 {
entry:
  %this.addr = alloca ptr, align 8
  store ptr %this, ptr %this.addr, align 8
  %this1 = load ptr, ptr %this.addr, align 8
  %call = call noundef ptr @_ZN9__gnu_cxx16__aligned_membufIN9grpc_core12experimental4Json11NumberValueEE7_M_addrEv(ptr noundef nonnull align 8 dereferenceable(32) %this1) #3
  ret ptr %call
}

; Function Attrs: mustprogress nounwind uwtable
define linkonce_odr noundef ptr @_ZN9__gnu_cxx16__aligned_membufIN9grpc_core12experimental4Json11NumberValueEE7_M_addrEv(ptr noundef nonnull align 8 dereferenceable(32) %this) #4 comdat align 2 {
entry:
  %this.addr = alloca ptr, align 8
  store ptr %this, ptr %this.addr, align 8
  %this1 = load ptr, ptr %this.addr, align 8
  %_M_storage = getelementptr inbounds %"struct.__gnu_cxx::__aligned_membuf", ptr %this1, i32 0, i32 0
  ret ptr %_M_storage
}

; Function Attrs: mustprogress uwtable
define linkonce_odr void @_ZSt10__invoke_rIvZNSt8__detail9__variant16_Variant_storageILb0EJSt9monostatebN9grpc_core12experimental4Json11NumberValueENSt7__cxx1112basic_stringIcSt11char_traitsIcESaIcEEESt3mapISD_S6_St4lessISD_ESaISt4pairIKSD_S6_EEESt6vectorIS6_SaIS6_EEEE8_M_resetEvEUlOT_E_JRSD_EENSt9enable_ifIX16is_invocable_r_vISQ_T0_DpT1_EESQ_E4typeEOSV_DpOSW_(ptr noundef nonnull align 1 dereferenceable(1) %__fn, ptr noundef nonnull align 8 dereferenceable(32) %__args) #5 comdat {
entry:
  %__fn.addr = alloca ptr, align 8
  %__args.addr = alloca ptr, align 8
  store ptr %__fn, ptr %__fn.addr, align 8
  store ptr %__args, ptr %__args.addr, align 8
  %0 = load ptr, ptr %__fn.addr, align 8
  %1 = load ptr, ptr %__args.addr, align 8
  call void @_ZSt13__invoke_implIvZNSt8__detail9__variant16_Variant_storageILb0EJSt9monostatebN9grpc_core12experimental4Json11NumberValueENSt7__cxx1112basic_stringIcSt11char_traitsIcESaIcEEESt3mapISD_S6_St4lessISD_ESaISt4pairIKSD_S6_EEESt6vectorIS6_SaIS6_EEEE8_M_resetEvEUlOT_E_JRSD_EESQ_St14__invoke_otherOT0_DpOT1_(ptr noundef nonnull align 1 dereferenceable(1) %0, ptr noundef nonnull align 8 dereferenceable(32) %1)
  ret void
}

; Function Attrs: mustprogress uwtable
define linkonce_odr void @_ZSt13__invoke_implIvZNSt8__detail9__variant16_Variant_storageILb0EJSt9monostatebN9grpc_core12experimental4Json11NumberValueENSt7__cxx1112basic_stringIcSt11char_traitsIcESaIcEEESt3mapISD_S6_St4lessISD_ESaISt4pairIKSD_S6_EEESt6vectorIS6_SaIS6_EEEE8_M_resetEvEUlOT_E_JRSD_EESQ_St14__invoke_otherOT0_DpOT1_(ptr noundef nonnull align 1 dereferenceable(1) %__f, ptr noundef nonnull align 8 dereferenceable(32) %__args) #5 comdat {
entry:
  %__f.addr = alloca ptr, align 8
  %__args.addr = alloca ptr, align 8
  store ptr %__f, ptr %__f.addr, align 8
  store ptr %__args, ptr %__args.addr, align 8
  %0 = load ptr, ptr %__f.addr, align 8
  %1 = load ptr, ptr %__args.addr, align 8
  call void @_ZZNSt8__detail9__variant16_Variant_storageILb0EJSt9monostatebN9grpc_core12experimental4Json11NumberValueENSt7__cxx1112basic_stringIcSt11char_traitsIcESaIcEEESt3mapISC_S5_St4lessISC_ESaISt4pairIKSC_S5_EEESt6vectorIS5_SaIS5_EEEE8_M_resetEvENUlOT_E_clIRSC_EEDaSQ_(ptr noundef nonnull align 1 dereferenceable(1) %0, ptr noundef nonnull align 8 dereferenceable(32) %1)
  ret void
}

; Function Attrs: mustprogress uwtable
define linkonce_odr void @_ZZNSt8__detail9__variant16_Variant_storageILb0EJSt9monostatebN9grpc_core12experimental4Json11NumberValueENSt7__cxx1112basic_stringIcSt11char_traitsIcESaIcEEESt3mapISC_S5_St4lessISC_ESaISt4pairIKSC_S5_EEESt6vectorIS5_SaIS5_EEEE8_M_resetEvENUlOT_E_clIRSC_EEDaSQ_(ptr noundef nonnull align 1 dereferenceable(1) %this, ptr noundef nonnull align 8 dereferenceable(32) %__this_mem) #5 comdat align 2 {
entry:
  %this.addr = alloca ptr, align 8
  %__this_mem.addr = alloca ptr, align 8
  store ptr %this, ptr %this.addr, align 8
  store ptr %__this_mem, ptr %__this_mem.addr, align 8
  %0 = load ptr, ptr %__this_mem.addr, align 8
  call void @_ZSt8_DestroyINSt7__cxx1112basic_stringIcSt11char_traitsIcESaIcEEEEvPT_(ptr noundef %0)
  ret void
}

; Function Attrs: mustprogress nounwind uwtable
define linkonce_odr void @_ZSt8_DestroyINSt7__cxx1112basic_stringIcSt11char_traitsIcESaIcEEEEvPT_(ptr noundef %__pointer) #4 comdat {
entry:
  %__pointer.addr = alloca ptr, align 8
  store ptr %__pointer, ptr %__pointer.addr, align 8
  %0 = load ptr, ptr %__pointer.addr, align 8
  call void @_ZNSt7__cxx1112basic_stringIcSt11char_traitsIcESaIcEED1Ev(ptr noundef nonnull align 8 dereferenceable(32) %0) #3
  ret void
}

; Function Attrs: mustprogress uwtable
define linkonce_odr void @_ZSt10__invoke_rIvZNSt8__detail9__variant16_Variant_storageILb0EJSt9monostatebN9grpc_core12experimental4Json11NumberValueENSt7__cxx1112basic_stringIcSt11char_traitsIcESaIcEEESt3mapISD_S6_St4lessISD_ESaISt4pairIKSD_S6_EEESt6vectorIS6_SaIS6_EEEE8_M_resetEvEUlOT_E_JRSL_EENSt9enable_ifIX16is_invocable_r_vISQ_T0_DpT1_EESQ_E4typeEOSV_DpOSW_(ptr noundef nonnull align 1 dereferenceable(1) %__fn, ptr noundef nonnull align 8 dereferenceable(48) %__args) #5 comdat {
entry:
  %__fn.addr = alloca ptr, align 8
  %__args.addr = alloca ptr, align 8
  store ptr %__fn, ptr %__fn.addr, align 8
  store ptr %__args, ptr %__args.addr, align 8
  %0 = load ptr, ptr %__fn.addr, align 8
  %1 = load ptr, ptr %__args.addr, align 8
  call void @_ZSt13__invoke_implIvZNSt8__detail9__variant16_Variant_storageILb0EJSt9monostatebN9grpc_core12experimental4Json11NumberValueENSt7__cxx1112basic_stringIcSt11char_traitsIcESaIcEEESt3mapISD_S6_St4lessISD_ESaISt4pairIKSD_S6_EEESt6vectorIS6_SaIS6_EEEE8_M_resetEvEUlOT_E_JRSL_EESQ_St14__invoke_otherOT0_DpOT1_(ptr noundef nonnull align 1 dereferenceable(1) %0, ptr noundef nonnull align 8 dereferenceable(48) %1)
  ret void
}

; Function Attrs: mustprogress nounwind uwtable
define linkonce_odr noundef nonnull align 8 dereferenceable(48) ptr @_ZNSt8__detail9__variant5__getILm4ERSt7variantIJSt9monostatebN9grpc_core12experimental4Json11NumberValueENSt7__cxx1112basic_stringIcSt11char_traitsIcESaIcEEESt3mapISD_S6_St4lessISD_ESaISt4pairIKSD_S6_EEESt6vectorIS6_SaIS6_EEEEEEDcOT0_(ptr noundef nonnull align 8 dereferenceable(49) %__v) #4 comdat {
entry:
  %__v.addr = alloca ptr, align 8
  store ptr %__v, ptr %__v.addr, align 8
  %0 = load ptr, ptr %__v.addr, align 8
  %_M_u = getelementptr inbounds %"struct.std::__detail::__variant::_Variant_storage", ptr %0, i32 0, i32 0
  %call = call noundef nonnull align 8 dereferenceable(48) ptr @_ZNSt8__detail9__variant7__get_nILm4ERNS0_15_Variadic_unionIJSt9monostatebN9grpc_core12experimental4Json11NumberValueENSt7__cxx1112basic_stringIcSt11char_traitsIcESaIcEEESt3mapISD_S6_St4lessISD_ESaISt4pairIKSD_S6_EEESt6vectorIS6_SaIS6_EEEEEEEDcOT0_(ptr noundef nonnull align 8 dereferenceable(48) %_M_u) #3
  ret ptr %call
}

; Function Attrs: mustprogress uwtable
define linkonce_odr void @_ZSt13__invoke_implIvZNSt8__detail9__variant16_Variant_storageILb0EJSt9monostatebN9grpc_core12experimental4Json11NumberValueENSt7__cxx1112basic_stringIcSt11char_traitsIcESaIcEEESt3mapISD_S6_St4lessISD_ESaISt4pairIKSD_S6_EEESt6vectorIS6_SaIS6_EEEE8_M_resetEvEUlOT_E_JRSL_EESQ_St14__invoke_otherOT0_DpOT1_(ptr noundef nonnull align 1 dereferenceable(1) %__f, ptr noundef nonnull align 8 dereferenceable(48) %__args) #5 comdat {
entry:
  %__f.addr = alloca ptr, align 8
  %__args.addr = alloca ptr, align 8
  store ptr %__f, ptr %__f.addr, align 8
  store ptr %__args, ptr %__args.addr, align 8
  %0 = load ptr, ptr %__f.addr, align 8
  %1 = load ptr, ptr %__args.addr, align 8
  call void @_ZZNSt8__detail9__variant16_Variant_storageILb0EJSt9monostatebN9grpc_core12experimental4Json11NumberValueENSt7__cxx1112basic_stringIcSt11char_traitsIcESaIcEEESt3mapISC_S5_St4lessISC_ESaISt4pairIKSC_S5_EEESt6vectorIS5_SaIS5_EEEE8_M_resetEvENUlOT_E_clIRSK_EEDaSQ_(ptr noundef nonnull align 1 dereferenceable(1) %0, ptr noundef nonnull align 8 dereferenceable(48) %1)
  ret void
}

; Function Attrs: mustprogress uwtable
define linkonce_odr void @_ZZNSt8__detail9__variant16_Variant_storageILb0EJSt9monostatebN9grpc_core12experimental4Json11NumberValueENSt7__cxx1112basic_stringIcSt11char_traitsIcESaIcEEESt3mapISC_S5_St4lessISC_ESaISt4pairIKSC_S5_EEESt6vectorIS5_SaIS5_EEEE8_M_resetEvENUlOT_E_clIRSK_EEDaSQ_(ptr noundef nonnull align 1 dereferenceable(1) %this, ptr noundef nonnull align 8 dereferenceable(48) %__this_mem) #5 comdat align 2 {
entry:
  %this.addr = alloca ptr, align 8
  %__this_mem.addr = alloca ptr, align 8
  store ptr %this, ptr %this.addr, align 8
  store ptr %__this_mem, ptr %__this_mem.addr, align 8
  %0 = load ptr, ptr %__this_mem.addr, align 8
  call void @_ZSt8_DestroyISt3mapINSt7__cxx1112basic_stringIcSt11char_traitsIcESaIcEEEN9grpc_core12experimental4JsonESt4lessIS6_ESaISt4pairIKS6_S9_EEEEvPT_(ptr noundef %0)
  ret void
}

; Function Attrs: mustprogress nounwind uwtable
define linkonce_odr void @_ZSt8_DestroyISt3mapINSt7__cxx1112basic_stringIcSt11char_traitsIcESaIcEEEN9grpc_core12experimental4JsonESt4lessIS6_ESaISt4pairIKS6_S9_EEEEvPT_(ptr noundef %__pointer) #4 comdat {
entry:
  %__pointer.addr = alloca ptr, align 8
  store ptr %__pointer, ptr %__pointer.addr, align 8
  %0 = load ptr, ptr %__pointer.addr, align 8
  call void @_ZNSt3mapINSt7__cxx1112basic_stringIcSt11char_traitsIcESaIcEEEN9grpc_core12experimental4JsonESt4lessIS5_ESaISt4pairIKS5_S8_EEED2Ev(ptr noundef nonnull align 8 dereferenceable(48) %0) #3
  ret void
}

; Function Attrs: mustprogress nounwind uwtable
define linkonce_odr noundef nonnull align 8 dereferenceable(48) ptr @_ZNSt8__detail9__variant7__get_nILm4ERNS0_15_Variadic_unionIJSt9monostatebN9grpc_core12experimental4Json11NumberValueENSt7__cxx1112basic_stringIcSt11char_traitsIcESaIcEEESt3mapISD_S6_St4lessISD_ESaISt4pairIKSD_S6_EEESt6vectorIS6_SaIS6_EEEEEEEDcOT0_(ptr noundef nonnull align 8 dereferenceable(48) %__u) #4 comdat {
entry:
  %__u.addr = alloca ptr, align 8
  store ptr %__u, ptr %__u.addr, align 8
  %0 = load ptr, ptr %__u.addr, align 8
  %call = call noundef nonnull align 8 dereferenceable(48) ptr @_ZNSt8__detail9__variant7__get_nILm1ERNS0_15_Variadic_unionIJNSt7__cxx1112basic_stringIcSt11char_traitsIcESaIcEEESt3mapIS8_N9grpc_core12experimental4JsonESt4lessIS8_ESaISt4pairIKS8_SC_EEESt6vectorISC_SaISC_EEEEEEEDcOT0_(ptr noundef nonnull align 8 dereferenceable(48) %0) #3
  ret ptr %call
}

; Function Attrs: mustprogress nounwind uwtable
define linkonce_odr noundef nonnull align 8 dereferenceable(48) ptr @_ZNSt8__detail9__variant7__get_nILm1ERNS0_15_Variadic_unionIJNSt7__cxx1112basic_stringIcSt11char_traitsIcESaIcEEESt3mapIS8_N9grpc_core12experimental4JsonESt4lessIS8_ESaISt4pairIKS8_SC_EEESt6vectorISC_SaISC_EEEEEEEDcOT0_(ptr noundef nonnull align 8 dereferenceable(48) %__u) #4 comdat {
entry:
  %__u.addr = alloca ptr, align 8
  store ptr %__u, ptr %__u.addr, align 8
  %0 = load ptr, ptr %__u.addr, align 8
  %call = call noundef nonnull align 8 dereferenceable(48) ptr @_ZNRSt8__detail9__variant14_UninitializedISt3mapINSt7__cxx1112basic_stringIcSt11char_traitsIcESaIcEEEN9grpc_core12experimental4JsonESt4lessIS8_ESaISt4pairIKS8_SB_EEELb0EE6_M_getEv(ptr noundef nonnull align 8 dereferenceable(48) %0) #3
  ret ptr %call
}

; Function Attrs: mustprogress nounwind uwtable
define linkonce_odr noundef nonnull align 8 dereferenceable(48) ptr @_ZNRSt8__detail9__variant14_UninitializedISt3mapINSt7__cxx1112basic_stringIcSt11char_traitsIcESaIcEEEN9grpc_core12experimental4JsonESt4lessIS8_ESaISt4pairIKS8_SB_EEELb0EE6_M_getEv(ptr noundef nonnull align 8 dereferenceable(48) %this) #4 comdat align 2 {
entry:
  %this.addr = alloca ptr, align 8
  store ptr %this, ptr %this.addr, align 8
  %this1 = load ptr, ptr %this.addr, align 8
  %_M_storage = getelementptr inbounds %"struct.std::__detail::__variant::_Uninitialized.9", ptr %this1, i32 0, i32 0
  %call = call noundef ptr @_ZN9__gnu_cxx16__aligned_membufISt3mapINSt7__cxx1112basic_stringIcSt11char_traitsIcESaIcEEEN9grpc_core12experimental4JsonESt4lessIS7_ESaISt4pairIKS7_SA_EEEE6_M_ptrEv(ptr noundef nonnull align 8 dereferenceable(48) %_M_storage) #3
  ret ptr %call
}

; Function Attrs: mustprogress nounwind uwtable
define linkonce_odr noundef ptr @_ZN9__gnu_cxx16__aligned_membufISt3mapINSt7__cxx1112basic_stringIcSt11char_traitsIcESaIcEEEN9grpc_core12experimental4JsonESt4lessIS7_ESaISt4pairIKS7_SA_EEEE6_M_ptrEv(ptr noundef nonnull align 8 dereferenceable(48) %this) #4 comdat align 2 {
entry:
  %this.addr = alloca ptr, align 8
  store ptr %this, ptr %this.addr, align 8
  %this1 = load ptr, ptr %this.addr, align 8
  %call = call noundef ptr @_ZN9__gnu_cxx16__aligned_membufISt3mapINSt7__cxx1112basic_stringIcSt11char_traitsIcESaIcEEEN9grpc_core12experimental4JsonESt4lessIS7_ESaISt4pairIKS7_SA_EEEE7_M_addrEv(ptr noundef nonnull align 8 dereferenceable(48) %this1) #3
  ret ptr %call
}

; Function Attrs: mustprogress nounwind uwtable
define linkonce_odr noundef ptr @_ZN9__gnu_cxx16__aligned_membufISt3mapINSt7__cxx1112basic_stringIcSt11char_traitsIcESaIcEEEN9grpc_core12experimental4JsonESt4lessIS7_ESaISt4pairIKS7_SA_EEEE7_M_addrEv(ptr noundef nonnull align 8 dereferenceable(48) %this) #4 comdat align 2 {
entry:
  %this.addr = alloca ptr, align 8
  store ptr %this, ptr %this.addr, align 8
  %this1 = load ptr, ptr %this.addr, align 8
  %_M_storage = getelementptr inbounds %"struct.__gnu_cxx::__aligned_membuf.10", ptr %this1, i32 0, i32 0
  ret ptr %_M_storage
}

; Function Attrs: mustprogress uwtable
define linkonce_odr void @_ZSt10__invoke_rIvZNSt8__detail9__variant16_Variant_storageILb0EJSt9monostatebN9grpc_core12experimental4Json11NumberValueENSt7__cxx1112basic_stringIcSt11char_traitsIcESaIcEEESt3mapISD_S6_St4lessISD_ESaISt4pairIKSD_S6_EEESt6vectorIS6_SaIS6_EEEE8_M_resetEvEUlOT_E_JRSO_EENSt9enable_ifIX16is_invocable_r_vISQ_T0_DpT1_EESQ_E4typeEOSV_DpOSW_(ptr noundef nonnull align 1 dereferenceable(1) %__fn, ptr noundef nonnull align 8 dereferenceable(24) %__args) #5 comdat {
entry:
  %__fn.addr = alloca ptr, align 8
  %__args.addr = alloca ptr, align 8
  store ptr %__fn, ptr %__fn.addr, align 8
  store ptr %__args, ptr %__args.addr, align 8
  %0 = load ptr, ptr %__fn.addr, align 8
  %1 = load ptr, ptr %__args.addr, align 8
  call void @_ZSt13__invoke_implIvZNSt8__detail9__variant16_Variant_storageILb0EJSt9monostatebN9grpc_core12experimental4Json11NumberValueENSt7__cxx1112basic_stringIcSt11char_traitsIcESaIcEEESt3mapISD_S6_St4lessISD_ESaISt4pairIKSD_S6_EEESt6vectorIS6_SaIS6_EEEE8_M_resetEvEUlOT_E_JRSO_EESQ_St14__invoke_otherOT0_DpOT1_(ptr noundef nonnull align 1 dereferenceable(1) %0, ptr noundef nonnull align 8 dereferenceable(24) %1)
  ret void
}

; Function Attrs: mustprogress nounwind uwtable
define linkonce_odr noundef nonnull align 8 dereferenceable(24) ptr @_ZNSt8__detail9__variant5__getILm5ERSt7variantIJSt9monostatebN9grpc_core12experimental4Json11NumberValueENSt7__cxx1112basic_stringIcSt11char_traitsIcESaIcEEESt3mapISD_S6_St4lessISD_ESaISt4pairIKSD_S6_EEESt6vectorIS6_SaIS6_EEEEEEDcOT0_(ptr noundef nonnull align 8 dereferenceable(49) %__v) #4 comdat {
entry:
  %__v.addr = alloca ptr, align 8
  store ptr %__v, ptr %__v.addr, align 8
  %0 = load ptr, ptr %__v.addr, align 8
  %_M_u = getelementptr inbounds %"struct.std::__detail::__variant::_Variant_storage", ptr %0, i32 0, i32 0
  %call = call noundef nonnull align 8 dereferenceable(24) ptr @_ZNSt8__detail9__variant7__get_nILm5ERNS0_15_Variadic_unionIJSt9monostatebN9grpc_core12experimental4Json11NumberValueENSt7__cxx1112basic_stringIcSt11char_traitsIcESaIcEEESt3mapISD_S6_St4lessISD_ESaISt4pairIKSD_S6_EEESt6vectorIS6_SaIS6_EEEEEEEDcOT0_(ptr noundef nonnull align 8 dereferenceable(48) %_M_u) #3
  ret ptr %call
}

; Function Attrs: mustprogress uwtable
define linkonce_odr void @_ZSt13__invoke_implIvZNSt8__detail9__variant16_Variant_storageILb0EJSt9monostatebN9grpc_core12experimental4Json11NumberValueENSt7__cxx1112basic_stringIcSt11char_traitsIcESaIcEEESt3mapISD_S6_St4lessISD_ESaISt4pairIKSD_S6_EEESt6vectorIS6_SaIS6_EEEE8_M_resetEvEUlOT_E_JRSO_EESQ_St14__invoke_otherOT0_DpOT1_(ptr noundef nonnull align 1 dereferenceable(1) %__f, ptr noundef nonnull align 8 dereferenceable(24) %__args) #5 comdat {
entry:
  %__f.addr = alloca ptr, align 8
  %__args.addr = alloca ptr, align 8
  store ptr %__f, ptr %__f.addr, align 8
  store ptr %__args, ptr %__args.addr, align 8
  %0 = load ptr, ptr %__f.addr, align 8
  %1 = load ptr, ptr %__args.addr, align 8
  call void @_ZZNSt8__detail9__variant16_Variant_storageILb0EJSt9monostatebN9grpc_core12experimental4Json11NumberValueENSt7__cxx1112basic_stringIcSt11char_traitsIcESaIcEEESt3mapISC_S5_St4lessISC_ESaISt4pairIKSC_S5_EEESt6vectorIS5_SaIS5_EEEE8_M_resetEvENUlOT_E_clIRSN_EEDaSQ_(ptr noundef nonnull align 1 dereferenceable(1) %0, ptr noundef nonnull align 8 dereferenceable(24) %1)
  ret void
}

; Function Attrs: mustprogress uwtable
define linkonce_odr void @_ZZNSt8__detail9__variant16_Variant_storageILb0EJSt9monostatebN9grpc_core12experimental4Json11NumberValueENSt7__cxx1112basic_stringIcSt11char_traitsIcESaIcEEESt3mapISC_S5_St4lessISC_ESaISt4pairIKSC_S5_EEESt6vectorIS5_SaIS5_EEEE8_M_resetEvENUlOT_E_clIRSN_EEDaSQ_(ptr noundef nonnull align 1 dereferenceable(1) %this, ptr noundef nonnull align 8 dereferenceable(24) %__this_mem) #5 comdat align 2 {
entry:
  %this.addr = alloca ptr, align 8
  %__this_mem.addr = alloca ptr, align 8
  store ptr %this, ptr %this.addr, align 8
  store ptr %__this_mem, ptr %__this_mem.addr, align 8
  %0 = load ptr, ptr %__this_mem.addr, align 8
  call void @_ZSt8_DestroyISt6vectorIN9grpc_core12experimental4JsonESaIS3_EEEvPT_(ptr noundef %0)
  ret void
}

; Function Attrs: mustprogress nounwind uwtable
define linkonce_odr void @_ZSt8_DestroyISt6vectorIN9grpc_core12experimental4JsonESaIS3_EEEvPT_(ptr noundef %__pointer) #4 comdat {
entry:
  %__pointer.addr = alloca ptr, align 8
  store ptr %__pointer, ptr %__pointer.addr, align 8
  %0 = load ptr, ptr %__pointer.addr, align 8
  call void @_ZNSt6vectorIN9grpc_core12experimental4JsonESaIS2_EED2Ev(ptr noundef nonnull align 8 dereferenceable(24) %0) #3
  ret void
}

; Function Attrs: mustprogress nounwind uwtable
define linkonce_odr void @_ZNSt6vectorIN9grpc_core12experimental4JsonESaIS2_EED2Ev(ptr noundef nonnull align 8 dereferenceable(24) %this) unnamed_addr #4 comdat align 2 personality ptr @__gxx_personality_v0 {
entry:
  %this.addr = alloca ptr, align 8
  store ptr %this, ptr %this.addr, align 8
  %this1 = load ptr, ptr %this.addr, align 8
  %_M_impl = getelementptr inbounds %"struct.std::_Vector_base.60", ptr %this1, i32 0, i32 0
  %_M_start = getelementptr inbounds %"struct.std::_Vector_base<grpc_core::experimental::Json, std::allocator<grpc_core::experimental::Json>>::_Vector_impl_data", ptr %_M_impl, i32 0, i32 0
  %0 = load ptr, ptr %_M_start, align 8
  %_M_impl2 = getelementptr inbounds %"struct.std::_Vector_base.60", ptr %this1, i32 0, i32 0
  %_M_finish = getelementptr inbounds %"struct.std::_Vector_base<grpc_core::experimental::Json, std::allocator<grpc_core::experimental::Json>>::_Vector_impl_data", ptr %_M_impl2, i32 0, i32 1
  %1 = load ptr, ptr %_M_finish, align 8
  %call = call noundef nonnull align 1 dereferenceable(1) ptr @_ZNSt12_Vector_baseIN9grpc_core12experimental4JsonESaIS2_EE19_M_get_Tp_allocatorEv(ptr noundef nonnull align 8 dereferenceable(24) %this1) #3
  invoke void @_ZSt8_DestroyIPN9grpc_core12experimental4JsonES2_EvT_S4_RSaIT0_E(ptr noundef %0, ptr noundef %1, ptr noundef nonnull align 1 dereferenceable(1) %call)
          to label %invoke.cont unwind label %terminate.lpad

invoke.cont:                                      ; preds = %entry
  call void @_ZNSt12_Vector_baseIN9grpc_core12experimental4JsonESaIS2_EED2Ev(ptr noundef nonnull align 8 dereferenceable(24) %this1) #3
  ret void

terminate.lpad:                                   ; preds = %entry
  %2 = landingpad { ptr, i32 }
          catch ptr null
  %3 = extractvalue { ptr, i32 } %2, 0
  call void @__clang_call_terminate(ptr %3) #14
  unreachable
}

; Function Attrs: mustprogress uwtable
define linkonce_odr void @_ZSt8_DestroyIPN9grpc_core12experimental4JsonES2_EvT_S4_RSaIT0_E(ptr noundef %__first, ptr noundef %__last, ptr noundef nonnull align 1 dereferenceable(1) %0) #5 comdat {
entry:
  %__first.addr = alloca ptr, align 8
  %__last.addr = alloca ptr, align 8
  %.addr = alloca ptr, align 8
  store ptr %__first, ptr %__first.addr, align 8
  store ptr %__last, ptr %__last.addr, align 8
  store ptr %0, ptr %.addr, align 8
  %1 = load ptr, ptr %__first.addr, align 8
  %2 = load ptr, ptr %__last.addr, align 8
  call void @_ZSt8_DestroyIPN9grpc_core12experimental4JsonEEvT_S4_(ptr noundef %1, ptr noundef %2)
  ret void
}

; Function Attrs: mustprogress nounwind uwtable
define linkonce_odr noundef nonnull align 1 dereferenceable(1) ptr @_ZNSt12_Vector_baseIN9grpc_core12experimental4JsonESaIS2_EE19_M_get_Tp_allocatorEv(ptr noundef nonnull align 8 dereferenceable(24) %this) #4 comdat align 2 {
entry:
  %this.addr = alloca ptr, align 8
  store ptr %this, ptr %this.addr, align 8
  %this1 = load ptr, ptr %this.addr, align 8
  %_M_impl = getelementptr inbounds %"struct.std::_Vector_base.60", ptr %this1, i32 0, i32 0
  ret ptr %_M_impl
}

; Function Attrs: mustprogress nounwind uwtable
define linkonce_odr void @_ZNSt12_Vector_baseIN9grpc_core12experimental4JsonESaIS2_EED2Ev(ptr noundef nonnull align 8 dereferenceable(24) %this) unnamed_addr #4 comdat align 2 personality ptr @__gxx_personality_v0 {
entry:
  %this.addr = alloca ptr, align 8
  store ptr %this, ptr %this.addr, align 8
  %this1 = load ptr, ptr %this.addr, align 8
  %_M_impl = getelementptr inbounds %"struct.std::_Vector_base.60", ptr %this1, i32 0, i32 0
  %_M_start = getelementptr inbounds %"struct.std::_Vector_base<grpc_core::experimental::Json, std::allocator<grpc_core::experimental::Json>>::_Vector_impl_data", ptr %_M_impl, i32 0, i32 0
  %0 = load ptr, ptr %_M_start, align 8
  %_M_impl2 = getelementptr inbounds %"struct.std::_Vector_base.60", ptr %this1, i32 0, i32 0
  %_M_end_of_storage = getelementptr inbounds %"struct.std::_Vector_base<grpc_core::experimental::Json, std::allocator<grpc_core::experimental::Json>>::_Vector_impl_data", ptr %_M_impl2, i32 0, i32 2
  %1 = load ptr, ptr %_M_end_of_storage, align 8
  %_M_impl3 = getelementptr inbounds %"struct.std::_Vector_base.60", ptr %this1, i32 0, i32 0
  %_M_start4 = getelementptr inbounds %"struct.std::_Vector_base<grpc_core::experimental::Json, std::allocator<grpc_core::experimental::Json>>::_Vector_impl_data", ptr %_M_impl3, i32 0, i32 0
  %2 = load ptr, ptr %_M_start4, align 8
  %sub.ptr.lhs.cast = ptrtoint ptr %1 to i64
  %sub.ptr.rhs.cast = ptrtoint ptr %2 to i64
  %sub.ptr.sub = sub i64 %sub.ptr.lhs.cast, %sub.ptr.rhs.cast
  %sub.ptr.div = sdiv exact i64 %sub.ptr.sub, 56
  invoke void @_ZNSt12_Vector_baseIN9grpc_core12experimental4JsonESaIS2_EE13_M_deallocateEPS2_m(ptr noundef nonnull align 8 dereferenceable(24) %this1, ptr noundef %0, i64 noundef %sub.ptr.div)
          to label %invoke.cont unwind label %terminate.lpad

invoke.cont:                                      ; preds = %entry
  %_M_impl5 = getelementptr inbounds %"struct.std::_Vector_base.60", ptr %this1, i32 0, i32 0
  call void @_ZNSt12_Vector_baseIN9grpc_core12experimental4JsonESaIS2_EE12_Vector_implD2Ev(ptr noundef nonnull align 8 dereferenceable(24) %_M_impl5) #3
  ret void

terminate.lpad:                                   ; preds = %entry
  %3 = landingpad { ptr, i32 }
          catch ptr null
  %4 = extractvalue { ptr, i32 } %3, 0
  call void @__clang_call_terminate(ptr %4) #14
  unreachable
}

; Function Attrs: mustprogress uwtable
define linkonce_odr void @_ZSt8_DestroyIPN9grpc_core12experimental4JsonEEvT_S4_(ptr noundef %__first, ptr noundef %__last) #5 comdat {
entry:
  %__first.addr = alloca ptr, align 8
  %__last.addr = alloca ptr, align 8
  store ptr %__first, ptr %__first.addr, align 8
  store ptr %__last, ptr %__last.addr, align 8
  %0 = load ptr, ptr %__first.addr, align 8
  %1 = load ptr, ptr %__last.addr, align 8
  call void @_ZNSt12_Destroy_auxILb0EE9__destroyIPN9grpc_core12experimental4JsonEEEvT_S6_(ptr noundef %0, ptr noundef %1)
  ret void
}

; Function Attrs: mustprogress uwtable
define linkonce_odr void @_ZNSt12_Destroy_auxILb0EE9__destroyIPN9grpc_core12experimental4JsonEEEvT_S6_(ptr noundef %__first, ptr noundef %__last) #5 comdat align 2 {
entry:
  %__first.addr = alloca ptr, align 8
  %__last.addr = alloca ptr, align 8
  store ptr %__first, ptr %__first.addr, align 8
  store ptr %__last, ptr %__last.addr, align 8
  br label %for.cond

for.cond:                                         ; preds = %for.inc, %entry
  %0 = load ptr, ptr %__first.addr, align 8
  %1 = load ptr, ptr %__last.addr, align 8
  %cmp = icmp ne ptr %0, %1
  br i1 %cmp, label %for.body, label %for.end

for.body:                                         ; preds = %for.cond
  %2 = load ptr, ptr %__first.addr, align 8
  call void @_ZSt8_DestroyIN9grpc_core12experimental4JsonEEvPT_(ptr noundef %2)
  br label %for.inc

for.inc:                                          ; preds = %for.body
  %3 = load ptr, ptr %__first.addr, align 8
  %incdec.ptr = getelementptr inbounds %"class.grpc_core::experimental::Json", ptr %3, i32 1
  store ptr %incdec.ptr, ptr %__first.addr, align 8
  br label %for.cond, !llvm.loop !4

for.end:                                          ; preds = %for.cond
  ret void
}

; Function Attrs: mustprogress nounwind uwtable
define linkonce_odr void @_ZSt8_DestroyIN9grpc_core12experimental4JsonEEvPT_(ptr noundef %__pointer) #4 comdat {
entry:
  %__pointer.addr = alloca ptr, align 8
  store ptr %__pointer, ptr %__pointer.addr, align 8
  %0 = load ptr, ptr %__pointer.addr, align 8
  call void @_ZN9grpc_core12experimental4JsonD2Ev(ptr noundef nonnull align 8 dereferenceable(56) %0) #3
  ret void
}

; Function Attrs: mustprogress uwtable
define linkonce_odr void @_ZNSt12_Vector_baseIN9grpc_core12experimental4JsonESaIS2_EE13_M_deallocateEPS2_m(ptr noundef nonnull align 8 dereferenceable(24) %this, ptr noundef %__p, i64 noundef %__n) #5 comdat align 2 {
entry:
  %this.addr = alloca ptr, align 8
  %__p.addr = alloca ptr, align 8
  %__n.addr = alloca i64, align 8
  store ptr %this, ptr %this.addr, align 8
  store ptr %__p, ptr %__p.addr, align 8
  store i64 %__n, ptr %__n.addr, align 8
  %this1 = load ptr, ptr %this.addr, align 8
  %0 = load ptr, ptr %__p.addr, align 8
  %tobool = icmp ne ptr %0, null
  br i1 %tobool, label %if.then, label %if.end

if.then:                                          ; preds = %entry
  %_M_impl = getelementptr inbounds %"struct.std::_Vector_base.60", ptr %this1, i32 0, i32 0
  %1 = load ptr, ptr %__p.addr, align 8
  %2 = load i64, ptr %__n.addr, align 8
  call void @_ZNSt16allocator_traitsISaIN9grpc_core12experimental4JsonEEE10deallocateERS3_PS2_m(ptr noundef nonnull align 1 dereferenceable(1) %_M_impl, ptr noundef %1, i64 noundef %2)
  br label %if.end

if.end:                                           ; preds = %if.then, %entry
  ret void
}

; Function Attrs: mustprogress nounwind uwtable
define linkonce_odr void @_ZNSt12_Vector_baseIN9grpc_core12experimental4JsonESaIS2_EE12_Vector_implD2Ev(ptr noundef nonnull align 8 dereferenceable(24) %this) unnamed_addr #4 comdat align 2 {
entry:
  %this.addr = alloca ptr, align 8
  store ptr %this, ptr %this.addr, align 8
  %this1 = load ptr, ptr %this.addr, align 8
  call void @_ZNSaIN9grpc_core12experimental4JsonEED2Ev(ptr noundef nonnull align 1 dereferenceable(1) %this1) #3
  ret void
}

; Function Attrs: mustprogress uwtable
define linkonce_odr void @_ZNSt16allocator_traitsISaIN9grpc_core12experimental4JsonEEE10deallocateERS3_PS2_m(ptr noundef nonnull align 1 dereferenceable(1) %__a, ptr noundef %__p, i64 noundef %__n) #5 comdat align 2 {
entry:
  %__a.addr = alloca ptr, align 8
  %__p.addr = alloca ptr, align 8
  %__n.addr = alloca i64, align 8
  store ptr %__a, ptr %__a.addr, align 8
  store ptr %__p, ptr %__p.addr, align 8
  store i64 %__n, ptr %__n.addr, align 8
  %0 = load ptr, ptr %__a.addr, align 8
  %1 = load ptr, ptr %__p.addr, align 8
  %2 = load i64, ptr %__n.addr, align 8
  call void @_ZNSt15__new_allocatorIN9grpc_core12experimental4JsonEE10deallocateEPS2_m(ptr noundef nonnull align 1 dereferenceable(1) %0, ptr noundef %1, i64 noundef %2)
  ret void
}

; Function Attrs: mustprogress nounwind uwtable
define linkonce_odr void @_ZNSt15__new_allocatorIN9grpc_core12experimental4JsonEE10deallocateEPS2_m(ptr noundef nonnull align 1 dereferenceable(1) %this, ptr noundef %__p, i64 noundef %__n) #4 comdat align 2 {
entry:
  %this.addr = alloca ptr, align 8
  %__p.addr = alloca ptr, align 8
  %__n.addr = alloca i64, align 8
  store ptr %this, ptr %this.addr, align 8
  store ptr %__p, ptr %__p.addr, align 8
  store i64 %__n, ptr %__n.addr, align 8
  %0 = load ptr, ptr %__p.addr, align 8
  call void @_ZdlPv(ptr noundef %0) #16
  ret void
}

; Function Attrs: mustprogress nounwind uwtable
define linkonce_odr void @_ZNSt15__new_allocatorIN9grpc_core12experimental4JsonEED2Ev(ptr noundef nonnull align 1 dereferenceable(1) %this) unnamed_addr #4 comdat align 2 {
entry:
  %this.addr = alloca ptr, align 8
  store ptr %this, ptr %this.addr, align 8
  ret void
}

; Function Attrs: mustprogress nounwind uwtable
define linkonce_odr noundef nonnull align 8 dereferenceable(24) ptr @_ZNSt8__detail9__variant7__get_nILm5ERNS0_15_Variadic_unionIJSt9monostatebN9grpc_core12experimental4Json11NumberValueENSt7__cxx1112basic_stringIcSt11char_traitsIcESaIcEEESt3mapISD_S6_St4lessISD_ESaISt4pairIKSD_S6_EEESt6vectorIS6_SaIS6_EEEEEEEDcOT0_(ptr noundef nonnull align 8 dereferenceable(48) %__u) #4 comdat {
entry:
  %__u.addr = alloca ptr, align 8
  store ptr %__u, ptr %__u.addr, align 8
  %0 = load ptr, ptr %__u.addr, align 8
  %call = call noundef nonnull align 8 dereferenceable(24) ptr @_ZNSt8__detail9__variant7__get_nILm2ERNS0_15_Variadic_unionIJNSt7__cxx1112basic_stringIcSt11char_traitsIcESaIcEEESt3mapIS8_N9grpc_core12experimental4JsonESt4lessIS8_ESaISt4pairIKS8_SC_EEESt6vectorISC_SaISC_EEEEEEEDcOT0_(ptr noundef nonnull align 8 dereferenceable(48) %0) #3
  ret ptr %call
}

; Function Attrs: mustprogress nounwind uwtable
define linkonce_odr noundef nonnull align 8 dereferenceable(24) ptr @_ZNSt8__detail9__variant7__get_nILm2ERNS0_15_Variadic_unionIJNSt7__cxx1112basic_stringIcSt11char_traitsIcESaIcEEESt3mapIS8_N9grpc_core12experimental4JsonESt4lessIS8_ESaISt4pairIKS8_SC_EEESt6vectorISC_SaISC_EEEEEEEDcOT0_(ptr noundef nonnull align 8 dereferenceable(48) %__u) #4 comdat {
entry:
  %__u.addr = alloca ptr, align 8
  store ptr %__u, ptr %__u.addr, align 8
  %0 = load ptr, ptr %__u.addr, align 8
  %call = call noundef nonnull align 8 dereferenceable(24) ptr @_ZNRSt8__detail9__variant14_UninitializedISt6vectorIN9grpc_core12experimental4JsonESaIS5_EELb0EE6_M_getEv(ptr noundef nonnull align 8 dereferenceable(24) %0) #3
  ret ptr %call
}

; Function Attrs: mustprogress nounwind uwtable
define linkonce_odr noundef nonnull align 8 dereferenceable(24) ptr @_ZNRSt8__detail9__variant14_UninitializedISt6vectorIN9grpc_core12experimental4JsonESaIS5_EELb0EE6_M_getEv(ptr noundef nonnull align 8 dereferenceable(24) %this) #4 comdat align 2 {
entry:
  %this.addr = alloca ptr, align 8
  store ptr %this, ptr %this.addr, align 8
  %this1 = load ptr, ptr %this.addr, align 8
  %_M_storage = getelementptr inbounds %"struct.std::__detail::__variant::_Uninitialized.12", ptr %this1, i32 0, i32 0
  %call = call noundef ptr @_ZN9__gnu_cxx16__aligned_membufISt6vectorIN9grpc_core12experimental4JsonESaIS4_EEE6_M_ptrEv(ptr noundef nonnull align 8 dereferenceable(24) %_M_storage) #3
  ret ptr %call
}

; Function Attrs: mustprogress nounwind uwtable
define linkonce_odr noundef ptr @_ZN9__gnu_cxx16__aligned_membufISt6vectorIN9grpc_core12experimental4JsonESaIS4_EEE6_M_ptrEv(ptr noundef nonnull align 8 dereferenceable(24) %this) #4 comdat align 2 {
entry:
  %this.addr = alloca ptr, align 8
  store ptr %this, ptr %this.addr, align 8
  %this1 = load ptr, ptr %this.addr, align 8
  %call = call noundef ptr @_ZN9__gnu_cxx16__aligned_membufISt6vectorIN9grpc_core12experimental4JsonESaIS4_EEE7_M_addrEv(ptr noundef nonnull align 8 dereferenceable(24) %this1) #3
  ret ptr %call
}

; Function Attrs: mustprogress nounwind uwtable
define linkonce_odr noundef ptr @_ZN9__gnu_cxx16__aligned_membufISt6vectorIN9grpc_core12experimental4JsonESaIS4_EEE7_M_addrEv(ptr noundef nonnull align 8 dereferenceable(24) %this) #4 comdat align 2 {
entry:
  %this.addr = alloca ptr, align 8
  store ptr %this, ptr %this.addr, align 8
  %this1 = load ptr, ptr %this.addr, align 8
  %_M_storage = getelementptr inbounds %"struct.__gnu_cxx::__aligned_membuf.13", ptr %this1, i32 0, i32 0
  ret ptr %_M_storage
}

; Function Attrs: nounwind
declare void @_ZNSt7__cxx1112basic_stringIcSt11char_traitsIcESaIcEEC1EOS4_(ptr noundef nonnull align 8 dereferenceable(32), ptr noundef nonnull align 8 dereferenceable(32)) unnamed_addr #2

; Function Attrs: mustprogress nounwind uwtable
define linkonce_odr noundef nonnull align 8 dereferenceable(49) ptr @_ZNSt7variantIJSt9monostatebN9grpc_core12experimental4Json11NumberValueENSt7__cxx1112basic_stringIcSt11char_traitsIcESaIcEEESt3mapISA_S3_St4lessISA_ESaISt4pairIKSA_S3_EEESt6vectorIS3_SaIS3_EEEEaSEOSM_(ptr noundef nonnull align 8 dereferenceable(49) %this, ptr noundef nonnull align 8 dereferenceable(49) %0) #4 comdat align 2 {
entry:
  %this.addr = alloca ptr, align 8
  %.addr = alloca ptr, align 8
  store ptr %this, ptr %this.addr, align 8
  store ptr %0, ptr %.addr, align 8
  %this1 = load ptr, ptr %this.addr, align 8
  %1 = load ptr, ptr %.addr, align 8
  %call = call noundef nonnull align 8 dereferenceable(49) ptr @_ZNSt8__detail9__variant13_Variant_baseIJSt9monostatebN9grpc_core12experimental4Json11NumberValueENSt7__cxx1112basic_stringIcSt11char_traitsIcESaIcEEESt3mapISC_S5_St4lessISC_ESaISt4pairIKSC_S5_EEESt6vectorIS5_SaIS5_EEEEaSEOSO_(ptr noundef nonnull align 8 dereferenceable(49) %this1, ptr noundef nonnull align 8 dereferenceable(49) %1) #3
  ret ptr %this1
}

; Function Attrs: mustprogress nounwind uwtable
define linkonce_odr noundef nonnull align 8 dereferenceable(49) ptr @_ZNSt7variantIJSt9monostatebN9grpc_core12experimental4Json11NumberValueENSt7__cxx1112basic_stringIcSt11char_traitsIcESaIcEEESt3mapISA_S3_St4lessISA_ESaISt4pairIKSA_S3_EEESt6vectorIS3_SaIS3_EEEEaSIS0_EENSt9enable_ifIXaaaa14__exactly_onceINSt9_Nth_typeIX16__accepted_indexIOT_EEJS0_bS4_SA_SI_SL_EE4typeEE18is_constructible_vIST_SQ_E15is_assignable_vIRST_SQ_EERSM_E4typeESR_(ptr noundef nonnull align 8 dereferenceable(49) %this, ptr noundef nonnull align 1 dereferenceable(1) %__rhs) #4 comdat align 2 personality ptr @__gxx_personality_v0 {
entry:
  %this.addr = alloca ptr, align 8
  %__rhs.addr = alloca ptr, align 8
  %__index = alloca i64, align 8
  store ptr %this, ptr %this.addr, align 8
  store ptr %__rhs, ptr %__rhs.addr, align 8
  %this1 = load ptr, ptr %this.addr, align 8
  store i64 0, ptr %__index, align 8
  %call = call noundef i64 @_ZNKSt7variantIJSt9monostatebN9grpc_core12experimental4Json11NumberValueENSt7__cxx1112basic_stringIcSt11char_traitsIcESaIcEEESt3mapISA_S3_St4lessISA_ESaISt4pairIKSA_S3_EEESt6vectorIS3_SaIS3_EEEE5indexEv(ptr noundef nonnull align 8 dereferenceable(49) %this1) #3
  %cmp = icmp eq i64 %call, 0
  br i1 %cmp, label %if.then, label %if.else

if.then:                                          ; preds = %entry
  %call2 = invoke noundef nonnull align 1 dereferenceable(1) ptr @_ZSt3getILm0EJSt9monostatebN9grpc_core12experimental4Json11NumberValueENSt7__cxx1112basic_stringIcSt11char_traitsIcESaIcEEESt3mapISA_S3_St4lessISA_ESaISt4pairIKSA_S3_EEESt6vectorIS3_SaIS3_EEEERNSt19variant_alternativeIXT_ESt7variantIJDpT0_EEE4typeERSQ_(ptr noundef nonnull align 8 dereferenceable(49) %this1)
          to label %invoke.cont unwind label %terminate.lpad

invoke.cont:                                      ; preds = %if.then
  br label %if.end

if.else:                                          ; preds = %entry
  %0 = load ptr, ptr %__rhs.addr, align 8
  %call4 = invoke noundef nonnull align 1 dereferenceable(1) ptr @_ZNSt7variantIJSt9monostatebN9grpc_core12experimental4Json11NumberValueENSt7__cxx1112basic_stringIcSt11char_traitsIcESaIcEEESt3mapISA_S3_St4lessISA_ESaISt4pairIKSA_S3_EEESt6vectorIS3_SaIS3_EEEE7emplaceILm0EJS0_EEENSt9enable_ifIX18is_constructible_vINSt9_Nth_typeIXT_EJS0_bS4_SA_SI_SL_EE4typeEDpT0_EERSR_E4typeEDpOSS_(ptr noundef nonnull align 8 dereferenceable(49) %this1, ptr noundef nonnull align 1 dereferenceable(1) %0)
          to label %invoke.cont3 unwind label %terminate.lpad

invoke.cont3:                                     ; preds = %if.else
  br label %if.end

if.end:                                           ; preds = %invoke.cont3, %invoke.cont
  ret ptr %this1

terminate.lpad:                                   ; preds = %if.else, %if.then
  %1 = landingpad { ptr, i32 }
          catch ptr null
  %2 = extractvalue { ptr, i32 } %1, 0
  call void @__clang_call_terminate(ptr %2) #14
  unreachable
}

; Function Attrs: mustprogress nounwind uwtable
define linkonce_odr noundef nonnull align 8 dereferenceable(49) ptr @_ZNSt8__detail9__variant13_Variant_baseIJSt9monostatebN9grpc_core12experimental4Json11NumberValueENSt7__cxx1112basic_stringIcSt11char_traitsIcESaIcEEESt3mapISC_S5_St4lessISC_ESaISt4pairIKSC_S5_EEESt6vectorIS5_SaIS5_EEEEaSEOSO_(ptr noundef nonnull align 8 dereferenceable(49) %this, ptr noundef nonnull align 8 dereferenceable(49) %0) #4 comdat align 2 {
entry:
  %this.addr = alloca ptr, align 8
  %.addr = alloca ptr, align 8
  store ptr %this, ptr %this.addr, align 8
  store ptr %0, ptr %.addr, align 8
  %this1 = load ptr, ptr %this.addr, align 8
  %1 = load ptr, ptr %.addr, align 8
  %call = call noundef nonnull align 8 dereferenceable(49) ptr @_ZNSt8__detail9__variant17_Move_assign_baseILb0EJSt9monostatebN9grpc_core12experimental4Json11NumberValueENSt7__cxx1112basic_stringIcSt11char_traitsIcESaIcEEESt3mapISC_S5_St4lessISC_ESaISt4pairIKSC_S5_EEESt6vectorIS5_SaIS5_EEEEaSEOSO_(ptr noundef nonnull align 8 dereferenceable(49) %this1, ptr noundef nonnull align 8 dereferenceable(49) %1) #3
  ret ptr %this1
}

; Function Attrs: mustprogress nounwind uwtable
define linkonce_odr noundef nonnull align 8 dereferenceable(49) ptr @_ZNSt8__detail9__variant17_Move_assign_baseILb0EJSt9monostatebN9grpc_core12experimental4Json11NumberValueENSt7__cxx1112basic_stringIcSt11char_traitsIcESaIcEEESt3mapISC_S5_St4lessISC_ESaISt4pairIKSC_S5_EEESt6vectorIS5_SaIS5_EEEEaSEOSO_(ptr noundef nonnull align 8 dereferenceable(49) %this, ptr noundef nonnull align 8 dereferenceable(49) %__rhs) #4 comdat align 2 personality ptr @__gxx_personality_v0 {
entry:
  %this.addr = alloca ptr, align 8
  %__rhs.addr = alloca ptr, align 8
  %ref.tmp = alloca %class.anon.64, align 8
  store ptr %this, ptr %this.addr, align 8
  store ptr %__rhs, ptr %__rhs.addr, align 8
  %this1 = load ptr, ptr %this.addr, align 8
  %0 = getelementptr inbounds %class.anon.64, ptr %ref.tmp, i32 0, i32 0
  store ptr %this1, ptr %0, align 8
  %1 = load ptr, ptr %__rhs.addr, align 8
  %call = invoke noundef nonnull align 8 dereferenceable(49) ptr @_ZSt14__variant_castIJSt9monostatebN9grpc_core12experimental4Json11NumberValueENSt7__cxx1112basic_stringIcSt11char_traitsIcESaIcEEESt3mapISA_S3_St4lessISA_ESaISt4pairIKSA_S3_EEESt6vectorIS3_SaIS3_EEERNSt8__detail9__variant17_Move_assign_baseILb0EJS0_bS4_SA_SI_SL_EEEEDcOT0_(ptr noundef nonnull align 8 dereferenceable(49) %1)
          to label %invoke.cont unwind label %terminate.lpad

invoke.cont:                                      ; preds = %entry
  invoke void @_ZNSt8__detail9__variant15__raw_idx_visitIZNS0_17_Move_assign_baseILb0EJSt9monostatebN9grpc_core12experimental4Json11NumberValueENSt7__cxx1112basic_stringIcSt11char_traitsIcESaIcEEESt3mapISD_S6_St4lessISD_ESaISt4pairIKSD_S6_EEESt6vectorIS6_SaIS6_EEEEaSEOSP_EUlOT_T0_E_JRSt7variantIJS3_bS7_SD_SL_SO_EEEEEvSS_DpOT0_(ptr noundef nonnull align 8 dereferenceable(8) %ref.tmp, ptr noundef nonnull align 8 dereferenceable(49) %call)
          to label %invoke.cont2 unwind label %terminate.lpad

invoke.cont2:                                     ; preds = %invoke.cont
  ret ptr %this1

terminate.lpad:                                   ; preds = %invoke.cont, %entry
  %2 = landingpad { ptr, i32 }
          catch ptr null
  %3 = extractvalue { ptr, i32 } %2, 0
  call void @__clang_call_terminate(ptr %3) #14
  unreachable
}

; Function Attrs: mustprogress uwtable
define linkonce_odr void @_ZNSt8__detail9__variant15__raw_idx_visitIZNS0_17_Move_assign_baseILb0EJSt9monostatebN9grpc_core12experimental4Json11NumberValueENSt7__cxx1112basic_stringIcSt11char_traitsIcESaIcEEESt3mapISD_S6_St4lessISD_ESaISt4pairIKSD_S6_EEESt6vectorIS6_SaIS6_EEEEaSEOSP_EUlOT_T0_E_JRSt7variantIJS3_bS7_SD_SL_SO_EEEEEvSS_DpOT0_(ptr noundef nonnull align 8 dereferenceable(8) %__visitor, ptr noundef nonnull align 8 dereferenceable(49) %__variants) #5 comdat {
entry:
  %__visitor.addr = alloca ptr, align 8
  %__variants.addr = alloca ptr, align 8
  store ptr %__visitor, ptr %__visitor.addr, align 8
  store ptr %__variants, ptr %__variants.addr, align 8
  %0 = load ptr, ptr %__visitor.addr, align 8
  %1 = load ptr, ptr %__variants.addr, align 8
  call void @_ZSt10__do_visitINSt8__detail9__variant20__variant_idx_cookieEZNS1_17_Move_assign_baseILb0EJSt9monostatebN9grpc_core12experimental4Json11NumberValueENSt7__cxx1112basic_stringIcSt11char_traitsIcESaIcEEESt3mapISE_S7_St4lessISE_ESaISt4pairIKSE_S7_EEESt6vectorIS7_SaIS7_EEEEaSEOSQ_EUlOT_T0_E_JRSt7variantIJS4_bS8_SE_SM_SP_EEEEDcOSU_DpOT1_(ptr noundef nonnull align 8 dereferenceable(8) %0, ptr noundef nonnull align 8 dereferenceable(49) %1)
  ret void
}

; Function Attrs: mustprogress nounwind uwtable
define linkonce_odr noundef nonnull align 8 dereferenceable(49) ptr @_ZSt14__variant_castIJSt9monostatebN9grpc_core12experimental4Json11NumberValueENSt7__cxx1112basic_stringIcSt11char_traitsIcESaIcEEESt3mapISA_S3_St4lessISA_ESaISt4pairIKSA_S3_EEESt6vectorIS3_SaIS3_EEERNSt8__detail9__variant17_Move_assign_baseILb0EJS0_bS4_SA_SI_SL_EEEEDcOT0_(ptr noundef nonnull align 8 dereferenceable(49) %__rhs) #4 comdat {
entry:
  %__rhs.addr = alloca ptr, align 8
  store ptr %__rhs, ptr %__rhs.addr, align 8
  %0 = load ptr, ptr %__rhs.addr, align 8
  ret ptr %0
}

; Function Attrs: mustprogress uwtable
define linkonce_odr void @_ZSt10__do_visitINSt8__detail9__variant20__variant_idx_cookieEZNS1_17_Move_assign_baseILb0EJSt9monostatebN9grpc_core12experimental4Json11NumberValueENSt7__cxx1112basic_stringIcSt11char_traitsIcESaIcEEESt3mapISE_S7_St4lessISE_ESaISt4pairIKSE_S7_EEESt6vectorIS7_SaIS7_EEEEaSEOSQ_EUlOT_T0_E_JRSt7variantIJS4_bS8_SE_SM_SP_EEEEDcOSU_DpOT1_(ptr noundef nonnull align 8 dereferenceable(8) %__visitor, ptr noundef nonnull align 8 dereferenceable(49) %__variants) #5 comdat {
entry:
  %__visitor.addr = alloca ptr, align 8
  %__variants.addr = alloca ptr, align 8
  %__max = alloca i64, align 8
  %__n = alloca i64, align 8
  %__v0 = alloca ptr, align 8
  %ref.tmp = alloca %class.anon.65, align 1
  store ptr %__visitor, ptr %__visitor.addr, align 8
  store ptr %__variants, ptr %__variants.addr, align 8
  store i64 11, ptr %__max, align 8
  store i64 6, ptr %__n, align 8
  %0 = load ptr, ptr %__variants.addr, align 8
  %call = call noundef nonnull align 8 dereferenceable(49) ptr (ptr, ptr, ...) @_ZZSt10__do_visitINSt8__detail9__variant20__variant_idx_cookieEZNS1_17_Move_assign_baseILb0EJSt9monostatebN9grpc_core12experimental4Json11NumberValueENSt7__cxx1112basic_stringIcSt11char_traitsIcESaIcEEESt3mapISE_S7_St4lessISE_ESaISt4pairIKSE_S7_EEESt6vectorIS7_SaIS7_EEEEaSEOSQ_EUlOT_T0_E_JRSt7variantIJS4_bS8_SE_SM_SP_EEEEDcOSU_DpOT1_ENKUlSY_zE_clB5cxx11ESY_z(ptr noundef nonnull align 1 dereferenceable(1) %ref.tmp, ptr noundef nonnull align 8 dereferenceable(49) %0)
  store ptr %call, ptr %__v0, align 8
  %1 = load ptr, ptr %__v0, align 8
  %call1 = call noundef i64 @_ZNKSt7variantIJSt9monostatebN9grpc_core12experimental4Json11NumberValueENSt7__cxx1112basic_stringIcSt11char_traitsIcESaIcEEESt3mapISA_S3_St4lessISA_ESaISt4pairIKSA_S3_EEESt6vectorIS3_SaIS3_EEEE5indexEv(ptr noundef nonnull align 8 dereferenceable(49) %1) #3
  switch i64 %call1, label %sw.default [
    i64 0, label %sw.bb
    i64 1, label %sw.bb2
    i64 2, label %sw.bb3
    i64 3, label %sw.bb4
    i64 4, label %sw.bb5
    i64 5, label %sw.bb6
    i64 6, label %sw.bb7
    i64 7, label %sw.bb8
    i64 8, label %sw.bb9
    i64 9, label %sw.bb10
    i64 10, label %sw.bb11
    i64 -1, label %sw.bb12
  ]

sw.bb:                                            ; preds = %entry
  %2 = load ptr, ptr %__visitor.addr, align 8
  %3 = load ptr, ptr %__v0, align 8
  call void @_ZNSt8__detail9__variant17__gen_vtable_implINS0_12_Multi_arrayIPFNS0_20__variant_idx_cookieEOZNS0_17_Move_assign_baseILb0EJSt9monostatebN9grpc_core12experimental4Json11NumberValueENSt7__cxx1112basic_stringIcSt11char_traitsIcESaIcEEESt3mapISF_S8_St4lessISF_ESaISt4pairIKSF_S8_EEESt6vectorIS8_SaIS8_EEEEaSEOSR_EUlOT_T0_E_RSt7variantIJS5_bS9_SF_SN_SQ_EEEJEEESt16integer_sequenceImJLm0EEEE14__visit_invokeESX_S10_(ptr noundef nonnull align 8 dereferenceable(8) %2, ptr noundef nonnull align 8 dereferenceable(49) %3)
  br label %return

sw.bb2:                                           ; preds = %entry
  %4 = load ptr, ptr %__visitor.addr, align 8
  %5 = load ptr, ptr %__v0, align 8
  call void @_ZNSt8__detail9__variant17__gen_vtable_implINS0_12_Multi_arrayIPFNS0_20__variant_idx_cookieEOZNS0_17_Move_assign_baseILb0EJSt9monostatebN9grpc_core12experimental4Json11NumberValueENSt7__cxx1112basic_stringIcSt11char_traitsIcESaIcEEESt3mapISF_S8_St4lessISF_ESaISt4pairIKSF_S8_EEESt6vectorIS8_SaIS8_EEEEaSEOSR_EUlOT_T0_E_RSt7variantIJS5_bS9_SF_SN_SQ_EEEJEEESt16integer_sequenceImJLm1EEEE14__visit_invokeESX_S10_(ptr noundef nonnull align 8 dereferenceable(8) %4, ptr noundef nonnull align 8 dereferenceable(49) %5)
  br label %return

sw.bb3:                                           ; preds = %entry
  %6 = load ptr, ptr %__visitor.addr, align 8
  %7 = load ptr, ptr %__v0, align 8
  call void @_ZNSt8__detail9__variant17__gen_vtable_implINS0_12_Multi_arrayIPFNS0_20__variant_idx_cookieEOZNS0_17_Move_assign_baseILb0EJSt9monostatebN9grpc_core12experimental4Json11NumberValueENSt7__cxx1112basic_stringIcSt11char_traitsIcESaIcEEESt3mapISF_S8_St4lessISF_ESaISt4pairIKSF_S8_EEESt6vectorIS8_SaIS8_EEEEaSEOSR_EUlOT_T0_E_RSt7variantIJS5_bS9_SF_SN_SQ_EEEJEEESt16integer_sequenceImJLm2EEEE14__visit_invokeESX_S10_(ptr noundef nonnull align 8 dereferenceable(8) %6, ptr noundef nonnull align 8 dereferenceable(49) %7)
  br label %return

sw.bb4:                                           ; preds = %entry
  %8 = load ptr, ptr %__visitor.addr, align 8
  %9 = load ptr, ptr %__v0, align 8
  call void @_ZNSt8__detail9__variant17__gen_vtable_implINS0_12_Multi_arrayIPFNS0_20__variant_idx_cookieEOZNS0_17_Move_assign_baseILb0EJSt9monostatebN9grpc_core12experimental4Json11NumberValueENSt7__cxx1112basic_stringIcSt11char_traitsIcESaIcEEESt3mapISF_S8_St4lessISF_ESaISt4pairIKSF_S8_EEESt6vectorIS8_SaIS8_EEEEaSEOSR_EUlOT_T0_E_RSt7variantIJS5_bS9_SF_SN_SQ_EEEJEEESt16integer_sequenceImJLm3EEEE14__visit_invokeESX_S10_(ptr noundef nonnull align 8 dereferenceable(8) %8, ptr noundef nonnull align 8 dereferenceable(49) %9)
  br label %return

sw.bb5:                                           ; preds = %entry
  %10 = load ptr, ptr %__visitor.addr, align 8
  %11 = load ptr, ptr %__v0, align 8
  call void @_ZNSt8__detail9__variant17__gen_vtable_implINS0_12_Multi_arrayIPFNS0_20__variant_idx_cookieEOZNS0_17_Move_assign_baseILb0EJSt9monostatebN9grpc_core12experimental4Json11NumberValueENSt7__cxx1112basic_stringIcSt11char_traitsIcESaIcEEESt3mapISF_S8_St4lessISF_ESaISt4pairIKSF_S8_EEESt6vectorIS8_SaIS8_EEEEaSEOSR_EUlOT_T0_E_RSt7variantIJS5_bS9_SF_SN_SQ_EEEJEEESt16integer_sequenceImJLm4EEEE14__visit_invokeESX_S10_(ptr noundef nonnull align 8 dereferenceable(8) %10, ptr noundef nonnull align 8 dereferenceable(49) %11)
  br label %return

sw.bb6:                                           ; preds = %entry
  %12 = load ptr, ptr %__visitor.addr, align 8
  %13 = load ptr, ptr %__v0, align 8
  call void @_ZNSt8__detail9__variant17__gen_vtable_implINS0_12_Multi_arrayIPFNS0_20__variant_idx_cookieEOZNS0_17_Move_assign_baseILb0EJSt9monostatebN9grpc_core12experimental4Json11NumberValueENSt7__cxx1112basic_stringIcSt11char_traitsIcESaIcEEESt3mapISF_S8_St4lessISF_ESaISt4pairIKSF_S8_EEESt6vectorIS8_SaIS8_EEEEaSEOSR_EUlOT_T0_E_RSt7variantIJS5_bS9_SF_SN_SQ_EEEJEEESt16integer_sequenceImJLm5EEEE14__visit_invokeESX_S10_(ptr noundef nonnull align 8 dereferenceable(8) %12, ptr noundef nonnull align 8 dereferenceable(49) %13)
  br label %return

sw.bb7:                                           ; preds = %entry
  unreachable

sw.bb8:                                           ; preds = %entry
  unreachable

sw.bb9:                                           ; preds = %entry
  unreachable

sw.bb10:                                          ; preds = %entry
  unreachable

sw.bb11:                                          ; preds = %entry
  unreachable

sw.bb12:                                          ; preds = %entry
  %14 = load ptr, ptr %__visitor.addr, align 8
  %15 = load ptr, ptr %__v0, align 8
  call void @_ZNSt8__detail9__variant17__gen_vtable_implINS0_12_Multi_arrayIPFNS0_20__variant_idx_cookieEOZNS0_17_Move_assign_baseILb0EJSt9monostatebN9grpc_core12experimental4Json11NumberValueENSt7__cxx1112basic_stringIcSt11char_traitsIcESaIcEEESt3mapISF_S8_St4lessISF_ESaISt4pairIKSF_S8_EEESt6vectorIS8_SaIS8_EEEEaSEOSR_EUlOT_T0_E_RSt7variantIJS5_bS9_SF_SN_SQ_EEEJEEESt16integer_sequenceImJLm18446744073709551615EEEE14__visit_invokeESX_S10_(ptr noundef nonnull align 8 dereferenceable(8) %14, ptr noundef nonnull align 8 dereferenceable(49) %15)
  br label %return

sw.default:                                       ; preds = %entry
  unreachable

return:                                           ; preds = %sw.bb12, %sw.bb6, %sw.bb5, %sw.bb4, %sw.bb3, %sw.bb2, %sw.bb
  ret void
}

; Function Attrs: mustprogress nounwind uwtable
define linkonce_odr noundef nonnull align 8 dereferenceable(49) ptr @_ZZSt10__do_visitINSt8__detail9__variant20__variant_idx_cookieEZNS1_17_Move_assign_baseILb0EJSt9monostatebN9grpc_core12experimental4Json11NumberValueENSt7__cxx1112basic_stringIcSt11char_traitsIcESaIcEEESt3mapISE_S7_St4lessISE_ESaISt4pairIKSE_S7_EEESt6vectorIS7_SaIS7_EEEEaSEOSQ_EUlOT_T0_E_JRSt7variantIJS4_bS8_SE_SM_SP_EEEEDcOSU_DpOT1_ENKUlSY_zE_clB5cxx11ESY_z(ptr noundef nonnull align 1 dereferenceable(1) %this, ptr noundef nonnull align 8 dereferenceable(49) %__v, ...) #4 comdat align 2 {
entry:
  %this.addr = alloca ptr, align 8
  %__v.addr = alloca ptr, align 8
  store ptr %this, ptr %this.addr, align 8
  store ptr %__v, ptr %__v.addr, align 8
  %0 = load ptr, ptr %__v.addr, align 8
  ret ptr %0
}

; Function Attrs: mustprogress uwtable
define linkonce_odr void @_ZNSt8__detail9__variant17__gen_vtable_implINS0_12_Multi_arrayIPFNS0_20__variant_idx_cookieEOZNS0_17_Move_assign_baseILb0EJSt9monostatebN9grpc_core12experimental4Json11NumberValueENSt7__cxx1112basic_stringIcSt11char_traitsIcESaIcEEESt3mapISF_S8_St4lessISF_ESaISt4pairIKSF_S8_EEESt6vectorIS8_SaIS8_EEEEaSEOSR_EUlOT_T0_E_RSt7variantIJS5_bS9_SF_SN_SQ_EEEJEEESt16integer_sequenceImJLm0EEEE14__visit_invokeESX_S10_(ptr noundef nonnull align 8 dereferenceable(8) %__visitor, ptr noundef nonnull align 8 dereferenceable(49) %__vars) #5 comdat align 2 {
entry:
  %__visitor.addr = alloca ptr, align 8
  %__vars.addr = alloca ptr, align 8
  %ref.tmp = alloca %"struct.std::integral_constant", align 1
  store ptr %__visitor, ptr %__visitor.addr, align 8
  store ptr %__vars, ptr %__vars.addr, align 8
  %0 = load ptr, ptr %__visitor.addr, align 8
  %1 = load ptr, ptr %__vars.addr, align 8
  %call = call noundef nonnull align 1 dereferenceable(1) ptr @_ZNSt8__detail9__variant17__gen_vtable_implINS0_12_Multi_arrayIPFNS0_20__variant_idx_cookieEOZNS0_17_Move_assign_baseILb0EJSt9monostatebN9grpc_core12experimental4Json11NumberValueENSt7__cxx1112basic_stringIcSt11char_traitsIcESaIcEEESt3mapISF_S8_St4lessISF_ESaISt4pairIKSF_S8_EEESt6vectorIS8_SaIS8_EEEEaSEOSR_EUlOT_T0_E_RSt7variantIJS5_bS9_SF_SN_SQ_EEEJEEESt16integer_sequenceImJLm0EEEE28__element_by_index_or_cookieILm0ES10_EEDcOSV_(ptr noundef nonnull align 8 dereferenceable(49) %1) #3
  call void @_ZSt8__invokeIZNSt8__detail9__variant17_Move_assign_baseILb0EJSt9monostatebN9grpc_core12experimental4Json11NumberValueENSt7__cxx1112basic_stringIcSt11char_traitsIcESaIcEEESt3mapISD_S6_St4lessISD_ESaISt4pairIKSD_S6_EEESt6vectorIS6_SaIS6_EEEEaSEOSP_EUlOT_T0_E_JRS3_St17integral_constantImLm0EEEENSt15__invoke_resultISR_JDpT0_EE4typeESS_DpOSZ_(ptr noundef nonnull align 8 dereferenceable(8) %0, ptr noundef nonnull align 1 dereferenceable(1) %call, ptr noundef nonnull align 1 dereferenceable(1) %ref.tmp)
  ret void
}

; Function Attrs: mustprogress uwtable
define linkonce_odr void @_ZNSt8__detail9__variant17__gen_vtable_implINS0_12_Multi_arrayIPFNS0_20__variant_idx_cookieEOZNS0_17_Move_assign_baseILb0EJSt9monostatebN9grpc_core12experimental4Json11NumberValueENSt7__cxx1112basic_stringIcSt11char_traitsIcESaIcEEESt3mapISF_S8_St4lessISF_ESaISt4pairIKSF_S8_EEESt6vectorIS8_SaIS8_EEEEaSEOSR_EUlOT_T0_E_RSt7variantIJS5_bS9_SF_SN_SQ_EEEJEEESt16integer_sequenceImJLm1EEEE14__visit_invokeESX_S10_(ptr noundef nonnull align 8 dereferenceable(8) %__visitor, ptr noundef nonnull align 8 dereferenceable(49) %__vars) #5 comdat align 2 {
entry:
  %__visitor.addr = alloca ptr, align 8
  %__vars.addr = alloca ptr, align 8
  %ref.tmp = alloca %"struct.std::integral_constant.67", align 1
  store ptr %__visitor, ptr %__visitor.addr, align 8
  store ptr %__vars, ptr %__vars.addr, align 8
  %0 = load ptr, ptr %__visitor.addr, align 8
  %1 = load ptr, ptr %__vars.addr, align 8
  %call = call noundef nonnull align 1 dereferenceable(1) ptr @_ZNSt8__detail9__variant17__gen_vtable_implINS0_12_Multi_arrayIPFNS0_20__variant_idx_cookieEOZNS0_17_Move_assign_baseILb0EJSt9monostatebN9grpc_core12experimental4Json11NumberValueENSt7__cxx1112basic_stringIcSt11char_traitsIcESaIcEEESt3mapISF_S8_St4lessISF_ESaISt4pairIKSF_S8_EEESt6vectorIS8_SaIS8_EEEEaSEOSR_EUlOT_T0_E_RSt7variantIJS5_bS9_SF_SN_SQ_EEEJEEESt16integer_sequenceImJLm1EEEE28__element_by_index_or_cookieILm1ES10_EEDcOSV_(ptr noundef nonnull align 8 dereferenceable(49) %1) #3
  call void @_ZSt8__invokeIZNSt8__detail9__variant17_Move_assign_baseILb0EJSt9monostatebN9grpc_core12experimental4Json11NumberValueENSt7__cxx1112basic_stringIcSt11char_traitsIcESaIcEEESt3mapISD_S6_St4lessISD_ESaISt4pairIKSD_S6_EEESt6vectorIS6_SaIS6_EEEEaSEOSP_EUlOT_T0_E_JRbSt17integral_constantImLm1EEEENSt15__invoke_resultISR_JDpT0_EE4typeESS_DpOSZ_(ptr noundef nonnull align 8 dereferenceable(8) %0, ptr noundef nonnull align 1 dereferenceable(1) %call, ptr noundef nonnull align 1 dereferenceable(1) %ref.tmp)
  ret void
}

; Function Attrs: mustprogress uwtable
define linkonce_odr void @_ZNSt8__detail9__variant17__gen_vtable_implINS0_12_Multi_arrayIPFNS0_20__variant_idx_cookieEOZNS0_17_Move_assign_baseILb0EJSt9monostatebN9grpc_core12experimental4Json11NumberValueENSt7__cxx1112basic_stringIcSt11char_traitsIcESaIcEEESt3mapISF_S8_St4lessISF_ESaISt4pairIKSF_S8_EEESt6vectorIS8_SaIS8_EEEEaSEOSR_EUlOT_T0_E_RSt7variantIJS5_bS9_SF_SN_SQ_EEEJEEESt16integer_sequenceImJLm2EEEE14__visit_invokeESX_S10_(ptr noundef nonnull align 8 dereferenceable(8) %__visitor, ptr noundef nonnull align 8 dereferenceable(49) %__vars) #5 comdat align 2 {
entry:
  %__visitor.addr = alloca ptr, align 8
  %__vars.addr = alloca ptr, align 8
  %ref.tmp = alloca %"struct.std::integral_constant.68", align 1
  store ptr %__visitor, ptr %__visitor.addr, align 8
  store ptr %__vars, ptr %__vars.addr, align 8
  %0 = load ptr, ptr %__visitor.addr, align 8
  %1 = load ptr, ptr %__vars.addr, align 8
  %call = call noundef nonnull align 8 dereferenceable(32) ptr @_ZNSt8__detail9__variant17__gen_vtable_implINS0_12_Multi_arrayIPFNS0_20__variant_idx_cookieEOZNS0_17_Move_assign_baseILb0EJSt9monostatebN9grpc_core12experimental4Json11NumberValueENSt7__cxx1112basic_stringIcSt11char_traitsIcESaIcEEESt3mapISF_S8_St4lessISF_ESaISt4pairIKSF_S8_EEESt6vectorIS8_SaIS8_EEEEaSEOSR_EUlOT_T0_E_RSt7variantIJS5_bS9_SF_SN_SQ_EEEJEEESt16integer_sequenceImJLm2EEEE28__element_by_index_or_cookieILm2ES10_EEDcOSV_(ptr noundef nonnull align 8 dereferenceable(49) %1) #3
  call void @_ZSt8__invokeIZNSt8__detail9__variant17_Move_assign_baseILb0EJSt9monostatebN9grpc_core12experimental4Json11NumberValueENSt7__cxx1112basic_stringIcSt11char_traitsIcESaIcEEESt3mapISD_S6_St4lessISD_ESaISt4pairIKSD_S6_EEESt6vectorIS6_SaIS6_EEEEaSEOSP_EUlOT_T0_E_JRS7_St17integral_constantImLm2EEEENSt15__invoke_resultISR_JDpT0_EE4typeESS_DpOSZ_(ptr noundef nonnull align 8 dereferenceable(8) %0, ptr noundef nonnull align 8 dereferenceable(32) %call, ptr noundef nonnull align 1 dereferenceable(1) %ref.tmp)
  ret void
}

; Function Attrs: mustprogress uwtable
define linkonce_odr void @_ZNSt8__detail9__variant17__gen_vtable_implINS0_12_Multi_arrayIPFNS0_20__variant_idx_cookieEOZNS0_17_Move_assign_baseILb0EJSt9monostatebN9grpc_core12experimental4Json11NumberValueENSt7__cxx1112basic_stringIcSt11char_traitsIcESaIcEEESt3mapISF_S8_St4lessISF_ESaISt4pairIKSF_S8_EEESt6vectorIS8_SaIS8_EEEEaSEOSR_EUlOT_T0_E_RSt7variantIJS5_bS9_SF_SN_SQ_EEEJEEESt16integer_sequenceImJLm3EEEE14__visit_invokeESX_S10_(ptr noundef nonnull align 8 dereferenceable(8) %__visitor, ptr noundef nonnull align 8 dereferenceable(49) %__vars) #5 comdat align 2 {
entry:
  %__visitor.addr = alloca ptr, align 8
  %__vars.addr = alloca ptr, align 8
  %ref.tmp = alloca %"struct.std::integral_constant.69", align 1
  store ptr %__visitor, ptr %__visitor.addr, align 8
  store ptr %__vars, ptr %__vars.addr, align 8
  %0 = load ptr, ptr %__visitor.addr, align 8
  %1 = load ptr, ptr %__vars.addr, align 8
