target datalayout = "e-m:e-p270:32:32-p271:32:32-p272:64:64-i64:64-i128:128-f80:128-n8:16:32:64-S128"
target triple = "x86_64-unknown-linux-gnu"

%"class.std::ios_base::Init" = type { i8 }
%"struct.node::AssertionInfo" = type { ptr, ptr, ptr }
%"struct.std::nullopt_t" = type { i8 }
%"struct.std::piecewise_construct_t" = type { i8 }
%"class.v8::Local.0" = type { %"class.v8::LocalBase.1" }
%"class.v8::LocalBase.1" = type { %"class.v8::IndirectHandleBase" }
%"class.v8::IndirectHandleBase" = type { ptr }
%"class.v8::Local" = type { %"class.v8::LocalBase" }
%"class.v8::LocalBase" = type { %"class.v8::IndirectHandleBase" }
%"class.v8::LocalBase.35" = type { %"class.v8::IndirectHandleBase" }
%"class.v8::Local.34" = type { %"class.v8::LocalBase.35" }
%"class.v8::Maybe" = type { i8, i8 }
%"class.v8::FunctionCallbackInfo" = type <{ ptr, ptr, i32, [4 x i8] }>
%"struct.node::crypto::KeyPairGenConfig" = type { %"class.node::MemoryRetainer", %"struct.node::crypto::AsymmetricKeyEncodingConfig", %"struct.node::crypto::PrivateKeyEncodingConfig", %"class.node::crypto::ManagedEVPPKey", %"struct.node::crypto::NidKeyPairParams" }
%"class.node::MemoryRetainer" = type { ptr }
%"struct.node::crypto::AsymmetricKeyEncodingConfig" = type { i8, i32, %"class.v8::Maybe.2" }
%"class.v8::Maybe.2" = type { i8, i32 }
%"struct.node::crypto::PrivateKeyEncodingConfig" = type { %"struct.node::crypto::AsymmetricKeyEncodingConfig", ptr, %"class.node::NonCopyableMaybe" }
%"class.node::NonCopyableMaybe" = type { i8, %"class.node::crypto::ByteSource" }
%"class.node::crypto::ByteSource" = type { ptr, ptr, i64 }
%"class.node::crypto::ManagedEVPPKey" = type { %"class.node::MemoryRetainer", %"class.std::unique_ptr", %"class.std::shared_ptr" }
%"class.std::unique_ptr" = type { %"struct.std::__uniq_ptr_data" }
%"struct.std::__uniq_ptr_data" = type { %"class.std::__uniq_ptr_impl" }
%"class.std::__uniq_ptr_impl" = type { %"class.std::tuple" }
%"class.std::tuple" = type { %"struct.std::_Tuple_impl" }
%"struct.std::_Tuple_impl" = type { %"struct.std::_Head_base.4" }
%"struct.std::_Head_base.4" = type { ptr }
%"class.std::shared_ptr" = type { %"class.std::__shared_ptr" }
%"class.std::__shared_ptr" = type { ptr, %"class.std::__shared_count" }
%"class.std::__shared_count" = type { ptr }
%"struct.node::crypto::NidKeyPairParams" = type <{ %"class.node::MemoryRetainer", i32, [4 x i8] }>
%"class.std::unique_ptr.5" = type { %"struct.std::__uniq_ptr_data.6" }
%"struct.std::__uniq_ptr_data.6" = type { %"class.std::__uniq_ptr_impl.7" }
%"class.std::__uniq_ptr_impl.7" = type { %"class.std::tuple.8" }
%"class.std::tuple.8" = type { %"struct.std::_Tuple_impl.9" }
%"struct.std::_Tuple_impl.9" = type { %"struct.std::_Head_base.12" }
%"struct.std::_Head_base.12" = type { ptr }
%"struct.node::crypto::SecretKeyGenConfig" = type { %"class.node::MemoryRetainer", i64, %"class.node::crypto::ByteSource" }
%"class.v8::Local.18" = type { %"class.v8::LocalBase.19" }
%"class.v8::LocalBase.19" = type { %"class.v8::IndirectHandleBase" }
%"class.node::crypto::ByteSource::Builder" = type { ptr, i64 }
%"struct.node::crypto::CSPRNGResult" = type { i8 }
%"class.std::optional" = type { %"struct.std::_Optional_base" }
%"struct.std::_Optional_base" = type { %"struct.std::_Optional_payload" }
%"struct.std::_Optional_payload" = type { %"struct.std::_Optional_payload_base.base", [7 x i8] }
%"struct.std::_Optional_payload_base.base" = type <{ %"union.std::_Optional_payload_base<unsigned long>::_Storage", i8 }>
%"union.std::_Optional_payload_base<unsigned long>::_Storage" = type { i64 }
%"class.v8::Local.23" = type { %"class.v8::LocalBase.24" }
%"class.v8::LocalBase.24" = type { %"class.v8::IndirectHandleBase" }
%"class.std::shared_ptr.20" = type { %"class.std::__shared_ptr.21" }
%"class.std::__shared_ptr.21" = type { ptr, %"class.std::__shared_count" }
%"class.v8::MaybeLocal" = type { %"class.v8::Local.23" }
%"class.std::unique_ptr.25" = type { %"struct.std::__uniq_ptr_data.26" }
%"struct.std::__uniq_ptr_data.26" = type { %"class.std::__uniq_ptr_impl.27" }
%"class.std::__uniq_ptr_impl.27" = type { %"class.std::tuple.28" }
%"class.std::tuple.28" = type { %"struct.std::_Tuple_impl.29" }
%"struct.std::_Tuple_impl.29" = type { %"struct.std::_Head_base.32" }
%"struct.std::_Head_base.32" = type { ptr }
%"class.node::MemoryTracker" = type { ptr, ptr, %"class.std::stack", %"class.std::unordered_map" }
%"class.std::stack" = type { %"class.std::deque" }
%"class.std::deque" = type { %"class.std::_Deque_base" }
%"class.std::_Deque_base" = type { %"struct.std::_Deque_base<node::MemoryRetainerNode *, std::allocator<node::MemoryRetainerNode *>>::_Deque_impl" }
%"struct.std::_Deque_base<node::MemoryRetainerNode *, std::allocator<node::MemoryRetainerNode *>>::_Deque_impl" = type { %"struct.std::_Deque_base<node::MemoryRetainerNode *, std::allocator<node::MemoryRetainerNode *>>::_Deque_impl_data" }
%"struct.std::_Deque_base<node::MemoryRetainerNode *, std::allocator<node::MemoryRetainerNode *>>::_Deque_impl_data" = type { ptr, i64, %"struct.std::_Deque_iterator", %"struct.std::_Deque_iterator" }
%"struct.std::_Deque_iterator" = type { ptr, ptr, ptr, ptr }
%"class.std::unordered_map" = type { %"class.std::_Hashtable" }
%"class.std::_Hashtable" = type { ptr, i64, %"struct.std::__detail::_Hash_node_base", i64, %"struct.std::__detail::_Prime_rehash_policy", ptr }
%"struct.std::__detail::_Hash_node_base" = type { ptr }
%"struct.std::__detail::_Prime_rehash_policy" = type { float, i64 }
%"class.node::MemoryRetainerNode" = type <{ %"class.v8::EmbedderGraph::Node", ptr, ptr, i8, [7 x i8], ptr, i64, i8, [7 x i8] }>
%"class.v8::EmbedderGraph::Node" = type { ptr }
%"struct.std::_Deque_iterator.33" = type { ptr, ptr, ptr, ptr }
%"struct.std::_Optional_payload_base" = type <{ %"union.std::_Optional_payload_base<unsigned long>::_Storage", i8, [7 x i8] }>
%"class.std::_Sp_counted_base" = type { ptr, i32, i32 }
%"class.v8::HandleScope" = type { ptr, ptr, ptr }
%"class.v8::Local.314" = type { %"class.v8::LocalBase.315" }
%"class.v8::LocalBase.315" = type { %"class.v8::IndirectHandleBase" }
%"class.v8::Local.316" = type { %"class.v8::LocalBase.317" }
%"class.v8::LocalBase.317" = type { %"class.v8::IndirectHandleBase" }
%"class.v8::Local.318" = type { %"class.v8::LocalBase.319" }
%"class.v8::LocalBase.319" = type { %"class.v8::IndirectHandleBase" }
%"class.v8::Local.320" = type { %"class.v8::LocalBase.321" }
%"class.v8::LocalBase.321" = type { %"class.v8::IndirectHandleBase" }
%"class.std::basic_string_view" = type { i64, ptr }
%"class.node::Environment" = type { %"class.node::MemoryRetainer", %"class.std::unordered_multimap", %"class.std::__cxx11::list", ptr, ptr, %struct.uv_timer_s, %struct.uv_check_s, %struct.uv_idle_s, %struct.uv_prepare_s, %struct.uv_check_s, %struct.uv_async_s, i64, %"struct.std::atomic", %"struct.std::atomic", %"class.node::AsyncHooks", %"class.node::ImmediateInfo", %"class.node::AliasedBufferBase.72", %"class.node::TickInfo", %"class.node::permission::Permission", i64, %"class.std::shared_ptr.98", i8, i8, i8, i8, i8, i8, i64, %"class.std::vector.101", %"class.std::unordered_set", %"class.std::unique_ptr.125", %"class.std::unique_ptr.133", %"class.std::__cxx11::basic_string", %"class.std::__cxx11::basic_string", %"class.std::__cxx11::basic_string", i64, %"class.std::unique_ptr.145", %"class.std::__cxx11::basic_string", %"class.std::__cxx11::basic_string", i64, %"class.std::shared_ptr.153", %"class.std::shared_ptr.156", %"class.std::vector.159", %"class.std::vector.159", %"class.std::__cxx11::basic_string", i8, i32, i32, i8, i32, i32, i32, i32, %"class.node::AliasedBufferBase.72", %"class.node::AliasedBufferBase.62", i32, %"class.std::unique_ptr.164", %"class.node::AliasedBufferBase.72", i64, double, i64, %"class.std::unique_ptr.172", i8, i64, i64, %"class.std::unordered_set.180", %"class.std::unique_ptr.200", i8, %"class.std::__cxx11::list.208", %"class.node::ListHead", %"class.node::ListHead.213", %"class.std::__cxx11::list.215", i32, i32, %"class.node::EnabledDebugList", %"class.std::vector.220", %"class.std::__cxx11::list.225", %"class.node::MutexBase", %"class.std::__cxx11::list.230", %"class.node::CallbackQueue", %"class.node::MutexBase", %"class.node::CallbackQueue", %"class.node::CallbackQueue", i8, %"struct.std::atomic.245", %"class.node::CleanupQueue", i8, %"class.std::unordered_set.263", %"class.std::function", %"class.std::unique_ptr.278", %"class.node::builtins::BuiltinLoader", %"class.std::function.292", %"class.std::unordered_map.294" }
%"class.std::unordered_multimap" = type { %"class.std::_Hashtable.36" }
%"class.std::_Hashtable.36" = type { ptr, i64, %"struct.std::__detail::_Hash_node_base", i64, %"struct.std::__detail::_Prime_rehash_policy", ptr }
%"class.std::__cxx11::list" = type { %"class.std::__cxx11::_List_base" }
%"class.std::__cxx11::_List_base" = type { %"struct.std::__cxx11::_List_base<node::binding::DLib, std::allocator<node::binding::DLib>>::_List_impl" }
%"struct.std::__cxx11::_List_base<node::binding::DLib, std::allocator<node::binding::DLib>>::_List_impl" = type { %"struct.std::__detail::_List_node_header" }
%"struct.std::__detail::_List_node_header" = type { %"struct.std::__detail::_List_node_base", i64 }
%"struct.std::__detail::_List_node_base" = type { ptr, ptr }
%struct.uv_timer_s = type { ptr, ptr, i32, ptr, %struct.uv__queue, %union.anon, ptr, i32, ptr, [3 x ptr], i64, i64, i64 }
%struct.uv__queue = type { ptr, ptr }
%union.anon = type { [4 x ptr] }
%struct.uv_idle_s = type { ptr, ptr, i32, ptr, %struct.uv__queue, %union.anon.59, ptr, i32, ptr, %struct.uv__queue }
%union.anon.59 = type { [4 x ptr] }
%struct.uv_prepare_s = type { ptr, ptr, i32, ptr, %struct.uv__queue, %union.anon.60, ptr, i32, ptr, %struct.uv__queue }
%union.anon.60 = type { [4 x ptr] }
%struct.uv_check_s = type { ptr, ptr, i32, ptr, %struct.uv__queue, %union.anon.58, ptr, i32, ptr, %struct.uv__queue }
%union.anon.58 = type { [4 x ptr] }
%struct.uv_async_s = type { ptr, ptr, i32, ptr, %struct.uv__queue, %union.anon.61, ptr, i32, ptr, %struct.uv__queue, i32 }
%union.anon.61 = type { [4 x ptr] }
%"struct.std::atomic" = type { %"struct.std::__atomic_base" }
%"struct.std::__atomic_base" = type { i8 }
%"class.node::AsyncHooks" = type { %"class.node::MemoryRetainer", %"class.node::AliasedBufferBase", %"class.node::AliasedBufferBase.62", %"class.node::AliasedBufferBase", %"class.v8::Global.65", %"class.std::vector", ptr, %"struct.std::array" }
%"class.node::AliasedBufferBase" = type { %"class.node::MemoryRetainer", ptr, i64, i64, ptr, %"class.v8::Global", ptr }
%"class.v8::Global" = type { %"class.v8::PersistentBase" }
%"class.v8::PersistentBase" = type { %"class.v8::IndirectHandleBase" }
%"class.v8::Global.65" = type { %"class.v8::PersistentBase.66" }
%"class.v8::PersistentBase.66" = type { %"class.v8::IndirectHandleBase" }
%"class.std::vector" = type { %"struct.std::_Vector_base" }
%"struct.std::_Vector_base" = type { %"struct.std::_Vector_base<v8::Local<v8::Object>, std::allocator<v8::Local<v8::Object>>>::_Vector_impl" }
%"struct.std::_Vector_base<v8::Local<v8::Object>, std::allocator<v8::Local<v8::Object>>>::_Vector_impl" = type { %"struct.std::_Vector_base<v8::Local<v8::Object>, std::allocator<v8::Local<v8::Object>>>::_Vector_impl_data" }
%"struct.std::_Vector_base<v8::Local<v8::Object>, std::allocator<v8::Local<v8::Object>>>::_Vector_impl_data" = type { ptr, ptr, ptr }
%"struct.std::array" = type { [4 x %"class.v8::Global.70"] }
%"class.v8::Global.70" = type { %"class.v8::PersistentBase.71" }
%"class.v8::PersistentBase.71" = type { %"class.v8::IndirectHandleBase" }
%"class.node::ImmediateInfo" = type { %"class.node::MemoryRetainer", %"class.node::AliasedBufferBase.62" }
%"class.node::TickInfo" = type { %"class.node::MemoryRetainer", %"class.node::AliasedBufferBase.75" }
%"class.node::AliasedBufferBase.75" = type { %"class.node::MemoryRetainer", ptr, i64, i64, ptr, %"class.v8::Global.76", ptr }
%"class.v8::Global.76" = type { %"class.v8::PersistentBase.77" }
%"class.v8::PersistentBase.77" = type { %"class.v8::IndirectHandleBase" }
%"class.node::permission::Permission" = type <{ %"class.std::unordered_map.78", i8, [7 x i8] }>
%"class.std::unordered_map.78" = type { %"class.std::_Hashtable.79" }
%"class.std::_Hashtable.79" = type { ptr, i64, %"struct.std::__detail::_Hash_node_base", i64, %"struct.std::__detail::_Prime_rehash_policy", ptr }
%"class.std::shared_ptr.98" = type { %"class.std::__shared_ptr.99" }
%"class.std::__shared_ptr.99" = type { ptr, %"class.std::__shared_count" }
%"class.std::vector.101" = type { %"struct.std::_Vector_base.102" }
%"struct.std::_Vector_base.102" = type { %"struct.std::_Vector_base<double, std::allocator<double>>::_Vector_impl" }
%"struct.std::_Vector_base<double, std::allocator<double>>::_Vector_impl" = type { %"struct.std::_Vector_base<double, std::allocator<double>>::_Vector_impl_data" }
%"struct.std::_Vector_base<double, std::allocator<double>>::_Vector_impl_data" = type { ptr, ptr, ptr }
%"class.std::unordered_set" = type { %"class.std::_Hashtable.106" }
%"class.std::_Hashtable.106" = type { ptr, i64, %"struct.std::__detail::_Hash_node_base", i64, %"struct.std::__detail::_Prime_rehash_policy", ptr }
%"class.std::unique_ptr.125" = type { %"struct.std::__uniq_ptr_data.126" }
%"struct.std::__uniq_ptr_data.126" = type { %"class.std::__uniq_ptr_impl.127" }
%"class.std::__uniq_ptr_impl.127" = type { %"class.std::tuple.128" }
%"class.std::tuple.128" = type { %"struct.std::_Tuple_impl.129" }
%"struct.std::_Tuple_impl.129" = type { %"struct.std::_Head_base.132" }
%"struct.std::_Head_base.132" = type { ptr }
%"class.std::unique_ptr.133" = type { %"struct.std::__uniq_ptr_data.134" }
%"struct.std::__uniq_ptr_data.134" = type { %"class.std::__uniq_ptr_impl.135" }
%"class.std::__uniq_ptr_impl.135" = type { %"class.std::tuple.136" }
%"class.std::tuple.136" = type { %"struct.std::_Tuple_impl.137" }
%"struct.std::_Tuple_impl.137" = type { %"struct.std::_Head_base.140" }
%"struct.std::_Head_base.140" = type { ptr }
%"class.std::unique_ptr.145" = type { %"struct.std::__uniq_ptr_data.146" }
%"struct.std::__uniq_ptr_data.146" = type { %"class.std::__uniq_ptr_impl.147" }
%"class.std::__uniq_ptr_impl.147" = type { %"class.std::tuple.148" }
%"class.std::tuple.148" = type { %"struct.std::_Tuple_impl.149" }
%"struct.std::_Tuple_impl.149" = type { %"struct.std::_Head_base.152" }
%"struct.std::_Head_base.152" = type { ptr }
%"class.std::shared_ptr.153" = type { %"class.std::__shared_ptr.154" }
%"class.std::__shared_ptr.154" = type { ptr, %"class.std::__shared_count" }
%"class.std::shared_ptr.156" = type { %"class.std::__shared_ptr.157" }
%"class.std::__shared_ptr.157" = type { ptr, %"class.std::__shared_count" }
%"class.std::vector.159" = type { %"struct.std::_Vector_base.160" }
%"struct.std::_Vector_base.160" = type { %"struct.std::_Vector_base<std::__cxx11::basic_string<char>, std::allocator<std::__cxx11::basic_string<char>>>::_Vector_impl" }
%"struct.std::_Vector_base<std::__cxx11::basic_string<char>, std::allocator<std::__cxx11::basic_string<char>>>::_Vector_impl" = type { %"struct.std::_Vector_base<std::__cxx11::basic_string<char>, std::allocator<std::__cxx11::basic_string<char>>>::_Vector_impl_data" }
%"struct.std::_Vector_base<std::__cxx11::basic_string<char>, std::allocator<std::__cxx11::basic_string<char>>>::_Vector_impl_data" = type { ptr, ptr, ptr }
%"class.std::__cxx11::basic_string" = type { %"struct.std::__cxx11::basic_string<char>::_Alloc_hider", i64, %union.anon.144 }
%"struct.std::__cxx11::basic_string<char>::_Alloc_hider" = type { ptr }
%union.anon.144 = type { i64, [8 x i8] }
%"class.node::AliasedBufferBase.62" = type { %"class.node::MemoryRetainer", ptr, i64, i64, ptr, %"class.v8::Global.63", ptr }
%"class.v8::Global.63" = type { %"class.v8::PersistentBase.64" }
%"class.v8::PersistentBase.64" = type { %"class.v8::IndirectHandleBase" }
%"class.std::unique_ptr.164" = type { %"struct.std::__uniq_ptr_data.165" }
%"struct.std::__uniq_ptr_data.165" = type { %"class.std::__uniq_ptr_impl.166" }
%"class.std::__uniq_ptr_impl.166" = type { %"class.std::tuple.167" }
%"class.std::tuple.167" = type { %"struct.std::_Tuple_impl.168" }
%"struct.std::_Tuple_impl.168" = type { %"struct.std::_Head_base.171" }
%"struct.std::_Head_base.171" = type { ptr }
%"class.node::AliasedBufferBase.72" = type { %"class.node::MemoryRetainer", ptr, i64, i64, ptr, %"class.v8::Global.73", ptr }
%"class.v8::Global.73" = type { %"class.v8::PersistentBase.74" }
%"class.v8::PersistentBase.74" = type { %"class.v8::IndirectHandleBase" }
%"class.std::unique_ptr.172" = type { %"struct.std::__uniq_ptr_data.173" }
%"struct.std::__uniq_ptr_data.173" = type { %"class.std::__uniq_ptr_impl.174" }
%"class.std::__uniq_ptr_impl.174" = type { %"class.std::tuple.175" }
%"class.std::tuple.175" = type { %"struct.std::_Tuple_impl.176" }
%"struct.std::_Tuple_impl.176" = type { %"struct.std::_Head_base.179" }
%"struct.std::_Head_base.179" = type { ptr }
%"class.std::unordered_set.180" = type { %"class.std::_Hashtable.181" }
%"class.std::_Hashtable.181" = type { ptr, i64, %"struct.std::__detail::_Hash_node_base", i64, %"struct.std::__detail::_Prime_rehash_policy", ptr }
%"class.std::unique_ptr.200" = type { %"struct.std::__uniq_ptr_data.201" }
%"struct.std::__uniq_ptr_data.201" = type { %"class.std::__uniq_ptr_impl.202" }
%"class.std::__uniq_ptr_impl.202" = type { %"class.std::tuple.203" }
%"class.std::tuple.203" = type { %"struct.std::_Tuple_impl.204" }
%"struct.std::_Tuple_impl.204" = type { %"struct.std::_Head_base.207" }
%"struct.std::_Head_base.207" = type { ptr }
%"class.std::__cxx11::list.208" = type { %"class.std::__cxx11::_List_base.209" }
%"class.std::__cxx11::_List_base.209" = type { %"struct.std::__cxx11::_List_base<node::DeserializeRequest, std::allocator<node::DeserializeRequest>>::_List_impl" }
%"struct.std::__cxx11::_List_base<node::DeserializeRequest, std::allocator<node::DeserializeRequest>>::_List_impl" = type { %"struct.std::__detail::_List_node_header" }
%"class.node::ListHead" = type { %"class.node::ListNode" }
%"class.node::ListNode" = type { ptr, ptr }
%"class.node::ListHead.213" = type { %"class.node::ListNode.214" }
%"class.node::ListNode.214" = type { ptr, ptr }
%"class.std::__cxx11::list.215" = type { %"class.std::__cxx11::_List_base.216" }
%"class.std::__cxx11::_List_base.216" = type { %"struct.std::__cxx11::_List_base<node::Environment::HandleCleanup, std::allocator<node::Environment::HandleCleanup>>::_List_impl" }
%"struct.std::__cxx11::_List_base<node::Environment::HandleCleanup, std::allocator<node::Environment::HandleCleanup>>::_List_impl" = type { %"struct.std::__detail::_List_node_header" }
%"class.node::EnabledDebugList" = type { [75 x i8] }
%"class.std::vector.220" = type { %"struct.std::_Vector_base.221" }
%"struct.std::_Vector_base.221" = type { %"struct.std::_Vector_base<v8::Global<v8::Context>, std::allocator<v8::Global<v8::Context>>>::_Vector_impl" }
%"struct.std::_Vector_base<v8::Global<v8::Context>, std::allocator<v8::Global<v8::Context>>>::_Vector_impl" = type { %"struct.std::_Vector_base<v8::Global<v8::Context>, std::allocator<v8::Global<v8::Context>>>::_Vector_impl_data" }
%"struct.std::_Vector_base<v8::Global<v8::Context>, std::allocator<v8::Global<v8::Context>>>::_Vector_impl_data" = type { ptr, ptr, ptr }
%"class.std::__cxx11::list.225" = type { %"class.std::__cxx11::_List_base.226" }
%"class.std::__cxx11::_List_base.226" = type { %"struct.std::__cxx11::_List_base<node::node_module, std::allocator<node::node_module>>::_List_impl" }
%"struct.std::__cxx11::_List_base<node::node_module, std::allocator<node::node_module>>::_List_impl" = type { %"struct.std::__detail::_List_node_header" }
%"class.std::__cxx11::list.230" = type { %"class.std::__cxx11::_List_base.231" }
%"class.std::__cxx11::_List_base.231" = type { %"struct.std::__cxx11::_List_base<node::Environment::ExitCallback, std::allocator<node::Environment::ExitCallback>>::_List_impl" }
%"struct.std::__cxx11::_List_base<node::Environment::ExitCallback, std::allocator<node::Environment::ExitCallback>>::_List_impl" = type { %"struct.std::__detail::_List_node_header" }
%"class.node::MutexBase" = type { %union.pthread_mutex_t }
%union.pthread_mutex_t = type { %struct.__pthread_mutex_s }
%struct.__pthread_mutex_s = type { i32, i32, i32, i32, i32, i16, i16, %struct.__pthread_internal_list }
%struct.__pthread_internal_list = type { ptr, ptr }
%"class.node::CallbackQueue" = type { %"struct.std::atomic.235", %"class.std::unique_ptr.237", ptr }
%"struct.std::atomic.235" = type { %"struct.std::__atomic_base.236" }
%"struct.std::__atomic_base.236" = type { i64 }
%"class.std::unique_ptr.237" = type { %"struct.std::__uniq_ptr_data.238" }
%"struct.std::__uniq_ptr_data.238" = type { %"class.std::__uniq_ptr_impl.239" }
%"class.std::__uniq_ptr_impl.239" = type { %"class.std::tuple.240" }
%"class.std::tuple.240" = type { %"struct.std::_Tuple_impl.241" }
%"struct.std::_Tuple_impl.241" = type { %"struct.std::_Head_base.244" }
%"struct.std::_Head_base.244" = type { ptr }
%"struct.std::atomic.245" = type { %"struct.std::__atomic_base.246" }
%"struct.std::__atomic_base.246" = type { ptr }
%"class.node::CleanupQueue" = type { %"class.node::MemoryRetainer", %"class.std::unordered_set.247", i64 }
%"class.std::unordered_set.247" = type { %"class.std::_Hashtable.248" }
%"class.std::_Hashtable.248" = type { ptr, i64, %"struct.std::__detail::_Hash_node_base", i64, %"struct.std::__detail::_Prime_rehash_policy", ptr }
%"class.std::unordered_set.263" = type { %"class.std::_Hashtable.264" }
%"class.std::_Hashtable.264" = type { ptr, i64, %"struct.std::__detail::_Hash_node_base", i64, %"struct.std::__detail::_Prime_rehash_policy", ptr }
%"class.std::function" = type { %"class.std::_Function_base", ptr }
%"class.std::_Function_base" = type { %"union.std::_Any_data", ptr }
%"union.std::_Any_data" = type { %"union.std::_Nocopy_types" }
%"union.std::_Nocopy_types" = type { { i64, i64 } }
%"class.std::unique_ptr.278" = type { %"struct.std::__uniq_ptr_data.279" }
%"struct.std::__uniq_ptr_data.279" = type { %"class.std::__uniq_ptr_impl.280" }
%"class.std::__uniq_ptr_impl.280" = type { %"class.std::tuple.281" }
%"class.std::tuple.281" = type { %"struct.std::_Tuple_impl.282" }
%"struct.std::_Tuple_impl.282" = type { %"struct.std::_Head_base.285" }
%"struct.std::_Head_base.285" = type { ptr }
%"class.node::builtins::BuiltinLoader" = type { %"class.node::ThreadsafeCopyOnWrite", %"class.node::UnionBytes", %"class.std::shared_ptr.289" }
%"class.node::ThreadsafeCopyOnWrite" = type { %"class.node::CopyOnWrite" }
%"class.node::CopyOnWrite" = type { %"class.std::shared_ptr.286" }
%"class.std::shared_ptr.286" = type { %"class.std::__shared_ptr.287" }
%"class.std::__shared_ptr.287" = type { ptr, %"class.std::__shared_count" }
%"class.node::UnionBytes" = type { ptr, ptr }
%"class.std::shared_ptr.289" = type { %"class.std::__shared_ptr.290" }
%"class.std::__shared_ptr.290" = type { ptr, %"class.std::__shared_count" }
%"class.std::function.292" = type { %"class.std::_Function_base", ptr }
%"class.std::unordered_map.294" = type { %"class.std::_Hashtable.295" }
%"class.std::_Hashtable.295" = type { ptr, i64, %"struct.std::__detail::_Hash_node_base", i64, %"struct.std::__detail::_Prime_rehash_policy", ptr }
%"class.v8::Local.340" = type { %"class.v8::LocalBase.341" }
%"class.v8::LocalBase.341" = type { %"class.v8::IndirectHandleBase" }
%"class.v8::ReturnValue" = type { ptr }
%"class.node::crypto::CryptoJob" = type { %"class.node::AsyncWrap", %"class.node::ThreadPoolWork", i32, %"struct.node::crypto::CryptoErrorStore", %"struct.node::crypto::KeyPairGenConfig" }
%"class.node::AsyncWrap" = type { %"class.node::BaseObject", i32, i8, double, double }
%"class.node::BaseObject" = type { %"class.node::MemoryRetainer", %"class.v8::Global.336", ptr, ptr }
%"class.v8::Global.336" = type { %"class.v8::PersistentBase.337" }
%"class.v8::PersistentBase.337" = type { %"class.v8::IndirectHandleBase" }
%"class.node::ThreadPoolWork" = type { ptr, ptr, %struct.uv_work_s, ptr }
%struct.uv_work_s = type { ptr, i32, [6 x ptr], ptr, ptr, ptr, %struct.uv__work }
%struct.uv__work = type { ptr, ptr, ptr, %struct.uv__queue }
%"struct.node::crypto::CryptoErrorStore" = type { %"class.node::MemoryRetainer", %"class.std::vector.159" }
%"class.node::tracing::TraceID" = type { ptr, i64 }
%class.anon = type { i8 }
%class.anon.344 = type { i8 }
%"class.std::unique_ptr.346" = type { %"struct.std::__uniq_ptr_data.347" }
%"struct.std::__uniq_ptr_data.347" = type { %"class.std::__uniq_ptr_impl.348" }
%"class.std::__uniq_ptr_impl.348" = type { %"class.std::tuple.349" }
%"class.std::tuple.349" = type { %"struct.std::_Tuple_impl.350" }
%"struct.std::_Tuple_impl.350" = type { %"struct.std::_Head_base.353" }
%"struct.std::_Head_base.353" = type { ptr }
%"class.node::IsolateData" = type { %"class.node::MemoryRetainer", i64, %"class.std::unordered_map.356", %"class.v8::Eternal", %"class.v8::Eternal", %"class.v8::Eternal", %"class.v8::Eternal", %"class.v8::Eternal", %"class.v8::Eternal", %"class.v8::Eternal", %"class.v8::Eternal", %"class.v8::Eternal", %"class.v8::Eternal", %"class.v8::Eternal", %"class.v8::Eternal", %"class.v8::Eternal.376", %"class.v8::Eternal.376", %"class.v8::Eternal.376", %"class.v8::Eternal.376", %"class.v8::Eternal.376", %"class.v8::Eternal.376", %"class.v8::Eternal.376", %"class.v8::Eternal.376", %"class.v8::Eternal.376", %"class.v8::Eternal.376", %"class.v8::Eternal.376", %"class.v8::Eternal.376", %"class.v8::Eternal.376", %"class.v8::Eternal.376", %"class.v8::Eternal.376", %"class.v8::Eternal.377", %"class.v8::Eternal.377", %"class.v8::Eternal.377", %"class.v8::Eternal.377", %"class.v8::Eternal.377", %"class.v8::Eternal.377", %"class.v8::Eternal.377", %"class.v8::Eternal.377", %"class.v8::Eternal.377", %"class.v8::Eternal.377", %"class.v8::Eternal.377", %"class.v8::Eternal.377", %"class.v8::Eternal.377", %"class.v8::Eternal.377", %"class.v8::Eternal.377", %"class.v8::Eternal.377", %"class.v8::Eternal.377", %"class.v8::Eternal.377", %"class.v8::Eternal.377", %"class.v8::Eternal.377", %"class.v8::Eternal.377", %"class.v8::Eternal.377", %"class.v8::Eternal.377", %"class.v8::Eternal.377", %"class.v8::Eternal.377", %"class.v8::Eternal.377", %"class.v8::Eternal.377", %"class.v8::Eternal.377", %"class.v8::Eternal.377", %"class.v8::Eternal.377", %"class.v8::Eternal.377", %"class.v8::Eternal.377", %"class.v8::Eternal.377", %"class.v8::Eternal.377", %"class.v8::Eternal.377", %"class.v8::Eternal.377", %"class.v8::Eternal.377", %"class.v8::Eternal.377", %"class.v8::Eternal.377", %"class.v8::Eternal.377", %"class.v8::Eternal.377", %"class.v8::Eternal.377", %"class.v8::Eternal.377", %"class.v8::Eternal.377", %"class.v8::Eternal.377", %"class.v8::Eternal.377", %"class.v8::Eternal.377", %"class.v8::Eternal.377", %"class.v8::Eternal.377", %"class.v8::Eternal.377", %"class.v8::Eternal.377", %"class.v8::Eternal.377", %"class.v8::Eternal.377", %"class.v8::Eternal.377", %"class.v8::Eternal.377", %"class.v8::Eternal.377", %"class.v8::Eternal.377", %"class.v8::Eternal.377", %"class.v8::Eternal.377", %"class.v8::Eternal.377", %"class.v8::Eternal.377", %"class.v8::Eternal.377", %"class.v8::Eternal.377", %"class.v8::Eternal.377", %"class.v8::Eternal.377", %"class.v8::Eternal.377", %"class.v8::Eternal.377", %"class.v8::Eternal.377", %"class.v8::Eternal.377", %"class.v8::Eternal.377", %"class.v8::Eternal.377", %"class.v8::Eternal.377", %"class.v8::Eternal.377", %"class.v8::Eternal.377", %"class.v8::Eternal.377", %"class.v8::Eternal.377", %"class.v8::Eternal.377", %"class.v8::Eternal.377", %"class.v8::Eternal.377", %"class.v8::Eternal.377", %"class.v8::Eternal.377", %"class.v8::Eternal.377", %"class.v8::Eternal.377", %"class.v8::Eternal.377", %"class.v8::Eternal.377", %"class.v8::Eternal.377", %"class.v8::Eternal.377", %"class.v8::Eternal.377", %"class.v8::Eternal.377", %"class.v8::Eternal.377", %"class.v8::Eternal.377", %"class.v8::Eternal.377", %"class.v8::Eternal.377", %"class.v8::Eternal.377", %"class.v8::Eternal.377", %"class.v8::Eternal.377", %"class.v8::Eternal.377", %"class.v8::Eternal.377", %"class.v8::Eternal.377", %"class.v8::Eternal.377", %"class.v8::Eternal.377", %"class.v8::Eternal.377", %"class.v8::Eternal.377", %"class.v8::Eternal.377", %"class.v8::Eternal.377", %"class.v8::Eternal.377", %"class.v8::Eternal.377", %"class.v8::Eternal.377", %"class.v8::Eternal.377", %"class.v8::Eternal.377", %"class.v8::Eternal.377", %"class.v8::Eternal.377", %"class.v8::Eternal.377", %"class.v8::Eternal.377", %"class.v8::Eternal.377", %"class.v8::Eternal.377", %"class.v8::Eternal.377", %"class.v8::Eternal.377", %"class.v8::Eternal.377", %"class.v8::Eternal.377", %"class.v8::Eternal.377", %"class.v8::Eternal.377", %"class.v8::Eternal.377", %"class.v8::Eternal.377", %"class.v8::Eternal.377", %"class.v8::Eternal.377", %"class.v8::Eternal.377", %"class.v8::Eternal.377", %"class.v8::Eternal.377", %"class.v8::Eternal.377", %"class.v8::Eternal.377", %"class.v8::Eternal.377", %"class.v8::Eternal.377", %"class.v8::Eternal.377", %"class.v8::Eternal.377", %"class.v8::Eternal.377", %"class.v8::Eternal.377", %"class.v8::Eternal.377", %"class.v8::Eternal.377", %"class.v8::Eternal.377", %"class.v8::Eternal.377", %"class.v8::Eternal.377", %"class.v8::Eternal.377", %"class.v8::Eternal.377", %"class.v8::Eternal.377", %"class.v8::Eternal.377", %"class.v8::Eternal.377", %"class.v8::Eternal.377", %"class.v8::Eternal.377", %"class.v8::Eternal.377", %"class.v8::Eternal.377", %"class.v8::Eternal.377", %"class.v8::Eternal.377", %"class.v8::Eternal.377", %"class.v8::Eternal.377", %"class.v8::Eternal.377", %"class.v8::Eternal.377", %"class.v8::Eternal.377", %"class.v8::Eternal.377", %"class.v8::Eternal.377", %"class.v8::Eternal.377", %"class.v8::Eternal.377", %"class.v8::Eternal.377", %"class.v8::Eternal.377", %"class.v8::Eternal.377", %"class.v8::Eternal.377", %"class.v8::Eternal.377", %"class.v8::Eternal.377", %"class.v8::Eternal.377", %"class.v8::Eternal.377", %"class.v8::Eternal.377", %"class.v8::Eternal.377", %"class.v8::Eternal.377", %"class.v8::Eternal.377", %"class.v8::Eternal.377", %"class.v8::Eternal.377", %"class.v8::Eternal.377", %"class.v8::Eternal.377", %"class.v8::Eternal.377", %"class.v8::Eternal.377", %"class.v8::Eternal.377", %"class.v8::Eternal.377", %"class.v8::Eternal.377", %"class.v8::Eternal.377", %"class.v8::Eternal.377", %"class.v8::Eternal.377", %"class.v8::Eternal.377", %"class.v8::Eternal.377", %"class.v8::Eternal.377", %"class.v8::Eternal.377", %"class.v8::Eternal.377", %"class.v8::Eternal.377", %"class.v8::Eternal.377", %"class.v8::Eternal.377", %"class.v8::Eternal.377", %"class.v8::Eternal.377", %"class.v8::Eternal.377", %"class.v8::Eternal.377", %"class.v8::Eternal.377", %"class.v8::Eternal.377", %"class.v8::Eternal.377", %"class.v8::Eternal.377", %"class.v8::Eternal.377", %"class.v8::Eternal.377", %"class.v8::Eternal.377", %"class.v8::Eternal.377", %"class.v8::Eternal.377", %"class.v8::Eternal.377", %"class.v8::Eternal.377", %"class.v8::Eternal.377", %"class.v8::Eternal.377", %"class.v8::Eternal.377", %"class.v8::Eternal.377", %"class.v8::Eternal.377", %"class.v8::Eternal.377", %"class.v8::Eternal.377", %"class.v8::Eternal.377", %"class.v8::Eternal.377", %"class.v8::Eternal.377", %"class.v8::Eternal.377", %"class.v8::Eternal.377", %"class.v8::Eternal.377", %"class.v8::Eternal.377", %"class.v8::Eternal.377", %"class.v8::Eternal.377", %"class.v8::Eternal.377", %"class.v8::Eternal.377", %"class.v8::Eternal.377", %"class.v8::Eternal.377", %"class.v8::Eternal.377", %"class.v8::Eternal.377", %"class.v8::Eternal.377", %"class.v8::Eternal.377", %"class.v8::Eternal.377", %"class.v8::Eternal.377", %"class.v8::Eternal.377", %"class.v8::Eternal.377", %"class.v8::Eternal.377", %"class.v8::Eternal.377", %"class.v8::Eternal.377", %"class.v8::Eternal.377", %"class.v8::Eternal.377", %"class.v8::Eternal.377", %"class.v8::Eternal.377", %"class.v8::Eternal.377", %"class.v8::Eternal.377", %"class.v8::Eternal.377", %"class.v8::Eternal.377", %"class.v8::Eternal.377", %"class.v8::Eternal.377", %"class.v8::Eternal.377", %"class.v8::Eternal.377", %"class.v8::Eternal.377", %"class.v8::Eternal.377", %"class.v8::Eternal.377", %"class.v8::Eternal.377", %"class.v8::Eternal.377", %"class.v8::Eternal.377", %"class.v8::Eternal.377", %"class.v8::Eternal.377", %"class.v8::Eternal.377", %"class.v8::Eternal.377", %"class.v8::Eternal.377", %"class.v8::Eternal.377", %"class.v8::Eternal.377", %"class.v8::Eternal.377", %"class.v8::Eternal.377", %"class.v8::Eternal.377", %"class.v8::Eternal.377", %"class.v8::Eternal.377", %"class.v8::Eternal.377", %"class.v8::Eternal.377", %"class.v8::Eternal.377", %"class.v8::Eternal.377", %"class.v8::Eternal.377", %"class.v8::Eternal.377", %"class.v8::Eternal.377", %"class.v8::Eternal.377", %"class.v8::Eternal.377", %"class.v8::Eternal.377", %"class.v8::Eternal.377", %"class.v8::Eternal.377", %"class.v8::Eternal.377", %"class.v8::Eternal.377", %"class.v8::Eternal.377", %"class.v8::Eternal.378", %"class.v8::Eternal.378", %"class.v8::Eternal.379", %"class.v8::Eternal.378", %"class.v8::Eternal.378", %"class.v8::Eternal.378", %"class.v8::Eternal.379", %"class.v8::Eternal.379", %"class.v8::Eternal.378", %"class.v8::Eternal.379", %"class.v8::Eternal.378", %"class.v8::Eternal.379", %"class.v8::Eternal.379", %"class.v8::Eternal.379", %"class.v8::Eternal.378", %"class.v8::Eternal.379", %"class.v8::Eternal.379", %"class.v8::Eternal.378", %"class.v8::Eternal.378", %"class.v8::Eternal.379", %"class.v8::Eternal.379", %"class.v8::Eternal.379", %"class.v8::Eternal.379", %"class.v8::Eternal.378", %"class.v8::Eternal.378", %"class.v8::Eternal.378", %"class.v8::Eternal.378", %"class.v8::Eternal.378", %"class.v8::Eternal.378", %"class.v8::Eternal.379", %"class.v8::Eternal.378", %"class.v8::Eternal.378", %"class.v8::Eternal.378", %"class.v8::Eternal.379", %"class.v8::Eternal.378", %"class.v8::Eternal.378", %"class.v8::Eternal.379", %"class.v8::Eternal.378", %"class.v8::Eternal.378", %"class.v8::Eternal.379", %"class.v8::Eternal.378", %"class.v8::Eternal.378", %"class.v8::Eternal.379", %"class.v8::Eternal.379", %"class.v8::Eternal.378", %"class.v8::Eternal", %"class.v8::Eternal", %"class.v8::Eternal", %"class.v8::Eternal", %"class.v8::Eternal", %"class.v8::Eternal", %"class.v8::Eternal", %"class.v8::Eternal", %"class.v8::Eternal", %"class.v8::Eternal", %"class.v8::Eternal", %"class.v8::Eternal", %"class.v8::Eternal", %"class.v8::Eternal", %"class.v8::Eternal", %"class.v8::Eternal", %"class.v8::Eternal", %"class.v8::Eternal", %"class.v8::Eternal", %"class.v8::Eternal", %"class.v8::Eternal", %"class.v8::Eternal", %"class.v8::Eternal", %"class.v8::Eternal", %"class.v8::Eternal", %"class.v8::Eternal", %"class.v8::Eternal", %"class.v8::Eternal", %"class.v8::Eternal", %"class.v8::Eternal", %"class.v8::Eternal", %"class.v8::Eternal", %"class.v8::Eternal", %"class.v8::Eternal", %"class.v8::Eternal", %"class.v8::Eternal", %"class.v8::Eternal", %"class.v8::Eternal", %"class.v8::Eternal", %"class.v8::Eternal", %"class.v8::Eternal", %"class.v8::Eternal", %"class.v8::Eternal", %"class.v8::Eternal", %"class.v8::Eternal", %"class.v8::Eternal", %"class.v8::Eternal", %"class.v8::Eternal", %"class.v8::Eternal", %"class.v8::Eternal", %"class.v8::Eternal", %"class.v8::Eternal", %"class.v8::Eternal", %"class.v8::Eternal", %"class.v8::Eternal", %"class.v8::Eternal", %"class.v8::Eternal", %"class.v8::Eternal", %"class.v8::Eternal", %"class.v8::Eternal", %"class.v8::Eternal.379", %"class.v8::Eternal.379", %"class.v8::Eternal.379", %"class.v8::Eternal.379", %"class.v8::Eternal.379", %"class.v8::Eternal.379", %"class.v8::Eternal.379", %"class.v8::Eternal.379", %"class.v8::Eternal.379", %"class.v8::Eternal.379", %"class.v8::Eternal.379", %"class.v8::Eternal.379", %"class.v8::Eternal.379", %"class.v8::Eternal.379", %"class.v8::Eternal.379", %"class.v8::Eternal.379", %"class.v8::Eternal.379", %"struct.std::array.380", ptr, ptr, ptr, ptr, ptr, %"class.std::optional.381", %"class.std::unique_ptr.401", %"class.std::shared_ptr.409", ptr, ptr }
%"class.std::unordered_map.356" = type { %"class.std::_Hashtable.357" }
%"class.std::_Hashtable.357" = type { ptr, i64, %"struct.std::__detail::_Hash_node_base", i64, %"struct.std::__detail::_Prime_rehash_policy", ptr }
%"class.v8::Eternal.376" = type { %"class.v8::IndirectHandleBase" }
%"class.v8::Eternal.377" = type { %"class.v8::IndirectHandleBase" }
%"class.v8::Eternal.378" = type { %"class.v8::IndirectHandleBase" }
%"class.v8::Eternal" = type { %"class.v8::IndirectHandleBase" }
%"class.v8::Eternal.379" = type { %"class.v8::IndirectHandleBase" }
%"struct.std::array.380" = type { [64 x %"class.v8::Eternal.377"] }
%"class.std::optional.381" = type { %"struct.std::_Optional_base.382" }
%"struct.std::_Optional_base.382" = type { %"struct.std::_Optional_payload.384" }
%"struct.std::_Optional_payload.384" = type { %"struct.std::_Optional_payload.base.398", [7 x i8] }
%"struct.std::_Optional_payload.base.398" = type { %"struct.std::_Optional_payload_base.base.397" }
%"struct.std::_Optional_payload_base.base.397" = type <{ %"union.std::_Optional_payload_base<node::SnapshotConfig>::_Storage", i8 }>
%"union.std::_Optional_payload_base<node::SnapshotConfig>::_Storage" = type { %"struct.node::SnapshotConfig" }
%"struct.node::SnapshotConfig" = type { i32, [4 x i8], %"class.std::optional.387" }
%"class.std::optional.387" = type { %"struct.std::_Optional_base.388" }
%"struct.std::_Optional_base.388" = type { %"struct.std::_Optional_payload.390" }
%"struct.std::_Optional_payload.390" = type { %"struct.std::_Optional_payload.base.394", [7 x i8] }
%"struct.std::_Optional_payload.base.394" = type { %"struct.std::_Optional_payload_base.base.393" }
%"struct.std::_Optional_payload_base.base.393" = type <{ %"union.std::_Optional_payload_base<std::__cxx11::basic_string<char>>::_Storage", i8 }>
%"union.std::_Optional_payload_base<std::__cxx11::basic_string<char>>::_Storage" = type { %"class.std::__cxx11::basic_string" }
%"class.std::unique_ptr.401" = type { %"struct.std::__uniq_ptr_data.402" }
%"struct.std::__uniq_ptr_data.402" = type { %"class.std::__uniq_ptr_impl.403" }
%"class.std::__uniq_ptr_impl.403" = type { %"class.std::tuple.404" }
%"class.std::tuple.404" = type { %"struct.std::_Tuple_impl.405" }
%"struct.std::_Tuple_impl.405" = type { %"struct.std::_Head_base.408" }
%"struct.std::_Head_base.408" = type { ptr }
%"class.std::shared_ptr.409" = type { %"class.std::__shared_ptr.410" }
%"class.std::__shared_ptr.410" = type { ptr, %"class.std::__shared_count" }
%"class.node::ContainerOfHelper" = type { ptr }
%"class.node::NonCopyableMaybe.433" = type { i8, %"struct.node::crypto::PrivateKeyEncodingConfig" }
%"class.node::crypto::KeyGenJob" = type <{ %"class.node::crypto::CryptoJob", i32, [4 x i8] }>
%"class.node::MutexBase<node::LibuvMutexTraits>::ScopedLock" = type { ptr }
%"class.std::allocator.413" = type { i8 }
%"struct.std::_Sp_alloc_shared_tag" = type { ptr }
%"class.std::allocator.414" = type { i8 }
%"struct.std::__allocated_ptr" = type { ptr, ptr }
%"class.std::_Sp_counted_ptr_inplace" = type { %"class.std::_Sp_counted_base", %"class.std::_Sp_counted_ptr_inplace<node::MutexBase<node::LibuvMutexTraits>, std::allocator<void>, __gnu_cxx::_S_atomic>::_Impl" }
%"class.std::_Sp_counted_ptr_inplace<node::MutexBase<node::LibuvMutexTraits>, std::allocator<void>, __gnu_cxx::_S_atomic>::_Impl" = type { %"struct.__gnu_cxx::__aligned_buffer" }
%"struct.__gnu_cxx::__aligned_buffer" = type { %"union.std::aligned_storage<40, 8>::type" }
%"union.std::aligned_storage<40, 8>::type" = type { [40 x i8] }
%"struct.std::__detail::_Node_iterator" = type { %"struct.std::__detail::_Node_iterator_base" }
%"struct.std::__detail::_Node_iterator_base" = type { ptr }
%"struct.std::pair" = type { ptr, ptr }
%"struct.std::__detail::_Select1st" = type { i8 }
%"struct.std::__detail::_Hash_node_value_base" = type { %"struct.__gnu_cxx::__aligned_buffer.417" }
%"struct.__gnu_cxx::__aligned_buffer.417" = type { %"union.std::aligned_storage<16, 8>::type" }
%"union.std::aligned_storage<16, 8>::type" = type { [16 x i8] }
%"struct.std::__detail::_Mod_range_hashing" = type { i8 }
%"struct.std::_Hashtable<const node::MemoryRetainer *, std::pair<const node::MemoryRetainer *const, node::MemoryRetainerNode *>, std::allocator<std::pair<const node::MemoryRetainer *const, node::MemoryRetainerNode *>>, std::__detail::_Select1st, std::equal_to<const node::MemoryRetainer *>, std::hash<const node::MemoryRetainer *>, std::__detail::_Mod_range_hashing, std::__detail::_Default_ranged_hash, std::__detail::_Prime_rehash_policy, std::__detail::_Hashtable_traits<false, false, true>>::_Scoped_node" = type { ptr, ptr }
%"class.std::tuple.420" = type { %"struct.std::_Tuple_impl.421" }
%"struct.std::_Tuple_impl.421" = type { %"struct.std::_Head_base.422" }
%"struct.std::_Head_base.422" = type { ptr }
%"class.std::tuple.423" = type { i8 }
%"struct.std::pair.425" = type { i8, i64 }
%"class.std::allocator.427" = type { i8 }
%"class.std::allocator.430" = type { i8 }
%"class.std::unique_ptr.434" = type { %"struct.std::__uniq_ptr_data.435" }
%"struct.std::__uniq_ptr_data.435" = type { %"class.std::__uniq_ptr_impl.436" }
%"class.std::__uniq_ptr_impl.436" = type { %"class.std::tuple.437" }
%"class.std::tuple.437" = type { %"struct.std::_Tuple_impl.438" }
%"struct.std::_Tuple_impl.438" = type { %"struct.std::_Head_base.441" }
%"struct.std::_Head_base.441" = type { ptr }
%"class.std::unique_ptr.442" = type { %"struct.std::__uniq_ptr_data.443" }
%"struct.std::__uniq_ptr_data.443" = type { %"class.std::__uniq_ptr_impl.444" }
%"class.std::__uniq_ptr_impl.444" = type { %"class.std::tuple.445" }
%"class.std::tuple.445" = type { %"struct.std::_Tuple_impl.446" }
%"struct.std::_Tuple_impl.446" = type { %"struct.std::_Head_base.449" }
%"struct.std::_Head_base.449" = type { ptr }
%"class.v8::Context::Scope" = type { %"class.v8::Local.314" }
%"class.node::errors::TryCatchScope" = type <{ %"class.v8::TryCatch.base", [7 x i8], ptr, i32, [4 x i8] }>
%"class.v8::TryCatch.base" = type <{ ptr, ptr, ptr, ptr, i64, i8 }>
%"class.v8::Local.451" = type { %"class.v8::LocalBase.452" }
%"class.v8::LocalBase.452" = type { %"class.v8::IndirectHandleBase" }
%"class.v8::MaybeLocal.450" = type { %"class.v8::Local" }
%"struct.node::BaseObject::PointerData" = type { i32, i32, i8, i8, ptr }
%"class.v8::Local.455" = type { %"class.v8::LocalBase.456" }
%"class.v8::LocalBase.456" = type { %"class.v8::IndirectHandleBase" }
%"class.node::Realm" = type { %"class.node::MemoryRetainer", %"class.std::set", %"class.std::set.326", %"class.std::set.326", %"class.std::vector.159", ptr, ptr, %"class.v8::Global.334", %"class.v8::Global.70", %"class.v8::Global.70", %"class.v8::Global.70", %"class.v8::Global.336", %"class.v8::Global.70", %"class.v8::Global.70", %"class.v8::Global.70", %"class.v8::Global.336", %"class.v8::Global.70", %"class.v8::Global.70", %"class.v8::Global.70", %"class.v8::Global.70", %"class.v8::Global.70", %"class.v8::Global.70", %"class.v8::Global.70", %"class.v8::Global.70", %"class.v8::Global.70", %"class.v8::Global.70", %"class.v8::Global.70", %"class.v8::Global.70", %"class.v8::Global.70", %"class.v8::Global.70", %"class.v8::Global.70", %"class.v8::Global.70", %"class.v8::Global.70", %"class.v8::Global.70", %"class.v8::Global.70", %"class.v8::Global.70", %"class.v8::Global.70", %"class.v8::Global.70", %"class.v8::Global.70", %"class.v8::Global.70", %"class.v8::Global.70", %"class.v8::Global.70", %"class.v8::Global.70", %"class.v8::Global.70", %"class.v8::Global.336", %"class.v8::Global.70", %"class.v8::Global.70", %"class.v8::Global.70", %"class.v8::Global.336", %"class.v8::Global.336", %"class.v8::Global.336", %"class.v8::Global.336", %"class.v8::Global.336", %"class.v8::Global.336", %"class.v8::Global.70", %"class.v8::Global.70", %"class.v8::Global.70", %"class.v8::Global.70", %"class.v8::Global.70", %"class.v8::Global.70", %"class.v8::Global.70", %"class.v8::Global.70", %"class.v8::Global.70", %"class.v8::Global.70", %"class.v8::Global.70", %"class.v8::Global.70", %"class.v8::Global.70", %"class.v8::Global.70", i32, i8, i64, i64, %"struct.std::array.338", %"class.node::CleanupQueue" }
%"class.std::set" = type { %"class.std::_Rb_tree" }
%"class.std::_Rb_tree" = type { %"struct.std::_Rb_tree<node::node_module *, node::node_module *, std::_Identity<node::node_module *>, std::less<node::node_module *>>::_Rb_tree_impl" }
%"struct.std::_Rb_tree<node::node_module *, node::node_module *, std::_Identity<node::node_module *>, std::less<node::node_module *>>::_Rb_tree_impl" = type { %"struct.std::_Rb_tree_key_compare", %"struct.std::_Rb_tree_header" }
%"struct.std::_Rb_tree_key_compare" = type { %"struct.std::less" }
%"struct.std::less" = type { i8 }
%"struct.std::_Rb_tree_header" = type { %"struct.std::_Rb_tree_node_base", i64 }
%"struct.std::_Rb_tree_node_base" = type { i32, ptr, ptr, ptr }
%"class.std::set.326" = type { %"class.std::_Rb_tree.327" }
%"class.std::_Rb_tree.327" = type { %"struct.std::_Rb_tree<std::__cxx11::basic_string<char>, std::__cxx11::basic_string<char>, std::_Identity<std::__cxx11::basic_string<char>>, std::less<std::__cxx11::basic_string<char>>>::_Rb_tree_impl" }
%"struct.std::_Rb_tree<std::__cxx11::basic_string<char>, std::__cxx11::basic_string<char>, std::_Identity<std::__cxx11::basic_string<char>>, std::less<std::__cxx11::basic_string<char>>>::_Rb_tree_impl" = type { %"struct.std::_Rb_tree_key_compare.331", %"struct.std::_Rb_tree_header" }
%"struct.std::_Rb_tree_key_compare.331" = type { %"struct.std::less.332" }
%"struct.std::less.332" = type { i8 }
%"class.v8::Global.334" = type { %"class.v8::PersistentBase.335" }
%"class.v8::PersistentBase.335" = type { %"class.v8::IndirectHandleBase" }
%"struct.std::array.338" = type { [12 x %"class.node::BaseObjectPtrImpl"] }
%"class.node::BaseObjectPtrImpl" = type { %union.anon.339 }
%union.anon.339 = type { ptr }
%"class.v8::Local.457" = type { %"class.v8::LocalBase.458" }
%"class.v8::LocalBase.458" = type { %"class.v8::IndirectHandleBase" }
%"class.__gnu_cxx::__normal_iterator" = type { ptr }
%"class.std::allocator.141" = type { i8 }
%struct._Guard = type { ptr }
%"class.node::crypto::CryptoJob.459" = type { %"class.node::AsyncWrap", %"class.node::ThreadPoolWork", i32, %"struct.node::crypto::CryptoErrorStore", %"struct.node::crypto::SecretKeyGenConfig" }
%"class.node::crypto::KeyGenJob.460" = type <{ %"class.node::crypto::CryptoJob.459", i32, [4 x i8] }>
%"class.std::unique_ptr.462" = type { %"struct.std::__uniq_ptr_data.463" }
%"struct.std::__uniq_ptr_data.463" = type { %"class.std::__uniq_ptr_impl.464" }
%"class.std::__uniq_ptr_impl.464" = type { %"class.std::tuple.465" }
%"class.std::tuple.465" = type { %"struct.std::_Tuple_impl.466" }
%"struct.std::_Tuple_impl.466" = type { %"struct.std::_Head_base.469" }
%"struct.std::_Head_base.469" = type { ptr }
%"class.node::ExternalReferenceRegistry" = type { i8, %"class.std::vector.472" }
%"class.std::vector.472" = type { %"struct.std::_Vector_base.473" }
%"struct.std::_Vector_base.473" = type { %"struct.std::_Vector_base<long, std::allocator<long>>::_Vector_impl" }
%"struct.std::_Vector_base<long, std::allocator<long>>::_Vector_impl" = type { %"struct.std::_Vector_base<long, std::allocator<long>>::_Vector_impl_data" }
%"struct.std::_Vector_base<long, std::allocator<long>>::_Vector_impl_data" = type { ptr, ptr, ptr }
%"class.__gnu_cxx::__normal_iterator.477" = type { ptr }

$_ZN2v84JustIbTnPNSt9enable_ifIXntsr3stdE21is_lvalue_reference_vIT_EEvE4typeELPv0EEENS_5MaybeIS2_EEOS2_ = comdat any

$_ZNSt10unique_ptrI15evp_pkey_ctx_stN4node15FunctionDeleterIS0_XadL_Z17EVP_PKEY_CTX_freeEEEEEC2IS3_vEEPS0_ = comdat any

$_ZNKSt10unique_ptrI15evp_pkey_ctx_stN4node15FunctionDeleterIS0_XadL_Z17EVP_PKEY_CTX_freeEEEEEcvbEv = comdat any

$_ZNKSt10unique_ptrI15evp_pkey_ctx_stN4node15FunctionDeleterIS0_XadL_Z17EVP_PKEY_CTX_freeEEEEE3getEv = comdat any

$_ZNSt10unique_ptrI15evp_pkey_ctx_stN4node15FunctionDeleterIS0_XadL_Z17EVP_PKEY_CTX_freeEEEEEC2IS3_vEEv = comdat any

$_ZNSt10unique_ptrI15evp_pkey_ctx_stN4node15FunctionDeleterIS0_XadL_Z17EVP_PKEY_CTX_freeEEEEEC2EOS4_ = comdat any

$_ZNSt10unique_ptrI15evp_pkey_ctx_stN4node15FunctionDeleterIS0_XadL_Z17EVP_PKEY_CTX_freeEEEEED2Ev = comdat any

$_ZNK4node6crypto10ByteSourcecvbEv = comdat any

$_ZN4node13MemoryTracker18TrackFieldWithSizeEPKcmS2_ = comdat any

$_ZN4node6crypto10ByteSource7BuilderC2Em = comdat any

$_ZN4node6crypto10ByteSource7Builder4dataIhEEPT_v = comdat any

$_ZNK4node6crypto12CSPRNGResult6is_errEv = comdat any

$_ZNO4node6crypto10ByteSource7Builder7releaseESt8optionalImE = comdat any

$_ZNSt8optionalImEC2ESt9nullopt_t = comdat any

$_ZN4node6crypto10ByteSource7BuilderD2Ev = comdat any

$_ZNSt10shared_ptrIN4node6crypto13KeyObjectDataEEC2ERKS3_ = comdat any

$_ZNSt10shared_ptrIN4node6crypto13KeyObjectDataEED2Ev = comdat any

$_ZN4node6crypto9KeyGenJobINS0_16KeyPairGenTraitsINS0_19NidKeyPairGenTraitsEEEE10InitializeEPNS_11EnvironmentEN2v85LocalINS8_6ObjectEEE = comdat any

$_ZN4node6crypto9KeyGenJobINS0_18SecretKeyGenTraitsEE10InitializeEPNS_11EnvironmentEN2v85LocalINS6_6ObjectEEE = comdat any

$_ZN4node6crypto9KeyGenJobINS0_16KeyPairGenTraitsINS0_19NidKeyPairGenTraitsEEEE26RegisterExternalReferencesEPNS_25ExternalReferenceRegistryE = comdat any

$_ZN4node6crypto9KeyGenJobINS0_18SecretKeyGenTraitsEE26RegisterExternalReferencesEPNS_25ExternalReferenceRegistryE = comdat any

$_ZN4node6crypto18SecretKeyGenConfigD2Ev = comdat any

$_ZN4node6crypto18SecretKeyGenConfigD0Ev = comdat any

$_ZNK4node6crypto18SecretKeyGenConfig14MemoryInfoNameEv = comdat any

$_ZNK4node6crypto18SecretKeyGenConfig8SelfSizeEv = comdat any

$_ZNK4node14MemoryRetainer13WrappedObjectEv = comdat any

$_ZNK4node14MemoryRetainer10IsRootNodeEv = comdat any

$_ZNK4node14MemoryRetainer15GetDetachednessEv = comdat any

$_ZNSt15__uniq_ptr_dataI15evp_pkey_ctx_stN4node15FunctionDeleterIS0_XadL_Z17EVP_PKEY_CTX_freeEEEELb1ELb1EEC2Ev = comdat any

$_ZNSt15__uniq_ptr_implI15evp_pkey_ctx_stN4node15FunctionDeleterIS0_XadL_Z17EVP_PKEY_CTX_freeEEEEEC2Ev = comdat any

$_ZNSt5tupleIJP15evp_pkey_ctx_stN4node15FunctionDeleterIS0_XadL_Z17EVP_PKEY_CTX_freeEEEEEEC2ILb1ETnNSt9enable_ifIXclsr17_TupleConstraintsIXT_ES1_S4_EE37__is_implicitly_default_constructibleEEbE4typeELb1EEEv = comdat any

$_ZNSt11_Tuple_implILm0EJP15evp_pkey_ctx_stN4node15FunctionDeleterIS0_XadL_Z17EVP_PKEY_CTX_freeEEEEEEC2Ev = comdat any

$_ZNSt11_Tuple_implILm1EJN4node15FunctionDeleterI15evp_pkey_ctx_stXadL_Z17EVP_PKEY_CTX_freeEEEEEEC2Ev = comdat any

$_ZNSt10_Head_baseILm0EP15evp_pkey_ctx_stLb0EEC2Ev = comdat any

$_ZNSt10_Head_baseILm1EN4node15FunctionDeleterI15evp_pkey_ctx_stXadL_Z17EVP_PKEY_CTX_freeEEEELb1EEC2Ev = comdat any

$_ZNSt15__uniq_ptr_dataI15evp_pkey_ctx_stN4node15FunctionDeleterIS0_XadL_Z17EVP_PKEY_CTX_freeEEEELb1ELb1EEC2EOS4_ = comdat any

$_ZNSt15__uniq_ptr_implI15evp_pkey_ctx_stN4node15FunctionDeleterIS0_XadL_Z17EVP_PKEY_CTX_freeEEEEEC2EOS4_ = comdat any

$_ZNSt5tupleIJP15evp_pkey_ctx_stN4node15FunctionDeleterIS0_XadL_Z17EVP_PKEY_CTX_freeEEEEEEC2EOS5_ = comdat any

$_ZNSt15__uniq_ptr_implI15evp_pkey_ctx_stN4node15FunctionDeleterIS0_XadL_Z17EVP_PKEY_CTX_freeEEEEE6_M_ptrEv = comdat any

$_ZNSt11_Tuple_implILm0EJP15evp_pkey_ctx_stN4node15FunctionDeleterIS0_XadL_Z17EVP_PKEY_CTX_freeEEEEEEC2EOS5_ = comdat any

$_ZNSt11_Tuple_implILm1EJN4node15FunctionDeleterI15evp_pkey_ctx_stXadL_Z17EVP_PKEY_CTX_freeEEEEEEC2EOS4_ = comdat any

$_ZSt3getILm0EJP15evp_pkey_ctx_stN4node15FunctionDeleterIS0_XadL_Z17EVP_PKEY_CTX_freeEEEEEERNSt13tuple_elementIXT_ESt5tupleIJDpT0_EEE4typeERS9_ = comdat any

$_ZSt12__get_helperILm0EP15evp_pkey_ctx_stJN4node15FunctionDeleterIS0_XadL_Z17EVP_PKEY_CTX_freeEEEEEERT0_RSt11_Tuple_implIXT_EJS5_DpT1_EE = comdat any

$_ZNSt11_Tuple_implILm0EJP15evp_pkey_ctx_stN4node15FunctionDeleterIS0_XadL_Z17EVP_PKEY_CTX_freeEEEEEE7_M_headERS5_ = comdat any

$_ZNSt10_Head_baseILm0EP15evp_pkey_ctx_stLb0EE7_M_headERS2_ = comdat any

$_ZN4node13MemoryTracker7AddNodeEPKcmS2_ = comdat any

$_ZN4node11GetNodeNameEPKcS1_ = comdat any

$_ZN4node18MemoryRetainerNodeC2EPNS_13MemoryTrackerEPKcmb = comdat any

$_ZNSt10unique_ptrIN2v813EmbedderGraph4NodeESt14default_deleteIS2_EEC2IS4_vEEPS2_ = comdat any

$_ZNSt10unique_ptrIN2v813EmbedderGraph4NodeESt14default_deleteIS2_EED2Ev = comdat any

$_ZNK4node13MemoryTracker11CurrentNodeEv = comdat any

$_ZN2v813EmbedderGraph4NodeC2Ev = comdat any

$_ZN4node18MemoryRetainerNodeD2Ev = comdat any

$_ZN4node18MemoryRetainerNodeD0Ev = comdat any

$_ZN4node18MemoryRetainerNode4NameEv = comdat any

$_ZN4node18MemoryRetainerNode11SizeInBytesEv = comdat any

$_ZN2v813EmbedderGraph4Node11WrapperNodeEv = comdat any

$_ZN4node18MemoryRetainerNode10IsRootNodeEv = comdat any

$_ZN2v813EmbedderGraph4Node14IsEmbedderNodeEv = comdat any

$_ZN4node18MemoryRetainerNode10NamePrefixEv = comdat any

$_ZN2v813EmbedderGraph4Node15GetNativeObjectEv = comdat any

$_ZN4node18MemoryRetainerNode15GetDetachednessEv = comdat any

$_ZN2v813EmbedderGraph4Node10GetAddressEv = comdat any

$_ZN2v813EmbedderGraph4NodeD2Ev = comdat any

$_ZN2v813EmbedderGraph4NodeD0Ev = comdat any

$_ZN2v813EmbedderGraph4Node10IsRootNodeEv = comdat any

$_ZN2v813EmbedderGraph4Node10NamePrefixEv = comdat any

$_ZN2v813EmbedderGraph4Node15GetDetachednessEv = comdat any

$_ZNSt15__uniq_ptr_dataIN2v813EmbedderGraph4NodeESt14default_deleteIS2_ELb1ELb1EECI2St15__uniq_ptr_implIS2_S4_EEPS2_ = comdat any

$_ZNSt15__uniq_ptr_implIN2v813EmbedderGraph4NodeESt14default_deleteIS2_EEC2EPS2_ = comdat any

$_ZNSt5tupleIJPN2v813EmbedderGraph4NodeESt14default_deleteIS2_EEEC2ILb1ETnNSt9enable_ifIXclsr17_TupleConstraintsIXT_ES3_S5_EE37__is_implicitly_default_constructibleEEbE4typeELb1EEEv = comdat any

$_ZNSt15__uniq_ptr_implIN2v813EmbedderGraph4NodeESt14default_deleteIS2_EE6_M_ptrEv = comdat any

$_ZNSt11_Tuple_implILm0EJPN2v813EmbedderGraph4NodeESt14default_deleteIS2_EEEC2Ev = comdat any

$_ZNSt11_Tuple_implILm1EJSt14default_deleteIN2v813EmbedderGraph4NodeEEEEC2Ev = comdat any

$_ZNSt10_Head_baseILm0EPN2v813EmbedderGraph4NodeELb0EEC2Ev = comdat any

$_ZNSt10_Head_baseILm1ESt14default_deleteIN2v813EmbedderGraph4NodeEELb1EEC2Ev = comdat any

$_ZSt3getILm0EJPN2v813EmbedderGraph4NodeESt14default_deleteIS2_EEERNSt13tuple_elementIXT_ESt5tupleIJDpT0_EEE4typeERSA_ = comdat any

$_ZSt12__get_helperILm0EPN2v813EmbedderGraph4NodeEJSt14default_deleteIS2_EEERT0_RSt11_Tuple_implIXT_EJS6_DpT1_EE = comdat any

$_ZNSt11_Tuple_implILm0EJPN2v813EmbedderGraph4NodeESt14default_deleteIS2_EEE7_M_headERS6_ = comdat any

$_ZNSt10_Head_baseILm0EPN2v813EmbedderGraph4NodeELb0EE7_M_headERS4_ = comdat any

$_ZNSt10unique_ptrIN2v813EmbedderGraph4NodeESt14default_deleteIS2_EE11get_deleterEv = comdat any

$_ZNKSt14default_deleteIN2v813EmbedderGraph4NodeEEclEPS2_ = comdat any

$_ZNSt15__uniq_ptr_implIN2v813EmbedderGraph4NodeESt14default_deleteIS2_EE10_M_deleterEv = comdat any

$_ZSt3getILm1EJPN2v813EmbedderGraph4NodeESt14default_deleteIS2_EEERNSt13tuple_elementIXT_ESt5tupleIJDpT0_EEE4typeERSA_ = comdat any

$_ZSt12__get_helperILm1ESt14default_deleteIN2v813EmbedderGraph4NodeEEJEERT0_RSt11_Tuple_implIXT_EJS5_DpT1_EE = comdat any

$_ZNSt11_Tuple_implILm1EJSt14default_deleteIN2v813EmbedderGraph4NodeEEEE7_M_headERS5_ = comdat any

$_ZNSt10_Head_baseILm1ESt14default_deleteIN2v813EmbedderGraph4NodeEELb1EE7_M_headERS5_ = comdat any

$_ZNKSt5stackIPN4node18MemoryRetainerNodeESt5dequeIS2_SaIS2_EEE5emptyEv = comdat any

$_ZNKSt5stackIPN4node18MemoryRetainerNodeESt5dequeIS2_SaIS2_EEE3topEv = comdat any

$_ZNKSt5dequeIPN4node18MemoryRetainerNodeESaIS2_EE5emptyEv = comdat any

$_ZSteqRKSt15_Deque_iteratorIPN4node18MemoryRetainerNodeERS2_PS2_ES7_ = comdat any

$_ZNKSt5dequeIPN4node18MemoryRetainerNodeESaIS2_EE4backEv = comdat any

$_ZNKSt5dequeIPN4node18MemoryRetainerNodeESaIS2_EE3endEv = comdat any

$_ZNSt15_Deque_iteratorIPN4node18MemoryRetainerNodeERKS2_PS3_EmmEv = comdat any

$_ZNKSt15_Deque_iteratorIPN4node18MemoryRetainerNodeERKS2_PS3_EdeEv = comdat any

$_ZNSt15_Deque_iteratorIPN4node18MemoryRetainerNodeERKS2_PS3_EC2IS_IS2_RS2_PS2_EvEERKT_ = comdat any

$_ZNSt15_Deque_iteratorIPN4node18MemoryRetainerNodeERKS2_PS3_E11_M_set_nodeEPPS2_ = comdat any

$_ZNSt15_Deque_iteratorIPN4node18MemoryRetainerNodeERKS2_PS3_E14_S_buffer_sizeEv = comdat any

$_ZSt16__deque_buf_sizem = comdat any

$_ZN4node6crypto13MallocOpenSSLIcEEPT_m = comdat any

$_ZN4node25MultiplyWithOverflowCheckImEET_S1_S1_ = comdat any

$_ZNKSt8optionalImEcvbEv = comdat any

$_ZNRSt8optionalImEdeEv = comdat any

$_ZNKSt19_Optional_base_implImSt14_Optional_baseImLb1ELb1EEE13_M_is_engagedEv = comdat any

$_ZNSt19_Optional_base_implImSt14_Optional_baseImLb1ELb1EEE6_M_getEv = comdat any

$_ZNSt22_Optional_payload_baseImE6_M_getEv = comdat any

$_ZNSt14_Optional_baseImLb1ELb1EEC2Ev = comdat any

$_ZNSt17_Optional_payloadImLb1ELb1ELb1EEC2Ev = comdat any

$_ZNSt22_Optional_payload_baseImEC2Ev = comdat any

$_ZNSt22_Optional_payload_baseImE8_StorageImLb1EEC2Ev = comdat any

$_ZNSt12__shared_ptrIN4node6crypto13KeyObjectDataELN9__gnu_cxx12_Lock_policyE2EEC2ERKS5_ = comdat any

$_ZNSt14__shared_countILN9__gnu_cxx12_Lock_policyE2EEC2ERKS2_ = comdat any

$_ZNSt16_Sp_counted_baseILN9__gnu_cxx12_Lock_policyE2EE15_M_add_ref_copyEv = comdat any

$_ZNSt12__shared_ptrIN4node6crypto13KeyObjectDataELN9__gnu_cxx12_Lock_policyE2EED2Ev = comdat any

$_ZNSt14__shared_countILN9__gnu_cxx12_Lock_policyE2EED2Ev = comdat any

$_ZNSt16_Sp_counted_baseILN9__gnu_cxx12_Lock_policyE2EE10_M_releaseEv = comdat any

$_ZNSt16_Sp_counted_baseILN9__gnu_cxx12_Lock_policyE2EE24_M_release_last_use_coldEv = comdat any

$_ZNSt16_Sp_counted_baseILN9__gnu_cxx12_Lock_policyE2EE19_M_release_last_useEv = comdat any

$_ZN2v85MaybeIbEC2EOb = comdat any

$_ZNSt15__uniq_ptr_dataI15evp_pkey_ctx_stN4node15FunctionDeleterIS0_XadL_Z17EVP_PKEY_CTX_freeEEEELb1ELb1EECI2St15__uniq_ptr_implIS0_S3_EEPS0_ = comdat any

$_ZNSt15__uniq_ptr_implI15evp_pkey_ctx_stN4node15FunctionDeleterIS0_XadL_Z17EVP_PKEY_CTX_freeEEEEEC2EPS0_ = comdat any

$_ZNSt10unique_ptrI15evp_pkey_ctx_stN4node15FunctionDeleterIS0_XadL_Z17EVP_PKEY_CTX_freeEEEEE11get_deleterEv = comdat any

$_ZNK4node15FunctionDeleterI15evp_pkey_ctx_stXadL_Z17EVP_PKEY_CTX_freeEEEclEPS1_ = comdat any

$_ZNSt15__uniq_ptr_implI15evp_pkey_ctx_stN4node15FunctionDeleterIS0_XadL_Z17EVP_PKEY_CTX_freeEEEEE10_M_deleterEv = comdat any

$_ZSt3getILm1EJP15evp_pkey_ctx_stN4node15FunctionDeleterIS0_XadL_Z17EVP_PKEY_CTX_freeEEEEEERNSt13tuple_elementIXT_ESt5tupleIJDpT0_EEE4typeERS9_ = comdat any

$_ZSt12__get_helperILm1EN4node15FunctionDeleterI15evp_pkey_ctx_stXadL_Z17EVP_PKEY_CTX_freeEEEEJEERT0_RSt11_Tuple_implIXT_EJS4_DpT1_EE = comdat any

$_ZNSt11_Tuple_implILm1EJN4node15FunctionDeleterI15evp_pkey_ctx_stXadL_Z17EVP_PKEY_CTX_freeEEEEEE7_M_headERS4_ = comdat any

$_ZNSt10_Head_baseILm1EN4node15FunctionDeleterI15evp_pkey_ctx_stXadL_Z17EVP_PKEY_CTX_freeEEEELb1EE7_M_headERS4_ = comdat any

$_ZNKSt15__uniq_ptr_implI15evp_pkey_ctx_stN4node15FunctionDeleterIS0_XadL_Z17EVP_PKEY_CTX_freeEEEEE6_M_ptrEv = comdat any

$_ZSt3getILm0EJP15evp_pkey_ctx_stN4node15FunctionDeleterIS0_XadL_Z17EVP_PKEY_CTX_freeEEEEEERKNSt13tuple_elementIXT_ESt5tupleIJDpT0_EEE4typeERKS9_ = comdat any

$_ZSt12__get_helperILm0EP15evp_pkey_ctx_stJN4node15FunctionDeleterIS0_XadL_Z17EVP_PKEY_CTX_freeEEEEEERKT0_RKSt11_Tuple_implIXT_EJS5_DpT1_EE = comdat any

$_ZNSt11_Tuple_implILm0EJP15evp_pkey_ctx_stN4node15FunctionDeleterIS0_XadL_Z17EVP_PKEY_CTX_freeEEEEEE7_M_headERKS5_ = comdat any

$_ZNSt10_Head_baseILm0EP15evp_pkey_ctx_stLb0EE7_M_headERKS2_ = comdat any

$_ZN4node6crypto9CryptoJobINS0_16KeyPairGenTraitsINS0_19NidKeyPairGenTraitsEEEE10InitializeEPFvRKN2v820FunctionCallbackInfoINS6_5ValueEEEEPNS_11EnvironmentENS6_5LocalINS6_6ObjectEEE = comdat any

$_ZN4node6crypto9KeyGenJobINS0_16KeyPairGenTraitsINS0_19NidKeyPairGenTraitsEEEE3NewERKN2v820FunctionCallbackInfoINS6_5ValueEEE = comdat any

$_ZNK4node11Environment7isolateEv = comdat any

$_ZNK4node11Environment7contextEv = comdat any

$_ZN4node9AsyncWrap22GetConstructorTemplateEPNS_11EnvironmentE = comdat any

$_ZNSt17basic_string_viewIcSt11char_traitsIcEEC2EPKc = comdat any

$_ZN4node6crypto9CryptoJobINS0_16KeyPairGenTraitsINS0_19NidKeyPairGenTraitsEEEE3RunERKN2v820FunctionCallbackInfoINS6_5ValueEEE = comdat any

$_ZNK4node11Environment15principal_realmEv = comdat any

$_ZNKSt10unique_ptrIN4node14PrincipalRealmESt14default_deleteIS1_EE3getEv = comdat any

$_ZNKSt15__uniq_ptr_implIN4node14PrincipalRealmESt14default_deleteIS1_EE6_M_ptrEv = comdat any

$_ZSt3getILm0EJPN4node14PrincipalRealmESt14default_deleteIS1_EEERKNSt13tuple_elementIXT_ESt5tupleIJDpT0_EEE4typeERKS9_ = comdat any

$_ZSt12__get_helperILm0EPN4node14PrincipalRealmEJSt14default_deleteIS1_EEERKT0_RKSt11_Tuple_implIXT_EJS5_DpT1_EE = comdat any

$_ZNSt11_Tuple_implILm0EJPN4node14PrincipalRealmESt14default_deleteIS1_EEE7_M_headERKS5_ = comdat any

$_ZNSt10_Head_baseILm0EPN4node14PrincipalRealmELb0EE7_M_headERKS3_ = comdat any

$_ZNK4node11Environment12isolate_dataEv = comdat any

$_ZNSt11char_traitsIcE6lengthEPKc = comdat any

$_ZN4node11Environment10GetCurrentERKN2v820FunctionCallbackInfoINS1_5ValueEEE = comdat any

$_ZN4node10BaseObject12FromJSObjectEN2v85LocalINS1_5ValueEEE = comdat any

$_ZNK4node6crypto9CryptoJobINS0_16KeyPairGenTraitsINS0_19NidKeyPairGenTraitsEEEE4modeEv = comdat any

$_ZN4node14ThreadPoolWork12ScheduleWorkEv = comdat any

$_ZN4node9arraysizeIN2v85LocalINS1_5ValueEEELm2EEEmRAT0__KT_ = comdat any

$_ZN4node11Environment10GetCurrentEN2v85LocalINS1_7ContextEEE = comdat any

$_ZN4node18ContextEmbedderTag13IsNodeContextEN2v85LocalINS1_7ContextEEE = comdat any

$_ZN4node11Environment29IncreaseWaitingRequestCounterEv = comdat any

$_ZN4node7tracing16TraceEventHelper23GetCategoryGroupEnabledEPKc = comdat any

$_ZN4node7tracing7TraceIDC2EPKvPj = comdat any

$_ZNK4node7tracing7TraceID5scopeEv = comdat any

$_ZNK4node7tracing7TraceID6raw_idEv = comdat any

$_ZNK4node11Environment10event_loopEv = comdat any

$_ZZN4node14ThreadPoolWork12ScheduleWorkEvENKUlP9uv_work_sE_cvPFvS2_EEv = comdat any

$_ZZN4node14ThreadPoolWork12ScheduleWorkEvENKUlP9uv_work_siE_cvPFvS2_iEEv = comdat any

$_ZStanSt12memory_orderSt23__memory_order_modifier = comdat any

$_ZNSt10unique_ptrIN2v824ConvertableToTraceFormatESt14default_deleteIS1_EEC2IS3_vEEv = comdat any

$_ZNSt10unique_ptrIN2v824ConvertableToTraceFormatESt14default_deleteIS1_EE5resetEPS1_ = comdat any

$_ZNSt10unique_ptrIN2v824ConvertableToTraceFormatESt14default_deleteIS1_EED2Ev = comdat any

$_ZNSt15__uniq_ptr_dataIN2v824ConvertableToTraceFormatESt14default_deleteIS1_ELb1ELb1EEC2Ev = comdat any

$_ZNSt15__uniq_ptr_implIN2v824ConvertableToTraceFormatESt14default_deleteIS1_EEC2Ev = comdat any

$_ZNSt5tupleIJPN2v824ConvertableToTraceFormatESt14default_deleteIS1_EEEC2ILb1ETnNSt9enable_ifIXclsr17_TupleConstraintsIXT_ES2_S4_EE37__is_implicitly_default_constructibleEEbE4typeELb1EEEv = comdat any

$_ZNSt11_Tuple_implILm0EJPN2v824ConvertableToTraceFormatESt14default_deleteIS1_EEEC2Ev = comdat any

$_ZNSt11_Tuple_implILm1EJSt14default_deleteIN2v824ConvertableToTraceFormatEEEEC2Ev = comdat any

$_ZNSt10_Head_baseILm0EPN2v824ConvertableToTraceFormatELb0EEC2Ev = comdat any

$_ZNSt10_Head_baseILm1ESt14default_deleteIN2v824ConvertableToTraceFormatEELb1EEC2Ev = comdat any

$_ZNSt15__uniq_ptr_implIN2v824ConvertableToTraceFormatESt14default_deleteIS1_EE5resetEPS1_ = comdat any

$_ZNSt15__uniq_ptr_implIN2v824ConvertableToTraceFormatESt14default_deleteIS1_EE6_M_ptrEv = comdat any

$_ZNSt15__uniq_ptr_implIN2v824ConvertableToTraceFormatESt14default_deleteIS1_EE10_M_deleterEv = comdat any

$_ZNKSt14default_deleteIN2v824ConvertableToTraceFormatEEclEPS1_ = comdat any

$_ZSt3getILm0EJPN2v824ConvertableToTraceFormatESt14default_deleteIS1_EEERNSt13tuple_elementIXT_ESt5tupleIJDpT0_EEE4typeERS9_ = comdat any

$_ZSt12__get_helperILm0EPN2v824ConvertableToTraceFormatEJSt14default_deleteIS1_EEERT0_RSt11_Tuple_implIXT_EJS5_DpT1_EE = comdat any

$_ZNSt11_Tuple_implILm0EJPN2v824ConvertableToTraceFormatESt14default_deleteIS1_EEE7_M_headERS5_ = comdat any

$_ZNSt10_Head_baseILm0EPN2v824ConvertableToTraceFormatELb0EE7_M_headERS3_ = comdat any

$_ZSt3getILm1EJPN2v824ConvertableToTraceFormatESt14default_deleteIS1_EEERNSt13tuple_elementIXT_ESt5tupleIJDpT0_EEE4typeERS9_ = comdat any

$_ZSt12__get_helperILm1ESt14default_deleteIN2v824ConvertableToTraceFormatEEJEERT0_RSt11_Tuple_implIXT_EJS4_DpT1_EE = comdat any

$_ZNSt11_Tuple_implILm1EJSt14default_deleteIN2v824ConvertableToTraceFormatEEEE7_M_headERS4_ = comdat any

$_ZNSt10_Head_baseILm1ESt14default_deleteIN2v824ConvertableToTraceFormatEELb1EE7_M_headERS4_ = comdat any

$_ZNSt10unique_ptrIN2v824ConvertableToTraceFormatESt14default_deleteIS1_EE11get_deleterEv = comdat any

$_ZNK4node11IsolateData10event_loopEv = comdat any

$_ZZN4node14ThreadPoolWork12ScheduleWorkEvENUlP9uv_work_sE_8__invokeES2_ = comdat any

$_ZZN4node14ThreadPoolWork12ScheduleWorkEvENKUlP9uv_work_sE_clES2_ = comdat any

$_ZN4node11ContainerOfI9uv_work_sNS_14ThreadPoolWorkEEENS_17ContainerOfHelperIT_T0_EEMS5_S4_PS4_ = comdat any

$_ZNK4node17ContainerOfHelperI9uv_work_sNS_14ThreadPoolWorkEEcvPT_IS2_EEv = comdat any

$_ZN4node17ContainerOfHelperI9uv_work_sNS_14ThreadPoolWorkEEC2EMS2_S1_PS1_ = comdat any

$_ZN4node8OffsetOfI9uv_work_sNS_14ThreadPoolWorkEEEmMT0_T_ = comdat any

$_ZZN4node14ThreadPoolWork12ScheduleWorkEvENUlP9uv_work_siE_8__invokeES2_i = comdat any

$_ZZN4node14ThreadPoolWork12ScheduleWorkEvENKUlP9uv_work_siE_clES2_i = comdat any

$_ZN4node11Environment29DecreaseWaitingRequestCounterEv = comdat any

$_ZN4node6crypto16KeyPairGenConfigINS0_16NidKeyPairParamsEEC2Ev = comdat any

$_ZN4node6crypto16KeyPairGenTraitsINS0_19NidKeyPairGenTraitsEE16AdditionalConfigENS0_13CryptoJobModeERKN2v820FunctionCallbackInfoINS5_5ValueEEEPjPNS0_16KeyPairGenConfigINS0_16NidKeyPairParamsEEE = comdat any

$_ZN4node6crypto9KeyGenJobINS0_16KeyPairGenTraitsINS0_19NidKeyPairGenTraitsEEEEC2EPNS_11EnvironmentEN2v85LocalINS8_6ObjectEEENS0_13CryptoJobModeEONS0_16KeyPairGenConfigINS0_16NidKeyPairParamsEEE = comdat any

$_ZN4node6crypto16KeyPairGenConfigINS0_16NidKeyPairParamsEED2Ev = comdat any

$_ZN4node14MemoryRetainerC2Ev = comdat any

$_ZN4node6crypto27AsymmetricKeyEncodingConfigC2Ev = comdat any

$_ZN4node6crypto24PrivateKeyEncodingConfigC2Ev = comdat any

$_ZN4node6crypto14ManagedEVPPKeyC2Ev = comdat any

$_ZN4node6crypto16NidKeyPairParamsC2Ev = comdat any

$_ZN4node6crypto16KeyPairGenConfigINS0_16NidKeyPairParamsEED0Ev = comdat any

$_ZNK4node6crypto16KeyPairGenConfigINS0_16NidKeyPairParamsEE10MemoryInfoEPNS_13MemoryTrackerE = comdat any

$_ZNK4node6crypto16KeyPairGenConfigINS0_16NidKeyPairParamsEE14MemoryInfoNameEv = comdat any

$_ZNK4node6crypto16KeyPairGenConfigINS0_16NidKeyPairParamsEE8SelfSizeEv = comdat any

$_ZN4node14MemoryRetainerD2Ev = comdat any

$_ZN4node14MemoryRetainerD0Ev = comdat any

$_ZN2v87NothingIN4node6crypto14PKEncodingTypeEEENS_5MaybeIT_EEv = comdat any

$_ZN2v85MaybeIN4node6crypto14PKEncodingTypeEEC2Ev = comdat any

$_ZN4node16NonCopyableMaybeINS_6crypto10ByteSourceEEC2Ev = comdat any

$_ZN4node6crypto10ByteSourceC2Ev = comdat any

$_ZNSt10unique_ptrI11evp_pkey_stN4node15FunctionDeleterIS0_XadL_Z13EVP_PKEY_freeEEEEEC2IS3_vEEv = comdat any

$_ZSt11make_sharedIN4node9MutexBaseINS0_16LibuvMutexTraitsEEEJEESt10shared_ptrINSt9enable_ifIXntsr8is_arrayIT_EE5valueES6_E4typeEEDpOT0_ = comdat any

$_ZNSt15__uniq_ptr_dataI11evp_pkey_stN4node15FunctionDeleterIS0_XadL_Z13EVP_PKEY_freeEEEELb1ELb1EEC2Ev = comdat any

$_ZNSt15__uniq_ptr_implI11evp_pkey_stN4node15FunctionDeleterIS0_XadL_Z13EVP_PKEY_freeEEEEEC2Ev = comdat any

$_ZNSt5tupleIJP11evp_pkey_stN4node15FunctionDeleterIS0_XadL_Z13EVP_PKEY_freeEEEEEEC2ILb1ETnNSt9enable_ifIXclsr17_TupleConstraintsIXT_ES1_S4_EE37__is_implicitly_default_constructibleEEbE4typeELb1EEEv = comdat any

$_ZNSt11_Tuple_implILm0EJP11evp_pkey_stN4node15FunctionDeleterIS0_XadL_Z13EVP_PKEY_freeEEEEEEC2Ev = comdat any

$_ZNSt11_Tuple_implILm1EJN4node15FunctionDeleterI11evp_pkey_stXadL_Z13EVP_PKEY_freeEEEEEEC2Ev = comdat any

$_ZNSt10_Head_baseILm0EP11evp_pkey_stLb0EEC2Ev = comdat any

$_ZNSt10_Head_baseILm1EN4node15FunctionDeleterI11evp_pkey_stXadL_Z13EVP_PKEY_freeEEEELb1EEC2Ev = comdat any

$_ZNSt10shared_ptrIN4node9MutexBaseINS0_16LibuvMutexTraitsEEEEC2ISaIvEJEEESt20_Sp_alloc_shared_tagIT_EDpOT0_ = comdat any

$_ZNSt12__shared_ptrIN4node9MutexBaseINS0_16LibuvMutexTraitsEEELN9__gnu_cxx12_Lock_policyE2EEC2ISaIvEJEEESt20_Sp_alloc_shared_tagIT_EDpOT0_ = comdat any

$_ZNSt14__shared_countILN9__gnu_cxx12_Lock_policyE2EEC2IN4node9MutexBaseINS4_16LibuvMutexTraitsEEESaIvEJEEERPT_St20_Sp_alloc_shared_tagIT0_EDpOT1_ = comdat any

$_ZNSt12__shared_ptrIN4node9MutexBaseINS0_16LibuvMutexTraitsEEELN9__gnu_cxx12_Lock_policyE2EE31_M_enable_shared_from_this_withIS3_S3_EENSt9enable_ifIXntsr15__has_esft_baseIT0_EE5valueEvE4typeEPT_ = comdat any

$_ZNSaISt23_Sp_counted_ptr_inplaceIN4node9MutexBaseINS0_16LibuvMutexTraitsEEESaIvELN9__gnu_cxx12_Lock_policyE2EEEC2IvEERKSaIT_E = comdat any

$_ZSt18__allocate_guardedISaISt23_Sp_counted_ptr_inplaceIN4node9MutexBaseINS1_16LibuvMutexTraitsEEESaIvELN9__gnu_cxx12_Lock_policyE2EEEESt15__allocated_ptrIT_ERSB_ = comdat any

$_ZNSt15__allocated_ptrISaISt23_Sp_counted_ptr_inplaceIN4node9MutexBaseINS1_16LibuvMutexTraitsEEESaIvELN9__gnu_cxx12_Lock_policyE2EEEE3getEv = comdat any

$_ZNSt23_Sp_counted_ptr_inplaceIN4node9MutexBaseINS0_16LibuvMutexTraitsEEESaIvELN9__gnu_cxx12_Lock_policyE2EEC2IJEEES4_DpOT_ = comdat any

$_ZNSt15__allocated_ptrISaISt23_Sp_counted_ptr_inplaceIN4node9MutexBaseINS1_16LibuvMutexTraitsEEESaIvELN9__gnu_cxx12_Lock_policyE2EEEEaSEDn = comdat any

$_ZNSt23_Sp_counted_ptr_inplaceIN4node9MutexBaseINS0_16LibuvMutexTraitsEEESaIvELN9__gnu_cxx12_Lock_policyE2EE6_M_ptrEv = comdat any

$_ZNSt15__allocated_ptrISaISt23_Sp_counted_ptr_inplaceIN4node9MutexBaseINS1_16LibuvMutexTraitsEEESaIvELN9__gnu_cxx12_Lock_policyE2EEEED2Ev = comdat any

$_ZNSaISt23_Sp_counted_ptr_inplaceIN4node9MutexBaseINS0_16LibuvMutexTraitsEEESaIvELN9__gnu_cxx12_Lock_policyE2EEED2Ev = comdat any

$_ZNSt15__new_allocatorISt23_Sp_counted_ptr_inplaceIN4node9MutexBaseINS1_16LibuvMutexTraitsEEESaIvELN9__gnu_cxx12_Lock_policyE2EEEC2Ev = comdat any

$_ZNSt16allocator_traitsISaISt23_Sp_counted_ptr_inplaceIN4node9MutexBaseINS1_16LibuvMutexTraitsEEESaIvELN9__gnu_cxx12_Lock_policyE2EEEE8allocateERS9_m = comdat any

$_ZNSt15__allocated_ptrISaISt23_Sp_counted_ptr_inplaceIN4node9MutexBaseINS1_16LibuvMutexTraitsEEESaIvELN9__gnu_cxx12_Lock_policyE2EEEEC2ERS9_PS8_ = comdat any

$_ZNSt15__new_allocatorISt23_Sp_counted_ptr_inplaceIN4node9MutexBaseINS1_16LibuvMutexTraitsEEESaIvELN9__gnu_cxx12_Lock_policyE2EEE8allocateEmPKv = comdat any

$_ZNKSt15__new_allocatorISt23_Sp_counted_ptr_inplaceIN4node9MutexBaseINS1_16LibuvMutexTraitsEEESaIvELN9__gnu_cxx12_Lock_policyE2EEE11_M_max_sizeEv = comdat any

$_ZSt12__to_addressISt23_Sp_counted_ptr_inplaceIN4node9MutexBaseINS1_16LibuvMutexTraitsEEESaIvELN9__gnu_cxx12_Lock_policyE2EEEPT_SA_ = comdat any

$_ZNSt16_Sp_counted_baseILN9__gnu_cxx12_Lock_policyE2EEC2Ev = comdat any

$_ZNSt23_Sp_counted_ptr_inplaceIN4node9MutexBaseINS0_16LibuvMutexTraitsEEESaIvELN9__gnu_cxx12_Lock_policyE2EE5_ImplC2ES4_ = comdat any

$_ZNSt16allocator_traitsISaIvEE9constructIN4node9MutexBaseINS3_16LibuvMutexTraitsEEEJEEEvRS0_PT_DpOT0_ = comdat any

$_ZNSt23_Sp_counted_ptr_inplaceIN4node9MutexBaseINS0_16LibuvMutexTraitsEEESaIvELN9__gnu_cxx12_Lock_policyE2EED2Ev = comdat any

$_ZNSt23_Sp_counted_ptr_inplaceIN4node9MutexBaseINS0_16LibuvMutexTraitsEEESaIvELN9__gnu_cxx12_Lock_policyE2EED0Ev = comdat any

$_ZNSt23_Sp_counted_ptr_inplaceIN4node9MutexBaseINS0_16LibuvMutexTraitsEEESaIvELN9__gnu_cxx12_Lock_policyE2EE10_M_disposeEv = comdat any

$_ZNSt23_Sp_counted_ptr_inplaceIN4node9MutexBaseINS0_16LibuvMutexTraitsEEESaIvELN9__gnu_cxx12_Lock_policyE2EE10_M_destroyEv = comdat any

$_ZNSt23_Sp_counted_ptr_inplaceIN4node9MutexBaseINS0_16LibuvMutexTraitsEEESaIvELN9__gnu_cxx12_Lock_policyE2EE14_M_get_deleterERKSt9type_info = comdat any

$_ZNSt16_Sp_counted_baseILN9__gnu_cxx12_Lock_policyE2EED2Ev = comdat any

$_ZNSt16_Sp_counted_baseILN9__gnu_cxx12_Lock_policyE2EED0Ev = comdat any

$_ZNSt16_Sp_counted_baseILN9__gnu_cxx12_Lock_policyE2EE10_M_destroyEv = comdat any

$_ZNSt14_Sp_ebo_helperILi0ESaIvELb1EEC2ERKS0_ = comdat any

$_ZSt10_ConstructIN4node9MutexBaseINS0_16LibuvMutexTraitsEEEJEEvPT_DpOT0_ = comdat any

$_ZN4node9MutexBaseINS_16LibuvMutexTraitsEEC2Ev = comdat any

$_ZN4node16LibuvMutexTraits10mutex_initEP15pthread_mutex_t = comdat any

$_ZNSt16allocator_traitsISaIvEE7destroyIN4node9MutexBaseINS3_16LibuvMutexTraitsEEEEEvRS0_PT_ = comdat any

$_ZNSt23_Sp_counted_ptr_inplaceIN4node9MutexBaseINS0_16LibuvMutexTraitsEEESaIvELN9__gnu_cxx12_Lock_policyE2EE5_Impl8_M_allocEv = comdat any

$_ZSt8_DestroyIN4node9MutexBaseINS0_16LibuvMutexTraitsEEEEvPT_ = comdat any

$_ZN4node9MutexBaseINS_16LibuvMutexTraitsEED2Ev = comdat any

$_ZN4node16LibuvMutexTraits13mutex_destroyEP15pthread_mutex_t = comdat any

$_ZNSt14_Sp_ebo_helperILi0ESaIvELb1EE6_S_getERS1_ = comdat any

$_ZNSt19_Sp_make_shared_tag5_S_tiEv = comdat any

$_ZN9__gnu_cxx16__aligned_bufferIN4node9MutexBaseINS1_16LibuvMutexTraitsEEEE6_M_ptrEv = comdat any

$_ZN9__gnu_cxx16__aligned_bufferIN4node9MutexBaseINS1_16LibuvMutexTraitsEEEE7_M_addrEv = comdat any

$_ZNSt16allocator_traitsISaISt23_Sp_counted_ptr_inplaceIN4node9MutexBaseINS1_16LibuvMutexTraitsEEESaIvELN9__gnu_cxx12_Lock_policyE2EEEE10deallocateERS9_PS8_m = comdat any

$_ZNSt15__new_allocatorISt23_Sp_counted_ptr_inplaceIN4node9MutexBaseINS1_16LibuvMutexTraitsEEESaIvELN9__gnu_cxx12_Lock_policyE2EEE10deallocateEPS8_m = comdat any

$_ZNSt15__new_allocatorISt23_Sp_counted_ptr_inplaceIN4node9MutexBaseINS1_16LibuvMutexTraitsEEESaIvELN9__gnu_cxx12_Lock_policyE2EEED2Ev = comdat any

$_ZN4node6crypto16NidKeyPairParamsD2Ev = comdat any

$_ZN4node6crypto16NidKeyPairParamsD0Ev = comdat any

$_ZNK4node6crypto16NidKeyPairParams10MemoryInfoEPNS_13MemoryTrackerE = comdat any

$_ZNK4node6crypto16NidKeyPairParams14MemoryInfoNameEv = comdat any

$_ZNK4node6crypto16NidKeyPairParams8SelfSizeEv = comdat any

$_ZN4node13MemoryTracker10TrackFieldEPKcRKNS_14MemoryRetainerES2_ = comdat any

$_ZNK4node16NonCopyableMaybeINS_6crypto10ByteSourceEE7IsEmptyEv = comdat any

$_ZNK4node16NonCopyableMaybeINS_6crypto10ByteSourceEEptEv = comdat any

$_ZNK4node6crypto10ByteSource4sizeEv = comdat any

$_ZN4node13MemoryTracker10TrackFieldEPKcPKNS_14MemoryRetainerES2_ = comdat any

$_ZNSt13unordered_mapIPKN4node14MemoryRetainerEPNS0_18MemoryRetainerNodeESt4hashIS3_ESt8equal_toIS3_ESaISt4pairIKS3_S5_EEE4findERSB_ = comdat any

$_ZNSt8__detailneERKNS_19_Node_iterator_baseISt4pairIKPKN4node14MemoryRetainerEPNS2_18MemoryRetainerNodeEELb0EEESC_ = comdat any

$_ZNSt13unordered_mapIPKN4node14MemoryRetainerEPNS0_18MemoryRetainerNodeESt4hashIS3_ESt8equal_toIS3_ESaISt4pairIKS3_S5_EEE3endEv = comdat any

$_ZNKSt8__detail14_Node_iteratorISt4pairIKPKN4node14MemoryRetainerEPNS2_18MemoryRetainerNodeEELb0ELb0EEptEv = comdat any

$_ZN4node13MemoryTracker5TrackEPKNS_14MemoryRetainerEPKc = comdat any

$_ZNSt10_HashtableIPKN4node14MemoryRetainerESt4pairIKS3_PNS0_18MemoryRetainerNodeEESaIS8_ENSt8__detail10_Select1stESt8equal_toIS3_ESt4hashIS3_ENSA_18_Mod_range_hashingENSA_20_Default_ranged_hashENSA_20_Prime_rehash_policyENSA_17_Hashtable_traitsILb0ELb0ELb1EEEE4findERS5_ = comdat any

$_ZNKSt10_HashtableIPKN4node14MemoryRetainerESt4pairIKS3_PNS0_18MemoryRetainerNodeEESaIS8_ENSt8__detail10_Select1stESt8equal_toIS3_ESt4hashIS3_ENSA_18_Mod_range_hashingENSA_20_Default_ranged_hashENSA_20_Prime_rehash_policyENSA_17_Hashtable_traitsILb0ELb0ELb1EEEE4sizeEv = comdat any

$_ZNSt10_HashtableIPKN4node14MemoryRetainerESt4pairIKS3_PNS0_18MemoryRetainerNodeEESaIS8_ENSt8__detail10_Select1stESt8equal_toIS3_ESt4hashIS3_ENSA_18_Mod_range_hashingENSA_20_Default_ranged_hashENSA_20_Prime_rehash_policyENSA_17_Hashtable_traitsILb0ELb0ELb1EEEE22__small_size_thresholdEv = comdat any

$_ZNSt10_HashtableIPKN4node14MemoryRetainerESt4pairIKS3_PNS0_18MemoryRetainerNodeEESaIS8_ENSt8__detail10_Select1stESt8equal_toIS3_ESt4hashIS3_ENSA_18_Mod_range_hashingENSA_20_Default_ranged_hashENSA_20_Prime_rehash_policyENSA_17_Hashtable_traitsILb0ELb0ELb1EEEE5beginEv = comdat any

$_ZNSt10_HashtableIPKN4node14MemoryRetainerESt4pairIKS3_PNS0_18MemoryRetainerNodeEESaIS8_ENSt8__detail10_Select1stESt8equal_toIS3_ESt4hashIS3_ENSA_18_Mod_range_hashingENSA_20_Default_ranged_hashENSA_20_Prime_rehash_policyENSA_17_Hashtable_traitsILb0ELb0ELb1EEEE3endEv = comdat any

$_ZNKSt8__detail15_Hashtable_baseIPKN4node14MemoryRetainerESt4pairIKS4_PNS1_18MemoryRetainerNodeEENS_10_Select1stESt8equal_toIS4_ESt4hashIS4_ENS_18_Mod_range_hashingENS_20_Default_ranged_hashENS_17_Hashtable_traitsILb0ELb0ELb1EEEE13_M_key_equalsERS6_RKNS_16_Hash_node_valueIS9_Lb0EEE = comdat any

$_ZNSt8__detail14_Node_iteratorISt4pairIKPKN4node14MemoryRetainerEPNS2_18MemoryRetainerNodeEELb0ELb0EEppEv = comdat any

$_ZNKSt8__detail15_Hash_code_baseIPKN4node14MemoryRetainerESt4pairIKS4_PNS1_18MemoryRetainerNodeEENS_10_Select1stESt4hashIS4_ENS_18_Mod_range_hashingENS_20_Default_ranged_hashELb0EE12_M_hash_codeERS6_ = comdat any

$_ZNKSt10_HashtableIPKN4node14MemoryRetainerESt4pairIKS3_PNS0_18MemoryRetainerNodeEESaIS8_ENSt8__detail10_Select1stESt8equal_toIS3_ESt4hashIS3_ENSA_18_Mod_range_hashingENSA_20_Default_ranged_hashENSA_20_Prime_rehash_policyENSA_17_Hashtable_traitsILb0ELb0ELb1EEEE15_M_bucket_indexEm = comdat any

$_ZNKSt10_HashtableIPKN4node14MemoryRetainerESt4pairIKS3_PNS0_18MemoryRetainerNodeEESaIS8_ENSt8__detail10_Select1stESt8equal_toIS3_ESt4hashIS3_ENSA_18_Mod_range_hashingENSA_20_Default_ranged_hashENSA_20_Prime_rehash_policyENSA_17_Hashtable_traitsILb0ELb0ELb1EEEE12_M_find_nodeEmRS5_m = comdat any

$_ZNSt8__detail14_Node_iteratorISt4pairIKPKN4node14MemoryRetainerEPNS2_18MemoryRetainerNodeEELb0ELb0EEC2EPNS_10_Hash_nodeIS9_Lb0EEE = comdat any

$_ZNSt8__detail22_Hashtable_hash_traitsISt4hashIPKN4node14MemoryRetainerEEE22__small_size_thresholdEv = comdat any

$_ZNKSt10_HashtableIPKN4node14MemoryRetainerESt4pairIKS3_PNS0_18MemoryRetainerNodeEESaIS8_ENSt8__detail10_Select1stESt8equal_toIS3_ESt4hashIS3_ENSA_18_Mod_range_hashingENSA_20_Default_ranged_hashENSA_20_Prime_rehash_policyENSA_17_Hashtable_traitsILb0ELb0ELb1EEEE8_M_beginEv = comdat any

$_ZNKSt8__detail15_Hashtable_baseIPKN4node14MemoryRetainerESt4pairIKS4_PNS1_18MemoryRetainerNodeEENS_10_Select1stESt8equal_toIS4_ESt4hashIS4_ENS_18_Mod_range_hashingENS_20_Default_ranged_hashENS_17_Hashtable_traitsILb0ELb0ELb1EEEE5_M_eqEv = comdat any

$_ZNKSt8equal_toIPKN4node14MemoryRetainerEEclERKS3_S6_ = comdat any

$_ZNKSt8__detail10_Select1stclIRKSt4pairIKPKN4node14MemoryRetainerEPNS3_18MemoryRetainerNodeEEEEONS0_10__1st_typeIT_E4typeEOSE_ = comdat any

$_ZNKSt8__detail21_Hash_node_value_baseISt4pairIKPKN4node14MemoryRetainerEPNS2_18MemoryRetainerNodeEEE4_M_vEv = comdat any

$_ZNKSt8__detail21_Hashtable_ebo_helperILi0ESt8equal_toIPKN4node14MemoryRetainerEELb1EE7_M_cgetEv = comdat any

$_ZNKSt8__detail21_Hash_node_value_baseISt4pairIKPKN4node14MemoryRetainerEPNS2_18MemoryRetainerNodeEEE9_M_valptrEv = comdat any

$_ZNK9__gnu_cxx16__aligned_bufferISt4pairIKPKN4node14MemoryRetainerEPNS2_18MemoryRetainerNodeEEE6_M_ptrEv = comdat any

$_ZNK9__gnu_cxx16__aligned_bufferISt4pairIKPKN4node14MemoryRetainerEPNS2_18MemoryRetainerNodeEEE7_M_addrEv = comdat any

$_ZNSt8__detail19_Node_iterator_baseISt4pairIKPKN4node14MemoryRetainerEPNS2_18MemoryRetainerNodeEELb0EE7_M_incrEv = comdat any

$_ZNKSt8__detail10_Hash_nodeISt4pairIKPKN4node14MemoryRetainerEPNS2_18MemoryRetainerNodeEELb0EE7_M_nextEv = comdat any

$_ZNKSt8__detail15_Hash_code_baseIPKN4node14MemoryRetainerESt4pairIKS4_PNS1_18MemoryRetainerNodeEENS_10_Select1stESt4hashIS4_ENS_18_Mod_range_hashingENS_20_Default_ranged_hashELb0EE7_M_hashEv = comdat any

$_ZNKSt4hashIPKN4node14MemoryRetainerEEclES3_ = comdat any

$_ZNKSt8__detail21_Hashtable_ebo_helperILi1ESt4hashIPKN4node14MemoryRetainerEELb1EE7_M_cgetEv = comdat any

$_ZNKSt8__detail15_Hash_code_baseIPKN4node14MemoryRetainerESt4pairIKS4_PNS1_18MemoryRetainerNodeEENS_10_Select1stESt4hashIS4_ENS_18_Mod_range_hashingENS_20_Default_ranged_hashELb0EE15_M_bucket_indexEmm = comdat any

$_ZNKSt8__detail18_Mod_range_hashingclEmm = comdat any

$_ZNKSt10_HashtableIPKN4node14MemoryRetainerESt4pairIKS3_PNS0_18MemoryRetainerNodeEESaIS8_ENSt8__detail10_Select1stESt8equal_toIS3_ESt4hashIS3_ENSA_18_Mod_range_hashingENSA_20_Default_ranged_hashENSA_20_Prime_rehash_policyENSA_17_Hashtable_traitsILb0ELb0ELb1EEEE19_M_find_before_nodeEmRS5_m = comdat any

$_ZNKSt8__detail15_Hashtable_baseIPKN4node14MemoryRetainerESt4pairIKS4_PNS1_18MemoryRetainerNodeEENS_10_Select1stESt8equal_toIS4_ESt4hashIS4_ENS_18_Mod_range_hashingENS_20_Default_ranged_hashENS_17_Hashtable_traitsILb0ELb0ELb1EEEE9_M_equalsERS6_mRKNS_16_Hash_node_valueIS9_Lb0EEE = comdat any

$_ZNKSt10_HashtableIPKN4node14MemoryRetainerESt4pairIKS3_PNS0_18MemoryRetainerNodeEESaIS8_ENSt8__detail10_Select1stESt8equal_toIS3_ESt4hashIS3_ENSA_18_Mod_range_hashingENSA_20_Default_ranged_hashENSA_20_Prime_rehash_policyENSA_17_Hashtable_traitsILb0ELb0ELb1EEEE15_M_bucket_indexERKNSA_16_Hash_node_valueIS8_Lb0EEE = comdat any

$_ZNSt8__detail15_Hashtable_baseIPKN4node14MemoryRetainerESt4pairIKS4_PNS1_18MemoryRetainerNodeEENS_10_Select1stESt8equal_toIS4_ESt4hashIS4_ENS_18_Mod_range_hashingENS_20_Default_ranged_hashENS_17_Hashtable_traitsILb0ELb0ELb1EEEE9_S_equalsEmRKNS_21_Hash_node_code_cacheILb0EEE = comdat any

$_ZNKSt8__detail15_Hash_code_baseIPKN4node14MemoryRetainerESt4pairIKS4_PNS1_18MemoryRetainerNodeEENS_10_Select1stESt4hashIS4_ENS_18_Mod_range_hashingENS_20_Default_ranged_hashELb0EE15_M_bucket_indexERKNS_16_Hash_node_valueIS9_Lb0EEEm = comdat any

$_ZNSt8__detail19_Node_iterator_baseISt4pairIKPKN4node14MemoryRetainerEPNS2_18MemoryRetainerNodeEELb0EEC2EPNS_10_Hash_nodeIS9_Lb0EEE = comdat any

$_ZNSt8__detail21_Hash_node_value_baseISt4pairIKPKN4node14MemoryRetainerEPNS2_18MemoryRetainerNodeEEE9_M_valptrEv = comdat any

$_ZN9__gnu_cxx16__aligned_bufferISt4pairIKPKN4node14MemoryRetainerEPNS2_18MemoryRetainerNodeEEE6_M_ptrEv = comdat any

$_ZN9__gnu_cxx16__aligned_bufferISt4pairIKPKN4node14MemoryRetainerEPNS2_18MemoryRetainerNodeEEE7_M_addrEv = comdat any

$_ZN4node13MemoryTracker8PushNodeEPKNS_14MemoryRetainerEPKc = comdat any

$_ZN4node13MemoryTracker7PopNodeEv = comdat any

$_ZN4node13MemoryTracker7AddNodeEPKNS_14MemoryRetainerEPKc = comdat any

$_ZNSt5stackIPN4node18MemoryRetainerNodeESt5dequeIS2_SaIS2_EEE4pushERKS2_ = comdat any

$_ZN4node18MemoryRetainerNodeC2EPNS_13MemoryTrackerEPKNS_14MemoryRetainerE = comdat any

$_ZNSt13unordered_mapIPKN4node14MemoryRetainerEPNS0_18MemoryRetainerNodeESt4hashIS3_ESt8equal_toIS3_ESaISt4pairIKS3_S5_EEEixERSB_ = comdat any

$_ZN4node18MemoryRetainerNode13JSWrapperNodeEv = comdat any

$_ZN4node13MemoryTracker7isolateEv = comdat any

$_ZN4node13MemoryTracker5graphEv = comdat any

$_ZNSt8__detail9_Map_baseIPKN4node14MemoryRetainerESt4pairIKS4_PNS1_18MemoryRetainerNodeEESaIS9_ENS_10_Select1stESt8equal_toIS4_ESt4hashIS4_ENS_18_Mod_range_hashingENS_20_Default_ranged_hashENS_20_Prime_rehash_policyENS_17_Hashtable_traitsILb0ELb0ELb1EEELb1EEixERS6_ = comdat any

$_ZNSt8__detail21_Hash_node_value_baseISt4pairIKPKN4node14MemoryRetainerEPNS2_18MemoryRetainerNodeEEE4_M_vEv = comdat any

$_ZNSt5tupleIJRKPKN4node14MemoryRetainerEEEC2ILb1ETnNSt9enable_ifIXclsr4_TCCIXT_EEE29__is_implicitly_constructibleIS5_EEEbE4typeELb1EEES5_ = comdat any

$_ZNSt10_HashtableIPKN4node14MemoryRetainerESt4pairIKS3_PNS0_18MemoryRetainerNodeEESaIS8_ENSt8__detail10_Select1stESt8equal_toIS3_ESt4hashIS3_ENSA_18_Mod_range_hashingENSA_20_Default_ranged_hashENSA_20_Prime_rehash_policyENSA_17_Hashtable_traitsILb0ELb0ELb1EEEE12_Scoped_nodeC2IJRKSt21piecewise_construct_tSt5tupleIJRS5_EESR_IJEEEEEPNSA_16_Hashtable_allocISaINSA_10_Hash_nodeIS8_Lb0EEEEEEDpOT_ = comdat any

$_ZNSt10_HashtableIPKN4node14MemoryRetainerESt4pairIKS3_PNS0_18MemoryRetainerNodeEESaIS8_ENSt8__detail10_Select1stESt8equal_toIS3_ESt4hashIS3_ENSA_18_Mod_range_hashingENSA_20_Default_ranged_hashENSA_20_Prime_rehash_policyENSA_17_Hashtable_traitsILb0ELb0ELb1EEEE21_M_insert_unique_nodeEmmPNSA_10_Hash_nodeIS8_Lb0EEEm = comdat any

$_ZNSt10_HashtableIPKN4node14MemoryRetainerESt4pairIKS3_PNS0_18MemoryRetainerNodeEESaIS8_ENSt8__detail10_Select1stESt8equal_toIS3_ESt4hashIS3_ENSA_18_Mod_range_hashingENSA_20_Default_ranged_hashENSA_20_Prime_rehash_policyENSA_17_Hashtable_traitsILb0ELb0ELb1EEEE12_Scoped_nodeD2Ev = comdat any

$_ZNSt11_Tuple_implILm0EJRKPKN4node14MemoryRetainerEEEC2ES5_ = comdat any

$_ZNSt10_Head_baseILm0ERKPKN4node14MemoryRetainerELb0EEC2ES5_ = comdat any

$_ZNSt8__detail16_Hashtable_allocISaINS_10_Hash_nodeISt4pairIKPKN4node14MemoryRetainerEPNS3_18MemoryRetainerNodeEELb0EEEEE16_M_allocate_nodeIJRKSt21piecewise_construct_tSt5tupleIJRS7_EESI_IJEEEEEPSB_DpOT_ = comdat any

$_ZNSt16allocator_traitsISaINSt8__detail10_Hash_nodeISt4pairIKPKN4node14MemoryRetainerEPNS3_18MemoryRetainerNodeEELb0EEEEE8allocateERSC_m = comdat any

$_ZNSt8__detail16_Hashtable_allocISaINS_10_Hash_nodeISt4pairIKPKN4node14MemoryRetainerEPNS3_18MemoryRetainerNodeEELb0EEEEE17_M_node_allocatorEv = comdat any

$_ZSt12__to_addressINSt8__detail10_Hash_nodeISt4pairIKPKN4node14MemoryRetainerEPNS3_18MemoryRetainerNodeEELb0EEEEPT_SD_ = comdat any

$_ZNSt8__detail10_Hash_nodeISt4pairIKPKN4node14MemoryRetainerEPNS2_18MemoryRetainerNodeEELb0EEC2Ev = comdat any

$_ZNSt16allocator_traitsISaINSt8__detail10_Hash_nodeISt4pairIKPKN4node14MemoryRetainerEPNS3_18MemoryRetainerNodeEELb0EEEEE9constructISA_JRKSt21piecewise_construct_tSt5tupleIJRS7_EESI_IJEEEEEvRSC_PT_DpOT0_ = comdat any

$_ZNSt15__new_allocatorINSt8__detail10_Hash_nodeISt4pairIKPKN4node14MemoryRetainerEPNS3_18MemoryRetainerNodeEELb0EEEE8allocateEmPKv = comdat any

$_ZNKSt15__new_allocatorINSt8__detail10_Hash_nodeISt4pairIKPKN4node14MemoryRetainerEPNS3_18MemoryRetainerNodeEELb0EEEE11_M_max_sizeEv = comdat any

$_ZNSt8__detail21_Hashtable_ebo_helperILi0ESaINS_10_Hash_nodeISt4pairIKPKN4node14MemoryRetainerEPNS3_18MemoryRetainerNodeEELb0EEEELb1EE6_M_getEv = comdat any

$_ZNSt8__detail15_Hash_node_baseC2Ev = comdat any

$_ZNSt15__new_allocatorINSt8__detail10_Hash_nodeISt4pairIKPKN4node14MemoryRetainerEPNS3_18MemoryRetainerNodeEELb0EEEE9constructISA_JRKSt21piecewise_construct_tSt5tupleIJRS7_EESH_IJEEEEEvPT_DpOT0_ = comdat any

$_ZNSt5tupleIJRKPKN4node14MemoryRetainerEEEC2EOS6_ = comdat any

$_ZNSt4pairIKPKN4node14MemoryRetainerEPNS0_18MemoryRetainerNodeEEC2IJRS4_EJEEESt21piecewise_construct_tSt5tupleIJDpT_EESB_IJDpT0_EE = comdat any

$_ZNSt11_Tuple_implILm0EJRKPKN4node14MemoryRetainerEEEC2EOS6_ = comdat any

$_ZNSt4pairIKPKN4node14MemoryRetainerEPNS0_18MemoryRetainerNodeEEC2IJRS4_EJLm0EEJETpTnmJEEERSt5tupleIJDpT_EERSA_IJDpT1_EESt12_Index_tupleIJXspT0_EEESJ_IJXspT2_EEE = comdat any

$_ZSt3getILm0EJRKPKN4node14MemoryRetainerEEERNSt13tuple_elementIXT_ESt5tupleIJDpT0_EEE4typeERSA_ = comdat any

$_ZSt12__get_helperILm0ERKPKN4node14MemoryRetainerEJEERT0_RSt11_Tuple_implIXT_EJS6_DpT1_EE = comdat any

$_ZNSt11_Tuple_implILm0EJRKPKN4node14MemoryRetainerEEE7_M_headERS6_ = comdat any

$_ZNSt10_Head_baseILm0ERKPKN4node14MemoryRetainerELb0EE7_M_headERS6_ = comdat any

$_ZNKSt8__detail20_Prime_rehash_policy8_M_stateEv = comdat any

$_ZNSt10_HashtableIPKN4node14MemoryRetainerESt4pairIKS3_PNS0_18MemoryRetainerNodeEESaIS8_ENSt8__detail10_Select1stESt8equal_toIS3_ESt4hashIS3_ENSA_18_Mod_range_hashingENSA_20_Default_ranged_hashENSA_20_Prime_rehash_policyENSA_17_Hashtable_traitsILb0ELb0ELb1EEEE9_M_rehashEmRKm = comdat any

$_ZNKSt8__detail15_Hash_code_baseIPKN4node14MemoryRetainerESt4pairIKS4_PNS1_18MemoryRetainerNodeEENS_10_Select1stESt4hashIS4_ENS_18_Mod_range_hashingENS_20_Default_ranged_hashELb0EE13_M_store_codeERNS_21_Hash_node_code_cacheILb0EEEm = comdat any

$_ZNSt10_HashtableIPKN4node14MemoryRetainerESt4pairIKS3_PNS0_18MemoryRetainerNodeEESaIS8_ENSt8__detail10_Select1stESt8equal_toIS3_ESt4hashIS3_ENSA_18_Mod_range_hashingENSA_20_Default_ranged_hashENSA_20_Prime_rehash_policyENSA_17_Hashtable_traitsILb0ELb0ELb1EEEE22_M_insert_bucket_beginEmPNSA_10_Hash_nodeIS8_Lb0EEE = comdat any

$_ZNSt10_HashtableIPKN4node14MemoryRetainerESt4pairIKS3_PNS0_18MemoryRetainerNodeEESaIS8_ENSt8__detail10_Select1stESt8equal_toIS3_ESt4hashIS3_ENSA_18_Mod_range_hashingENSA_20_Default_ranged_hashENSA_20_Prime_rehash_policyENSA_17_Hashtable_traitsILb0ELb0ELb1EEEE13_M_rehash_auxEmSt17integral_constantIbLb1EE = comdat any

$_ZNSt10_HashtableIPKN4node14MemoryRetainerESt4pairIKS3_PNS0_18MemoryRetainerNodeEESaIS8_ENSt8__detail10_Select1stESt8equal_toIS3_ESt4hashIS3_ENSA_18_Mod_range_hashingENSA_20_Default_ranged_hashENSA_20_Prime_rehash_policyENSA_17_Hashtable_traitsILb0ELb0ELb1EEEE19_M_allocate_bucketsEm = comdat any

$_ZNSt10_HashtableIPKN4node14MemoryRetainerESt4pairIKS3_PNS0_18MemoryRetainerNodeEESaIS8_ENSt8__detail10_Select1stESt8equal_toIS3_ESt4hashIS3_ENSA_18_Mod_range_hashingENSA_20_Default_ranged_hashENSA_20_Prime_rehash_policyENSA_17_Hashtable_traitsILb0ELb0ELb1EEEE21_M_deallocate_bucketsEv = comdat any

$_ZNSt8__detail16_Hashtable_allocISaINS_10_Hash_nodeISt4pairIKPKN4node14MemoryRetainerEPNS3_18MemoryRetainerNodeEELb0EEEEE19_M_allocate_bucketsEm = comdat any

$_ZNSaIPNSt8__detail15_Hash_node_baseEEC2INS_10_Hash_nodeISt4pairIKPKN4node14MemoryRetainerEPNS6_18MemoryRetainerNodeEELb0EEEEERKSaIT_E = comdat any

$_ZNSt16allocator_traitsISaIPNSt8__detail15_Hash_node_baseEEE8allocateERS3_m = comdat any

$_ZSt12__to_addressIPNSt8__detail15_Hash_node_baseEEPT_S4_ = comdat any

$_ZNSaIPNSt8__detail15_Hash_node_baseEED2Ev = comdat any

$_ZNSt15__new_allocatorIPNSt8__detail15_Hash_node_baseEEC2Ev = comdat any

$_ZNSt15__new_allocatorIPNSt8__detail15_Hash_node_baseEE8allocateEmPKv = comdat any

$_ZNKSt15__new_allocatorIPNSt8__detail15_Hash_node_baseEE11_M_max_sizeEv = comdat any

$_ZNSt15__new_allocatorIPNSt8__detail15_Hash_node_baseEED2Ev = comdat any

$_ZNSt10_HashtableIPKN4node14MemoryRetainerESt4pairIKS3_PNS0_18MemoryRetainerNodeEESaIS8_ENSt8__detail10_Select1stESt8equal_toIS3_ESt4hashIS3_ENSA_18_Mod_range_hashingENSA_20_Default_ranged_hashENSA_20_Prime_rehash_policyENSA_17_Hashtable_traitsILb0ELb0ELb1EEEE21_M_deallocate_bucketsEPPNSA_15_Hash_node_baseEm = comdat any

$_ZNKSt10_HashtableIPKN4node14MemoryRetainerESt4pairIKS3_PNS0_18MemoryRetainerNodeEESaIS8_ENSt8__detail10_Select1stESt8equal_toIS3_ESt4hashIS3_ENSA_18_Mod_range_hashingENSA_20_Default_ranged_hashENSA_20_Prime_rehash_policyENSA_17_Hashtable_traitsILb0ELb0ELb1EEEE21_M_uses_single_bucketEPPNSA_15_Hash_node_baseE = comdat any

$_ZNSt8__detail16_Hashtable_allocISaINS_10_Hash_nodeISt4pairIKPKN4node14MemoryRetainerEPNS3_18MemoryRetainerNodeEELb0EEEEE21_M_deallocate_bucketsEPPNS_15_Hash_node_baseEm = comdat any

$_ZNSt19__ptr_traits_ptr_toIPPNSt8__detail15_Hash_node_baseES2_Lb0EE10pointer_toERS2_ = comdat any

$_ZNSt16allocator_traitsISaIPNSt8__detail15_Hash_node_baseEEE10deallocateERS3_PS2_m = comdat any

$_ZNSt15__new_allocatorIPNSt8__detail15_Hash_node_baseEE10deallocateEPS2_m = comdat any

$_ZNSt8__detail16_Hashtable_allocISaINS_10_Hash_nodeISt4pairIKPKN4node14MemoryRetainerEPNS3_18MemoryRetainerNodeEELb0EEEEE18_M_deallocate_nodeEPSB_ = comdat any

$_ZNSt16allocator_traitsISaINSt8__detail10_Hash_nodeISt4pairIKPKN4node14MemoryRetainerEPNS3_18MemoryRetainerNodeEELb0EEEEE7destroyISA_EEvRSC_PT_ = comdat any

$_ZNSt8__detail16_Hashtable_allocISaINS_10_Hash_nodeISt4pairIKPKN4node14MemoryRetainerEPNS3_18MemoryRetainerNodeEELb0EEEEE22_M_deallocate_node_ptrEPSB_ = comdat any

$_ZNSt15__new_allocatorINSt8__detail10_Hash_nodeISt4pairIKPKN4node14MemoryRetainerEPNS3_18MemoryRetainerNodeEELb0EEEE7destroyISA_EEvPT_ = comdat any

$_ZNSt19__ptr_traits_ptr_toIPNSt8__detail10_Hash_nodeISt4pairIKPKN4node14MemoryRetainerEPNS3_18MemoryRetainerNodeEELb0EEESB_Lb0EE10pointer_toERSB_ = comdat any

$_ZNSt16allocator_traitsISaINSt8__detail10_Hash_nodeISt4pairIKPKN4node14MemoryRetainerEPNS3_18MemoryRetainerNodeEELb0EEEEE10deallocateERSC_PSB_m = comdat any

$_ZNSt15__new_allocatorINSt8__detail10_Hash_nodeISt4pairIKPKN4node14MemoryRetainerEPNS3_18MemoryRetainerNodeEELb0EEEE10deallocateEPSB_m = comdat any

$_ZNSt5dequeIPN4node18MemoryRetainerNodeESaIS2_EE9push_backERKS2_ = comdat any

$_ZNSt16allocator_traitsISaIPN4node18MemoryRetainerNodeEEE9constructIS2_JRKS2_EEEvRS3_PT_DpOT0_ = comdat any

$_ZNSt5dequeIPN4node18MemoryRetainerNodeESaIS2_EE16_M_push_back_auxIJRKS2_EEEvDpOT_ = comdat any

$_ZNSt15__new_allocatorIPN4node18MemoryRetainerNodeEE9constructIS2_JRKS2_EEEvPT_DpOT0_ = comdat any

$_ZNKSt5dequeIPN4node18MemoryRetainerNodeESaIS2_EE4sizeEv = comdat any

$_ZNKSt5dequeIPN4node18MemoryRetainerNodeESaIS2_EE8max_sizeEv = comdat any

$_ZNSt5dequeIPN4node18MemoryRetainerNodeESaIS2_EE22_M_reserve_map_at_backEm = comdat any

$_ZNSt11_Deque_baseIPN4node18MemoryRetainerNodeESaIS2_EE16_M_allocate_nodeEv = comdat any

$_ZNSt15_Deque_iteratorIPN4node18MemoryRetainerNodeERS2_PS2_E11_M_set_nodeEPS4_ = comdat any

$_ZStmiRKSt15_Deque_iteratorIPN4node18MemoryRetainerNodeERS2_PS2_ES7_ = comdat any

$_ZNSt15_Deque_iteratorIPN4node18MemoryRetainerNodeERS2_PS2_E14_S_buffer_sizeEv = comdat any

$_ZNSt5dequeIPN4node18MemoryRetainerNodeESaIS2_EE11_S_max_sizeERKS3_ = comdat any

$_ZNKSt11_Deque_baseIPN4node18MemoryRetainerNodeESaIS2_EE19_M_get_Tp_allocatorEv = comdat any

$_ZNSt16allocator_traitsISaIPN4node18MemoryRetainerNodeEEE8max_sizeERKS3_ = comdat any

$_ZSt3minImERKT_S2_S2_ = comdat any

$_ZNKSt15__new_allocatorIPN4node18MemoryRetainerNodeEE8max_sizeEv = comdat any

$_ZNKSt15__new_allocatorIPN4node18MemoryRetainerNodeEE11_M_max_sizeEv = comdat any

$_ZNSt5dequeIPN4node18MemoryRetainerNodeESaIS2_EE17_M_reallocate_mapEmb = comdat any

$_ZSt4copyIPPPN4node18MemoryRetainerNodeES4_ET0_T_S6_S5_ = comdat any

$_ZSt13copy_backwardIPPPN4node18MemoryRetainerNodeES4_ET0_T_S6_S5_ = comdat any

$_ZSt3maxImERKT_S2_S2_ = comdat any

$_ZNSt11_Deque_baseIPN4node18MemoryRetainerNodeESaIS2_EE15_M_allocate_mapEm = comdat any

$_ZNSt11_Deque_baseIPN4node18MemoryRetainerNodeESaIS2_EE17_M_deallocate_mapEPPS2_m = comdat any

$_ZSt13__copy_move_aILb0EPPPN4node18MemoryRetainerNodeES4_ET1_T0_S6_S5_ = comdat any

$_ZSt12__miter_baseIPPPN4node18MemoryRetainerNodeEET_S5_ = comdat any

$_ZSt12__niter_wrapIPPPN4node18MemoryRetainerNodeEET_RKS5_S5_ = comdat any

$_ZSt14__copy_move_a1ILb0EPPPN4node18MemoryRetainerNodeES4_ET1_T0_S6_S5_ = comdat any

$_ZSt12__niter_baseIPPPN4node18MemoryRetainerNodeEET_S5_ = comdat any

$_ZSt14__copy_move_a2ILb0EPPPN4node18MemoryRetainerNodeES4_ET1_T0_S6_S5_ = comdat any

$_ZNSt11__copy_moveILb0ELb1ESt26random_access_iterator_tagE8__copy_mIPPN4node18MemoryRetainerNodeEEEPT_PKS7_SA_S8_ = comdat any

$_ZSt22__copy_move_backward_aILb0EPPPN4node18MemoryRetainerNodeES4_ET1_T0_S6_S5_ = comdat any

$_ZSt23__copy_move_backward_a1ILb0EPPPN4node18MemoryRetainerNodeES4_ET1_T0_S6_S5_ = comdat any

$_ZSt23__copy_move_backward_a2ILb0EPPPN4node18MemoryRetainerNodeES4_ET1_T0_S6_S5_ = comdat any

$_ZNSt20__copy_move_backwardILb0ELb1ESt26random_access_iterator_tagE13__copy_move_bIPPN4node18MemoryRetainerNodeEEEPT_PKS7_SA_S8_ = comdat any

$_ZNKSt11_Deque_baseIPN4node18MemoryRetainerNodeESaIS2_EE20_M_get_map_allocatorEv = comdat any

$_ZNSt16allocator_traitsISaIPPN4node18MemoryRetainerNodeEEE8allocateERS4_m = comdat any

$_ZNSaIPPN4node18MemoryRetainerNodeEED2Ev = comdat any

$_ZNSaIPPN4node18MemoryRetainerNodeEEC2IS1_EERKSaIT_E = comdat any

$_ZNSt15__new_allocatorIPPN4node18MemoryRetainerNodeEEC2Ev = comdat any

$_ZNSt15__new_allocatorIPPN4node18MemoryRetainerNodeEE8allocateEmPKv = comdat any

$_ZNKSt15__new_allocatorIPPN4node18MemoryRetainerNodeEE11_M_max_sizeEv = comdat any

$_ZNSt15__new_allocatorIPPN4node18MemoryRetainerNodeEED2Ev = comdat any

$_ZNSt16allocator_traitsISaIPPN4node18MemoryRetainerNodeEEE10deallocateERS4_PS3_m = comdat any

$_ZNSt15__new_allocatorIPPN4node18MemoryRetainerNodeEE10deallocateEPS3_m = comdat any

$_ZNSt16allocator_traitsISaIPN4node18MemoryRetainerNodeEEE8allocateERS3_m = comdat any

$_ZNSt15__new_allocatorIPN4node18MemoryRetainerNodeEE8allocateEmPKv = comdat any

$_ZNSt5stackIPN4node18MemoryRetainerNodeESt5dequeIS2_SaIS2_EEE3popEv = comdat any

$_ZNSt5dequeIPN4node18MemoryRetainerNodeESaIS2_EE8pop_backEv = comdat any

$_ZNSt16allocator_traitsISaIPN4node18MemoryRetainerNodeEEE7destroyIS2_EEvRS3_PT_ = comdat any

$_ZNSt11_Deque_baseIPN4node18MemoryRetainerNodeESaIS2_EE19_M_get_Tp_allocatorEv = comdat any

$_ZNSt5dequeIPN4node18MemoryRetainerNodeESaIS2_EE15_M_pop_back_auxEv = comdat any

$_ZNSt15__new_allocatorIPN4node18MemoryRetainerNodeEE7destroyIS2_EEvPT_ = comdat any

$_ZNSt11_Deque_baseIPN4node18MemoryRetainerNodeESaIS2_EE18_M_deallocate_nodeEPS2_ = comdat any

$_ZNSt16allocator_traitsISaIPN4node18MemoryRetainerNodeEEE10deallocateERS3_PS2_m = comdat any

$_ZNSt15__new_allocatorIPN4node18MemoryRetainerNodeEE10deallocateEPS2_m = comdat any

$_ZNK4node16NonCopyableMaybeINS_6crypto24PrivateKeyEncodingConfigEE7IsEmptyEv = comdat any

$_ZN4node16NonCopyableMaybeINS_6crypto24PrivateKeyEncodingConfigEE7ReleaseEv = comdat any

$_ZN4node6crypto24PrivateKeyEncodingConfigaSEOS1_ = comdat any

$_ZN4node16NonCopyableMaybeINS_6crypto24PrivateKeyEncodingConfigEED2Ev = comdat any

$_ZN4node16NonCopyableMaybeINS_6crypto10ByteSourceEEaSEOS3_ = comdat any

$_ZN4node6crypto24PrivateKeyEncodingConfigD2Ev = comdat any

$_ZN4node16NonCopyableMaybeINS_6crypto10ByteSourceEED2Ev = comdat any

$_ZN4node6crypto9CryptoJobINS0_16KeyPairGenTraitsINS0_19NidKeyPairGenTraitsEEEEC2EPNS_11EnvironmentEN2v85LocalINS8_6ObjectEEENS_9AsyncWrap12ProviderTypeENS0_13CryptoJobModeEONS0_16KeyPairGenConfigINS0_16NidKeyPairParamsEEE = comdat any

$_ZN4node6crypto9KeyGenJobINS0_16KeyPairGenTraitsINS0_19NidKeyPairGenTraitsEEEED2Ev = comdat any

$_ZN4node6crypto9KeyGenJobINS0_16KeyPairGenTraitsINS0_19NidKeyPairGenTraitsEEEED0Ev = comdat any

$_ZNK4node6crypto9CryptoJobINS0_16KeyPairGenTraitsINS0_19NidKeyPairGenTraitsEEEE10MemoryInfoEPNS_13MemoryTrackerE = comdat any

$_ZNK4node6crypto9CryptoJobINS0_16KeyPairGenTraitsINS0_19NidKeyPairGenTraitsEEEE14MemoryInfoNameEv = comdat any

$_ZNK4node6crypto9KeyGenJobINS0_16KeyPairGenTraitsINS0_19NidKeyPairGenTraitsEEEE8SelfSizeEv = comdat any

$_ZNK4node10BaseObject15GetDetachednessEv = comdat any

$_ZNK4node6crypto9CryptoJobINS0_16KeyPairGenTraitsINS0_19NidKeyPairGenTraitsEEEE33IsNotIndicativeOfMemoryLeakAtExitEv = comdat any

$_ZN4node10BaseObject11OnGCCollectEv = comdat any

$_ZNK4node10BaseObject15is_snapshotableEv = comdat any

$_ZN4node6crypto9CryptoJobINS0_16KeyPairGenTraitsINS0_19NidKeyPairGenTraitsEEEE19AfterThreadPoolWorkEi = comdat any

$_ZN4node6crypto9KeyGenJobINS0_16KeyPairGenTraitsINS0_19NidKeyPairGenTraitsEEEE8ToResultEPN2v85LocalINS6_5ValueEEESA_ = comdat any

$_ZN4node6crypto9KeyGenJobINS0_16KeyPairGenTraitsINS0_19NidKeyPairGenTraitsEEEE16DoThreadPoolWorkEv = comdat any

$_ZThn56_N4node6crypto9KeyGenJobINS0_16KeyPairGenTraitsINS0_19NidKeyPairGenTraitsEEEED1Ev = comdat any

$_ZThn56_N4node6crypto9KeyGenJobINS0_16KeyPairGenTraitsINS0_19NidKeyPairGenTraitsEEEED0Ev = comdat any

$_ZThn56_N4node6crypto9KeyGenJobINS0_16KeyPairGenTraitsINS0_19NidKeyPairGenTraitsEEEE16DoThreadPoolWorkEv = comdat any

$_ZThn56_N4node6crypto9CryptoJobINS0_16KeyPairGenTraitsINS0_19NidKeyPairGenTraitsEEEE19AfterThreadPoolWorkEi = comdat any

$_ZN4node14ThreadPoolWorkC2EPNS_11EnvironmentEPKc = comdat any

$_ZN4node6crypto16CryptoErrorStoreC2Ev = comdat any

$_ZN4node6crypto16KeyPairGenConfigINS0_16NidKeyPairParamsEEC2EOS3_ = comdat any

$_ZN4node6crypto9CryptoJobINS0_16KeyPairGenTraitsINS0_19NidKeyPairGenTraitsEEEED2Ev = comdat any

$_ZN4node6crypto9CryptoJobINS0_16KeyPairGenTraitsINS0_19NidKeyPairGenTraitsEEEED0Ev = comdat any

$_ZThn56_N4node6crypto9CryptoJobINS0_16KeyPairGenTraitsINS0_19NidKeyPairGenTraitsEEEED1Ev = comdat any

$_ZThn56_N4node6crypto9CryptoJobINS0_16KeyPairGenTraitsINS0_19NidKeyPairGenTraitsEEEED0Ev = comdat any

$_ZN4node14ThreadPoolWorkD2Ev = comdat any

$_ZN4node14ThreadPoolWorkD0Ev = comdat any

$_ZNSt6vectorINSt7__cxx1112basic_stringIcSt11char_traitsIcESaIcEEESaIS5_EEC2Ev = comdat any

$_ZN4node6crypto16CryptoErrorStoreD2Ev = comdat any

$_ZN4node6crypto16CryptoErrorStoreD0Ev = comdat any

$_ZNK4node6crypto16CryptoErrorStore10MemoryInfoEPNS_13MemoryTrackerE = comdat any

$_ZNK4node6crypto16CryptoErrorStore14MemoryInfoNameEv = comdat any

$_ZNK4node6crypto16CryptoErrorStore8SelfSizeEv = comdat any

$_ZNSt12_Vector_baseINSt7__cxx1112basic_stringIcSt11char_traitsIcESaIcEEESaIS5_EEC2Ev = comdat any

$_ZNSt12_Vector_baseINSt7__cxx1112basic_stringIcSt11char_traitsIcESaIcEEESaIS5_EE12_Vector_implC2Ev = comdat any

$_ZNSaINSt7__cxx1112basic_stringIcSt11char_traitsIcESaIcEEEEC2Ev = comdat any

$_ZNSt12_Vector_baseINSt7__cxx1112basic_stringIcSt11char_traitsIcESaIcEEESaIS5_EE17_Vector_impl_dataC2Ev = comdat any

$_ZNSt15__new_allocatorINSt7__cxx1112basic_stringIcSt11char_traitsIcESaIcEEEEC2Ev = comdat any

$_ZNSt6vectorINSt7__cxx1112basic_stringIcSt11char_traitsIcESaIcEEESaIS5_EED2Ev = comdat any

$_ZSt8_DestroyIPNSt7__cxx1112basic_stringIcSt11char_traitsIcESaIcEEES5_EvT_S7_RSaIT0_E = comdat any

$_ZNSt12_Vector_baseINSt7__cxx1112basic_stringIcSt11char_traitsIcESaIcEEESaIS5_EE19_M_get_Tp_allocatorEv = comdat any

$_ZNSt12_Vector_baseINSt7__cxx1112basic_stringIcSt11char_traitsIcESaIcEEESaIS5_EED2Ev = comdat any

$_ZSt8_DestroyIPNSt7__cxx1112basic_stringIcSt11char_traitsIcESaIcEEEEvT_S7_ = comdat any

$_ZNSt12_Destroy_auxILb0EE9__destroyIPNSt7__cxx1112basic_stringIcSt11char_traitsIcESaIcEEEEEvT_S9_ = comdat any

$_ZSt8_DestroyINSt7__cxx1112basic_stringIcSt11char_traitsIcESaIcEEEEvPT_ = comdat any

$_ZNSt12_Vector_baseINSt7__cxx1112basic_stringIcSt11char_traitsIcESaIcEEESaIS5_EE13_M_deallocateEPS5_m = comdat any

$_ZNSt12_Vector_baseINSt7__cxx1112basic_stringIcSt11char_traitsIcESaIcEEESaIS5_EE12_Vector_implD2Ev = comdat any

$_ZNSt16allocator_traitsISaINSt7__cxx1112basic_stringIcSt11char_traitsIcESaIcEEEEE10deallocateERS6_PS5_m = comdat any

$_ZNSt15__new_allocatorINSt7__cxx1112basic_stringIcSt11char_traitsIcESaIcEEEE10deallocateEPS5_m = comdat any

$_ZNSaINSt7__cxx1112basic_stringIcSt11char_traitsIcESaIcEEEED2Ev = comdat any

$_ZNSt15__new_allocatorINSt7__cxx1112basic_stringIcSt11char_traitsIcESaIcEEEED2Ev = comdat any

$_ZN4node6crypto24PrivateKeyEncodingConfigC2EOS1_ = comdat any

$_ZN4node6crypto16NidKeyPairParamsC2EOS1_ = comdat any

$_ZN4node16NonCopyableMaybeINS_6crypto10ByteSourceEEC2EOS3_ = comdat any

$_ZN4node14MemoryRetainerC2ERKS0_ = comdat any

$_ZNK4node10BaseObject16IsWeakOrDetachedEv = comdat any

$_ZNK4node10BaseObject16has_pointer_dataEv = comdat any

$_ZNK4node10BaseObject3envEv = comdat any

$_ZNSt10unique_ptrIN4node6crypto9CryptoJobINS1_16KeyPairGenTraitsINS1_19NidKeyPairGenTraitsEEEEESt14default_deleteIS6_EEC2IS8_vEEPS6_ = comdat any

$_ZN4node6errors13TryCatchScopeC2EPNS_11EnvironmentENS1_9CatchModeE = comdat any

$_ZNKSt10unique_ptrIN4node6crypto9CryptoJobINS1_16KeyPairGenTraitsINS1_19NidKeyPairGenTraitsEEEEESt14default_deleteIS6_EEptEv = comdat any

$_ZN4node9AsyncWrap12MakeCallbackEN2v85LocalINS1_6StringEEEiPNS2_INS1_5ValueEEE = comdat any

$_ZNK4node11Environment13ondone_stringEv = comdat any

$_ZNSt10unique_ptrIN4node6crypto9CryptoJobINS1_16KeyPairGenTraitsINS1_19NidKeyPairGenTraitsEEEEESt14default_deleteIS6_EED2Ev = comdat any

$_ZNK4node5Realm3envEv = comdat any

$_ZNSt15__uniq_ptr_dataIN4node6crypto9CryptoJobINS1_16KeyPairGenTraitsINS1_19NidKeyPairGenTraitsEEEEESt14default_deleteIS6_ELb1ELb1EECI2St15__uniq_ptr_implIS6_S8_EEPS6_ = comdat any

$_ZNSt15__uniq_ptr_implIN4node6crypto9CryptoJobINS1_16KeyPairGenTraitsINS1_19NidKeyPairGenTraitsEEEEESt14default_deleteIS6_EEC2EPS6_ = comdat any

$_ZNSt5tupleIJPN4node6crypto9CryptoJobINS1_16KeyPairGenTraitsINS1_19NidKeyPairGenTraitsEEEEESt14default_deleteIS6_EEEC2ILb1ETnNSt9enable_ifIXclsr17_TupleConstraintsIXT_ES7_S9_EE37__is_implicitly_default_constructibleEEbE4typeELb1EEEv = comdat any

$_ZNSt15__uniq_ptr_implIN4node6crypto9CryptoJobINS1_16KeyPairGenTraitsINS1_19NidKeyPairGenTraitsEEEEESt14default_deleteIS6_EE6_M_ptrEv = comdat any

$_ZNSt11_Tuple_implILm0EJPN4node6crypto9CryptoJobINS1_16KeyPairGenTraitsINS1_19NidKeyPairGenTraitsEEEEESt14default_deleteIS6_EEEC2Ev = comdat any

$_ZNSt11_Tuple_implILm1EJSt14default_deleteIN4node6crypto9CryptoJobINS2_16KeyPairGenTraitsINS2_19NidKeyPairGenTraitsEEEEEEEEC2Ev = comdat any

$_ZNSt10_Head_baseILm0EPN4node6crypto9CryptoJobINS1_16KeyPairGenTraitsINS1_19NidKeyPairGenTraitsEEEEELb0EEC2Ev = comdat any

$_ZNSt10_Head_baseILm1ESt14default_deleteIN4node6crypto9CryptoJobINS2_16KeyPairGenTraitsINS2_19NidKeyPairGenTraitsEEEEEELb1EEC2Ev = comdat any

$_ZSt3getILm0EJPN4node6crypto9CryptoJobINS1_16KeyPairGenTraitsINS1_19NidKeyPairGenTraitsEEEEESt14default_deleteIS6_EEERNSt13tuple_elementIXT_ESt5tupleIJDpT0_EEE4typeERSE_ = comdat any

$_ZSt12__get_helperILm0EPN4node6crypto9CryptoJobINS1_16KeyPairGenTraitsINS1_19NidKeyPairGenTraitsEEEEEJSt14default_deleteIS6_EEERT0_RSt11_Tuple_implIXT_EJSA_DpT1_EE = comdat any

$_ZNSt11_Tuple_implILm0EJPN4node6crypto9CryptoJobINS1_16KeyPairGenTraitsINS1_19NidKeyPairGenTraitsEEEEESt14default_deleteIS6_EEE7_M_headERSA_ = comdat any

$_ZNSt10_Head_baseILm0EPN4node6crypto9CryptoJobINS1_16KeyPairGenTraitsINS1_19NidKeyPairGenTraitsEEEEELb0EE7_M_headERS8_ = comdat any

$_ZNKSt10unique_ptrIN4node6crypto9CryptoJobINS1_16KeyPairGenTraitsINS1_19NidKeyPairGenTraitsEEEEESt14default_deleteIS6_EE3getEv = comdat any

$_ZNKSt15__uniq_ptr_implIN4node6crypto9CryptoJobINS1_16KeyPairGenTraitsINS1_19NidKeyPairGenTraitsEEEEESt14default_deleteIS6_EE6_M_ptrEv = comdat any

$_ZSt3getILm0EJPN4node6crypto9CryptoJobINS1_16KeyPairGenTraitsINS1_19NidKeyPairGenTraitsEEEEESt14default_deleteIS6_EEERKNSt13tuple_elementIXT_ESt5tupleIJDpT0_EEE4typeERKSE_ = comdat any

$_ZSt12__get_helperILm0EPN4node6crypto9CryptoJobINS1_16KeyPairGenTraitsINS1_19NidKeyPairGenTraitsEEEEEJSt14default_deleteIS6_EEERKT0_RKSt11_Tuple_implIXT_EJSA_DpT1_EE = comdat any

$_ZNSt11_Tuple_implILm0EJPN4node6crypto9CryptoJobINS1_16KeyPairGenTraitsINS1_19NidKeyPairGenTraitsEEEEESt14default_deleteIS6_EEE7_M_headERKSA_ = comdat any

$_ZNSt10_Head_baseILm0EPN4node6crypto9CryptoJobINS1_16KeyPairGenTraitsINS1_19NidKeyPairGenTraitsEEEEELb0EE7_M_headERKS8_ = comdat any

$_ZN4node9AsyncWrap12MakeCallbackEN2v85LocalINS1_4NameEEEiPNS2_INS1_5ValueEEE = comdat any

$_ZNK4node10BaseObject6objectEv = comdat any

$_ZN4node17PersistentToLocal7DefaultIN2v86ObjectEEENS2_5LocalIT_EEPNS2_7IsolateERKNS2_14PersistentBaseIS5_EE = comdat any

$_ZN4node17PersistentToLocal4WeakIN2v86ObjectEEENS2_5LocalIT_EEPNS2_7IsolateERKNS2_14PersistentBaseIS5_EE = comdat any

$_ZN4node17PersistentToLocal6StrongIN2v86ObjectEEENS2_5LocalIT_EERKNS2_14PersistentBaseIS5_EE = comdat any

$_ZNK4node11IsolateData13ondone_stringEv = comdat any

$_ZNSt10unique_ptrIN4node6crypto9CryptoJobINS1_16KeyPairGenTraitsINS1_19NidKeyPairGenTraitsEEEEESt14default_deleteIS6_EE11get_deleterEv = comdat any

$_ZNKSt14default_deleteIN4node6crypto9CryptoJobINS1_16KeyPairGenTraitsINS1_19NidKeyPairGenTraitsEEEEEEclEPS6_ = comdat any

$_ZNSt15__uniq_ptr_implIN4node6crypto9CryptoJobINS1_16KeyPairGenTraitsINS1_19NidKeyPairGenTraitsEEEEESt14default_deleteIS6_EE10_M_deleterEv = comdat any

$_ZSt3getILm1EJPN4node6crypto9CryptoJobINS1_16KeyPairGenTraitsINS1_19NidKeyPairGenTraitsEEEEESt14default_deleteIS6_EEERNSt13tuple_elementIXT_ESt5tupleIJDpT0_EEE4typeERSE_ = comdat any

$_ZSt12__get_helperILm1ESt14default_deleteIN4node6crypto9CryptoJobINS2_16KeyPairGenTraitsINS2_19NidKeyPairGenTraitsEEEEEEJEERT0_RSt11_Tuple_implIXT_EJS9_DpT1_EE = comdat any

$_ZNSt11_Tuple_implILm1EJSt14default_deleteIN4node6crypto9CryptoJobINS2_16KeyPairGenTraitsINS2_19NidKeyPairGenTraitsEEEEEEEE7_M_headERS9_ = comdat any

$_ZNSt10_Head_baseILm1ESt14default_deleteIN4node6crypto9CryptoJobINS2_16KeyPairGenTraitsINS2_19NidKeyPairGenTraitsEEEEEELb1EE7_M_headERS9_ = comdat any

$_ZN4node6crypto9CryptoJobINS0_16KeyPairGenTraitsINS0_19NidKeyPairGenTraitsEEEE6errorsEv = comdat any

$_ZN4node6crypto9CryptoJobINS0_16KeyPairGenTraitsINS0_19NidKeyPairGenTraitsEEEE6paramsEv = comdat any

$_ZN4node6crypto16KeyPairGenTraitsINS0_19NidKeyPairGenTraitsEE9EncodeKeyEPNS_11EnvironmentEPNS0_16KeyPairGenConfigINS0_16NidKeyPairParamsEEEPN2v85LocalINSA_5ValueEEE = comdat any

$_ZN2v87NothingIbEENS_5MaybeIT_EEv = comdat any

$_ZN2v85MaybeIbEC2Ev = comdat any

$_ZN4node6crypto16KeyPairGenTraitsINS0_19NidKeyPairGenTraitsEE8DoKeyGenEPNS_11EnvironmentEPNS0_16KeyPairGenConfigINS0_16NidKeyPairParamsEEE = comdat any

$_ZN4node6crypto16CryptoErrorStore6InsertIJEEEvNS0_15NodeCryptoErrorEDpOT_ = comdat any

$_ZNSt10unique_ptrI11evp_pkey_stN4node15FunctionDeleterIS0_XadL_Z13EVP_PKEY_freeEEEEEC2IS3_vEEPS0_ = comdat any

$_ZN4node6crypto14ManagedEVPPKeyD2Ev = comdat any

$_ZNSt10unique_ptrI11evp_pkey_stN4node15FunctionDeleterIS0_XadL_Z13EVP_PKEY_freeEEEEED2Ev = comdat any

$_ZNSt15__uniq_ptr_dataI11evp_pkey_stN4node15FunctionDeleterIS0_XadL_Z13EVP_PKEY_freeEEEELb1ELb1EECI2St15__uniq_ptr_implIS0_S3_EEPS0_ = comdat any

$_ZNSt15__uniq_ptr_implI11evp_pkey_stN4node15FunctionDeleterIS0_XadL_Z13EVP_PKEY_freeEEEEEC2EPS0_ = comdat any

$_ZNSt15__uniq_ptr_implI11evp_pkey_stN4node15FunctionDeleterIS0_XadL_Z13EVP_PKEY_freeEEEEE6_M_ptrEv = comdat any

$_ZSt3getILm0EJP11evp_pkey_stN4node15FunctionDeleterIS0_XadL_Z13EVP_PKEY_freeEEEEEERNSt13tuple_elementIXT_ESt5tupleIJDpT0_EEE4typeERS9_ = comdat any

$_ZSt12__get_helperILm0EP11evp_pkey_stJN4node15FunctionDeleterIS0_XadL_Z13EVP_PKEY_freeEEEEEERT0_RSt11_Tuple_implIXT_EJS5_DpT1_EE = comdat any

$_ZNSt11_Tuple_implILm0EJP11evp_pkey_stN4node15FunctionDeleterIS0_XadL_Z13EVP_PKEY_freeEEEEEE7_M_headERS5_ = comdat any

$_ZNSt10_Head_baseILm0EP11evp_pkey_stLb0EE7_M_headERS2_ = comdat any

$_ZNSt10shared_ptrIN4node9MutexBaseINS0_16LibuvMutexTraitsEEEED2Ev = comdat any

$_ZNSt12__shared_ptrIN4node9MutexBaseINS0_16LibuvMutexTraitsEEELN9__gnu_cxx12_Lock_policyE2EED2Ev = comdat any

$_ZNSt10unique_ptrI11evp_pkey_stN4node15FunctionDeleterIS0_XadL_Z13EVP_PKEY_freeEEEEE11get_deleterEv = comdat any

$_ZNK4node15FunctionDeleterI11evp_pkey_stXadL_Z13EVP_PKEY_freeEEEclEPS1_ = comdat any

$_ZNSt15__uniq_ptr_implI11evp_pkey_stN4node15FunctionDeleterIS0_XadL_Z13EVP_PKEY_freeEEEEE10_M_deleterEv = comdat any

$_ZSt3getILm1EJP11evp_pkey_stN4node15FunctionDeleterIS0_XadL_Z13EVP_PKEY_freeEEEEEERNSt13tuple_elementIXT_ESt5tupleIJDpT0_EEE4typeERS9_ = comdat any

$_ZSt12__get_helperILm1EN4node15FunctionDeleterI11evp_pkey_stXadL_Z13EVP_PKEY_freeEEEEJEERT0_RSt11_Tuple_implIXT_EJS4_DpT1_EE = comdat any

$_ZNSt11_Tuple_implILm1EJN4node15FunctionDeleterI11evp_pkey_stXadL_Z13EVP_PKEY_freeEEEEEE7_M_headERS4_ = comdat any

$_ZNSt10_Head_baseILm1EN4node15FunctionDeleterI11evp_pkey_stXadL_Z13EVP_PKEY_freeEEEELb1EE7_M_headERS4_ = comdat any

$_ZNSt6vectorINSt7__cxx1112basic_stringIcSt11char_traitsIcESaIcEEESaIS5_EE12emplace_backIJS5_EEERS5_DpOT_ = comdat any

$_ZN4node7SPrintFIJEEENSt7__cxx1112basic_stringIcSt11char_traitsIcESaIcEEEPKcDpOT_ = comdat any

$_ZNSt16allocator_traitsISaINSt7__cxx1112basic_stringIcSt11char_traitsIcESaIcEEEEE9constructIS5_JS5_EEEvRS6_PT_DpOT0_ = comdat any

$_ZNSt6vectorINSt7__cxx1112basic_stringIcSt11char_traitsIcESaIcEEESaIS5_EE17_M_realloc_insertIJS5_EEEvN9__gnu_cxx17__normal_iteratorIPS5_S7_EEDpOT_ = comdat any

$_ZNSt6vectorINSt7__cxx1112basic_stringIcSt11char_traitsIcESaIcEEESaIS5_EE3endEv = comdat any

$_ZNSt6vectorINSt7__cxx1112basic_stringIcSt11char_traitsIcESaIcEEESaIS5_EE4backEv = comdat any

$_ZNSt15__new_allocatorINSt7__cxx1112basic_stringIcSt11char_traitsIcESaIcEEEE9constructIS5_JS5_EEEvPT_DpOT0_ = comdat any

$_ZNKSt6vectorINSt7__cxx1112basic_stringIcSt11char_traitsIcESaIcEEESaIS5_EE12_M_check_lenEmPKc = comdat any

$_ZN9__gnu_cxxmiIPNSt7__cxx1112basic_stringIcSt11char_traitsIcESaIcEEESt6vectorIS6_SaIS6_EEEENS_17__normal_iteratorIT_T0_E15difference_typeERKSE_SH_ = comdat any

$_ZNSt6vectorINSt7__cxx1112basic_stringIcSt11char_traitsIcESaIcEEESaIS5_EE5beginEv = comdat any

$_ZNSt12_Vector_baseINSt7__cxx1112basic_stringIcSt11char_traitsIcESaIcEEESaIS5_EE11_M_allocateEm = comdat any

$_ZNSt6vectorINSt7__cxx1112basic_stringIcSt11char_traitsIcESaIcEEESaIS5_EE11_S_relocateEPS5_S8_S8_RS6_ = comdat any

$_ZNK9__gnu_cxx17__normal_iteratorIPNSt7__cxx1112basic_stringIcSt11char_traitsIcESaIcEEESt6vectorIS6_SaIS6_EEE4baseEv = comdat any

$_ZNKSt6vectorINSt7__cxx1112basic_stringIcSt11char_traitsIcESaIcEEESaIS5_EE8max_sizeEv = comdat any

$_ZNKSt6vectorINSt7__cxx1112basic_stringIcSt11char_traitsIcESaIcEEESaIS5_EE4sizeEv = comdat any

$_ZNSt6vectorINSt7__cxx1112basic_stringIcSt11char_traitsIcESaIcEEESaIS5_EE11_S_max_sizeERKS6_ = comdat any

$_ZNKSt12_Vector_baseINSt7__cxx1112basic_stringIcSt11char_traitsIcESaIcEEESaIS5_EE19_M_get_Tp_allocatorEv = comdat any

$_ZNSt16allocator_traitsISaINSt7__cxx1112basic_stringIcSt11char_traitsIcESaIcEEEEE8max_sizeERKS6_ = comdat any

$_ZNKSt15__new_allocatorINSt7__cxx1112basic_stringIcSt11char_traitsIcESaIcEEEE8max_sizeEv = comdat any

$_ZNKSt15__new_allocatorINSt7__cxx1112basic_stringIcSt11char_traitsIcESaIcEEEE11_M_max_sizeEv = comdat any

$_ZN9__gnu_cxx17__normal_iteratorIPNSt7__cxx1112basic_stringIcSt11char_traitsIcESaIcEEESt6vectorIS6_SaIS6_EEEC2ERKS7_ = comdat any

$_ZNSt16allocator_traitsISaINSt7__cxx1112basic_stringIcSt11char_traitsIcESaIcEEEEE8allocateERS6_m = comdat any

$_ZNSt15__new_allocatorINSt7__cxx1112basic_stringIcSt11char_traitsIcESaIcEEEE8allocateEmPKv = comdat any

$_ZSt12__relocate_aIPNSt7__cxx1112basic_stringIcSt11char_traitsIcESaIcEEES6_SaIS5_EET0_T_S9_S8_RT1_ = comdat any

$_ZSt14__relocate_a_1IPNSt7__cxx1112basic_stringIcSt11char_traitsIcESaIcEEES6_SaIS5_EET0_T_S9_S8_RT1_ = comdat any

$_ZSt12__niter_baseIPNSt7__cxx1112basic_stringIcSt11char_traitsIcESaIcEEEET_S7_ = comdat any

$_ZSt19__relocate_object_aINSt7__cxx1112basic_stringIcSt11char_traitsIcESaIcEEES5_SaIS5_EEvPT_PT0_RT1_ = comdat any

$_ZNSt16allocator_traitsISaINSt7__cxx1112basic_stringIcSt11char_traitsIcESaIcEEEEE7destroyIS5_EEvRS6_PT_ = comdat any

$_ZNSt15__new_allocatorINSt7__cxx1112basic_stringIcSt11char_traitsIcESaIcEEEE7destroyIS5_EEvPT_ = comdat any

$_ZNK9__gnu_cxx17__normal_iteratorIPNSt7__cxx1112basic_stringIcSt11char_traitsIcESaIcEEESt6vectorIS6_SaIS6_EEEmiEl = comdat any

$_ZNK9__gnu_cxx17__normal_iteratorIPNSt7__cxx1112basic_stringIcSt11char_traitsIcESaIcEEESt6vectorIS6_SaIS6_EEEdeEv = comdat any

$_ZN4node11SPrintFImplB5cxx11EPKc = comdat any

$_ZNSt7__cxx1112basic_stringIcSt11char_traitsIcESaIcEEC2IS3_EEPKcRKS3_ = comdat any

$_ZStplIcSt11char_traitsIcESaIcEENSt7__cxx1112basic_stringIT_T0_T1_EEOS8_S9_ = comdat any

$_ZNSt7__cxx1112basic_stringIcSt11char_traitsIcESaIcEEC2IPKcvEET_S8_RKS3_ = comdat any

$_ZNSt7__cxx1112basic_stringIcSt11char_traitsIcESaIcEE12_M_constructIPKcEEvT_S8_St20forward_iterator_tag = comdat any

$_ZSt8distanceIPKcENSt15iterator_traitsIT_E15difference_typeES3_S3_ = comdat any

$_ZZNSt7__cxx1112basic_stringIcSt11char_traitsIcESaIcEE12_M_constructIPKcEEvT_S8_St20forward_iterator_tagEN6_GuardC2EPS4_ = comdat any

$_ZZNSt7__cxx1112basic_stringIcSt11char_traitsIcESaIcEE12_M_constructIPKcEEvT_S8_St20forward_iterator_tagEN6_GuardD2Ev = comdat any

$_ZSt10__distanceIPKcENSt15iterator_traitsIT_E15difference_typeES3_S3_St26random_access_iterator_tag = comdat any

$_ZSt19__iterator_categoryIPKcENSt15iterator_traitsIT_E17iterator_categoryERKS3_ = comdat any

$_ZN4node9MutexBaseINS_16LibuvMutexTraitsEE10ScopedLockC2ERKS2_ = comdat any

$_ZN4node9MutexBaseINS_16LibuvMutexTraitsEE10ScopedLockD2Ev = comdat any

$_ZN4node16LibuvMutexTraits10mutex_lockEP15pthread_mutex_t = comdat any

$_ZN4node16LibuvMutexTraits12mutex_unlockEP15pthread_mutex_t = comdat any

$_ZN4node6crypto9CryptoJobINS0_18SecretKeyGenTraitsEE10InitializeEPFvRKN2v820FunctionCallbackInfoINS4_5ValueEEEEPNS_11EnvironmentENS4_5LocalINS4_6ObjectEEE = comdat any

$_ZN4node6crypto9KeyGenJobINS0_18SecretKeyGenTraitsEE3NewERKN2v820FunctionCallbackInfoINS4_5ValueEEE = comdat any

$_ZN4node6crypto9CryptoJobINS0_18SecretKeyGenTraitsEE3RunERKN2v820FunctionCallbackInfoINS4_5ValueEEE = comdat any

$_ZNK4node6crypto9CryptoJobINS0_18SecretKeyGenTraitsEE4modeEv = comdat any

$_ZN4node6crypto18SecretKeyGenConfigC2Ev = comdat any

$_ZN4node6crypto9KeyGenJobINS0_18SecretKeyGenTraitsEEC2EPNS_11EnvironmentEN2v85LocalINS6_6ObjectEEENS0_13CryptoJobModeEONS0_18SecretKeyGenConfigE = comdat any

$_ZN4node6crypto9CryptoJobINS0_18SecretKeyGenTraitsEEC2EPNS_11EnvironmentEN2v85LocalINS6_6ObjectEEENS_9AsyncWrap12ProviderTypeENS0_13CryptoJobModeEONS0_18SecretKeyGenConfigE = comdat any

$_ZN4node6crypto9KeyGenJobINS0_18SecretKeyGenTraitsEED2Ev = comdat any

$_ZN4node6crypto9KeyGenJobINS0_18SecretKeyGenTraitsEED0Ev = comdat any

$_ZNK4node6crypto9CryptoJobINS0_18SecretKeyGenTraitsEE10MemoryInfoEPNS_13MemoryTrackerE = comdat any

$_ZNK4node6crypto9CryptoJobINS0_18SecretKeyGenTraitsEE14MemoryInfoNameEv = comdat any

$_ZNK4node6crypto9KeyGenJobINS0_18SecretKeyGenTraitsEE8SelfSizeEv = comdat any

$_ZNK4node6crypto9CryptoJobINS0_18SecretKeyGenTraitsEE33IsNotIndicativeOfMemoryLeakAtExitEv = comdat any

$_ZN4node6crypto9CryptoJobINS0_18SecretKeyGenTraitsEE19AfterThreadPoolWorkEi = comdat any

$_ZN4node6crypto9KeyGenJobINS0_18SecretKeyGenTraitsEE8ToResultEPN2v85LocalINS4_5ValueEEES8_ = comdat any

$_ZN4node6crypto9KeyGenJobINS0_18SecretKeyGenTraitsEE16DoThreadPoolWorkEv = comdat any

$_ZThn56_N4node6crypto9KeyGenJobINS0_18SecretKeyGenTraitsEED1Ev = comdat any

$_ZThn56_N4node6crypto9KeyGenJobINS0_18SecretKeyGenTraitsEED0Ev = comdat any

$_ZThn56_N4node6crypto9KeyGenJobINS0_18SecretKeyGenTraitsEE16DoThreadPoolWorkEv = comdat any

$_ZThn56_N4node6crypto9CryptoJobINS0_18SecretKeyGenTraitsEE19AfterThreadPoolWorkEi = comdat any

$_ZN4node6crypto18SecretKeyGenConfigC2EOS1_ = comdat any

$_ZN4node6crypto9CryptoJobINS0_18SecretKeyGenTraitsEED2Ev = comdat any

$_ZN4node6crypto9CryptoJobINS0_18SecretKeyGenTraitsEED0Ev = comdat any

$_ZThn56_N4node6crypto9CryptoJobINS0_18SecretKeyGenTraitsEED1Ev = comdat any

$_ZThn56_N4node6crypto9CryptoJobINS0_18SecretKeyGenTraitsEED0Ev = comdat any

$_ZNSt10unique_ptrIN4node6crypto9CryptoJobINS1_18SecretKeyGenTraitsEEESt14default_deleteIS4_EEC2IS6_vEEPS4_ = comdat any

$_ZNKSt10unique_ptrIN4node6crypto9CryptoJobINS1_18SecretKeyGenTraitsEEESt14default_deleteIS4_EEptEv = comdat any

$_ZNSt10unique_ptrIN4node6crypto9CryptoJobINS1_18SecretKeyGenTraitsEEESt14default_deleteIS4_EED2Ev = comdat any

$_ZNSt15__uniq_ptr_dataIN4node6crypto9CryptoJobINS1_18SecretKeyGenTraitsEEESt14default_deleteIS4_ELb1ELb1EECI2St15__uniq_ptr_implIS4_S6_EEPS4_ = comdat any

$_ZNSt15__uniq_ptr_implIN4node6crypto9CryptoJobINS1_18SecretKeyGenTraitsEEESt14default_deleteIS4_EEC2EPS4_ = comdat any

$_ZNSt5tupleIJPN4node6crypto9CryptoJobINS1_18SecretKeyGenTraitsEEESt14default_deleteIS4_EEEC2ILb1ETnNSt9enable_ifIXclsr17_TupleConstraintsIXT_ES5_S7_EE37__is_implicitly_default_constructibleEEbE4typeELb1EEEv = comdat any

$_ZNSt15__uniq_ptr_implIN4node6crypto9CryptoJobINS1_18SecretKeyGenTraitsEEESt14default_deleteIS4_EE6_M_ptrEv = comdat any

$_ZNSt11_Tuple_implILm0EJPN4node6crypto9CryptoJobINS1_18SecretKeyGenTraitsEEESt14default_deleteIS4_EEEC2Ev = comdat any

$_ZNSt11_Tuple_implILm1EJSt14default_deleteIN4node6crypto9CryptoJobINS2_18SecretKeyGenTraitsEEEEEEC2Ev = comdat any

$_ZNSt10_Head_baseILm0EPN4node6crypto9CryptoJobINS1_18SecretKeyGenTraitsEEELb0EEC2Ev = comdat any

$_ZNSt10_Head_baseILm1ESt14default_deleteIN4node6crypto9CryptoJobINS2_18SecretKeyGenTraitsEEEELb1EEC2Ev = comdat any

$_ZSt3getILm0EJPN4node6crypto9CryptoJobINS1_18SecretKeyGenTraitsEEESt14default_deleteIS4_EEERNSt13tuple_elementIXT_ESt5tupleIJDpT0_EEE4typeERSC_ = comdat any

$_ZSt12__get_helperILm0EPN4node6crypto9CryptoJobINS1_18SecretKeyGenTraitsEEEJSt14default_deleteIS4_EEERT0_RSt11_Tuple_implIXT_EJS8_DpT1_EE = comdat any

$_ZNSt11_Tuple_implILm0EJPN4node6crypto9CryptoJobINS1_18SecretKeyGenTraitsEEESt14default_deleteIS4_EEE7_M_headERS8_ = comdat any

$_ZNSt10_Head_baseILm0EPN4node6crypto9CryptoJobINS1_18SecretKeyGenTraitsEEELb0EE7_M_headERS6_ = comdat any

$_ZNKSt10unique_ptrIN4node6crypto9CryptoJobINS1_18SecretKeyGenTraitsEEESt14default_deleteIS4_EE3getEv = comdat any

$_ZNKSt15__uniq_ptr_implIN4node6crypto9CryptoJobINS1_18SecretKeyGenTraitsEEESt14default_deleteIS4_EE6_M_ptrEv = comdat any

$_ZSt3getILm0EJPN4node6crypto9CryptoJobINS1_18SecretKeyGenTraitsEEESt14default_deleteIS4_EEERKNSt13tuple_elementIXT_ESt5tupleIJDpT0_EEE4typeERKSC_ = comdat any

$_ZSt12__get_helperILm0EPN4node6crypto9CryptoJobINS1_18SecretKeyGenTraitsEEEJSt14default_deleteIS4_EEERKT0_RKSt11_Tuple_implIXT_EJS8_DpT1_EE = comdat any

$_ZNSt11_Tuple_implILm0EJPN4node6crypto9CryptoJobINS1_18SecretKeyGenTraitsEEESt14default_deleteIS4_EEE7_M_headERKS8_ = comdat any

$_ZNSt10_Head_baseILm0EPN4node6crypto9CryptoJobINS1_18SecretKeyGenTraitsEEELb0EE7_M_headERKS6_ = comdat any

$_ZNSt10unique_ptrIN4node6crypto9CryptoJobINS1_18SecretKeyGenTraitsEEESt14default_deleteIS4_EE11get_deleterEv = comdat any

$_ZNKSt14default_deleteIN4node6crypto9CryptoJobINS1_18SecretKeyGenTraitsEEEEclEPS4_ = comdat any

$_ZNSt15__uniq_ptr_implIN4node6crypto9CryptoJobINS1_18SecretKeyGenTraitsEEESt14default_deleteIS4_EE10_M_deleterEv = comdat any

$_ZSt3getILm1EJPN4node6crypto9CryptoJobINS1_18SecretKeyGenTraitsEEESt14default_deleteIS4_EEERNSt13tuple_elementIXT_ESt5tupleIJDpT0_EEE4typeERSC_ = comdat any

$_ZSt12__get_helperILm1ESt14default_deleteIN4node6crypto9CryptoJobINS2_18SecretKeyGenTraitsEEEEJEERT0_RSt11_Tuple_implIXT_EJS7_DpT1_EE = comdat any

$_ZNSt11_Tuple_implILm1EJSt14default_deleteIN4node6crypto9CryptoJobINS2_18SecretKeyGenTraitsEEEEEE7_M_headERS7_ = comdat any

$_ZNSt10_Head_baseILm1ESt14default_deleteIN4node6crypto9CryptoJobINS2_18SecretKeyGenTraitsEEEELb1EE7_M_headERS7_ = comdat any

$_ZN4node6crypto9CryptoJobINS0_18SecretKeyGenTraitsEE6errorsEv = comdat any

$_ZN4node6crypto9CryptoJobINS0_18SecretKeyGenTraitsEE6paramsEv = comdat any

$_ZN4node6crypto9CryptoJobINS0_16KeyPairGenTraitsINS0_19NidKeyPairGenTraitsEEEE26RegisterExternalReferencesEPFvRKN2v820FunctionCallbackInfoINS6_5ValueEEEEPNS_25ExternalReferenceRegistryE = comdat any

$_ZN4node25ExternalReferenceRegistry8RegisterEPFvRKN2v820FunctionCallbackInfoINS1_5ValueEEEE = comdat any

$_ZN4node25ExternalReferenceRegistry9RegisterTIFvRKN2v820FunctionCallbackInfoINS2_5ValueEEEEEEvPT_ = comdat any

$_ZNSt6vectorIlSaIlEE9push_backEOl = comdat any

$_ZNSt6vectorIlSaIlEE12emplace_backIJlEEERlDpOT_ = comdat any

$_ZNSt16allocator_traitsISaIlEE9constructIlJlEEEvRS0_PT_DpOT0_ = comdat any

$_ZNSt6vectorIlSaIlEE17_M_realloc_insertIJlEEEvN9__gnu_cxx17__normal_iteratorIPlS1_EEDpOT_ = comdat any

$_ZNSt6vectorIlSaIlEE3endEv = comdat any

$_ZNSt6vectorIlSaIlEE4backEv = comdat any

$_ZNSt15__new_allocatorIlE9constructIlJlEEEvPT_DpOT0_ = comdat any

$_ZNKSt6vectorIlSaIlEE12_M_check_lenEmPKc = comdat any

$_ZN9__gnu_cxxmiIPlSt6vectorIlSaIlEEEENS_17__normal_iteratorIT_T0_E15difference_typeERKS8_SB_ = comdat any

$_ZNSt6vectorIlSaIlEE5beginEv = comdat any

$_ZNSt12_Vector_baseIlSaIlEE11_M_allocateEm = comdat any

$_ZNSt6vectorIlSaIlEE11_S_relocateEPlS2_S2_RS0_ = comdat any

$_ZNK9__gnu_cxx17__normal_iteratorIPlSt6vectorIlSaIlEEE4baseEv = comdat any

$_ZNSt12_Vector_baseIlSaIlEE19_M_get_Tp_allocatorEv = comdat any

$_ZNSt12_Vector_baseIlSaIlEE13_M_deallocateEPlm = comdat any

$_ZNKSt6vectorIlSaIlEE8max_sizeEv = comdat any

$_ZNKSt6vectorIlSaIlEE4sizeEv = comdat any

$_ZNSt6vectorIlSaIlEE11_S_max_sizeERKS0_ = comdat any

$_ZNKSt12_Vector_baseIlSaIlEE19_M_get_Tp_allocatorEv = comdat any

$_ZNSt16allocator_traitsISaIlEE8max_sizeERKS0_ = comdat any

$_ZNKSt15__new_allocatorIlE8max_sizeEv = comdat any

$_ZNKSt15__new_allocatorIlE11_M_max_sizeEv = comdat any

$_ZN9__gnu_cxx17__normal_iteratorIPlSt6vectorIlSaIlEEEC2ERKS1_ = comdat any

$_ZNSt16allocator_traitsISaIlEE8allocateERS0_m = comdat any

$_ZNSt15__new_allocatorIlE8allocateEmPKv = comdat any

$_ZSt12__relocate_aIPlS0_SaIlEET0_T_S3_S2_RT1_ = comdat any

$_ZSt14__relocate_a_1IllENSt9enable_ifIXsr3std24__is_bitwise_relocatableIT_EE5valueEPS1_E4typeES2_S2_S2_RSaIT0_E = comdat any

$_ZSt12__niter_baseIPlET_S1_ = comdat any

$_ZNSt16allocator_traitsISaIlEE10deallocateERS0_Plm = comdat any

$_ZNSt15__new_allocatorIlE10deallocateEPlm = comdat any

$_ZNK9__gnu_cxx17__normal_iteratorIPlSt6vectorIlSaIlEEEmiEl = comdat any

$_ZNK9__gnu_cxx17__normal_iteratorIPlSt6vectorIlSaIlEEEdeEv = comdat any

$_ZN4node6crypto9CryptoJobINS0_18SecretKeyGenTraitsEE26RegisterExternalReferencesEPFvRKN2v820FunctionCallbackInfoINS4_5ValueEEEEPNS_25ExternalReferenceRegistryE = comdat any

$_ZSt7nullopt = comdat any

$_ZTVN4node18MemoryRetainerNodeE = comdat any

$_ZTVN2v813EmbedderGraph4NodeE = comdat any

$_ZZN4node6crypto13MallocOpenSSLIcEEPT_mE4args = comdat any

$_ZZN4node25MultiplyWithOverflowCheckImEET_S1_S1_E4args = comdat any

$_ZZNO4node6crypto10ByteSource7Builder7releaseESt8optionalImEE4args = comdat any

$_ZZN4node14ThreadPoolWork12ScheduleWorkEvE27trace_event_unique_atomic36 = comdat any

$_ZZN4node14ThreadPoolWork12ScheduleWorkEvE4args = comdat any

$_ZZN4node7tracing16TraceEventHelper23GetCategoryGroupEnabledEPKcE8disabled = comdat any

$_ZZZN4node14ThreadPoolWork12ScheduleWorkEvENKUlP9uv_work_sE_clES2_E27trace_event_unique_atomic43 = comdat any

$_ZZZN4node14ThreadPoolWork12ScheduleWorkEvENKUlP9uv_work_sE_clES2_E27trace_event_unique_atomic46 = comdat any

$_ZZZN4node14ThreadPoolWork12ScheduleWorkEvENKUlP9uv_work_siE_clES2_iE27trace_event_unique_atomic56 = comdat any

$_ZZN4node11Environment29DecreaseWaitingRequestCounterEvE4args = comdat any

$_ZZN4node6crypto9KeyGenJobINS0_16KeyPairGenTraitsINS0_19NidKeyPairGenTraitsEEEE3NewERKN2v820FunctionCallbackInfoINS6_5ValueEEEE4args = comdat any

$_ZTVN4node6crypto16KeyPairGenConfigINS0_16NidKeyPairParamsEEE = comdat any

$_ZTVN4node14MemoryRetainerE = comdat any

$_ZTVSt23_Sp_counted_ptr_inplaceIN4node9MutexBaseINS0_16LibuvMutexTraitsEEESaIvELN9__gnu_cxx12_Lock_policyE2EE = comdat any

$_ZTVSt16_Sp_counted_baseILN9__gnu_cxx12_Lock_policyE2EE = comdat any

$_ZZN4node9MutexBaseINS_16LibuvMutexTraitsEEC1EvE4args = comdat any

$_ZZNSt19_Sp_make_shared_tag5_S_tiEvE5__tag = comdat any

$_ZTVN4node6crypto16NidKeyPairParamsE = comdat any

$_ZZN4node13MemoryTracker5TrackEPKNS_14MemoryRetainerEPKcE4args = comdat any

$_ZZN4node13MemoryTracker5TrackEPKNS_14MemoryRetainerEPKcE4args_0 = comdat any

$_ZZN4node18MemoryRetainerNodeC1EPNS_13MemoryTrackerEPKNS_14MemoryRetainerEE4args = comdat any

$_ZSt19piecewise_construct = comdat any

$_ZZNK4node16NonCopyableMaybeINS_6crypto10ByteSourceEEptEvE4args = comdat any

$_ZZN4node16NonCopyableMaybeINS_6crypto24PrivateKeyEncodingConfigEE7ReleaseEvE4args = comdat any

$_ZTVN4node6crypto9KeyGenJobINS0_16KeyPairGenTraitsINS0_19NidKeyPairGenTraitsEEEEE = comdat any

$_ZTVN4node6crypto9CryptoJobINS0_16KeyPairGenTraitsINS0_19NidKeyPairGenTraitsEEEEE = comdat any

$_ZTVN4node14ThreadPoolWorkE = comdat any

$_ZZN4node14ThreadPoolWorkC1EPNS_11EnvironmentEPKcE4args = comdat any

$_ZTVN4node6crypto16CryptoErrorStoreE = comdat any

$_ZZN4node6crypto9CryptoJobINS0_16KeyPairGenTraitsINS0_19NidKeyPairGenTraitsEEEE19AfterThreadPoolWorkEiE4args = comdat any

$_ZZN4node6crypto9CryptoJobINS0_16KeyPairGenTraitsINS0_19NidKeyPairGenTraitsEEEE19AfterThreadPoolWorkEiE4args_0 = comdat any

$_ZZN4node6crypto9CryptoJobINS0_16KeyPairGenTraitsINS0_19NidKeyPairGenTraitsEEEE19AfterThreadPoolWorkEiE4args_1 = comdat any

$_ZZN4node6crypto9KeyGenJobINS0_16KeyPairGenTraitsINS0_19NidKeyPairGenTraitsEEEE8ToResultEPN2v85LocalINS6_5ValueEEESA_E4args = comdat any

$_ZZN4node11SPrintFImplB5cxx11EPKcE4args = comdat any

$_ZZN4node6crypto9KeyGenJobINS0_18SecretKeyGenTraitsEE3NewERKN2v820FunctionCallbackInfoINS4_5ValueEEEE4args = comdat any

$_ZTVN4node6crypto9KeyGenJobINS0_18SecretKeyGenTraitsEEE = comdat any

$_ZTVN4node6crypto9CryptoJobINS0_18SecretKeyGenTraitsEEE = comdat any

$_ZZN4node6crypto9CryptoJobINS0_18SecretKeyGenTraitsEE19AfterThreadPoolWorkEiE4args = comdat any

$_ZZN4node6crypto9CryptoJobINS0_18SecretKeyGenTraitsEE19AfterThreadPoolWorkEiE4args_0 = comdat any

$_ZZN4node6crypto9CryptoJobINS0_18SecretKeyGenTraitsEE19AfterThreadPoolWorkEiE4args_1 = comdat any

$_ZZN4node6crypto9KeyGenJobINS0_18SecretKeyGenTraitsEE8ToResultEPN2v85LocalINS4_5ValueEEES8_E4args = comdat any

@_ZStL8__ioinit = internal global %"class.std::ios_base::Init" zeroinitializer, align 1
@__dso_handle = external hidden global i8
@_ZZN4node6crypto19NidKeyPairGenTraits16AdditionalConfigENS0_13CryptoJobModeERKN2v820FunctionCallbackInfoINS3_5ValueEEEPjPNS0_16KeyPairGenConfigINS0_16NidKeyPairParamsEEEE4args = internal constant %"struct.node::AssertionInfo" { ptr @.str, ptr @.str.1, ptr @.str.2 }, align 8
@.str = private unnamed_addr constant [37 x i8] c"../../src/crypto/crypto_keygen.cc:38\00", align 1
@.str.1 = private unnamed_addr constant [25 x i8] c"args[*offset]->IsInt32()\00", align 1
@.str.2 = private unnamed_addr constant [162 x i8] c"static Maybe<bool> node::crypto::NidKeyPairGenTraits::AdditionalConfig(CryptoJobMode, const FunctionCallbackInfo<Value> &, unsigned int *, NidKeyPairGenConfig *)\00", align 1
@.str.3 = private unnamed_addr constant [4 x i8] c"out\00", align 1
@_ZZN4node6crypto18SecretKeyGenTraits16AdditionalConfigENS0_13CryptoJobModeERKN2v820FunctionCallbackInfoINS3_5ValueEEEPjPNS0_18SecretKeyGenConfigEE4args = internal constant %"struct.node::AssertionInfo" { ptr @.str.4, ptr @.str.5, ptr @.str.6 }, align 8
@.str.4 = private unnamed_addr constant [37 x i8] c"../../src/crypto/crypto_keygen.cc:64\00", align 1
@.str.5 = private unnamed_addr constant [26 x i8] c"args[*offset]->IsUint32()\00", align 1
@.str.6 = private unnamed_addr constant [160 x i8] c"static Maybe<bool> node::crypto::SecretKeyGenTraits::AdditionalConfig(CryptoJobMode, const FunctionCallbackInfo<Value> &, unsigned int *, SecretKeyGenConfig *)\00", align 1
@_ZSt7nullopt = linkonce_odr dso_local constant %"struct.std::nullopt_t" undef, comdat, align 1
@_ZTVN4node6crypto18SecretKeyGenConfigE = dso_local unnamed_addr constant { [10 x ptr] } { [10 x ptr] [ptr null, ptr null, ptr @_ZN4node6crypto18SecretKeyGenConfigD2Ev, ptr @_ZN4node6crypto18SecretKeyGenConfigD0Ev, ptr @_ZNK4node6crypto18SecretKeyGenConfig10MemoryInfoEPNS_13MemoryTrackerE, ptr @_ZNK4node6crypto18SecretKeyGenConfig14MemoryInfoNameEv, ptr @_ZNK4node6crypto18SecretKeyGenConfig8SelfSizeEv, ptr @_ZNK4node14MemoryRetainer13WrappedObjectEv, ptr @_ZNK4node14MemoryRetainer10IsRootNodeEv, ptr @_ZNK4node14MemoryRetainer15GetDetachednessEv] }, align 8
@_ZTVN4node18MemoryRetainerNodeE = linkonce_odr dso_local unnamed_addr constant { [13 x ptr] } { [13 x ptr] [ptr null, ptr null, ptr @_ZN4node18MemoryRetainerNodeD2Ev, ptr @_ZN4node18MemoryRetainerNodeD0Ev, ptr @_ZN4node18MemoryRetainerNode4NameEv, ptr @_ZN4node18MemoryRetainerNode11SizeInBytesEv, ptr @_ZN2v813EmbedderGraph4Node11WrapperNodeEv, ptr @_ZN4node18MemoryRetainerNode10IsRootNodeEv, ptr @_ZN2v813EmbedderGraph4Node14IsEmbedderNodeEv, ptr @_ZN4node18MemoryRetainerNode10NamePrefixEv, ptr @_ZN2v813EmbedderGraph4Node15GetNativeObjectEv, ptr @_ZN4node18MemoryRetainerNode15GetDetachednessEv, ptr @_ZN2v813EmbedderGraph4Node10GetAddressEv] }, comdat, align 8
@_ZTVN2v813EmbedderGraph4NodeE = linkonce_odr dso_local unnamed_addr constant { [13 x ptr] } { [13 x ptr] [ptr null, ptr null, ptr @_ZN2v813EmbedderGraph4NodeD2Ev, ptr @_ZN2v813EmbedderGraph4NodeD0Ev, ptr @__cxa_pure_virtual, ptr @__cxa_pure_virtual, ptr @_ZN2v813EmbedderGraph4Node11WrapperNodeEv, ptr @_ZN2v813EmbedderGraph4Node10IsRootNodeEv, ptr @_ZN2v813EmbedderGraph4Node14IsEmbedderNodeEv, ptr @_ZN2v813EmbedderGraph4Node10NamePrefixEv, ptr @_ZN2v813EmbedderGraph4Node15GetNativeObjectEv, ptr @_ZN2v813EmbedderGraph4Node15GetDetachednessEv, ptr @_ZN2v813EmbedderGraph4Node10GetAddressEv] }, comdat, align 8
@.str.7 = private unnamed_addr constant [7 x i8] c"Node /\00", align 1
@.str.8 = private unnamed_addr constant [1 x i8] zeroinitializer, align 1
@.str.9 = private unnamed_addr constant [31 x i8] c"../../src/crypto/crypto_util.h\00", align 1
@_ZZN4node6crypto13MallocOpenSSLIcEEPT_mE4args = linkonce_odr dso_local constant %"struct.node::AssertionInfo" { ptr @.str.10, ptr @.str.11, ptr @.str.12 }, comdat, align 8
@.str.10 = private unnamed_addr constant [35 x i8] c"../../src/crypto/crypto_util.h:206\00", align 1
@.str.11 = private unnamed_addr constant [34 x i8] c"!(mem == nullptr) || (count == 0)\00", align 1
@.str.12 = private unnamed_addr constant [50 x i8] c"T *node::crypto::MallocOpenSSL(size_t) [T = char]\00", align 1
@_ZZN4node25MultiplyWithOverflowCheckImEET_S1_S1_E4args = linkonce_odr dso_local constant %"struct.node::AssertionInfo" { ptr @.str.13, ptr @.str.14, ptr @.str.15 }, comdat, align 8
@.str.13 = private unnamed_addr constant [25 x i8] c"../../src/util-inl.h:329\00", align 1
@.str.14 = private unnamed_addr constant [17 x i8] c"(b) == (ret / a)\00", align 1
@.str.15 = private unnamed_addr constant [60 x i8] c"T node::MultiplyWithOverflowCheck(T, T) [T = unsigned long]\00", align 1
@_ZZNO4node6crypto10ByteSource7Builder7releaseESt8optionalImEE4args = linkonce_odr dso_local constant %"struct.node::AssertionInfo" { ptr @.str.16, ptr @.str.17, ptr @.str.18 }, comdat, align 8
@.str.16 = private unnamed_addr constant [35 x i8] c"../../src/crypto/crypto_util.h:240\00", align 1
@.str.17 = private unnamed_addr constant [21 x i8] c"(*resize) <= (size_)\00", align 1
@.str.18 = private unnamed_addr constant [80 x i8] c"ByteSource node::crypto::ByteSource::Builder::release(std::optional<size_t>) &&\00", align 1
@__libc_single_threaded = external global i8, align 1
@.str.19 = private unnamed_addr constant [19 x i8] c"SecretKeyGenConfig\00", align 1
@.str.20 = private unnamed_addr constant [4 x i8] c"run\00", align 1
@.str.21 = private unnamed_addr constant [17 x i8] c"NidKeyPairGenJob\00", align 1
@_ZN4node18ContextEmbedderTag18kNodeContextTagPtrE = external constant ptr, align 8
@_ZZN4node14ThreadPoolWork12ScheduleWorkEvE27trace_event_unique_atomic36 = linkonce_odr dso_local global { i64 } zeroinitializer, comdat, align 8
@.str.22 = private unnamed_addr constant [51 x i8] c"node,node.threadpoolwork,node.threadpoolwork.async\00", align 1
@_ZZN4node14ThreadPoolWork12ScheduleWorkEvE4args = linkonce_odr dso_local constant %"struct.node::AssertionInfo" { ptr @.str.23, ptr @.str.24, ptr @.str.25 }, comdat, align 8
@.str.23 = private unnamed_addr constant [34 x i8] c"../../src/threadpoolwork-inl.h:59\00", align 1
@.str.24 = private unnamed_addr constant [16 x i8] c"(status) == (0)\00", align 1
@.str.25 = private unnamed_addr constant [42 x i8] c"void node::ThreadPoolWork::ScheduleWork()\00", align 1
@_ZZN4node7tracing16TraceEventHelper23GetCategoryGroupEnabledEPKcE8disabled = linkonce_odr dso_local constant i8 0, comdat, align 1
@_ZZZN4node14ThreadPoolWork12ScheduleWorkEvENKUlP9uv_work_sE_clES2_E27trace_event_unique_atomic43 = linkonce_odr dso_local global { i64 } zeroinitializer, comdat, align 8
@.str.26 = private unnamed_addr constant [50 x i8] c"node,node.threadpoolwork,node.threadpoolwork.sync\00", align 1
@_ZN4node7tracingL12kGlobalScopeE = internal constant ptr null, align 8
@_ZZZN4node14ThreadPoolWork12ScheduleWorkEvENKUlP9uv_work_sE_clES2_E27trace_event_unique_atomic46 = linkonce_odr dso_local global { i64 } zeroinitializer, comdat, align 8
@_ZZZN4node14ThreadPoolWork12ScheduleWorkEvENKUlP9uv_work_siE_clES2_iE27trace_event_unique_atomic56 = linkonce_odr dso_local global { i64 } zeroinitializer, comdat, align 8
@.str.27 = private unnamed_addr constant [7 x i8] c"result\00", align 1
@_ZZN4node11Environment29DecreaseWaitingRequestCounterEvE4args = linkonce_odr dso_local constant %"struct.node::AssertionInfo" { ptr @.str.28, ptr @.str.29, ptr @.str.30 }, comdat, align 8
@.str.28 = private unnamed_addr constant [24 x i8] c"../../src/env-inl.h:297\00", align 1
@.str.29 = private unnamed_addr constant [26 x i8] c"(request_waiting_) >= (0)\00", align 1
@.str.30 = private unnamed_addr constant [56 x i8] c"void node::Environment::DecreaseWaitingRequestCounter()\00", align 1
@_ZZN4node6crypto9KeyGenJobINS0_16KeyPairGenTraitsINS0_19NidKeyPairGenTraitsEEEE3NewERKN2v820FunctionCallbackInfoINS6_5ValueEEEE4args = linkonce_odr dso_local constant %"struct.node::AssertionInfo" { ptr @.str.31, ptr @.str.32, ptr @.str.33 }, comdat, align 8
@.str.31 = private unnamed_addr constant [36 x i8] c"../../src/crypto/crypto_keygen.h:37\00", align 1
@.str.32 = private unnamed_addr constant [23 x i8] c"args.IsConstructCall()\00", align 1
@.str.33 = private unnamed_addr constant [236 x i8] c"static void node::crypto::KeyGenJob<node::crypto::KeyPairGenTraits<node::crypto::NidKeyPairGenTraits>>::New(const v8::FunctionCallbackInfo<v8::Value> &) [KeyGenTraits = node::crypto::KeyPairGenTraits<node::crypto::NidKeyPairGenTraits>]\00", align 1
@_ZTVN4node6crypto16KeyPairGenConfigINS0_16NidKeyPairParamsEEE = linkonce_odr dso_local unnamed_addr constant { [10 x ptr] } { [10 x ptr] [ptr null, ptr null, ptr @_ZN4node6crypto16KeyPairGenConfigINS0_16NidKeyPairParamsEED2Ev, ptr @_ZN4node6crypto16KeyPairGenConfigINS0_16NidKeyPairParamsEED0Ev, ptr @_ZNK4node6crypto16KeyPairGenConfigINS0_16NidKeyPairParamsEE10MemoryInfoEPNS_13MemoryTrackerE, ptr @_ZNK4node6crypto16KeyPairGenConfigINS0_16NidKeyPairParamsEE14MemoryInfoNameEv, ptr @_ZNK4node6crypto16KeyPairGenConfigINS0_16NidKeyPairParamsEE8SelfSizeEv, ptr @_ZNK4node14MemoryRetainer13WrappedObjectEv, ptr @_ZNK4node14MemoryRetainer10IsRootNodeEv, ptr @_ZNK4node14MemoryRetainer15GetDetachednessEv] }, comdat, align 8
@_ZTVN4node14MemoryRetainerE = linkonce_odr dso_local unnamed_addr constant { [10 x ptr] } { [10 x ptr] [ptr null, ptr null, ptr @_ZN4node14MemoryRetainerD2Ev, ptr @_ZN4node14MemoryRetainerD0Ev, ptr @__cxa_pure_virtual, ptr @__cxa_pure_virtual, ptr @__cxa_pure_virtual, ptr @_ZNK4node14MemoryRetainer13WrappedObjectEv, ptr @_ZNK4node14MemoryRetainer10IsRootNodeEv, ptr @_ZNK4node14MemoryRetainer15GetDetachednessEv] }, comdat, align 8
@_ZTVN4node6crypto14ManagedEVPPKeyE = external unnamed_addr constant { [10 x ptr] }, align 8
@_ZTVSt23_Sp_counted_ptr_inplaceIN4node9MutexBaseINS0_16LibuvMutexTraitsEEESaIvELN9__gnu_cxx12_Lock_policyE2EE = linkonce_odr dso_local unnamed_addr constant { [7 x ptr] } { [7 x ptr] [ptr null, ptr null, ptr @_ZNSt23_Sp_counted_ptr_inplaceIN4node9MutexBaseINS0_16LibuvMutexTraitsEEESaIvELN9__gnu_cxx12_Lock_policyE2EED2Ev, ptr @_ZNSt23_Sp_counted_ptr_inplaceIN4node9MutexBaseINS0_16LibuvMutexTraitsEEESaIvELN9__gnu_cxx12_Lock_policyE2EED0Ev, ptr @_ZNSt23_Sp_counted_ptr_inplaceIN4node9MutexBaseINS0_16LibuvMutexTraitsEEESaIvELN9__gnu_cxx12_Lock_policyE2EE10_M_disposeEv, ptr @_ZNSt23_Sp_counted_ptr_inplaceIN4node9MutexBaseINS0_16LibuvMutexTraitsEEESaIvELN9__gnu_cxx12_Lock_policyE2EE10_M_destroyEv, ptr @_ZNSt23_Sp_counted_ptr_inplaceIN4node9MutexBaseINS0_16LibuvMutexTraitsEEESaIvELN9__gnu_cxx12_Lock_policyE2EE14_M_get_deleterERKSt9type_info] }, comdat, align 8
@_ZTVSt16_Sp_counted_baseILN9__gnu_cxx12_Lock_policyE2EE = linkonce_odr dso_local unnamed_addr constant { [7 x ptr] } { [7 x ptr] [ptr null, ptr null, ptr @_ZNSt16_Sp_counted_baseILN9__gnu_cxx12_Lock_policyE2EED2Ev, ptr @_ZNSt16_Sp_counted_baseILN9__gnu_cxx12_Lock_policyE2EED0Ev, ptr @__cxa_pure_virtual, ptr @_ZNSt16_Sp_counted_baseILN9__gnu_cxx12_Lock_policyE2EE10_M_destroyEv, ptr @__cxa_pure_virtual] }, comdat, align 8
@_ZZN4node9MutexBaseINS_16LibuvMutexTraitsEEC1EvE4args = linkonce_odr dso_local constant %"struct.node::AssertionInfo" { ptr @.str.34, ptr @.str.35, ptr @.str.36 }, comdat, align 8
@.str.34 = private unnamed_addr constant [27 x i8] c"../../src/node_mutex.h:254\00", align 1
@.str.35 = private unnamed_addr constant [37 x i8] c"(0) == (Traits::mutex_init(&mutex_))\00", align 1
@.str.36 = private unnamed_addr constant [87 x i8] c"node::MutexBase<node::LibuvMutexTraits>::MutexBase() [Traits = node::LibuvMutexTraits]\00", align 1
@_ZZNSt19_Sp_make_shared_tag5_S_tiEvE5__tag = linkonce_odr dso_local constant [16 x i8] zeroinitializer, comdat, align 8
@_ZTVN4node6crypto16NidKeyPairParamsE = linkonce_odr dso_local unnamed_addr constant { [10 x ptr] } { [10 x ptr] [ptr null, ptr null, ptr @_ZN4node6crypto16NidKeyPairParamsD2Ev, ptr @_ZN4node6crypto16NidKeyPairParamsD0Ev, ptr @_ZNK4node6crypto16NidKeyPairParams10MemoryInfoEPNS_13MemoryTrackerE, ptr @_ZNK4node6crypto16NidKeyPairParams14MemoryInfoNameEv, ptr @_ZNK4node6crypto16NidKeyPairParams8SelfSizeEv, ptr @_ZNK4node14MemoryRetainer13WrappedObjectEv, ptr @_ZNK4node14MemoryRetainer10IsRootNodeEv, ptr @_ZNK4node14MemoryRetainer15GetDetachednessEv] }, comdat, align 8
@.str.37 = private unnamed_addr constant [17 x i8] c"NidKeyPairParams\00", align 1
@.str.38 = private unnamed_addr constant [4 x i8] c"key\00", align 1
@.str.39 = private unnamed_addr constant [32 x i8] c"private_key_encoding.passphrase\00", align 1
@.str.40 = private unnamed_addr constant [7 x i8] c"params\00", align 1
@_ZZN4node13MemoryTracker5TrackEPKNS_14MemoryRetainerEPKcE4args = linkonce_odr dso_local constant %"struct.node::AssertionInfo" { ptr @.str.41, ptr @.str.42, ptr @.str.43 }, comdat, align 8
@.str.41 = private unnamed_addr constant [35 x i8] c"../../src/memory_tracker-inl.h:285\00", align 1
@.str.42 = private unnamed_addr constant [23 x i8] c"(CurrentNode()) == (n)\00", align 1
@.str.43 = private unnamed_addr constant [70 x i8] c"void node::MemoryTracker::Track(const MemoryRetainer *, const char *)\00", align 1
@_ZZN4node13MemoryTracker5TrackEPKNS_14MemoryRetainerEPKcE4args_0 = linkonce_odr dso_local constant %"struct.node::AssertionInfo" { ptr @.str.44, ptr @.str.45, ptr @.str.43 }, comdat, align 8
@.str.44 = private unnamed_addr constant [35 x i8] c"../../src/memory_tracker-inl.h:286\00", align 1
@.str.45 = private unnamed_addr constant [18 x i8] c"(n->size_) != (0)\00", align 1
@.str.46 = private unnamed_addr constant [21 x i8] c"native_to_javascript\00", align 1
@.str.47 = private unnamed_addr constant [21 x i8] c"javascript_to_native\00", align 1
@_ZZN4node18MemoryRetainerNodeC1EPNS_13MemoryTrackerEPKNS_14MemoryRetainerEE4args = linkonce_odr dso_local constant %"struct.node::AssertionInfo" { ptr @.str.48, ptr @.str.49, ptr @.str.50 }, comdat, align 8
@.str.48 = private unnamed_addr constant [34 x i8] c"../../src/memory_tracker-inl.h:28\00", align 1
@.str.49 = private unnamed_addr constant [23 x i8] c"(retainer_) != nullptr\00", align 1
@.str.50 = private unnamed_addr constant [86 x i8] c"node::MemoryRetainerNode::MemoryRetainerNode(MemoryTracker *, const MemoryRetainer *)\00", align 1
@_ZSt19piecewise_construct = linkonce_odr dso_local constant %"struct.std::piecewise_construct_t" zeroinitializer, comdat, align 1
@.str.51 = private unnamed_addr constant [48 x i8] c"cannot create std::deque larger than max_size()\00", align 1
@_ZZNK4node16NonCopyableMaybeINS_6crypto10ByteSourceEEptEvE4args = linkonce_odr dso_local constant %"struct.node::AssertionInfo" { ptr @.str.52, ptr @.str.53, ptr @.str.54 }, comdat, align 8
@.str.52 = private unnamed_addr constant [21 x i8] c"../../src/util.h:667\00", align 1
@.str.53 = private unnamed_addr constant [8 x i8] c"!empty_\00", align 1
@.str.54 = private unnamed_addr constant [109 x i8] c"const T *node::NonCopyableMaybe<node::crypto::ByteSource>::operator->() const [T = node::crypto::ByteSource]\00", align 1
@.str.55 = private unnamed_addr constant [17 x i8] c"KeyPairGenConfig\00", align 1
@_ZZN4node16NonCopyableMaybeINS_6crypto24PrivateKeyEncodingConfigEE7ReleaseEvE4args = linkonce_odr dso_local constant %"struct.node::AssertionInfo" { ptr @.str.56, ptr @.str.57, ptr @.str.58 }, comdat, align 8
@.str.56 = private unnamed_addr constant [21 x i8] c"../../src/util.h:672\00", align 1
@.str.57 = private unnamed_addr constant [20 x i8] c"(empty_) == (false)\00", align 1
@.str.58 = private unnamed_addr constant [123 x i8] c"T &&node::NonCopyableMaybe<node::crypto::PrivateKeyEncodingConfig>::Release() [T = node::crypto::PrivateKeyEncodingConfig]\00", align 1
@_ZTVN4node6crypto9KeyGenJobINS0_16KeyPairGenTraitsINS0_19NidKeyPairGenTraitsEEEEE = linkonce_odr dso_local unnamed_addr constant { [23 x ptr], [6 x ptr] } { [23 x ptr] [ptr null, ptr null, ptr @_ZN4node6crypto9KeyGenJobINS0_16KeyPairGenTraitsINS0_19NidKeyPairGenTraitsEEEED2Ev, ptr @_ZN4node6crypto9KeyGenJobINS0_16KeyPairGenTraitsINS0_19NidKeyPairGenTraitsEEEED0Ev, ptr @_ZNK4node6crypto9CryptoJobINS0_16KeyPairGenTraitsINS0_19NidKeyPairGenTraitsEEEE10MemoryInfoEPNS_13MemoryTrackerE, ptr @_ZNK4node6crypto9CryptoJobINS0_16KeyPairGenTraitsINS0_19NidKeyPairGenTraitsEEEE14MemoryInfoNameEv, ptr @_ZNK4node6crypto9KeyGenJobINS0_16KeyPairGenTraitsINS0_19NidKeyPairGenTraitsEEEE8SelfSizeEv, ptr @_ZNK4node10BaseObject13WrappedObjectEv, ptr @_ZNK4node10BaseObject10IsRootNodeEv, ptr @_ZNK4node10BaseObject15GetDetachednessEv, ptr @_ZNK4node9AsyncWrap18IsDoneInitializingEv, ptr @_ZNK4node10BaseObject15GetTransferModeEv, ptr @_ZN4node10BaseObject20TransferForMessagingEv, ptr @_ZNK4node10BaseObject17CloneForMessagingEv, ptr @_ZNK4node10BaseObject19NestedTransferablesEv, ptr @_ZN4node10BaseObject20FinalizeTransferReadEN2v85LocalINS1_7ContextEEEPNS1_17ValueDeserializerE, ptr @_ZNK4node6crypto9CryptoJobINS0_16KeyPairGenTraitsINS0_19NidKeyPairGenTraitsEEEE33IsNotIndicativeOfMemoryLeakAtExitEv, ptr @_ZN4node10BaseObject11OnGCCollectEv, ptr @_ZNK4node10BaseObject15is_snapshotableEv, ptr @_ZNK4node9AsyncWrap15diagnostic_nameB5cxx11Ev, ptr @_ZN4node6crypto9CryptoJobINS0_16KeyPairGenTraitsINS0_19NidKeyPairGenTraitsEEEE19AfterThreadPoolWorkEi, ptr @_ZN4node6crypto9KeyGenJobINS0_16KeyPairGenTraitsINS0_19NidKeyPairGenTraitsEEEE8ToResultEPN2v85LocalINS6_5ValueEEESA_, ptr @_ZN4node6crypto9KeyGenJobINS0_16KeyPairGenTraitsINS0_19NidKeyPairGenTraitsEEEE16DoThreadPoolWorkEv], [6 x ptr] [ptr inttoptr (i64 -56 to ptr), ptr null, ptr @_ZThn56_N4node6crypto9KeyGenJobINS0_16KeyPairGenTraitsINS0_19NidKeyPairGenTraitsEEEED1Ev, ptr @_ZThn56_N4node6crypto9KeyGenJobINS0_16KeyPairGenTraitsINS0_19NidKeyPairGenTraitsEEEED0Ev, ptr @_ZThn56_N4node6crypto9KeyGenJobINS0_16KeyPairGenTraitsINS0_19NidKeyPairGenTraitsEEEE16DoThreadPoolWorkEv, ptr @_ZThn56_N4node6crypto9CryptoJobINS0_16KeyPairGenTraitsINS0_19NidKeyPairGenTraitsEEEE19AfterThreadPoolWorkEi] }, comdat, align 8
@.str.59 = private unnamed_addr constant [7 x i8] c"crypto\00", align 1
@_ZTVN4node6crypto9CryptoJobINS0_16KeyPairGenTraitsINS0_19NidKeyPairGenTraitsEEEEE = linkonce_odr dso_local unnamed_addr constant { [22 x ptr], [6 x ptr] } { [22 x ptr] [ptr null, ptr null, ptr @_ZN4node6crypto9CryptoJobINS0_16KeyPairGenTraitsINS0_19NidKeyPairGenTraitsEEEED2Ev, ptr @_ZN4node6crypto9CryptoJobINS0_16KeyPairGenTraitsINS0_19NidKeyPairGenTraitsEEEED0Ev, ptr @_ZNK4node6crypto9CryptoJobINS0_16KeyPairGenTraitsINS0_19NidKeyPairGenTraitsEEEE10MemoryInfoEPNS_13MemoryTrackerE, ptr @_ZNK4node6crypto9CryptoJobINS0_16KeyPairGenTraitsINS0_19NidKeyPairGenTraitsEEEE14MemoryInfoNameEv, ptr @__cxa_pure_virtual, ptr @_ZNK4node10BaseObject13WrappedObjectEv, ptr @_ZNK4node10BaseObject10IsRootNodeEv, ptr @_ZNK4node10BaseObject15GetDetachednessEv, ptr @_ZNK4node9AsyncWrap18IsDoneInitializingEv, ptr @_ZNK4node10BaseObject15GetTransferModeEv, ptr @_ZN4node10BaseObject20TransferForMessagingEv, ptr @_ZNK4node10BaseObject17CloneForMessagingEv, ptr @_ZNK4node10BaseObject19NestedTransferablesEv, ptr @_ZN4node10BaseObject20FinalizeTransferReadEN2v85LocalINS1_7ContextEEEPNS1_17ValueDeserializerE, ptr @_ZNK4node6crypto9CryptoJobINS0_16KeyPairGenTraitsINS0_19NidKeyPairGenTraitsEEEE33IsNotIndicativeOfMemoryLeakAtExitEv, ptr @_ZN4node10BaseObject11OnGCCollectEv, ptr @_ZNK4node10BaseObject15is_snapshotableEv, ptr @_ZNK4node9AsyncWrap15diagnostic_nameB5cxx11Ev, ptr @_ZN4node6crypto9CryptoJobINS0_16KeyPairGenTraitsINS0_19NidKeyPairGenTraitsEEEE19AfterThreadPoolWorkEi, ptr @__cxa_pure_virtual], [6 x ptr] [ptr inttoptr (i64 -56 to ptr), ptr null, ptr @_ZThn56_N4node6crypto9CryptoJobINS0_16KeyPairGenTraitsINS0_19NidKeyPairGenTraitsEEEED1Ev, ptr @_ZThn56_N4node6crypto9CryptoJobINS0_16KeyPairGenTraitsINS0_19NidKeyPairGenTraitsEEEED0Ev, ptr @__cxa_pure_virtual, ptr @_ZThn56_N4node6crypto9CryptoJobINS0_16KeyPairGenTraitsINS0_19NidKeyPairGenTraitsEEEE19AfterThreadPoolWorkEi] }, comdat, align 8
@_ZTVN4node14ThreadPoolWorkE = linkonce_odr dso_local unnamed_addr constant { [6 x ptr] } { [6 x ptr] [ptr null, ptr null, ptr @_ZN4node14ThreadPoolWorkD2Ev, ptr @_ZN4node14ThreadPoolWorkD0Ev, ptr @__cxa_pure_virtual, ptr @__cxa_pure_virtual] }, comdat, align 8
@_ZZN4node14ThreadPoolWorkC1EPNS_11EnvironmentEPKcE4args = linkonce_odr dso_local constant %"struct.node::AssertionInfo" { ptr @.str.60, ptr @.str.61, ptr @.str.62 }, comdat, align 8
@.str.60 = private unnamed_addr constant [31 x i8] c"../../src/node_internals.h:275\00", align 1
@.str.61 = private unnamed_addr constant [17 x i8] c"(env) != nullptr\00", align 1
@.str.62 = private unnamed_addr constant [66 x i8] c"node::ThreadPoolWork::ThreadPoolWork(Environment *, const char *)\00", align 1
@_ZTVN4node6crypto16CryptoErrorStoreE = linkonce_odr dso_local unnamed_addr constant { [10 x ptr] } { [10 x ptr] [ptr null, ptr null, ptr @_ZN4node6crypto16CryptoErrorStoreD2Ev, ptr @_ZN4node6crypto16CryptoErrorStoreD0Ev, ptr @_ZNK4node6crypto16CryptoErrorStore10MemoryInfoEPNS_13MemoryTrackerE, ptr @_ZNK4node6crypto16CryptoErrorStore14MemoryInfoNameEv, ptr @_ZNK4node6crypto16CryptoErrorStore8SelfSizeEv, ptr @_ZNK4node14MemoryRetainer13WrappedObjectEv, ptr @_ZNK4node14MemoryRetainer10IsRootNodeEv, ptr @_ZNK4node14MemoryRetainer15GetDetachednessEv] }, comdat, align 8
@.str.63 = private unnamed_addr constant [17 x i8] c"CryptoErrorStore\00", align 1
@.str.64 = private unnamed_addr constant [7 x i8] c"errors\00", align 1
@_ZZN4node6crypto9CryptoJobINS0_16KeyPairGenTraitsINS0_19NidKeyPairGenTraitsEEEE19AfterThreadPoolWorkEiE4args = linkonce_odr dso_local constant %"struct.node::AssertionInfo" { ptr @.str.65, ptr @.str.66, ptr @.str.67 }, comdat, align 8
@.str.65 = private unnamed_addr constant [35 x i8] c"../../src/crypto/crypto_util.h:359\00", align 1
@.str.66 = private unnamed_addr constant [29 x i8] c"(mode_) == (kCryptoJobAsync)\00", align 1
@.str.67 = private unnamed_addr constant [216 x i8] c"virtual void node::crypto::CryptoJob<node::crypto::KeyPairGenTraits<node::crypto::NidKeyPairGenTraits>>::AfterThreadPoolWork(int) [CryptoJobTraits = node::crypto::KeyPairGenTraits<node::crypto::NidKeyPairGenTraits>]\00", align 1
@_ZZN4node6crypto9CryptoJobINS0_16KeyPairGenTraitsINS0_19NidKeyPairGenTraitsEEEE19AfterThreadPoolWorkEiE4args_0 = linkonce_odr dso_local constant %"struct.node::AssertionInfo" { ptr @.str.68, ptr @.str.69, ptr @.str.67 }, comdat, align 8
@.str.68 = private unnamed_addr constant [35 x i8] c"../../src/crypto/crypto_util.h:360\00", align 1
@.str.69 = private unnamed_addr constant [38 x i8] c"status == 0 || status == UV_ECANCELED\00", align 1
@_ZZN4node6crypto9CryptoJobINS0_16KeyPairGenTraitsINS0_19NidKeyPairGenTraitsEEEE19AfterThreadPoolWorkEiE4args_1 = linkonce_odr dso_local constant %"struct.node::AssertionInfo" { ptr @.str.70, ptr @.str.71, ptr @.str.67 }, comdat, align 8
@.str.70 = private unnamed_addr constant [35 x i8] c"../../src/crypto/crypto_util.h:378\00", align 1
@.str.71 = private unnamed_addr constant [22 x i8] c"try_catch.HasCaught()\00", align 1
@_ZZN4node6crypto9KeyGenJobINS0_16KeyPairGenTraitsINS0_19NidKeyPairGenTraitsEEEE8ToResultEPN2v85LocalINS6_5ValueEEESA_E4args = linkonce_odr dso_local constant %"struct.node::AssertionInfo" { ptr @.str.72, ptr @.str.73, ptr @.str.74 }, comdat, align 8
@.str.72 = private unnamed_addr constant [37 x i8] c"../../src/crypto/crypto_keygen.h:111\00", align 1
@.str.73 = private unnamed_addr constant [17 x i8] c"!errors->Empty()\00", align 1
@.str.74 = private unnamed_addr constant [256 x i8] c"virtual v8::Maybe<bool> node::crypto::KeyGenJob<node::crypto::KeyPairGenTraits<node::crypto::NidKeyPairGenTraits>>::ToResult(v8::Local<v8::Value> *, v8::Local<v8::Value> *) [KeyGenTraits = node::crypto::KeyPairGenTraits<node::crypto::NidKeyPairGenTraits>]\00", align 1
@.str.75 = private unnamed_addr constant [18 x i8] c"Cipher job failed\00", align 1
@.str.76 = private unnamed_addr constant [21 x i8] c"Deriving bits failed\00", align 1
@.str.77 = private unnamed_addr constant [26 x i8] c"Engine \22%s\22 was not found\00", align 1
@.str.78 = private unnamed_addr constant [17 x i8] c"Invalid key type\00", align 1
@.str.79 = private unnamed_addr constant [26 x i8] c"Key generation job failed\00", align 1
@.str.80 = private unnamed_addr constant [3 x i8] c"Ok\00", align 1
@.str.81 = private unnamed_addr constant [26 x i8] c"vector::_M_realloc_insert\00", align 1
@_ZZN4node11SPrintFImplB5cxx11EPKcE4args = linkonce_odr dso_local constant %"struct.node::AssertionInfo" { ptr @.str.82, ptr @.str.83, ptr @.str.84 }, comdat, align 8
@.str.82 = private unnamed_addr constant [31 x i8] c"../../src/debug_utils-inl.h:70\00", align 1
@.str.83 = private unnamed_addr constant [16 x i8] c"(p[1]) == ('%')\00", align 1
@.str.84 = private unnamed_addr constant [44 x i8] c"std::string node::SPrintFImpl(const char *)\00", align 1
@.str.85 = private unnamed_addr constant [50 x i8] c"basic_string: construction from null is not valid\00", align 1
@.str.86 = private unnamed_addr constant [16 x i8] c"SecretKeyGenJob\00", align 1
@_ZZN4node6crypto9KeyGenJobINS0_18SecretKeyGenTraitsEE3NewERKN2v820FunctionCallbackInfoINS4_5ValueEEEE4args = linkonce_odr dso_local constant %"struct.node::AssertionInfo" { ptr @.str.31, ptr @.str.32, ptr @.str.87 }, comdat, align 8
@.str.87 = private unnamed_addr constant [170 x i8] c"static void node::crypto::KeyGenJob<node::crypto::SecretKeyGenTraits>::New(const v8::FunctionCallbackInfo<v8::Value> &) [KeyGenTraits = node::crypto::SecretKeyGenTraits]\00", align 1
@_ZTVN4node6crypto9KeyGenJobINS0_18SecretKeyGenTraitsEEE = linkonce_odr dso_local unnamed_addr constant { [23 x ptr], [6 x ptr] } { [23 x ptr] [ptr null, ptr null, ptr @_ZN4node6crypto9KeyGenJobINS0_18SecretKeyGenTraitsEED2Ev, ptr @_ZN4node6crypto9KeyGenJobINS0_18SecretKeyGenTraitsEED0Ev, ptr @_ZNK4node6crypto9CryptoJobINS0_18SecretKeyGenTraitsEE10MemoryInfoEPNS_13MemoryTrackerE, ptr @_ZNK4node6crypto9CryptoJobINS0_18SecretKeyGenTraitsEE14MemoryInfoNameEv, ptr @_ZNK4node6crypto9KeyGenJobINS0_18SecretKeyGenTraitsEE8SelfSizeEv, ptr @_ZNK4node10BaseObject13WrappedObjectEv, ptr @_ZNK4node10BaseObject10IsRootNodeEv, ptr @_ZNK4node10BaseObject15GetDetachednessEv, ptr @_ZNK4node9AsyncWrap18IsDoneInitializingEv, ptr @_ZNK4node10BaseObject15GetTransferModeEv, ptr @_ZN4node10BaseObject20TransferForMessagingEv, ptr @_ZNK4node10BaseObject17CloneForMessagingEv, ptr @_ZNK4node10BaseObject19NestedTransferablesEv, ptr @_ZN4node10BaseObject20FinalizeTransferReadEN2v85LocalINS1_7ContextEEEPNS1_17ValueDeserializerE, ptr @_ZNK4node6crypto9CryptoJobINS0_18SecretKeyGenTraitsEE33IsNotIndicativeOfMemoryLeakAtExitEv, ptr @_ZN4node10BaseObject11OnGCCollectEv, ptr @_ZNK4node10BaseObject15is_snapshotableEv, ptr @_ZNK4node9AsyncWrap15diagnostic_nameB5cxx11Ev, ptr @_ZN4node6crypto9CryptoJobINS0_18SecretKeyGenTraitsEE19AfterThreadPoolWorkEi, ptr @_ZN4node6crypto9KeyGenJobINS0_18SecretKeyGenTraitsEE8ToResultEPN2v85LocalINS4_5ValueEEES8_, ptr @_ZN4node6crypto9KeyGenJobINS0_18SecretKeyGenTraitsEE16DoThreadPoolWorkEv], [6 x ptr] [ptr inttoptr (i64 -56 to ptr), ptr null, ptr @_ZThn56_N4node6crypto9KeyGenJobINS0_18SecretKeyGenTraitsEED1Ev, ptr @_ZThn56_N4node6crypto9KeyGenJobINS0_18SecretKeyGenTraitsEED0Ev, ptr @_ZThn56_N4node6crypto9KeyGenJobINS0_18SecretKeyGenTraitsEE16DoThreadPoolWorkEv, ptr @_ZThn56_N4node6crypto9CryptoJobINS0_18SecretKeyGenTraitsEE19AfterThreadPoolWorkEi] }, comdat, align 8
@_ZTVN4node6crypto9CryptoJobINS0_18SecretKeyGenTraitsEEE = linkonce_odr dso_local unnamed_addr constant { [22 x ptr], [6 x ptr] } { [22 x ptr] [ptr null, ptr null, ptr @_ZN4node6crypto9CryptoJobINS0_18SecretKeyGenTraitsEED2Ev, ptr @_ZN4node6crypto9CryptoJobINS0_18SecretKeyGenTraitsEED0Ev, ptr @_ZNK4node6crypto9CryptoJobINS0_18SecretKeyGenTraitsEE10MemoryInfoEPNS_13MemoryTrackerE, ptr @_ZNK4node6crypto9CryptoJobINS0_18SecretKeyGenTraitsEE14MemoryInfoNameEv, ptr @__cxa_pure_virtual, ptr @_ZNK4node10BaseObject13WrappedObjectEv, ptr @_ZNK4node10BaseObject10IsRootNodeEv, ptr @_ZNK4node10BaseObject15GetDetachednessEv, ptr @_ZNK4node9AsyncWrap18IsDoneInitializingEv, ptr @_ZNK4node10BaseObject15GetTransferModeEv, ptr @_ZN4node10BaseObject20TransferForMessagingEv, ptr @_ZNK4node10BaseObject17CloneForMessagingEv, ptr @_ZNK4node10BaseObject19NestedTransferablesEv, ptr @_ZN4node10BaseObject20FinalizeTransferReadEN2v85LocalINS1_7ContextEEEPNS1_17ValueDeserializerE, ptr @_ZNK4node6crypto9CryptoJobINS0_18SecretKeyGenTraitsEE33IsNotIndicativeOfMemoryLeakAtExitEv, ptr @_ZN4node10BaseObject11OnGCCollectEv, ptr @_ZNK4node10BaseObject15is_snapshotableEv, ptr @_ZNK4node9AsyncWrap15diagnostic_nameB5cxx11Ev, ptr @_ZN4node6crypto9CryptoJobINS0_18SecretKeyGenTraitsEE19AfterThreadPoolWorkEi, ptr @__cxa_pure_virtual], [6 x ptr] [ptr inttoptr (i64 -56 to ptr), ptr null, ptr @_ZThn56_N4node6crypto9CryptoJobINS0_18SecretKeyGenTraitsEED1Ev, ptr @_ZThn56_N4node6crypto9CryptoJobINS0_18SecretKeyGenTraitsEED0Ev, ptr @__cxa_pure_virtual, ptr @_ZThn56_N4node6crypto9CryptoJobINS0_18SecretKeyGenTraitsEE19AfterThreadPoolWorkEi] }, comdat, align 8
@_ZZN4node6crypto9CryptoJobINS0_18SecretKeyGenTraitsEE19AfterThreadPoolWorkEiE4args = linkonce_odr dso_local constant %"struct.node::AssertionInfo" { ptr @.str.65, ptr @.str.66, ptr @.str.88 }, comdat, align 8
@.str.88 = private unnamed_addr constant [150 x i8] c"virtual void node::crypto::CryptoJob<node::crypto::SecretKeyGenTraits>::AfterThreadPoolWork(int) [CryptoJobTraits = node::crypto::SecretKeyGenTraits]\00", align 1
@_ZZN4node6crypto9CryptoJobINS0_18SecretKeyGenTraitsEE19AfterThreadPoolWorkEiE4args_0 = linkonce_odr dso_local constant %"struct.node::AssertionInfo" { ptr @.str.68, ptr @.str.69, ptr @.str.88 }, comdat, align 8
@_ZZN4node6crypto9CryptoJobINS0_18SecretKeyGenTraitsEE19AfterThreadPoolWorkEiE4args_1 = linkonce_odr dso_local constant %"struct.node::AssertionInfo" { ptr @.str.70, ptr @.str.71, ptr @.str.88 }, comdat, align 8
@_ZZN4node6crypto9KeyGenJobINS0_18SecretKeyGenTraitsEE8ToResultEPN2v85LocalINS4_5ValueEEES8_E4args = linkonce_odr dso_local constant %"struct.node::AssertionInfo" { ptr @.str.72, ptr @.str.73, ptr @.str.89 }, comdat, align 8
@.str.89 = private unnamed_addr constant [190 x i8] c"virtual v8::Maybe<bool> node::crypto::KeyGenJob<node::crypto::SecretKeyGenTraits>::ToResult(v8::Local<v8::Value> *, v8::Local<v8::Value> *) [KeyGenTraits = node::crypto::SecretKeyGenTraits]\00", align 1
@llvm.global_ctors = appending global [1 x { i32, ptr, ptr }] [{ i32, ptr, ptr } { i32 65535, ptr @_GLOBAL__sub_I_crypto_keygen.cc, ptr null }]

; Function Attrs: nounwind uwtable
define internal void @__cxx_global_var_init() #0 section ".text.startup" {
entry:
  call void @_ZNSt8ios_base4InitC1Ev(ptr noundef nonnull align 1 dereferenceable(1) @_ZStL8__ioinit)
  %0 = call i32 @__cxa_atexit(ptr @_ZNSt8ios_base4InitD1Ev, ptr @_ZStL8__ioinit, ptr @__dso_handle) #3
  ret void
}

declare void @_ZNSt8ios_base4InitC1Ev(ptr noundef nonnull align 1 dereferenceable(1)) unnamed_addr #1

; Function Attrs: nounwind
declare void @_ZNSt8ios_base4InitD1Ev(ptr noundef nonnull align 1 dereferenceable(1)) unnamed_addr #2

; Function Attrs: nounwind
declare i32 @__cxa_atexit(ptr, ptr, ptr) #3

; Function Attrs: mustprogress nounwind uwtable
define dso_local i16 @_ZN4node6crypto19NidKeyPairGenTraits16AdditionalConfigENS0_13CryptoJobModeERKN2v820FunctionCallbackInfoINS3_5ValueEEEPjPNS0_16KeyPairGenConfigINS0_16NidKeyPairParamsEEE(i32 noundef %mode, ptr noundef nonnull align 8 dereferenceable(20) %args, ptr noundef %offset, ptr noundef %params) #4 align 2 {
entry:
  %slot.addr.i155 = alloca ptr, align 8
  %this.addr.i.i151 = alloca ptr, align 8
  %this.addr.i152 = alloca ptr, align 8
  %this.addr.i148 = alloca ptr, align 8
  %other.addr.i149 = alloca ptr, align 8
  %this.addr.i145 = alloca ptr, align 8
  %other.addr.i146 = alloca ptr, align 8
  %retval.i142 = alloca %"class.v8::Local.0", align 8
  %that.i143 = alloca %"class.v8::Local", align 8
  %ref.tmp.i144 = alloca %"class.v8::LocalBase.1", align 8
  %this.addr.i140 = alloca ptr, align 8
  %slot.addr.i139 = alloca ptr, align 8
  %this.addr.i137 = alloca ptr, align 8
  %this.addr.i.i131 = alloca ptr, align 8
  %location.addr.i.i132 = alloca ptr, align 8
  %this.addr.i133 = alloca ptr, align 8
  %location.addr.i134 = alloca ptr, align 8
  %this.addr.i.i = alloca ptr, align 8
  %location.addr.i.i = alloca ptr, align 8
  %this.addr.i128 = alloca ptr, align 8
  %location.addr.i129 = alloca ptr, align 8
  %this.addr.i125 = alloca ptr, align 8
  %other.addr.i126 = alloca ptr, align 8
  %this.addr.i122 = alloca ptr, align 8
  %other.addr.i123 = alloca ptr, align 8
  %retval.i120 = alloca %"class.v8::LocalBase", align 8
  %slot.addr.i121 = alloca ptr, align 8
  %retval.i118 = alloca %"class.v8::LocalBase", align 8
  %slot.addr.i119 = alloca ptr, align 8
  %this.addr.i115 = alloca ptr, align 8
  %other.addr.i116 = alloca ptr, align 8
  %this.addr.i112 = alloca ptr, align 8
  %other.addr.i113 = alloca ptr, align 8
  %this.addr.i109 = alloca ptr, align 8
  %location.addr.i110 = alloca ptr, align 8
  %this.addr.i106 = alloca ptr, align 8
  %location.addr.i107 = alloca ptr, align 8
  %this.addr.i103 = alloca ptr, align 8
  %location.addr.i104 = alloca ptr, align 8
  %this.addr.i101 = alloca ptr, align 8
  %location.addr.i = alloca ptr, align 8
  %this.addr.i98 = alloca ptr, align 8
  %other.addr.i99 = alloca ptr, align 8
  %this.addr.i96 = alloca ptr, align 8
  %other.addr.i = alloca ptr, align 8
  %retval.i94 = alloca %"class.v8::LocalBase.35", align 8
  %slot.addr.i95 = alloca ptr, align 8
  %retval.i92 = alloca %"class.v8::LocalBase.35", align 8
  %slot.addr.i93 = alloca ptr, align 8
  %retval.i88 = alloca %"class.v8::Local.34", align 8
  %slot.addr.i89 = alloca ptr, align 8
  %ref.tmp.i90 = alloca %"class.v8::LocalBase.35", align 8
  %retval.i84 = alloca %"class.v8::Local.34", align 8
  %slot.addr.i85 = alloca ptr, align 8
  %ref.tmp.i86 = alloca %"class.v8::LocalBase.35", align 8
  %isolate.addr.i77 = alloca ptr, align 8
  %index.addr.i78 = alloca i32, align 4
  %addr.i79 = alloca i64, align 8
  %isolate.addr.i76 = alloca ptr, align 8
  %index.addr.i = alloca i32, align 4
  %addr.i = alloca i64, align 8
  %isolate.addr.i75 = alloca ptr, align 8
  %isolate.addr.i74 = alloca ptr, align 8
  %retval.i70 = alloca %"class.v8::Local", align 8
  %slot.addr.i71 = alloca ptr, align 8
  %ref.tmp.i72 = alloca %"class.v8::LocalBase", align 8
  %retval.i69 = alloca %"class.v8::Local", align 8
  %slot.addr.i = alloca ptr, align 8
  %ref.tmp.i = alloca %"class.v8::LocalBase", align 8
  %that.i66 = alloca %"class.v8::Local.34", align 8
  %this.addr.i67 = alloca ptr, align 8
  %that.i = alloca %"class.v8::Local.34", align 8
  %this.addr.i65 = alloca ptr, align 8
  %this.addr.i62 = alloca ptr, align 8
  %this.addr.i60 = alloca ptr, align 8
  %retval.i55 = alloca %"class.v8::Local.34", align 8
  %isolate.addr.i56 = alloca ptr, align 8
  %slot.i57 = alloca ptr, align 8
  %retval.i53 = alloca %"class.v8::Local.34", align 8
  %isolate.addr.i = alloca ptr, align 8
  %slot.i = alloca ptr, align 8
  %this.addr.i50 = alloca ptr, align 8
  %retval.i45 = alloca %"class.v8::Local.0", align 8
  %this.addr.i46 = alloca ptr, align 8
  %agg.tmp.i47 = alloca %"class.v8::Local", align 8
  %this.addr.i42 = alloca ptr, align 8
  %retval.i24 = alloca %"class.v8::Local", align 8
  %this.addr.i25 = alloca ptr, align 8
  %i.addr.i26 = alloca i32, align 4
  %agg.tmp.i27 = alloca %"class.v8::Local.34", align 8
  %retval.i = alloca %"class.v8::Local", align 8
  %this.addr.i = alloca ptr, align 8
  %i.addr.i = alloca i32, align 4
  %agg.tmp.i = alloca %"class.v8::Local.34", align 8
  %retval = alloca %"class.v8::Maybe", align 1
  %mode.addr = alloca i32, align 4
  %args.addr = alloca ptr, align 8
  %offset.addr = alloca ptr, align 8
  %params.addr = alloca ptr, align 8
  %ref.tmp = alloca %"class.v8::Local", align 8
  %ref.tmp9 = alloca %"class.v8::Local.0", align 8
  %ref.tmp10 = alloca %"class.v8::Local", align 8
  %ref.tmp22 = alloca i8, align 1
  store i32 %mode, ptr %mode.addr, align 4
  store ptr %args, ptr %args.addr, align 8
  store ptr %offset, ptr %offset.addr, align 8
  store ptr %params, ptr %params.addr, align 8
  br label %do.body

do.body:                                          ; preds = %entry
  %0 = load ptr, ptr %args.addr, align 8
  %1 = load ptr, ptr %offset.addr, align 8
  %2 = load i32, ptr %1, align 4
  store ptr %0, ptr %this.addr.i25, align 8
  store i32 %2, ptr %i.addr.i26, align 4
  %this1.i28 = load ptr, ptr %this.addr.i25, align 8
  %3 = load i32, ptr %i.addr.i26, align 4
  %cmp.i29 = icmp slt i32 %3, 0
  br i1 %cmp.i29, label %if.then.i38, label %lor.lhs.false.i30

lor.lhs.false.i30:                                ; preds = %do.body
  %length_.i31 = getelementptr inbounds %"class.v8::FunctionCallbackInfo", ptr %this1.i28, i32 0, i32 2
  %4 = load i32, ptr %length_.i31, align 8
  %5 = load i32, ptr %i.addr.i26, align 4
  %cmp2.i32 = icmp sle i32 %4, %5
  br i1 %cmp2.i32, label %if.then.i38, label %if.end.i33

if.then.i38:                                      ; preds = %lor.lhs.false.i30, %do.body
  store ptr %this1.i28, ptr %this.addr.i60, align 8
  %this1.i61 = load ptr, ptr %this.addr.i60, align 8
  %6 = load ptr, ptr %this1.i61, align 8
  %arrayidx.i = getelementptr inbounds i64, ptr %6, i64 1
  %7 = load ptr, ptr %arrayidx.i, align 8
  store ptr %7, ptr %isolate.addr.i, align 8
  %8 = load ptr, ptr %isolate.addr.i, align 8
  store ptr %8, ptr %isolate.addr.i75, align 8
  %9 = load ptr, ptr %isolate.addr.i, align 8
  store ptr %9, ptr %isolate.addr.i77, align 8
  store i32 4, ptr %index.addr.i78, align 4
  %10 = load ptr, ptr %isolate.addr.i77, align 8
  %11 = ptrtoint ptr %10 to i64
  %add.i80 = add i64 %11, 576
  %12 = load i32, ptr %index.addr.i78, align 4
  %mul.i81 = mul nsw i32 %12, 8
  %conv.i82 = sext i32 %mul.i81 to i64
  %add1.i83 = add i64 %add.i80, %conv.i82
  store i64 %add1.i83, ptr %addr.i79, align 8
  %13 = load i64, ptr %addr.i79, align 8
  %14 = inttoptr i64 %13 to ptr
  store ptr %14, ptr %slot.i, align 8
  %15 = load ptr, ptr %slot.i, align 8
  store ptr %15, ptr %slot.addr.i89, align 8
  %16 = load ptr, ptr %slot.addr.i89, align 8
  store ptr %16, ptr %slot.addr.i93, align 8
  %17 = load ptr, ptr %slot.addr.i93, align 8
  store ptr %retval.i92, ptr %this.addr.i103, align 8
  store ptr %17, ptr %location.addr.i104, align 8
  %this1.i105 = load ptr, ptr %this.addr.i103, align 8
  %18 = load ptr, ptr %location.addr.i104, align 8
  store ptr %this1.i105, ptr %this.addr.i106, align 8
  store ptr %18, ptr %location.addr.i107, align 8
  %this1.i108 = load ptr, ptr %this.addr.i106, align 8
  %19 = load ptr, ptr %location.addr.i107, align 8
  store ptr %19, ptr %this1.i108, align 8
  %20 = load ptr, ptr %retval.i92, align 8
  store ptr %20, ptr %ref.tmp.i90, align 8
  store ptr %retval.i88, ptr %this.addr.i96, align 8
  store ptr %ref.tmp.i90, ptr %other.addr.i, align 8
  %this1.i97 = load ptr, ptr %this.addr.i96, align 8
  %21 = load ptr, ptr %other.addr.i, align 8
  call void @llvm.memcpy.p0.p0.i64(ptr align 8 %this1.i97, ptr align 8 %21, i64 8, i1 false)
  %22 = load ptr, ptr %retval.i88, align 8
  store ptr %22, ptr %retval.i53, align 8
  %23 = load ptr, ptr %retval.i53, align 8
  store ptr %23, ptr %agg.tmp.i27, align 8
  %24 = load ptr, ptr %agg.tmp.i27, align 8
  store ptr %24, ptr %that.i, align 8
  store ptr %retval.i24, ptr %this.addr.i65, align 8
  %this3.i = load ptr, ptr %this.addr.i65, align 8
  store ptr %this3.i, ptr %this.addr.i115, align 8
  store ptr %that.i, ptr %other.addr.i116, align 8
  %this1.i117 = load ptr, ptr %this.addr.i115, align 8
  %25 = load ptr, ptr %other.addr.i116, align 8
  call void @llvm.memcpy.p0.p0.i64(ptr align 8 %this1.i117, ptr align 8 %25, i64 8, i1 false)
  br label %_ZNK2v820FunctionCallbackInfoINS_5ValueEEixEi.exit41

if.end.i33:                                       ; preds = %lor.lhs.false.i30
  %values_.i34 = getelementptr inbounds %"class.v8::FunctionCallbackInfo", ptr %this1.i28, i32 0, i32 1
  %26 = load ptr, ptr %values_.i34, align 8
  %27 = load i32, ptr %i.addr.i26, align 4
  %idx.ext.i35 = sext i32 %27 to i64
  %add.ptr.i36 = getelementptr inbounds i64, ptr %26, i64 %idx.ext.i35
  store ptr %add.ptr.i36, ptr %slot.addr.i, align 8
  %28 = load ptr, ptr %slot.addr.i, align 8
  store ptr %28, ptr %slot.addr.i121, align 8
  %29 = load ptr, ptr %slot.addr.i121, align 8
  store ptr %retval.i120, ptr %this.addr.i128, align 8
  store ptr %29, ptr %location.addr.i129, align 8
  %this1.i130 = load ptr, ptr %this.addr.i128, align 8
  %30 = load ptr, ptr %location.addr.i129, align 8
  store ptr %this1.i130, ptr %this.addr.i.i, align 8
  store ptr %30, ptr %location.addr.i.i, align 8
  %this1.i.i = load ptr, ptr %this.addr.i.i, align 8
  %31 = load ptr, ptr %location.addr.i.i, align 8
  store ptr %31, ptr %this1.i.i, align 8
  %32 = load ptr, ptr %retval.i120, align 8
  store ptr %32, ptr %ref.tmp.i, align 8
  store ptr %retval.i69, ptr %this.addr.i125, align 8
  store ptr %ref.tmp.i, ptr %other.addr.i126, align 8
  %this1.i127 = load ptr, ptr %this.addr.i125, align 8
  %33 = load ptr, ptr %other.addr.i126, align 8
  call void @llvm.memcpy.p0.p0.i64(ptr align 8 %this1.i127, ptr align 8 %33, i64 8, i1 false)
  %34 = load ptr, ptr %retval.i69, align 8
  store ptr %34, ptr %retval.i24, align 8
  br label %_ZNK2v820FunctionCallbackInfoINS_5ValueEEixEi.exit41

_ZNK2v820FunctionCallbackInfoINS_5ValueEEixEi.exit41: ; preds = %if.end.i33, %if.then.i38
  %35 = load ptr, ptr %retval.i24, align 8
  %coerce.dive = getelementptr inbounds %"class.v8::Local", ptr %ref.tmp, i32 0, i32 0
  %coerce.dive1 = getelementptr inbounds %"class.v8::LocalBase", ptr %coerce.dive, i32 0, i32 0
  %coerce.dive2 = getelementptr inbounds %"class.v8::IndirectHandleBase", ptr %coerce.dive1, i32 0, i32 0
  store ptr %35, ptr %coerce.dive2, align 8
  store ptr %ref.tmp, ptr %this.addr.i42, align 8
  %this1.i43 = load ptr, ptr %this.addr.i42, align 8
  store ptr %this1.i43, ptr %this.addr.i137, align 8
  %this1.i138 = load ptr, ptr %this.addr.i137, align 8
  store ptr %this1.i138, ptr %this.addr.i140, align 8
  %this1.i141 = load ptr, ptr %this.addr.i140, align 8
  %36 = load ptr, ptr %this1.i141, align 8
  store ptr %36, ptr %slot.addr.i139, align 8
  %37 = load ptr, ptr %slot.addr.i139, align 8
  %call4 = call noundef zeroext i1 @_ZNK2v85Value7IsInt32Ev(ptr noundef nonnull align 1 dereferenceable(1) %37)
  %lnot = xor i1 %call4, true
  %lnot5 = xor i1 %lnot, true
  %lnot6 = xor i1 %lnot5, true
  br i1 %lnot6, label %if.then, label %if.end

if.then:                                          ; preds = %_ZNK2v820FunctionCallbackInfoINS_5ValueEEixEi.exit41
  br label %do.body7

do.body7:                                         ; preds = %if.then
  call void @_ZN4node6AssertERKNS_13AssertionInfoE(ptr noundef nonnull align 8 dereferenceable(24) @_ZZN4node6crypto19NidKeyPairGenTraits16AdditionalConfigENS0_13CryptoJobModeERKN2v820FunctionCallbackInfoINS3_5ValueEEEPjPNS0_16KeyPairGenConfigINS0_16NidKeyPairParamsEEEE4args)
  call void @abort() #14
  unreachable

do.end:                                           ; No predecessors!
  br label %if.end

if.end:                                           ; preds = %do.end, %_ZNK2v820FunctionCallbackInfoINS_5ValueEEixEi.exit41
  br label %do.end8

do.end8:                                          ; preds = %if.end
  %38 = load ptr, ptr %args.addr, align 8
  %39 = load ptr, ptr %offset.addr, align 8
  %40 = load i32, ptr %39, align 4
  store ptr %38, ptr %this.addr.i, align 8
  store i32 %40, ptr %i.addr.i, align 4
  %this1.i = load ptr, ptr %this.addr.i, align 8
  %41 = load i32, ptr %i.addr.i, align 4
  %cmp.i = icmp slt i32 %41, 0
  br i1 %cmp.i, label %if.then.i, label %lor.lhs.false.i

lor.lhs.false.i:                                  ; preds = %do.end8
  %length_.i = getelementptr inbounds %"class.v8::FunctionCallbackInfo", ptr %this1.i, i32 0, i32 2
  %42 = load i32, ptr %length_.i, align 8
  %43 = load i32, ptr %i.addr.i, align 4
  %cmp2.i = icmp sle i32 %42, %43
  br i1 %cmp2.i, label %if.then.i, label %if.end.i

if.then.i:                                        ; preds = %lor.lhs.false.i, %do.end8
  store ptr %this1.i, ptr %this.addr.i62, align 8
  %this1.i63 = load ptr, ptr %this.addr.i62, align 8
  %44 = load ptr, ptr %this1.i63, align 8
  %arrayidx.i64 = getelementptr inbounds i64, ptr %44, i64 1
  %45 = load ptr, ptr %arrayidx.i64, align 8
  store ptr %45, ptr %isolate.addr.i56, align 8
  %46 = load ptr, ptr %isolate.addr.i56, align 8
  store ptr %46, ptr %isolate.addr.i74, align 8
  %47 = load ptr, ptr %isolate.addr.i56, align 8
  store ptr %47, ptr %isolate.addr.i76, align 8
  store i32 4, ptr %index.addr.i, align 4
  %48 = load ptr, ptr %isolate.addr.i76, align 8
  %49 = ptrtoint ptr %48 to i64
  %add.i = add i64 %49, 576
  %50 = load i32, ptr %index.addr.i, align 4
  %mul.i = mul nsw i32 %50, 8
  %conv.i = sext i32 %mul.i to i64
  %add1.i = add i64 %add.i, %conv.i
  store i64 %add1.i, ptr %addr.i, align 8
  %51 = load i64, ptr %addr.i, align 8
  %52 = inttoptr i64 %51 to ptr
  store ptr %52, ptr %slot.i57, align 8
  %53 = load ptr, ptr %slot.i57, align 8
  store ptr %53, ptr %slot.addr.i85, align 8
  %54 = load ptr, ptr %slot.addr.i85, align 8
  store ptr %54, ptr %slot.addr.i95, align 8
  %55 = load ptr, ptr %slot.addr.i95, align 8
  store ptr %retval.i94, ptr %this.addr.i101, align 8
  store ptr %55, ptr %location.addr.i, align 8
  %this1.i102 = load ptr, ptr %this.addr.i101, align 8
  %56 = load ptr, ptr %location.addr.i, align 8
  store ptr %this1.i102, ptr %this.addr.i109, align 8
  store ptr %56, ptr %location.addr.i110, align 8
  %this1.i111 = load ptr, ptr %this.addr.i109, align 8
  %57 = load ptr, ptr %location.addr.i110, align 8
  store ptr %57, ptr %this1.i111, align 8
  %58 = load ptr, ptr %retval.i94, align 8
  store ptr %58, ptr %ref.tmp.i86, align 8
  store ptr %retval.i84, ptr %this.addr.i98, align 8
  store ptr %ref.tmp.i86, ptr %other.addr.i99, align 8
  %this1.i100 = load ptr, ptr %this.addr.i98, align 8
  %59 = load ptr, ptr %other.addr.i99, align 8
  call void @llvm.memcpy.p0.p0.i64(ptr align 8 %this1.i100, ptr align 8 %59, i64 8, i1 false)
  %60 = load ptr, ptr %retval.i84, align 8
  store ptr %60, ptr %retval.i55, align 8
  %61 = load ptr, ptr %retval.i55, align 8
  store ptr %61, ptr %agg.tmp.i, align 8
  %62 = load ptr, ptr %agg.tmp.i, align 8
  store ptr %62, ptr %that.i66, align 8
  store ptr %retval.i, ptr %this.addr.i67, align 8
  %this3.i68 = load ptr, ptr %this.addr.i67, align 8
  store ptr %this3.i68, ptr %this.addr.i112, align 8
  store ptr %that.i66, ptr %other.addr.i113, align 8
  %this1.i114 = load ptr, ptr %this.addr.i112, align 8
  %63 = load ptr, ptr %other.addr.i113, align 8
  call void @llvm.memcpy.p0.p0.i64(ptr align 8 %this1.i114, ptr align 8 %63, i64 8, i1 false)
  br label %_ZNK2v820FunctionCallbackInfoINS_5ValueEEixEi.exit

if.end.i:                                         ; preds = %lor.lhs.false.i
  %values_.i = getelementptr inbounds %"class.v8::FunctionCallbackInfo", ptr %this1.i, i32 0, i32 1
  %64 = load ptr, ptr %values_.i, align 8
  %65 = load i32, ptr %i.addr.i, align 4
  %idx.ext.i = sext i32 %65 to i64
  %add.ptr.i = getelementptr inbounds i64, ptr %64, i64 %idx.ext.i
  store ptr %add.ptr.i, ptr %slot.addr.i71, align 8
  %66 = load ptr, ptr %slot.addr.i71, align 8
  store ptr %66, ptr %slot.addr.i119, align 8
  %67 = load ptr, ptr %slot.addr.i119, align 8
  store ptr %retval.i118, ptr %this.addr.i133, align 8
  store ptr %67, ptr %location.addr.i134, align 8
  %this1.i135 = load ptr, ptr %this.addr.i133, align 8
  %68 = load ptr, ptr %location.addr.i134, align 8
  store ptr %this1.i135, ptr %this.addr.i.i131, align 8
  store ptr %68, ptr %location.addr.i.i132, align 8
  %this1.i.i136 = load ptr, ptr %this.addr.i.i131, align 8
  %69 = load ptr, ptr %location.addr.i.i132, align 8
  store ptr %69, ptr %this1.i.i136, align 8
  %70 = load ptr, ptr %retval.i118, align 8
  store ptr %70, ptr %ref.tmp.i72, align 8
  store ptr %retval.i70, ptr %this.addr.i122, align 8
  store ptr %ref.tmp.i72, ptr %other.addr.i123, align 8
  %this1.i124 = load ptr, ptr %this.addr.i122, align 8
  %71 = load ptr, ptr %other.addr.i123, align 8
  call void @llvm.memcpy.p0.p0.i64(ptr align 8 %this1.i124, ptr align 8 %71, i64 8, i1 false)
  %72 = load ptr, ptr %retval.i70, align 8
  store ptr %72, ptr %retval.i, align 8
  br label %_ZNK2v820FunctionCallbackInfoINS_5ValueEEixEi.exit

_ZNK2v820FunctionCallbackInfoINS_5ValueEEixEi.exit: ; preds = %if.end.i, %if.then.i
  %73 = load ptr, ptr %retval.i, align 8
  %coerce.dive12 = getelementptr inbounds %"class.v8::Local", ptr %ref.tmp10, i32 0, i32 0
  %coerce.dive13 = getelementptr inbounds %"class.v8::LocalBase", ptr %coerce.dive12, i32 0, i32 0
  %coerce.dive14 = getelementptr inbounds %"class.v8::IndirectHandleBase", ptr %coerce.dive13, i32 0, i32 0
  store ptr %73, ptr %coerce.dive14, align 8
  store ptr %ref.tmp10, ptr %this.addr.i46, align 8
  %this1.i48 = load ptr, ptr %this.addr.i46, align 8
  call void @llvm.memcpy.p0.p0.i64(ptr align 8 %agg.tmp.i47, ptr align 8 %this1.i48, i64 8, i1 false)
  %74 = load ptr, ptr %agg.tmp.i47, align 8
  store ptr %74, ptr %that.i143, align 8
  store ptr %ref.tmp.i144, ptr %this.addr.i145, align 8
  store ptr %that.i143, ptr %other.addr.i146, align 8
  %this1.i147 = load ptr, ptr %this.addr.i145, align 8
  %75 = load ptr, ptr %other.addr.i146, align 8
  call void @llvm.memcpy.p0.p0.i64(ptr align 8 %this1.i147, ptr align 8 %75, i64 8, i1 false)
  store ptr %retval.i142, ptr %this.addr.i148, align 8
  store ptr %ref.tmp.i144, ptr %other.addr.i149, align 8
  %this1.i150 = load ptr, ptr %this.addr.i148, align 8
  %76 = load ptr, ptr %other.addr.i149, align 8
  call void @llvm.memcpy.p0.p0.i64(ptr align 8 %this1.i150, ptr align 8 %76, i64 8, i1 false)
  %77 = load ptr, ptr %retval.i142, align 8
  store ptr %77, ptr %retval.i45, align 8
  %78 = load ptr, ptr %retval.i45, align 8
  %coerce.dive16 = getelementptr inbounds %"class.v8::Local.0", ptr %ref.tmp9, i32 0, i32 0
  %coerce.dive17 = getelementptr inbounds %"class.v8::LocalBase.1", ptr %coerce.dive16, i32 0, i32 0
  %coerce.dive18 = getelementptr inbounds %"class.v8::IndirectHandleBase", ptr %coerce.dive17, i32 0, i32 0
  store ptr %78, ptr %coerce.dive18, align 8
  store ptr %ref.tmp9, ptr %this.addr.i50, align 8
  %this1.i51 = load ptr, ptr %this.addr.i50, align 8
  store ptr %this1.i51, ptr %this.addr.i152, align 8
  %this1.i153 = load ptr, ptr %this.addr.i152, align 8
  store ptr %this1.i153, ptr %this.addr.i.i151, align 8
  %this1.i.i154 = load ptr, ptr %this.addr.i.i151, align 8
  %79 = load ptr, ptr %this1.i.i154, align 8
  store ptr %79, ptr %slot.addr.i155, align 8
  %80 = load ptr, ptr %slot.addr.i155, align 8
  %call20 = call noundef i32 @_ZNK2v85Int325ValueEv(ptr noundef nonnull align 1 dereferenceable(1) %80)
  %81 = load ptr, ptr %params.addr, align 8
  %params21 = getelementptr inbounds %"struct.node::crypto::KeyPairGenConfig", ptr %81, i32 0, i32 4
  %id = getelementptr inbounds %"struct.node::crypto::NidKeyPairParams", ptr %params21, i32 0, i32 1
  store i32 %call20, ptr %id, align 8
  %82 = load ptr, ptr %offset.addr, align 8
  %83 = load i32, ptr %82, align 4
  %add = add i32 %83, 1
  store i32 %add, ptr %82, align 4
  store i8 1, ptr %ref.tmp22, align 1
  %call23 = call i16 @_ZN2v84JustIbTnPNSt9enable_ifIXntsr3stdE21is_lvalue_reference_vIT_EEvE4typeELPv0EEENS_5MaybeIS2_EEOS2_(ptr noundef nonnull align 1 dereferenceable(1) %ref.tmp22)
  store i16 %call23, ptr %retval, align 1
  %84 = load i16, ptr %retval, align 1
  ret i16 %84
}

declare noundef zeroext i1 @_ZNK2v85Value7IsInt32Ev(ptr noundef nonnull align 1 dereferenceable(1)) #1

declare void @_ZN4node6AssertERKNS_13AssertionInfoE(ptr noundef nonnull align 8 dereferenceable(24)) #1

; Function Attrs: noreturn nounwind
declare void @abort() #5

declare noundef i32 @_ZNK2v85Int325ValueEv(ptr noundef nonnull align 1 dereferenceable(1)) #1

; Function Attrs: mustprogress nounwind uwtable
define linkonce_odr dso_local i16 @_ZN2v84JustIbTnPNSt9enable_ifIXntsr3stdE21is_lvalue_reference_vIT_EEvE4typeELPv0EEENS_5MaybeIS2_EEOS2_(ptr noundef nonnull align 1 dereferenceable(1) %t) #4 comdat {
entry:
  %retval = alloca %"class.v8::Maybe", align 1
  %t.addr = alloca ptr, align 8
  store ptr %t, ptr %t.addr, align 8
  %0 = load ptr, ptr %t.addr, align 8
  call void @_ZN2v85MaybeIbEC2EOb(ptr noundef nonnull align 1 dereferenceable(2) %retval, ptr noundef nonnull align 1 dereferenceable(1) %0)
  %1 = load i16, ptr %retval, align 1
  ret i16 %1
}

; Function Attrs: mustprogress nounwind uwtable
define dso_local void @_ZN4node6crypto19NidKeyPairGenTraits5SetupEPNS0_16KeyPairGenConfigINS0_16NidKeyPairParamsEEE(ptr noalias sret(%"class.std::unique_ptr.5") align 8 %agg.result, ptr noundef %params) #4 align 2 {
entry:
  %result.ptr = alloca ptr, align 8
  %params.addr = alloca ptr, align 8
  %ctx = alloca %"class.std::unique_ptr.5", align 8
  %cleanup.dest.slot = alloca i32, align 4
  store ptr %agg.result, ptr %result.ptr, align 8
  store ptr %params, ptr %params.addr, align 8
  %0 = load ptr, ptr %params.addr, align 8
  %params1 = getelementptr inbounds %"struct.node::crypto::KeyPairGenConfig", ptr %0, i32 0, i32 4
  %id = getelementptr inbounds %"struct.node::crypto::NidKeyPairParams", ptr %params1, i32 0, i32 1
  %1 = load i32, ptr %id, align 8
  %call = call ptr @EVP_PKEY_CTX_new_id(i32 noundef %1, ptr noundef null)
  call void @_ZNSt10unique_ptrI15evp_pkey_ctx_stN4node15FunctionDeleterIS0_XadL_Z17EVP_PKEY_CTX_freeEEEEEC2IS3_vEEPS0_(ptr noundef nonnull align 8 dereferenceable(8) %ctx, ptr noundef %call) #3
  %call2 = call noundef zeroext i1 @_ZNKSt10unique_ptrI15evp_pkey_ctx_stN4node15FunctionDeleterIS0_XadL_Z17EVP_PKEY_CTX_freeEEEEEcvbEv(ptr noundef nonnull align 8 dereferenceable(8) %ctx) #3
  br i1 %call2, label %lor.lhs.false, label %if.then

lor.lhs.false:                                    ; preds = %entry
  %call3 = call noundef ptr @_ZNKSt10unique_ptrI15evp_pkey_ctx_stN4node15FunctionDeleterIS0_XadL_Z17EVP_PKEY_CTX_freeEEEEE3getEv(ptr noundef nonnull align 8 dereferenceable(8) %ctx) #3
  %call4 = call i32 @EVP_PKEY_keygen_init(ptr noundef %call3)
  %cmp = icmp sle i32 %call4, 0
  br i1 %cmp, label %if.then, label %if.end

if.then:                                          ; preds = %lor.lhs.false, %entry
  call void @_ZNSt10unique_ptrI15evp_pkey_ctx_stN4node15FunctionDeleterIS0_XadL_Z17EVP_PKEY_CTX_freeEEEEEC2IS3_vEEv(ptr noundef nonnull align 8 dereferenceable(8) %agg.result) #3
  store i32 1, ptr %cleanup.dest.slot, align 4
  br label %cleanup

if.end:                                           ; preds = %lor.lhs.false
  call void @_ZNSt10unique_ptrI15evp_pkey_ctx_stN4node15FunctionDeleterIS0_XadL_Z17EVP_PKEY_CTX_freeEEEEEC2EOS4_(ptr noundef nonnull align 8 dereferenceable(8) %agg.result, ptr noundef nonnull align 8 dereferenceable(8) %ctx) #3
  store i32 1, ptr %cleanup.dest.slot, align 4
  br label %cleanup

cleanup:                                          ; preds = %if.end, %if.then
  call void @_ZNSt10unique_ptrI15evp_pkey_ctx_stN4node15FunctionDeleterIS0_XadL_Z17EVP_PKEY_CTX_freeEEEEED2Ev(ptr noundef nonnull align 8 dereferenceable(8) %ctx) #3
  ret void
}

declare ptr @EVP_PKEY_CTX_new_id(i32 noundef, ptr noundef) #1

; Function Attrs: mustprogress nounwind uwtable
define linkonce_odr dso_local void @_ZNSt10unique_ptrI15evp_pkey_ctx_stN4node15FunctionDeleterIS0_XadL_Z17EVP_PKEY_CTX_freeEEEEEC2IS3_vEEPS0_(ptr noundef nonnull align 8 dereferenceable(8) %this, ptr noundef %__p) unnamed_addr #4 comdat align 2 {
entry:
  %this.addr = alloca ptr, align 8
  %__p.addr = alloca ptr, align 8
  store ptr %this, ptr %this.addr, align 8
  store ptr %__p, ptr %__p.addr, align 8
  %this1 = load ptr, ptr %this.addr, align 8
  %_M_t = getelementptr inbounds %"class.std::unique_ptr.5", ptr %this1, i32 0, i32 0
  %0 = load ptr, ptr %__p.addr, align 8
  call void @_ZNSt15__uniq_ptr_dataI15evp_pkey_ctx_stN4node15FunctionDeleterIS0_XadL_Z17EVP_PKEY_CTX_freeEEEELb1ELb1EECI2St15__uniq_ptr_implIS0_S3_EEPS0_(ptr noundef nonnull align 8 dereferenceable(8) %_M_t, ptr noundef %0)
  ret void
}

; Function Attrs: mustprogress nounwind uwtable
define linkonce_odr dso_local noundef zeroext i1 @_ZNKSt10unique_ptrI15evp_pkey_ctx_stN4node15FunctionDeleterIS0_XadL_Z17EVP_PKEY_CTX_freeEEEEEcvbEv(ptr noundef nonnull align 8 dereferenceable(8) %this) #4 comdat align 2 {
entry:
  %this.addr = alloca ptr, align 8
  store ptr %this, ptr %this.addr, align 8
  %this1 = load ptr, ptr %this.addr, align 8
  %call = call noundef ptr @_ZNKSt10unique_ptrI15evp_pkey_ctx_stN4node15FunctionDeleterIS0_XadL_Z17EVP_PKEY_CTX_freeEEEEE3getEv(ptr noundef nonnull align 8 dereferenceable(8) %this1) #3
  %cmp = icmp eq ptr %call, null
  %cond = select i1 %cmp, i1 false, i1 true
  ret i1 %cond
}

declare i32 @EVP_PKEY_keygen_init(ptr noundef) #1

; Function Attrs: mustprogress nounwind uwtable
define linkonce_odr dso_local noundef ptr @_ZNKSt10unique_ptrI15evp_pkey_ctx_stN4node15FunctionDeleterIS0_XadL_Z17EVP_PKEY_CTX_freeEEEEE3getEv(ptr noundef nonnull align 8 dereferenceable(8) %this) #4 comdat align 2 {
entry:
  %this.addr = alloca ptr, align 8
  store ptr %this, ptr %this.addr, align 8
  %this1 = load ptr, ptr %this.addr, align 8
  %_M_t = getelementptr inbounds %"class.std::unique_ptr.5", ptr %this1, i32 0, i32 0
  %call = call noundef ptr @_ZNKSt15__uniq_ptr_implI15evp_pkey_ctx_stN4node15FunctionDeleterIS0_XadL_Z17EVP_PKEY_CTX_freeEEEEE6_M_ptrEv(ptr noundef nonnull align 8 dereferenceable(8) %_M_t) #3
  ret ptr %call
}

; Function Attrs: mustprogress nounwind uwtable
define linkonce_odr dso_local void @_ZNSt10unique_ptrI15evp_pkey_ctx_stN4node15FunctionDeleterIS0_XadL_Z17EVP_PKEY_CTX_freeEEEEEC2IS3_vEEv(ptr noundef nonnull align 8 dereferenceable(8) %this) unnamed_addr #4 comdat align 2 {
entry:
  %this.addr = alloca ptr, align 8
  store ptr %this, ptr %this.addr, align 8
  %this1 = load ptr, ptr %this.addr, align 8
  %_M_t = getelementptr inbounds %"class.std::unique_ptr.5", ptr %this1, i32 0, i32 0
  call void @llvm.memset.p0.i64(ptr align 8 %_M_t, i8 0, i64 8, i1 false)
  call void @_ZNSt15__uniq_ptr_dataI15evp_pkey_ctx_stN4node15FunctionDeleterIS0_XadL_Z17EVP_PKEY_CTX_freeEEEELb1ELb1EEC2Ev(ptr noundef nonnull align 8 dereferenceable(8) %_M_t) #3
  ret void
}

; Function Attrs: mustprogress nounwind uwtable
define linkonce_odr dso_local void @_ZNSt10unique_ptrI15evp_pkey_ctx_stN4node15FunctionDeleterIS0_XadL_Z17EVP_PKEY_CTX_freeEEEEEC2EOS4_(ptr noundef nonnull align 8 dereferenceable(8) %this, ptr noundef nonnull align 8 dereferenceable(8) %0) unnamed_addr #4 comdat align 2 {
entry:
  %this.addr = alloca ptr, align 8
  %.addr = alloca ptr, align 8
  store ptr %this, ptr %this.addr, align 8
  store ptr %0, ptr %.addr, align 8
  %this1 = load ptr, ptr %this.addr, align 8
  %_M_t = getelementptr inbounds %"class.std::unique_ptr.5", ptr %this1, i32 0, i32 0
  %1 = load ptr, ptr %.addr, align 8
  %_M_t2 = getelementptr inbounds %"class.std::unique_ptr.5", ptr %1, i32 0, i32 0
  call void @_ZNSt15__uniq_ptr_dataI15evp_pkey_ctx_stN4node15FunctionDeleterIS0_XadL_Z17EVP_PKEY_CTX_freeEEEELb1ELb1EEC2EOS4_(ptr noundef nonnull align 8 dereferenceable(8) %_M_t, ptr noundef nonnull align 8 dereferenceable(8) %_M_t2) #3
  ret void
}

; Function Attrs: mustprogress nounwind uwtable
define linkonce_odr dso_local void @_ZNSt10unique_ptrI15evp_pkey_ctx_stN4node15FunctionDeleterIS0_XadL_Z17EVP_PKEY_CTX_freeEEEEED2Ev(ptr noundef nonnull align 8 dereferenceable(8) %this) unnamed_addr #4 comdat align 2 {
entry:
  %this.addr = alloca ptr, align 8
  %__ptr = alloca ptr, align 8
  store ptr %this, ptr %this.addr, align 8
  %this1 = load ptr, ptr %this.addr, align 8
  %_M_t = getelementptr inbounds %"class.std::unique_ptr.5", ptr %this1, i32 0, i32 0
  %call = call noundef nonnull align 8 dereferenceable(8) ptr @_ZNSt15__uniq_ptr_implI15evp_pkey_ctx_stN4node15FunctionDeleterIS0_XadL_Z17EVP_PKEY_CTX_freeEEEEE6_M_ptrEv(ptr noundef nonnull align 8 dereferenceable(8) %_M_t) #3
  store ptr %call, ptr %__ptr, align 8
  %0 = load ptr, ptr %__ptr, align 8
  %1 = load ptr, ptr %0, align 8
  %cmp = icmp ne ptr %1, null
  br i1 %cmp, label %if.then, label %if.end

if.then:                                          ; preds = %entry
  %call2 = call noundef nonnull align 1 dereferenceable(1) ptr @_ZNSt10unique_ptrI15evp_pkey_ctx_stN4node15FunctionDeleterIS0_XadL_Z17EVP_PKEY_CTX_freeEEEEE11get_deleterEv(ptr noundef nonnull align 8 dereferenceable(8) %this1) #3
  %2 = load ptr, ptr %__ptr, align 8
  %3 = load ptr, ptr %2, align 8
  call void @_ZNK4node15FunctionDeleterI15evp_pkey_ctx_stXadL_Z17EVP_PKEY_CTX_freeEEEclEPS1_(ptr noundef nonnull align 1 dereferenceable(1) %call2, ptr noundef %3)
  br label %if.end

if.end:                                           ; preds = %if.then, %entry
  %4 = load ptr, ptr %__ptr, align 8
  store ptr null, ptr %4, align 8
  ret void
}

; Function Attrs: mustprogress nounwind uwtable
define dso_local void @_ZNK4node6crypto18SecretKeyGenConfig10MemoryInfoEPNS_13MemoryTrackerE(ptr noundef nonnull align 8 dereferenceable(40) %this, ptr noundef %tracker) unnamed_addr #4 align 2 {
entry:
  %this.addr = alloca ptr, align 8
  %tracker.addr = alloca ptr, align 8
  store ptr %this, ptr %this.addr, align 8
  store ptr %tracker, ptr %tracker.addr, align 8
  %this1 = load ptr, ptr %this.addr, align 8
  %out = getelementptr inbounds %"struct.node::crypto::SecretKeyGenConfig", ptr %this1, i32 0, i32 2
  %call = call noundef zeroext i1 @_ZNK4node6crypto10ByteSourcecvbEv(ptr noundef nonnull align 8 dereferenceable(24) %out)
  br i1 %call, label %if.then, label %if.end

if.then:                                          ; preds = %entry
  %0 = load ptr, ptr %tracker.addr, align 8
  %length = getelementptr inbounds %"struct.node::crypto::SecretKeyGenConfig", ptr %this1, i32 0, i32 1
  %1 = load i64, ptr %length, align 8
  call void @_ZN4node13MemoryTracker18TrackFieldWithSizeEPKcmS2_(ptr noundef nonnull align 8 dereferenceable(152) %0, ptr noundef @.str.3, i64 noundef %1, ptr noundef null)
  br label %if.end

if.end:                                           ; preds = %if.then, %entry
  ret void
}

; Function Attrs: mustprogress nounwind uwtable
define linkonce_odr dso_local noundef zeroext i1 @_ZNK4node6crypto10ByteSourcecvbEv(ptr noundef nonnull align 8 dereferenceable(24) %this) #4 comdat align 2 {
entry:
  %this.addr = alloca ptr, align 8
  store ptr %this, ptr %this.addr, align 8
  %this1 = load ptr, ptr %this.addr, align 8
  %data_ = getelementptr inbounds %"class.node::crypto::ByteSource", ptr %this1, i32 0, i32 0
  %0 = load ptr, ptr %data_, align 8
  %cmp = icmp ne ptr %0, null
  ret i1 %cmp
}

; Function Attrs: mustprogress nounwind uwtable
define linkonce_odr dso_local void @_ZN4node13MemoryTracker18TrackFieldWithSizeEPKcmS2_(ptr noundef nonnull align 8 dereferenceable(152) %this, ptr noundef %edge_name, i64 noundef %size, ptr noundef %node_name) #4 comdat align 2 {
entry:
  %this.addr = alloca ptr, align 8
  %edge_name.addr = alloca ptr, align 8
  %size.addr = alloca i64, align 8
  %node_name.addr = alloca ptr, align 8
  store ptr %this, ptr %this.addr, align 8
  store ptr %edge_name, ptr %edge_name.addr, align 8
  store i64 %size, ptr %size.addr, align 8
  store ptr %node_name, ptr %node_name.addr, align 8
  %this1 = load ptr, ptr %this.addr, align 8
  %0 = load i64, ptr %size.addr, align 8
  %cmp = icmp ugt i64 %0, 0
  br i1 %cmp, label %if.then, label %if.end

if.then:                                          ; preds = %entry
  %1 = load ptr, ptr %node_name.addr, align 8
  %2 = load ptr, ptr %edge_name.addr, align 8
  %call = call noundef ptr @_ZN4node11GetNodeNameEPKcS1_(ptr noundef %1, ptr noundef %2)
  %3 = load i64, ptr %size.addr, align 8
  %4 = load ptr, ptr %edge_name.addr, align 8
  %call2 = call noundef ptr @_ZN4node13MemoryTracker7AddNodeEPKcmS2_(ptr noundef nonnull align 8 dereferenceable(152) %this1, ptr noundef %call, i64 noundef %3, ptr noundef %4)
  br label %if.end

if.end:                                           ; preds = %if.then, %entry
  ret void
}

; Function Attrs: mustprogress nounwind uwtable
define dso_local i16 @_ZN4node6crypto18SecretKeyGenTraits16AdditionalConfigENS0_13CryptoJobModeERKN2v820FunctionCallbackInfoINS3_5ValueEEEPjPNS0_18SecretKeyGenConfigE(i32 noundef %mode, ptr noundef nonnull align 8 dereferenceable(20) %args, ptr noundef %offset, ptr noundef %params) #4 align 2 {
entry:
  %slot.addr.i154 = alloca ptr, align 8
  %this.addr.i.i150 = alloca ptr, align 8
  %this.addr.i151 = alloca ptr, align 8
  %this.addr.i147 = alloca ptr, align 8
  %other.addr.i148 = alloca ptr, align 8
  %this.addr.i144 = alloca ptr, align 8
  %other.addr.i145 = alloca ptr, align 8
  %retval.i141 = alloca %"class.v8::Local.18", align 8
  %that.i142 = alloca %"class.v8::Local", align 8
  %ref.tmp.i143 = alloca %"class.v8::LocalBase.19", align 8
  %this.addr.i139 = alloca ptr, align 8
  %slot.addr.i138 = alloca ptr, align 8
  %this.addr.i136 = alloca ptr, align 8
  %this.addr.i.i130 = alloca ptr, align 8
  %location.addr.i.i131 = alloca ptr, align 8
  %this.addr.i132 = alloca ptr, align 8
  %location.addr.i133 = alloca ptr, align 8
  %this.addr.i.i = alloca ptr, align 8
  %location.addr.i.i = alloca ptr, align 8
  %this.addr.i127 = alloca ptr, align 8
  %location.addr.i128 = alloca ptr, align 8
  %this.addr.i124 = alloca ptr, align 8
  %other.addr.i125 = alloca ptr, align 8
  %this.addr.i121 = alloca ptr, align 8
  %other.addr.i122 = alloca ptr, align 8
  %retval.i119 = alloca %"class.v8::LocalBase", align 8
  %slot.addr.i120 = alloca ptr, align 8
  %retval.i117 = alloca %"class.v8::LocalBase", align 8
  %slot.addr.i118 = alloca ptr, align 8
  %this.addr.i114 = alloca ptr, align 8
  %other.addr.i115 = alloca ptr, align 8
  %this.addr.i111 = alloca ptr, align 8
  %other.addr.i112 = alloca ptr, align 8
  %this.addr.i108 = alloca ptr, align 8
  %location.addr.i109 = alloca ptr, align 8
  %this.addr.i105 = alloca ptr, align 8
  %location.addr.i106 = alloca ptr, align 8
  %this.addr.i102 = alloca ptr, align 8
  %location.addr.i103 = alloca ptr, align 8
  %this.addr.i100 = alloca ptr, align 8
  %location.addr.i = alloca ptr, align 8
  %this.addr.i97 = alloca ptr, align 8
  %other.addr.i98 = alloca ptr, align 8
  %this.addr.i95 = alloca ptr, align 8
  %other.addr.i = alloca ptr, align 8
  %retval.i93 = alloca %"class.v8::LocalBase.35", align 8
  %slot.addr.i94 = alloca ptr, align 8
  %retval.i91 = alloca %"class.v8::LocalBase.35", align 8
  %slot.addr.i92 = alloca ptr, align 8
  %retval.i87 = alloca %"class.v8::Local.34", align 8
  %slot.addr.i88 = alloca ptr, align 8
  %ref.tmp.i89 = alloca %"class.v8::LocalBase.35", align 8
  %retval.i83 = alloca %"class.v8::Local.34", align 8
  %slot.addr.i84 = alloca ptr, align 8
  %ref.tmp.i85 = alloca %"class.v8::LocalBase.35", align 8
  %isolate.addr.i76 = alloca ptr, align 8
  %index.addr.i77 = alloca i32, align 4
  %addr.i78 = alloca i64, align 8
  %isolate.addr.i75 = alloca ptr, align 8
  %index.addr.i = alloca i32, align 4
  %addr.i = alloca i64, align 8
  %isolate.addr.i74 = alloca ptr, align 8
  %isolate.addr.i73 = alloca ptr, align 8
  %retval.i69 = alloca %"class.v8::Local", align 8
  %slot.addr.i70 = alloca ptr, align 8
  %ref.tmp.i71 = alloca %"class.v8::LocalBase", align 8
  %retval.i68 = alloca %"class.v8::Local", align 8
  %slot.addr.i = alloca ptr, align 8
  %ref.tmp.i = alloca %"class.v8::LocalBase", align 8
  %that.i65 = alloca %"class.v8::Local.34", align 8
  %this.addr.i66 = alloca ptr, align 8
  %that.i = alloca %"class.v8::Local.34", align 8
  %this.addr.i64 = alloca ptr, align 8
  %this.addr.i61 = alloca ptr, align 8
  %this.addr.i59 = alloca ptr, align 8
  %retval.i54 = alloca %"class.v8::Local.34", align 8
  %isolate.addr.i55 = alloca ptr, align 8
  %slot.i56 = alloca ptr, align 8
  %retval.i52 = alloca %"class.v8::Local.34", align 8
  %isolate.addr.i = alloca ptr, align 8
  %slot.i = alloca ptr, align 8
  %this.addr.i49 = alloca ptr, align 8
  %retval.i44 = alloca %"class.v8::Local.18", align 8
  %this.addr.i45 = alloca ptr, align 8
  %agg.tmp.i46 = alloca %"class.v8::Local", align 8
  %this.addr.i41 = alloca ptr, align 8
  %retval.i23 = alloca %"class.v8::Local", align 8
  %this.addr.i24 = alloca ptr, align 8
  %i.addr.i25 = alloca i32, align 4
  %agg.tmp.i26 = alloca %"class.v8::Local.34", align 8
  %retval.i = alloca %"class.v8::Local", align 8
  %this.addr.i = alloca ptr, align 8
  %i.addr.i = alloca i32, align 4
  %agg.tmp.i = alloca %"class.v8::Local.34", align 8
  %retval = alloca %"class.v8::Maybe", align 1
  %mode.addr = alloca i32, align 4
  %args.addr = alloca ptr, align 8
  %offset.addr = alloca ptr, align 8
  %params.addr = alloca ptr, align 8
  %ref.tmp = alloca %"class.v8::Local", align 8
  %bits = alloca i32, align 4
  %ref.tmp9 = alloca %"class.v8::Local.18", align 8
  %ref.tmp10 = alloca %"class.v8::Local", align 8
  %ref.tmp21 = alloca i8, align 1
  store i32 %mode, ptr %mode.addr, align 4
  store ptr %args, ptr %args.addr, align 8
  store ptr %offset, ptr %offset.addr, align 8
  store ptr %params, ptr %params.addr, align 8
  br label %do.body

do.body:                                          ; preds = %entry
  %0 = load ptr, ptr %args.addr, align 8
  %1 = load ptr, ptr %offset.addr, align 8
  %2 = load i32, ptr %1, align 4
  store ptr %0, ptr %this.addr.i24, align 8
  store i32 %2, ptr %i.addr.i25, align 4
  %this1.i27 = load ptr, ptr %this.addr.i24, align 8
  %3 = load i32, ptr %i.addr.i25, align 4
  %cmp.i28 = icmp slt i32 %3, 0
  br i1 %cmp.i28, label %if.then.i37, label %lor.lhs.false.i29

lor.lhs.false.i29:                                ; preds = %do.body
  %length_.i30 = getelementptr inbounds %"class.v8::FunctionCallbackInfo", ptr %this1.i27, i32 0, i32 2
  %4 = load i32, ptr %length_.i30, align 8
  %5 = load i32, ptr %i.addr.i25, align 4
  %cmp2.i31 = icmp sle i32 %4, %5
  br i1 %cmp2.i31, label %if.then.i37, label %if.end.i32

if.then.i37:                                      ; preds = %lor.lhs.false.i29, %do.body
  store ptr %this1.i27, ptr %this.addr.i59, align 8
  %this1.i60 = load ptr, ptr %this.addr.i59, align 8
  %6 = load ptr, ptr %this1.i60, align 8
  %arrayidx.i = getelementptr inbounds i64, ptr %6, i64 1
  %7 = load ptr, ptr %arrayidx.i, align 8
  store ptr %7, ptr %isolate.addr.i, align 8
  %8 = load ptr, ptr %isolate.addr.i, align 8
  store ptr %8, ptr %isolate.addr.i74, align 8
  %9 = load ptr, ptr %isolate.addr.i, align 8
  store ptr %9, ptr %isolate.addr.i76, align 8
  store i32 4, ptr %index.addr.i77, align 4
  %10 = load ptr, ptr %isolate.addr.i76, align 8
  %11 = ptrtoint ptr %10 to i64
  %add.i79 = add i64 %11, 576
  %12 = load i32, ptr %index.addr.i77, align 4
  %mul.i80 = mul nsw i32 %12, 8
  %conv.i81 = sext i32 %mul.i80 to i64
  %add1.i82 = add i64 %add.i79, %conv.i81
  store i64 %add1.i82, ptr %addr.i78, align 8
  %13 = load i64, ptr %addr.i78, align 8
  %14 = inttoptr i64 %13 to ptr
  store ptr %14, ptr %slot.i, align 8
  %15 = load ptr, ptr %slot.i, align 8
  store ptr %15, ptr %slot.addr.i88, align 8
  %16 = load ptr, ptr %slot.addr.i88, align 8
  store ptr %16, ptr %slot.addr.i92, align 8
  %17 = load ptr, ptr %slot.addr.i92, align 8
  store ptr %retval.i91, ptr %this.addr.i102, align 8
  store ptr %17, ptr %location.addr.i103, align 8
  %this1.i104 = load ptr, ptr %this.addr.i102, align 8
  %18 = load ptr, ptr %location.addr.i103, align 8
  store ptr %this1.i104, ptr %this.addr.i105, align 8
  store ptr %18, ptr %location.addr.i106, align 8
  %this1.i107 = load ptr, ptr %this.addr.i105, align 8
  %19 = load ptr, ptr %location.addr.i106, align 8
  store ptr %19, ptr %this1.i107, align 8
  %20 = load ptr, ptr %retval.i91, align 8
  store ptr %20, ptr %ref.tmp.i89, align 8
  store ptr %retval.i87, ptr %this.addr.i95, align 8
  store ptr %ref.tmp.i89, ptr %other.addr.i, align 8
  %this1.i96 = load ptr, ptr %this.addr.i95, align 8
  %21 = load ptr, ptr %other.addr.i, align 8
  call void @llvm.memcpy.p0.p0.i64(ptr align 8 %this1.i96, ptr align 8 %21, i64 8, i1 false)
  %22 = load ptr, ptr %retval.i87, align 8
  store ptr %22, ptr %retval.i52, align 8
  %23 = load ptr, ptr %retval.i52, align 8
  store ptr %23, ptr %agg.tmp.i26, align 8
  %24 = load ptr, ptr %agg.tmp.i26, align 8
  store ptr %24, ptr %that.i, align 8
  store ptr %retval.i23, ptr %this.addr.i64, align 8
  %this3.i = load ptr, ptr %this.addr.i64, align 8
  store ptr %this3.i, ptr %this.addr.i114, align 8
  store ptr %that.i, ptr %other.addr.i115, align 8
  %this1.i116 = load ptr, ptr %this.addr.i114, align 8
  %25 = load ptr, ptr %other.addr.i115, align 8
  call void @llvm.memcpy.p0.p0.i64(ptr align 8 %this1.i116, ptr align 8 %25, i64 8, i1 false)
  br label %_ZNK2v820FunctionCallbackInfoINS_5ValueEEixEi.exit40

if.end.i32:                                       ; preds = %lor.lhs.false.i29
  %values_.i33 = getelementptr inbounds %"class.v8::FunctionCallbackInfo", ptr %this1.i27, i32 0, i32 1
  %26 = load ptr, ptr %values_.i33, align 8
  %27 = load i32, ptr %i.addr.i25, align 4
  %idx.ext.i34 = sext i32 %27 to i64
  %add.ptr.i35 = getelementptr inbounds i64, ptr %26, i64 %idx.ext.i34
  store ptr %add.ptr.i35, ptr %slot.addr.i, align 8
  %28 = load ptr, ptr %slot.addr.i, align 8
  store ptr %28, ptr %slot.addr.i120, align 8
  %29 = load ptr, ptr %slot.addr.i120, align 8
  store ptr %retval.i119, ptr %this.addr.i127, align 8
  store ptr %29, ptr %location.addr.i128, align 8
  %this1.i129 = load ptr, ptr %this.addr.i127, align 8
  %30 = load ptr, ptr %location.addr.i128, align 8
  store ptr %this1.i129, ptr %this.addr.i.i, align 8
  store ptr %30, ptr %location.addr.i.i, align 8
  %this1.i.i = load ptr, ptr %this.addr.i.i, align 8
  %31 = load ptr, ptr %location.addr.i.i, align 8
  store ptr %31, ptr %this1.i.i, align 8
  %32 = load ptr, ptr %retval.i119, align 8
  store ptr %32, ptr %ref.tmp.i, align 8
  store ptr %retval.i68, ptr %this.addr.i124, align 8
  store ptr %ref.tmp.i, ptr %other.addr.i125, align 8
  %this1.i126 = load ptr, ptr %this.addr.i124, align 8
  %33 = load ptr, ptr %other.addr.i125, align 8
  call void @llvm.memcpy.p0.p0.i64(ptr align 8 %this1.i126, ptr align 8 %33, i64 8, i1 false)
  %34 = load ptr, ptr %retval.i68, align 8
  store ptr %34, ptr %retval.i23, align 8
  br label %_ZNK2v820FunctionCallbackInfoINS_5ValueEEixEi.exit40

_ZNK2v820FunctionCallbackInfoINS_5ValueEEixEi.exit40: ; preds = %if.end.i32, %if.then.i37
  %35 = load ptr, ptr %retval.i23, align 8
  %coerce.dive = getelementptr inbounds %"class.v8::Local", ptr %ref.tmp, i32 0, i32 0
  %coerce.dive1 = getelementptr inbounds %"class.v8::LocalBase", ptr %coerce.dive, i32 0, i32 0
  %coerce.dive2 = getelementptr inbounds %"class.v8::IndirectHandleBase", ptr %coerce.dive1, i32 0, i32 0
  store ptr %35, ptr %coerce.dive2, align 8
  store ptr %ref.tmp, ptr %this.addr.i41, align 8
  %this1.i42 = load ptr, ptr %this.addr.i41, align 8
  store ptr %this1.i42, ptr %this.addr.i136, align 8
  %this1.i137 = load ptr, ptr %this.addr.i136, align 8
  store ptr %this1.i137, ptr %this.addr.i139, align 8
  %this1.i140 = load ptr, ptr %this.addr.i139, align 8
  %36 = load ptr, ptr %this1.i140, align 8
  store ptr %36, ptr %slot.addr.i138, align 8
  %37 = load ptr, ptr %slot.addr.i138, align 8
  %call4 = call noundef zeroext i1 @_ZNK2v85Value8IsUint32Ev(ptr noundef nonnull align 1 dereferenceable(1) %37)
  %lnot = xor i1 %call4, true
  %lnot5 = xor i1 %lnot, true
  %lnot6 = xor i1 %lnot5, true
  br i1 %lnot6, label %if.then, label %if.end

if.then:                                          ; preds = %_ZNK2v820FunctionCallbackInfoINS_5ValueEEixEi.exit40
  br label %do.body7

do.body7:                                         ; preds = %if.then
  call void @_ZN4node6AssertERKNS_13AssertionInfoE(ptr noundef nonnull align 8 dereferenceable(24) @_ZZN4node6crypto18SecretKeyGenTraits16AdditionalConfigENS0_13CryptoJobModeERKN2v820FunctionCallbackInfoINS3_5ValueEEEPjPNS0_18SecretKeyGenConfigEE4args)
  call void @abort() #14
  unreachable

do.end:                                           ; No predecessors!
  br label %if.end

if.end:                                           ; preds = %do.end, %_ZNK2v820FunctionCallbackInfoINS_5ValueEEixEi.exit40
  br label %do.end8

do.end8:                                          ; preds = %if.end
  %38 = load ptr, ptr %args.addr, align 8
  %39 = load ptr, ptr %offset.addr, align 8
  %40 = load i32, ptr %39, align 4
  store ptr %38, ptr %this.addr.i, align 8
  store i32 %40, ptr %i.addr.i, align 4
  %this1.i = load ptr, ptr %this.addr.i, align 8
  %41 = load i32, ptr %i.addr.i, align 4
  %cmp.i = icmp slt i32 %41, 0
  br i1 %cmp.i, label %if.then.i, label %lor.lhs.false.i

lor.lhs.false.i:                                  ; preds = %do.end8
  %length_.i = getelementptr inbounds %"class.v8::FunctionCallbackInfo", ptr %this1.i, i32 0, i32 2
  %42 = load i32, ptr %length_.i, align 8
  %43 = load i32, ptr %i.addr.i, align 4
  %cmp2.i = icmp sle i32 %42, %43
  br i1 %cmp2.i, label %if.then.i, label %if.end.i

if.then.i:                                        ; preds = %lor.lhs.false.i, %do.end8
  store ptr %this1.i, ptr %this.addr.i61, align 8
  %this1.i62 = load ptr, ptr %this.addr.i61, align 8
  %44 = load ptr, ptr %this1.i62, align 8
  %arrayidx.i63 = getelementptr inbounds i64, ptr %44, i64 1
  %45 = load ptr, ptr %arrayidx.i63, align 8
  store ptr %45, ptr %isolate.addr.i55, align 8
  %46 = load ptr, ptr %isolate.addr.i55, align 8
  store ptr %46, ptr %isolate.addr.i73, align 8
  %47 = load ptr, ptr %isolate.addr.i55, align 8
  store ptr %47, ptr %isolate.addr.i75, align 8
  store i32 4, ptr %index.addr.i, align 4
  %48 = load ptr, ptr %isolate.addr.i75, align 8
  %49 = ptrtoint ptr %48 to i64
  %add.i = add i64 %49, 576
  %50 = load i32, ptr %index.addr.i, align 4
  %mul.i = mul nsw i32 %50, 8
  %conv.i = sext i32 %mul.i to i64
  %add1.i = add i64 %add.i, %conv.i
  store i64 %add1.i, ptr %addr.i, align 8
  %51 = load i64, ptr %addr.i, align 8
  %52 = inttoptr i64 %51 to ptr
  store ptr %52, ptr %slot.i56, align 8
  %53 = load ptr, ptr %slot.i56, align 8
  store ptr %53, ptr %slot.addr.i84, align 8
  %54 = load ptr, ptr %slot.addr.i84, align 8
  store ptr %54, ptr %slot.addr.i94, align 8
  %55 = load ptr, ptr %slot.addr.i94, align 8
  store ptr %retval.i93, ptr %this.addr.i100, align 8
  store ptr %55, ptr %location.addr.i, align 8
  %this1.i101 = load ptr, ptr %this.addr.i100, align 8
  %56 = load ptr, ptr %location.addr.i, align 8
  store ptr %this1.i101, ptr %this.addr.i108, align 8
  store ptr %56, ptr %location.addr.i109, align 8
  %this1.i110 = load ptr, ptr %this.addr.i108, align 8
  %57 = load ptr, ptr %location.addr.i109, align 8
  store ptr %57, ptr %this1.i110, align 8
  %58 = load ptr, ptr %retval.i93, align 8
  store ptr %58, ptr %ref.tmp.i85, align 8
  store ptr %retval.i83, ptr %this.addr.i97, align 8
  store ptr %ref.tmp.i85, ptr %other.addr.i98, align 8
  %this1.i99 = load ptr, ptr %this.addr.i97, align 8
  %59 = load ptr, ptr %other.addr.i98, align 8
  call void @llvm.memcpy.p0.p0.i64(ptr align 8 %this1.i99, ptr align 8 %59, i64 8, i1 false)
  %60 = load ptr, ptr %retval.i83, align 8
  store ptr %60, ptr %retval.i54, align 8
  %61 = load ptr, ptr %retval.i54, align 8
  store ptr %61, ptr %agg.tmp.i, align 8
  %62 = load ptr, ptr %agg.tmp.i, align 8
  store ptr %62, ptr %that.i65, align 8
  store ptr %retval.i, ptr %this.addr.i66, align 8
  %this3.i67 = load ptr, ptr %this.addr.i66, align 8
  store ptr %this3.i67, ptr %this.addr.i111, align 8
  store ptr %that.i65, ptr %other.addr.i112, align 8
  %this1.i113 = load ptr, ptr %this.addr.i111, align 8
  %63 = load ptr, ptr %other.addr.i112, align 8
  call void @llvm.memcpy.p0.p0.i64(ptr align 8 %this1.i113, ptr align 8 %63, i64 8, i1 false)
  br label %_ZNK2v820FunctionCallbackInfoINS_5ValueEEixEi.exit

if.end.i:                                         ; preds = %lor.lhs.false.i
  %values_.i = getelementptr inbounds %"class.v8::FunctionCallbackInfo", ptr %this1.i, i32 0, i32 1
  %64 = load ptr, ptr %values_.i, align 8
  %65 = load i32, ptr %i.addr.i, align 4
  %idx.ext.i = sext i32 %65 to i64
  %add.ptr.i = getelementptr inbounds i64, ptr %64, i64 %idx.ext.i
  store ptr %add.ptr.i, ptr %slot.addr.i70, align 8
  %66 = load ptr, ptr %slot.addr.i70, align 8
  store ptr %66, ptr %slot.addr.i118, align 8
  %67 = load ptr, ptr %slot.addr.i118, align 8
  store ptr %retval.i117, ptr %this.addr.i132, align 8
  store ptr %67, ptr %location.addr.i133, align 8
  %this1.i134 = load ptr, ptr %this.addr.i132, align 8
  %68 = load ptr, ptr %location.addr.i133, align 8
  store ptr %this1.i134, ptr %this.addr.i.i130, align 8
  store ptr %68, ptr %location.addr.i.i131, align 8
  %this1.i.i135 = load ptr, ptr %this.addr.i.i130, align 8
  %69 = load ptr, ptr %location.addr.i.i131, align 8
  store ptr %69, ptr %this1.i.i135, align 8
  %70 = load ptr, ptr %retval.i117, align 8
  store ptr %70, ptr %ref.tmp.i71, align 8
  store ptr %retval.i69, ptr %this.addr.i121, align 8
  store ptr %ref.tmp.i71, ptr %other.addr.i122, align 8
  %this1.i123 = load ptr, ptr %this.addr.i121, align 8
  %71 = load ptr, ptr %other.addr.i122, align 8
  call void @llvm.memcpy.p0.p0.i64(ptr align 8 %this1.i123, ptr align 8 %71, i64 8, i1 false)
  %72 = load ptr, ptr %retval.i69, align 8
  store ptr %72, ptr %retval.i, align 8
  br label %_ZNK2v820FunctionCallbackInfoINS_5ValueEEixEi.exit

_ZNK2v820FunctionCallbackInfoINS_5ValueEEixEi.exit: ; preds = %if.end.i, %if.then.i
  %73 = load ptr, ptr %retval.i, align 8
  %coerce.dive12 = getelementptr inbounds %"class.v8::Local", ptr %ref.tmp10, i32 0, i32 0
  %coerce.dive13 = getelementptr inbounds %"class.v8::LocalBase", ptr %coerce.dive12, i32 0, i32 0
  %coerce.dive14 = getelementptr inbounds %"class.v8::IndirectHandleBase", ptr %coerce.dive13, i32 0, i32 0
  store ptr %73, ptr %coerce.dive14, align 8
  store ptr %ref.tmp10, ptr %this.addr.i45, align 8
  %this1.i47 = load ptr, ptr %this.addr.i45, align 8
  call void @llvm.memcpy.p0.p0.i64(ptr align 8 %agg.tmp.i46, ptr align 8 %this1.i47, i64 8, i1 false)
  %74 = load ptr, ptr %agg.tmp.i46, align 8
  store ptr %74, ptr %that.i142, align 8
  store ptr %ref.tmp.i143, ptr %this.addr.i144, align 8
  store ptr %that.i142, ptr %other.addr.i145, align 8
  %this1.i146 = load ptr, ptr %this.addr.i144, align 8
  %75 = load ptr, ptr %other.addr.i145, align 8
  call void @llvm.memcpy.p0.p0.i64(ptr align 8 %this1.i146, ptr align 8 %75, i64 8, i1 false)
  store ptr %retval.i141, ptr %this.addr.i147, align 8
  store ptr %ref.tmp.i143, ptr %other.addr.i148, align 8
  %this1.i149 = load ptr, ptr %this.addr.i147, align 8
  %76 = load ptr, ptr %other.addr.i148, align 8
  call void @llvm.memcpy.p0.p0.i64(ptr align 8 %this1.i149, ptr align 8 %76, i64 8, i1 false)
  %77 = load ptr, ptr %retval.i141, align 8
  store ptr %77, ptr %retval.i44, align 8
  %78 = load ptr, ptr %retval.i44, align 8
  %coerce.dive16 = getelementptr inbounds %"class.v8::Local.18", ptr %ref.tmp9, i32 0, i32 0
  %coerce.dive17 = getelementptr inbounds %"class.v8::LocalBase.19", ptr %coerce.dive16, i32 0, i32 0
  %coerce.dive18 = getelementptr inbounds %"class.v8::IndirectHandleBase", ptr %coerce.dive17, i32 0, i32 0
  store ptr %78, ptr %coerce.dive18, align 8
  store ptr %ref.tmp9, ptr %this.addr.i49, align 8
  %this1.i50 = load ptr, ptr %this.addr.i49, align 8
  store ptr %this1.i50, ptr %this.addr.i151, align 8
  %this1.i152 = load ptr, ptr %this.addr.i151, align 8
  store ptr %this1.i152, ptr %this.addr.i.i150, align 8
  %this1.i.i153 = load ptr, ptr %this.addr.i.i150, align 8
  %79 = load ptr, ptr %this1.i.i153, align 8
  store ptr %79, ptr %slot.addr.i154, align 8
  %80 = load ptr, ptr %slot.addr.i154, align 8
  %call20 = call noundef i32 @_ZNK2v86Uint325ValueEv(ptr noundef nonnull align 1 dereferenceable(1) %80)
  store i32 %call20, ptr %bits, align 4
  %81 = load i32, ptr %bits, align 4
  %div = udiv i32 %81, 8
  %conv = zext i32 %div to i64
  %82 = load ptr, ptr %params.addr, align 8
  %length = getelementptr inbounds %"struct.node::crypto::SecretKeyGenConfig", ptr %82, i32 0, i32 1
  store i64 %conv, ptr %length, align 8
  %83 = load ptr, ptr %offset.addr, align 8
  %84 = load i32, ptr %83, align 4
  %add = add i32 %84, 1
  store i32 %add, ptr %83, align 4
  store i8 1, ptr %ref.tmp21, align 1
  %call22 = call i16 @_ZN2v84JustIbTnPNSt9enable_ifIXntsr3stdE21is_lvalue_reference_vIT_EEvE4typeELPv0EEENS_5MaybeIS2_EEOS2_(ptr noundef nonnull align 1 dereferenceable(1) %ref.tmp21)
  store i16 %call22, ptr %retval, align 1
  %85 = load i16, ptr %retval, align 1
  ret i16 %85
}

declare noundef zeroext i1 @_ZNK2v85Value8IsUint32Ev(ptr noundef nonnull align 1 dereferenceable(1)) #1

declare noundef i32 @_ZNK2v86Uint325ValueEv(ptr noundef nonnull align 1 dereferenceable(1)) #1

; Function Attrs: mustprogress nounwind uwtable
define dso_local noundef i32 @_ZN4node6crypto18SecretKeyGenTraits8DoKeyGenEPNS_11EnvironmentEPNS0_18SecretKeyGenConfigE(ptr noundef %env, ptr noundef %params) #4 align 2 {
entry:
  %retval = alloca i32, align 4
  %env.addr = alloca ptr, align 8
  %params.addr = alloca ptr, align 8
  %bytes = alloca %"class.node::crypto::ByteSource::Builder", align 8
  %ref.tmp = alloca %"struct.node::crypto::CSPRNGResult", align 1
  %cleanup.dest.slot = alloca i32, align 4
  %ref.tmp4 = alloca %"class.node::crypto::ByteSource", align 8
  %agg.tmp = alloca %"class.std::optional", align 8
  store ptr %env, ptr %env.addr, align 8
  store ptr %params, ptr %params.addr, align 8
  %0 = load ptr, ptr %params.addr, align 8
  %length = getelementptr inbounds %"struct.node::crypto::SecretKeyGenConfig", ptr %0, i32 0, i32 1
  %1 = load i64, ptr %length, align 8
  call void @_ZN4node6crypto10ByteSource7BuilderC2Em(ptr noundef nonnull align 8 dereferenceable(16) %bytes, i64 noundef %1)
  %call = call noundef ptr @_ZN4node6crypto10ByteSource7Builder4dataIhEEPT_v(ptr noundef nonnull align 8 dereferenceable(16) %bytes)
  %2 = load ptr, ptr %params.addr, align 8
  %length1 = getelementptr inbounds %"struct.node::crypto::SecretKeyGenConfig", ptr %2, i32 0, i32 1
  %3 = load i64, ptr %length1, align 8
  %call2 = call i8 @_ZN4node6crypto6CSPRNGEPvm(ptr noundef %call, i64 noundef %3)
  %coerce.dive = getelementptr inbounds %"struct.node::crypto::CSPRNGResult", ptr %ref.tmp, i32 0, i32 0
  store i8 %call2, ptr %coerce.dive, align 1
  %call3 = call noundef zeroext i1 @_ZNK4node6crypto12CSPRNGResult6is_errEv(ptr noundef nonnull align 1 dereferenceable(1) %ref.tmp)
  br i1 %call3, label %if.then, label %if.end

if.then:                                          ; preds = %entry
  store i32 1, ptr %retval, align 4
  store i32 1, ptr %cleanup.dest.slot, align 4
  br label %cleanup

if.end:                                           ; preds = %entry
  call void @_ZNSt8optionalImEC2ESt9nullopt_t(ptr noundef nonnull align 8 dereferenceable(16) %agg.tmp) #3
  %4 = getelementptr inbounds { i64, i8 }, ptr %agg.tmp, i32 0, i32 0
  %5 = load i64, ptr %4, align 8
  %6 = getelementptr inbounds { i64, i8 }, ptr %agg.tmp, i32 0, i32 1
  %7 = load i8, ptr %6, align 8
  call void @_ZNO4node6crypto10ByteSource7Builder7releaseESt8optionalImE(ptr sret(%"class.node::crypto::ByteSource") align 8 %ref.tmp4, ptr noundef nonnull align 8 dereferenceable(16) %bytes, i64 %5, i8 %7)
  %8 = load ptr, ptr %params.addr, align 8
  %out = getelementptr inbounds %"struct.node::crypto::SecretKeyGenConfig", ptr %8, i32 0, i32 2
  %call6 = call noundef nonnull align 8 dereferenceable(24) ptr @_ZN4node6crypto10ByteSourceaSEOS1_(ptr noundef nonnull align 8 dereferenceable(24) %out, ptr noundef nonnull align 8 dereferenceable(24) %ref.tmp4) #3
  call void @_ZN4node6crypto10ByteSourceD1Ev(ptr noundef nonnull align 8 dereferenceable(24) %ref.tmp4) #3
  store i32 0, ptr %retval, align 4
  store i32 1, ptr %cleanup.dest.slot, align 4
  br label %cleanup

cleanup:                                          ; preds = %if.end, %if.then
  call void @_ZN4node6crypto10ByteSource7BuilderD2Ev(ptr noundef nonnull align 8 dereferenceable(16) %bytes) #3
  %9 = load i32, ptr %retval, align 4
  ret i32 %9
}

; Function Attrs: mustprogress nounwind uwtable
define linkonce_odr dso_local void @_ZN4node6crypto10ByteSource7BuilderC2Em(ptr noundef nonnull align 8 dereferenceable(16) %this, i64 noundef %size) unnamed_addr #4 comdat align 2 {
entry:
  %this.addr = alloca ptr, align 8
  %size.addr = alloca i64, align 8
  store ptr %this, ptr %this.addr, align 8
  store i64 %size, ptr %size.addr, align 8
  %this1 = load ptr, ptr %this.addr, align 8
  %data_ = getelementptr inbounds %"class.node::crypto::ByteSource::Builder", ptr %this1, i32 0, i32 0
  %0 = load i64, ptr %size.addr, align 8
  %call = call noundef ptr @_ZN4node6crypto13MallocOpenSSLIcEEPT_m(i64 noundef %0)
  store ptr %call, ptr %data_, align 8
  %size_ = getelementptr inbounds %"class.node::crypto::ByteSource::Builder", ptr %this1, i32 0, i32 1
  %1 = load i64, ptr %size.addr, align 8
  store i64 %1, ptr %size_, align 8
  ret void
}

declare i8 @_ZN4node6crypto6CSPRNGEPvm(ptr noundef, i64 noundef) #1

; Function Attrs: mustprogress nounwind uwtable
define linkonce_odr dso_local noundef ptr @_ZN4node6crypto10ByteSource7Builder4dataIhEEPT_v(ptr noundef nonnull align 8 dereferenceable(16) %this) #4 comdat align 2 {
entry:
  %this.addr = alloca ptr, align 8
  store ptr %this, ptr %this.addr, align 8
  %this1 = load ptr, ptr %this.addr, align 8
  %data_ = getelementptr inbounds %"class.node::crypto::ByteSource::Builder", ptr %this1, i32 0, i32 0
  %0 = load ptr, ptr %data_, align 8
  ret ptr %0
}

; Function Attrs: mustprogress nounwind uwtable
define linkonce_odr dso_local noundef zeroext i1 @_ZNK4node6crypto12CSPRNGResult6is_errEv(ptr noundef nonnull align 1 dereferenceable(1) %this) #4 comdat align 2 {
entry:
  %this.addr = alloca ptr, align 8
  store ptr %this, ptr %this.addr, align 8
  %this1 = load ptr, ptr %this.addr, align 8
  %ok = getelementptr inbounds %"struct.node::crypto::CSPRNGResult", ptr %this1, i32 0, i32 0
  %0 = load i8, ptr %ok, align 1
  %tobool = trunc i8 %0 to i1
  %lnot = xor i1 %tobool, true
  ret i1 %lnot
}

; Function Attrs: mustprogress nounwind uwtable
define linkonce_odr dso_local void @_ZNO4node6crypto10ByteSource7Builder7releaseESt8optionalImE(ptr noalias sret(%"class.node::crypto::ByteSource") align 8 %agg.result, ptr noundef nonnull align 8 dereferenceable(16) %this, i64 %resize.coerce0, i8 %resize.coerce1) #4 comdat align 2 {
entry:
  %result.ptr = alloca ptr, align 8
  %resize = alloca %"class.std::optional", align 8
  %this.addr = alloca ptr, align 8
  %nrvo = alloca i1, align 1
  store ptr %agg.result, ptr %result.ptr, align 8
  %0 = getelementptr inbounds { i64, i8 }, ptr %resize, i32 0, i32 0
  store i64 %resize.coerce0, ptr %0, align 8
  %1 = getelementptr inbounds { i64, i8 }, ptr %resize, i32 0, i32 1
  store i8 %resize.coerce1, ptr %1, align 8
  store ptr %this, ptr %this.addr, align 8
  %this1 = load ptr, ptr %this.addr, align 8
  %call = call noundef zeroext i1 @_ZNKSt8optionalImEcvbEv(ptr noundef nonnull align 8 dereferenceable(16) %resize) #3
  br i1 %call, label %if.then, label %if.end16

if.then:                                          ; preds = %entry
  br label %do.body

do.body:                                          ; preds = %if.then
  %call2 = call noundef nonnull align 8 dereferenceable(8) ptr @_ZNRSt8optionalImEdeEv(ptr noundef nonnull align 8 dereferenceable(16) %resize) #3
  %2 = load i64, ptr %call2, align 8
  %size_ = getelementptr inbounds %"class.node::crypto::ByteSource::Builder", ptr %this1, i32 0, i32 1
  %3 = load i64, ptr %size_, align 8
  %cmp = icmp ule i64 %2, %3
  %lnot = xor i1 %cmp, true
  %lnot3 = xor i1 %lnot, true
  %lnot4 = xor i1 %lnot3, true
  br i1 %lnot4, label %if.then5, label %if.end

if.then5:                                         ; preds = %do.body
  br label %do.body6

do.body6:                                         ; preds = %if.then5
  call void @_ZN4node6AssertERKNS_13AssertionInfoE(ptr noundef nonnull align 8 dereferenceable(24) @_ZZNO4node6crypto10ByteSource7Builder7releaseESt8optionalImEE4args)
  call void @abort() #14
  unreachable

do.end:                                           ; No predecessors!
  br label %if.end

if.end:                                           ; preds = %do.end, %do.body
  br label %do.end7

do.end7:                                          ; preds = %if.end
  %call8 = call noundef nonnull align 8 dereferenceable(8) ptr @_ZNRSt8optionalImEdeEv(ptr noundef nonnull align 8 dereferenceable(16) %resize) #3
  %4 = load i64, ptr %call8, align 8
  %cmp9 = icmp eq i64 %4, 0
  br i1 %cmp9, label %if.then10, label %if.end13

if.then10:                                        ; preds = %do.end7
  %data_ = getelementptr inbounds %"class.node::crypto::ByteSource::Builder", ptr %this1, i32 0, i32 0
  %5 = load ptr, ptr %data_, align 8
  %size_11 = getelementptr inbounds %"class.node::crypto::ByteSource::Builder", ptr %this1, i32 0, i32 1
  %6 = load i64, ptr %size_11, align 8
  call void @CRYPTO_clear_free(ptr noundef %5, i64 noundef %6, ptr noundef @.str.9, i32 noundef 242)
  %data_12 = getelementptr inbounds %"class.node::crypto::ByteSource::Builder", ptr %this1, i32 0, i32 0
  store ptr null, ptr %data_12, align 8
  br label %if.end13

if.end13:                                         ; preds = %if.then10, %do.end7
  %call14 = call noundef nonnull align 8 dereferenceable(8) ptr @_ZNRSt8optionalImEdeEv(ptr noundef nonnull align 8 dereferenceable(16) %resize) #3
  %7 = load i64, ptr %call14, align 8
  %size_15 = getelementptr inbounds %"class.node::crypto::ByteSource::Builder", ptr %this1, i32 0, i32 1
  store i64 %7, ptr %size_15, align 8
  br label %if.end16

if.end16:                                         ; preds = %if.end13, %entry
  store i1 false, ptr %nrvo, align 1
  %data_17 = getelementptr inbounds %"class.node::crypto::ByteSource::Builder", ptr %this1, i32 0, i32 0
  %8 = load ptr, ptr %data_17, align 8
  %size_18 = getelementptr inbounds %"class.node::crypto::ByteSource::Builder", ptr %this1, i32 0, i32 1
  %9 = load i64, ptr %size_18, align 8
  call void @_ZN4node6crypto10ByteSource9AllocatedEPvm(ptr sret(%"class.node::crypto::ByteSource") align 8 %agg.result, ptr noundef %8, i64 noundef %9)
  %data_19 = getelementptr inbounds %"class.node::crypto::ByteSource::Builder", ptr %this1, i32 0, i32 0
  store ptr null, ptr %data_19, align 8
  %size_20 = getelementptr inbounds %"class.node::crypto::ByteSource::Builder", ptr %this1, i32 0, i32 1
  store i64 0, ptr %size_20, align 8
  store i1 true, ptr %nrvo, align 1
  %nrvo.val = load i1, ptr %nrvo, align 1
  br i1 %nrvo.val, label %nrvo.skipdtor, label %nrvo.unused

nrvo.unused:                                      ; preds = %if.end16
  call void @_ZN4node6crypto10ByteSourceD1Ev(ptr noundef nonnull align 8 dereferenceable(24) %agg.result) #3
  br label %nrvo.skipdtor

nrvo.skipdtor:                                    ; preds = %nrvo.unused, %if.end16
  ret void
}

; Function Attrs: mustprogress nounwind uwtable
define linkonce_odr dso_local void @_ZNSt8optionalImEC2ESt9nullopt_t(ptr noundef nonnull align 8 dereferenceable(16) %this) unnamed_addr #4 comdat align 2 {
entry:
  %this.addr = alloca ptr, align 8
  store ptr %this, ptr %this.addr, align 8
  %this1 = load ptr, ptr %this.addr, align 8
  call void @_ZNSt14_Optional_baseImLb1ELb1EEC2Ev(ptr noundef nonnull align 8 dereferenceable(16) %this1) #3
  ret void
}

; Function Attrs: nounwind
declare noundef nonnull align 8 dereferenceable(24) ptr @_ZN4node6crypto10ByteSourceaSEOS1_(ptr noundef nonnull align 8 dereferenceable(24), ptr noundef nonnull align 8 dereferenceable(24)) #2

; Function Attrs: nounwind
declare void @_ZN4node6crypto10ByteSourceD1Ev(ptr noundef nonnull align 8 dereferenceable(24)) unnamed_addr #2

; Function Attrs: mustprogress nounwind uwtable
define linkonce_odr dso_local void @_ZN4node6crypto10ByteSource7BuilderD2Ev(ptr noundef nonnull align 8 dereferenceable(16) %this) unnamed_addr #4 comdat align 2 {
entry:
  %this.addr = alloca ptr, align 8
  store ptr %this, ptr %this.addr, align 8
  %this1 = load ptr, ptr %this.addr, align 8
  %data_ = getelementptr inbounds %"class.node::crypto::ByteSource::Builder", ptr %this1, i32 0, i32 0
  %0 = load ptr, ptr %data_, align 8
  %size_ = getelementptr inbounds %"class.node::crypto::ByteSource::Builder", ptr %this1, i32 0, i32 1
  %1 = load i64, ptr %size_, align 8
  call void @CRYPTO_clear_free(ptr noundef %0, i64 noundef %1, ptr noundef @.str.9, i32 noundef 225)
  ret void
}

; Function Attrs: mustprogress nounwind uwtable
define dso_local i16 @_ZN4node6crypto18SecretKeyGenTraits9EncodeKeyEPNS_11EnvironmentEPNS0_18SecretKeyGenConfigEPN2v85LocalINS6_5ValueEEE(ptr noundef %env, ptr noundef %params, ptr noundef %result) #4 align 2 {
entry:
  %this.addr.i14 = alloca ptr, align 8
  %this.addr.i12 = alloca ptr, align 8
  %other.addr.i = alloca ptr, align 8
  %this.addr.i9 = alloca ptr, align 8
  %that.i = alloca %"class.v8::Local.23", align 8
  %this.addr.i8 = alloca ptr, align 8
  %this.addr.i = alloca ptr, align 8
  %out.addr.i = alloca ptr, align 8
  %ref.tmp.i = alloca %"class.v8::Local", align 8
  %agg.tmp.i = alloca %"class.v8::Local.23", align 8
  %retval = alloca %"class.v8::Maybe", align 1
  %env.addr = alloca ptr, align 8
  %params.addr = alloca ptr, align 8
  %result.addr = alloca ptr, align 8
  %data = alloca %"class.std::shared_ptr.20", align 8
  %agg.tmp = alloca %"class.node::crypto::ByteSource", align 8
  %ref.tmp = alloca i8, align 1
  %ref.tmp1 = alloca %"class.v8::MaybeLocal", align 8
  %agg.tmp2 = alloca %"class.std::shared_ptr.20", align 8
  store ptr %env, ptr %env.addr, align 8
  store ptr %params, ptr %params.addr, align 8
  store ptr %result, ptr %result.addr, align 8
  %0 = load ptr, ptr %params.addr, align 8
  %out = getelementptr inbounds %"struct.node::crypto::SecretKeyGenConfig", ptr %0, i32 0, i32 2
  call void @_ZN4node6crypto10ByteSourceC1EOS1_(ptr noundef nonnull align 8 dereferenceable(24) %agg.tmp, ptr noundef nonnull align 8 dereferenceable(24) %out) #3
  call void @_ZN4node6crypto13KeyObjectData12CreateSecretENS0_10ByteSourceE(ptr sret(%"class.std::shared_ptr.20") align 8 %data, ptr noundef %agg.tmp)
  call void @_ZN4node6crypto10ByteSourceD1Ev(ptr noundef nonnull align 8 dereferenceable(24) %agg.tmp) #3
  %1 = load ptr, ptr %env.addr, align 8
  call void @_ZNSt10shared_ptrIN4node6crypto13KeyObjectDataEEC2ERKS3_(ptr noundef nonnull align 8 dereferenceable(16) %agg.tmp2, ptr noundef nonnull align 8 dereferenceable(16) %data) #3
  %call = call ptr @_ZN4node6crypto15KeyObjectHandle6CreateEPNS_11EnvironmentESt10shared_ptrINS0_13KeyObjectDataEE(ptr noundef %1, ptr noundef %agg.tmp2)
  %coerce.dive = getelementptr inbounds %"class.v8::MaybeLocal", ptr %ref.tmp1, i32 0, i32 0
  %coerce.dive3 = getelementptr inbounds %"class.v8::Local.23", ptr %coerce.dive, i32 0, i32 0
  %coerce.dive4 = getelementptr inbounds %"class.v8::LocalBase.24", ptr %coerce.dive3, i32 0, i32 0
  %coerce.dive5 = getelementptr inbounds %"class.v8::IndirectHandleBase", ptr %coerce.dive4, i32 0, i32 0
  store ptr %call, ptr %coerce.dive5, align 8
  %2 = load ptr, ptr %result.addr, align 8
  store ptr %ref.tmp1, ptr %this.addr.i, align 8
  store ptr %2, ptr %out.addr.i, align 8
  %this1.i = load ptr, ptr %this.addr.i, align 8
  call void @llvm.memcpy.p0.p0.i64(ptr align 8 %agg.tmp.i, ptr align 8 %this1.i, i64 8, i1 false)
  %3 = load ptr, ptr %agg.tmp.i, align 8
  store ptr %3, ptr %that.i, align 8
  store ptr %ref.tmp.i, ptr %this.addr.i8, align 8
  %this3.i = load ptr, ptr %this.addr.i8, align 8
  store ptr %this3.i, ptr %this.addr.i12, align 8
  store ptr %that.i, ptr %other.addr.i, align 8
  %this1.i13 = load ptr, ptr %this.addr.i12, align 8
  %4 = load ptr, ptr %other.addr.i, align 8
  call void @llvm.memcpy.p0.p0.i64(ptr align 8 %this1.i13, ptr align 8 %4, i64 8, i1 false)
  %5 = load ptr, ptr %out.addr.i, align 8
  call void @llvm.memcpy.p0.p0.i64(ptr align 8 %5, ptr align 8 %ref.tmp.i, i64 8, i1 false)
  store ptr %this1.i, ptr %this.addr.i9, align 8
  %this1.i10 = load ptr, ptr %this.addr.i9, align 8
  store ptr %this1.i10, ptr %this.addr.i14, align 8
  %this1.i15 = load ptr, ptr %this.addr.i14, align 8
  %6 = load ptr, ptr %this1.i15, align 8
  %cmp.i = icmp eq ptr %6, null
  %lnot.i = xor i1 %cmp.i, true
  %frombool = zext i1 %lnot.i to i8
  store i8 %frombool, ptr %ref.tmp, align 1
  %call7 = call i16 @_ZN2v84JustIbTnPNSt9enable_ifIXntsr3stdE21is_lvalue_reference_vIT_EEvE4typeELPv0EEENS_5MaybeIS2_EEOS2_(ptr noundef nonnull align 1 dereferenceable(1) %ref.tmp)
  store i16 %call7, ptr %retval, align 1
  call void @_ZNSt10shared_ptrIN4node6crypto13KeyObjectDataEED2Ev(ptr noundef nonnull align 8 dereferenceable(16) %agg.tmp2) #3
  call void @_ZNSt10shared_ptrIN4node6crypto13KeyObjectDataEED2Ev(ptr noundef nonnull align 8 dereferenceable(16) %data) #3
  %7 = load i16, ptr %retval, align 1
  ret i16 %7
}

declare void @_ZN4node6crypto13KeyObjectData12CreateSecretENS0_10ByteSourceE(ptr sret(%"class.std::shared_ptr.20") align 8, ptr noundef) #1

; Function Attrs: nounwind
declare void @_ZN4node6crypto10ByteSourceC1EOS1_(ptr noundef nonnull align 8 dereferenceable(24), ptr noundef nonnull align 8 dereferenceable(24)) unnamed_addr #2

declare ptr @_ZN4node6crypto15KeyObjectHandle6CreateEPNS_11EnvironmentESt10shared_ptrINS0_13KeyObjectDataEE(ptr noundef, ptr noundef) #1

; Function Attrs: mustprogress nounwind uwtable
define linkonce_odr dso_local void @_ZNSt10shared_ptrIN4node6crypto13KeyObjectDataEEC2ERKS3_(ptr noundef nonnull align 8 dereferenceable(16) %this, ptr noundef nonnull align 8 dereferenceable(16) %0) unnamed_addr #4 comdat align 2 {
entry:
  %this.addr = alloca ptr, align 8
  %.addr = alloca ptr, align 8
  store ptr %this, ptr %this.addr, align 8
  store ptr %0, ptr %.addr, align 8
  %this1 = load ptr, ptr %this.addr, align 8
  %1 = load ptr, ptr %.addr, align 8
  call void @_ZNSt12__shared_ptrIN4node6crypto13KeyObjectDataELN9__gnu_cxx12_Lock_policyE2EEC2ERKS5_(ptr noundef nonnull align 8 dereferenceable(16) %this1, ptr noundef nonnull align 8 dereferenceable(16) %1) #3
  ret void
}

; Function Attrs: mustprogress nounwind uwtable
define linkonce_odr dso_local void @_ZNSt10shared_ptrIN4node6crypto13KeyObjectDataEED2Ev(ptr noundef nonnull align 8 dereferenceable(16) %this) unnamed_addr #4 comdat align 2 {
entry:
  %this.addr = alloca ptr, align 8
  store ptr %this, ptr %this.addr, align 8
  %this1 = load ptr, ptr %this.addr, align 8
  call void @_ZNSt12__shared_ptrIN4node6crypto13KeyObjectDataELN9__gnu_cxx12_Lock_policyE2EED2Ev(ptr noundef nonnull align 8 dereferenceable(16) %this1) #3
  ret void
}

; Function Attrs: mustprogress nounwind uwtable
define dso_local void @_ZN4node6crypto6Keygen10InitializeEPNS_11EnvironmentEN2v85LocalINS4_6ObjectEEE(ptr noundef %env, ptr %target.coerce) #4 {
entry:
  %target = alloca %"class.v8::Local.23", align 8
  %env.addr = alloca ptr, align 8
  %agg.tmp = alloca %"class.v8::Local.23", align 8
  %agg.tmp6 = alloca %"class.v8::Local.23", align 8
  %coerce.dive = getelementptr inbounds %"class.v8::Local.23", ptr %target, i32 0, i32 0
  %coerce.dive1 = getelementptr inbounds %"class.v8::LocalBase.24", ptr %coerce.dive, i32 0, i32 0
  %coerce.dive2 = getelementptr inbounds %"class.v8::IndirectHandleBase", ptr %coerce.dive1, i32 0, i32 0
  store ptr %target.coerce, ptr %coerce.dive2, align 8
  store ptr %env, ptr %env.addr, align 8
  %0 = load ptr, ptr %env.addr, align 8
  call void @llvm.memcpy.p0.p0.i64(ptr align 8 %agg.tmp, ptr align 8 %target, i64 8, i1 false)
  %coerce.dive3 = getelementptr inbounds %"class.v8::Local.23", ptr %agg.tmp, i32 0, i32 0
  %coerce.dive4 = getelementptr inbounds %"class.v8::LocalBase.24", ptr %coerce.dive3, i32 0, i32 0
  %coerce.dive5 = getelementptr inbounds %"class.v8::IndirectHandleBase", ptr %coerce.dive4, i32 0, i32 0
  %1 = load ptr, ptr %coerce.dive5, align 8
  call void @_ZN4node6crypto9KeyGenJobINS0_16KeyPairGenTraitsINS0_19NidKeyPairGenTraitsEEEE10InitializeEPNS_11EnvironmentEN2v85LocalINS8_6ObjectEEE(ptr noundef %0, ptr %1)
  %2 = load ptr, ptr %env.addr, align 8
  call void @llvm.memcpy.p0.p0.i64(ptr align 8 %agg.tmp6, ptr align 8 %target, i64 8, i1 false)
  %coerce.dive7 = getelementptr inbounds %"class.v8::Local.23", ptr %agg.tmp6, i32 0, i32 0
  %coerce.dive8 = getelementptr inbounds %"class.v8::LocalBase.24", ptr %coerce.dive7, i32 0, i32 0
  %coerce.dive9 = getelementptr inbounds %"class.v8::IndirectHandleBase", ptr %coerce.dive8, i32 0, i32 0
  %3 = load ptr, ptr %coerce.dive9, align 8
  call void @_ZN4node6crypto9KeyGenJobINS0_18SecretKeyGenTraitsEE10InitializeEPNS_11EnvironmentEN2v85LocalINS6_6ObjectEEE(ptr noundef %2, ptr %3)
  ret void
}

; Function Attrs: mustprogress nounwind uwtable
define linkonce_odr dso_local void @_ZN4node6crypto9KeyGenJobINS0_16KeyPairGenTraitsINS0_19NidKeyPairGenTraitsEEEE10InitializeEPNS_11EnvironmentEN2v85LocalINS8_6ObjectEEE(ptr noundef %env, ptr %target.coerce) #4 comdat align 2 {
entry:
  %target = alloca %"class.v8::Local.23", align 8
  %env.addr = alloca ptr, align 8
  %agg.tmp = alloca %"class.v8::Local.23", align 8
  %coerce.dive = getelementptr inbounds %"class.v8::Local.23", ptr %target, i32 0, i32 0
  %coerce.dive1 = getelementptr inbounds %"class.v8::LocalBase.24", ptr %coerce.dive, i32 0, i32 0
  %coerce.dive2 = getelementptr inbounds %"class.v8::IndirectHandleBase", ptr %coerce.dive1, i32 0, i32 0
  store ptr %target.coerce, ptr %coerce.dive2, align 8
  store ptr %env, ptr %env.addr, align 8
  %0 = load ptr, ptr %env.addr, align 8
  call void @llvm.memcpy.p0.p0.i64(ptr align 8 %agg.tmp, ptr align 8 %target, i64 8, i1 false)
  %coerce.dive3 = getelementptr inbounds %"class.v8::Local.23", ptr %agg.tmp, i32 0, i32 0
  %coerce.dive4 = getelementptr inbounds %"class.v8::LocalBase.24", ptr %coerce.dive3, i32 0, i32 0
  %coerce.dive5 = getelementptr inbounds %"class.v8::IndirectHandleBase", ptr %coerce.dive4, i32 0, i32 0
  %1 = load ptr, ptr %coerce.dive5, align 8
  call void @_ZN4node6crypto9CryptoJobINS0_16KeyPairGenTraitsINS0_19NidKeyPairGenTraitsEEEE10InitializeEPFvRKN2v820FunctionCallbackInfoINS6_5ValueEEEEPNS_11EnvironmentENS6_5LocalINS6_6ObjectEEE(ptr noundef @_ZN4node6crypto9KeyGenJobINS0_16KeyPairGenTraitsINS0_19NidKeyPairGenTraitsEEEE3NewERKN2v820FunctionCallbackInfoINS6_5ValueEEE, ptr noundef %0, ptr %1)
  ret void
}

; Function Attrs: nocallback nofree nounwind willreturn memory(argmem: readwrite)
declare void @llvm.memcpy.p0.p0.i64(ptr noalias nocapture writeonly, ptr noalias nocapture readonly, i64, i1 immarg) #6

; Function Attrs: mustprogress nounwind uwtable
define linkonce_odr dso_local void @_ZN4node6crypto9KeyGenJobINS0_18SecretKeyGenTraitsEE10InitializeEPNS_11EnvironmentEN2v85LocalINS6_6ObjectEEE(ptr noundef %env, ptr %target.coerce) #4 comdat align 2 {
entry:
  %target = alloca %"class.v8::Local.23", align 8
  %env.addr = alloca ptr, align 8
  %agg.tmp = alloca %"class.v8::Local.23", align 8
  %coerce.dive = getelementptr inbounds %"class.v8::Local.23", ptr %target, i32 0, i32 0
  %coerce.dive1 = getelementptr inbounds %"class.v8::LocalBase.24", ptr %coerce.dive, i32 0, i32 0
  %coerce.dive2 = getelementptr inbounds %"class.v8::IndirectHandleBase", ptr %coerce.dive1, i32 0, i32 0
  store ptr %target.coerce, ptr %coerce.dive2, align 8
  store ptr %env, ptr %env.addr, align 8
  %0 = load ptr, ptr %env.addr, align 8
  call void @llvm.memcpy.p0.p0.i64(ptr align 8 %agg.tmp, ptr align 8 %target, i64 8, i1 false)
  %coerce.dive3 = getelementptr inbounds %"class.v8::Local.23", ptr %agg.tmp, i32 0, i32 0
  %coerce.dive4 = getelementptr inbounds %"class.v8::LocalBase.24", ptr %coerce.dive3, i32 0, i32 0
  %coerce.dive5 = getelementptr inbounds %"class.v8::IndirectHandleBase", ptr %coerce.dive4, i32 0, i32 0
  %1 = load ptr, ptr %coerce.dive5, align 8
  call void @_ZN4node6crypto9CryptoJobINS0_18SecretKeyGenTraitsEE10InitializeEPFvRKN2v820FunctionCallbackInfoINS4_5ValueEEEEPNS_11EnvironmentENS4_5LocalINS4_6ObjectEEE(ptr noundef @_ZN4node6crypto9KeyGenJobINS0_18SecretKeyGenTraitsEE3NewERKN2v820FunctionCallbackInfoINS4_5ValueEEE, ptr noundef %0, ptr %1)
  ret void
}

; Function Attrs: mustprogress nounwind uwtable
define dso_local void @_ZN4node6crypto6Keygen26RegisterExternalReferencesEPNS_25ExternalReferenceRegistryE(ptr noundef %registry) #4 {
entry:
  %registry.addr = alloca ptr, align 8
  store ptr %registry, ptr %registry.addr, align 8
  %0 = load ptr, ptr %registry.addr, align 8
  call void @_ZN4node6crypto9KeyGenJobINS0_16KeyPairGenTraitsINS0_19NidKeyPairGenTraitsEEEE26RegisterExternalReferencesEPNS_25ExternalReferenceRegistryE(ptr noundef %0)
  %1 = load ptr, ptr %registry.addr, align 8
  call void @_ZN4node6crypto9KeyGenJobINS0_18SecretKeyGenTraitsEE26RegisterExternalReferencesEPNS_25ExternalReferenceRegistryE(ptr noundef %1)
  ret void
}

; Function Attrs: mustprogress nounwind uwtable
define linkonce_odr dso_local void @_ZN4node6crypto9KeyGenJobINS0_16KeyPairGenTraitsINS0_19NidKeyPairGenTraitsEEEE26RegisterExternalReferencesEPNS_25ExternalReferenceRegistryE(ptr noundef %registry) #4 comdat align 2 {
entry:
  %registry.addr = alloca ptr, align 8
  store ptr %registry, ptr %registry.addr, align 8
  %0 = load ptr, ptr %registry.addr, align 8
  call void @_ZN4node6crypto9CryptoJobINS0_16KeyPairGenTraitsINS0_19NidKeyPairGenTraitsEEEE26RegisterExternalReferencesEPFvRKN2v820FunctionCallbackInfoINS6_5ValueEEEEPNS_25ExternalReferenceRegistryE(ptr noundef @_ZN4node6crypto9KeyGenJobINS0_16KeyPairGenTraitsINS0_19NidKeyPairGenTraitsEEEE3NewERKN2v820FunctionCallbackInfoINS6_5ValueEEE, ptr noundef %0)
  ret void
}

; Function Attrs: mustprogress nounwind uwtable
define linkonce_odr dso_local void @_ZN4node6crypto9KeyGenJobINS0_18SecretKeyGenTraitsEE26RegisterExternalReferencesEPNS_25ExternalReferenceRegistryE(ptr noundef %registry) #4 comdat align 2 {
entry:
  %registry.addr = alloca ptr, align 8
  store ptr %registry, ptr %registry.addr, align 8
  %0 = load ptr, ptr %registry.addr, align 8
  call void @_ZN4node6crypto9CryptoJobINS0_18SecretKeyGenTraitsEE26RegisterExternalReferencesEPFvRKN2v820FunctionCallbackInfoINS4_5ValueEEEEPNS_25ExternalReferenceRegistryE(ptr noundef @_ZN4node6crypto9KeyGenJobINS0_18SecretKeyGenTraitsEE3NewERKN2v820FunctionCallbackInfoINS4_5ValueEEE, ptr noundef %0)
  ret void
}

; Function Attrs: mustprogress nounwind uwtable
define linkonce_odr dso_local void @_ZN4node6crypto18SecretKeyGenConfigD2Ev(ptr noundef nonnull align 8 dereferenceable(40) %this) unnamed_addr #4 comdat align 2 {
entry:
  %this.addr = alloca ptr, align 8
  store ptr %this, ptr %this.addr, align 8
  %this1 = load ptr, ptr %this.addr, align 8
  %out = getelementptr inbounds %"struct.node::crypto::SecretKeyGenConfig", ptr %this1, i32 0, i32 2
  call void @_ZN4node6crypto10ByteSourceD1Ev(ptr noundef nonnull align 8 dereferenceable(24) %out) #3
  call void @_ZN4node14MemoryRetainerD2Ev(ptr noundef nonnull align 8 dereferenceable(8) %this1) #3
  ret void
}

; Function Attrs: mustprogress nounwind uwtable
define linkonce_odr dso_local void @_ZN4node6crypto18SecretKeyGenConfigD0Ev(ptr noundef nonnull align 8 dereferenceable(40) %this) unnamed_addr #4 comdat align 2 {
entry:
  %this.addr = alloca ptr, align 8
  store ptr %this, ptr %this.addr, align 8
  %this1 = load ptr, ptr %this.addr, align 8
  call void @_ZN4node6crypto18SecretKeyGenConfigD2Ev(ptr noundef nonnull align 8 dereferenceable(40) %this1) #3
  call void @_ZdlPv(ptr noundef %this1) #15
  ret void
}

; Function Attrs: mustprogress nounwind uwtable
define linkonce_odr dso_local noundef ptr @_ZNK4node6crypto18SecretKeyGenConfig14MemoryInfoNameEv(ptr noundef nonnull align 8 dereferenceable(40) %this) unnamed_addr #4 comdat align 2 {
entry:
  %this.addr = alloca ptr, align 8
  store ptr %this, ptr %this.addr, align 8
  ret ptr @.str.19
}

; Function Attrs: mustprogress nounwind uwtable
define linkonce_odr dso_local noundef i64 @_ZNK4node6crypto18SecretKeyGenConfig8SelfSizeEv(ptr noundef nonnull align 8 dereferenceable(40) %this) unnamed_addr #4 comdat align 2 {
entry:
  %this.addr = alloca ptr, align 8
  store ptr %this, ptr %this.addr, align 8
  ret i64 40
}

; Function Attrs: mustprogress nounwind uwtable
define linkonce_odr dso_local ptr @_ZNK4node14MemoryRetainer13WrappedObjectEv(ptr noundef nonnull align 8 dereferenceable(8) %this) unnamed_addr #4 comdat align 2 {
entry:
  %this.addr.i.i = alloca ptr, align 8
  %this.addr.i4 = alloca ptr, align 8
  %this.addr.i = alloca ptr, align 8
  %retval = alloca %"class.v8::Local.23", align 8
  %this.addr = alloca ptr, align 8
  store ptr %this, ptr %this.addr, align 8
  call void @llvm.memset.p0.i64(ptr align 8 %retval, i8 0, i64 8, i1 false)
  store ptr %retval, ptr %this.addr.i, align 8
  %this1.i = load ptr, ptr %this.addr.i, align 8
  store ptr %this1.i, ptr %this.addr.i4, align 8
  %this1.i5 = load ptr, ptr %this.addr.i4, align 8
  store ptr %this1.i5, ptr %this.addr.i.i, align 8
  %this1.i.i = load ptr, ptr %this.addr.i.i, align 8
  store ptr null, ptr %this1.i.i, align 8
  %coerce.dive = getelementptr inbounds %"class.v8::Local.23", ptr %retval, i32 0, i32 0
  %coerce.dive2 = getelementptr inbounds %"class.v8::LocalBase.24", ptr %coerce.dive, i32 0, i32 0
  %coerce.dive3 = getelementptr inbounds %"class.v8::IndirectHandleBase", ptr %coerce.dive2, i32 0, i32 0
  %0 = load ptr, ptr %coerce.dive3, align 8
  ret ptr %0
}

; Function Attrs: mustprogress nounwind uwtable
define linkonce_odr dso_local noundef zeroext i1 @_ZNK4node14MemoryRetainer10IsRootNodeEv(ptr noundef nonnull align 8 dereferenceable(8) %this) unnamed_addr #4 comdat align 2 {
entry:
  %this.addr = alloca ptr, align 8
  store ptr %this, ptr %this.addr, align 8
  ret i1 false
}

; Function Attrs: mustprogress nounwind uwtable
define linkonce_odr dso_local noundef zeroext i8 @_ZNK4node14MemoryRetainer15GetDetachednessEv(ptr noundef nonnull align 8 dereferenceable(8) %this) unnamed_addr #4 comdat align 2 {
entry:
  %this.addr = alloca ptr, align 8
  store ptr %this, ptr %this.addr, align 8
  ret i8 0
}

; Function Attrs: nocallback nofree nounwind willreturn memory(argmem: write)
declare void @llvm.memset.p0.i64(ptr nocapture writeonly, i8, i64, i1 immarg) #7

; Function Attrs: mustprogress nounwind uwtable
define linkonce_odr dso_local void @_ZNSt15__uniq_ptr_dataI15evp_pkey_ctx_stN4node15FunctionDeleterIS0_XadL_Z17EVP_PKEY_CTX_freeEEEELb1ELb1EEC2Ev(ptr noundef nonnull align 8 dereferenceable(8) %this) unnamed_addr #4 comdat align 2 {
entry:
  %this.addr = alloca ptr, align 8
  store ptr %this, ptr %this.addr, align 8
  %this1 = load ptr, ptr %this.addr, align 8
  call void @_ZNSt15__uniq_ptr_implI15evp_pkey_ctx_stN4node15FunctionDeleterIS0_XadL_Z17EVP_PKEY_CTX_freeEEEEEC2Ev(ptr noundef nonnull align 8 dereferenceable(8) %this1) #3
  ret void
}

; Function Attrs: mustprogress nounwind uwtable
define linkonce_odr dso_local void @_ZNSt15__uniq_ptr_implI15evp_pkey_ctx_stN4node15FunctionDeleterIS0_XadL_Z17EVP_PKEY_CTX_freeEEEEEC2Ev(ptr noundef nonnull align 8 dereferenceable(8) %this) unnamed_addr #4 comdat align 2 {
entry:
  %this.addr = alloca ptr, align 8
  store ptr %this, ptr %this.addr, align 8
  %this1 = load ptr, ptr %this.addr, align 8
  %_M_t = getelementptr inbounds %"class.std::__uniq_ptr_impl.7", ptr %this1, i32 0, i32 0
  call void @_ZNSt5tupleIJP15evp_pkey_ctx_stN4node15FunctionDeleterIS0_XadL_Z17EVP_PKEY_CTX_freeEEEEEEC2ILb1ETnNSt9enable_ifIXclsr17_TupleConstraintsIXT_ES1_S4_EE37__is_implicitly_default_constructibleEEbE4typeELb1EEEv(ptr noundef nonnull align 8 dereferenceable(8) %_M_t) #3
  ret void
}

; Function Attrs: mustprogress nounwind uwtable
define linkonce_odr dso_local void @_ZNSt5tupleIJP15evp_pkey_ctx_stN4node15FunctionDeleterIS0_XadL_Z17EVP_PKEY_CTX_freeEEEEEEC2ILb1ETnNSt9enable_ifIXclsr17_TupleConstraintsIXT_ES1_S4_EE37__is_implicitly_default_constructibleEEbE4typeELb1EEEv(ptr noundef nonnull align 8 dereferenceable(8) %this) unnamed_addr #4 comdat align 2 {
entry:
  %this.addr = alloca ptr, align 8
  store ptr %this, ptr %this.addr, align 8
  %this1 = load ptr, ptr %this.addr, align 8
  call void @_ZNSt11_Tuple_implILm0EJP15evp_pkey_ctx_stN4node15FunctionDeleterIS0_XadL_Z17EVP_PKEY_CTX_freeEEEEEEC2Ev(ptr noundef nonnull align 8 dereferenceable(8) %this1)
  ret void
}

; Function Attrs: mustprogress nounwind uwtable
define linkonce_odr dso_local void @_ZNSt11_Tuple_implILm0EJP15evp_pkey_ctx_stN4node15FunctionDeleterIS0_XadL_Z17EVP_PKEY_CTX_freeEEEEEEC2Ev(ptr noundef nonnull align 8 dereferenceable(8) %this) unnamed_addr #4 comdat align 2 {
entry:
  %this.addr = alloca ptr, align 8
  store ptr %this, ptr %this.addr, align 8
  %this1 = load ptr, ptr %this.addr, align 8
  call void @_ZNSt11_Tuple_implILm1EJN4node15FunctionDeleterI15evp_pkey_ctx_stXadL_Z17EVP_PKEY_CTX_freeEEEEEEC2Ev(ptr noundef nonnull align 1 dereferenceable(1) %this1)
  call void @_ZNSt10_Head_baseILm0EP15evp_pkey_ctx_stLb0EEC2Ev(ptr noundef nonnull align 8 dereferenceable(8) %this1)
  ret void
}

; Function Attrs: mustprogress nounwind uwtable
define linkonce_odr dso_local void @_ZNSt11_Tuple_implILm1EJN4node15FunctionDeleterI15evp_pkey_ctx_stXadL_Z17EVP_PKEY_CTX_freeEEEEEEC2Ev(ptr noundef nonnull align 1 dereferenceable(1) %this) unnamed_addr #4 comdat align 2 {
entry:
  %this.addr = alloca ptr, align 8
  store ptr %this, ptr %this.addr, align 8
  %this1 = load ptr, ptr %this.addr, align 8
  call void @_ZNSt10_Head_baseILm1EN4node15FunctionDeleterI15evp_pkey_ctx_stXadL_Z17EVP_PKEY_CTX_freeEEEELb1EEC2Ev(ptr noundef nonnull align 1 dereferenceable(1) %this1)
  ret void
}

; Function Attrs: mustprogress nounwind uwtable
define linkonce_odr dso_local void @_ZNSt10_Head_baseILm0EP15evp_pkey_ctx_stLb0EEC2Ev(ptr noundef nonnull align 8 dereferenceable(8) %this) unnamed_addr #4 comdat align 2 {
entry:
  %this.addr = alloca ptr, align 8
  store ptr %this, ptr %this.addr, align 8
  %this1 = load ptr, ptr %this.addr, align 8
  %_M_head_impl = getelementptr inbounds %"struct.std::_Head_base.12", ptr %this1, i32 0, i32 0
  store ptr null, ptr %_M_head_impl, align 8
  ret void
}

; Function Attrs: mustprogress nounwind uwtable
define linkonce_odr dso_local void @_ZNSt10_Head_baseILm1EN4node15FunctionDeleterI15evp_pkey_ctx_stXadL_Z17EVP_PKEY_CTX_freeEEEELb1EEC2Ev(ptr noundef nonnull align 1 dereferenceable(1) %this) unnamed_addr #4 comdat align 2 {
entry:
  %this.addr = alloca ptr, align 8
  store ptr %this, ptr %this.addr, align 8
  ret void
}

; Function Attrs: mustprogress nounwind uwtable
define linkonce_odr dso_local void @_ZNSt15__uniq_ptr_dataI15evp_pkey_ctx_stN4node15FunctionDeleterIS0_XadL_Z17EVP_PKEY_CTX_freeEEEELb1ELb1EEC2EOS4_(ptr noundef nonnull align 8 dereferenceable(8) %this, ptr noundef nonnull align 8 dereferenceable(8) %0) unnamed_addr #4 comdat align 2 {
entry:
  %this.addr = alloca ptr, align 8
  %.addr = alloca ptr, align 8
  store ptr %this, ptr %this.addr, align 8
  store ptr %0, ptr %.addr, align 8
  %this1 = load ptr, ptr %this.addr, align 8
  %1 = load ptr, ptr %.addr, align 8
  call void @_ZNSt15__uniq_ptr_implI15evp_pkey_ctx_stN4node15FunctionDeleterIS0_XadL_Z17EVP_PKEY_CTX_freeEEEEEC2EOS4_(ptr noundef nonnull align 8 dereferenceable(8) %this1, ptr noundef nonnull align 8 dereferenceable(8) %1) #3
  ret void
}

; Function Attrs: mustprogress nounwind uwtable
define linkonce_odr dso_local void @_ZNSt15__uniq_ptr_implI15evp_pkey_ctx_stN4node15FunctionDeleterIS0_XadL_Z17EVP_PKEY_CTX_freeEEEEEC2EOS4_(ptr noundef nonnull align 8 dereferenceable(8) %this, ptr noundef nonnull align 8 dereferenceable(8) %__u) unnamed_addr #4 comdat align 2 {
entry:
  %this.addr = alloca ptr, align 8
  %__u.addr = alloca ptr, align 8
  store ptr %this, ptr %this.addr, align 8
  store ptr %__u, ptr %__u.addr, align 8
  %this1 = load ptr, ptr %this.addr, align 8
  %_M_t = getelementptr inbounds %"class.std::__uniq_ptr_impl.7", ptr %this1, i32 0, i32 0
  %0 = load ptr, ptr %__u.addr, align 8
  %_M_t2 = getelementptr inbounds %"class.std::__uniq_ptr_impl.7", ptr %0, i32 0, i32 0
  call void @_ZNSt5tupleIJP15evp_pkey_ctx_stN4node15FunctionDeleterIS0_XadL_Z17EVP_PKEY_CTX_freeEEEEEEC2EOS5_(ptr noundef nonnull align 8 dereferenceable(8) %_M_t, ptr noundef nonnull align 8 dereferenceable(8) %_M_t2) #3
  %1 = load ptr, ptr %__u.addr, align 8
  %call = call noundef nonnull align 8 dereferenceable(8) ptr @_ZNSt15__uniq_ptr_implI15evp_pkey_ctx_stN4node15FunctionDeleterIS0_XadL_Z17EVP_PKEY_CTX_freeEEEEE6_M_ptrEv(ptr noundef nonnull align 8 dereferenceable(8) %1) #3
  store ptr null, ptr %call, align 8
  ret void
}

; Function Attrs: mustprogress nounwind uwtable
define linkonce_odr dso_local void @_ZNSt5tupleIJP15evp_pkey_ctx_stN4node15FunctionDeleterIS0_XadL_Z17EVP_PKEY_CTX_freeEEEEEEC2EOS5_(ptr noundef nonnull align 8 dereferenceable(8) %this, ptr noundef nonnull align 8 dereferenceable(8) %0) unnamed_addr #4 comdat align 2 {
entry:
  %this.addr = alloca ptr, align 8
  %.addr = alloca ptr, align 8
  store ptr %this, ptr %this.addr, align 8
  store ptr %0, ptr %.addr, align 8
  %this1 = load ptr, ptr %this.addr, align 8
  %1 = load ptr, ptr %.addr, align 8
  call void @_ZNSt11_Tuple_implILm0EJP15evp_pkey_ctx_stN4node15FunctionDeleterIS0_XadL_Z17EVP_PKEY_CTX_freeEEEEEEC2EOS5_(ptr noundef nonnull align 8 dereferenceable(8) %this1, ptr noundef nonnull align 8 dereferenceable(8) %1) #3
  ret void
}

; Function Attrs: mustprogress nounwind uwtable
define linkonce_odr dso_local noundef nonnull align 8 dereferenceable(8) ptr @_ZNSt15__uniq_ptr_implI15evp_pkey_ctx_stN4node15FunctionDeleterIS0_XadL_Z17EVP_PKEY_CTX_freeEEEEE6_M_ptrEv(ptr noundef nonnull align 8 dereferenceable(8) %this) #4 comdat align 2 {
entry:
  %this.addr = alloca ptr, align 8
  store ptr %this, ptr %this.addr, align 8
  %this1 = load ptr, ptr %this.addr, align 8
  %_M_t = getelementptr inbounds %"class.std::__uniq_ptr_impl.7", ptr %this1, i32 0, i32 0
  %call = call noundef nonnull align 8 dereferenceable(8) ptr @_ZSt3getILm0EJP15evp_pkey_ctx_stN4node15FunctionDeleterIS0_XadL_Z17EVP_PKEY_CTX_freeEEEEEERNSt13tuple_elementIXT_ESt5tupleIJDpT0_EEE4typeERS9_(ptr noundef nonnull align 8 dereferenceable(8) %_M_t) #3
  ret ptr %call
}

; Function Attrs: mustprogress nounwind uwtable
define linkonce_odr dso_local void @_ZNSt11_Tuple_implILm0EJP15evp_pkey_ctx_stN4node15FunctionDeleterIS0_XadL_Z17EVP_PKEY_CTX_freeEEEEEEC2EOS5_(ptr noundef nonnull align 8 dereferenceable(8) %this, ptr noundef nonnull align 8 dereferenceable(8) %0) unnamed_addr #4 comdat align 2 {
entry:
  %this.addr = alloca ptr, align 8
  %.addr = alloca ptr, align 8
  store ptr %this, ptr %this.addr, align 8
  store ptr %0, ptr %.addr, align 8
  %this1 = load ptr, ptr %this.addr, align 8
  %1 = load ptr, ptr %.addr, align 8
  call void @_ZNSt11_Tuple_implILm1EJN4node15FunctionDeleterI15evp_pkey_ctx_stXadL_Z17EVP_PKEY_CTX_freeEEEEEEC2EOS4_(ptr noundef nonnull align 1 dereferenceable(1) %this1, ptr noundef nonnull align 1 dereferenceable(1) %1) #3
  %2 = load ptr, ptr %.addr, align 8
  call void @llvm.memcpy.p0.p0.i64(ptr align 8 %this1, ptr align 8 %2, i64 8, i1 false)
  ret void
}

; Function Attrs: mustprogress nounwind uwtable
define linkonce_odr dso_local void @_ZNSt11_Tuple_implILm1EJN4node15FunctionDeleterI15evp_pkey_ctx_stXadL_Z17EVP_PKEY_CTX_freeEEEEEEC2EOS4_(ptr noundef nonnull align 1 dereferenceable(1) %this, ptr noundef nonnull align 1 dereferenceable(1) %__in) unnamed_addr #4 comdat align 2 {
entry:
  %this.addr = alloca ptr, align 8
  %__in.addr = alloca ptr, align 8
  store ptr %this, ptr %this.addr, align 8
  store ptr %__in, ptr %__in.addr, align 8
  ret void
}

; Function Attrs: mustprogress nounwind uwtable
define linkonce_odr dso_local noundef nonnull align 8 dereferenceable(8) ptr @_ZSt3getILm0EJP15evp_pkey_ctx_stN4node15FunctionDeleterIS0_XadL_Z17EVP_PKEY_CTX_freeEEEEEERNSt13tuple_elementIXT_ESt5tupleIJDpT0_EEE4typeERS9_(ptr noundef nonnull align 8 dereferenceable(8) %__t) #4 comdat {
entry:
  %__t.addr = alloca ptr, align 8
  store ptr %__t, ptr %__t.addr, align 8
  %0 = load ptr, ptr %__t.addr, align 8
  %call = call noundef nonnull align 8 dereferenceable(8) ptr @_ZSt12__get_helperILm0EP15evp_pkey_ctx_stJN4node15FunctionDeleterIS0_XadL_Z17EVP_PKEY_CTX_freeEEEEEERT0_RSt11_Tuple_implIXT_EJS5_DpT1_EE(ptr noundef nonnull align 8 dereferenceable(8) %0) #3
  ret ptr %call
}

; Function Attrs: mustprogress nounwind uwtable
define linkonce_odr dso_local noundef nonnull align 8 dereferenceable(8) ptr @_ZSt12__get_helperILm0EP15evp_pkey_ctx_stJN4node15FunctionDeleterIS0_XadL_Z17EVP_PKEY_CTX_freeEEEEEERT0_RSt11_Tuple_implIXT_EJS5_DpT1_EE(ptr noundef nonnull align 8 dereferenceable(8) %__t) #4 comdat {
entry:
  %__t.addr = alloca ptr, align 8
  store ptr %__t, ptr %__t.addr, align 8
  %0 = load ptr, ptr %__t.addr, align 8
  %call = call noundef nonnull align 8 dereferenceable(8) ptr @_ZNSt11_Tuple_implILm0EJP15evp_pkey_ctx_stN4node15FunctionDeleterIS0_XadL_Z17EVP_PKEY_CTX_freeEEEEEE7_M_headERS5_(ptr noundef nonnull align 8 dereferenceable(8) %0) #3
  ret ptr %call
}

; Function Attrs: mustprogress nounwind uwtable
define linkonce_odr dso_local noundef nonnull align 8 dereferenceable(8) ptr @_ZNSt11_Tuple_implILm0EJP15evp_pkey_ctx_stN4node15FunctionDeleterIS0_XadL_Z17EVP_PKEY_CTX_freeEEEEEE7_M_headERS5_(ptr noundef nonnull align 8 dereferenceable(8) %__t) #4 comdat align 2 {
entry:
  %__t.addr = alloca ptr, align 8
  store ptr %__t, ptr %__t.addr, align 8
  %0 = load ptr, ptr %__t.addr, align 8
  %call = call noundef nonnull align 8 dereferenceable(8) ptr @_ZNSt10_Head_baseILm0EP15evp_pkey_ctx_stLb0EE7_M_headERS2_(ptr noundef nonnull align 8 dereferenceable(8) %0) #3
  ret ptr %call
}

; Function Attrs: mustprogress nounwind uwtable
define linkonce_odr dso_local noundef nonnull align 8 dereferenceable(8) ptr @_ZNSt10_Head_baseILm0EP15evp_pkey_ctx_stLb0EE7_M_headERS2_(ptr noundef nonnull align 8 dereferenceable(8) %__b) #4 comdat align 2 {
entry:
  %__b.addr = alloca ptr, align 8
  store ptr %__b, ptr %__b.addr, align 8
  %0 = load ptr, ptr %__b.addr, align 8
  %_M_head_impl = getelementptr inbounds %"struct.std::_Head_base.12", ptr %0, i32 0, i32 0
  ret ptr %_M_head_impl
}

; Function Attrs: mustprogress nounwind uwtable
define linkonce_odr dso_local noundef ptr @_ZN4node13MemoryTracker7AddNodeEPKcmS2_(ptr noundef nonnull align 8 dereferenceable(152) %this, ptr noundef %node_name, i64 noundef %size, ptr noundef %edge_name) #4 comdat align 2 {
entry:
  %this.addr = alloca ptr, align 8
  %node_name.addr = alloca ptr, align 8
  %size.addr = alloca i64, align 8
  %edge_name.addr = alloca ptr, align 8
  %n = alloca ptr, align 8
  %agg.tmp = alloca %"class.std::unique_ptr.25", align 8
  store ptr %this, ptr %this.addr, align 8
  store ptr %node_name, ptr %node_name.addr, align 8
  store i64 %size, ptr %size.addr, align 8
  store ptr %edge_name, ptr %edge_name.addr, align 8
  %this1 = load ptr, ptr %this.addr, align 8
  %call = call noalias noundef nonnull ptr @_Znwm(i64 noundef 56) #16
  %0 = load ptr, ptr %node_name.addr, align 8
  %1 = load i64, ptr %size.addr, align 8
  call void @_ZN4node18MemoryRetainerNodeC2EPNS_13MemoryTrackerEPKcmb(ptr noundef nonnull align 8 dereferenceable(49) %call, ptr noundef %this1, ptr noundef %0, i64 noundef %1, i1 noundef zeroext false)
  store ptr %call, ptr %n, align 8
  %graph_ = getelementptr inbounds %"class.node::MemoryTracker", ptr %this1, i32 0, i32 1
  %2 = load ptr, ptr %graph_, align 8
  %3 = load ptr, ptr %n, align 8
  call void @_ZNSt10unique_ptrIN2v813EmbedderGraph4NodeESt14default_deleteIS2_EEC2IS4_vEEPS2_(ptr noundef nonnull align 8 dereferenceable(8) %agg.tmp, ptr noundef %3) #3
  %vtable = load ptr, ptr %2, align 8
  %vfn = getelementptr inbounds ptr, ptr %vtable, i64 1
  %4 = load ptr, ptr %vfn, align 8
  %call2 = call noundef ptr %4(ptr noundef nonnull align 8 dereferenceable(8) %2, ptr noundef %agg.tmp)
  call void @_ZNSt10unique_ptrIN2v813EmbedderGraph4NodeESt14default_deleteIS2_EED2Ev(ptr noundef nonnull align 8 dereferenceable(8) %agg.tmp) #3
  %call3 = call noundef ptr @_ZNK4node13MemoryTracker11CurrentNodeEv(ptr noundef nonnull align 8 dereferenceable(152) %this1)
  %cmp = icmp ne ptr %call3, null
  br i1 %cmp, label %if.then, label %if.end

if.then:                                          ; preds = %entry
  %graph_4 = getelementptr inbounds %"class.node::MemoryTracker", ptr %this1, i32 0, i32 1
  %5 = load ptr, ptr %graph_4, align 8
  %call5 = call noundef ptr @_ZNK4node13MemoryTracker11CurrentNodeEv(ptr noundef nonnull align 8 dereferenceable(152) %this1)
  %6 = load ptr, ptr %n, align 8
  %7 = load ptr, ptr %edge_name.addr, align 8
  %vtable6 = load ptr, ptr %5, align 8
  %vfn7 = getelementptr inbounds ptr, ptr %vtable6, i64 2
  %8 = load ptr, ptr %vfn7, align 8
  call void %8(ptr noundef nonnull align 8 dereferenceable(8) %5, ptr noundef %call5, ptr noundef %6, ptr noundef %7)
  br label %if.end

if.end:                                           ; preds = %if.then, %entry
  %9 = load ptr, ptr %n, align 8
  ret ptr %9
}

; Function Attrs: mustprogress nounwind uwtable
define linkonce_odr dso_local noundef ptr @_ZN4node11GetNodeNameEPKcS1_(ptr noundef %node_name, ptr noundef %edge_name) #4 comdat {
entry:
  %retval = alloca ptr, align 8
  %node_name.addr = alloca ptr, align 8
  %edge_name.addr = alloca ptr, align 8
  store ptr %node_name, ptr %node_name.addr, align 8
  store ptr %edge_name, ptr %edge_name.addr, align 8
  %0 = load ptr, ptr %node_name.addr, align 8
  %cmp = icmp ne ptr %0, null
  br i1 %cmp, label %if.then, label %if.end

if.then:                                          ; preds = %entry
  %1 = load ptr, ptr %node_name.addr, align 8
  store ptr %1, ptr %retval, align 8
  br label %return

if.end:                                           ; preds = %entry
  %2 = load ptr, ptr %edge_name.addr, align 8
  %cmp1 = icmp ne ptr %2, null
  br i1 %cmp1, label %if.then2, label %if.end3

if.then2:                                         ; preds = %if.end
  %3 = load ptr, ptr %edge_name.addr, align 8
  store ptr %3, ptr %retval, align 8
  br label %return

if.end3:                                          ; preds = %if.end
  store ptr @.str.8, ptr %retval, align 8
  br label %return

return:                                           ; preds = %if.end3, %if.then2, %if.then
  %4 = load ptr, ptr %retval, align 8
  ret ptr %4
}

; Function Attrs: nobuiltin allocsize(0)
declare noundef nonnull ptr @_Znwm(i64 noundef) #8

; Function Attrs: mustprogress nounwind uwtable
define linkonce_odr dso_local void @_ZN4node18MemoryRetainerNodeC2EPNS_13MemoryTrackerEPKcmb(ptr noundef nonnull align 8 dereferenceable(49) %this, ptr noundef %tracker, ptr noundef %name, i64 noundef %size, i1 noundef zeroext %is_root_node) unnamed_addr #4 comdat align 2 {
entry:
  %this.addr = alloca ptr, align 8
  %tracker.addr = alloca ptr, align 8
  %name.addr = alloca ptr, align 8
  %size.addr = alloca i64, align 8
  %is_root_node.addr = alloca i8, align 1
  store ptr %this, ptr %this.addr, align 8
  store ptr %tracker, ptr %tracker.addr, align 8
  store ptr %name, ptr %name.addr, align 8
  store i64 %size, ptr %size.addr, align 8
  %frombool = zext i1 %is_root_node to i8
  store i8 %frombool, ptr %is_root_node.addr, align 1
  %this1 = load ptr, ptr %this.addr, align 8
  call void @_ZN2v813EmbedderGraph4NodeC2Ev(ptr noundef nonnull align 8 dereferenceable(8) %this1) #3
  store ptr getelementptr inbounds ({ [13 x ptr] }, ptr @_ZTVN4node18MemoryRetainerNodeE, i32 0, inrange i32 0, i32 2), ptr %this1, align 8
  %retainer_ = getelementptr inbounds %"class.node::MemoryRetainerNode", ptr %this1, i32 0, i32 1
  store ptr null, ptr %retainer_, align 8
  %wrapper_node_ = getelementptr inbounds %"class.node::MemoryRetainerNode", ptr %this1, i32 0, i32 2
  store ptr null, ptr %wrapper_node_, align 8
  %is_root_node_ = getelementptr inbounds %"class.node::MemoryRetainerNode", ptr %this1, i32 0, i32 3
  store i8 0, ptr %is_root_node_, align 8
  %size_ = getelementptr inbounds %"class.node::MemoryRetainerNode", ptr %this1, i32 0, i32 6
  store i64 0, ptr %size_, align 8
  %detachedness_ = getelementptr inbounds %"class.node::MemoryRetainerNode", ptr %this1, i32 0, i32 7
  store i8 0, ptr %detachedness_, align 8
  %0 = load ptr, ptr %name.addr, align 8
  %name_ = getelementptr inbounds %"class.node::MemoryRetainerNode", ptr %this1, i32 0, i32 5
  store ptr %0, ptr %name_, align 8
  %1 = load i64, ptr %size.addr, align 8
  %size_2 = getelementptr inbounds %"class.node::MemoryRetainerNode", ptr %this1, i32 0, i32 6
  store i64 %1, ptr %size_2, align 8
  %2 = load i8, ptr %is_root_node.addr, align 1
  %tobool = trunc i8 %2 to i1
  %is_root_node_3 = getelementptr inbounds %"class.node::MemoryRetainerNode", ptr %this1, i32 0, i32 3
  %frombool4 = zext i1 %tobool to i8
  store i8 %frombool4, ptr %is_root_node_3, align 8
  ret void
}

; Function Attrs: mustprogress nounwind uwtable
define linkonce_odr dso_local void @_ZNSt10unique_ptrIN2v813EmbedderGraph4NodeESt14default_deleteIS2_EEC2IS4_vEEPS2_(ptr noundef nonnull align 8 dereferenceable(8) %this, ptr noundef %__p) unnamed_addr #4 comdat align 2 {
entry:
  %this.addr = alloca ptr, align 8
  %__p.addr = alloca ptr, align 8
  store ptr %this, ptr %this.addr, align 8
  store ptr %__p, ptr %__p.addr, align 8
  %this1 = load ptr, ptr %this.addr, align 8
  %_M_t = getelementptr inbounds %"class.std::unique_ptr.25", ptr %this1, i32 0, i32 0
  %0 = load ptr, ptr %__p.addr, align 8
  call void @_ZNSt15__uniq_ptr_dataIN2v813EmbedderGraph4NodeESt14default_deleteIS2_ELb1ELb1EECI2St15__uniq_ptr_implIS2_S4_EEPS2_(ptr noundef nonnull align 8 dereferenceable(8) %_M_t, ptr noundef %0)
  ret void
}

; Function Attrs: mustprogress nounwind uwtable
define linkonce_odr dso_local void @_ZNSt10unique_ptrIN2v813EmbedderGraph4NodeESt14default_deleteIS2_EED2Ev(ptr noundef nonnull align 8 dereferenceable(8) %this) unnamed_addr #4 comdat align 2 {
entry:
  %this.addr = alloca ptr, align 8
  %__ptr = alloca ptr, align 8
  store ptr %this, ptr %this.addr, align 8
  %this1 = load ptr, ptr %this.addr, align 8
  %_M_t = getelementptr inbounds %"class.std::unique_ptr.25", ptr %this1, i32 0, i32 0
  %call = call noundef nonnull align 8 dereferenceable(8) ptr @_ZNSt15__uniq_ptr_implIN2v813EmbedderGraph4NodeESt14default_deleteIS2_EE6_M_ptrEv(ptr noundef nonnull align 8 dereferenceable(8) %_M_t) #3
  store ptr %call, ptr %__ptr, align 8
  %0 = load ptr, ptr %__ptr, align 8
  %1 = load ptr, ptr %0, align 8
  %cmp = icmp ne ptr %1, null
  br i1 %cmp, label %if.then, label %if.end

if.then:                                          ; preds = %entry
  %call2 = call noundef nonnull align 1 dereferenceable(1) ptr @_ZNSt10unique_ptrIN2v813EmbedderGraph4NodeESt14default_deleteIS2_EE11get_deleterEv(ptr noundef nonnull align 8 dereferenceable(8) %this1) #3
  %2 = load ptr, ptr %__ptr, align 8
  %3 = load ptr, ptr %2, align 8
  call void @_ZNKSt14default_deleteIN2v813EmbedderGraph4NodeEEclEPS2_(ptr noundef nonnull align 1 dereferenceable(1) %call2, ptr noundef %3)
  br label %if.end

if.end:                                           ; preds = %if.then, %entry
  %4 = load ptr, ptr %__ptr, align 8
  store ptr null, ptr %4, align 8
  ret void
}

; Function Attrs: mustprogress nounwind uwtable
define linkonce_odr dso_local noundef ptr @_ZNK4node13MemoryTracker11CurrentNodeEv(ptr noundef nonnull align 8 dereferenceable(152) %this) #4 comdat align 2 {
entry:
  %retval = alloca ptr, align 8
  %this.addr = alloca ptr, align 8
  store ptr %this, ptr %this.addr, align 8
  %this1 = load ptr, ptr %this.addr, align 8
  %node_stack_ = getelementptr inbounds %"class.node::MemoryTracker", ptr %this1, i32 0, i32 2
  %call = call noundef zeroext i1 @_ZNKSt5stackIPN4node18MemoryRetainerNodeESt5dequeIS2_SaIS2_EEE5emptyEv(ptr noundef nonnull align 8 dereferenceable(80) %node_stack_)
  br i1 %call, label %if.then, label %if.end

if.then:                                          ; preds = %entry
  store ptr null, ptr %retval, align 8
  br label %return

if.end:                                           ; preds = %entry
  %node_stack_2 = getelementptr inbounds %"class.node::MemoryTracker", ptr %this1, i32 0, i32 2
  %call3 = call noundef nonnull align 8 dereferenceable(8) ptr @_ZNKSt5stackIPN4node18MemoryRetainerNodeESt5dequeIS2_SaIS2_EEE3topEv(ptr noundef nonnull align 8 dereferenceable(80) %node_stack_2)
  %0 = load ptr, ptr %call3, align 8
  store ptr %0, ptr %retval, align 8
  br label %return

return:                                           ; preds = %if.end, %if.then
  %1 = load ptr, ptr %retval, align 8
  ret ptr %1
}

; Function Attrs: mustprogress nounwind uwtable
define linkonce_odr dso_local void @_ZN2v813EmbedderGraph4NodeC2Ev(ptr noundef nonnull align 8 dereferenceable(8) %this) unnamed_addr #4 comdat align 2 {
entry:
  %this.addr = alloca ptr, align 8
  store ptr %this, ptr %this.addr, align 8
  %this1 = load ptr, ptr %this.addr, align 8
  store ptr getelementptr inbounds ({ [13 x ptr] }, ptr @_ZTVN2v813EmbedderGraph4NodeE, i32 0, inrange i32 0, i32 2), ptr %this1, align 8
  ret void
}

; Function Attrs: mustprogress nounwind uwtable
define linkonce_odr dso_local void @_ZN4node18MemoryRetainerNodeD2Ev(ptr noundef nonnull align 8 dereferenceable(49) %this) unnamed_addr #4 comdat align 2 {
entry:
  %this.addr = alloca ptr, align 8
  store ptr %this, ptr %this.addr, align 8
  %this1 = load ptr, ptr %this.addr, align 8
  call void @_ZN2v813EmbedderGraph4NodeD2Ev(ptr noundef nonnull align 8 dereferenceable(8) %this1) #3
  ret void
}

; Function Attrs: mustprogress nounwind uwtable
define linkonce_odr dso_local void @_ZN4node18MemoryRetainerNodeD0Ev(ptr noundef nonnull align 8 dereferenceable(49) %this) unnamed_addr #4 comdat align 2 {
entry:
  %this.addr = alloca ptr, align 8
  store ptr %this, ptr %this.addr, align 8
  %this1 = load ptr, ptr %this.addr, align 8
  call void @_ZN4node18MemoryRetainerNodeD2Ev(ptr noundef nonnull align 8 dereferenceable(49) %this1) #3
  call void @_ZdlPv(ptr noundef %this1) #15
  ret void
}

; Function Attrs: mustprogress nounwind uwtable
define linkonce_odr dso_local noundef ptr @_ZN4node18MemoryRetainerNode4NameEv(ptr noundef nonnull align 8 dereferenceable(49) %this) unnamed_addr #4 comdat align 2 {
entry:
  %this.addr = alloca ptr, align 8
  store ptr %this, ptr %this.addr, align 8
  %this1 = load ptr, ptr %this.addr, align 8
  %name_ = getelementptr inbounds %"class.node::MemoryRetainerNode", ptr %this1, i32 0, i32 5
  %0 = load ptr, ptr %name_, align 8
  ret ptr %0
}

; Function Attrs: mustprogress nounwind uwtable
define linkonce_odr dso_local noundef i64 @_ZN4node18MemoryRetainerNode11SizeInBytesEv(ptr noundef nonnull align 8 dereferenceable(49) %this) unnamed_addr #4 comdat align 2 {
entry:
  %this.addr = alloca ptr, align 8
  store ptr %this, ptr %this.addr, align 8
  %this1 = load ptr, ptr %this.addr, align 8
  %size_ = getelementptr inbounds %"class.node::MemoryRetainerNode", ptr %this1, i32 0, i32 6
  %0 = load i64, ptr %size_, align 8
  ret i64 %0
}

; Function Attrs: mustprogress nounwind uwtable
define linkonce_odr dso_local noundef ptr @_ZN2v813EmbedderGraph4Node11WrapperNodeEv(ptr noundef nonnull align 8 dereferenceable(8) %this) unnamed_addr #4 comdat align 2 {
entry:
  %this.addr = alloca ptr, align 8
  store ptr %this, ptr %this.addr, align 8
  ret ptr null
}

; Function Attrs: mustprogress nounwind uwtable
define linkonce_odr dso_local noundef zeroext i1 @_ZN4node18MemoryRetainerNode10IsRootNodeEv(ptr noundef nonnull align 8 dereferenceable(49) %this) unnamed_addr #4 comdat align 2 {
entry:
  %retval = alloca i1, align 1
  %this.addr = alloca ptr, align 8
  store ptr %this, ptr %this.addr, align 8
  %this1 = load ptr, ptr %this.addr, align 8
  %retainer_ = getelementptr inbounds %"class.node::MemoryRetainerNode", ptr %this1, i32 0, i32 1
  %0 = load ptr, ptr %retainer_, align 8
  %cmp = icmp ne ptr %0, null
  br i1 %cmp, label %if.then, label %if.end

if.then:                                          ; preds = %entry
  %retainer_2 = getelementptr inbounds %"class.node::MemoryRetainerNode", ptr %this1, i32 0, i32 1
  %1 = load ptr, ptr %retainer_2, align 8
  %vtable = load ptr, ptr %1, align 8
  %vfn = getelementptr inbounds ptr, ptr %vtable, i64 6
  %2 = load ptr, ptr %vfn, align 8
  %call = call noundef zeroext i1 %2(ptr noundef nonnull align 8 dereferenceable(8) %1)
  store i1 %call, ptr %retval, align 1
  br label %return

if.end:                                           ; preds = %entry
  %is_root_node_ = getelementptr inbounds %"class.node::MemoryRetainerNode", ptr %this1, i32 0, i32 3
  %3 = load i8, ptr %is_root_node_, align 8
  %tobool = trunc i8 %3 to i1
  store i1 %tobool, ptr %retval, align 1
  br label %return

return:                                           ; preds = %if.end, %if.then
  %4 = load i1, ptr %retval, align 1
  ret i1 %4
}

; Function Attrs: mustprogress nounwind uwtable
define linkonce_odr dso_local noundef zeroext i1 @_ZN2v813EmbedderGraph4Node14IsEmbedderNodeEv(ptr noundef nonnull align 8 dereferenceable(8) %this) unnamed_addr #4 comdat align 2 {
entry:
  %this.addr = alloca ptr, align 8
  store ptr %this, ptr %this.addr, align 8
  ret i1 true
}

; Function Attrs: mustprogress nounwind uwtable
define linkonce_odr dso_local noundef ptr @_ZN4node18MemoryRetainerNode10NamePrefixEv(ptr noundef nonnull align 8 dereferenceable(49) %this) unnamed_addr #4 comdat align 2 {
entry:
  %this.addr = alloca ptr, align 8
  store ptr %this, ptr %this.addr, align 8
  ret ptr @.str.7
}

; Function Attrs: mustprogress nounwind uwtable
define linkonce_odr dso_local noundef ptr @_ZN2v813EmbedderGraph4Node15GetNativeObjectEv(ptr noundef nonnull align 8 dereferenceable(8) %this) unnamed_addr #4 comdat align 2 {
entry:
  %this.addr = alloca ptr, align 8
  store ptr %this, ptr %this.addr, align 8
  ret ptr null
}

; Function Attrs: mustprogress nounwind uwtable
define linkonce_odr dso_local noundef zeroext i8 @_ZN4node18MemoryRetainerNode15GetDetachednessEv(ptr noundef nonnull align 8 dereferenceable(49) %this) unnamed_addr #4 comdat align 2 {
entry:
  %this.addr = alloca ptr, align 8
  store ptr %this, ptr %this.addr, align 8
  %this1 = load ptr, ptr %this.addr, align 8
  %detachedness_ = getelementptr inbounds %"class.node::MemoryRetainerNode", ptr %this1, i32 0, i32 7
  %0 = load i8, ptr %detachedness_, align 8
  ret i8 %0
}

; Function Attrs: mustprogress nounwind uwtable
define linkonce_odr dso_local noundef ptr @_ZN2v813EmbedderGraph4Node10GetAddressEv(ptr noundef nonnull align 8 dereferenceable(8) %this) unnamed_addr #4 comdat align 2 {
entry:
  %this.addr = alloca ptr, align 8
  store ptr %this, ptr %this.addr, align 8
  ret ptr null
}

; Function Attrs: mustprogress nounwind uwtable
define linkonce_odr dso_local void @_ZN2v813EmbedderGraph4NodeD2Ev(ptr noundef nonnull align 8 dereferenceable(8) %this) unnamed_addr #4 comdat align 2 {
entry:
  %this.addr = alloca ptr, align 8
  store ptr %this, ptr %this.addr, align 8
  ret void
}

; Function Attrs: mustprogress nounwind uwtable
define linkonce_odr dso_local void @_ZN2v813EmbedderGraph4NodeD0Ev(ptr noundef nonnull align 8 dereferenceable(8) %this) unnamed_addr #4 comdat align 2 {
entry:
  %this.addr = alloca ptr, align 8
  store ptr %this, ptr %this.addr, align 8
  call void @llvm.trap() #14
  unreachable
}

declare void @__cxa_pure_virtual() unnamed_addr

; Function Attrs: mustprogress nounwind uwtable
define linkonce_odr dso_local noundef zeroext i1 @_ZN2v813EmbedderGraph4Node10IsRootNodeEv(ptr noundef nonnull align 8 dereferenceable(8) %this) unnamed_addr #4 comdat align 2 {
entry:
  %this.addr = alloca ptr, align 8
  store ptr %this, ptr %this.addr, align 8
  ret i1 false
}

; Function Attrs: mustprogress nounwind uwtable
define linkonce_odr dso_local noundef ptr @_ZN2v813EmbedderGraph4Node10NamePrefixEv(ptr noundef nonnull align 8 dereferenceable(8) %this) unnamed_addr #4 comdat align 2 {
entry:
  %this.addr = alloca ptr, align 8
  store ptr %this, ptr %this.addr, align 8
  ret ptr null
}

; Function Attrs: mustprogress nounwind uwtable
define linkonce_odr dso_local noundef zeroext i8 @_ZN2v813EmbedderGraph4Node15GetDetachednessEv(ptr noundef nonnull align 8 dereferenceable(8) %this) unnamed_addr #4 comdat align 2 {
entry:
  %this.addr = alloca ptr, align 8
  store ptr %this, ptr %this.addr, align 8
  ret i8 0
}

; Function Attrs: cold noreturn nounwind memory(inaccessiblemem: write)
declare void @llvm.trap() #9

; Function Attrs: nobuiltin nounwind
declare void @_ZdlPv(ptr noundef) #10

; Function Attrs: mustprogress nounwind uwtable
define linkonce_odr dso_local void @_ZNSt15__uniq_ptr_dataIN2v813EmbedderGraph4NodeESt14default_deleteIS2_ELb1ELb1EECI2St15__uniq_ptr_implIS2_S4_EEPS2_(ptr noundef nonnull align 8 dereferenceable(8) %this, ptr noundef %0) unnamed_addr #4 comdat align 2 {
entry:
  %this.addr = alloca ptr, align 8
  %.addr = alloca ptr, align 8
  store ptr %this, ptr %this.addr, align 8
  store ptr %0, ptr %.addr, align 8
  %this1 = load ptr, ptr %this.addr, align 8
  %1 = load ptr, ptr %.addr, align 8
  call void @_ZNSt15__uniq_ptr_implIN2v813EmbedderGraph4NodeESt14default_deleteIS2_EEC2EPS2_(ptr noundef nonnull align 8 dereferenceable(8) %this1, ptr noundef %1)
  ret void
}

; Function Attrs: mustprogress nounwind uwtable
define linkonce_odr dso_local void @_ZNSt15__uniq_ptr_implIN2v813EmbedderGraph4NodeESt14default_deleteIS2_EEC2EPS2_(ptr noundef nonnull align 8 dereferenceable(8) %this, ptr noundef %__p) unnamed_addr #4 comdat align 2 {
entry:
  %this.addr = alloca ptr, align 8
  %__p.addr = alloca ptr, align 8
  store ptr %this, ptr %this.addr, align 8
  store ptr %__p, ptr %__p.addr, align 8
  %this1 = load ptr, ptr %this.addr, align 8
  %_M_t = getelementptr inbounds %"class.std::__uniq_ptr_impl.27", ptr %this1, i32 0, i32 0
  call void @_ZNSt5tupleIJPN2v813EmbedderGraph4NodeESt14default_deleteIS2_EEEC2ILb1ETnNSt9enable_ifIXclsr17_TupleConstraintsIXT_ES3_S5_EE37__is_implicitly_default_constructibleEEbE4typeELb1EEEv(ptr noundef nonnull align 8 dereferenceable(8) %_M_t) #3
  %0 = load ptr, ptr %__p.addr, align 8
  %call = call noundef nonnull align 8 dereferenceable(8) ptr @_ZNSt15__uniq_ptr_implIN2v813EmbedderGraph4NodeESt14default_deleteIS2_EE6_M_ptrEv(ptr noundef nonnull align 8 dereferenceable(8) %this1) #3
  store ptr %0, ptr %call, align 8
  ret void
}

; Function Attrs: mustprogress nounwind uwtable
define linkonce_odr dso_local void @_ZNSt5tupleIJPN2v813EmbedderGraph4NodeESt14default_deleteIS2_EEEC2ILb1ETnNSt9enable_ifIXclsr17_TupleConstraintsIXT_ES3_S5_EE37__is_implicitly_default_constructibleEEbE4typeELb1EEEv(ptr noundef nonnull align 8 dereferenceable(8) %this) unnamed_addr #4 comdat align 2 {
entry:
  %this.addr = alloca ptr, align 8
  store ptr %this, ptr %this.addr, align 8
  %this1 = load ptr, ptr %this.addr, align 8
  call void @_ZNSt11_Tuple_implILm0EJPN2v813EmbedderGraph4NodeESt14default_deleteIS2_EEEC2Ev(ptr noundef nonnull align 8 dereferenceable(8) %this1)
  ret void
}

; Function Attrs: mustprogress nounwind uwtable
define linkonce_odr dso_local noundef nonnull align 8 dereferenceable(8) ptr @_ZNSt15__uniq_ptr_implIN2v813EmbedderGraph4NodeESt14default_deleteIS2_EE6_M_ptrEv(ptr noundef nonnull align 8 dereferenceable(8) %this) #4 comdat align 2 {
entry:
  %this.addr = alloca ptr, align 8
  store ptr %this, ptr %this.addr, align 8
  %this1 = load ptr, ptr %this.addr, align 8
  %_M_t = getelementptr inbounds %"class.std::__uniq_ptr_impl.27", ptr %this1, i32 0, i32 0
  %call = call noundef nonnull align 8 dereferenceable(8) ptr @_ZSt3getILm0EJPN2v813EmbedderGraph4NodeESt14default_deleteIS2_EEERNSt13tuple_elementIXT_ESt5tupleIJDpT0_EEE4typeERSA_(ptr noundef nonnull align 8 dereferenceable(8) %_M_t) #3
  ret ptr %call
}

; Function Attrs: mustprogress nounwind uwtable
define linkonce_odr dso_local void @_ZNSt11_Tuple_implILm0EJPN2v813EmbedderGraph4NodeESt14default_deleteIS2_EEEC2Ev(ptr noundef nonnull align 8 dereferenceable(8) %this) unnamed_addr #4 comdat align 2 {
entry:
  %this.addr = alloca ptr, align 8
  store ptr %this, ptr %this.addr, align 8
  %this1 = load ptr, ptr %this.addr, align 8
  call void @_ZNSt11_Tuple_implILm1EJSt14default_deleteIN2v813EmbedderGraph4NodeEEEEC2Ev(ptr noundef nonnull align 1 dereferenceable(1) %this1)
  call void @_ZNSt10_Head_baseILm0EPN2v813EmbedderGraph4NodeELb0EEC2Ev(ptr noundef nonnull align 8 dereferenceable(8) %this1)
  ret void
}

; Function Attrs: mustprogress nounwind uwtable
define linkonce_odr dso_local void @_ZNSt11_Tuple_implILm1EJSt14default_deleteIN2v813EmbedderGraph4NodeEEEEC2Ev(ptr noundef nonnull align 1 dereferenceable(1) %this) unnamed_addr #4 comdat align 2 {
entry:
  %this.addr = alloca ptr, align 8
  store ptr %this, ptr %this.addr, align 8
  %this1 = load ptr, ptr %this.addr, align 8
  call void @_ZNSt10_Head_baseILm1ESt14default_deleteIN2v813EmbedderGraph4NodeEELb1EEC2Ev(ptr noundef nonnull align 1 dereferenceable(1) %this1)
  ret void
}

; Function Attrs: mustprogress nounwind uwtable
define linkonce_odr dso_local void @_ZNSt10_Head_baseILm0EPN2v813EmbedderGraph4NodeELb0EEC2Ev(ptr noundef nonnull align 8 dereferenceable(8) %this) unnamed_addr #4 comdat align 2 {
entry:
  %this.addr = alloca ptr, align 8
  store ptr %this, ptr %this.addr, align 8
  %this1 = load ptr, ptr %this.addr, align 8
  %_M_head_impl = getelementptr inbounds %"struct.std::_Head_base.32", ptr %this1, i32 0, i32 0
  store ptr null, ptr %_M_head_impl, align 8
  ret void
}

; Function Attrs: mustprogress nounwind uwtable
define linkonce_odr dso_local void @_ZNSt10_Head_baseILm1ESt14default_deleteIN2v813EmbedderGraph4NodeEELb1EEC2Ev(ptr noundef nonnull align 1 dereferenceable(1) %this) unnamed_addr #4 comdat align 2 {
entry:
  %this.addr = alloca ptr, align 8
  store ptr %this, ptr %this.addr, align 8
  ret void
}

; Function Attrs: mustprogress nounwind uwtable
define linkonce_odr dso_local noundef nonnull align 8 dereferenceable(8) ptr @_ZSt3getILm0EJPN2v813EmbedderGraph4NodeESt14default_deleteIS2_EEERNSt13tuple_elementIXT_ESt5tupleIJDpT0_EEE4typeERSA_(ptr noundef nonnull align 8 dereferenceable(8) %__t) #4 comdat {
entry:
  %__t.addr = alloca ptr, align 8
  store ptr %__t, ptr %__t.addr, align 8
  %0 = load ptr, ptr %__t.addr, align 8
  %call = call noundef nonnull align 8 dereferenceable(8) ptr @_ZSt12__get_helperILm0EPN2v813EmbedderGraph4NodeEJSt14default_deleteIS2_EEERT0_RSt11_Tuple_implIXT_EJS6_DpT1_EE(ptr noundef nonnull align 8 dereferenceable(8) %0) #3
  ret ptr %call
}

; Function Attrs: mustprogress nounwind uwtable
define linkonce_odr dso_local noundef nonnull align 8 dereferenceable(8) ptr @_ZSt12__get_helperILm0EPN2v813EmbedderGraph4NodeEJSt14default_deleteIS2_EEERT0_RSt11_Tuple_implIXT_EJS6_DpT1_EE(ptr noundef nonnull align 8 dereferenceable(8) %__t) #4 comdat {
entry:
  %__t.addr = alloca ptr, align 8
  store ptr %__t, ptr %__t.addr, align 8
  %0 = load ptr, ptr %__t.addr, align 8
  %call = call noundef nonnull align 8 dereferenceable(8) ptr @_ZNSt11_Tuple_implILm0EJPN2v813EmbedderGraph4NodeESt14default_deleteIS2_EEE7_M_headERS6_(ptr noundef nonnull align 8 dereferenceable(8) %0) #3
  ret ptr %call
}

; Function Attrs: mustprogress nounwind uwtable
define linkonce_odr dso_local noundef nonnull align 8 dereferenceable(8) ptr @_ZNSt11_Tuple_implILm0EJPN2v813EmbedderGraph4NodeESt14default_deleteIS2_EEE7_M_headERS6_(ptr noundef nonnull align 8 dereferenceable(8) %__t) #4 comdat align 2 {
entry:
  %__t.addr = alloca ptr, align 8
  store ptr %__t, ptr %__t.addr, align 8
  %0 = load ptr, ptr %__t.addr, align 8
  %call = call noundef nonnull align 8 dereferenceable(8) ptr @_ZNSt10_Head_baseILm0EPN2v813EmbedderGraph4NodeELb0EE7_M_headERS4_(ptr noundef nonnull align 8 dereferenceable(8) %0) #3
  ret ptr %call
}

; Function Attrs: mustprogress nounwind uwtable
define linkonce_odr dso_local noundef nonnull align 8 dereferenceable(8) ptr @_ZNSt10_Head_baseILm0EPN2v813EmbedderGraph4NodeELb0EE7_M_headERS4_(ptr noundef nonnull align 8 dereferenceable(8) %__b) #4 comdat align 2 {
entry:
  %__b.addr = alloca ptr, align 8
  store ptr %__b, ptr %__b.addr, align 8
  %0 = load ptr, ptr %__b.addr, align 8
  %_M_head_impl = getelementptr inbounds %"struct.std::_Head_base.32", ptr %0, i32 0, i32 0
  ret ptr %_M_head_impl
}

; Function Attrs: mustprogress nounwind uwtable
define linkonce_odr dso_local noundef nonnull align 1 dereferenceable(1) ptr @_ZNSt10unique_ptrIN2v813EmbedderGraph4NodeESt14default_deleteIS2_EE11get_deleterEv(ptr noundef nonnull align 8 dereferenceable(8) %this) #4 comdat align 2 {
entry:
  %this.addr = alloca ptr, align 8
  store ptr %this, ptr %this.addr, align 8
  %this1 = load ptr, ptr %this.addr, align 8
  %_M_t = getelementptr inbounds %"class.std::unique_ptr.25", ptr %this1, i32 0, i32 0
  %call = call noundef nonnull align 1 dereferenceable(1) ptr @_ZNSt15__uniq_ptr_implIN2v813EmbedderGraph4NodeESt14default_deleteIS2_EE10_M_deleterEv(ptr noundef nonnull align 8 dereferenceable(8) %_M_t) #3
  ret ptr %call
}

; Function Attrs: mustprogress nounwind uwtable
define linkonce_odr dso_local void @_ZNKSt14default_deleteIN2v813EmbedderGraph4NodeEEclEPS2_(ptr noundef nonnull align 1 dereferenceable(1) %this, ptr noundef %__ptr) #4 comdat align 2 {
entry:
  %this.addr = alloca ptr, align 8
  %__ptr.addr = alloca ptr, align 8
  store ptr %this, ptr %this.addr, align 8
  store ptr %__ptr, ptr %__ptr.addr, align 8
  %0 = load ptr, ptr %__ptr.addr, align 8
  %isnull = icmp eq ptr %0, null
  br i1 %isnull, label %delete.end, label %delete.notnull

delete.notnull:                                   ; preds = %entry
  %vtable = load ptr, ptr %0, align 8
  %vfn = getelementptr inbounds ptr, ptr %vtable, i64 1
  %1 = load ptr, ptr %vfn, align 8
  call void %1(ptr noundef nonnull align 8 dereferenceable(8) %0) #3
  br label %delete.end

delete.end:                                       ; preds = %delete.notnull, %entry
  ret void
}

; Function Attrs: mustprogress nounwind uwtable
define linkonce_odr dso_local noundef nonnull align 1 dereferenceable(1) ptr @_ZNSt15__uniq_ptr_implIN2v813EmbedderGraph4NodeESt14default_deleteIS2_EE10_M_deleterEv(ptr noundef nonnull align 8 dereferenceable(8) %this) #4 comdat align 2 {
entry:
  %this.addr = alloca ptr, align 8
  store ptr %this, ptr %this.addr, align 8
  %this1 = load ptr, ptr %this.addr, align 8
  %_M_t = getelementptr inbounds %"class.std::__uniq_ptr_impl.27", ptr %this1, i32 0, i32 0
  %call = call noundef nonnull align 1 dereferenceable(1) ptr @_ZSt3getILm1EJPN2v813EmbedderGraph4NodeESt14default_deleteIS2_EEERNSt13tuple_elementIXT_ESt5tupleIJDpT0_EEE4typeERSA_(ptr noundef nonnull align 8 dereferenceable(8) %_M_t) #3
  ret ptr %call
}

; Function Attrs: mustprogress nounwind uwtable
define linkonce_odr dso_local noundef nonnull align 1 dereferenceable(1) ptr @_ZSt3getILm1EJPN2v813EmbedderGraph4NodeESt14default_deleteIS2_EEERNSt13tuple_elementIXT_ESt5tupleIJDpT0_EEE4typeERSA_(ptr noundef nonnull align 8 dereferenceable(8) %__t) #4 comdat {
entry:
  %__t.addr = alloca ptr, align 8
  store ptr %__t, ptr %__t.addr, align 8
  %0 = load ptr, ptr %__t.addr, align 8
  %call = call noundef nonnull align 1 dereferenceable(1) ptr @_ZSt12__get_helperILm1ESt14default_deleteIN2v813EmbedderGraph4NodeEEJEERT0_RSt11_Tuple_implIXT_EJS5_DpT1_EE(ptr noundef nonnull align 1 dereferenceable(1) %0) #3
  ret ptr %call
}

; Function Attrs: mustprogress nounwind uwtable
define linkonce_odr dso_local noundef nonnull align 1 dereferenceable(1) ptr @_ZSt12__get_helperILm1ESt14default_deleteIN2v813EmbedderGraph4NodeEEJEERT0_RSt11_Tuple_implIXT_EJS5_DpT1_EE(ptr noundef nonnull align 1 dereferenceable(1) %__t) #4 comdat {
entry:
  %__t.addr = alloca ptr, align 8
  store ptr %__t, ptr %__t.addr, align 8
  %0 = load ptr, ptr %__t.addr, align 8
  %call = call noundef nonnull align 1 dereferenceable(1) ptr @_ZNSt11_Tuple_implILm1EJSt14default_deleteIN2v813EmbedderGraph4NodeEEEE7_M_headERS5_(ptr noundef nonnull align 1 dereferenceable(1) %0) #3
  ret ptr %call
}

; Function Attrs: mustprogress nounwind uwtable
define linkonce_odr dso_local noundef nonnull align 1 dereferenceable(1) ptr @_ZNSt11_Tuple_implILm1EJSt14default_deleteIN2v813EmbedderGraph4NodeEEEE7_M_headERS5_(ptr noundef nonnull align 1 dereferenceable(1) %__t) #4 comdat align 2 {
entry:
  %__t.addr = alloca ptr, align 8
  store ptr %__t, ptr %__t.addr, align 8
  %0 = load ptr, ptr %__t.addr, align 8
  %call = call noundef nonnull align 1 dereferenceable(1) ptr @_ZNSt10_Head_baseILm1ESt14default_deleteIN2v813EmbedderGraph4NodeEELb1EE7_M_headERS5_(ptr noundef nonnull align 1 dereferenceable(1) %0) #3
  ret ptr %call
}

; Function Attrs: mustprogress nounwind uwtable
define linkonce_odr dso_local noundef nonnull align 1 dereferenceable(1) ptr @_ZNSt10_Head_baseILm1ESt14default_deleteIN2v813EmbedderGraph4NodeEELb1EE7_M_headERS5_(ptr noundef nonnull align 1 dereferenceable(1) %__b) #4 comdat align 2 {
entry:
  %__b.addr = alloca ptr, align 8
  store ptr %__b, ptr %__b.addr, align 8
  %0 = load ptr, ptr %__b.addr, align 8
  ret ptr %0
}

; Function Attrs: mustprogress nounwind uwtable
define linkonce_odr dso_local noundef zeroext i1 @_ZNKSt5stackIPN4node18MemoryRetainerNodeESt5dequeIS2_SaIS2_EEE5emptyEv(ptr noundef nonnull align 8 dereferenceable(80) %this) #4 comdat align 2 {
entry:
  %this.addr = alloca ptr, align 8
  store ptr %this, ptr %this.addr, align 8
  %this1 = load ptr, ptr %this.addr, align 8
  %c = getelementptr inbounds %"class.std::stack", ptr %this1, i32 0, i32 0
  %call = call noundef zeroext i1 @_ZNKSt5dequeIPN4node18MemoryRetainerNodeESaIS2_EE5emptyEv(ptr noundef nonnull align 8 dereferenceable(80) %c) #3
  ret i1 %call
}

; Function Attrs: mustprogress nounwind uwtable
define linkonce_odr dso_local noundef nonnull align 8 dereferenceable(8) ptr @_ZNKSt5stackIPN4node18MemoryRetainerNodeESt5dequeIS2_SaIS2_EEE3topEv(ptr noundef nonnull align 8 dereferenceable(80) %this) #4 comdat align 2 {
entry:
  %this.addr = alloca ptr, align 8
  store ptr %this, ptr %this.addr, align 8
  %this1 = load ptr, ptr %this.addr, align 8
  %c = getelementptr inbounds %"class.std::stack", ptr %this1, i32 0, i32 0
  %call = call noundef nonnull align 8 dereferenceable(8) ptr @_ZNKSt5dequeIPN4node18MemoryRetainerNodeESaIS2_EE4backEv(ptr noundef nonnull align 8 dereferenceable(80) %c) #3
  ret ptr %call
}

; Function Attrs: mustprogress nounwind uwtable
define linkonce_odr dso_local noundef zeroext i1 @_ZNKSt5dequeIPN4node18MemoryRetainerNodeESaIS2_EE5emptyEv(ptr noundef nonnull align 8 dereferenceable(80) %this) #4 comdat align 2 {
entry:
  %this.addr = alloca ptr, align 8
  store ptr %this, ptr %this.addr, align 8
  %this1 = load ptr, ptr %this.addr, align 8
  %_M_impl = getelementptr inbounds %"class.std::_Deque_base", ptr %this1, i32 0, i32 0
  %_M_finish = getelementptr inbounds %"struct.std::_Deque_base<node::MemoryRetainerNode *, std::allocator<node::MemoryRetainerNode *>>::_Deque_impl_data", ptr %_M_impl, i32 0, i32 3
  %_M_impl2 = getelementptr inbounds %"class.std::_Deque_base", ptr %this1, i32 0, i32 0
  %_M_start = getelementptr inbounds %"struct.std::_Deque_base<node::MemoryRetainerNode *, std::allocator<node::MemoryRetainerNode *>>::_Deque_impl_data", ptr %_M_impl2, i32 0, i32 2
  %call = call noundef zeroext i1 @_ZSteqRKSt15_Deque_iteratorIPN4node18MemoryRetainerNodeERS2_PS2_ES7_(ptr noundef nonnull align 8 dereferenceable(32) %_M_finish, ptr noundef nonnull align 8 dereferenceable(32) %_M_start) #3
  ret i1 %call
}

; Function Attrs: mustprogress nounwind uwtable
define linkonce_odr dso_local noundef zeroext i1 @_ZSteqRKSt15_Deque_iteratorIPN4node18MemoryRetainerNodeERS2_PS2_ES7_(ptr noundef nonnull align 8 dereferenceable(32) %__x, ptr noundef nonnull align 8 dereferenceable(32) %__y) #4 comdat {
entry:
  %__x.addr = alloca ptr, align 8
  %__y.addr = alloca ptr, align 8
  store ptr %__x, ptr %__x.addr, align 8
  store ptr %__y, ptr %__y.addr, align 8
  %0 = load ptr, ptr %__x.addr, align 8
  %_M_cur = getelementptr inbounds %"struct.std::_Deque_iterator", ptr %0, i32 0, i32 0
  %1 = load ptr, ptr %_M_cur, align 8
  %2 = load ptr, ptr %__y.addr, align 8
  %_M_cur1 = getelementptr inbounds %"struct.std::_Deque_iterator", ptr %2, i32 0, i32 0
  %3 = load ptr, ptr %_M_cur1, align 8
  %cmp = icmp eq ptr %1, %3
  ret i1 %cmp
}

; Function Attrs: mustprogress nounwind uwtable
define linkonce_odr dso_local noundef nonnull align 8 dereferenceable(8) ptr @_ZNKSt5dequeIPN4node18MemoryRetainerNodeESaIS2_EE4backEv(ptr noundef nonnull align 8 dereferenceable(80) %this) #4 comdat align 2 {
entry:
  %this.addr = alloca ptr, align 8
  %__tmp = alloca %"struct.std::_Deque_iterator.33", align 8
  store ptr %this, ptr %this.addr, align 8
  %this1 = load ptr, ptr %this.addr, align 8
  call void @_ZNKSt5dequeIPN4node18MemoryRetainerNodeESaIS2_EE3endEv(ptr sret(%"struct.std::_Deque_iterator.33") align 8 %__tmp, ptr noundef nonnull align 8 dereferenceable(80) %this1) #3
  %call = call noundef nonnull align 8 dereferenceable(32) ptr @_ZNSt15_Deque_iteratorIPN4node18MemoryRetainerNodeERKS2_PS3_EmmEv(ptr noundef nonnull align 8 dereferenceable(32) %__tmp) #3
  %call2 = call noundef nonnull align 8 dereferenceable(8) ptr @_ZNKSt15_Deque_iteratorIPN4node18MemoryRetainerNodeERKS2_PS3_EdeEv(ptr noundef nonnull align 8 dereferenceable(32) %__tmp) #3
  ret ptr %call2
}

; Function Attrs: mustprogress nounwind uwtable
define linkonce_odr dso_local void @_ZNKSt5dequeIPN4node18MemoryRetainerNodeESaIS2_EE3endEv(ptr noalias sret(%"struct.std::_Deque_iterator.33") align 8 %agg.result, ptr noundef nonnull align 8 dereferenceable(80) %this) #4 comdat align 2 {
entry:
  %result.ptr = alloca ptr, align 8
  %this.addr = alloca ptr, align 8
  store ptr %agg.result, ptr %result.ptr, align 8
  store ptr %this, ptr %this.addr, align 8
  %this1 = load ptr, ptr %this.addr, align 8
  %_M_impl = getelementptr inbounds %"class.std::_Deque_base", ptr %this1, i32 0, i32 0
  %_M_finish = getelementptr inbounds %"struct.std::_Deque_base<node::MemoryRetainerNode *, std::allocator<node::MemoryRetainerNode *>>::_Deque_impl_data", ptr %_M_impl, i32 0, i32 3
  call void @_ZNSt15_Deque_iteratorIPN4node18MemoryRetainerNodeERKS2_PS3_EC2IS_IS2_RS2_PS2_EvEERKT_(ptr noundef nonnull align 8 dereferenceable(32) %agg.result, ptr noundef nonnull align 8 dereferenceable(32) %_M_finish) #3
  ret void
}

; Function Attrs: mustprogress nounwind uwtable
define linkonce_odr dso_local noundef nonnull align 8 dereferenceable(32) ptr @_ZNSt15_Deque_iteratorIPN4node18MemoryRetainerNodeERKS2_PS3_EmmEv(ptr noundef nonnull align 8 dereferenceable(32) %this) #4 comdat align 2 {
entry:
  %this.addr = alloca ptr, align 8
  store ptr %this, ptr %this.addr, align 8
  %this1 = load ptr, ptr %this.addr, align 8
  %_M_cur = getelementptr inbounds %"struct.std::_Deque_iterator.33", ptr %this1, i32 0, i32 0
  %0 = load ptr, ptr %_M_cur, align 8
  %_M_first = getelementptr inbounds %"struct.std::_Deque_iterator.33", ptr %this1, i32 0, i32 1
  %1 = load ptr, ptr %_M_first, align 8
  %cmp = icmp eq ptr %0, %1
  br i1 %cmp, label %if.then, label %if.end

if.then:                                          ; preds = %entry
  %_M_node = getelementptr inbounds %"struct.std::_Deque_iterator.33", ptr %this1, i32 0, i32 3
  %2 = load ptr, ptr %_M_node, align 8
  %add.ptr = getelementptr inbounds ptr, ptr %2, i64 -1
  call void @_ZNSt15_Deque_iteratorIPN4node18MemoryRetainerNodeERKS2_PS3_E11_M_set_nodeEPPS2_(ptr noundef nonnull align 8 dereferenceable(32) %this1, ptr noundef %add.ptr) #3
  %_M_last = getelementptr inbounds %"struct.std::_Deque_iterator.33", ptr %this1, i32 0, i32 2
  %3 = load ptr, ptr %_M_last, align 8
  %_M_cur2 = getelementptr inbounds %"struct.std::_Deque_iterator.33", ptr %this1, i32 0, i32 0
  store ptr %3, ptr %_M_cur2, align 8
  br label %if.end

if.end:                                           ; preds = %if.then, %entry
  %_M_cur3 = getelementptr inbounds %"struct.std::_Deque_iterator.33", ptr %this1, i32 0, i32 0
  %4 = load ptr, ptr %_M_cur3, align 8
  %incdec.ptr = getelementptr inbounds ptr, ptr %4, i32 -1
  store ptr %incdec.ptr, ptr %_M_cur3, align 8
  ret ptr %this1
}

; Function Attrs: mustprogress nounwind uwtable
define linkonce_odr dso_local noundef nonnull align 8 dereferenceable(8) ptr @_ZNKSt15_Deque_iteratorIPN4node18MemoryRetainerNodeERKS2_PS3_EdeEv(ptr noundef nonnull align 8 dereferenceable(32) %this) #4 comdat align 2 {
entry:
  %this.addr = alloca ptr, align 8
  store ptr %this, ptr %this.addr, align 8
  %this1 = load ptr, ptr %this.addr, align 8
  %_M_cur = getelementptr inbounds %"struct.std::_Deque_iterator.33", ptr %this1, i32 0, i32 0
  %0 = load ptr, ptr %_M_cur, align 8
  ret ptr %0
}

; Function Attrs: mustprogress nounwind uwtable
define linkonce_odr dso_local void @_ZNSt15_Deque_iteratorIPN4node18MemoryRetainerNodeERKS2_PS3_EC2IS_IS2_RS2_PS2_EvEERKT_(ptr noundef nonnull align 8 dereferenceable(32) %this, ptr noundef nonnull align 8 dereferenceable(32) %__x) unnamed_addr #4 comdat align 2 {
entry:
  %this.addr = alloca ptr, align 8
  %__x.addr = alloca ptr, align 8
  store ptr %this, ptr %this.addr, align 8
  store ptr %__x, ptr %__x.addr, align 8
  %this1 = load ptr, ptr %this.addr, align 8
  %_M_cur = getelementptr inbounds %"struct.std::_Deque_iterator.33", ptr %this1, i32 0, i32 0
  %0 = load ptr, ptr %__x.addr, align 8
  %_M_cur2 = getelementptr inbounds %"struct.std::_Deque_iterator", ptr %0, i32 0, i32 0
  %1 = load ptr, ptr %_M_cur2, align 8
  store ptr %1, ptr %_M_cur, align 8
  %_M_first = getelementptr inbounds %"struct.std::_Deque_iterator.33", ptr %this1, i32 0, i32 1
  %2 = load ptr, ptr %__x.addr, align 8
  %_M_first3 = getelementptr inbounds %"struct.std::_Deque_iterator", ptr %2, i32 0, i32 1
  %3 = load ptr, ptr %_M_first3, align 8
  store ptr %3, ptr %_M_first, align 8
  %_M_last = getelementptr inbounds %"struct.std::_Deque_iterator.33", ptr %this1, i32 0, i32 2
  %4 = load ptr, ptr %__x.addr, align 8
  %_M_last4 = getelementptr inbounds %"struct.std::_Deque_iterator", ptr %4, i32 0, i32 2
  %5 = load ptr, ptr %_M_last4, align 8
  store ptr %5, ptr %_M_last, align 8
  %_M_node = getelementptr inbounds %"struct.std::_Deque_iterator.33", ptr %this1, i32 0, i32 3
  %6 = load ptr, ptr %__x.addr, align 8
  %_M_node5 = getelementptr inbounds %"struct.std::_Deque_iterator", ptr %6, i32 0, i32 3
  %7 = load ptr, ptr %_M_node5, align 8
  store ptr %7, ptr %_M_node, align 8
  ret void
}

; Function Attrs: mustprogress nounwind uwtable
define linkonce_odr dso_local void @_ZNSt15_Deque_iteratorIPN4node18MemoryRetainerNodeERKS2_PS3_E11_M_set_nodeEPPS2_(ptr noundef nonnull align 8 dereferenceable(32) %this, ptr noundef %__new_node) #4 comdat align 2 {
entry:
  %this.addr = alloca ptr, align 8
  %__new_node.addr = alloca ptr, align 8
  store ptr %this, ptr %this.addr, align 8
  store ptr %__new_node, ptr %__new_node.addr, align 8
  %this1 = load ptr, ptr %this.addr, align 8
  %0 = load ptr, ptr %__new_node.addr, align 8
  %_M_node = getelementptr inbounds %"struct.std::_Deque_iterator.33", ptr %this1, i32 0, i32 3
  store ptr %0, ptr %_M_node, align 8
  %1 = load ptr, ptr %__new_node.addr, align 8
  %2 = load ptr, ptr %1, align 8
  %_M_first = getelementptr inbounds %"struct.std::_Deque_iterator.33", ptr %this1, i32 0, i32 1
  store ptr %2, ptr %_M_first, align 8
  %_M_first2 = getelementptr inbounds %"struct.std::_Deque_iterator.33", ptr %this1, i32 0, i32 1
  %3 = load ptr, ptr %_M_first2, align 8
  %call = call noundef i64 @_ZNSt15_Deque_iteratorIPN4node18MemoryRetainerNodeERKS2_PS3_E14_S_buffer_sizeEv() #3
  %add.ptr = getelementptr inbounds ptr, ptr %3, i64 %call
  %_M_last = getelementptr inbounds %"struct.std::_Deque_iterator.33", ptr %this1, i32 0, i32 2
  store ptr %add.ptr, ptr %_M_last, align 8
  ret void
}

; Function Attrs: mustprogress nounwind uwtable
define linkonce_odr dso_local noundef i64 @_ZNSt15_Deque_iteratorIPN4node18MemoryRetainerNodeERKS2_PS3_E14_S_buffer_sizeEv() #4 comdat align 2 {
entry:
  %call = call noundef i64 @_ZSt16__deque_buf_sizem(i64 noundef 8)
  ret i64 %call
}

; Function Attrs: mustprogress nounwind uwtable
define linkonce_odr dso_local noundef i64 @_ZSt16__deque_buf_sizem(i64 noundef %__size) #4 comdat {
entry:
  %__size.addr = alloca i64, align 8
  store i64 %__size, ptr %__size.addr, align 8
  %0 = load i64, ptr %__size.addr, align 8
  %cmp = icmp ult i64 %0, 512
  br i1 %cmp, label %cond.true, label %cond.false

cond.true:                                        ; preds = %entry
  %1 = load i64, ptr %__size.addr, align 8
  %div = udiv i64 512, %1
  br label %cond.end

cond.false:                                       ; preds = %entry
  br label %cond.end

cond.end:                                         ; preds = %cond.false, %cond.true
  %cond = phi i64 [ %div, %cond.true ], [ 1, %cond.false ]
  ret i64 %cond
}

; Function Attrs: mustprogress nounwind uwtable
define linkonce_odr dso_local noundef ptr @_ZN4node6crypto13MallocOpenSSLIcEEPT_m(i64 noundef %count) #4 comdat {
entry:
  %count.addr = alloca i64, align 8
  %mem = alloca ptr, align 8
  store i64 %count, ptr %count.addr, align 8
  %0 = load i64, ptr %count.addr, align 8
  %call = call noundef i64 @_ZN4node25MultiplyWithOverflowCheckImEET_S1_S1_(i64 noundef %0, i64 noundef 1)
  %call1 = call ptr @CRYPTO_malloc(i64 noundef %call, ptr noundef @.str.9, i32 noundef 205)
  store ptr %call1, ptr %mem, align 8
  br label %do.body

do.body:                                          ; preds = %entry
  %1 = load ptr, ptr %mem, align 8
  %cmp = icmp eq ptr %1, null
  br i1 %cmp, label %lor.rhs, label %lor.end

lor.rhs:                                          ; preds = %do.body
  %2 = load i64, ptr %count.addr, align 8
  %cmp2 = icmp eq i64 %2, 0
  br label %lor.end

lor.end:                                          ; preds = %lor.rhs, %do.body
  %3 = phi i1 [ true, %do.body ], [ %cmp2, %lor.rhs ]
  %lnot = xor i1 %3, true
  %lnot3 = xor i1 %lnot, true
  %lnot4 = xor i1 %lnot3, true
  br i1 %lnot4, label %if.then, label %if.end

if.then:                                          ; preds = %lor.end
  br label %do.body5

do.body5:                                         ; preds = %if.then
  call void @_ZN4node6AssertERKNS_13AssertionInfoE(ptr noundef nonnull align 8 dereferenceable(24) @_ZZN4node6crypto13MallocOpenSSLIcEEPT_mE4args)
  call void @abort() #14
  unreachable

do.end:                                           ; No predecessors!
  br label %if.end

if.end:                                           ; preds = %do.end, %lor.end
  br label %do.end6

do.end6:                                          ; preds = %if.end
  %4 = load ptr, ptr %mem, align 8
  ret ptr %4
}

declare ptr @CRYPTO_malloc(i64 noundef, ptr noundef, i32 noundef) #1

; Function Attrs: mustprogress nounwind uwtable
define linkonce_odr dso_local noundef i64 @_ZN4node25MultiplyWithOverflowCheckImEET_S1_S1_(i64 noundef %a, i64 noundef %b) #4 comdat {
entry:
  %a.addr = alloca i64, align 8
  %b.addr = alloca i64, align 8
  %ret = alloca i64, align 8
  store i64 %a, ptr %a.addr, align 8
  store i64 %b, ptr %b.addr, align 8
  %0 = load i64, ptr %a.addr, align 8
  %1 = load i64, ptr %b.addr, align 8
  %mul = mul i64 %0, %1
  store i64 %mul, ptr %ret, align 8
  %2 = load i64, ptr %a.addr, align 8
  %cmp = icmp ne i64 %2, 0
  br i1 %cmp, label %if.then, label %if.end7

if.then:                                          ; preds = %entry
  br label %do.body

do.body:                                          ; preds = %if.then
  %3 = load i64, ptr %b.addr, align 8
  %4 = load i64, ptr %ret, align 8
  %5 = load i64, ptr %a.addr, align 8
  %div = udiv i64 %4, %5
  %cmp1 = icmp eq i64 %3, %div
  %lnot = xor i1 %cmp1, true
  %lnot2 = xor i1 %lnot, true
  %lnot3 = xor i1 %lnot2, true
  br i1 %lnot3, label %if.then4, label %if.end

if.then4:                                         ; preds = %do.body
  br label %do.body5

do.body5:                                         ; preds = %if.then4
  call void @_ZN4node6AssertERKNS_13AssertionInfoE(ptr noundef nonnull align 8 dereferenceable(24) @_ZZN4node25MultiplyWithOverflowCheckImEET_S1_S1_E4args)
  call void @abort() #14
  unreachable

do.end:                                           ; No predecessors!
  br label %if.end

if.end:                                           ; preds = %do.end, %do.body
  br label %do.end6

do.end6:                                          ; preds = %if.end
  br label %if.end7

if.end7:                                          ; preds = %do.end6, %entry
  %6 = load i64, ptr %ret, align 8
  ret i64 %6
}

; Function Attrs: mustprogress nounwind uwtable
define linkonce_odr dso_local noundef zeroext i1 @_ZNKSt8optionalImEcvbEv(ptr noundef nonnull align 8 dereferenceable(16) %this) #4 comdat align 2 {
entry:
  %this.addr = alloca ptr, align 8
  store ptr %this, ptr %this.addr, align 8
  %this1 = load ptr, ptr %this.addr, align 8
  %call = call noundef zeroext i1 @_ZNKSt19_Optional_base_implImSt14_Optional_baseImLb1ELb1EEE13_M_is_engagedEv(ptr noundef nonnull align 1 dereferenceable(1) %this1) #3
  ret i1 %call
}

; Function Attrs: mustprogress nounwind uwtable
define linkonce_odr dso_local noundef nonnull align 8 dereferenceable(8) ptr @_ZNRSt8optionalImEdeEv(ptr noundef nonnull align 8 dereferenceable(16) %this) #4 comdat align 2 {
entry:
  %this.addr = alloca ptr, align 8
  store ptr %this, ptr %this.addr, align 8
  %this1 = load ptr, ptr %this.addr, align 8
  %call = call noundef nonnull align 8 dereferenceable(8) ptr @_ZNSt19_Optional_base_implImSt14_Optional_baseImLb1ELb1EEE6_M_getEv(ptr noundef nonnull align 1 dereferenceable(1) %this1) #3
  ret ptr %call
}

declare void @CRYPTO_clear_free(ptr noundef, i64 noundef, ptr noundef, i32 noundef) #1

declare void @_ZN4node6crypto10ByteSource9AllocatedEPvm(ptr sret(%"class.node::crypto::ByteSource") align 8, ptr noundef, i64 noundef) #1

; Function Attrs: mustprogress nounwind uwtable
define linkonce_odr dso_local noundef zeroext i1 @_ZNKSt19_Optional_base_implImSt14_Optional_baseImLb1ELb1EEE13_M_is_engagedEv(ptr noundef nonnull align 1 dereferenceable(1) %this) #4 comdat align 2 {
entry:
  %this.addr = alloca ptr, align 8
  store ptr %this, ptr %this.addr, align 8
  %this1 = load ptr, ptr %this.addr, align 8
  %_M_payload = getelementptr inbounds %"struct.std::_Optional_base", ptr %this1, i32 0, i32 0
  %_M_engaged = getelementptr inbounds %"struct.std::_Optional_payload_base", ptr %_M_payload, i32 0, i32 1
  %0 = load i8, ptr %_M_engaged, align 8
  %tobool = trunc i8 %0 to i1
  ret i1 %tobool
}

; Function Attrs: mustprogress nounwind uwtable
define linkonce_odr dso_local noundef nonnull align 8 dereferenceable(8) ptr @_ZNSt19_Optional_base_implImSt14_Optional_baseImLb1ELb1EEE6_M_getEv(ptr noundef nonnull align 1 dereferenceable(1) %this) #4 comdat align 2 {
entry:
  %this.addr = alloca ptr, align 8
  store ptr %this, ptr %this.addr, align 8
  %this1 = load ptr, ptr %this.addr, align 8
  br label %do.body

do.body:                                          ; preds = %entry
  br label %do.end

do.end:                                           ; preds = %do.body
  %_M_payload = getelementptr inbounds %"struct.std::_Optional_base", ptr %this1, i32 0, i32 0
  %call = call noundef nonnull align 8 dereferenceable(8) ptr @_ZNSt22_Optional_payload_baseImE6_M_getEv(ptr noundef nonnull align 8 dereferenceable(9) %_M_payload) #3
  ret ptr %call
}

; Function Attrs: mustprogress nounwind uwtable
define linkonce_odr dso_local noundef nonnull align 8 dereferenceable(8) ptr @_ZNSt22_Optional_payload_baseImE6_M_getEv(ptr noundef nonnull align 8 dereferenceable(9) %this) #4 comdat align 2 {
entry:
  %this.addr = alloca ptr, align 8
  store ptr %this, ptr %this.addr, align 8
  %this1 = load ptr, ptr %this.addr, align 8
  %_M_payload = getelementptr inbounds %"struct.std::_Optional_payload_base", ptr %this1, i32 0, i32 0
  ret ptr %_M_payload
}

; Function Attrs: mustprogress nounwind uwtable
define linkonce_odr dso_local void @_ZNSt14_Optional_baseImLb1ELb1EEC2Ev(ptr noundef nonnull align 8 dereferenceable(16) %this) unnamed_addr #4 comdat align 2 {
entry:
  %this.addr = alloca ptr, align 8
  store ptr %this, ptr %this.addr, align 8
  %this1 = load ptr, ptr %this.addr, align 8
  %_M_payload = getelementptr inbounds %"struct.std::_Optional_base", ptr %this1, i32 0, i32 0
  call void @_ZNSt17_Optional_payloadImLb1ELb1ELb1EEC2Ev(ptr noundef nonnull align 8 dereferenceable(9) %_M_payload) #3
  ret void
}

; Function Attrs: mustprogress nounwind uwtable
define linkonce_odr dso_local void @_ZNSt17_Optional_payloadImLb1ELb1ELb1EEC2Ev(ptr noundef nonnull align 8 dereferenceable(9) %this) unnamed_addr #4 comdat align 2 {
entry:
  %this.addr = alloca ptr, align 8
  store ptr %this, ptr %this.addr, align 8
  %this1 = load ptr, ptr %this.addr, align 8
  call void @_ZNSt22_Optional_payload_baseImEC2Ev(ptr noundef nonnull align 8 dereferenceable(9) %this1) #3
  ret void
}

; Function Attrs: mustprogress nounwind uwtable
define linkonce_odr dso_local void @_ZNSt22_Optional_payload_baseImEC2Ev(ptr noundef nonnull align 8 dereferenceable(9) %this) unnamed_addr #4 comdat align 2 {
entry:
  %this.addr = alloca ptr, align 8
  store ptr %this, ptr %this.addr, align 8
  %this1 = load ptr, ptr %this.addr, align 8
  %_M_payload = getelementptr inbounds %"struct.std::_Optional_payload_base", ptr %this1, i32 0, i32 0
  call void @_ZNSt22_Optional_payload_baseImE8_StorageImLb1EEC2Ev(ptr noundef nonnull align 8 dereferenceable(8) %_M_payload) #3
  %_M_engaged = getelementptr inbounds %"struct.std::_Optional_payload_base", ptr %this1, i32 0, i32 1
  store i8 0, ptr %_M_engaged, align 8
  ret void
}

; Function Attrs: mustprogress nounwind uwtable
define linkonce_odr dso_local void @_ZNSt22_Optional_payload_baseImE8_StorageImLb1EEC2Ev(ptr noundef nonnull align 8 dereferenceable(8) %this) unnamed_addr #4 comdat align 2 {
entry:
  %this.addr = alloca ptr, align 8
  store ptr %this, ptr %this.addr, align 8
  ret void
}

; Function Attrs: mustprogress nounwind uwtable
define linkonce_odr dso_local void @_ZNSt12__shared_ptrIN4node6crypto13KeyObjectDataELN9__gnu_cxx12_Lock_policyE2EEC2ERKS5_(ptr noundef nonnull align 8 dereferenceable(16) %this, ptr noundef nonnull align 8 dereferenceable(16) %0) unnamed_addr #4 comdat align 2 {
entry:
  %this.addr = alloca ptr, align 8
  %.addr = alloca ptr, align 8
  store ptr %this, ptr %this.addr, align 8
  store ptr %0, ptr %.addr, align 8
  %this1 = load ptr, ptr %this.addr, align 8
  %_M_ptr = getelementptr inbounds %"class.std::__shared_ptr.21", ptr %this1, i32 0, i32 0
  %1 = load ptr, ptr %.addr, align 8
  %_M_ptr2 = getelementptr inbounds %"class.std::__shared_ptr.21", ptr %1, i32 0, i32 0
  %2 = load ptr, ptr %_M_ptr2, align 8
  store ptr %2, ptr %_M_ptr, align 8
  %_M_refcount = getelementptr inbounds %"class.std::__shared_ptr.21", ptr %this1, i32 0, i32 1
  %3 = load ptr, ptr %.addr, align 8
  %_M_refcount3 = getelementptr inbounds %"class.std::__shared_ptr.21", ptr %3, i32 0, i32 1
  call void @_ZNSt14__shared_countILN9__gnu_cxx12_Lock_policyE2EEC2ERKS2_(ptr noundef nonnull align 8 dereferenceable(8) %_M_refcount, ptr noundef nonnull align 8 dereferenceable(8) %_M_refcount3) #3
  ret void
}

; Function Attrs: mustprogress nounwind uwtable
define linkonce_odr dso_local void @_ZNSt14__shared_countILN9__gnu_cxx12_Lock_policyE2EEC2ERKS2_(ptr noundef nonnull align 8 dereferenceable(8) %this, ptr noundef nonnull align 8 dereferenceable(8) %__r) unnamed_addr #4 comdat align 2 {
entry:
  %this.addr = alloca ptr, align 8
  %__r.addr = alloca ptr, align 8
  store ptr %this, ptr %this.addr, align 8
  store ptr %__r, ptr %__r.addr, align 8
  %this1 = load ptr, ptr %this.addr, align 8
  %_M_pi = getelementptr inbounds %"class.std::__shared_count", ptr %this1, i32 0, i32 0
  %0 = load ptr, ptr %__r.addr, align 8
  %_M_pi2 = getelementptr inbounds %"class.std::__shared_count", ptr %0, i32 0, i32 0
  %1 = load ptr, ptr %_M_pi2, align 8
  store ptr %1, ptr %_M_pi, align 8
  %_M_pi3 = getelementptr inbounds %"class.std::__shared_count", ptr %this1, i32 0, i32 0
  %2 = load ptr, ptr %_M_pi3, align 8
  %cmp = icmp ne ptr %2, null
  br i1 %cmp, label %if.then, label %if.end

if.then:                                          ; preds = %entry
  %_M_pi4 = getelementptr inbounds %"class.std::__shared_count", ptr %this1, i32 0, i32 0
  %3 = load ptr, ptr %_M_pi4, align 8
  call void @_ZNSt16_Sp_counted_baseILN9__gnu_cxx12_Lock_policyE2EE15_M_add_ref_copyEv(ptr noundef nonnull align 8 dereferenceable(16) %3)
  br label %if.end

if.end:                                           ; preds = %if.then, %entry
  ret void
}

; Function Attrs: mustprogress nounwind uwtable
define linkonce_odr dso_local void @_ZNSt16_Sp_counted_baseILN9__gnu_cxx12_Lock_policyE2EE15_M_add_ref_copyEv(ptr noundef nonnull align 8 dereferenceable(16) %this) #4 comdat align 2 {
entry:
  %__mem.addr.i4 = alloca ptr, align 8
  %__val.addr.i5 = alloca i32, align 4
  %.atomictmp.i = alloca i32, align 4
  %atomic-temp.i = alloca i32, align 4
  %__mem.addr.i2 = alloca ptr, align 8
  %__val.addr.i3 = alloca i32, align 4
  %__mem.addr.i = alloca ptr, align 8
  %__val.addr.i = alloca i32, align 4
  %this.addr = alloca ptr, align 8
  store ptr %this, ptr %this.addr, align 8
  %this1 = load ptr, ptr %this.addr, align 8
  %_M_use_count = getelementptr inbounds %"class.std::_Sp_counted_base", ptr %this1, i32 0, i32 1
  store ptr %_M_use_count, ptr %__mem.addr.i, align 8
  store i32 1, ptr %__val.addr.i, align 4
  %0 = load i8, ptr @__libc_single_threaded, align 1
  %tobool.i = icmp ne i8 %0, 0
  br i1 %tobool.i, label %if.then.i, label %if.else.i

if.then.i:                                        ; preds = %entry
  %1 = load ptr, ptr %__mem.addr.i, align 8
  %2 = load i32, ptr %__val.addr.i, align 4
  store ptr %1, ptr %__mem.addr.i2, align 8
  store i32 %2, ptr %__val.addr.i3, align 4
  %3 = load i32, ptr %__val.addr.i3, align 4
  %4 = load ptr, ptr %__mem.addr.i2, align 8
  %5 = load i32, ptr %4, align 4
  %add.i = add nsw i32 %5, %3
  store i32 %add.i, ptr %4, align 4
  br label %_ZN9__gnu_cxx21__atomic_add_dispatchEPii.exit

if.else.i:                                        ; preds = %entry
  %6 = load ptr, ptr %__mem.addr.i, align 8
  %7 = load i32, ptr %__val.addr.i, align 4
  store ptr %6, ptr %__mem.addr.i4, align 8
  store i32 %7, ptr %__val.addr.i5, align 4
  %8 = load ptr, ptr %__mem.addr.i4, align 8
  %9 = load i32, ptr %__val.addr.i5, align 4
  store i32 %9, ptr %.atomictmp.i, align 4
  %10 = load i32, ptr %.atomictmp.i, align 4
  %11 = atomicrmw volatile add ptr %8, i32 %10 acq_rel, align 4
  store i32 %11, ptr %atomic-temp.i, align 4
  br label %_ZN9__gnu_cxx21__atomic_add_dispatchEPii.exit

_ZN9__gnu_cxx21__atomic_add_dispatchEPii.exit:    ; preds = %if.else.i, %if.then.i
  ret void
}

; Function Attrs: mustprogress nounwind uwtable
define linkonce_odr dso_local void @_ZNSt12__shared_ptrIN4node6crypto13KeyObjectDataELN9__gnu_cxx12_Lock_policyE2EED2Ev(ptr noundef nonnull align 8 dereferenceable(16) %this) unnamed_addr #4 comdat align 2 {
entry:
  %this.addr = alloca ptr, align 8
  store ptr %this, ptr %this.addr, align 8
  %this1 = load ptr, ptr %this.addr, align 8
  %_M_refcount = getelementptr inbounds %"class.std::__shared_ptr.21", ptr %this1, i32 0, i32 1
  call void @_ZNSt14__shared_countILN9__gnu_cxx12_Lock_policyE2EED2Ev(ptr noundef nonnull align 8 dereferenceable(8) %_M_refcount) #3
  ret void
}

; Function Attrs: mustprogress nounwind uwtable
define linkonce_odr dso_local void @_ZNSt14__shared_countILN9__gnu_cxx12_Lock_policyE2EED2Ev(ptr noundef nonnull align 8 dereferenceable(8) %this) unnamed_addr #4 comdat align 2 {
entry:
  %this.addr = alloca ptr, align 8
  store ptr %this, ptr %this.addr, align 8
  %this1 = load ptr, ptr %this.addr, align 8
  %_M_pi = getelementptr inbounds %"class.std::__shared_count", ptr %this1, i32 0, i32 0
  %0 = load ptr, ptr %_M_pi, align 8
  %cmp = icmp ne ptr %0, null
  br i1 %cmp, label %if.then, label %if.end

if.then:                                          ; preds = %entry
  %_M_pi2 = getelementptr inbounds %"class.std::__shared_count", ptr %this1, i32 0, i32 0
  %1 = load ptr, ptr %_M_pi2, align 8
  call void @_ZNSt16_Sp_counted_baseILN9__gnu_cxx12_Lock_policyE2EE10_M_releaseEv(ptr noundef nonnull align 8 dereferenceable(16) %1) #3
  br label %if.end

if.end:                                           ; preds = %if.then, %entry
  ret void
}

; Function Attrs: mustprogress nounwind uwtable
define linkonce_odr dso_local void @_ZNSt16_Sp_counted_baseILN9__gnu_cxx12_Lock_policyE2EE10_M_releaseEv(ptr noundef nonnull align 8 dereferenceable(16) %this) #4 comdat align 2 {
entry:
  %__mem.addr.i11 = alloca ptr, align 8
  %__val.addr.i12 = alloca i32, align 4
  %.atomictmp.i = alloca i32, align 4
  %atomic-temp.i = alloca i32, align 4
  %__mem.addr.i9 = alloca ptr, align 8
  %__val.addr.i10 = alloca i32, align 4
  %__result.i = alloca i32, align 4
  %retval.i = alloca i32, align 4
  %__mem.addr.i = alloca ptr, align 8
  %__val.addr.i = alloca i32, align 4
  %this.addr = alloca ptr, align 8
  %__lock_free = alloca i8, align 1
  %__double_word = alloca i8, align 1
  %__aligned = alloca i8, align 1
  %__wordbits = alloca i32, align 4
  %__shiftbits = alloca i32, align 4
  %__unique_ref = alloca i64, align 8
  %__both_counts = alloca ptr, align 8
  %atomic-temp = alloca i64, align 8
  store ptr %this, ptr %this.addr, align 8
  %this1 = load ptr, ptr %this.addr, align 8
  store i8 1, ptr %__lock_free, align 1
  store i8 1, ptr %__double_word, align 1
  store i8 1, ptr %__aligned, align 1
  store i32 32, ptr %__wordbits, align 4
  store i32 32, ptr %__shiftbits, align 4
  store i64 4294967297, ptr %__unique_ref, align 8
  %_M_use_count = getelementptr inbounds %"class.std::_Sp_counted_base", ptr %this1, i32 0, i32 1
  store ptr %_M_use_count, ptr %__both_counts, align 8
  %0 = load ptr, ptr %__both_counts, align 8
  %1 = load atomic i64, ptr %0 acquire, align 8
  store i64 %1, ptr %atomic-temp, align 8
  %2 = load i64, ptr %atomic-temp, align 8
  %cmp = icmp eq i64 %2, 4294967297
  br i1 %cmp, label %if.then, label %if.end

if.then:                                          ; preds = %entry
  %_M_use_count2 = getelementptr inbounds %"class.std::_Sp_counted_base", ptr %this1, i32 0, i32 1
  store i32 0, ptr %_M_use_count2, align 8
  %_M_weak_count = getelementptr inbounds %"class.std::_Sp_counted_base", ptr %this1, i32 0, i32 2
  store i32 0, ptr %_M_weak_count, align 4
  %vtable = load ptr, ptr %this1, align 8
  %vfn = getelementptr inbounds ptr, ptr %vtable, i64 2
  %3 = load ptr, ptr %vfn, align 8
  call void %3(ptr noundef nonnull align 8 dereferenceable(16) %this1) #3
  %vtable3 = load ptr, ptr %this1, align 8
  %vfn4 = getelementptr inbounds ptr, ptr %vtable3, i64 3
  %4 = load ptr, ptr %vfn4, align 8
  call void %4(ptr noundef nonnull align 8 dereferenceable(16) %this1) #3
  br label %if.end8

if.end:                                           ; preds = %entry
  %_M_use_count5 = getelementptr inbounds %"class.std::_Sp_counted_base", ptr %this1, i32 0, i32 1
  store ptr %_M_use_count5, ptr %__mem.addr.i, align 8
  store i32 -1, ptr %__val.addr.i, align 4
  %5 = load i8, ptr @__libc_single_threaded, align 1
  %tobool.i.i = icmp ne i8 %5, 0
  br i1 %tobool.i.i, label %if.then.i, label %if.else.i

if.then.i:                                        ; preds = %if.end
  %6 = load ptr, ptr %__mem.addr.i, align 8
  %7 = load i32, ptr %__val.addr.i, align 4
  store ptr %6, ptr %__mem.addr.i9, align 8
  store i32 %7, ptr %__val.addr.i10, align 4
  %8 = load ptr, ptr %__mem.addr.i9, align 8
  %9 = load i32, ptr %8, align 4
  store i32 %9, ptr %__result.i, align 4
  %10 = load i32, ptr %__val.addr.i10, align 4
  %11 = load ptr, ptr %__mem.addr.i9, align 8
  %12 = load i32, ptr %11, align 4
  %add.i = add nsw i32 %12, %10
  store i32 %add.i, ptr %11, align 4
  %13 = load i32, ptr %__result.i, align 4
  store i32 %13, ptr %retval.i, align 4
  br label %_ZN9__gnu_cxx27__exchange_and_add_dispatchEPii.exit

if.else.i:                                        ; preds = %if.end
  %14 = load ptr, ptr %__mem.addr.i, align 8
  %15 = load i32, ptr %__val.addr.i, align 4
  store ptr %14, ptr %__mem.addr.i11, align 8
  store i32 %15, ptr %__val.addr.i12, align 4
  %16 = load ptr, ptr %__mem.addr.i11, align 8
  %17 = load i32, ptr %__val.addr.i12, align 4
  store i32 %17, ptr %.atomictmp.i, align 4
  %18 = load i32, ptr %.atomictmp.i, align 4
  %19 = atomicrmw volatile add ptr %16, i32 %18 acq_rel, align 4
  store i32 %19, ptr %atomic-temp.i, align 4
  %20 = load i32, ptr %atomic-temp.i, align 4
  store i32 %20, ptr %retval.i, align 4
  br label %_ZN9__gnu_cxx27__exchange_and_add_dispatchEPii.exit

_ZN9__gnu_cxx27__exchange_and_add_dispatchEPii.exit: ; preds = %if.else.i, %if.then.i
  %21 = load i32, ptr %retval.i, align 4
  %cmp6 = icmp eq i32 %21, 1
  br i1 %cmp6, label %if.then7, label %if.end8

if.then7:                                         ; preds = %_ZN9__gnu_cxx27__exchange_and_add_dispatchEPii.exit
  call void @_ZNSt16_Sp_counted_baseILN9__gnu_cxx12_Lock_policyE2EE24_M_release_last_use_coldEv(ptr noundef nonnull align 8 dereferenceable(16) %this1) #3
  br label %if.end8

if.end8:                                          ; preds = %if.then7, %_ZN9__gnu_cxx27__exchange_and_add_dispatchEPii.exit, %if.then
  ret void
}

; Function Attrs: mustprogress nounwind uwtable
define linkonce_odr dso_local void @_ZNSt16_Sp_counted_baseILN9__gnu_cxx12_Lock_policyE2EE24_M_release_last_use_coldEv(ptr noundef nonnull align 8 dereferenceable(16) %this) #4 comdat align 2 {
entry:
  %this.addr = alloca ptr, align 8
  store ptr %this, ptr %this.addr, align 8
  %this1 = load ptr, ptr %this.addr, align 8
  call void @_ZNSt16_Sp_counted_baseILN9__gnu_cxx12_Lock_policyE2EE19_M_release_last_useEv(ptr noundef nonnull align 8 dereferenceable(16) %this1) #3
  ret void
}

; Function Attrs: mustprogress nounwind uwtable
define linkonce_odr dso_local void @_ZNSt16_Sp_counted_baseILN9__gnu_cxx12_Lock_policyE2EE19_M_release_last_useEv(ptr noundef nonnull align 8 dereferenceable(16) %this) #4 comdat align 2 {
entry:
  %__mem.addr.i6 = alloca ptr, align 8
  %__val.addr.i7 = alloca i32, align 4
  %.atomictmp.i = alloca i32, align 4
  %atomic-temp.i = alloca i32, align 4
  %__mem.addr.i4 = alloca ptr, align 8
  %__val.addr.i5 = alloca i32, align 4
  %__result.i = alloca i32, align 4
  %retval.i = alloca i32, align 4
  %__mem.addr.i = alloca ptr, align 8
  %__val.addr.i = alloca i32, align 4
  %this.addr = alloca ptr, align 8
  store ptr %this, ptr %this.addr, align 8
  %this1 = load ptr, ptr %this.addr, align 8
  %vtable = load ptr, ptr %this1, align 8
  %vfn = getelementptr inbounds ptr, ptr %vtable, i64 2
  %0 = load ptr, ptr %vfn, align 8
  call void %0(ptr noundef nonnull align 8 dereferenceable(16) %this1) #3
  %_M_weak_count = getelementptr inbounds %"class.std::_Sp_counted_base", ptr %this1, i32 0, i32 2
  store ptr %_M_weak_count, ptr %__mem.addr.i, align 8
  store i32 -1, ptr %__val.addr.i, align 4
  %1 = load i8, ptr @__libc_single_threaded, align 1
  %tobool.i.i = icmp ne i8 %1, 0
  br i1 %tobool.i.i, label %if.then.i, label %if.else.i

if.then.i:                                        ; preds = %entry
  %2 = load ptr, ptr %__mem.addr.i, align 8
  %3 = load i32, ptr %__val.addr.i, align 4
  store ptr %2, ptr %__mem.addr.i4, align 8
  store i32 %3, ptr %__val.addr.i5, align 4
  %4 = load ptr, ptr %__mem.addr.i4, align 8
  %5 = load i32, ptr %4, align 4
  store i32 %5, ptr %__result.i, align 4
  %6 = load i32, ptr %__val.addr.i5, align 4
  %7 = load ptr, ptr %__mem.addr.i4, align 8
  %8 = load i32, ptr %7, align 4
  %add.i = add nsw i32 %8, %6
  store i32 %add.i, ptr %7, align 4
  %9 = load i32, ptr %__result.i, align 4
  store i32 %9, ptr %retval.i, align 4
  br label %_ZN9__gnu_cxx27__exchange_and_add_dispatchEPii.exit

if.else.i:                                        ; preds = %entry
  %10 = load ptr, ptr %__mem.addr.i, align 8
  %11 = load i32, ptr %__val.addr.i, align 4
  store ptr %10, ptr %__mem.addr.i6, align 8
  store i32 %11, ptr %__val.addr.i7, align 4
  %12 = load ptr, ptr %__mem.addr.i6, align 8
  %13 = load i32, ptr %__val.addr.i7, align 4
  store i32 %13, ptr %.atomictmp.i, align 4
  %14 = load i32, ptr %.atomictmp.i, align 4
  %15 = atomicrmw volatile add ptr %12, i32 %14 acq_rel, align 4
  store i32 %15, ptr %atomic-temp.i, align 4
  %16 = load i32, ptr %atomic-temp.i, align 4
  store i32 %16, ptr %retval.i, align 4
  br label %_ZN9__gnu_cxx27__exchange_and_add_dispatchEPii.exit

_ZN9__gnu_cxx27__exchange_and_add_dispatchEPii.exit: ; preds = %if.else.i, %if.then.i
  %17 = load i32, ptr %retval.i, align 4
  %cmp = icmp eq i32 %17, 1
  br i1 %cmp, label %if.then, label %if.end

if.then:                                          ; preds = %_ZN9__gnu_cxx27__exchange_and_add_dispatchEPii.exit
  %vtable2 = load ptr, ptr %this1, align 8
  %vfn3 = getelementptr inbounds ptr, ptr %vtable2, i64 3
  %18 = load ptr, ptr %vfn3, align 8
  call void %18(ptr noundef nonnull align 8 dereferenceable(16) %this1) #3
  br label %if.end

if.end:                                           ; preds = %if.then, %_ZN9__gnu_cxx27__exchange_and_add_dispatchEPii.exit
  ret void
}

; Function Attrs: mustprogress nounwind uwtable
define linkonce_odr dso_local void @_ZN2v85MaybeIbEC2EOb(ptr noundef nonnull align 1 dereferenceable(2) %this, ptr noundef nonnull align 1 dereferenceable(1) %t) unnamed_addr #4 comdat align 2 {
entry:
  %this.addr = alloca ptr, align 8
  %t.addr = alloca ptr, align 8
  store ptr %this, ptr %this.addr, align 8
  store ptr %t, ptr %t.addr, align 8
  %this1 = load ptr, ptr %this.addr, align 8
  %has_value_ = getelementptr inbounds %"class.v8::Maybe", ptr %this1, i32 0, i32 0
  store i8 1, ptr %has_value_, align 1
  %value_ = getelementptr inbounds %"class.v8::Maybe", ptr %this1, i32 0, i32 1
  %0 = load ptr, ptr %t.addr, align 8
  %1 = load i8, ptr %0, align 1
  %tobool = trunc i8 %1 to i1
  %frombool = zext i1 %tobool to i8
  store i8 %frombool, ptr %value_, align 1
  ret void
}

; Function Attrs: mustprogress nounwind uwtable
define linkonce_odr dso_local void @_ZNSt15__uniq_ptr_dataI15evp_pkey_ctx_stN4node15FunctionDeleterIS0_XadL_Z17EVP_PKEY_CTX_freeEEEELb1ELb1EECI2St15__uniq_ptr_implIS0_S3_EEPS0_(ptr noundef nonnull align 8 dereferenceable(8) %this, ptr noundef %0) unnamed_addr #4 comdat align 2 {
entry:
  %this.addr = alloca ptr, align 8
  %.addr = alloca ptr, align 8
  store ptr %this, ptr %this.addr, align 8
  store ptr %0, ptr %.addr, align 8
  %this1 = load ptr, ptr %this.addr, align 8
  %1 = load ptr, ptr %.addr, align 8
  call void @_ZNSt15__uniq_ptr_implI15evp_pkey_ctx_stN4node15FunctionDeleterIS0_XadL_Z17EVP_PKEY_CTX_freeEEEEEC2EPS0_(ptr noundef nonnull align 8 dereferenceable(8) %this1, ptr noundef %1)
  ret void
}

; Function Attrs: mustprogress nounwind uwtable
define linkonce_odr dso_local void @_ZNSt15__uniq_ptr_implI15evp_pkey_ctx_stN4node15FunctionDeleterIS0_XadL_Z17EVP_PKEY_CTX_freeEEEEEC2EPS0_(ptr noundef nonnull align 8 dereferenceable(8) %this, ptr noundef %__p) unnamed_addr #4 comdat align 2 {
entry:
  %this.addr = alloca ptr, align 8
  %__p.addr = alloca ptr, align 8
  store ptr %this, ptr %this.addr, align 8
  store ptr %__p, ptr %__p.addr, align 8
  %this1 = load ptr, ptr %this.addr, align 8
  %_M_t = getelementptr inbounds %"class.std::__uniq_ptr_impl.7", ptr %this1, i32 0, i32 0
  call void @_ZNSt5tupleIJP15evp_pkey_ctx_stN4node15FunctionDeleterIS0_XadL_Z17EVP_PKEY_CTX_freeEEEEEEC2ILb1ETnNSt9enable_ifIXclsr17_TupleConstraintsIXT_ES1_S4_EE37__is_implicitly_default_constructibleEEbE4typeELb1EEEv(ptr noundef nonnull align 8 dereferenceable(8) %_M_t) #3
  %0 = load ptr, ptr %__p.addr, align 8
  %call = call noundef nonnull align 8 dereferenceable(8) ptr @_ZNSt15__uniq_ptr_implI15evp_pkey_ctx_stN4node15FunctionDeleterIS0_XadL_Z17EVP_PKEY_CTX_freeEEEEE6_M_ptrEv(ptr noundef nonnull align 8 dereferenceable(8) %this1) #3
  store ptr %0, ptr %call, align 8
  ret void
}

; Function Attrs: mustprogress nounwind uwtable
define linkonce_odr dso_local noundef nonnull align 1 dereferenceable(1) ptr @_ZNSt10unique_ptrI15evp_pkey_ctx_stN4node15FunctionDeleterIS0_XadL_Z17EVP_PKEY_CTX_freeEEEEE11get_deleterEv(ptr noundef nonnull align 8 dereferenceable(8) %this) #4 comdat align 2 {
entry:
  %this.addr = alloca ptr, align 8
  store ptr %this, ptr %this.addr, align 8
  %this1 = load ptr, ptr %this.addr, align 8
  %_M_t = getelementptr inbounds %"class.std::unique_ptr.5", ptr %this1, i32 0, i32 0
  %call = call noundef nonnull align 1 dereferenceable(1) ptr @_ZNSt15__uniq_ptr_implI15evp_pkey_ctx_stN4node15FunctionDeleterIS0_XadL_Z17EVP_PKEY_CTX_freeEEEEE10_M_deleterEv(ptr noundef nonnull align 8 dereferenceable(8) %_M_t) #3
  ret ptr %call
}

; Function Attrs: mustprogress nounwind uwtable
define linkonce_odr dso_local void @_ZNK4node15FunctionDeleterI15evp_pkey_ctx_stXadL_Z17EVP_PKEY_CTX_freeEEEclEPS1_(ptr noundef nonnull align 1 dereferenceable(1) %this, ptr noundef %pointer) #4 comdat align 2 {
entry:
  %this.addr = alloca ptr, align 8
  %pointer.addr = alloca ptr, align 8
  store ptr %this, ptr %this.addr, align 8
  store ptr %pointer, ptr %pointer.addr, align 8
  %0 = load ptr, ptr %pointer.addr, align 8
  call void @EVP_PKEY_CTX_free(ptr noundef %0)
  ret void
}

; Function Attrs: mustprogress nounwind uwtable
define linkonce_odr dso_local noundef nonnull align 1 dereferenceable(1) ptr @_ZNSt15__uniq_ptr_implI15evp_pkey_ctx_stN4node15FunctionDeleterIS0_XadL_Z17EVP_PKEY_CTX_freeEEEEE10_M_deleterEv(ptr noundef nonnull align 8 dereferenceable(8) %this) #4 comdat align 2 {
entry:
  %this.addr = alloca ptr, align 8
  store ptr %this, ptr %this.addr, align 8
  %this1 = load ptr, ptr %this.addr, align 8
  %_M_t = getelementptr inbounds %"class.std::__uniq_ptr_impl.7", ptr %this1, i32 0, i32 0
  %call = call noundef nonnull align 1 dereferenceable(1) ptr @_ZSt3getILm1EJP15evp_pkey_ctx_stN4node15FunctionDeleterIS0_XadL_Z17EVP_PKEY_CTX_freeEEEEEERNSt13tuple_elementIXT_ESt5tupleIJDpT0_EEE4typeERS9_(ptr noundef nonnull align 8 dereferenceable(8) %_M_t) #3
  ret ptr %call
}

; Function Attrs: mustprogress nounwind uwtable
define linkonce_odr dso_local noundef nonnull align 1 dereferenceable(1) ptr @_ZSt3getILm1EJP15evp_pkey_ctx_stN4node15FunctionDeleterIS0_XadL_Z17EVP_PKEY_CTX_freeEEEEEERNSt13tuple_elementIXT_ESt5tupleIJDpT0_EEE4typeERS9_(ptr noundef nonnull align 8 dereferenceable(8) %__t) #4 comdat {
entry:
  %__t.addr = alloca ptr, align 8
  store ptr %__t, ptr %__t.addr, align 8
  %0 = load ptr, ptr %__t.addr, align 8
  %call = call noundef nonnull align 1 dereferenceable(1) ptr @_ZSt12__get_helperILm1EN4node15FunctionDeleterI15evp_pkey_ctx_stXadL_Z17EVP_PKEY_CTX_freeEEEEJEERT0_RSt11_Tuple_implIXT_EJS4_DpT1_EE(ptr noundef nonnull align 1 dereferenceable(1) %0) #3
  ret ptr %call
}

; Function Attrs: mustprogress nounwind uwtable
define linkonce_odr dso_local noundef nonnull align 1 dereferenceable(1) ptr @_ZSt12__get_helperILm1EN4node15FunctionDeleterI15evp_pkey_ctx_stXadL_Z17EVP_PKEY_CTX_freeEEEEJEERT0_RSt11_Tuple_implIXT_EJS4_DpT1_EE(ptr noundef nonnull align 1 dereferenceable(1) %__t) #4 comdat {
entry:
  %__t.addr = alloca ptr, align 8
  store ptr %__t, ptr %__t.addr, align 8
  %0 = load ptr, ptr %__t.addr, align 8
  %call = call noundef nonnull align 1 dereferenceable(1) ptr @_ZNSt11_Tuple_implILm1EJN4node15FunctionDeleterI15evp_pkey_ctx_stXadL_Z17EVP_PKEY_CTX_freeEEEEEE7_M_headERS4_(ptr noundef nonnull align 1 dereferenceable(1) %0) #3
  ret ptr %call
}

; Function Attrs: mustprogress nounwind uwtable
define linkonce_odr dso_local noundef nonnull align 1 dereferenceable(1) ptr @_ZNSt11_Tuple_implILm1EJN4node15FunctionDeleterI15evp_pkey_ctx_stXadL_Z17EVP_PKEY_CTX_freeEEEEEE7_M_headERS4_(ptr noundef nonnull align 1 dereferenceable(1) %__t) #4 comdat align 2 {
entry:
  %__t.addr = alloca ptr, align 8
  store ptr %__t, ptr %__t.addr, align 8
  %0 = load ptr, ptr %__t.addr, align 8
  %call = call noundef nonnull align 1 dereferenceable(1) ptr @_ZNSt10_Head_baseILm1EN4node15FunctionDeleterI15evp_pkey_ctx_stXadL_Z17EVP_PKEY_CTX_freeEEEELb1EE7_M_headERS4_(ptr noundef nonnull align 1 dereferenceable(1) %0) #3
  ret ptr %call
}

; Function Attrs: mustprogress nounwind uwtable
define linkonce_odr dso_local noundef nonnull align 1 dereferenceable(1) ptr @_ZNSt10_Head_baseILm1EN4node15FunctionDeleterI15evp_pkey_ctx_stXadL_Z17EVP_PKEY_CTX_freeEEEELb1EE7_M_headERS4_(ptr noundef nonnull align 1 dereferenceable(1) %__b) #4 comdat align 2 {
entry:
  %__b.addr = alloca ptr, align 8
  store ptr %__b, ptr %__b.addr, align 8
  %0 = load ptr, ptr %__b.addr, align 8
  ret ptr %0
}

declare void @EVP_PKEY_CTX_free(ptr noundef) #1

; Function Attrs: mustprogress nounwind uwtable
define linkonce_odr dso_local noundef ptr @_ZNKSt15__uniq_ptr_implI15evp_pkey_ctx_stN4node15FunctionDeleterIS0_XadL_Z17EVP_PKEY_CTX_freeEEEEE6_M_ptrEv(ptr noundef nonnull align 8 dereferenceable(8) %this) #4 comdat align 2 {
entry:
  %this.addr = alloca ptr, align 8
  store ptr %this, ptr %this.addr, align 8
  %this1 = load ptr, ptr %this.addr, align 8
  %_M_t = getelementptr inbounds %"class.std::__uniq_ptr_impl.7", ptr %this1, i32 0, i32 0
  %call = call noundef nonnull align 8 dereferenceable(8) ptr @_ZSt3getILm0EJP15evp_pkey_ctx_stN4node15FunctionDeleterIS0_XadL_Z17EVP_PKEY_CTX_freeEEEEEERKNSt13tuple_elementIXT_ESt5tupleIJDpT0_EEE4typeERKS9_(ptr noundef nonnull align 8 dereferenceable(8) %_M_t) #3
  %0 = load ptr, ptr %call, align 8
  ret ptr %0
}

; Function Attrs: mustprogress nounwind uwtable
define linkonce_odr dso_local noundef nonnull align 8 dereferenceable(8) ptr @_ZSt3getILm0EJP15evp_pkey_ctx_stN4node15FunctionDeleterIS0_XadL_Z17EVP_PKEY_CTX_freeEEEEEERKNSt13tuple_elementIXT_ESt5tupleIJDpT0_EEE4typeERKS9_(ptr noundef nonnull align 8 dereferenceable(8) %__t) #4 comdat {
entry:
  %__t.addr = alloca ptr, align 8
  store ptr %__t, ptr %__t.addr, align 8
  %0 = load ptr, ptr %__t.addr, align 8
  %call = call noundef nonnull align 8 dereferenceable(8) ptr @_ZSt12__get_helperILm0EP15evp_pkey_ctx_stJN4node15FunctionDeleterIS0_XadL_Z17EVP_PKEY_CTX_freeEEEEEERKT0_RKSt11_Tuple_implIXT_EJS5_DpT1_EE(ptr noundef nonnull align 8 dereferenceable(8) %0) #3
  ret ptr %call
}

; Function Attrs: mustprogress nounwind uwtable
define linkonce_odr dso_local noundef nonnull align 8 dereferenceable(8) ptr @_ZSt12__get_helperILm0EP15evp_pkey_ctx_stJN4node15FunctionDeleterIS0_XadL_Z17EVP_PKEY_CTX_freeEEEEEERKT0_RKSt11_Tuple_implIXT_EJS5_DpT1_EE(ptr noundef nonnull align 8 dereferenceable(8) %__t) #4 comdat {
entry:
  %__t.addr = alloca ptr, align 8
  store ptr %__t, ptr %__t.addr, align 8
  %0 = load ptr, ptr %__t.addr, align 8
  %call = call noundef nonnull align 8 dereferenceable(8) ptr @_ZNSt11_Tuple_implILm0EJP15evp_pkey_ctx_stN4node15FunctionDeleterIS0_XadL_Z17EVP_PKEY_CTX_freeEEEEEE7_M_headERKS5_(ptr noundef nonnull align 8 dereferenceable(8) %0) #3
  ret ptr %call
}

; Function Attrs: mustprogress nounwind uwtable
define linkonce_odr dso_local noundef nonnull align 8 dereferenceable(8) ptr @_ZNSt11_Tuple_implILm0EJP15evp_pkey_ctx_stN4node15FunctionDeleterIS0_XadL_Z17EVP_PKEY_CTX_freeEEEEEE7_M_headERKS5_(ptr noundef nonnull align 8 dereferenceable(8) %__t) #4 comdat align 2 {
entry:
  %__t.addr = alloca ptr, align 8
  store ptr %__t, ptr %__t.addr, align 8
  %0 = load ptr, ptr %__t.addr, align 8
  %call = call noundef nonnull align 8 dereferenceable(8) ptr @_ZNSt10_Head_baseILm0EP15evp_pkey_ctx_stLb0EE7_M_headERKS2_(ptr noundef nonnull align 8 dereferenceable(8) %0) #3
  ret ptr %call
}

; Function Attrs: mustprogress nounwind uwtable
define linkonce_odr dso_local noundef nonnull align 8 dereferenceable(8) ptr @_ZNSt10_Head_baseILm0EP15evp_pkey_ctx_stLb0EE7_M_headERKS2_(ptr noundef nonnull align 8 dereferenceable(8) %__b) #4 comdat align 2 {
entry:
  %__b.addr = alloca ptr, align 8
  store ptr %__b, ptr %__b.addr, align 8
  %0 = load ptr, ptr %__b.addr, align 8
  %_M_head_impl = getelementptr inbounds %"struct.std::_Head_base.12", ptr %0, i32 0, i32 0
  ret ptr %_M_head_impl
}

; Function Attrs: mustprogress nounwind uwtable
define linkonce_odr dso_local void @_ZN4node6crypto9CryptoJobINS0_16KeyPairGenTraitsINS0_19NidKeyPairGenTraitsEEEE10InitializeEPFvRKN2v820FunctionCallbackInfoINS6_5ValueEEEEPNS_11EnvironmentENS6_5LocalINS6_6ObjectEEE(ptr noundef %new_fn, ptr noundef %env, ptr %target.coerce) #4 comdat align 2 {
entry:
  %slot.addr.i70 = alloca ptr, align 8
  %this.addr.i.i66 = alloca ptr, align 8
  %this.addr.i67 = alloca ptr, align 8
  %slot.addr.i65 = alloca ptr, align 8
  %slot.addr.i = alloca ptr, align 8
  %this.addr.i.i60 = alloca ptr, align 8
  %this.addr.i61 = alloca ptr, align 8
  %this.addr.i.i56 = alloca ptr, align 8
  %this.addr.i57 = alloca ptr, align 8
  %this.addr.i.i = alloca ptr, align 8
  %this.addr.i54 = alloca ptr, align 8
  %this.addr.i51 = alloca ptr, align 8
  %this.addr.i48 = alloca ptr, align 8
  %this.addr.i46 = alloca ptr, align 8
  %this.addr.i = alloca ptr, align 8
  %target = alloca %"class.v8::Local.23", align 8
  %new_fn.addr = alloca ptr, align 8
  %env.addr = alloca ptr, align 8
  %isolate = alloca ptr, align 8
  %scope = alloca %"class.v8::HandleScope", align 8
  %context = alloca %"class.v8::Local.314", align 8
  %job = alloca %"class.v8::Local.316", align 8
  %agg.tmp = alloca %"class.v8::Local.318", align 8
  %agg.tmp15 = alloca %"class.v8::Local.316", align 8
  %ref.tmp = alloca %"class.v8::Local.320", align 8
  %agg.tmp29 = alloca %"class.v8::Local.316", align 8
  %agg.tmp30 = alloca %"class.std::basic_string_view", align 8
  %agg.tmp34 = alloca %"class.v8::Local.314", align 8
  %agg.tmp35 = alloca %"class.v8::Local.23", align 8
  %agg.tmp36 = alloca %"class.v8::Local.316", align 8
  %coerce.dive = getelementptr inbounds %"class.v8::Local.23", ptr %target, i32 0, i32 0
  %coerce.dive1 = getelementptr inbounds %"class.v8::LocalBase.24", ptr %coerce.dive, i32 0, i32 0
  %coerce.dive2 = getelementptr inbounds %"class.v8::IndirectHandleBase", ptr %coerce.dive1, i32 0, i32 0
  store ptr %target.coerce, ptr %coerce.dive2, align 8
  store ptr %new_fn, ptr %new_fn.addr, align 8
  store ptr %env, ptr %env.addr, align 8
  %0 = load ptr, ptr %env.addr, align 8
  %call = call noundef ptr @_ZNK4node11Environment7isolateEv(ptr noundef nonnull align 8 dereferenceable(2872) %0)
  store ptr %call, ptr %isolate, align 8
  %1 = load ptr, ptr %isolate, align 8
  call void @_ZN2v811HandleScopeC1EPNS_7IsolateE(ptr noundef nonnull align 8 dereferenceable(24) %scope, ptr noundef %1)
  %2 = load ptr, ptr %env.addr, align 8
  %call3 = call ptr @_ZNK4node11Environment7contextEv(ptr noundef nonnull align 8 dereferenceable(2872) %2)
  %coerce.dive4 = getelementptr inbounds %"class.v8::Local.314", ptr %context, i32 0, i32 0
  %coerce.dive5 = getelementptr inbounds %"class.v8::LocalBase.315", ptr %coerce.dive4, i32 0, i32 0
  %coerce.dive6 = getelementptr inbounds %"class.v8::IndirectHandleBase", ptr %coerce.dive5, i32 0, i32 0
  store ptr %call3, ptr %coerce.dive6, align 8
  %3 = load ptr, ptr %isolate, align 8
  %4 = load ptr, ptr %new_fn.addr, align 8
  call void @llvm.memset.p0.i64(ptr align 8 %agg.tmp, i8 0, i64 8, i1 false)
  store ptr %agg.tmp, ptr %this.addr.i, align 8
  %this1.i = load ptr, ptr %this.addr.i, align 8
  store ptr %this1.i, ptr %this.addr.i54, align 8
  %this1.i55 = load ptr, ptr %this.addr.i54, align 8
  store ptr %this1.i55, ptr %this.addr.i.i, align 8
  %this1.i.i = load ptr, ptr %this.addr.i.i, align 8
  store ptr null, ptr %this1.i.i, align 8
  %coerce.dive7 = getelementptr inbounds %"class.v8::Local.318", ptr %agg.tmp, i32 0, i32 0
  %coerce.dive8 = getelementptr inbounds %"class.v8::LocalBase.319", ptr %coerce.dive7, i32 0, i32 0
  %coerce.dive9 = getelementptr inbounds %"class.v8::IndirectHandleBase", ptr %coerce.dive8, i32 0, i32 0
  %5 = load ptr, ptr %coerce.dive9, align 8
  %call10 = call ptr @_ZN4node19NewFunctionTemplateEPN2v87IsolateEPFvRKNS0_20FunctionCallbackInfoINS0_5ValueEEEENS0_5LocalINS0_9SignatureEEENS0_19ConstructorBehaviorENS0_14SideEffectTypeEPKNS0_9CFunctionE(ptr noundef %3, ptr noundef %4, ptr %5, i32 noundef 1, i32 noundef 0, ptr noundef null)
  %coerce.dive11 = getelementptr inbounds %"class.v8::Local.316", ptr %job, i32 0, i32 0
  %coerce.dive12 = getelementptr inbounds %"class.v8::LocalBase.317", ptr %coerce.dive11, i32 0, i32 0
  %coerce.dive13 = getelementptr inbounds %"class.v8::IndirectHandleBase", ptr %coerce.dive12, i32 0, i32 0
  store ptr %call10, ptr %coerce.dive13, align 8
  store ptr %job, ptr %this.addr.i48, align 8
  %this1.i49 = load ptr, ptr %this.addr.i48, align 8
  store ptr %this1.i49, ptr %this.addr.i57, align 8
  %this1.i58 = load ptr, ptr %this.addr.i57, align 8
  store ptr %this1.i58, ptr %this.addr.i.i56, align 8
  %this1.i.i59 = load ptr, ptr %this.addr.i.i56, align 8
  %6 = load ptr, ptr %this1.i.i59, align 8
  store ptr %6, ptr %slot.addr.i65, align 8
  %7 = load ptr, ptr %slot.addr.i65, align 8
  %8 = load ptr, ptr %env.addr, align 8
  %call16 = call ptr @_ZN4node9AsyncWrap22GetConstructorTemplateEPNS_11EnvironmentE(ptr noundef %8)
  %coerce.dive17 = getelementptr inbounds %"class.v8::Local.316", ptr %agg.tmp15, i32 0, i32 0
  %coerce.dive18 = getelementptr inbounds %"class.v8::LocalBase.317", ptr %coerce.dive17, i32 0, i32 0
  %coerce.dive19 = getelementptr inbounds %"class.v8::IndirectHandleBase", ptr %coerce.dive18, i32 0, i32 0
  store ptr %call16, ptr %coerce.dive19, align 8
  %coerce.dive20 = getelementptr inbounds %"class.v8::Local.316", ptr %agg.tmp15, i32 0, i32 0
  %coerce.dive21 = getelementptr inbounds %"class.v8::LocalBase.317", ptr %coerce.dive20, i32 0, i32 0
  %coerce.dive22 = getelementptr inbounds %"class.v8::IndirectHandleBase", ptr %coerce.dive21, i32 0, i32 0
  %9 = load ptr, ptr %coerce.dive22, align 8
  call void @_ZN2v816FunctionTemplate7InheritENS_5LocalIS0_EE(ptr noundef nonnull align 1 dereferenceable(1) %7, ptr %9)
  store ptr %job, ptr %this.addr.i46, align 8
  %this1.i47 = load ptr, ptr %this.addr.i46, align 8
  store ptr %this1.i47, ptr %this.addr.i61, align 8
  %this1.i62 = load ptr, ptr %this.addr.i61, align 8
  store ptr %this1.i62, ptr %this.addr.i.i60, align 8
  %this1.i.i63 = load ptr, ptr %this.addr.i.i60, align 8
  %10 = load ptr, ptr %this1.i.i63, align 8
  store ptr %10, ptr %slot.addr.i, align 8
  %11 = load ptr, ptr %slot.addr.i, align 8
  %call24 = call ptr @_ZN2v816FunctionTemplate16InstanceTemplateEv(ptr noundef nonnull align 1 dereferenceable(1) %11)
  %coerce.dive25 = getelementptr inbounds %"class.v8::Local.320", ptr %ref.tmp, i32 0, i32 0
  %coerce.dive26 = getelementptr inbounds %"class.v8::LocalBase.321", ptr %coerce.dive25, i32 0, i32 0
  %coerce.dive27 = getelementptr inbounds %"class.v8::IndirectHandleBase", ptr %coerce.dive26, i32 0, i32 0
  store ptr %call24, ptr %coerce.dive27, align 8
  store ptr %ref.tmp, ptr %this.addr.i51, align 8
  %this1.i52 = load ptr, ptr %this.addr.i51, align 8
  store ptr %this1.i52, ptr %this.addr.i67, align 8
  %this1.i68 = load ptr, ptr %this.addr.i67, align 8
  store ptr %this1.i68, ptr %this.addr.i.i66, align 8
  %this1.i.i69 = load ptr, ptr %this.addr.i.i66, align 8
  %12 = load ptr, ptr %this1.i.i69, align 8
  store ptr %12, ptr %slot.addr.i70, align 8
  %13 = load ptr, ptr %slot.addr.i70, align 8
  call void @_ZN2v814ObjectTemplate21SetInternalFieldCountEi(ptr noundef nonnull align 1 dereferenceable(1) %13, i32 noundef 2)
  %14 = load ptr, ptr %isolate, align 8
  call void @llvm.memcpy.p0.p0.i64(ptr align 8 %agg.tmp29, ptr align 8 %job, i64 8, i1 false)
  call void @_ZNSt17basic_string_viewIcSt11char_traitsIcEEC2EPKc(ptr noundef nonnull align 8 dereferenceable(16) %agg.tmp30, ptr noundef @.str.20) #3
  %coerce.dive31 = getelementptr inbounds %"class.v8::Local.316", ptr %agg.tmp29, i32 0, i32 0
  %coerce.dive32 = getelementptr inbounds %"class.v8::LocalBase.317", ptr %coerce.dive31, i32 0, i32 0
  %coerce.dive33 = getelementptr inbounds %"class.v8::IndirectHandleBase", ptr %coerce.dive32, i32 0, i32 0
  %15 = load ptr, ptr %coerce.dive33, align 8
  %16 = getelementptr inbounds { i64, ptr }, ptr %agg.tmp30, i32 0, i32 0
  %17 = load i64, ptr %16, align 8
  %18 = getelementptr inbounds { i64, ptr }, ptr %agg.tmp30, i32 0, i32 1
  %19 = load ptr, ptr %18, align 8
  call void @_ZN4node14SetProtoMethodEPN2v87IsolateENS0_5LocalINS0_16FunctionTemplateEEESt17basic_string_viewIcSt11char_traitsIcEEPFvRKNS0_20FunctionCallbackInfoINS0_5ValueEEEE(ptr noundef %14, ptr %15, i64 %17, ptr %19, ptr noundef @_ZN4node6crypto9CryptoJobINS0_16KeyPairGenTraitsINS0_19NidKeyPairGenTraitsEEEE3RunERKN2v820FunctionCallbackInfoINS6_5ValueEEE)
  call void @llvm.memcpy.p0.p0.i64(ptr align 8 %agg.tmp34, ptr align 8 %context, i64 8, i1 false)
  call void @llvm.memcpy.p0.p0.i64(ptr align 8 %agg.tmp35, ptr align 8 %target, i64 8, i1 false)
  call void @llvm.memcpy.p0.p0.i64(ptr align 8 %agg.tmp36, ptr align 8 %job, i64 8, i1 false)
  %coerce.dive37 = getelementptr inbounds %"class.v8::Local.314", ptr %agg.tmp34, i32 0, i32 0
  %coerce.dive38 = getelementptr inbounds %"class.v8::LocalBase.315", ptr %coerce.dive37, i32 0, i32 0
  %coerce.dive39 = getelementptr inbounds %"class.v8::IndirectHandleBase", ptr %coerce.dive38, i32 0, i32 0
  %20 = load ptr, ptr %coerce.dive39, align 8
  %coerce.dive40 = getelementptr inbounds %"class.v8::Local.23", ptr %agg.tmp35, i32 0, i32 0
  %coerce.dive41 = getelementptr inbounds %"class.v8::LocalBase.24", ptr %coerce.dive40, i32 0, i32 0
  %coerce.dive42 = getelementptr inbounds %"class.v8::IndirectHandleBase", ptr %coerce.dive41, i32 0, i32 0
  %21 = load ptr, ptr %coerce.dive42, align 8
  %coerce.dive43 = getelementptr inbounds %"class.v8::Local.316", ptr %agg.tmp36, i32 0, i32 0
  %coerce.dive44 = getelementptr inbounds %"class.v8::LocalBase.317", ptr %coerce.dive43, i32 0, i32 0
  %coerce.dive45 = getelementptr inbounds %"class.v8::IndirectHandleBase", ptr %coerce.dive44, i32 0, i32 0
  %22 = load ptr, ptr %coerce.dive45, align 8
  call void @_ZN4node22SetConstructorFunctionEN2v85LocalINS0_7ContextEEENS1_INS0_6ObjectEEEPKcNS1_INS0_16FunctionTemplateEEENS_26SetConstructorFunctionFlagE(ptr %20, ptr %21, ptr noundef @.str.21, ptr %22, i32 noundef 1)
  call void @_ZN2v811HandleScopeD1Ev(ptr noundef nonnull align 8 dereferenceable(24) %scope) #3
  ret void
}

; Function Attrs: mustprogress nounwind uwtable
define linkonce_odr dso_local void @_ZN4node6crypto9KeyGenJobINS0_16KeyPairGenTraitsINS0_19NidKeyPairGenTraitsEEEE3NewERKN2v820FunctionCallbackInfoINS6_5ValueEEE(ptr noundef nonnull align 8 dereferenceable(20) %args) #4 comdat align 2 {
entry:
  %value.addr.i111 = alloca i64, align 8
  %shift_bits.i = alloca i32, align 4
  %heap_object_ptr.addr.i.i105 = alloca i64, align 8
  %offset.addr.i.i106 = alloca i32, align 4
  %addr.i.i107 = alloca i64, align 8
  %heap_object_ptr.addr.i = alloca i64, align 8
  %offset.addr.i = alloca i32, align 4
  %value.addr.i103 = alloca i64, align 8
  %obj.addr.i = alloca i64, align 8
  %value.addr.i101 = alloca i64, align 8
  %value.addr.i = alloca ptr, align 8
  %heap_object_ptr.addr.i.i = alloca i64, align 8
  %offset.addr.i.i = alloca i32, align 4
  %addr.i.i = alloca i64, align 8
  %heap_object_ptr.addr.i2.i.i = alloca i64, align 8
  %offset.addr.i3.i.i = alloca i32, align 4
  %addr.i.i.i = alloca i64, align 8
  %heap_object_ptr.addr.i.i.i = alloca i64, align 8
  %offset.addr.i.i.i = alloca i32, align 4
  %obj.addr.i.i = alloca i64, align 8
  %map.i.i = alloca i64, align 8
  %retval.i94 = alloca i1, align 1
  %this.addr.i95 = alloca ptr, align 8
  %obj.i = alloca i64, align 8
  %this.addr.i92 = alloca ptr, align 8
  %this.addr.i.i.i75 = alloca ptr, align 8
  %location.addr.i.i.i76 = alloca ptr, align 8
  %this.addr.i9.i77 = alloca ptr, align 8
  %location.addr.i.i78 = alloca ptr, align 8
  %this.addr.i.i79 = alloca ptr, align 8
  %other.addr.i.i = alloca ptr, align 8
  %retval.i7.i80 = alloca %"class.v8::LocalBase", align 8
  %slot.addr.i8.i81 = alloca ptr, align 8
  %retval.i.i82 = alloca %"class.v8::Local", align 8
  %slot.addr.i.i83 = alloca ptr, align 8
  %ref.tmp.i.i84 = alloca %"class.v8::LocalBase", align 8
  %retval.i85 = alloca %"class.v8::Local", align 8
  %this.addr.i86 = alloca ptr, align 8
  %this.addr.i.i9.i = alloca ptr, align 8
  %location.addr.i.i.i = alloca ptr, align 8
  %this.addr.i.i66 = alloca ptr, align 8
  %location.addr.i.i67 = alloca ptr, align 8
  %retval.i7.i = alloca %"class.v8::LocalBase.24", align 8
  %slot.addr.i8.i = alloca ptr, align 8
  %this.addr.i.i.i = alloca ptr, align 8
  %other.addr.i.i.i = alloca ptr, align 8
  %retval.i.i = alloca %"class.v8::Local.23", align 8
  %slot.addr.i.i68 = alloca ptr, align 8
  %ref.tmp.i.i = alloca %"class.v8::LocalBase.24", align 8
  %retval.i69 = alloca %"class.v8::Local.23", align 8
  %this.addr.i70 = alloca ptr, align 8
  %this.addr.i63 = alloca ptr, align 8
  %this.addr.i9.i = alloca ptr, align 8
  %slot.addr.i.i = alloca ptr, align 8
  %this.addr.i6.i = alloca ptr, align 8
  %this.addr.i.i58 = alloca ptr, align 8
  %this.addr.i59 = alloca ptr, align 8
  %ref.tmp.i60 = alloca %"class.v8::Local", align 8
  %this.addr.i.i = alloca ptr, align 8
  %location.addr.i.i = alloca ptr, align 8
  %this.addr.i55 = alloca ptr, align 8
  %location.addr.i56 = alloca ptr, align 8
  %this.addr.i52 = alloca ptr, align 8
  %other.addr.i53 = alloca ptr, align 8
  %retval.i50 = alloca %"class.v8::LocalBase", align 8
  %slot.addr.i51 = alloca ptr, align 8
  %this.addr.i47 = alloca ptr, align 8
  %other.addr.i48 = alloca ptr, align 8
  %this.addr.i44 = alloca ptr, align 8
  %location.addr.i45 = alloca ptr, align 8
  %this.addr.i42 = alloca ptr, align 8
  %location.addr.i = alloca ptr, align 8
  %this.addr.i40 = alloca ptr, align 8
  %other.addr.i = alloca ptr, align 8
  %retval.i38 = alloca %"class.v8::LocalBase.35", align 8
  %slot.addr.i39 = alloca ptr, align 8
  %retval.i34 = alloca %"class.v8::Local.34", align 8
  %slot.addr.i35 = alloca ptr, align 8
  %ref.tmp.i36 = alloca %"class.v8::LocalBase.35", align 8
  %isolate.addr.i33 = alloca ptr, align 8
  %index.addr.i = alloca i32, align 4
  %addr.i = alloca i64, align 8
  %isolate.addr.i32 = alloca ptr, align 8
  %retval.i31 = alloca %"class.v8::Local", align 8
  %slot.addr.i = alloca ptr, align 8
  %ref.tmp.i = alloca %"class.v8::LocalBase", align 8
  %that.i = alloca %"class.v8::Local.34", align 8
  %this.addr.i30 = alloca ptr, align 8
  %this.addr.i28 = alloca ptr, align 8
  %retval.i26 = alloca %"class.v8::Local.34", align 8
  %isolate.addr.i = alloca ptr, align 8
  %slot.i = alloca ptr, align 8
  %retval.i = alloca %"class.v8::Local", align 8
  %this.addr.i = alloca ptr, align 8
  %i.addr.i = alloca i32, align 4
  %agg.tmp.i = alloca %"class.v8::Local.34", align 8
  %args.addr = alloca ptr, align 8
  %env = alloca ptr, align 8
  %mode = alloca i32, align 4
  %agg.tmp = alloca %"class.v8::Local", align 8
  %offset = alloca i32, align 4
  %params = alloca %"struct.node::crypto::KeyPairGenConfig", align 8
  %ref.tmp = alloca %"class.v8::Maybe", align 1
  %cleanup.dest.slot = alloca i32, align 4
  %agg.tmp18 = alloca %"class.v8::Local.23", align 8
  store ptr %args, ptr %args.addr, align 8
  %0 = load ptr, ptr %args.addr, align 8
  %call = call noundef ptr @_ZN4node11Environment10GetCurrentERKN2v820FunctionCallbackInfoINS1_5ValueEEE(ptr noundef nonnull align 8 dereferenceable(20) %0)
  store ptr %call, ptr %env, align 8
  br label %do.body

do.body:                                          ; preds = %entry
  %1 = load ptr, ptr %args.addr, align 8
  store ptr %1, ptr %this.addr.i59, align 8
  %this1.i61 = load ptr, ptr %this.addr.i59, align 8
  store ptr %this1.i61, ptr %this.addr.i86, align 8
  %this1.i87 = load ptr, ptr %this.addr.i86, align 8
  %2 = load ptr, ptr %this1.i87, align 8
  %arrayidx.i88 = getelementptr inbounds i64, ptr %2, i64 5
  store ptr %arrayidx.i88, ptr %slot.addr.i.i83, align 8
  %3 = load ptr, ptr %slot.addr.i.i83, align 8
  store ptr %3, ptr %slot.addr.i8.i81, align 8
  %4 = load ptr, ptr %slot.addr.i8.i81, align 8
  store ptr %retval.i7.i80, ptr %this.addr.i9.i77, align 8
  store ptr %4, ptr %location.addr.i.i78, align 8
  %this1.i10.i89 = load ptr, ptr %this.addr.i9.i77, align 8
  %5 = load ptr, ptr %location.addr.i.i78, align 8
  store ptr %this1.i10.i89, ptr %this.addr.i.i.i75, align 8
  store ptr %5, ptr %location.addr.i.i.i76, align 8
  %this1.i.i.i90 = load ptr, ptr %this.addr.i.i.i75, align 8
  %6 = load ptr, ptr %location.addr.i.i.i76, align 8
  store ptr %6, ptr %this1.i.i.i90, align 8
  %7 = load ptr, ptr %retval.i7.i80, align 8
  store ptr %7, ptr %ref.tmp.i.i84, align 8
  store ptr %retval.i.i82, ptr %this.addr.i.i79, align 8
  store ptr %ref.tmp.i.i84, ptr %other.addr.i.i, align 8
  %this1.i.i91 = load ptr, ptr %this.addr.i.i79, align 8
  %8 = load ptr, ptr %other.addr.i.i, align 8
  call void @llvm.memcpy.p0.p0.i64(ptr align 8 %this1.i.i91, ptr align 8 %8, i64 8, i1 false)
  %9 = load ptr, ptr %retval.i.i82, align 8
  store ptr %9, ptr %retval.i85, align 8
  %10 = load ptr, ptr %retval.i85, align 8
  store ptr %10, ptr %ref.tmp.i60, align 8
  store ptr %ref.tmp.i60, ptr %this.addr.i.i58, align 8
  %this1.i.i62 = load ptr, ptr %this.addr.i.i58, align 8
  store ptr %this1.i.i62, ptr %this.addr.i6.i, align 8
  %this1.i7.i = load ptr, ptr %this.addr.i6.i, align 8
  store ptr %this1.i7.i, ptr %this.addr.i9.i, align 8
  %this1.i10.i = load ptr, ptr %this.addr.i9.i, align 8
  %11 = load ptr, ptr %this1.i10.i, align 8
  store ptr %11, ptr %slot.addr.i.i, align 8
  %12 = load ptr, ptr %slot.addr.i.i, align 8
  store ptr %12, ptr %this.addr.i92, align 8
  %this1.i93 = load ptr, ptr %this.addr.i92, align 8
  store ptr %this1.i93, ptr %this.addr.i95, align 8
  %this1.i96 = load ptr, ptr %this.addr.i95, align 8
  store ptr %this1.i96, ptr %value.addr.i, align 8
  %13 = load ptr, ptr %value.addr.i, align 8
  %14 = load i64, ptr %13, align 8
  store i64 %14, ptr %obj.i, align 8
  %15 = load i64, ptr %obj.i, align 8
  store i64 %15, ptr %value.addr.i101, align 8
  %16 = load i64, ptr %value.addr.i101, align 8
  %and.i = and i64 %16, 3
  %cmp.i102 = icmp eq i64 %and.i, 1
  br i1 %cmp.i102, label %if.end.i99, label %if.then.i98

if.then.i98:                                      ; preds = %do.body
  store i1 false, ptr %retval.i94, align 1
  br label %_ZNK2v85Value16QuickIsUndefinedEv.exit

if.end.i99:                                       ; preds = %do.body
  %17 = load i64, ptr %obj.i, align 8
  store i64 %17, ptr %obj.addr.i.i, align 8
  %18 = load i64, ptr %obj.addr.i.i, align 8
  store i64 %18, ptr %heap_object_ptr.addr.i.i.i, align 8
  store i32 0, ptr %offset.addr.i.i.i, align 4
  %19 = load i64, ptr %heap_object_ptr.addr.i.i.i, align 8
  %20 = load i32, ptr %offset.addr.i.i.i, align 4
  store i64 %19, ptr %heap_object_ptr.addr.i2.i.i, align 8
  store i32 %20, ptr %offset.addr.i3.i.i, align 4
  %21 = load i64, ptr %heap_object_ptr.addr.i2.i.i, align 8
  %22 = load i32, ptr %offset.addr.i3.i.i, align 4
  %conv.i.i.i = sext i32 %22 to i64
  %add.i.i.i = add i64 %21, %conv.i.i.i
  %sub.i.i.i = sub i64 %add.i.i.i, 1
  store i64 %sub.i.i.i, ptr %addr.i.i.i, align 8
  %23 = load i64, ptr %addr.i.i.i, align 8
  %24 = inttoptr i64 %23 to ptr
  %25 = load i64, ptr %24, align 8
  store i64 %25, ptr %map.i.i, align 8
  %26 = load i64, ptr %map.i.i, align 8
  store i64 %26, ptr %heap_object_ptr.addr.i.i, align 8
  store i32 12, ptr %offset.addr.i.i, align 4
  %27 = load i64, ptr %heap_object_ptr.addr.i.i, align 8
  %28 = load i32, ptr %offset.addr.i.i, align 4
  %conv.i8.i = sext i32 %28 to i64
  %add.i.i = add i64 %27, %conv.i8.i
  %sub.i.i = sub i64 %add.i.i, 1
  store i64 %sub.i.i, ptr %addr.i.i, align 8
  %29 = load i64, ptr %addr.i.i, align 8
  %30 = inttoptr i64 %29 to ptr
  %31 = load i16, ptr %30, align 2
  %conv.i.i = zext i16 %31 to i32
  %cmp.i100 = icmp ne i32 %conv.i.i, 131
  br i1 %cmp.i100, label %if.then4.i, label %if.end5.i

if.then4.i:                                       ; preds = %if.end.i99
  store i1 false, ptr %retval.i94, align 1
  br label %_ZNK2v85Value16QuickIsUndefinedEv.exit

if.end5.i:                                        ; preds = %if.end.i99
  %32 = load i64, ptr %obj.i, align 8
  store i64 %32, ptr %obj.addr.i, align 8
  %33 = load i64, ptr %obj.addr.i, align 8
  store i64 %33, ptr %heap_object_ptr.addr.i, align 8
  store i32 40, ptr %offset.addr.i, align 4
  %34 = load i64, ptr %heap_object_ptr.addr.i, align 8
  %35 = load i32, ptr %offset.addr.i, align 4
  store i64 %34, ptr %heap_object_ptr.addr.i.i105, align 8
  store i32 %35, ptr %offset.addr.i.i106, align 4
  %36 = load i64, ptr %heap_object_ptr.addr.i.i105, align 8
  %37 = load i32, ptr %offset.addr.i.i106, align 4
  %conv.i.i108 = sext i32 %37 to i64
  %add.i.i109 = add i64 %36, %conv.i.i108
  %sub.i.i110 = sub i64 %add.i.i109, 1
  store i64 %sub.i.i110, ptr %addr.i.i107, align 8
  %38 = load i64, ptr %addr.i.i107, align 8
  %39 = inttoptr i64 %38 to ptr
  %40 = load i64, ptr %39, align 8
  store i64 %40, ptr %value.addr.i103, align 8
  %41 = load i64, ptr %value.addr.i103, align 8
  store i64 %41, ptr %value.addr.i111, align 8
  store i32 32, ptr %shift_bits.i, align 4
  %42 = load i64, ptr %value.addr.i111, align 8
  %43 = load i32, ptr %shift_bits.i, align 4
  %sh_prom.i = zext i32 %43 to i64
  %shr.i = ashr i64 %42, %sh_prom.i
  %conv.i112 = trunc i64 %shr.i to i32
  %cmp7.i = icmp eq i32 %conv.i112, 5
  store i1 %cmp7.i, ptr %retval.i94, align 1
  br label %_ZNK2v85Value16QuickIsUndefinedEv.exit

_ZNK2v85Value16QuickIsUndefinedEv.exit:           ; preds = %if.end5.i, %if.then4.i, %if.then.i98
  %44 = load i1, ptr %retval.i94, align 1
  %lnot.i = xor i1 %44, true
  %lnot = xor i1 %lnot.i, true
  %lnot2 = xor i1 %lnot, true
  %lnot3 = xor i1 %lnot2, true
  br i1 %lnot3, label %if.then, label %if.end

if.then:                                          ; preds = %_ZNK2v85Value16QuickIsUndefinedEv.exit
  br label %do.body4

do.body4:                                         ; preds = %if.then
  call void @_ZN4node6AssertERKNS_13AssertionInfoE(ptr noundef nonnull align 8 dereferenceable(24) @_ZZN4node6crypto9KeyGenJobINS0_16KeyPairGenTraitsINS0_19NidKeyPairGenTraitsEEEE3NewERKN2v820FunctionCallbackInfoINS6_5ValueEEEE4args)
  call void @abort() #14
  unreachable

do.end:                                           ; No predecessors!
  br label %if.end

if.end:                                           ; preds = %do.end, %_ZNK2v85Value16QuickIsUndefinedEv.exit
  br label %do.end5

do.end5:                                          ; preds = %if.end
  %45 = load ptr, ptr %args.addr, align 8
  store ptr %45, ptr %this.addr.i, align 8
  store i32 0, ptr %i.addr.i, align 4
  %this1.i = load ptr, ptr %this.addr.i, align 8
  %46 = load i32, ptr %i.addr.i, align 4
  %cmp.i = icmp slt i32 %46, 0
  br i1 %cmp.i, label %if.then.i, label %lor.lhs.false.i

lor.lhs.false.i:                                  ; preds = %do.end5
  %length_.i = getelementptr inbounds %"class.v8::FunctionCallbackInfo", ptr %this1.i, i32 0, i32 2
  %47 = load i32, ptr %length_.i, align 8
  %48 = load i32, ptr %i.addr.i, align 4
  %cmp2.i = icmp sle i32 %47, %48
  br i1 %cmp2.i, label %if.then.i, label %if.end.i

if.then.i:                                        ; preds = %lor.lhs.false.i, %do.end5
  store ptr %this1.i, ptr %this.addr.i28, align 8
  %this1.i29 = load ptr, ptr %this.addr.i28, align 8
  %49 = load ptr, ptr %this1.i29, align 8
  %arrayidx.i = getelementptr inbounds i64, ptr %49, i64 1
  %50 = load ptr, ptr %arrayidx.i, align 8
  store ptr %50, ptr %isolate.addr.i, align 8
  %51 = load ptr, ptr %isolate.addr.i, align 8
  store ptr %51, ptr %isolate.addr.i32, align 8
  %52 = load ptr, ptr %isolate.addr.i, align 8
  store ptr %52, ptr %isolate.addr.i33, align 8
  store i32 4, ptr %index.addr.i, align 4
  %53 = load ptr, ptr %isolate.addr.i33, align 8
  %54 = ptrtoint ptr %53 to i64
  %add.i = add i64 %54, 576
  %55 = load i32, ptr %index.addr.i, align 4
  %mul.i = mul nsw i32 %55, 8
  %conv.i = sext i32 %mul.i to i64
  %add1.i = add i64 %add.i, %conv.i
  store i64 %add1.i, ptr %addr.i, align 8
  %56 = load i64, ptr %addr.i, align 8
  %57 = inttoptr i64 %56 to ptr
  store ptr %57, ptr %slot.i, align 8
  %58 = load ptr, ptr %slot.i, align 8
  store ptr %58, ptr %slot.addr.i35, align 8
  %59 = load ptr, ptr %slot.addr.i35, align 8
  store ptr %59, ptr %slot.addr.i39, align 8
  %60 = load ptr, ptr %slot.addr.i39, align 8
  store ptr %retval.i38, ptr %this.addr.i42, align 8
  store ptr %60, ptr %location.addr.i, align 8
  %this1.i43 = load ptr, ptr %this.addr.i42, align 8
  %61 = load ptr, ptr %location.addr.i, align 8
  store ptr %this1.i43, ptr %this.addr.i44, align 8
  store ptr %61, ptr %location.addr.i45, align 8
  %this1.i46 = load ptr, ptr %this.addr.i44, align 8
  %62 = load ptr, ptr %location.addr.i45, align 8
  store ptr %62, ptr %this1.i46, align 8
  %63 = load ptr, ptr %retval.i38, align 8
  store ptr %63, ptr %ref.tmp.i36, align 8
  store ptr %retval.i34, ptr %this.addr.i40, align 8
  store ptr %ref.tmp.i36, ptr %other.addr.i, align 8
  %this1.i41 = load ptr, ptr %this.addr.i40, align 8
  %64 = load ptr, ptr %other.addr.i, align 8
  call void @llvm.memcpy.p0.p0.i64(ptr align 8 %this1.i41, ptr align 8 %64, i64 8, i1 false)
  %65 = load ptr, ptr %retval.i34, align 8
  store ptr %65, ptr %retval.i26, align 8
  %66 = load ptr, ptr %retval.i26, align 8
  store ptr %66, ptr %agg.tmp.i, align 8
  %67 = load ptr, ptr %agg.tmp.i, align 8
  store ptr %67, ptr %that.i, align 8
  store ptr %retval.i, ptr %this.addr.i30, align 8
  %this3.i = load ptr, ptr %this.addr.i30, align 8
  store ptr %this3.i, ptr %this.addr.i47, align 8
  store ptr %that.i, ptr %other.addr.i48, align 8
  %this1.i49 = load ptr, ptr %this.addr.i47, align 8
  %68 = load ptr, ptr %other.addr.i48, align 8
  call void @llvm.memcpy.p0.p0.i64(ptr align 8 %this1.i49, ptr align 8 %68, i64 8, i1 false)
  br label %_ZNK2v820FunctionCallbackInfoINS_5ValueEEixEi.exit

if.end.i:                                         ; preds = %lor.lhs.false.i
  %values_.i = getelementptr inbounds %"class.v8::FunctionCallbackInfo", ptr %this1.i, i32 0, i32 1
  %69 = load ptr, ptr %values_.i, align 8
  %70 = load i32, ptr %i.addr.i, align 4
  %idx.ext.i = sext i32 %70 to i64
  %add.ptr.i = getelementptr inbounds i64, ptr %69, i64 %idx.ext.i
  store ptr %add.ptr.i, ptr %slot.addr.i, align 8
  %71 = load ptr, ptr %slot.addr.i, align 8
  store ptr %71, ptr %slot.addr.i51, align 8
  %72 = load ptr, ptr %slot.addr.i51, align 8
  store ptr %retval.i50, ptr %this.addr.i55, align 8
  store ptr %72, ptr %location.addr.i56, align 8
  %this1.i57 = load ptr, ptr %this.addr.i55, align 8
  %73 = load ptr, ptr %location.addr.i56, align 8
  store ptr %this1.i57, ptr %this.addr.i.i, align 8
  store ptr %73, ptr %location.addr.i.i, align 8
  %this1.i.i = load ptr, ptr %this.addr.i.i, align 8
  %74 = load ptr, ptr %location.addr.i.i, align 8
  store ptr %74, ptr %this1.i.i, align 8
  %75 = load ptr, ptr %retval.i50, align 8
  store ptr %75, ptr %ref.tmp.i, align 8
  store ptr %retval.i31, ptr %this.addr.i52, align 8
  store ptr %ref.tmp.i, ptr %other.addr.i53, align 8
  %this1.i54 = load ptr, ptr %this.addr.i52, align 8
  %76 = load ptr, ptr %other.addr.i53, align 8
  call void @llvm.memcpy.p0.p0.i64(ptr align 8 %this1.i54, ptr align 8 %76, i64 8, i1 false)
  %77 = load ptr, ptr %retval.i31, align 8
  store ptr %77, ptr %retval.i, align 8
  br label %_ZNK2v820FunctionCallbackInfoINS_5ValueEEixEi.exit

_ZNK2v820FunctionCallbackInfoINS_5ValueEEixEi.exit: ; preds = %if.end.i, %if.then.i
  %78 = load ptr, ptr %retval.i, align 8
  %coerce.dive = getelementptr inbounds %"class.v8::Local", ptr %agg.tmp, i32 0, i32 0
  %coerce.dive7 = getelementptr inbounds %"class.v8::LocalBase", ptr %coerce.dive, i32 0, i32 0
  %coerce.dive8 = getelementptr inbounds %"class.v8::IndirectHandleBase", ptr %coerce.dive7, i32 0, i32 0
  store ptr %78, ptr %coerce.dive8, align 8
  %coerce.dive9 = getelementptr inbounds %"class.v8::Local", ptr %agg.tmp, i32 0, i32 0
  %coerce.dive10 = getelementptr inbounds %"class.v8::LocalBase", ptr %coerce.dive9, i32 0, i32 0
  %coerce.dive11 = getelementptr inbounds %"class.v8::IndirectHandleBase", ptr %coerce.dive10, i32 0, i32 0
  %79 = load ptr, ptr %coerce.dive11, align 8
  %call12 = call noundef i32 @_ZN4node6crypto16GetCryptoJobModeEN2v85LocalINS1_5ValueEEE(ptr %79)
  store i32 %call12, ptr %mode, align 4
  store i32 1, ptr %offset, align 4
  call void @_ZN4node6crypto16KeyPairGenConfigINS0_16NidKeyPairParamsEEC2Ev(ptr noundef nonnull align 8 dereferenceable(128) %params)
  %80 = load i32, ptr %mode, align 4
  %81 = load ptr, ptr %args.addr, align 8
  %call13 = call i16 @_ZN4node6crypto16KeyPairGenTraitsINS0_19NidKeyPairGenTraitsEE16AdditionalConfigENS0_13CryptoJobModeERKN2v820FunctionCallbackInfoINS5_5ValueEEEPjPNS0_16KeyPairGenConfigINS0_16NidKeyPairParamsEEE(i32 noundef %80, ptr noundef nonnull align 8 dereferenceable(20) %81, ptr noundef %offset, ptr noundef %params)
  store i16 %call13, ptr %ref.tmp, align 1
  store ptr %ref.tmp, ptr %this.addr.i63, align 8
  %this1.i64 = load ptr, ptr %this.addr.i63, align 8
  %82 = load i8, ptr %this1.i64, align 1
  %tobool.i = trunc i8 %82 to i1
  %lnot.i65 = xor i1 %tobool.i, true
  br i1 %lnot.i65, label %if.then15, label %if.end16

if.then15:                                        ; preds = %_ZNK2v820FunctionCallbackInfoINS_5ValueEEixEi.exit
  store i32 1, ptr %cleanup.dest.slot, align 4
  br label %cleanup

if.end16:                                         ; preds = %_ZNK2v820FunctionCallbackInfoINS_5ValueEEixEi.exit
  %call17 = call noalias noundef nonnull ptr @_Znwm(i64 noundef 384) #16
  %83 = load ptr, ptr %env, align 8
  %84 = load ptr, ptr %args.addr, align 8
  store ptr %84, ptr %this.addr.i70, align 8
  %this1.i71 = load ptr, ptr %this.addr.i70, align 8
  %values_.i72 = getelementptr inbounds %"class.v8::FunctionCallbackInfo", ptr %this1.i71, i32 0, i32 1
  %85 = load ptr, ptr %values_.i72, align 8
  %add.ptr.i73 = getelementptr inbounds i64, ptr %85, i64 -1
  store ptr %add.ptr.i73, ptr %slot.addr.i.i68, align 8
  %86 = load ptr, ptr %slot.addr.i.i68, align 8
  store ptr %86, ptr %slot.addr.i8.i, align 8
  %87 = load ptr, ptr %slot.addr.i8.i, align 8
  store ptr %retval.i7.i, ptr %this.addr.i.i66, align 8
  store ptr %87, ptr %location.addr.i.i67, align 8
  %this1.i.i74 = load ptr, ptr %this.addr.i.i66, align 8
  %88 = load ptr, ptr %location.addr.i.i67, align 8
  store ptr %this1.i.i74, ptr %this.addr.i.i9.i, align 8
  store ptr %88, ptr %location.addr.i.i.i, align 8
  %this1.i.i10.i = load ptr, ptr %this.addr.i.i9.i, align 8
  %89 = load ptr, ptr %location.addr.i.i.i, align 8
  store ptr %89, ptr %this1.i.i10.i, align 8
  %90 = load ptr, ptr %retval.i7.i, align 8
  store ptr %90, ptr %ref.tmp.i.i, align 8
  store ptr %retval.i.i, ptr %this.addr.i.i.i, align 8
  store ptr %ref.tmp.i.i, ptr %other.addr.i.i.i, align 8
  %this1.i.i.i = load ptr, ptr %this.addr.i.i.i, align 8
  %91 = load ptr, ptr %other.addr.i.i.i, align 8
  call void @llvm.memcpy.p0.p0.i64(ptr align 8 %this1.i.i.i, ptr align 8 %91, i64 8, i1 false)
  %92 = load ptr, ptr %retval.i.i, align 8
  store ptr %92, ptr %retval.i69, align 8
  %93 = load ptr, ptr %retval.i69, align 8
  %coerce.dive20 = getelementptr inbounds %"class.v8::Local.23", ptr %agg.tmp18, i32 0, i32 0
  %coerce.dive21 = getelementptr inbounds %"class.v8::LocalBase.24", ptr %coerce.dive20, i32 0, i32 0
  %coerce.dive22 = getelementptr inbounds %"class.v8::IndirectHandleBase", ptr %coerce.dive21, i32 0, i32 0
  store ptr %93, ptr %coerce.dive22, align 8
  %94 = load i32, ptr %mode, align 4
  %coerce.dive23 = getelementptr inbounds %"class.v8::Local.23", ptr %agg.tmp18, i32 0, i32 0
  %coerce.dive24 = getelementptr inbounds %"class.v8::LocalBase.24", ptr %coerce.dive23, i32 0, i32 0
  %coerce.dive25 = getelementptr inbounds %"class.v8::IndirectHandleBase", ptr %coerce.dive24, i32 0, i32 0
  %95 = load ptr, ptr %coerce.dive25, align 8
  call void @_ZN4node6crypto9KeyGenJobINS0_16KeyPairGenTraitsINS0_19NidKeyPairGenTraitsEEEEC2EPNS_11EnvironmentEN2v85LocalINS8_6ObjectEEENS0_13CryptoJobModeEONS0_16KeyPairGenConfigINS0_16NidKeyPairParamsEEE(ptr noundef nonnull align 8 dereferenceable(384) %call17, ptr noundef %83, ptr %95, i32 noundef %94, ptr noundef nonnull align 8 dereferenceable(128) %params)
  store i32 0, ptr %cleanup.dest.slot, align 4
  br label %cleanup

cleanup:                                          ; preds = %if.end16, %if.then15
  call void @_ZN4node6crypto16KeyPairGenConfigINS0_16NidKeyPairParamsEED2Ev(ptr noundef nonnull align 8 dereferenceable(128) %params) #3
  %cleanup.dest = load i32, ptr %cleanup.dest.slot, align 4
  switch i32 %cleanup.dest, label %unreachable [
    i32 0, label %cleanup.cont
    i32 1, label %cleanup.cont
  ]

cleanup.cont:                                     ; preds = %cleanup, %cleanup
  ret void

unreachable:                                      ; preds = %cleanup
  unreachable
}

; Function Attrs: mustprogress nounwind uwtable
define linkonce_odr dso_local noundef ptr @_ZNK4node11Environment7isolateEv(ptr noundef nonnull align 8 dereferenceable(2872) %this) #4 comdat align 2 {
entry:
  %this.addr = alloca ptr, align 8
  store ptr %this, ptr %this.addr, align 8
  %this1 = load ptr, ptr %this.addr, align 8
  %isolate_ = getelementptr inbounds %"class.node::Environment", ptr %this1, i32 0, i32 3
  %0 = load ptr, ptr %isolate_, align 8
  ret ptr %0
}

declare void @_ZN2v811HandleScopeC1EPNS_7IsolateE(ptr noundef nonnull align 8 dereferenceable(24), ptr noundef) unnamed_addr #1

; Function Attrs: mustprogress nounwind uwtable
define linkonce_odr dso_local ptr @_ZNK4node11Environment7contextEv(ptr noundef nonnull align 8 dereferenceable(2872) %this) #4 comdat align 2 {
entry:
  %retval = alloca %"class.v8::Local.314", align 8
  %this.addr = alloca ptr, align 8
  store ptr %this, ptr %this.addr, align 8
  %this1 = load ptr, ptr %this.addr, align 8
  %call = call noundef ptr @_ZNK4node11Environment15principal_realmEv(ptr noundef nonnull align 8 dereferenceable(2872) %this1)
  %vtable = load ptr, ptr %call, align 8
  %vfn = getelementptr inbounds ptr, ptr %vtable, i64 8
  %0 = load ptr, ptr %vfn, align 8
  %call2 = call ptr %0(ptr noundef nonnull align 8 dereferenceable(872) %call)
  %coerce.dive = getelementptr inbounds %"class.v8::Local.314", ptr %retval, i32 0, i32 0
  %coerce.dive3 = getelementptr inbounds %"class.v8::LocalBase.315", ptr %coerce.dive, i32 0, i32 0
  %coerce.dive4 = getelementptr inbounds %"class.v8::IndirectHandleBase", ptr %coerce.dive3, i32 0, i32 0
  store ptr %call2, ptr %coerce.dive4, align 8
  %coerce.dive5 = getelementptr inbounds %"class.v8::Local.314", ptr %retval, i32 0, i32 0
  %coerce.dive6 = getelementptr inbounds %"class.v8::LocalBase.315", ptr %coerce.dive5, i32 0, i32 0
  %coerce.dive7 = getelementptr inbounds %"class.v8::IndirectHandleBase", ptr %coerce.dive6, i32 0, i32 0
  %1 = load ptr, ptr %coerce.dive7, align 8
  ret ptr %1
}

declare ptr @_ZN4node19NewFunctionTemplateEPN2v87IsolateEPFvRKNS0_20FunctionCallbackInfoINS0_5ValueEEEENS0_5LocalINS0_9SignatureEEENS0_19ConstructorBehaviorENS0_14SideEffectTypeEPKNS0_9CFunctionE(ptr noundef, ptr noundef, ptr, i32 noundef, i32 noundef, ptr noundef) #1

declare void @_ZN2v816FunctionTemplate7InheritENS_5LocalIS0_EE(ptr noundef nonnull align 1 dereferenceable(1), ptr) #1

; Function Attrs: mustprogress nounwind uwtable
define linkonce_odr dso_local ptr @_ZN4node9AsyncWrap22GetConstructorTemplateEPNS_11EnvironmentE(ptr noundef %env) #4 comdat align 2 {
entry:
  %retval = alloca %"class.v8::Local.316", align 8
  %env.addr = alloca ptr, align 8
  store ptr %env, ptr %env.addr, align 8
  %0 = load ptr, ptr %env.addr, align 8
  %call = call noundef ptr @_ZNK4node11Environment12isolate_dataEv(ptr noundef nonnull align 8 dereferenceable(2872) %0)
  %call1 = call ptr @_ZN4node9AsyncWrap22GetConstructorTemplateEPNS_11IsolateDataE(ptr noundef %call)
  %coerce.dive = getelementptr inbounds %"class.v8::Local.316", ptr %retval, i32 0, i32 0
  %coerce.dive2 = getelementptr inbounds %"class.v8::LocalBase.317", ptr %coerce.dive, i32 0, i32 0
  %coerce.dive3 = getelementptr inbounds %"class.v8::IndirectHandleBase", ptr %coerce.dive2, i32 0, i32 0
  store ptr %call1, ptr %coerce.dive3, align 8
  %coerce.dive4 = getelementptr inbounds %"class.v8::Local.316", ptr %retval, i32 0, i32 0
  %coerce.dive5 = getelementptr inbounds %"class.v8::LocalBase.317", ptr %coerce.dive4, i32 0, i32 0
  %coerce.dive6 = getelementptr inbounds %"class.v8::IndirectHandleBase", ptr %coerce.dive5, i32 0, i32 0
  %1 = load ptr, ptr %coerce.dive6, align 8
  ret ptr %1
}

declare ptr @_ZN2v816FunctionTemplate16InstanceTemplateEv(ptr noundef nonnull align 1 dereferenceable(1)) #1

declare void @_ZN2v814ObjectTemplate21SetInternalFieldCountEi(ptr noundef nonnull align 1 dereferenceable(1), i32 noundef) #1

declare void @_ZN4node14SetProtoMethodEPN2v87IsolateENS0_5LocalINS0_16FunctionTemplateEEESt17basic_string_viewIcSt11char_traitsIcEEPFvRKNS0_20FunctionCallbackInfoINS0_5ValueEEEE(ptr noundef, ptr, i64, ptr, ptr noundef) #1

; Function Attrs: mustprogress nounwind uwtable
define linkonce_odr dso_local void @_ZNSt17basic_string_viewIcSt11char_traitsIcEEC2EPKc(ptr noundef nonnull align 8 dereferenceable(16) %this, ptr noundef nonnull %__str) unnamed_addr #4 comdat align 2 {
entry:
  %this.addr = alloca ptr, align 8
  %__str.addr = alloca ptr, align 8
  store ptr %this, ptr %this.addr, align 8
  store ptr %__str, ptr %__str.addr, align 8
  %this1 = load ptr, ptr %this.addr, align 8
  %_M_len = getelementptr inbounds %"class.std::basic_string_view", ptr %this1, i32 0, i32 0
  %0 = load ptr, ptr %__str.addr, align 8
  %call = call noundef i64 @_ZNSt11char_traitsIcE6lengthEPKc(ptr noundef %0)
  store i64 %call, ptr %_M_len, align 8
  %_M_str = getelementptr inbounds %"class.std::basic_string_view", ptr %this1, i32 0, i32 1
  %1 = load ptr, ptr %__str.addr, align 8
  store ptr %1, ptr %_M_str, align 8
  ret void
}

; Function Attrs: mustprogress nounwind uwtable
define linkonce_odr dso_local void @_ZN4node6crypto9CryptoJobINS0_16KeyPairGenTraitsINS0_19NidKeyPairGenTraitsEEEE3RunERKN2v820FunctionCallbackInfoINS6_5ValueEEE(ptr noundef nonnull align 8 dereferenceable(20) %args) #4 comdat align 2 {
entry:
  %this.addr.i77 = alloca ptr, align 8
  %isolate.addr.i.i = alloca ptr, align 8
  %index.addr.i.i = alloca i32, align 4
  %addr.i.i = alloca i64, align 8
  %isolate.addr.i = alloca ptr, align 8
  %index.addr.i = alloca i32, align 4
  %this.addr.i75 = alloca ptr, align 8
  %this.addr.i73 = alloca ptr, align 8
  %this.addr.i70 = alloca ptr, align 8
  %slot.addr.i71 = alloca ptr, align 8
  %this.addr.i.i66 = alloca ptr, align 8
  %this.addr.i67 = alloca ptr, align 8
  %this.addr.i.i62 = alloca ptr, align 8
  %location.addr.i.i = alloca ptr, align 8
  %this.addr.i63 = alloca ptr, align 8
  %location.addr.i = alloca ptr, align 8
  %retval.i60 = alloca %"class.v8::LocalBase.24", align 8
  %slot.addr.i61 = alloca ptr, align 8
  %this.addr.i.i56 = alloca ptr, align 8
  %other.addr.i.i = alloca ptr, align 8
  %retval.i57 = alloca %"class.v8::Local.23", align 8
  %slot.addr.i = alloca ptr, align 8
  %ref.tmp.i = alloca %"class.v8::LocalBase.24", align 8
  %this.addr.i.i50 = alloca ptr, align 8
  %handle.i = alloca %"class.v8::Local.340", align 8
  %this.addr.i51 = alloca ptr, align 8
  %retval.i47 = alloca %"class.v8::ReturnValue", align 8
  %this.addr.i48 = alloca ptr, align 8
  %this.addr.i.i = alloca ptr, align 8
  %this.addr.i44 = alloca ptr, align 8
  %this.addr.i42 = alloca ptr, align 8
  %this.addr.i40 = alloca ptr, align 8
  %retval.i = alloca %"class.v8::Local.23", align 8
  %this.addr.i38 = alloca ptr, align 8
  %this.addr.i37 = alloca ptr, align 8
  %other.addr.i = alloca ptr, align 8
  %that.i = alloca %"class.v8::Local.23", align 8
  %this.addr.i = alloca ptr, align 8
  %args.addr = alloca ptr, align 8
  %env = alloca ptr, align 8
  %job = alloca ptr, align 8
  %agg.tmp = alloca %"class.v8::Local", align 8
  %agg.tmp1 = alloca %"class.v8::Local.23", align 8
  %ret = alloca [2 x %"class.v8::Local"], align 16
  %result = alloca %"class.v8::Maybe", align 1
  %ref.tmp = alloca %"class.v8::ReturnValue", align 8
  %agg.tmp26 = alloca %"class.v8::Local.340", align 8
  store ptr %args, ptr %args.addr, align 8
  %0 = load ptr, ptr %args.addr, align 8
  %call = call noundef ptr @_ZN4node11Environment10GetCurrentERKN2v820FunctionCallbackInfoINS1_5ValueEEE(ptr noundef nonnull align 8 dereferenceable(20) %0)
  store ptr %call, ptr %env, align 8
  br label %do.body

do.body:                                          ; preds = %entry
  %1 = load ptr, ptr %args.addr, align 8
  store ptr %1, ptr %this.addr.i38, align 8
  %this1.i39 = load ptr, ptr %this.addr.i38, align 8
  %2 = load ptr, ptr %this1.i39, align 8
  store ptr %2, ptr %slot.addr.i, align 8
  %3 = load ptr, ptr %slot.addr.i, align 8
  store ptr %3, ptr %slot.addr.i61, align 8
  %4 = load ptr, ptr %slot.addr.i61, align 8
  store ptr %retval.i60, ptr %this.addr.i63, align 8
  store ptr %4, ptr %location.addr.i, align 8
  %this1.i64 = load ptr, ptr %this.addr.i63, align 8
  %5 = load ptr, ptr %location.addr.i, align 8
  store ptr %this1.i64, ptr %this.addr.i.i62, align 8
  store ptr %5, ptr %location.addr.i.i, align 8
  %this1.i.i65 = load ptr, ptr %this.addr.i.i62, align 8
  %6 = load ptr, ptr %location.addr.i.i, align 8
  store ptr %6, ptr %this1.i.i65, align 8
  %7 = load ptr, ptr %retval.i60, align 8
  store ptr %7, ptr %ref.tmp.i, align 8
  store ptr %retval.i57, ptr %this.addr.i.i56, align 8
  store ptr %ref.tmp.i, ptr %other.addr.i.i, align 8
  %this1.i.i59 = load ptr, ptr %this.addr.i.i56, align 8
  %8 = load ptr, ptr %other.addr.i.i, align 8
  call void @llvm.memcpy.p0.p0.i64(ptr align 8 %this1.i.i59, ptr align 8 %8, i64 8, i1 false)
  %9 = load ptr, ptr %retval.i57, align 8
  store ptr %9, ptr %retval.i, align 8
  %10 = load ptr, ptr %retval.i, align 8
  %coerce.dive = getelementptr inbounds %"class.v8::Local.23", ptr %agg.tmp1, i32 0, i32 0
  %coerce.dive3 = getelementptr inbounds %"class.v8::LocalBase.24", ptr %coerce.dive, i32 0, i32 0
  %coerce.dive4 = getelementptr inbounds %"class.v8::IndirectHandleBase", ptr %coerce.dive3, i32 0, i32 0
  store ptr %10, ptr %coerce.dive4, align 8
  %coerce.dive5 = getelementptr inbounds %"class.v8::Local.23", ptr %agg.tmp1, i32 0, i32 0
  %coerce.dive6 = getelementptr inbounds %"class.v8::LocalBase.24", ptr %coerce.dive5, i32 0, i32 0
  %coerce.dive7 = getelementptr inbounds %"class.v8::IndirectHandleBase", ptr %coerce.dive6, i32 0, i32 0
  %11 = load ptr, ptr %coerce.dive7, align 8
  store ptr %11, ptr %that.i, align 8
  store ptr %agg.tmp, ptr %this.addr.i, align 8
  %this3.i = load ptr, ptr %this.addr.i, align 8
  store ptr %this3.i, ptr %this.addr.i37, align 8
  store ptr %that.i, ptr %other.addr.i, align 8
  %this1.i = load ptr, ptr %this.addr.i37, align 8
  %12 = load ptr, ptr %other.addr.i, align 8
  call void @llvm.memcpy.p0.p0.i64(ptr align 8 %this1.i, ptr align 8 %12, i64 8, i1 false)
  %coerce.dive8 = getelementptr inbounds %"class.v8::Local", ptr %agg.tmp, i32 0, i32 0
  %coerce.dive9 = getelementptr inbounds %"class.v8::LocalBase", ptr %coerce.dive8, i32 0, i32 0
  %coerce.dive10 = getelementptr inbounds %"class.v8::IndirectHandleBase", ptr %coerce.dive9, i32 0, i32 0
  %13 = load ptr, ptr %coerce.dive10, align 8
  %call11 = call noundef ptr @_ZN4node10BaseObject12FromJSObjectEN2v85LocalINS1_5ValueEEE(ptr %13)
  store ptr %call11, ptr %job, align 8
  %14 = load ptr, ptr %job, align 8
  %cmp = icmp eq ptr %14, null
  br i1 %cmp, label %if.then, label %if.end

if.then:                                          ; preds = %do.body
  br label %if.end36

if.end:                                           ; preds = %do.body
  br label %do.end

do.end:                                           ; preds = %if.end
  %15 = load ptr, ptr %job, align 8
  %call12 = call noundef i32 @_ZNK4node6crypto9CryptoJobINS0_16KeyPairGenTraitsINS0_19NidKeyPairGenTraitsEEEE4modeEv(ptr noundef nonnull align 8 dereferenceable(376) %15)
  %cmp13 = icmp eq i32 %call12, 0
  br i1 %cmp13, label %if.then14, label %if.end15

if.then14:                                        ; preds = %do.end
  %16 = load ptr, ptr %job, align 8
  %add.ptr = getelementptr inbounds i8, ptr %16, i64 56
  call void @_ZN4node14ThreadPoolWork12ScheduleWorkEv(ptr noundef nonnull align 8 dereferenceable(152) %add.ptr)
  br label %if.end36

if.end15:                                         ; preds = %do.end
  %array.begin = getelementptr inbounds [2 x %"class.v8::Local"], ptr %ret, i32 0, i32 0
  %arrayctor.end = getelementptr inbounds %"class.v8::Local", ptr %array.begin, i64 2
  br label %arrayctor.loop

arrayctor.loop:                                   ; preds = %arrayctor.loop, %if.end15
  %arrayctor.cur = phi ptr [ %array.begin, %if.end15 ], [ %arrayctor.next, %arrayctor.loop ]
  store ptr %arrayctor.cur, ptr %this.addr.i40, align 8
  %this1.i41 = load ptr, ptr %this.addr.i40, align 8
  store ptr %this1.i41, ptr %this.addr.i67, align 8
  %this1.i68 = load ptr, ptr %this.addr.i67, align 8
  store ptr %this1.i68, ptr %this.addr.i.i66, align 8
  %this1.i.i69 = load ptr, ptr %this.addr.i.i66, align 8
  store ptr null, ptr %this1.i.i69, align 8
  %arrayctor.next = getelementptr inbounds %"class.v8::Local", ptr %arrayctor.cur, i64 1
  %arrayctor.done = icmp eq ptr %arrayctor.next, %arrayctor.end
  br i1 %arrayctor.done, label %arrayctor.cont, label %arrayctor.loop

arrayctor.cont:                                   ; preds = %arrayctor.loop
  %17 = load ptr, ptr %env, align 8
  call void @_ZNK4node11Environment14PrintSyncTraceEv(ptr noundef nonnull align 8 dereferenceable(2872) %17)
  %18 = load ptr, ptr %job, align 8
  %add.ptr16 = getelementptr inbounds i8, ptr %18, i64 56
  %vtable = load ptr, ptr %add.ptr16, align 8
  %vfn = getelementptr inbounds ptr, ptr %vtable, i64 2
  %19 = load ptr, ptr %vfn, align 8
  call void %19(ptr noundef nonnull align 8 dereferenceable(152) %add.ptr16)
  %20 = load ptr, ptr %job, align 8
  %arrayidx = getelementptr inbounds [2 x %"class.v8::Local"], ptr %ret, i64 0, i64 0
  %arrayidx17 = getelementptr inbounds [2 x %"class.v8::Local"], ptr %ret, i64 0, i64 1
  %vtable18 = load ptr, ptr %20, align 8
  %vfn19 = getelementptr inbounds ptr, ptr %vtable18, i64 19
  %21 = load ptr, ptr %vfn19, align 8
  %call20 = call i16 %21(ptr noundef nonnull align 8 dereferenceable(376) %20, ptr noundef %arrayidx, ptr noundef %arrayidx17)
  store i16 %call20, ptr %result, align 1
  store ptr %result, ptr %this.addr.i42, align 8
  %this1.i43 = load ptr, ptr %this.addr.i42, align 8
  %22 = load i8, ptr %this1.i43, align 1
  %tobool.i = trunc i8 %22 to i1
  br i1 %tobool.i, label %land.lhs.true, label %if.end36

land.lhs.true:                                    ; preds = %arrayctor.cont
  store ptr %result, ptr %this.addr.i44, align 8
  %this1.i45 = load ptr, ptr %this.addr.i44, align 8
  store ptr %this1.i45, ptr %this.addr.i.i, align 8
  %this1.i.i = load ptr, ptr %this.addr.i.i, align 8
  %23 = load i8, ptr %this1.i.i, align 1
  %tobool.i.i = trunc i8 %23 to i1
  %lnot3.i = xor i1 %tobool.i.i, true
  br i1 %lnot3.i, label %if.then.i, label %_ZNKR2v85MaybeIbE8FromJustEv.exit

if.then.i:                                        ; preds = %land.lhs.true
  call void @_ZN2v812api_internal17FromJustIsNothingEv() #3
  br label %_ZNKR2v85MaybeIbE8FromJustEv.exit

_ZNKR2v85MaybeIbE8FromJustEv.exit:                ; preds = %if.then.i, %land.lhs.true
  %value_.i = getelementptr inbounds %"class.v8::Maybe", ptr %this1.i45, i32 0, i32 1
  %24 = load i8, ptr %value_.i, align 1
  %tobool.i46 = trunc i8 %24 to i1
  br i1 %tobool.i46, label %if.then23, label %if.end36

if.then23:                                        ; preds = %_ZNKR2v85MaybeIbE8FromJustEv.exit
  %25 = load ptr, ptr %args.addr, align 8
  store ptr %25, ptr %this.addr.i48, align 8
  %this1.i49 = load ptr, ptr %this.addr.i48, align 8
  %26 = load ptr, ptr %this1.i49, align 8
  %arrayidx.i = getelementptr inbounds i64, ptr %26, i64 3
  store ptr %retval.i47, ptr %this.addr.i70, align 8
  store ptr %arrayidx.i, ptr %slot.addr.i71, align 8
  %this1.i72 = load ptr, ptr %this.addr.i70, align 8
  %27 = load ptr, ptr %slot.addr.i71, align 8
  store ptr %27, ptr %this1.i72, align 8
  %28 = load ptr, ptr %retval.i47, align 8
  %coerce.dive25 = getelementptr inbounds %"class.v8::ReturnValue", ptr %ref.tmp, i32 0, i32 0
  store ptr %28, ptr %coerce.dive25, align 8
  %29 = load ptr, ptr %env, align 8
  %call27 = call noundef ptr @_ZNK4node11Environment7isolateEv(ptr noundef nonnull align 8 dereferenceable(2872) %29)
  %arraydecay = getelementptr inbounds [2 x %"class.v8::Local"], ptr %ret, i64 0, i64 0
  %call28 = call noundef i64 @_ZN4node9arraysizeIN2v85LocalINS1_5ValueEEELm2EEEmRAT0__KT_(ptr noundef nonnull align 8 dereferenceable(16) %ret)
  %call29 = call ptr @_ZN2v85Array3NewEPNS_7IsolateEPNS_5LocalINS_5ValueEEEm(ptr noundef %call27, ptr noundef %arraydecay, i64 noundef %call28)
  %coerce.dive30 = getelementptr inbounds %"class.v8::Local.340", ptr %agg.tmp26, i32 0, i32 0
  %coerce.dive31 = getelementptr inbounds %"class.v8::LocalBase.341", ptr %coerce.dive30, i32 0, i32 0
  %coerce.dive32 = getelementptr inbounds %"class.v8::IndirectHandleBase", ptr %coerce.dive31, i32 0, i32 0
  store ptr %call29, ptr %coerce.dive32, align 8
  %coerce.dive33 = getelementptr inbounds %"class.v8::Local.340", ptr %agg.tmp26, i32 0, i32 0
  %coerce.dive34 = getelementptr inbounds %"class.v8::LocalBase.341", ptr %coerce.dive33, i32 0, i32 0
  %coerce.dive35 = getelementptr inbounds %"class.v8::IndirectHandleBase", ptr %coerce.dive34, i32 0, i32 0
  %30 = load ptr, ptr %coerce.dive35, align 8
  store ptr %30, ptr %handle.i, align 8
  store ptr %ref.tmp, ptr %this.addr.i51, align 8
  %this3.i52 = load ptr, ptr %this.addr.i51, align 8
  store ptr %handle.i, ptr %this.addr.i.i50, align 8
  %this1.i.i53 = load ptr, ptr %this.addr.i.i50, align 8
  %31 = load ptr, ptr %this1.i.i53, align 8
  %cmp.i.i = icmp eq ptr %31, null
  br i1 %cmp.i.i, label %if.then.i55, label %if.else.i

if.then.i55:                                      ; preds = %if.then23
  store ptr %this3.i52, ptr %this.addr.i73, align 8
  %this1.i74 = load ptr, ptr %this.addr.i73, align 8
  store ptr %this1.i74, ptr %this.addr.i77, align 8
  %this1.i78 = load ptr, ptr %this.addr.i77, align 8
  %32 = load ptr, ptr %this1.i78, align 8
  %arrayidx.i79 = getelementptr inbounds i64, ptr %32, i64 -2
  %33 = load ptr, ptr %arrayidx.i79, align 8
  store ptr %33, ptr %isolate.addr.i, align 8
  store i32 5, ptr %index.addr.i, align 4
  %34 = load ptr, ptr %isolate.addr.i, align 8
  %35 = load i32, ptr %index.addr.i, align 4
  store ptr %34, ptr %isolate.addr.i.i, align 8
  store i32 %35, ptr %index.addr.i.i, align 4
  %36 = load ptr, ptr %isolate.addr.i.i, align 8
  %37 = ptrtoint ptr %36 to i64
  %add.i.i = add i64 %37, 576
  %38 = load i32, ptr %index.addr.i.i, align 4
  %mul.i.i = mul nsw i32 %38, 8
  %conv.i.i = sext i32 %mul.i.i to i64
  %add1.i.i = add i64 %add.i.i, %conv.i.i
  store i64 %add1.i.i, ptr %addr.i.i, align 8
  %39 = load i64, ptr %addr.i.i, align 8
  %40 = inttoptr i64 %39 to ptr
  %41 = load i64, ptr %40, align 8
  %42 = load ptr, ptr %this3.i52, align 8
  store i64 %41, ptr %42, align 8
  br label %_ZN2v811ReturnValueINS_5ValueEE3SetINS_5ArrayEEEvNS_5LocalIT_EE.exit

if.else.i:                                        ; preds = %if.then23
  store ptr %handle.i, ptr %this.addr.i75, align 8
  %this1.i76 = load ptr, ptr %this.addr.i75, align 8
  %43 = load ptr, ptr %this1.i76, align 8
  %44 = load i64, ptr %43, align 8
  %45 = load ptr, ptr %this3.i52, align 8
  store i64 %44, ptr %45, align 8
  br label %_ZN2v811ReturnValueINS_5ValueEE3SetINS_5ArrayEEEvNS_5LocalIT_EE.exit

_ZN2v811ReturnValueINS_5ValueEE3SetINS_5ArrayEEEvNS_5LocalIT_EE.exit: ; preds = %if.else.i, %if.then.i55
  br label %if.end36

if.end36:                                         ; preds = %_ZN2v811ReturnValueINS_5ValueEE3SetINS_5ArrayEEEvNS_5LocalIT_EE.exit, %_ZNKR2v85MaybeIbE8FromJustEv.exit, %arrayctor.cont, %if.then14, %if.then
  ret void
}

declare void @_ZN4node22SetConstructorFunctionEN2v85LocalINS0_7ContextEEENS1_INS0_6ObjectEEEPKcNS1_INS0_16FunctionTemplateEEENS_26SetConstructorFunctionFlagE(ptr, ptr, ptr noundef, ptr, i32 noundef) #1

; Function Attrs: nounwind
declare void @_ZN2v811HandleScopeD1Ev(ptr noundef nonnull align 8 dereferenceable(24)) unnamed_addr #2

; Function Attrs: mustprogress nounwind uwtable
define linkonce_odr dso_local noundef ptr @_ZNK4node11Environment15principal_realmEv(ptr noundef nonnull align 8 dereferenceable(2872) %this) #4 comdat align 2 {
entry:
  %this.addr = alloca ptr, align 8
  store ptr %this, ptr %this.addr, align 8
  %this1 = load ptr, ptr %this.addr, align 8
  %principal_realm_ = getelementptr inbounds %"class.node::Environment", ptr %this1, i32 0, i32 89
  %call = call noundef ptr @_ZNKSt10unique_ptrIN4node14PrincipalRealmESt14default_deleteIS1_EE3getEv(ptr noundef nonnull align 8 dereferenceable(8) %principal_realm_) #3
  ret ptr %call
}

; Function Attrs: mustprogress nounwind uwtable
define linkonce_odr dso_local noundef ptr @_ZNKSt10unique_ptrIN4node14PrincipalRealmESt14default_deleteIS1_EE3getEv(ptr noundef nonnull align 8 dereferenceable(8) %this) #4 comdat align 2 {
entry:
  %this.addr = alloca ptr, align 8
  store ptr %this, ptr %this.addr, align 8
  %this1 = load ptr, ptr %this.addr, align 8
  %_M_t = getelementptr inbounds %"class.std::unique_ptr.278", ptr %this1, i32 0, i32 0
  %call = call noundef ptr @_ZNKSt15__uniq_ptr_implIN4node14PrincipalRealmESt14default_deleteIS1_EE6_M_ptrEv(ptr noundef nonnull align 8 dereferenceable(8) %_M_t) #3
  ret ptr %call
}

; Function Attrs: mustprogress nounwind uwtable
define linkonce_odr dso_local noundef ptr @_ZNKSt15__uniq_ptr_implIN4node14PrincipalRealmESt14default_deleteIS1_EE6_M_ptrEv(ptr noundef nonnull align 8 dereferenceable(8) %this) #4 comdat align 2 {
entry:
  %this.addr = alloca ptr, align 8
  store ptr %this, ptr %this.addr, align 8
  %this1 = load ptr, ptr %this.addr, align 8
  %_M_t = getelementptr inbounds %"class.std::__uniq_ptr_impl.280", ptr %this1, i32 0, i32 0
  %call = call noundef nonnull align 8 dereferenceable(8) ptr @_ZSt3getILm0EJPN4node14PrincipalRealmESt14default_deleteIS1_EEERKNSt13tuple_elementIXT_ESt5tupleIJDpT0_EEE4typeERKS9_(ptr noundef nonnull align 8 dereferenceable(8) %_M_t) #3
  %0 = load ptr, ptr %call, align 8
  ret ptr %0
}

; Function Attrs: mustprogress nounwind uwtable
define linkonce_odr dso_local noundef nonnull align 8 dereferenceable(8) ptr @_ZSt3getILm0EJPN4node14PrincipalRealmESt14default_deleteIS1_EEERKNSt13tuple_elementIXT_ESt5tupleIJDpT0_EEE4typeERKS9_(ptr noundef nonnull align 8 dereferenceable(8) %__t) #4 comdat {
entry:
  %__t.addr = alloca ptr, align 8
  store ptr %__t, ptr %__t.addr, align 8
  %0 = load ptr, ptr %__t.addr, align 8
  %call = call noundef nonnull align 8 dereferenceable(8) ptr @_ZSt12__get_helperILm0EPN4node14PrincipalRealmEJSt14default_deleteIS1_EEERKT0_RKSt11_Tuple_implIXT_EJS5_DpT1_EE(ptr noundef nonnull align 8 dereferenceable(8) %0) #3
  ret ptr %call
}

; Function Attrs: mustprogress nounwind uwtable
define linkonce_odr dso_local noundef nonnull align 8 dereferenceable(8) ptr @_ZSt12__get_helperILm0EPN4node14PrincipalRealmEJSt14default_deleteIS1_EEERKT0_RKSt11_Tuple_implIXT_EJS5_DpT1_EE(ptr noundef nonnull align 8 dereferenceable(8) %__t) #4 comdat {
entry:
  %__t.addr = alloca ptr, align 8
  store ptr %__t, ptr %__t.addr, align 8
  %0 = load ptr, ptr %__t.addr, align 8
  %call = call noundef nonnull align 8 dereferenceable(8) ptr @_ZNSt11_Tuple_implILm0EJPN4node14PrincipalRealmESt14default_deleteIS1_EEE7_M_headERKS5_(ptr noundef nonnull align 8 dereferenceable(8) %0) #3
  ret ptr %call
}

; Function Attrs: mustprogress nounwind uwtable
define linkonce_odr dso_local noundef nonnull align 8 dereferenceable(8) ptr @_ZNSt11_Tuple_implILm0EJPN4node14PrincipalRealmESt14default_deleteIS1_EEE7_M_headERKS5_(ptr noundef nonnull align 8 dereferenceable(8) %__t) #4 comdat align 2 {
entry:
  %__t.addr = alloca ptr, align 8
  store ptr %__t, ptr %__t.addr, align 8
  %0 = load ptr, ptr %__t.addr, align 8
  %call = call noundef nonnull align 8 dereferenceable(8) ptr @_ZNSt10_Head_baseILm0EPN4node14PrincipalRealmELb0EE7_M_headERKS3_(ptr noundef nonnull align 8 dereferenceable(8) %0) #3
  ret ptr %call
}

; Function Attrs: mustprogress nounwind uwtable
define linkonce_odr dso_local noundef nonnull align 8 dereferenceable(8) ptr @_ZNSt10_Head_baseILm0EPN4node14PrincipalRealmELb0EE7_M_headERKS3_(ptr noundef nonnull align 8 dereferenceable(8) %__b) #4 comdat align 2 {
entry:
  %__b.addr = alloca ptr, align 8
  store ptr %__b, ptr %__b.addr, align 8
  %0 = load ptr, ptr %__b.addr, align 8
  %_M_head_impl = getelementptr inbounds %"struct.std::_Head_base.285", ptr %0, i32 0, i32 0
  ret ptr %_M_head_impl
}

declare ptr @_ZN4node9AsyncWrap22GetConstructorTemplateEPNS_11IsolateDataE(ptr noundef) #1

; Function Attrs: mustprogress nounwind uwtable
define linkonce_odr dso_local noundef ptr @_ZNK4node11Environment12isolate_dataEv(ptr noundef nonnull align 8 dereferenceable(2872) %this) #4 comdat align 2 {
entry:
  %this.addr = alloca ptr, align 8
  store ptr %this, ptr %this.addr, align 8
  %this1 = load ptr, ptr %this.addr, align 8
  %isolate_data_ = getelementptr inbounds %"class.node::Environment", ptr %this1, i32 0, i32 4
  %0 = load ptr, ptr %isolate_data_, align 8
  ret ptr %0
}

; Function Attrs: mustprogress nounwind uwtable
define linkonce_odr dso_local noundef i64 @_ZNSt11char_traitsIcE6lengthEPKc(ptr noundef %__s) #4 comdat align 2 {
entry:
  %__s.addr = alloca ptr, align 8
  store ptr %__s, ptr %__s.addr, align 8
  %0 = load ptr, ptr %__s.addr, align 8
  %call = call i64 @strlen(ptr noundef %0) #3
  ret i64 %call
}

; Function Attrs: nounwind
declare i64 @strlen(ptr noundef) #2

; Function Attrs: mustprogress nounwind uwtable
define linkonce_odr dso_local noundef ptr @_ZN4node11Environment10GetCurrentERKN2v820FunctionCallbackInfoINS1_5ValueEEE(ptr noundef nonnull align 8 dereferenceable(20) %info) #4 comdat align 2 {
entry:
  %this.addr.i = alloca ptr, align 8
  %info.addr = alloca ptr, align 8
  %agg.tmp = alloca %"class.v8::Local.314", align 8
  store ptr %info, ptr %info.addr, align 8
  %0 = load ptr, ptr %info.addr, align 8
  store ptr %0, ptr %this.addr.i, align 8
  %this1.i = load ptr, ptr %this.addr.i, align 8
  %1 = load ptr, ptr %this1.i, align 8
  %arrayidx.i = getelementptr inbounds i64, ptr %1, i64 1
  %2 = load ptr, ptr %arrayidx.i, align 8
  %call1 = call ptr @_ZN2v87Isolate17GetCurrentContextEv(ptr noundef nonnull align 1 dereferenceable(1) %2)
  %coerce.dive = getelementptr inbounds %"class.v8::Local.314", ptr %agg.tmp, i32 0, i32 0
  %coerce.dive2 = getelementptr inbounds %"class.v8::LocalBase.315", ptr %coerce.dive, i32 0, i32 0
  %coerce.dive3 = getelementptr inbounds %"class.v8::IndirectHandleBase", ptr %coerce.dive2, i32 0, i32 0
  store ptr %call1, ptr %coerce.dive3, align 8
  %coerce.dive4 = getelementptr inbounds %"class.v8::Local.314", ptr %agg.tmp, i32 0, i32 0
  %coerce.dive5 = getelementptr inbounds %"class.v8::LocalBase.315", ptr %coerce.dive4, i32 0, i32 0
  %coerce.dive6 = getelementptr inbounds %"class.v8::IndirectHandleBase", ptr %coerce.dive5, i32 0, i32 0
  %3 = load ptr, ptr %coerce.dive6, align 8
  %call7 = call noundef ptr @_ZN4node11Environment10GetCurrentEN2v85LocalINS1_7ContextEEE(ptr %3)
  ret ptr %call7
}

; Function Attrs: mustprogress nounwind uwtable
define linkonce_odr dso_local noundef ptr @_ZN4node10BaseObject12FromJSObjectEN2v85LocalINS1_5ValueEEE(ptr %value.coerce) #4 comdat align 2 {
entry:
  %heap_object_ptr.addr.i = alloca i64, align 8
  %offset.addr.i = alloca i32, align 4
  %addr.i = alloca i64, align 8
  %instance_type.addr.i = alloca i32, align 4
  %heap_object_ptr.addr.i2.i = alloca i64, align 8
  %offset.addr.i3.i = alloca i32, align 4
  %addr.i.i24 = alloca i64, align 8
  %heap_object_ptr.addr.i.i25 = alloca i64, align 8
  %offset.addr.i.i26 = alloca i32, align 4
  %obj.addr.i = alloca i64, align 8
  %map.i = alloca i64, align 8
  %value.addr.i = alloca ptr, align 8
  %slot.addr.i = alloca ptr, align 8
  %this.addr.i.i = alloca ptr, align 8
  %this.addr.i21 = alloca ptr, align 8
  %this.addr.i18 = alloca ptr, align 8
  %other.addr.i19 = alloca ptr, align 8
  %this.addr.i16 = alloca ptr, align 8
  %other.addr.i = alloca ptr, align 8
  %retval.i15 = alloca %"class.v8::Local.23", align 8
  %that.i = alloca %"class.v8::Local", align 8
  %ref.tmp.i = alloca %"class.v8::LocalBase.24", align 8
  %heap_object_ptr.addr.i8.i = alloca i64, align 8
  %offset.addr.i9.i = alloca i32, align 4
  %addr.i.i = alloca i64, align 8
  %isolate.addr.i.i = alloca ptr, align 8
  %heap_object_ptr.addr.i.i = alloca i64, align 8
  %offset.addr.i.i = alloca i32, align 4
  %obj.addr.i.i = alloca i64, align 8
  %retval.i11 = alloca ptr, align 8
  %this.addr.i12 = alloca ptr, align 8
  %index.addr.i = alloca i32, align 4
  %obj.i = alloca i64, align 8
  %instance_type.i = alloca i32, align 4
  %offset.i = alloca i32, align 4
  %isolate.i = alloca ptr, align 8
  %value.i = alloca i64, align 8
  %this.addr.i8 = alloca ptr, align 8
  %retval.i = alloca %"class.v8::Local.23", align 8
  %this.addr.i = alloca ptr, align 8
  %agg.tmp.i = alloca %"class.v8::Local", align 8
  %value = alloca %"class.v8::Local", align 8
  %obj = alloca %"class.v8::Local.23", align 8
  %coerce.dive = getelementptr inbounds %"class.v8::Local", ptr %value, i32 0, i32 0
  %coerce.dive1 = getelementptr inbounds %"class.v8::LocalBase", ptr %coerce.dive, i32 0, i32 0
  %coerce.dive2 = getelementptr inbounds %"class.v8::IndirectHandleBase", ptr %coerce.dive1, i32 0, i32 0
  store ptr %value.coerce, ptr %coerce.dive2, align 8
  store ptr %value, ptr %this.addr.i, align 8
  %this1.i = load ptr, ptr %this.addr.i, align 8
  call void @llvm.memcpy.p0.p0.i64(ptr align 8 %agg.tmp.i, ptr align 8 %this1.i, i64 8, i1 false)
  %0 = load ptr, ptr %agg.tmp.i, align 8
  store ptr %0, ptr %that.i, align 8
  store ptr %ref.tmp.i, ptr %this.addr.i16, align 8
  store ptr %that.i, ptr %other.addr.i, align 8
  %this1.i17 = load ptr, ptr %this.addr.i16, align 8
  %1 = load ptr, ptr %other.addr.i, align 8
  call void @llvm.memcpy.p0.p0.i64(ptr align 8 %this1.i17, ptr align 8 %1, i64 8, i1 false)
  store ptr %retval.i15, ptr %this.addr.i18, align 8
  store ptr %ref.tmp.i, ptr %other.addr.i19, align 8
  %this1.i20 = load ptr, ptr %this.addr.i18, align 8
  %2 = load ptr, ptr %other.addr.i19, align 8
  call void @llvm.memcpy.p0.p0.i64(ptr align 8 %this1.i20, ptr align 8 %2, i64 8, i1 false)
  %3 = load ptr, ptr %retval.i15, align 8
  store ptr %3, ptr %retval.i, align 8
  %4 = load ptr, ptr %retval.i, align 8
  %coerce.dive3 = getelementptr inbounds %"class.v8::Local.23", ptr %obj, i32 0, i32 0
  %coerce.dive4 = getelementptr inbounds %"class.v8::LocalBase.24", ptr %coerce.dive3, i32 0, i32 0
  %coerce.dive5 = getelementptr inbounds %"class.v8::IndirectHandleBase", ptr %coerce.dive4, i32 0, i32 0
  store ptr %4, ptr %coerce.dive5, align 8
  store ptr %obj, ptr %this.addr.i8, align 8
  %this1.i9 = load ptr, ptr %this.addr.i8, align 8
  store ptr %this1.i9, ptr %this.addr.i21, align 8
  %this1.i22 = load ptr, ptr %this.addr.i21, align 8
  store ptr %this1.i22, ptr %this.addr.i.i, align 8
  %this1.i.i = load ptr, ptr %this.addr.i.i, align 8
  %5 = load ptr, ptr %this1.i.i, align 8
  store ptr %5, ptr %slot.addr.i, align 8
  %6 = load ptr, ptr %slot.addr.i, align 8
  store ptr %6, ptr %this.addr.i12, align 8
  store i32 1, ptr %index.addr.i, align 4
  %this1.i13 = load ptr, ptr %this.addr.i12, align 8
  store ptr %this1.i13, ptr %value.addr.i, align 8
  %7 = load ptr, ptr %value.addr.i, align 8
  %8 = load i64, ptr %7, align 8
  store i64 %8, ptr %obj.i, align 8
  %9 = load i64, ptr %obj.i, align 8
  store i64 %9, ptr %obj.addr.i, align 8
  %10 = load i64, ptr %obj.addr.i, align 8
  store i64 %10, ptr %heap_object_ptr.addr.i.i25, align 8
  store i32 0, ptr %offset.addr.i.i26, align 4
  %11 = load i64, ptr %heap_object_ptr.addr.i.i25, align 8
  %12 = load i32, ptr %offset.addr.i.i26, align 4
  store i64 %11, ptr %heap_object_ptr.addr.i2.i, align 8
  store i32 %12, ptr %offset.addr.i3.i, align 4
  %13 = load i64, ptr %heap_object_ptr.addr.i2.i, align 8
  %14 = load i32, ptr %offset.addr.i3.i, align 4
  %conv.i.i27 = sext i32 %14 to i64
  %add.i.i28 = add i64 %13, %conv.i.i27
  %sub.i.i29 = sub i64 %add.i.i28, 1
  store i64 %sub.i.i29, ptr %addr.i.i24, align 8
  %15 = load i64, ptr %addr.i.i24, align 8
  %16 = inttoptr i64 %15 to ptr
  %17 = load i64, ptr %16, align 8
  store i64 %17, ptr %map.i, align 8
  %18 = load i64, ptr %map.i, align 8
  store i64 %18, ptr %heap_object_ptr.addr.i, align 8
  store i32 12, ptr %offset.addr.i, align 4
  %19 = load i64, ptr %heap_object_ptr.addr.i, align 8
  %20 = load i32, ptr %offset.addr.i, align 4
  %conv.i30 = sext i32 %20 to i64
  %add.i31 = add i64 %19, %conv.i30
  %sub.i32 = sub i64 %add.i31, 1
  store i64 %sub.i32, ptr %addr.i, align 8
  %21 = load i64, ptr %addr.i, align 8
  %22 = inttoptr i64 %21 to ptr
  %23 = load i16, ptr %22, align 2
  %conv.i = zext i16 %23 to i32
  store i32 %conv.i, ptr %instance_type.i, align 4
  %24 = load i32, ptr %instance_type.i, align 4
  store i32 %24, ptr %instance_type.addr.i, align 4
  %25 = load i32, ptr %instance_type.addr.i, align 4
  %cmp.i = icmp eq i32 %25, 1040
  br i1 %cmp.i, label %_ZN2v88internal9Internals20CanHaveInternalFieldEi.exit, label %lor.rhs.i

lor.rhs.i:                                        ; preds = %entry
  %26 = load i32, ptr %instance_type.addr.i, align 4
  %sub.i = sub i32 %26, 1057
  %cmp1.i = icmp ule i32 %sub.i, 1001
  br label %_ZN2v88internal9Internals20CanHaveInternalFieldEi.exit

_ZN2v88internal9Internals20CanHaveInternalFieldEi.exit: ; preds = %lor.rhs.i, %entry
  %27 = phi i1 [ true, %entry ], [ %cmp1.i, %lor.rhs.i ]
  br i1 %27, label %if.then.i, label %if.end.i

if.then.i:                                        ; preds = %_ZN2v88internal9Internals20CanHaveInternalFieldEi.exit
  %28 = load i32, ptr %index.addr.i, align 4
  %mul.i = mul nsw i32 8, %28
  %add.i = add nsw i32 24, %mul.i
  store i32 %add.i, ptr %offset.i, align 4
  %29 = load i64, ptr %obj.i, align 8
  store i64 %29, ptr %obj.addr.i.i, align 8
  store ptr null, ptr %isolate.i, align 8
  %30 = load ptr, ptr %isolate.i, align 8
  %31 = load i64, ptr %obj.i, align 8
  %32 = load i32, ptr %offset.i, align 4
  store ptr %30, ptr %isolate.addr.i.i, align 8
  store i64 %31, ptr %heap_object_ptr.addr.i.i, align 8
  store i32 %32, ptr %offset.addr.i.i, align 4
  %33 = load i64, ptr %heap_object_ptr.addr.i.i, align 8
  %34 = load i32, ptr %offset.addr.i.i, align 4
  store i64 %33, ptr %heap_object_ptr.addr.i8.i, align 8
  store i32 %34, ptr %offset.addr.i9.i, align 4
  %35 = load i64, ptr %heap_object_ptr.addr.i8.i, align 8
  %36 = load i32, ptr %offset.addr.i9.i, align 4
  %conv.i.i = sext i32 %36 to i64
  %add.i.i = add i64 %35, %conv.i.i
  %sub.i.i = sub i64 %add.i.i, 1
  store i64 %sub.i.i, ptr %addr.i.i, align 8
  %37 = load i64, ptr %addr.i.i, align 8
  %38 = inttoptr i64 %37 to ptr
  %39 = load i64, ptr %38, align 8
  store i64 %39, ptr %value.i, align 8
  %40 = load i64, ptr %value.i, align 8
  %41 = inttoptr i64 %40 to ptr
  store ptr %41, ptr %retval.i11, align 8
  br label %_ZN2v86Object34GetAlignedPointerFromInternalFieldEi.exit

if.end.i:                                         ; preds = %_ZN2v88internal9Internals20CanHaveInternalFieldEi.exit
  %42 = load i32, ptr %index.addr.i, align 4
  %call7.i = call noundef ptr @_ZN2v86Object38SlowGetAlignedPointerFromInternalFieldEi(ptr noundef nonnull align 1 dereferenceable(1) %this1.i13, i32 noundef %42) #3
  store ptr %call7.i, ptr %retval.i11, align 8
  br label %_ZN2v86Object34GetAlignedPointerFromInternalFieldEi.exit

_ZN2v86Object34GetAlignedPointerFromInternalFieldEi.exit: ; preds = %if.end.i, %if.then.i
  %43 = load ptr, ptr %retval.i11, align 8
  ret ptr %43
}

; Function Attrs: mustprogress nounwind uwtable
define linkonce_odr dso_local noundef i32 @_ZNK4node6crypto9CryptoJobINS0_16KeyPairGenTraitsINS0_19NidKeyPairGenTraitsEEEE4modeEv(ptr noundef nonnull align 8 dereferenceable(376) %this) #4 comdat align 2 {
entry:
  %this.addr = alloca ptr, align 8
  store ptr %this, ptr %this.addr, align 8
  %this1 = load ptr, ptr %this.addr, align 8
  %mode_ = getelementptr inbounds %"class.node::crypto::CryptoJob", ptr %this1, i32 0, i32 2
  %0 = load i32, ptr %mode_, align 8
  ret i32 %0
}

; Function Attrs: mustprogress nounwind uwtable
define linkonce_odr dso_local void @_ZN4node14ThreadPoolWork12ScheduleWorkEv(ptr noundef nonnull align 8 dereferenceable(152) %this) #4 comdat align 2 {
entry:
  %this.addr.i24 = alloca ptr, align 8
  %__i.addr.i = alloca i64, align 8
  %__m.addr.i25 = alloca i32, align 4
  %__b.i26 = alloca i32, align 4
  %.atomictmp.i = alloca i64, align 8
  %this.addr.i = alloca ptr, align 8
  %__m.addr.i = alloca i32, align 4
  %__b.i = alloca i32, align 4
  %atomic-temp.i = alloca i64, align 8
  %this.addr = alloca ptr, align 8
  %trace_event_unique_category_group_enabled36 = alloca ptr, align 8
  %trace_event_flags = alloca i32, align 4
  %trace_event_trace_id = alloca %"class.node::tracing::TraceID", align 8
  %status = alloca i32, align 4
  %ref.tmp = alloca %class.anon, align 1
  %ref.tmp12 = alloca %class.anon.344, align 1
  store ptr %this, ptr %this.addr, align 8
  %this1 = load ptr, ptr %this.addr, align 8
  %env_ = getelementptr inbounds %"class.node::ThreadPoolWork", ptr %this1, i32 0, i32 1
  %0 = load ptr, ptr %env_, align 8
  call void @_ZN4node11Environment29IncreaseWaitingRequestCounterEv(ptr noundef nonnull align 8 dereferenceable(2872) %0)
  br label %do.body

do.body:                                          ; preds = %entry
  store ptr @_ZZN4node14ThreadPoolWork12ScheduleWorkEvE27trace_event_unique_atomic36, ptr %this.addr.i, align 8
  store i32 5, ptr %__m.addr.i, align 4
  %this1.i = load ptr, ptr %this.addr.i, align 8
  %1 = load i32, ptr %__m.addr.i, align 4
  %call.i = call noundef i32 @_ZStanSt12memory_orderSt23__memory_order_modifier(i32 noundef %1, i32 noundef 65535)
  store i32 %call.i, ptr %__b.i, align 4
  %2 = load i32, ptr %__m.addr.i, align 4
  switch i32 %2, label %monotonic.i [
    i32 1, label %acquire.i
    i32 2, label %acquire.i
    i32 5, label %seqcst.i
  ]

monotonic.i:                                      ; preds = %do.body
  %3 = load atomic i64, ptr %this1.i monotonic, align 8
  store i64 %3, ptr %atomic-temp.i, align 8
  br label %_ZNKSt13__atomic_baseIlE4loadESt12memory_order.exit

acquire.i:                                        ; preds = %do.body, %do.body
  %4 = load atomic i64, ptr %this1.i acquire, align 8
  store i64 %4, ptr %atomic-temp.i, align 8
  br label %_ZNKSt13__atomic_baseIlE4loadESt12memory_order.exit

seqcst.i:                                         ; preds = %do.body
  %5 = load atomic i64, ptr %this1.i seq_cst, align 8
  store i64 %5, ptr %atomic-temp.i, align 8
  br label %_ZNKSt13__atomic_baseIlE4loadESt12memory_order.exit

_ZNKSt13__atomic_baseIlE4loadESt12memory_order.exit: ; preds = %seqcst.i, %acquire.i, %monotonic.i
  %6 = load i64, ptr %atomic-temp.i, align 8
  %7 = inttoptr i64 %6 to ptr
  store ptr %7, ptr %trace_event_unique_category_group_enabled36, align 8
  %8 = load ptr, ptr %trace_event_unique_category_group_enabled36, align 8
  %tobool = icmp ne ptr %8, null
  br i1 %tobool, label %if.end, label %if.then

if.then:                                          ; preds = %_ZNKSt13__atomic_baseIlE4loadESt12memory_order.exit
  %call2 = call noundef ptr @_ZN4node7tracing16TraceEventHelper23GetCategoryGroupEnabledEPKc(ptr noundef @.str.22)
  store ptr %call2, ptr %trace_event_unique_category_group_enabled36, align 8
  %9 = load ptr, ptr %trace_event_unique_category_group_enabled36, align 8
  %10 = ptrtoint ptr %9 to i64
  store ptr @_ZZN4node14ThreadPoolWork12ScheduleWorkEvE27trace_event_unique_atomic36, ptr %this.addr.i24, align 8
  store i64 %10, ptr %__i.addr.i, align 8
  store i32 5, ptr %__m.addr.i25, align 4
  %this1.i27 = load ptr, ptr %this.addr.i24, align 8
  %11 = load i32, ptr %__m.addr.i25, align 4
  %call.i28 = call noundef i32 @_ZStanSt12memory_orderSt23__memory_order_modifier(i32 noundef %11, i32 noundef 65535)
  store i32 %call.i28, ptr %__b.i26, align 4
  %12 = load i32, ptr %__m.addr.i25, align 4
  %13 = load i64, ptr %__i.addr.i, align 8
  store i64 %13, ptr %.atomictmp.i, align 8
  switch i32 %12, label %monotonic.i30 [
    i32 3, label %release.i
    i32 5, label %seqcst.i29
  ]

monotonic.i30:                                    ; preds = %if.then
  %14 = load i64, ptr %.atomictmp.i, align 8
  store atomic i64 %14, ptr %this1.i27 monotonic, align 8
  br label %_ZNSt13__atomic_baseIlE5storeElSt12memory_order.exit

release.i:                                        ; preds = %if.then
  %15 = load i64, ptr %.atomictmp.i, align 8
  store atomic i64 %15, ptr %this1.i27 release, align 8
  br label %_ZNSt13__atomic_baseIlE5storeElSt12memory_order.exit

seqcst.i29:                                       ; preds = %if.then
  %16 = load i64, ptr %.atomictmp.i, align 8
  store atomic i64 %16, ptr %this1.i27 seq_cst, align 8
  br label %_ZNSt13__atomic_baseIlE5storeElSt12memory_order.exit

_ZNSt13__atomic_baseIlE5storeElSt12memory_order.exit: ; preds = %seqcst.i29, %release.i, %monotonic.i30
  br label %if.end

if.end:                                           ; preds = %_ZNSt13__atomic_baseIlE5storeElSt12memory_order.exit, %_ZNKSt13__atomic_baseIlE4loadESt12memory_order.exit
  %17 = load ptr, ptr %trace_event_unique_category_group_enabled36, align 8
  %18 = load i8, ptr %17, align 1
  %conv = zext i8 %18 to i32
  %and = and i32 %conv, 5
  %tobool3 = icmp ne i32 %and, 0
  br i1 %tobool3, label %if.then4, label %if.end8

if.then4:                                         ; preds = %if.end
  store i32 2, ptr %trace_event_flags, align 4
  call void @_ZN4node7tracing7TraceIDC2EPKvPj(ptr noundef nonnull align 8 dereferenceable(16) %trace_event_trace_id, ptr noundef %this1, ptr noundef %trace_event_flags)
  %19 = load ptr, ptr %trace_event_unique_category_group_enabled36, align 8
  %type_ = getelementptr inbounds %"class.node::ThreadPoolWork", ptr %this1, i32 0, i32 3
  %20 = load ptr, ptr %type_, align 8
  %call5 = call noundef ptr @_ZNK4node7tracing7TraceID5scopeEv(ptr noundef nonnull align 8 dereferenceable(16) %trace_event_trace_id)
  %call6 = call noundef i64 @_ZNK4node7tracing7TraceID6raw_idEv(ptr noundef nonnull align 8 dereferenceable(16) %trace_event_trace_id)
  %21 = load i32, ptr %trace_event_flags, align 4
  %call7 = call noundef i64 @_ZN4node7tracingL13AddTraceEventEcPKhPKcS4_mmj(i8 noundef signext 98, ptr noundef %19, ptr noundef %20, ptr noundef %call5, i64 noundef %call6, i64 noundef 0, i32 noundef %21)
  br label %if.end8

if.end8:                                          ; preds = %if.then4, %if.end
  br label %do.end

do.end:                                           ; preds = %if.end8
  %env_9 = getelementptr inbounds %"class.node::ThreadPoolWork", ptr %this1, i32 0, i32 1
  %22 = load ptr, ptr %env_9, align 8
  %call10 = call noundef ptr @_ZNK4node11Environment10event_loopEv(ptr noundef nonnull align 8 dereferenceable(2872) %22)
  %work_req_ = getelementptr inbounds %"class.node::ThreadPoolWork", ptr %this1, i32 0, i32 2
  %call11 = call noundef ptr @_ZZN4node14ThreadPoolWork12ScheduleWorkEvENKUlP9uv_work_sE_cvPFvS2_EEv(ptr noundef nonnull align 1 dereferenceable(1) %ref.tmp) #3
  %call13 = call noundef ptr @_ZZN4node14ThreadPoolWork12ScheduleWorkEvENKUlP9uv_work_siE_cvPFvS2_iEEv(ptr noundef nonnull align 1 dereferenceable(1) %ref.tmp12) #3
  %call14 = call i32 @uv_queue_work(ptr noundef %call10, ptr noundef %work_req_, ptr noundef %call11, ptr noundef %call13)
  store i32 %call14, ptr %status, align 4
  br label %do.body15

do.body15:                                        ; preds = %do.end
  %23 = load i32, ptr %status, align 4
  %cmp = icmp eq i32 %23, 0
  %lnot = xor i1 %cmp, true
  %lnot16 = xor i1 %lnot, true
  %lnot17 = xor i1 %lnot16, true
  br i1 %lnot17, label %if.then19, label %if.end22

if.then19:                                        ; preds = %do.body15
  br label %do.body20

do.body20:                                        ; preds = %if.then19
  call void @_ZN4node6AssertERKNS_13AssertionInfoE(ptr noundef nonnull align 8 dereferenceable(24) @_ZZN4node14ThreadPoolWork12ScheduleWorkEvE4args)
  call void @abort() #14
  unreachable

do.end21:                                         ; No predecessors!
  br label %if.end22

if.end22:                                         ; preds = %do.end21, %do.body15
  br label %do.end23

do.end23:                                         ; preds = %if.end22
  ret void
}

declare void @_ZNK4node11Environment14PrintSyncTraceEv(ptr noundef nonnull align 8 dereferenceable(2872)) #1

declare ptr @_ZN2v85Array3NewEPNS_7IsolateEPNS_5LocalINS_5ValueEEEm(ptr noundef, ptr noundef, i64 noundef) #1

; Function Attrs: mustprogress nounwind uwtable
define linkonce_odr dso_local noundef i64 @_ZN4node9arraysizeIN2v85LocalINS1_5ValueEEELm2EEEmRAT0__KT_(ptr noundef nonnull align 8 dereferenceable(16) %0) #4 comdat {
entry:
  %.addr = alloca ptr, align 8
  store ptr %0, ptr %.addr, align 8
  ret i64 2
}

; Function Attrs: mustprogress nounwind uwtable
define linkonce_odr dso_local noundef ptr @_ZN4node11Environment10GetCurrentEN2v85LocalINS1_7ContextEEE(ptr %context.coerce) #4 comdat align 2 {
entry:
  %heap_object_ptr.addr.i22 = alloca i64, align 8
  %offset.addr.i23 = alloca i32, align 4
  %addr.i24 = alloca i64, align 8
  %heap_object_ptr.addr.i19 = alloca i64, align 8
  %offset.addr.i20 = alloca i32, align 4
  %addr.i = alloca i64, align 8
  %isolate.addr.i = alloca ptr, align 8
  %heap_object_ptr.addr.i16 = alloca i64, align 8
  %offset.addr.i17 = alloca i32, align 4
  %obj.addr.i = alloca i64, align 8
  %heap_object_ptr.addr.i = alloca i64, align 8
  %offset.addr.i = alloca i32, align 4
  %value.addr.i = alloca ptr, align 8
  %slot.addr.i = alloca ptr, align 8
  %this.addr.i.i = alloca ptr, align 8
  %this.addr.i13 = alloca ptr, align 8
  %this.addr.i10 = alloca ptr, align 8
  %index.addr.i = alloca i32, align 4
  %ctx.i = alloca i64, align 8
  %embedder_data.i = alloca i64, align 8
  %value_offset.i = alloca i32, align 4
  %isolate.i = alloca ptr, align 8
  %this.addr.i = alloca ptr, align 8
  %retval = alloca ptr, align 8
  %context = alloca %"class.v8::Local.314", align 8
  %agg.tmp = alloca %"class.v8::Local.314", align 8
  %coerce.dive = getelementptr inbounds %"class.v8::Local.314", ptr %context, i32 0, i32 0
  %coerce.dive1 = getelementptr inbounds %"class.v8::LocalBase.315", ptr %coerce.dive, i32 0, i32 0
  %coerce.dive2 = getelementptr inbounds %"class.v8::IndirectHandleBase", ptr %coerce.dive1, i32 0, i32 0
  store ptr %context.coerce, ptr %coerce.dive2, align 8
  call void @llvm.memcpy.p0.p0.i64(ptr align 8 %agg.tmp, ptr align 8 %context, i64 8, i1 false)
  %coerce.dive3 = getelementptr inbounds %"class.v8::Local.314", ptr %agg.tmp, i32 0, i32 0
  %coerce.dive4 = getelementptr inbounds %"class.v8::LocalBase.315", ptr %coerce.dive3, i32 0, i32 0
  %coerce.dive5 = getelementptr inbounds %"class.v8::IndirectHandleBase", ptr %coerce.dive4, i32 0, i32 0
  %0 = load ptr, ptr %coerce.dive5, align 8
  %call = call noundef zeroext i1 @_ZN4node18ContextEmbedderTag13IsNodeContextEN2v85LocalINS1_7ContextEEE(ptr %0)
  %lnot = xor i1 %call, true
  %lnot6 = xor i1 %lnot, true
  %lnot7 = xor i1 %lnot6, true
  br i1 %lnot7, label %if.then, label %if.end

if.then:                                          ; preds = %entry
  store ptr null, ptr %retval, align 8
  br label %return

if.end:                                           ; preds = %entry
  store ptr %context, ptr %this.addr.i, align 8
  %this1.i = load ptr, ptr %this.addr.i, align 8
  store ptr %this1.i, ptr %this.addr.i13, align 8
  %this1.i14 = load ptr, ptr %this.addr.i13, align 8
  store ptr %this1.i14, ptr %this.addr.i.i, align 8
  %this1.i.i = load ptr, ptr %this.addr.i.i, align 8
  %1 = load ptr, ptr %this1.i.i, align 8
  store ptr %1, ptr %slot.addr.i, align 8
  %2 = load ptr, ptr %slot.addr.i, align 8
  store ptr %2, ptr %this.addr.i10, align 8
  store i32 32, ptr %index.addr.i, align 4
  %this1.i11 = load ptr, ptr %this.addr.i10, align 8
  store ptr %this1.i11, ptr %value.addr.i, align 8
  %3 = load ptr, ptr %value.addr.i, align 8
  %4 = load i64, ptr %3, align 8
  store i64 %4, ptr %ctx.i, align 8
  %5 = load i64, ptr %ctx.i, align 8
  store i64 %5, ptr %heap_object_ptr.addr.i, align 8
  store i32 48, ptr %offset.addr.i, align 4
  %6 = load i64, ptr %heap_object_ptr.addr.i, align 8
  %7 = load i32, ptr %offset.addr.i, align 4
  store i64 %6, ptr %heap_object_ptr.addr.i22, align 8
  store i32 %7, ptr %offset.addr.i23, align 4
  %8 = load i64, ptr %heap_object_ptr.addr.i22, align 8
  %9 = load i32, ptr %offset.addr.i23, align 4
  %conv.i25 = sext i32 %9 to i64
  %add.i26 = add i64 %8, %conv.i25
  %sub.i27 = sub i64 %add.i26, 1
  store i64 %sub.i27, ptr %addr.i24, align 8
  %10 = load i64, ptr %addr.i24, align 8
  %11 = inttoptr i64 %10 to ptr
  %12 = load i64, ptr %11, align 8
  store i64 %12, ptr %embedder_data.i, align 8
  %13 = load i32, ptr %index.addr.i, align 4
  %mul.i = mul nsw i32 8, %13
  %add.i = add nsw i32 16, %mul.i
  store i32 %add.i, ptr %value_offset.i, align 4
  %14 = load i64, ptr %ctx.i, align 8
  store i64 %14, ptr %obj.addr.i, align 8
  store ptr null, ptr %isolate.i, align 8
  %15 = load ptr, ptr %isolate.i, align 8
  %16 = load i64, ptr %embedder_data.i, align 8
  %17 = load i32, ptr %value_offset.i, align 4
  store ptr %15, ptr %isolate.addr.i, align 8
  store i64 %16, ptr %heap_object_ptr.addr.i16, align 8
  store i32 %17, ptr %offset.addr.i17, align 4
  %18 = load i64, ptr %heap_object_ptr.addr.i16, align 8
  %19 = load i32, ptr %offset.addr.i17, align 4
  store i64 %18, ptr %heap_object_ptr.addr.i19, align 8
  store i32 %19, ptr %offset.addr.i20, align 4
  %20 = load i64, ptr %heap_object_ptr.addr.i19, align 8
  %21 = load i32, ptr %offset.addr.i20, align 4
  %conv.i = sext i32 %21 to i64
  %add.i21 = add i64 %20, %conv.i
  %sub.i = sub i64 %add.i21, 1
  store i64 %sub.i, ptr %addr.i, align 8
  %22 = load i64, ptr %addr.i, align 8
  %23 = inttoptr i64 %22 to ptr
  %24 = load i64, ptr %23, align 8
  %25 = inttoptr i64 %24 to ptr
  store ptr %25, ptr %retval, align 8
  br label %return

return:                                           ; preds = %if.end, %if.then
  %26 = load ptr, ptr %retval, align 8
  ret ptr %26
}

declare ptr @_ZN2v87Isolate17GetCurrentContextEv(ptr noundef nonnull align 1 dereferenceable(1)) #1

; Function Attrs: mustprogress nounwind uwtable
define linkonce_odr dso_local noundef zeroext i1 @_ZN4node18ContextEmbedderTag13IsNodeContextEN2v85LocalINS1_7ContextEEE(ptr %context.coerce) #4 comdat align 2 {
entry:
  %heap_object_ptr.addr.i40 = alloca i64, align 8
  %offset.addr.i41 = alloca i32, align 4
  %addr.i42 = alloca i64, align 8
  %heap_object_ptr.addr.i37 = alloca i64, align 8
  %offset.addr.i38 = alloca i32, align 4
  %addr.i = alloca i64, align 8
  %isolate.addr.i = alloca ptr, align 8
  %heap_object_ptr.addr.i34 = alloca i64, align 8
  %offset.addr.i35 = alloca i32, align 4
  %obj.addr.i = alloca i64, align 8
  %heap_object_ptr.addr.i = alloca i64, align 8
  %offset.addr.i = alloca i32, align 4
  %value.addr.i = alloca ptr, align 8
  %slot.addr.i33 = alloca ptr, align 8
  %slot.addr.i = alloca ptr, align 8
  %this.addr.i.i28 = alloca ptr, align 8
  %this.addr.i29 = alloca ptr, align 8
  %this.addr.i.i = alloca ptr, align 8
  %this.addr.i25 = alloca ptr, align 8
  %this.addr.i22 = alloca ptr, align 8
  %index.addr.i = alloca i32, align 4
  %ctx.i = alloca i64, align 8
  %embedder_data.i = alloca i64, align 8
  %value_offset.i = alloca i32, align 4
  %isolate.i = alloca ptr, align 8
  %this.addr.i19 = alloca ptr, align 8
  %this.addr.i17 = alloca ptr, align 8
  %this.addr.i = alloca ptr, align 8
  %retval = alloca i1, align 1
  %context = alloca %"class.v8::Local.314", align 8
  %coerce.dive = getelementptr inbounds %"class.v8::Local.314", ptr %context, i32 0, i32 0
  %coerce.dive1 = getelementptr inbounds %"class.v8::LocalBase.315", ptr %coerce.dive, i32 0, i32 0
  %coerce.dive2 = getelementptr inbounds %"class.v8::IndirectHandleBase", ptr %coerce.dive1, i32 0, i32 0
  store ptr %context.coerce, ptr %coerce.dive2, align 8
  store ptr %context, ptr %this.addr.i, align 8
  %this1.i = load ptr, ptr %this.addr.i, align 8
  %0 = load ptr, ptr %this1.i, align 8
  %cmp.i = icmp eq ptr %0, null
  %lnot = xor i1 %cmp.i, true
  %lnot3 = xor i1 %lnot, true
  br i1 %lnot3, label %if.then, label %if.end

if.then:                                          ; preds = %entry
  store i1 false, ptr %retval, align 1
  br label %return

if.end:                                           ; preds = %entry
  store ptr %context, ptr %this.addr.i19, align 8
  %this1.i20 = load ptr, ptr %this.addr.i19, align 8
  store ptr %this1.i20, ptr %this.addr.i25, align 8
  %this1.i26 = load ptr, ptr %this.addr.i25, align 8
  store ptr %this1.i26, ptr %this.addr.i.i, align 8
  %this1.i.i = load ptr, ptr %this.addr.i.i, align 8
  %1 = load ptr, ptr %this1.i.i, align 8
  store ptr %1, ptr %slot.addr.i33, align 8
  %2 = load ptr, ptr %slot.addr.i33, align 8
  %call5 = call noundef i32 @_ZN2v87Context29GetNumberOfEmbedderDataFieldsEv(ptr noundef nonnull align 1 dereferenceable(1) %2)
  %cmp = icmp ule i32 %call5, 39
  %lnot6 = xor i1 %cmp, true
  %lnot7 = xor i1 %lnot6, true
  br i1 %lnot7, label %if.then8, label %if.end9

if.then8:                                         ; preds = %if.end
  store i1 false, ptr %retval, align 1
  br label %return

if.end9:                                          ; preds = %if.end
  store ptr %context, ptr %this.addr.i17, align 8
  %this1.i18 = load ptr, ptr %this.addr.i17, align 8
  store ptr %this1.i18, ptr %this.addr.i29, align 8
  %this1.i30 = load ptr, ptr %this.addr.i29, align 8
  store ptr %this1.i30, ptr %this.addr.i.i28, align 8
  %this1.i.i31 = load ptr, ptr %this.addr.i.i28, align 8
  %3 = load ptr, ptr %this1.i.i31, align 8
  store ptr %3, ptr %slot.addr.i, align 8
  %4 = load ptr, ptr %slot.addr.i, align 8
  store ptr %4, ptr %this.addr.i22, align 8
  store i32 39, ptr %index.addr.i, align 4
  %this1.i23 = load ptr, ptr %this.addr.i22, align 8
  store ptr %this1.i23, ptr %value.addr.i, align 8
  %5 = load ptr, ptr %value.addr.i, align 8
  %6 = load i64, ptr %5, align 8
  store i64 %6, ptr %ctx.i, align 8
  %7 = load i64, ptr %ctx.i, align 8
  store i64 %7, ptr %heap_object_ptr.addr.i, align 8
  store i32 48, ptr %offset.addr.i, align 4
  %8 = load i64, ptr %heap_object_ptr.addr.i, align 8
  %9 = load i32, ptr %offset.addr.i, align 4
  store i64 %8, ptr %heap_object_ptr.addr.i40, align 8
  store i32 %9, ptr %offset.addr.i41, align 4
  %10 = load i64, ptr %heap_object_ptr.addr.i40, align 8
  %11 = load i32, ptr %offset.addr.i41, align 4
  %conv.i43 = sext i32 %11 to i64
  %add.i44 = add i64 %10, %conv.i43
  %sub.i45 = sub i64 %add.i44, 1
  store i64 %sub.i45, ptr %addr.i42, align 8
  %12 = load i64, ptr %addr.i42, align 8
  %13 = inttoptr i64 %12 to ptr
  %14 = load i64, ptr %13, align 8
  store i64 %14, ptr %embedder_data.i, align 8
  %15 = load i32, ptr %index.addr.i, align 4
  %mul.i = mul nsw i32 8, %15
  %add.i = add nsw i32 16, %mul.i
  store i32 %add.i, ptr %value_offset.i, align 4
  %16 = load i64, ptr %ctx.i, align 8
  store i64 %16, ptr %obj.addr.i, align 8
  store ptr null, ptr %isolate.i, align 8
  %17 = load ptr, ptr %isolate.i, align 8
  %18 = load i64, ptr %embedder_data.i, align 8
  %19 = load i32, ptr %value_offset.i, align 4
  store ptr %17, ptr %isolate.addr.i, align 8
  store i64 %18, ptr %heap_object_ptr.addr.i34, align 8
  store i32 %19, ptr %offset.addr.i35, align 4
  %20 = load i64, ptr %heap_object_ptr.addr.i34, align 8
  %21 = load i32, ptr %offset.addr.i35, align 4
  store i64 %20, ptr %heap_object_ptr.addr.i37, align 8
  store i32 %21, ptr %offset.addr.i38, align 4
  %22 = load i64, ptr %heap_object_ptr.addr.i37, align 8
  %23 = load i32, ptr %offset.addr.i38, align 4
  %conv.i = sext i32 %23 to i64
  %add.i39 = add i64 %22, %conv.i
  %sub.i = sub i64 %add.i39, 1
  store i64 %sub.i, ptr %addr.i, align 8
  %24 = load i64, ptr %addr.i, align 8
  %25 = inttoptr i64 %24 to ptr
  %26 = load i64, ptr %25, align 8
  %27 = inttoptr i64 %26 to ptr
  %28 = load ptr, ptr @_ZN4node18ContextEmbedderTag18kNodeContextTagPtrE, align 8
  %cmp12 = icmp ne ptr %27, %28
  %lnot13 = xor i1 %cmp12, true
  %lnot14 = xor i1 %lnot13, true
  br i1 %lnot14, label %if.then15, label %if.end16

if.then15:                                        ; preds = %if.end9
  store i1 false, ptr %retval, align 1
  br label %return

if.end16:                                         ; preds = %if.end9
  store i1 true, ptr %retval, align 1
  br label %return

return:                                           ; preds = %if.end16, %if.then15, %if.then8, %if.then
  %29 = load i1, ptr %retval, align 1
  ret i1 %29
}

declare noundef i32 @_ZN2v87Context29GetNumberOfEmbedderDataFieldsEv(ptr noundef nonnull align 1 dereferenceable(1)) #1

declare noundef ptr @_ZN2v86Object38SlowGetAlignedPointerFromInternalFieldEi(ptr noundef nonnull align 1 dereferenceable(1), i32 noundef) #1

; Function Attrs: mustprogress nounwind uwtable
define linkonce_odr dso_local void @_ZN4node11Environment29IncreaseWaitingRequestCounterEv(ptr noundef nonnull align 8 dereferenceable(2872) %this) #4 comdat align 2 {
entry:
  %this.addr = alloca ptr, align 8
  store ptr %this, ptr %this.addr, align 8
  %this1 = load ptr, ptr %this.addr, align 8
  %request_waiting_ = getelementptr inbounds %"class.node::Environment", ptr %this1, i32 0, i32 73
  %0 = load i32, ptr %request_waiting_, align 4
  %inc = add nsw i32 %0, 1
  store i32 %inc, ptr %request_waiting_, align 4
  ret void
}

; Function Attrs: mustprogress nounwind uwtable
define linkonce_odr dso_local noundef ptr @_ZN4node7tracing16TraceEventHelper23GetCategoryGroupEnabledEPKc(ptr noundef %group) #4 comdat align 2 {
entry:
  %retval = alloca ptr, align 8
  %group.addr = alloca ptr, align 8
  %controller = alloca ptr, align 8
  store ptr %group, ptr %group.addr, align 8
  %call = call noundef ptr @_ZN4node7tracing16TraceEventHelper20GetTracingControllerEv()
  store ptr %call, ptr %controller, align 8
  %0 = load ptr, ptr %controller, align 8
  %cmp = icmp eq ptr %0, null
  %lnot = xor i1 %cmp, true
  %lnot1 = xor i1 %lnot, true
  br i1 %lnot1, label %if.then, label %if.end

if.then:                                          ; preds = %entry
  store ptr @_ZZN4node7tracing16TraceEventHelper23GetCategoryGroupEnabledEPKcE8disabled, ptr %retval, align 8
  br label %return

if.end:                                           ; preds = %entry
  %1 = load ptr, ptr %controller, align 8
  %2 = load ptr, ptr %group.addr, align 8
  %vtable = load ptr, ptr %1, align 8
  %vfn = getelementptr inbounds ptr, ptr %vtable, i64 2
  %3 = load ptr, ptr %vfn, align 8
  %call2 = call noundef ptr %3(ptr noundef nonnull align 8 dereferenceable(8) %1, ptr noundef %2)
  store ptr %call2, ptr %retval, align 8
  br label %return

return:                                           ; preds = %if.end, %if.then
  %4 = load ptr, ptr %retval, align 8
  ret ptr %4
}

; Function Attrs: mustprogress nounwind uwtable
define linkonce_odr dso_local void @_ZN4node7tracing7TraceIDC2EPKvPj(ptr noundef nonnull align 8 dereferenceable(16) %this, ptr noundef %raw_id, ptr noundef %flags) unnamed_addr #4 comdat align 2 {
entry:
  %this.addr = alloca ptr, align 8
  %raw_id.addr = alloca ptr, align 8
  %flags.addr = alloca ptr, align 8
  store ptr %this, ptr %this.addr, align 8
  store ptr %raw_id, ptr %raw_id.addr, align 8
  store ptr %flags, ptr %flags.addr, align 8
  %this1 = load ptr, ptr %this.addr, align 8
  %scope_ = getelementptr inbounds %"class.node::tracing::TraceID", ptr %this1, i32 0, i32 0
  store ptr null, ptr %scope_, align 8
  %raw_id_ = getelementptr inbounds %"class.node::tracing::TraceID", ptr %this1, i32 0, i32 1
  %0 = load ptr, ptr %raw_id.addr, align 8
  %1 = ptrtoint ptr %0 to i64
  store i64 %1, ptr %raw_id_, align 8
  %2 = load ptr, ptr %flags.addr, align 8
  %3 = load i32, ptr %2, align 4
  %or = or i32 %3, 4
  store i32 %or, ptr %2, align 4
  ret void
}

; Function Attrs: mustprogress nounwind uwtable
define internal noundef i64 @_ZN4node7tracingL13AddTraceEventEcPKhPKcS4_mmj(i8 noundef signext %phase, ptr noundef %category_group_enabled, ptr noundef %name, ptr noundef %scope, i64 noundef %id, i64 noundef %bind_id, i32 noundef %flags) #4 {
entry:
  %phase.addr = alloca i8, align 1
  %category_group_enabled.addr = alloca ptr, align 8
  %name.addr = alloca ptr, align 8
  %scope.addr = alloca ptr, align 8
  %id.addr = alloca i64, align 8
  %bind_id.addr = alloca i64, align 8
  %flags.addr = alloca i32, align 4
  store i8 %phase, ptr %phase.addr, align 1
  store ptr %category_group_enabled, ptr %category_group_enabled.addr, align 8
  store ptr %name, ptr %name.addr, align 8
  store ptr %scope, ptr %scope.addr, align 8
  store i64 %id, ptr %id.addr, align 8
  store i64 %bind_id, ptr %bind_id.addr, align 8
  store i32 %flags, ptr %flags.addr, align 4
  %0 = load i8, ptr %phase.addr, align 1
  %1 = load ptr, ptr %category_group_enabled.addr, align 8
  %2 = load ptr, ptr %name.addr, align 8
  %3 = load ptr, ptr %scope.addr, align 8
  %4 = load i64, ptr %id.addr, align 8
  %5 = load i64, ptr %bind_id.addr, align 8
  %6 = load i32, ptr %flags.addr, align 4
  %call = call noundef i64 @_ZN4node7tracingL17AddTraceEventImplEcPKhPKcS4_mmiPS4_S2_PKmj(i8 noundef signext %0, ptr noundef %1, ptr noundef %2, ptr noundef %3, i64 noundef %4, i64 noundef %5, i32 noundef 0, ptr noundef null, ptr noundef null, ptr noundef null, i32 noundef %6)
  ret i64 %call
}

; Function Attrs: mustprogress nounwind uwtable
define linkonce_odr dso_local noundef ptr @_ZNK4node7tracing7TraceID5scopeEv(ptr noundef nonnull align 8 dereferenceable(16) %this) #4 comdat align 2 {
entry:
  %this.addr = alloca ptr, align 8
  store ptr %this, ptr %this.addr, align 8
  %this1 = load ptr, ptr %this.addr, align 8
  %scope_ = getelementptr inbounds %"class.node::tracing::TraceID", ptr %this1, i32 0, i32 0
  %0 = load ptr, ptr %scope_, align 8
  ret ptr %0
}

; Function Attrs: mustprogress nounwind uwtable
define linkonce_odr dso_local noundef i64 @_ZNK4node7tracing7TraceID6raw_idEv(ptr noundef nonnull align 8 dereferenceable(16) %this) #4 comdat align 2 {
entry:
  %this.addr = alloca ptr, align 8
  store ptr %this, ptr %this.addr, align 8
  %this1 = load ptr, ptr %this.addr, align 8
  %raw_id_ = getelementptr inbounds %"class.node::tracing::TraceID", ptr %this1, i32 0, i32 1
  %0 = load i64, ptr %raw_id_, align 8
  ret i64 %0
}

declare i32 @uv_queue_work(ptr noundef, ptr noundef, ptr noundef, ptr noundef) #1

; Function Attrs: mustprogress nounwind uwtable
define linkonce_odr dso_local noundef ptr @_ZNK4node11Environment10event_loopEv(ptr noundef nonnull align 8 dereferenceable(2872) %this) #4 comdat align 2 {
entry:
  %this.addr = alloca ptr, align 8
  store ptr %this, ptr %this.addr, align 8
  %this1 = load ptr, ptr %this.addr, align 8
  %call = call noundef ptr @_ZNK4node11Environment12isolate_dataEv(ptr noundef nonnull align 8 dereferenceable(2872) %this1)
  %call2 = call noundef ptr @_ZNK4node11IsolateData10event_loopEv(ptr noundef nonnull align 8 dereferenceable(4192) %call)
  ret ptr %call2
}

; Function Attrs: mustprogress nounwind uwtable
define linkonce_odr dso_local noundef ptr @_ZZN4node14ThreadPoolWork12ScheduleWorkEvENKUlP9uv_work_sE_cvPFvS2_EEv(ptr noundef nonnull align 1 dereferenceable(1) %this) #4 comdat align 2 {
entry:
  %this.addr = alloca ptr, align 8
  store ptr %this, ptr %this.addr, align 8
  ret ptr @_ZZN4node14ThreadPoolWork12ScheduleWorkEvENUlP9uv_work_sE_8__invokeES2_
}

; Function Attrs: mustprogress nounwind uwtable
define linkonce_odr dso_local noundef ptr @_ZZN4node14ThreadPoolWork12ScheduleWorkEvENKUlP9uv_work_siE_cvPFvS2_iEEv(ptr noundef nonnull align 1 dereferenceable(1) %this) #4 comdat align 2 {
entry:
  %this.addr = alloca ptr, align 8
  store ptr %this, ptr %this.addr, align 8
  ret ptr @_ZZN4node14ThreadPoolWork12ScheduleWorkEvENUlP9uv_work_siE_8__invokeES2_i
}

; Function Attrs: mustprogress nounwind uwtable
define linkonce_odr dso_local noundef i32 @_ZStanSt12memory_orderSt23__memory_order_modifier(i32 noundef %__m, i32 noundef %__mod) #4 comdat {
entry:
  %__m.addr = alloca i32, align 4
  %__mod.addr = alloca i32, align 4
  store i32 %__m, ptr %__m.addr, align 4
  store i32 %__mod, ptr %__mod.addr, align 4
  %0 = load i32, ptr %__m.addr, align 4
  %1 = load i32, ptr %__mod.addr, align 4
  %and = and i32 %0, %1
  ret i32 %and
}

declare noundef ptr @_ZN4node7tracing16TraceEventHelper20GetTracingControllerEv() #1

; Function Attrs: mustprogress nounwind uwtable
define internal noundef i64 @_ZN4node7tracingL17AddTraceEventImplEcPKhPKcS4_mmiPS4_S2_PKmj(i8 noundef signext %phase, ptr noundef %category_group_enabled, ptr noundef %name, ptr noundef %scope, i64 noundef %id, i64 noundef %bind_id, i32 noundef %num_args, ptr noundef %arg_names, ptr noundef %arg_types, ptr noundef %arg_values, i32 noundef %flags) #4 {
entry:
  %retval = alloca i64, align 8
  %phase.addr = alloca i8, align 1
  %category_group_enabled.addr = alloca ptr, align 8
  %name.addr = alloca ptr, align 8
  %scope.addr = alloca ptr, align 8
  %id.addr = alloca i64, align 8
  %bind_id.addr = alloca i64, align 8
  %num_args.addr = alloca i32, align 4
  %arg_names.addr = alloca ptr, align 8
  %arg_types.addr = alloca ptr, align 8
  %arg_values.addr = alloca ptr, align 8
  %flags.addr = alloca i32, align 4
  %arg_convertibles = alloca [2 x %"class.std::unique_ptr.346"], align 16
  %controller = alloca ptr, align 8
  %cleanup.dest.slot = alloca i32, align 4
  store i8 %phase, ptr %phase.addr, align 1
  store ptr %category_group_enabled, ptr %category_group_enabled.addr, align 8
  store ptr %name, ptr %name.addr, align 8
  store ptr %scope, ptr %scope.addr, align 8
  store i64 %id, ptr %id.addr, align 8
  store i64 %bind_id, ptr %bind_id.addr, align 8
  store i32 %num_args, ptr %num_args.addr, align 4
  store ptr %arg_names, ptr %arg_names.addr, align 8
  store ptr %arg_types, ptr %arg_types.addr, align 8
  store ptr %arg_values, ptr %arg_values.addr, align 8
  store i32 %flags, ptr %flags.addr, align 4
  %array.begin = getelementptr inbounds [2 x %"class.std::unique_ptr.346"], ptr %arg_convertibles, i32 0, i32 0
  %arrayctor.end = getelementptr inbounds %"class.std::unique_ptr.346", ptr %array.begin, i64 2
  br label %arrayctor.loop

arrayctor.loop:                                   ; preds = %arrayctor.loop, %entry
  %arrayctor.cur = phi ptr [ %array.begin, %entry ], [ %arrayctor.next, %arrayctor.loop ]
  call void @_ZNSt10unique_ptrIN2v824ConvertableToTraceFormatESt14default_deleteIS1_EEC2IS3_vEEv(ptr noundef nonnull align 8 dereferenceable(8) %arrayctor.cur) #3
  %arrayctor.next = getelementptr inbounds %"class.std::unique_ptr.346", ptr %arrayctor.cur, i64 1
  %arrayctor.done = icmp eq ptr %arrayctor.next, %arrayctor.end
  br i1 %arrayctor.done, label %arrayctor.cont, label %arrayctor.loop

arrayctor.cont:                                   ; preds = %arrayctor.loop
  %0 = load i32, ptr %num_args.addr, align 4
  %cmp = icmp sgt i32 %0, 0
  br i1 %cmp, label %land.lhs.true, label %if.end

land.lhs.true:                                    ; preds = %arrayctor.cont
  %1 = load ptr, ptr %arg_types.addr, align 8
  %arrayidx = getelementptr inbounds i8, ptr %1, i64 0
  %2 = load i8, ptr %arrayidx, align 1
  %conv = zext i8 %2 to i32
  %cmp1 = icmp eq i32 %conv, 8
  br i1 %cmp1, label %if.then, label %if.end

if.then:                                          ; preds = %land.lhs.true
  %arrayidx2 = getelementptr inbounds [2 x %"class.std::unique_ptr.346"], ptr %arg_convertibles, i64 0, i64 0
  %3 = load ptr, ptr %arg_values.addr, align 8
  %arrayidx3 = getelementptr inbounds i64, ptr %3, i64 0
  %4 = load i64, ptr %arrayidx3, align 8
  %5 = inttoptr i64 %4 to ptr
  call void @_ZNSt10unique_ptrIN2v824ConvertableToTraceFormatESt14default_deleteIS1_EE5resetEPS1_(ptr noundef nonnull align 8 dereferenceable(8) %arrayidx2, ptr noundef %5) #3
  br label %if.end

if.end:                                           ; preds = %if.then, %land.lhs.true, %arrayctor.cont
  %6 = load i32, ptr %num_args.addr, align 4
  %cmp4 = icmp sgt i32 %6, 1
  br i1 %cmp4, label %land.lhs.true5, label %if.end12

land.lhs.true5:                                   ; preds = %if.end
  %7 = load ptr, ptr %arg_types.addr, align 8
  %arrayidx6 = getelementptr inbounds i8, ptr %7, i64 1
  %8 = load i8, ptr %arrayidx6, align 1
  %conv7 = zext i8 %8 to i32
  %cmp8 = icmp eq i32 %conv7, 8
  br i1 %cmp8, label %if.then9, label %if.end12

if.then9:                                         ; preds = %land.lhs.true5
  %arrayidx10 = getelementptr inbounds [2 x %"class.std::unique_ptr.346"], ptr %arg_convertibles, i64 0, i64 1
  %9 = load ptr, ptr %arg_values.addr, align 8
  %arrayidx11 = getelementptr inbounds i64, ptr %9, i64 1
  %10 = load i64, ptr %arrayidx11, align 8
  %11 = inttoptr i64 %10 to ptr
  call void @_ZNSt10unique_ptrIN2v824ConvertableToTraceFormatESt14default_deleteIS1_EE5resetEPS1_(ptr noundef nonnull align 8 dereferenceable(8) %arrayidx10, ptr noundef %11) #3
  br label %if.end12

if.end12:                                         ; preds = %if.then9, %land.lhs.true5, %if.end
  %call = call noundef ptr @_ZN4node7tracing16TraceEventHelper20GetTracingControllerEv()
  store ptr %call, ptr %controller, align 8
  %12 = load ptr, ptr %controller, align 8
  %cmp13 = icmp eq ptr %12, null
  br i1 %cmp13, label %if.then14, label %if.end15

if.then14:                                        ; preds = %if.end12
  store i64 0, ptr %retval, align 8
  store i32 1, ptr %cleanup.dest.slot, align 4
  br label %cleanup

if.end15:                                         ; preds = %if.end12
  %13 = load ptr, ptr %controller, align 8
  %14 = load i8, ptr %phase.addr, align 1
  %15 = load ptr, ptr %category_group_enabled.addr, align 8
  %16 = load ptr, ptr %name.addr, align 8
  %17 = load ptr, ptr %scope.addr, align 8
  %18 = load i64, ptr %id.addr, align 8
  %19 = load i64, ptr %bind_id.addr, align 8
  %20 = load i32, ptr %num_args.addr, align 4
  %21 = load ptr, ptr %arg_names.addr, align 8
  %22 = load ptr, ptr %arg_types.addr, align 8
  %23 = load ptr, ptr %arg_values.addr, align 8
  %arraydecay = getelementptr inbounds [2 x %"class.std::unique_ptr.346"], ptr %arg_convertibles, i64 0, i64 0
  %24 = load i32, ptr %flags.addr, align 4
  %vtable = load ptr, ptr %13, align 8
  %vfn = getelementptr inbounds ptr, ptr %vtable, i64 3
  %25 = load ptr, ptr %vfn, align 8
  %call16 = call noundef i64 %25(ptr noundef nonnull align 8 dereferenceable(8) %13, i8 noundef signext %14, ptr noundef %15, ptr noundef %16, ptr noundef %17, i64 noundef %18, i64 noundef %19, i32 noundef %20, ptr noundef %21, ptr noundef %22, ptr noundef %23, ptr noundef %arraydecay, i32 noundef %24)
  store i64 %call16, ptr %retval, align 8
  store i32 1, ptr %cleanup.dest.slot, align 4
  br label %cleanup

cleanup:                                          ; preds = %if.end15, %if.then14
  %array.begin17 = getelementptr inbounds [2 x %"class.std::unique_ptr.346"], ptr %arg_convertibles, i32 0, i32 0
  %26 = getelementptr inbounds %"class.std::unique_ptr.346", ptr %array.begin17, i64 2
  br label %arraydestroy.body

arraydestroy.body:                                ; preds = %arraydestroy.body, %cleanup
  %arraydestroy.elementPast = phi ptr [ %26, %cleanup ], [ %arraydestroy.element, %arraydestroy.body ]
  %arraydestroy.element = getelementptr inbounds %"class.std::unique_ptr.346", ptr %arraydestroy.elementPast, i64 -1
  call void @_ZNSt10unique_ptrIN2v824ConvertableToTraceFormatESt14default_deleteIS1_EED2Ev(ptr noundef nonnull align 8 dereferenceable(8) %arraydestroy.element) #3
  %arraydestroy.done = icmp eq ptr %arraydestroy.element, %array.begin17
  br i1 %arraydestroy.done, label %arraydestroy.done18, label %arraydestroy.body

arraydestroy.done18:                              ; preds = %arraydestroy.body
  %27 = load i64, ptr %retval, align 8
  ret i64 %27
}

; Function Attrs: mustprogress nounwind uwtable
define linkonce_odr dso_local void @_ZNSt10unique_ptrIN2v824ConvertableToTraceFormatESt14default_deleteIS1_EEC2IS3_vEEv(ptr noundef nonnull align 8 dereferenceable(8) %this) unnamed_addr #4 comdat align 2 {
entry:
  %this.addr = alloca ptr, align 8
  store ptr %this, ptr %this.addr, align 8
  %this1 = load ptr, ptr %this.addr, align 8
  %_M_t = getelementptr inbounds %"class.std::unique_ptr.346", ptr %this1, i32 0, i32 0
  call void @llvm.memset.p0.i64(ptr align 8 %_M_t, i8 0, i64 8, i1 false)
  call void @_ZNSt15__uniq_ptr_dataIN2v824ConvertableToTraceFormatESt14default_deleteIS1_ELb1ELb1EEC2Ev(ptr noundef nonnull align 8 dereferenceable(8) %_M_t) #3
  ret void
}

; Function Attrs: mustprogress nounwind uwtable
define linkonce_odr dso_local void @_ZNSt10unique_ptrIN2v824ConvertableToTraceFormatESt14default_deleteIS1_EE5resetEPS1_(ptr noundef nonnull align 8 dereferenceable(8) %this, ptr noundef %__p) #4 comdat align 2 {
entry:
  %this.addr = alloca ptr, align 8
  %__p.addr = alloca ptr, align 8
  store ptr %this, ptr %this.addr, align 8
  store ptr %__p, ptr %__p.addr, align 8
  %this1 = load ptr, ptr %this.addr, align 8
  %_M_t = getelementptr inbounds %"class.std::unique_ptr.346", ptr %this1, i32 0, i32 0
  %0 = load ptr, ptr %__p.addr, align 8
  call void @_ZNSt15__uniq_ptr_implIN2v824ConvertableToTraceFormatESt14default_deleteIS1_EE5resetEPS1_(ptr noundef nonnull align 8 dereferenceable(8) %_M_t, ptr noundef %0) #3
  ret void
}

; Function Attrs: mustprogress nounwind uwtable
define linkonce_odr dso_local void @_ZNSt10unique_ptrIN2v824ConvertableToTraceFormatESt14default_deleteIS1_EED2Ev(ptr noundef nonnull align 8 dereferenceable(8) %this) unnamed_addr #4 comdat align 2 {
entry:
  %this.addr = alloca ptr, align 8
  %__ptr = alloca ptr, align 8
  store ptr %this, ptr %this.addr, align 8
  %this1 = load ptr, ptr %this.addr, align 8
  %_M_t = getelementptr inbounds %"class.std::unique_ptr.346", ptr %this1, i32 0, i32 0
  %call = call noundef nonnull align 8 dereferenceable(8) ptr @_ZNSt15__uniq_ptr_implIN2v824ConvertableToTraceFormatESt14default_deleteIS1_EE6_M_ptrEv(ptr noundef nonnull align 8 dereferenceable(8) %_M_t) #3
  store ptr %call, ptr %__ptr, align 8
  %0 = load ptr, ptr %__ptr, align 8
  %1 = load ptr, ptr %0, align 8
  %cmp = icmp ne ptr %1, null
  br i1 %cmp, label %if.then, label %if.end

if.then:                                          ; preds = %entry
  %call2 = call noundef nonnull align 1 dereferenceable(1) ptr @_ZNSt10unique_ptrIN2v824ConvertableToTraceFormatESt14default_deleteIS1_EE11get_deleterEv(ptr noundef nonnull align 8 dereferenceable(8) %this1) #3
  %2 = load ptr, ptr %__ptr, align 8
  %3 = load ptr, ptr %2, align 8
  call void @_ZNKSt14default_deleteIN2v824ConvertableToTraceFormatEEclEPS1_(ptr noundef nonnull align 1 dereferenceable(1) %call2, ptr noundef %3)
  br label %if.end

if.end:                                           ; preds = %if.then, %entry
  %4 = load ptr, ptr %__ptr, align 8
  store ptr null, ptr %4, align 8
  ret void
}

; Function Attrs: mustprogress nounwind uwtable
define linkonce_odr dso_local void @_ZNSt15__uniq_ptr_dataIN2v824ConvertableToTraceFormatESt14default_deleteIS1_ELb1ELb1EEC2Ev(ptr noundef nonnull align 8 dereferenceable(8) %this) unnamed_addr #4 comdat align 2 {
entry:
  %this.addr = alloca ptr, align 8
  store ptr %this, ptr %this.addr, align 8
  %this1 = load ptr, ptr %this.addr, align 8
  call void @_ZNSt15__uniq_ptr_implIN2v824ConvertableToTraceFormatESt14default_deleteIS1_EEC2Ev(ptr noundef nonnull align 8 dereferenceable(8) %this1) #3
  ret void
}

; Function Attrs: mustprogress nounwind uwtable
define linkonce_odr dso_local void @_ZNSt15__uniq_ptr_implIN2v824ConvertableToTraceFormatESt14default_deleteIS1_EEC2Ev(ptr noundef nonnull align 8 dereferenceable(8) %this) unnamed_addr #4 comdat align 2 {
entry:
  %this.addr = alloca ptr, align 8
  store ptr %this, ptr %this.addr, align 8
  %this1 = load ptr, ptr %this.addr, align 8
  %_M_t = getelementptr inbounds %"class.std::__uniq_ptr_impl.348", ptr %this1, i32 0, i32 0
  call void @_ZNSt5tupleIJPN2v824ConvertableToTraceFormatESt14default_deleteIS1_EEEC2ILb1ETnNSt9enable_ifIXclsr17_TupleConstraintsIXT_ES2_S4_EE37__is_implicitly_default_constructibleEEbE4typeELb1EEEv(ptr noundef nonnull align 8 dereferenceable(8) %_M_t) #3
  ret void
}

; Function Attrs: mustprogress nounwind uwtable
define linkonce_odr dso_local void @_ZNSt5tupleIJPN2v824ConvertableToTraceFormatESt14default_deleteIS1_EEEC2ILb1ETnNSt9enable_ifIXclsr17_TupleConstraintsIXT_ES2_S4_EE37__is_implicitly_default_constructibleEEbE4typeELb1EEEv(ptr noundef nonnull align 8 dereferenceable(8) %this) unnamed_addr #4 comdat align 2 {
entry:
  %this.addr = alloca ptr, align 8
  store ptr %this, ptr %this.addr, align 8
  %this1 = load ptr, ptr %this.addr, align 8
  call void @_ZNSt11_Tuple_implILm0EJPN2v824ConvertableToTraceFormatESt14default_deleteIS1_EEEC2Ev(ptr noundef nonnull align 8 dereferenceable(8) %this1)
  ret void
}

; Function Attrs: mustprogress nounwind uwtable
define linkonce_odr dso_local void @_ZNSt11_Tuple_implILm0EJPN2v824ConvertableToTraceFormatESt14default_deleteIS1_EEEC2Ev(ptr noundef nonnull align 8 dereferenceable(8) %this) unnamed_addr #4 comdat align 2 {
entry:
  %this.addr = alloca ptr, align 8
  store ptr %this, ptr %this.addr, align 8
  %this1 = load ptr, ptr %this.addr, align 8
  call void @_ZNSt11_Tuple_implILm1EJSt14default_deleteIN2v824ConvertableToTraceFormatEEEEC2Ev(ptr noundef nonnull align 1 dereferenceable(1) %this1)
  call void @_ZNSt10_Head_baseILm0EPN2v824ConvertableToTraceFormatELb0EEC2Ev(ptr noundef nonnull align 8 dereferenceable(8) %this1)
  ret void
}

; Function Attrs: mustprogress nounwind uwtable
define linkonce_odr dso_local void @_ZNSt11_Tuple_implILm1EJSt14default_deleteIN2v824ConvertableToTraceFormatEEEEC2Ev(ptr noundef nonnull align 1 dereferenceable(1) %this) unnamed_addr #4 comdat align 2 {
entry:
  %this.addr = alloca ptr, align 8
  store ptr %this, ptr %this.addr, align 8
  %this1 = load ptr, ptr %this.addr, align 8
  call void @_ZNSt10_Head_baseILm1ESt14default_deleteIN2v824ConvertableToTraceFormatEELb1EEC2Ev(ptr noundef nonnull align 1 dereferenceable(1) %this1)
  ret void
}

; Function Attrs: mustprogress nounwind uwtable
define linkonce_odr dso_local void @_ZNSt10_Head_baseILm0EPN2v824ConvertableToTraceFormatELb0EEC2Ev(ptr noundef nonnull align 8 dereferenceable(8) %this) unnamed_addr #4 comdat align 2 {
entry:
  %this.addr = alloca ptr, align 8
  store ptr %this, ptr %this.addr, align 8
  %this1 = load ptr, ptr %this.addr, align 8
  %_M_head_impl = getelementptr inbounds %"struct.std::_Head_base.353", ptr %this1, i32 0, i32 0
  store ptr null, ptr %_M_head_impl, align 8
  ret void
}

; Function Attrs: mustprogress nounwind uwtable
define linkonce_odr dso_local void @_ZNSt10_Head_baseILm1ESt14default_deleteIN2v824ConvertableToTraceFormatEELb1EEC2Ev(ptr noundef nonnull align 1 dereferenceable(1) %this) unnamed_addr #4 comdat align 2 {
entry:
  %this.addr = alloca ptr, align 8
  store ptr %this, ptr %this.addr, align 8
  ret void
}

; Function Attrs: mustprogress nounwind uwtable
define linkonce_odr dso_local void @_ZNSt15__uniq_ptr_implIN2v824ConvertableToTraceFormatESt14default_deleteIS1_EE5resetEPS1_(ptr noundef nonnull align 8 dereferenceable(8) %this, ptr noundef %__p) #4 comdat align 2 {
entry:
  %this.addr = alloca ptr, align 8
  %__p.addr = alloca ptr, align 8
  %__old_p = alloca ptr, align 8
  store ptr %this, ptr %this.addr, align 8
  store ptr %__p, ptr %__p.addr, align 8
  %this1 = load ptr, ptr %this.addr, align 8
  %call = call noundef nonnull align 8 dereferenceable(8) ptr @_ZNSt15__uniq_ptr_implIN2v824ConvertableToTraceFormatESt14default_deleteIS1_EE6_M_ptrEv(ptr noundef nonnull align 8 dereferenceable(8) %this1) #3
  %0 = load ptr, ptr %call, align 8
  store ptr %0, ptr %__old_p, align 8
  %1 = load ptr, ptr %__p.addr, align 8
  %call2 = call noundef nonnull align 8 dereferenceable(8) ptr @_ZNSt15__uniq_ptr_implIN2v824ConvertableToTraceFormatESt14default_deleteIS1_EE6_M_ptrEv(ptr noundef nonnull align 8 dereferenceable(8) %this1) #3
  store ptr %1, ptr %call2, align 8
  %2 = load ptr, ptr %__old_p, align 8
  %tobool = icmp ne ptr %2, null
  br i1 %tobool, label %if.then, label %if.end

if.then:                                          ; preds = %entry
  %call3 = call noundef nonnull align 1 dereferenceable(1) ptr @_ZNSt15__uniq_ptr_implIN2v824ConvertableToTraceFormatESt14default_deleteIS1_EE10_M_deleterEv(ptr noundef nonnull align 8 dereferenceable(8) %this1) #3
  %3 = load ptr, ptr %__old_p, align 8
  call void @_ZNKSt14default_deleteIN2v824ConvertableToTraceFormatEEclEPS1_(ptr noundef nonnull align 1 dereferenceable(1) %call3, ptr noundef %3)
  br label %if.end

if.end:                                           ; preds = %if.then, %entry
  ret void
}

; Function Attrs: mustprogress nounwind uwtable
define linkonce_odr dso_local noundef nonnull align 8 dereferenceable(8) ptr @_ZNSt15__uniq_ptr_implIN2v824ConvertableToTraceFormatESt14default_deleteIS1_EE6_M_ptrEv(ptr noundef nonnull align 8 dereferenceable(8) %this) #4 comdat align 2 {
entry:
  %this.addr = alloca ptr, align 8
  store ptr %this, ptr %this.addr, align 8
  %this1 = load ptr, ptr %this.addr, align 8
  %_M_t = getelementptr inbounds %"class.std::__uniq_ptr_impl.348", ptr %this1, i32 0, i32 0
  %call = call noundef nonnull align 8 dereferenceable(8) ptr @_ZSt3getILm0EJPN2v824ConvertableToTraceFormatESt14default_deleteIS1_EEERNSt13tuple_elementIXT_ESt5tupleIJDpT0_EEE4typeERS9_(ptr noundef nonnull align 8 dereferenceable(8) %_M_t) #3
  ret ptr %call
}

; Function Attrs: mustprogress nounwind uwtable
define linkonce_odr dso_local noundef nonnull align 1 dereferenceable(1) ptr @_ZNSt15__uniq_ptr_implIN2v824ConvertableToTraceFormatESt14default_deleteIS1_EE10_M_deleterEv(ptr noundef nonnull align 8 dereferenceable(8) %this) #4 comdat align 2 {
entry:
  %this.addr = alloca ptr, align 8
  store ptr %this, ptr %this.addr, align 8
  %this1 = load ptr, ptr %this.addr, align 8
  %_M_t = getelementptr inbounds %"class.std::__uniq_ptr_impl.348", ptr %this1, i32 0, i32 0
  %call = call noundef nonnull align 1 dereferenceable(1) ptr @_ZSt3getILm1EJPN2v824ConvertableToTraceFormatESt14default_deleteIS1_EEERNSt13tuple_elementIXT_ESt5tupleIJDpT0_EEE4typeERS9_(ptr noundef nonnull align 8 dereferenceable(8) %_M_t) #3
  ret ptr %call
}

; Function Attrs: mustprogress nounwind uwtable
define linkonce_odr dso_local void @_ZNKSt14default_deleteIN2v824ConvertableToTraceFormatEEclEPS1_(ptr noundef nonnull align 1 dereferenceable(1) %this, ptr noundef %__ptr) #4 comdat align 2 {
entry:
  %this.addr = alloca ptr, align 8
  %__ptr.addr = alloca ptr, align 8
  store ptr %this, ptr %this.addr, align 8
  store ptr %__ptr, ptr %__ptr.addr, align 8
  %0 = load ptr, ptr %__ptr.addr, align 8
  %isnull = icmp eq ptr %0, null
  br i1 %isnull, label %delete.end, label %delete.notnull

delete.notnull:                                   ; preds = %entry
  %vtable = load ptr, ptr %0, align 8
  %vfn = getelementptr inbounds ptr, ptr %vtable, i64 1
  %1 = load ptr, ptr %vfn, align 8
  call void %1(ptr noundef nonnull align 8 dereferenceable(8) %0) #3
  br label %delete.end

delete.end:                                       ; preds = %delete.notnull, %entry
  ret void
}

; Function Attrs: mustprogress nounwind uwtable
define linkonce_odr dso_local noundef nonnull align 8 dereferenceable(8) ptr @_ZSt3getILm0EJPN2v824ConvertableToTraceFormatESt14default_deleteIS1_EEERNSt13tuple_elementIXT_ESt5tupleIJDpT0_EEE4typeERS9_(ptr noundef nonnull align 8 dereferenceable(8) %__t) #4 comdat {
entry:
  %__t.addr = alloca ptr, align 8
  store ptr %__t, ptr %__t.addr, align 8
  %0 = load ptr, ptr %__t.addr, align 8
  %call = call noundef nonnull align 8 dereferenceable(8) ptr @_ZSt12__get_helperILm0EPN2v824ConvertableToTraceFormatEJSt14default_deleteIS1_EEERT0_RSt11_Tuple_implIXT_EJS5_DpT1_EE(ptr noundef nonnull align 8 dereferenceable(8) %0) #3
  ret ptr %call
}

; Function Attrs: mustprogress nounwind uwtable
define linkonce_odr dso_local noundef nonnull align 8 dereferenceable(8) ptr @_ZSt12__get_helperILm0EPN2v824ConvertableToTraceFormatEJSt14default_deleteIS1_EEERT0_RSt11_Tuple_implIXT_EJS5_DpT1_EE(ptr noundef nonnull align 8 dereferenceable(8) %__t) #4 comdat {
entry:
  %__t.addr = alloca ptr, align 8
  store ptr %__t, ptr %__t.addr, align 8
  %0 = load ptr, ptr %__t.addr, align 8
  %call = call noundef nonnull align 8 dereferenceable(8) ptr @_ZNSt11_Tuple_implILm0EJPN2v824ConvertableToTraceFormatESt14default_deleteIS1_EEE7_M_headERS5_(ptr noundef nonnull align 8 dereferenceable(8) %0) #3
  ret ptr %call
}

; Function Attrs: mustprogress nounwind uwtable
define linkonce_odr dso_local noundef nonnull align 8 dereferenceable(8) ptr @_ZNSt11_Tuple_implILm0EJPN2v824ConvertableToTraceFormatESt14default_deleteIS1_EEE7_M_headERS5_(ptr noundef nonnull align 8 dereferenceable(8) %__t) #4 comdat align 2 {
entry:
  %__t.addr = alloca ptr, align 8
  store ptr %__t, ptr %__t.addr, align 8
  %0 = load ptr, ptr %__t.addr, align 8
  %call = call noundef nonnull align 8 dereferenceable(8) ptr @_ZNSt10_Head_baseILm0EPN2v824ConvertableToTraceFormatELb0EE7_M_headERS3_(ptr noundef nonnull align 8 dereferenceable(8) %0) #3
  ret ptr %call
}

; Function Attrs: mustprogress nounwind uwtable
define linkonce_odr dso_local noundef nonnull align 8 dereferenceable(8) ptr @_ZNSt10_Head_baseILm0EPN2v824ConvertableToTraceFormatELb0EE7_M_headERS3_(ptr noundef nonnull align 8 dereferenceable(8) %__b) #4 comdat align 2 {
entry:
  %__b.addr = alloca ptr, align 8
  store ptr %__b, ptr %__b.addr, align 8
  %0 = load ptr, ptr %__b.addr, align 8
  %_M_head_impl = getelementptr inbounds %"struct.std::_Head_base.353", ptr %0, i32 0, i32 0
  ret ptr %_M_head_impl
}

; Function Attrs: mustprogress nounwind uwtable
define linkonce_odr dso_local noundef nonnull align 1 dereferenceable(1) ptr @_ZSt3getILm1EJPN2v824ConvertableToTraceFormatESt14default_deleteIS1_EEERNSt13tuple_elementIXT_ESt5tupleIJDpT0_EEE4typeERS9_(ptr noundef nonnull align 8 dereferenceable(8) %__t) #4 comdat {
entry:
  %__t.addr = alloca ptr, align 8
  store ptr %__t, ptr %__t.addr, align 8
  %0 = load ptr, ptr %__t.addr, align 8
  %call = call noundef nonnull align 1 dereferenceable(1) ptr @_ZSt12__get_helperILm1ESt14default_deleteIN2v824ConvertableToTraceFormatEEJEERT0_RSt11_Tuple_implIXT_EJS4_DpT1_EE(ptr noundef nonnull align 1 dereferenceable(1) %0) #3
  ret ptr %call
}

; Function Attrs: mustprogress nounwind uwtable
define linkonce_odr dso_local noundef nonnull align 1 dereferenceable(1) ptr @_ZSt12__get_helperILm1ESt14default_deleteIN2v824ConvertableToTraceFormatEEJEERT0_RSt11_Tuple_implIXT_EJS4_DpT1_EE(ptr noundef nonnull align 1 dereferenceable(1) %__t) #4 comdat {
entry:
  %__t.addr = alloca ptr, align 8
  store ptr %__t, ptr %__t.addr, align 8
  %0 = load ptr, ptr %__t.addr, align 8
  %call = call noundef nonnull align 1 dereferenceable(1) ptr @_ZNSt11_Tuple_implILm1EJSt14default_deleteIN2v824ConvertableToTraceFormatEEEE7_M_headERS4_(ptr noundef nonnull align 1 dereferenceable(1) %0) #3
  ret ptr %call
}

; Function Attrs: mustprogress nounwind uwtable
define linkonce_odr dso_local noundef nonnull align 1 dereferenceable(1) ptr @_ZNSt11_Tuple_implILm1EJSt14default_deleteIN2v824ConvertableToTraceFormatEEEE7_M_headERS4_(ptr noundef nonnull align 1 dereferenceable(1) %__t) #4 comdat align 2 {
entry:
  %__t.addr = alloca ptr, align 8
  store ptr %__t, ptr %__t.addr, align 8
  %0 = load ptr, ptr %__t.addr, align 8
  %call = call noundef nonnull align 1 dereferenceable(1) ptr @_ZNSt10_Head_baseILm1ESt14default_deleteIN2v824ConvertableToTraceFormatEELb1EE7_M_headERS4_(ptr noundef nonnull align 1 dereferenceable(1) %0) #3
  ret ptr %call
}

; Function Attrs: mustprogress nounwind uwtable
define linkonce_odr dso_local noundef nonnull align 1 dereferenceable(1) ptr @_ZNSt10_Head_baseILm1ESt14default_deleteIN2v824ConvertableToTraceFormatEELb1EE7_M_headERS4_(ptr noundef nonnull align 1 dereferenceable(1) %__b) #4 comdat align 2 {
entry:
  %__b.addr = alloca ptr, align 8
  store ptr %__b, ptr %__b.addr, align 8
  %0 = load ptr, ptr %__b.addr, align 8
  ret ptr %0
}

; Function Attrs: mustprogress nounwind uwtable
define linkonce_odr dso_local noundef nonnull align 1 dereferenceable(1) ptr @_ZNSt10unique_ptrIN2v824ConvertableToTraceFormatESt14default_deleteIS1_EE11get_deleterEv(ptr noundef nonnull align 8 dereferenceable(8) %this) #4 comdat align 2 {
entry:
  %this.addr = alloca ptr, align 8
  store ptr %this, ptr %this.addr, align 8
  %this1 = load ptr, ptr %this.addr, align 8
  %_M_t = getelementptr inbounds %"class.std::unique_ptr.346", ptr %this1, i32 0, i32 0
  %call = call noundef nonnull align 1 dereferenceable(1) ptr @_ZNSt15__uniq_ptr_implIN2v824ConvertableToTraceFormatESt14default_deleteIS1_EE10_M_deleterEv(ptr noundef nonnull align 8 dereferenceable(8) %_M_t) #3
  ret ptr %call
}

; Function Attrs: mustprogress nounwind uwtable
define linkonce_odr dso_local noundef ptr @_ZNK4node11IsolateData10event_loopEv(ptr noundef nonnull align 8 dereferenceable(4192) %this) #4 comdat align 2 {
entry:
  %this.addr = alloca ptr, align 8
  store ptr %this, ptr %this.addr, align 8
  %this1 = load ptr, ptr %this.addr, align 8
  %event_loop_ = getelementptr inbounds %"class.node::IsolateData", ptr %this1, i32 0, i32 439
  %0 = load ptr, ptr %event_loop_, align 8
  ret ptr %0
}

; Function Attrs: mustprogress nounwind uwtable
define linkonce_odr dso_local void @_ZZN4node14ThreadPoolWork12ScheduleWorkEvENUlP9uv_work_sE_8__invokeES2_(ptr noundef %req) #4 comdat align 2 {
entry:
  %req.addr = alloca ptr, align 8
  %unused.capture = alloca %class.anon, align 1
  store ptr %req, ptr %req.addr, align 8
  %0 = load ptr, ptr %req.addr, align 8
  call void @_ZZN4node14ThreadPoolWork12ScheduleWorkEvENKUlP9uv_work_sE_clES2_(ptr noundef nonnull align 1 dereferenceable(1) %unused.capture, ptr noundef %0)
  ret void
}

; Function Attrs: mustprogress nounwind uwtable
define linkonce_odr dso_local void @_ZZN4node14ThreadPoolWork12ScheduleWorkEvENKUlP9uv_work_sE_clES2_(ptr noundef nonnull align 1 dereferenceable(1) %this, ptr noundef %req) #4 comdat align 2 {
entry:
  %this.addr.i40 = alloca ptr, align 8
  %__i.addr.i41 = alloca i64, align 8
  %__m.addr.i42 = alloca i32, align 4
  %__b.i43 = alloca i32, align 4
  %.atomictmp.i44 = alloca i64, align 8
  %this.addr.i33 = alloca ptr, align 8
  %__i.addr.i = alloca i64, align 8
  %__m.addr.i34 = alloca i32, align 4
  %__b.i35 = alloca i32, align 4
  %.atomictmp.i = alloca i64, align 8
  %this.addr.i23 = alloca ptr, align 8
  %__m.addr.i24 = alloca i32, align 4
  %__b.i25 = alloca i32, align 4
  %atomic-temp.i26 = alloca i64, align 8
  %this.addr.i = alloca ptr, align 8
  %__m.addr.i = alloca i32, align 4
  %__b.i = alloca i32, align 4
  %atomic-temp.i = alloca i64, align 8
  %this.addr = alloca ptr, align 8
  %req.addr = alloca ptr, align 8
  %self = alloca ptr, align 8
  %ref.tmp = alloca %"class.node::ContainerOfHelper", align 8
  %trace_event_unique_category_group_enabled43 = alloca ptr, align 8
  %trace_event_unique_category_group_enabled46 = alloca ptr, align 8
  store ptr %this, ptr %this.addr, align 8
  store ptr %req, ptr %req.addr, align 8
  %0 = load ptr, ptr %req.addr, align 8
  %call = call ptr @_ZN4node11ContainerOfI9uv_work_sNS_14ThreadPoolWorkEEENS_17ContainerOfHelperIT_T0_EEMS5_S4_PS4_(i64 16, ptr noundef %0)
  %coerce.dive = getelementptr inbounds %"class.node::ContainerOfHelper", ptr %ref.tmp, i32 0, i32 0
  store ptr %call, ptr %coerce.dive, align 8
  %call2 = call noundef ptr @_ZNK4node17ContainerOfHelperI9uv_work_sNS_14ThreadPoolWorkEEcvPT_IS2_EEv(ptr noundef nonnull align 8 dereferenceable(8) %ref.tmp)
  store ptr %call2, ptr %self, align 8
  br label %do.body

do.body:                                          ; preds = %entry
  store ptr @_ZZZN4node14ThreadPoolWork12ScheduleWorkEvENKUlP9uv_work_sE_clES2_E27trace_event_unique_atomic43, ptr %this.addr.i23, align 8
  store i32 5, ptr %__m.addr.i24, align 4
  %this1.i27 = load ptr, ptr %this.addr.i23, align 8
  %1 = load i32, ptr %__m.addr.i24, align 4
  %call.i28 = call noundef i32 @_ZStanSt12memory_orderSt23__memory_order_modifier(i32 noundef %1, i32 noundef 65535)
  store i32 %call.i28, ptr %__b.i25, align 4
  %2 = load i32, ptr %__m.addr.i24, align 4
  switch i32 %2, label %monotonic.i31 [
    i32 1, label %acquire.i30
    i32 2, label %acquire.i30
    i32 5, label %seqcst.i29
  ]

monotonic.i31:                                    ; preds = %do.body
  %3 = load atomic i64, ptr %this1.i27 monotonic, align 8
  store i64 %3, ptr %atomic-temp.i26, align 8
  br label %_ZNKSt13__atomic_baseIlE4loadESt12memory_order.exit32

acquire.i30:                                      ; preds = %do.body, %do.body
  %4 = load atomic i64, ptr %this1.i27 acquire, align 8
  store i64 %4, ptr %atomic-temp.i26, align 8
  br label %_ZNKSt13__atomic_baseIlE4loadESt12memory_order.exit32

seqcst.i29:                                       ; preds = %do.body
  %5 = load atomic i64, ptr %this1.i27 seq_cst, align 8
  store i64 %5, ptr %atomic-temp.i26, align 8
  br label %_ZNKSt13__atomic_baseIlE4loadESt12memory_order.exit32

_ZNKSt13__atomic_baseIlE4loadESt12memory_order.exit32: ; preds = %seqcst.i29, %acquire.i30, %monotonic.i31
  %6 = load i64, ptr %atomic-temp.i26, align 8
  %7 = inttoptr i64 %6 to ptr
  store ptr %7, ptr %trace_event_unique_category_group_enabled43, align 8
  %8 = load ptr, ptr %trace_event_unique_category_group_enabled43, align 8
  %tobool = icmp ne ptr %8, null
  br i1 %tobool, label %if.end, label %if.then

if.then:                                          ; preds = %_ZNKSt13__atomic_baseIlE4loadESt12memory_order.exit32
  %call4 = call noundef ptr @_ZN4node7tracing16TraceEventHelper23GetCategoryGroupEnabledEPKc(ptr noundef @.str.26)
  store ptr %call4, ptr %trace_event_unique_category_group_enabled43, align 8
  %9 = load ptr, ptr %trace_event_unique_category_group_enabled43, align 8
  %10 = ptrtoint ptr %9 to i64
  store ptr @_ZZZN4node14ThreadPoolWork12ScheduleWorkEvENKUlP9uv_work_sE_clES2_E27trace_event_unique_atomic43, ptr %this.addr.i40, align 8
  store i64 %10, ptr %__i.addr.i41, align 8
  store i32 5, ptr %__m.addr.i42, align 4
  %this1.i45 = load ptr, ptr %this.addr.i40, align 8
  %11 = load i32, ptr %__m.addr.i42, align 4
  %call.i46 = call noundef i32 @_ZStanSt12memory_orderSt23__memory_order_modifier(i32 noundef %11, i32 noundef 65535)
  store i32 %call.i46, ptr %__b.i43, align 4
  %12 = load i32, ptr %__m.addr.i42, align 4
  %13 = load i64, ptr %__i.addr.i41, align 8
  store i64 %13, ptr %.atomictmp.i44, align 8
  switch i32 %12, label %monotonic.i49 [
    i32 3, label %release.i48
    i32 5, label %seqcst.i47
  ]

monotonic.i49:                                    ; preds = %if.then
  %14 = load i64, ptr %.atomictmp.i44, align 8
  store atomic i64 %14, ptr %this1.i45 monotonic, align 8
  br label %_ZNSt13__atomic_baseIlE5storeElSt12memory_order.exit50

release.i48:                                      ; preds = %if.then
  %15 = load i64, ptr %.atomictmp.i44, align 8
  store atomic i64 %15, ptr %this1.i45 release, align 8
  br label %_ZNSt13__atomic_baseIlE5storeElSt12memory_order.exit50

seqcst.i47:                                       ; preds = %if.then
  %16 = load i64, ptr %.atomictmp.i44, align 8
  store atomic i64 %16, ptr %this1.i45 seq_cst, align 8
  br label %_ZNSt13__atomic_baseIlE5storeElSt12memory_order.exit50

_ZNSt13__atomic_baseIlE5storeElSt12memory_order.exit50: ; preds = %seqcst.i47, %release.i48, %monotonic.i49
  br label %if.end

if.end:                                           ; preds = %_ZNSt13__atomic_baseIlE5storeElSt12memory_order.exit50, %_ZNKSt13__atomic_baseIlE4loadESt12memory_order.exit32
  %17 = load ptr, ptr %trace_event_unique_category_group_enabled43, align 8
  %18 = load i8, ptr %17, align 1
  %conv = zext i8 %18 to i32
  %and = and i32 %conv, 5
  %tobool5 = icmp ne i32 %and, 0
  br i1 %tobool5, label %if.then6, label %if.end8

if.then6:                                         ; preds = %if.end
  %19 = load ptr, ptr %trace_event_unique_category_group_enabled43, align 8
  %20 = load ptr, ptr %self, align 8
  %type_ = getelementptr inbounds %"class.node::ThreadPoolWork", ptr %20, i32 0, i32 3
  %21 = load ptr, ptr %type_, align 8
  %call7 = call noundef i64 @_ZN4node7tracingL13AddTraceEventEcPKhPKcS4_mmj(i8 noundef signext 66, ptr noundef %19, ptr noundef %21, ptr noundef null, i64 noundef 0, i64 noundef 0, i32 noundef 0)
  br label %if.end8

if.end8:                                          ; preds = %if.then6, %if.end
  br label %do.end

do.end:                                           ; preds = %if.end8
  %22 = load ptr, ptr %self, align 8
  %vtable = load ptr, ptr %22, align 8
  %vfn = getelementptr inbounds ptr, ptr %vtable, i64 2
  %23 = load ptr, ptr %vfn, align 8
  call void %23(ptr noundef nonnull align 8 dereferenceable(152) %22)
  br label %do.body9

do.body9:                                         ; preds = %do.end
  store ptr @_ZZZN4node14ThreadPoolWork12ScheduleWorkEvENKUlP9uv_work_sE_clES2_E27trace_event_unique_atomic46, ptr %this.addr.i, align 8
  store i32 5, ptr %__m.addr.i, align 4
  %this1.i = load ptr, ptr %this.addr.i, align 8
  %24 = load i32, ptr %__m.addr.i, align 4
  %call.i = call noundef i32 @_ZStanSt12memory_orderSt23__memory_order_modifier(i32 noundef %24, i32 noundef 65535)
  store i32 %call.i, ptr %__b.i, align 4
  %25 = load i32, ptr %__m.addr.i, align 4
  switch i32 %25, label %monotonic.i [
    i32 1, label %acquire.i
    i32 2, label %acquire.i
    i32 5, label %seqcst.i
  ]

monotonic.i:                                      ; preds = %do.body9
  %26 = load atomic i64, ptr %this1.i monotonic, align 8
  store i64 %26, ptr %atomic-temp.i, align 8
  br label %_ZNKSt13__atomic_baseIlE4loadESt12memory_order.exit

acquire.i:                                        ; preds = %do.body9, %do.body9
  %27 = load atomic i64, ptr %this1.i acquire, align 8
  store i64 %27, ptr %atomic-temp.i, align 8
  br label %_ZNKSt13__atomic_baseIlE4loadESt12memory_order.exit

seqcst.i:                                         ; preds = %do.body9
  %28 = load atomic i64, ptr %this1.i seq_cst, align 8
  store i64 %28, ptr %atomic-temp.i, align 8
  br label %_ZNKSt13__atomic_baseIlE4loadESt12memory_order.exit

_ZNKSt13__atomic_baseIlE4loadESt12memory_order.exit: ; preds = %seqcst.i, %acquire.i, %monotonic.i
  %29 = load i64, ptr %atomic-temp.i, align 8
  %30 = inttoptr i64 %29 to ptr
  store ptr %30, ptr %trace_event_unique_category_group_enabled46, align 8
  %31 = load ptr, ptr %trace_event_unique_category_group_enabled46, align 8
  %tobool11 = icmp ne ptr %31, null
  br i1 %tobool11, label %if.end14, label %if.then12

if.then12:                                        ; preds = %_ZNKSt13__atomic_baseIlE4loadESt12memory_order.exit
  %call13 = call noundef ptr @_ZN4node7tracing16TraceEventHelper23GetCategoryGroupEnabledEPKc(ptr noundef @.str.26)
  store ptr %call13, ptr %trace_event_unique_category_group_enabled46, align 8
  %32 = load ptr, ptr %trace_event_unique_category_group_enabled46, align 8
  %33 = ptrtoint ptr %32 to i64
  store ptr @_ZZZN4node14ThreadPoolWork12ScheduleWorkEvENKUlP9uv_work_sE_clES2_E27trace_event_unique_atomic46, ptr %this.addr.i33, align 8
  store i64 %33, ptr %__i.addr.i, align 8
  store i32 5, ptr %__m.addr.i34, align 4
  %this1.i36 = load ptr, ptr %this.addr.i33, align 8
  %34 = load i32, ptr %__m.addr.i34, align 4
  %call.i37 = call noundef i32 @_ZStanSt12memory_orderSt23__memory_order_modifier(i32 noundef %34, i32 noundef 65535)
  store i32 %call.i37, ptr %__b.i35, align 4
  %35 = load i32, ptr %__m.addr.i34, align 4
  %36 = load i64, ptr %__i.addr.i, align 8
  store i64 %36, ptr %.atomictmp.i, align 8
  switch i32 %35, label %monotonic.i39 [
    i32 3, label %release.i
    i32 5, label %seqcst.i38
  ]

monotonic.i39:                                    ; preds = %if.then12
  %37 = load i64, ptr %.atomictmp.i, align 8
  store atomic i64 %37, ptr %this1.i36 monotonic, align 8
  br label %_ZNSt13__atomic_baseIlE5storeElSt12memory_order.exit

release.i:                                        ; preds = %if.then12
  %38 = load i64, ptr %.atomictmp.i, align 8
  store atomic i64 %38, ptr %this1.i36 release, align 8
  br label %_ZNSt13__atomic_baseIlE5storeElSt12memory_order.exit

seqcst.i38:                                       ; preds = %if.then12
  %39 = load i64, ptr %.atomictmp.i, align 8
  store atomic i64 %39, ptr %this1.i36 seq_cst, align 8
  br label %_ZNSt13__atomic_baseIlE5storeElSt12memory_order.exit

_ZNSt13__atomic_baseIlE5storeElSt12memory_order.exit: ; preds = %seqcst.i38, %release.i, %monotonic.i39
  br label %if.end14

if.end14:                                         ; preds = %_ZNSt13__atomic_baseIlE5storeElSt12memory_order.exit, %_ZNKSt13__atomic_baseIlE4loadESt12memory_order.exit
  %40 = load ptr, ptr %trace_event_unique_category_group_enabled46, align 8
  %41 = load i8, ptr %40, align 1
  %conv15 = zext i8 %41 to i32
  %and16 = and i32 %conv15, 5
  %tobool17 = icmp ne i32 %and16, 0
  br i1 %tobool17, label %if.then18, label %if.end21

if.then18:                                        ; preds = %if.end14
  %42 = load ptr, ptr %trace_event_unique_category_group_enabled46, align 8
  %43 = load ptr, ptr %self, align 8
  %type_19 = getelementptr inbounds %"class.node::ThreadPoolWork", ptr %43, i32 0, i32 3
  %44 = load ptr, ptr %type_19, align 8
  %call20 = call noundef i64 @_ZN4node7tracingL13AddTraceEventEcPKhPKcS4_mmj(i8 noundef signext 69, ptr noundef %42, ptr noundef %44, ptr noundef null, i64 noundef 0, i64 noundef 0, i32 noundef 0)
  br label %if.end21

if.end21:                                         ; preds = %if.then18, %if.end14
  br label %do.end22

do.end22:                                         ; preds = %if.end21
  ret void
}

; Function Attrs: mustprogress nounwind uwtable
define linkonce_odr dso_local ptr @_ZN4node11ContainerOfI9uv_work_sNS_14ThreadPoolWorkEEENS_17ContainerOfHelperIT_T0_EEMS5_S4_PS4_(i64 %field, ptr noundef %pointer) #4 comdat {
entry:
  %retval = alloca %"class.node::ContainerOfHelper", align 8
  %field.addr = alloca i64, align 8
  %pointer.addr = alloca ptr, align 8
  store i64 %field, ptr %field.addr, align 8
  store ptr %pointer, ptr %pointer.addr, align 8
  %0 = load i64, ptr %field.addr, align 8
  %1 = load ptr, ptr %pointer.addr, align 8
  call void @_ZN4node17ContainerOfHelperI9uv_work_sNS_14ThreadPoolWorkEEC2EMS2_S1_PS1_(ptr noundef nonnull align 8 dereferenceable(8) %retval, i64 %0, ptr noundef %1)
  %coerce.dive = getelementptr inbounds %"class.node::ContainerOfHelper", ptr %retval, i32 0, i32 0
  %2 = load ptr, ptr %coerce.dive, align 8
  ret ptr %2
}

; Function Attrs: mustprogress nounwind uwtable
define linkonce_odr dso_local noundef ptr @_ZNK4node17ContainerOfHelperI9uv_work_sNS_14ThreadPoolWorkEEcvPT_IS2_EEv(ptr noundef nonnull align 8 dereferenceable(8) %this) #4 comdat align 2 {
entry:
  %this.addr = alloca ptr, align 8
  store ptr %this, ptr %this.addr, align 8
  %this1 = load ptr, ptr %this.addr, align 8
  %pointer_ = getelementptr inbounds %"class.node::ContainerOfHelper", ptr %this1, i32 0, i32 0
  %0 = load ptr, ptr %pointer_, align 8
  ret ptr %0
}

; Function Attrs: mustprogress nounwind uwtable
define linkonce_odr dso_local void @_ZN4node17ContainerOfHelperI9uv_work_sNS_14ThreadPoolWorkEEC2EMS2_S1_PS1_(ptr noundef nonnull align 8 dereferenceable(8) %this, i64 %field, ptr noundef %pointer) unnamed_addr #4 comdat align 2 {
entry:
  %this.addr = alloca ptr, align 8
  %field.addr = alloca i64, align 8
  %pointer.addr = alloca ptr, align 8
  store ptr %this, ptr %this.addr, align 8
  store i64 %field, ptr %field.addr, align 8
  store ptr %pointer, ptr %pointer.addr, align 8
  %this1 = load ptr, ptr %this.addr, align 8
  %pointer_ = getelementptr inbounds %"class.node::ContainerOfHelper", ptr %this1, i32 0, i32 0
  %0 = load ptr, ptr %pointer.addr, align 8
  %1 = ptrtoint ptr %0 to i64
  %2 = load i64, ptr %field.addr, align 8
  %call = call noundef i64 @_ZN4node8OffsetOfI9uv_work_sNS_14ThreadPoolWorkEEEmMT0_T_(i64 %2)
  %sub = sub i64 %1, %call
  %3 = inttoptr i64 %sub to ptr
  store ptr %3, ptr %pointer_, align 8
  ret void
}

; Function Attrs: mustprogress nounwind uwtable
define linkonce_odr dso_local noundef i64 @_ZN4node8OffsetOfI9uv_work_sNS_14ThreadPoolWorkEEEmMT0_T_(i64 %field) #4 comdat {
entry:
  %field.addr = alloca i64, align 8
  store i64 %field, ptr %field.addr, align 8
  %0 = load i64, ptr %field.addr, align 8
  %memptr.offset = getelementptr inbounds i8, ptr null, i64 %0
  %1 = ptrtoint ptr %memptr.offset to i64
  ret i64 %1
}

; Function Attrs: mustprogress nounwind uwtable
define linkonce_odr dso_local void @_ZZN4node14ThreadPoolWork12ScheduleWorkEvENUlP9uv_work_siE_8__invokeES2_i(ptr noundef %req, i32 noundef %status) #4 comdat align 2 {
entry:
  %req.addr = alloca ptr, align 8
  %status.addr = alloca i32, align 4
  %unused.capture = alloca %class.anon.344, align 1
  store ptr %req, ptr %req.addr, align 8
  store i32 %status, ptr %status.addr, align 4
  %0 = load ptr, ptr %req.addr, align 8
  %1 = load i32, ptr %status.addr, align 4
  call void @_ZZN4node14ThreadPoolWork12ScheduleWorkEvENKUlP9uv_work_siE_clES2_i(ptr noundef nonnull align 1 dereferenceable(1) %unused.capture, ptr noundef %0, i32 noundef %1)
  ret void
}

; Function Attrs: mustprogress nounwind uwtable
define linkonce_odr dso_local void @_ZZN4node14ThreadPoolWork12ScheduleWorkEvENKUlP9uv_work_siE_clES2_i(ptr noundef nonnull align 1 dereferenceable(1) %this, ptr noundef %req, i32 noundef %status) #4 comdat align 2 {
entry:
  %this.addr.i11 = alloca ptr, align 8
  %__i.addr.i = alloca i64, align 8
  %__m.addr.i12 = alloca i32, align 4
  %__b.i13 = alloca i32, align 4
  %.atomictmp.i = alloca i64, align 8
  %this.addr.i = alloca ptr, align 8
  %__m.addr.i = alloca i32, align 4
  %__b.i = alloca i32, align 4
  %atomic-temp.i = alloca i64, align 8
  %this.addr = alloca ptr, align 8
  %req.addr = alloca ptr, align 8
  %status.addr = alloca i32, align 4
  %self = alloca ptr, align 8
  %ref.tmp = alloca %"class.node::ContainerOfHelper", align 8
  %trace_event_unique_category_group_enabled56 = alloca ptr, align 8
  %trace_event_flags = alloca i32, align 4
  %trace_event_trace_id = alloca %"class.node::tracing::TraceID", align 8
  store ptr %this, ptr %this.addr, align 8
  store ptr %req, ptr %req.addr, align 8
  store i32 %status, ptr %status.addr, align 4
  %0 = load ptr, ptr %req.addr, align 8
  %call = call ptr @_ZN4node11ContainerOfI9uv_work_sNS_14ThreadPoolWorkEEENS_17ContainerOfHelperIT_T0_EEMS5_S4_PS4_(i64 16, ptr noundef %0)
  %coerce.dive = getelementptr inbounds %"class.node::ContainerOfHelper", ptr %ref.tmp, i32 0, i32 0
  store ptr %call, ptr %coerce.dive, align 8
  %call2 = call noundef ptr @_ZNK4node17ContainerOfHelperI9uv_work_sNS_14ThreadPoolWorkEEcvPT_IS2_EEv(ptr noundef nonnull align 8 dereferenceable(8) %ref.tmp)
  store ptr %call2, ptr %self, align 8
  %1 = load ptr, ptr %self, align 8
  %env_ = getelementptr inbounds %"class.node::ThreadPoolWork", ptr %1, i32 0, i32 1
  %2 = load ptr, ptr %env_, align 8
  call void @_ZN4node11Environment29DecreaseWaitingRequestCounterEv(ptr noundef nonnull align 8 dereferenceable(2872) %2)
  br label %do.body

do.body:                                          ; preds = %entry
  store ptr @_ZZZN4node14ThreadPoolWork12ScheduleWorkEvENKUlP9uv_work_siE_clES2_iE27trace_event_unique_atomic56, ptr %this.addr.i, align 8
  store i32 5, ptr %__m.addr.i, align 4
  %this1.i = load ptr, ptr %this.addr.i, align 8
  %3 = load i32, ptr %__m.addr.i, align 4
  %call.i = call noundef i32 @_ZStanSt12memory_orderSt23__memory_order_modifier(i32 noundef %3, i32 noundef 65535)
  store i32 %call.i, ptr %__b.i, align 4
  %4 = load i32, ptr %__m.addr.i, align 4
  switch i32 %4, label %monotonic.i [
    i32 1, label %acquire.i
    i32 2, label %acquire.i
    i32 5, label %seqcst.i
  ]

monotonic.i:                                      ; preds = %do.body
  %5 = load atomic i64, ptr %this1.i monotonic, align 8
  store i64 %5, ptr %atomic-temp.i, align 8
  br label %_ZNKSt13__atomic_baseIlE4loadESt12memory_order.exit

acquire.i:                                        ; preds = %do.body, %do.body
  %6 = load atomic i64, ptr %this1.i acquire, align 8
  store i64 %6, ptr %atomic-temp.i, align 8
  br label %_ZNKSt13__atomic_baseIlE4loadESt12memory_order.exit

seqcst.i:                                         ; preds = %do.body
  %7 = load atomic i64, ptr %this1.i seq_cst, align 8
  store i64 %7, ptr %atomic-temp.i, align 8
  br label %_ZNKSt13__atomic_baseIlE4loadESt12memory_order.exit

_ZNKSt13__atomic_baseIlE4loadESt12memory_order.exit: ; preds = %seqcst.i, %acquire.i, %monotonic.i
  %8 = load i64, ptr %atomic-temp.i, align 8
  %9 = inttoptr i64 %8 to ptr
  store ptr %9, ptr %trace_event_unique_category_group_enabled56, align 8
  %10 = load ptr, ptr %trace_event_unique_category_group_enabled56, align 8
  %tobool = icmp ne ptr %10, null
  br i1 %tobool, label %if.end, label %if.then

if.then:                                          ; preds = %_ZNKSt13__atomic_baseIlE4loadESt12memory_order.exit
  %call4 = call noundef ptr @_ZN4node7tracing16TraceEventHelper23GetCategoryGroupEnabledEPKc(ptr noundef @.str.22)
  store ptr %call4, ptr %trace_event_unique_category_group_enabled56, align 8
  %11 = load ptr, ptr %trace_event_unique_category_group_enabled56, align 8
  %12 = ptrtoint ptr %11 to i64
  store ptr @_ZZZN4node14ThreadPoolWork12ScheduleWorkEvENKUlP9uv_work_siE_clES2_iE27trace_event_unique_atomic56, ptr %this.addr.i11, align 8
  store i64 %12, ptr %__i.addr.i, align 8
  store i32 5, ptr %__m.addr.i12, align 4
  %this1.i14 = load ptr, ptr %this.addr.i11, align 8
  %13 = load i32, ptr %__m.addr.i12, align 4
  %call.i15 = call noundef i32 @_ZStanSt12memory_orderSt23__memory_order_modifier(i32 noundef %13, i32 noundef 65535)
  store i32 %call.i15, ptr %__b.i13, align 4
  %14 = load i32, ptr %__m.addr.i12, align 4
  %15 = load i64, ptr %__i.addr.i, align 8
  store i64 %15, ptr %.atomictmp.i, align 8
  switch i32 %14, label %monotonic.i17 [
    i32 3, label %release.i
    i32 5, label %seqcst.i16
  ]

monotonic.i17:                                    ; preds = %if.then
  %16 = load i64, ptr %.atomictmp.i, align 8
  store atomic i64 %16, ptr %this1.i14 monotonic, align 8
  br label %_ZNSt13__atomic_baseIlE5storeElSt12memory_order.exit

release.i:                                        ; preds = %if.then
  %17 = load i64, ptr %.atomictmp.i, align 8
  store atomic i64 %17, ptr %this1.i14 release, align 8
  br label %_ZNSt13__atomic_baseIlE5storeElSt12memory_order.exit

seqcst.i16:                                       ; preds = %if.then
  %18 = load i64, ptr %.atomictmp.i, align 8
  store atomic i64 %18, ptr %this1.i14 seq_cst, align 8
  br label %_ZNSt13__atomic_baseIlE5storeElSt12memory_order.exit

_ZNSt13__atomic_baseIlE5storeElSt12memory_order.exit: ; preds = %seqcst.i16, %release.i, %monotonic.i17
  br label %if.end

if.end:                                           ; preds = %_ZNSt13__atomic_baseIlE5storeElSt12memory_order.exit, %_ZNKSt13__atomic_baseIlE4loadESt12memory_order.exit
  %19 = load ptr, ptr %trace_event_unique_category_group_enabled56, align 8
  %20 = load i8, ptr %19, align 1
  %conv = zext i8 %20 to i32
  %and = and i32 %conv, 5
  %tobool5 = icmp ne i32 %and, 0
  br i1 %tobool5, label %if.then6, label %if.end10

if.then6:                                         ; preds = %if.end
  store i32 2, ptr %trace_event_flags, align 4
  %21 = load ptr, ptr %self, align 8
  call void @_ZN4node7tracing7TraceIDC2EPKvPj(ptr noundef nonnull align 8 dereferenceable(16) %trace_event_trace_id, ptr noundef %21, ptr noundef %trace_event_flags)
  %22 = load ptr, ptr %trace_event_unique_category_group_enabled56, align 8
  %23 = load ptr, ptr %self, align 8
  %type_ = getelementptr inbounds %"class.node::ThreadPoolWork", ptr %23, i32 0, i32 3
  %24 = load ptr, ptr %type_, align 8
  %call7 = call noundef ptr @_ZNK4node7tracing7TraceID5scopeEv(ptr noundef nonnull align 8 dereferenceable(16) %trace_event_trace_id)
  %call8 = call noundef i64 @_ZNK4node7tracing7TraceID6raw_idEv(ptr noundef nonnull align 8 dereferenceable(16) %trace_event_trace_id)
  %25 = load i32, ptr %trace_event_flags, align 4
  %call9 = call noundef i64 @_ZN4node7tracingL13AddTraceEventIRiEEmcPKhPKcS6_mmjS6_OT_(i8 noundef signext 101, ptr noundef %22, ptr noundef %24, ptr noundef %call7, i64 noundef %call8, i64 noundef 0, i32 noundef %25, ptr noundef @.str.27, ptr noundef nonnull align 4 dereferenceable(4) %status.addr)
  br label %if.end10

if.end10:                                         ; preds = %if.then6, %if.end
  br label %do.end

do.end:                                           ; preds = %if.end10
  %26 = load ptr, ptr %self, align 8
  %27 = load i32, ptr %status.addr, align 4
  %vtable = load ptr, ptr %26, align 8
  %vfn = getelementptr inbounds ptr, ptr %vtable, i64 3
  %28 = load ptr, ptr %vfn, align 8
  call void %28(ptr noundef nonnull align 8 dereferenceable(152) %26, i32 noundef %27)
  ret void
}

; Function Attrs: mustprogress nounwind uwtable
define linkonce_odr dso_local void @_ZN4node11Environment29DecreaseWaitingRequestCounterEv(ptr noundef nonnull align 8 dereferenceable(2872) %this) #4 comdat align 2 {
entry:
  %this.addr = alloca ptr, align 8
  store ptr %this, ptr %this.addr, align 8
  %this1 = load ptr, ptr %this.addr, align 8
  %request_waiting_ = getelementptr inbounds %"class.node::Environment", ptr %this1, i32 0, i32 73
  %0 = load i32, ptr %request_waiting_, align 4
  %dec = add nsw i32 %0, -1
  store i32 %dec, ptr %request_waiting_, align 4
  br label %do.body

do.body:                                          ; preds = %entry
  %request_waiting_2 = getelementptr inbounds %"class.node::Environment", ptr %this1, i32 0, i32 73
  %1 = load i32, ptr %request_waiting_2, align 4
  %cmp = icmp sge i32 %1, 0
  %lnot = xor i1 %cmp, true
  %lnot3 = xor i1 %lnot, true
  %lnot4 = xor i1 %lnot3, true
  br i1 %lnot4, label %if.then, label %if.end

if.then:                                          ; preds = %do.body
  br label %do.body5

do.body5:                                         ; preds = %if.then
  call void @_ZN4node6AssertERKNS_13AssertionInfoE(ptr noundef nonnull align 8 dereferenceable(24) @_ZZN4node11Environment29DecreaseWaitingRequestCounterEvE4args)
  call void @abort() #14
  unreachable

do.end:                                           ; No predecessors!
  br label %if.end

if.end:                                           ; preds = %do.end, %do.body
  br label %do.end6

do.end6:                                          ; preds = %if.end
  ret void
}

; Function Attrs: mustprogress nounwind uwtable
define internal noundef i64 @_ZN4node7tracingL13AddTraceEventIRiEEmcPKhPKcS6_mmjS6_OT_(i8 noundef signext %phase, ptr noundef %category_group_enabled, ptr noundef %name, ptr noundef %scope, i64 noundef %id, i64 noundef %bind_id, i32 noundef %flags, ptr noundef %arg1_name, ptr noundef nonnull align 4 dereferenceable(4) %arg1_val) #4 {
entry:
  %phase.addr = alloca i8, align 1
  %category_group_enabled.addr = alloca ptr, align 8
  %name.addr = alloca ptr, align 8
  %scope.addr = alloca ptr, align 8
  %id.addr = alloca i64, align 8
  %bind_id.addr = alloca i64, align 8
  %flags.addr = alloca i32, align 4
  %arg1_name.addr = alloca ptr, align 8
  %arg1_val.addr = alloca ptr, align 8
  %num_args = alloca i32, align 4
  %arg_type = alloca i8, align 1
  %arg_value = alloca i64, align 8
  store i8 %phase, ptr %phase.addr, align 1
  store ptr %category_group_enabled, ptr %category_group_enabled.addr, align 8
  store ptr %name, ptr %name.addr, align 8
  store ptr %scope, ptr %scope.addr, align 8
  store i64 %id, ptr %id.addr, align 8
  store i64 %bind_id, ptr %bind_id.addr, align 8
  store i32 %flags, ptr %flags.addr, align 4
  store ptr %arg1_name, ptr %arg1_name.addr, align 8
  store ptr %arg1_val, ptr %arg1_val.addr, align 8
  store i32 1, ptr %num_args, align 4
  %0 = load ptr, ptr %arg1_val.addr, align 8
  %1 = load i32, ptr %0, align 4
  call void @_ZN4node7tracingL13SetTraceValueEiPhPm(i32 noundef %1, ptr noundef %arg_type, ptr noundef %arg_value)
  %2 = load i8, ptr %phase.addr, align 1
  %3 = load ptr, ptr %category_group_enabled.addr, align 8
  %4 = load ptr, ptr %name.addr, align 8
  %5 = load ptr, ptr %scope.addr, align 8
  %6 = load i64, ptr %id.addr, align 8
  %7 = load i64, ptr %bind_id.addr, align 8
  %8 = load i32, ptr %flags.addr, align 4
  %call = call noundef i64 @_ZN4node7tracingL17AddTraceEventImplEcPKhPKcS4_mmiPS4_S2_PKmj(i8 noundef signext %2, ptr noundef %3, ptr noundef %4, ptr noundef %5, i64 noundef %6, i64 noundef %7, i32 noundef 1, ptr noundef %arg1_name.addr, ptr noundef %arg_type, ptr noundef %arg_value, i32 noundef %8)
  ret i64 %call
}

; Function Attrs: mustprogress nounwind uwtable
define internal void @_ZN4node7tracingL13SetTraceValueEiPhPm(i32 noundef %arg, ptr noundef %type, ptr noundef %value) #4 {
entry:
  %arg.addr = alloca i32, align 4
  %type.addr = alloca ptr, align 8
  %value.addr = alloca ptr, align 8
  store i32 %arg, ptr %arg.addr, align 4
  store ptr %type, ptr %type.addr, align 8
  store ptr %value, ptr %value.addr, align 8
  %0 = load ptr, ptr %type.addr, align 8
  store i8 3, ptr %0, align 1
  %1 = load i32, ptr %arg.addr, align 4
  %conv = sext i32 %1 to i64
  %2 = load ptr, ptr %value.addr, align 8
  store i64 %conv, ptr %2, align 8
  ret void
}

declare void @_ZN2v812api_internal17FromJustIsNothingEv() #1

declare noundef i32 @_ZN4node6crypto16GetCryptoJobModeEN2v85LocalINS1_5ValueEEE(ptr) #1

; Function Attrs: mustprogress nounwind uwtable
define linkonce_odr dso_local void @_ZN4node6crypto16KeyPairGenConfigINS0_16NidKeyPairParamsEEC2Ev(ptr noundef nonnull align 8 dereferenceable(128) %this) unnamed_addr #4 comdat align 2 {
entry:
  %this.addr = alloca ptr, align 8
  store ptr %this, ptr %this.addr, align 8
  %this1 = load ptr, ptr %this.addr, align 8
  call void @_ZN4node14MemoryRetainerC2Ev(ptr noundef nonnull align 8 dereferenceable(8) %this1) #3
  store ptr getelementptr inbounds ({ [10 x ptr] }, ptr @_ZTVN4node6crypto16KeyPairGenConfigINS0_16NidKeyPairParamsEEE, i32 0, inrange i32 0, i32 2), ptr %this1, align 8
  %public_key_encoding = getelementptr inbounds %"struct.node::crypto::KeyPairGenConfig", ptr %this1, i32 0, i32 1
  call void @_ZN4node6crypto27AsymmetricKeyEncodingConfigC2Ev(ptr noundef nonnull align 4 dereferenceable(16) %public_key_encoding)
  %private_key_encoding = getelementptr inbounds %"struct.node::crypto::KeyPairGenConfig", ptr %this1, i32 0, i32 2
  call void @_ZN4node6crypto24PrivateKeyEncodingConfigC2Ev(ptr noundef nonnull align 8 dereferenceable(56) %private_key_encoding)
  %key = getelementptr inbounds %"struct.node::crypto::KeyPairGenConfig", ptr %this1, i32 0, i32 3
  call void @_ZN4node6crypto14ManagedEVPPKeyC2Ev(ptr noundef nonnull align 8 dereferenceable(32) %key)
  %params = getelementptr inbounds %"struct.node::crypto::KeyPairGenConfig", ptr %this1, i32 0, i32 4
  call void @_ZN4node6crypto16NidKeyPairParamsC2Ev(ptr noundef nonnull align 8 dereferenceable(16) %params) #3
  ret void
}

; Function Attrs: mustprogress nounwind uwtable
define linkonce_odr dso_local i16 @_ZN4node6crypto16KeyPairGenTraitsINS0_19NidKeyPairGenTraitsEE16AdditionalConfigENS0_13CryptoJobModeERKN2v820FunctionCallbackInfoINS5_5ValueEEEPjPNS0_16KeyPairGenConfigINS0_16NidKeyPairParamsEEE(i32 noundef %mode, ptr noundef nonnull align 8 dereferenceable(20) %args, ptr noundef %offset, ptr noundef %params) #4 comdat align 2 {
entry:
  %this.addr.i = alloca ptr, align 8
  %retval = alloca %"class.v8::Maybe", align 1
  %mode.addr = alloca i32, align 4
  %args.addr = alloca ptr, align 8
  %offset.addr = alloca ptr, align 8
  %params.addr = alloca ptr, align 8
  %ref.tmp = alloca %"class.v8::Maybe", align 1
  %ref.tmp2 = alloca i8, align 1
  %ref.tmp4 = alloca %"struct.node::crypto::AsymmetricKeyEncodingConfig", align 4
  %private_key_encoding = alloca %"class.node::NonCopyableMaybe.433", align 8
  %ref.tmp12 = alloca i8, align 1
  store i32 %mode, ptr %mode.addr, align 4
  store ptr %args, ptr %args.addr, align 8
  store ptr %offset, ptr %offset.addr, align 8
  store ptr %params, ptr %params.addr, align 8
  %0 = load i32, ptr %mode.addr, align 4
  %1 = load ptr, ptr %args.addr, align 8
  %2 = load ptr, ptr %offset.addr, align 8
  %3 = load ptr, ptr %params.addr, align 8
  %call = call i16 @_ZN4node6crypto19NidKeyPairGenTraits16AdditionalConfigENS0_13CryptoJobModeERKN2v820FunctionCallbackInfoINS3_5ValueEEEPjPNS0_16KeyPairGenConfigINS0_16NidKeyPairParamsEEE(i32 noundef %0, ptr noundef nonnull align 8 dereferenceable(20) %1, ptr noundef %2, ptr noundef %3)
  store i16 %call, ptr %ref.tmp, align 1
  store ptr %ref.tmp, ptr %this.addr.i, align 8
  %this1.i = load ptr, ptr %this.addr.i, align 8
  %4 = load i8, ptr %this1.i, align 1
  %tobool.i = trunc i8 %4 to i1
  %lnot.i = xor i1 %tobool.i, true
  br i1 %lnot.i, label %if.then, label %if.end

if.then:                                          ; preds = %entry
  store i8 0, ptr %ref.tmp2, align 1
  %call3 = call i16 @_ZN2v84JustIbTnPNSt9enable_ifIXntsr3stdE21is_lvalue_reference_vIT_EEvE4typeELPv0EEENS_5MaybeIS2_EEOS2_(ptr noundef nonnull align 1 dereferenceable(1) %ref.tmp2)
  store i16 %call3, ptr %retval, align 1
  br label %return

if.end:                                           ; preds = %entry
  %5 = load ptr, ptr %args.addr, align 8
  %6 = load ptr, ptr %offset.addr, align 8
  %call5 = call { i64, i64 } @_ZN4node6crypto14ManagedEVPPKey26GetPublicKeyEncodingFromJsERKN2v820FunctionCallbackInfoINS2_5ValueEEEPjNS0_18KeyEncodingContextE(ptr noundef nonnull align 8 dereferenceable(20) %5, ptr noundef %6, i32 noundef 2)
  %7 = getelementptr inbounds { i64, i64 }, ptr %ref.tmp4, i32 0, i32 0
  %8 = extractvalue { i64, i64 } %call5, 0
  store i64 %8, ptr %7, align 4
  %9 = getelementptr inbounds { i64, i64 }, ptr %ref.tmp4, i32 0, i32 1
  %10 = extractvalue { i64, i64 } %call5, 1
  store i64 %10, ptr %9, align 4
  %11 = load ptr, ptr %params.addr, align 8
  %public_key_encoding = getelementptr inbounds %"struct.node::crypto::KeyPairGenConfig", ptr %11, i32 0, i32 1
  call void @llvm.memcpy.p0.p0.i64(ptr align 8 %public_key_encoding, ptr align 4 %ref.tmp4, i64 16, i1 false)
  %12 = load ptr, ptr %args.addr, align 8
  %13 = load ptr, ptr %offset.addr, align 8
  call void @_ZN4node6crypto14ManagedEVPPKey27GetPrivateKeyEncodingFromJsERKN2v820FunctionCallbackInfoINS2_5ValueEEEPjNS0_18KeyEncodingContextE(ptr sret(%"class.node::NonCopyableMaybe.433") align 8 %private_key_encoding, ptr noundef nonnull align 8 dereferenceable(20) %12, ptr noundef %13, i32 noundef 2)
  %call6 = call noundef zeroext i1 @_ZNK4node16NonCopyableMaybeINS_6crypto24PrivateKeyEncodingConfigEE7IsEmptyEv(ptr noundef nonnull align 8 dereferenceable(64) %private_key_encoding)
  br i1 %call6, label %if.end11, label %if.then7

if.then7:                                         ; preds = %if.end
  %call8 = call noundef nonnull align 8 dereferenceable(56) ptr @_ZN4node16NonCopyableMaybeINS_6crypto24PrivateKeyEncodingConfigEE7ReleaseEv(ptr noundef nonnull align 8 dereferenceable(64) %private_key_encoding)
  %14 = load ptr, ptr %params.addr, align 8
  %private_key_encoding9 = getelementptr inbounds %"struct.node::crypto::KeyPairGenConfig", ptr %14, i32 0, i32 2
  %call10 = call noundef nonnull align 8 dereferenceable(56) ptr @_ZN4node6crypto24PrivateKeyEncodingConfigaSEOS1_(ptr noundef nonnull align 8 dereferenceable(56) %private_key_encoding9, ptr noundef nonnull align 8 dereferenceable(56) %call8) #3
  br label %if.end11

if.end11:                                         ; preds = %if.then7, %if.end
  store i8 1, ptr %ref.tmp12, align 1
  %call13 = call i16 @_ZN2v84JustIbTnPNSt9enable_ifIXntsr3stdE21is_lvalue_reference_vIT_EEvE4typeELPv0EEENS_5MaybeIS2_EEOS2_(ptr noundef nonnull align 1 dereferenceable(1) %ref.tmp12)
  store i16 %call13, ptr %retval, align 1
  call void @_ZN4node16NonCopyableMaybeINS_6crypto24PrivateKeyEncodingConfigEED2Ev(ptr noundef nonnull align 8 dereferenceable(64) %private_key_encoding) #3
  br label %return

return:                                           ; preds = %if.end11, %if.then
  %15 = load i16, ptr %retval, align 1
  ret i16 %15
}

; Function Attrs: mustprogress nounwind uwtable
define linkonce_odr dso_local void @_ZN4node6crypto9KeyGenJobINS0_16KeyPairGenTraitsINS0_19NidKeyPairGenTraitsEEEEC2EPNS_11EnvironmentEN2v85LocalINS8_6ObjectEEENS0_13CryptoJobModeEONS0_16KeyPairGenConfigINS0_16NidKeyPairParamsEEE(ptr noundef nonnull align 8 dereferenceable(384) %this, ptr noundef %env, ptr %object.coerce, i32 noundef %mode, ptr noundef nonnull align 8 dereferenceable(128) %params) unnamed_addr #4 comdat align 2 {
entry:
  %object = alloca %"class.v8::Local.23", align 8
  %this.addr = alloca ptr, align 8
  %env.addr = alloca ptr, align 8
  %mode.addr = alloca i32, align 4
  %params.addr = alloca ptr, align 8
  %agg.tmp = alloca %"class.v8::Local.23", align 8
  %coerce.dive = getelementptr inbounds %"class.v8::Local.23", ptr %object, i32 0, i32 0
  %coerce.dive1 = getelementptr inbounds %"class.v8::LocalBase.24", ptr %coerce.dive, i32 0, i32 0
  %coerce.dive2 = getelementptr inbounds %"class.v8::IndirectHandleBase", ptr %coerce.dive1, i32 0, i32 0
  store ptr %object.coerce, ptr %coerce.dive2, align 8
  store ptr %this, ptr %this.addr, align 8
  store ptr %env, ptr %env.addr, align 8
  store i32 %mode, ptr %mode.addr, align 4
  store ptr %params, ptr %params.addr, align 8
  %this3 = load ptr, ptr %this.addr, align 8
  %0 = load ptr, ptr %env.addr, align 8
  call void @llvm.memcpy.p0.p0.i64(ptr align 8 %agg.tmp, ptr align 8 %object, i64 8, i1 false)
  %1 = load i32, ptr %mode.addr, align 4
  %2 = load ptr, ptr %params.addr, align 8
  %coerce.dive4 = getelementptr inbounds %"class.v8::Local.23", ptr %agg.tmp, i32 0, i32 0
  %coerce.dive5 = getelementptr inbounds %"class.v8::LocalBase.24", ptr %coerce.dive4, i32 0, i32 0
  %coerce.dive6 = getelementptr inbounds %"class.v8::IndirectHandleBase", ptr %coerce.dive5, i32 0, i32 0
  %3 = load ptr, ptr %coerce.dive6, align 8
  call void @_ZN4node6crypto9CryptoJobINS0_16KeyPairGenTraitsINS0_19NidKeyPairGenTraitsEEEEC2EPNS_11EnvironmentEN2v85LocalINS8_6ObjectEEENS_9AsyncWrap12ProviderTypeENS0_13CryptoJobModeEONS0_16KeyPairGenConfigINS0_16NidKeyPairParamsEEE(ptr noundef nonnull align 8 dereferenceable(376) %this3, ptr noundef %0, ptr %3, i32 noundef 51, i32 noundef %1, ptr noundef nonnull align 8 dereferenceable(128) %2)
  store ptr getelementptr inbounds ({ [23 x ptr], [6 x ptr] }, ptr @_ZTVN4node6crypto9KeyGenJobINS0_16KeyPairGenTraitsINS0_19NidKeyPairGenTraitsEEEEE, i32 0, inrange i32 0, i32 2), ptr %this3, align 8
  %add.ptr = getelementptr inbounds i8, ptr %this3, i64 56
  store ptr getelementptr inbounds ({ [23 x ptr], [6 x ptr] }, ptr @_ZTVN4node6crypto9KeyGenJobINS0_16KeyPairGenTraitsINS0_19NidKeyPairGenTraitsEEEEE, i32 0, inrange i32 1, i32 2), ptr %add.ptr, align 8
  %status_ = getelementptr inbounds %"class.node::crypto::KeyGenJob", ptr %this3, i32 0, i32 1
  store i32 1, ptr %status_, align 8
  ret void
}

; Function Attrs: mustprogress nounwind uwtable
define linkonce_odr dso_local void @_ZN4node6crypto16KeyPairGenConfigINS0_16NidKeyPairParamsEED2Ev(ptr noundef nonnull align 8 dereferenceable(128) %this) unnamed_addr #4 comdat align 2 {
entry:
  %this.addr = alloca ptr, align 8
  %priv_lock = alloca %"class.node::MutexBase<node::LibuvMutexTraits>::ScopedLock", align 8
  store ptr %this, ptr %this.addr, align 8
  %this1 = load ptr, ptr %this.addr, align 8
  %key = getelementptr inbounds %"struct.node::crypto::KeyPairGenConfig", ptr %this1, i32 0, i32 3
  %call = call noundef ptr @_ZNK4node6crypto14ManagedEVPPKey5mutexEv(ptr noundef nonnull align 8 dereferenceable(32) %key)
  call void @_ZN4node9MutexBaseINS_16LibuvMutexTraitsEE10ScopedLockC2ERKS2_(ptr noundef nonnull align 8 dereferenceable(8) %priv_lock, ptr noundef nonnull align 8 dereferenceable(40) %call)
  call void @_ZN4node9MutexBaseINS_16LibuvMutexTraitsEE10ScopedLockD2Ev(ptr noundef nonnull align 8 dereferenceable(8) %priv_lock) #3
  %params = getelementptr inbounds %"struct.node::crypto::KeyPairGenConfig", ptr %this1, i32 0, i32 4
  call void @_ZN4node6crypto16NidKeyPairParamsD2Ev(ptr noundef nonnull align 8 dereferenceable(16) %params) #3
  %key2 = getelementptr inbounds %"struct.node::crypto::KeyPairGenConfig", ptr %this1, i32 0, i32 3
  call void @_ZN4node6crypto14ManagedEVPPKeyD2Ev(ptr noundef nonnull align 8 dereferenceable(32) %key2) #3
  %private_key_encoding = getelementptr inbounds %"struct.node::crypto::KeyPairGenConfig", ptr %this1, i32 0, i32 2
  call void @_ZN4node6crypto24PrivateKeyEncodingConfigD2Ev(ptr noundef nonnull align 8 dereferenceable(56) %private_key_encoding) #3
  call void @_ZN4node14MemoryRetainerD2Ev(ptr noundef nonnull align 8 dereferenceable(8) %this1) #3
  ret void
}

; Function Attrs: mustprogress nounwind uwtable
define linkonce_odr dso_local void @_ZN4node14MemoryRetainerC2Ev(ptr noundef nonnull align 8 dereferenceable(8) %this) unnamed_addr #4 comdat align 2 {
entry:
  %this.addr = alloca ptr, align 8
  store ptr %this, ptr %this.addr, align 8
  %this1 = load ptr, ptr %this.addr, align 8
  store ptr getelementptr inbounds ({ [10 x ptr] }, ptr @_ZTVN4node14MemoryRetainerE, i32 0, inrange i32 0, i32 2), ptr %this1, align 8
  ret void
}

; Function Attrs: mustprogress nounwind uwtable
define linkonce_odr dso_local void @_ZN4node6crypto27AsymmetricKeyEncodingConfigC2Ev(ptr noundef nonnull align 4 dereferenceable(16) %this) unnamed_addr #4 comdat align 2 {
entry:
  %this.addr = alloca ptr, align 8
  store ptr %this, ptr %this.addr, align 8
  %this1 = load ptr, ptr %this.addr, align 8
  %output_key_object_ = getelementptr inbounds %"struct.node::crypto::AsymmetricKeyEncodingConfig", ptr %this1, i32 0, i32 0
  store i8 0, ptr %output_key_object_, align 4
  %format_ = getelementptr inbounds %"struct.node::crypto::AsymmetricKeyEncodingConfig", ptr %this1, i32 0, i32 1
  store i32 0, ptr %format_, align 4
  %type_ = getelementptr inbounds %"struct.node::crypto::AsymmetricKeyEncodingConfig", ptr %this1, i32 0, i32 2
  %call = call i64 @_ZN2v87NothingIN4node6crypto14PKEncodingTypeEEENS_5MaybeIT_EEv()
  store i64 %call, ptr %type_, align 4
  ret void
}

; Function Attrs: mustprogress nounwind uwtable
define linkonce_odr dso_local void @_ZN4node6crypto24PrivateKeyEncodingConfigC2Ev(ptr noundef nonnull align 8 dereferenceable(56) %this) unnamed_addr #4 comdat align 2 {
entry:
  %this.addr = alloca ptr, align 8
  store ptr %this, ptr %this.addr, align 8
  %this1 = load ptr, ptr %this.addr, align 8
  call void @_ZN4node6crypto27AsymmetricKeyEncodingConfigC2Ev(ptr noundef nonnull align 4 dereferenceable(16) %this1)
  %passphrase_ = getelementptr inbounds %"struct.node::crypto::PrivateKeyEncodingConfig", ptr %this1, i32 0, i32 2
  call void @_ZN4node16NonCopyableMaybeINS_6crypto10ByteSourceEEC2Ev(ptr noundef nonnull align 8 dereferenceable(32) %passphrase_)
  ret void
}

; Function Attrs: mustprogress nounwind uwtable
define linkonce_odr dso_local void @_ZN4node6crypto14ManagedEVPPKeyC2Ev(ptr noundef nonnull align 8 dereferenceable(32) %this) unnamed_addr #4 comdat align 2 {
entry:
  %this.addr = alloca ptr, align 8
  store ptr %this, ptr %this.addr, align 8
  %this1 = load ptr, ptr %this.addr, align 8
  call void @_ZN4node14MemoryRetainerC2Ev(ptr noundef nonnull align 8 dereferenceable(8) %this1) #3
  store ptr getelementptr inbounds ({ [10 x ptr] }, ptr @_ZTVN4node6crypto14ManagedEVPPKeyE, i32 0, inrange i32 0, i32 2), ptr %this1, align 8
  %pkey_ = getelementptr inbounds %"class.node::crypto::ManagedEVPPKey", ptr %this1, i32 0, i32 1
  call void @_ZNSt10unique_ptrI11evp_pkey_stN4node15FunctionDeleterIS0_XadL_Z13EVP_PKEY_freeEEEEEC2IS3_vEEv(ptr noundef nonnull align 8 dereferenceable(8) %pkey_) #3
  %mutex_ = getelementptr inbounds %"class.node::crypto::ManagedEVPPKey", ptr %this1, i32 0, i32 2
  call void @_ZSt11make_sharedIN4node9MutexBaseINS0_16LibuvMutexTraitsEEEJEESt10shared_ptrINSt9enable_ifIXntsr8is_arrayIT_EE5valueES6_E4typeEEDpOT0_(ptr sret(%"class.std::shared_ptr") align 8 %mutex_)
  ret void
}

; Function Attrs: mustprogress nounwind uwtable
define linkonce_odr dso_local void @_ZN4node6crypto16NidKeyPairParamsC2Ev(ptr noundef nonnull align 8 dereferenceable(16) %this) unnamed_addr #4 comdat align 2 {
entry:
  %this.addr = alloca ptr, align 8
  store ptr %this, ptr %this.addr, align 8
  %this1 = load ptr, ptr %this.addr, align 8
  call void @_ZN4node14MemoryRetainerC2Ev(ptr noundef nonnull align 8 dereferenceable(8) %this1) #3
  store ptr getelementptr inbounds ({ [10 x ptr] }, ptr @_ZTVN4node6crypto16NidKeyPairParamsE, i32 0, inrange i32 0, i32 2), ptr %this1, align 8
  ret void
}

; Function Attrs: mustprogress nounwind uwtable
define linkonce_odr dso_local void @_ZN4node6crypto16KeyPairGenConfigINS0_16NidKeyPairParamsEED0Ev(ptr noundef nonnull align 8 dereferenceable(128) %this) unnamed_addr #4 comdat align 2 {
entry:
  %this.addr = alloca ptr, align 8
  store ptr %this, ptr %this.addr, align 8
  %this1 = load ptr, ptr %this.addr, align 8
  call void @_ZN4node6crypto16KeyPairGenConfigINS0_16NidKeyPairParamsEED2Ev(ptr noundef nonnull align 8 dereferenceable(128) %this1) #3
  call void @_ZdlPv(ptr noundef %this1) #15
  ret void
}

; Function Attrs: mustprogress nounwind uwtable
define linkonce_odr dso_local void @_ZNK4node6crypto16KeyPairGenConfigINS0_16NidKeyPairParamsEE10MemoryInfoEPNS_13MemoryTrackerE(ptr noundef nonnull align 8 dereferenceable(128) %this, ptr noundef %tracker) unnamed_addr #4 comdat align 2 {
entry:
  %this.addr = alloca ptr, align 8
  %tracker.addr = alloca ptr, align 8
  store ptr %this, ptr %this.addr, align 8
  store ptr %tracker, ptr %tracker.addr, align 8
  %this1 = load ptr, ptr %this.addr, align 8
  %0 = load ptr, ptr %tracker.addr, align 8
  %key = getelementptr inbounds %"struct.node::crypto::KeyPairGenConfig", ptr %this1, i32 0, i32 3
  call void @_ZN4node13MemoryTracker10TrackFieldEPKcRKNS_14MemoryRetainerES2_(ptr noundef nonnull align 8 dereferenceable(152) %0, ptr noundef @.str.38, ptr noundef nonnull align 8 dereferenceable(8) %key, ptr noundef null)
  %private_key_encoding = getelementptr inbounds %"struct.node::crypto::KeyPairGenConfig", ptr %this1, i32 0, i32 2
