target datalayout = "e-m:e-p270:32:32-p271:32:32-p272:64:64-i64:64-i128:128-f80:128-n8:16:32:64-S128"
target triple = "x86_64-unknown-linux-gnu"

%"class.std::ios_base::Init" = type { i8 }
%"struct.node::AssertionInfo" = type { ptr, ptr, ptr }
%"struct.node::node_module" = type { i32, i32, ptr, ptr, ptr, ptr, ptr, ptr, ptr }
%"struct.std::piecewise_construct_t" = type { i8 }
%"class.v8::Local.28" = type { %"class.v8::LocalBase.29" }
%"class.v8::LocalBase.29" = type { %"class.v8::IndirectHandleBase" }
%"class.v8::IndirectHandleBase" = type { ptr }
%"class.v8::Local.26" = type { %"class.v8::LocalBase.27" }
%"class.v8::LocalBase.27" = type { %"class.v8::IndirectHandleBase" }
%"class.v8::Local" = type { %"class.v8::LocalBase" }
%"class.v8::LocalBase" = type { %"class.v8::IndirectHandleBase" }
%"class.v8::Local.22" = type { %"class.v8::LocalBase.23" }
%"class.v8::LocalBase.23" = type { %"class.v8::IndirectHandleBase" }
%"class.v8::Maybe" = type { i8, i8 }
%"class.v8::Local.24" = type { %"class.v8::LocalBase.25" }
%"class.v8::LocalBase.25" = type { %"class.v8::IndirectHandleBase" }
%"class.node::v8_utils::BindingData" = type { %"class.node::SnapshotableObject.base", %"class.node::AliasedBufferBase", %"class.node::AliasedBufferBase", %"class.node::AliasedBufferBase", ptr }
%"class.node::SnapshotableObject.base" = type <{ %"class.node::BaseObject", i8 }>
%"class.node::BaseObject" = type { %"class.node::MemoryRetainer", %"class.v8::Global", ptr, ptr }
%"class.node::MemoryRetainer" = type { ptr }
%"class.v8::Global" = type { %"class.v8::PersistentBase" }
%"class.v8::PersistentBase" = type { %"class.v8::IndirectHandleBase" }
%"class.node::AliasedBufferBase" = type { %"class.node::MemoryRetainer", ptr, i64, i64, ptr, %"class.v8::Global.0", ptr }
%"class.v8::Global.0" = type { %"class.v8::PersistentBase.1" }
%"class.v8::PersistentBase.1" = type { %"class.v8::IndirectHandleBase" }
%"struct.node::v8_utils::BindingData::InternalFieldInfo" = type { %"struct.node::InternalFieldInfoBase", i64, i64, i64 }
%"struct.node::InternalFieldInfoBase" = type { i8, i64 }
%"class.node::Realm" = type { %"class.node::MemoryRetainer", %"class.std::set", %"class.std::set.2", %"class.std::set.2", %"class.std::vector", ptr, ptr, %"class.v8::Global.13", %"class.v8::Global.15", %"class.v8::Global.15", %"class.v8::Global.15", %"class.v8::Global", %"class.v8::Global.15", %"class.v8::Global.15", %"class.v8::Global.15", %"class.v8::Global", %"class.v8::Global.15", %"class.v8::Global.15", %"class.v8::Global.15", %"class.v8::Global.15", %"class.v8::Global.15", %"class.v8::Global.15", %"class.v8::Global.15", %"class.v8::Global.15", %"class.v8::Global.15", %"class.v8::Global.15", %"class.v8::Global.15", %"class.v8::Global.15", %"class.v8::Global.15", %"class.v8::Global.15", %"class.v8::Global.15", %"class.v8::Global.15", %"class.v8::Global.15", %"class.v8::Global.15", %"class.v8::Global.15", %"class.v8::Global.15", %"class.v8::Global.15", %"class.v8::Global.15", %"class.v8::Global.15", %"class.v8::Global.15", %"class.v8::Global.15", %"class.v8::Global.15", %"class.v8::Global.15", %"class.v8::Global.15", %"class.v8::Global", %"class.v8::Global.15", %"class.v8::Global.15", %"class.v8::Global.15", %"class.v8::Global", %"class.v8::Global", %"class.v8::Global", %"class.v8::Global", %"class.v8::Global", %"class.v8::Global", %"class.v8::Global.15", %"class.v8::Global.15", %"class.v8::Global.15", %"class.v8::Global.15", %"class.v8::Global.15", %"class.v8::Global.15", %"class.v8::Global.15", %"class.v8::Global.15", %"class.v8::Global.15", %"class.v8::Global.15", %"class.v8::Global.15", %"class.v8::Global.15", %"class.v8::Global.15", %"class.v8::Global.15", i32, i8, i64, i64, %"struct.std::array", %"class.node::CleanupQueue" }
%"class.std::set" = type { %"class.std::_Rb_tree" }
%"class.std::_Rb_tree" = type { %"struct.std::_Rb_tree<node::node_module *, node::node_module *, std::_Identity<node::node_module *>, std::less<node::node_module *>>::_Rb_tree_impl" }
%"struct.std::_Rb_tree<node::node_module *, node::node_module *, std::_Identity<node::node_module *>, std::less<node::node_module *>>::_Rb_tree_impl" = type { %"struct.std::_Rb_tree_key_compare", %"struct.std::_Rb_tree_header" }
%"struct.std::_Rb_tree_key_compare" = type { %"struct.std::less" }
%"struct.std::less" = type { i8 }
%"struct.std::_Rb_tree_header" = type { %"struct.std::_Rb_tree_node_base", i64 }
%"struct.std::_Rb_tree_node_base" = type { i32, ptr, ptr, ptr }
%"class.std::set.2" = type { %"class.std::_Rb_tree.3" }
%"class.std::_Rb_tree.3" = type { %"struct.std::_Rb_tree<std::__cxx11::basic_string<char>, std::__cxx11::basic_string<char>, std::_Identity<std::__cxx11::basic_string<char>>, std::less<std::__cxx11::basic_string<char>>>::_Rb_tree_impl" }
%"struct.std::_Rb_tree<std::__cxx11::basic_string<char>, std::__cxx11::basic_string<char>, std::_Identity<std::__cxx11::basic_string<char>>, std::less<std::__cxx11::basic_string<char>>>::_Rb_tree_impl" = type { %"struct.std::_Rb_tree_key_compare.7", %"struct.std::_Rb_tree_header" }
%"struct.std::_Rb_tree_key_compare.7" = type { %"struct.std::less.8" }
%"struct.std::less.8" = type { i8 }
%"class.std::vector" = type { %"struct.std::_Vector_base" }
%"struct.std::_Vector_base" = type { %"struct.std::_Vector_base<std::__cxx11::basic_string<char>, std::allocator<std::__cxx11::basic_string<char>>>::_Vector_impl" }
%"struct.std::_Vector_base<std::__cxx11::basic_string<char>, std::allocator<std::__cxx11::basic_string<char>>>::_Vector_impl" = type { %"struct.std::_Vector_base<std::__cxx11::basic_string<char>, std::allocator<std::__cxx11::basic_string<char>>>::_Vector_impl_data" }
%"struct.std::_Vector_base<std::__cxx11::basic_string<char>, std::allocator<std::__cxx11::basic_string<char>>>::_Vector_impl_data" = type { ptr, ptr, ptr }
%"class.v8::Global.13" = type { %"class.v8::PersistentBase.14" }
%"class.v8::PersistentBase.14" = type { %"class.v8::IndirectHandleBase" }
%"class.v8::Global.15" = type { %"class.v8::PersistentBase.16" }
%"class.v8::PersistentBase.16" = type { %"class.v8::IndirectHandleBase" }
%"struct.std::array" = type { [12 x %"class.node::BaseObjectPtrImpl"] }
%"class.node::BaseObjectPtrImpl" = type { %union.anon }
%union.anon = type { ptr }
%"class.node::CleanupQueue" = type { %"class.node::MemoryRetainer", %"class.std::unordered_set", i64 }
%"class.std::unordered_set" = type { %"class.std::_Hashtable" }
%"class.std::_Hashtable" = type { ptr, i64, %"struct.std::__detail::_Hash_node_base", i64, %"struct.std::__detail::_Prime_rehash_policy", ptr }
%"struct.std::__detail::_Hash_node_base" = type { ptr }
%"struct.std::__detail::_Prime_rehash_policy" = type { float, i64 }
%"class.v8::HandleScope" = type { ptr, ptr, ptr }
%"class.v8::Local.341" = type { %"class.v8::LocalBase.342" }
%"class.v8::LocalBase.342" = type { %"class.v8::IndirectHandleBase" }
%"class.v8::MaybeLocal.343" = type { %"class.v8::Local.28" }
%"class.node::SnapshotableObject" = type <{ %"class.node::BaseObject", i8, [7 x i8] }>
%"class.node::BaseObjectPtrImpl.344" = type { %union.anon.345 }
%union.anon.345 = type { ptr }
%"class.v8::Local.49" = type { %"class.v8::LocalBase.50" }
%"class.v8::LocalBase.50" = type { %"class.v8::IndirectHandleBase" }
%"class.v8::ReturnValue" = type { ptr }
%"class.node::Environment" = type { %"class.node::MemoryRetainer", %"class.std::unordered_multimap", %"class.std::__cxx11::list", ptr, ptr, %struct.uv_timer_s, %struct.uv_check_s, %struct.uv_idle_s, %struct.uv_prepare_s, %struct.uv_check_s, %struct.uv_async_s, i64, %"struct.std::atomic", %"struct.std::atomic", %"class.node::AsyncHooks", %"class.node::ImmediateInfo", %"class.node::AliasedBufferBase.89", %"class.node::TickInfo", %"class.node::permission::Permission", i64, %"class.std::shared_ptr", i8, i8, i8, i8, i8, i8, i64, %"class.std::vector.115", %"class.std::unordered_set.120", %"class.std::unique_ptr", %"class.std::unique_ptr.142", %"class.std::__cxx11::basic_string", %"class.std::__cxx11::basic_string", %"class.std::__cxx11::basic_string", i64, %"class.std::unique_ptr.154", %"class.std::__cxx11::basic_string", %"class.std::__cxx11::basic_string", i64, %"class.std::shared_ptr.162", %"class.std::shared_ptr.165", %"class.std::vector", %"class.std::vector", %"class.std::__cxx11::basic_string", i8, i32, i32, i8, i32, i32, i32, i32, %"class.node::AliasedBufferBase.89", %"class.node::AliasedBufferBase.78", i32, %"class.std::unique_ptr.168", %"class.node::AliasedBufferBase.89", i64, double, i64, %"class.std::unique_ptr.176", i8, i64, i64, %"class.std::unordered_set.184", %"class.std::unique_ptr.204", i8, %"class.std::__cxx11::list.212", %"class.node::ListHead", %"class.node::ListHead.217", %"class.std::__cxx11::list.219", i32, i32, %"class.node::EnabledDebugList", %"class.std::vector.224", %"class.std::__cxx11::list.229", %"class.node::MutexBase", %"class.std::__cxx11::list.234", %"class.node::CallbackQueue", %"class.node::MutexBase", %"class.node::CallbackQueue", %"class.node::CallbackQueue", i8, %"struct.std::atomic.249", %"class.node::CleanupQueue", i8, %"class.std::unordered_set.251", %"class.std::function", %"class.std::unique_ptr.266", %"class.node::builtins::BuiltinLoader", %"class.std::function.280", %"class.std::unordered_map.282" }
%"class.std::unordered_multimap" = type { %"class.std::_Hashtable.51" }
%"class.std::_Hashtable.51" = type { ptr, i64, %"struct.std::__detail::_Hash_node_base", i64, %"struct.std::__detail::_Prime_rehash_policy", ptr }
%"class.std::__cxx11::list" = type { %"class.std::__cxx11::_List_base" }
%"class.std::__cxx11::_List_base" = type { %"struct.std::__cxx11::_List_base<node::binding::DLib, std::allocator<node::binding::DLib>>::_List_impl" }
%"struct.std::__cxx11::_List_base<node::binding::DLib, std::allocator<node::binding::DLib>>::_List_impl" = type { %"struct.std::__detail::_List_node_header" }
%"struct.std::__detail::_List_node_header" = type { %"struct.std::__detail::_List_node_base", i64 }
%"struct.std::__detail::_List_node_base" = type { ptr, ptr }
%struct.uv_timer_s = type { ptr, ptr, i32, ptr, %struct.uv__queue, %union.anon.73, ptr, i32, ptr, [3 x ptr], i64, i64, i64 }
%struct.uv__queue = type { ptr, ptr }
%union.anon.73 = type { [4 x ptr] }
%struct.uv_idle_s = type { ptr, ptr, i32, ptr, %struct.uv__queue, %union.anon.75, ptr, i32, ptr, %struct.uv__queue }
%union.anon.75 = type { [4 x ptr] }
%struct.uv_prepare_s = type { ptr, ptr, i32, ptr, %struct.uv__queue, %union.anon.76, ptr, i32, ptr, %struct.uv__queue }
%union.anon.76 = type { [4 x ptr] }
%struct.uv_check_s = type { ptr, ptr, i32, ptr, %struct.uv__queue, %union.anon.74, ptr, i32, ptr, %struct.uv__queue }
%union.anon.74 = type { [4 x ptr] }
%struct.uv_async_s = type { ptr, ptr, i32, ptr, %struct.uv__queue, %union.anon.77, ptr, i32, ptr, %struct.uv__queue, i32 }
%union.anon.77 = type { [4 x ptr] }
%"struct.std::atomic" = type { %"struct.std::__atomic_base" }
%"struct.std::__atomic_base" = type { i8 }
%"class.node::AsyncHooks" = type { %"class.node::MemoryRetainer", %"class.node::AliasedBufferBase", %"class.node::AliasedBufferBase.78", %"class.node::AliasedBufferBase", %"class.v8::Global.81", %"class.std::vector.83", ptr, %"struct.std::array.88" }
%"class.v8::Global.81" = type { %"class.v8::PersistentBase.82" }
%"class.v8::PersistentBase.82" = type { %"class.v8::IndirectHandleBase" }
%"class.std::vector.83" = type { %"struct.std::_Vector_base.84" }
%"struct.std::_Vector_base.84" = type { %"struct.std::_Vector_base<v8::Local<v8::Object>, std::allocator<v8::Local<v8::Object>>>::_Vector_impl" }
%"struct.std::_Vector_base<v8::Local<v8::Object>, std::allocator<v8::Local<v8::Object>>>::_Vector_impl" = type { %"struct.std::_Vector_base<v8::Local<v8::Object>, std::allocator<v8::Local<v8::Object>>>::_Vector_impl_data" }
%"struct.std::_Vector_base<v8::Local<v8::Object>, std::allocator<v8::Local<v8::Object>>>::_Vector_impl_data" = type { ptr, ptr, ptr }
%"struct.std::array.88" = type { [4 x %"class.v8::Global.15"] }
%"class.node::ImmediateInfo" = type { %"class.node::MemoryRetainer", %"class.node::AliasedBufferBase.78" }
%"class.node::TickInfo" = type { %"class.node::MemoryRetainer", %"class.node::AliasedBufferBase.92" }
%"class.node::AliasedBufferBase.92" = type { %"class.node::MemoryRetainer", ptr, i64, i64, ptr, %"class.v8::Global.93", ptr }
%"class.v8::Global.93" = type { %"class.v8::PersistentBase.94" }
%"class.v8::PersistentBase.94" = type { %"class.v8::IndirectHandleBase" }
%"class.node::permission::Permission" = type <{ %"class.std::unordered_map.95", i8, [7 x i8] }>
%"class.std::unordered_map.95" = type { %"class.std::_Hashtable.96" }
%"class.std::_Hashtable.96" = type { ptr, i64, %"struct.std::__detail::_Hash_node_base", i64, %"struct.std::__detail::_Prime_rehash_policy", ptr }
%"class.std::shared_ptr" = type { %"class.std::__shared_ptr" }
%"class.std::__shared_ptr" = type { ptr, %"class.std::__shared_count" }
%"class.std::__shared_count" = type { ptr }
%"class.std::vector.115" = type { %"struct.std::_Vector_base.116" }
%"struct.std::_Vector_base.116" = type { %"struct.std::_Vector_base<double, std::allocator<double>>::_Vector_impl" }
%"struct.std::_Vector_base<double, std::allocator<double>>::_Vector_impl" = type { %"struct.std::_Vector_base<double, std::allocator<double>>::_Vector_impl_data" }
%"struct.std::_Vector_base<double, std::allocator<double>>::_Vector_impl_data" = type { ptr, ptr, ptr }
%"class.std::unordered_set.120" = type { %"class.std::_Hashtable.121" }
%"class.std::_Hashtable.121" = type { ptr, i64, %"struct.std::__detail::_Hash_node_base", i64, %"struct.std::__detail::_Prime_rehash_policy", ptr }
%"class.std::unique_ptr" = type { %"struct.std::__uniq_ptr_data" }
%"struct.std::__uniq_ptr_data" = type { %"class.std::__uniq_ptr_impl" }
%"class.std::__uniq_ptr_impl" = type { %"class.std::tuple" }
%"class.std::tuple" = type { %"struct.std::_Tuple_impl" }
%"struct.std::_Tuple_impl" = type { %"struct.std::_Head_base.141" }
%"struct.std::_Head_base.141" = type { ptr }
%"class.std::unique_ptr.142" = type { %"struct.std::__uniq_ptr_data.143" }
%"struct.std::__uniq_ptr_data.143" = type { %"class.std::__uniq_ptr_impl.144" }
%"class.std::__uniq_ptr_impl.144" = type { %"class.std::tuple.145" }
%"class.std::tuple.145" = type { %"struct.std::_Tuple_impl.146" }
%"struct.std::_Tuple_impl.146" = type { %"struct.std::_Head_base.149" }
%"struct.std::_Head_base.149" = type { ptr }
%"class.std::unique_ptr.154" = type { %"struct.std::__uniq_ptr_data.155" }
%"struct.std::__uniq_ptr_data.155" = type { %"class.std::__uniq_ptr_impl.156" }
%"class.std::__uniq_ptr_impl.156" = type { %"class.std::tuple.157" }
%"class.std::tuple.157" = type { %"struct.std::_Tuple_impl.158" }
%"struct.std::_Tuple_impl.158" = type { %"struct.std::_Head_base.161" }
%"struct.std::_Head_base.161" = type { ptr }
%"class.std::shared_ptr.162" = type { %"class.std::__shared_ptr.163" }
%"class.std::__shared_ptr.163" = type { ptr, %"class.std::__shared_count" }
%"class.std::shared_ptr.165" = type { %"class.std::__shared_ptr.166" }
%"class.std::__shared_ptr.166" = type { ptr, %"class.std::__shared_count" }
%"class.std::__cxx11::basic_string" = type { %"struct.std::__cxx11::basic_string<char>::_Alloc_hider", i64, %union.anon.153 }
%"struct.std::__cxx11::basic_string<char>::_Alloc_hider" = type { ptr }
%union.anon.153 = type { i64, [8 x i8] }
%"class.node::AliasedBufferBase.78" = type { %"class.node::MemoryRetainer", ptr, i64, i64, ptr, %"class.v8::Global.79", ptr }
%"class.v8::Global.79" = type { %"class.v8::PersistentBase.80" }
%"class.v8::PersistentBase.80" = type { %"class.v8::IndirectHandleBase" }
%"class.std::unique_ptr.168" = type { %"struct.std::__uniq_ptr_data.169" }
%"struct.std::__uniq_ptr_data.169" = type { %"class.std::__uniq_ptr_impl.170" }
%"class.std::__uniq_ptr_impl.170" = type { %"class.std::tuple.171" }
%"class.std::tuple.171" = type { %"struct.std::_Tuple_impl.172" }
%"struct.std::_Tuple_impl.172" = type { %"struct.std::_Head_base.175" }
%"struct.std::_Head_base.175" = type { ptr }
%"class.node::AliasedBufferBase.89" = type { %"class.node::MemoryRetainer", ptr, i64, i64, ptr, %"class.v8::Global.90", ptr }
%"class.v8::Global.90" = type { %"class.v8::PersistentBase.91" }
%"class.v8::PersistentBase.91" = type { %"class.v8::IndirectHandleBase" }
%"class.std::unique_ptr.176" = type { %"struct.std::__uniq_ptr_data.177" }
%"struct.std::__uniq_ptr_data.177" = type { %"class.std::__uniq_ptr_impl.178" }
%"class.std::__uniq_ptr_impl.178" = type { %"class.std::tuple.179" }
%"class.std::tuple.179" = type { %"struct.std::_Tuple_impl.180" }
%"struct.std::_Tuple_impl.180" = type { %"struct.std::_Head_base.183" }
%"struct.std::_Head_base.183" = type { ptr }
%"class.std::unordered_set.184" = type { %"class.std::_Hashtable.185" }
%"class.std::_Hashtable.185" = type { ptr, i64, %"struct.std::__detail::_Hash_node_base", i64, %"struct.std::__detail::_Prime_rehash_policy", ptr }
%"class.std::unique_ptr.204" = type { %"struct.std::__uniq_ptr_data.205" }
%"struct.std::__uniq_ptr_data.205" = type { %"class.std::__uniq_ptr_impl.206" }
%"class.std::__uniq_ptr_impl.206" = type { %"class.std::tuple.207" }
%"class.std::tuple.207" = type { %"struct.std::_Tuple_impl.208" }
%"struct.std::_Tuple_impl.208" = type { %"struct.std::_Head_base.211" }
%"struct.std::_Head_base.211" = type { ptr }
%"class.std::__cxx11::list.212" = type { %"class.std::__cxx11::_List_base.213" }
%"class.std::__cxx11::_List_base.213" = type { %"struct.std::__cxx11::_List_base<node::DeserializeRequest, std::allocator<node::DeserializeRequest>>::_List_impl" }
%"struct.std::__cxx11::_List_base<node::DeserializeRequest, std::allocator<node::DeserializeRequest>>::_List_impl" = type { %"struct.std::__detail::_List_node_header" }
%"class.node::ListHead" = type { %"class.node::ListNode" }
%"class.node::ListNode" = type { ptr, ptr }
%"class.node::ListHead.217" = type { %"class.node::ListNode.218" }
%"class.node::ListNode.218" = type { ptr, ptr }
%"class.std::__cxx11::list.219" = type { %"class.std::__cxx11::_List_base.220" }
%"class.std::__cxx11::_List_base.220" = type { %"struct.std::__cxx11::_List_base<node::Environment::HandleCleanup, std::allocator<node::Environment::HandleCleanup>>::_List_impl" }
%"struct.std::__cxx11::_List_base<node::Environment::HandleCleanup, std::allocator<node::Environment::HandleCleanup>>::_List_impl" = type { %"struct.std::__detail::_List_node_header" }
%"class.node::EnabledDebugList" = type { [75 x i8] }
%"class.std::vector.224" = type { %"struct.std::_Vector_base.225" }
%"struct.std::_Vector_base.225" = type { %"struct.std::_Vector_base<v8::Global<v8::Context>, std::allocator<v8::Global<v8::Context>>>::_Vector_impl" }
%"struct.std::_Vector_base<v8::Global<v8::Context>, std::allocator<v8::Global<v8::Context>>>::_Vector_impl" = type { %"struct.std::_Vector_base<v8::Global<v8::Context>, std::allocator<v8::Global<v8::Context>>>::_Vector_impl_data" }
%"struct.std::_Vector_base<v8::Global<v8::Context>, std::allocator<v8::Global<v8::Context>>>::_Vector_impl_data" = type { ptr, ptr, ptr }
%"class.std::__cxx11::list.229" = type { %"class.std::__cxx11::_List_base.230" }
%"class.std::__cxx11::_List_base.230" = type { %"struct.std::__cxx11::_List_base<node::node_module, std::allocator<node::node_module>>::_List_impl" }
%"struct.std::__cxx11::_List_base<node::node_module, std::allocator<node::node_module>>::_List_impl" = type { %"struct.std::__detail::_List_node_header" }
%"class.std::__cxx11::list.234" = type { %"class.std::__cxx11::_List_base.235" }
%"class.std::__cxx11::_List_base.235" = type { %"struct.std::__cxx11::_List_base<node::Environment::ExitCallback, std::allocator<node::Environment::ExitCallback>>::_List_impl" }
%"struct.std::__cxx11::_List_base<node::Environment::ExitCallback, std::allocator<node::Environment::ExitCallback>>::_List_impl" = type { %"struct.std::__detail::_List_node_header" }
%"class.node::MutexBase" = type { %union.pthread_mutex_t }
%union.pthread_mutex_t = type { %struct.__pthread_mutex_s }
%struct.__pthread_mutex_s = type { i32, i32, i32, i32, i32, i16, i16, %struct.__pthread_internal_list }
%struct.__pthread_internal_list = type { ptr, ptr }
%"class.node::CallbackQueue" = type { %"struct.std::atomic.239", %"class.std::unique_ptr.241", ptr }
%"struct.std::atomic.239" = type { %"struct.std::__atomic_base.240" }
%"struct.std::__atomic_base.240" = type { i64 }
%"class.std::unique_ptr.241" = type { %"struct.std::__uniq_ptr_data.242" }
%"struct.std::__uniq_ptr_data.242" = type { %"class.std::__uniq_ptr_impl.243" }
%"class.std::__uniq_ptr_impl.243" = type { %"class.std::tuple.244" }
%"class.std::tuple.244" = type { %"struct.std::_Tuple_impl.245" }
%"struct.std::_Tuple_impl.245" = type { %"struct.std::_Head_base.248" }
%"struct.std::_Head_base.248" = type { ptr }
%"struct.std::atomic.249" = type { %"struct.std::__atomic_base.250" }
%"struct.std::__atomic_base.250" = type { ptr }
%"class.std::unordered_set.251" = type { %"class.std::_Hashtable.252" }
%"class.std::_Hashtable.252" = type { ptr, i64, %"struct.std::__detail::_Hash_node_base", i64, %"struct.std::__detail::_Prime_rehash_policy", ptr }
%"class.std::function" = type { %"class.std::_Function_base", ptr }
%"class.std::_Function_base" = type { %"union.std::_Any_data", ptr }
%"union.std::_Any_data" = type { %"union.std::_Nocopy_types" }
%"union.std::_Nocopy_types" = type { { i64, i64 } }
%"class.std::unique_ptr.266" = type { %"struct.std::__uniq_ptr_data.267" }
%"struct.std::__uniq_ptr_data.267" = type { %"class.std::__uniq_ptr_impl.268" }
%"class.std::__uniq_ptr_impl.268" = type { %"class.std::tuple.269" }
%"class.std::tuple.269" = type { %"struct.std::_Tuple_impl.270" }
%"struct.std::_Tuple_impl.270" = type { %"struct.std::_Head_base.273" }
%"struct.std::_Head_base.273" = type { ptr }
%"class.node::builtins::BuiltinLoader" = type { %"class.node::ThreadsafeCopyOnWrite", %"class.node::UnionBytes", %"class.std::shared_ptr.277" }
%"class.node::ThreadsafeCopyOnWrite" = type { %"class.node::CopyOnWrite" }
%"class.node::CopyOnWrite" = type { %"class.std::shared_ptr.274" }
%"class.std::shared_ptr.274" = type { %"class.std::__shared_ptr.275" }
%"class.std::__shared_ptr.275" = type { ptr, %"class.std::__shared_count" }
%"class.node::UnionBytes" = type { ptr, ptr }
%"class.std::shared_ptr.277" = type { %"class.std::__shared_ptr.278" }
%"class.std::__shared_ptr.278" = type { ptr, %"class.std::__shared_count" }
%"class.std::function.280" = type { %"class.std::_Function_base", ptr }
%"class.std::unordered_map.282" = type { %"class.std::_Hashtable.283" }
%"class.std::_Hashtable.283" = type { ptr, i64, %"struct.std::__detail::_Hash_node_base", i64, %"struct.std::__detail::_Prime_rehash_policy", ptr }
%"class.v8::Local.302" = type { %"class.v8::LocalBase.303" }
%"class.v8::LocalBase.303" = type { %"class.v8::IndirectHandleBase" }
%"class.v8::LocalBase.340" = type { %"class.v8::IndirectHandleBase" }
%"class.v8::Local.339" = type { %"class.v8::LocalBase.340" }
%"class.v8::FunctionCallbackInfo" = type <{ ptr, ptr, i32, [4 x i8] }>
%"class.v8::HeapStatistics" = type { i64, i64, i64, i64, i64, i64, i64, i64, i64, i8, i64, i64, i64, i64 }
%"class.node::AliasedBufferBase<double, v8::Float64Array>::Reference" = type { ptr, i64 }
%"class.v8::HeapSpaceStatistics" = type { ptr, i64, i64, i64, i64 }
%"class.v8::HeapCodeStatistics" = type { i64, i64, i64, i64 }
%"class.v8::String::Utf8Value" = type <{ ptr, i32, [4 x i8] }>
%"class.node::v8_utils::GCProfiler" = type { %"class.node::BaseObject", i64, i8, i32, %"class.std::__cxx11::basic_ostringstream", %"class.node::JSONWriter" }
%"class.std::__cxx11::basic_ostringstream" = type { %"class.std::basic_ostream.base", %"class.std::__cxx11::basic_stringbuf", %"class.std::basic_ios" }
%"class.std::basic_ostream.base" = type { ptr }
%"class.std::__cxx11::basic_stringbuf" = type { %"class.std::basic_streambuf", i32, %"class.std::__cxx11::basic_string" }
%"class.std::basic_streambuf" = type { ptr, ptr, ptr, ptr, ptr, ptr, ptr, %"class.std::locale" }
%"class.std::locale" = type { ptr }
%"class.std::basic_ios" = type { %"class.std::ios_base", ptr, i8, i8, ptr, ptr, ptr, ptr }
%"class.std::ios_base" = type { ptr, i64, i64, i32, i32, i32, ptr, %"struct.std::ios_base::_Words", [8 x %"struct.std::ios_base::_Words"], i32, ptr, %"class.std::locale" }
%"struct.std::ios_base::_Words" = type { ptr, i64 }
%"class.node::JSONWriter" = type <{ ptr, i8, [3 x i8], i32, i32, [4 x i8] }>
%struct.uv_timeval64_t = type { i64, i32 }
%"class.std::basic_string_view" = type { i64, ptr }
%"class.v8::MaybeLocal" = type { %"class.v8::Local.26" }
%"class.v8::Local.304" = type { %"class.v8::LocalBase.305" }
%"class.v8::LocalBase.305" = type { %"class.v8::IndirectHandleBase" }
%"class.node::MaybeStackBuffer" = type { i64, i64, ptr, [16 x %"class.v8::Local.24"] }
%"class.v8::Local.306" = type { %"class.v8::LocalBase.307" }
%"class.v8::LocalBase.307" = type { %"class.v8::IndirectHandleBase" }
%"class.v8::Local.308" = type { %"class.v8::LocalBase.309" }
%"class.v8::LocalBase.309" = type { %"class.v8::IndirectHandleBase" }
%"class.v8::Local.310" = type { %"class.v8::LocalBase.311" }
%"class.v8::LocalBase.311" = type { %"class.v8::IndirectHandleBase" }
%"struct.std::__detail::_Node_iterator" = type { %"struct.std::__detail::_Node_iterator_base" }
%"struct.std::__detail::_Node_iterator_base" = type { ptr }
%"class.node::MemoryTracker" = type { ptr, ptr, %"class.std::stack", %"class.std::unordered_map" }
%"class.std::stack" = type { %"class.std::deque" }
%"class.std::deque" = type { %"class.std::_Deque_base" }
%"class.std::_Deque_base" = type { %"struct.std::_Deque_base<node::MemoryRetainerNode *, std::allocator<node::MemoryRetainerNode *>>::_Deque_impl" }
%"struct.std::_Deque_base<node::MemoryRetainerNode *, std::allocator<node::MemoryRetainerNode *>>::_Deque_impl" = type { %"struct.std::_Deque_base<node::MemoryRetainerNode *, std::allocator<node::MemoryRetainerNode *>>::_Deque_impl_data" }
%"struct.std::_Deque_base<node::MemoryRetainerNode *, std::allocator<node::MemoryRetainerNode *>>::_Deque_impl_data" = type { ptr, i64, %"struct.std::_Deque_iterator", %"struct.std::_Deque_iterator" }
%"struct.std::_Deque_iterator" = type { ptr, ptr, ptr, ptr }
%"class.std::unordered_map" = type { %"class.std::_Hashtable.33" }
%"class.std::_Hashtable.33" = type { ptr, i64, %"struct.std::__detail::_Hash_node_base", i64, %"struct.std::__detail::_Prime_rehash_policy", ptr }
%"struct.std::pair" = type { ptr, ptr }
%"class.node::MemoryRetainerNode" = type <{ %"class.v8::EmbedderGraph::Node", ptr, ptr, i8, [7 x i8], ptr, i64, i8, [7 x i8] }>
%"class.v8::EmbedderGraph::Node" = type { ptr }
%"struct.std::__detail::_Select1st" = type { i8 }
%"struct.std::__detail::_Hash_node_value_base" = type { %"struct.__gnu_cxx::__aligned_buffer" }
%"struct.__gnu_cxx::__aligned_buffer" = type { %"union.std::aligned_storage<16, 8>::type" }
%"union.std::aligned_storage<16, 8>::type" = type { [16 x i8] }
%"struct.std::__detail::_Mod_range_hashing" = type { i8 }
%"struct.std::_Deque_iterator.317" = type { ptr, ptr, ptr, ptr }
%"class.std::unique_ptr.318" = type { %"struct.std::__uniq_ptr_data.319" }
%"struct.std::__uniq_ptr_data.319" = type { %"class.std::__uniq_ptr_impl.320" }
%"class.std::__uniq_ptr_impl.320" = type { %"class.std::tuple.321" }
%"class.std::tuple.321" = type { %"struct.std::_Tuple_impl.322" }
%"struct.std::_Tuple_impl.322" = type { %"struct.std::_Head_base.325" }
%"struct.std::_Head_base.325" = type { ptr }
%"struct.std::_Hashtable<const node::MemoryRetainer *, std::pair<const node::MemoryRetainer *const, node::MemoryRetainerNode *>, std::allocator<std::pair<const node::MemoryRetainer *const, node::MemoryRetainerNode *>>, std::__detail::_Select1st, std::equal_to<const node::MemoryRetainer *>, std::hash<const node::MemoryRetainer *>, std::__detail::_Mod_range_hashing, std::__detail::_Default_ranged_hash, std::__detail::_Prime_rehash_policy, std::__detail::_Hashtable_traits<false, false, true>>::_Scoped_node" = type { ptr, ptr }
%"class.std::tuple.326" = type { %"struct.std::_Tuple_impl.327" }
%"struct.std::_Tuple_impl.327" = type { %"struct.std::_Head_base.328" }
%"struct.std::_Head_base.328" = type { ptr }
%"class.std::tuple.329" = type { i8 }
%"struct.std::pair.331" = type { i8, i64 }
%"class.std::allocator.333" = type { i8 }
%"class.std::allocator.336" = type { i8 }
%"class.node::ExternalReferenceRegistry" = type { i8, %"class.std::vector.312" }
%"class.std::vector.312" = type { %"struct.std::_Vector_base.313" }
%"struct.std::_Vector_base.313" = type { %"struct.std::_Vector_base<long, std::allocator<long>>::_Vector_impl" }
%"struct.std::_Vector_base<long, std::allocator<long>>::_Vector_impl" = type { %"struct.std::_Vector_base<long, std::allocator<long>>::_Vector_impl_data" }
%"struct.std::_Vector_base<long, std::allocator<long>>::_Vector_impl_data" = type { ptr, ptr, ptr }
%"class.__gnu_cxx::__normal_iterator" = type { ptr }
%"struct.node::BaseObject::PointerData" = type { i32, i32, i8, i8, ptr }

$_ZNK4node5Realm7isolateEv = comdat any

$_ZN4node17AliasedBufferBaseIdN2v812Float64ArrayEEC2EPNS1_7IsolateEmPKm = comdat any

$_ZN4node21FIXED_ONE_BYTE_STRINGILi21EEEN2v85LocalINS1_6StringEEEPNS1_7IsolateERAT__Kc = comdat any

$_ZNK4node17AliasedBufferBaseIdN2v812Float64ArrayEE10GetJSArrayEv = comdat any

$_ZN4node21FIXED_ONE_BYTE_STRINGILi25EEEN2v85LocalINS1_6StringEEEPNS1_7IsolateERAT__Kc = comdat any

$_ZN4node21FIXED_ONE_BYTE_STRINGILi26EEEN2v85LocalINS1_6StringEEEPNS1_7IsolateERAT__Kc = comdat any

$_ZN4node17AliasedBufferBaseIdN2v812Float64ArrayEE11DeserializeENS1_5LocalINS1_7ContextEEE = comdat any

$_ZN4node17AliasedBufferBaseIdN2v812Float64ArrayEE8MakeWeakEv = comdat any

$_ZN4node21InternalFieldInfoBase3NewINS_8v8_utils11BindingData17InternalFieldInfoEEEPT_NS_18EmbedderObjectTypeE = comdat any

$_ZN4node18SnapshotableObject4typeEv = comdat any

$_ZN4node17AliasedBufferBaseIdN2v812Float64ArrayEE9SerializeENS1_5LocalINS1_7ContextEEEPNS1_15SnapshotCreatorE = comdat any

$_ZN4node5Realm10GetCurrentEN2v85LocalINS1_7ContextEEE = comdat any

$_ZN4node5Realm14AddBindingDataINS_8v8_utils11BindingDataEJRPNS3_17InternalFieldInfoEEEEPT_N2v85LocalINS9_6ObjectEEEDpOT0_ = comdat any

$_ZN4node13MemoryTracker10TrackFieldEPKcRKNS_14MemoryRetainerES2_ = comdat any

$_ZN4node11Environment10GetCurrentERKN2v820FunctionCallbackInfoINS1_5ValueEEE = comdat any

$_ZNK4node11Environment7isolateEv = comdat any

$_ZN4node11Environment36AddHeapSnapshotNearHeapLimitCallbackEv = comdat any

$_ZN4node11Environment33set_heap_snapshot_near_heap_limitEj = comdat any

$_ZN4node5Realm14GetBindingDataINS_8v8_utils11BindingDataEEEPT_RKN2v820FunctionCallbackInfoINS6_5ValueEEE = comdat any

$_ZN2v814HeapStatistics15total_heap_sizeEv = comdat any

$_ZN4node17AliasedBufferBaseIdN2v812Float64ArrayEEixEm = comdat any

$_ZN4node17AliasedBufferBaseIdN2v812Float64ArrayEE9ReferenceaSERKd = comdat any

$_ZN2v814HeapStatistics26total_heap_size_executableEv = comdat any

$_ZN2v814HeapStatistics19total_physical_sizeEv = comdat any

$_ZN2v814HeapStatistics20total_available_sizeEv = comdat any

$_ZN2v814HeapStatistics14used_heap_sizeEv = comdat any

$_ZN2v814HeapStatistics15heap_size_limitEv = comdat any

$_ZN2v814HeapStatistics15malloced_memoryEv = comdat any

$_ZN2v814HeapStatistics20peak_malloced_memoryEv = comdat any

$_ZN2v814HeapStatistics16does_zap_garbageEv = comdat any

$_ZN2v814HeapStatistics25number_of_native_contextsEv = comdat any

$_ZN2v814HeapStatistics27number_of_detached_contextsEv = comdat any

$_ZN2v814HeapStatistics25total_global_handles_sizeEv = comdat any

$_ZN2v814HeapStatistics24used_global_handles_sizeEv = comdat any

$_ZN2v814HeapStatistics15external_memoryEv = comdat any

$_ZN2v819HeapSpaceStatistics10space_sizeEv = comdat any

$_ZN2v819HeapSpaceStatistics15space_used_sizeEv = comdat any

$_ZN2v819HeapSpaceStatistics20space_available_sizeEv = comdat any

$_ZN2v819HeapSpaceStatistics19physical_space_sizeEv = comdat any

$_ZN2v818HeapCodeStatistics22code_and_metadata_sizeEv = comdat any

$_ZN2v818HeapCodeStatistics26bytecode_and_metadata_sizeEv = comdat any

$_ZN2v818HeapCodeStatistics27external_script_source_sizeEv = comdat any

$_ZN2v818HeapCodeStatistics26cpu_profiler_metadata_sizeEv = comdat any

$_ZN2v86String9Utf8ValuedeEv = comdat any

$_ZNK2v86String9Utf8Value6lengthEv = comdat any

$_ZN4node10BaseObjectC2EPNS_11EnvironmentEN2v85LocalINS3_6ObjectEEE = comdat any

$_ZN4node10JSONWriterC2ERSob = comdat any

$_ZN4node10BaseObject12FromJSObjectEN2v85LocalINS1_5ValueEEE = comdat any

$_ZN4node10JSONWriter10json_startEv = comdat any

$_ZN4node10JSONWriter13json_keyvalueIA8_ciEEvRKT_RKT0_ = comdat any

$_ZN4node10JSONWriter13json_keyvalueIA10_clEEvRKT_RKT0_ = comdat any

$_ZN4node10JSONWriter13json_keyvalueIA10_ciEEvRKT_RKT0_ = comdat any

$_ZN4node10JSONWriter15json_arraystartIPKcEEvT_ = comdat any

$_ZN4node10JSONWriter13json_arrayendEv = comdat any

$_ZN4node10JSONWriter13json_keyvalueIA8_clEEvRKT_RKT0_ = comdat any

$_ZN4node10JSONWriter8json_endEv = comdat any

$_ZNK4node5Realm3envEv = comdat any

$_ZN4node5Realm14AddBindingDataINS_8v8_utils11BindingDataEJEEEPT_N2v85LocalINS6_6ObjectEEEDpOT0_ = comdat any

$_ZNSt17basic_string_viewIcSt11char_traitsIcEEC2EPKc = comdat any

$_ZN4node16MaybeStackBufferIN2v85LocalINS1_5ValueEEELm16EEC2Em = comdat any

$_ZN2v819HeapSpaceStatistics10space_nameEv = comdat any

$_ZN4node16MaybeStackBufferIN2v85LocalINS1_5ValueEEELm16EEixEm = comdat any

$_ZN4node21FIXED_ONE_BYTE_STRINGILi12EEEN2v85LocalINS1_6StringEEEPNS1_7IsolateERAT__Kc = comdat any

$_ZN4node16MaybeStackBufferIN2v85LocalINS1_5ValueEEELm16EE3outEv = comdat any

$_ZN4node21FIXED_ONE_BYTE_STRINGILi20EEEN2v85LocalINS1_6StringEEEPNS1_7IsolateERAT__Kc = comdat any

$_ZN4node21FIXED_ONE_BYTE_STRINGILi30EEEN2v85LocalINS1_6StringEEEPNS1_7IsolateERAT__Kc = comdat any

$_ZN4node21FIXED_ONE_BYTE_STRINGILi24EEEN2v85LocalINS1_6StringEEEPNS1_7IsolateERAT__Kc = comdat any

$_ZN4node21FIXED_ONE_BYTE_STRINGILi19EEEN2v85LocalINS1_6StringEEEPNS1_7IsolateERAT__Kc = comdat any

$_ZN4node21FIXED_ONE_BYTE_STRINGILi29EEEN2v85LocalINS1_6StringEEEPNS1_7IsolateERAT__Kc = comdat any

$_ZN4node21FIXED_ONE_BYTE_STRINGILi31EEEN2v85LocalINS1_6StringEEEPNS1_7IsolateERAT__Kc = comdat any

$_ZN4node21FIXED_ONE_BYTE_STRINGILi28EEEN2v85LocalINS1_6StringEEEPNS1_7IsolateERAT__Kc = comdat any

$_ZN4node21FIXED_ONE_BYTE_STRINGILi16EEEN2v85LocalINS1_6StringEEEPNS1_7IsolateERAT__Kc = comdat any

$_ZN4node16MaybeStackBufferIN2v85LocalINS1_5ValueEEELm16EED2Ev = comdat any

$_ZN4node25ExternalReferenceRegistry8RegisterEPFvRKN2v820FunctionCallbackInfoINS1_5ValueEEEE = comdat any

$_ZN4node8v8_utils11BindingDataD2Ev = comdat any

$_ZN4node8v8_utils11BindingDataD0Ev = comdat any

$_ZNK4node8v8_utils11BindingData14MemoryInfoNameEv = comdat any

$_ZNK4node8v8_utils11BindingData8SelfSizeEv = comdat any

$_ZNK4node10BaseObject15GetDetachednessEv = comdat any

$_ZN4node10BaseObject11OnGCCollectEv = comdat any

$_ZNK4node18SnapshotableObject15is_snapshotableEv = comdat any

$_ZN4node8v8_utils10GCProfilerD2Ev = comdat any

$_ZN4node8v8_utils10GCProfilerD0Ev = comdat any

$_ZNK4node8v8_utils10GCProfiler10MemoryInfoEPNS_13MemoryTrackerE = comdat any

$_ZNK4node8v8_utils10GCProfiler14MemoryInfoNameEv = comdat any

$_ZNK4node8v8_utils10GCProfiler8SelfSizeEv = comdat any

$_ZNK4node10BaseObject15is_snapshotableEv = comdat any

$_ZN4node18ContextEmbedderTag13IsNodeContextEN2v85LocalINS1_7ContextEEE = comdat any

$_ZN4node13MemoryTracker10TrackFieldEPKcPKNS_14MemoryRetainerES2_ = comdat any

$_ZNSt13unordered_mapIPKN4node14MemoryRetainerEPNS0_18MemoryRetainerNodeESt4hashIS3_ESt8equal_toIS3_ESaISt4pairIKS3_S5_EEE4findERSB_ = comdat any

$_ZNSt8__detailneERKNS_19_Node_iterator_baseISt4pairIKPKN4node14MemoryRetainerEPNS2_18MemoryRetainerNodeEELb0EEESC_ = comdat any

$_ZNSt13unordered_mapIPKN4node14MemoryRetainerEPNS0_18MemoryRetainerNodeESt4hashIS3_ESt8equal_toIS3_ESaISt4pairIKS3_S5_EEE3endEv = comdat any

$_ZNK4node13MemoryTracker11CurrentNodeEv = comdat any

$_ZNKSt8__detail14_Node_iteratorISt4pairIKPKN4node14MemoryRetainerEPNS2_18MemoryRetainerNodeEELb0ELb0EEptEv = comdat any

$_ZN4node13MemoryTracker5TrackEPKNS_14MemoryRetainerEPKc = comdat any

$_ZNSt10_HashtableIPKN4node14MemoryRetainerESt4pairIKS3_PNS0_18MemoryRetainerNodeEESaIS8_ENSt8__detail10_Select1stESt8equal_toIS3_ESt4hashIS3_ENSA_18_Mod_range_hashingENSA_20_Default_ranged_hashENSA_20_Prime_rehash_policyENSA_17_Hashtable_traitsILb0ELb0ELb1EEEE4findERS5_ = comdat any

$_ZNKSt10_HashtableIPKN4node14MemoryRetainerESt4pairIKS3_PNS0_18MemoryRetainerNodeEESaIS8_ENSt8__detail10_Select1stESt8equal_toIS3_ESt4hashIS3_ENSA_18_Mod_range_hashingENSA_20_Default_ranged_hashENSA_20_Prime_rehash_policyENSA_17_Hashtable_traitsILb0ELb0ELb1EEEE4sizeEv = comdat any

$_ZNSt10_HashtableIPKN4node14MemoryRetainerESt4pairIKS3_PNS0_18MemoryRetainerNodeEESaIS8_ENSt8__detail10_Select1stESt8equal_toIS3_ESt4hashIS3_ENSA_18_Mod_range_hashingENSA_20_Default_ranged_hashENSA_20_Prime_rehash_policyENSA_17_Hashtable_traitsILb0ELb0ELb1EEEE22__small_size_thresholdEv = comdat any

$_ZNSt10_HashtableIPKN4node14MemoryRetainerESt4pairIKS3_PNS0_18MemoryRetainerNodeEESaIS8_ENSt8__detail10_Select1stESt8equal_toIS3_ESt4hashIS3_ENSA_18_Mod_range_hashingENSA_20_Default_ranged_hashENSA_20_Prime_rehash_policyENSA_17_Hashtable_traitsILb0ELb0ELb1EEEE5beginEv = comdat any

$_ZNSt10_HashtableIPKN4node14MemoryRetainerESt4pairIKS3_PNS0_18MemoryRetainerNodeEESaIS8_ENSt8__detail10_Select1stESt8equal_toIS3_ESt4hashIS3_ENSA_18_Mod_range_hashingENSA_20_Default_ranged_hashENSA_20_Prime_rehash_policyENSA_17_Hashtable_traitsILb0ELb0ELb1EEEE3endEv = comdat any

$_ZNKSt8__detail15_Hashtable_baseIPKN4node14MemoryRetainerESt4pairIKS4_PNS1_18MemoryRetainerNodeEENS_10_Select1stESt8equal_toIS4_ESt4hashIS4_ENS_18_Mod_range_hashingENS_20_Default_ranged_hashENS_17_Hashtable_traitsILb0ELb0ELb1EEEE13_M_key_equalsERS6_RKNS_16_Hash_node_valueIS9_Lb0EEE = comdat any

$_ZNSt8__detail14_Node_iteratorISt4pairIKPKN4node14MemoryRetainerEPNS2_18MemoryRetainerNodeEELb0ELb0EEppEv = comdat any

$_ZNKSt8__detail15_Hash_code_baseIPKN4node14MemoryRetainerESt4pairIKS4_PNS1_18MemoryRetainerNodeEENS_10_Select1stESt4hashIS4_ENS_18_Mod_range_hashingENS_20_Default_ranged_hashELb0EE12_M_hash_codeERS6_ = comdat any

$_ZNKSt10_HashtableIPKN4node14MemoryRetainerESt4pairIKS3_PNS0_18MemoryRetainerNodeEESaIS8_ENSt8__detail10_Select1stESt8equal_toIS3_ESt4hashIS3_ENSA_18_Mod_range_hashingENSA_20_Default_ranged_hashENSA_20_Prime_rehash_policyENSA_17_Hashtable_traitsILb0ELb0ELb1EEEE15_M_bucket_indexEm = comdat any

$_ZNKSt10_HashtableIPKN4node14MemoryRetainerESt4pairIKS3_PNS0_18MemoryRetainerNodeEESaIS8_ENSt8__detail10_Select1stESt8equal_toIS3_ESt4hashIS3_ENSA_18_Mod_range_hashingENSA_20_Default_ranged_hashENSA_20_Prime_rehash_policyENSA_17_Hashtable_traitsILb0ELb0ELb1EEEE12_M_find_nodeEmRS5_m = comdat any

$_ZNSt8__detail14_Node_iteratorISt4pairIKPKN4node14MemoryRetainerEPNS2_18MemoryRetainerNodeEELb0ELb0EEC2EPNS_10_Hash_nodeIS9_Lb0EEE = comdat any

$_ZNSt8__detail22_Hashtable_hash_traitsISt4hashIPKN4node14MemoryRetainerEEE22__small_size_thresholdEv = comdat any

$_ZNKSt10_HashtableIPKN4node14MemoryRetainerESt4pairIKS3_PNS0_18MemoryRetainerNodeEESaIS8_ENSt8__detail10_Select1stESt8equal_toIS3_ESt4hashIS3_ENSA_18_Mod_range_hashingENSA_20_Default_ranged_hashENSA_20_Prime_rehash_policyENSA_17_Hashtable_traitsILb0ELb0ELb1EEEE8_M_beginEv = comdat any

$_ZNKSt8__detail15_Hashtable_baseIPKN4node14MemoryRetainerESt4pairIKS4_PNS1_18MemoryRetainerNodeEENS_10_Select1stESt8equal_toIS4_ESt4hashIS4_ENS_18_Mod_range_hashingENS_20_Default_ranged_hashENS_17_Hashtable_traitsILb0ELb0ELb1EEEE5_M_eqEv = comdat any

$_ZNKSt8equal_toIPKN4node14MemoryRetainerEEclERKS3_S6_ = comdat any

$_ZNKSt8__detail10_Select1stclIRKSt4pairIKPKN4node14MemoryRetainerEPNS3_18MemoryRetainerNodeEEEEONS0_10__1st_typeIT_E4typeEOSE_ = comdat any

$_ZNKSt8__detail21_Hash_node_value_baseISt4pairIKPKN4node14MemoryRetainerEPNS2_18MemoryRetainerNodeEEE4_M_vEv = comdat any

$_ZNKSt8__detail21_Hashtable_ebo_helperILi0ESt8equal_toIPKN4node14MemoryRetainerEELb1EE7_M_cgetEv = comdat any

$_ZNKSt8__detail21_Hash_node_value_baseISt4pairIKPKN4node14MemoryRetainerEPNS2_18MemoryRetainerNodeEEE9_M_valptrEv = comdat any

$_ZNK9__gnu_cxx16__aligned_bufferISt4pairIKPKN4node14MemoryRetainerEPNS2_18MemoryRetainerNodeEEE6_M_ptrEv = comdat any

$_ZNK9__gnu_cxx16__aligned_bufferISt4pairIKPKN4node14MemoryRetainerEPNS2_18MemoryRetainerNodeEEE7_M_addrEv = comdat any

$_ZNSt8__detail19_Node_iterator_baseISt4pairIKPKN4node14MemoryRetainerEPNS2_18MemoryRetainerNodeEELb0EE7_M_incrEv = comdat any

$_ZNKSt8__detail10_Hash_nodeISt4pairIKPKN4node14MemoryRetainerEPNS2_18MemoryRetainerNodeEELb0EE7_M_nextEv = comdat any

$_ZNKSt8__detail15_Hash_code_baseIPKN4node14MemoryRetainerESt4pairIKS4_PNS1_18MemoryRetainerNodeEENS_10_Select1stESt4hashIS4_ENS_18_Mod_range_hashingENS_20_Default_ranged_hashELb0EE7_M_hashEv = comdat any

$_ZNKSt4hashIPKN4node14MemoryRetainerEEclES3_ = comdat any

$_ZNKSt8__detail21_Hashtable_ebo_helperILi1ESt4hashIPKN4node14MemoryRetainerEELb1EE7_M_cgetEv = comdat any

$_ZNKSt8__detail15_Hash_code_baseIPKN4node14MemoryRetainerESt4pairIKS4_PNS1_18MemoryRetainerNodeEENS_10_Select1stESt4hashIS4_ENS_18_Mod_range_hashingENS_20_Default_ranged_hashELb0EE15_M_bucket_indexEmm = comdat any

$_ZNKSt8__detail18_Mod_range_hashingclEmm = comdat any

$_ZNKSt10_HashtableIPKN4node14MemoryRetainerESt4pairIKS3_PNS0_18MemoryRetainerNodeEESaIS8_ENSt8__detail10_Select1stESt8equal_toIS3_ESt4hashIS3_ENSA_18_Mod_range_hashingENSA_20_Default_ranged_hashENSA_20_Prime_rehash_policyENSA_17_Hashtable_traitsILb0ELb0ELb1EEEE19_M_find_before_nodeEmRS5_m = comdat any

$_ZNKSt8__detail15_Hashtable_baseIPKN4node14MemoryRetainerESt4pairIKS4_PNS1_18MemoryRetainerNodeEENS_10_Select1stESt8equal_toIS4_ESt4hashIS4_ENS_18_Mod_range_hashingENS_20_Default_ranged_hashENS_17_Hashtable_traitsILb0ELb0ELb1EEEE9_M_equalsERS6_mRKNS_16_Hash_node_valueIS9_Lb0EEE = comdat any

$_ZNKSt10_HashtableIPKN4node14MemoryRetainerESt4pairIKS3_PNS0_18MemoryRetainerNodeEESaIS8_ENSt8__detail10_Select1stESt8equal_toIS3_ESt4hashIS3_ENSA_18_Mod_range_hashingENSA_20_Default_ranged_hashENSA_20_Prime_rehash_policyENSA_17_Hashtable_traitsILb0ELb0ELb1EEEE15_M_bucket_indexERKNSA_16_Hash_node_valueIS8_Lb0EEE = comdat any

$_ZNSt8__detail15_Hashtable_baseIPKN4node14MemoryRetainerESt4pairIKS4_PNS1_18MemoryRetainerNodeEENS_10_Select1stESt8equal_toIS4_ESt4hashIS4_ENS_18_Mod_range_hashingENS_20_Default_ranged_hashENS_17_Hashtable_traitsILb0ELb0ELb1EEEE9_S_equalsEmRKNS_21_Hash_node_code_cacheILb0EEE = comdat any

$_ZNKSt8__detail15_Hash_code_baseIPKN4node14MemoryRetainerESt4pairIKS4_PNS1_18MemoryRetainerNodeEENS_10_Select1stESt4hashIS4_ENS_18_Mod_range_hashingENS_20_Default_ranged_hashELb0EE15_M_bucket_indexERKNS_16_Hash_node_valueIS9_Lb0EEEm = comdat any

$_ZNSt8__detail19_Node_iterator_baseISt4pairIKPKN4node14MemoryRetainerEPNS2_18MemoryRetainerNodeEELb0EEC2EPNS_10_Hash_nodeIS9_Lb0EEE = comdat any

$_ZNKSt5stackIPN4node18MemoryRetainerNodeESt5dequeIS2_SaIS2_EEE5emptyEv = comdat any

$_ZNKSt5stackIPN4node18MemoryRetainerNodeESt5dequeIS2_SaIS2_EEE3topEv = comdat any

$_ZNKSt5dequeIPN4node18MemoryRetainerNodeESaIS2_EE5emptyEv = comdat any

$_ZSteqRKSt15_Deque_iteratorIPN4node18MemoryRetainerNodeERS2_PS2_ES7_ = comdat any

$_ZNKSt5dequeIPN4node18MemoryRetainerNodeESaIS2_EE4backEv = comdat any

$_ZNKSt5dequeIPN4node18MemoryRetainerNodeESaIS2_EE3endEv = comdat any

$_ZNSt15_Deque_iteratorIPN4node18MemoryRetainerNodeERKS2_PS3_EmmEv = comdat any

$_ZNKSt15_Deque_iteratorIPN4node18MemoryRetainerNodeERKS2_PS3_EdeEv = comdat any

$_ZNSt15_Deque_iteratorIPN4node18MemoryRetainerNodeERKS2_PS3_EC2IS_IS2_RS2_PS2_EvEERKT_ = comdat any

$_ZNSt15_Deque_iteratorIPN4node18MemoryRetainerNodeERKS2_PS3_E11_M_set_nodeEPPS2_ = comdat any

$_ZNSt15_Deque_iteratorIPN4node18MemoryRetainerNodeERKS2_PS3_E14_S_buffer_sizeEv = comdat any

$_ZSt16__deque_buf_sizem = comdat any

$_ZNSt8__detail21_Hash_node_value_baseISt4pairIKPKN4node14MemoryRetainerEPNS2_18MemoryRetainerNodeEEE9_M_valptrEv = comdat any

$_ZN9__gnu_cxx16__aligned_bufferISt4pairIKPKN4node14MemoryRetainerEPNS2_18MemoryRetainerNodeEEE6_M_ptrEv = comdat any

$_ZN9__gnu_cxx16__aligned_bufferISt4pairIKPKN4node14MemoryRetainerEPNS2_18MemoryRetainerNodeEEE7_M_addrEv = comdat any

$_ZN4node13MemoryTracker8PushNodeEPKNS_14MemoryRetainerEPKc = comdat any

$_ZN4node13MemoryTracker7PopNodeEv = comdat any

$_ZN4node13MemoryTracker7AddNodeEPKNS_14MemoryRetainerEPKc = comdat any

$_ZNSt5stackIPN4node18MemoryRetainerNodeESt5dequeIS2_SaIS2_EEE4pushERKS2_ = comdat any

$_ZN4node18MemoryRetainerNodeC2EPNS_13MemoryTrackerEPKNS_14MemoryRetainerE = comdat any

$_ZNSt10unique_ptrIN2v813EmbedderGraph4NodeESt14default_deleteIS2_EEC2IS4_vEEPS2_ = comdat any

$_ZNSt10unique_ptrIN2v813EmbedderGraph4NodeESt14default_deleteIS2_EED2Ev = comdat any

$_ZNSt13unordered_mapIPKN4node14MemoryRetainerEPNS0_18MemoryRetainerNodeESt4hashIS3_ESt8equal_toIS3_ESaISt4pairIKS3_S5_EEEixERSB_ = comdat any

$_ZN4node18MemoryRetainerNode13JSWrapperNodeEv = comdat any

$_ZN2v813EmbedderGraph4NodeC2Ev = comdat any

$_ZN4node13MemoryTracker7isolateEv = comdat any

$_ZN4node13MemoryTracker5graphEv = comdat any

$_ZN4node18MemoryRetainerNodeD2Ev = comdat any

$_ZN4node18MemoryRetainerNodeD0Ev = comdat any

$_ZN4node18MemoryRetainerNode4NameEv = comdat any

$_ZN4node18MemoryRetainerNode11SizeInBytesEv = comdat any

$_ZN2v813EmbedderGraph4Node11WrapperNodeEv = comdat any

$_ZN4node18MemoryRetainerNode10IsRootNodeEv = comdat any

$_ZN2v813EmbedderGraph4Node14IsEmbedderNodeEv = comdat any

$_ZN4node18MemoryRetainerNode10NamePrefixEv = comdat any

$_ZN2v813EmbedderGraph4Node15GetNativeObjectEv = comdat any

$_ZN4node18MemoryRetainerNode15GetDetachednessEv = comdat any

$_ZN2v813EmbedderGraph4Node10GetAddressEv = comdat any

$_ZN2v813EmbedderGraph4NodeD2Ev = comdat any

$_ZN2v813EmbedderGraph4NodeD0Ev = comdat any

$_ZN2v813EmbedderGraph4Node10IsRootNodeEv = comdat any

$_ZN2v813EmbedderGraph4Node10NamePrefixEv = comdat any

$_ZN2v813EmbedderGraph4Node15GetDetachednessEv = comdat any

$_ZNSt15__uniq_ptr_dataIN2v813EmbedderGraph4NodeESt14default_deleteIS2_ELb1ELb1EECI2St15__uniq_ptr_implIS2_S4_EEPS2_ = comdat any

$_ZNSt15__uniq_ptr_implIN2v813EmbedderGraph4NodeESt14default_deleteIS2_EEC2EPS2_ = comdat any

$_ZNSt5tupleIJPN2v813EmbedderGraph4NodeESt14default_deleteIS2_EEEC2ILb1ETnNSt9enable_ifIXclsr17_TupleConstraintsIXT_ES3_S5_EE37__is_implicitly_default_constructibleEEbE4typeELb1EEEv = comdat any

$_ZNSt15__uniq_ptr_implIN2v813EmbedderGraph4NodeESt14default_deleteIS2_EE6_M_ptrEv = comdat any

$_ZNSt11_Tuple_implILm0EJPN2v813EmbedderGraph4NodeESt14default_deleteIS2_EEEC2Ev = comdat any

$_ZNSt11_Tuple_implILm1EJSt14default_deleteIN2v813EmbedderGraph4NodeEEEEC2Ev = comdat any

$_ZNSt10_Head_baseILm0EPN2v813EmbedderGraph4NodeELb0EEC2Ev = comdat any

$_ZNSt10_Head_baseILm1ESt14default_deleteIN2v813EmbedderGraph4NodeEELb1EEC2Ev = comdat any

$_ZSt3getILm0EJPN2v813EmbedderGraph4NodeESt14default_deleteIS2_EEERNSt13tuple_elementIXT_ESt5tupleIJDpT0_EEE4typeERSA_ = comdat any

$_ZSt12__get_helperILm0EPN2v813EmbedderGraph4NodeEJSt14default_deleteIS2_EEERT0_RSt11_Tuple_implIXT_EJS6_DpT1_EE = comdat any

$_ZNSt11_Tuple_implILm0EJPN2v813EmbedderGraph4NodeESt14default_deleteIS2_EEE7_M_headERS6_ = comdat any

$_ZNSt10_Head_baseILm0EPN2v813EmbedderGraph4NodeELb0EE7_M_headERS4_ = comdat any

$_ZNSt10unique_ptrIN2v813EmbedderGraph4NodeESt14default_deleteIS2_EE11get_deleterEv = comdat any

$_ZNKSt14default_deleteIN2v813EmbedderGraph4NodeEEclEPS2_ = comdat any

$_ZNSt15__uniq_ptr_implIN2v813EmbedderGraph4NodeESt14default_deleteIS2_EE10_M_deleterEv = comdat any

$_ZSt3getILm1EJPN2v813EmbedderGraph4NodeESt14default_deleteIS2_EEERNSt13tuple_elementIXT_ESt5tupleIJDpT0_EEE4typeERSA_ = comdat any

$_ZSt12__get_helperILm1ESt14default_deleteIN2v813EmbedderGraph4NodeEEJEERT0_RSt11_Tuple_implIXT_EJS5_DpT1_EE = comdat any

$_ZNSt11_Tuple_implILm1EJSt14default_deleteIN2v813EmbedderGraph4NodeEEEE7_M_headERS5_ = comdat any

$_ZNSt10_Head_baseILm1ESt14default_deleteIN2v813EmbedderGraph4NodeEELb1EE7_M_headERS5_ = comdat any

$_ZNSt8__detail9_Map_baseIPKN4node14MemoryRetainerESt4pairIKS4_PNS1_18MemoryRetainerNodeEESaIS9_ENS_10_Select1stESt8equal_toIS4_ESt4hashIS4_ENS_18_Mod_range_hashingENS_20_Default_ranged_hashENS_20_Prime_rehash_policyENS_17_Hashtable_traitsILb0ELb0ELb1EEELb1EEixERS6_ = comdat any

$_ZNSt8__detail21_Hash_node_value_baseISt4pairIKPKN4node14MemoryRetainerEPNS2_18MemoryRetainerNodeEEE4_M_vEv = comdat any

$_ZNSt5tupleIJRKPKN4node14MemoryRetainerEEEC2ILb1ETnNSt9enable_ifIXclsr4_TCCIXT_EEE29__is_implicitly_constructibleIS5_EEEbE4typeELb1EEES5_ = comdat any

$_ZNSt10_HashtableIPKN4node14MemoryRetainerESt4pairIKS3_PNS0_18MemoryRetainerNodeEESaIS8_ENSt8__detail10_Select1stESt8equal_toIS3_ESt4hashIS3_ENSA_18_Mod_range_hashingENSA_20_Default_ranged_hashENSA_20_Prime_rehash_policyENSA_17_Hashtable_traitsILb0ELb0ELb1EEEE12_Scoped_nodeC2IJRKSt21piecewise_construct_tSt5tupleIJRS5_EESR_IJEEEEEPNSA_16_Hashtable_allocISaINSA_10_Hash_nodeIS8_Lb0EEEEEEDpOT_ = comdat any

$_ZNSt10_HashtableIPKN4node14MemoryRetainerESt4pairIKS3_PNS0_18MemoryRetainerNodeEESaIS8_ENSt8__detail10_Select1stESt8equal_toIS3_ESt4hashIS3_ENSA_18_Mod_range_hashingENSA_20_Default_ranged_hashENSA_20_Prime_rehash_policyENSA_17_Hashtable_traitsILb0ELb0ELb1EEEE21_M_insert_unique_nodeEmmPNSA_10_Hash_nodeIS8_Lb0EEEm = comdat any

$_ZNSt10_HashtableIPKN4node14MemoryRetainerESt4pairIKS3_PNS0_18MemoryRetainerNodeEESaIS8_ENSt8__detail10_Select1stESt8equal_toIS3_ESt4hashIS3_ENSA_18_Mod_range_hashingENSA_20_Default_ranged_hashENSA_20_Prime_rehash_policyENSA_17_Hashtable_traitsILb0ELb0ELb1EEEE12_Scoped_nodeD2Ev = comdat any

$_ZNSt11_Tuple_implILm0EJRKPKN4node14MemoryRetainerEEEC2ES5_ = comdat any

$_ZNSt10_Head_baseILm0ERKPKN4node14MemoryRetainerELb0EEC2ES5_ = comdat any

$_ZNSt8__detail16_Hashtable_allocISaINS_10_Hash_nodeISt4pairIKPKN4node14MemoryRetainerEPNS3_18MemoryRetainerNodeEELb0EEEEE16_M_allocate_nodeIJRKSt21piecewise_construct_tSt5tupleIJRS7_EESI_IJEEEEEPSB_DpOT_ = comdat any

$_ZNSt16allocator_traitsISaINSt8__detail10_Hash_nodeISt4pairIKPKN4node14MemoryRetainerEPNS3_18MemoryRetainerNodeEELb0EEEEE8allocateERSC_m = comdat any

$_ZNSt8__detail16_Hashtable_allocISaINS_10_Hash_nodeISt4pairIKPKN4node14MemoryRetainerEPNS3_18MemoryRetainerNodeEELb0EEEEE17_M_node_allocatorEv = comdat any

$_ZSt12__to_addressINSt8__detail10_Hash_nodeISt4pairIKPKN4node14MemoryRetainerEPNS3_18MemoryRetainerNodeEELb0EEEEPT_SD_ = comdat any

$_ZNSt8__detail10_Hash_nodeISt4pairIKPKN4node14MemoryRetainerEPNS2_18MemoryRetainerNodeEELb0EEC2Ev = comdat any

$_ZNSt16allocator_traitsISaINSt8__detail10_Hash_nodeISt4pairIKPKN4node14MemoryRetainerEPNS3_18MemoryRetainerNodeEELb0EEEEE9constructISA_JRKSt21piecewise_construct_tSt5tupleIJRS7_EESI_IJEEEEEvRSC_PT_DpOT0_ = comdat any

$_ZNSt15__new_allocatorINSt8__detail10_Hash_nodeISt4pairIKPKN4node14MemoryRetainerEPNS3_18MemoryRetainerNodeEELb0EEEE8allocateEmPKv = comdat any

$_ZNKSt15__new_allocatorINSt8__detail10_Hash_nodeISt4pairIKPKN4node14MemoryRetainerEPNS3_18MemoryRetainerNodeEELb0EEEE11_M_max_sizeEv = comdat any

$_ZNSt8__detail21_Hashtable_ebo_helperILi0ESaINS_10_Hash_nodeISt4pairIKPKN4node14MemoryRetainerEPNS3_18MemoryRetainerNodeEELb0EEEELb1EE6_M_getEv = comdat any

$_ZNSt8__detail15_Hash_node_baseC2Ev = comdat any

$_ZNSt15__new_allocatorINSt8__detail10_Hash_nodeISt4pairIKPKN4node14MemoryRetainerEPNS3_18MemoryRetainerNodeEELb0EEEE9constructISA_JRKSt21piecewise_construct_tSt5tupleIJRS7_EESH_IJEEEEEvPT_DpOT0_ = comdat any

$_ZNSt5tupleIJRKPKN4node14MemoryRetainerEEEC2EOS6_ = comdat any

$_ZNSt4pairIKPKN4node14MemoryRetainerEPNS0_18MemoryRetainerNodeEEC2IJRS4_EJEEESt21piecewise_construct_tSt5tupleIJDpT_EESB_IJDpT0_EE = comdat any

$_ZNSt11_Tuple_implILm0EJRKPKN4node14MemoryRetainerEEEC2EOS6_ = comdat any

$_ZNSt4pairIKPKN4node14MemoryRetainerEPNS0_18MemoryRetainerNodeEEC2IJRS4_EJLm0EEJETpTnmJEEERSt5tupleIJDpT_EERSA_IJDpT1_EESt12_Index_tupleIJXspT0_EEESJ_IJXspT2_EEE = comdat any

$_ZSt3getILm0EJRKPKN4node14MemoryRetainerEEERNSt13tuple_elementIXT_ESt5tupleIJDpT0_EEE4typeERSA_ = comdat any

$_ZSt12__get_helperILm0ERKPKN4node14MemoryRetainerEJEERT0_RSt11_Tuple_implIXT_EJS6_DpT1_EE = comdat any

$_ZNSt11_Tuple_implILm0EJRKPKN4node14MemoryRetainerEEE7_M_headERS6_ = comdat any

$_ZNSt10_Head_baseILm0ERKPKN4node14MemoryRetainerELb0EE7_M_headERS6_ = comdat any

$_ZNKSt8__detail20_Prime_rehash_policy8_M_stateEv = comdat any

$_ZNSt10_HashtableIPKN4node14MemoryRetainerESt4pairIKS3_PNS0_18MemoryRetainerNodeEESaIS8_ENSt8__detail10_Select1stESt8equal_toIS3_ESt4hashIS3_ENSA_18_Mod_range_hashingENSA_20_Default_ranged_hashENSA_20_Prime_rehash_policyENSA_17_Hashtable_traitsILb0ELb0ELb1EEEE9_M_rehashEmRKm = comdat any

$_ZNKSt8__detail15_Hash_code_baseIPKN4node14MemoryRetainerESt4pairIKS4_PNS1_18MemoryRetainerNodeEENS_10_Select1stESt4hashIS4_ENS_18_Mod_range_hashingENS_20_Default_ranged_hashELb0EE13_M_store_codeERNS_21_Hash_node_code_cacheILb0EEEm = comdat any

$_ZNSt10_HashtableIPKN4node14MemoryRetainerESt4pairIKS3_PNS0_18MemoryRetainerNodeEESaIS8_ENSt8__detail10_Select1stESt8equal_toIS3_ESt4hashIS3_ENSA_18_Mod_range_hashingENSA_20_Default_ranged_hashENSA_20_Prime_rehash_policyENSA_17_Hashtable_traitsILb0ELb0ELb1EEEE22_M_insert_bucket_beginEmPNSA_10_Hash_nodeIS8_Lb0EEE = comdat any

$_ZNSt10_HashtableIPKN4node14MemoryRetainerESt4pairIKS3_PNS0_18MemoryRetainerNodeEESaIS8_ENSt8__detail10_Select1stESt8equal_toIS3_ESt4hashIS3_ENSA_18_Mod_range_hashingENSA_20_Default_ranged_hashENSA_20_Prime_rehash_policyENSA_17_Hashtable_traitsILb0ELb0ELb1EEEE13_M_rehash_auxEmSt17integral_constantIbLb1EE = comdat any

$_ZNSt10_HashtableIPKN4node14MemoryRetainerESt4pairIKS3_PNS0_18MemoryRetainerNodeEESaIS8_ENSt8__detail10_Select1stESt8equal_toIS3_ESt4hashIS3_ENSA_18_Mod_range_hashingENSA_20_Default_ranged_hashENSA_20_Prime_rehash_policyENSA_17_Hashtable_traitsILb0ELb0ELb1EEEE19_M_allocate_bucketsEm = comdat any

$_ZNSt10_HashtableIPKN4node14MemoryRetainerESt4pairIKS3_PNS0_18MemoryRetainerNodeEESaIS8_ENSt8__detail10_Select1stESt8equal_toIS3_ESt4hashIS3_ENSA_18_Mod_range_hashingENSA_20_Default_ranged_hashENSA_20_Prime_rehash_policyENSA_17_Hashtable_traitsILb0ELb0ELb1EEEE21_M_deallocate_bucketsEv = comdat any

$_ZNSt8__detail16_Hashtable_allocISaINS_10_Hash_nodeISt4pairIKPKN4node14MemoryRetainerEPNS3_18MemoryRetainerNodeEELb0EEEEE19_M_allocate_bucketsEm = comdat any

$_ZNSaIPNSt8__detail15_Hash_node_baseEEC2INS_10_Hash_nodeISt4pairIKPKN4node14MemoryRetainerEPNS6_18MemoryRetainerNodeEELb0EEEEERKSaIT_E = comdat any

$_ZNSt16allocator_traitsISaIPNSt8__detail15_Hash_node_baseEEE8allocateERS3_m = comdat any

$_ZSt12__to_addressIPNSt8__detail15_Hash_node_baseEEPT_S4_ = comdat any

$_ZNSaIPNSt8__detail15_Hash_node_baseEED2Ev = comdat any

$_ZNSt15__new_allocatorIPNSt8__detail15_Hash_node_baseEEC2Ev = comdat any

$_ZNSt15__new_allocatorIPNSt8__detail15_Hash_node_baseEE8allocateEmPKv = comdat any

$_ZNKSt15__new_allocatorIPNSt8__detail15_Hash_node_baseEE11_M_max_sizeEv = comdat any

$_ZNSt15__new_allocatorIPNSt8__detail15_Hash_node_baseEED2Ev = comdat any

$_ZNSt10_HashtableIPKN4node14MemoryRetainerESt4pairIKS3_PNS0_18MemoryRetainerNodeEESaIS8_ENSt8__detail10_Select1stESt8equal_toIS3_ESt4hashIS3_ENSA_18_Mod_range_hashingENSA_20_Default_ranged_hashENSA_20_Prime_rehash_policyENSA_17_Hashtable_traitsILb0ELb0ELb1EEEE21_M_deallocate_bucketsEPPNSA_15_Hash_node_baseEm = comdat any

$_ZNKSt10_HashtableIPKN4node14MemoryRetainerESt4pairIKS3_PNS0_18MemoryRetainerNodeEESaIS8_ENSt8__detail10_Select1stESt8equal_toIS3_ESt4hashIS3_ENSA_18_Mod_range_hashingENSA_20_Default_ranged_hashENSA_20_Prime_rehash_policyENSA_17_Hashtable_traitsILb0ELb0ELb1EEEE21_M_uses_single_bucketEPPNSA_15_Hash_node_baseE = comdat any

$_ZNSt8__detail16_Hashtable_allocISaINS_10_Hash_nodeISt4pairIKPKN4node14MemoryRetainerEPNS3_18MemoryRetainerNodeEELb0EEEEE21_M_deallocate_bucketsEPPNS_15_Hash_node_baseEm = comdat any

$_ZNSt19__ptr_traits_ptr_toIPPNSt8__detail15_Hash_node_baseES2_Lb0EE10pointer_toERS2_ = comdat any

$_ZNSt16allocator_traitsISaIPNSt8__detail15_Hash_node_baseEEE10deallocateERS3_PS2_m = comdat any

$_ZNSt15__new_allocatorIPNSt8__detail15_Hash_node_baseEE10deallocateEPS2_m = comdat any

$_ZNSt8__detail16_Hashtable_allocISaINS_10_Hash_nodeISt4pairIKPKN4node14MemoryRetainerEPNS3_18MemoryRetainerNodeEELb0EEEEE18_M_deallocate_nodeEPSB_ = comdat any

$_ZNSt16allocator_traitsISaINSt8__detail10_Hash_nodeISt4pairIKPKN4node14MemoryRetainerEPNS3_18MemoryRetainerNodeEELb0EEEEE7destroyISA_EEvRSC_PT_ = comdat any

$_ZNSt8__detail16_Hashtable_allocISaINS_10_Hash_nodeISt4pairIKPKN4node14MemoryRetainerEPNS3_18MemoryRetainerNodeEELb0EEEEE22_M_deallocate_node_ptrEPSB_ = comdat any

$_ZNSt15__new_allocatorINSt8__detail10_Hash_nodeISt4pairIKPKN4node14MemoryRetainerEPNS3_18MemoryRetainerNodeEELb0EEEE7destroyISA_EEvPT_ = comdat any

$_ZNSt19__ptr_traits_ptr_toIPNSt8__detail10_Hash_nodeISt4pairIKPKN4node14MemoryRetainerEPNS3_18MemoryRetainerNodeEELb0EEESB_Lb0EE10pointer_toERSB_ = comdat any

$_ZNSt16allocator_traitsISaINSt8__detail10_Hash_nodeISt4pairIKPKN4node14MemoryRetainerEPNS3_18MemoryRetainerNodeEELb0EEEEE10deallocateERSC_PSB_m = comdat any

$_ZNSt15__new_allocatorINSt8__detail10_Hash_nodeISt4pairIKPKN4node14MemoryRetainerEPNS3_18MemoryRetainerNodeEELb0EEEE10deallocateEPSB_m = comdat any

$_ZNSt5dequeIPN4node18MemoryRetainerNodeESaIS2_EE9push_backERKS2_ = comdat any

$_ZNSt16allocator_traitsISaIPN4node18MemoryRetainerNodeEEE9constructIS2_JRKS2_EEEvRS3_PT_DpOT0_ = comdat any

$_ZNSt5dequeIPN4node18MemoryRetainerNodeESaIS2_EE16_M_push_back_auxIJRKS2_EEEvDpOT_ = comdat any

$_ZNSt15__new_allocatorIPN4node18MemoryRetainerNodeEE9constructIS2_JRKS2_EEEvPT_DpOT0_ = comdat any

$_ZNKSt5dequeIPN4node18MemoryRetainerNodeESaIS2_EE4sizeEv = comdat any

$_ZNKSt5dequeIPN4node18MemoryRetainerNodeESaIS2_EE8max_sizeEv = comdat any

$_ZNSt5dequeIPN4node18MemoryRetainerNodeESaIS2_EE22_M_reserve_map_at_backEm = comdat any

$_ZNSt11_Deque_baseIPN4node18MemoryRetainerNodeESaIS2_EE16_M_allocate_nodeEv = comdat any

$_ZNSt15_Deque_iteratorIPN4node18MemoryRetainerNodeERS2_PS2_E11_M_set_nodeEPS4_ = comdat any

$_ZStmiRKSt15_Deque_iteratorIPN4node18MemoryRetainerNodeERS2_PS2_ES7_ = comdat any

$_ZNSt15_Deque_iteratorIPN4node18MemoryRetainerNodeERS2_PS2_E14_S_buffer_sizeEv = comdat any

$_ZNSt5dequeIPN4node18MemoryRetainerNodeESaIS2_EE11_S_max_sizeERKS3_ = comdat any

$_ZNKSt11_Deque_baseIPN4node18MemoryRetainerNodeESaIS2_EE19_M_get_Tp_allocatorEv = comdat any

$_ZNSt16allocator_traitsISaIPN4node18MemoryRetainerNodeEEE8max_sizeERKS3_ = comdat any

$_ZSt3minImERKT_S2_S2_ = comdat any

$_ZNKSt15__new_allocatorIPN4node18MemoryRetainerNodeEE8max_sizeEv = comdat any

$_ZNKSt15__new_allocatorIPN4node18MemoryRetainerNodeEE11_M_max_sizeEv = comdat any

$_ZNSt5dequeIPN4node18MemoryRetainerNodeESaIS2_EE17_M_reallocate_mapEmb = comdat any

$_ZSt4copyIPPPN4node18MemoryRetainerNodeES4_ET0_T_S6_S5_ = comdat any

$_ZSt13copy_backwardIPPPN4node18MemoryRetainerNodeES4_ET0_T_S6_S5_ = comdat any

$_ZSt3maxImERKT_S2_S2_ = comdat any

$_ZNSt11_Deque_baseIPN4node18MemoryRetainerNodeESaIS2_EE15_M_allocate_mapEm = comdat any

$_ZNSt11_Deque_baseIPN4node18MemoryRetainerNodeESaIS2_EE17_M_deallocate_mapEPPS2_m = comdat any

$_ZSt13__copy_move_aILb0EPPPN4node18MemoryRetainerNodeES4_ET1_T0_S6_S5_ = comdat any

$_ZSt12__miter_baseIPPPN4node18MemoryRetainerNodeEET_S5_ = comdat any

$_ZSt12__niter_wrapIPPPN4node18MemoryRetainerNodeEET_RKS5_S5_ = comdat any

$_ZSt14__copy_move_a1ILb0EPPPN4node18MemoryRetainerNodeES4_ET1_T0_S6_S5_ = comdat any

$_ZSt12__niter_baseIPPPN4node18MemoryRetainerNodeEET_S5_ = comdat any

$_ZSt14__copy_move_a2ILb0EPPPN4node18MemoryRetainerNodeES4_ET1_T0_S6_S5_ = comdat any

$_ZNSt11__copy_moveILb0ELb1ESt26random_access_iterator_tagE8__copy_mIPPN4node18MemoryRetainerNodeEEEPT_PKS7_SA_S8_ = comdat any

$_ZSt22__copy_move_backward_aILb0EPPPN4node18MemoryRetainerNodeES4_ET1_T0_S6_S5_ = comdat any

$_ZSt23__copy_move_backward_a1ILb0EPPPN4node18MemoryRetainerNodeES4_ET1_T0_S6_S5_ = comdat any

$_ZSt23__copy_move_backward_a2ILb0EPPPN4node18MemoryRetainerNodeES4_ET1_T0_S6_S5_ = comdat any

$_ZNSt20__copy_move_backwardILb0ELb1ESt26random_access_iterator_tagE13__copy_move_bIPPN4node18MemoryRetainerNodeEEEPT_PKS7_SA_S8_ = comdat any

$_ZNKSt11_Deque_baseIPN4node18MemoryRetainerNodeESaIS2_EE20_M_get_map_allocatorEv = comdat any

$_ZNSt16allocator_traitsISaIPPN4node18MemoryRetainerNodeEEE8allocateERS4_m = comdat any

$_ZNSaIPPN4node18MemoryRetainerNodeEED2Ev = comdat any

$_ZNSaIPPN4node18MemoryRetainerNodeEEC2IS1_EERKSaIT_E = comdat any

$_ZNSt15__new_allocatorIPPN4node18MemoryRetainerNodeEEC2Ev = comdat any

$_ZNSt15__new_allocatorIPPN4node18MemoryRetainerNodeEE8allocateEmPKv = comdat any

$_ZNKSt15__new_allocatorIPPN4node18MemoryRetainerNodeEE11_M_max_sizeEv = comdat any

$_ZNSt15__new_allocatorIPPN4node18MemoryRetainerNodeEED2Ev = comdat any

$_ZNSt16allocator_traitsISaIPPN4node18MemoryRetainerNodeEEE10deallocateERS4_PS3_m = comdat any

$_ZNSt15__new_allocatorIPPN4node18MemoryRetainerNodeEE10deallocateEPS3_m = comdat any

$_ZNSt16allocator_traitsISaIPN4node18MemoryRetainerNodeEEE8allocateERS3_m = comdat any

$_ZNSt15__new_allocatorIPN4node18MemoryRetainerNodeEE8allocateEmPKv = comdat any

$_ZNSt5stackIPN4node18MemoryRetainerNodeESt5dequeIS2_SaIS2_EEE3popEv = comdat any

$_ZNSt5dequeIPN4node18MemoryRetainerNodeESaIS2_EE8pop_backEv = comdat any

$_ZNSt16allocator_traitsISaIPN4node18MemoryRetainerNodeEEE7destroyIS2_EEvRS3_PT_ = comdat any

$_ZNSt11_Deque_baseIPN4node18MemoryRetainerNodeESaIS2_EE19_M_get_Tp_allocatorEv = comdat any

$_ZNSt5dequeIPN4node18MemoryRetainerNodeESaIS2_EE15_M_pop_back_auxEv = comdat any

$_ZNSt15__new_allocatorIPN4node18MemoryRetainerNodeEE7destroyIS2_EEvPT_ = comdat any

$_ZNSt11_Deque_baseIPN4node18MemoryRetainerNodeESaIS2_EE18_M_deallocate_nodeEPS2_ = comdat any

$_ZNSt16allocator_traitsISaIPN4node18MemoryRetainerNodeEEE10deallocateERS3_PS2_m = comdat any

$_ZNSt15__new_allocatorIPN4node18MemoryRetainerNodeEE10deallocateEPS2_m = comdat any

$_ZN4node11Environment10GetCurrentEN2v85LocalINS1_7ContextEEE = comdat any

$_ZNK4node11Environment15principal_realmEv = comdat any

$_ZNKSt10unique_ptrIN4node14PrincipalRealmESt14default_deleteIS1_EE3getEv = comdat any

$_ZNKSt15__uniq_ptr_implIN4node14PrincipalRealmESt14default_deleteIS1_EE6_M_ptrEv = comdat any

$_ZSt3getILm0EJPN4node14PrincipalRealmESt14default_deleteIS1_EEERKNSt13tuple_elementIXT_ESt5tupleIJDpT0_EEE4typeERKS9_ = comdat any

$_ZSt12__get_helperILm0EPN4node14PrincipalRealmEJSt14default_deleteIS1_EEERKT0_RKSt11_Tuple_implIXT_EJS5_DpT1_EE = comdat any

$_ZNSt11_Tuple_implILm0EJPN4node14PrincipalRealmESt14default_deleteIS1_EEE7_M_headERKS5_ = comdat any

$_ZNSt10_Head_baseILm0EPN4node14PrincipalRealmELb0EE7_M_headERKS3_ = comdat any

$_ZN4node10JSONWriter14write_new_lineEv = comdat any

$_ZN4node10JSONWriter7advanceEv = comdat any

$_ZN4node10JSONWriter6indentEv = comdat any

$_ZN4node10JSONWriter13json_keyvalueIA7_cPKcEEvRKT_RKT0_ = comdat any

$_ZN4node10JSONWriter16json_objectstartIPKcEEvT_ = comdat any

$_ZN4node10JSONWriter14json_objectendEv = comdat any

$_ZN4node10JSONWriter12write_stringESt17basic_string_viewIcSt11char_traitsIcEE = comdat any

$_ZN4node10JSONWriter15write_one_spaceEv = comdat any

$_ZN4node10JSONWriter11write_valueESt17basic_string_viewIcSt11char_traitsIcEE = comdat any

$_ZN4node15NeedsJsonEscapeESt17basic_string_viewIcSt11char_traitsIcEE = comdat any

$_ZStlsIcSt11char_traitsIcEERSt13basic_ostreamIT_T0_ES6_St17basic_string_viewIS3_S4_E = comdat any

$_ZNKSt17basic_string_viewIcSt11char_traitsIcEE5beginEv = comdat any

$_ZNKSt17basic_string_viewIcSt11char_traitsIcEE3endEv = comdat any

$_ZNKSt17basic_string_viewIcSt11char_traitsIcEE4dataEv = comdat any

$_ZNKSt17basic_string_viewIcSt11char_traitsIcEE4sizeEv = comdat any

$_ZN4node10JSONWriter13json_keyvalueIA14_cmEEvRKT_RKT0_ = comdat any

$_ZN4node10JSONWriter13json_keyvalueIA24_cmEEvRKT_RKT0_ = comdat any

$_ZN4node10JSONWriter13json_keyvalueIA18_cmEEvRKT_RKT0_ = comdat any

$_ZN4node10JSONWriter13json_keyvalueIA19_cmEEvRKT_RKT0_ = comdat any

$_ZN4node10JSONWriter13json_keyvalueIA23_cmEEvRKT_RKT0_ = comdat any

$_ZN4node10JSONWriter13json_keyvalueIA22_cmEEvRKT_RKT0_ = comdat any

$_ZN4node10JSONWriter13json_keyvalueIA13_cmEEvRKT_RKT0_ = comdat any

$_ZN4node10JSONWriter13json_keyvalueIA15_cmEEvRKT_RKT0_ = comdat any

$_ZN4node10JSONWriter13json_keyvalueIA10_cPKcEEvRKT_RKT0_ = comdat any

$_ZN4node10JSONWriter13json_keyvalueIA10_cmEEvRKT_RKT0_ = comdat any

$_ZN4node10JSONWriter11write_valueImbEEvT_ = comdat any

$_ZN4node10JSONWriter8deindentEv = comdat any

$_ZN4node10JSONWriter13json_keyvalueIA5_cdEEvRKT_RKT0_ = comdat any

$_ZN4node10JSONWriter11write_valueIdbEEvT_ = comdat any

$_ZNSt11char_traitsIcE6lengthEPKc = comdat any

$_ZN4node25ExternalReferenceRegistry9RegisterTIFvRKN2v820FunctionCallbackInfoINS2_5ValueEEEEEEvPT_ = comdat any

$_ZNSt6vectorIlSaIlEE9push_backEOl = comdat any

$_ZNSt6vectorIlSaIlEE12emplace_backIJlEEERlDpOT_ = comdat any

$_ZNSt16allocator_traitsISaIlEE9constructIlJlEEEvRS0_PT_DpOT0_ = comdat any

$_ZNSt6vectorIlSaIlEE17_M_realloc_insertIJlEEEvN9__gnu_cxx17__normal_iteratorIPlS1_EEDpOT_ = comdat any

$_ZNSt6vectorIlSaIlEE3endEv = comdat any

$_ZNSt6vectorIlSaIlEE4backEv = comdat any

$_ZNSt15__new_allocatorIlE9constructIlJlEEEvPT_DpOT0_ = comdat any

$_ZNKSt6vectorIlSaIlEE12_M_check_lenEmPKc = comdat any

$_ZN9__gnu_cxxmiIPlSt6vectorIlSaIlEEEENS_17__normal_iteratorIT_T0_E15difference_typeERKS8_SB_ = comdat any

$_ZNSt6vectorIlSaIlEE5beginEv = comdat any

$_ZNSt12_Vector_baseIlSaIlEE11_M_allocateEm = comdat any

$_ZNSt6vectorIlSaIlEE11_S_relocateEPlS2_S2_RS0_ = comdat any

$_ZNK9__gnu_cxx17__normal_iteratorIPlSt6vectorIlSaIlEEE4baseEv = comdat any

$_ZNSt12_Vector_baseIlSaIlEE19_M_get_Tp_allocatorEv = comdat any

$_ZNSt12_Vector_baseIlSaIlEE13_M_deallocateEPlm = comdat any

$_ZNKSt6vectorIlSaIlEE8max_sizeEv = comdat any

$_ZNKSt6vectorIlSaIlEE4sizeEv = comdat any

$_ZNSt6vectorIlSaIlEE11_S_max_sizeERKS0_ = comdat any

$_ZNKSt12_Vector_baseIlSaIlEE19_M_get_Tp_allocatorEv = comdat any

$_ZNSt16allocator_traitsISaIlEE8max_sizeERKS0_ = comdat any

$_ZNKSt15__new_allocatorIlE8max_sizeEv = comdat any

$_ZNKSt15__new_allocatorIlE11_M_max_sizeEv = comdat any

$_ZN9__gnu_cxx17__normal_iteratorIPlSt6vectorIlSaIlEEEC2ERKS1_ = comdat any

$_ZNSt16allocator_traitsISaIlEE8allocateERS0_m = comdat any

$_ZNSt15__new_allocatorIlE8allocateEmPKv = comdat any

$_ZSt12__relocate_aIPlS0_SaIlEET0_T_S3_S2_RT1_ = comdat any

$_ZSt14__relocate_a_1IllENSt9enable_ifIXsr3std24__is_bitwise_relocatableIT_EE5valueEPS1_E4typeES2_S2_S2_RSaIT0_E = comdat any

$_ZSt12__niter_baseIPlET_S1_ = comdat any

$_ZNSt16allocator_traitsISaIlEE10deallocateERS0_Plm = comdat any

$_ZNSt15__new_allocatorIlE10deallocateEPlm = comdat any

$_ZNK9__gnu_cxx17__normal_iteratorIPlSt6vectorIlSaIlEEEmiEl = comdat any

$_ZNK9__gnu_cxx17__normal_iteratorIPlSt6vectorIlSaIlEEEdeEv = comdat any

$_ZN4node17AliasedBufferBaseIdN2v812Float64ArrayEED2Ev = comdat any

$_ZN4node18SnapshotableObjectD2Ev = comdat any

$_ZN4node17AliasedBufferBaseIdN2v812Float64ArrayEED0Ev = comdat any

$_ZNK4node17AliasedBufferBaseIdN2v812Float64ArrayEE10MemoryInfoEPNS_13MemoryTrackerE = comdat any

$_ZNK4node17AliasedBufferBaseIdN2v812Float64ArrayEE14MemoryInfoNameEv = comdat any

$_ZNK4node17AliasedBufferBaseIdN2v812Float64ArrayEE8SelfSizeEv = comdat any

$_ZNK4node14MemoryRetainer13WrappedObjectEv = comdat any

$_ZNK4node14MemoryRetainer10IsRootNodeEv = comdat any

$_ZNK4node14MemoryRetainer15GetDetachednessEv = comdat any

$_ZN4node13MemoryTracker10TrackFieldIN2v812Float64ArrayEEEvPKcRKNS2_14PersistentBaseIT_EES5_ = comdat any

$_ZN4node13MemoryTracker10TrackFieldIN2v812Float64ArrayEEEvPKcRKNS2_5LocalIT_EES5_ = comdat any

$_ZNK4node10BaseObject16IsWeakOrDetachedEv = comdat any

$_ZNK4node10BaseObject16has_pointer_dataEv = comdat any

$_ZN4node17AliasedBufferBaseIdN2v812Float64ArrayEE9ReferenceC2EPS3_m = comdat any

$_ZN4node14MemoryRetainerC2Ev = comdat any

$_ZN4node25MultiplyWithOverflowCheckImEET_S1_S1_ = comdat any

$_ZN4node14MemoryRetainerD2Ev = comdat any

$_ZN4node14MemoryRetainerD0Ev = comdat any

$_ZN4node13OneByteStringEPN2v87IsolateEPKci = comdat any

$_ZN2v88internal9CastCheckILb1EE7PerformINS_12Float64ArrayEEEvPT_ = comdat any

$_ZN4node18MakeWeakBaseObjectINS_8v8_utils11BindingDataEJPNS_5RealmERN2v85LocalINS5_6ObjectEEERPNS2_17InternalFieldInfoEEEENS_17BaseObjectPtrImplIT_Lb1EEEDpOT0_ = comdat any

$_ZNSt5arrayIN4node17BaseObjectPtrImplINS0_10BaseObjectELb1EEELm12EEixEm = comdat any

$_ZNK4node17BaseObjectPtrImplINS_10BaseObjectELb1EEcvbEv = comdat any

$_ZN4node17BaseObjectPtrImplINS_10BaseObjectELb1EEaSINS_8v8_utils11BindingDataELb1EEERS2_RKNS0_IT_XT0_EEE = comdat any

$_ZNK4node17BaseObjectPtrImplINS_8v8_utils11BindingDataELb1EE3getEv = comdat any

$_ZN4node17BaseObjectPtrImplINS_8v8_utils11BindingDataELb1EED2Ev = comdat any

$_ZN4node17BaseObjectPtrImplINS_8v8_utils11BindingDataELb1EEC2EPS2_ = comdat any

$_ZN4node17BaseObjectPtrImplINS_8v8_utils11BindingDataELb1EEC2Ev = comdat any

$_ZNK4node17BaseObjectPtrImplINS_8v8_utils11BindingDataELb1EE12pointer_dataEv = comdat any

$_ZNSt14__array_traitsIN4node17BaseObjectPtrImplINS0_10BaseObjectELb1EEELm12EE6_S_refERA12_KS3_m = comdat any

$_ZNK4node17BaseObjectPtrImplINS_10BaseObjectELb1EE3getEv = comdat any

$_ZNK4node17BaseObjectPtrImplINS_10BaseObjectELb1EE15get_base_objectEv = comdat any

$_ZNK4node17BaseObjectPtrImplINS_10BaseObjectELb1EE12pointer_dataEv = comdat any

$_ZN4node17BaseObjectPtrImplINS_10BaseObjectELb1EED2Ev = comdat any

$_ZN4node17BaseObjectPtrImplINS_10BaseObjectELb1EEC2INS_8v8_utils11BindingDataELb1EEERKNS0_IT_XT0_EEE = comdat any

$_ZN4node17BaseObjectPtrImplINS_10BaseObjectELb1EEC2EPS1_ = comdat any

$_ZN4node17BaseObjectPtrImplINS_10BaseObjectELb1EEC2Ev = comdat any

$_ZNK4node17BaseObjectPtrImplINS_8v8_utils11BindingDataELb1EE15get_base_objectEv = comdat any

$_ZN4node5Realm14GetBindingDataINS_8v8_utils11BindingDataEEEPT_N2v85LocalINS6_7ContextEEE = comdat any

$_ZN4node5Realm14GetBindingDataINS_8v8_utils11BindingDataEEEPT_v = comdat any

$_ZN4node17BaseObjectPtrImplINS_10BaseObjectELb1EEC2ERKS2_ = comdat any

$_ZN4node17AliasedBufferBaseIdN2v812Float64ArrayEE8SetValueEmd = comdat any

$_ZN4node10JSONWriter11write_valueIibEEvT_ = comdat any

$_ZN4node10JSONWriter11write_valueIlbEEvT_ = comdat any

$_ZN4node18MakeWeakBaseObjectINS_8v8_utils11BindingDataEJPNS_5RealmERN2v85LocalINS5_6ObjectEEEEEENS_17BaseObjectPtrImplIT_Lb1EEEDpOT0_ = comdat any

$_ZN4node16MaybeStackBufferIN2v85LocalINS1_5ValueEEELm16EEC2Ev = comdat any

$_ZN4node16MaybeStackBufferIN2v85LocalINS1_5ValueEEELm16EE25AllocateSufficientStorageEm = comdat any

$_ZN4node9arraysizeIN2v85LocalINS1_5ValueEEELm16EEEmRAT0__KT_ = comdat any

$_ZNK4node16MaybeStackBufferIN2v85LocalINS1_5ValueEEELm16EE13IsInvalidatedEv = comdat any

$_ZNK4node16MaybeStackBufferIN2v85LocalINS1_5ValueEEELm16EE8capacityEv = comdat any

$_ZNK4node16MaybeStackBufferIN2v85LocalINS1_5ValueEEELm16EE11IsAllocatedEv = comdat any

$_ZN4node7ReallocIN2v85LocalINS1_5ValueEEEEEPT_S6_m = comdat any

$_ZN4node16UncheckedReallocIN2v85LocalINS1_5ValueEEEEEPT_S6_m = comdat any

$_ZNK4node16MaybeStackBufferIN2v85LocalINS1_5ValueEEELm16EE6lengthEv = comdat any

$_ZNK4node10BaseObject3envEv = comdat any

$_ZTVN4node8v8_utils10GCProfilerE = comdat any

$_ZZN4node13MemoryTracker5TrackEPKNS_14MemoryRetainerEPKcE4args = comdat any

$_ZZN4node13MemoryTracker5TrackEPKNS_14MemoryRetainerEPKcE4args_0 = comdat any

$_ZTVN4node18MemoryRetainerNodeE = comdat any

$_ZZN4node18MemoryRetainerNodeC1EPNS_13MemoryTrackerEPKNS_14MemoryRetainerEE4args = comdat any

$_ZTVN2v813EmbedderGraph4NodeE = comdat any

$_ZSt19piecewise_construct = comdat any

$_ZTVN4node17AliasedBufferBaseIdN2v812Float64ArrayEEE = comdat any

$_ZZN4node17AliasedBufferBaseIdN2v812Float64ArrayEEC1EPNS1_7IsolateEmPKmE4args = comdat any

$_ZTVN4node14MemoryRetainerE = comdat any

$_ZZN4node25MultiplyWithOverflowCheckImEET_S1_S1_E4args = comdat any

$_ZZN4node5Realm14AddBindingDataINS_8v8_utils11BindingDataEJRPNS3_17InternalFieldInfoEEEEPT_N2v85LocalINS9_6ObjectEEEDpOT0_E4args = comdat any

$_ZZN4node17BaseObjectPtrImplINS_8v8_utils11BindingDataELb1EEC1EPS2_E4args = comdat any

$_ZZN4node17BaseObjectPtrImplINS_10BaseObjectELb1EEC1EPS1_E4args = comdat any

$_ZZN4node5Realm14AddBindingDataINS_8v8_utils11BindingDataEJEEEPT_N2v85LocalINS6_6ObjectEEEDpOT0_E4args = comdat any

$_ZZN4node16MaybeStackBufferIN2v85LocalINS1_5ValueEEELm16EE25AllocateSufficientStorageEmE4args = comdat any

$_ZZN4node7ReallocIN2v85LocalINS1_5ValueEEEEEPT_S6_mE4args = comdat any

$_ZZN4node16MaybeStackBufferIN2v85LocalINS1_5ValueEEELm16EEixEmE4args = comdat any

@_ZStL8__ioinit = internal global %"class.std::ios_base::Init" zeroinitializer, align 1
@__dso_handle = external hidden global i8
@_ZTVN4node8v8_utils11BindingDataE = dso_local unnamed_addr constant { [21 x ptr] } { [21 x ptr] [ptr null, ptr null, ptr @_ZN4node8v8_utils11BindingDataD2Ev, ptr @_ZN4node8v8_utils11BindingDataD0Ev, ptr @_ZNK4node8v8_utils11BindingData10MemoryInfoEPNS_13MemoryTrackerE, ptr @_ZNK4node8v8_utils11BindingData14MemoryInfoNameEv, ptr @_ZNK4node8v8_utils11BindingData8SelfSizeEv, ptr @_ZNK4node10BaseObject13WrappedObjectEv, ptr @_ZNK4node10BaseObject10IsRootNodeEv, ptr @_ZNK4node10BaseObject15GetDetachednessEv, ptr @_ZNK4node10BaseObject18IsDoneInitializingEv, ptr @_ZNK4node10BaseObject15GetTransferModeEv, ptr @_ZN4node10BaseObject20TransferForMessagingEv, ptr @_ZNK4node10BaseObject17CloneForMessagingEv, ptr @_ZNK4node10BaseObject19NestedTransferablesEv, ptr @_ZN4node10BaseObject20FinalizeTransferReadEN2v85LocalINS1_7ContextEEEPNS1_17ValueDeserializerE, ptr @_ZNK4node10BaseObject33IsNotIndicativeOfMemoryLeakAtExitEv, ptr @_ZN4node10BaseObject11OnGCCollectEv, ptr @_ZNK4node18SnapshotableObject15is_snapshotableEv, ptr @_ZN4node8v8_utils11BindingData23PrepareForSerializationEN2v85LocalINS2_7ContextEEEPNS2_15SnapshotCreatorE, ptr @_ZN4node8v8_utils11BindingData9SerializeEi] }, align 8
@.str = private unnamed_addr constant [21 x i8] c"heapStatisticsBuffer\00", align 1
@.str.1 = private unnamed_addr constant [25 x i8] c"heapCodeStatisticsBuffer\00", align 1
@.str.2 = private unnamed_addr constant [26 x i8] c"heapSpaceStatisticsBuffer\00", align 1
@_ZZN4node8v8_utils11BindingData11DeserializeEN2v85LocalINS2_7ContextEEENS3_INS2_6ObjectEEEiPNS_21InternalFieldInfoBaseEE4args = internal constant %"struct.node::AssertionInfo" { ptr @.str.3, ptr @.str.4, ptr @.str.5 }, align 8
@.str.3 = private unnamed_addr constant [25 x i8] c"../../src/node_v8.cc:162\00", align 1
@.str.4 = private unnamed_addr constant [21 x i8] c"(binding) != nullptr\00", align 1
@.str.5 = private unnamed_addr constant [114 x i8] c"static void node::v8_utils::BindingData::Deserialize(Local<Context>, Local<Object>, int, InternalFieldInfoBase *)\00", align 1
@.str.6 = private unnamed_addr constant [23 x i8] c"heap_statistics_buffer\00", align 1
@.str.7 = private unnamed_addr constant [29 x i8] c"heap_space_statistics_buffer\00", align 1
@.str.8 = private unnamed_addr constant [28 x i8] c"heap_code_statistics_buffer\00", align 1
@_ZZN4node8v8_utils28SetHeapSnapshotNearHeapLimitERKN2v820FunctionCallbackInfoINS1_5ValueEEEE4args = internal constant %"struct.node::AssertionInfo" { ptr @.str.9, ptr @.str.10, ptr @.str.11 }, align 8
@.str.9 = private unnamed_addr constant [25 x i8] c"../../src/node_v8.cc:189\00", align 1
@.str.10 = private unnamed_addr constant [20 x i8] c"args[0]->IsUint32()\00", align 1
@.str.11 = private unnamed_addr constant [87 x i8] c"void node::v8_utils::SetHeapSnapshotNearHeapLimit(const FunctionCallbackInfo<Value> &)\00", align 1
@_ZZN4node8v8_utils28SetHeapSnapshotNearHeapLimitERKN2v820FunctionCallbackInfoINS1_5ValueEEEE4args_0 = internal constant %"struct.node::AssertionInfo" { ptr @.str.12, ptr @.str.13, ptr @.str.11 }, align 8
@.str.12 = private unnamed_addr constant [25 x i8] c"../../src/node_v8.cc:192\00", align 1
@.str.13 = private unnamed_addr constant [14 x i8] c"(limit) > (0)\00", align 1
@_ZZN4node8v8_utils31UpdateHeapSpaceStatisticsBufferERKN2v820FunctionCallbackInfoINS1_5ValueEEEE4args = internal constant %"struct.node::AssertionInfo" { ptr @.str.14, ptr @.str.10, ptr @.str.15 }, align 8
@.str.14 = private unnamed_addr constant [25 x i8] c"../../src/node_v8.cc:212\00", align 1
@.str.15 = private unnamed_addr constant [90 x i8] c"void node::v8_utils::UpdateHeapSpaceStatisticsBuffer(const FunctionCallbackInfo<Value> &)\00", align 1
@_ZZN4node8v8_utils18SetFlagsFromStringERKN2v820FunctionCallbackInfoINS1_5ValueEEEE4args = internal constant %"struct.node::AssertionInfo" { ptr @.str.16, ptr @.str.17, ptr @.str.18 }, align 8
@.str.16 = private unnamed_addr constant [25 x i8] c"../../src/node_v8.cc:236\00", align 1
@.str.17 = private unnamed_addr constant [20 x i8] c"args[0]->IsString()\00", align 1
@.str.18 = private unnamed_addr constant [77 x i8] c"void node::v8_utils::SetFlagsFromString(const FunctionCallbackInfo<Value> &)\00", align 1
@_ZTVN4node8v8_utils10GCProfilerE = linkonce_odr dso_local unnamed_addr constant { [19 x ptr] } { [19 x ptr] [ptr null, ptr null, ptr @_ZN4node8v8_utils10GCProfilerD2Ev, ptr @_ZN4node8v8_utils10GCProfilerD0Ev, ptr @_ZNK4node8v8_utils10GCProfiler10MemoryInfoEPNS_13MemoryTrackerE, ptr @_ZNK4node8v8_utils10GCProfiler14MemoryInfoNameEv, ptr @_ZNK4node8v8_utils10GCProfiler8SelfSizeEv, ptr @_ZNK4node10BaseObject13WrappedObjectEv, ptr @_ZNK4node10BaseObject10IsRootNodeEv, ptr @_ZNK4node10BaseObject15GetDetachednessEv, ptr @_ZNK4node10BaseObject18IsDoneInitializingEv, ptr @_ZNK4node10BaseObject15GetTransferModeEv, ptr @_ZN4node10BaseObject20TransferForMessagingEv, ptr @_ZNK4node10BaseObject17CloneForMessagingEv, ptr @_ZNK4node10BaseObject19NestedTransferablesEv, ptr @_ZN4node10BaseObject20FinalizeTransferReadEN2v85LocalINS1_7ContextEEEPNS1_17ValueDeserializerE, ptr @_ZNK4node10BaseObject33IsNotIndicativeOfMemoryLeakAtExitEv, ptr @_ZN4node10BaseObject11OnGCCollectEv, ptr @_ZNK4node10BaseObject15is_snapshotableEv] }, comdat, align 8
@_ZZN4node8v8_utils10GCProfiler3NewERKN2v820FunctionCallbackInfoINS2_5ValueEEEE4args = internal constant %"struct.node::AssertionInfo" { ptr @.str.19, ptr @.str.20, ptr @.str.21 }, align 8
@.str.19 = private unnamed_addr constant [25 x i8] c"../../src/node_v8.cc:364\00", align 1
@.str.20 = private unnamed_addr constant [23 x i8] c"args.IsConstructCall()\00", align 1
@.str.21 = private unnamed_addr constant [81 x i8] c"static void node::v8_utils::GCProfiler::New(const FunctionCallbackInfo<Value> &)\00", align 1
@.str.22 = private unnamed_addr constant [8 x i8] c"version\00", align 1
@.str.23 = private unnamed_addr constant [10 x i8] c"startTime\00", align 1
@.str.24 = private unnamed_addr constant [11 x i8] c"statistics\00", align 1
@.str.25 = private unnamed_addr constant [8 x i8] c"endTime\00", align 1
@.str.26 = private unnamed_addr constant [21 x i8] c"cachedDataVersionTag\00", align 1
@.str.27 = private unnamed_addr constant [29 x i8] c"setHeapSnapshotNearHeapLimit\00", align 1
@.str.28 = private unnamed_addr constant [27 x i8] c"updateHeapStatisticsBuffer\00", align 1
@.str.29 = private unnamed_addr constant [31 x i8] c"updateHeapCodeStatisticsBuffer\00", align 1
@.str.30 = private unnamed_addr constant [12 x i8] c"kHeapSpaces\00", align 1
@.str.31 = private unnamed_addr constant [32 x i8] c"updateHeapSpaceStatisticsBuffer\00", align 1
@.str.32 = private unnamed_addr constant [20 x i8] c"kTotalHeapSizeIndex\00", align 1
@.str.33 = private unnamed_addr constant [30 x i8] c"kTotalHeapSizeExecutableIndex\00", align 1
@.str.34 = private unnamed_addr constant [24 x i8] c"kTotalPhysicalSizeIndex\00", align 1
@.str.35 = private unnamed_addr constant [20 x i8] c"kTotalAvailableSize\00", align 1
@.str.36 = private unnamed_addr constant [19 x i8] c"kUsedHeapSizeIndex\00", align 1
@.str.37 = private unnamed_addr constant [20 x i8] c"kHeapSizeLimitIndex\00", align 1
@.str.38 = private unnamed_addr constant [21 x i8] c"kMallocedMemoryIndex\00", align 1
@.str.39 = private unnamed_addr constant [25 x i8] c"kPeakMallocedMemoryIndex\00", align 1
@.str.40 = private unnamed_addr constant [21 x i8] c"kDoesZapGarbageIndex\00", align 1
@.str.41 = private unnamed_addr constant [29 x i8] c"kNumberOfNativeContextsIndex\00", align 1
@.str.42 = private unnamed_addr constant [31 x i8] c"kNumberOfDetachedContextsIndex\00", align 1
@.str.43 = private unnamed_addr constant [29 x i8] c"kTotalGlobalHandlesSizeIndex\00", align 1
@.str.44 = private unnamed_addr constant [28 x i8] c"kUsedGlobalHandlesSizeIndex\00", align 1
@.str.45 = private unnamed_addr constant [21 x i8] c"kExternalMemoryIndex\00", align 1
@.str.46 = private unnamed_addr constant [26 x i8] c"kCodeAndMetadataSizeIndex\00", align 1
@.str.47 = private unnamed_addr constant [30 x i8] c"kBytecodeAndMetadataSizeIndex\00", align 1
@.str.48 = private unnamed_addr constant [31 x i8] c"kExternalScriptSourceSizeIndex\00", align 1
@.str.49 = private unnamed_addr constant [30 x i8] c"kCPUProfilerMetaDataSizeIndex\00", align 1
@.str.50 = private unnamed_addr constant [16 x i8] c"kSpaceSizeIndex\00", align 1
@.str.51 = private unnamed_addr constant [20 x i8] c"kSpaceUsedSizeIndex\00", align 1
@.str.52 = private unnamed_addr constant [25 x i8] c"kSpaceAvailableSizeIndex\00", align 1
@.str.53 = private unnamed_addr constant [24 x i8] c"kPhysicalSpaceSizeIndex\00", align 1
@.str.54 = private unnamed_addr constant [19 x i8] c"setFlagsFromString\00", align 1
@.str.55 = private unnamed_addr constant [6 x i8] c"start\00", align 1
@.str.56 = private unnamed_addr constant [5 x i8] c"stop\00", align 1
@.str.57 = private unnamed_addr constant [11 x i8] c"GCProfiler\00", align 1
@_ZL7_module = internal global %"struct.node::node_module" { i32 120, i32 4, ptr null, ptr @.str.98, ptr null, ptr @_ZN4node8v8_utils10InitializeEN2v85LocalINS1_6ObjectEEENS2_INS1_5ValueEEENS2_INS1_7ContextEEEPv, ptr @.str.99, ptr null, ptr null }, align 8
@_ZN4node18ContextEmbedderTag18kNodeContextTagPtrE = external constant ptr, align 8
@_ZZN4node13MemoryTracker5TrackEPKNS_14MemoryRetainerEPKcE4args = linkonce_odr dso_local constant %"struct.node::AssertionInfo" { ptr @.str.58, ptr @.str.59, ptr @.str.60 }, comdat, align 8
@.str.58 = private unnamed_addr constant [35 x i8] c"../../src/memory_tracker-inl.h:285\00", align 1
@.str.59 = private unnamed_addr constant [23 x i8] c"(CurrentNode()) == (n)\00", align 1
@.str.60 = private unnamed_addr constant [70 x i8] c"void node::MemoryTracker::Track(const MemoryRetainer *, const char *)\00", align 1
@_ZZN4node13MemoryTracker5TrackEPKNS_14MemoryRetainerEPKcE4args_0 = linkonce_odr dso_local constant %"struct.node::AssertionInfo" { ptr @.str.61, ptr @.str.62, ptr @.str.60 }, comdat, align 8
@.str.61 = private unnamed_addr constant [35 x i8] c"../../src/memory_tracker-inl.h:286\00", align 1
@.str.62 = private unnamed_addr constant [18 x i8] c"(n->size_) != (0)\00", align 1
@.str.63 = private unnamed_addr constant [21 x i8] c"native_to_javascript\00", align 1
@.str.64 = private unnamed_addr constant [21 x i8] c"javascript_to_native\00", align 1
@_ZTVN4node18MemoryRetainerNodeE = linkonce_odr dso_local unnamed_addr constant { [13 x ptr] } { [13 x ptr] [ptr null, ptr null, ptr @_ZN4node18MemoryRetainerNodeD2Ev, ptr @_ZN4node18MemoryRetainerNodeD0Ev, ptr @_ZN4node18MemoryRetainerNode4NameEv, ptr @_ZN4node18MemoryRetainerNode11SizeInBytesEv, ptr @_ZN2v813EmbedderGraph4Node11WrapperNodeEv, ptr @_ZN4node18MemoryRetainerNode10IsRootNodeEv, ptr @_ZN2v813EmbedderGraph4Node14IsEmbedderNodeEv, ptr @_ZN4node18MemoryRetainerNode10NamePrefixEv, ptr @_ZN2v813EmbedderGraph4Node15GetNativeObjectEv, ptr @_ZN4node18MemoryRetainerNode15GetDetachednessEv, ptr @_ZN2v813EmbedderGraph4Node10GetAddressEv] }, comdat, align 8
@_ZZN4node18MemoryRetainerNodeC1EPNS_13MemoryTrackerEPKNS_14MemoryRetainerEE4args = linkonce_odr dso_local constant %"struct.node::AssertionInfo" { ptr @.str.65, ptr @.str.66, ptr @.str.67 }, comdat, align 8
@.str.65 = private unnamed_addr constant [34 x i8] c"../../src/memory_tracker-inl.h:28\00", align 1
@.str.66 = private unnamed_addr constant [23 x i8] c"(retainer_) != nullptr\00", align 1
@.str.67 = private unnamed_addr constant [86 x i8] c"node::MemoryRetainerNode::MemoryRetainerNode(MemoryTracker *, const MemoryRetainer *)\00", align 1
@_ZTVN2v813EmbedderGraph4NodeE = linkonce_odr dso_local unnamed_addr constant { [13 x ptr] } { [13 x ptr] [ptr null, ptr null, ptr @_ZN2v813EmbedderGraph4NodeD2Ev, ptr @_ZN2v813EmbedderGraph4NodeD0Ev, ptr @__cxa_pure_virtual, ptr @__cxa_pure_virtual, ptr @_ZN2v813EmbedderGraph4Node11WrapperNodeEv, ptr @_ZN2v813EmbedderGraph4Node10IsRootNodeEv, ptr @_ZN2v813EmbedderGraph4Node14IsEmbedderNodeEv, ptr @_ZN2v813EmbedderGraph4Node10NamePrefixEv, ptr @_ZN2v813EmbedderGraph4Node15GetNativeObjectEv, ptr @_ZN2v813EmbedderGraph4Node15GetDetachednessEv, ptr @_ZN2v813EmbedderGraph4Node10GetAddressEv] }, comdat, align 8
@.str.68 = private unnamed_addr constant [7 x i8] c"Node /\00", align 1
@_ZSt19piecewise_construct = linkonce_odr dso_local constant %"struct.std::piecewise_construct_t" zeroinitializer, comdat, align 1
@.str.69 = private unnamed_addr constant [48 x i8] c"cannot create std::deque larger than max_size()\00", align 1
@.str.70 = private unnamed_addr constant [7 x i8] c"gcType\00", align 1
@.str.71 = private unnamed_addr constant [9 x i8] c"beforeGC\00", align 1
@.str.72 = private unnamed_addr constant [9 x i8] c"Scavenge\00", align 1
@.str.73 = private unnamed_addr constant [17 x i8] c"MarkSweepCompact\00", align 1
@.str.74 = private unnamed_addr constant [19 x i8] c"IncrementalMarking\00", align 1
@.str.75 = private unnamed_addr constant [21 x i8] c"ProcessWeakCallbacks\00", align 1
@.str.76 = private unnamed_addr constant [8 x i8] c"Unknown\00", align 1
@.str.77 = private unnamed_addr constant [15 x i8] c"heapStatistics\00", align 1
@.str.78 = private unnamed_addr constant [14 x i8] c"totalHeapSize\00", align 1
@.str.79 = private unnamed_addr constant [24 x i8] c"totalHeapSizeExecutable\00", align 1
@.str.80 = private unnamed_addr constant [18 x i8] c"totalPhysicalSize\00", align 1
@.str.81 = private unnamed_addr constant [19 x i8] c"totalAvailableSize\00", align 1
@.str.82 = private unnamed_addr constant [23 x i8] c"totalGlobalHandlesSize\00", align 1
@.str.83 = private unnamed_addr constant [22 x i8] c"usedGlobalHandlesSize\00", align 1
@.str.84 = private unnamed_addr constant [13 x i8] c"usedHeapSize\00", align 1
@.str.85 = private unnamed_addr constant [14 x i8] c"heapSizeLimit\00", align 1
@.str.86 = private unnamed_addr constant [15 x i8] c"mallocedMemory\00", align 1
@.str.87 = private unnamed_addr constant [15 x i8] c"externalMemory\00", align 1
@.str.88 = private unnamed_addr constant [19 x i8] c"peakMallocedMemory\00", align 1
@.str.89 = private unnamed_addr constant [20 x i8] c"heapSpaceStatistics\00", align 1
@.str.90 = private unnamed_addr constant [10 x i8] c"spaceName\00", align 1
@.str.91 = private unnamed_addr constant [10 x i8] c"spaceSize\00", align 1
@.str.92 = private unnamed_addr constant [14 x i8] c"spaceUsedSize\00", align 1
@.str.93 = private unnamed_addr constant [19 x i8] c"spaceAvailableSize\00", align 1
@.str.94 = private unnamed_addr constant [18 x i8] c"physicalSpaceSize\00", align 1
@.str.95 = private unnamed_addr constant [5 x i8] c"cost\00", align 1
@.str.96 = private unnamed_addr constant [8 x i8] c"afterGC\00", align 1
@.str.97 = private unnamed_addr constant [26 x i8] c"vector::_M_realloc_insert\00", align 1
@.str.98 = private unnamed_addr constant [21 x i8] c"../../src/node_v8.cc\00", align 1
@.str.99 = private unnamed_addr constant [3 x i8] c"v8\00", align 1
@_ZTVN4node17AliasedBufferBaseIdN2v812Float64ArrayEEE = linkonce_odr dso_local unnamed_addr constant { [10 x ptr] } { [10 x ptr] [ptr null, ptr null, ptr @_ZN4node17AliasedBufferBaseIdN2v812Float64ArrayEED2Ev, ptr @_ZN4node17AliasedBufferBaseIdN2v812Float64ArrayEED0Ev, ptr @_ZNK4node17AliasedBufferBaseIdN2v812Float64ArrayEE10MemoryInfoEPNS_13MemoryTrackerE, ptr @_ZNK4node17AliasedBufferBaseIdN2v812Float64ArrayEE14MemoryInfoNameEv, ptr @_ZNK4node17AliasedBufferBaseIdN2v812Float64ArrayEE8SelfSizeEv, ptr @_ZNK4node14MemoryRetainer13WrappedObjectEv, ptr @_ZNK4node14MemoryRetainer10IsRootNodeEv, ptr @_ZNK4node14MemoryRetainer15GetDetachednessEv] }, comdat, align 8
@.str.100 = private unnamed_addr constant [9 x i8] c"js_array\00", align 1
@.str.101 = private unnamed_addr constant [20 x i8] c"AliasedFloat64Array\00", align 1
@.str.102 = private unnamed_addr constant [12 x i8] c"BindingData\00", align 1
@_ZZN4node17AliasedBufferBaseIdN2v812Float64ArrayEEC1EPNS1_7IsolateEmPKmE4args = linkonce_odr dso_local constant %"struct.node::AssertionInfo" { ptr @.str.103, ptr @.str.104, ptr @.str.105 }, comdat, align 8
@.str.103 = private unnamed_addr constant [34 x i8] c"../../src/aliased_buffer-inl.h:17\00", align 1
@.str.104 = private unnamed_addr constant [14 x i8] c"(count) > (0)\00", align 1
@.str.105 = private unnamed_addr constant [169 x i8] c"node::AliasedBufferBase<double, v8::Float64Array>::AliasedBufferBase(v8::Isolate *, const size_t, const AliasedBufferIndex *) [NativeT = double, V8T = v8::Float64Array]\00", align 1
@_ZTVN4node14MemoryRetainerE = linkonce_odr dso_local unnamed_addr constant { [10 x ptr] } { [10 x ptr] [ptr null, ptr null, ptr @_ZN4node14MemoryRetainerD2Ev, ptr @_ZN4node14MemoryRetainerD0Ev, ptr @__cxa_pure_virtual, ptr @__cxa_pure_virtual, ptr @__cxa_pure_virtual, ptr @_ZNK4node14MemoryRetainer13WrappedObjectEv, ptr @_ZNK4node14MemoryRetainer10IsRootNodeEv, ptr @_ZNK4node14MemoryRetainer15GetDetachednessEv] }, comdat, align 8
@_ZZN4node25MultiplyWithOverflowCheckImEET_S1_S1_E4args = linkonce_odr dso_local constant %"struct.node::AssertionInfo" { ptr @.str.106, ptr @.str.107, ptr @.str.108 }, comdat, align 8
@.str.106 = private unnamed_addr constant [25 x i8] c"../../src/util-inl.h:329\00", align 1
@.str.107 = private unnamed_addr constant [17 x i8] c"(b) == (ret / a)\00", align 1
@.str.108 = private unnamed_addr constant [60 x i8] c"T node::MultiplyWithOverflowCheck(T, T) [T = unsigned long]\00", align 1
@_ZZN4node5Realm14AddBindingDataINS_8v8_utils11BindingDataEJRPNS3_17InternalFieldInfoEEEEPT_N2v85LocalINS9_6ObjectEEEDpOT0_E4args = linkonce_odr dso_local constant %"struct.node::AssertionInfo" { ptr @.str.109, ptr @.str.110, ptr @.str.111 }, comdat, align 8
@.str.109 = private unnamed_addr constant [30 x i8] c"../../src/node_realm-inl.h:97\00", align 1
@.str.110 = private unnamed_addr constant [36 x i8] c"!binding_data_store_[binding_index]\00", align 1
@.str.111 = private unnamed_addr constant [160 x i8] c"T *node::Realm::AddBindingData(v8::Local<v8::Object>, Args &&...) [T = node::v8_utils::BindingData, Args = <node::v8_utils::BindingData::InternalFieldInfo *&>]\00", align 1
@_ZZN4node17BaseObjectPtrImplINS_8v8_utils11BindingDataELb1EEC1EPS2_E4args = linkonce_odr dso_local constant %"struct.node::AssertionInfo" { ptr @.str.112, ptr @.str.113, ptr @.str.114 }, comdat, align 8
@.str.112 = private unnamed_addr constant [32 x i8] c"../../src/base_object-inl.h:202\00", align 1
@.str.113 = private unnamed_addr constant [28 x i8] c"(pointer_data()) != nullptr\00", align 1
@.str.114 = private unnamed_addr constant [133 x i8] c"node::BaseObjectPtrImpl<node::v8_utils::BindingData, true>::BaseObjectPtrImpl(T *) [T = node::v8_utils::BindingData, kIsWeak = true]\00", align 1
@_ZZN4node17BaseObjectPtrImplINS_10BaseObjectELb1EEC1EPS1_E4args = linkonce_odr dso_local constant %"struct.node::AssertionInfo" { ptr @.str.112, ptr @.str.113, ptr @.str.115 }, comdat, align 8
@.str.115 = private unnamed_addr constant [111 x i8] c"node::BaseObjectPtrImpl<node::BaseObject, true>::BaseObjectPtrImpl(T *) [T = node::BaseObject, kIsWeak = true]\00", align 1
@_ZZN4node5Realm14AddBindingDataINS_8v8_utils11BindingDataEJEEEPT_N2v85LocalINS6_6ObjectEEEDpOT0_E4args = linkonce_odr dso_local constant %"struct.node::AssertionInfo" { ptr @.str.109, ptr @.str.110, ptr @.str.116 }, comdat, align 8
@.str.116 = private unnamed_addr constant [111 x i8] c"T *node::Realm::AddBindingData(v8::Local<v8::Object>, Args &&...) [T = node::v8_utils::BindingData, Args = <>]\00", align 1
@_ZZN4node16MaybeStackBufferIN2v85LocalINS1_5ValueEEELm16EE25AllocateSufficientStorageEmE4args = linkonce_odr dso_local constant %"struct.node::AssertionInfo" { ptr @.str.117, ptr @.str.118, ptr @.str.119 }, comdat, align 8
@.str.117 = private unnamed_addr constant [25 x i8] c"../../src/util-inl.h:516\00", align 1
@.str.118 = private unnamed_addr constant [17 x i8] c"!IsInvalidated()\00", align 1
@.str.119 = private unnamed_addr constant [140 x i8] c"void node::MaybeStackBuffer<v8::Local<v8::Value>, 16>::AllocateSufficientStorage(size_t) [T = v8::Local<v8::Value>, kStackStorageSize = 16]\00", align 1
@_ZZN4node7ReallocIN2v85LocalINS1_5ValueEEEEEPT_S6_mE4args = linkonce_odr dso_local constant %"struct.node::AssertionInfo" { ptr @.str.120, ptr @.str.121, ptr @.str.122 }, comdat, align 8
@.str.120 = private unnamed_addr constant [25 x i8] c"../../src/util-inl.h:376\00", align 1
@.str.121 = private unnamed_addr constant [29 x i8] c"!(n > 0) || (ret != nullptr)\00", align 1
@.str.122 = private unnamed_addr constant [57 x i8] c"T *node::Realloc(T *, size_t) [T = v8::Local<v8::Value>]\00", align 1
@_ZZN4node16MaybeStackBufferIN2v85LocalINS1_5ValueEEELm16EEixEmE4args = linkonce_odr dso_local constant %"struct.node::AssertionInfo" { ptr @.str.123, ptr @.str.124, ptr @.str.125 }, comdat, align 8
@.str.123 = private unnamed_addr constant [21 x i8] c"../../src/util.h:410\00", align 1
@.str.124 = private unnamed_addr constant [21 x i8] c"(index) < (length())\00", align 1
@.str.125 = private unnamed_addr constant [123 x i8] c"T &node::MaybeStackBuffer<v8::Local<v8::Value>, 16>::operator[](size_t) [T = v8::Local<v8::Value>, kStackStorageSize = 16]\00", align 1
@llvm.global_ctors = appending global [1 x { i32, ptr, ptr }] [{ i32, ptr, ptr } { i32 65535, ptr @_GLOBAL__sub_I_node_v8.cc, ptr null }]

@_ZN4node8v8_utils11BindingDataC1EPNS_5RealmEN2v85LocalINS4_6ObjectEEEPNS1_17InternalFieldInfoE = dso_local unnamed_addr alias void (ptr, ptr, ptr, ptr), ptr @_ZN4node8v8_utils11BindingDataC2EPNS_5RealmEN2v85LocalINS4_6ObjectEEEPNS1_17InternalFieldInfoE
@_ZN4node8v8_utils10GCProfilerC1EPNS_11EnvironmentEN2v85LocalINS4_6ObjectEEE = dso_local unnamed_addr alias void (ptr, ptr, ptr), ptr @_ZN4node8v8_utils10GCProfilerC2EPNS_11EnvironmentEN2v85LocalINS4_6ObjectEEE

; Function Attrs: nounwind uwtable
define internal void @__cxx_global_var_init() #0 section ".text.startup" {
entry:
  call void @_ZNSt8ios_base4InitC1Ev(ptr noundef nonnull align 1 dereferenceable(1) @_ZStL8__ioinit)
  %0 = call i32 @__cxa_atexit(ptr @_ZNSt8ios_base4InitD1Ev, ptr @_ZStL8__ioinit, ptr @__dso_handle) #3
  ret void
}

declare void @_ZNSt8ios_base4InitC1Ev(ptr noundef nonnull align 1 dereferenceable(1)) unnamed_addr #1

; Function Attrs: nounwind
declare void @_ZNSt8ios_base4InitD1Ev(ptr noundef nonnull align 1 dereferenceable(1)) unnamed_addr #2

; Function Attrs: nounwind
declare i32 @__cxa_atexit(ptr, ptr, ptr) #3

; Function Attrs: mustprogress nounwind uwtable
define dso_local void @_ZN4node8v8_utils11BindingDataC2EPNS_5RealmEN2v85LocalINS4_6ObjectEEEPNS1_17InternalFieldInfoE(ptr noundef nonnull align 8 dereferenceable(216) %this, ptr noundef %realm, ptr %obj.coerce, ptr noundef %info) unnamed_addr #4 align 2 {
entry:
  %this.addr.i236 = alloca ptr, align 8
  %other.addr.i237 = alloca ptr, align 8
  %this.addr.i233 = alloca ptr, align 8
  %other.addr.i234 = alloca ptr, align 8
  %this.addr.i230 = alloca ptr, align 8
  %other.addr.i231 = alloca ptr, align 8
  %this.addr.i227 = alloca ptr, align 8
  %this.addr.i224 = alloca ptr, align 8
  %this.addr.i222 = alloca ptr, align 8
  %this.addr.i219 = alloca ptr, align 8
  %other.addr.i220 = alloca ptr, align 8
  %this.addr.i216 = alloca ptr, align 8
  %other.addr.i217 = alloca ptr, align 8
  %this.addr.i214 = alloca ptr, align 8
  %other.addr.i = alloca ptr, align 8
  %slot.addr.i213 = alloca ptr, align 8
  %slot.addr.i212 = alloca ptr, align 8
  %slot.addr.i = alloca ptr, align 8
  %this.addr.i.i207 = alloca ptr, align 8
  %this.addr.i208 = alloca ptr, align 8
  %this.addr.i.i202 = alloca ptr, align 8
  %this.addr.i203 = alloca ptr, align 8
  %this.addr.i.i = alloca ptr, align 8
  %this.addr.i200 = alloca ptr, align 8
  %this.addr.i193 = alloca ptr, align 8
  %this.addr.i186 = alloca ptr, align 8
  %this.addr.i183 = alloca ptr, align 8
  %that.i180 = alloca %"class.v8::Local.28", align 8
  %this.addr.i181 = alloca ptr, align 8
  %that.i177 = alloca %"class.v8::Local.28", align 8
  %this.addr.i178 = alloca ptr, align 8
  %that.i174 = alloca %"class.v8::Local.28", align 8
  %this.addr.i175 = alloca ptr, align 8
  %that.i171 = alloca %"class.v8::Local.26", align 8
  %this.addr.i172 = alloca ptr, align 8
  %that.i168 = alloca %"class.v8::Local.26", align 8
  %this.addr.i169 = alloca ptr, align 8
  %that.i = alloca %"class.v8::Local.26", align 8
  %this.addr.i167 = alloca ptr, align 8
  %this.addr.i164 = alloca ptr, align 8
  %this.addr.i161 = alloca ptr, align 8
  %this.addr.i = alloca ptr, align 8
  %obj = alloca %"class.v8::Local", align 8
  %this.addr = alloca ptr, align 8
  %realm.addr = alloca ptr, align 8
  %info.addr = alloca ptr, align 8
  %agg.tmp = alloca %"class.v8::Local", align 8
  %context = alloca %"class.v8::Local.22", align 8
  %ref.tmp = alloca %"class.v8::Maybe", align 1
  %agg.tmp28 = alloca %"class.v8::Local.22", align 8
  %agg.tmp29 = alloca %"class.v8::Local.24", align 8
  %agg.tmp30 = alloca %"class.v8::Local.26", align 8
  %agg.tmp39 = alloca %"class.v8::Local.24", align 8
  %agg.tmp40 = alloca %"class.v8::Local.28", align 8
  %ref.tmp59 = alloca %"class.v8::Maybe", align 1
  %agg.tmp61 = alloca %"class.v8::Local.22", align 8
  %agg.tmp62 = alloca %"class.v8::Local.24", align 8
  %agg.tmp63 = alloca %"class.v8::Local.26", align 8
  %agg.tmp72 = alloca %"class.v8::Local.24", align 8
  %agg.tmp73 = alloca %"class.v8::Local.28", align 8
  %ref.tmp92 = alloca %"class.v8::Maybe", align 1
  %agg.tmp94 = alloca %"class.v8::Local.22", align 8
  %agg.tmp95 = alloca %"class.v8::Local.24", align 8
  %agg.tmp96 = alloca %"class.v8::Local.26", align 8
  %agg.tmp105 = alloca %"class.v8::Local.24", align 8
  %agg.tmp106 = alloca %"class.v8::Local.28", align 8
  %agg.tmp126 = alloca %"class.v8::Local.22", align 8
  %agg.tmp137 = alloca %"class.v8::Local.22", align 8
  %agg.tmp148 = alloca %"class.v8::Local.22", align 8
  %coerce.dive = getelementptr inbounds %"class.v8::Local", ptr %obj, i32 0, i32 0
  %coerce.dive1 = getelementptr inbounds %"class.v8::LocalBase", ptr %coerce.dive, i32 0, i32 0
  %coerce.dive2 = getelementptr inbounds %"class.v8::IndirectHandleBase", ptr %coerce.dive1, i32 0, i32 0
  store ptr %obj.coerce, ptr %coerce.dive2, align 8
  store ptr %this, ptr %this.addr, align 8
  store ptr %realm, ptr %realm.addr, align 8
  store ptr %info, ptr %info.addr, align 8
  %this3 = load ptr, ptr %this.addr, align 8
  %0 = load ptr, ptr %realm.addr, align 8
  call void @llvm.memcpy.p0.p0.i64(ptr align 8 %agg.tmp, ptr align 8 %obj, i64 8, i1 false)
  %coerce.dive4 = getelementptr inbounds %"class.v8::Local", ptr %agg.tmp, i32 0, i32 0
  %coerce.dive5 = getelementptr inbounds %"class.v8::LocalBase", ptr %coerce.dive4, i32 0, i32 0
  %coerce.dive6 = getelementptr inbounds %"class.v8::IndirectHandleBase", ptr %coerce.dive5, i32 0, i32 0
  %1 = load ptr, ptr %coerce.dive6, align 8
  call void @_ZN4node18SnapshotableObjectC2EPNS_5RealmEN2v85LocalINS3_6ObjectEEENS_18EmbedderObjectTypeE(ptr noundef nonnull align 8 dereferenceable(33) %this3, ptr noundef %0, ptr %1, i8 noundef zeroext 3)
  store ptr getelementptr inbounds ({ [21 x ptr] }, ptr @_ZTVN4node8v8_utils11BindingDataE, i32 0, inrange i32 0, i32 2), ptr %this3, align 8
  %heap_statistics_buffer = getelementptr inbounds %"class.node::v8_utils::BindingData", ptr %this3, i32 0, i32 1
  %2 = load ptr, ptr %realm.addr, align 8
  %call = call noundef ptr @_ZNK4node5Realm7isolateEv(ptr noundef nonnull align 8 dereferenceable(872) %2)
  %3 = load ptr, ptr %info.addr, align 8
  %cmp = icmp eq ptr %3, null
  br i1 %cmp, label %cond.true, label %cond.false

cond.true:                                        ; preds = %entry
  br label %cond.end

cond.false:                                       ; preds = %entry
  %4 = load ptr, ptr %info.addr, align 8
  %heap_statistics_buffer7 = getelementptr inbounds %"struct.node::v8_utils::BindingData::InternalFieldInfo", ptr %4, i32 0, i32 1
  br label %cond.end

cond.end:                                         ; preds = %cond.false, %cond.true
  %cond = phi ptr [ null, %cond.true ], [ %heap_statistics_buffer7, %cond.false ]
  call void @_ZN4node17AliasedBufferBaseIdN2v812Float64ArrayEEC2EPNS1_7IsolateEmPKm(ptr noundef nonnull align 8 dereferenceable(56) %heap_statistics_buffer, ptr noundef %call, i64 noundef 14, ptr noundef %cond)
  %heap_space_statistics_buffer = getelementptr inbounds %"class.node::v8_utils::BindingData", ptr %this3, i32 0, i32 2
  %5 = load ptr, ptr %realm.addr, align 8
  %call8 = call noundef ptr @_ZNK4node5Realm7isolateEv(ptr noundef nonnull align 8 dereferenceable(872) %5)
  %6 = load ptr, ptr %info.addr, align 8
  %cmp9 = icmp eq ptr %6, null
  br i1 %cmp9, label %cond.true10, label %cond.false11

cond.true10:                                      ; preds = %cond.end
  br label %cond.end13

cond.false11:                                     ; preds = %cond.end
  %7 = load ptr, ptr %info.addr, align 8
  %heap_space_statistics_buffer12 = getelementptr inbounds %"struct.node::v8_utils::BindingData::InternalFieldInfo", ptr %7, i32 0, i32 2
  br label %cond.end13

cond.end13:                                       ; preds = %cond.false11, %cond.true10
  %cond14 = phi ptr [ null, %cond.true10 ], [ %heap_space_statistics_buffer12, %cond.false11 ]
  call void @_ZN4node17AliasedBufferBaseIdN2v812Float64ArrayEEC2EPNS1_7IsolateEmPKm(ptr noundef nonnull align 8 dereferenceable(56) %heap_space_statistics_buffer, ptr noundef %call8, i64 noundef 4, ptr noundef %cond14)
  %heap_code_statistics_buffer = getelementptr inbounds %"class.node::v8_utils::BindingData", ptr %this3, i32 0, i32 3
  %8 = load ptr, ptr %realm.addr, align 8
  %call15 = call noundef ptr @_ZNK4node5Realm7isolateEv(ptr noundef nonnull align 8 dereferenceable(872) %8)
  %9 = load ptr, ptr %info.addr, align 8
  %cmp16 = icmp eq ptr %9, null
  br i1 %cmp16, label %cond.true17, label %cond.false18

cond.true17:                                      ; preds = %cond.end13
  br label %cond.end20

cond.false18:                                     ; preds = %cond.end13
  %10 = load ptr, ptr %info.addr, align 8
  %heap_code_statistics_buffer19 = getelementptr inbounds %"struct.node::v8_utils::BindingData::InternalFieldInfo", ptr %10, i32 0, i32 3
  br label %cond.end20

cond.end20:                                       ; preds = %cond.false18, %cond.true17
  %cond21 = phi ptr [ null, %cond.true17 ], [ %heap_code_statistics_buffer19, %cond.false18 ]
  call void @_ZN4node17AliasedBufferBaseIdN2v812Float64ArrayEEC2EPNS1_7IsolateEmPKm(ptr noundef nonnull align 8 dereferenceable(56) %heap_code_statistics_buffer, ptr noundef %call15, i64 noundef 4, ptr noundef %cond21)
  %internal_field_info_ = getelementptr inbounds %"class.node::v8_utils::BindingData", ptr %this3, i32 0, i32 4
  store ptr null, ptr %internal_field_info_, align 8
  %11 = load ptr, ptr %realm.addr, align 8
  %vtable = load ptr, ptr %11, align 8
  %vfn = getelementptr inbounds ptr, ptr %vtable, i64 8
  %12 = load ptr, ptr %vfn, align 8
  %call22 = call ptr %12(ptr noundef nonnull align 8 dereferenceable(872) %11)
  %coerce.dive23 = getelementptr inbounds %"class.v8::Local.22", ptr %context, i32 0, i32 0
  %coerce.dive24 = getelementptr inbounds %"class.v8::LocalBase.23", ptr %coerce.dive23, i32 0, i32 0
  %coerce.dive25 = getelementptr inbounds %"class.v8::IndirectHandleBase", ptr %coerce.dive24, i32 0, i32 0
  store ptr %call22, ptr %coerce.dive25, align 8
  %13 = load ptr, ptr %info.addr, align 8
  %cmp26 = icmp eq ptr %13, null
  br i1 %cmp26, label %if.then, label %if.else

if.then:                                          ; preds = %cond.end20
  store ptr %obj, ptr %this.addr.i164, align 8
  %this1.i165 = load ptr, ptr %this.addr.i164, align 8
  store ptr %this1.i165, ptr %this.addr.i200, align 8
  %this1.i201 = load ptr, ptr %this.addr.i200, align 8
  store ptr %this1.i201, ptr %this.addr.i.i, align 8
  %this1.i.i = load ptr, ptr %this.addr.i.i, align 8
  %14 = load ptr, ptr %this1.i.i, align 8
  store ptr %14, ptr %slot.addr.i213, align 8
  %15 = load ptr, ptr %slot.addr.i213, align 8
  call void @llvm.memcpy.p0.p0.i64(ptr align 8 %agg.tmp28, ptr align 8 %context, i64 8, i1 false)
  %16 = load ptr, ptr %realm.addr, align 8
  %call31 = call noundef ptr @_ZNK4node5Realm7isolateEv(ptr noundef nonnull align 8 dereferenceable(872) %16)
  %call32 = call ptr @_ZN4node21FIXED_ONE_BYTE_STRINGILi21EEEN2v85LocalINS1_6StringEEEPNS1_7IsolateERAT__Kc(ptr noundef %call31, ptr noundef nonnull align 1 dereferenceable(21) @.str)
  %coerce.dive33 = getelementptr inbounds %"class.v8::Local.26", ptr %agg.tmp30, i32 0, i32 0
  %coerce.dive34 = getelementptr inbounds %"class.v8::LocalBase.27", ptr %coerce.dive33, i32 0, i32 0
  %coerce.dive35 = getelementptr inbounds %"class.v8::IndirectHandleBase", ptr %coerce.dive34, i32 0, i32 0
  store ptr %call32, ptr %coerce.dive35, align 8
  %coerce.dive36 = getelementptr inbounds %"class.v8::Local.26", ptr %agg.tmp30, i32 0, i32 0
  %coerce.dive37 = getelementptr inbounds %"class.v8::LocalBase.27", ptr %coerce.dive36, i32 0, i32 0
  %coerce.dive38 = getelementptr inbounds %"class.v8::IndirectHandleBase", ptr %coerce.dive37, i32 0, i32 0
  %17 = load ptr, ptr %coerce.dive38, align 8
  store ptr %17, ptr %that.i, align 8
  store ptr %agg.tmp29, ptr %this.addr.i167, align 8
  %this3.i = load ptr, ptr %this.addr.i167, align 8
  store ptr %this3.i, ptr %this.addr.i219, align 8
  store ptr %that.i, ptr %other.addr.i220, align 8
  %this1.i221 = load ptr, ptr %this.addr.i219, align 8
  %18 = load ptr, ptr %other.addr.i220, align 8
  call void @llvm.memcpy.p0.p0.i64(ptr align 8 %this1.i221, ptr align 8 %18, i64 8, i1 false)
  %heap_statistics_buffer41 = getelementptr inbounds %"class.node::v8_utils::BindingData", ptr %this3, i32 0, i32 1
  %call42 = call ptr @_ZNK4node17AliasedBufferBaseIdN2v812Float64ArrayEE10GetJSArrayEv(ptr noundef nonnull align 8 dereferenceable(56) %heap_statistics_buffer41)
  %coerce.dive43 = getelementptr inbounds %"class.v8::Local.28", ptr %agg.tmp40, i32 0, i32 0
  %coerce.dive44 = getelementptr inbounds %"class.v8::LocalBase.29", ptr %coerce.dive43, i32 0, i32 0
  %coerce.dive45 = getelementptr inbounds %"class.v8::IndirectHandleBase", ptr %coerce.dive44, i32 0, i32 0
  store ptr %call42, ptr %coerce.dive45, align 8
  %coerce.dive46 = getelementptr inbounds %"class.v8::Local.28", ptr %agg.tmp40, i32 0, i32 0
  %coerce.dive47 = getelementptr inbounds %"class.v8::LocalBase.29", ptr %coerce.dive46, i32 0, i32 0
  %coerce.dive48 = getelementptr inbounds %"class.v8::IndirectHandleBase", ptr %coerce.dive47, i32 0, i32 0
  %19 = load ptr, ptr %coerce.dive48, align 8
  store ptr %19, ptr %that.i174, align 8
  store ptr %agg.tmp39, ptr %this.addr.i175, align 8
  %this3.i176 = load ptr, ptr %this.addr.i175, align 8
  store ptr %this3.i176, ptr %this.addr.i236, align 8
  store ptr %that.i174, ptr %other.addr.i237, align 8
  %this1.i238 = load ptr, ptr %this.addr.i236, align 8
  %20 = load ptr, ptr %other.addr.i237, align 8
  call void @llvm.memcpy.p0.p0.i64(ptr align 8 %this1.i238, ptr align 8 %20, i64 8, i1 false)
  %coerce.dive49 = getelementptr inbounds %"class.v8::Local.22", ptr %agg.tmp28, i32 0, i32 0
  %coerce.dive50 = getelementptr inbounds %"class.v8::LocalBase.23", ptr %coerce.dive49, i32 0, i32 0
  %coerce.dive51 = getelementptr inbounds %"class.v8::IndirectHandleBase", ptr %coerce.dive50, i32 0, i32 0
  %21 = load ptr, ptr %coerce.dive51, align 8
  %coerce.dive52 = getelementptr inbounds %"class.v8::Local.24", ptr %agg.tmp29, i32 0, i32 0
  %coerce.dive53 = getelementptr inbounds %"class.v8::LocalBase.25", ptr %coerce.dive52, i32 0, i32 0
  %coerce.dive54 = getelementptr inbounds %"class.v8::IndirectHandleBase", ptr %coerce.dive53, i32 0, i32 0
  %22 = load ptr, ptr %coerce.dive54, align 8
  %coerce.dive55 = getelementptr inbounds %"class.v8::Local.24", ptr %agg.tmp39, i32 0, i32 0
  %coerce.dive56 = getelementptr inbounds %"class.v8::LocalBase.25", ptr %coerce.dive55, i32 0, i32 0
  %coerce.dive57 = getelementptr inbounds %"class.v8::IndirectHandleBase", ptr %coerce.dive56, i32 0, i32 0
  %23 = load ptr, ptr %coerce.dive57, align 8
  %call58 = call i16 @_ZN2v86Object3SetENS_5LocalINS_7ContextEEENS1_INS_5ValueEEES5_(ptr noundef nonnull align 1 dereferenceable(1) %15, ptr %21, ptr %22, ptr %23)
  store i16 %call58, ptr %ref.tmp, align 1
  store ptr %ref.tmp, ptr %this.addr.i193, align 8
  %this1.i194 = load ptr, ptr %this.addr.i193, align 8
  store ptr %this1.i194, ptr %this.addr.i222, align 8
  %this1.i223 = load ptr, ptr %this.addr.i222, align 8
  %24 = load i8, ptr %this1.i223, align 1
  %tobool.i = trunc i8 %24 to i1
  %lnot3.i197 = xor i1 %tobool.i, true
  br i1 %lnot3.i197, label %if.then.i198, label %_ZNK2v85MaybeIbE5CheckEv.exit199

if.then.i198:                                     ; preds = %if.then
  call void @_ZN2v812api_internal17FromJustIsNothingEv() #3
  br label %_ZNK2v85MaybeIbE5CheckEv.exit199

_ZNK2v85MaybeIbE5CheckEv.exit199:                 ; preds = %if.then.i198, %if.then
  store ptr %obj, ptr %this.addr.i161, align 8
  %this1.i162 = load ptr, ptr %this.addr.i161, align 8
  store ptr %this1.i162, ptr %this.addr.i203, align 8
  %this1.i204 = load ptr, ptr %this.addr.i203, align 8
  store ptr %this1.i204, ptr %this.addr.i.i202, align 8
  %this1.i.i205 = load ptr, ptr %this.addr.i.i202, align 8
  %25 = load ptr, ptr %this1.i.i205, align 8
  store ptr %25, ptr %slot.addr.i212, align 8
  %26 = load ptr, ptr %slot.addr.i212, align 8
  call void @llvm.memcpy.p0.p0.i64(ptr align 8 %agg.tmp61, ptr align 8 %context, i64 8, i1 false)
  %27 = load ptr, ptr %realm.addr, align 8
  %call64 = call noundef ptr @_ZNK4node5Realm7isolateEv(ptr noundef nonnull align 8 dereferenceable(872) %27)
  %call65 = call ptr @_ZN4node21FIXED_ONE_BYTE_STRINGILi25EEEN2v85LocalINS1_6StringEEEPNS1_7IsolateERAT__Kc(ptr noundef %call64, ptr noundef nonnull align 1 dereferenceable(25) @.str.1)
  %coerce.dive66 = getelementptr inbounds %"class.v8::Local.26", ptr %agg.tmp63, i32 0, i32 0
  %coerce.dive67 = getelementptr inbounds %"class.v8::LocalBase.27", ptr %coerce.dive66, i32 0, i32 0
  %coerce.dive68 = getelementptr inbounds %"class.v8::IndirectHandleBase", ptr %coerce.dive67, i32 0, i32 0
  store ptr %call65, ptr %coerce.dive68, align 8
  %coerce.dive69 = getelementptr inbounds %"class.v8::Local.26", ptr %agg.tmp63, i32 0, i32 0
  %coerce.dive70 = getelementptr inbounds %"class.v8::LocalBase.27", ptr %coerce.dive69, i32 0, i32 0
  %coerce.dive71 = getelementptr inbounds %"class.v8::IndirectHandleBase", ptr %coerce.dive70, i32 0, i32 0
  %28 = load ptr, ptr %coerce.dive71, align 8
  store ptr %28, ptr %that.i168, align 8
  store ptr %agg.tmp62, ptr %this.addr.i169, align 8
  %this3.i170 = load ptr, ptr %this.addr.i169, align 8
  store ptr %this3.i170, ptr %this.addr.i216, align 8
  store ptr %that.i168, ptr %other.addr.i217, align 8
  %this1.i218 = load ptr, ptr %this.addr.i216, align 8
  %29 = load ptr, ptr %other.addr.i217, align 8
  call void @llvm.memcpy.p0.p0.i64(ptr align 8 %this1.i218, ptr align 8 %29, i64 8, i1 false)
  %heap_code_statistics_buffer74 = getelementptr inbounds %"class.node::v8_utils::BindingData", ptr %this3, i32 0, i32 3
  %call75 = call ptr @_ZNK4node17AliasedBufferBaseIdN2v812Float64ArrayEE10GetJSArrayEv(ptr noundef nonnull align 8 dereferenceable(56) %heap_code_statistics_buffer74)
  %coerce.dive76 = getelementptr inbounds %"class.v8::Local.28", ptr %agg.tmp73, i32 0, i32 0
  %coerce.dive77 = getelementptr inbounds %"class.v8::LocalBase.29", ptr %coerce.dive76, i32 0, i32 0
  %coerce.dive78 = getelementptr inbounds %"class.v8::IndirectHandleBase", ptr %coerce.dive77, i32 0, i32 0
  store ptr %call75, ptr %coerce.dive78, align 8
  %coerce.dive79 = getelementptr inbounds %"class.v8::Local.28", ptr %agg.tmp73, i32 0, i32 0
  %coerce.dive80 = getelementptr inbounds %"class.v8::LocalBase.29", ptr %coerce.dive79, i32 0, i32 0
  %coerce.dive81 = getelementptr inbounds %"class.v8::IndirectHandleBase", ptr %coerce.dive80, i32 0, i32 0
  %30 = load ptr, ptr %coerce.dive81, align 8
  store ptr %30, ptr %that.i177, align 8
  store ptr %agg.tmp72, ptr %this.addr.i178, align 8
  %this3.i179 = load ptr, ptr %this.addr.i178, align 8
  store ptr %this3.i179, ptr %this.addr.i233, align 8
  store ptr %that.i177, ptr %other.addr.i234, align 8
  %this1.i235 = load ptr, ptr %this.addr.i233, align 8
  %31 = load ptr, ptr %other.addr.i234, align 8
  call void @llvm.memcpy.p0.p0.i64(ptr align 8 %this1.i235, ptr align 8 %31, i64 8, i1 false)
  %coerce.dive82 = getelementptr inbounds %"class.v8::Local.22", ptr %agg.tmp61, i32 0, i32 0
  %coerce.dive83 = getelementptr inbounds %"class.v8::LocalBase.23", ptr %coerce.dive82, i32 0, i32 0
  %coerce.dive84 = getelementptr inbounds %"class.v8::IndirectHandleBase", ptr %coerce.dive83, i32 0, i32 0
  %32 = load ptr, ptr %coerce.dive84, align 8
  %coerce.dive85 = getelementptr inbounds %"class.v8::Local.24", ptr %agg.tmp62, i32 0, i32 0
  %coerce.dive86 = getelementptr inbounds %"class.v8::LocalBase.25", ptr %coerce.dive85, i32 0, i32 0
  %coerce.dive87 = getelementptr inbounds %"class.v8::IndirectHandleBase", ptr %coerce.dive86, i32 0, i32 0
  %33 = load ptr, ptr %coerce.dive87, align 8
  %coerce.dive88 = getelementptr inbounds %"class.v8::Local.24", ptr %agg.tmp72, i32 0, i32 0
  %coerce.dive89 = getelementptr inbounds %"class.v8::LocalBase.25", ptr %coerce.dive88, i32 0, i32 0
  %coerce.dive90 = getelementptr inbounds %"class.v8::IndirectHandleBase", ptr %coerce.dive89, i32 0, i32 0
  %34 = load ptr, ptr %coerce.dive90, align 8
  %call91 = call i16 @_ZN2v86Object3SetENS_5LocalINS_7ContextEEENS1_INS_5ValueEEES5_(ptr noundef nonnull align 1 dereferenceable(1) %26, ptr %32, ptr %33, ptr %34)
  store i16 %call91, ptr %ref.tmp59, align 1
  store ptr %ref.tmp59, ptr %this.addr.i186, align 8
  %this1.i187 = load ptr, ptr %this.addr.i186, align 8
  store ptr %this1.i187, ptr %this.addr.i224, align 8
  %this1.i225 = load ptr, ptr %this.addr.i224, align 8
  %35 = load i8, ptr %this1.i225, align 1
  %tobool.i226 = trunc i8 %35 to i1
  %lnot3.i190 = xor i1 %tobool.i226, true
  br i1 %lnot3.i190, label %if.then.i191, label %_ZNK2v85MaybeIbE5CheckEv.exit192

if.then.i191:                                     ; preds = %_ZNK2v85MaybeIbE5CheckEv.exit199
  call void @_ZN2v812api_internal17FromJustIsNothingEv() #3
  br label %_ZNK2v85MaybeIbE5CheckEv.exit192

_ZNK2v85MaybeIbE5CheckEv.exit192:                 ; preds = %if.then.i191, %_ZNK2v85MaybeIbE5CheckEv.exit199
  store ptr %obj, ptr %this.addr.i, align 8
  %this1.i = load ptr, ptr %this.addr.i, align 8
  store ptr %this1.i, ptr %this.addr.i208, align 8
  %this1.i209 = load ptr, ptr %this.addr.i208, align 8
  store ptr %this1.i209, ptr %this.addr.i.i207, align 8
  %this1.i.i210 = load ptr, ptr %this.addr.i.i207, align 8
  %36 = load ptr, ptr %this1.i.i210, align 8
  store ptr %36, ptr %slot.addr.i, align 8
  %37 = load ptr, ptr %slot.addr.i, align 8
  call void @llvm.memcpy.p0.p0.i64(ptr align 8 %agg.tmp94, ptr align 8 %context, i64 8, i1 false)
  %38 = load ptr, ptr %realm.addr, align 8
  %call97 = call noundef ptr @_ZNK4node5Realm7isolateEv(ptr noundef nonnull align 8 dereferenceable(872) %38)
  %call98 = call ptr @_ZN4node21FIXED_ONE_BYTE_STRINGILi26EEEN2v85LocalINS1_6StringEEEPNS1_7IsolateERAT__Kc(ptr noundef %call97, ptr noundef nonnull align 1 dereferenceable(26) @.str.2)
  %coerce.dive99 = getelementptr inbounds %"class.v8::Local.26", ptr %agg.tmp96, i32 0, i32 0
  %coerce.dive100 = getelementptr inbounds %"class.v8::LocalBase.27", ptr %coerce.dive99, i32 0, i32 0
  %coerce.dive101 = getelementptr inbounds %"class.v8::IndirectHandleBase", ptr %coerce.dive100, i32 0, i32 0
  store ptr %call98, ptr %coerce.dive101, align 8
  %coerce.dive102 = getelementptr inbounds %"class.v8::Local.26", ptr %agg.tmp96, i32 0, i32 0
  %coerce.dive103 = getelementptr inbounds %"class.v8::LocalBase.27", ptr %coerce.dive102, i32 0, i32 0
  %coerce.dive104 = getelementptr inbounds %"class.v8::IndirectHandleBase", ptr %coerce.dive103, i32 0, i32 0
  %39 = load ptr, ptr %coerce.dive104, align 8
  store ptr %39, ptr %that.i171, align 8
  store ptr %agg.tmp95, ptr %this.addr.i172, align 8
  %this3.i173 = load ptr, ptr %this.addr.i172, align 8
  store ptr %this3.i173, ptr %this.addr.i214, align 8
  store ptr %that.i171, ptr %other.addr.i, align 8
  %this1.i215 = load ptr, ptr %this.addr.i214, align 8
  %40 = load ptr, ptr %other.addr.i, align 8
  call void @llvm.memcpy.p0.p0.i64(ptr align 8 %this1.i215, ptr align 8 %40, i64 8, i1 false)
  %heap_space_statistics_buffer107 = getelementptr inbounds %"class.node::v8_utils::BindingData", ptr %this3, i32 0, i32 2
  %call108 = call ptr @_ZNK4node17AliasedBufferBaseIdN2v812Float64ArrayEE10GetJSArrayEv(ptr noundef nonnull align 8 dereferenceable(56) %heap_space_statistics_buffer107)
  %coerce.dive109 = getelementptr inbounds %"class.v8::Local.28", ptr %agg.tmp106, i32 0, i32 0
  %coerce.dive110 = getelementptr inbounds %"class.v8::LocalBase.29", ptr %coerce.dive109, i32 0, i32 0
  %coerce.dive111 = getelementptr inbounds %"class.v8::IndirectHandleBase", ptr %coerce.dive110, i32 0, i32 0
  store ptr %call108, ptr %coerce.dive111, align 8
  %coerce.dive112 = getelementptr inbounds %"class.v8::Local.28", ptr %agg.tmp106, i32 0, i32 0
  %coerce.dive113 = getelementptr inbounds %"class.v8::LocalBase.29", ptr %coerce.dive112, i32 0, i32 0
  %coerce.dive114 = getelementptr inbounds %"class.v8::IndirectHandleBase", ptr %coerce.dive113, i32 0, i32 0
  %41 = load ptr, ptr %coerce.dive114, align 8
  store ptr %41, ptr %that.i180, align 8
  store ptr %agg.tmp105, ptr %this.addr.i181, align 8
  %this3.i182 = load ptr, ptr %this.addr.i181, align 8
  store ptr %this3.i182, ptr %this.addr.i230, align 8
  store ptr %that.i180, ptr %other.addr.i231, align 8
  %this1.i232 = load ptr, ptr %this.addr.i230, align 8
  %42 = load ptr, ptr %other.addr.i231, align 8
  call void @llvm.memcpy.p0.p0.i64(ptr align 8 %this1.i232, ptr align 8 %42, i64 8, i1 false)
  %coerce.dive115 = getelementptr inbounds %"class.v8::Local.22", ptr %agg.tmp94, i32 0, i32 0
  %coerce.dive116 = getelementptr inbounds %"class.v8::LocalBase.23", ptr %coerce.dive115, i32 0, i32 0
  %coerce.dive117 = getelementptr inbounds %"class.v8::IndirectHandleBase", ptr %coerce.dive116, i32 0, i32 0
  %43 = load ptr, ptr %coerce.dive117, align 8
  %coerce.dive118 = getelementptr inbounds %"class.v8::Local.24", ptr %agg.tmp95, i32 0, i32 0
  %coerce.dive119 = getelementptr inbounds %"class.v8::LocalBase.25", ptr %coerce.dive118, i32 0, i32 0
  %coerce.dive120 = getelementptr inbounds %"class.v8::IndirectHandleBase", ptr %coerce.dive119, i32 0, i32 0
  %44 = load ptr, ptr %coerce.dive120, align 8
  %coerce.dive121 = getelementptr inbounds %"class.v8::Local.24", ptr %agg.tmp105, i32 0, i32 0
  %coerce.dive122 = getelementptr inbounds %"class.v8::LocalBase.25", ptr %coerce.dive121, i32 0, i32 0
  %coerce.dive123 = getelementptr inbounds %"class.v8::IndirectHandleBase", ptr %coerce.dive122, i32 0, i32 0
  %45 = load ptr, ptr %coerce.dive123, align 8
  %call124 = call i16 @_ZN2v86Object3SetENS_5LocalINS_7ContextEEENS1_INS_5ValueEEES5_(ptr noundef nonnull align 1 dereferenceable(1) %37, ptr %43, ptr %44, ptr %45)
  store i16 %call124, ptr %ref.tmp92, align 1
  store ptr %ref.tmp92, ptr %this.addr.i183, align 8
  %this1.i184 = load ptr, ptr %this.addr.i183, align 8
  store ptr %this1.i184, ptr %this.addr.i227, align 8
  %this1.i228 = load ptr, ptr %this.addr.i227, align 8
  %46 = load i8, ptr %this1.i228, align 1
  %tobool.i229 = trunc i8 %46 to i1
  %lnot3.i = xor i1 %tobool.i229, true
  br i1 %lnot3.i, label %if.then.i, label %_ZNK2v85MaybeIbE5CheckEv.exit

if.then.i:                                        ; preds = %_ZNK2v85MaybeIbE5CheckEv.exit192
  call void @_ZN2v812api_internal17FromJustIsNothingEv() #3
  br label %_ZNK2v85MaybeIbE5CheckEv.exit

_ZNK2v85MaybeIbE5CheckEv.exit:                    ; preds = %if.then.i, %_ZNK2v85MaybeIbE5CheckEv.exit192
  br label %if.end

if.else:                                          ; preds = %cond.end20
  %heap_statistics_buffer125 = getelementptr inbounds %"class.node::v8_utils::BindingData", ptr %this3, i32 0, i32 1
  %47 = load ptr, ptr %realm.addr, align 8
  %vtable127 = load ptr, ptr %47, align 8
  %vfn128 = getelementptr inbounds ptr, ptr %vtable127, i64 8
  %48 = load ptr, ptr %vfn128, align 8
  %call129 = call ptr %48(ptr noundef nonnull align 8 dereferenceable(872) %47)
  %coerce.dive130 = getelementptr inbounds %"class.v8::Local.22", ptr %agg.tmp126, i32 0, i32 0
  %coerce.dive131 = getelementptr inbounds %"class.v8::LocalBase.23", ptr %coerce.dive130, i32 0, i32 0
  %coerce.dive132 = getelementptr inbounds %"class.v8::IndirectHandleBase", ptr %coerce.dive131, i32 0, i32 0
  store ptr %call129, ptr %coerce.dive132, align 8
  %coerce.dive133 = getelementptr inbounds %"class.v8::Local.22", ptr %agg.tmp126, i32 0, i32 0
  %coerce.dive134 = getelementptr inbounds %"class.v8::LocalBase.23", ptr %coerce.dive133, i32 0, i32 0
  %coerce.dive135 = getelementptr inbounds %"class.v8::IndirectHandleBase", ptr %coerce.dive134, i32 0, i32 0
  %49 = load ptr, ptr %coerce.dive135, align 8
  call void @_ZN4node17AliasedBufferBaseIdN2v812Float64ArrayEE11DeserializeENS1_5LocalINS1_7ContextEEE(ptr noundef nonnull align 8 dereferenceable(56) %heap_statistics_buffer125, ptr %49)
  %heap_code_statistics_buffer136 = getelementptr inbounds %"class.node::v8_utils::BindingData", ptr %this3, i32 0, i32 3
  %50 = load ptr, ptr %realm.addr, align 8
  %vtable138 = load ptr, ptr %50, align 8
  %vfn139 = getelementptr inbounds ptr, ptr %vtable138, i64 8
  %51 = load ptr, ptr %vfn139, align 8
  %call140 = call ptr %51(ptr noundef nonnull align 8 dereferenceable(872) %50)
  %coerce.dive141 = getelementptr inbounds %"class.v8::Local.22", ptr %agg.tmp137, i32 0, i32 0
  %coerce.dive142 = getelementptr inbounds %"class.v8::LocalBase.23", ptr %coerce.dive141, i32 0, i32 0
  %coerce.dive143 = getelementptr inbounds %"class.v8::IndirectHandleBase", ptr %coerce.dive142, i32 0, i32 0
  store ptr %call140, ptr %coerce.dive143, align 8
  %coerce.dive144 = getelementptr inbounds %"class.v8::Local.22", ptr %agg.tmp137, i32 0, i32 0
  %coerce.dive145 = getelementptr inbounds %"class.v8::LocalBase.23", ptr %coerce.dive144, i32 0, i32 0
  %coerce.dive146 = getelementptr inbounds %"class.v8::IndirectHandleBase", ptr %coerce.dive145, i32 0, i32 0
  %52 = load ptr, ptr %coerce.dive146, align 8
  call void @_ZN4node17AliasedBufferBaseIdN2v812Float64ArrayEE11DeserializeENS1_5LocalINS1_7ContextEEE(ptr noundef nonnull align 8 dereferenceable(56) %heap_code_statistics_buffer136, ptr %52)
  %heap_space_statistics_buffer147 = getelementptr inbounds %"class.node::v8_utils::BindingData", ptr %this3, i32 0, i32 2
  %53 = load ptr, ptr %realm.addr, align 8
  %vtable149 = load ptr, ptr %53, align 8
  %vfn150 = getelementptr inbounds ptr, ptr %vtable149, i64 8
  %54 = load ptr, ptr %vfn150, align 8
  %call151 = call ptr %54(ptr noundef nonnull align 8 dereferenceable(872) %53)
  %coerce.dive152 = getelementptr inbounds %"class.v8::Local.22", ptr %agg.tmp148, i32 0, i32 0
  %coerce.dive153 = getelementptr inbounds %"class.v8::LocalBase.23", ptr %coerce.dive152, i32 0, i32 0
  %coerce.dive154 = getelementptr inbounds %"class.v8::IndirectHandleBase", ptr %coerce.dive153, i32 0, i32 0
  store ptr %call151, ptr %coerce.dive154, align 8
  %coerce.dive155 = getelementptr inbounds %"class.v8::Local.22", ptr %agg.tmp148, i32 0, i32 0
  %coerce.dive156 = getelementptr inbounds %"class.v8::LocalBase.23", ptr %coerce.dive155, i32 0, i32 0
  %coerce.dive157 = getelementptr inbounds %"class.v8::IndirectHandleBase", ptr %coerce.dive156, i32 0, i32 0
  %55 = load ptr, ptr %coerce.dive157, align 8
  call void @_ZN4node17AliasedBufferBaseIdN2v812Float64ArrayEE11DeserializeENS1_5LocalINS1_7ContextEEE(ptr noundef nonnull align 8 dereferenceable(56) %heap_space_statistics_buffer147, ptr %55)
  br label %if.end

if.end:                                           ; preds = %if.else, %_ZNK2v85MaybeIbE5CheckEv.exit
  %heap_statistics_buffer158 = getelementptr inbounds %"class.node::v8_utils::BindingData", ptr %this3, i32 0, i32 1
  call void @_ZN4node17AliasedBufferBaseIdN2v812Float64ArrayEE8MakeWeakEv(ptr noundef nonnull align 8 dereferenceable(56) %heap_statistics_buffer158)
  %heap_space_statistics_buffer159 = getelementptr inbounds %"class.node::v8_utils::BindingData", ptr %this3, i32 0, i32 2
  call void @_ZN4node17AliasedBufferBaseIdN2v812Float64ArrayEE8MakeWeakEv(ptr noundef nonnull align 8 dereferenceable(56) %heap_space_statistics_buffer159)
  %heap_code_statistics_buffer160 = getelementptr inbounds %"class.node::v8_utils::BindingData", ptr %this3, i32 0, i32 3
  call void @_ZN4node17AliasedBufferBaseIdN2v812Float64ArrayEE8MakeWeakEv(ptr noundef nonnull align 8 dereferenceable(56) %heap_code_statistics_buffer160)
  ret void
}

; Function Attrs: nocallback nofree nounwind willreturn memory(argmem: readwrite)
declare void @llvm.memcpy.p0.p0.i64(ptr noalias nocapture writeonly, ptr noalias nocapture readonly, i64, i1 immarg) #5

declare void @_ZN4node18SnapshotableObjectC2EPNS_5RealmEN2v85LocalINS3_6ObjectEEENS_18EmbedderObjectTypeE(ptr noundef nonnull align 8 dereferenceable(33), ptr noundef, ptr, i8 noundef zeroext) unnamed_addr #1

; Function Attrs: mustprogress nounwind uwtable
define linkonce_odr dso_local noundef ptr @_ZNK4node5Realm7isolateEv(ptr noundef nonnull align 8 dereferenceable(872) %this) #4 comdat align 2 {
entry:
  %this.addr = alloca ptr, align 8
  store ptr %this, ptr %this.addr, align 8
  %this1 = load ptr, ptr %this.addr, align 8
  %isolate_ = getelementptr inbounds %"class.node::Realm", ptr %this1, i32 0, i32 6
  %0 = load ptr, ptr %isolate_, align 8
  ret ptr %0
}

; Function Attrs: mustprogress nounwind uwtable
define linkonce_odr dso_local void @_ZN4node17AliasedBufferBaseIdN2v812Float64ArrayEEC2EPNS1_7IsolateEmPKm(ptr noundef nonnull align 8 dereferenceable(56) %this, ptr noundef %isolate, i64 noundef %count, ptr noundef %index) unnamed_addr #4 comdat align 2 {
entry:
  %this.addr.i.i65 = alloca ptr, align 8
  %location.addr.i.i = alloca ptr, align 8
  %this.addr.i66 = alloca ptr, align 8
  %location.addr.i = alloca ptr, align 8
  %value.addr.i3.i = alloca ptr, align 8
  %value.addr.i.i = alloca ptr, align 8
  %retval.i = alloca ptr, align 8
  %isolate.addr.i61 = alloca ptr, align 8
  %that.addr.i = alloca ptr, align 8
  %slot.addr.i = alloca ptr, align 8
  %this.addr.i.i57 = alloca ptr, align 8
  %this.addr.i58 = alloca ptr, align 8
  %this.addr.i.i53 = alloca ptr, align 8
  %this.addr.i54 = alloca ptr, align 8
  %this.addr.i22.i = alloca ptr, align 8
  %this.addr.i20.i = alloca ptr, align 8
  %this.addr.i18.i = alloca ptr, align 8
  %this.addr.i16.i = alloca ptr, align 8
  %this.addr.i14.i = alloca ptr, align 8
  %this.addr.i12.i = alloca ptr, align 8
  %this.addr.i10.i = alloca ptr, align 8
  %this.addr.i.i.i44 = alloca ptr, align 8
  %this.addr.i8.i = alloca ptr, align 8
  %this.addr.i.i45 = alloca ptr, align 8
  %this.addr.i46 = alloca ptr, align 8
  %rhs.addr.i = alloca ptr, align 8
  %slot.addr.i.i = alloca ptr, align 8
  %this.addr.i.i.i = alloca ptr, align 8
  %this.addr.i.i41 = alloca ptr, align 8
  %that.i = alloca %"class.v8::Local.28", align 8
  %this.addr.i42 = alloca ptr, align 8
  %isolate.addr.i = alloca ptr, align 8
  %this.addr.i39 = alloca ptr, align 8
  %this.addr.i37 = alloca ptr, align 8
  %this.addr.i35 = alloca ptr, align 8
  %this.addr.i33 = alloca ptr, align 8
  %this.addr.i.i = alloca ptr, align 8
  %this.addr.i31 = alloca ptr, align 8
  %this.addr.i = alloca ptr, align 8
  %this.addr = alloca ptr, align 8
  %isolate.addr = alloca ptr, align 8
  %count.addr = alloca i64, align 8
  %index.addr = alloca ptr, align 8
  %handle_scope = alloca %"class.v8::HandleScope", align 8
  %size_in_bytes = alloca i64, align 8
  %ab = alloca %"class.v8::Local.341", align 8
  %js_array = alloca %"class.v8::Local.28", align 8
  %agg.tmp = alloca %"class.v8::Local.341", align 8
  %ref.tmp = alloca %"class.v8::Global.0", align 8
  %agg.tmp25 = alloca %"class.v8::Local.28", align 8
  store ptr %this, ptr %this.addr, align 8
  store ptr %isolate, ptr %isolate.addr, align 8
  store i64 %count, ptr %count.addr, align 8
  store ptr %index, ptr %index.addr, align 8
  %this1 = load ptr, ptr %this.addr, align 8
  call void @_ZN4node14MemoryRetainerC2Ev(ptr noundef nonnull align 8 dereferenceable(8) %this1) #3
  store ptr getelementptr inbounds ({ [10 x ptr] }, ptr @_ZTVN4node17AliasedBufferBaseIdN2v812Float64ArrayEEE, i32 0, inrange i32 0, i32 2), ptr %this1, align 8
  %isolate_ = getelementptr inbounds %"class.node::AliasedBufferBase", ptr %this1, i32 0, i32 1
  %0 = load ptr, ptr %isolate.addr, align 8
  store ptr %0, ptr %isolate_, align 8
  %count_ = getelementptr inbounds %"class.node::AliasedBufferBase", ptr %this1, i32 0, i32 2
  %1 = load i64, ptr %count.addr, align 8
  store i64 %1, ptr %count_, align 8
  %byte_offset_ = getelementptr inbounds %"class.node::AliasedBufferBase", ptr %this1, i32 0, i32 3
  store i64 0, ptr %byte_offset_, align 8
  %buffer_ = getelementptr inbounds %"class.node::AliasedBufferBase", ptr %this1, i32 0, i32 4
  store ptr null, ptr %buffer_, align 8
  %js_array_ = getelementptr inbounds %"class.node::AliasedBufferBase", ptr %this1, i32 0, i32 5
  store ptr %js_array_, ptr %this.addr.i37, align 8
  %this1.i38 = load ptr, ptr %this.addr.i37, align 8
  store ptr %this1.i38, ptr %this.addr.i54, align 8
  %this1.i55 = load ptr, ptr %this.addr.i54, align 8
  store ptr %this1.i55, ptr %this.addr.i.i53, align 8
  %this1.i.i56 = load ptr, ptr %this.addr.i.i53, align 8
  store ptr null, ptr %this1.i.i56, align 8
  %index_ = getelementptr inbounds %"class.node::AliasedBufferBase", ptr %this1, i32 0, i32 6
  %2 = load ptr, ptr %index.addr, align 8
  store ptr %2, ptr %index_, align 8
  br label %do.body

do.body:                                          ; preds = %entry
  %3 = load i64, ptr %count.addr, align 8
  %cmp = icmp ugt i64 %3, 0
  %lnot = xor i1 %cmp, true
  %lnot2 = xor i1 %lnot, true
  %lnot3 = xor i1 %lnot2, true
  br i1 %lnot3, label %if.then, label %if.end

if.then:                                          ; preds = %do.body
  br label %do.body4

do.body4:                                         ; preds = %if.then
  call void @_ZN4node6AssertERKNS_13AssertionInfoE(ptr noundef nonnull align 8 dereferenceable(24) @_ZZN4node17AliasedBufferBaseIdN2v812Float64ArrayEEC1EPNS1_7IsolateEmPKmE4args)
  call void @abort() #13
  unreachable

do.end:                                           ; No predecessors!
  br label %if.end

if.end:                                           ; preds = %do.end, %do.body
  br label %do.end5

do.end5:                                          ; preds = %if.end
  %4 = load ptr, ptr %index.addr, align 8
  %cmp6 = icmp ne ptr %4, null
  br i1 %cmp6, label %if.then7, label %if.end8

if.then7:                                         ; preds = %do.end5
  br label %return

if.end8:                                          ; preds = %do.end5
  %isolate_9 = getelementptr inbounds %"class.node::AliasedBufferBase", ptr %this1, i32 0, i32 1
  %5 = load ptr, ptr %isolate_9, align 8
  call void @_ZN2v811HandleScopeC1EPNS_7IsolateE(ptr noundef nonnull align 8 dereferenceable(24) %handle_scope, ptr noundef %5)
  %6 = load i64, ptr %count.addr, align 8
  %call = call noundef i64 @_ZN4node25MultiplyWithOverflowCheckImEET_S1_S1_(i64 noundef 8, i64 noundef %6)
  store i64 %call, ptr %size_in_bytes, align 8
  %isolate_10 = getelementptr inbounds %"class.node::AliasedBufferBase", ptr %this1, i32 0, i32 1
  %7 = load ptr, ptr %isolate_10, align 8
  %8 = load i64, ptr %size_in_bytes, align 8
  %call11 = call ptr @_ZN2v811ArrayBuffer3NewEPNS_7IsolateEm(ptr noundef %7, i64 noundef %8)
  %coerce.dive = getelementptr inbounds %"class.v8::Local.341", ptr %ab, i32 0, i32 0
  %coerce.dive12 = getelementptr inbounds %"class.v8::LocalBase.342", ptr %coerce.dive, i32 0, i32 0
  %coerce.dive13 = getelementptr inbounds %"class.v8::IndirectHandleBase", ptr %coerce.dive12, i32 0, i32 0
  store ptr %call11, ptr %coerce.dive13, align 8
  store ptr %ab, ptr %this.addr.i39, align 8
  %this1.i40 = load ptr, ptr %this.addr.i39, align 8
  store ptr %this1.i40, ptr %this.addr.i58, align 8
  %this1.i59 = load ptr, ptr %this.addr.i58, align 8
  store ptr %this1.i59, ptr %this.addr.i.i57, align 8
  %this1.i.i60 = load ptr, ptr %this.addr.i.i57, align 8
  %9 = load ptr, ptr %this1.i.i60, align 8
  store ptr %9, ptr %slot.addr.i, align 8
  %10 = load ptr, ptr %slot.addr.i, align 8
  %call15 = call noundef ptr @_ZNK2v811ArrayBuffer4DataEv(ptr noundef nonnull align 1 dereferenceable(1) %10)
  %buffer_16 = getelementptr inbounds %"class.node::AliasedBufferBase", ptr %this1, i32 0, i32 4
  store ptr %call15, ptr %buffer_16, align 8
  call void @llvm.memcpy.p0.p0.i64(ptr align 8 %agg.tmp, ptr align 8 %ab, i64 8, i1 false)
  %byte_offset_17 = getelementptr inbounds %"class.node::AliasedBufferBase", ptr %this1, i32 0, i32 3
  %11 = load i64, ptr %byte_offset_17, align 8
  %12 = load i64, ptr %count.addr, align 8
  %coerce.dive18 = getelementptr inbounds %"class.v8::Local.341", ptr %agg.tmp, i32 0, i32 0
  %coerce.dive19 = getelementptr inbounds %"class.v8::LocalBase.342", ptr %coerce.dive18, i32 0, i32 0
  %coerce.dive20 = getelementptr inbounds %"class.v8::IndirectHandleBase", ptr %coerce.dive19, i32 0, i32 0
  %13 = load ptr, ptr %coerce.dive20, align 8
  %call21 = call ptr @_ZN2v812Float64Array3NewENS_5LocalINS_11ArrayBufferEEEmm(ptr %13, i64 noundef %11, i64 noundef %12)
  %coerce.dive22 = getelementptr inbounds %"class.v8::Local.28", ptr %js_array, i32 0, i32 0
  %coerce.dive23 = getelementptr inbounds %"class.v8::LocalBase.29", ptr %coerce.dive22, i32 0, i32 0
  %coerce.dive24 = getelementptr inbounds %"class.v8::IndirectHandleBase", ptr %coerce.dive23, i32 0, i32 0
  store ptr %call21, ptr %coerce.dive24, align 8
  %14 = load ptr, ptr %isolate.addr, align 8
  call void @llvm.memcpy.p0.p0.i64(ptr align 8 %agg.tmp25, ptr align 8 %js_array, i64 8, i1 false)
  %coerce.dive26 = getelementptr inbounds %"class.v8::Local.28", ptr %agg.tmp25, i32 0, i32 0
  %coerce.dive27 = getelementptr inbounds %"class.v8::LocalBase.29", ptr %coerce.dive26, i32 0, i32 0
  %coerce.dive28 = getelementptr inbounds %"class.v8::IndirectHandleBase", ptr %coerce.dive27, i32 0, i32 0
  %15 = load ptr, ptr %coerce.dive28, align 8
  store ptr %15, ptr %that.i, align 8
  store ptr %ref.tmp, ptr %this.addr.i42, align 8
  store ptr %14, ptr %isolate.addr.i, align 8
  %this3.i = load ptr, ptr %this.addr.i42, align 8
  %16 = load ptr, ptr %isolate.addr.i, align 8
  store ptr %that.i, ptr %this.addr.i.i41, align 8
  %this1.i.i43 = load ptr, ptr %this.addr.i.i41, align 8
  store ptr %this1.i.i43, ptr %this.addr.i.i.i, align 8
  %this1.i.i.i = load ptr, ptr %this.addr.i.i.i, align 8
  %17 = load ptr, ptr %this1.i.i.i, align 8
  store ptr %17, ptr %slot.addr.i.i, align 8
  %18 = load ptr, ptr %slot.addr.i.i, align 8
  store ptr %16, ptr %isolate.addr.i61, align 8
  store ptr %18, ptr %that.addr.i, align 8
  %19 = load ptr, ptr %that.addr.i, align 8
  store ptr %19, ptr %value.addr.i.i, align 8
  %20 = load ptr, ptr %value.addr.i.i, align 8
  %21 = ptrtoint ptr %20 to i64
  %cmp.i.i62 = icmp eq i64 %21, 0
  br i1 %cmp.i.i62, label %if.then.i64, label %if.end.i63

if.then.i64:                                      ; preds = %if.end8
  store ptr null, ptr %retval.i, align 8
  br label %_ZN2v814PersistentBaseINS_12Float64ArrayEE3NewEPNS_7IsolateEPS1_.exit

if.end.i63:                                       ; preds = %if.end8
  %22 = load ptr, ptr %isolate.addr.i61, align 8
  %23 = load ptr, ptr %that.addr.i, align 8
  store ptr %23, ptr %value.addr.i3.i, align 8
  %24 = load ptr, ptr %value.addr.i3.i, align 8
  %25 = load i64, ptr %24, align 8
  %call2.i = call noundef ptr @_ZN2v812api_internal18GlobalizeReferenceEPNS_8internal7IsolateEm(ptr noundef %22, i64 noundef %25) #3
  store ptr %call2.i, ptr %retval.i, align 8
  br label %_ZN2v814PersistentBaseINS_12Float64ArrayEE3NewEPNS_7IsolateEPS1_.exit

_ZN2v814PersistentBaseINS_12Float64ArrayEE3NewEPNS_7IsolateEPS1_.exit: ; preds = %if.end.i63, %if.then.i64
  %26 = load ptr, ptr %retval.i, align 8
  store ptr %this3.i, ptr %this.addr.i66, align 8
  store ptr %26, ptr %location.addr.i, align 8
  %this1.i67 = load ptr, ptr %this.addr.i66, align 8
  %27 = load ptr, ptr %location.addr.i, align 8
  store ptr %this1.i67, ptr %this.addr.i.i65, align 8
  store ptr %27, ptr %location.addr.i.i, align 8
  %this1.i.i68 = load ptr, ptr %this.addr.i.i65, align 8
  %28 = load ptr, ptr %location.addr.i.i, align 8
  store ptr %28, ptr %this1.i.i68, align 8
  %js_array_29 = getelementptr inbounds %"class.node::AliasedBufferBase", ptr %this1, i32 0, i32 5
  store ptr %js_array_29, ptr %this.addr.i46, align 8
  store ptr %ref.tmp, ptr %rhs.addr.i, align 8
  %this1.i47 = load ptr, ptr %this.addr.i46, align 8
  %29 = load ptr, ptr %rhs.addr.i, align 8
  %cmp.i = icmp ne ptr %this1.i47, %29
  br i1 %cmp.i, label %if.then.i48, label %_ZN2v86GlobalINS_12Float64ArrayEEaSIS1_EERS2_ONS0_IT_EE.exit

if.then.i48:                                      ; preds = %_ZN2v814PersistentBaseINS_12Float64ArrayEE3NewEPNS_7IsolateEPS1_.exit
  store ptr %this1.i47, ptr %this.addr.i8.i, align 8
  %this1.i9.i = load ptr, ptr %this.addr.i8.i, align 8
  store ptr %this1.i9.i, ptr %this.addr.i.i.i44, align 8
  %this1.i.i.i49 = load ptr, ptr %this.addr.i.i.i44, align 8
  %30 = load ptr, ptr %this1.i.i.i49, align 8
  %cmp.i.i.i = icmp eq ptr %30, null
  br i1 %cmp.i.i.i, label %if.then.i.i, label %if.end.i.i

if.then.i.i:                                      ; preds = %if.then.i48
  br label %_ZN2v814PersistentBaseINS_12Float64ArrayEE5ResetEv.exit.i

if.end.i.i:                                       ; preds = %if.then.i48
  store ptr %this1.i9.i, ptr %this.addr.i10.i, align 8
  %this1.i11.i = load ptr, ptr %this.addr.i10.i, align 8
  %31 = load ptr, ptr %this1.i11.i, align 8
  call void @_ZN2v812api_internal13DisposeGlobalEPm(ptr noundef %31) #3
  store ptr %this1.i9.i, ptr %this.addr.i20.i, align 8
  %this1.i21.i = load ptr, ptr %this.addr.i20.i, align 8
  store ptr null, ptr %this1.i21.i, align 8
  br label %_ZN2v814PersistentBaseINS_12Float64ArrayEE5ResetEv.exit.i

_ZN2v814PersistentBaseINS_12Float64ArrayEE5ResetEv.exit.i: ; preds = %if.end.i.i, %if.then.i.i
  %32 = load ptr, ptr %rhs.addr.i, align 8
  store ptr %32, ptr %this.addr.i.i45, align 8
  %this1.i.i50 = load ptr, ptr %this.addr.i.i45, align 8
  %33 = load ptr, ptr %this1.i.i50, align 8
  %cmp.i.i51 = icmp eq ptr %33, null
  br i1 %cmp.i.i51, label %if.end.i52, label %if.then2.i

if.then2.i:                                       ; preds = %_ZN2v814PersistentBaseINS_12Float64ArrayEE5ResetEv.exit.i
  %34 = load ptr, ptr %rhs.addr.i, align 8
  store ptr %34, ptr %this.addr.i18.i, align 8
  %this1.i19.i = load ptr, ptr %this.addr.i18.i, align 8
  %35 = load ptr, ptr %this1.i19.i, align 8
  store ptr %this1.i47, ptr %this.addr.i16.i, align 8
  %this1.i17.i = load ptr, ptr %this.addr.i16.i, align 8
  store ptr %35, ptr %this1.i17.i, align 8
  %36 = load ptr, ptr %rhs.addr.i, align 8
  store ptr %36, ptr %this.addr.i14.i, align 8
  %this1.i15.i = load ptr, ptr %this.addr.i14.i, align 8
  store ptr %this1.i47, ptr %this.addr.i12.i, align 8
  %this1.i13.i = load ptr, ptr %this.addr.i12.i, align 8
  call void @_ZN2v812api_internal19MoveGlobalReferenceEPPmS2_(ptr noundef %this1.i15.i, ptr noundef %this1.i13.i) #3
  %37 = load ptr, ptr %rhs.addr.i, align 8
  store ptr %37, ptr %this.addr.i22.i, align 8
  %this1.i23.i = load ptr, ptr %this.addr.i22.i, align 8
  store ptr null, ptr %this1.i23.i, align 8
  br label %if.end.i52

if.end.i52:                                       ; preds = %if.then2.i, %_ZN2v814PersistentBaseINS_12Float64ArrayEE5ResetEv.exit.i
  br label %_ZN2v86GlobalINS_12Float64ArrayEEaSIS1_EERS2_ONS0_IT_EE.exit

_ZN2v86GlobalINS_12Float64ArrayEEaSIS1_EERS2_ONS0_IT_EE.exit: ; preds = %if.end.i52, %_ZN2v814PersistentBaseINS_12Float64ArrayEE3NewEPNS_7IsolateEPS1_.exit
  store ptr %ref.tmp, ptr %this.addr.i, align 8
  %this1.i = load ptr, ptr %this.addr.i, align 8
  store ptr %this1.i, ptr %this.addr.i31, align 8
  %this1.i32 = load ptr, ptr %this.addr.i31, align 8
  store ptr %this1.i32, ptr %this.addr.i.i, align 8
  %this1.i.i = load ptr, ptr %this.addr.i.i, align 8
  %38 = load ptr, ptr %this1.i.i, align 8
  %cmp.i.i = icmp eq ptr %38, null
  br i1 %cmp.i.i, label %if.then.i, label %if.end.i

if.then.i:                                        ; preds = %_ZN2v86GlobalINS_12Float64ArrayEEaSIS1_EERS2_ONS0_IT_EE.exit
  br label %_ZN2v814PersistentBaseINS_12Float64ArrayEE5ResetEv.exit

if.end.i:                                         ; preds = %_ZN2v86GlobalINS_12Float64ArrayEEaSIS1_EERS2_ONS0_IT_EE.exit
  store ptr %this1.i32, ptr %this.addr.i33, align 8
  %this1.i34 = load ptr, ptr %this.addr.i33, align 8
  %39 = load ptr, ptr %this1.i34, align 8
  call void @_ZN2v812api_internal13DisposeGlobalEPm(ptr noundef %39) #3
  store ptr %this1.i32, ptr %this.addr.i35, align 8
  %this1.i36 = load ptr, ptr %this.addr.i35, align 8
  store ptr null, ptr %this1.i36, align 8
  br label %_ZN2v814PersistentBaseINS_12Float64ArrayEE5ResetEv.exit

_ZN2v814PersistentBaseINS_12Float64ArrayEE5ResetEv.exit: ; preds = %if.end.i, %if.then.i
  call void @_ZN2v811HandleScopeD1Ev(ptr noundef nonnull align 8 dereferenceable(24) %handle_scope) #3
  br label %return

return:                                           ; preds = %_ZN2v814PersistentBaseINS_12Float64ArrayEE5ResetEv.exit, %if.then7
  ret void
}

declare i16 @_ZN2v86Object3SetENS_5LocalINS_7ContextEEENS1_INS_5ValueEEES5_(ptr noundef nonnull align 1 dereferenceable(1), ptr, ptr, ptr) #1

; Function Attrs: mustprogress nounwind uwtable
define linkonce_odr dso_local ptr @_ZN4node21FIXED_ONE_BYTE_STRINGILi21EEEN2v85LocalINS1_6StringEEEPNS1_7IsolateERAT__Kc(ptr noundef %isolate, ptr noundef nonnull align 1 dereferenceable(21) %data) #4 comdat {
entry:
  %retval = alloca %"class.v8::Local.26", align 8
  %isolate.addr = alloca ptr, align 8
  %data.addr = alloca ptr, align 8
  store ptr %isolate, ptr %isolate.addr, align 8
  store ptr %data, ptr %data.addr, align 8
  %0 = load ptr, ptr %isolate.addr, align 8
  %1 = load ptr, ptr %data.addr, align 8
  %arraydecay = getelementptr inbounds [21 x i8], ptr %1, i64 0, i64 0
  %call = call ptr @_ZN4node13OneByteStringEPN2v87IsolateEPKci(ptr noundef %0, ptr noundef %arraydecay, i32 noundef 20)
  %coerce.dive = getelementptr inbounds %"class.v8::Local.26", ptr %retval, i32 0, i32 0
  %coerce.dive1 = getelementptr inbounds %"class.v8::LocalBase.27", ptr %coerce.dive, i32 0, i32 0
  %coerce.dive2 = getelementptr inbounds %"class.v8::IndirectHandleBase", ptr %coerce.dive1, i32 0, i32 0
  store ptr %call, ptr %coerce.dive2, align 8
  %coerce.dive3 = getelementptr inbounds %"class.v8::Local.26", ptr %retval, i32 0, i32 0
  %coerce.dive4 = getelementptr inbounds %"class.v8::LocalBase.27", ptr %coerce.dive3, i32 0, i32 0
  %coerce.dive5 = getelementptr inbounds %"class.v8::IndirectHandleBase", ptr %coerce.dive4, i32 0, i32 0
  %2 = load ptr, ptr %coerce.dive5, align 8
  ret ptr %2
}

; Function Attrs: mustprogress nounwind uwtable
define linkonce_odr dso_local ptr @_ZNK4node17AliasedBufferBaseIdN2v812Float64ArrayEE10GetJSArrayEv(ptr noundef nonnull align 8 dereferenceable(56) %this) #4 comdat align 2 {
entry:
  %slot.addr.i = alloca ptr, align 8
  %this.addr.i32 = alloca ptr, align 8
  %location.addr.i33 = alloca ptr, align 8
  %this.addr.i30 = alloca ptr, align 8
  %location.addr.i = alloca ptr, align 8
  %value.addr.i29 = alloca ptr, align 8
  %retval.i26 = alloca %"class.v8::LocalBase.29", align 8
  %isolate.addr.i27 = alloca ptr, align 8
  %value.addr.i28 = alloca i64, align 8
  %this.addr.i.i22 = alloca ptr, align 8
  %this.addr.i23 = alloca ptr, align 8
  %value.addr.i = alloca ptr, align 8
  %this.addr.i20 = alloca ptr, align 8
  %other.addr.i = alloca ptr, align 8
  %retval.i15 = alloca %"class.v8::LocalBase.29", align 8
  %isolate.addr.i16 = alloca ptr, align 8
  %that.addr.i17 = alloca ptr, align 8
  %this.addr.i.i = alloca ptr, align 8
  %this.addr.i13 = alloca ptr, align 8
  %retval.i10 = alloca %"class.v8::Local.28", align 8
  %isolate.addr.i11 = alloca ptr, align 8
  %that.addr.i12 = alloca ptr, align 8
  %ref.tmp.i = alloca %"class.v8::LocalBase.29", align 8
  %retval.i7 = alloca %"class.v8::Local.28", align 8
  %isolate.addr.i8 = alloca ptr, align 8
  %that.addr.i = alloca ptr, align 8
  %retval.i = alloca %"class.v8::Local.28", align 8
  %this.addr.i = alloca ptr, align 8
  %isolate.addr.i = alloca ptr, align 8
  %retval = alloca %"class.v8::Local.28", align 8
  %this.addr = alloca ptr, align 8
  store ptr %this, ptr %this.addr, align 8
  %this1 = load ptr, ptr %this.addr, align 8
  %js_array_ = getelementptr inbounds %"class.node::AliasedBufferBase", ptr %this1, i32 0, i32 5
  %isolate_ = getelementptr inbounds %"class.node::AliasedBufferBase", ptr %this1, i32 0, i32 1
  %0 = load ptr, ptr %isolate_, align 8
  store ptr %js_array_, ptr %this.addr.i, align 8
  store ptr %0, ptr %isolate.addr.i, align 8
  %this1.i = load ptr, ptr %this.addr.i, align 8
  %1 = load ptr, ptr %isolate.addr.i, align 8
  store ptr %1, ptr %isolate.addr.i8, align 8
  store ptr %this1.i, ptr %that.addr.i, align 8
  %2 = load ptr, ptr %isolate.addr.i8, align 8
  %3 = load ptr, ptr %that.addr.i, align 8
  store ptr %3, ptr %this.addr.i13, align 8
  %this1.i14 = load ptr, ptr %this.addr.i13, align 8
  store ptr %this1.i14, ptr %this.addr.i.i, align 8
  %this1.i.i = load ptr, ptr %this.addr.i.i, align 8
  %4 = load ptr, ptr %this1.i.i, align 8
  store ptr %4, ptr %slot.addr.i, align 8
  %5 = load ptr, ptr %slot.addr.i, align 8
  store ptr %2, ptr %isolate.addr.i11, align 8
  store ptr %5, ptr %that.addr.i12, align 8
  %6 = load ptr, ptr %isolate.addr.i11, align 8
  %7 = load ptr, ptr %that.addr.i12, align 8
  store ptr %6, ptr %isolate.addr.i16, align 8
  store ptr %7, ptr %that.addr.i17, align 8
  %8 = load ptr, ptr %that.addr.i17, align 8
  store ptr %8, ptr %value.addr.i, align 8
  %9 = load ptr, ptr %value.addr.i, align 8
  %10 = ptrtoint ptr %9 to i64
  %cmp.i = icmp eq i64 %10, 0
  br i1 %cmp.i, label %if.then.i, label %if.end.i

if.then.i:                                        ; preds = %entry
  call void @llvm.memset.p0.i64(ptr align 8 %retval.i15, i8 0, i64 8, i1 false)
  store ptr %retval.i15, ptr %this.addr.i23, align 8
  %this1.i24 = load ptr, ptr %this.addr.i23, align 8
  store ptr %this1.i24, ptr %this.addr.i.i22, align 8
  %this1.i.i25 = load ptr, ptr %this.addr.i.i22, align 8
  store ptr null, ptr %this1.i.i25, align 8
  br label %_ZN2v89LocalBaseINS_12Float64ArrayEE3NewEPNS_7IsolateEPS1_.exit

if.end.i:                                         ; preds = %entry
  %11 = load ptr, ptr %isolate.addr.i16, align 8
  %12 = load ptr, ptr %that.addr.i17, align 8
  store ptr %12, ptr %value.addr.i29, align 8
  %13 = load ptr, ptr %value.addr.i29, align 8
  %14 = load i64, ptr %13, align 8
  store ptr %11, ptr %isolate.addr.i27, align 8
  store i64 %14, ptr %value.addr.i28, align 8
  %15 = load ptr, ptr %isolate.addr.i27, align 8
  %16 = load i64, ptr %value.addr.i28, align 8
  %call.i = call noundef ptr @_ZN2v811HandleScope12CreateHandleEPNS_8internal7IsolateEm(ptr noundef %15, i64 noundef %16) #3
  store ptr %retval.i26, ptr %this.addr.i30, align 8
  store ptr %call.i, ptr %location.addr.i, align 8
  %this1.i31 = load ptr, ptr %this.addr.i30, align 8
  %17 = load ptr, ptr %location.addr.i, align 8
  store ptr %this1.i31, ptr %this.addr.i32, align 8
  store ptr %17, ptr %location.addr.i33, align 8
  %this1.i34 = load ptr, ptr %this.addr.i32, align 8
  %18 = load ptr, ptr %location.addr.i33, align 8
  store ptr %18, ptr %this1.i34, align 8
  %19 = load ptr, ptr %retval.i26, align 8
  store ptr %19, ptr %retval.i15, align 8
  br label %_ZN2v89LocalBaseINS_12Float64ArrayEE3NewEPNS_7IsolateEPS1_.exit

_ZN2v89LocalBaseINS_12Float64ArrayEE3NewEPNS_7IsolateEPS1_.exit: ; preds = %if.end.i, %if.then.i
  %20 = load ptr, ptr %retval.i15, align 8
  store ptr %20, ptr %ref.tmp.i, align 8
  store ptr %retval.i10, ptr %this.addr.i20, align 8
  store ptr %ref.tmp.i, ptr %other.addr.i, align 8
  %this1.i21 = load ptr, ptr %this.addr.i20, align 8
  %21 = load ptr, ptr %other.addr.i, align 8
  call void @llvm.memcpy.p0.p0.i64(ptr align 8 %this1.i21, ptr align 8 %21, i64 8, i1 false)
  %22 = load ptr, ptr %retval.i10, align 8
  store ptr %22, ptr %retval.i7, align 8
  %23 = load ptr, ptr %retval.i7, align 8
  store ptr %23, ptr %retval.i, align 8
  %24 = load ptr, ptr %retval.i, align 8
  %coerce.dive = getelementptr inbounds %"class.v8::Local.28", ptr %retval, i32 0, i32 0
  %coerce.dive2 = getelementptr inbounds %"class.v8::LocalBase.29", ptr %coerce.dive, i32 0, i32 0
  %coerce.dive3 = getelementptr inbounds %"class.v8::IndirectHandleBase", ptr %coerce.dive2, i32 0, i32 0
  store ptr %24, ptr %coerce.dive3, align 8
  %coerce.dive4 = getelementptr inbounds %"class.v8::Local.28", ptr %retval, i32 0, i32 0
  %coerce.dive5 = getelementptr inbounds %"class.v8::LocalBase.29", ptr %coerce.dive4, i32 0, i32 0
  %coerce.dive6 = getelementptr inbounds %"class.v8::IndirectHandleBase", ptr %coerce.dive5, i32 0, i32 0
  %25 = load ptr, ptr %coerce.dive6, align 8
  ret ptr %25
}

; Function Attrs: mustprogress nounwind uwtable
define linkonce_odr dso_local ptr @_ZN4node21FIXED_ONE_BYTE_STRINGILi25EEEN2v85LocalINS1_6StringEEEPNS1_7IsolateERAT__Kc(ptr noundef %isolate, ptr noundef nonnull align 1 dereferenceable(25) %data) #4 comdat {
entry:
  %retval = alloca %"class.v8::Local.26", align 8
  %isolate.addr = alloca ptr, align 8
  %data.addr = alloca ptr, align 8
  store ptr %isolate, ptr %isolate.addr, align 8
  store ptr %data, ptr %data.addr, align 8
  %0 = load ptr, ptr %isolate.addr, align 8
  %1 = load ptr, ptr %data.addr, align 8
  %arraydecay = getelementptr inbounds [25 x i8], ptr %1, i64 0, i64 0
  %call = call ptr @_ZN4node13OneByteStringEPN2v87IsolateEPKci(ptr noundef %0, ptr noundef %arraydecay, i32 noundef 24)
  %coerce.dive = getelementptr inbounds %"class.v8::Local.26", ptr %retval, i32 0, i32 0
  %coerce.dive1 = getelementptr inbounds %"class.v8::LocalBase.27", ptr %coerce.dive, i32 0, i32 0
  %coerce.dive2 = getelementptr inbounds %"class.v8::IndirectHandleBase", ptr %coerce.dive1, i32 0, i32 0
  store ptr %call, ptr %coerce.dive2, align 8
  %coerce.dive3 = getelementptr inbounds %"class.v8::Local.26", ptr %retval, i32 0, i32 0
  %coerce.dive4 = getelementptr inbounds %"class.v8::LocalBase.27", ptr %coerce.dive3, i32 0, i32 0
  %coerce.dive5 = getelementptr inbounds %"class.v8::IndirectHandleBase", ptr %coerce.dive4, i32 0, i32 0
  %2 = load ptr, ptr %coerce.dive5, align 8
  ret ptr %2
}

; Function Attrs: mustprogress nounwind uwtable
define linkonce_odr dso_local ptr @_ZN4node21FIXED_ONE_BYTE_STRINGILi26EEEN2v85LocalINS1_6StringEEEPNS1_7IsolateERAT__Kc(ptr noundef %isolate, ptr noundef nonnull align 1 dereferenceable(26) %data) #4 comdat {
entry:
  %retval = alloca %"class.v8::Local.26", align 8
  %isolate.addr = alloca ptr, align 8
  %data.addr = alloca ptr, align 8
  store ptr %isolate, ptr %isolate.addr, align 8
  store ptr %data, ptr %data.addr, align 8
  %0 = load ptr, ptr %isolate.addr, align 8
  %1 = load ptr, ptr %data.addr, align 8
  %arraydecay = getelementptr inbounds [26 x i8], ptr %1, i64 0, i64 0
  %call = call ptr @_ZN4node13OneByteStringEPN2v87IsolateEPKci(ptr noundef %0, ptr noundef %arraydecay, i32 noundef 25)
  %coerce.dive = getelementptr inbounds %"class.v8::Local.26", ptr %retval, i32 0, i32 0
  %coerce.dive1 = getelementptr inbounds %"class.v8::LocalBase.27", ptr %coerce.dive, i32 0, i32 0
  %coerce.dive2 = getelementptr inbounds %"class.v8::IndirectHandleBase", ptr %coerce.dive1, i32 0, i32 0
  store ptr %call, ptr %coerce.dive2, align 8
  %coerce.dive3 = getelementptr inbounds %"class.v8::Local.26", ptr %retval, i32 0, i32 0
  %coerce.dive4 = getelementptr inbounds %"class.v8::LocalBase.27", ptr %coerce.dive3, i32 0, i32 0
  %coerce.dive5 = getelementptr inbounds %"class.v8::IndirectHandleBase", ptr %coerce.dive4, i32 0, i32 0
  %2 = load ptr, ptr %coerce.dive5, align 8
  ret ptr %2
}

; Function Attrs: mustprogress nounwind uwtable
define linkonce_odr dso_local void @_ZN4node17AliasedBufferBaseIdN2v812Float64ArrayEE11DeserializeENS1_5LocalINS1_7ContextEEE(ptr noundef nonnull align 8 dereferenceable(56) %this, ptr %context.coerce) #4 comdat align 2 {
entry:
  %slot.addr.i.i.i = alloca ptr, align 8
  %this.addr.i.i.i.i = alloca ptr, align 8
  %this.addr.i.i.i65 = alloca ptr, align 8
  %this.addr.i.i66 = alloca ptr, align 8
  %this.addr.i67 = alloca ptr, align 8
  %this.addr.i.i60 = alloca ptr, align 8
  %this.addr.i61 = alloca ptr, align 8
  %this.addr.i2.i = alloca ptr, align 8
  %location.addr.i3.i = alloca ptr, align 8
  %this.addr.i.i56 = alloca ptr, align 8
  %location.addr.i.i = alloca ptr, align 8
  %retval.i57 = alloca %"class.v8::LocalBase.29", align 8
  %slot.addr.i58 = alloca ptr, align 8
  %that.i = alloca %"class.v8::Local.28", align 8
  %this.addr.i55 = alloca ptr, align 8
  %this.addr.i.i50 = alloca ptr, align 8
  %other.addr.i.i = alloca ptr, align 8
  %retval.i51 = alloca %"class.v8::Local.28", align 8
  %slot.addr.i52 = alloca ptr, align 8
  %ref.tmp.i = alloca %"class.v8::LocalBase.29", align 8
  %data.addr.i = alloca ptr, align 8
  %value.addr.i3.i.i = alloca ptr, align 8
  %value.addr.i.i.i = alloca ptr, align 8
  %retval.i.i = alloca ptr, align 8
  %isolate.addr.i.i = alloca ptr, align 8
  %that.addr.i.i = alloca ptr, align 8
  %this.addr.i11.i = alloca ptr, align 8
  %this.addr.i9.i = alloca ptr, align 8
  %this.addr.i7.i = alloca ptr, align 8
  %this.addr.i.i.i43 = alloca ptr, align 8
  %this.addr.i5.i = alloca ptr, align 8
  %this.addr.i.i44 = alloca ptr, align 8
  %this.addr.i45 = alloca ptr, align 8
  %isolate.addr.i = alloca ptr, align 8
  %other.addr.i = alloca ptr, align 8
  %slot.addr.i.i38 = alloca ptr, align 8
  %this.addr.i.i.i = alloca ptr, align 8
  %this.addr.i.i39 = alloca ptr, align 8
  %this.addr.i40 = alloca ptr, align 8
  %retval.i33 = alloca %"class.v8::Local.28", align 8
  %this.addr.i34 = alloca ptr, align 8
  %slot.addr.i.i = alloca ptr, align 8
  %retval.i = alloca %"class.v8::MaybeLocal.343", align 8
  %this.addr.i31 = alloca ptr, align 8
  %index.addr.i = alloca i64, align 8
  %slot.i = alloca ptr, align 8
  %agg.tmp.i = alloca %"class.v8::Local.28", align 8
  %slot.addr.i30 = alloca ptr, align 8
  %this.addr.i.i26 = alloca ptr, align 8
  %this.addr.i27 = alloca ptr, align 8
  %this.addr.i24 = alloca ptr, align 8
  %slot.addr.i = alloca ptr, align 8
  %this.addr.i.i = alloca ptr, align 8
  %this.addr.i22 = alloca ptr, align 8
  %this.addr.i = alloca ptr, align 8
  %context = alloca %"class.v8::Local.22", align 8
  %this.addr = alloca ptr, align 8
  %arr = alloca %"class.v8::Local.28", align 8
  %ref.tmp = alloca %"class.v8::MaybeLocal.343", align 8
  %raw = alloca ptr, align 8
  %ref.tmp13 = alloca %"class.v8::Local.341", align 8
  %coerce.dive = getelementptr inbounds %"class.v8::Local.22", ptr %context, i32 0, i32 0
  %coerce.dive1 = getelementptr inbounds %"class.v8::LocalBase.23", ptr %coerce.dive, i32 0, i32 0
  %coerce.dive2 = getelementptr inbounds %"class.v8::IndirectHandleBase", ptr %coerce.dive1, i32 0, i32 0
  store ptr %context.coerce, ptr %coerce.dive2, align 8
  store ptr %this, ptr %this.addr, align 8
  %this3 = load ptr, ptr %this.addr, align 8
  store ptr %context, ptr %this.addr.i, align 8
  %this1.i = load ptr, ptr %this.addr.i, align 8
  store ptr %this1.i, ptr %this.addr.i22, align 8
  %this1.i23 = load ptr, ptr %this.addr.i22, align 8
  store ptr %this1.i23, ptr %this.addr.i.i, align 8
  %this1.i.i = load ptr, ptr %this.addr.i.i, align 8
  %0 = load ptr, ptr %this1.i.i, align 8
  store ptr %0, ptr %slot.addr.i, align 8
  %1 = load ptr, ptr %slot.addr.i, align 8
  %index_ = getelementptr inbounds %"class.node::AliasedBufferBase", ptr %this3, i32 0, i32 6
  %2 = load ptr, ptr %index_, align 8
  %3 = load i64, ptr %2, align 8
  store ptr %1, ptr %this.addr.i31, align 8
  store i64 %3, ptr %index.addr.i, align 8
  %this1.i32 = load ptr, ptr %this.addr.i31, align 8
  %4 = load i64, ptr %index.addr.i, align 8
  %call.i = call noundef ptr @_ZN2v87Context23GetDataFromSnapshotOnceEm(ptr noundef nonnull align 1 dereferenceable(1) %this1.i32, i64 noundef %4) #3
  store ptr %call.i, ptr %slot.i, align 8
  %5 = load ptr, ptr %slot.i, align 8
  %tobool.i = icmp ne ptr %5, null
  br i1 %tobool.i, label %if.then.i, label %_ZN2v87Context23GetDataFromSnapshotOnceINS_12Float64ArrayEEENS_10MaybeLocalIT_EEm.exit

if.then.i:                                        ; preds = %entry
  %6 = load ptr, ptr %slot.i, align 8
  store ptr %6, ptr %slot.addr.i.i, align 8
  %7 = load ptr, ptr %slot.addr.i.i, align 8
  store ptr %7, ptr %data.addr.i, align 8
  %8 = load ptr, ptr %data.addr.i, align 8
  call void @_ZN2v88internal9CastCheckILb1EE7PerformINS_12Float64ArrayEEEvPT_(ptr noundef %8)
  br label %_ZN2v87Context23GetDataFromSnapshotOnceINS_12Float64ArrayEEENS_10MaybeLocalIT_EEm.exit

_ZN2v87Context23GetDataFromSnapshotOnceINS_12Float64ArrayEEENS_10MaybeLocalIT_EEm.exit: ; preds = %if.then.i, %entry
  %9 = load ptr, ptr %slot.i, align 8
  store ptr %9, ptr %slot.addr.i52, align 8
  %10 = load ptr, ptr %slot.addr.i52, align 8
  store ptr %10, ptr %slot.addr.i58, align 8
  %11 = load ptr, ptr %slot.addr.i58, align 8
  store ptr %retval.i57, ptr %this.addr.i.i56, align 8
  store ptr %11, ptr %location.addr.i.i, align 8
  %this1.i.i59 = load ptr, ptr %this.addr.i.i56, align 8
  %12 = load ptr, ptr %location.addr.i.i, align 8
  store ptr %this1.i.i59, ptr %this.addr.i2.i, align 8
  store ptr %12, ptr %location.addr.i3.i, align 8
  %this1.i4.i = load ptr, ptr %this.addr.i2.i, align 8
  %13 = load ptr, ptr %location.addr.i3.i, align 8
  store ptr %13, ptr %this1.i4.i, align 8
  %14 = load ptr, ptr %retval.i57, align 8
  store ptr %14, ptr %ref.tmp.i, align 8
  store ptr %retval.i51, ptr %this.addr.i.i50, align 8
  store ptr %ref.tmp.i, ptr %other.addr.i.i, align 8
  %this1.i.i54 = load ptr, ptr %this.addr.i.i50, align 8
  %15 = load ptr, ptr %other.addr.i.i, align 8
  call void @llvm.memcpy.p0.p0.i64(ptr align 8 %this1.i.i54, ptr align 8 %15, i64 8, i1 false)
  %16 = load ptr, ptr %retval.i51, align 8
  store ptr %16, ptr %agg.tmp.i, align 8
  %17 = load ptr, ptr %agg.tmp.i, align 8
  store ptr %17, ptr %that.i, align 8
  store ptr %retval.i, ptr %this.addr.i55, align 8
  %this3.i = load ptr, ptr %this.addr.i55, align 8
  call void @llvm.memcpy.p0.p0.i64(ptr align 8 %this3.i, ptr align 8 %that.i, i64 8, i1 false)
  %18 = load ptr, ptr %retval.i, align 8
  %coerce.dive5 = getelementptr inbounds %"class.v8::MaybeLocal.343", ptr %ref.tmp, i32 0, i32 0
  %coerce.dive6 = getelementptr inbounds %"class.v8::Local.28", ptr %coerce.dive5, i32 0, i32 0
  %coerce.dive7 = getelementptr inbounds %"class.v8::LocalBase.29", ptr %coerce.dive6, i32 0, i32 0
  %coerce.dive8 = getelementptr inbounds %"class.v8::IndirectHandleBase", ptr %coerce.dive7, i32 0, i32 0
  store ptr %18, ptr %coerce.dive8, align 8
  store ptr %ref.tmp, ptr %this.addr.i34, align 8
  %this1.i35 = load ptr, ptr %this.addr.i34, align 8
  store ptr %this1.i35, ptr %this.addr.i61, align 8
  %this1.i62 = load ptr, ptr %this.addr.i61, align 8
  store ptr %this1.i62, ptr %this.addr.i.i60, align 8
  %this1.i.i63 = load ptr, ptr %this.addr.i.i60, align 8
  %19 = load ptr, ptr %this1.i.i63, align 8
  %cmp.i.i64 = icmp eq ptr %19, null
  br i1 %cmp.i.i64, label %if.then.i37, label %_ZN2v810MaybeLocalINS_12Float64ArrayEE14ToLocalCheckedEv.exit

if.then.i37:                                      ; preds = %_ZN2v87Context23GetDataFromSnapshotOnceINS_12Float64ArrayEEENS_10MaybeLocalIT_EEm.exit
  call void @_ZN2v812api_internal12ToLocalEmptyEv() #3
  br label %_ZN2v810MaybeLocalINS_12Float64ArrayEE14ToLocalCheckedEv.exit

_ZN2v810MaybeLocalINS_12Float64ArrayEE14ToLocalCheckedEv.exit: ; preds = %if.then.i37, %_ZN2v87Context23GetDataFromSnapshotOnceINS_12Float64ArrayEEENS_10MaybeLocalIT_EEm.exit
  call void @llvm.memcpy.p0.p0.i64(ptr align 8 %retval.i33, ptr align 8 %this1.i35, i64 8, i1 false)
  %20 = load ptr, ptr %retval.i33, align 8
  %coerce.dive10 = getelementptr inbounds %"class.v8::Local.28", ptr %arr, i32 0, i32 0
  %coerce.dive11 = getelementptr inbounds %"class.v8::LocalBase.29", ptr %coerce.dive10, i32 0, i32 0
  %coerce.dive12 = getelementptr inbounds %"class.v8::IndirectHandleBase", ptr %coerce.dive11, i32 0, i32 0
  store ptr %20, ptr %coerce.dive12, align 8
  store ptr %arr, ptr %this.addr.i40, align 8
  %this1.i41 = load ptr, ptr %this.addr.i40, align 8
  store ptr %this1.i41, ptr %this.addr.i.i39, align 8
  %this1.i.i42 = load ptr, ptr %this.addr.i.i39, align 8
  store ptr %this1.i.i42, ptr %this.addr.i.i.i, align 8
  %this1.i.i.i = load ptr, ptr %this.addr.i.i.i, align 8
  %21 = load ptr, ptr %this1.i.i.i, align 8
  store ptr %21, ptr %slot.addr.i.i38, align 8
  %22 = load ptr, ptr %slot.addr.i.i38, align 8
  %call15 = call ptr @_ZN2v815ArrayBufferView6BufferEv(ptr noundef nonnull align 1 dereferenceable(1) %22)
  %coerce.dive16 = getelementptr inbounds %"class.v8::Local.341", ptr %ref.tmp13, i32 0, i32 0
  %coerce.dive17 = getelementptr inbounds %"class.v8::LocalBase.342", ptr %coerce.dive16, i32 0, i32 0
  %coerce.dive18 = getelementptr inbounds %"class.v8::IndirectHandleBase", ptr %coerce.dive17, i32 0, i32 0
  store ptr %call15, ptr %coerce.dive18, align 8
  store ptr %ref.tmp13, ptr %this.addr.i24, align 8
  %this1.i25 = load ptr, ptr %this.addr.i24, align 8
  store ptr %this1.i25, ptr %this.addr.i27, align 8
  %this1.i28 = load ptr, ptr %this.addr.i27, align 8
  store ptr %this1.i28, ptr %this.addr.i.i26, align 8
  %this1.i.i29 = load ptr, ptr %this.addr.i.i26, align 8
  %23 = load ptr, ptr %this1.i.i29, align 8
  store ptr %23, ptr %slot.addr.i30, align 8
  %24 = load ptr, ptr %slot.addr.i30, align 8
  %call20 = call noundef ptr @_ZNK2v811ArrayBuffer4DataEv(ptr noundef nonnull align 1 dereferenceable(1) %24)
  store ptr %call20, ptr %raw, align 8
  %25 = load ptr, ptr %raw, align 8
  %byte_offset_ = getelementptr inbounds %"class.node::AliasedBufferBase", ptr %this3, i32 0, i32 3
  %26 = load i64, ptr %byte_offset_, align 8
  %add.ptr = getelementptr inbounds i8, ptr %25, i64 %26
  %buffer_ = getelementptr inbounds %"class.node::AliasedBufferBase", ptr %this3, i32 0, i32 4
  store ptr %add.ptr, ptr %buffer_, align 8
  %js_array_ = getelementptr inbounds %"class.node::AliasedBufferBase", ptr %this3, i32 0, i32 5
  %isolate_ = getelementptr inbounds %"class.node::AliasedBufferBase", ptr %this3, i32 0, i32 1
  %27 = load ptr, ptr %isolate_, align 8
  store ptr %js_array_, ptr %this.addr.i45, align 8
  store ptr %27, ptr %isolate.addr.i, align 8
  store ptr %arr, ptr %other.addr.i, align 8
  %this1.i46 = load ptr, ptr %this.addr.i45, align 8
  store ptr %this1.i46, ptr %this.addr.i5.i, align 8
  %this1.i6.i = load ptr, ptr %this.addr.i5.i, align 8
  store ptr %this1.i6.i, ptr %this.addr.i.i.i43, align 8
  %this1.i.i.i47 = load ptr, ptr %this.addr.i.i.i43, align 8
  %28 = load ptr, ptr %this1.i.i.i47, align 8
  %cmp.i.i.i = icmp eq ptr %28, null
  br i1 %cmp.i.i.i, label %if.then.i.i, label %if.end.i.i

if.then.i.i:                                      ; preds = %_ZN2v810MaybeLocalINS_12Float64ArrayEE14ToLocalCheckedEv.exit
  br label %_ZN2v814PersistentBaseINS_12Float64ArrayEE5ResetEv.exit.i

if.end.i.i:                                       ; preds = %_ZN2v810MaybeLocalINS_12Float64ArrayEE14ToLocalCheckedEv.exit
  store ptr %this1.i6.i, ptr %this.addr.i7.i, align 8
  %this1.i8.i = load ptr, ptr %this.addr.i7.i, align 8
  %29 = load ptr, ptr %this1.i8.i, align 8
  call void @_ZN2v812api_internal13DisposeGlobalEPm(ptr noundef %29) #3
  store ptr %this1.i6.i, ptr %this.addr.i11.i, align 8
  %this1.i12.i = load ptr, ptr %this.addr.i11.i, align 8
  store ptr null, ptr %this1.i12.i, align 8
  br label %_ZN2v814PersistentBaseINS_12Float64ArrayEE5ResetEv.exit.i

_ZN2v814PersistentBaseINS_12Float64ArrayEE5ResetEv.exit.i: ; preds = %if.end.i.i, %if.then.i.i
  %30 = load ptr, ptr %other.addr.i, align 8
  store ptr %30, ptr %this.addr.i.i44, align 8
  %this1.i.i48 = load ptr, ptr %this.addr.i.i44, align 8
  %31 = load ptr, ptr %this1.i.i48, align 8
  %cmp.i.i = icmp eq ptr %31, null
  br i1 %cmp.i.i, label %if.then.i49, label %if.end.i

if.then.i49:                                      ; preds = %_ZN2v814PersistentBaseINS_12Float64ArrayEE5ResetEv.exit.i
  br label %_ZN2v814PersistentBaseINS_12Float64ArrayEE5ResetIS1_EEvPNS_7IsolateERKNS_5LocalIT_EE.exit

if.end.i:                                         ; preds = %_ZN2v814PersistentBaseINS_12Float64ArrayEE5ResetEv.exit.i
  %32 = load ptr, ptr %isolate.addr.i, align 8
  %33 = load ptr, ptr %other.addr.i, align 8
  store ptr %33, ptr %this.addr.i67, align 8
  %this1.i68 = load ptr, ptr %this.addr.i67, align 8
  store ptr %this1.i68, ptr %this.addr.i.i66, align 8
  %this1.i.i69 = load ptr, ptr %this.addr.i.i66, align 8
  store ptr %this1.i.i69, ptr %this.addr.i.i.i65, align 8
  %this1.i.i.i70 = load ptr, ptr %this.addr.i.i.i65, align 8
  store ptr %this1.i.i.i70, ptr %this.addr.i.i.i.i, align 8
  %this1.i.i.i.i = load ptr, ptr %this.addr.i.i.i.i, align 8
  %34 = load ptr, ptr %this1.i.i.i.i, align 8
  store ptr %34, ptr %slot.addr.i.i.i, align 8
  %35 = load ptr, ptr %slot.addr.i.i.i, align 8
  store ptr %32, ptr %isolate.addr.i.i, align 8
  store ptr %35, ptr %that.addr.i.i, align 8
  %36 = load ptr, ptr %that.addr.i.i, align 8
  store ptr %36, ptr %value.addr.i.i.i, align 8
  %37 = load ptr, ptr %value.addr.i.i.i, align 8
  %38 = ptrtoint ptr %37 to i64
  %cmp.i.i13.i = icmp eq i64 %38, 0
  br i1 %cmp.i.i13.i, label %if.then.i15.i, label %if.end.i14.i

if.then.i15.i:                                    ; preds = %if.end.i
  store ptr null, ptr %retval.i.i, align 8
  br label %_ZN2v814PersistentBaseINS_12Float64ArrayEE3NewEPNS_7IsolateEPS1_.exit.i

if.end.i14.i:                                     ; preds = %if.end.i
  %39 = load ptr, ptr %isolate.addr.i.i, align 8
  %40 = load ptr, ptr %that.addr.i.i, align 8
  store ptr %40, ptr %value.addr.i3.i.i, align 8
  %41 = load ptr, ptr %value.addr.i3.i.i, align 8
  %42 = load i64, ptr %41, align 8
  %call2.i.i = call noundef ptr @_ZN2v812api_internal18GlobalizeReferenceEPNS_8internal7IsolateEm(ptr noundef %39, i64 noundef %42) #3
  store ptr %call2.i.i, ptr %retval.i.i, align 8
  br label %_ZN2v814PersistentBaseINS_12Float64ArrayEE3NewEPNS_7IsolateEPS1_.exit.i

_ZN2v814PersistentBaseINS_12Float64ArrayEE3NewEPNS_7IsolateEPS1_.exit.i: ; preds = %if.end.i14.i, %if.then.i15.i
  %43 = load ptr, ptr %retval.i.i, align 8
  store ptr %this1.i46, ptr %this.addr.i9.i, align 8
  %this1.i10.i = load ptr, ptr %this.addr.i9.i, align 8
  store ptr %43, ptr %this1.i10.i, align 8
  br label %_ZN2v814PersistentBaseINS_12Float64ArrayEE5ResetIS1_EEvPNS_7IsolateERKNS_5LocalIT_EE.exit

_ZN2v814PersistentBaseINS_12Float64ArrayEE5ResetIS1_EEvPNS_7IsolateERKNS_5LocalIT_EE.exit: ; preds = %_ZN2v814PersistentBaseINS_12Float64ArrayEE3NewEPNS_7IsolateEPS1_.exit.i, %if.then.i49
  %index_21 = getelementptr inbounds %"class.node::AliasedBufferBase", ptr %this3, i32 0, i32 6
  store ptr null, ptr %index_21, align 8
  ret void
}

; Function Attrs: mustprogress nounwind uwtable
define linkonce_odr dso_local void @_ZN4node17AliasedBufferBaseIdN2v812Float64ArrayEE8MakeWeakEv(ptr noundef nonnull align 8 dereferenceable(56) %this) #4 comdat align 2 {
entry:
  %this.addr.i.i = alloca ptr, align 8
  %this.addr.i = alloca ptr, align 8
  %this.addr = alloca ptr, align 8
  store ptr %this, ptr %this.addr, align 8
  %this1 = load ptr, ptr %this.addr, align 8
  %js_array_ = getelementptr inbounds %"class.node::AliasedBufferBase", ptr %this1, i32 0, i32 5
  store ptr %js_array_, ptr %this.addr.i, align 8
  %this1.i = load ptr, ptr %this.addr.i, align 8
  store ptr %this1.i, ptr %this.addr.i.i, align 8
  %this1.i.i = load ptr, ptr %this.addr.i.i, align 8
  call void @_ZN2v812api_internal8MakeWeakEPPm(ptr noundef %this1.i.i) #3
  ret void
}

; Function Attrs: mustprogress nounwind uwtable
define dso_local noundef zeroext i1 @_ZN4node8v8_utils11BindingData23PrepareForSerializationEN2v85LocalINS2_7ContextEEEPNS2_15SnapshotCreatorE(ptr noundef nonnull align 8 dereferenceable(216) %this, ptr %context.coerce, ptr noundef %creator) unnamed_addr #4 align 2 {
entry:
  %context = alloca %"class.v8::Local.22", align 8
  %this.addr = alloca ptr, align 8
  %creator.addr = alloca ptr, align 8
  %agg.tmp = alloca %"class.v8::Local.22", align 8
  %agg.tmp11 = alloca %"class.v8::Local.22", align 8
  %agg.tmp18 = alloca %"class.v8::Local.22", align 8
  %coerce.dive = getelementptr inbounds %"class.v8::Local.22", ptr %context, i32 0, i32 0
  %coerce.dive1 = getelementptr inbounds %"class.v8::LocalBase.23", ptr %coerce.dive, i32 0, i32 0
  %coerce.dive2 = getelementptr inbounds %"class.v8::IndirectHandleBase", ptr %coerce.dive1, i32 0, i32 0
  store ptr %context.coerce, ptr %coerce.dive2, align 8
  store ptr %this, ptr %this.addr, align 8
  store ptr %creator, ptr %creator.addr, align 8
  %this3 = load ptr, ptr %this.addr, align 8
  %call = call noundef zeroext i8 @_ZN4node18SnapshotableObject4typeEv(ptr noundef nonnull align 8 dereferenceable(33) %this3)
  %call4 = call noundef ptr @_ZN4node21InternalFieldInfoBase3NewINS_8v8_utils11BindingData17InternalFieldInfoEEEPT_NS_18EmbedderObjectTypeE(i8 noundef zeroext %call)
  %internal_field_info_ = getelementptr inbounds %"class.node::v8_utils::BindingData", ptr %this3, i32 0, i32 4
  store ptr %call4, ptr %internal_field_info_, align 8
  %heap_statistics_buffer = getelementptr inbounds %"class.node::v8_utils::BindingData", ptr %this3, i32 0, i32 1
  call void @llvm.memcpy.p0.p0.i64(ptr align 8 %agg.tmp, ptr align 8 %context, i64 8, i1 false)
  %0 = load ptr, ptr %creator.addr, align 8
  %coerce.dive5 = getelementptr inbounds %"class.v8::Local.22", ptr %agg.tmp, i32 0, i32 0
  %coerce.dive6 = getelementptr inbounds %"class.v8::LocalBase.23", ptr %coerce.dive5, i32 0, i32 0
  %coerce.dive7 = getelementptr inbounds %"class.v8::IndirectHandleBase", ptr %coerce.dive6, i32 0, i32 0
  %1 = load ptr, ptr %coerce.dive7, align 8
  %call8 = call noundef i64 @_ZN4node17AliasedBufferBaseIdN2v812Float64ArrayEE9SerializeENS1_5LocalINS1_7ContextEEEPNS1_15SnapshotCreatorE(ptr noundef nonnull align 8 dereferenceable(56) %heap_statistics_buffer, ptr %1, ptr noundef %0)
  %internal_field_info_9 = getelementptr inbounds %"class.node::v8_utils::BindingData", ptr %this3, i32 0, i32 4
  %2 = load ptr, ptr %internal_field_info_9, align 8
  %heap_statistics_buffer10 = getelementptr inbounds %"struct.node::v8_utils::BindingData::InternalFieldInfo", ptr %2, i32 0, i32 1
  store i64 %call8, ptr %heap_statistics_buffer10, align 8
  %heap_space_statistics_buffer = getelementptr inbounds %"class.node::v8_utils::BindingData", ptr %this3, i32 0, i32 2
  call void @llvm.memcpy.p0.p0.i64(ptr align 8 %agg.tmp11, ptr align 8 %context, i64 8, i1 false)
  %3 = load ptr, ptr %creator.addr, align 8
  %coerce.dive12 = getelementptr inbounds %"class.v8::Local.22", ptr %agg.tmp11, i32 0, i32 0
  %coerce.dive13 = getelementptr inbounds %"class.v8::LocalBase.23", ptr %coerce.dive12, i32 0, i32 0
  %coerce.dive14 = getelementptr inbounds %"class.v8::IndirectHandleBase", ptr %coerce.dive13, i32 0, i32 0
  %4 = load ptr, ptr %coerce.dive14, align 8
  %call15 = call noundef i64 @_ZN4node17AliasedBufferBaseIdN2v812Float64ArrayEE9SerializeENS1_5LocalINS1_7ContextEEEPNS1_15SnapshotCreatorE(ptr noundef nonnull align 8 dereferenceable(56) %heap_space_statistics_buffer, ptr %4, ptr noundef %3)
  %internal_field_info_16 = getelementptr inbounds %"class.node::v8_utils::BindingData", ptr %this3, i32 0, i32 4
  %5 = load ptr, ptr %internal_field_info_16, align 8
  %heap_space_statistics_buffer17 = getelementptr inbounds %"struct.node::v8_utils::BindingData::InternalFieldInfo", ptr %5, i32 0, i32 2
  store i64 %call15, ptr %heap_space_statistics_buffer17, align 8
  %heap_code_statistics_buffer = getelementptr inbounds %"class.node::v8_utils::BindingData", ptr %this3, i32 0, i32 3
  call void @llvm.memcpy.p0.p0.i64(ptr align 8 %agg.tmp18, ptr align 8 %context, i64 8, i1 false)
  %6 = load ptr, ptr %creator.addr, align 8
  %coerce.dive19 = getelementptr inbounds %"class.v8::Local.22", ptr %agg.tmp18, i32 0, i32 0
  %coerce.dive20 = getelementptr inbounds %"class.v8::LocalBase.23", ptr %coerce.dive19, i32 0, i32 0
  %coerce.dive21 = getelementptr inbounds %"class.v8::IndirectHandleBase", ptr %coerce.dive20, i32 0, i32 0
  %7 = load ptr, ptr %coerce.dive21, align 8
  %call22 = call noundef i64 @_ZN4node17AliasedBufferBaseIdN2v812Float64ArrayEE9SerializeENS1_5LocalINS1_7ContextEEEPNS1_15SnapshotCreatorE(ptr noundef nonnull align 8 dereferenceable(56) %heap_code_statistics_buffer, ptr %7, ptr noundef %6)
  %internal_field_info_23 = getelementptr inbounds %"class.node::v8_utils::BindingData", ptr %this3, i32 0, i32 4
  %8 = load ptr, ptr %internal_field_info_23, align 8
  %heap_code_statistics_buffer24 = getelementptr inbounds %"struct.node::v8_utils::BindingData::InternalFieldInfo", ptr %8, i32 0, i32 3
  store i64 %call22, ptr %heap_code_statistics_buffer24, align 8
  ret i1 true
}

; Function Attrs: mustprogress nounwind uwtable
define linkonce_odr dso_local noundef ptr @_ZN4node21InternalFieldInfoBase3NewINS_8v8_utils11BindingData17InternalFieldInfoEEEPT_NS_18EmbedderObjectTypeE(i8 noundef zeroext %type) #4 comdat align 2 {
entry:
  %type.addr = alloca i8, align 1
  %buf = alloca ptr, align 8
  %result = alloca ptr, align 8
  store i8 %type, ptr %type.addr, align 1
  %call = call noalias noundef nonnull ptr @_Znam(i64 noundef 40) #14
  store ptr %call, ptr %buf, align 8
  %0 = load ptr, ptr %buf, align 8
  store ptr %0, ptr %result, align 8
  %1 = load i8, ptr %type.addr, align 1
  %2 = load ptr, ptr %result, align 8
  %type1 = getelementptr inbounds %"struct.node::InternalFieldInfoBase", ptr %2, i32 0, i32 0
  store i8 %1, ptr %type1, align 8
  %3 = load ptr, ptr %result, align 8
  %length = getelementptr inbounds %"struct.node::InternalFieldInfoBase", ptr %3, i32 0, i32 1
  store i64 40, ptr %length, align 8
  %4 = load ptr, ptr %result, align 8
  ret ptr %4
}

; Function Attrs: mustprogress nounwind uwtable
define linkonce_odr dso_local noundef zeroext i8 @_ZN4node18SnapshotableObject4typeEv(ptr noundef nonnull align 8 dereferenceable(33) %this) #4 comdat align 2 {
entry:
  %this.addr = alloca ptr, align 8
  store ptr %this, ptr %this.addr, align 8
  %this1 = load ptr, ptr %this.addr, align 8
  %type_ = getelementptr inbounds %"class.node::SnapshotableObject", ptr %this1, i32 0, i32 1
  %0 = load i8, ptr %type_, align 8
  ret i8 %0
}

; Function Attrs: mustprogress nounwind uwtable
define linkonce_odr dso_local noundef i64 @_ZN4node17AliasedBufferBaseIdN2v812Float64ArrayEE9SerializeENS1_5LocalINS1_7ContextEEEPNS1_15SnapshotCreatorE(ptr noundef nonnull align 8 dereferenceable(56) %this, ptr %context.coerce, ptr noundef %creator) #4 comdat align 2 {
entry:
  %slot.addr.i.i.i.i = alloca ptr, align 8
  %this.addr.i.i.i.i.i = alloca ptr, align 8
  %this.addr.i.i.i.i = alloca ptr, align 8
  %this.addr.i.i.i = alloca ptr, align 8
  %this.addr.i.i = alloca ptr, align 8
  %value.addr.i.i = alloca ptr, align 8
  %context.i = alloca %"class.v8::Local.22", align 8
  %object.i = alloca %"class.v8::Local.28", align 8
  %this.addr.i = alloca ptr, align 8
  %agg.tmp.i = alloca %"class.v8::Local.22", align 8
  %context = alloca %"class.v8::Local.22", align 8
  %this.addr = alloca ptr, align 8
  %creator.addr = alloca ptr, align 8
  %agg.tmp = alloca %"class.v8::Local.22", align 8
  %agg.tmp4 = alloca %"class.v8::Local.28", align 8
  %coerce.dive = getelementptr inbounds %"class.v8::Local.22", ptr %context, i32 0, i32 0
  %coerce.dive1 = getelementptr inbounds %"class.v8::LocalBase.23", ptr %coerce.dive, i32 0, i32 0
  %coerce.dive2 = getelementptr inbounds %"class.v8::IndirectHandleBase", ptr %coerce.dive1, i32 0, i32 0
  store ptr %context.coerce, ptr %coerce.dive2, align 8
  store ptr %this, ptr %this.addr, align 8
  store ptr %creator, ptr %creator.addr, align 8
  %this3 = load ptr, ptr %this.addr, align 8
  %0 = load ptr, ptr %creator.addr, align 8
  call void @llvm.memcpy.p0.p0.i64(ptr align 8 %agg.tmp, ptr align 8 %context, i64 8, i1 false)
  %call = call ptr @_ZNK4node17AliasedBufferBaseIdN2v812Float64ArrayEE10GetJSArrayEv(ptr noundef nonnull align 8 dereferenceable(56) %this3)
  %coerce.dive5 = getelementptr inbounds %"class.v8::Local.28", ptr %agg.tmp4, i32 0, i32 0
  %coerce.dive6 = getelementptr inbounds %"class.v8::LocalBase.29", ptr %coerce.dive5, i32 0, i32 0
  %coerce.dive7 = getelementptr inbounds %"class.v8::IndirectHandleBase", ptr %coerce.dive6, i32 0, i32 0
  store ptr %call, ptr %coerce.dive7, align 8
  %coerce.dive8 = getelementptr inbounds %"class.v8::Local.22", ptr %agg.tmp, i32 0, i32 0
  %coerce.dive9 = getelementptr inbounds %"class.v8::LocalBase.23", ptr %coerce.dive8, i32 0, i32 0
  %coerce.dive10 = getelementptr inbounds %"class.v8::IndirectHandleBase", ptr %coerce.dive9, i32 0, i32 0
  %1 = load ptr, ptr %coerce.dive10, align 8
  %coerce.dive11 = getelementptr inbounds %"class.v8::Local.28", ptr %agg.tmp4, i32 0, i32 0
  %coerce.dive12 = getelementptr inbounds %"class.v8::LocalBase.29", ptr %coerce.dive11, i32 0, i32 0
  %coerce.dive13 = getelementptr inbounds %"class.v8::IndirectHandleBase", ptr %coerce.dive12, i32 0, i32 0
  %2 = load ptr, ptr %coerce.dive13, align 8
  store ptr %1, ptr %context.i, align 8
  store ptr %2, ptr %object.i, align 8
  store ptr %0, ptr %this.addr.i, align 8
  %this6.i = load ptr, ptr %this.addr.i, align 8
  call void @llvm.memcpy.p0.p0.i64(ptr align 8 %agg.tmp.i, ptr align 8 %context.i, i64 8, i1 false)
  store ptr %object.i, ptr %this.addr.i.i, align 8
  %this1.i.i = load ptr, ptr %this.addr.i.i, align 8
  store ptr %this1.i.i, ptr %this.addr.i.i.i, align 8
  %this1.i.i.i = load ptr, ptr %this.addr.i.i.i, align 8
  store ptr %this1.i.i.i, ptr %this.addr.i.i.i.i, align 8
  %this1.i.i.i.i = load ptr, ptr %this.addr.i.i.i.i, align 8
  store ptr %this1.i.i.i.i, ptr %this.addr.i.i.i.i.i, align 8
  %this1.i.i.i.i.i = load ptr, ptr %this.addr.i.i.i.i.i, align 8
  %3 = load ptr, ptr %this1.i.i.i.i.i, align 8
  store ptr %3, ptr %slot.addr.i.i.i.i, align 8
  %4 = load ptr, ptr %slot.addr.i.i.i.i, align 8
  store ptr %4, ptr %value.addr.i.i, align 8
  %5 = load ptr, ptr %value.addr.i.i, align 8
  %6 = load i64, ptr %5, align 8
  %7 = load ptr, ptr %agg.tmp.i, align 8
  %call11.i = call noundef i64 @_ZN2v815SnapshotCreator7AddDataENS_5LocalINS_7ContextEEEm(ptr noundef nonnull align 8 dereferenceable(8) %this6.i, ptr %7, i64 noundef %6) #3
  ret i64 %call11.i
}

; Function Attrs: mustprogress nounwind uwtable
define dso_local void @_ZN4node8v8_utils11BindingData11DeserializeEN2v85LocalINS2_7ContextEEENS3_INS2_6ObjectEEEiPNS_21InternalFieldInfoBaseE(ptr %context.coerce, ptr %holder.coerce, i32 noundef %index, ptr noundef %info) #4 align 2 {
entry:
  %slot.addr.i = alloca ptr, align 8
  %this.addr.i.i = alloca ptr, align 8
  %this.addr.i21 = alloca ptr, align 8
  %this.addr.i = alloca ptr, align 8
  %context = alloca %"class.v8::Local.22", align 8
  %holder = alloca %"class.v8::Local", align 8
  %index.addr = alloca i32, align 4
  %info.addr = alloca ptr, align 8
  %scope = alloca %"class.v8::HandleScope", align 8
  %realm = alloca ptr, align 8
  %agg.tmp = alloca %"class.v8::Local.22", align 8
  %casted_info = alloca ptr, align 8
  %binding = alloca ptr, align 8
  %agg.tmp11 = alloca %"class.v8::Local", align 8
  %coerce.dive = getelementptr inbounds %"class.v8::Local.22", ptr %context, i32 0, i32 0
  %coerce.dive1 = getelementptr inbounds %"class.v8::LocalBase.23", ptr %coerce.dive, i32 0, i32 0
  %coerce.dive2 = getelementptr inbounds %"class.v8::IndirectHandleBase", ptr %coerce.dive1, i32 0, i32 0
  store ptr %context.coerce, ptr %coerce.dive2, align 8
  %coerce.dive3 = getelementptr inbounds %"class.v8::Local", ptr %holder, i32 0, i32 0
  %coerce.dive4 = getelementptr inbounds %"class.v8::LocalBase", ptr %coerce.dive3, i32 0, i32 0
  %coerce.dive5 = getelementptr inbounds %"class.v8::IndirectHandleBase", ptr %coerce.dive4, i32 0, i32 0
  store ptr %holder.coerce, ptr %coerce.dive5, align 8
  store i32 %index, ptr %index.addr, align 4
  store ptr %info, ptr %info.addr, align 8
  store ptr %context, ptr %this.addr.i, align 8
  %this1.i = load ptr, ptr %this.addr.i, align 8
  store ptr %this1.i, ptr %this.addr.i21, align 8
  %this1.i22 = load ptr, ptr %this.addr.i21, align 8
  store ptr %this1.i22, ptr %this.addr.i.i, align 8
  %this1.i.i = load ptr, ptr %this.addr.i.i, align 8
  %0 = load ptr, ptr %this1.i.i, align 8
  store ptr %0, ptr %slot.addr.i, align 8
  %1 = load ptr, ptr %slot.addr.i, align 8
  %call6 = call noundef ptr @_ZN2v87Context10GetIsolateEv(ptr noundef nonnull align 1 dereferenceable(1) %1)
  call void @_ZN2v811HandleScopeC1EPNS_7IsolateE(ptr noundef nonnull align 8 dereferenceable(24) %scope, ptr noundef %call6)
  call void @llvm.memcpy.p0.p0.i64(ptr align 8 %agg.tmp, ptr align 8 %context, i64 8, i1 false)
  %coerce.dive7 = getelementptr inbounds %"class.v8::Local.22", ptr %agg.tmp, i32 0, i32 0
  %coerce.dive8 = getelementptr inbounds %"class.v8::LocalBase.23", ptr %coerce.dive7, i32 0, i32 0
  %coerce.dive9 = getelementptr inbounds %"class.v8::IndirectHandleBase", ptr %coerce.dive8, i32 0, i32 0
  %2 = load ptr, ptr %coerce.dive9, align 8
  %call10 = call noundef ptr @_ZN4node5Realm10GetCurrentEN2v85LocalINS1_7ContextEEE(ptr %2)
  store ptr %call10, ptr %realm, align 8
  %3 = load ptr, ptr %info.addr, align 8
  store ptr %3, ptr %casted_info, align 8
  %4 = load ptr, ptr %realm, align 8
  call void @llvm.memcpy.p0.p0.i64(ptr align 8 %agg.tmp11, ptr align 8 %holder, i64 8, i1 false)
  %coerce.dive12 = getelementptr inbounds %"class.v8::Local", ptr %agg.tmp11, i32 0, i32 0
  %coerce.dive13 = getelementptr inbounds %"class.v8::LocalBase", ptr %coerce.dive12, i32 0, i32 0
  %coerce.dive14 = getelementptr inbounds %"class.v8::IndirectHandleBase", ptr %coerce.dive13, i32 0, i32 0
  %5 = load ptr, ptr %coerce.dive14, align 8
  %call15 = call noundef ptr @_ZN4node5Realm14AddBindingDataINS_8v8_utils11BindingDataEJRPNS3_17InternalFieldInfoEEEEPT_N2v85LocalINS9_6ObjectEEEDpOT0_(ptr noundef nonnull align 8 dereferenceable(872) %4, ptr %5, ptr noundef nonnull align 8 dereferenceable(8) %casted_info)
  store ptr %call15, ptr %binding, align 8
  br label %do.body

do.body:                                          ; preds = %entry
  %6 = load ptr, ptr %binding, align 8
  %cmp = icmp ne ptr %6, null
  %lnot = xor i1 %cmp, true
  %lnot16 = xor i1 %lnot, true
  %lnot17 = xor i1 %lnot16, true
  br i1 %lnot17, label %if.then, label %if.end

if.then:                                          ; preds = %do.body
  br label %do.body18

do.body18:                                        ; preds = %if.then
  call void @_ZN4node6AssertERKNS_13AssertionInfoE(ptr noundef nonnull align 8 dereferenceable(24) @_ZZN4node8v8_utils11BindingData11DeserializeEN2v85LocalINS2_7ContextEEENS3_INS2_6ObjectEEEiPNS_21InternalFieldInfoBaseEE4args)
  call void @abort() #13
  unreachable

do.cond:                                          ; No predecessors!
  br label %do.end

do.end:                                           ; preds = %do.cond
  br label %if.end

if.end:                                           ; preds = %do.end, %do.body
  br label %do.cond19

do.cond19:                                        ; preds = %if.end
  br label %do.end20

do.end20:                                         ; preds = %do.cond19
  call void @_ZN2v811HandleScopeD1Ev(ptr noundef nonnull align 8 dereferenceable(24) %scope) #3
  ret void
}

declare noundef ptr @_ZN2v87Context10GetIsolateEv(ptr noundef nonnull align 1 dereferenceable(1)) #1

declare void @_ZN2v811HandleScopeC1EPNS_7IsolateE(ptr noundef nonnull align 8 dereferenceable(24), ptr noundef) unnamed_addr #1

; Function Attrs: mustprogress nounwind uwtable
define linkonce_odr dso_local noundef ptr @_ZN4node5Realm10GetCurrentEN2v85LocalINS1_7ContextEEE(ptr %context.coerce) #4 comdat align 2 {
entry:
  %slot.addr.i = alloca ptr, align 8
  %this.addr.i.i = alloca ptr, align 8
  %this.addr.i26 = alloca ptr, align 8
  %heap_object_ptr.addr.i20 = alloca i64, align 8
  %offset.addr.i21 = alloca i32, align 4
  %addr.i22 = alloca i64, align 8
  %heap_object_ptr.addr.i17 = alloca i64, align 8
  %offset.addr.i18 = alloca i32, align 4
  %addr.i = alloca i64, align 8
  %isolate.addr.i = alloca ptr, align 8
  %heap_object_ptr.addr.i14 = alloca i64, align 8
  %offset.addr.i15 = alloca i32, align 4
  %obj.addr.i = alloca i64, align 8
  %heap_object_ptr.addr.i = alloca i64, align 8
  %offset.addr.i = alloca i32, align 4
  %value.addr.i = alloca ptr, align 8
  %this.addr.i10 = alloca ptr, align 8
  %index.addr.i = alloca i32, align 4
  %ctx.i = alloca i64, align 8
  %embedder_data.i = alloca i64, align 8
  %value_offset.i = alloca i32, align 4
  %isolate.i = alloca ptr, align 8
  %this.addr.i = alloca ptr, align 8
  %retval = alloca ptr, align 8
  %context = alloca %"class.v8::Local.22", align 8
  %agg.tmp = alloca %"class.v8::Local.22", align 8
  %coerce.dive = getelementptr inbounds %"class.v8::Local.22", ptr %context, i32 0, i32 0
  %coerce.dive1 = getelementptr inbounds %"class.v8::LocalBase.23", ptr %coerce.dive, i32 0, i32 0
  %coerce.dive2 = getelementptr inbounds %"class.v8::IndirectHandleBase", ptr %coerce.dive1, i32 0, i32 0
  store ptr %context.coerce, ptr %coerce.dive2, align 8
  call void @llvm.memcpy.p0.p0.i64(ptr align 8 %agg.tmp, ptr align 8 %context, i64 8, i1 false)
  %coerce.dive3 = getelementptr inbounds %"class.v8::Local.22", ptr %agg.tmp, i32 0, i32 0
  %coerce.dive4 = getelementptr inbounds %"class.v8::LocalBase.23", ptr %coerce.dive3, i32 0, i32 0
  %coerce.dive5 = getelementptr inbounds %"class.v8::IndirectHandleBase", ptr %coerce.dive4, i32 0, i32 0
  %0 = load ptr, ptr %coerce.dive5, align 8
  %call = call noundef zeroext i1 @_ZN4node18ContextEmbedderTag13IsNodeContextEN2v85LocalINS1_7ContextEEE(ptr %0)
  %lnot = xor i1 %call, true
  %lnot6 = xor i1 %lnot, true
  %lnot7 = xor i1 %lnot6, true
  br i1 %lnot7, label %if.then, label %if.end

if.then:                                          ; preds = %entry
  store ptr null, ptr %retval, align 8
  br label %return

if.end:                                           ; preds = %entry
  store ptr %context, ptr %this.addr.i, align 8
  %this1.i = load ptr, ptr %this.addr.i, align 8
  store ptr %this1.i, ptr %this.addr.i26, align 8
  %this1.i27 = load ptr, ptr %this.addr.i26, align 8
  store ptr %this1.i27, ptr %this.addr.i.i, align 8
  %this1.i.i = load ptr, ptr %this.addr.i.i, align 8
  %1 = load ptr, ptr %this1.i.i, align 8
  store ptr %1, ptr %slot.addr.i, align 8
  %2 = load ptr, ptr %slot.addr.i, align 8
  store ptr %2, ptr %this.addr.i10, align 8
  store i32 38, ptr %index.addr.i, align 4
  %this1.i11 = load ptr, ptr %this.addr.i10, align 8
  store ptr %this1.i11, ptr %value.addr.i, align 8
  %3 = load ptr, ptr %value.addr.i, align 8
  %4 = load i64, ptr %3, align 8
  store i64 %4, ptr %ctx.i, align 8
  %5 = load i64, ptr %ctx.i, align 8
  store i64 %5, ptr %heap_object_ptr.addr.i, align 8
  store i32 48, ptr %offset.addr.i, align 4
  %6 = load i64, ptr %heap_object_ptr.addr.i, align 8
  %7 = load i32, ptr %offset.addr.i, align 4
  store i64 %6, ptr %heap_object_ptr.addr.i20, align 8
  store i32 %7, ptr %offset.addr.i21, align 4
  %8 = load i64, ptr %heap_object_ptr.addr.i20, align 8
  %9 = load i32, ptr %offset.addr.i21, align 4
  %conv.i23 = sext i32 %9 to i64
  %add.i24 = add i64 %8, %conv.i23
  %sub.i25 = sub i64 %add.i24, 1
  store i64 %sub.i25, ptr %addr.i22, align 8
  %10 = load i64, ptr %addr.i22, align 8
  %11 = inttoptr i64 %10 to ptr
  %12 = load i64, ptr %11, align 8
  store i64 %12, ptr %embedder_data.i, align 8
  %13 = load i32, ptr %index.addr.i, align 4
  %mul.i = mul nsw i32 8, %13
  %add.i = add nsw i32 16, %mul.i
  store i32 %add.i, ptr %value_offset.i, align 4
  %14 = load i64, ptr %ctx.i, align 8
  store i64 %14, ptr %obj.addr.i, align 8
  store ptr null, ptr %isolate.i, align 8
  %15 = load ptr, ptr %isolate.i, align 8
  %16 = load i64, ptr %embedder_data.i, align 8
  %17 = load i32, ptr %value_offset.i, align 4
  store ptr %15, ptr %isolate.addr.i, align 8
  store i64 %16, ptr %heap_object_ptr.addr.i14, align 8
  store i32 %17, ptr %offset.addr.i15, align 4
  %18 = load i64, ptr %heap_object_ptr.addr.i14, align 8
  %19 = load i32, ptr %offset.addr.i15, align 4
  store i64 %18, ptr %heap_object_ptr.addr.i17, align 8
  store i32 %19, ptr %offset.addr.i18, align 4
  %20 = load i64, ptr %heap_object_ptr.addr.i17, align 8
  %21 = load i32, ptr %offset.addr.i18, align 4
  %conv.i = sext i32 %21 to i64
  %add.i19 = add i64 %20, %conv.i
  %sub.i = sub i64 %add.i19, 1
  store i64 %sub.i, ptr %addr.i, align 8
  %22 = load i64, ptr %addr.i, align 8
  %23 = inttoptr i64 %22 to ptr
  %24 = load i64, ptr %23, align 8
  %25 = inttoptr i64 %24 to ptr
  store ptr %25, ptr %retval, align 8
  br label %return

return:                                           ; preds = %if.end, %if.then
  %26 = load ptr, ptr %retval, align 8
  ret ptr %26
}

; Function Attrs: mustprogress nounwind uwtable
define linkonce_odr dso_local noundef ptr @_ZN4node5Realm14AddBindingDataINS_8v8_utils11BindingDataEJRPNS3_17InternalFieldInfoEEEEPT_N2v85LocalINS9_6ObjectEEEDpOT0_(ptr noundef nonnull align 8 dereferenceable(872) %this, ptr %target.coerce, ptr noundef nonnull align 8 dereferenceable(8) %args) #4 comdat align 2 {
entry:
  %target = alloca %"class.v8::Local", align 8
  %this.addr = alloca ptr, align 8
  %args.addr = alloca ptr, align 8
  %item = alloca %"class.node::BaseObjectPtrImpl.344", align 8
  %ref.tmp = alloca ptr, align 8
  %binding_index = alloca i64, align 8
  %coerce.dive = getelementptr inbounds %"class.v8::Local", ptr %target, i32 0, i32 0
  %coerce.dive1 = getelementptr inbounds %"class.v8::LocalBase", ptr %coerce.dive, i32 0, i32 0
  %coerce.dive2 = getelementptr inbounds %"class.v8::IndirectHandleBase", ptr %coerce.dive1, i32 0, i32 0
  store ptr %target.coerce, ptr %coerce.dive2, align 8
  store ptr %this, ptr %this.addr, align 8
  store ptr %args, ptr %args.addr, align 8
  %this3 = load ptr, ptr %this.addr, align 8
  store ptr %this3, ptr %ref.tmp, align 8
  %0 = load ptr, ptr %args.addr, align 8
  call void @_ZN4node18MakeWeakBaseObjectINS_8v8_utils11BindingDataEJPNS_5RealmERN2v85LocalINS5_6ObjectEEERPNS2_17InternalFieldInfoEEEENS_17BaseObjectPtrImplIT_Lb1EEEDpOT0_(ptr sret(%"class.node::BaseObjectPtrImpl.344") align 8 %item, ptr noundef nonnull align 8 dereferenceable(8) %ref.tmp, ptr noundef nonnull align 8 dereferenceable(8) %target, ptr noundef nonnull align 8 dereferenceable(8) %0)
  store i64 3, ptr %binding_index, align 8
  br label %do.body

do.body:                                          ; preds = %entry
  %binding_data_store_ = getelementptr inbounds %"class.node::Realm", ptr %this3, i32 0, i32 72
  %call = call noundef nonnull align 8 dereferenceable(8) ptr @_ZNSt5arrayIN4node17BaseObjectPtrImplINS0_10BaseObjectELb1EEELm12EEixEm(ptr noundef nonnull align 8 dereferenceable(96) %binding_data_store_, i64 noundef 3) #3
  %call4 = call noundef zeroext i1 @_ZNK4node17BaseObjectPtrImplINS_10BaseObjectELb1EEcvbEv(ptr noundef nonnull align 8 dereferenceable(8) %call)
  %lnot = xor i1 %call4, true
  %lnot5 = xor i1 %lnot, true
  %lnot6 = xor i1 %lnot5, true
  %lnot7 = xor i1 %lnot6, true
  br i1 %lnot7, label %if.then, label %if.end

if.then:                                          ; preds = %do.body
  br label %do.body8

do.body8:                                         ; preds = %if.then
  call void @_ZN4node6AssertERKNS_13AssertionInfoE(ptr noundef nonnull align 8 dereferenceable(24) @_ZZN4node5Realm14AddBindingDataINS_8v8_utils11BindingDataEJRPNS3_17InternalFieldInfoEEEEPT_N2v85LocalINS9_6ObjectEEEDpOT0_E4args)
  call void @abort() #13
  unreachable

do.cond:                                          ; No predecessors!
  br label %do.end

do.end:                                           ; preds = %do.cond
  br label %if.end

if.end:                                           ; preds = %do.end, %do.body
  br label %do.cond9

do.cond9:                                         ; preds = %if.end
  br label %do.end10

do.end10:                                         ; preds = %do.cond9
  %binding_data_store_11 = getelementptr inbounds %"class.node::Realm", ptr %this3, i32 0, i32 72
  %call12 = call noundef nonnull align 8 dereferenceable(8) ptr @_ZNSt5arrayIN4node17BaseObjectPtrImplINS0_10BaseObjectELb1EEELm12EEixEm(ptr noundef nonnull align 8 dereferenceable(96) %binding_data_store_11, i64 noundef 3) #3
  %call13 = call noundef nonnull align 8 dereferenceable(8) ptr @_ZN4node17BaseObjectPtrImplINS_10BaseObjectELb1EEaSINS_8v8_utils11BindingDataELb1EEERS2_RKNS0_IT_XT0_EEE(ptr noundef nonnull align 8 dereferenceable(8) %call12, ptr noundef nonnull align 8 dereferenceable(8) %item)
  %call14 = call noundef ptr @_ZNK4node17BaseObjectPtrImplINS_8v8_utils11BindingDataELb1EE3getEv(ptr noundef nonnull align 8 dereferenceable(8) %item)
  call void @_ZN4node17BaseObjectPtrImplINS_8v8_utils11BindingDataELb1EED2Ev(ptr noundef nonnull align 8 dereferenceable(8) %item) #3
  ret ptr %call14
}

declare void @_ZN4node6AssertERKNS_13AssertionInfoE(ptr noundef nonnull align 8 dereferenceable(24)) #1

; Function Attrs: noreturn nounwind
declare void @abort() #6

; Function Attrs: nounwind
declare void @_ZN2v811HandleScopeD1Ev(ptr noundef nonnull align 8 dereferenceable(24)) unnamed_addr #2

; Function Attrs: mustprogress nounwind uwtable
define dso_local noundef ptr @_ZN4node8v8_utils11BindingData9SerializeEi(ptr noundef nonnull align 8 dereferenceable(216) %this, i32 noundef %index) unnamed_addr #4 align 2 {
entry:
  %this.addr = alloca ptr, align 8
  %index.addr = alloca i32, align 4
  %info = alloca ptr, align 8
  store ptr %this, ptr %this.addr, align 8
  store i32 %index, ptr %index.addr, align 4
  %this1 = load ptr, ptr %this.addr, align 8
  %internal_field_info_ = getelementptr inbounds %"class.node::v8_utils::BindingData", ptr %this1, i32 0, i32 4
  %0 = load ptr, ptr %internal_field_info_, align 8
  store ptr %0, ptr %info, align 8
  %internal_field_info_2 = getelementptr inbounds %"class.node::v8_utils::BindingData", ptr %this1, i32 0, i32 4
  store ptr null, ptr %internal_field_info_2, align 8
  %1 = load ptr, ptr %info, align 8
  ret ptr %1
}

; Function Attrs: mustprogress nounwind uwtable
define dso_local void @_ZNK4node8v8_utils11BindingData10MemoryInfoEPNS_13MemoryTrackerE(ptr noundef nonnull align 8 dereferenceable(216) %this, ptr noundef %tracker) unnamed_addr #4 align 2 {
entry:
  %this.addr = alloca ptr, align 8
  %tracker.addr = alloca ptr, align 8
  store ptr %this, ptr %this.addr, align 8
  store ptr %tracker, ptr %tracker.addr, align 8
  %this1 = load ptr, ptr %this.addr, align 8
  %0 = load ptr, ptr %tracker.addr, align 8
  %heap_statistics_buffer = getelementptr inbounds %"class.node::v8_utils::BindingData", ptr %this1, i32 0, i32 1
  call void @_ZN4node13MemoryTracker10TrackFieldEPKcRKNS_14MemoryRetainerES2_(ptr noundef nonnull align 8 dereferenceable(152) %0, ptr noundef @.str.6, ptr noundef nonnull align 8 dereferenceable(8) %heap_statistics_buffer, ptr noundef null)
  %1 = load ptr, ptr %tracker.addr, align 8
  %heap_space_statistics_buffer = getelementptr inbounds %"class.node::v8_utils::BindingData", ptr %this1, i32 0, i32 2
  call void @_ZN4node13MemoryTracker10TrackFieldEPKcRKNS_14MemoryRetainerES2_(ptr noundef nonnull align 8 dereferenceable(152) %1, ptr noundef @.str.7, ptr noundef nonnull align 8 dereferenceable(8) %heap_space_statistics_buffer, ptr noundef null)
  %2 = load ptr, ptr %tracker.addr, align 8
  %heap_code_statistics_buffer = getelementptr inbounds %"class.node::v8_utils::BindingData", ptr %this1, i32 0, i32 3
  call void @_ZN4node13MemoryTracker10TrackFieldEPKcRKNS_14MemoryRetainerES2_(ptr noundef nonnull align 8 dereferenceable(152) %2, ptr noundef @.str.8, ptr noundef nonnull align 8 dereferenceable(8) %heap_code_statistics_buffer, ptr noundef null)
  ret void
}

; Function Attrs: mustprogress nounwind uwtable
define linkonce_odr dso_local void @_ZN4node13MemoryTracker10TrackFieldEPKcRKNS_14MemoryRetainerES2_(ptr noundef nonnull align 8 dereferenceable(152) %this, ptr noundef %edge_name, ptr noundef nonnull align 8 dereferenceable(8) %value, ptr noundef %node_name) #4 comdat align 2 {
entry:
  %this.addr = alloca ptr, align 8
  %edge_name.addr = alloca ptr, align 8
  %value.addr = alloca ptr, align 8
  %node_name.addr = alloca ptr, align 8
  store ptr %this, ptr %this.addr, align 8
  store ptr %edge_name, ptr %edge_name.addr, align 8
  store ptr %value, ptr %value.addr, align 8
  store ptr %node_name, ptr %node_name.addr, align 8
  %this1 = load ptr, ptr %this.addr, align 8
  %0 = load ptr, ptr %edge_name.addr, align 8
  %1 = load ptr, ptr %value.addr, align 8
  call void @_ZN4node13MemoryTracker10TrackFieldEPKcPKNS_14MemoryRetainerES2_(ptr noundef nonnull align 8 dereferenceable(152) %this1, ptr noundef %0, ptr noundef %1, ptr noundef null)
  ret void
}

; Function Attrs: mustprogress nounwind uwtable
define dso_local void @_ZN4node8v8_utils20CachedDataVersionTagERKN2v820FunctionCallbackInfoINS1_5ValueEEE(ptr noundef nonnull align 8 dereferenceable(20) %args) #4 {
entry:
  %this.addr.i20 = alloca ptr, align 8
  %isolate.addr.i.i = alloca ptr, align 8
  %index.addr.i.i = alloca i32, align 4
  %addr.i.i = alloca i64, align 8
  %isolate.addr.i = alloca ptr, align 8
  %index.addr.i = alloca i32, align 4
  %this.addr.i18 = alloca ptr, align 8
  %this.addr.i16 = alloca ptr, align 8
  %this.addr.i14 = alloca ptr, align 8
  %slot.addr.i = alloca ptr, align 8
  %this.addr.i12 = alloca ptr, align 8
  %handle.i = alloca %"class.v8::Local.49", align 8
  %this.addr.i11 = alloca ptr, align 8
  %retval.i = alloca %"class.v8::ReturnValue", align 8
  %this.addr.i = alloca ptr, align 8
  %args.addr = alloca ptr, align 8
  %env = alloca ptr, align 8
  %result = alloca %"class.v8::Local.49", align 8
  %ref.tmp = alloca %"class.v8::ReturnValue", align 8
  %agg.tmp = alloca %"class.v8::Local.49", align 8
  store ptr %args, ptr %args.addr, align 8
  %0 = load ptr, ptr %args.addr, align 8
  %call = call noundef ptr @_ZN4node11Environment10GetCurrentERKN2v820FunctionCallbackInfoINS1_5ValueEEE(ptr noundef nonnull align 8 dereferenceable(20) %0)
  store ptr %call, ptr %env, align 8
  %1 = load ptr, ptr %env, align 8
  %call1 = call noundef ptr @_ZNK4node11Environment7isolateEv(ptr noundef nonnull align 8 dereferenceable(2872) %1)
  %call2 = call noundef i32 @_ZN2v814ScriptCompiler20CachedDataVersionTagEv()
  %call3 = call ptr @_ZN2v87Integer15NewFromUnsignedEPNS_7IsolateEj(ptr noundef %call1, i32 noundef %call2)
  %coerce.dive = getelementptr inbounds %"class.v8::Local.49", ptr %result, i32 0, i32 0
  %coerce.dive4 = getelementptr inbounds %"class.v8::LocalBase.50", ptr %coerce.dive, i32 0, i32 0
  %coerce.dive5 = getelementptr inbounds %"class.v8::IndirectHandleBase", ptr %coerce.dive4, i32 0, i32 0
  store ptr %call3, ptr %coerce.dive5, align 8
  %2 = load ptr, ptr %args.addr, align 8
  store ptr %2, ptr %this.addr.i, align 8
  %this1.i = load ptr, ptr %this.addr.i, align 8
  %3 = load ptr, ptr %this1.i, align 8
  %arrayidx.i = getelementptr inbounds i64, ptr %3, i64 3
  store ptr %retval.i, ptr %this.addr.i14, align 8
  store ptr %arrayidx.i, ptr %slot.addr.i, align 8
  %this1.i15 = load ptr, ptr %this.addr.i14, align 8
  %4 = load ptr, ptr %slot.addr.i, align 8
  store ptr %4, ptr %this1.i15, align 8
  %5 = load ptr, ptr %retval.i, align 8
  %coerce.dive7 = getelementptr inbounds %"class.v8::ReturnValue", ptr %ref.tmp, i32 0, i32 0
  store ptr %5, ptr %coerce.dive7, align 8
  call void @llvm.memcpy.p0.p0.i64(ptr align 8 %agg.tmp, ptr align 8 %result, i64 8, i1 false)
  %coerce.dive8 = getelementptr inbounds %"class.v8::Local.49", ptr %agg.tmp, i32 0, i32 0
  %coerce.dive9 = getelementptr inbounds %"class.v8::LocalBase.50", ptr %coerce.dive8, i32 0, i32 0
  %coerce.dive10 = getelementptr inbounds %"class.v8::IndirectHandleBase", ptr %coerce.dive9, i32 0, i32 0
  %6 = load ptr, ptr %coerce.dive10, align 8
  store ptr %6, ptr %handle.i, align 8
  store ptr %ref.tmp, ptr %this.addr.i11, align 8
  %this3.i = load ptr, ptr %this.addr.i11, align 8
  store ptr %handle.i, ptr %this.addr.i12, align 8
  %this1.i13 = load ptr, ptr %this.addr.i12, align 8
  %7 = load ptr, ptr %this1.i13, align 8
  %cmp.i = icmp eq ptr %7, null
  br i1 %cmp.i, label %if.then.i, label %if.else.i

if.then.i:                                        ; preds = %entry
  store ptr %this3.i, ptr %this.addr.i16, align 8
  %this1.i17 = load ptr, ptr %this.addr.i16, align 8
  store ptr %this1.i17, ptr %this.addr.i20, align 8
  %this1.i21 = load ptr, ptr %this.addr.i20, align 8
  %8 = load ptr, ptr %this1.i21, align 8
  %arrayidx.i22 = getelementptr inbounds i64, ptr %8, i64 -2
  %9 = load ptr, ptr %arrayidx.i22, align 8
  store ptr %9, ptr %isolate.addr.i, align 8
  store i32 5, ptr %index.addr.i, align 4
  %10 = load ptr, ptr %isolate.addr.i, align 8
  %11 = load i32, ptr %index.addr.i, align 4
  store ptr %10, ptr %isolate.addr.i.i, align 8
  store i32 %11, ptr %index.addr.i.i, align 4
  %12 = load ptr, ptr %isolate.addr.i.i, align 8
  %13 = ptrtoint ptr %12 to i64
  %add.i.i = add i64 %13, 576
  %14 = load i32, ptr %index.addr.i.i, align 4
  %mul.i.i = mul nsw i32 %14, 8
  %conv.i.i = sext i32 %mul.i.i to i64
  %add1.i.i = add i64 %add.i.i, %conv.i.i
  store i64 %add1.i.i, ptr %addr.i.i, align 8
  %15 = load i64, ptr %addr.i.i, align 8
  %16 = inttoptr i64 %15 to ptr
  %17 = load i64, ptr %16, align 8
  %18 = load ptr, ptr %this3.i, align 8
  store i64 %17, ptr %18, align 8
  br label %_ZN2v811ReturnValueINS_5ValueEE3SetINS_7IntegerEEEvNS_5LocalIT_EE.exit

if.else.i:                                        ; preds = %entry
  store ptr %handle.i, ptr %this.addr.i18, align 8
  %this1.i19 = load ptr, ptr %this.addr.i18, align 8
  %19 = load ptr, ptr %this1.i19, align 8
  %20 = load i64, ptr %19, align 8
  %21 = load ptr, ptr %this3.i, align 8
  store i64 %20, ptr %21, align 8
  br label %_ZN2v811ReturnValueINS_5ValueEE3SetINS_7IntegerEEEvNS_5LocalIT_EE.exit

_ZN2v811ReturnValueINS_5ValueEE3SetINS_7IntegerEEEvNS_5LocalIT_EE.exit: ; preds = %if.else.i, %if.then.i
  ret void
}

; Function Attrs: mustprogress nounwind uwtable
define linkonce_odr dso_local noundef ptr @_ZN4node11Environment10GetCurrentERKN2v820FunctionCallbackInfoINS1_5ValueEEE(ptr noundef nonnull align 8 dereferenceable(20) %info) #4 comdat align 2 {
entry:
  %this.addr.i = alloca ptr, align 8
  %info.addr = alloca ptr, align 8
  %agg.tmp = alloca %"class.v8::Local.22", align 8
  store ptr %info, ptr %info.addr, align 8
  %0 = load ptr, ptr %info.addr, align 8
  store ptr %0, ptr %this.addr.i, align 8
  %this1.i = load ptr, ptr %this.addr.i, align 8
  %1 = load ptr, ptr %this1.i, align 8
  %arrayidx.i = getelementptr inbounds i64, ptr %1, i64 1
  %2 = load ptr, ptr %arrayidx.i, align 8
  %call1 = call ptr @_ZN2v87Isolate17GetCurrentContextEv(ptr noundef nonnull align 1 dereferenceable(1) %2)
  %coerce.dive = getelementptr inbounds %"class.v8::Local.22", ptr %agg.tmp, i32 0, i32 0
  %coerce.dive2 = getelementptr inbounds %"class.v8::LocalBase.23", ptr %coerce.dive, i32 0, i32 0
  %coerce.dive3 = getelementptr inbounds %"class.v8::IndirectHandleBase", ptr %coerce.dive2, i32 0, i32 0
  store ptr %call1, ptr %coerce.dive3, align 8
  %coerce.dive4 = getelementptr inbounds %"class.v8::Local.22", ptr %agg.tmp, i32 0, i32 0
  %coerce.dive5 = getelementptr inbounds %"class.v8::LocalBase.23", ptr %coerce.dive4, i32 0, i32 0
  %coerce.dive6 = getelementptr inbounds %"class.v8::IndirectHandleBase", ptr %coerce.dive5, i32 0, i32 0
  %3 = load ptr, ptr %coerce.dive6, align 8
  %call7 = call noundef ptr @_ZN4node11Environment10GetCurrentEN2v85LocalINS1_7ContextEEE(ptr %3)
  ret ptr %call7
}

declare ptr @_ZN2v87Integer15NewFromUnsignedEPNS_7IsolateEj(ptr noundef, i32 noundef) #1

; Function Attrs: mustprogress nounwind uwtable
define linkonce_odr dso_local noundef ptr @_ZNK4node11Environment7isolateEv(ptr noundef nonnull align 8 dereferenceable(2872) %this) #4 comdat align 2 {
entry:
  %this.addr = alloca ptr, align 8
  store ptr %this, ptr %this.addr, align 8
  %this1 = load ptr, ptr %this.addr, align 8
  %isolate_ = getelementptr inbounds %"class.node::Environment", ptr %this1, i32 0, i32 3
  %0 = load ptr, ptr %isolate_, align 8
  ret ptr %0
}

declare noundef i32 @_ZN2v814ScriptCompiler20CachedDataVersionTagEv() #1

; Function Attrs: mustprogress nounwind uwtable
define dso_local void @_ZN4node8v8_utils28SetHeapSnapshotNearHeapLimitERKN2v820FunctionCallbackInfoINS1_5ValueEEE(ptr noundef nonnull align 8 dereferenceable(20) %args) #4 {
entry:
  %slot.addr.i161 = alloca ptr, align 8
  %this.addr.i.i157 = alloca ptr, align 8
  %this.addr.i158 = alloca ptr, align 8
  %this.addr.i154 = alloca ptr, align 8
  %other.addr.i155 = alloca ptr, align 8
  %this.addr.i151 = alloca ptr, align 8
  %other.addr.i152 = alloca ptr, align 8
  %retval.i148 = alloca %"class.v8::Local.302", align 8
  %that.i149 = alloca %"class.v8::Local.24", align 8
  %ref.tmp.i150 = alloca %"class.v8::LocalBase.303", align 8
  %slot.addr.i147 = alloca ptr, align 8
  %this.addr.i.i143 = alloca ptr, align 8
  %this.addr.i144 = alloca ptr, align 8
  %this.addr.i.i137 = alloca ptr, align 8
  %location.addr.i.i138 = alloca ptr, align 8
  %this.addr.i139 = alloca ptr, align 8
  %location.addr.i140 = alloca ptr, align 8
  %this.addr.i.i131 = alloca ptr, align 8
  %location.addr.i.i132 = alloca ptr, align 8
  %this.addr.i133 = alloca ptr, align 8
  %location.addr.i134 = alloca ptr, align 8
  %this.addr.i128 = alloca ptr, align 8
  %other.addr.i129 = alloca ptr, align 8
  %this.addr.i125 = alloca ptr, align 8
  %other.addr.i126 = alloca ptr, align 8
  %retval.i123 = alloca %"class.v8::LocalBase.25", align 8
  %slot.addr.i124 = alloca ptr, align 8
  %retval.i121 = alloca %"class.v8::LocalBase.25", align 8
  %slot.addr.i122 = alloca ptr, align 8
  %this.addr.i118 = alloca ptr, align 8
  %other.addr.i119 = alloca ptr, align 8
  %this.addr.i115 = alloca ptr, align 8
  %other.addr.i116 = alloca ptr, align 8
  %this.addr.i.i109 = alloca ptr, align 8
  %location.addr.i.i110 = alloca ptr, align 8
  %this.addr.i111 = alloca ptr, align 8
  %location.addr.i112 = alloca ptr, align 8
  %this.addr.i.i = alloca ptr, align 8
  %location.addr.i.i = alloca ptr, align 8
  %this.addr.i107 = alloca ptr, align 8
  %location.addr.i = alloca ptr, align 8
  %this.addr.i104 = alloca ptr, align 8
  %other.addr.i105 = alloca ptr, align 8
  %this.addr.i102 = alloca ptr, align 8
  %other.addr.i = alloca ptr, align 8
  %retval.i100 = alloca %"class.v8::LocalBase.340", align 8
  %slot.addr.i101 = alloca ptr, align 8
  %retval.i98 = alloca %"class.v8::LocalBase.340", align 8
  %slot.addr.i99 = alloca ptr, align 8
  %retval.i94 = alloca %"class.v8::Local.339", align 8
  %slot.addr.i95 = alloca ptr, align 8
  %ref.tmp.i96 = alloca %"class.v8::LocalBase.340", align 8
  %retval.i91 = alloca %"class.v8::Local.339", align 8
  %slot.addr.i92 = alloca ptr, align 8
  %ref.tmp.i93 = alloca %"class.v8::LocalBase.340", align 8
  %isolate.addr.i84 = alloca ptr, align 8
  %index.addr.i85 = alloca i32, align 4
  %addr.i86 = alloca i64, align 8
  %isolate.addr.i83 = alloca ptr, align 8
  %index.addr.i = alloca i32, align 4
  %addr.i = alloca i64, align 8
  %isolate.addr.i82 = alloca ptr, align 8
  %isolate.addr.i81 = alloca ptr, align 8
  %retval.i77 = alloca %"class.v8::Local.24", align 8
  %slot.addr.i78 = alloca ptr, align 8
  %ref.tmp.i79 = alloca %"class.v8::LocalBase.25", align 8
  %retval.i75 = alloca %"class.v8::Local.24", align 8
  %slot.addr.i = alloca ptr, align 8
  %ref.tmp.i = alloca %"class.v8::LocalBase.25", align 8
  %that.i72 = alloca %"class.v8::Local.339", align 8
  %this.addr.i73 = alloca ptr, align 8
  %that.i = alloca %"class.v8::Local.339", align 8
  %this.addr.i71 = alloca ptr, align 8
  %retval.i66 = alloca %"class.v8::Local.339", align 8
  %isolate.addr.i67 = alloca ptr, align 8
  %slot.i68 = alloca ptr, align 8
  %retval.i65 = alloca %"class.v8::Local.339", align 8
  %isolate.addr.i = alloca ptr, align 8
  %slot.i = alloca ptr, align 8
  %this.addr.i62 = alloca ptr, align 8
  %this.addr.i60 = alloca ptr, align 8
  %this.addr.i57 = alloca ptr, align 8
  %retval.i52 = alloca %"class.v8::Local.302", align 8
  %this.addr.i53 = alloca ptr, align 8
  %agg.tmp.i54 = alloca %"class.v8::Local.24", align 8
  %this.addr.i49 = alloca ptr, align 8
  %retval.i31 = alloca %"class.v8::Local.24", align 8
  %this.addr.i32 = alloca ptr, align 8
  %i.addr.i33 = alloca i32, align 4
  %agg.tmp.i34 = alloca %"class.v8::Local.339", align 8
  %retval.i = alloca %"class.v8::Local.24", align 8
  %this.addr.i = alloca ptr, align 8
  %i.addr.i = alloca i32, align 4
  %agg.tmp.i = alloca %"class.v8::Local.339", align 8
  %args.addr = alloca ptr, align 8
  %ref.tmp = alloca %"class.v8::Local.24", align 8
  %env = alloca ptr, align 8
  %limit = alloca i32, align 4
  %ref.tmp10 = alloca %"class.v8::Local.302", align 8
  %ref.tmp11 = alloca %"class.v8::Local.24", align 8
  store ptr %args, ptr %args.addr, align 8
  br label %do.body

do.body:                                          ; preds = %entry
  %0 = load ptr, ptr %args.addr, align 8
  store ptr %0, ptr %this.addr.i32, align 8
  store i32 0, ptr %i.addr.i33, align 4
  %this1.i35 = load ptr, ptr %this.addr.i32, align 8
  %1 = load i32, ptr %i.addr.i33, align 4
  %cmp.i36 = icmp slt i32 %1, 0
  br i1 %cmp.i36, label %if.then.i45, label %lor.lhs.false.i37

lor.lhs.false.i37:                                ; preds = %do.body
  %length_.i38 = getelementptr inbounds %"class.v8::FunctionCallbackInfo", ptr %this1.i35, i32 0, i32 2
  %2 = load i32, ptr %length_.i38, align 8
  %3 = load i32, ptr %i.addr.i33, align 4
  %cmp2.i39 = icmp sle i32 %2, %3
  br i1 %cmp2.i39, label %if.then.i45, label %if.end.i40

if.then.i45:                                      ; preds = %lor.lhs.false.i37, %do.body
  store ptr %this1.i35, ptr %this.addr.i60, align 8
  %this1.i61 = load ptr, ptr %this.addr.i60, align 8
  %4 = load ptr, ptr %this1.i61, align 8
  %arrayidx.i = getelementptr inbounds i64, ptr %4, i64 1
  %5 = load ptr, ptr %arrayidx.i, align 8
  store ptr %5, ptr %isolate.addr.i, align 8
  %6 = load ptr, ptr %isolate.addr.i, align 8
  store ptr %6, ptr %isolate.addr.i82, align 8
  %7 = load ptr, ptr %isolate.addr.i, align 8
  store ptr %7, ptr %isolate.addr.i84, align 8
  store i32 4, ptr %index.addr.i85, align 4
  %8 = load ptr, ptr %isolate.addr.i84, align 8
  %9 = ptrtoint ptr %8 to i64
  %add.i87 = add i64 %9, 576
  %10 = load i32, ptr %index.addr.i85, align 4
  %mul.i88 = mul nsw i32 %10, 8
  %conv.i89 = sext i32 %mul.i88 to i64
  %add1.i90 = add i64 %add.i87, %conv.i89
  store i64 %add1.i90, ptr %addr.i86, align 8
  %11 = load i64, ptr %addr.i86, align 8
  %12 = inttoptr i64 %11 to ptr
  store ptr %12, ptr %slot.i, align 8
  %13 = load ptr, ptr %slot.i, align 8
  store ptr %13, ptr %slot.addr.i95, align 8
  %14 = load ptr, ptr %slot.addr.i95, align 8
  store ptr %14, ptr %slot.addr.i99, align 8
  %15 = load ptr, ptr %slot.addr.i99, align 8
  store ptr %retval.i98, ptr %this.addr.i111, align 8
  store ptr %15, ptr %location.addr.i112, align 8
  %this1.i113 = load ptr, ptr %this.addr.i111, align 8
  %16 = load ptr, ptr %location.addr.i112, align 8
  store ptr %this1.i113, ptr %this.addr.i.i109, align 8
  store ptr %16, ptr %location.addr.i.i110, align 8
  %this1.i.i114 = load ptr, ptr %this.addr.i.i109, align 8
  %17 = load ptr, ptr %location.addr.i.i110, align 8
  store ptr %17, ptr %this1.i.i114, align 8
  %18 = load ptr, ptr %retval.i98, align 8
  store ptr %18, ptr %ref.tmp.i96, align 8
  store ptr %retval.i94, ptr %this.addr.i102, align 8
  store ptr %ref.tmp.i96, ptr %other.addr.i, align 8
  %this1.i103 = load ptr, ptr %this.addr.i102, align 8
  %19 = load ptr, ptr %other.addr.i, align 8
  call void @llvm.memcpy.p0.p0.i64(ptr align 8 %this1.i103, ptr align 8 %19, i64 8, i1 false)
  %20 = load ptr, ptr %retval.i94, align 8
  store ptr %20, ptr %retval.i65, align 8
  %21 = load ptr, ptr %retval.i65, align 8
  store ptr %21, ptr %agg.tmp.i34, align 8
  %22 = load ptr, ptr %agg.tmp.i34, align 8
  store ptr %22, ptr %that.i, align 8
  store ptr %retval.i31, ptr %this.addr.i71, align 8
  %this3.i = load ptr, ptr %this.addr.i71, align 8
  store ptr %this3.i, ptr %this.addr.i118, align 8
  store ptr %that.i, ptr %other.addr.i119, align 8
  %this1.i120 = load ptr, ptr %this.addr.i118, align 8
  %23 = load ptr, ptr %other.addr.i119, align 8
  call void @llvm.memcpy.p0.p0.i64(ptr align 8 %this1.i120, ptr align 8 %23, i64 8, i1 false)
  br label %_ZNK2v820FunctionCallbackInfoINS_5ValueEEixEi.exit48

if.end.i40:                                       ; preds = %lor.lhs.false.i37
  %values_.i41 = getelementptr inbounds %"class.v8::FunctionCallbackInfo", ptr %this1.i35, i32 0, i32 1
  %24 = load ptr, ptr %values_.i41, align 8
  %25 = load i32, ptr %i.addr.i33, align 4
  %idx.ext.i42 = sext i32 %25 to i64
  %add.ptr.i43 = getelementptr inbounds i64, ptr %24, i64 %idx.ext.i42
  store ptr %add.ptr.i43, ptr %slot.addr.i, align 8
  %26 = load ptr, ptr %slot.addr.i, align 8
  store ptr %26, ptr %slot.addr.i124, align 8
  %27 = load ptr, ptr %slot.addr.i124, align 8
  store ptr %retval.i123, ptr %this.addr.i133, align 8
  store ptr %27, ptr %location.addr.i134, align 8
  %this1.i135 = load ptr, ptr %this.addr.i133, align 8
  %28 = load ptr, ptr %location.addr.i134, align 8
  store ptr %this1.i135, ptr %this.addr.i.i131, align 8
  store ptr %28, ptr %location.addr.i.i132, align 8
  %this1.i.i136 = load ptr, ptr %this.addr.i.i131, align 8
  %29 = load ptr, ptr %location.addr.i.i132, align 8
  store ptr %29, ptr %this1.i.i136, align 8
  %30 = load ptr, ptr %retval.i123, align 8
  store ptr %30, ptr %ref.tmp.i, align 8
  store ptr %retval.i75, ptr %this.addr.i128, align 8
  store ptr %ref.tmp.i, ptr %other.addr.i129, align 8
  %this1.i130 = load ptr, ptr %this.addr.i128, align 8
  %31 = load ptr, ptr %other.addr.i129, align 8
  call void @llvm.memcpy.p0.p0.i64(ptr align 8 %this1.i130, ptr align 8 %31, i64 8, i1 false)
  %32 = load ptr, ptr %retval.i75, align 8
  store ptr %32, ptr %retval.i31, align 8
  br label %_ZNK2v820FunctionCallbackInfoINS_5ValueEEixEi.exit48

_ZNK2v820FunctionCallbackInfoINS_5ValueEEixEi.exit48: ; preds = %if.end.i40, %if.then.i45
  %33 = load ptr, ptr %retval.i31, align 8
  %coerce.dive = getelementptr inbounds %"class.v8::Local.24", ptr %ref.tmp, i32 0, i32 0
  %coerce.dive1 = getelementptr inbounds %"class.v8::LocalBase.25", ptr %coerce.dive, i32 0, i32 0
  %coerce.dive2 = getelementptr inbounds %"class.v8::IndirectHandleBase", ptr %coerce.dive1, i32 0, i32 0
  store ptr %33, ptr %coerce.dive2, align 8
  store ptr %ref.tmp, ptr %this.addr.i49, align 8
  %this1.i50 = load ptr, ptr %this.addr.i49, align 8
  store ptr %this1.i50, ptr %this.addr.i144, align 8
  %this1.i145 = load ptr, ptr %this.addr.i144, align 8
  store ptr %this1.i145, ptr %this.addr.i.i143, align 8
  %this1.i.i146 = load ptr, ptr %this.addr.i.i143, align 8
  %34 = load ptr, ptr %this1.i.i146, align 8
  store ptr %34, ptr %slot.addr.i147, align 8
  %35 = load ptr, ptr %slot.addr.i147, align 8
  %call4 = call noundef zeroext i1 @_ZNK2v85Value8IsUint32Ev(ptr noundef nonnull align 1 dereferenceable(1) %35)
  %lnot = xor i1 %call4, true
  %lnot5 = xor i1 %lnot, true
  %lnot6 = xor i1 %lnot5, true
  br i1 %lnot6, label %if.then, label %if.end

if.then:                                          ; preds = %_ZNK2v820FunctionCallbackInfoINS_5ValueEEixEi.exit48
  br label %do.body7

do.body7:                                         ; preds = %if.then
  call void @_ZN4node6AssertERKNS_13AssertionInfoE(ptr noundef nonnull align 8 dereferenceable(24) @_ZZN4node8v8_utils28SetHeapSnapshotNearHeapLimitERKN2v820FunctionCallbackInfoINS1_5ValueEEEE4args)
  call void @abort() #13
  unreachable

do.end:                                           ; No predecessors!
  br label %if.end

if.end:                                           ; preds = %do.end, %_ZNK2v820FunctionCallbackInfoINS_5ValueEEixEi.exit48
  br label %do.end8

do.end8:                                          ; preds = %if.end
  %36 = load ptr, ptr %args.addr, align 8
  %call9 = call noundef ptr @_ZN4node11Environment10GetCurrentERKN2v820FunctionCallbackInfoINS1_5ValueEEE(ptr noundef nonnull align 8 dereferenceable(20) %36)
  store ptr %call9, ptr %env, align 8
  %37 = load ptr, ptr %args.addr, align 8
  store ptr %37, ptr %this.addr.i, align 8
  store i32 0, ptr %i.addr.i, align 4
  %this1.i = load ptr, ptr %this.addr.i, align 8
  %38 = load i32, ptr %i.addr.i, align 4
  %cmp.i = icmp slt i32 %38, 0
  br i1 %cmp.i, label %if.then.i, label %lor.lhs.false.i

lor.lhs.false.i:                                  ; preds = %do.end8
  %length_.i = getelementptr inbounds %"class.v8::FunctionCallbackInfo", ptr %this1.i, i32 0, i32 2
  %39 = load i32, ptr %length_.i, align 8
  %40 = load i32, ptr %i.addr.i, align 4
  %cmp2.i = icmp sle i32 %39, %40
  br i1 %cmp2.i, label %if.then.i, label %if.end.i

if.then.i:                                        ; preds = %lor.lhs.false.i, %do.end8
  store ptr %this1.i, ptr %this.addr.i62, align 8
  %this1.i63 = load ptr, ptr %this.addr.i62, align 8
  %41 = load ptr, ptr %this1.i63, align 8
  %arrayidx.i64 = getelementptr inbounds i64, ptr %41, i64 1
  %42 = load ptr, ptr %arrayidx.i64, align 8
  store ptr %42, ptr %isolate.addr.i67, align 8
  %43 = load ptr, ptr %isolate.addr.i67, align 8
  store ptr %43, ptr %isolate.addr.i81, align 8
  %44 = load ptr, ptr %isolate.addr.i67, align 8
  store ptr %44, ptr %isolate.addr.i83, align 8
  store i32 4, ptr %index.addr.i, align 4
  %45 = load ptr, ptr %isolate.addr.i83, align 8
  %46 = ptrtoint ptr %45 to i64
  %add.i = add i64 %46, 576
  %47 = load i32, ptr %index.addr.i, align 4
  %mul.i = mul nsw i32 %47, 8
  %conv.i = sext i32 %mul.i to i64
  %add1.i = add i64 %add.i, %conv.i
  store i64 %add1.i, ptr %addr.i, align 8
  %48 = load i64, ptr %addr.i, align 8
  %49 = inttoptr i64 %48 to ptr
  store ptr %49, ptr %slot.i68, align 8
  %50 = load ptr, ptr %slot.i68, align 8
  store ptr %50, ptr %slot.addr.i92, align 8
  %51 = load ptr, ptr %slot.addr.i92, align 8
  store ptr %51, ptr %slot.addr.i101, align 8
  %52 = load ptr, ptr %slot.addr.i101, align 8
  store ptr %retval.i100, ptr %this.addr.i107, align 8
  store ptr %52, ptr %location.addr.i, align 8
  %this1.i108 = load ptr, ptr %this.addr.i107, align 8
  %53 = load ptr, ptr %location.addr.i, align 8
  store ptr %this1.i108, ptr %this.addr.i.i, align 8
  store ptr %53, ptr %location.addr.i.i, align 8
  %this1.i.i = load ptr, ptr %this.addr.i.i, align 8
  %54 = load ptr, ptr %location.addr.i.i, align 8
  store ptr %54, ptr %this1.i.i, align 8
  %55 = load ptr, ptr %retval.i100, align 8
  store ptr %55, ptr %ref.tmp.i93, align 8
  store ptr %retval.i91, ptr %this.addr.i104, align 8
  store ptr %ref.tmp.i93, ptr %other.addr.i105, align 8
  %this1.i106 = load ptr, ptr %this.addr.i104, align 8
  %56 = load ptr, ptr %other.addr.i105, align 8
  call void @llvm.memcpy.p0.p0.i64(ptr align 8 %this1.i106, ptr align 8 %56, i64 8, i1 false)
  %57 = load ptr, ptr %retval.i91, align 8
  store ptr %57, ptr %retval.i66, align 8
  %58 = load ptr, ptr %retval.i66, align 8
  store ptr %58, ptr %agg.tmp.i, align 8
  %59 = load ptr, ptr %agg.tmp.i, align 8
  store ptr %59, ptr %that.i72, align 8
  store ptr %retval.i, ptr %this.addr.i73, align 8
  %this3.i74 = load ptr, ptr %this.addr.i73, align 8
  store ptr %this3.i74, ptr %this.addr.i115, align 8
  store ptr %that.i72, ptr %other.addr.i116, align 8
  %this1.i117 = load ptr, ptr %this.addr.i115, align 8
  %60 = load ptr, ptr %other.addr.i116, align 8
  call void @llvm.memcpy.p0.p0.i64(ptr align 8 %this1.i117, ptr align 8 %60, i64 8, i1 false)
  br label %_ZNK2v820FunctionCallbackInfoINS_5ValueEEixEi.exit

if.end.i:                                         ; preds = %lor.lhs.false.i
  %values_.i = getelementptr inbounds %"class.v8::FunctionCallbackInfo", ptr %this1.i, i32 0, i32 1
  %61 = load ptr, ptr %values_.i, align 8
  %62 = load i32, ptr %i.addr.i, align 4
  %idx.ext.i = sext i32 %62 to i64
  %add.ptr.i = getelementptr inbounds i64, ptr %61, i64 %idx.ext.i
  store ptr %add.ptr.i, ptr %slot.addr.i78, align 8
  %63 = load ptr, ptr %slot.addr.i78, align 8
  store ptr %63, ptr %slot.addr.i122, align 8
  %64 = load ptr, ptr %slot.addr.i122, align 8
  store ptr %retval.i121, ptr %this.addr.i139, align 8
  store ptr %64, ptr %location.addr.i140, align 8
  %this1.i141 = load ptr, ptr %this.addr.i139, align 8
  %65 = load ptr, ptr %location.addr.i140, align 8
  store ptr %this1.i141, ptr %this.addr.i.i137, align 8
  store ptr %65, ptr %location.addr.i.i138, align 8
  %this1.i.i142 = load ptr, ptr %this.addr.i.i137, align 8
  %66 = load ptr, ptr %location.addr.i.i138, align 8
  store ptr %66, ptr %this1.i.i142, align 8
  %67 = load ptr, ptr %retval.i121, align 8
  store ptr %67, ptr %ref.tmp.i79, align 8
  store ptr %retval.i77, ptr %this.addr.i125, align 8
  store ptr %ref.tmp.i79, ptr %other.addr.i126, align 8
  %this1.i127 = load ptr, ptr %this.addr.i125, align 8
  %68 = load ptr, ptr %other.addr.i126, align 8
  call void @llvm.memcpy.p0.p0.i64(ptr align 8 %this1.i127, ptr align 8 %68, i64 8, i1 false)
  %69 = load ptr, ptr %retval.i77, align 8
  store ptr %69, ptr %retval.i, align 8
  br label %_ZNK2v820FunctionCallbackInfoINS_5ValueEEixEi.exit

_ZNK2v820FunctionCallbackInfoINS_5ValueEEixEi.exit: ; preds = %if.end.i, %if.then.i
  %70 = load ptr, ptr %retval.i, align 8
  %coerce.dive13 = getelementptr inbounds %"class.v8::Local.24", ptr %ref.tmp11, i32 0, i32 0
  %coerce.dive14 = getelementptr inbounds %"class.v8::LocalBase.25", ptr %coerce.dive13, i32 0, i32 0
  %coerce.dive15 = getelementptr inbounds %"class.v8::IndirectHandleBase", ptr %coerce.dive14, i32 0, i32 0
  store ptr %70, ptr %coerce.dive15, align 8
  store ptr %ref.tmp11, ptr %this.addr.i53, align 8
  %this1.i55 = load ptr, ptr %this.addr.i53, align 8
  call void @llvm.memcpy.p0.p0.i64(ptr align 8 %agg.tmp.i54, ptr align 8 %this1.i55, i64 8, i1 false)
  %71 = load ptr, ptr %agg.tmp.i54, align 8
  store ptr %71, ptr %that.i149, align 8
  store ptr %ref.tmp.i150, ptr %this.addr.i151, align 8
  store ptr %that.i149, ptr %other.addr.i152, align 8
  %this1.i153 = load ptr, ptr %this.addr.i151, align 8
  %72 = load ptr, ptr %other.addr.i152, align 8
  call void @llvm.memcpy.p0.p0.i64(ptr align 8 %this1.i153, ptr align 8 %72, i64 8, i1 false)
  store ptr %retval.i148, ptr %this.addr.i154, align 8
  store ptr %ref.tmp.i150, ptr %other.addr.i155, align 8
  %this1.i156 = load ptr, ptr %this.addr.i154, align 8
  %73 = load ptr, ptr %other.addr.i155, align 8
  call void @llvm.memcpy.p0.p0.i64(ptr align 8 %this1.i156, ptr align 8 %73, i64 8, i1 false)
  %74 = load ptr, ptr %retval.i148, align 8
  store ptr %74, ptr %retval.i52, align 8
  %75 = load ptr, ptr %retval.i52, align 8
  %coerce.dive17 = getelementptr inbounds %"class.v8::Local.302", ptr %ref.tmp10, i32 0, i32 0
  %coerce.dive18 = getelementptr inbounds %"class.v8::LocalBase.303", ptr %coerce.dive17, i32 0, i32 0
  %coerce.dive19 = getelementptr inbounds %"class.v8::IndirectHandleBase", ptr %coerce.dive18, i32 0, i32 0
  store ptr %75, ptr %coerce.dive19, align 8
  store ptr %ref.tmp10, ptr %this.addr.i57, align 8
  %this1.i58 = load ptr, ptr %this.addr.i57, align 8
  store ptr %this1.i58, ptr %this.addr.i158, align 8
  %this1.i159 = load ptr, ptr %this.addr.i158, align 8
  store ptr %this1.i159, ptr %this.addr.i.i157, align 8
  %this1.i.i160 = load ptr, ptr %this.addr.i.i157, align 8
  %76 = load ptr, ptr %this1.i.i160, align 8
  store ptr %76, ptr %slot.addr.i161, align 8
  %77 = load ptr, ptr %slot.addr.i161, align 8
  %call21 = call noundef i32 @_ZNK2v86Uint325ValueEv(ptr noundef nonnull align 1 dereferenceable(1) %77)
  store i32 %call21, ptr %limit, align 4
  br label %do.body22

do.body22:                                        ; preds = %_ZNK2v820FunctionCallbackInfoINS_5ValueEEixEi.exit
  %78 = load i32, ptr %limit, align 4
  %cmp = icmp ugt i32 %78, 0
  %lnot23 = xor i1 %cmp, true
  %lnot24 = xor i1 %lnot23, true
  %lnot25 = xor i1 %lnot24, true
  br i1 %lnot25, label %if.then26, label %if.end29

if.then26:                                        ; preds = %do.body22
  br label %do.body27

do.body27:                                        ; preds = %if.then26
  call void @_ZN4node6AssertERKNS_13AssertionInfoE(ptr noundef nonnull align 8 dereferenceable(24) @_ZZN4node8v8_utils28SetHeapSnapshotNearHeapLimitERKN2v820FunctionCallbackInfoINS1_5ValueEEEE4args_0)
  call void @abort() #13
  unreachable

do.end28:                                         ; No predecessors!
  br label %if.end29

if.end29:                                         ; preds = %do.end28, %do.body22
  br label %do.end30

do.end30:                                         ; preds = %if.end29
  %79 = load ptr, ptr %env, align 8
  call void @_ZN4node11Environment36AddHeapSnapshotNearHeapLimitCallbackEv(ptr noundef nonnull align 8 dereferenceable(2872) %79)
  %80 = load ptr, ptr %env, align 8
  %81 = load i32, ptr %limit, align 4
  call void @_ZN4node11Environment33set_heap_snapshot_near_heap_limitEj(ptr noundef nonnull align 8 dereferenceable(2872) %80, i32 noundef %81)
  ret void
}

declare noundef zeroext i1 @_ZNK2v85Value8IsUint32Ev(ptr noundef nonnull align 1 dereferenceable(1)) #1

declare noundef i32 @_ZNK2v86Uint325ValueEv(ptr noundef nonnull align 1 dereferenceable(1)) #1

; Function Attrs: mustprogress nounwind uwtable
define linkonce_odr dso_local void @_ZN4node11Environment36AddHeapSnapshotNearHeapLimitCallbackEv(ptr noundef nonnull align 8 dereferenceable(2872) %this) #4 comdat align 2 {
entry:
  %this.addr = alloca ptr, align 8
  store ptr %this, ptr %this.addr, align 8
  %this1 = load ptr, ptr %this.addr, align 8
  %heapsnapshot_near_heap_limit_callback_added_ = getelementptr inbounds %"class.node::Environment", ptr %this1, i32 0, i32 48
  store i8 1, ptr %heapsnapshot_near_heap_limit_callback_added_, align 4
  %isolate_ = getelementptr inbounds %"class.node::Environment", ptr %this1, i32 0, i32 3
  %0 = load ptr, ptr %isolate_, align 8
  call void @_ZN2v87Isolate24AddNearHeapLimitCallbackEPFmPvmmES1_(ptr noundef nonnull align 1 dereferenceable(1) %0, ptr noundef @_ZN4node11Environment21NearHeapLimitCallbackEPvmm, ptr noundef %this1)
  ret void
}

; Function Attrs: mustprogress nounwind uwtable
define linkonce_odr dso_local void @_ZN4node11Environment33set_heap_snapshot_near_heap_limitEj(ptr noundef nonnull align 8 dereferenceable(2872) %this, i32 noundef %limit) #4 comdat align 2 {
entry:
  %this.addr = alloca ptr, align 8
  %limit.addr = alloca i32, align 4
  store ptr %this, ptr %this.addr, align 8
  store i32 %limit, ptr %limit.addr, align 4
  %this1 = load ptr, ptr %this.addr, align 8
  %0 = load i32, ptr %limit.addr, align 4
  %heap_snapshot_near_heap_limit_ = getelementptr inbounds %"class.node::Environment", ptr %this1, i32 0, i32 47
  store i32 %0, ptr %heap_snapshot_near_heap_limit_, align 8
  ret void
}

; Function Attrs: mustprogress nounwind uwtable
define dso_local void @_ZN4node8v8_utils26UpdateHeapStatisticsBufferERKN2v820FunctionCallbackInfoINS1_5ValueEEE(ptr noundef nonnull align 8 dereferenceable(20) %args) #4 {
entry:
  %this.addr.i = alloca ptr, align 8
  %args.addr = alloca ptr, align 8
  %data = alloca ptr, align 8
  %s = alloca %"class.v8::HeapStatistics", align 8
  %buffer = alloca ptr, align 8
  %ref.tmp = alloca double, align 8
  %ref.tmp3 = alloca %"class.node::AliasedBufferBase<double, v8::Float64Array>::Reference", align 8
  %ref.tmp5 = alloca double, align 8
  %ref.tmp8 = alloca %"class.node::AliasedBufferBase<double, v8::Float64Array>::Reference", align 8
  %ref.tmp10 = alloca double, align 8
  %ref.tmp13 = alloca %"class.node::AliasedBufferBase<double, v8::Float64Array>::Reference", align 8
  %ref.tmp15 = alloca double, align 8
  %ref.tmp18 = alloca %"class.node::AliasedBufferBase<double, v8::Float64Array>::Reference", align 8
  %ref.tmp20 = alloca double, align 8
  %ref.tmp23 = alloca %"class.node::AliasedBufferBase<double, v8::Float64Array>::Reference", align 8
  %ref.tmp25 = alloca double, align 8
  %ref.tmp28 = alloca %"class.node::AliasedBufferBase<double, v8::Float64Array>::Reference", align 8
  %ref.tmp30 = alloca double, align 8
  %ref.tmp33 = alloca %"class.node::AliasedBufferBase<double, v8::Float64Array>::Reference", align 8
  %ref.tmp35 = alloca double, align 8
  %ref.tmp38 = alloca %"class.node::AliasedBufferBase<double, v8::Float64Array>::Reference", align 8
  %ref.tmp40 = alloca double, align 8
  %ref.tmp43 = alloca %"class.node::AliasedBufferBase<double, v8::Float64Array>::Reference", align 8
  %ref.tmp45 = alloca double, align 8
  %ref.tmp48 = alloca %"class.node::AliasedBufferBase<double, v8::Float64Array>::Reference", align 8
  %ref.tmp50 = alloca double, align 8
  %ref.tmp53 = alloca %"class.node::AliasedBufferBase<double, v8::Float64Array>::Reference", align 8
  %ref.tmp55 = alloca double, align 8
  %ref.tmp58 = alloca %"class.node::AliasedBufferBase<double, v8::Float64Array>::Reference", align 8
  %ref.tmp60 = alloca double, align 8
  %ref.tmp63 = alloca %"class.node::AliasedBufferBase<double, v8::Float64Array>::Reference", align 8
  %ref.tmp65 = alloca double, align 8
  %ref.tmp68 = alloca %"class.node::AliasedBufferBase<double, v8::Float64Array>::Reference", align 8
  store ptr %args, ptr %args.addr, align 8
  %0 = load ptr, ptr %args.addr, align 8
  %call = call noundef ptr @_ZN4node5Realm14GetBindingDataINS_8v8_utils11BindingDataEEEPT_RKN2v820FunctionCallbackInfoINS6_5ValueEEE(ptr noundef nonnull align 8 dereferenceable(20) %0)
  store ptr %call, ptr %data, align 8
  call void @_ZN2v814HeapStatisticsC1Ev(ptr noundef nonnull align 8 dereferenceable(112) %s)
  %1 = load ptr, ptr %args.addr, align 8
  store ptr %1, ptr %this.addr.i, align 8
  %this1.i = load ptr, ptr %this.addr.i, align 8
  %2 = load ptr, ptr %this1.i, align 8
  %arrayidx.i = getelementptr inbounds i64, ptr %2, i64 1
  %3 = load ptr, ptr %arrayidx.i, align 8
  call void @_ZN2v87Isolate17GetHeapStatisticsEPNS_14HeapStatisticsE(ptr noundef nonnull align 1 dereferenceable(1) %3, ptr noundef %s)
  %4 = load ptr, ptr %data, align 8
  %heap_statistics_buffer = getelementptr inbounds %"class.node::v8_utils::BindingData", ptr %4, i32 0, i32 1
  store ptr %heap_statistics_buffer, ptr %buffer, align 8
  %call2 = call noundef i64 @_ZN2v814HeapStatistics15total_heap_sizeEv(ptr noundef nonnull align 8 dereferenceable(112) %s)
  %conv = uitofp i64 %call2 to double
  store double %conv, ptr %ref.tmp, align 8
  %5 = load ptr, ptr %buffer, align 8
  call void @_ZN4node17AliasedBufferBaseIdN2v812Float64ArrayEEixEm(ptr sret(%"class.node::AliasedBufferBase<double, v8::Float64Array>::Reference") align 8 %ref.tmp3, ptr noundef nonnull align 8 dereferenceable(56) %5, i64 noundef 0)
  %call4 = call noundef nonnull align 8 dereferenceable(16) ptr @_ZN4node17AliasedBufferBaseIdN2v812Float64ArrayEE9ReferenceaSERKd(ptr noundef nonnull align 8 dereferenceable(16) %ref.tmp3, ptr noundef nonnull align 8 dereferenceable(8) %ref.tmp)
  %call6 = call noundef i64 @_ZN2v814HeapStatistics26total_heap_size_executableEv(ptr noundef nonnull align 8 dereferenceable(112) %s)
  %conv7 = uitofp i64 %call6 to double
  store double %conv7, ptr %ref.tmp5, align 8
  %6 = load ptr, ptr %buffer, align 8
  call void @_ZN4node17AliasedBufferBaseIdN2v812Float64ArrayEEixEm(ptr sret(%"class.node::AliasedBufferBase<double, v8::Float64Array>::Reference") align 8 %ref.tmp8, ptr noundef nonnull align 8 dereferenceable(56) %6, i64 noundef 1)
  %call9 = call noundef nonnull align 8 dereferenceable(16) ptr @_ZN4node17AliasedBufferBaseIdN2v812Float64ArrayEE9ReferenceaSERKd(ptr noundef nonnull align 8 dereferenceable(16) %ref.tmp8, ptr noundef nonnull align 8 dereferenceable(8) %ref.tmp5)
  %call11 = call noundef i64 @_ZN2v814HeapStatistics19total_physical_sizeEv(ptr noundef nonnull align 8 dereferenceable(112) %s)
  %conv12 = uitofp i64 %call11 to double
  store double %conv12, ptr %ref.tmp10, align 8
  %7 = load ptr, ptr %buffer, align 8
  call void @_ZN4node17AliasedBufferBaseIdN2v812Float64ArrayEEixEm(ptr sret(%"class.node::AliasedBufferBase<double, v8::Float64Array>::Reference") align 8 %ref.tmp13, ptr noundef nonnull align 8 dereferenceable(56) %7, i64 noundef 2)
  %call14 = call noundef nonnull align 8 dereferenceable(16) ptr @_ZN4node17AliasedBufferBaseIdN2v812Float64ArrayEE9ReferenceaSERKd(ptr noundef nonnull align 8 dereferenceable(16) %ref.tmp13, ptr noundef nonnull align 8 dereferenceable(8) %ref.tmp10)
  %call16 = call noundef i64 @_ZN2v814HeapStatistics20total_available_sizeEv(ptr noundef nonnull align 8 dereferenceable(112) %s)
  %conv17 = uitofp i64 %call16 to double
  store double %conv17, ptr %ref.tmp15, align 8
  %8 = load ptr, ptr %buffer, align 8
  call void @_ZN4node17AliasedBufferBaseIdN2v812Float64ArrayEEixEm(ptr sret(%"class.node::AliasedBufferBase<double, v8::Float64Array>::Reference") align 8 %ref.tmp18, ptr noundef nonnull align 8 dereferenceable(56) %8, i64 noundef 3)
  %call19 = call noundef nonnull align 8 dereferenceable(16) ptr @_ZN4node17AliasedBufferBaseIdN2v812Float64ArrayEE9ReferenceaSERKd(ptr noundef nonnull align 8 dereferenceable(16) %ref.tmp18, ptr noundef nonnull align 8 dereferenceable(8) %ref.tmp15)
  %call21 = call noundef i64 @_ZN2v814HeapStatistics14used_heap_sizeEv(ptr noundef nonnull align 8 dereferenceable(112) %s)
  %conv22 = uitofp i64 %call21 to double
  store double %conv22, ptr %ref.tmp20, align 8
  %9 = load ptr, ptr %buffer, align 8
  call void @_ZN4node17AliasedBufferBaseIdN2v812Float64ArrayEEixEm(ptr sret(%"class.node::AliasedBufferBase<double, v8::Float64Array>::Reference") align 8 %ref.tmp23, ptr noundef nonnull align 8 dereferenceable(56) %9, i64 noundef 4)
  %call24 = call noundef nonnull align 8 dereferenceable(16) ptr @_ZN4node17AliasedBufferBaseIdN2v812Float64ArrayEE9ReferenceaSERKd(ptr noundef nonnull align 8 dereferenceable(16) %ref.tmp23, ptr noundef nonnull align 8 dereferenceable(8) %ref.tmp20)
  %call26 = call noundef i64 @_ZN2v814HeapStatistics15heap_size_limitEv(ptr noundef nonnull align 8 dereferenceable(112) %s)
  %conv27 = uitofp i64 %call26 to double
  store double %conv27, ptr %ref.tmp25, align 8
  %10 = load ptr, ptr %buffer, align 8
  call void @_ZN4node17AliasedBufferBaseIdN2v812Float64ArrayEEixEm(ptr sret(%"class.node::AliasedBufferBase<double, v8::Float64Array>::Reference") align 8 %ref.tmp28, ptr noundef nonnull align 8 dereferenceable(56) %10, i64 noundef 5)
  %call29 = call noundef nonnull align 8 dereferenceable(16) ptr @_ZN4node17AliasedBufferBaseIdN2v812Float64ArrayEE9ReferenceaSERKd(ptr noundef nonnull align 8 dereferenceable(16) %ref.tmp28, ptr noundef nonnull align 8 dereferenceable(8) %ref.tmp25)
  %call31 = call noundef i64 @_ZN2v814HeapStatistics15malloced_memoryEv(ptr noundef nonnull align 8 dereferenceable(112) %s)
  %conv32 = uitofp i64 %call31 to double
  store double %conv32, ptr %ref.tmp30, align 8
  %11 = load ptr, ptr %buffer, align 8
  call void @_ZN4node17AliasedBufferBaseIdN2v812Float64ArrayEEixEm(ptr sret(%"class.node::AliasedBufferBase<double, v8::Float64Array>::Reference") align 8 %ref.tmp33, ptr noundef nonnull align 8 dereferenceable(56) %11, i64 noundef 6)
  %call34 = call noundef nonnull align 8 dereferenceable(16) ptr @_ZN4node17AliasedBufferBaseIdN2v812Float64ArrayEE9ReferenceaSERKd(ptr noundef nonnull align 8 dereferenceable(16) %ref.tmp33, ptr noundef nonnull align 8 dereferenceable(8) %ref.tmp30)
  %call36 = call noundef i64 @_ZN2v814HeapStatistics20peak_malloced_memoryEv(ptr noundef nonnull align 8 dereferenceable(112) %s)
  %conv37 = uitofp i64 %call36 to double
  store double %conv37, ptr %ref.tmp35, align 8
  %12 = load ptr, ptr %buffer, align 8
  call void @_ZN4node17AliasedBufferBaseIdN2v812Float64ArrayEEixEm(ptr sret(%"class.node::AliasedBufferBase<double, v8::Float64Array>::Reference") align 8 %ref.tmp38, ptr noundef nonnull align 8 dereferenceable(56) %12, i64 noundef 7)
  %call39 = call noundef nonnull align 8 dereferenceable(16) ptr @_ZN4node17AliasedBufferBaseIdN2v812Float64ArrayEE9ReferenceaSERKd(ptr noundef nonnull align 8 dereferenceable(16) %ref.tmp38, ptr noundef nonnull align 8 dereferenceable(8) %ref.tmp35)
  %call41 = call noundef i64 @_ZN2v814HeapStatistics16does_zap_garbageEv(ptr noundef nonnull align 8 dereferenceable(112) %s)
  %conv42 = uitofp i64 %call41 to double
  store double %conv42, ptr %ref.tmp40, align 8
  %13 = load ptr, ptr %buffer, align 8
  call void @_ZN4node17AliasedBufferBaseIdN2v812Float64ArrayEEixEm(ptr sret(%"class.node::AliasedBufferBase<double, v8::Float64Array>::Reference") align 8 %ref.tmp43, ptr noundef nonnull align 8 dereferenceable(56) %13, i64 noundef 8)
  %call44 = call noundef nonnull align 8 dereferenceable(16) ptr @_ZN4node17AliasedBufferBaseIdN2v812Float64ArrayEE9ReferenceaSERKd(ptr noundef nonnull align 8 dereferenceable(16) %ref.tmp43, ptr noundef nonnull align 8 dereferenceable(8) %ref.tmp40)
  %call46 = call noundef i64 @_ZN2v814HeapStatistics25number_of_native_contextsEv(ptr noundef nonnull align 8 dereferenceable(112) %s)
  %conv47 = uitofp i64 %call46 to double
  store double %conv47, ptr %ref.tmp45, align 8
  %14 = load ptr, ptr %buffer, align 8
  call void @_ZN4node17AliasedBufferBaseIdN2v812Float64ArrayEEixEm(ptr sret(%"class.node::AliasedBufferBase<double, v8::Float64Array>::Reference") align 8 %ref.tmp48, ptr noundef nonnull align 8 dereferenceable(56) %14, i64 noundef 9)
  %call49 = call noundef nonnull align 8 dereferenceable(16) ptr @_ZN4node17AliasedBufferBaseIdN2v812Float64ArrayEE9ReferenceaSERKd(ptr noundef nonnull align 8 dereferenceable(16) %ref.tmp48, ptr noundef nonnull align 8 dereferenceable(8) %ref.tmp45)
  %call51 = call noundef i64 @_ZN2v814HeapStatistics27number_of_detached_contextsEv(ptr noundef nonnull align 8 dereferenceable(112) %s)
  %conv52 = uitofp i64 %call51 to double
  store double %conv52, ptr %ref.tmp50, align 8
  %15 = load ptr, ptr %buffer, align 8
  call void @_ZN4node17AliasedBufferBaseIdN2v812Float64ArrayEEixEm(ptr sret(%"class.node::AliasedBufferBase<double, v8::Float64Array>::Reference") align 8 %ref.tmp53, ptr noundef nonnull align 8 dereferenceable(56) %15, i64 noundef 10)
  %call54 = call noundef nonnull align 8 dereferenceable(16) ptr @_ZN4node17AliasedBufferBaseIdN2v812Float64ArrayEE9ReferenceaSERKd(ptr noundef nonnull align 8 dereferenceable(16) %ref.tmp53, ptr noundef nonnull align 8 dereferenceable(8) %ref.tmp50)
  %call56 = call noundef i64 @_ZN2v814HeapStatistics25total_global_handles_sizeEv(ptr noundef nonnull align 8 dereferenceable(112) %s)
  %conv57 = uitofp i64 %call56 to double
  store double %conv57, ptr %ref.tmp55, align 8
  %16 = load ptr, ptr %buffer, align 8
  call void @_ZN4node17AliasedBufferBaseIdN2v812Float64ArrayEEixEm(ptr sret(%"class.node::AliasedBufferBase<double, v8::Float64Array>::Reference") align 8 %ref.tmp58, ptr noundef nonnull align 8 dereferenceable(56) %16, i64 noundef 11)
  %call59 = call noundef nonnull align 8 dereferenceable(16) ptr @_ZN4node17AliasedBufferBaseIdN2v812Float64ArrayEE9ReferenceaSERKd(ptr noundef nonnull align 8 dereferenceable(16) %ref.tmp58, ptr noundef nonnull align 8 dereferenceable(8) %ref.tmp55)
  %call61 = call noundef i64 @_ZN2v814HeapStatistics24used_global_handles_sizeEv(ptr noundef nonnull align 8 dereferenceable(112) %s)
  %conv62 = uitofp i64 %call61 to double
  store double %conv62, ptr %ref.tmp60, align 8
  %17 = load ptr, ptr %buffer, align 8
  call void @_ZN4node17AliasedBufferBaseIdN2v812Float64ArrayEEixEm(ptr sret(%"class.node::AliasedBufferBase<double, v8::Float64Array>::Reference") align 8 %ref.tmp63, ptr noundef nonnull align 8 dereferenceable(56) %17, i64 noundef 12)
  %call64 = call noundef nonnull align 8 dereferenceable(16) ptr @_ZN4node17AliasedBufferBaseIdN2v812Float64ArrayEE9ReferenceaSERKd(ptr noundef nonnull align 8 dereferenceable(16) %ref.tmp63, ptr noundef nonnull align 8 dereferenceable(8) %ref.tmp60)
  %call66 = call noundef i64 @_ZN2v814HeapStatistics15external_memoryEv(ptr noundef nonnull align 8 dereferenceable(112) %s)
  %conv67 = uitofp i64 %call66 to double
  store double %conv67, ptr %ref.tmp65, align 8
  %18 = load ptr, ptr %buffer, align 8
  call void @_ZN4node17AliasedBufferBaseIdN2v812Float64ArrayEEixEm(ptr sret(%"class.node::AliasedBufferBase<double, v8::Float64Array>::Reference") align 8 %ref.tmp68, ptr noundef nonnull align 8 dereferenceable(56) %18, i64 noundef 13)
  %call69 = call noundef nonnull align 8 dereferenceable(16) ptr @_ZN4node17AliasedBufferBaseIdN2v812Float64ArrayEE9ReferenceaSERKd(ptr noundef nonnull align 8 dereferenceable(16) %ref.tmp68, ptr noundef nonnull align 8 dereferenceable(8) %ref.tmp65)
  ret void
}

; Function Attrs: mustprogress nounwind uwtable
define linkonce_odr dso_local noundef ptr @_ZN4node5Realm14GetBindingDataINS_8v8_utils11BindingDataEEEPT_RKN2v820FunctionCallbackInfoINS6_5ValueEEE(ptr noundef nonnull align 8 dereferenceable(20) %info) #4 comdat align 2 {
entry:
  %this.addr.i = alloca ptr, align 8
  %info.addr = alloca ptr, align 8
  %agg.tmp = alloca %"class.v8::Local.22", align 8
  store ptr %info, ptr %info.addr, align 8
  %0 = load ptr, ptr %info.addr, align 8
  store ptr %0, ptr %this.addr.i, align 8
  %this1.i = load ptr, ptr %this.addr.i, align 8
  %1 = load ptr, ptr %this1.i, align 8
  %arrayidx.i = getelementptr inbounds i64, ptr %1, i64 1
  %2 = load ptr, ptr %arrayidx.i, align 8
  %call1 = call ptr @_ZN2v87Isolate17GetCurrentContextEv(ptr noundef nonnull align 1 dereferenceable(1) %2)
  %coerce.dive = getelementptr inbounds %"class.v8::Local.22", ptr %agg.tmp, i32 0, i32 0
  %coerce.dive2 = getelementptr inbounds %"class.v8::LocalBase.23", ptr %coerce.dive, i32 0, i32 0
  %coerce.dive3 = getelementptr inbounds %"class.v8::IndirectHandleBase", ptr %coerce.dive2, i32 0, i32 0
  store ptr %call1, ptr %coerce.dive3, align 8
  %coerce.dive4 = getelementptr inbounds %"class.v8::Local.22", ptr %agg.tmp, i32 0, i32 0
  %coerce.dive5 = getelementptr inbounds %"class.v8::LocalBase.23", ptr %coerce.dive4, i32 0, i32 0
  %coerce.dive6 = getelementptr inbounds %"class.v8::IndirectHandleBase", ptr %coerce.dive5, i32 0, i32 0
  %3 = load ptr, ptr %coerce.dive6, align 8
  %call7 = call noundef ptr @_ZN4node5Realm14GetBindingDataINS_8v8_utils11BindingDataEEEPT_N2v85LocalINS6_7ContextEEE(ptr %3)
  ret ptr %call7
}

declare void @_ZN2v814HeapStatisticsC1Ev(ptr noundef nonnull align 8 dereferenceable(112)) unnamed_addr #1

declare void @_ZN2v87Isolate17GetHeapStatisticsEPNS_14HeapStatisticsE(ptr noundef nonnull align 1 dereferenceable(1), ptr noundef) #1

; Function Attrs: mustprogress nounwind uwtable
define linkonce_odr dso_local noundef i64 @_ZN2v814HeapStatistics15total_heap_sizeEv(ptr noundef nonnull align 8 dereferenceable(112) %this) #4 comdat align 2 {
entry:
  %this.addr = alloca ptr, align 8
  store ptr %this, ptr %this.addr, align 8
  %this1 = load ptr, ptr %this.addr, align 8
  %total_heap_size_ = getelementptr inbounds %"class.v8::HeapStatistics", ptr %this1, i32 0, i32 0
  %0 = load i64, ptr %total_heap_size_, align 8
  ret i64 %0
}

; Function Attrs: mustprogress nounwind uwtable
define linkonce_odr dso_local void @_ZN4node17AliasedBufferBaseIdN2v812Float64ArrayEEixEm(ptr noalias sret(%"class.node::AliasedBufferBase<double, v8::Float64Array>::Reference") align 8 %agg.result, ptr noundef nonnull align 8 dereferenceable(56) %this, i64 noundef %index) #4 comdat align 2 {
entry:
  %result.ptr = alloca ptr, align 8
  %this.addr = alloca ptr, align 8
  %index.addr = alloca i64, align 8
  store ptr %agg.result, ptr %result.ptr, align 8
  store ptr %this, ptr %this.addr, align 8
  store i64 %index, ptr %index.addr, align 8
  %this1 = load ptr, ptr %this.addr, align 8
  %0 = load i64, ptr %index.addr, align 8
  call void @_ZN4node17AliasedBufferBaseIdN2v812Float64ArrayEE9ReferenceC2EPS3_m(ptr noundef nonnull align 8 dereferenceable(16) %agg.result, ptr noundef %this1, i64 noundef %0)
  ret void
}

; Function Attrs: mustprogress nounwind uwtable
define linkonce_odr dso_local noundef nonnull align 8 dereferenceable(16) ptr @_ZN4node17AliasedBufferBaseIdN2v812Float64ArrayEE9ReferenceaSERKd(ptr noundef nonnull align 8 dereferenceable(16) %this, ptr noundef nonnull align 8 dereferenceable(8) %val) #4 comdat align 2 {
entry:
  %this.addr = alloca ptr, align 8
  %val.addr = alloca ptr, align 8
  store ptr %this, ptr %this.addr, align 8
  store ptr %val, ptr %val.addr, align 8
  %this1 = load ptr, ptr %this.addr, align 8
  %aliased_buffer_ = getelementptr inbounds %"class.node::AliasedBufferBase<double, v8::Float64Array>::Reference", ptr %this1, i32 0, i32 0
  %0 = load ptr, ptr %aliased_buffer_, align 8
  %index_ = getelementptr inbounds %"class.node::AliasedBufferBase<double, v8::Float64Array>::Reference", ptr %this1, i32 0, i32 1
  %1 = load i64, ptr %index_, align 8
  %2 = load ptr, ptr %val.addr, align 8
  %3 = load double, ptr %2, align 8
  call void @_ZN4node17AliasedBufferBaseIdN2v812Float64ArrayEE8SetValueEmd(ptr noundef nonnull align 8 dereferenceable(56) %0, i64 noundef %1, double noundef %3)
  ret ptr %this1
}

; Function Attrs: mustprogress nounwind uwtable
define linkonce_odr dso_local noundef i64 @_ZN2v814HeapStatistics26total_heap_size_executableEv(ptr noundef nonnull align 8 dereferenceable(112) %this) #4 comdat align 2 {
entry:
  %this.addr = alloca ptr, align 8
  store ptr %this, ptr %this.addr, align 8
  %this1 = load ptr, ptr %this.addr, align 8
  %total_heap_size_executable_ = getelementptr inbounds %"class.v8::HeapStatistics", ptr %this1, i32 0, i32 1
  %0 = load i64, ptr %total_heap_size_executable_, align 8
  ret i64 %0
}

; Function Attrs: mustprogress nounwind uwtable
define linkonce_odr dso_local noundef i64 @_ZN2v814HeapStatistics19total_physical_sizeEv(ptr noundef nonnull align 8 dereferenceable(112) %this) #4 comdat align 2 {
entry:
  %this.addr = alloca ptr, align 8
  store ptr %this, ptr %this.addr, align 8
  %this1 = load ptr, ptr %this.addr, align 8
  %total_physical_size_ = getelementptr inbounds %"class.v8::HeapStatistics", ptr %this1, i32 0, i32 2
  %0 = load i64, ptr %total_physical_size_, align 8
  ret i64 %0
}

; Function Attrs: mustprogress nounwind uwtable
define linkonce_odr dso_local noundef i64 @_ZN2v814HeapStatistics20total_available_sizeEv(ptr noundef nonnull align 8 dereferenceable(112) %this) #4 comdat align 2 {
entry:
  %this.addr = alloca ptr, align 8
  store ptr %this, ptr %this.addr, align 8
  %this1 = load ptr, ptr %this.addr, align 8
  %total_available_size_ = getelementptr inbounds %"class.v8::HeapStatistics", ptr %this1, i32 0, i32 3
  %0 = load i64, ptr %total_available_size_, align 8
  ret i64 %0
}

; Function Attrs: mustprogress nounwind uwtable
define linkonce_odr dso_local noundef i64 @_ZN2v814HeapStatistics14used_heap_sizeEv(ptr noundef nonnull align 8 dereferenceable(112) %this) #4 comdat align 2 {
entry:
  %this.addr = alloca ptr, align 8
  store ptr %this, ptr %this.addr, align 8
  %this1 = load ptr, ptr %this.addr, align 8
  %used_heap_size_ = getelementptr inbounds %"class.v8::HeapStatistics", ptr %this1, i32 0, i32 4
  %0 = load i64, ptr %used_heap_size_, align 8
  ret i64 %0
}

; Function Attrs: mustprogress nounwind uwtable
define linkonce_odr dso_local noundef i64 @_ZN2v814HeapStatistics15heap_size_limitEv(ptr noundef nonnull align 8 dereferenceable(112) %this) #4 comdat align 2 {
entry:
  %this.addr = alloca ptr, align 8
  store ptr %this, ptr %this.addr, align 8
  %this1 = load ptr, ptr %this.addr, align 8
  %heap_size_limit_ = getelementptr inbounds %"class.v8::HeapStatistics", ptr %this1, i32 0, i32 5
  %0 = load i64, ptr %heap_size_limit_, align 8
  ret i64 %0
}

; Function Attrs: mustprogress nounwind uwtable
define linkonce_odr dso_local noundef i64 @_ZN2v814HeapStatistics15malloced_memoryEv(ptr noundef nonnull align 8 dereferenceable(112) %this) #4 comdat align 2 {
entry:
  %this.addr = alloca ptr, align 8
  store ptr %this, ptr %this.addr, align 8
  %this1 = load ptr, ptr %this.addr, align 8
  %malloced_memory_ = getelementptr inbounds %"class.v8::HeapStatistics", ptr %this1, i32 0, i32 6
  %0 = load i64, ptr %malloced_memory_, align 8
  ret i64 %0
}

